ARM GAS  /tmp/ccCvVd5B.s 			page 1


   1              		.arch armv8.1-m.main
   2              		.fpu fpv5-d16
   3              		.arch_extension dsp
   4              		.arch_extension fp
   5              		.arch_extension fp.dp
   6              		.arch_extension mve
   7              		.arch_extension mve.fp
   8              		.eabi_attribute 5, "cortex-m55"
   9              		.eabi_attribute 28, 1
  10              		.eabi_attribute 20, 1
  11              		.eabi_attribute 21, 1
  12              		.eabi_attribute 23, 3
  13              		.eabi_attribute 24, 1
  14              		.eabi_attribute 25, 1
  15              		.eabi_attribute 26, 1
  16              		.eabi_attribute 30, 4
  17              		.eabi_attribute 34, 1
  18              		.eabi_attribute 38, 1
  19              		.eabi_attribute 18, 4
  20              		.file	"app_postprocess_od_yolov2_ui.c"
  21              		.text
  22              	.Ltext0:
  23              		.cfi_sections	.debug_frame
  24              		.file 1 "../Middlewares/ai-postprocessing-wrapper/app_postprocess_od_yolov2_ui.c"
  25              		.section	.rodata.app_postprocess_init.str1.1,"aMS",%progbits,1
  26              	.LC0:
  27 0000 4E4E5F49 		.ascii	"NN_Info\000"
  27      6E666F00 
  28              	.LC1:
  29 0008 2E2E2F4D 		.ascii	"../Middlewares/ai-postprocessing-wrapper/app_postpr"
  29      6964646C 
  29      65776172 
  29      65732F61 
  29      692D706F 
  30 003b 6F636573 		.ascii	"ocess_od_yolov2_ui.c\000"
  30      735F6F64 
  30      5F796F6C 
  30      6F76325F 
  30      75692E63 
  31              		.section	.text.app_postprocess_init,"ax",%progbits
  32              		.align	1
  33              		.global	app_postprocess_init
  34              		.syntax unified
  35              		.thumb
  36              		.thumb_func
  38              	app_postprocess_init:
  39              	.LVL0:
  40              	.LFB774:
   1:../Middlewares/ai-postprocessing-wrapper/app_postprocess_od_yolov2_ui.c ****  /**
   2:../Middlewares/ai-postprocessing-wrapper/app_postprocess_od_yolov2_ui.c ****  ******************************************************************************
   3:../Middlewares/ai-postprocessing-wrapper/app_postprocess_od_yolov2_ui.c ****  * @file    app_postprocess_od_yolov2_uf.c
   4:../Middlewares/ai-postprocessing-wrapper/app_postprocess_od_yolov2_ui.c ****  * @author  GPM Application Team
   5:../Middlewares/ai-postprocessing-wrapper/app_postprocess_od_yolov2_ui.c ****  *
   6:../Middlewares/ai-postprocessing-wrapper/app_postprocess_od_yolov2_ui.c ****  ******************************************************************************
   7:../Middlewares/ai-postprocessing-wrapper/app_postprocess_od_yolov2_ui.c ****  * @attention
   8:../Middlewares/ai-postprocessing-wrapper/app_postprocess_od_yolov2_ui.c ****  *
   9:../Middlewares/ai-postprocessing-wrapper/app_postprocess_od_yolov2_ui.c ****  * Copyright (c) 2023 STMicroelectronics.
ARM GAS  /tmp/ccCvVd5B.s 			page 2


  10:../Middlewares/ai-postprocessing-wrapper/app_postprocess_od_yolov2_ui.c ****  * All rights reserved.
  11:../Middlewares/ai-postprocessing-wrapper/app_postprocess_od_yolov2_ui.c ****  *
  12:../Middlewares/ai-postprocessing-wrapper/app_postprocess_od_yolov2_ui.c ****  * This software is licensed under terms that can be found in the LICENSE file
  13:../Middlewares/ai-postprocessing-wrapper/app_postprocess_od_yolov2_ui.c ****  * in the root directory of this software component.
  14:../Middlewares/ai-postprocessing-wrapper/app_postprocess_od_yolov2_ui.c ****  * If no LICENSE file comes with this software, it is provided AS-IS.
  15:../Middlewares/ai-postprocessing-wrapper/app_postprocess_od_yolov2_ui.c ****  *
  16:../Middlewares/ai-postprocessing-wrapper/app_postprocess_od_yolov2_ui.c ****  ******************************************************************************
  17:../Middlewares/ai-postprocessing-wrapper/app_postprocess_od_yolov2_ui.c ****  */
  18:../Middlewares/ai-postprocessing-wrapper/app_postprocess_od_yolov2_ui.c **** 
  19:../Middlewares/ai-postprocessing-wrapper/app_postprocess_od_yolov2_ui.c **** 
  20:../Middlewares/ai-postprocessing-wrapper/app_postprocess_od_yolov2_ui.c **** #include "app_postprocess.h"
  21:../Middlewares/ai-postprocessing-wrapper/app_postprocess_od_yolov2_ui.c **** #include "app_config.h"
  22:../Middlewares/ai-postprocessing-wrapper/app_postprocess_od_yolov2_ui.c **** 
  23:../Middlewares/ai-postprocessing-wrapper/app_postprocess_od_yolov2_ui.c **** #if POSTPROCESS_TYPE == POSTPROCESS_OD_YOLO_V2_UI
  24:../Middlewares/ai-postprocessing-wrapper/app_postprocess_od_yolov2_ui.c **** #include <assert.h>
  25:../Middlewares/ai-postprocessing-wrapper/app_postprocess_od_yolov2_ui.c **** 
  26:../Middlewares/ai-postprocessing-wrapper/app_postprocess_od_yolov2_ui.c **** POSTPROCESS_WRAPPER_SECTION
  27:../Middlewares/ai-postprocessing-wrapper/app_postprocess_od_yolov2_ui.c **** static uint8_t scratch_buffer[AI_OD_YOLOV2_PP_GRID_WIDTH * AI_OD_YOLOV2_PP_GRID_HEIGHT * AI_OD_YOLO
  28:../Middlewares/ai-postprocessing-wrapper/app_postprocess_od_yolov2_ui.c **** 
  29:../Middlewares/ai-postprocessing-wrapper/app_postprocess_od_yolov2_ui.c **** int32_t app_postprocess_init(void *params_postprocess, stai_network_info *NN_Info)
  30:../Middlewares/ai-postprocessing-wrapper/app_postprocess_od_yolov2_ui.c **** {
  41              		.loc 1 30 1 view -0
  42              		.cfi_startproc
  43              		@ args = 0, pretend = 0, frame = 0
  44              		@ frame_needed = 0, uses_anonymous_args = 0
  31:../Middlewares/ai-postprocessing-wrapper/app_postprocess_od_yolov2_ui.c ****   int32_t error = AI_OD_POSTPROCESS_ERROR_NO;
  45              		.loc 1 31 3 view .LVU1
  32:../Middlewares/ai-postprocessing-wrapper/app_postprocess_od_yolov2_ui.c ****   od_yolov2_pp_static_param_t *params = (od_yolov2_pp_static_param_t *) params_postprocess;
  46              		.loc 1 32 3 view .LVU2
  33:../Middlewares/ai-postprocessing-wrapper/app_postprocess_od_yolov2_ui.c **** 
  34:../Middlewares/ai-postprocessing-wrapper/app_postprocess_od_yolov2_ui.c ****   assert(NN_Info);
  47              		.loc 1 34 3 view .LVU3
  30:../Middlewares/ai-postprocessing-wrapper/app_postprocess_od_yolov2_ui.c ****   int32_t error = AI_OD_POSTPROCESS_ERROR_NO;
  48              		.loc 1 30 1 is_stmt 0 view .LVU4
  49 0000 08B5     		push	{r3, lr}
  50              		.cfi_def_cfa_offset 8
  51              		.cfi_offset 3, -8
  52              		.cfi_offset 14, -4
  53              		.loc 1 34 3 view .LVU5
  54 0002 29B9     		cbnz	r1, .L2
  55              		.loc 1 34 3 discriminator 1 view .LVU6
  56 0004 2221     		movs	r1, #34
  57              	.LVL1:
  58              		.loc 1 34 3 discriminator 1 view .LVU7
  59 0006 124B     		ldr	r3, .L3
  60 0008 124A     		ldr	r2, .L3+4
  61 000a 1348     		ldr	r0, .L3+8
  62              	.LVL2:
  63              		.loc 1 34 3 discriminator 1 view .LVU8
  64 000c FFF7FEFF 		bl	__assert_func
  65              	.LVL3:
  66              	.L2:
  35:../Middlewares/ai-postprocessing-wrapper/app_postprocess_od_yolov2_ui.c ****   params->raw_scale = NN_Info->outputs[0].scale.data[0];
  67              		.loc 1 35 3 is_stmt 1 view .LVU9
  68              		.loc 1 35 30 is_stmt 0 view .LVU10
  69 0010 0A6C     		ldr	r2, [r1, #64]
  70              		.loc 1 35 53 view .LVU11
ARM GAS  /tmp/ccCvVd5B.s 			page 3


  71 0012 9169     		ldr	r1, [r2, #24]
  72              	.LVL4:
  36:../Middlewares/ai-postprocessing-wrapper/app_postprocess_od_yolov2_ui.c ****   params->raw_zero_point = NN_Info->outputs[0].zeropoint.data[0];
  73              		.loc 1 36 62 view .LVU12
  74 0014 126A     		ldr	r2, [r2, #32]
  35:../Middlewares/ai-postprocessing-wrapper/app_postprocess_od_yolov2_ui.c ****   params->raw_scale = NN_Info->outputs[0].scale.data[0];
  75              		.loc 1 35 53 view .LVU13
  76 0016 0968     		ldr	r1, [r1]	@ float
  77              		.loc 1 36 26 view .LVU14
  78 0018 1288     		ldrh	r2, [r2]
  35:../Middlewares/ai-postprocessing-wrapper/app_postprocess_od_yolov2_ui.c ****   params->raw_scale = NN_Info->outputs[0].scale.data[0];
  79              		.loc 1 35 21 view .LVU15
  80 001a 8162     		str	r1, [r0, #40]	@ float
  81              		.loc 1 36 3 is_stmt 1 view .LVU16
  82              		.loc 1 36 26 is_stmt 0 view .LVU17
  83 001c 80F82C20 		strb	r2, [r0, #44]
  37:../Middlewares/ai-postprocessing-wrapper/app_postprocess_od_yolov2_ui.c ****   params->conf_threshold = AI_OD_YOLOV2_PP_CONF_THRESHOLD;
  84              		.loc 1 37 3 is_stmt 1 view .LVU18
  85              		.loc 1 37 26 is_stmt 0 view .LVU19
  86 0020 0E4A     		ldr	r2, .L3+12
  38:../Middlewares/ai-postprocessing-wrapper/app_postprocess_od_yolov2_ui.c ****   params->iou_threshold = AI_OD_YOLOV2_PP_IOU_THRESHOLD;
  39:../Middlewares/ai-postprocessing-wrapper/app_postprocess_od_yolov2_ui.c ****   params->nb_anchors = AI_OD_YOLOV2_PP_NB_ANCHORS;
  40:../Middlewares/ai-postprocessing-wrapper/app_postprocess_od_yolov2_ui.c ****   params->nb_classes = AI_OD_YOLOV2_PP_NB_CLASSES;
  87              		.loc 1 40 22 view .LVU20
  88 0022 0521     		movs	r1, #5
  41:../Middlewares/ai-postprocessing-wrapper/app_postprocess_od_yolov2_ui.c ****   params->grid_height = AI_OD_YOLOV2_PP_GRID_HEIGHT;
  42:../Middlewares/ai-postprocessing-wrapper/app_postprocess_od_yolov2_ui.c ****   params->grid_width = AI_OD_YOLOV2_PP_GRID_WIDTH;
  43:../Middlewares/ai-postprocessing-wrapper/app_postprocess_od_yolov2_ui.c ****   params->nb_input_boxes = AI_OD_YOLOV2_PP_NB_INPUT_BOXES;
  44:../Middlewares/ai-postprocessing-wrapper/app_postprocess_od_yolov2_ui.c ****   params->pAnchors = AI_OD_YOLOV2_PP_ANCHORS;
  45:../Middlewares/ai-postprocessing-wrapper/app_postprocess_od_yolov2_ui.c ****   params->max_boxes_limit = AI_OD_YOLOV2_PP_MAX_BOXES_LIMIT;
  46:../Middlewares/ai-postprocessing-wrapper/app_postprocess_od_yolov2_ui.c ****   params->pScratchBuffer = scratch_buffer;
  47:../Middlewares/ai-postprocessing-wrapper/app_postprocess_od_yolov2_ui.c ****   error = od_yolov2_pp_reset(params);
  48:../Middlewares/ai-postprocessing-wrapper/app_postprocess_od_yolov2_ui.c ****   return error;
  49:../Middlewares/ai-postprocessing-wrapper/app_postprocess_od_yolov2_ui.c **** }
  89              		.loc 1 49 1 view .LVU21
  90 0024 BDE80840 		pop	{r3, lr}
  91              		.cfi_restore 14
  92              		.cfi_restore 3
  93              		.cfi_def_cfa_offset 0
  37:../Middlewares/ai-postprocessing-wrapper/app_postprocess_od_yolov2_ui.c ****   params->iou_threshold = AI_OD_YOLOV2_PP_IOU_THRESHOLD;
  94              		.loc 1 37 26 view .LVU22
  95 0028 8261     		str	r2, [r0, #24]	@ float
  38:../Middlewares/ai-postprocessing-wrapper/app_postprocess_od_yolov2_ui.c ****   params->iou_threshold = AI_OD_YOLOV2_PP_IOU_THRESHOLD;
  96              		.loc 1 38 3 is_stmt 1 view .LVU23
  38:../Middlewares/ai-postprocessing-wrapper/app_postprocess_od_yolov2_ui.c ****   params->iou_threshold = AI_OD_YOLOV2_PP_IOU_THRESHOLD;
  97              		.loc 1 38 25 is_stmt 0 view .LVU24
  98 002a 0D4A     		ldr	r2, .L3+16
  99 002c C261     		str	r2, [r0, #28]	@ float
  39:../Middlewares/ai-postprocessing-wrapper/app_postprocess_od_yolov2_ui.c ****   params->nb_classes = AI_OD_YOLOV2_PP_NB_CLASSES;
 100              		.loc 1 39 3 is_stmt 1 view .LVU25
  40:../Middlewares/ai-postprocessing-wrapper/app_postprocess_od_yolov2_ui.c ****   params->grid_height = AI_OD_YOLOV2_PP_GRID_HEIGHT;
 101              		.loc 1 40 22 is_stmt 0 view .LVU26
 102 002e 0122     		movs	r2, #1
 103 0030 C0E90021 		strd	r2, r1, [r0]
  41:../Middlewares/ai-postprocessing-wrapper/app_postprocess_od_yolov2_ui.c ****   params->grid_width = AI_OD_YOLOV2_PP_GRID_WIDTH;
 104              		.loc 1 41 3 is_stmt 1 view .LVU27
  41:../Middlewares/ai-postprocessing-wrapper/app_postprocess_od_yolov2_ui.c ****   params->grid_width = AI_OD_YOLOV2_PP_GRID_WIDTH;
ARM GAS  /tmp/ccCvVd5B.s 			page 4


 105              		.loc 1 41 23 is_stmt 0 view .LVU28
 106 0034 0722     		movs	r2, #7
  42:../Middlewares/ai-postprocessing-wrapper/app_postprocess_od_yolov2_ui.c ****   params->nb_input_boxes = AI_OD_YOLOV2_PP_NB_INPUT_BOXES;
 107              		.loc 1 42 22 view .LVU29
 108 0036 C0E90222 		strd	r2, r2, [r0, #8]
  43:../Middlewares/ai-postprocessing-wrapper/app_postprocess_od_yolov2_ui.c ****   params->pAnchors = AI_OD_YOLOV2_PP_ANCHORS;
 109              		.loc 1 43 3 is_stmt 1 view .LVU30
  43:../Middlewares/ai-postprocessing-wrapper/app_postprocess_od_yolov2_ui.c ****   params->pAnchors = AI_OD_YOLOV2_PP_ANCHORS;
 110              		.loc 1 43 26 is_stmt 0 view .LVU31
 111 003a 3122     		movs	r2, #49
 112 003c 0261     		str	r2, [r0, #16]
  44:../Middlewares/ai-postprocessing-wrapper/app_postprocess_od_yolov2_ui.c ****   params->max_boxes_limit = AI_OD_YOLOV2_PP_MAX_BOXES_LIMIT;
 113              		.loc 1 44 3 is_stmt 1 view .LVU32
  44:../Middlewares/ai-postprocessing-wrapper/app_postprocess_od_yolov2_ui.c ****   params->max_boxes_limit = AI_OD_YOLOV2_PP_MAX_BOXES_LIMIT;
 114              		.loc 1 44 20 is_stmt 0 view .LVU33
 115 003e 094A     		ldr	r2, .L3+20
 116 0040 0262     		str	r2, [r0, #32]
  45:../Middlewares/ai-postprocessing-wrapper/app_postprocess_od_yolov2_ui.c ****   params->pScratchBuffer = scratch_buffer;
 117              		.loc 1 45 3 is_stmt 1 view .LVU34
  45:../Middlewares/ai-postprocessing-wrapper/app_postprocess_od_yolov2_ui.c ****   params->pScratchBuffer = scratch_buffer;
 118              		.loc 1 45 27 is_stmt 0 view .LVU35
 119 0042 0A22     		movs	r2, #10
 120 0044 4261     		str	r2, [r0, #20]
  46:../Middlewares/ai-postprocessing-wrapper/app_postprocess_od_yolov2_ui.c ****   error = od_yolov2_pp_reset(params);
 121              		.loc 1 46 3 is_stmt 1 view .LVU36
  46:../Middlewares/ai-postprocessing-wrapper/app_postprocess_od_yolov2_ui.c ****   error = od_yolov2_pp_reset(params);
 122              		.loc 1 46 26 is_stmt 0 view .LVU37
 123 0046 084A     		ldr	r2, .L3+24
 124 0048 0263     		str	r2, [r0, #48]
  47:../Middlewares/ai-postprocessing-wrapper/app_postprocess_od_yolov2_ui.c ****   return error;
 125              		.loc 1 47 3 is_stmt 1 view .LVU38
  47:../Middlewares/ai-postprocessing-wrapper/app_postprocess_od_yolov2_ui.c ****   return error;
 126              		.loc 1 47 11 is_stmt 0 view .LVU39
 127 004a FFF7FEBF 		b	od_yolov2_pp_reset
 128              	.LVL5:
 129              	.L4:
  47:../Middlewares/ai-postprocessing-wrapper/app_postprocess_od_yolov2_ui.c ****   return error;
 130              		.loc 1 47 11 view .LVU40
 131 004e 00BF     		.align	2
 132              	.L3:
 133 0050 00000000 		.word	.LC0
 134 0054 00000000 		.word	__func__.1
 135 0058 08000000 		.word	.LC1
 136 005c 9A99193F 		.word	1058642330
 137 0060 9A99993E 		.word	1050253722
 138 0064 00000000 		.word	AI_OD_YOLOV2_PP_ANCHORS
 139 0068 00000000 		.word	scratch_buffer
 140              		.cfi_endproc
 141              	.LFE774:
 143              		.section	.rodata.app_postprocess_run.str1.1,"aMS",%progbits,1
 144              	.LC2:
 145 0000 6E625F69 		.ascii	"nb_input == 1\000"
 145      6E707574 
 145      203D3D20 
 145      3100
 146              		.section	.text.app_postprocess_run,"ax",%progbits
 147              		.align	1
ARM GAS  /tmp/ccCvVd5B.s 			page 5


 148              		.global	app_postprocess_run
 149              		.syntax unified
 150              		.thumb
 151              		.thumb_func
 153              	app_postprocess_run:
 154              	.LVL6:
 155              	.LFB775:
  50:../Middlewares/ai-postprocessing-wrapper/app_postprocess_od_yolov2_ui.c **** 
  51:../Middlewares/ai-postprocessing-wrapper/app_postprocess_od_yolov2_ui.c **** int32_t app_postprocess_run(void *pInput[], int nb_input, void *pOutput, void *pInput_param)
  52:../Middlewares/ai-postprocessing-wrapper/app_postprocess_od_yolov2_ui.c **** {
 156              		.loc 1 52 1 is_stmt 1 view -0
 157              		.cfi_startproc
 158              		@ args = 0, pretend = 0, frame = 8
 159              		@ frame_needed = 0, uses_anonymous_args = 0
  53:../Middlewares/ai-postprocessing-wrapper/app_postprocess_od_yolov2_ui.c ****   assert(nb_input == 1);
 160              		.loc 1 53 3 view .LVU42
  52:../Middlewares/ai-postprocessing-wrapper/app_postprocess_od_yolov2_ui.c ****   assert(nb_input == 1);
 161              		.loc 1 52 1 is_stmt 0 view .LVU43
 162 0000 13B5     		push	{r0, r1, r4, lr}
 163              		.cfi_def_cfa_offset 16
 164              		.cfi_offset 4, -8
 165              		.cfi_offset 14, -4
  52:../Middlewares/ai-postprocessing-wrapper/app_postprocess_od_yolov2_ui.c ****   assert(nb_input == 1);
 166              		.loc 1 52 1 view .LVU44
 167 0002 0C46     		mov	r4, r1
 168              		.loc 1 53 3 view .LVU45
 169 0004 012C     		cmp	r4, #1
  52:../Middlewares/ai-postprocessing-wrapper/app_postprocess_od_yolov2_ui.c ****   assert(nb_input == 1);
 170              		.loc 1 52 1 view .LVU46
 171 0006 1146     		mov	r1, r2
 172              	.LVL7:
  52:../Middlewares/ai-postprocessing-wrapper/app_postprocess_od_yolov2_ui.c ****   assert(nb_input == 1);
 173              		.loc 1 52 1 view .LVU47
 174 0008 1A46     		mov	r2, r3
 175              	.LVL8:
 176              		.loc 1 53 3 view .LVU48
 177 000a 05D0     		beq	.L6
 178              		.loc 1 53 3 discriminator 1 view .LVU49
 179 000c 3521     		movs	r1, #53
 180              	.LVL9:
 181              		.loc 1 53 3 discriminator 1 view .LVU50
 182 000e 064B     		ldr	r3, .L7
 183              	.LVL10:
 184              		.loc 1 53 3 discriminator 1 view .LVU51
 185 0010 064A     		ldr	r2, .L7+4
 186              	.LVL11:
 187              		.loc 1 53 3 discriminator 1 view .LVU52
 188 0012 0748     		ldr	r0, .L7+8
 189              	.LVL12:
 190              		.loc 1 53 3 discriminator 1 view .LVU53
 191 0014 FFF7FEFF 		bl	__assert_func
 192              	.LVL13:
 193              	.L6:
  54:../Middlewares/ai-postprocessing-wrapper/app_postprocess_od_yolov2_ui.c ****   int32_t error = AI_OD_POSTPROCESS_ERROR_NO;
 194              		.loc 1 54 3 is_stmt 1 view .LVU54
  55:../Middlewares/ai-postprocessing-wrapper/app_postprocess_od_yolov2_ui.c ****   od_yolov2_pp_in_t pp_input = {
 195              		.loc 1 55 3 view .LVU55
ARM GAS  /tmp/ccCvVd5B.s 			page 6


 196              		.loc 1 55 21 is_stmt 0 view .LVU56
 197 0018 0368     		ldr	r3, [r0]
  56:../Middlewares/ai-postprocessing-wrapper/app_postprocess_od_yolov2_ui.c ****     .pRaw_detections = (float32_t *) pInput[0]
  57:../Middlewares/ai-postprocessing-wrapper/app_postprocess_od_yolov2_ui.c ****   };
  58:../Middlewares/ai-postprocessing-wrapper/app_postprocess_od_yolov2_ui.c ****   error = od_yolov2_pp_process_int8(&pp_input, (od_pp_out_t *) pOutput,
 198              		.loc 1 58 11 view .LVU57
 199 001a 01A8     		add	r0, sp, #4
 200              	.LVL14:
  55:../Middlewares/ai-postprocessing-wrapper/app_postprocess_od_yolov2_ui.c ****   od_yolov2_pp_in_t pp_input = {
 201              		.loc 1 55 21 view .LVU58
 202 001c 0193     		str	r3, [sp, #4]
 203              		.loc 1 58 3 is_stmt 1 view .LVU59
 204              		.loc 1 58 11 is_stmt 0 view .LVU60
 205 001e FFF7FEFF 		bl	od_yolov2_pp_process_int8
 206              	.LVL15:
  59:../Middlewares/ai-postprocessing-wrapper/app_postprocess_od_yolov2_ui.c ****                                     (od_yolov2_pp_static_param_t *) pInput_param);
  60:../Middlewares/ai-postprocessing-wrapper/app_postprocess_od_yolov2_ui.c ****   return error;
 207              		.loc 1 60 3 is_stmt 1 view .LVU61
  61:../Middlewares/ai-postprocessing-wrapper/app_postprocess_od_yolov2_ui.c **** }
 208              		.loc 1 61 1 is_stmt 0 view .LVU62
 209 0022 02B0     		add	sp, sp, #8
 210              		.cfi_def_cfa_offset 8
 211              		@ sp needed
 212 0024 10BD     		pop	{r4, pc}
 213              	.LVL16:
 214              	.L8:
 215              		.loc 1 61 1 view .LVU63
 216 0026 00BF     		.align	2
 217              	.L7:
 218 0028 00000000 		.word	.LC2
 219 002c 00000000 		.word	__func__.0
 220 0030 08000000 		.word	.LC1
 221              		.cfi_endproc
 222              	.LFE775:
 224              		.section	.rodata.__func__.0,"a"
 227              	__func__.0:
 228 0000 6170705F 		.ascii	"app_postprocess_run\000"
 228      706F7374 
 228      70726F63 
 228      6573735F 
 228      72756E00 
 229              		.section	.rodata.__func__.1,"a"
 232              	__func__.1:
 233 0000 6170705F 		.ascii	"app_postprocess_init\000"
 233      706F7374 
 233      70726F63 
 233      6573735F 
 233      696E6974 
 234              		.section	.bss.scratch_buffer,"aw",%nobits
 237              	scratch_buffer:
 238 0000 00000000 		.space	5880
 238      00000000 
 238      00000000 
 238      00000000 
 238      00000000 
 239              		.section	.rodata.AI_OD_YOLOV2_PP_ANCHORS,"a"
 240              		.align	2
ARM GAS  /tmp/ccCvVd5B.s 			page 7


 243              	AI_OD_YOLOV2_PP_ANCHORS:
 244 0000 3B017D3F 		.word	1065156923
 245 0004 12145740 		.word	1079448594
 246 0008 40A40740 		.word	1074242624
 247 000c 5F07AC40 		.word	1085015903
 248 0010 F8534340 		.word	1078154232
 249 0014 3A231241 		.word	1091707706
 250 0018 87A7B140 		.word	1085384583
 251 001c D5E71441 		.word	1091889109
 252 0020 B29D1B41 		.word	1092328882
 253 0024 74463241 		.word	1093813876
 254              		.text
 255              	.Letext0:
 256              		.file 2 "/opt/st/stm32cubeclt_1.21.0/GNU-tools-for-STM32/arm-none-eabi/include/machine/_default_ty
 257              		.file 3 "/opt/st/stm32cubeclt_1.21.0/GNU-tools-for-STM32/arm-none-eabi/include/sys/_stdint.h"
 258              		.file 4 "../Middlewares/stedgeai-lib/Inc/stai.h"
 259              		.file 5 "/opt/st/stm32cubeclt_1.21.0/GNU-tools-for-STM32/lib/gcc/arm-none-eabi/14.3.1/include/arm_
 260              		.file 6 "../Middlewares/stm32-vision-models-postprocessing/lib_vision_models_pp/Inc/od_pp_output_i
 261              		.file 7 "../Middlewares/stm32-vision-models-postprocessing/lib_vision_models_pp/Inc/od_yolov2_pp_i
 262              		.file 8 "Inc/app_config.h"
 263              		.file 9 "/opt/st/stm32cubeclt_1.21.0/GNU-tools-for-STM32/arm-none-eabi/include/assert.h"
ARM GAS  /tmp/ccCvVd5B.s 			page 8

