ARM GAS  /tmp/ccOQJSAL.s 			page 1


   1              		.arch armv8.1-m.main
   2              		.fpu fpv5-d16
   3              		.arch_extension dsp
   4              		.arch_extension fp
   5              		.arch_extension fp.dp
   6              		.arch_extension mve
   7              		.arch_extension mve.fp
   8              		.eabi_attribute 5, "cortex-m55"
   9              		.eabi_attribute 28, 1
  10              		.eabi_attribute 20, 1
  11              		.eabi_attribute 21, 1
  12              		.eabi_attribute 23, 3
  13              		.eabi_attribute 24, 1
  14              		.eabi_attribute 25, 1
  15              		.eabi_attribute 26, 1
  16              		.eabi_attribute 30, 4
  17              		.eabi_attribute 34, 1
  18              		.eabi_attribute 38, 1
  19              		.eabi_attribute 18, 4
  20              		.file	"cmw_vd66gy.c"
  21              		.text
  22              	.Ltext0:
  23              		.cfi_sections	.debug_frame
  24              		.file 1 "../Middlewares/stm32-mw-camera/sensors/cmw_vd66gy.c"
  25              		.section	.text.CMW_VD66GY_Read16,"ax",%progbits
  26              		.align	1
  27              		.syntax unified
  28              		.thumb
  29              		.thumb_func
  31              	CMW_VD66GY_Read16:
  32              	.LVL0:
  33              	.LFB1473:
   1:../Middlewares/stm32-mw-camera/sensors/cmw_vd66gy.c **** /**
   2:../Middlewares/stm32-mw-camera/sensors/cmw_vd66gy.c ****   ******************************************************************************
   3:../Middlewares/stm32-mw-camera/sensors/cmw_vd66gy.c ****   * @file    cmw_vd66gy.c
   4:../Middlewares/stm32-mw-camera/sensors/cmw_vd66gy.c ****   * @author  MDG Application Team
   5:../Middlewares/stm32-mw-camera/sensors/cmw_vd66gy.c ****   ******************************************************************************
   6:../Middlewares/stm32-mw-camera/sensors/cmw_vd66gy.c ****   * @attention
   7:../Middlewares/stm32-mw-camera/sensors/cmw_vd66gy.c ****   *
   8:../Middlewares/stm32-mw-camera/sensors/cmw_vd66gy.c ****   * Copyright (c) 2024 STMicroelectronics.
   9:../Middlewares/stm32-mw-camera/sensors/cmw_vd66gy.c ****   * All rights reserved.
  10:../Middlewares/stm32-mw-camera/sensors/cmw_vd66gy.c ****   *
  11:../Middlewares/stm32-mw-camera/sensors/cmw_vd66gy.c ****   * This software is licensed under terms that can be found in the LICENSE file
  12:../Middlewares/stm32-mw-camera/sensors/cmw_vd66gy.c ****   * in the root directory of this software component.
  13:../Middlewares/stm32-mw-camera/sensors/cmw_vd66gy.c ****   * If no LICENSE file comes with this software, it is provided AS-IS.
  14:../Middlewares/stm32-mw-camera/sensors/cmw_vd66gy.c ****   *
  15:../Middlewares/stm32-mw-camera/sensors/cmw_vd66gy.c ****   ******************************************************************************
  16:../Middlewares/stm32-mw-camera/sensors/cmw_vd66gy.c ****   */
  17:../Middlewares/stm32-mw-camera/sensors/cmw_vd66gy.c **** 
  18:../Middlewares/stm32-mw-camera/sensors/cmw_vd66gy.c **** #include "cmw_vd66gy.h"
  19:../Middlewares/stm32-mw-camera/sensors/cmw_vd66gy.c **** 
  20:../Middlewares/stm32-mw-camera/sensors/cmw_vd66gy.c **** #include <assert.h>
  21:../Middlewares/stm32-mw-camera/sensors/cmw_vd66gy.c **** #include <stdlib.h>
  22:../Middlewares/stm32-mw-camera/sensors/cmw_vd66gy.c **** #include <stdio.h>
  23:../Middlewares/stm32-mw-camera/sensors/cmw_vd66gy.c **** #include <stddef.h>
  24:../Middlewares/stm32-mw-camera/sensors/cmw_vd66gy.c **** #include <string.h>
  25:../Middlewares/stm32-mw-camera/sensors/cmw_vd66gy.c **** #include "cmw_camera.h"
ARM GAS  /tmp/ccOQJSAL.s 			page 2


  26:../Middlewares/stm32-mw-camera/sensors/cmw_vd66gy.c **** #include "cmw_io.h"
  27:../Middlewares/stm32-mw-camera/sensors/cmw_vd66gy.c **** #ifndef ISP_MW_TUNING_TOOL_SUPPORT
  28:../Middlewares/stm32-mw-camera/sensors/cmw_vd66gy.c **** #include "isp_param_conf.h"
  29:../Middlewares/stm32-mw-camera/sensors/cmw_vd66gy.c **** #endif
  30:../Middlewares/stm32-mw-camera/sensors/cmw_vd66gy.c **** 
  31:../Middlewares/stm32-mw-camera/sensors/cmw_vd66gy.c **** #include "vd6g.h"
  32:../Middlewares/stm32-mw-camera/sensors/cmw_vd66gy.c **** 
  33:../Middlewares/stm32-mw-camera/sensors/cmw_vd66gy.c **** #define VD66GY_REG_MODEL_ID                   0x0000
  34:../Middlewares/stm32-mw-camera/sensors/cmw_vd66gy.c **** 
  35:../Middlewares/stm32-mw-camera/sensors/cmw_vd66gy.c **** #define container_of(ptr, type, member) (type *) ((unsigned char *)ptr - offsetof(type,member))
  36:../Middlewares/stm32-mw-camera/sensors/cmw_vd66gy.c **** 
  37:../Middlewares/stm32-mw-camera/sensors/cmw_vd66gy.c **** #ifndef MIN
  38:../Middlewares/stm32-mw-camera/sensors/cmw_vd66gy.c **** #define MIN(a, b)                           ((a) < (b) ?  (a) : (b))
  39:../Middlewares/stm32-mw-camera/sensors/cmw_vd66gy.c **** #endif
  40:../Middlewares/stm32-mw-camera/sensors/cmw_vd66gy.c **** #define MDECIBEL_TO_LINEAR(mdB)             (pow(10.0, (mdB / 1000.0) / 20.0))
  41:../Middlewares/stm32-mw-camera/sensors/cmw_vd66gy.c **** #define LINEAR_TO_MDECIBEL(linearValue)     (1000 * (20.0 * log10(linearValue)))
  42:../Middlewares/stm32-mw-camera/sensors/cmw_vd66gy.c **** #define FLOAT_TO_FP58(x)                    (((uint16_t)(x) << 8) | ((uint16_t)((x - (uint16_t)(x))
  43:../Middlewares/stm32-mw-camera/sensors/cmw_vd66gy.c **** #define FP58_TO_FLOAT(fp)                   (((fp) >> 8) + ((fp) & 0xFF) / 256.0f)
  44:../Middlewares/stm32-mw-camera/sensors/cmw_vd66gy.c **** 
  45:../Middlewares/stm32-mw-camera/sensors/cmw_vd66gy.c **** static int CMW_VD66GY_Read8(CMW_VD66GY_t *pObj, uint16_t addr, uint8_t *value)
  46:../Middlewares/stm32-mw-camera/sensors/cmw_vd66gy.c **** {
  47:../Middlewares/stm32-mw-camera/sensors/cmw_vd66gy.c ****   return pObj->ReadReg(pObj->Address, addr, value, 1);
  48:../Middlewares/stm32-mw-camera/sensors/cmw_vd66gy.c **** }
  49:../Middlewares/stm32-mw-camera/sensors/cmw_vd66gy.c **** 
  50:../Middlewares/stm32-mw-camera/sensors/cmw_vd66gy.c **** static int CMW_VD66GY_Read16(CMW_VD66GY_t *pObj, uint16_t addr, uint16_t *value)
  51:../Middlewares/stm32-mw-camera/sensors/cmw_vd66gy.c **** {
  34              		.loc 1 51 1 view -0
  35              		.cfi_startproc
  36              		@ args = 0, pretend = 0, frame = 8
  37              		@ frame_needed = 0, uses_anonymous_args = 0
  52:../Middlewares/stm32-mw-camera/sensors/cmw_vd66gy.c ****   uint8_t data[2];
  38              		.loc 1 52 3 view .LVU1
  53:../Middlewares/stm32-mw-camera/sensors/cmw_vd66gy.c ****   int ret;
  39              		.loc 1 53 3 view .LVU2
  54:../Middlewares/stm32-mw-camera/sensors/cmw_vd66gy.c **** 
  55:../Middlewares/stm32-mw-camera/sensors/cmw_vd66gy.c ****   ret = pObj->ReadReg(pObj->Address, addr, data, 2);
  40              		.loc 1 55 3 view .LVU3
  51:../Middlewares/stm32-mw-camera/sensors/cmw_vd66gy.c ****   uint8_t data[2];
  41              		.loc 1 51 1 is_stmt 0 view .LVU4
  42 0000 37B5     		push	{r0, r1, r2, r4, r5, lr}
  43              		.cfi_def_cfa_offset 24
  44              		.cfi_offset 4, -12
  45              		.cfi_offset 5, -8
  46              		.cfi_offset 14, -4
  47              		.loc 1 55 9 view .LVU5
  48 0002 0223     		movs	r3, #2
  51:../Middlewares/stm32-mw-camera/sensors/cmw_vd66gy.c ****   uint8_t data[2];
  49              		.loc 1 51 1 view .LVU6
  50 0004 1446     		mov	r4, r2
  51              		.loc 1 55 9 view .LVU7
  52 0006 D0F83051 		ldr	r5, [r0, #304]
  53 000a 01AA     		add	r2, sp, #4
  54              	.LVL1:
  55              		.loc 1 55 9 view .LVU8
  56 000c 0088     		ldrh	r0, [r0]
  57              	.LVL2:
  58              		.loc 1 55 9 view .LVU9
ARM GAS  /tmp/ccOQJSAL.s 			page 3


  59 000e A847     		blx	r5
  60              	.LVL3:
  56:../Middlewares/stm32-mw-camera/sensors/cmw_vd66gy.c ****   if (ret)
  61              		.loc 1 56 3 is_stmt 1 view .LVU10
  62              		.loc 1 56 6 is_stmt 0 view .LVU11
  63 0010 10B9     		cbnz	r0, .L1
  57:../Middlewares/stm32-mw-camera/sensors/cmw_vd66gy.c ****     return ret;
  58:../Middlewares/stm32-mw-camera/sensors/cmw_vd66gy.c **** 
  59:../Middlewares/stm32-mw-camera/sensors/cmw_vd66gy.c ****   *value = (data[1] << 8) | data[0];
  64              		.loc 1 59 3 is_stmt 1 view .LVU12
  65              		.loc 1 59 10 is_stmt 0 view .LVU13
  66 0012 BDF80430 		ldrh	r3, [sp, #4]
  67 0016 2380     		strh	r3, [r4]	@ movhi
  60:../Middlewares/stm32-mw-camera/sensors/cmw_vd66gy.c **** 
  61:../Middlewares/stm32-mw-camera/sensors/cmw_vd66gy.c ****   return CMW_ERROR_NONE;
  68              		.loc 1 61 3 is_stmt 1 view .LVU14
  69              	.L1:
  62:../Middlewares/stm32-mw-camera/sensors/cmw_vd66gy.c **** }
  70              		.loc 1 62 1 is_stmt 0 view .LVU15
  71 0018 03B0     		add	sp, sp, #12
  72              		.cfi_def_cfa_offset 12
  73              		@ sp needed
  74 001a 30BD     		pop	{r4, r5, pc}
  75              		.loc 1 62 1 view .LVU16
  76              		.cfi_endproc
  77              	.LFE1473:
  79              		.section	.text.VD6G_ShutdownPin,"ax",%progbits
  80              		.align	1
  81              		.syntax unified
  82              		.thumb
  83              		.thumb_func
  85              	VD6G_ShutdownPin:
  86              	.LVL4:
  87              	.LFB1478:
  63:../Middlewares/stm32-mw-camera/sensors/cmw_vd66gy.c **** 
  64:../Middlewares/stm32-mw-camera/sensors/cmw_vd66gy.c **** static int CMW_VD66GY_Read32(CMW_VD66GY_t *pObj, uint16_t addr, uint32_t *value)
  65:../Middlewares/stm32-mw-camera/sensors/cmw_vd66gy.c **** {
  66:../Middlewares/stm32-mw-camera/sensors/cmw_vd66gy.c ****   uint8_t data[4];
  67:../Middlewares/stm32-mw-camera/sensors/cmw_vd66gy.c ****   int ret;
  68:../Middlewares/stm32-mw-camera/sensors/cmw_vd66gy.c **** 
  69:../Middlewares/stm32-mw-camera/sensors/cmw_vd66gy.c ****   ret = pObj->ReadReg(pObj->Address, addr, data, 4);
  70:../Middlewares/stm32-mw-camera/sensors/cmw_vd66gy.c ****   if (ret)
  71:../Middlewares/stm32-mw-camera/sensors/cmw_vd66gy.c ****     return ret;
  72:../Middlewares/stm32-mw-camera/sensors/cmw_vd66gy.c **** 
  73:../Middlewares/stm32-mw-camera/sensors/cmw_vd66gy.c ****   *value = (data[3] << 24) | (data[2] << 16) | (data[1] << 8) | data[0];
  74:../Middlewares/stm32-mw-camera/sensors/cmw_vd66gy.c **** 
  75:../Middlewares/stm32-mw-camera/sensors/cmw_vd66gy.c ****   return 0;
  76:../Middlewares/stm32-mw-camera/sensors/cmw_vd66gy.c **** }
  77:../Middlewares/stm32-mw-camera/sensors/cmw_vd66gy.c **** 
  78:../Middlewares/stm32-mw-camera/sensors/cmw_vd66gy.c **** static int CMW_VD66GY_Write8(CMW_VD66GY_t *pObj, uint16_t addr, uint8_t value)
  79:../Middlewares/stm32-mw-camera/sensors/cmw_vd66gy.c **** {
  80:../Middlewares/stm32-mw-camera/sensors/cmw_vd66gy.c ****   return pObj->WriteReg(pObj->Address, addr, &value, 1);
  81:../Middlewares/stm32-mw-camera/sensors/cmw_vd66gy.c **** }
  82:../Middlewares/stm32-mw-camera/sensors/cmw_vd66gy.c **** 
  83:../Middlewares/stm32-mw-camera/sensors/cmw_vd66gy.c **** static int CMW_VD66GY_Write16(CMW_VD66GY_t *pObj, uint16_t addr, uint16_t value)
  84:../Middlewares/stm32-mw-camera/sensors/cmw_vd66gy.c **** {
  85:../Middlewares/stm32-mw-camera/sensors/cmw_vd66gy.c ****   return pObj->WriteReg(pObj->Address, addr, (uint8_t *) &value, 2);
ARM GAS  /tmp/ccOQJSAL.s 			page 4


  86:../Middlewares/stm32-mw-camera/sensors/cmw_vd66gy.c **** }
  87:../Middlewares/stm32-mw-camera/sensors/cmw_vd66gy.c **** 
  88:../Middlewares/stm32-mw-camera/sensors/cmw_vd66gy.c **** static int CMW_VD66GY_Write32(CMW_VD66GY_t *pObj, uint16_t addr, uint32_t value)
  89:../Middlewares/stm32-mw-camera/sensors/cmw_vd66gy.c **** {
  90:../Middlewares/stm32-mw-camera/sensors/cmw_vd66gy.c ****   return pObj->WriteReg(pObj->Address, addr, (uint8_t *) &value, 4);
  91:../Middlewares/stm32-mw-camera/sensors/cmw_vd66gy.c **** }
  92:../Middlewares/stm32-mw-camera/sensors/cmw_vd66gy.c **** 
  93:../Middlewares/stm32-mw-camera/sensors/cmw_vd66gy.c **** static void VD6G_ShutdownPin(struct VD6G_Ctx *ctx, int value)
  94:../Middlewares/stm32-mw-camera/sensors/cmw_vd66gy.c **** {
  88              		.loc 1 94 1 is_stmt 1 view -0
  89              		.cfi_startproc
  90              		@ args = 0, pretend = 0, frame = 0
  91              		@ frame_needed = 0, uses_anonymous_args = 0
  92              		@ link register save eliminated.
  95:../Middlewares/stm32-mw-camera/sensors/cmw_vd66gy.c ****   CMW_VD66GY_t *p_ctx = container_of(ctx, CMW_VD66GY_t, ctx_driver);
  93              		.loc 1 95 3 view .LVU18
  96:../Middlewares/stm32-mw-camera/sensors/cmw_vd66gy.c **** 
  97:../Middlewares/stm32-mw-camera/sensors/cmw_vd66gy.c ****   p_ctx->ShutdownPin(value);
  94              		.loc 1 97 3 view .LVU19
  95 0000 D0F83831 		ldr	r3, [r0, #312]
  96 0004 0846     		mov	r0, r1
  97              	.LVL5:
  98              		.loc 1 97 3 is_stmt 0 view .LVU20
  99 0006 1847     		bx	r3	@ indirect register sibling call
 100              	.LVL6:
 101              		.loc 1 97 3 view .LVU21
 102              		.cfi_endproc
 103              	.LFE1478:
 105              		.section	.text.VD6G_Read8,"ax",%progbits
 106              		.align	1
 107              		.syntax unified
 108              		.thumb
 109              		.thumb_func
 111              	VD6G_Read8:
 112              	.LVL7:
 113              	.LFB1479:
  98:../Middlewares/stm32-mw-camera/sensors/cmw_vd66gy.c **** }
  99:../Middlewares/stm32-mw-camera/sensors/cmw_vd66gy.c **** 
 100:../Middlewares/stm32-mw-camera/sensors/cmw_vd66gy.c **** static int VD6G_Read8(struct VD6G_Ctx *ctx, uint16_t addr, uint8_t *value)
 101:../Middlewares/stm32-mw-camera/sensors/cmw_vd66gy.c **** {
 114              		.loc 1 101 1 is_stmt 1 view -0
 115              		.cfi_startproc
 116              		@ args = 0, pretend = 0, frame = 0
 117              		@ frame_needed = 0, uses_anonymous_args = 0
 118              		@ link register save eliminated.
 102:../Middlewares/stm32-mw-camera/sensors/cmw_vd66gy.c ****   CMW_VD66GY_t *p_ctx = container_of(ctx, CMW_VD66GY_t, ctx_driver);
 119              		.loc 1 102 3 view .LVU23
 103:../Middlewares/stm32-mw-camera/sensors/cmw_vd66gy.c **** 
 104:../Middlewares/stm32-mw-camera/sensors/cmw_vd66gy.c ****   return CMW_VD66GY_Read8(p_ctx, addr, value);
 120              		.loc 1 104 3 view .LVU24
 121              	.LBB6:
 122              	.LBI6:
  45:../Middlewares/stm32-mw-camera/sensors/cmw_vd66gy.c **** {
 123              		.loc 1 45 12 view .LVU25
 124              	.LBB7:
  47:../Middlewares/stm32-mw-camera/sensors/cmw_vd66gy.c **** }
 125              		.loc 1 47 3 view .LVU26
ARM GAS  /tmp/ccOQJSAL.s 			page 5


 126              	.LBE7:
 127              	.LBE6:
 101:../Middlewares/stm32-mw-camera/sensors/cmw_vd66gy.c ****   CMW_VD66GY_t *p_ctx = container_of(ctx, CMW_VD66GY_t, ctx_driver);
 128              		.loc 1 101 1 is_stmt 0 view .LVU27
 129 0000 10B4     		push	{r4}
 130              		.cfi_def_cfa_offset 4
 131              		.cfi_offset 4, -4
 132              	.LBB10:
 133              	.LBB8:
  47:../Middlewares/stm32-mw-camera/sensors/cmw_vd66gy.c **** }
 134              		.loc 1 47 10 view .LVU28
 135 0002 D0F82C41 		ldr	r4, [r0, #300]
 136 0006 0123     		movs	r3, #1
 137 0008 A446     		mov	ip, r4
 138 000a 30F8040C 		ldrh	r0, [r0, #-4]
 139              	.LVL8:
  47:../Middlewares/stm32-mw-camera/sensors/cmw_vd66gy.c **** }
 140              		.loc 1 47 10 view .LVU29
 141              	.LBE8:
 142              	.LBE10:
 105:../Middlewares/stm32-mw-camera/sensors/cmw_vd66gy.c **** }
 143              		.loc 1 105 1 view .LVU30
 144 000e 5DF8044B 		ldr	r4, [sp], #4
 145              	.LBB11:
 146              	.LBB9:
  47:../Middlewares/stm32-mw-camera/sensors/cmw_vd66gy.c **** }
 147              		.loc 1 47 10 view .LVU31
 148 0012 6047     		bx	ip
 149              	.LVL9:
  47:../Middlewares/stm32-mw-camera/sensors/cmw_vd66gy.c **** }
 150              		.loc 1 47 10 view .LVU32
 151              	.LBE9:
 152              	.LBE11:
 153              		.cfi_endproc
 154              	.LFE1479:
 156              		.section	.text.VD6G_Read16,"ax",%progbits
 157              		.align	1
 158              		.syntax unified
 159              		.thumb
 160              		.thumb_func
 162              	VD6G_Read16:
 163              	.LVL10:
 164              	.LFB1480:
 106:../Middlewares/stm32-mw-camera/sensors/cmw_vd66gy.c **** 
 107:../Middlewares/stm32-mw-camera/sensors/cmw_vd66gy.c **** static int VD6G_Read16(struct VD6G_Ctx *ctx, uint16_t addr, uint16_t *value)
 108:../Middlewares/stm32-mw-camera/sensors/cmw_vd66gy.c **** {
 165              		.loc 1 108 1 is_stmt 1 view -0
 166              		.cfi_startproc
 167              		@ args = 0, pretend = 0, frame = 0
 168              		@ frame_needed = 0, uses_anonymous_args = 0
 169              		@ link register save eliminated.
 109:../Middlewares/stm32-mw-camera/sensors/cmw_vd66gy.c ****   CMW_VD66GY_t *p_ctx = container_of(ctx, CMW_VD66GY_t, ctx_driver);
 170              		.loc 1 109 3 view .LVU34
 110:../Middlewares/stm32-mw-camera/sensors/cmw_vd66gy.c **** 
 111:../Middlewares/stm32-mw-camera/sensors/cmw_vd66gy.c ****   return CMW_VD66GY_Read16(p_ctx, addr, value);
 171              		.loc 1 111 3 view .LVU35
 172              		.loc 1 111 10 is_stmt 0 view .LVU36
ARM GAS  /tmp/ccOQJSAL.s 			page 6


 173 0000 0438     		subs	r0, r0, #4
 174              	.LVL11:
 175              		.loc 1 111 10 view .LVU37
 176 0002 FFF7FEBF 		b	CMW_VD66GY_Read16
 177              	.LVL12:
 178              		.loc 1 111 10 view .LVU38
 179              		.cfi_endproc
 180              	.LFE1480:
 182              		.section	.text.VD6G_Read32,"ax",%progbits
 183              		.align	1
 184              		.syntax unified
 185              		.thumb
 186              		.thumb_func
 188              	VD6G_Read32:
 189              	.LVL13:
 190              	.LFB1481:
 112:../Middlewares/stm32-mw-camera/sensors/cmw_vd66gy.c **** }
 113:../Middlewares/stm32-mw-camera/sensors/cmw_vd66gy.c **** 
 114:../Middlewares/stm32-mw-camera/sensors/cmw_vd66gy.c **** static int VD6G_Read32(struct VD6G_Ctx *ctx, uint16_t addr, uint32_t *value)
 115:../Middlewares/stm32-mw-camera/sensors/cmw_vd66gy.c **** {
 191              		.loc 1 115 1 is_stmt 1 view -0
 192              		.cfi_startproc
 193              		@ args = 0, pretend = 0, frame = 8
 194              		@ frame_needed = 0, uses_anonymous_args = 0
 116:../Middlewares/stm32-mw-camera/sensors/cmw_vd66gy.c ****   CMW_VD66GY_t *p_ctx = container_of(ctx, CMW_VD66GY_t, ctx_driver);
 195              		.loc 1 116 3 view .LVU40
 117:../Middlewares/stm32-mw-camera/sensors/cmw_vd66gy.c **** 
 118:../Middlewares/stm32-mw-camera/sensors/cmw_vd66gy.c ****   return CMW_VD66GY_Read32(p_ctx, addr, value);
 196              		.loc 1 118 3 view .LVU41
 197              	.LBB14:
 198              	.LBB15:
  69:../Middlewares/stm32-mw-camera/sensors/cmw_vd66gy.c ****   if (ret)
 199              		.loc 1 69 9 is_stmt 0 view .LVU42
 200 0000 0423     		movs	r3, #4
 201              	.LBE15:
 202              	.LBE14:
 115:../Middlewares/stm32-mw-camera/sensors/cmw_vd66gy.c ****   CMW_VD66GY_t *p_ctx = container_of(ctx, CMW_VD66GY_t, ctx_driver);
 203              		.loc 1 115 1 view .LVU43
 204 0002 37B5     		push	{r0, r1, r2, r4, r5, lr}
 205              		.cfi_def_cfa_offset 24
 206              		.cfi_offset 4, -12
 207              		.cfi_offset 5, -8
 208              		.cfi_offset 14, -4
 115:../Middlewares/stm32-mw-camera/sensors/cmw_vd66gy.c ****   CMW_VD66GY_t *p_ctx = container_of(ctx, CMW_VD66GY_t, ctx_driver);
 209              		.loc 1 115 1 view .LVU44
 210 0004 1446     		mov	r4, r2
 211              	.LVL14:
 212              	.LBB17:
 213              	.LBI14:
  64:../Middlewares/stm32-mw-camera/sensors/cmw_vd66gy.c **** {
 214              		.loc 1 64 12 is_stmt 1 view .LVU45
 215              	.LBB16:
  66:../Middlewares/stm32-mw-camera/sensors/cmw_vd66gy.c ****   int ret;
 216              		.loc 1 66 3 view .LVU46
  67:../Middlewares/stm32-mw-camera/sensors/cmw_vd66gy.c **** 
 217              		.loc 1 67 3 view .LVU47
  69:../Middlewares/stm32-mw-camera/sensors/cmw_vd66gy.c ****   if (ret)
ARM GAS  /tmp/ccOQJSAL.s 			page 7


 218              		.loc 1 69 3 view .LVU48
  69:../Middlewares/stm32-mw-camera/sensors/cmw_vd66gy.c ****   if (ret)
 219              		.loc 1 69 9 is_stmt 0 view .LVU49
 220 0006 D0F82C51 		ldr	r5, [r0, #300]
 221 000a 0DEB0302 		add	r2, sp, r3
 222              	.LVL15:
  69:../Middlewares/stm32-mw-camera/sensors/cmw_vd66gy.c ****   if (ret)
 223              		.loc 1 69 9 view .LVU50
 224 000e 30F8040C 		ldrh	r0, [r0, #-4]
 225              	.LVL16:
  69:../Middlewares/stm32-mw-camera/sensors/cmw_vd66gy.c ****   if (ret)
 226              		.loc 1 69 9 view .LVU51
 227 0012 A847     		blx	r5
 228              	.LVL17:
  70:../Middlewares/stm32-mw-camera/sensors/cmw_vd66gy.c ****     return ret;
 229              		.loc 1 70 3 is_stmt 1 view .LVU52
  70:../Middlewares/stm32-mw-camera/sensors/cmw_vd66gy.c ****     return ret;
 230              		.loc 1 70 6 is_stmt 0 view .LVU53
 231 0014 08B9     		cbnz	r0, .L6
  73:../Middlewares/stm32-mw-camera/sensors/cmw_vd66gy.c **** 
 232              		.loc 1 73 3 is_stmt 1 view .LVU54
  73:../Middlewares/stm32-mw-camera/sensors/cmw_vd66gy.c **** 
 233              		.loc 1 73 10 is_stmt 0 view .LVU55
 234 0016 019B     		ldr	r3, [sp, #4]
 235 0018 2360     		str	r3, [r4]
  75:../Middlewares/stm32-mw-camera/sensors/cmw_vd66gy.c **** }
 236              		.loc 1 75 3 is_stmt 1 view .LVU56
 237              	.LVL18:
 238              	.L6:
  75:../Middlewares/stm32-mw-camera/sensors/cmw_vd66gy.c **** }
 239              		.loc 1 75 3 is_stmt 0 view .LVU57
 240              	.LBE16:
 241              	.LBE17:
 119:../Middlewares/stm32-mw-camera/sensors/cmw_vd66gy.c **** }
 242              		.loc 1 119 1 view .LVU58
 243 001a 03B0     		add	sp, sp, #12
 244              		.cfi_def_cfa_offset 12
 245              		@ sp needed
 246 001c 30BD     		pop	{r4, r5, pc}
 247              		.loc 1 119 1 view .LVU59
 248              		.cfi_endproc
 249              	.LFE1481:
 251              		.section	.text.VD6G_Write8,"ax",%progbits
 252              		.align	1
 253              		.syntax unified
 254              		.thumb
 255              		.thumb_func
 257              	VD6G_Write8:
 258              	.LVL19:
 259              	.LFB1482:
 120:../Middlewares/stm32-mw-camera/sensors/cmw_vd66gy.c **** 
 121:../Middlewares/stm32-mw-camera/sensors/cmw_vd66gy.c **** static int VD6G_Write8(struct VD6G_Ctx *ctx, uint16_t addr, uint8_t value)
 122:../Middlewares/stm32-mw-camera/sensors/cmw_vd66gy.c **** {
 260              		.loc 1 122 1 is_stmt 1 view -0
 261              		.cfi_startproc
 262              		@ args = 0, pretend = 0, frame = 8
 263              		@ frame_needed = 0, uses_anonymous_args = 0
ARM GAS  /tmp/ccOQJSAL.s 			page 8


 123:../Middlewares/stm32-mw-camera/sensors/cmw_vd66gy.c ****   CMW_VD66GY_t *p_ctx = container_of(ctx, CMW_VD66GY_t, ctx_driver);
 264              		.loc 1 123 3 view .LVU61
 124:../Middlewares/stm32-mw-camera/sensors/cmw_vd66gy.c **** 
 125:../Middlewares/stm32-mw-camera/sensors/cmw_vd66gy.c ****   return CMW_VD66GY_Write8(p_ctx, addr, value);
 265              		.loc 1 125 3 view .LVU62
 122:../Middlewares/stm32-mw-camera/sensors/cmw_vd66gy.c ****   CMW_VD66GY_t *p_ctx = container_of(ctx, CMW_VD66GY_t, ctx_driver);
 266              		.loc 1 122 1 is_stmt 0 view .LVU63
 267 0000 13B5     		push	{r0, r1, r4, lr}
 268              		.cfi_def_cfa_offset 16
 269              		.cfi_offset 4, -8
 270              		.cfi_offset 14, -4
 271              	.LBB20:
 272              	.LBB21:
  80:../Middlewares/stm32-mw-camera/sensors/cmw_vd66gy.c **** }
 273              		.loc 1 80 10 view .LVU64
 274 0002 0123     		movs	r3, #1
 275 0004 D0F82841 		ldr	r4, [r0, #296]
 276 0008 8DF80720 		strb	r2, [sp, #7]
 277              	.LVL20:
  80:../Middlewares/stm32-mw-camera/sensors/cmw_vd66gy.c **** }
 278              		.loc 1 80 10 view .LVU65
 279              	.LBE21:
 280              	.LBI20:
  78:../Middlewares/stm32-mw-camera/sensors/cmw_vd66gy.c **** {
 281              		.loc 1 78 12 is_stmt 1 view .LVU66
 282              	.LBB22:
  80:../Middlewares/stm32-mw-camera/sensors/cmw_vd66gy.c **** }
 283              		.loc 1 80 3 view .LVU67
  80:../Middlewares/stm32-mw-camera/sensors/cmw_vd66gy.c **** }
 284              		.loc 1 80 10 is_stmt 0 view .LVU68
 285 000c 30F8040C 		ldrh	r0, [r0, #-4]
 286              	.LVL21:
  80:../Middlewares/stm32-mw-camera/sensors/cmw_vd66gy.c **** }
 287              		.loc 1 80 10 view .LVU69
 288 0010 0DF10702 		add	r2, sp, #7
 289              	.LVL22:
  80:../Middlewares/stm32-mw-camera/sensors/cmw_vd66gy.c **** }
 290              		.loc 1 80 10 view .LVU70
 291 0014 A047     		blx	r4
 292              	.LVL23:
  80:../Middlewares/stm32-mw-camera/sensors/cmw_vd66gy.c **** }
 293              		.loc 1 80 10 view .LVU71
 294              	.LBE22:
 295              	.LBE20:
 126:../Middlewares/stm32-mw-camera/sensors/cmw_vd66gy.c **** }
 296              		.loc 1 126 1 view .LVU72
 297 0016 02B0     		add	sp, sp, #8
 298              		.cfi_def_cfa_offset 8
 299              		@ sp needed
 300 0018 10BD     		pop	{r4, pc}
 301              		.cfi_endproc
 302              	.LFE1482:
 304              		.section	.text.VD6G_Write16,"ax",%progbits
 305              		.align	1
 306              		.syntax unified
 307              		.thumb
 308              		.thumb_func
ARM GAS  /tmp/ccOQJSAL.s 			page 9


 310              	VD6G_Write16:
 311              	.LVL24:
 312              	.LFB1483:
 127:../Middlewares/stm32-mw-camera/sensors/cmw_vd66gy.c **** 
 128:../Middlewares/stm32-mw-camera/sensors/cmw_vd66gy.c **** static int VD6G_Write16(struct VD6G_Ctx *ctx, uint16_t addr, uint16_t value)
 129:../Middlewares/stm32-mw-camera/sensors/cmw_vd66gy.c **** {
 313              		.loc 1 129 1 is_stmt 1 view -0
 314              		.cfi_startproc
 315              		@ args = 0, pretend = 0, frame = 8
 316              		@ frame_needed = 0, uses_anonymous_args = 0
 130:../Middlewares/stm32-mw-camera/sensors/cmw_vd66gy.c ****   CMW_VD66GY_t *p_ctx = container_of(ctx, CMW_VD66GY_t, ctx_driver);
 317              		.loc 1 130 3 view .LVU74
 131:../Middlewares/stm32-mw-camera/sensors/cmw_vd66gy.c **** 
 132:../Middlewares/stm32-mw-camera/sensors/cmw_vd66gy.c ****   return CMW_VD66GY_Write16(p_ctx, addr, value);
 318              		.loc 1 132 3 view .LVU75
 129:../Middlewares/stm32-mw-camera/sensors/cmw_vd66gy.c ****   CMW_VD66GY_t *p_ctx = container_of(ctx, CMW_VD66GY_t, ctx_driver);
 319              		.loc 1 129 1 is_stmt 0 view .LVU76
 320 0000 13B5     		push	{r0, r1, r4, lr}
 321              		.cfi_def_cfa_offset 16
 322              		.cfi_offset 4, -8
 323              		.cfi_offset 14, -4
 324              	.LBB25:
 325              	.LBB26:
  85:../Middlewares/stm32-mw-camera/sensors/cmw_vd66gy.c **** }
 326              		.loc 1 85 10 view .LVU77
 327 0002 0223     		movs	r3, #2
 328 0004 D0F82841 		ldr	r4, [r0, #296]
 329 0008 ADF80620 		strh	r2, [sp, #6]	@ movhi
 330              	.LVL25:
  85:../Middlewares/stm32-mw-camera/sensors/cmw_vd66gy.c **** }
 331              		.loc 1 85 10 view .LVU78
 332              	.LBE26:
 333              	.LBI25:
  83:../Middlewares/stm32-mw-camera/sensors/cmw_vd66gy.c **** {
 334              		.loc 1 83 12 is_stmt 1 view .LVU79
 335              	.LBB27:
  85:../Middlewares/stm32-mw-camera/sensors/cmw_vd66gy.c **** }
 336              		.loc 1 85 3 view .LVU80
  85:../Middlewares/stm32-mw-camera/sensors/cmw_vd66gy.c **** }
 337              		.loc 1 85 10 is_stmt 0 view .LVU81
 338 000c 30F8040C 		ldrh	r0, [r0, #-4]
 339              	.LVL26:
  85:../Middlewares/stm32-mw-camera/sensors/cmw_vd66gy.c **** }
 340              		.loc 1 85 10 view .LVU82
 341 0010 0DF10602 		add	r2, sp, #6
 342              	.LVL27:
  85:../Middlewares/stm32-mw-camera/sensors/cmw_vd66gy.c **** }
 343              		.loc 1 85 10 view .LVU83
 344 0014 A047     		blx	r4
 345              	.LVL28:
  85:../Middlewares/stm32-mw-camera/sensors/cmw_vd66gy.c **** }
 346              		.loc 1 85 10 view .LVU84
 347              	.LBE27:
 348              	.LBE25:
 133:../Middlewares/stm32-mw-camera/sensors/cmw_vd66gy.c **** }
 349              		.loc 1 133 1 view .LVU85
 350 0016 02B0     		add	sp, sp, #8
ARM GAS  /tmp/ccOQJSAL.s 			page 10


 351              		.cfi_def_cfa_offset 8
 352              		@ sp needed
 353 0018 10BD     		pop	{r4, pc}
 354              		.cfi_endproc
 355              	.LFE1483:
 357              		.section	.text.VD6G_Write32,"ax",%progbits
 358              		.align	1
 359              		.syntax unified
 360              		.thumb
 361              		.thumb_func
 363              	VD6G_Write32:
 364              	.LVL29:
 365              	.LFB1484:
 134:../Middlewares/stm32-mw-camera/sensors/cmw_vd66gy.c **** 
 135:../Middlewares/stm32-mw-camera/sensors/cmw_vd66gy.c **** static int VD6G_Write32(struct VD6G_Ctx *ctx, uint16_t addr, uint32_t value)
 136:../Middlewares/stm32-mw-camera/sensors/cmw_vd66gy.c **** {
 366              		.loc 1 136 1 is_stmt 1 view -0
 367              		.cfi_startproc
 368              		@ args = 0, pretend = 0, frame = 8
 369              		@ frame_needed = 0, uses_anonymous_args = 0
 137:../Middlewares/stm32-mw-camera/sensors/cmw_vd66gy.c ****   CMW_VD66GY_t *p_ctx = container_of(ctx, CMW_VD66GY_t, ctx_driver);
 370              		.loc 1 137 3 view .LVU87
 138:../Middlewares/stm32-mw-camera/sensors/cmw_vd66gy.c **** 
 139:../Middlewares/stm32-mw-camera/sensors/cmw_vd66gy.c ****   return CMW_VD66GY_Write32(p_ctx, addr, value);
 371              		.loc 1 139 3 view .LVU88
 372              	.LBB30:
 373              	.LBB31:
  90:../Middlewares/stm32-mw-camera/sensors/cmw_vd66gy.c **** }
 374              		.loc 1 90 10 is_stmt 0 view .LVU89
 375 0000 0423     		movs	r3, #4
 376              	.LBE31:
 377              	.LBE30:
 136:../Middlewares/stm32-mw-camera/sensors/cmw_vd66gy.c ****   CMW_VD66GY_t *p_ctx = container_of(ctx, CMW_VD66GY_t, ctx_driver);
 378              		.loc 1 136 1 view .LVU90
 379 0002 13B5     		push	{r0, r1, r4, lr}
 380              		.cfi_def_cfa_offset 16
 381              		.cfi_offset 4, -8
 382              		.cfi_offset 14, -4
 383              	.LBB34:
 384              	.LBB32:
  90:../Middlewares/stm32-mw-camera/sensors/cmw_vd66gy.c **** }
 385              		.loc 1 90 10 view .LVU91
 386 0004 D0F82841 		ldr	r4, [r0, #296]
 387 0008 0192     		str	r2, [sp, #4]
 388              	.LVL30:
  90:../Middlewares/stm32-mw-camera/sensors/cmw_vd66gy.c **** }
 389              		.loc 1 90 10 view .LVU92
 390              	.LBE32:
 391              	.LBI30:
  88:../Middlewares/stm32-mw-camera/sensors/cmw_vd66gy.c **** {
 392              		.loc 1 88 12 is_stmt 1 view .LVU93
 393              	.LBB33:
  90:../Middlewares/stm32-mw-camera/sensors/cmw_vd66gy.c **** }
 394              		.loc 1 90 3 view .LVU94
  90:../Middlewares/stm32-mw-camera/sensors/cmw_vd66gy.c **** }
 395              		.loc 1 90 10 is_stmt 0 view .LVU95
 396 000a 30F8040C 		ldrh	r0, [r0, #-4]
ARM GAS  /tmp/ccOQJSAL.s 			page 11


 397              	.LVL31:
  90:../Middlewares/stm32-mw-camera/sensors/cmw_vd66gy.c **** }
 398              		.loc 1 90 10 view .LVU96
 399 000e 0DEB0302 		add	r2, sp, r3
 400              	.LVL32:
  90:../Middlewares/stm32-mw-camera/sensors/cmw_vd66gy.c **** }
 401              		.loc 1 90 10 view .LVU97
 402 0012 A047     		blx	r4
 403              	.LVL33:
  90:../Middlewares/stm32-mw-camera/sensors/cmw_vd66gy.c **** }
 404              		.loc 1 90 10 view .LVU98
 405              	.LBE33:
 406              	.LBE34:
 140:../Middlewares/stm32-mw-camera/sensors/cmw_vd66gy.c **** }
 407              		.loc 1 140 1 view .LVU99
 408 0014 02B0     		add	sp, sp, #8
 409              		.cfi_def_cfa_offset 8
 410              		@ sp needed
 411 0016 10BD     		pop	{r4, pc}
 412              		.cfi_endproc
 413              	.LFE1484:
 415              		.section	.text.VD6G_WriteArray,"ax",%progbits
 416              		.align	1
 417              		.syntax unified
 418              		.thumb
 419              		.thumb_func
 421              	VD6G_WriteArray:
 422              	.LVL34:
 423              	.LFB1485:
 141:../Middlewares/stm32-mw-camera/sensors/cmw_vd66gy.c **** 
 142:../Middlewares/stm32-mw-camera/sensors/cmw_vd66gy.c **** static int VD6G_WriteArray(struct VD6G_Ctx *ctx, uint16_t addr, uint8_t *data, int data_len)
 143:../Middlewares/stm32-mw-camera/sensors/cmw_vd66gy.c **** {
 424              		.loc 1 143 1 is_stmt 1 view -0
 425              		.cfi_startproc
 426              		@ args = 0, pretend = 0, frame = 0
 427              		@ frame_needed = 0, uses_anonymous_args = 0
 428              		.loc 1 143 1 is_stmt 0 view .LVU101
 429 0000 2DE9F047 		push	{r4, r5, r6, r7, r8, r9, r10, lr}
 430              		.cfi_def_cfa_offset 32
 431              		.cfi_offset 4, -32
 432              		.cfi_offset 5, -28
 433              		.cfi_offset 6, -24
 434              		.cfi_offset 7, -20
 435              		.cfi_offset 8, -16
 436              		.cfi_offset 9, -12
 437              		.cfi_offset 10, -8
 438              		.cfi_offset 14, -4
 439 0004 8046     		mov	r8, r0
 440 0006 0D46     		mov	r5, r1
 441 0008 1646     		mov	r6, r2
 442 000a 1C46     		mov	r4, r3
 144:../Middlewares/stm32-mw-camera/sensors/cmw_vd66gy.c ****   CMW_VD66GY_t *p_ctx = container_of(ctx, CMW_VD66GY_t, ctx_driver);
 443              		.loc 1 144 3 is_stmt 1 view .LVU102
 444              	.LVL35:
 145:../Middlewares/stm32-mw-camera/sensors/cmw_vd66gy.c ****   const unsigned int chunk_size = 128;
 445              		.loc 1 145 3 view .LVU103
 146:../Middlewares/stm32-mw-camera/sensors/cmw_vd66gy.c ****   uint16_t sz;
ARM GAS  /tmp/ccOQJSAL.s 			page 12


 446              		.loc 1 146 3 view .LVU104
 147:../Middlewares/stm32-mw-camera/sensors/cmw_vd66gy.c ****   int ret;
 447              		.loc 1 147 3 view .LVU105
 148:../Middlewares/stm32-mw-camera/sensors/cmw_vd66gy.c **** 
 149:../Middlewares/stm32-mw-camera/sensors/cmw_vd66gy.c ****   while (data_len) {
 448              		.loc 1 149 3 view .LVU106
 449              	.L12:
 450              		.loc 1 149 10 view .LVU107
 451 000c 14B9     		cbnz	r4, .L14
 150:../Middlewares/stm32-mw-camera/sensors/cmw_vd66gy.c ****     sz = MIN(data_len, chunk_size);
 151:../Middlewares/stm32-mw-camera/sensors/cmw_vd66gy.c ****     ret = p_ctx->WriteReg(p_ctx->Address, addr, data, sz);
 152:../Middlewares/stm32-mw-camera/sensors/cmw_vd66gy.c ****     if (ret)
 153:../Middlewares/stm32-mw-camera/sensors/cmw_vd66gy.c ****       return ret;
 154:../Middlewares/stm32-mw-camera/sensors/cmw_vd66gy.c ****     data_len -= sz;
 155:../Middlewares/stm32-mw-camera/sensors/cmw_vd66gy.c ****     addr += sz;
 156:../Middlewares/stm32-mw-camera/sensors/cmw_vd66gy.c ****     data += sz;
 157:../Middlewares/stm32-mw-camera/sensors/cmw_vd66gy.c ****   }
 158:../Middlewares/stm32-mw-camera/sensors/cmw_vd66gy.c **** 
 159:../Middlewares/stm32-mw-camera/sensors/cmw_vd66gy.c ****   return 0;
 452              		.loc 1 159 10 is_stmt 0 view .LVU108
 453 000e 2046     		mov	r0, r4
 454              	.L11:
 160:../Middlewares/stm32-mw-camera/sensors/cmw_vd66gy.c **** }
 455              		.loc 1 160 1 view .LVU109
 456 0010 BDE8F087 		pop	{r4, r5, r6, r7, r8, r9, r10, pc}
 457              	.LVL36:
 458              	.L14:
 150:../Middlewares/stm32-mw-camera/sensors/cmw_vd66gy.c ****     sz = MIN(data_len, chunk_size);
 459              		.loc 1 150 5 is_stmt 1 view .LVU110
 150:../Middlewares/stm32-mw-camera/sensors/cmw_vd66gy.c ****     sz = MIN(data_len, chunk_size);
 460              		.loc 1 150 10 is_stmt 0 view .LVU111
 461 0014 802C     		cmp	r4, #128
 462 0016 A146     		mov	r9, r4
 463 0018 28BF     		it	cs
 464 001a 4FF08009 		movcs	r9, #128
 150:../Middlewares/stm32-mw-camera/sensors/cmw_vd66gy.c ****     sz = MIN(data_len, chunk_size);
 465              		.loc 1 150 8 view .LVU112
 466 001e 1FFA89FA 		uxth	r10, r9
 467              	.LVL37:
 151:../Middlewares/stm32-mw-camera/sensors/cmw_vd66gy.c ****     if (ret)
 468              		.loc 1 151 5 is_stmt 1 view .LVU113
 151:../Middlewares/stm32-mw-camera/sensors/cmw_vd66gy.c ****     if (ret)
 469              		.loc 1 151 11 is_stmt 0 view .LVU114
 470 0022 5346     		mov	r3, r10
 471 0024 3246     		mov	r2, r6
 472 0026 2946     		mov	r1, r5
 473 0028 D8F82871 		ldr	r7, [r8, #296]
 474 002c 38F8040C 		ldrh	r0, [r8, #-4]
 475 0030 B847     		blx	r7
 476              	.LVL38:
 152:../Middlewares/stm32-mw-camera/sensors/cmw_vd66gy.c ****       return ret;
 477              		.loc 1 152 5 is_stmt 1 view .LVU115
 152:../Middlewares/stm32-mw-camera/sensors/cmw_vd66gy.c ****       return ret;
 478              		.loc 1 152 8 is_stmt 0 view .LVU116
 479 0032 0028     		cmp	r0, #0
 480 0034 ECD1     		bne	.L11
 154:../Middlewares/stm32-mw-camera/sensors/cmw_vd66gy.c ****     addr += sz;
ARM GAS  /tmp/ccOQJSAL.s 			page 13


 481              		.loc 1 154 5 is_stmt 1 view .LVU117
 155:../Middlewares/stm32-mw-camera/sensors/cmw_vd66gy.c ****     data += sz;
 482              		.loc 1 155 10 is_stmt 0 view .LVU118
 483 0036 AA44     		add	r10, r10, r5
 484              	.LVL39:
 154:../Middlewares/stm32-mw-camera/sensors/cmw_vd66gy.c ****     addr += sz;
 485              		.loc 1 154 14 view .LVU119
 486 0038 A4EB0904 		sub	r4, r4, r9
 487              	.LVL40:
 155:../Middlewares/stm32-mw-camera/sensors/cmw_vd66gy.c ****     data += sz;
 488              		.loc 1 155 5 is_stmt 1 view .LVU120
 155:../Middlewares/stm32-mw-camera/sensors/cmw_vd66gy.c ****     data += sz;
 489              		.loc 1 155 10 is_stmt 0 view .LVU121
 490 003c 1FFA8AF5 		uxth	r5, r10
 491              	.LVL41:
 156:../Middlewares/stm32-mw-camera/sensors/cmw_vd66gy.c ****   }
 492              		.loc 1 156 5 is_stmt 1 view .LVU122
 156:../Middlewares/stm32-mw-camera/sensors/cmw_vd66gy.c ****   }
 493              		.loc 1 156 10 is_stmt 0 view .LVU123
 494 0040 4E44     		add	r6, r6, r9
 495              	.LVL42:
 156:../Middlewares/stm32-mw-camera/sensors/cmw_vd66gy.c ****   }
 496              		.loc 1 156 10 view .LVU124
 497 0042 E3E7     		b	.L12
 498              		.cfi_endproc
 499              	.LFE1485:
 501              		.section	.text.VD6G_Delay,"ax",%progbits
 502              		.align	1
 503              		.syntax unified
 504              		.thumb
 505              		.thumb_func
 507              	VD6G_Delay:
 508              	.LVL43:
 509              	.LFB1486:
 161:../Middlewares/stm32-mw-camera/sensors/cmw_vd66gy.c **** 
 162:../Middlewares/stm32-mw-camera/sensors/cmw_vd66gy.c **** static void VD6G_Delay(struct VD6G_Ctx *ctx, uint32_t delay_in_ms)
 163:../Middlewares/stm32-mw-camera/sensors/cmw_vd66gy.c **** {
 510              		.loc 1 163 1 is_stmt 1 view -0
 511              		.cfi_startproc
 512              		@ args = 0, pretend = 0, frame = 0
 513              		@ frame_needed = 0, uses_anonymous_args = 0
 514              		@ link register save eliminated.
 164:../Middlewares/stm32-mw-camera/sensors/cmw_vd66gy.c ****   CMW_VD66GY_t *p_ctx = container_of(ctx, CMW_VD66GY_t, ctx_driver);
 515              		.loc 1 164 3 view .LVU126
 165:../Middlewares/stm32-mw-camera/sensors/cmw_vd66gy.c **** 
 166:../Middlewares/stm32-mw-camera/sensors/cmw_vd66gy.c ****   p_ctx->Delay(delay_in_ms);
 516              		.loc 1 166 3 view .LVU127
 517 0000 D0F83431 		ldr	r3, [r0, #308]
 518 0004 0846     		mov	r0, r1
 519              	.LVL44:
 520              		.loc 1 166 3 is_stmt 0 view .LVU128
 521 0006 1847     		bx	r3	@ indirect register sibling call
 522              	.LVL45:
 523              		.loc 1 166 3 view .LVU129
 524              		.cfi_endproc
 525              	.LFE1486:
 527              		.section	.text.VD6G_Log,"ax",%progbits
ARM GAS  /tmp/ccOQJSAL.s 			page 14


 528              		.align	1
 529              		.syntax unified
 530              		.thumb
 531              		.thumb_func
 533              	VD6G_Log:
 534              	.LVL46:
 535              	.LFB1487:
 167:../Middlewares/stm32-mw-camera/sensors/cmw_vd66gy.c **** }
 168:../Middlewares/stm32-mw-camera/sensors/cmw_vd66gy.c **** 
 169:../Middlewares/stm32-mw-camera/sensors/cmw_vd66gy.c **** static void VD6G_Log(struct VD6G_Ctx *ctx, int lvl, const char *format, va_list ap)
 170:../Middlewares/stm32-mw-camera/sensors/cmw_vd66gy.c **** {
 536              		.loc 1 170 1 is_stmt 1 view -0
 537              		.cfi_startproc
 538              		@ args = 0, pretend = 0, frame = 0
 539              		@ frame_needed = 0, uses_anonymous_args = 0
 540              		@ link register save eliminated.
 171:../Middlewares/stm32-mw-camera/sensors/cmw_vd66gy.c **** #if 0
 172:../Middlewares/stm32-mw-camera/sensors/cmw_vd66gy.c ****   const int current_lvl = VD6G_LVL_DBG(0);
 173:../Middlewares/stm32-mw-camera/sensors/cmw_vd66gy.c **** 
 174:../Middlewares/stm32-mw-camera/sensors/cmw_vd66gy.c ****   if (lvl > current_lvl)
 175:../Middlewares/stm32-mw-camera/sensors/cmw_vd66gy.c ****     return ;
 176:../Middlewares/stm32-mw-camera/sensors/cmw_vd66gy.c **** 
 177:../Middlewares/stm32-mw-camera/sensors/cmw_vd66gy.c ****   vprintf(format, ap);
 178:../Middlewares/stm32-mw-camera/sensors/cmw_vd66gy.c **** #endif
 179:../Middlewares/stm32-mw-camera/sensors/cmw_vd66gy.c **** }
 541              		.loc 1 179 1 view .LVU131
 542 0000 7047     		bx	lr
 543              		.cfi_endproc
 544              	.LFE1487:
 546              		.section	.text.CMW_VD66GY_FrameEventCallback,"ax",%progbits
 547              		.align	1
 548              		.syntax unified
 549              		.thumb
 550              		.thumb_func
 552              	CMW_VD66GY_FrameEventCallback:
 553              	.LVL47:
 554              	.LFB1503:
 180:../Middlewares/stm32-mw-camera/sensors/cmw_vd66gy.c **** 
 181:../Middlewares/stm32-mw-camera/sensors/cmw_vd66gy.c **** static int CMW_VD66GY_GetResType(uint32_t width, uint32_t height, VD6G_Res_t *res)
 182:../Middlewares/stm32-mw-camera/sensors/cmw_vd66gy.c **** {
 183:../Middlewares/stm32-mw-camera/sensors/cmw_vd66gy.c ****   if (width == 320 && height == 240)
 184:../Middlewares/stm32-mw-camera/sensors/cmw_vd66gy.c ****   {
 185:../Middlewares/stm32-mw-camera/sensors/cmw_vd66gy.c ****     *res = VD6G_RES_QVGA_320_240;
 186:../Middlewares/stm32-mw-camera/sensors/cmw_vd66gy.c ****   }
 187:../Middlewares/stm32-mw-camera/sensors/cmw_vd66gy.c ****   else if (width == 640 && height == 480)
 188:../Middlewares/stm32-mw-camera/sensors/cmw_vd66gy.c ****   {
 189:../Middlewares/stm32-mw-camera/sensors/cmw_vd66gy.c ****     *res = VD6G_RES_VGA_640_480;
 190:../Middlewares/stm32-mw-camera/sensors/cmw_vd66gy.c ****   }
 191:../Middlewares/stm32-mw-camera/sensors/cmw_vd66gy.c ****   else if (width == 1024 && height == 768)
 192:../Middlewares/stm32-mw-camera/sensors/cmw_vd66gy.c ****   {
 193:../Middlewares/stm32-mw-camera/sensors/cmw_vd66gy.c ****     *res = VD6G_RES_XGA_1024_768;
 194:../Middlewares/stm32-mw-camera/sensors/cmw_vd66gy.c ****   }
 195:../Middlewares/stm32-mw-camera/sensors/cmw_vd66gy.c ****   else if (width == 1120 && height == 720)
 196:../Middlewares/stm32-mw-camera/sensors/cmw_vd66gy.c ****   {
 197:../Middlewares/stm32-mw-camera/sensors/cmw_vd66gy.c ****     *res = VD6G_RES_PORTRAIT_1120_720;
 198:../Middlewares/stm32-mw-camera/sensors/cmw_vd66gy.c ****   }
 199:../Middlewares/stm32-mw-camera/sensors/cmw_vd66gy.c ****   else if (width == 1120 && height == 1364)
ARM GAS  /tmp/ccOQJSAL.s 			page 15


 200:../Middlewares/stm32-mw-camera/sensors/cmw_vd66gy.c ****   {
 201:../Middlewares/stm32-mw-camera/sensors/cmw_vd66gy.c ****     *res = VD6G_RES_FULL_1120_1364;
 202:../Middlewares/stm32-mw-camera/sensors/cmw_vd66gy.c ****   }
 203:../Middlewares/stm32-mw-camera/sensors/cmw_vd66gy.c ****   else
 204:../Middlewares/stm32-mw-camera/sensors/cmw_vd66gy.c ****   {
 205:../Middlewares/stm32-mw-camera/sensors/cmw_vd66gy.c ****     return CMW_ERROR_WRONG_PARAM;
 206:../Middlewares/stm32-mw-camera/sensors/cmw_vd66gy.c ****   }
 207:../Middlewares/stm32-mw-camera/sensors/cmw_vd66gy.c ****   return 0;
 208:../Middlewares/stm32-mw-camera/sensors/cmw_vd66gy.c **** }
 209:../Middlewares/stm32-mw-camera/sensors/cmw_vd66gy.c **** 
 210:../Middlewares/stm32-mw-camera/sensors/cmw_vd66gy.c **** static VD6G_MirrorFlip_t CMW_VD66GY_getMirrorFlipConfig(uint32_t Config)
 211:../Middlewares/stm32-mw-camera/sensors/cmw_vd66gy.c **** {
 212:../Middlewares/stm32-mw-camera/sensors/cmw_vd66gy.c ****   VD6G_MirrorFlip_t ret;
 213:../Middlewares/stm32-mw-camera/sensors/cmw_vd66gy.c **** 
 214:../Middlewares/stm32-mw-camera/sensors/cmw_vd66gy.c ****   switch (Config)
 215:../Middlewares/stm32-mw-camera/sensors/cmw_vd66gy.c ****   {
 216:../Middlewares/stm32-mw-camera/sensors/cmw_vd66gy.c ****     case CMW_MIRRORFLIP_NONE:
 217:../Middlewares/stm32-mw-camera/sensors/cmw_vd66gy.c ****       ret = VD6G_MIRROR_FLIP_NONE;
 218:../Middlewares/stm32-mw-camera/sensors/cmw_vd66gy.c ****       break;
 219:../Middlewares/stm32-mw-camera/sensors/cmw_vd66gy.c ****     case CMW_MIRRORFLIP_FLIP:
 220:../Middlewares/stm32-mw-camera/sensors/cmw_vd66gy.c ****       ret = VD6G_FLIP;
 221:../Middlewares/stm32-mw-camera/sensors/cmw_vd66gy.c ****       break;
 222:../Middlewares/stm32-mw-camera/sensors/cmw_vd66gy.c ****     case CMW_MIRRORFLIP_MIRROR:
 223:../Middlewares/stm32-mw-camera/sensors/cmw_vd66gy.c ****       ret = VD6G_MIRROR;
 224:../Middlewares/stm32-mw-camera/sensors/cmw_vd66gy.c ****       break;
 225:../Middlewares/stm32-mw-camera/sensors/cmw_vd66gy.c ****     case CMW_MIRRORFLIP_FLIP_MIRROR:
 226:../Middlewares/stm32-mw-camera/sensors/cmw_vd66gy.c ****     default:
 227:../Middlewares/stm32-mw-camera/sensors/cmw_vd66gy.c ****       ret = VD6G_MIRROR_FLIP;
 228:../Middlewares/stm32-mw-camera/sensors/cmw_vd66gy.c ****       break;
 229:../Middlewares/stm32-mw-camera/sensors/cmw_vd66gy.c ****   }
 230:../Middlewares/stm32-mw-camera/sensors/cmw_vd66gy.c **** 
 231:../Middlewares/stm32-mw-camera/sensors/cmw_vd66gy.c ****   return ret;
 232:../Middlewares/stm32-mw-camera/sensors/cmw_vd66gy.c **** }
 233:../Middlewares/stm32-mw-camera/sensors/cmw_vd66gy.c **** 
 234:../Middlewares/stm32-mw-camera/sensors/cmw_vd66gy.c **** static int32_t CMW_VD66GY_Init(void *io_ctx, CMW_Sensor_Init_t *initSensor)
 235:../Middlewares/stm32-mw-camera/sensors/cmw_vd66gy.c **** {
 236:../Middlewares/stm32-mw-camera/sensors/cmw_vd66gy.c ****   VD6G_Config_t config = { 0 };
 237:../Middlewares/stm32-mw-camera/sensors/cmw_vd66gy.c ****   int ret;
 238:../Middlewares/stm32-mw-camera/sensors/cmw_vd66gy.c ****   int i;
 239:../Middlewares/stm32-mw-camera/sensors/cmw_vd66gy.c ****   CMW_VD66GY_config_t *sensor_config;
 240:../Middlewares/stm32-mw-camera/sensors/cmw_vd66gy.c ****   sensor_config = (CMW_VD66GY_config_t*)(initSensor->sensor_config);
 241:../Middlewares/stm32-mw-camera/sensors/cmw_vd66gy.c ****   if (sensor_config == NULL)
 242:../Middlewares/stm32-mw-camera/sensors/cmw_vd66gy.c ****   {
 243:../Middlewares/stm32-mw-camera/sensors/cmw_vd66gy.c ****     return CMW_ERROR_WRONG_PARAM;
 244:../Middlewares/stm32-mw-camera/sensors/cmw_vd66gy.c ****   }
 245:../Middlewares/stm32-mw-camera/sensors/cmw_vd66gy.c **** 
 246:../Middlewares/stm32-mw-camera/sensors/cmw_vd66gy.c ****   if (((CMW_VD66GY_t *)io_ctx)->IsInitialized)
 247:../Middlewares/stm32-mw-camera/sensors/cmw_vd66gy.c ****   {
 248:../Middlewares/stm32-mw-camera/sensors/cmw_vd66gy.c ****     return CMW_ERROR_NONE;
 249:../Middlewares/stm32-mw-camera/sensors/cmw_vd66gy.c ****   }
 250:../Middlewares/stm32-mw-camera/sensors/cmw_vd66gy.c **** 
 251:../Middlewares/stm32-mw-camera/sensors/cmw_vd66gy.c ****   config.frame_rate = initSensor->fps;
 252:../Middlewares/stm32-mw-camera/sensors/cmw_vd66gy.c ****   ret = CMW_VD66GY_GetResType(initSensor->width, initSensor->height, &config.resolution);
 253:../Middlewares/stm32-mw-camera/sensors/cmw_vd66gy.c ****   if (ret)
 254:../Middlewares/stm32-mw-camera/sensors/cmw_vd66gy.c ****   {
 255:../Middlewares/stm32-mw-camera/sensors/cmw_vd66gy.c ****     return CMW_ERROR_WRONG_PARAM;
 256:../Middlewares/stm32-mw-camera/sensors/cmw_vd66gy.c ****   }
ARM GAS  /tmp/ccOQJSAL.s 			page 16


 257:../Middlewares/stm32-mw-camera/sensors/cmw_vd66gy.c **** 
 258:../Middlewares/stm32-mw-camera/sensors/cmw_vd66gy.c ****   switch (sensor_config->pixel_format)
 259:../Middlewares/stm32-mw-camera/sensors/cmw_vd66gy.c ****   {
 260:../Middlewares/stm32-mw-camera/sensors/cmw_vd66gy.c ****     case CMW_PIXEL_FORMAT_DEFAULT:
 261:../Middlewares/stm32-mw-camera/sensors/cmw_vd66gy.c ****     case CMW_PIXEL_FORMAT_RAW10:
 262:../Middlewares/stm32-mw-camera/sensors/cmw_vd66gy.c ****     {
 263:../Middlewares/stm32-mw-camera/sensors/cmw_vd66gy.c ****       config.pixel_depth = 10;
 264:../Middlewares/stm32-mw-camera/sensors/cmw_vd66gy.c ****       break;
 265:../Middlewares/stm32-mw-camera/sensors/cmw_vd66gy.c ****     }
 266:../Middlewares/stm32-mw-camera/sensors/cmw_vd66gy.c ****     case CMW_PIXEL_FORMAT_RAW8:
 267:../Middlewares/stm32-mw-camera/sensors/cmw_vd66gy.c ****     {
 268:../Middlewares/stm32-mw-camera/sensors/cmw_vd66gy.c ****       config.pixel_depth = 8;
 269:../Middlewares/stm32-mw-camera/sensors/cmw_vd66gy.c ****       break;
 270:../Middlewares/stm32-mw-camera/sensors/cmw_vd66gy.c ****     }
 271:../Middlewares/stm32-mw-camera/sensors/cmw_vd66gy.c ****     default:
 272:../Middlewares/stm32-mw-camera/sensors/cmw_vd66gy.c ****       return CMW_ERROR_COMPONENT_FAILURE;
 273:../Middlewares/stm32-mw-camera/sensors/cmw_vd66gy.c ****       break;
 274:../Middlewares/stm32-mw-camera/sensors/cmw_vd66gy.c ****   }
 275:../Middlewares/stm32-mw-camera/sensors/cmw_vd66gy.c **** 
 276:../Middlewares/stm32-mw-camera/sensors/cmw_vd66gy.c ****   config.ext_clock_freq_in_hz = CAMERA_VD66GY_FREQ_IN_HZ; /* Default clock frequency */
 277:../Middlewares/stm32-mw-camera/sensors/cmw_vd66gy.c ****   config.line_len = sensor_config->line_len;
 278:../Middlewares/stm32-mw-camera/sensors/cmw_vd66gy.c ****   config.out_itf.datalane_nb = 2;
 279:../Middlewares/stm32-mw-camera/sensors/cmw_vd66gy.c ****   config.out_itf.clock_lane_swap_enable = 1;
 280:../Middlewares/stm32-mw-camera/sensors/cmw_vd66gy.c ****   config.out_itf.data_lane0_swap_enable = 1;
 281:../Middlewares/stm32-mw-camera/sensors/cmw_vd66gy.c ****   config.out_itf.data_lane1_swap_enable = 1;
 282:../Middlewares/stm32-mw-camera/sensors/cmw_vd66gy.c ****   config.out_itf.data_lanes_mapping_swap_enable = 0;
 283:../Middlewares/stm32-mw-camera/sensors/cmw_vd66gy.c **** 
 284:../Middlewares/stm32-mw-camera/sensors/cmw_vd66gy.c ****   config.flip_mirror_mode = CMW_VD66GY_getMirrorFlipConfig(initSensor->mirrorFlip);
 285:../Middlewares/stm32-mw-camera/sensors/cmw_vd66gy.c ****   config.patgen = VD6G_PATGEN_DISABLE;
 286:../Middlewares/stm32-mw-camera/sensors/cmw_vd66gy.c ****   config.flicker = VD6G_FLICKER_FREE_NONE;
 287:../Middlewares/stm32-mw-camera/sensors/cmw_vd66gy.c **** 
 288:../Middlewares/stm32-mw-camera/sensors/cmw_vd66gy.c ****   for (i = 0; i < VD6G_GPIO_NB; i++)
 289:../Middlewares/stm32-mw-camera/sensors/cmw_vd66gy.c ****   {
 290:../Middlewares/stm32-mw-camera/sensors/cmw_vd66gy.c ****     config.gpio_ctrl[i] = VD6G_GPIO_GPIO_IN;
 291:../Middlewares/stm32-mw-camera/sensors/cmw_vd66gy.c ****   }
 292:../Middlewares/stm32-mw-camera/sensors/cmw_vd66gy.c **** 
 293:../Middlewares/stm32-mw-camera/sensors/cmw_vd66gy.c ****   ret = VD6G_Init(&((CMW_VD66GY_t *)io_ctx)->ctx_driver, &config);
 294:../Middlewares/stm32-mw-camera/sensors/cmw_vd66gy.c ****   if (ret)
 295:../Middlewares/stm32-mw-camera/sensors/cmw_vd66gy.c ****   {
 296:../Middlewares/stm32-mw-camera/sensors/cmw_vd66gy.c ****     return CMW_ERROR_PERIPH_FAILURE;
 297:../Middlewares/stm32-mw-camera/sensors/cmw_vd66gy.c ****   }
 298:../Middlewares/stm32-mw-camera/sensors/cmw_vd66gy.c **** 
 299:../Middlewares/stm32-mw-camera/sensors/cmw_vd66gy.c ****   if (((CMW_VD66GY_t *)io_ctx)->ctx_driver.bayer == VD6G_BAYER_NONE)
 300:../Middlewares/stm32-mw-camera/sensors/cmw_vd66gy.c ****   {
 301:../Middlewares/stm32-mw-camera/sensors/cmw_vd66gy.c ****     VD6G_DeInit(&((CMW_VD66GY_t *)io_ctx)->ctx_driver);
 302:../Middlewares/stm32-mw-camera/sensors/cmw_vd66gy.c ****     return CMW_ERROR_PERIPH_FAILURE;
 303:../Middlewares/stm32-mw-camera/sensors/cmw_vd66gy.c ****   }
 304:../Middlewares/stm32-mw-camera/sensors/cmw_vd66gy.c **** 
 305:../Middlewares/stm32-mw-camera/sensors/cmw_vd66gy.c ****   ((CMW_VD66GY_t *)io_ctx)->IsInitialized = 1;
 306:../Middlewares/stm32-mw-camera/sensors/cmw_vd66gy.c ****   return CMW_ERROR_NONE;
 307:../Middlewares/stm32-mw-camera/sensors/cmw_vd66gy.c **** }
 308:../Middlewares/stm32-mw-camera/sensors/cmw_vd66gy.c **** 
 309:../Middlewares/stm32-mw-camera/sensors/cmw_vd66gy.c **** void CMW_VD66GY_SetDefaultSensorValues(CMW_VD66GY_config_t *vd66gy_config)
 310:../Middlewares/stm32-mw-camera/sensors/cmw_vd66gy.c **** {
 311:../Middlewares/stm32-mw-camera/sensors/cmw_vd66gy.c ****   assert(vd66gy_config != NULL);
 312:../Middlewares/stm32-mw-camera/sensors/cmw_vd66gy.c ****   vd66gy_config->line_len = 0;
 313:../Middlewares/stm32-mw-camera/sensors/cmw_vd66gy.c ****   vd66gy_config->pixel_format = CMW_PIXEL_FORMAT_RAW10;
ARM GAS  /tmp/ccOQJSAL.s 			page 17


 314:../Middlewares/stm32-mw-camera/sensors/cmw_vd66gy.c **** }
 315:../Middlewares/stm32-mw-camera/sensors/cmw_vd66gy.c **** 
 316:../Middlewares/stm32-mw-camera/sensors/cmw_vd66gy.c **** static int32_t CMW_VD66GY_Start(void *io_ctx)
 317:../Middlewares/stm32-mw-camera/sensors/cmw_vd66gy.c **** {
 318:../Middlewares/stm32-mw-camera/sensors/cmw_vd66gy.c ****   int ret = CMW_ERROR_NONE;
 319:../Middlewares/stm32-mw-camera/sensors/cmw_vd66gy.c **** 
 320:../Middlewares/stm32-mw-camera/sensors/cmw_vd66gy.c **** #ifndef ISP_MW_TUNING_TOOL_SUPPORT
 321:../Middlewares/stm32-mw-camera/sensors/cmw_vd66gy.c ****   /* Statistic area is provided with null value so that it force the ISP Library to get the statist
 322:../Middlewares/stm32-mw-camera/sensors/cmw_vd66gy.c ****    * area information from the tuning file.
 323:../Middlewares/stm32-mw-camera/sensors/cmw_vd66gy.c ****    */
 324:../Middlewares/stm32-mw-camera/sensors/cmw_vd66gy.c ****   (void) ISP_IQParamCacheInit; /* unused */
 325:../Middlewares/stm32-mw-camera/sensors/cmw_vd66gy.c ****   ret = ISP_Init(&((CMW_VD66GY_t *)io_ctx)->hIsp, ((CMW_VD66GY_t *)io_ctx)->hdcmipp, 0, &((CMW_VD66
 326:../Middlewares/stm32-mw-camera/sensors/cmw_vd66gy.c ****   if (ret != ISP_OK)
 327:../Middlewares/stm32-mw-camera/sensors/cmw_vd66gy.c ****   {
 328:../Middlewares/stm32-mw-camera/sensors/cmw_vd66gy.c ****     return CMW_ERROR_COMPONENT_FAILURE;
 329:../Middlewares/stm32-mw-camera/sensors/cmw_vd66gy.c ****   }
 330:../Middlewares/stm32-mw-camera/sensors/cmw_vd66gy.c **** 
 331:../Middlewares/stm32-mw-camera/sensors/cmw_vd66gy.c ****   ret = ISP_Start(&((CMW_VD66GY_t *)io_ctx)->hIsp);
 332:../Middlewares/stm32-mw-camera/sensors/cmw_vd66gy.c ****   if (ret != ISP_OK)
 333:../Middlewares/stm32-mw-camera/sensors/cmw_vd66gy.c ****   {
 334:../Middlewares/stm32-mw-camera/sensors/cmw_vd66gy.c ****       return CMW_ERROR_PERIPH_FAILURE;
 335:../Middlewares/stm32-mw-camera/sensors/cmw_vd66gy.c ****   }
 336:../Middlewares/stm32-mw-camera/sensors/cmw_vd66gy.c **** #endif
 337:../Middlewares/stm32-mw-camera/sensors/cmw_vd66gy.c ****   ret = VD6G_Start(&((CMW_VD66GY_t *)io_ctx)->ctx_driver);
 338:../Middlewares/stm32-mw-camera/sensors/cmw_vd66gy.c ****   if (ret) {
 339:../Middlewares/stm32-mw-camera/sensors/cmw_vd66gy.c ****     VD6G_DeInit(&((CMW_VD66GY_t *)io_ctx)->ctx_driver);
 340:../Middlewares/stm32-mw-camera/sensors/cmw_vd66gy.c ****     return CMW_ERROR_PERIPH_FAILURE;
 341:../Middlewares/stm32-mw-camera/sensors/cmw_vd66gy.c ****   }
 342:../Middlewares/stm32-mw-camera/sensors/cmw_vd66gy.c ****   return CMW_ERROR_NONE;
 343:../Middlewares/stm32-mw-camera/sensors/cmw_vd66gy.c **** }
 344:../Middlewares/stm32-mw-camera/sensors/cmw_vd66gy.c **** 
 345:../Middlewares/stm32-mw-camera/sensors/cmw_vd66gy.c **** static int32_t CMW_VD66GY_Run(void *io_ctx)
 346:../Middlewares/stm32-mw-camera/sensors/cmw_vd66gy.c **** {
 347:../Middlewares/stm32-mw-camera/sensors/cmw_vd66gy.c **** #ifndef ISP_MW_TUNING_TOOL_SUPPORT
 348:../Middlewares/stm32-mw-camera/sensors/cmw_vd66gy.c ****   int ret;
 349:../Middlewares/stm32-mw-camera/sensors/cmw_vd66gy.c ****   ret = ISP_BackgroundProcess(&((CMW_VD66GY_t *)io_ctx)->hIsp);
 350:../Middlewares/stm32-mw-camera/sensors/cmw_vd66gy.c ****   if (ret != ISP_OK)
 351:../Middlewares/stm32-mw-camera/sensors/cmw_vd66gy.c ****   {
 352:../Middlewares/stm32-mw-camera/sensors/cmw_vd66gy.c ****       return CMW_ERROR_PERIPH_FAILURE;
 353:../Middlewares/stm32-mw-camera/sensors/cmw_vd66gy.c ****   }
 354:../Middlewares/stm32-mw-camera/sensors/cmw_vd66gy.c **** #endif
 355:../Middlewares/stm32-mw-camera/sensors/cmw_vd66gy.c ****   return CMW_ERROR_NONE;
 356:../Middlewares/stm32-mw-camera/sensors/cmw_vd66gy.c **** }
 357:../Middlewares/stm32-mw-camera/sensors/cmw_vd66gy.c **** 
 358:../Middlewares/stm32-mw-camera/sensors/cmw_vd66gy.c **** static int32_t CMW_VD66GY_Stop(void *io_ctx)
 359:../Middlewares/stm32-mw-camera/sensors/cmw_vd66gy.c **** {
 360:../Middlewares/stm32-mw-camera/sensors/cmw_vd66gy.c ****   int ret = CMW_ERROR_NONE;
 361:../Middlewares/stm32-mw-camera/sensors/cmw_vd66gy.c **** 
 362:../Middlewares/stm32-mw-camera/sensors/cmw_vd66gy.c ****   ret = VD6G_Stop(&((CMW_VD66GY_t *)io_ctx)->ctx_driver);
 363:../Middlewares/stm32-mw-camera/sensors/cmw_vd66gy.c ****   if (ret)
 364:../Middlewares/stm32-mw-camera/sensors/cmw_vd66gy.c ****   {
 365:../Middlewares/stm32-mw-camera/sensors/cmw_vd66gy.c ****     return CMW_ERROR_PERIPH_FAILURE;
 366:../Middlewares/stm32-mw-camera/sensors/cmw_vd66gy.c ****   }
 367:../Middlewares/stm32-mw-camera/sensors/cmw_vd66gy.c ****   return CMW_ERROR_NONE;
 368:../Middlewares/stm32-mw-camera/sensors/cmw_vd66gy.c **** }
 369:../Middlewares/stm32-mw-camera/sensors/cmw_vd66gy.c **** 
 370:../Middlewares/stm32-mw-camera/sensors/cmw_vd66gy.c **** static int32_t CMW_VD66GY_DeInit(void *io_ctx)
ARM GAS  /tmp/ccOQJSAL.s 			page 18


 371:../Middlewares/stm32-mw-camera/sensors/cmw_vd66gy.c **** {
 372:../Middlewares/stm32-mw-camera/sensors/cmw_vd66gy.c ****   int ret = CMW_ERROR_NONE;
 373:../Middlewares/stm32-mw-camera/sensors/cmw_vd66gy.c **** 
 374:../Middlewares/stm32-mw-camera/sensors/cmw_vd66gy.c ****   ret = VD6G_Stop(&((CMW_VD66GY_t *)io_ctx)->ctx_driver);
 375:../Middlewares/stm32-mw-camera/sensors/cmw_vd66gy.c ****   if (ret)
 376:../Middlewares/stm32-mw-camera/sensors/cmw_vd66gy.c ****   {
 377:../Middlewares/stm32-mw-camera/sensors/cmw_vd66gy.c ****     return CMW_ERROR_PERIPH_FAILURE;
 378:../Middlewares/stm32-mw-camera/sensors/cmw_vd66gy.c ****   }
 379:../Middlewares/stm32-mw-camera/sensors/cmw_vd66gy.c **** 
 380:../Middlewares/stm32-mw-camera/sensors/cmw_vd66gy.c ****   ret = VD6G_DeInit(&((CMW_VD66GY_t *)io_ctx)->ctx_driver);
 381:../Middlewares/stm32-mw-camera/sensors/cmw_vd66gy.c ****   if (ret)
 382:../Middlewares/stm32-mw-camera/sensors/cmw_vd66gy.c ****   {
 383:../Middlewares/stm32-mw-camera/sensors/cmw_vd66gy.c ****     return CMW_ERROR_PERIPH_FAILURE;
 384:../Middlewares/stm32-mw-camera/sensors/cmw_vd66gy.c ****   }
 385:../Middlewares/stm32-mw-camera/sensors/cmw_vd66gy.c **** 
 386:../Middlewares/stm32-mw-camera/sensors/cmw_vd66gy.c ****   ((CMW_VD66GY_t *)io_ctx)->IsInitialized = 0;
 387:../Middlewares/stm32-mw-camera/sensors/cmw_vd66gy.c ****   return CMW_ERROR_NONE;
 388:../Middlewares/stm32-mw-camera/sensors/cmw_vd66gy.c **** }
 389:../Middlewares/stm32-mw-camera/sensors/cmw_vd66gy.c **** 
 390:../Middlewares/stm32-mw-camera/sensors/cmw_vd66gy.c **** /**
 391:../Middlewares/stm32-mw-camera/sensors/cmw_vd66gy.c ****   * @brief  Set the gain
 392:../Middlewares/stm32-mw-camera/sensors/cmw_vd66gy.c ****   * @param  pObj  pointer to component object
 393:../Middlewares/stm32-mw-camera/sensors/cmw_vd66gy.c ****   * @param  Gain Gain in mdB
 394:../Middlewares/stm32-mw-camera/sensors/cmw_vd66gy.c ****   * @retval Component status
 395:../Middlewares/stm32-mw-camera/sensors/cmw_vd66gy.c ****   */
 396:../Middlewares/stm32-mw-camera/sensors/cmw_vd66gy.c **** int32_t CMW_VD66GY_SetGain(void *io_ctx, int32_t gain)
 397:../Middlewares/stm32-mw-camera/sensors/cmw_vd66gy.c **** {
 398:../Middlewares/stm32-mw-camera/sensors/cmw_vd66gy.c ****   int32_t ret;
 399:../Middlewares/stm32-mw-camera/sensors/cmw_vd66gy.c ****   uint8_t again_regmin, again_regmax;
 400:../Middlewares/stm32-mw-camera/sensors/cmw_vd66gy.c ****   uint16_t dgain_regmin, dgain_regmax;
 401:../Middlewares/stm32-mw-camera/sensors/cmw_vd66gy.c ****   uint32_t again_min_mdB, again_max_mdB;
 402:../Middlewares/stm32-mw-camera/sensors/cmw_vd66gy.c ****   uint32_t dgain_min_mdB, dgain_max_mdB;
 403:../Middlewares/stm32-mw-camera/sensors/cmw_vd66gy.c ****   double analog_linear_gain, digital_linear_gain;
 404:../Middlewares/stm32-mw-camera/sensors/cmw_vd66gy.c **** 
 405:../Middlewares/stm32-mw-camera/sensors/cmw_vd66gy.c ****   ret = VD6G_GetAnalogGainRegRange(&((CMW_VD66GY_t *)io_ctx)->ctx_driver, &again_regmin, &again_reg
 406:../Middlewares/stm32-mw-camera/sensors/cmw_vd66gy.c ****   if (ret)
 407:../Middlewares/stm32-mw-camera/sensors/cmw_vd66gy.c ****     return ret;
 408:../Middlewares/stm32-mw-camera/sensors/cmw_vd66gy.c **** 
 409:../Middlewares/stm32-mw-camera/sensors/cmw_vd66gy.c ****   ret = VD6G_GetDigitalGainRegRange(&((CMW_VD66GY_t *)io_ctx)->ctx_driver, &dgain_regmin, &dgain_re
 410:../Middlewares/stm32-mw-camera/sensors/cmw_vd66gy.c ****   if (ret)
 411:../Middlewares/stm32-mw-camera/sensors/cmw_vd66gy.c ****     return ret;
 412:../Middlewares/stm32-mw-camera/sensors/cmw_vd66gy.c **** 
 413:../Middlewares/stm32-mw-camera/sensors/cmw_vd66gy.c ****   again_min_mdB = (uint32_t) LINEAR_TO_MDECIBEL(32 / (32 - again_regmin));
 414:../Middlewares/stm32-mw-camera/sensors/cmw_vd66gy.c ****   again_max_mdB = (uint32_t) LINEAR_TO_MDECIBEL(32 / (32 - again_regmax));
 415:../Middlewares/stm32-mw-camera/sensors/cmw_vd66gy.c ****   dgain_min_mdB = (uint32_t) LINEAR_TO_MDECIBEL(FP58_TO_FLOAT(dgain_regmin));
 416:../Middlewares/stm32-mw-camera/sensors/cmw_vd66gy.c ****   dgain_max_mdB = (uint32_t) LINEAR_TO_MDECIBEL(FP58_TO_FLOAT(dgain_regmax));
 417:../Middlewares/stm32-mw-camera/sensors/cmw_vd66gy.c **** 
 418:../Middlewares/stm32-mw-camera/sensors/cmw_vd66gy.c ****   if ((gain < dgain_min_mdB + again_min_mdB)
 419:../Middlewares/stm32-mw-camera/sensors/cmw_vd66gy.c ****       || (gain > dgain_max_mdB + again_max_mdB))
 420:../Middlewares/stm32-mw-camera/sensors/cmw_vd66gy.c ****     return -1;
 421:../Middlewares/stm32-mw-camera/sensors/cmw_vd66gy.c **** 
 422:../Middlewares/stm32-mw-camera/sensors/cmw_vd66gy.c ****   if (gain <= again_max_mdB)
 423:../Middlewares/stm32-mw-camera/sensors/cmw_vd66gy.c ****   {
 424:../Middlewares/stm32-mw-camera/sensors/cmw_vd66gy.c ****     /* Use analog gain only and set digital gain to its minimum */
 425:../Middlewares/stm32-mw-camera/sensors/cmw_vd66gy.c ****     analog_linear_gain = MDECIBEL_TO_LINEAR((double)(gain - dgain_min_mdB));
 426:../Middlewares/stm32-mw-camera/sensors/cmw_vd66gy.c ****     digital_linear_gain = MDECIBEL_TO_LINEAR((double)dgain_min_mdB);
 427:../Middlewares/stm32-mw-camera/sensors/cmw_vd66gy.c ****   }
ARM GAS  /tmp/ccOQJSAL.s 			page 19


 428:../Middlewares/stm32-mw-camera/sensors/cmw_vd66gy.c ****   else
 429:../Middlewares/stm32-mw-camera/sensors/cmw_vd66gy.c ****   {
 430:../Middlewares/stm32-mw-camera/sensors/cmw_vd66gy.c ****     /* For higher gain values, add digital gain */
 431:../Middlewares/stm32-mw-camera/sensors/cmw_vd66gy.c ****     analog_linear_gain = MDECIBEL_TO_LINEAR((double)again_max_mdB);
 432:../Middlewares/stm32-mw-camera/sensors/cmw_vd66gy.c ****     digital_linear_gain = MDECIBEL_TO_LINEAR((double)(gain - again_max_mdB));
 433:../Middlewares/stm32-mw-camera/sensors/cmw_vd66gy.c ****   }
 434:../Middlewares/stm32-mw-camera/sensors/cmw_vd66gy.c **** 
 435:../Middlewares/stm32-mw-camera/sensors/cmw_vd66gy.c ****   ret = VD6G_SetAnalogGain(&((CMW_VD66GY_t *)io_ctx)->ctx_driver, (int) (32 - (32 / analog_linear_g
 436:../Middlewares/stm32-mw-camera/sensors/cmw_vd66gy.c ****   if (ret)
 437:../Middlewares/stm32-mw-camera/sensors/cmw_vd66gy.c ****     return ret;
 438:../Middlewares/stm32-mw-camera/sensors/cmw_vd66gy.c **** 
 439:../Middlewares/stm32-mw-camera/sensors/cmw_vd66gy.c ****   ret = VD6G_SetDigitalGain(&((CMW_VD66GY_t *)io_ctx)->ctx_driver, FLOAT_TO_FP58(digital_linear_gai
 440:../Middlewares/stm32-mw-camera/sensors/cmw_vd66gy.c ****   if (ret)
 441:../Middlewares/stm32-mw-camera/sensors/cmw_vd66gy.c ****     return ret;
 442:../Middlewares/stm32-mw-camera/sensors/cmw_vd66gy.c **** 
 443:../Middlewares/stm32-mw-camera/sensors/cmw_vd66gy.c ****   return 0;
 444:../Middlewares/stm32-mw-camera/sensors/cmw_vd66gy.c **** }
 445:../Middlewares/stm32-mw-camera/sensors/cmw_vd66gy.c **** 
 446:../Middlewares/stm32-mw-camera/sensors/cmw_vd66gy.c **** /**
 447:../Middlewares/stm32-mw-camera/sensors/cmw_vd66gy.c ****   * @brief  Set the exposure
 448:../Middlewares/stm32-mw-camera/sensors/cmw_vd66gy.c ****   * @param  pObj  pointer to component object
 449:../Middlewares/stm32-mw-camera/sensors/cmw_vd66gy.c ****   * @param  Exposure Exposure in micro seconds
 450:../Middlewares/stm32-mw-camera/sensors/cmw_vd66gy.c ****   * @retval Component status
 451:../Middlewares/stm32-mw-camera/sensors/cmw_vd66gy.c ****   */
 452:../Middlewares/stm32-mw-camera/sensors/cmw_vd66gy.c **** int32_t CMW_VD66GY_SetExposure(void *io_ctx, int32_t exposure)
 453:../Middlewares/stm32-mw-camera/sensors/cmw_vd66gy.c **** {
 454:../Middlewares/stm32-mw-camera/sensors/cmw_vd66gy.c ****   return VD6G_SetExposureTime(&((CMW_VD66GY_t *)io_ctx)->ctx_driver, exposure);
 455:../Middlewares/stm32-mw-camera/sensors/cmw_vd66gy.c **** }
 456:../Middlewares/stm32-mw-camera/sensors/cmw_vd66gy.c **** 
 457:../Middlewares/stm32-mw-camera/sensors/cmw_vd66gy.c **** /**
 458:../Middlewares/stm32-mw-camera/sensors/cmw_vd66gy.c ****   * @brief  Set the exposure mode
 459:../Middlewares/stm32-mw-camera/sensors/cmw_vd66gy.c ****   * @param  pObj  pointer to component object
 460:../Middlewares/stm32-mw-camera/sensors/cmw_vd66gy.c ****   * @param  Exposure Exposure mode
 461:../Middlewares/stm32-mw-camera/sensors/cmw_vd66gy.c ****   * @retval Component status
 462:../Middlewares/stm32-mw-camera/sensors/cmw_vd66gy.c ****   */
 463:../Middlewares/stm32-mw-camera/sensors/cmw_vd66gy.c **** int32_t CMW_VD66GY_SetExposureMode(void *io_ctx, int32_t mode)
 464:../Middlewares/stm32-mw-camera/sensors/cmw_vd66gy.c **** {
 465:../Middlewares/stm32-mw-camera/sensors/cmw_vd66gy.c ****   int ret = -1;
 466:../Middlewares/stm32-mw-camera/sensors/cmw_vd66gy.c **** 
 467:../Middlewares/stm32-mw-camera/sensors/cmw_vd66gy.c ****   switch (mode)
 468:../Middlewares/stm32-mw-camera/sensors/cmw_vd66gy.c ****   {
 469:../Middlewares/stm32-mw-camera/sensors/cmw_vd66gy.c ****     case CMW_EXPOSUREMODE_MANUAL:
 470:../Middlewares/stm32-mw-camera/sensors/cmw_vd66gy.c ****       ret = VD6G_SetExposureMode(&((CMW_VD66GY_t *)io_ctx)->ctx_driver, VD6G_EXPOSURE_MANUAL);
 471:../Middlewares/stm32-mw-camera/sensors/cmw_vd66gy.c ****       break;
 472:../Middlewares/stm32-mw-camera/sensors/cmw_vd66gy.c ****     case CMW_EXPOSUREMODE_AUTOFREEZE:
 473:../Middlewares/stm32-mw-camera/sensors/cmw_vd66gy.c ****       ret = VD6G_SetExposureMode(&((CMW_VD66GY_t *)io_ctx)->ctx_driver, VD6G_EXPOSURE_FREEZE_AEALGO
 474:../Middlewares/stm32-mw-camera/sensors/cmw_vd66gy.c ****       break;
 475:../Middlewares/stm32-mw-camera/sensors/cmw_vd66gy.c ****     case CMW_EXPOSUREMODE_AUTO:
 476:../Middlewares/stm32-mw-camera/sensors/cmw_vd66gy.c ****     default:
 477:../Middlewares/stm32-mw-camera/sensors/cmw_vd66gy.c ****       ret = VD6G_SetExposureMode(&((CMW_VD66GY_t *)io_ctx)->ctx_driver, VD6G_EXPOSURE_AUTO);
 478:../Middlewares/stm32-mw-camera/sensors/cmw_vd66gy.c ****       break;
 479:../Middlewares/stm32-mw-camera/sensors/cmw_vd66gy.c ****   }
 480:../Middlewares/stm32-mw-camera/sensors/cmw_vd66gy.c **** 
 481:../Middlewares/stm32-mw-camera/sensors/cmw_vd66gy.c ****   return (ret == 0) ? CMW_ERROR_NONE : CMW_ERROR_UNKNOWN_FAILURE;
 482:../Middlewares/stm32-mw-camera/sensors/cmw_vd66gy.c **** }
 483:../Middlewares/stm32-mw-camera/sensors/cmw_vd66gy.c **** 
 484:../Middlewares/stm32-mw-camera/sensors/cmw_vd66gy.c **** /**
ARM GAS  /tmp/ccOQJSAL.s 			page 20


 485:../Middlewares/stm32-mw-camera/sensors/cmw_vd66gy.c ****   * @brief  Set the sensor white balance mode
 486:../Middlewares/stm32-mw-camera/sensors/cmw_vd66gy.c ****   * @param  io_ctx  pointer to component object
 487:../Middlewares/stm32-mw-camera/sensors/cmw_vd66gy.c ****   * @param  Automatic automatic mode enable/disable
 488:../Middlewares/stm32-mw-camera/sensors/cmw_vd66gy.c ****   * @param  RefColorTemp color temperature if automatic mode is disabled
 489:../Middlewares/stm32-mw-camera/sensors/cmw_vd66gy.c ****   * @retval Component status
 490:../Middlewares/stm32-mw-camera/sensors/cmw_vd66gy.c ****   */
 491:../Middlewares/stm32-mw-camera/sensors/cmw_vd66gy.c **** int32_t CMW_VD66GY_SetWBRefMode(void *io_ctx, uint8_t Automatic, uint32_t RefColorTemp)
 492:../Middlewares/stm32-mw-camera/sensors/cmw_vd66gy.c **** {
 493:../Middlewares/stm32-mw-camera/sensors/cmw_vd66gy.c ****   int ret = CMW_ERROR_NONE;
 494:../Middlewares/stm32-mw-camera/sensors/cmw_vd66gy.c **** 
 495:../Middlewares/stm32-mw-camera/sensors/cmw_vd66gy.c ****   ret = ISP_SetWBRefMode(&((CMW_VD66GY_t *)io_ctx)->hIsp, Automatic, RefColorTemp);
 496:../Middlewares/stm32-mw-camera/sensors/cmw_vd66gy.c ****   if (ret)
 497:../Middlewares/stm32-mw-camera/sensors/cmw_vd66gy.c ****   {
 498:../Middlewares/stm32-mw-camera/sensors/cmw_vd66gy.c ****     return CMW_ERROR_PERIPH_FAILURE;
 499:../Middlewares/stm32-mw-camera/sensors/cmw_vd66gy.c ****   }
 500:../Middlewares/stm32-mw-camera/sensors/cmw_vd66gy.c **** 
 501:../Middlewares/stm32-mw-camera/sensors/cmw_vd66gy.c ****   return CMW_ERROR_NONE;
 502:../Middlewares/stm32-mw-camera/sensors/cmw_vd66gy.c **** }
 503:../Middlewares/stm32-mw-camera/sensors/cmw_vd66gy.c **** 
 504:../Middlewares/stm32-mw-camera/sensors/cmw_vd66gy.c **** /**
 505:../Middlewares/stm32-mw-camera/sensors/cmw_vd66gy.c ****   * @brief  List the sensor white balance modes
 506:../Middlewares/stm32-mw-camera/sensors/cmw_vd66gy.c ****   * @param  io_ctx  pointer to component object
 507:../Middlewares/stm32-mw-camera/sensors/cmw_vd66gy.c ****   * @param  RefColorTemp color temperature list
 508:../Middlewares/stm32-mw-camera/sensors/cmw_vd66gy.c ****   * @retval Component status
 509:../Middlewares/stm32-mw-camera/sensors/cmw_vd66gy.c ****   */
 510:../Middlewares/stm32-mw-camera/sensors/cmw_vd66gy.c **** int32_t CMW_VD66GY_ListWBRefModes(void *io_ctx, uint32_t RefColorTemp[])
 511:../Middlewares/stm32-mw-camera/sensors/cmw_vd66gy.c **** {
 512:../Middlewares/stm32-mw-camera/sensors/cmw_vd66gy.c ****   int ret = CMW_ERROR_NONE;
 513:../Middlewares/stm32-mw-camera/sensors/cmw_vd66gy.c **** 
 514:../Middlewares/stm32-mw-camera/sensors/cmw_vd66gy.c ****   ret = ISP_ListWBRefModes(&((CMW_VD66GY_t *)io_ctx)->hIsp, RefColorTemp);
 515:../Middlewares/stm32-mw-camera/sensors/cmw_vd66gy.c ****   if (ret)
 516:../Middlewares/stm32-mw-camera/sensors/cmw_vd66gy.c ****   {
 517:../Middlewares/stm32-mw-camera/sensors/cmw_vd66gy.c ****     return CMW_ERROR_PERIPH_FAILURE;
 518:../Middlewares/stm32-mw-camera/sensors/cmw_vd66gy.c ****   }
 519:../Middlewares/stm32-mw-camera/sensors/cmw_vd66gy.c **** 
 520:../Middlewares/stm32-mw-camera/sensors/cmw_vd66gy.c ****   return CMW_ERROR_NONE;
 521:../Middlewares/stm32-mw-camera/sensors/cmw_vd66gy.c **** }
 522:../Middlewares/stm32-mw-camera/sensors/cmw_vd66gy.c **** 
 523:../Middlewares/stm32-mw-camera/sensors/cmw_vd66gy.c **** /**
 524:../Middlewares/stm32-mw-camera/sensors/cmw_vd66gy.c ****   * @brief  Get the sensor info
 525:../Middlewares/stm32-mw-camera/sensors/cmw_vd66gy.c ****   * @param  pObj  pointer to component object
 526:../Middlewares/stm32-mw-camera/sensors/cmw_vd66gy.c ****   * @param  pInfo pointer to sensor info structure
 527:../Middlewares/stm32-mw-camera/sensors/cmw_vd66gy.c ****   * @retval Component status
 528:../Middlewares/stm32-mw-camera/sensors/cmw_vd66gy.c ****   */
 529:../Middlewares/stm32-mw-camera/sensors/cmw_vd66gy.c **** int32_t CMW_VD66GY_GetSensorInfo(void *io_ctx, ISP_SensorInfoTypeDef *info)
 530:../Middlewares/stm32-mw-camera/sensors/cmw_vd66gy.c **** {
 531:../Middlewares/stm32-mw-camera/sensors/cmw_vd66gy.c ****   uint8_t again_regmin, again_regmax;
 532:../Middlewares/stm32-mw-camera/sensors/cmw_vd66gy.c ****   uint16_t dgain_regmin, dgain_regmax;
 533:../Middlewares/stm32-mw-camera/sensors/cmw_vd66gy.c ****   uint32_t again_min_mdB, again_max_mdB;
 534:../Middlewares/stm32-mw-camera/sensors/cmw_vd66gy.c ****   uint32_t dgain_min_mdB, dgain_max_mdB;
 535:../Middlewares/stm32-mw-camera/sensors/cmw_vd66gy.c **** 
 536:../Middlewares/stm32-mw-camera/sensors/cmw_vd66gy.c ****   int ret;
 537:../Middlewares/stm32-mw-camera/sensors/cmw_vd66gy.c **** 
 538:../Middlewares/stm32-mw-camera/sensors/cmw_vd66gy.c ****   if ((!io_ctx) || (info == NULL))
 539:../Middlewares/stm32-mw-camera/sensors/cmw_vd66gy.c ****     return CMW_ERROR_WRONG_PARAM;
 540:../Middlewares/stm32-mw-camera/sensors/cmw_vd66gy.c **** 
 541:../Middlewares/stm32-mw-camera/sensors/cmw_vd66gy.c ****   /* Get sensor name */
ARM GAS  /tmp/ccOQJSAL.s 			page 21


 542:../Middlewares/stm32-mw-camera/sensors/cmw_vd66gy.c ****   if (sizeof(info->name) >= strlen(VD66GY_NAME) + 1)
 543:../Middlewares/stm32-mw-camera/sensors/cmw_vd66gy.c ****   {
 544:../Middlewares/stm32-mw-camera/sensors/cmw_vd66gy.c ****     strcpy(info->name, VD66GY_NAME);
 545:../Middlewares/stm32-mw-camera/sensors/cmw_vd66gy.c ****   }
 546:../Middlewares/stm32-mw-camera/sensors/cmw_vd66gy.c ****   else
 547:../Middlewares/stm32-mw-camera/sensors/cmw_vd66gy.c ****   {
 548:../Middlewares/stm32-mw-camera/sensors/cmw_vd66gy.c ****     return CMW_ERROR_WRONG_PARAM;
 549:../Middlewares/stm32-mw-camera/sensors/cmw_vd66gy.c ****   }
 550:../Middlewares/stm32-mw-camera/sensors/cmw_vd66gy.c **** 
 551:../Middlewares/stm32-mw-camera/sensors/cmw_vd66gy.c ****   /* Get isp bayer pattern info */
 552:../Middlewares/stm32-mw-camera/sensors/cmw_vd66gy.c ****   info->bayer_pattern = ((CMW_VD66GY_t *)io_ctx)->ctx_driver.bayer - 1;
 553:../Middlewares/stm32-mw-camera/sensors/cmw_vd66gy.c **** 
 554:../Middlewares/stm32-mw-camera/sensors/cmw_vd66gy.c ****   /* Color depth derives from the current driver configuration */
 555:../Middlewares/stm32-mw-camera/sensors/cmw_vd66gy.c ****   info->color_depth = ((CMW_VD66GY_t *)io_ctx)->ctx_driver.ctx.config_save.pixel_depth;
 556:../Middlewares/stm32-mw-camera/sensors/cmw_vd66gy.c **** 
 557:../Middlewares/stm32-mw-camera/sensors/cmw_vd66gy.c ****   /* Get resolution info */
 558:../Middlewares/stm32-mw-camera/sensors/cmw_vd66gy.c ****   info->width = VD6G_MAX_WIDTH;
 559:../Middlewares/stm32-mw-camera/sensors/cmw_vd66gy.c ****   info->height = VD6G_MAX_HEIGHT;
 560:../Middlewares/stm32-mw-camera/sensors/cmw_vd66gy.c **** 
 561:../Middlewares/stm32-mw-camera/sensors/cmw_vd66gy.c ****   /* Get gain range */
 562:../Middlewares/stm32-mw-camera/sensors/cmw_vd66gy.c ****   ret = VD6G_GetAnalogGainRegRange(&((CMW_VD66GY_t *)io_ctx)->ctx_driver, &again_regmin, &again_reg
 563:../Middlewares/stm32-mw-camera/sensors/cmw_vd66gy.c ****   if (ret)
 564:../Middlewares/stm32-mw-camera/sensors/cmw_vd66gy.c ****     return ret;
 565:../Middlewares/stm32-mw-camera/sensors/cmw_vd66gy.c **** 
 566:../Middlewares/stm32-mw-camera/sensors/cmw_vd66gy.c ****   ret = VD6G_GetDigitalGainRegRange(&((CMW_VD66GY_t *)io_ctx)->ctx_driver, &dgain_regmin, &dgain_re
 567:../Middlewares/stm32-mw-camera/sensors/cmw_vd66gy.c ****   if (ret)
 568:../Middlewares/stm32-mw-camera/sensors/cmw_vd66gy.c ****     return ret;
 569:../Middlewares/stm32-mw-camera/sensors/cmw_vd66gy.c **** 
 570:../Middlewares/stm32-mw-camera/sensors/cmw_vd66gy.c ****   again_min_mdB = (uint32_t) LINEAR_TO_MDECIBEL(32 / (32 - again_regmin));
 571:../Middlewares/stm32-mw-camera/sensors/cmw_vd66gy.c ****   again_max_mdB = (uint32_t) LINEAR_TO_MDECIBEL(32 / (32 - again_regmax));
 572:../Middlewares/stm32-mw-camera/sensors/cmw_vd66gy.c ****   dgain_min_mdB = (uint32_t) LINEAR_TO_MDECIBEL(FP58_TO_FLOAT(dgain_regmin));
 573:../Middlewares/stm32-mw-camera/sensors/cmw_vd66gy.c ****   dgain_max_mdB = (uint32_t) LINEAR_TO_MDECIBEL(FP58_TO_FLOAT(dgain_regmax));
 574:../Middlewares/stm32-mw-camera/sensors/cmw_vd66gy.c **** 
 575:../Middlewares/stm32-mw-camera/sensors/cmw_vd66gy.c ****   info->gain_min = again_min_mdB + dgain_min_mdB;
 576:../Middlewares/stm32-mw-camera/sensors/cmw_vd66gy.c ****   info->gain_max = again_max_mdB + dgain_max_mdB;
 577:../Middlewares/stm32-mw-camera/sensors/cmw_vd66gy.c ****   info->again_max = again_max_mdB;
 578:../Middlewares/stm32-mw-camera/sensors/cmw_vd66gy.c **** 
 579:../Middlewares/stm32-mw-camera/sensors/cmw_vd66gy.c ****   /* Get exposure range */
 580:../Middlewares/stm32-mw-camera/sensors/cmw_vd66gy.c ****   ret = VD6G_GetExposureRegRange(&((CMW_VD66GY_t *)io_ctx)->ctx_driver, &info->exposure_min, &info-
 581:../Middlewares/stm32-mw-camera/sensors/cmw_vd66gy.c ****   if (ret)
 582:../Middlewares/stm32-mw-camera/sensors/cmw_vd66gy.c ****     return ret;
 583:../Middlewares/stm32-mw-camera/sensors/cmw_vd66gy.c **** 
 584:../Middlewares/stm32-mw-camera/sensors/cmw_vd66gy.c ****   return CMW_ERROR_NONE;
 585:../Middlewares/stm32-mw-camera/sensors/cmw_vd66gy.c **** }
 586:../Middlewares/stm32-mw-camera/sensors/cmw_vd66gy.c **** 
 587:../Middlewares/stm32-mw-camera/sensors/cmw_vd66gy.c **** static void CMW_VD66GY_VsyncEventCallback(void *io_ctx, uint32_t pipe)
 588:../Middlewares/stm32-mw-camera/sensors/cmw_vd66gy.c **** {
 589:../Middlewares/stm32-mw-camera/sensors/cmw_vd66gy.c **** #ifndef ISP_MW_TUNING_TOOL_SUPPORT
 590:../Middlewares/stm32-mw-camera/sensors/cmw_vd66gy.c ****   /* Update the ISP frame counter and call its statistics handler */
 591:../Middlewares/stm32-mw-camera/sensors/cmw_vd66gy.c ****   switch (pipe)
 592:../Middlewares/stm32-mw-camera/sensors/cmw_vd66gy.c ****   {
 593:../Middlewares/stm32-mw-camera/sensors/cmw_vd66gy.c ****     case DCMIPP_PIPE0 :
 594:../Middlewares/stm32-mw-camera/sensors/cmw_vd66gy.c ****       ISP_IncDumpFrameId(&((CMW_VD66GY_t *)io_ctx)->hIsp);
 595:../Middlewares/stm32-mw-camera/sensors/cmw_vd66gy.c ****       break;
 596:../Middlewares/stm32-mw-camera/sensors/cmw_vd66gy.c ****     case DCMIPP_PIPE1 :
 597:../Middlewares/stm32-mw-camera/sensors/cmw_vd66gy.c ****       ISP_IncMainFrameId(&((CMW_VD66GY_t *)io_ctx)->hIsp);
 598:../Middlewares/stm32-mw-camera/sensors/cmw_vd66gy.c ****       ISP_GatherStatistics(&((CMW_VD66GY_t *)io_ctx)->hIsp);
ARM GAS  /tmp/ccOQJSAL.s 			page 22


 599:../Middlewares/stm32-mw-camera/sensors/cmw_vd66gy.c ****       break;
 600:../Middlewares/stm32-mw-camera/sensors/cmw_vd66gy.c ****     case DCMIPP_PIPE2 :
 601:../Middlewares/stm32-mw-camera/sensors/cmw_vd66gy.c ****       ISP_IncAncillaryFrameId(&((CMW_VD66GY_t *)io_ctx)->hIsp);
 602:../Middlewares/stm32-mw-camera/sensors/cmw_vd66gy.c ****       break;
 603:../Middlewares/stm32-mw-camera/sensors/cmw_vd66gy.c ****   }
 604:../Middlewares/stm32-mw-camera/sensors/cmw_vd66gy.c **** #endif
 605:../Middlewares/stm32-mw-camera/sensors/cmw_vd66gy.c **** }
 606:../Middlewares/stm32-mw-camera/sensors/cmw_vd66gy.c **** 
 607:../Middlewares/stm32-mw-camera/sensors/cmw_vd66gy.c **** static void CMW_VD66GY_FrameEventCallback(void *io_ctx, uint32_t pipe)
 608:../Middlewares/stm32-mw-camera/sensors/cmw_vd66gy.c **** {
 555              		.loc 1 608 1 view -0
 556              		.cfi_startproc
 557              		@ args = 0, pretend = 0, frame = 0
 558              		@ frame_needed = 0, uses_anonymous_args = 0
 559              		@ link register save eliminated.
 609:../Middlewares/stm32-mw-camera/sensors/cmw_vd66gy.c **** }
 560              		.loc 1 609 1 view .LVU133
 561 0000 7047     		bx	lr
 562              		.cfi_endproc
 563              	.LFE1503:
 565              		.section	.text.CMW_VD66GY_SetGain,"ax",%progbits
 566              		.align	1
 567              		.global	CMW_VD66GY_SetGain
 568              		.syntax unified
 569              		.thumb
 570              		.thumb_func
 572              	CMW_VD66GY_SetGain:
 573              	.LVL48:
 574              	.LFB1496:
 397:../Middlewares/stm32-mw-camera/sensors/cmw_vd66gy.c ****   int32_t ret;
 575              		.loc 1 397 1 view -0
 576              		.cfi_startproc
 577              		@ args = 0, pretend = 0, frame = 16
 578              		@ frame_needed = 0, uses_anonymous_args = 0
 398:../Middlewares/stm32-mw-camera/sensors/cmw_vd66gy.c ****   uint8_t again_regmin, again_regmax;
 579              		.loc 1 398 3 view .LVU135
 399:../Middlewares/stm32-mw-camera/sensors/cmw_vd66gy.c ****   uint16_t dgain_regmin, dgain_regmax;
 580              		.loc 1 399 3 view .LVU136
 400:../Middlewares/stm32-mw-camera/sensors/cmw_vd66gy.c ****   uint32_t again_min_mdB, again_max_mdB;
 581              		.loc 1 400 3 view .LVU137
 401:../Middlewares/stm32-mw-camera/sensors/cmw_vd66gy.c ****   uint32_t dgain_min_mdB, dgain_max_mdB;
 582              		.loc 1 401 3 view .LVU138
 402:../Middlewares/stm32-mw-camera/sensors/cmw_vd66gy.c ****   double analog_linear_gain, digital_linear_gain;
 583              		.loc 1 402 3 view .LVU139
 403:../Middlewares/stm32-mw-camera/sensors/cmw_vd66gy.c **** 
 584              		.loc 1 403 3 view .LVU140
 405:../Middlewares/stm32-mw-camera/sensors/cmw_vd66gy.c ****   if (ret)
 585              		.loc 1 405 3 view .LVU141
 397:../Middlewares/stm32-mw-camera/sensors/cmw_vd66gy.c ****   int32_t ret;
 586              		.loc 1 397 1 is_stmt 0 view .LVU142
 587 0000 F0B5     		push	{r4, r5, r6, r7, lr}
 588              		.cfi_def_cfa_offset 20
 589              		.cfi_offset 4, -20
 590              		.cfi_offset 5, -16
 591              		.cfi_offset 6, -12
 592              		.cfi_offset 7, -8
 593              		.cfi_offset 14, -4
ARM GAS  /tmp/ccOQJSAL.s 			page 23


 594 0002 2DED088B 		vpush.64	{d8, d9, d10, d11}
 595              		.cfi_def_cfa_offset 52
 596              		.cfi_offset 80, -52
 597              		.cfi_offset 81, -48
 598              		.cfi_offset 82, -44
 599              		.cfi_offset 83, -40
 600              		.cfi_offset 84, -36
 601              		.cfi_offset 85, -32
 602              		.cfi_offset 86, -28
 603              		.cfi_offset 87, -24
 405:../Middlewares/stm32-mw-camera/sensors/cmw_vd66gy.c ****   if (ret)
 604              		.loc 1 405 9 view .LVU143
 605 0006 061D     		adds	r6, r0, #4
 397:../Middlewares/stm32-mw-camera/sensors/cmw_vd66gy.c ****   int32_t ret;
 606              		.loc 1 397 1 view .LVU144
 607 0008 85B0     		sub	sp, sp, #20
 608              		.cfi_def_cfa_offset 72
 397:../Middlewares/stm32-mw-camera/sensors/cmw_vd66gy.c ****   int32_t ret;
 609              		.loc 1 397 1 view .LVU145
 610 000a 0D46     		mov	r5, r1
 405:../Middlewares/stm32-mw-camera/sensors/cmw_vd66gy.c ****   if (ret)
 611              		.loc 1 405 9 view .LVU146
 612 000c 3046     		mov	r0, r6
 613              	.LVL49:
 405:../Middlewares/stm32-mw-camera/sensors/cmw_vd66gy.c ****   if (ret)
 614              		.loc 1 405 9 view .LVU147
 615 000e 0DF10B02 		add	r2, sp, #11
 616 0012 0DF10A01 		add	r1, sp, #10
 617              	.LVL50:
 405:../Middlewares/stm32-mw-camera/sensors/cmw_vd66gy.c ****   if (ret)
 618              		.loc 1 405 9 view .LVU148
 619 0016 FFF7FEFF 		bl	VD6G_GetAnalogGainRegRange
 620              	.LVL51:
 406:../Middlewares/stm32-mw-camera/sensors/cmw_vd66gy.c ****     return ret;
 621              		.loc 1 406 3 is_stmt 1 view .LVU149
 406:../Middlewares/stm32-mw-camera/sensors/cmw_vd66gy.c ****     return ret;
 622              		.loc 1 406 6 is_stmt 0 view .LVU150
 623 001a 0028     		cmp	r0, #0
 624 001c 40F0BC80 		bne	.L18
 409:../Middlewares/stm32-mw-camera/sensors/cmw_vd66gy.c ****   if (ret)
 625              		.loc 1 409 3 is_stmt 1 view .LVU151
 409:../Middlewares/stm32-mw-camera/sensors/cmw_vd66gy.c ****   if (ret)
 626              		.loc 1 409 9 is_stmt 0 view .LVU152
 627 0020 3046     		mov	r0, r6
 628              	.LVL52:
 409:../Middlewares/stm32-mw-camera/sensors/cmw_vd66gy.c ****   if (ret)
 629              		.loc 1 409 9 view .LVU153
 630 0022 0DF10E02 		add	r2, sp, #14
 631 0026 03A9     		add	r1, sp, #12
 632 0028 FFF7FEFF 		bl	VD6G_GetDigitalGainRegRange
 633              	.LVL53:
 410:../Middlewares/stm32-mw-camera/sensors/cmw_vd66gy.c ****     return ret;
 634              		.loc 1 410 3 is_stmt 1 view .LVU154
 410:../Middlewares/stm32-mw-camera/sensors/cmw_vd66gy.c ****     return ret;
 635              		.loc 1 410 6 is_stmt 0 view .LVU155
 636 002c 0028     		cmp	r0, #0
 637 002e 40F0B380 		bne	.L18
ARM GAS  /tmp/ccOQJSAL.s 			page 24


 413:../Middlewares/stm32-mw-camera/sensors/cmw_vd66gy.c ****   again_max_mdB = (uint32_t) LINEAR_TO_MDECIBEL(32 / (32 - again_regmax));
 638              		.loc 1 413 3 is_stmt 1 view .LVU156
 413:../Middlewares/stm32-mw-camera/sensors/cmw_vd66gy.c ****   again_max_mdB = (uint32_t) LINEAR_TO_MDECIBEL(32 / (32 - again_regmax));
 639              		.loc 1 413 30 is_stmt 0 view .LVU157
 640 0032 2024     		movs	r4, #32
 641 0034 9DF80A30 		ldrb	r3, [sp, #10]	@ zero_extendqisi2
 414:../Middlewares/stm32-mw-camera/sensors/cmw_vd66gy.c ****   dgain_min_mdB = (uint32_t) LINEAR_TO_MDECIBEL(FP58_TO_FLOAT(dgain_regmin));
 642              		.loc 1 414 30 discriminator 1 view .LVU158
 643 0038 B3EE04AB 		vmov.f64	d10, #2.0e+1
 413:../Middlewares/stm32-mw-camera/sensors/cmw_vd66gy.c ****   again_max_mdB = (uint32_t) LINEAR_TO_MDECIBEL(32 / (32 - again_regmax));
 644              		.loc 1 413 30 view .LVU159
 645 003c C3F12003 		rsb	r3, r3, #32
 646 0040 94FBF3F3 		sdiv	r3, r4, r3
 647 0044 00EE103A 		vmov	s0, r3	@ int
 648 0048 B8EEC00B 		vcvt.f64.s32	d0, s0
 649 004c FFF7FEFF 		bl	log10
 650              	.LVL54:
 414:../Middlewares/stm32-mw-camera/sensors/cmw_vd66gy.c ****   dgain_min_mdB = (uint32_t) LINEAR_TO_MDECIBEL(FP58_TO_FLOAT(dgain_regmin));
 651              		.loc 1 414 30 view .LVU160
 652 0050 9DF80B30 		ldrb	r3, [sp, #11]	@ zero_extendqisi2
 413:../Middlewares/stm32-mw-camera/sensors/cmw_vd66gy.c ****   again_max_mdB = (uint32_t) LINEAR_TO_MDECIBEL(32 / (32 - again_regmax));
 653              		.loc 1 413 30 view .LVU161
 654 0054 B0EE408B 		vmov.f64	d8, d0
 655              	.LVL55:
 414:../Middlewares/stm32-mw-camera/sensors/cmw_vd66gy.c ****   dgain_min_mdB = (uint32_t) LINEAR_TO_MDECIBEL(FP58_TO_FLOAT(dgain_regmin));
 656              		.loc 1 414 3 is_stmt 1 view .LVU162
 414:../Middlewares/stm32-mw-camera/sensors/cmw_vd66gy.c ****   dgain_min_mdB = (uint32_t) LINEAR_TO_MDECIBEL(FP58_TO_FLOAT(dgain_regmin));
 657              		.loc 1 414 30 is_stmt 0 view .LVU163
 658 0058 E31A     		subs	r3, r4, r3
 659 005a 94FBF3F3 		sdiv	r3, r4, r3
 660 005e 00EE103A 		vmov	s0, r3	@ int
 661              	.LVL56:
 414:../Middlewares/stm32-mw-camera/sensors/cmw_vd66gy.c ****   dgain_min_mdB = (uint32_t) LINEAR_TO_MDECIBEL(FP58_TO_FLOAT(dgain_regmin));
 662              		.loc 1 414 30 view .LVU164
 663 0062 B8EEC00B 		vcvt.f64.s32	d0, s0
 664 0066 FFF7FEFF 		bl	log10
 665              	.LVL57:
 414:../Middlewares/stm32-mw-camera/sensors/cmw_vd66gy.c ****   dgain_min_mdB = (uint32_t) LINEAR_TO_MDECIBEL(FP58_TO_FLOAT(dgain_regmin));
 666              		.loc 1 414 30 discriminator 1 view .LVU165
 667 006a 9FED59BB 		vldr.64	d11, .L25
 668 006e 20EE0A0B 		vmul.f64	d0, d0, d10
 669 0072 20EE0B0B 		vmul.f64	d0, d0, d11
 414:../Middlewares/stm32-mw-camera/sensors/cmw_vd66gy.c ****   dgain_min_mdB = (uint32_t) LINEAR_TO_MDECIBEL(FP58_TO_FLOAT(dgain_regmin));
 670              		.loc 1 414 17 discriminator 1 view .LVU166
 671 0076 FCEEC07B 		vcvt.u32.f64	s15, d0
 415:../Middlewares/stm32-mw-camera/sensors/cmw_vd66gy.c ****   dgain_max_mdB = (uint32_t) LINEAR_TO_MDECIBEL(FP58_TO_FLOAT(dgain_regmax));
 672              		.loc 1 415 30 view .LVU167
 673 007a BDF80C30 		ldrh	r3, [sp, #12]
 674 007e 9DF80C20 		ldrb	r2, [sp, #12]	@ zero_extendqisi2
 675 0082 1B0A     		lsrs	r3, r3, #8
 676 0084 00EE103A 		vmov	s0, r3	@ int
 414:../Middlewares/stm32-mw-camera/sensors/cmw_vd66gy.c ****   dgain_min_mdB = (uint32_t) LINEAR_TO_MDECIBEL(FP58_TO_FLOAT(dgain_regmin));
 677              		.loc 1 414 17 discriminator 1 view .LVU168
 678 0088 17EE907A 		vmov	r7, s15	@ int
 679              	.LVL58:
 415:../Middlewares/stm32-mw-camera/sensors/cmw_vd66gy.c ****   dgain_max_mdB = (uint32_t) LINEAR_TO_MDECIBEL(FP58_TO_FLOAT(dgain_regmax));
 680              		.loc 1 415 3 is_stmt 1 view .LVU169
ARM GAS  /tmp/ccOQJSAL.s 			page 25


 415:../Middlewares/stm32-mw-camera/sensors/cmw_vd66gy.c ****   dgain_max_mdB = (uint32_t) LINEAR_TO_MDECIBEL(FP58_TO_FLOAT(dgain_regmax));
 681              		.loc 1 415 30 is_stmt 0 view .LVU170
 682 008c 07EE902A 		vmov	s15, r2	@ int
 683 0090 9FED559A 		vldr.32	s18, .L25+24
 684 0094 F8EEE77A 		vcvt.f32.s32	s15, s15
 685 0098 B8EEC00A 		vcvt.f32.s32	s0, s0
 686 009c A7EE890A 		vfma.f32	s0, s15, s18
 687 00a0 B7EEC00A 		vcvt.f64.f32	d0, s0
 688 00a4 FFF7FEFF 		bl	log10
 689              	.LVL59:
 415:../Middlewares/stm32-mw-camera/sensors/cmw_vd66gy.c ****   dgain_max_mdB = (uint32_t) LINEAR_TO_MDECIBEL(FP58_TO_FLOAT(dgain_regmax));
 690              		.loc 1 415 30 discriminator 1 view .LVU171
 691 00a8 20EE0A0B 		vmul.f64	d0, d0, d10
 692 00ac 20EE0B0B 		vmul.f64	d0, d0, d11
 415:../Middlewares/stm32-mw-camera/sensors/cmw_vd66gy.c ****   dgain_max_mdB = (uint32_t) LINEAR_TO_MDECIBEL(FP58_TO_FLOAT(dgain_regmax));
 693              		.loc 1 415 17 discriminator 1 view .LVU172
 694 00b0 FCEEC07B 		vcvt.u32.f64	s15, d0
 416:../Middlewares/stm32-mw-camera/sensors/cmw_vd66gy.c **** 
 695              		.loc 1 416 30 view .LVU173
 696 00b4 BDF80E30 		ldrh	r3, [sp, #14]
 697 00b8 9DF80E20 		ldrb	r2, [sp, #14]	@ zero_extendqisi2
 698 00bc 1B0A     		lsrs	r3, r3, #8
 699 00be 00EE103A 		vmov	s0, r3	@ int
 415:../Middlewares/stm32-mw-camera/sensors/cmw_vd66gy.c ****   dgain_max_mdB = (uint32_t) LINEAR_TO_MDECIBEL(FP58_TO_FLOAT(dgain_regmax));
 700              		.loc 1 415 17 discriminator 1 view .LVU174
 701 00c2 17EE904A 		vmov	r4, s15	@ int
 702              	.LVL60:
 416:../Middlewares/stm32-mw-camera/sensors/cmw_vd66gy.c **** 
 703              		.loc 1 416 3 is_stmt 1 view .LVU175
 416:../Middlewares/stm32-mw-camera/sensors/cmw_vd66gy.c **** 
 704              		.loc 1 416 30 is_stmt 0 view .LVU176
 705 00c6 07EE902A 		vmov	s15, r2	@ int
 706 00ca B8EEC00A 		vcvt.f32.s32	s0, s0
 707 00ce F8EEE77A 		vcvt.f32.s32	s15, s15
 708 00d2 A7EE890A 		vfma.f32	s0, s15, s18
 709 00d6 B7EEC00A 		vcvt.f64.f32	d0, s0
 710 00da FFF7FEFF 		bl	log10
 711              	.LVL61:
 413:../Middlewares/stm32-mw-camera/sensors/cmw_vd66gy.c ****   again_max_mdB = (uint32_t) LINEAR_TO_MDECIBEL(32 / (32 - again_regmax));
 712              		.loc 1 413 30 discriminator 1 view .LVU177
 713 00de 28EE0A8B 		vmul.f64	d8, d8, d10
 714              	.LVL62:
 413:../Middlewares/stm32-mw-camera/sensors/cmw_vd66gy.c ****   again_max_mdB = (uint32_t) LINEAR_TO_MDECIBEL(32 / (32 - again_regmax));
 715              		.loc 1 413 30 discriminator 1 view .LVU178
 716 00e2 28EE0B8B 		vmul.f64	d8, d8, d11
 413:../Middlewares/stm32-mw-camera/sensors/cmw_vd66gy.c ****   again_max_mdB = (uint32_t) LINEAR_TO_MDECIBEL(32 / (32 - again_regmax));
 717              		.loc 1 413 17 discriminator 1 view .LVU179
 718 00e6 BCEEC88B 		vcvt.u32.f64	s16, d8
 416:../Middlewares/stm32-mw-camera/sensors/cmw_vd66gy.c **** 
 719              		.loc 1 416 30 discriminator 1 view .LVU180
 720 00ea 20EE0A0B 		vmul.f64	d0, d0, d10
 418:../Middlewares/stm32-mw-camera/sensors/cmw_vd66gy.c ****       || (gain > dgain_max_mdB + again_max_mdB))
 721              		.loc 1 418 29 view .LVU181
 722 00ee 18EE103A 		vmov	r3, s16	@ int
 416:../Middlewares/stm32-mw-camera/sensors/cmw_vd66gy.c **** 
 723              		.loc 1 416 30 discriminator 1 view .LVU182
 724 00f2 20EE0B0B 		vmul.f64	d0, d0, d11
ARM GAS  /tmp/ccOQJSAL.s 			page 26


 418:../Middlewares/stm32-mw-camera/sensors/cmw_vd66gy.c ****       || (gain > dgain_max_mdB + again_max_mdB))
 725              		.loc 1 418 29 view .LVU183
 726 00f6 2344     		add	r3, r3, r4
 418:../Middlewares/stm32-mw-camera/sensors/cmw_vd66gy.c ****       || (gain > dgain_max_mdB + again_max_mdB))
 727              		.loc 1 418 6 view .LVU184
 728 00f8 AB42     		cmp	r3, r5
 416:../Middlewares/stm32-mw-camera/sensors/cmw_vd66gy.c **** 
 729              		.loc 1 416 17 discriminator 1 view .LVU185
 730 00fa BCEEC00B 		vcvt.u32.f64	s0, d0
 731              	.LVL63:
 418:../Middlewares/stm32-mw-camera/sensors/cmw_vd66gy.c ****       || (gain > dgain_max_mdB + again_max_mdB))
 732              		.loc 1 418 3 is_stmt 1 view .LVU186
 418:../Middlewares/stm32-mw-camera/sensors/cmw_vd66gy.c ****       || (gain > dgain_max_mdB + again_max_mdB))
 733              		.loc 1 418 6 is_stmt 0 view .LVU187
 734 00fe 61D8     		bhi	.L23
 419:../Middlewares/stm32-mw-camera/sensors/cmw_vd66gy.c ****     return -1;
 735              		.loc 1 419 32 view .LVU188
 736 0100 10EE103A 		vmov	r3, s0	@ int
 737 0104 3B44     		add	r3, r3, r7
 419:../Middlewares/stm32-mw-camera/sensors/cmw_vd66gy.c ****     return -1;
 738              		.loc 1 419 7 view .LVU189
 739 0106 9D42     		cmp	r5, r3
 740 0108 5CD8     		bhi	.L23
 422:../Middlewares/stm32-mw-camera/sensors/cmw_vd66gy.c ****   {
 741              		.loc 1 422 3 is_stmt 1 view .LVU190
 422:../Middlewares/stm32-mw-camera/sensors/cmw_vd66gy.c ****   {
 742              		.loc 1 422 6 is_stmt 0 view .LVU191
 743 010a BD42     		cmp	r5, r7
 744 010c 48D8     		bhi	.L20
 425:../Middlewares/stm32-mw-camera/sensors/cmw_vd66gy.c ****     digital_linear_gain = MDECIBEL_TO_LINEAR((double)dgain_min_mdB);
 745              		.loc 1 425 5 is_stmt 1 view .LVU192
 425:../Middlewares/stm32-mw-camera/sensors/cmw_vd66gy.c ****     digital_linear_gain = MDECIBEL_TO_LINEAR((double)dgain_min_mdB);
 746              		.loc 1 425 26 is_stmt 0 view .LVU193
 747 010e 2D1B     		subs	r5, r5, r4
 748              	.LVL64:
 425:../Middlewares/stm32-mw-camera/sensors/cmw_vd66gy.c ****     digital_linear_gain = MDECIBEL_TO_LINEAR((double)dgain_min_mdB);
 749              		.loc 1 425 26 view .LVU194
 750 0110 07EE905A 		vmov	s15, r5	@ int
 751 0114 B8EE677B 		vcvt.f64.u32	d7, s15
 752 0118 87EE0B1B 		vdiv.f64	d1, d7, d11
 753 011c B2EE040B 		vmov.f64	d0, #1.0e+1
 754              	.LVL65:
 425:../Middlewares/stm32-mw-camera/sensors/cmw_vd66gy.c ****     digital_linear_gain = MDECIBEL_TO_LINEAR((double)dgain_min_mdB);
 755              		.loc 1 425 26 view .LVU195
 756 0120 81EE0A1B 		vdiv.f64	d1, d1, d10
 757 0124 FFF7FEFF 		bl	pow
 758              	.LVL66:
 426:../Middlewares/stm32-mw-camera/sensors/cmw_vd66gy.c ****   }
 759              		.loc 1 426 27 view .LVU196
 760 0128 07EE904A 		vmov	s15, r4	@ int
 425:../Middlewares/stm32-mw-camera/sensors/cmw_vd66gy.c ****     digital_linear_gain = MDECIBEL_TO_LINEAR((double)dgain_min_mdB);
 761              		.loc 1 425 26 view .LVU197
 762 012c B0EE409B 		vmov.f64	d9, d0
 763              	.LVL67:
 426:../Middlewares/stm32-mw-camera/sensors/cmw_vd66gy.c ****   }
 764              		.loc 1 426 5 is_stmt 1 view .LVU198
 765              	.L24:
ARM GAS  /tmp/ccOQJSAL.s 			page 27


 432:../Middlewares/stm32-mw-camera/sensors/cmw_vd66gy.c ****   }
 766              		.loc 1 432 27 is_stmt 0 view .LVU199
 767 0130 B8EE677B 		vcvt.f64.u32	d7, s15
 768 0134 87EE0B1B 		vdiv.f64	d1, d7, d11
 769 0138 B2EE040B 		vmov.f64	d0, #1.0e+1
 770              	.LVL68:
 432:../Middlewares/stm32-mw-camera/sensors/cmw_vd66gy.c ****   }
 771              		.loc 1 432 27 view .LVU200
 772 013c 81EE0A1B 		vdiv.f64	d1, d1, d10
 773 0140 FFF7FEFF 		bl	pow
 774              	.LVL69:
 435:../Middlewares/stm32-mw-camera/sensors/cmw_vd66gy.c ****   if (ret)
 775              		.loc 1 435 83 view .LVU201
 776 0144 9FED247B 		vldr.64	d7, .L25+8
 777 0148 87EE096B 		vdiv.f64	d6, d7, d9
 435:../Middlewares/stm32-mw-camera/sensors/cmw_vd66gy.c ****   if (ret)
 778              		.loc 1 435 77 view .LVU202
 779 014c 37EE467B 		vsub.f64	d7, d7, d6
 435:../Middlewares/stm32-mw-camera/sensors/cmw_vd66gy.c ****   if (ret)
 780              		.loc 1 435 9 view .LVU203
 781 0150 FDEEC77B 		vcvt.s32.f64	s15, d7
 782 0154 3046     		mov	r0, r6
 783 0156 17EE901A 		vmov	r1, s15	@ int
 432:../Middlewares/stm32-mw-camera/sensors/cmw_vd66gy.c ****   }
 784              		.loc 1 432 27 view .LVU204
 785 015a B0EE408B 		vmov.f64	d8, d0
 786              	.LVL70:
 435:../Middlewares/stm32-mw-camera/sensors/cmw_vd66gy.c ****   if (ret)
 787              		.loc 1 435 3 is_stmt 1 view .LVU205
 435:../Middlewares/stm32-mw-camera/sensors/cmw_vd66gy.c ****   if (ret)
 788              		.loc 1 435 9 is_stmt 0 view .LVU206
 789 015e FFF7FEFF 		bl	VD6G_SetAnalogGain
 790              	.LVL71:
 436:../Middlewares/stm32-mw-camera/sensors/cmw_vd66gy.c ****     return ret;
 791              		.loc 1 436 3 is_stmt 1 view .LVU207
 436:../Middlewares/stm32-mw-camera/sensors/cmw_vd66gy.c ****     return ret;
 792              		.loc 1 436 6 is_stmt 0 view .LVU208
 793 0162 C8B9     		cbnz	r0, .L18
 439:../Middlewares/stm32-mw-camera/sensors/cmw_vd66gy.c ****   if (ret)
 794              		.loc 1 439 3 is_stmt 1 view .LVU209
 439:../Middlewares/stm32-mw-camera/sensors/cmw_vd66gy.c ****   if (ret)
 795              		.loc 1 439 68 is_stmt 0 view .LVU210
 796 0164 FCEEC87B 		vcvt.u32.f64	s15, d8
 797 0168 17EE903A 		vmov	r3, s15	@ int
 798 016c 99B2     		uxth	r1, r3
 799 016e 07EE901A 		vmov	s15, r1	@ int
 800 0172 B8EEE77B 		vcvt.f64.s32	d7, s15
 801 0176 38EE478B 		vsub.f64	d8, d8, d7
 802              	.LVL72:
 439:../Middlewares/stm32-mw-camera/sensors/cmw_vd66gy.c ****   if (ret)
 803              		.loc 1 439 68 view .LVU211
 804 017a 9FED197B 		vldr.64	d7, .L25+16
 805 017e 28EE078B 		vmul.f64	d8, d8, d7
 806 0182 FCEEC87B 		vcvt.u32.f64	s15, d8
 807 0186 CDED017A 		vstr.32	s15, [sp, #4]	@ int
 808 018a 9DF80430 		ldrb	r3, [sp, #4]	@ zero_extendqisi2
 439:../Middlewares/stm32-mw-camera/sensors/cmw_vd66gy.c ****   if (ret)
ARM GAS  /tmp/ccOQJSAL.s 			page 28


 809              		.loc 1 439 9 view .LVU212
 810 018e 3046     		mov	r0, r6
 811              	.LVL73:
 439:../Middlewares/stm32-mw-camera/sensors/cmw_vd66gy.c ****   if (ret)
 812              		.loc 1 439 9 view .LVU213
 813 0190 43EA0121 		orr	r1, r3, r1, lsl #8
 814 0194 FFF7FEFF 		bl	VD6G_SetDigitalGain
 815              	.LVL74:
 440:../Middlewares/stm32-mw-camera/sensors/cmw_vd66gy.c ****     return ret;
 816              		.loc 1 440 3 is_stmt 1 view .LVU214
 817              	.L18:
 444:../Middlewares/stm32-mw-camera/sensors/cmw_vd66gy.c **** 
 818              		.loc 1 444 1 is_stmt 0 view .LVU215
 819 0198 05B0     		add	sp, sp, #20
 820              		.cfi_remember_state
 821              		.cfi_def_cfa_offset 52
 822              		@ sp needed
 823 019a BDEC088B 		vldm	sp!, {d8-d11}
 824              		.cfi_restore 86
 825              		.cfi_restore 87
 826              		.cfi_restore 84
 827              		.cfi_restore 85
 828              		.cfi_restore 82
 829              		.cfi_restore 83
 830              		.cfi_restore 80
 831              		.cfi_restore 81
 832              		.cfi_def_cfa_offset 20
 833 019e F0BD     		pop	{r4, r5, r6, r7, pc}
 834              	.LVL75:
 835              	.L20:
 836              		.cfi_restore_state
 431:../Middlewares/stm32-mw-camera/sensors/cmw_vd66gy.c ****     digital_linear_gain = MDECIBEL_TO_LINEAR((double)(gain - again_max_mdB));
 837              		.loc 1 431 5 is_stmt 1 view .LVU216
 431:../Middlewares/stm32-mw-camera/sensors/cmw_vd66gy.c ****     digital_linear_gain = MDECIBEL_TO_LINEAR((double)(gain - again_max_mdB));
 838              		.loc 1 431 26 is_stmt 0 view .LVU217
 839 01a0 07EE907A 		vmov	s15, r7	@ int
 840 01a4 B8EE677B 		vcvt.f64.u32	d7, s15
 841 01a8 87EE0B1B 		vdiv.f64	d1, d7, d11
 842 01ac B2EE040B 		vmov.f64	d0, #1.0e+1
 843              	.LVL76:
 431:../Middlewares/stm32-mw-camera/sensors/cmw_vd66gy.c ****     digital_linear_gain = MDECIBEL_TO_LINEAR((double)(gain - again_max_mdB));
 844              		.loc 1 431 26 view .LVU218
 845 01b0 81EE0A1B 		vdiv.f64	d1, d1, d10
 846 01b4 FFF7FEFF 		bl	pow
 847              	.LVL77:
 432:../Middlewares/stm32-mw-camera/sensors/cmw_vd66gy.c ****   }
 848              		.loc 1 432 27 view .LVU219
 849 01b8 ED1B     		subs	r5, r5, r7
 850              	.LVL78:
 431:../Middlewares/stm32-mw-camera/sensors/cmw_vd66gy.c ****     digital_linear_gain = MDECIBEL_TO_LINEAR((double)(gain - again_max_mdB));
 851              		.loc 1 431 26 view .LVU220
 852 01ba B0EE409B 		vmov.f64	d9, d0
 853              	.LVL79:
 432:../Middlewares/stm32-mw-camera/sensors/cmw_vd66gy.c ****   }
 854              		.loc 1 432 5 is_stmt 1 view .LVU221
 432:../Middlewares/stm32-mw-camera/sensors/cmw_vd66gy.c ****   }
 855              		.loc 1 432 27 is_stmt 0 view .LVU222
ARM GAS  /tmp/ccOQJSAL.s 			page 29


 856 01be 07EE905A 		vmov	s15, r5	@ int
 857 01c2 B5E7     		b	.L24
 858              	.LVL80:
 859              	.L23:
 420:../Middlewares/stm32-mw-camera/sensors/cmw_vd66gy.c **** 
 860              		.loc 1 420 12 view .LVU223
 861 01c4 4FF0FF30 		mov	r0, #-1
 862 01c8 E6E7     		b	.L18
 863              	.L26:
 864 01ca 00BFAFF3 		.align	3
 864      0080
 865              	.L25:
 866 01d0 00000000 		.word	0
 867 01d4 00408F40 		.word	1083129856
 868 01d8 00000000 		.word	0
 869 01dc 00004040 		.word	1077936128
 870 01e0 00000000 		.word	0
 871 01e4 00007040 		.word	1081081856
 872 01e8 0000803B 		.word	998244352
 873              		.cfi_endproc
 874              	.LFE1496:
 876              		.section	.text.CMW_VD66GY_SetExposure,"ax",%progbits
 877              		.align	1
 878              		.global	CMW_VD66GY_SetExposure
 879              		.syntax unified
 880              		.thumb
 881              		.thumb_func
 883              	CMW_VD66GY_SetExposure:
 884              	.LVL81:
 885              	.LFB1497:
 453:../Middlewares/stm32-mw-camera/sensors/cmw_vd66gy.c ****   return VD6G_SetExposureTime(&((CMW_VD66GY_t *)io_ctx)->ctx_driver, exposure);
 886              		.loc 1 453 1 is_stmt 1 view -0
 887              		.cfi_startproc
 888              		@ args = 0, pretend = 0, frame = 0
 889              		@ frame_needed = 0, uses_anonymous_args = 0
 890              		@ link register save eliminated.
 454:../Middlewares/stm32-mw-camera/sensors/cmw_vd66gy.c **** }
 891              		.loc 1 454 3 view .LVU225
 454:../Middlewares/stm32-mw-camera/sensors/cmw_vd66gy.c **** }
 892              		.loc 1 454 10 is_stmt 0 view .LVU226
 893 0000 0430     		adds	r0, r0, #4
 894              	.LVL82:
 454:../Middlewares/stm32-mw-camera/sensors/cmw_vd66gy.c **** }
 895              		.loc 1 454 10 view .LVU227
 896 0002 FFF7FEBF 		b	VD6G_SetExposureTime
 897              	.LVL83:
 454:../Middlewares/stm32-mw-camera/sensors/cmw_vd66gy.c **** }
 898              		.loc 1 454 10 view .LVU228
 899              		.cfi_endproc
 900              	.LFE1497:
 902              		.section	.text.CMW_VD66GY_SetExposureMode,"ax",%progbits
 903              		.align	1
 904              		.global	CMW_VD66GY_SetExposureMode
 905              		.syntax unified
 906              		.thumb
 907              		.thumb_func
 909              	CMW_VD66GY_SetExposureMode:
ARM GAS  /tmp/ccOQJSAL.s 			page 30


 910              	.LVL84:
 911              	.LFB1498:
 464:../Middlewares/stm32-mw-camera/sensors/cmw_vd66gy.c ****   int ret = -1;
 912              		.loc 1 464 1 is_stmt 1 view -0
 913              		.cfi_startproc
 914              		@ args = 0, pretend = 0, frame = 0
 915              		@ frame_needed = 0, uses_anonymous_args = 0
 465:../Middlewares/stm32-mw-camera/sensors/cmw_vd66gy.c **** 
 916              		.loc 1 465 3 view .LVU230
 467:../Middlewares/stm32-mw-camera/sensors/cmw_vd66gy.c ****   {
 917              		.loc 1 467 3 view .LVU231
 918 0000 0129     		cmp	r1, #1
 464:../Middlewares/stm32-mw-camera/sensors/cmw_vd66gy.c ****   int ret = -1;
 919              		.loc 1 464 1 is_stmt 0 view .LVU232
 920 0002 08B5     		push	{r3, lr}
 921              		.cfi_def_cfa_offset 8
 922              		.cfi_offset 3, -8
 923              		.cfi_offset 14, -4
 924 0004 00F10400 		add	r0, r0, #4
 925              	.LVL85:
 467:../Middlewares/stm32-mw-camera/sensors/cmw_vd66gy.c ****   {
 926              		.loc 1 467 3 view .LVU233
 927 0008 02D0     		beq	.L34
 928 000a 0229     		cmp	r1, #2
 470:../Middlewares/stm32-mw-camera/sensors/cmw_vd66gy.c ****       break;
 929              		.loc 1 470 7 is_stmt 1 view .LVU234
 477:../Middlewares/stm32-mw-camera/sensors/cmw_vd66gy.c ****       break;
 930              		.loc 1 477 7 view .LVU235
 477:../Middlewares/stm32-mw-camera/sensors/cmw_vd66gy.c ****       break;
 931              		.loc 1 477 13 is_stmt 0 view .LVU236
 932 000c 18BF     		it	ne
 933 000e 0021     		movne	r1, #0
 934              	.LVL86:
 935              	.L34:
 477:../Middlewares/stm32-mw-camera/sensors/cmw_vd66gy.c ****       break;
 936              		.loc 1 477 13 view .LVU237
 937 0010 FFF7FEFF 		bl	VD6G_SetExposureMode
 938              	.LVL87:
 478:../Middlewares/stm32-mw-camera/sensors/cmw_vd66gy.c ****   }
 939              		.loc 1 478 7 is_stmt 1 view .LVU238
 481:../Middlewares/stm32-mw-camera/sensors/cmw_vd66gy.c **** }
 940              		.loc 1 481 3 view .LVU239
 481:../Middlewares/stm32-mw-camera/sensors/cmw_vd66gy.c **** }
 941              		.loc 1 481 38 is_stmt 0 discriminator 2 view .LVU240
 942 0014 0028     		cmp	r0, #0
 482:../Middlewares/stm32-mw-camera/sensors/cmw_vd66gy.c **** 
 943              		.loc 1 482 1 view .LVU241
 944 0016 18BF     		it	ne
 945 0018 6FF00500 		mvnne	r0, #5
 946              	.LVL88:
 482:../Middlewares/stm32-mw-camera/sensors/cmw_vd66gy.c **** 
 947              		.loc 1 482 1 view .LVU242
 948 001c 08BD     		pop	{r3, pc}
 949              		.cfi_endproc
 950              	.LFE1498:
 952              		.section	.text.CMW_VD66GY_SetWBRefMode,"ax",%progbits
 953              		.align	1
ARM GAS  /tmp/ccOQJSAL.s 			page 31


 954              		.global	CMW_VD66GY_SetWBRefMode
 955              		.syntax unified
 956              		.thumb
 957              		.thumb_func
 959              	CMW_VD66GY_SetWBRefMode:
 960              	.LVL89:
 961              	.LFB1499:
 492:../Middlewares/stm32-mw-camera/sensors/cmw_vd66gy.c ****   int ret = CMW_ERROR_NONE;
 962              		.loc 1 492 1 is_stmt 1 view -0
 963              		.cfi_startproc
 964              		@ args = 0, pretend = 0, frame = 0
 965              		@ frame_needed = 0, uses_anonymous_args = 0
 493:../Middlewares/stm32-mw-camera/sensors/cmw_vd66gy.c **** 
 966              		.loc 1 493 3 view .LVU244
 495:../Middlewares/stm32-mw-camera/sensors/cmw_vd66gy.c ****   if (ret)
 967              		.loc 1 495 3 view .LVU245
 492:../Middlewares/stm32-mw-camera/sensors/cmw_vd66gy.c ****   int ret = CMW_ERROR_NONE;
 968              		.loc 1 492 1 is_stmt 0 view .LVU246
 969 0000 08B5     		push	{r3, lr}
 970              		.cfi_def_cfa_offset 8
 971              		.cfi_offset 3, -8
 972              		.cfi_offset 14, -4
 495:../Middlewares/stm32-mw-camera/sensors/cmw_vd66gy.c ****   if (ret)
 973              		.loc 1 495 9 view .LVU247
 974 0002 6C30     		adds	r0, r0, #108
 975              	.LVL90:
 495:../Middlewares/stm32-mw-camera/sensors/cmw_vd66gy.c ****   if (ret)
 976              		.loc 1 495 9 view .LVU248
 977 0004 FFF7FEFF 		bl	ISP_SetWBRefMode
 978              	.LVL91:
 496:../Middlewares/stm32-mw-camera/sensors/cmw_vd66gy.c ****   {
 979              		.loc 1 496 3 is_stmt 1 view .LVU249
 501:../Middlewares/stm32-mw-camera/sensors/cmw_vd66gy.c **** }
 980              		.loc 1 501 10 is_stmt 0 view .LVU250
 981 0008 0028     		cmp	r0, #0
 502:../Middlewares/stm32-mw-camera/sensors/cmw_vd66gy.c **** 
 982              		.loc 1 502 1 view .LVU251
 983 000a 14BF     		ite	ne
 984 000c 6FF00300 		mvnne	r0, #3
 985              	.LVL92:
 502:../Middlewares/stm32-mw-camera/sensors/cmw_vd66gy.c **** 
 986              		.loc 1 502 1 view .LVU252
 987 0010 0020     		moveq	r0, #0
 988 0012 08BD     		pop	{r3, pc}
 989              		.cfi_endproc
 990              	.LFE1499:
 992              		.section	.text.CMW_VD66GY_ListWBRefModes,"ax",%progbits
 993              		.align	1
 994              		.global	CMW_VD66GY_ListWBRefModes
 995              		.syntax unified
 996              		.thumb
 997              		.thumb_func
 999              	CMW_VD66GY_ListWBRefModes:
 1000              	.LVL93:
 1001              	.LFB1500:
 511:../Middlewares/stm32-mw-camera/sensors/cmw_vd66gy.c ****   int ret = CMW_ERROR_NONE;
 1002              		.loc 1 511 1 is_stmt 1 view -0
ARM GAS  /tmp/ccOQJSAL.s 			page 32


 1003              		.cfi_startproc
 1004              		@ args = 0, pretend = 0, frame = 0
 1005              		@ frame_needed = 0, uses_anonymous_args = 0
 512:../Middlewares/stm32-mw-camera/sensors/cmw_vd66gy.c **** 
 1006              		.loc 1 512 3 view .LVU254
 514:../Middlewares/stm32-mw-camera/sensors/cmw_vd66gy.c ****   if (ret)
 1007              		.loc 1 514 3 view .LVU255
 511:../Middlewares/stm32-mw-camera/sensors/cmw_vd66gy.c ****   int ret = CMW_ERROR_NONE;
 1008              		.loc 1 511 1 is_stmt 0 view .LVU256
 1009 0000 08B5     		push	{r3, lr}
 1010              		.cfi_def_cfa_offset 8
 1011              		.cfi_offset 3, -8
 1012              		.cfi_offset 14, -4
 514:../Middlewares/stm32-mw-camera/sensors/cmw_vd66gy.c ****   if (ret)
 1013              		.loc 1 514 9 view .LVU257
 1014 0002 6C30     		adds	r0, r0, #108
 1015              	.LVL94:
 514:../Middlewares/stm32-mw-camera/sensors/cmw_vd66gy.c ****   if (ret)
 1016              		.loc 1 514 9 view .LVU258
 1017 0004 FFF7FEFF 		bl	ISP_ListWBRefModes
 1018              	.LVL95:
 515:../Middlewares/stm32-mw-camera/sensors/cmw_vd66gy.c ****   {
 1019              		.loc 1 515 3 is_stmt 1 view .LVU259
 520:../Middlewares/stm32-mw-camera/sensors/cmw_vd66gy.c **** }
 1020              		.loc 1 520 10 is_stmt 0 view .LVU260
 1021 0008 0028     		cmp	r0, #0
 521:../Middlewares/stm32-mw-camera/sensors/cmw_vd66gy.c **** 
 1022              		.loc 1 521 1 view .LVU261
 1023 000a 14BF     		ite	ne
 1024 000c 6FF00300 		mvnne	r0, #3
 1025              	.LVL96:
 521:../Middlewares/stm32-mw-camera/sensors/cmw_vd66gy.c **** 
 1026              		.loc 1 521 1 view .LVU262
 1027 0010 0020     		moveq	r0, #0
 1028 0012 08BD     		pop	{r3, pc}
 1029              		.cfi_endproc
 1030              	.LFE1500:
 1032              		.section	.rodata.CMW_VD66GY_GetSensorInfo.str1.1,"aMS",%progbits,1
 1033              	.LC0:
 1034 0000 56443636 		.ascii	"VD66GY\000"
 1034      475900
 1035              		.section	.text.CMW_VD66GY_GetSensorInfo,"ax",%progbits
 1036              		.align	1
 1037              		.global	CMW_VD66GY_GetSensorInfo
 1038              		.syntax unified
 1039              		.thumb
 1040              		.thumb_func
 1042              	CMW_VD66GY_GetSensorInfo:
 1043              	.LVL97:
 1044              	.LFB1501:
 530:../Middlewares/stm32-mw-camera/sensors/cmw_vd66gy.c ****   uint8_t again_regmin, again_regmax;
 1045              		.loc 1 530 1 is_stmt 1 view -0
 1046              		.cfi_startproc
 1047              		@ args = 0, pretend = 0, frame = 8
 1048              		@ frame_needed = 0, uses_anonymous_args = 0
 531:../Middlewares/stm32-mw-camera/sensors/cmw_vd66gy.c ****   uint16_t dgain_regmin, dgain_regmax;
 1049              		.loc 1 531 3 view .LVU264
ARM GAS  /tmp/ccOQJSAL.s 			page 33


 532:../Middlewares/stm32-mw-camera/sensors/cmw_vd66gy.c ****   uint32_t again_min_mdB, again_max_mdB;
 1050              		.loc 1 532 3 view .LVU265
 533:../Middlewares/stm32-mw-camera/sensors/cmw_vd66gy.c ****   uint32_t dgain_min_mdB, dgain_max_mdB;
 1051              		.loc 1 533 3 view .LVU266
 534:../Middlewares/stm32-mw-camera/sensors/cmw_vd66gy.c **** 
 1052              		.loc 1 534 3 view .LVU267
 536:../Middlewares/stm32-mw-camera/sensors/cmw_vd66gy.c **** 
 1053              		.loc 1 536 3 view .LVU268
 538:../Middlewares/stm32-mw-camera/sensors/cmw_vd66gy.c ****     return CMW_ERROR_WRONG_PARAM;
 1054              		.loc 1 538 3 view .LVU269
 530:../Middlewares/stm32-mw-camera/sensors/cmw_vd66gy.c ****   uint8_t again_regmin, again_regmax;
 1055              		.loc 1 530 1 is_stmt 0 view .LVU270
 1056 0000 70B5     		push	{r4, r5, r6, lr}
 1057              		.cfi_def_cfa_offset 16
 1058              		.cfi_offset 4, -16
 1059              		.cfi_offset 5, -12
 1060              		.cfi_offset 6, -8
 1061              		.cfi_offset 14, -4
 1062 0002 2DED0A8B 		vpush.64	{d8, d9, d10, d11, d12}
 1063              		.cfi_def_cfa_offset 56
 1064              		.cfi_offset 80, -56
 1065              		.cfi_offset 81, -52
 1066              		.cfi_offset 82, -48
 1067              		.cfi_offset 83, -44
 1068              		.cfi_offset 84, -40
 1069              		.cfi_offset 85, -36
 1070              		.cfi_offset 86, -32
 1071              		.cfi_offset 87, -28
 1072              		.cfi_offset 88, -24
 1073              		.cfi_offset 89, -20
 1074 0006 0C46     		mov	r4, r1
 538:../Middlewares/stm32-mw-camera/sensors/cmw_vd66gy.c ****     return CMW_ERROR_WRONG_PARAM;
 1075              		.loc 1 538 6 view .LVU271
 1076 0008 0546     		mov	r5, r0
 530:../Middlewares/stm32-mw-camera/sensors/cmw_vd66gy.c ****   uint8_t again_regmin, again_regmax;
 1077              		.loc 1 530 1 view .LVU272
 1078 000a 82B0     		sub	sp, sp, #8
 1079              		.cfi_def_cfa_offset 64
 538:../Middlewares/stm32-mw-camera/sensors/cmw_vd66gy.c ****     return CMW_ERROR_WRONG_PARAM;
 1080              		.loc 1 538 6 view .LVU273
 1081 000c 0028     		cmp	r0, #0
 1082 000e 00F0A080 		beq	.L44
 538:../Middlewares/stm32-mw-camera/sensors/cmw_vd66gy.c ****     return CMW_ERROR_WRONG_PARAM;
 1083              		.loc 1 538 17 discriminator 1 view .LVU274
 1084 0012 0029     		cmp	r1, #0
 1085 0014 00F09D80 		beq	.L44
 542:../Middlewares/stm32-mw-camera/sensors/cmw_vd66gy.c ****   {
 1086              		.loc 1 542 3 is_stmt 1 view .LVU275
 544:../Middlewares/stm32-mw-camera/sensors/cmw_vd66gy.c ****   }
 1087              		.loc 1 544 5 view .LVU276
 1088 0018 5149     		ldr	r1, .L45+8
 1089              	.LVL98:
 544:../Middlewares/stm32-mw-camera/sensors/cmw_vd66gy.c ****   }
 1090              		.loc 1 544 5 is_stmt 0 view .LVU277
 1091 001a 2046     		mov	r0, r4
 1092              	.LVL99:
 544:../Middlewares/stm32-mw-camera/sensors/cmw_vd66gy.c ****   }
ARM GAS  /tmp/ccOQJSAL.s 			page 34


 1093              		.loc 1 544 5 view .LVU278
 1094 001c FFF7FEFF 		bl	strcpy
 1095              	.LVL100:
 552:../Middlewares/stm32-mw-camera/sensors/cmw_vd66gy.c **** 
 1096              		.loc 1 552 3 is_stmt 1 view .LVU279
 552:../Middlewares/stm32-mw-camera/sensors/cmw_vd66gy.c **** 
 1097              		.loc 1 552 68 is_stmt 0 view .LVU280
 1098 0020 95F82C30 		ldrb	r3, [r5, #44]	@ zero_extendqisi2
 559:../Middlewares/stm32-mw-camera/sensors/cmw_vd66gy.c **** 
 1099              		.loc 1 559 16 view .LVU281
 1100 0024 4FF48C62 		mov	r2, #1120
 552:../Middlewares/stm32-mw-camera/sensors/cmw_vd66gy.c **** 
 1101              		.loc 1 552 68 view .LVU282
 1102 0028 013B     		subs	r3, r3, #1
 552:../Middlewares/stm32-mw-camera/sensors/cmw_vd66gy.c **** 
 1103              		.loc 1 552 23 view .LVU283
 1104 002a 84F82030 		strb	r3, [r4, #32]
 555:../Middlewares/stm32-mw-camera/sensors/cmw_vd66gy.c **** 
 1105              		.loc 1 555 3 is_stmt 1 view .LVU284
 555:../Middlewares/stm32-mw-camera/sensors/cmw_vd66gy.c **** 
 1106              		.loc 1 555 75 is_stmt 0 view .LVU285
 1107 002e 95F84A30 		ldrb	r3, [r5, #74]	@ zero_extendqisi2
 562:../Middlewares/stm32-mw-camera/sensors/cmw_vd66gy.c ****   if (ret)
 1108              		.loc 1 562 9 view .LVU286
 1109 0032 0435     		adds	r5, r5, #4
 1110              	.LVL101:
 555:../Middlewares/stm32-mw-camera/sensors/cmw_vd66gy.c **** 
 1111              		.loc 1 555 21 view .LVU287
 1112 0034 84F82130 		strb	r3, [r4, #33]
 558:../Middlewares/stm32-mw-camera/sensors/cmw_vd66gy.c ****   info->height = VD6G_MAX_HEIGHT;
 1113              		.loc 1 558 3 is_stmt 1 view .LVU288
 559:../Middlewares/stm32-mw-camera/sensors/cmw_vd66gy.c **** 
 1114              		.loc 1 559 16 is_stmt 0 view .LVU289
 1115 0038 40F25453 		movw	r3, #1364
 562:../Middlewares/stm32-mw-camera/sensors/cmw_vd66gy.c ****   if (ret)
 1116              		.loc 1 562 9 view .LVU290
 1117 003c 2846     		mov	r0, r5
 559:../Middlewares/stm32-mw-camera/sensors/cmw_vd66gy.c **** 
 1118              		.loc 1 559 16 view .LVU291
 1119 003e C4E90923 		strd	r2, r3, [r4, #36]
 562:../Middlewares/stm32-mw-camera/sensors/cmw_vd66gy.c ****   if (ret)
 1120              		.loc 1 562 3 is_stmt 1 view .LVU292
 562:../Middlewares/stm32-mw-camera/sensors/cmw_vd66gy.c ****   if (ret)
 1121              		.loc 1 562 9 is_stmt 0 view .LVU293
 1122 0042 0DF10201 		add	r1, sp, #2
 1123 0046 0DF10302 		add	r2, sp, #3
 1124 004a FFF7FEFF 		bl	VD6G_GetAnalogGainRegRange
 1125              	.LVL102:
 563:../Middlewares/stm32-mw-camera/sensors/cmw_vd66gy.c ****     return ret;
 1126              		.loc 1 563 3 is_stmt 1 view .LVU294
 563:../Middlewares/stm32-mw-camera/sensors/cmw_vd66gy.c ****     return ret;
 1127              		.loc 1 563 6 is_stmt 0 view .LVU295
 1128 004e 0028     		cmp	r0, #0
 1129 0050 7BD1     		bne	.L41
 566:../Middlewares/stm32-mw-camera/sensors/cmw_vd66gy.c ****   if (ret)
 1130              		.loc 1 566 3 is_stmt 1 view .LVU296
 566:../Middlewares/stm32-mw-camera/sensors/cmw_vd66gy.c ****   if (ret)
ARM GAS  /tmp/ccOQJSAL.s 			page 35


 1131              		.loc 1 566 9 is_stmt 0 view .LVU297
 1132 0052 2846     		mov	r0, r5
 1133              	.LVL103:
 566:../Middlewares/stm32-mw-camera/sensors/cmw_vd66gy.c ****   if (ret)
 1134              		.loc 1 566 9 view .LVU298
 1135 0054 0DF10602 		add	r2, sp, #6
 1136 0058 01A9     		add	r1, sp, #4
 1137 005a FFF7FEFF 		bl	VD6G_GetDigitalGainRegRange
 1138              	.LVL104:
 567:../Middlewares/stm32-mw-camera/sensors/cmw_vd66gy.c ****     return ret;
 1139              		.loc 1 567 3 is_stmt 1 view .LVU299
 567:../Middlewares/stm32-mw-camera/sensors/cmw_vd66gy.c ****     return ret;
 1140              		.loc 1 567 6 is_stmt 0 view .LVU300
 1141 005e 0028     		cmp	r0, #0
 1142 0060 73D1     		bne	.L41
 570:../Middlewares/stm32-mw-camera/sensors/cmw_vd66gy.c ****   again_max_mdB = (uint32_t) LINEAR_TO_MDECIBEL(32 / (32 - again_regmax));
 1143              		.loc 1 570 3 is_stmt 1 view .LVU301
 570:../Middlewares/stm32-mw-camera/sensors/cmw_vd66gy.c ****   again_max_mdB = (uint32_t) LINEAR_TO_MDECIBEL(32 / (32 - again_regmax));
 1144              		.loc 1 570 30 is_stmt 0 view .LVU302
 1145 0062 2026     		movs	r6, #32
 1146 0064 9DF80230 		ldrb	r3, [sp, #2]	@ zero_extendqisi2
 571:../Middlewares/stm32-mw-camera/sensors/cmw_vd66gy.c ****   dgain_min_mdB = (uint32_t) LINEAR_TO_MDECIBEL(FP58_TO_FLOAT(dgain_regmin));
 1147              		.loc 1 571 30 discriminator 1 view .LVU303
 1148 0068 B3EE04BB 		vmov.f64	d11, #2.0e+1
 570:../Middlewares/stm32-mw-camera/sensors/cmw_vd66gy.c ****   again_max_mdB = (uint32_t) LINEAR_TO_MDECIBEL(32 / (32 - again_regmax));
 1149              		.loc 1 570 30 view .LVU304
 1150 006c C3F12003 		rsb	r3, r3, #32
 1151 0070 96FBF3F3 		sdiv	r3, r6, r3
 1152 0074 00EE103A 		vmov	s0, r3	@ int
 1153 0078 B8EEC00B 		vcvt.f64.s32	d0, s0
 1154 007c FFF7FEFF 		bl	log10
 1155              	.LVL105:
 571:../Middlewares/stm32-mw-camera/sensors/cmw_vd66gy.c ****   dgain_min_mdB = (uint32_t) LINEAR_TO_MDECIBEL(FP58_TO_FLOAT(dgain_regmin));
 1156              		.loc 1 571 30 view .LVU305
 1157 0080 9DF80330 		ldrb	r3, [sp, #3]	@ zero_extendqisi2
 570:../Middlewares/stm32-mw-camera/sensors/cmw_vd66gy.c ****   again_max_mdB = (uint32_t) LINEAR_TO_MDECIBEL(32 / (32 - again_regmax));
 1158              		.loc 1 570 30 view .LVU306
 1159 0084 B0EE408B 		vmov.f64	d8, d0
 1160              	.LVL106:
 571:../Middlewares/stm32-mw-camera/sensors/cmw_vd66gy.c ****   dgain_min_mdB = (uint32_t) LINEAR_TO_MDECIBEL(FP58_TO_FLOAT(dgain_regmin));
 1161              		.loc 1 571 3 is_stmt 1 view .LVU307
 571:../Middlewares/stm32-mw-camera/sensors/cmw_vd66gy.c ****   dgain_min_mdB = (uint32_t) LINEAR_TO_MDECIBEL(FP58_TO_FLOAT(dgain_regmin));
 1162              		.loc 1 571 30 is_stmt 0 view .LVU308
 1163 0088 F31A     		subs	r3, r6, r3
 1164 008a 96FBF3F3 		sdiv	r3, r6, r3
 1165 008e 00EE103A 		vmov	s0, r3	@ int
 1166              	.LVL107:
 571:../Middlewares/stm32-mw-camera/sensors/cmw_vd66gy.c ****   dgain_min_mdB = (uint32_t) LINEAR_TO_MDECIBEL(FP58_TO_FLOAT(dgain_regmin));
 1167              		.loc 1 571 30 view .LVU309
 1168 0092 B8EEC00B 		vcvt.f64.s32	d0, s0
 1169 0096 FFF7FEFF 		bl	log10
 1170              	.LVL108:
 571:../Middlewares/stm32-mw-camera/sensors/cmw_vd66gy.c ****   dgain_min_mdB = (uint32_t) LINEAR_TO_MDECIBEL(FP58_TO_FLOAT(dgain_regmin));
 1171              		.loc 1 571 30 discriminator 1 view .LVU310
 1172 009a 9FED2FAB 		vldr.64	d10, .L45
 1173 009e 20EE0B0B 		vmul.f64	d0, d0, d11
 1174 00a2 20EE0A0B 		vmul.f64	d0, d0, d10
ARM GAS  /tmp/ccOQJSAL.s 			page 36


 571:../Middlewares/stm32-mw-camera/sensors/cmw_vd66gy.c ****   dgain_min_mdB = (uint32_t) LINEAR_TO_MDECIBEL(FP58_TO_FLOAT(dgain_regmin));
 1175              		.loc 1 571 17 discriminator 1 view .LVU311
 1176 00a6 FCEEC07B 		vcvt.u32.f64	s15, d0
 572:../Middlewares/stm32-mw-camera/sensors/cmw_vd66gy.c ****   dgain_max_mdB = (uint32_t) LINEAR_TO_MDECIBEL(FP58_TO_FLOAT(dgain_regmax));
 1177              		.loc 1 572 30 view .LVU312
 1178 00aa BDF80430 		ldrh	r3, [sp, #4]
 1179 00ae 9DF80420 		ldrb	r2, [sp, #4]	@ zero_extendqisi2
 1180 00b2 1B0A     		lsrs	r3, r3, #8
 571:../Middlewares/stm32-mw-camera/sensors/cmw_vd66gy.c ****   dgain_min_mdB = (uint32_t) LINEAR_TO_MDECIBEL(FP58_TO_FLOAT(dgain_regmin));
 1181              		.loc 1 571 17 discriminator 1 view .LVU313
 1182 00b4 17EE906A 		vmov	r6, s15	@ int
 1183              	.LVL109:
 572:../Middlewares/stm32-mw-camera/sensors/cmw_vd66gy.c ****   dgain_max_mdB = (uint32_t) LINEAR_TO_MDECIBEL(FP58_TO_FLOAT(dgain_regmax));
 1184              		.loc 1 572 3 is_stmt 1 view .LVU314
 572:../Middlewares/stm32-mw-camera/sensors/cmw_vd66gy.c ****   dgain_max_mdB = (uint32_t) LINEAR_TO_MDECIBEL(FP58_TO_FLOAT(dgain_regmax));
 1185              		.loc 1 572 30 is_stmt 0 view .LVU315
 1186 00b8 00EE103A 		vmov	s0, r3	@ int
 1187 00bc 07EE902A 		vmov	s15, r2	@ int
 1188 00c0 9FED28CA 		vldr.32	s24, .L45+12
 1189 00c4 F8EEE77A 		vcvt.f32.s32	s15, s15
 1190 00c8 B8EEC00A 		vcvt.f32.s32	s0, s0
 1191 00cc A7EE8C0A 		vfma.f32	s0, s15, s24
 1192 00d0 B7EEC00A 		vcvt.f64.f32	d0, s0
 1193 00d4 FFF7FEFF 		bl	log10
 1194              	.LVL110:
 573:../Middlewares/stm32-mw-camera/sensors/cmw_vd66gy.c **** 
 1195              		.loc 1 573 30 view .LVU316
 1196 00d8 BDF80630 		ldrh	r3, [sp, #6]
 1197 00dc 9DF80620 		ldrb	r2, [sp, #6]	@ zero_extendqisi2
 1198 00e0 1B0A     		lsrs	r3, r3, #8
 572:../Middlewares/stm32-mw-camera/sensors/cmw_vd66gy.c ****   dgain_max_mdB = (uint32_t) LINEAR_TO_MDECIBEL(FP58_TO_FLOAT(dgain_regmax));
 1199              		.loc 1 572 30 view .LVU317
 1200 00e2 B0EE409B 		vmov.f64	d9, d0
 1201              	.LVL111:
 573:../Middlewares/stm32-mw-camera/sensors/cmw_vd66gy.c **** 
 1202              		.loc 1 573 3 is_stmt 1 view .LVU318
 573:../Middlewares/stm32-mw-camera/sensors/cmw_vd66gy.c **** 
 1203              		.loc 1 573 30 is_stmt 0 view .LVU319
 1204 00e6 07EE902A 		vmov	s15, r2	@ int
 1205 00ea 00EE103A 		vmov	s0, r3	@ int
 1206              	.LVL112:
 573:../Middlewares/stm32-mw-camera/sensors/cmw_vd66gy.c **** 
 1207              		.loc 1 573 30 view .LVU320
 1208 00ee F8EEE77A 		vcvt.f32.s32	s15, s15
 1209 00f2 B8EEC00A 		vcvt.f32.s32	s0, s0
 1210 00f6 A7EE8C0A 		vfma.f32	s0, s15, s24
 1211 00fa B7EEC00A 		vcvt.f64.f32	d0, s0
 1212 00fe FFF7FEFF 		bl	log10
 1213              	.LVL113:
 575:../Middlewares/stm32-mw-camera/sensors/cmw_vd66gy.c ****   info->gain_max = again_max_mdB + dgain_max_mdB;
 1214              		.loc 1 575 3 is_stmt 1 view .LVU321
 570:../Middlewares/stm32-mw-camera/sensors/cmw_vd66gy.c ****   again_max_mdB = (uint32_t) LINEAR_TO_MDECIBEL(32 / (32 - again_regmax));
 1215              		.loc 1 570 30 is_stmt 0 discriminator 1 view .LVU322
 1216 0102 28EE0B8B 		vmul.f64	d8, d8, d11
 1217              	.LVL114:
 572:../Middlewares/stm32-mw-camera/sensors/cmw_vd66gy.c ****   dgain_max_mdB = (uint32_t) LINEAR_TO_MDECIBEL(FP58_TO_FLOAT(dgain_regmax));
 1218              		.loc 1 572 30 discriminator 1 view .LVU323
ARM GAS  /tmp/ccOQJSAL.s 			page 37


 1219 0106 29EE0B9B 		vmul.f64	d9, d9, d11
 1220              	.LVL115:
 570:../Middlewares/stm32-mw-camera/sensors/cmw_vd66gy.c ****   again_max_mdB = (uint32_t) LINEAR_TO_MDECIBEL(32 / (32 - again_regmax));
 1221              		.loc 1 570 30 discriminator 1 view .LVU324
 1222 010a 28EE0A8B 		vmul.f64	d8, d8, d10
 572:../Middlewares/stm32-mw-camera/sensors/cmw_vd66gy.c ****   dgain_max_mdB = (uint32_t) LINEAR_TO_MDECIBEL(FP58_TO_FLOAT(dgain_regmax));
 1223              		.loc 1 572 30 discriminator 1 view .LVU325
 1224 010e 29EE0A9B 		vmul.f64	d9, d9, d10
 573:../Middlewares/stm32-mw-camera/sensors/cmw_vd66gy.c **** 
 1225              		.loc 1 573 30 discriminator 1 view .LVU326
 1226 0112 20EE0B0B 		vmul.f64	d0, d0, d11
 1227              	.LVL116:
 570:../Middlewares/stm32-mw-camera/sensors/cmw_vd66gy.c ****   again_max_mdB = (uint32_t) LINEAR_TO_MDECIBEL(32 / (32 - again_regmax));
 1228              		.loc 1 570 17 discriminator 1 view .LVU327
 1229 0116 BCEEC88B 		vcvt.u32.f64	s16, d8
 572:../Middlewares/stm32-mw-camera/sensors/cmw_vd66gy.c ****   dgain_max_mdB = (uint32_t) LINEAR_TO_MDECIBEL(FP58_TO_FLOAT(dgain_regmax));
 1230              		.loc 1 572 17 discriminator 1 view .LVU328
 1231 011a BCEEC99B 		vcvt.u32.f64	s18, d9
 573:../Middlewares/stm32-mw-camera/sensors/cmw_vd66gy.c **** 
 1232              		.loc 1 573 30 discriminator 1 view .LVU329
 1233 011e 20EE0A0B 		vmul.f64	d0, d0, d10
 575:../Middlewares/stm32-mw-camera/sensors/cmw_vd66gy.c ****   info->gain_max = again_max_mdB + dgain_max_mdB;
 1234              		.loc 1 575 34 view .LVU330
 1235 0122 19EE102A 		vmov	r2, s18	@ int
 1236 0126 18EE103A 		vmov	r3, s16	@ int
 573:../Middlewares/stm32-mw-camera/sensors/cmw_vd66gy.c **** 
 1237              		.loc 1 573 17 discriminator 1 view .LVU331
 1238 012a BCEEC00B 		vcvt.u32.f64	s0, d0
 575:../Middlewares/stm32-mw-camera/sensors/cmw_vd66gy.c ****   info->gain_max = again_max_mdB + dgain_max_mdB;
 1239              		.loc 1 575 34 view .LVU332
 1240 012e 1344     		add	r3, r3, r2
 575:../Middlewares/stm32-mw-camera/sensors/cmw_vd66gy.c ****   info->gain_max = again_max_mdB + dgain_max_mdB;
 1241              		.loc 1 575 18 view .LVU333
 1242 0130 E362     		str	r3, [r4, #44]
 576:../Middlewares/stm32-mw-camera/sensors/cmw_vd66gy.c ****   info->again_max = again_max_mdB;
 1243              		.loc 1 576 3 is_stmt 1 view .LVU334
 576:../Middlewares/stm32-mw-camera/sensors/cmw_vd66gy.c ****   info->again_max = again_max_mdB;
 1244              		.loc 1 576 34 is_stmt 0 view .LVU335
 1245 0132 10EE103A 		vmov	r3, s0	@ int
 1246 0136 3344     		add	r3, r3, r6
 580:../Middlewares/stm32-mw-camera/sensors/cmw_vd66gy.c ****   if (ret)
 1247              		.loc 1 580 9 view .LVU336
 1248 0138 2846     		mov	r0, r5
 577:../Middlewares/stm32-mw-camera/sensors/cmw_vd66gy.c **** 
 1249              		.loc 1 577 19 view .LVU337
 1250 013a C4E90C36 		strd	r3, r6, [r4, #48]
 580:../Middlewares/stm32-mw-camera/sensors/cmw_vd66gy.c ****   if (ret)
 1251              		.loc 1 580 3 is_stmt 1 view .LVU338
 580:../Middlewares/stm32-mw-camera/sensors/cmw_vd66gy.c ****   if (ret)
 1252              		.loc 1 580 9 is_stmt 0 view .LVU339
 1253 013e 04F13C02 		add	r2, r4, #60
 1254 0142 04F13801 		add	r1, r4, #56
 1255 0146 FFF7FEFF 		bl	VD6G_GetExposureRegRange
 1256              	.LVL117:
 581:../Middlewares/stm32-mw-camera/sensors/cmw_vd66gy.c ****     return ret;
 1257              		.loc 1 581 3 is_stmt 1 view .LVU340
 1258              	.L41:
ARM GAS  /tmp/ccOQJSAL.s 			page 38


 585:../Middlewares/stm32-mw-camera/sensors/cmw_vd66gy.c **** 
 1259              		.loc 1 585 1 is_stmt 0 view .LVU341
 1260 014a 02B0     		add	sp, sp, #8
 1261              		.cfi_remember_state
 1262              		.cfi_def_cfa_offset 56
 1263              		@ sp needed
 1264 014c BDEC0A8B 		vldm	sp!, {d8-d12}
 1265              		.cfi_restore 88
 1266              		.cfi_restore 89
 1267              		.cfi_restore 86
 1268              		.cfi_restore 87
 1269              		.cfi_restore 84
 1270              		.cfi_restore 85
 1271              		.cfi_restore 82
 1272              		.cfi_restore 83
 1273              		.cfi_restore 80
 1274              		.cfi_restore 81
 1275              		.cfi_def_cfa_offset 16
 1276 0150 70BD     		pop	{r4, r5, r6, pc}
 1277              	.LVL118:
 1278              	.L44:
 1279              		.cfi_restore_state
 539:../Middlewares/stm32-mw-camera/sensors/cmw_vd66gy.c **** 
 1280              		.loc 1 539 12 view .LVU342
 1281 0152 6FF00100 		mvn	r0, #1
 1282              	.LVL119:
 539:../Middlewares/stm32-mw-camera/sensors/cmw_vd66gy.c **** 
 1283              		.loc 1 539 12 view .LVU343
 1284 0156 F8E7     		b	.L41
 1285              	.L46:
 1286              		.align	3
 1287              	.L45:
 1288 0158 00000000 		.word	0
 1289 015c 00408F40 		.word	1083129856
 1290 0160 00000000 		.word	.LC0
 1291 0164 0000803B 		.word	998244352
 1292              		.cfi_endproc
 1293              	.LFE1501:
 1295              		.section	.text.CMW_VD66GY_Stop,"ax",%progbits
 1296              		.align	1
 1297              		.syntax unified
 1298              		.thumb
 1299              		.thumb_func
 1301              	CMW_VD66GY_Stop:
 1302              	.LVL120:
 1303              	.LFB1494:
 359:../Middlewares/stm32-mw-camera/sensors/cmw_vd66gy.c ****   int ret = CMW_ERROR_NONE;
 1304              		.loc 1 359 1 is_stmt 1 view -0
 1305              		.cfi_startproc
 1306              		@ args = 0, pretend = 0, frame = 0
 1307              		@ frame_needed = 0, uses_anonymous_args = 0
 360:../Middlewares/stm32-mw-camera/sensors/cmw_vd66gy.c **** 
 1308              		.loc 1 360 3 view .LVU345
 362:../Middlewares/stm32-mw-camera/sensors/cmw_vd66gy.c ****   if (ret)
 1309              		.loc 1 362 3 view .LVU346
 359:../Middlewares/stm32-mw-camera/sensors/cmw_vd66gy.c ****   int ret = CMW_ERROR_NONE;
 1310              		.loc 1 359 1 is_stmt 0 view .LVU347
ARM GAS  /tmp/ccOQJSAL.s 			page 39


 1311 0000 08B5     		push	{r3, lr}
 1312              		.cfi_def_cfa_offset 8
 1313              		.cfi_offset 3, -8
 1314              		.cfi_offset 14, -4
 362:../Middlewares/stm32-mw-camera/sensors/cmw_vd66gy.c ****   if (ret)
 1315              		.loc 1 362 9 view .LVU348
 1316 0002 0430     		adds	r0, r0, #4
 1317              	.LVL121:
 362:../Middlewares/stm32-mw-camera/sensors/cmw_vd66gy.c ****   if (ret)
 1318              		.loc 1 362 9 view .LVU349
 1319 0004 FFF7FEFF 		bl	VD6G_Stop
 1320              	.LVL122:
 363:../Middlewares/stm32-mw-camera/sensors/cmw_vd66gy.c ****   {
 1321              		.loc 1 363 3 is_stmt 1 view .LVU350
 365:../Middlewares/stm32-mw-camera/sensors/cmw_vd66gy.c ****   }
 1322              		.loc 1 365 12 is_stmt 0 view .LVU351
 1323 0008 0028     		cmp	r0, #0
 368:../Middlewares/stm32-mw-camera/sensors/cmw_vd66gy.c **** 
 1324              		.loc 1 368 1 view .LVU352
 1325 000a 18BF     		it	ne
 1326 000c 6FF00300 		mvnne	r0, #3
 1327              	.LVL123:
 368:../Middlewares/stm32-mw-camera/sensors/cmw_vd66gy.c **** 
 1328              		.loc 1 368 1 view .LVU353
 1329 0010 08BD     		pop	{r3, pc}
 1330              		.cfi_endproc
 1331              	.LFE1494:
 1333              		.section	.text.CMW_VD66GY_Start,"ax",%progbits
 1334              		.align	1
 1335              		.syntax unified
 1336              		.thumb
 1337              		.thumb_func
 1339              	CMW_VD66GY_Start:
 1340              	.LVL124:
 1341              	.LFB1492:
 317:../Middlewares/stm32-mw-camera/sensors/cmw_vd66gy.c ****   int ret = CMW_ERROR_NONE;
 1342              		.loc 1 317 1 is_stmt 1 view -0
 1343              		.cfi_startproc
 1344              		@ args = 0, pretend = 0, frame = 0
 1345              		@ frame_needed = 0, uses_anonymous_args = 0
 318:../Middlewares/stm32-mw-camera/sensors/cmw_vd66gy.c **** 
 1346              		.loc 1 318 3 view .LVU355
 324:../Middlewares/stm32-mw-camera/sensors/cmw_vd66gy.c ****   ret = ISP_Init(&((CMW_VD66GY_t *)io_ctx)->hIsp, ((CMW_VD66GY_t *)io_ctx)->hdcmipp, 0, &((CMW_VD66
 1347              		.loc 1 324 3 view .LVU356
 325:../Middlewares/stm32-mw-camera/sensors/cmw_vd66gy.c ****   if (ret != ISP_OK)
 1348              		.loc 1 325 3 view .LVU357
 317:../Middlewares/stm32-mw-camera/sensors/cmw_vd66gy.c ****   int ret = CMW_ERROR_NONE;
 1349              		.loc 1 317 1 is_stmt 0 view .LVU358
 1350 0000 37B5     		push	{r0, r1, r2, r4, r5, lr}
 1351              		.cfi_def_cfa_offset 24
 1352              		.cfi_offset 4, -12
 1353              		.cfi_offset 5, -8
 1354              		.cfi_offset 14, -4
 325:../Middlewares/stm32-mw-camera/sensors/cmw_vd66gy.c ****   if (ret != ISP_OK)
 1355              		.loc 1 325 9 view .LVU359
 1356 0002 104B     		ldr	r3, .L57
 1357 0004 00F16C05 		add	r5, r0, #108
ARM GAS  /tmp/ccOQJSAL.s 			page 40


 1358 0008 0093     		str	r3, [sp]
 317:../Middlewares/stm32-mw-camera/sensors/cmw_vd66gy.c ****   int ret = CMW_ERROR_NONE;
 1359              		.loc 1 317 1 view .LVU360
 1360 000a 0446     		mov	r4, r0
 325:../Middlewares/stm32-mw-camera/sensors/cmw_vd66gy.c ****   if (ret != ISP_OK)
 1361              		.loc 1 325 9 view .LVU361
 1362 000c D0F81C11 		ldr	r1, [r0, #284]
 1363 0010 00F1F803 		add	r3, r0, #248
 1364 0014 0022     		movs	r2, #0
 1365 0016 2846     		mov	r0, r5
 1366              	.LVL125:
 325:../Middlewares/stm32-mw-camera/sensors/cmw_vd66gy.c ****   if (ret != ISP_OK)
 1367              		.loc 1 325 9 view .LVU362
 1368 0018 FFF7FEFF 		bl	ISP_Init
 1369              	.LVL126:
 326:../Middlewares/stm32-mw-camera/sensors/cmw_vd66gy.c ****   {
 1370              		.loc 1 326 3 is_stmt 1 view .LVU363
 326:../Middlewares/stm32-mw-camera/sensors/cmw_vd66gy.c ****   {
 1371              		.loc 1 326 6 is_stmt 0 view .LVU364
 1372 001c 78B9     		cbnz	r0, .L53
 331:../Middlewares/stm32-mw-camera/sensors/cmw_vd66gy.c ****   if (ret != ISP_OK)
 1373              		.loc 1 331 3 is_stmt 1 view .LVU365
 331:../Middlewares/stm32-mw-camera/sensors/cmw_vd66gy.c ****   if (ret != ISP_OK)
 1374              		.loc 1 331 9 is_stmt 0 view .LVU366
 1375 001e 2846     		mov	r0, r5
 1376              	.LVL127:
 331:../Middlewares/stm32-mw-camera/sensors/cmw_vd66gy.c ****   if (ret != ISP_OK)
 1377              		.loc 1 331 9 view .LVU367
 1378 0020 FFF7FEFF 		bl	ISP_Start
 1379              	.LVL128:
 332:../Middlewares/stm32-mw-camera/sensors/cmw_vd66gy.c ****   {
 1380              		.loc 1 332 3 is_stmt 1 view .LVU368
 332:../Middlewares/stm32-mw-camera/sensors/cmw_vd66gy.c ****   {
 1381              		.loc 1 332 6 is_stmt 0 view .LVU369
 1382 0024 38B9     		cbnz	r0, .L52
 337:../Middlewares/stm32-mw-camera/sensors/cmw_vd66gy.c ****   if (ret) {
 1383              		.loc 1 337 3 is_stmt 1 view .LVU370
 337:../Middlewares/stm32-mw-camera/sensors/cmw_vd66gy.c ****   if (ret) {
 1384              		.loc 1 337 9 is_stmt 0 view .LVU371
 1385 0026 0434     		adds	r4, r4, #4
 1386              	.LVL129:
 337:../Middlewares/stm32-mw-camera/sensors/cmw_vd66gy.c ****   if (ret) {
 1387              		.loc 1 337 9 view .LVU372
 1388 0028 2046     		mov	r0, r4
 1389              	.LVL130:
 337:../Middlewares/stm32-mw-camera/sensors/cmw_vd66gy.c ****   if (ret) {
 1390              		.loc 1 337 9 view .LVU373
 1391 002a FFF7FEFF 		bl	VD6G_Start
 1392              	.LVL131:
 338:../Middlewares/stm32-mw-camera/sensors/cmw_vd66gy.c ****     VD6G_DeInit(&((CMW_VD66GY_t *)io_ctx)->ctx_driver);
 1393              		.loc 1 338 3 is_stmt 1 view .LVU374
 338:../Middlewares/stm32-mw-camera/sensors/cmw_vd66gy.c ****     VD6G_DeInit(&((CMW_VD66GY_t *)io_ctx)->ctx_driver);
 1394              		.loc 1 338 6 is_stmt 0 view .LVU375
 1395 002e 20B1     		cbz	r0, .L50
 339:../Middlewares/stm32-mw-camera/sensors/cmw_vd66gy.c ****     return CMW_ERROR_PERIPH_FAILURE;
 1396              		.loc 1 339 5 is_stmt 1 view .LVU376
 1397 0030 2046     		mov	r0, r4
ARM GAS  /tmp/ccOQJSAL.s 			page 41


 1398              	.LVL132:
 339:../Middlewares/stm32-mw-camera/sensors/cmw_vd66gy.c ****     return CMW_ERROR_PERIPH_FAILURE;
 1399              		.loc 1 339 5 is_stmt 0 view .LVU377
 1400 0032 FFF7FEFF 		bl	VD6G_DeInit
 1401              	.LVL133:
 340:../Middlewares/stm32-mw-camera/sensors/cmw_vd66gy.c ****   }
 1402              		.loc 1 340 5 is_stmt 1 view .LVU378
 1403              	.L52:
 334:../Middlewares/stm32-mw-camera/sensors/cmw_vd66gy.c ****   }
 1404              		.loc 1 334 14 is_stmt 0 view .LVU379
 1405 0036 6FF00300 		mvn	r0, #3
 1406              	.L50:
 343:../Middlewares/stm32-mw-camera/sensors/cmw_vd66gy.c **** 
 1407              		.loc 1 343 1 view .LVU380
 1408 003a 03B0     		add	sp, sp, #12
 1409              		.cfi_remember_state
 1410              		.cfi_def_cfa_offset 12
 1411              		@ sp needed
 1412 003c 30BD     		pop	{r4, r5, pc}
 1413              	.LVL134:
 1414              	.L53:
 1415              		.cfi_restore_state
 328:../Middlewares/stm32-mw-camera/sensors/cmw_vd66gy.c ****   }
 1416              		.loc 1 328 12 view .LVU381
 1417 003e 6FF00400 		mvn	r0, #4
 1418              	.LVL135:
 328:../Middlewares/stm32-mw-camera/sensors/cmw_vd66gy.c ****   }
 1419              		.loc 1 328 12 view .LVU382
 1420 0042 FAE7     		b	.L50
 1421              	.L58:
 1422              		.align	2
 1423              	.L57:
 1424 0044 00000000 		.word	ISP_IQParamCacheInit_VD66GY
 1425              		.cfi_endproc
 1426              	.LFE1492:
 1428              		.section	.text.CMW_VD66GY_DeInit,"ax",%progbits
 1429              		.align	1
 1430              		.syntax unified
 1431              		.thumb
 1432              		.thumb_func
 1434              	CMW_VD66GY_DeInit:
 1435              	.LVL136:
 1436              	.LFB1495:
 371:../Middlewares/stm32-mw-camera/sensors/cmw_vd66gy.c ****   int ret = CMW_ERROR_NONE;
 1437              		.loc 1 371 1 is_stmt 1 view -0
 1438              		.cfi_startproc
 1439              		@ args = 0, pretend = 0, frame = 0
 1440              		@ frame_needed = 0, uses_anonymous_args = 0
 372:../Middlewares/stm32-mw-camera/sensors/cmw_vd66gy.c **** 
 1441              		.loc 1 372 3 view .LVU384
 374:../Middlewares/stm32-mw-camera/sensors/cmw_vd66gy.c ****   if (ret)
 1442              		.loc 1 374 3 view .LVU385
 371:../Middlewares/stm32-mw-camera/sensors/cmw_vd66gy.c ****   int ret = CMW_ERROR_NONE;
 1443              		.loc 1 371 1 is_stmt 0 view .LVU386
 1444 0000 38B5     		push	{r3, r4, r5, lr}
 1445              		.cfi_def_cfa_offset 16
 1446              		.cfi_offset 3, -16
ARM GAS  /tmp/ccOQJSAL.s 			page 42


 1447              		.cfi_offset 4, -12
 1448              		.cfi_offset 5, -8
 1449              		.cfi_offset 14, -4
 374:../Middlewares/stm32-mw-camera/sensors/cmw_vd66gy.c ****   if (ret)
 1450              		.loc 1 374 9 view .LVU387
 1451 0002 051D     		adds	r5, r0, #4
 371:../Middlewares/stm32-mw-camera/sensors/cmw_vd66gy.c ****   int ret = CMW_ERROR_NONE;
 1452              		.loc 1 371 1 view .LVU388
 1453 0004 0446     		mov	r4, r0
 374:../Middlewares/stm32-mw-camera/sensors/cmw_vd66gy.c ****   if (ret)
 1454              		.loc 1 374 9 view .LVU389
 1455 0006 2846     		mov	r0, r5
 1456              	.LVL137:
 374:../Middlewares/stm32-mw-camera/sensors/cmw_vd66gy.c ****   if (ret)
 1457              		.loc 1 374 9 view .LVU390
 1458 0008 FFF7FEFF 		bl	VD6G_Stop
 1459              	.LVL138:
 375:../Middlewares/stm32-mw-camera/sensors/cmw_vd66gy.c ****   {
 1460              		.loc 1 375 3 is_stmt 1 view .LVU391
 375:../Middlewares/stm32-mw-camera/sensors/cmw_vd66gy.c ****   {
 1461              		.loc 1 375 6 is_stmt 0 view .LVU392
 1462 000c 10B1     		cbz	r0, .L60
 1463              	.L62:
 377:../Middlewares/stm32-mw-camera/sensors/cmw_vd66gy.c ****   }
 1464              		.loc 1 377 12 view .LVU393
 1465 000e 6FF00300 		mvn	r0, #3
 1466              	.LVL139:
 1467              	.L59:
 388:../Middlewares/stm32-mw-camera/sensors/cmw_vd66gy.c **** 
 1468              		.loc 1 388 1 view .LVU394
 1469 0012 38BD     		pop	{r3, r4, r5, pc}
 1470              	.LVL140:
 1471              	.L60:
 380:../Middlewares/stm32-mw-camera/sensors/cmw_vd66gy.c ****   if (ret)
 1472              		.loc 1 380 3 is_stmt 1 view .LVU395
 380:../Middlewares/stm32-mw-camera/sensors/cmw_vd66gy.c ****   if (ret)
 1473              		.loc 1 380 9 is_stmt 0 view .LVU396
 1474 0014 2846     		mov	r0, r5
 1475              	.LVL141:
 380:../Middlewares/stm32-mw-camera/sensors/cmw_vd66gy.c ****   if (ret)
 1476              		.loc 1 380 9 view .LVU397
 1477 0016 FFF7FEFF 		bl	VD6G_DeInit
 1478              	.LVL142:
 381:../Middlewares/stm32-mw-camera/sensors/cmw_vd66gy.c ****   {
 1479              		.loc 1 381 3 is_stmt 1 view .LVU398
 381:../Middlewares/stm32-mw-camera/sensors/cmw_vd66gy.c ****   {
 1480              		.loc 1 381 6 is_stmt 0 view .LVU399
 1481 001a 0028     		cmp	r0, #0
 1482 001c F7D1     		bne	.L62
 386:../Middlewares/stm32-mw-camera/sensors/cmw_vd66gy.c ****   return CMW_ERROR_NONE;
 1483              		.loc 1 386 3 is_stmt 1 view .LVU400
 386:../Middlewares/stm32-mw-camera/sensors/cmw_vd66gy.c ****   return CMW_ERROR_NONE;
 1484              		.loc 1 386 43 is_stmt 0 view .LVU401
 1485 001e 84F82001 		strb	r0, [r4, #288]
 387:../Middlewares/stm32-mw-camera/sensors/cmw_vd66gy.c **** }
 1486              		.loc 1 387 3 is_stmt 1 view .LVU402
 387:../Middlewares/stm32-mw-camera/sensors/cmw_vd66gy.c **** }
ARM GAS  /tmp/ccOQJSAL.s 			page 43


 1487              		.loc 1 387 10 is_stmt 0 view .LVU403
 1488 0022 F6E7     		b	.L59
 1489              		.cfi_endproc
 1490              	.LFE1495:
 1492              		.section	.text.CMW_VD66GY_Run,"ax",%progbits
 1493              		.align	1
 1494              		.syntax unified
 1495              		.thumb
 1496              		.thumb_func
 1498              	CMW_VD66GY_Run:
 1499              	.LVL143:
 1500              	.LFB1493:
 346:../Middlewares/stm32-mw-camera/sensors/cmw_vd66gy.c **** #ifndef ISP_MW_TUNING_TOOL_SUPPORT
 1501              		.loc 1 346 1 is_stmt 1 view -0
 1502              		.cfi_startproc
 1503              		@ args = 0, pretend = 0, frame = 0
 1504              		@ frame_needed = 0, uses_anonymous_args = 0
 348:../Middlewares/stm32-mw-camera/sensors/cmw_vd66gy.c ****   ret = ISP_BackgroundProcess(&((CMW_VD66GY_t *)io_ctx)->hIsp);
 1505              		.loc 1 348 3 view .LVU405
 349:../Middlewares/stm32-mw-camera/sensors/cmw_vd66gy.c ****   if (ret != ISP_OK)
 1506              		.loc 1 349 3 view .LVU406
 346:../Middlewares/stm32-mw-camera/sensors/cmw_vd66gy.c **** #ifndef ISP_MW_TUNING_TOOL_SUPPORT
 1507              		.loc 1 346 1 is_stmt 0 view .LVU407
 1508 0000 08B5     		push	{r3, lr}
 1509              		.cfi_def_cfa_offset 8
 1510              		.cfi_offset 3, -8
 1511              		.cfi_offset 14, -4
 349:../Middlewares/stm32-mw-camera/sensors/cmw_vd66gy.c ****   if (ret != ISP_OK)
 1512              		.loc 1 349 9 view .LVU408
 1513 0002 6C30     		adds	r0, r0, #108
 1514              	.LVL144:
 349:../Middlewares/stm32-mw-camera/sensors/cmw_vd66gy.c ****   if (ret != ISP_OK)
 1515              		.loc 1 349 9 view .LVU409
 1516 0004 FFF7FEFF 		bl	ISP_BackgroundProcess
 1517              	.LVL145:
 350:../Middlewares/stm32-mw-camera/sensors/cmw_vd66gy.c ****   {
 1518              		.loc 1 350 3 is_stmt 1 view .LVU410
 355:../Middlewares/stm32-mw-camera/sensors/cmw_vd66gy.c **** }
 1519              		.loc 1 355 10 is_stmt 0 view .LVU411
 1520 0008 0028     		cmp	r0, #0
 356:../Middlewares/stm32-mw-camera/sensors/cmw_vd66gy.c **** 
 1521              		.loc 1 356 1 view .LVU412
 1522 000a 14BF     		ite	ne
 1523 000c 6FF00300 		mvnne	r0, #3
 1524              	.LVL146:
 356:../Middlewares/stm32-mw-camera/sensors/cmw_vd66gy.c **** 
 1525              		.loc 1 356 1 view .LVU413
 1526 0010 0020     		moveq	r0, #0
 1527 0012 08BD     		pop	{r3, pc}
 1528              		.cfi_endproc
 1529              	.LFE1493:
 1531              		.section	.text.CMW_VD66GY_Init,"ax",%progbits
 1532              		.align	1
 1533              		.syntax unified
 1534              		.thumb
 1535              		.thumb_func
 1537              	CMW_VD66GY_Init:
ARM GAS  /tmp/ccOQJSAL.s 			page 44


 1538              	.LVL147:
 1539              	.LFB1490:
 235:../Middlewares/stm32-mw-camera/sensors/cmw_vd66gy.c ****   VD6G_Config_t config = { 0 };
 1540              		.loc 1 235 1 is_stmt 1 view -0
 1541              		.cfi_startproc
 1542              		@ args = 0, pretend = 0, frame = 56
 1543              		@ frame_needed = 0, uses_anonymous_args = 0
 236:../Middlewares/stm32-mw-camera/sensors/cmw_vd66gy.c ****   int ret;
 1544              		.loc 1 236 3 view .LVU415
 235:../Middlewares/stm32-mw-camera/sensors/cmw_vd66gy.c ****   VD6G_Config_t config = { 0 };
 1545              		.loc 1 235 1 is_stmt 0 view .LVU416
 1546 0000 70B5     		push	{r4, r5, r6, lr}
 1547              		.cfi_def_cfa_offset 16
 1548              		.cfi_offset 4, -16
 1549              		.cfi_offset 5, -12
 1550              		.cfi_offset 6, -8
 1551              		.cfi_offset 14, -4
 1552 0002 0C46     		mov	r4, r1
 1553 0004 8EB0     		sub	sp, sp, #56
 1554              		.cfi_def_cfa_offset 72
 236:../Middlewares/stm32-mw-camera/sensors/cmw_vd66gy.c ****   int ret;
 1555              		.loc 1 236 17 view .LVU417
 1556 0006 0021     		movs	r1, #0
 1557              	.LVL148:
 235:../Middlewares/stm32-mw-camera/sensors/cmw_vd66gy.c ****   VD6G_Config_t config = { 0 };
 1558              		.loc 1 235 1 view .LVU418
 1559 0008 0546     		mov	r5, r0
 236:../Middlewares/stm32-mw-camera/sensors/cmw_vd66gy.c ****   int ret;
 1560              		.loc 1 236 17 view .LVU419
 1561 000a 3822     		movs	r2, #56
 1562 000c 6846     		mov	r0, sp
 1563              	.LVL149:
 236:../Middlewares/stm32-mw-camera/sensors/cmw_vd66gy.c ****   int ret;
 1564              		.loc 1 236 17 view .LVU420
 1565 000e FFF7FEFF 		bl	memset
 1566              	.LVL150:
 237:../Middlewares/stm32-mw-camera/sensors/cmw_vd66gy.c ****   int i;
 1567              		.loc 1 237 3 is_stmt 1 view .LVU421
 238:../Middlewares/stm32-mw-camera/sensors/cmw_vd66gy.c ****   CMW_VD66GY_config_t *sensor_config;
 1568              		.loc 1 238 3 view .LVU422
 239:../Middlewares/stm32-mw-camera/sensors/cmw_vd66gy.c ****   sensor_config = (CMW_VD66GY_config_t*)(initSensor->sensor_config);
 1569              		.loc 1 239 3 view .LVU423
 240:../Middlewares/stm32-mw-camera/sensors/cmw_vd66gy.c ****   if (sensor_config == NULL)
 1570              		.loc 1 240 3 view .LVU424
 240:../Middlewares/stm32-mw-camera/sensors/cmw_vd66gy.c ****   if (sensor_config == NULL)
 1571              		.loc 1 240 17 is_stmt 0 view .LVU425
 1572 0012 2169     		ldr	r1, [r4, #16]
 1573              	.LVL151:
 241:../Middlewares/stm32-mw-camera/sensors/cmw_vd66gy.c ****   {
 1574              		.loc 1 241 3 is_stmt 1 view .LVU426
 241:../Middlewares/stm32-mw-camera/sensors/cmw_vd66gy.c ****   {
 1575              		.loc 1 241 6 is_stmt 0 view .LVU427
 1576 0014 19B9     		cbnz	r1, .L67
 1577              	.L72:
 243:../Middlewares/stm32-mw-camera/sensors/cmw_vd66gy.c ****   }
 1578              		.loc 1 243 12 view .LVU428
 1579 0016 6FF00100 		mvn	r0, #1
ARM GAS  /tmp/ccOQJSAL.s 			page 45


 1580              	.LVL152:
 1581              	.L66:
 307:../Middlewares/stm32-mw-camera/sensors/cmw_vd66gy.c **** 
 1582              		.loc 1 307 1 view .LVU429
 1583 001a 0EB0     		add	sp, sp, #56
 1584              		.cfi_remember_state
 1585              		.cfi_def_cfa_offset 16
 1586              		@ sp needed
 1587 001c 70BD     		pop	{r4, r5, r6, pc}
 1588              	.LVL153:
 1589              	.L67:
 1590              		.cfi_restore_state
 246:../Middlewares/stm32-mw-camera/sensors/cmw_vd66gy.c ****   {
 1591              		.loc 1 246 3 is_stmt 1 view .LVU430
 246:../Middlewares/stm32-mw-camera/sensors/cmw_vd66gy.c ****   {
 1592              		.loc 1 246 6 is_stmt 0 view .LVU431
 1593 001e 95F82031 		ldrb	r3, [r5, #288]	@ zero_extendqisi2
 1594 0022 0BB1     		cbz	r3, .L69
 1595              	.LVL154:
 1596              	.L79:
 248:../Middlewares/stm32-mw-camera/sensors/cmw_vd66gy.c ****   }
 1597              		.loc 1 248 12 view .LVU432
 1598 0024 0020     		movs	r0, #0
 1599 0026 F8E7     		b	.L66
 1600              	.LVL155:
 1601              	.L69:
 251:../Middlewares/stm32-mw-camera/sensors/cmw_vd66gy.c ****   ret = CMW_VD66GY_GetResType(initSensor->width, initSensor->height, &config.resolution);
 1602              		.loc 1 251 3 is_stmt 1 view .LVU433
 251:../Middlewares/stm32-mw-camera/sensors/cmw_vd66gy.c ****   ret = CMW_VD66GY_GetResType(initSensor->width, initSensor->height, &config.resolution);
 1603              		.loc 1 251 21 is_stmt 0 view .LVU434
 1604 0028 A368     		ldr	r3, [r4, #8]
 1605 002a 0293     		str	r3, [sp, #8]
 252:../Middlewares/stm32-mw-camera/sensors/cmw_vd66gy.c ****   if (ret)
 1606              		.loc 1 252 3 is_stmt 1 view .LVU435
 252:../Middlewares/stm32-mw-camera/sensors/cmw_vd66gy.c ****   if (ret)
 1607              		.loc 1 252 9 is_stmt 0 view .LVU436
 1608 002c D4E90023 		ldrd	r2, r3, [r4]
 1609              	.LVL156:
 1610              	.LBB39:
 1611              	.LBI39:
 181:../Middlewares/stm32-mw-camera/sensors/cmw_vd66gy.c **** {
 1612              		.loc 1 181 12 is_stmt 1 view .LVU437
 1613              	.LBB40:
 183:../Middlewares/stm32-mw-camera/sensors/cmw_vd66gy.c ****   {
 1614              		.loc 1 183 3 view .LVU438
 183:../Middlewares/stm32-mw-camera/sensors/cmw_vd66gy.c ****   {
 1615              		.loc 1 183 6 is_stmt 0 view .LVU439
 1616 0030 B2F5A07F 		cmp	r2, #320
 1617 0034 0AD1     		bne	.L70
 183:../Middlewares/stm32-mw-camera/sensors/cmw_vd66gy.c ****   {
 1618              		.loc 1 183 20 discriminator 1 view .LVU440
 1619 0036 F02B     		cmp	r3, #240
 1620 0038 EDD1     		bne	.L72
 1621              	.LVL157:
 1622              	.L71:
 183:../Middlewares/stm32-mw-camera/sensors/cmw_vd66gy.c ****   {
 1623              		.loc 1 183 20 discriminator 1 view .LVU441
ARM GAS  /tmp/ccOQJSAL.s 			page 46


 1624              	.LBE40:
 1625              	.LBE39:
 258:../Middlewares/stm32-mw-camera/sensors/cmw_vd66gy.c ****   {
 1626              		.loc 1 258 3 is_stmt 1 view .LVU442
 258:../Middlewares/stm32-mw-camera/sensors/cmw_vd66gy.c ****   {
 1627              		.loc 1 258 24 is_stmt 0 view .LVU443
 1628 003a 0B68     		ldr	r3, [r1]
 258:../Middlewares/stm32-mw-camera/sensors/cmw_vd66gy.c ****   {
 1629              		.loc 1 258 3 view .LVU444
 1630 003c 2A2B     		cmp	r3, #42
 1631 003e 25D0     		beq	.L80
 1632 0040 2B2B     		cmp	r3, #43
 1633 0042 01D0     		beq	.L81
 1634 0044 002B     		cmp	r3, #0
 1635 0046 4AD1     		bne	.L82
 1636              	.L81:
 1637 0048 0A23     		movs	r3, #10
 1638 004a 20E0     		b	.L76
 1639              	.LVL158:
 1640              	.L70:
 1641              	.LBB43:
 1642              	.LBB41:
 187:../Middlewares/stm32-mw-camera/sensors/cmw_vd66gy.c ****   {
 1643              		.loc 1 187 8 is_stmt 1 view .LVU445
 187:../Middlewares/stm32-mw-camera/sensors/cmw_vd66gy.c ****   {
 1644              		.loc 1 187 11 is_stmt 0 view .LVU446
 1645 004c B2F5207F 		cmp	r2, #640
 1646 0050 06D1     		bne	.L73
 187:../Middlewares/stm32-mw-camera/sensors/cmw_vd66gy.c ****   {
 1647              		.loc 1 187 25 discriminator 1 view .LVU447
 1648 0052 B3F5F07F 		cmp	r3, #480
 1649 0056 DED1     		bne	.L72
 189:../Middlewares/stm32-mw-camera/sensors/cmw_vd66gy.c ****   }
 1650              		.loc 1 189 5 is_stmt 1 view .LVU448
 189:../Middlewares/stm32-mw-camera/sensors/cmw_vd66gy.c ****   }
 1651              		.loc 1 189 10 is_stmt 0 view .LVU449
 1652 0058 0123     		movs	r3, #1
 1653              	.LVL159:
 1654              	.L86:
 201:../Middlewares/stm32-mw-camera/sensors/cmw_vd66gy.c ****   }
 1655              		.loc 1 201 10 view .LVU450
 1656 005a 8DF80430 		strb	r3, [sp, #4]
 1657              	.LVL160:
 201:../Middlewares/stm32-mw-camera/sensors/cmw_vd66gy.c ****   }
 1658              		.loc 1 201 10 view .LVU451
 1659              	.LBE41:
 1660              	.LBE43:
 253:../Middlewares/stm32-mw-camera/sensors/cmw_vd66gy.c ****   {
 1661              		.loc 1 253 3 is_stmt 1 view .LVU452
 1662 005e ECE7     		b	.L71
 1663              	.LVL161:
 1664              	.L73:
 1665              	.LBB44:
 1666              	.LBB42:
 191:../Middlewares/stm32-mw-camera/sensors/cmw_vd66gy.c ****   {
 1667              		.loc 1 191 8 view .LVU453
 191:../Middlewares/stm32-mw-camera/sensors/cmw_vd66gy.c ****   {
ARM GAS  /tmp/ccOQJSAL.s 			page 47


 1668              		.loc 1 191 11 is_stmt 0 view .LVU454
 1669 0060 B2F5806F 		cmp	r2, #1024
 1670 0064 04D1     		bne	.L74
 191:../Middlewares/stm32-mw-camera/sensors/cmw_vd66gy.c ****   {
 1671              		.loc 1 191 26 discriminator 1 view .LVU455
 1672 0066 B3F5407F 		cmp	r3, #768
 1673 006a D4D1     		bne	.L72
 193:../Middlewares/stm32-mw-camera/sensors/cmw_vd66gy.c ****   }
 1674              		.loc 1 193 5 is_stmt 1 view .LVU456
 193:../Middlewares/stm32-mw-camera/sensors/cmw_vd66gy.c ****   }
 1675              		.loc 1 193 10 is_stmt 0 view .LVU457
 1676 006c 0323     		movs	r3, #3
 1677              	.LVL162:
 193:../Middlewares/stm32-mw-camera/sensors/cmw_vd66gy.c ****   }
 1678              		.loc 1 193 10 view .LVU458
 1679 006e F4E7     		b	.L86
 1680              	.LVL163:
 1681              	.L74:
 195:../Middlewares/stm32-mw-camera/sensors/cmw_vd66gy.c ****   {
 1682              		.loc 1 195 8 is_stmt 1 view .LVU459
 195:../Middlewares/stm32-mw-camera/sensors/cmw_vd66gy.c ****   {
 1683              		.loc 1 195 11 is_stmt 0 view .LVU460
 1684 0070 B2F58C6F 		cmp	r2, #1120
 1685 0074 CFD1     		bne	.L72
 195:../Middlewares/stm32-mw-camera/sensors/cmw_vd66gy.c ****   {
 1686              		.loc 1 195 26 discriminator 1 view .LVU461
 1687 0076 B3F5347F 		cmp	r3, #720
 1688 007a 01D1     		bne	.L75
 197:../Middlewares/stm32-mw-camera/sensors/cmw_vd66gy.c ****   }
 1689              		.loc 1 197 5 is_stmt 1 view .LVU462
 197:../Middlewares/stm32-mw-camera/sensors/cmw_vd66gy.c ****   }
 1690              		.loc 1 197 10 is_stmt 0 view .LVU463
 1691 007c 0723     		movs	r3, #7
 1692              	.LVL164:
 197:../Middlewares/stm32-mw-camera/sensors/cmw_vd66gy.c ****   }
 1693              		.loc 1 197 10 view .LVU464
 1694 007e ECE7     		b	.L86
 1695              	.LVL165:
 1696              	.L75:
 199:../Middlewares/stm32-mw-camera/sensors/cmw_vd66gy.c ****   {
 1697              		.loc 1 199 8 is_stmt 1 view .LVU465
 199:../Middlewares/stm32-mw-camera/sensors/cmw_vd66gy.c ****   {
 1698              		.loc 1 199 26 is_stmt 0 discriminator 1 view .LVU466
 1699 0080 40F25452 		movw	r2, #1364
 1700              	.LVL166:
 199:../Middlewares/stm32-mw-camera/sensors/cmw_vd66gy.c ****   {
 1701              		.loc 1 199 26 discriminator 1 view .LVU467
 1702 0084 9342     		cmp	r3, r2
 1703 0086 C6D1     		bne	.L72
 201:../Middlewares/stm32-mw-camera/sensors/cmw_vd66gy.c ****   }
 1704              		.loc 1 201 5 is_stmt 1 view .LVU468
 201:../Middlewares/stm32-mw-camera/sensors/cmw_vd66gy.c ****   }
 1705              		.loc 1 201 10 is_stmt 0 view .LVU469
 1706 0088 0823     		movs	r3, #8
 1707              	.LVL167:
 201:../Middlewares/stm32-mw-camera/sensors/cmw_vd66gy.c ****   }
 1708              		.loc 1 201 10 view .LVU470
ARM GAS  /tmp/ccOQJSAL.s 			page 48


 1709 008a E6E7     		b	.L86
 1710              	.LVL168:
 1711              	.L80:
 201:../Middlewares/stm32-mw-camera/sensors/cmw_vd66gy.c ****   }
 1712              		.loc 1 201 10 view .LVU471
 1713              	.LBE42:
 1714              	.LBE44:
 258:../Middlewares/stm32-mw-camera/sensors/cmw_vd66gy.c ****   {
 1715              		.loc 1 258 3 view .LVU472
 1716 008c 0823     		movs	r3, #8
 1717              	.L76:
 263:../Middlewares/stm32-mw-camera/sensors/cmw_vd66gy.c ****       break;
 1718              		.loc 1 263 26 view .LVU473
 1719 008e 8DF81630 		strb	r3, [sp, #22]
 273:../Middlewares/stm32-mw-camera/sensors/cmw_vd66gy.c ****   }
 1720              		.loc 1 273 7 is_stmt 1 view .LVU474
 276:../Middlewares/stm32-mw-camera/sensors/cmw_vd66gy.c ****   config.line_len = sensor_config->line_len;
 1721              		.loc 1 276 3 view .LVU475
 276:../Middlewares/stm32-mw-camera/sensors/cmw_vd66gy.c ****   config.line_len = sensor_config->line_len;
 1722              		.loc 1 276 31 is_stmt 0 view .LVU476
 1723 0092 144B     		ldr	r3, .L87
 279:../Middlewares/stm32-mw-camera/sensors/cmw_vd66gy.c ****   config.out_itf.data_lane0_swap_enable = 1;
 1724              		.loc 1 279 41 view .LVU477
 1725 0094 0126     		movs	r6, #1
 276:../Middlewares/stm32-mw-camera/sensors/cmw_vd66gy.c ****   config.line_len = sensor_config->line_len;
 1726              		.loc 1 276 31 view .LVU478
 1727 0096 0093     		str	r3, [sp]
 277:../Middlewares/stm32-mw-camera/sensors/cmw_vd66gy.c ****   config.out_itf.datalane_nb = 2;
 1728              		.loc 1 277 3 is_stmt 1 view .LVU479
 277:../Middlewares/stm32-mw-camera/sensors/cmw_vd66gy.c ****   config.out_itf.datalane_nb = 2;
 1729              		.loc 1 277 19 is_stmt 0 view .LVU480
 1730 0098 4B68     		ldr	r3, [r1, #4]
 293:../Middlewares/stm32-mw-camera/sensors/cmw_vd66gy.c ****   if (ret)
 1731              		.loc 1 293 9 view .LVU481
 1732 009a 6946     		mov	r1, sp
 1733              	.LVL169:
 277:../Middlewares/stm32-mw-camera/sensors/cmw_vd66gy.c ****   config.out_itf.datalane_nb = 2;
 1734              		.loc 1 277 19 view .LVU482
 1735 009c 0493     		str	r3, [sp, #16]
 278:../Middlewares/stm32-mw-camera/sensors/cmw_vd66gy.c ****   config.out_itf.clock_lane_swap_enable = 1;
 1736              		.loc 1 278 3 is_stmt 1 view .LVU483
 279:../Middlewares/stm32-mw-camera/sensors/cmw_vd66gy.c ****   config.out_itf.data_lane0_swap_enable = 1;
 1737              		.loc 1 279 41 is_stmt 0 view .LVU484
 1738 009e 0223     		movs	r3, #2
 1739 00a0 CDE90636 		strd	r3, r6, [sp, #24]
 280:../Middlewares/stm32-mw-camera/sensors/cmw_vd66gy.c ****   config.out_itf.data_lane1_swap_enable = 1;
 1740              		.loc 1 280 3 is_stmt 1 view .LVU485
 284:../Middlewares/stm32-mw-camera/sensors/cmw_vd66gy.c ****   config.patgen = VD6G_PATGEN_DISABLE;
 1741              		.loc 1 284 27 is_stmt 0 discriminator 1 view .LVU486
 1742 00a4 E368     		ldr	r3, [r4, #12]
 293:../Middlewares/stm32-mw-camera/sensors/cmw_vd66gy.c ****   if (ret)
 1743              		.loc 1 293 9 view .LVU487
 1744 00a6 2C1D     		adds	r4, r5, #4
 1745              	.LVL170:
 284:../Middlewares/stm32-mw-camera/sensors/cmw_vd66gy.c ****   config.patgen = VD6G_PATGEN_DISABLE;
 1746              		.loc 1 284 27 discriminator 1 view .LVU488
 1747 00a8 032B     		cmp	r3, #3
ARM GAS  /tmp/ccOQJSAL.s 			page 49


 1748 00aa 28BF     		it	cs
 1749 00ac 0323     		movcs	r3, #3
 1750 00ae 8DF80C30 		strb	r3, [sp, #12]
 290:../Middlewares/stm32-mw-camera/sensors/cmw_vd66gy.c ****   }
 1751              		.loc 1 290 25 view .LVU489
 1752 00b2 4FF00133 		mov	r3, #16843009
 293:../Middlewares/stm32-mw-camera/sensors/cmw_vd66gy.c ****   if (ret)
 1753              		.loc 1 293 9 view .LVU490
 1754 00b6 2046     		mov	r0, r4
 281:../Middlewares/stm32-mw-camera/sensors/cmw_vd66gy.c ****   config.out_itf.data_lanes_mapping_swap_enable = 0;
 1755              		.loc 1 281 41 view .LVU491
 1756 00b8 CDE90866 		strd	r6, r6, [sp, #32]
 282:../Middlewares/stm32-mw-camera/sensors/cmw_vd66gy.c **** 
 1757              		.loc 1 282 3 is_stmt 1 view .LVU492
 284:../Middlewares/stm32-mw-camera/sensors/cmw_vd66gy.c ****   config.patgen = VD6G_PATGEN_DISABLE;
 1758              		.loc 1 284 3 view .LVU493
 1759              	.LBB45:
 1760              	.LBI45:
 210:../Middlewares/stm32-mw-camera/sensors/cmw_vd66gy.c **** {
 1761              		.loc 1 210 26 view .LVU494
 1762              	.LBB46:
 212:../Middlewares/stm32-mw-camera/sensors/cmw_vd66gy.c **** 
 1763              		.loc 1 212 3 view .LVU495
 214:../Middlewares/stm32-mw-camera/sensors/cmw_vd66gy.c ****   {
 1764              		.loc 1 214 3 view .LVU496
 231:../Middlewares/stm32-mw-camera/sensors/cmw_vd66gy.c **** }
 1765              		.loc 1 231 3 view .LVU497
 1766              	.LBE46:
 1767              	.LBE45:
 285:../Middlewares/stm32-mw-camera/sensors/cmw_vd66gy.c ****   config.flicker = VD6G_FLICKER_FREE_NONE;
 1768              		.loc 1 285 3 view .LVU498
 286:../Middlewares/stm32-mw-camera/sensors/cmw_vd66gy.c **** 
 1769              		.loc 1 286 3 view .LVU499
 288:../Middlewares/stm32-mw-camera/sensors/cmw_vd66gy.c ****   {
 1770              		.loc 1 288 3 view .LVU500
 1771              	.LVL171:
 288:../Middlewares/stm32-mw-camera/sensors/cmw_vd66gy.c ****   {
 1772              		.loc 1 288 17 discriminator 1 view .LVU501
 290:../Middlewares/stm32-mw-camera/sensors/cmw_vd66gy.c ****   }
 1773              		.loc 1 290 25 is_stmt 0 view .LVU502
 1774 00bc CDE90B33 		strd	r3, r3, [sp, #44]
 1775              	.LVL172:
 293:../Middlewares/stm32-mw-camera/sensors/cmw_vd66gy.c ****   if (ret)
 1776              		.loc 1 293 3 is_stmt 1 view .LVU503
 293:../Middlewares/stm32-mw-camera/sensors/cmw_vd66gy.c ****   if (ret)
 1777              		.loc 1 293 9 is_stmt 0 view .LVU504
 1778 00c0 FFF7FEFF 		bl	VD6G_Init
 1779              	.LVL173:
 294:../Middlewares/stm32-mw-camera/sensors/cmw_vd66gy.c ****   {
 1780              		.loc 1 294 3 is_stmt 1 view .LVU505
 294:../Middlewares/stm32-mw-camera/sensors/cmw_vd66gy.c ****   {
 1781              		.loc 1 294 6 is_stmt 0 view .LVU506
 1782 00c4 28B9     		cbnz	r0, .L77
 299:../Middlewares/stm32-mw-camera/sensors/cmw_vd66gy.c ****   {
 1783              		.loc 1 299 3 is_stmt 1 view .LVU507
 299:../Middlewares/stm32-mw-camera/sensors/cmw_vd66gy.c ****   {
 1784              		.loc 1 299 6 is_stmt 0 view .LVU508
ARM GAS  /tmp/ccOQJSAL.s 			page 50


 1785 00c6 95F82C30 		ldrb	r3, [r5, #44]	@ zero_extendqisi2
 1786 00ca 2BB9     		cbnz	r3, .L78
 301:../Middlewares/stm32-mw-camera/sensors/cmw_vd66gy.c ****     return CMW_ERROR_PERIPH_FAILURE;
 1787              		.loc 1 301 5 is_stmt 1 view .LVU509
 1788 00cc 2046     		mov	r0, r4
 1789              	.LVL174:
 301:../Middlewares/stm32-mw-camera/sensors/cmw_vd66gy.c ****     return CMW_ERROR_PERIPH_FAILURE;
 1790              		.loc 1 301 5 is_stmt 0 view .LVU510
 1791 00ce FFF7FEFF 		bl	VD6G_DeInit
 1792              	.LVL175:
 302:../Middlewares/stm32-mw-camera/sensors/cmw_vd66gy.c ****   }
 1793              		.loc 1 302 5 is_stmt 1 view .LVU511
 1794              	.L77:
 296:../Middlewares/stm32-mw-camera/sensors/cmw_vd66gy.c ****   }
 1795              		.loc 1 296 12 is_stmt 0 view .LVU512
 1796 00d2 6FF00300 		mvn	r0, #3
 1797 00d6 A0E7     		b	.L66
 1798              	.LVL176:
 1799              	.L78:
 305:../Middlewares/stm32-mw-camera/sensors/cmw_vd66gy.c ****   return CMW_ERROR_NONE;
 1800              		.loc 1 305 3 is_stmt 1 view .LVU513
 305:../Middlewares/stm32-mw-camera/sensors/cmw_vd66gy.c ****   return CMW_ERROR_NONE;
 1801              		.loc 1 305 43 is_stmt 0 view .LVU514
 1802 00d8 85F82061 		strb	r6, [r5, #288]
 306:../Middlewares/stm32-mw-camera/sensors/cmw_vd66gy.c **** }
 1803              		.loc 1 306 3 is_stmt 1 view .LVU515
 306:../Middlewares/stm32-mw-camera/sensors/cmw_vd66gy.c **** }
 1804              		.loc 1 306 10 is_stmt 0 view .LVU516
 1805 00dc A2E7     		b	.L79
 1806              	.LVL177:
 1807              	.L82:
 258:../Middlewares/stm32-mw-camera/sensors/cmw_vd66gy.c ****   {
 1808              		.loc 1 258 3 view .LVU517
 1809 00de 6FF00400 		mvn	r0, #4
 1810 00e2 9AE7     		b	.L66
 1811              	.L88:
 1812              		.align	2
 1813              	.L87:
 1814 00e4 001BB700 		.word	12000000
 1815              		.cfi_endproc
 1816              	.LFE1490:
 1818              		.section	.text.CMW_VD66GY_VsyncEventCallback,"ax",%progbits
 1819              		.align	1
 1820              		.syntax unified
 1821              		.thumb
 1822              		.thumb_func
 1824              	CMW_VD66GY_VsyncEventCallback:
 1825              	.LVL178:
 1826              	.LFB1502:
 588:../Middlewares/stm32-mw-camera/sensors/cmw_vd66gy.c **** #ifndef ISP_MW_TUNING_TOOL_SUPPORT
 1827              		.loc 1 588 1 is_stmt 1 view -0
 1828              		.cfi_startproc
 1829              		@ args = 0, pretend = 0, frame = 0
 1830              		@ frame_needed = 0, uses_anonymous_args = 0
 591:../Middlewares/stm32-mw-camera/sensors/cmw_vd66gy.c ****   {
 1831              		.loc 1 591 3 view .LVU519
 1832 0000 0129     		cmp	r1, #1
ARM GAS  /tmp/ccOQJSAL.s 			page 51


 588:../Middlewares/stm32-mw-camera/sensors/cmw_vd66gy.c **** #ifndef ISP_MW_TUNING_TOOL_SUPPORT
 1833              		.loc 1 588 1 is_stmt 0 view .LVU520
 1834 0002 10B5     		push	{r4, lr}
 1835              		.cfi_def_cfa_offset 8
 1836              		.cfi_offset 4, -8
 1837              		.cfi_offset 14, -4
 591:../Middlewares/stm32-mw-camera/sensors/cmw_vd66gy.c ****   {
 1838              		.loc 1 591 3 view .LVU521
 1839 0004 07D0     		beq	.L90
 1840 0006 0229     		cmp	r1, #2
 1841 0008 0FD0     		beq	.L91
 1842 000a 99B9     		cbnz	r1, .L89
 594:../Middlewares/stm32-mw-camera/sensors/cmw_vd66gy.c ****       break;
 1843              		.loc 1 594 7 is_stmt 1 view .LVU522
 605:../Middlewares/stm32-mw-camera/sensors/cmw_vd66gy.c **** 
 1844              		.loc 1 605 1 is_stmt 0 view .LVU523
 1845 000c BDE81040 		pop	{r4, lr}
 1846              		.cfi_remember_state
 1847              		.cfi_restore 14
 1848              		.cfi_restore 4
 1849              		.cfi_def_cfa_offset 0
 594:../Middlewares/stm32-mw-camera/sensors/cmw_vd66gy.c ****       break;
 1850              		.loc 1 594 7 view .LVU524
 1851 0010 6C30     		adds	r0, r0, #108
 1852              	.LVL179:
 594:../Middlewares/stm32-mw-camera/sensors/cmw_vd66gy.c ****       break;
 1853              		.loc 1 594 7 view .LVU525
 1854 0012 FFF7FEBF 		b	ISP_IncDumpFrameId
 1855              	.LVL180:
 1856              	.L90:
 1857              		.cfi_restore_state
 1858              	.LBB49:
 1859              	.LBI49:
 587:../Middlewares/stm32-mw-camera/sensors/cmw_vd66gy.c **** {
 1860              		.loc 1 587 13 is_stmt 1 view .LVU526
 1861              	.LBB50:
 597:../Middlewares/stm32-mw-camera/sensors/cmw_vd66gy.c ****       ISP_GatherStatistics(&((CMW_VD66GY_t *)io_ctx)->hIsp);
 1862              		.loc 1 597 7 view .LVU527
 1863 0016 00F16C04 		add	r4, r0, #108
 1864 001a 2046     		mov	r0, r4
 1865              	.LVL181:
 597:../Middlewares/stm32-mw-camera/sensors/cmw_vd66gy.c ****       ISP_GatherStatistics(&((CMW_VD66GY_t *)io_ctx)->hIsp);
 1866              		.loc 1 597 7 is_stmt 0 view .LVU528
 1867 001c FFF7FEFF 		bl	ISP_IncMainFrameId
 1868              	.LVL182:
 598:../Middlewares/stm32-mw-camera/sensors/cmw_vd66gy.c ****       break;
 1869              		.loc 1 598 7 is_stmt 1 view .LVU529
 1870 0020 2046     		mov	r0, r4
 1871              	.LBE50:
 1872              	.LBE49:
 605:../Middlewares/stm32-mw-camera/sensors/cmw_vd66gy.c **** 
 1873              		.loc 1 605 1 is_stmt 0 view .LVU530
 1874 0022 BDE81040 		pop	{r4, lr}
 1875              		.cfi_remember_state
 1876              		.cfi_restore 14
 1877              		.cfi_restore 4
 1878              		.cfi_def_cfa_offset 0
ARM GAS  /tmp/ccOQJSAL.s 			page 52


 1879              	.LVL183:
 1880              	.LBB52:
 1881              	.LBB51:
 598:../Middlewares/stm32-mw-camera/sensors/cmw_vd66gy.c ****       break;
 1882              		.loc 1 598 7 view .LVU531
 1883 0026 FFF7FEBF 		b	ISP_GatherStatistics
 1884              	.LVL184:
 1885              	.L91:
 1886              		.cfi_restore_state
 598:../Middlewares/stm32-mw-camera/sensors/cmw_vd66gy.c ****       break;
 1887              		.loc 1 598 7 view .LVU532
 1888              	.LBE51:
 1889              	.LBE52:
 601:../Middlewares/stm32-mw-camera/sensors/cmw_vd66gy.c ****       break;
 1890              		.loc 1 601 7 is_stmt 1 view .LVU533
 1891 002a 6C30     		adds	r0, r0, #108
 1892              	.LVL185:
 605:../Middlewares/stm32-mw-camera/sensors/cmw_vd66gy.c **** 
 1893              		.loc 1 605 1 is_stmt 0 view .LVU534
 1894 002c BDE81040 		pop	{r4, lr}
 1895              		.cfi_remember_state
 1896              		.cfi_restore 14
 1897              		.cfi_restore 4
 1898              		.cfi_def_cfa_offset 0
 601:../Middlewares/stm32-mw-camera/sensors/cmw_vd66gy.c ****       break;
 1899              		.loc 1 601 7 view .LVU535
 1900 0030 FFF7FEBF 		b	ISP_IncAncillaryFrameId
 1901              	.LVL186:
 1902              	.L89:
 1903              		.cfi_restore_state
 605:../Middlewares/stm32-mw-camera/sensors/cmw_vd66gy.c **** 
 1904              		.loc 1 605 1 view .LVU536
 1905 0034 10BD     		pop	{r4, pc}
 1906              		.cfi_endproc
 1907              	.LFE1502:
 1909              		.section	.rodata.CMW_VD66GY_SetDefaultSensorValues.str1.1,"aMS",%progbits,1
 1910              	.LC1:
 1911 0000 76643636 		.ascii	"vd66gy_config != NULL\000"
 1911      67795F63 
 1911      6F6E6669 
 1911      6720213D 
 1911      204E554C 
 1912              	.LC2:
 1913 0016 2E2E2F4D 		.ascii	"../Middlewares/stm32-mw-camera/sensors/cmw_vd66gy.c"
 1913      6964646C 
 1913      65776172 
 1913      65732F73 
 1913      746D3332 
 1914 0049 00       		.ascii	"\000"
 1915              		.section	.text.CMW_VD66GY_SetDefaultSensorValues,"ax",%progbits
 1916              		.align	1
 1917              		.global	CMW_VD66GY_SetDefaultSensorValues
 1918              		.syntax unified
 1919              		.thumb
 1920              		.thumb_func
 1922              	CMW_VD66GY_SetDefaultSensorValues:
 1923              	.LVL187:
ARM GAS  /tmp/ccOQJSAL.s 			page 53


 1924              	.LFB1491:
 310:../Middlewares/stm32-mw-camera/sensors/cmw_vd66gy.c ****   assert(vd66gy_config != NULL);
 1925              		.loc 1 310 1 is_stmt 1 view -0
 1926              		.cfi_startproc
 1927              		@ args = 0, pretend = 0, frame = 0
 1928              		@ frame_needed = 0, uses_anonymous_args = 0
 311:../Middlewares/stm32-mw-camera/sensors/cmw_vd66gy.c ****   vd66gy_config->line_len = 0;
 1929              		.loc 1 311 3 view .LVU538
 310:../Middlewares/stm32-mw-camera/sensors/cmw_vd66gy.c ****   assert(vd66gy_config != NULL);
 1930              		.loc 1 310 1 is_stmt 0 view .LVU539
 1931 0000 08B5     		push	{r3, lr}
 1932              		.cfi_def_cfa_offset 8
 1933              		.cfi_offset 3, -8
 1934              		.cfi_offset 14, -4
 311:../Middlewares/stm32-mw-camera/sensors/cmw_vd66gy.c ****   vd66gy_config->line_len = 0;
 1935              		.loc 1 311 3 view .LVU540
 1936 0002 30B9     		cbnz	r0, .L94
 311:../Middlewares/stm32-mw-camera/sensors/cmw_vd66gy.c ****   vd66gy_config->line_len = 0;
 1937              		.loc 1 311 3 discriminator 1 view .LVU541
 1938 0004 40F23711 		movw	r1, #311
 1939 0008 044B     		ldr	r3, .L95
 1940 000a 054A     		ldr	r2, .L95+4
 1941 000c 0548     		ldr	r0, .L95+8
 1942              	.LVL188:
 311:../Middlewares/stm32-mw-camera/sensors/cmw_vd66gy.c ****   vd66gy_config->line_len = 0;
 1943              		.loc 1 311 3 discriminator 1 view .LVU542
 1944 000e FFF7FEFF 		bl	__assert_func
 1945              	.LVL189:
 1946              	.L94:
 312:../Middlewares/stm32-mw-camera/sensors/cmw_vd66gy.c ****   vd66gy_config->pixel_format = CMW_PIXEL_FORMAT_RAW10;
 1947              		.loc 1 312 3 is_stmt 1 view .LVU543
 313:../Middlewares/stm32-mw-camera/sensors/cmw_vd66gy.c **** }
 1948              		.loc 1 313 31 is_stmt 0 view .LVU544
 1949 0012 2B23     		movs	r3, #43
 1950 0014 0022     		movs	r2, #0
 1951 0016 C0E90032 		strd	r3, r2, [r0]
 314:../Middlewares/stm32-mw-camera/sensors/cmw_vd66gy.c **** 
 1952              		.loc 1 314 1 view .LVU545
 1953 001a 08BD     		pop	{r3, pc}
 1954              	.L96:
 1955              		.align	2
 1956              	.L95:
 1957 001c 00000000 		.word	.LC1
 1958 0020 00000000 		.word	__func__.0
 1959 0024 16000000 		.word	.LC2
 1960              		.cfi_endproc
 1961              	.LFE1491:
 1963              		.section	.text.VD66GY_RegisterBusIO,"ax",%progbits
 1964              		.align	1
 1965              		.global	VD66GY_RegisterBusIO
 1966              		.syntax unified
 1967              		.thumb
 1968              		.thumb_func
 1970              	VD66GY_RegisterBusIO:
 1971              	.LVL190:
 1972              	.LFB1504:
 610:../Middlewares/stm32-mw-camera/sensors/cmw_vd66gy.c **** 
ARM GAS  /tmp/ccOQJSAL.s 			page 54


 611:../Middlewares/stm32-mw-camera/sensors/cmw_vd66gy.c **** int32_t VD66GY_RegisterBusIO(CMW_VD66GY_t *io_ctx)
 612:../Middlewares/stm32-mw-camera/sensors/cmw_vd66gy.c **** {
 1973              		.loc 1 612 1 is_stmt 1 view -0
 1974              		.cfi_startproc
 1975              		@ args = 0, pretend = 0, frame = 0
 1976              		@ frame_needed = 0, uses_anonymous_args = 0
 1977              		@ link register save eliminated.
 613:../Middlewares/stm32-mw-camera/sensors/cmw_vd66gy.c ****   int ret;
 1978              		.loc 1 613 3 view .LVU547
 614:../Middlewares/stm32-mw-camera/sensors/cmw_vd66gy.c **** 
 615:../Middlewares/stm32-mw-camera/sensors/cmw_vd66gy.c ****   if (!io_ctx)
 1979              		.loc 1 615 3 view .LVU548
 1980              		.loc 1 615 6 is_stmt 0 view .LVU549
 1981 0000 18B1     		cbz	r0, .L97
 616:../Middlewares/stm32-mw-camera/sensors/cmw_vd66gy.c ****     return CMW_ERROR_COMPONENT_FAILURE;
 617:../Middlewares/stm32-mw-camera/sensors/cmw_vd66gy.c **** 
 618:../Middlewares/stm32-mw-camera/sensors/cmw_vd66gy.c ****   if (!io_ctx->Init)
 1982              		.loc 1 618 3 is_stmt 1 view .LVU550
 1983              		.loc 1 618 14 is_stmt 0 view .LVU551
 1984 0002 D0F82431 		ldr	r3, [r0, #292]
 1985              		.loc 1 618 6 view .LVU552
 1986 0006 03B1     		cbz	r3, .L97
 619:../Middlewares/stm32-mw-camera/sensors/cmw_vd66gy.c ****     return CMW_ERROR_COMPONENT_FAILURE;
 620:../Middlewares/stm32-mw-camera/sensors/cmw_vd66gy.c **** 
 621:../Middlewares/stm32-mw-camera/sensors/cmw_vd66gy.c ****   ret = io_ctx->Init();
 1987              		.loc 1 621 3 is_stmt 1 view .LVU553
 1988              		.loc 1 621 9 is_stmt 0 view .LVU554
 1989 0008 1847     		bx	r3
 1990              	.LVL191:
 1991              	.L97:
 622:../Middlewares/stm32-mw-camera/sensors/cmw_vd66gy.c **** 
 623:../Middlewares/stm32-mw-camera/sensors/cmw_vd66gy.c ****   return ret;
 624:../Middlewares/stm32-mw-camera/sensors/cmw_vd66gy.c **** }
 1992              		.loc 1 624 1 view .LVU555
 1993 000a 6FF00400 		mvn	r0, #4
 1994              	.LVL192:
 1995              		.loc 1 624 1 view .LVU556
 1996 000e 7047     		bx	lr
 1997              		.cfi_endproc
 1998              	.LFE1504:
 2000              		.section	.text.VD66GY_ReadID,"ax",%progbits
 2001              		.align	1
 2002              		.global	VD66GY_ReadID
 2003              		.syntax unified
 2004              		.thumb
 2005              		.thumb_func
 2007              	VD66GY_ReadID:
 2008              	.LVL193:
 2009              	.LFB1505:
 625:../Middlewares/stm32-mw-camera/sensors/cmw_vd66gy.c **** 
 626:../Middlewares/stm32-mw-camera/sensors/cmw_vd66gy.c **** int32_t VD66GY_ReadID(CMW_VD66GY_t *io_ctx, uint32_t *Id)
 627:../Middlewares/stm32-mw-camera/sensors/cmw_vd66gy.c **** {
 2010              		.loc 1 627 1 is_stmt 1 view -0
 2011              		.cfi_startproc
 2012              		@ args = 0, pretend = 0, frame = 8
 2013              		@ frame_needed = 0, uses_anonymous_args = 0
 628:../Middlewares/stm32-mw-camera/sensors/cmw_vd66gy.c ****   uint16_t reg16;
ARM GAS  /tmp/ccOQJSAL.s 			page 55


 2014              		.loc 1 628 3 view .LVU558
 629:../Middlewares/stm32-mw-camera/sensors/cmw_vd66gy.c ****   int32_t ret;
 2015              		.loc 1 629 3 view .LVU559
 630:../Middlewares/stm32-mw-camera/sensors/cmw_vd66gy.c **** 
 631:../Middlewares/stm32-mw-camera/sensors/cmw_vd66gy.c ****   ret = CMW_VD66GY_Read16(io_ctx, VD66GY_REG_MODEL_ID, &reg16);
 2016              		.loc 1 631 3 view .LVU560
 627:../Middlewares/stm32-mw-camera/sensors/cmw_vd66gy.c ****   uint16_t reg16;
 2017              		.loc 1 627 1 is_stmt 0 view .LVU561
 2018 0000 13B5     		push	{r0, r1, r4, lr}
 2019              		.cfi_def_cfa_offset 16
 2020              		.cfi_offset 4, -8
 2021              		.cfi_offset 14, -4
 627:../Middlewares/stm32-mw-camera/sensors/cmw_vd66gy.c ****   uint16_t reg16;
 2022              		.loc 1 627 1 view .LVU562
 2023 0002 0C46     		mov	r4, r1
 2024              		.loc 1 631 9 view .LVU563
 2025 0004 0DF10602 		add	r2, sp, #6
 2026 0008 0021     		movs	r1, #0
 2027              	.LVL194:
 2028              		.loc 1 631 9 view .LVU564
 2029 000a FFF7FEFF 		bl	CMW_VD66GY_Read16
 2030              	.LVL195:
 632:../Middlewares/stm32-mw-camera/sensors/cmw_vd66gy.c ****   if (ret)
 2031              		.loc 1 632 3 is_stmt 1 view .LVU565
 2032              		.loc 1 632 6 is_stmt 0 view .LVU566
 2033 000e 10B9     		cbnz	r0, .L103
 633:../Middlewares/stm32-mw-camera/sensors/cmw_vd66gy.c ****     return ret;
 634:../Middlewares/stm32-mw-camera/sensors/cmw_vd66gy.c **** 
 635:../Middlewares/stm32-mw-camera/sensors/cmw_vd66gy.c ****   *Id = reg16;
 2034              		.loc 1 635 3 is_stmt 1 view .LVU567
 2035              		.loc 1 635 7 is_stmt 0 view .LVU568
 2036 0010 BDF80630 		ldrh	r3, [sp, #6]
 2037 0014 2360     		str	r3, [r4]
 636:../Middlewares/stm32-mw-camera/sensors/cmw_vd66gy.c **** 
 637:../Middlewares/stm32-mw-camera/sensors/cmw_vd66gy.c ****   return CMW_ERROR_NONE;
 2038              		.loc 1 637 3 is_stmt 1 view .LVU569
 2039              	.L103:
 638:../Middlewares/stm32-mw-camera/sensors/cmw_vd66gy.c **** }
 2040              		.loc 1 638 1 is_stmt 0 view .LVU570
 2041 0016 02B0     		add	sp, sp, #8
 2042              		.cfi_def_cfa_offset 8
 2043              		@ sp needed
 2044 0018 10BD     		pop	{r4, pc}
 2045              		.loc 1 638 1 view .LVU571
 2046              		.cfi_endproc
 2047              	.LFE1505:
 2049              		.section	.text.CMW_VD66GY_Probe,"ax",%progbits
 2050              		.align	1
 2051              		.global	CMW_VD66GY_Probe
 2052              		.syntax unified
 2053              		.thumb
 2054              		.thumb_func
 2056              	CMW_VD66GY_Probe:
 2057              	.LVL196:
 2058              	.LFB1507:
 639:../Middlewares/stm32-mw-camera/sensors/cmw_vd66gy.c **** 
 640:../Middlewares/stm32-mw-camera/sensors/cmw_vd66gy.c **** static void CMW_VD66GY_PowerOn(CMW_VD66GY_t *io_ctx)
ARM GAS  /tmp/ccOQJSAL.s 			page 56


 641:../Middlewares/stm32-mw-camera/sensors/cmw_vd66gy.c **** {
 642:../Middlewares/stm32-mw-camera/sensors/cmw_vd66gy.c ****   /* Camera sensor Power-On sequence */
 643:../Middlewares/stm32-mw-camera/sensors/cmw_vd66gy.c ****   /* Assert the camera  NRST pins */
 644:../Middlewares/stm32-mw-camera/sensors/cmw_vd66gy.c ****   io_ctx->EnablePin(1);
 645:../Middlewares/stm32-mw-camera/sensors/cmw_vd66gy.c ****   io_ctx->ShutdownPin(0);  /* Disable MB1723 2V8 signal  */
 646:../Middlewares/stm32-mw-camera/sensors/cmw_vd66gy.c ****   HAL_Delay(200);   /* NRST signals asserted during 200ms */
 647:../Middlewares/stm32-mw-camera/sensors/cmw_vd66gy.c ****   /* De-assert the camera STANDBY pin (active high) */
 648:../Middlewares/stm32-mw-camera/sensors/cmw_vd66gy.c ****   io_ctx->ShutdownPin(1);  /* Disable MB1723 2V8 signal  */
 649:../Middlewares/stm32-mw-camera/sensors/cmw_vd66gy.c ****   HAL_Delay(20);     /* NRST de-asserted during 20ms */
 650:../Middlewares/stm32-mw-camera/sensors/cmw_vd66gy.c **** }
 651:../Middlewares/stm32-mw-camera/sensors/cmw_vd66gy.c **** 
 652:../Middlewares/stm32-mw-camera/sensors/cmw_vd66gy.c **** int CMW_VD66GY_Probe(CMW_VD66GY_t *io_ctx, CMW_Sensor_if_t *vd6g_if)
 653:../Middlewares/stm32-mw-camera/sensors/cmw_vd66gy.c **** {
 2059              		.loc 1 653 1 is_stmt 1 view -0
 2060              		.cfi_startproc
 2061              		@ args = 0, pretend = 0, frame = 8
 2062              		@ frame_needed = 0, uses_anonymous_args = 0
 654:../Middlewares/stm32-mw-camera/sensors/cmw_vd66gy.c ****   int ret = CMW_ERROR_NONE;
 2063              		.loc 1 654 3 view .LVU573
 655:../Middlewares/stm32-mw-camera/sensors/cmw_vd66gy.c ****   uint32_t id;
 2064              		.loc 1 655 3 view .LVU574
 656:../Middlewares/stm32-mw-camera/sensors/cmw_vd66gy.c **** 
 657:../Middlewares/stm32-mw-camera/sensors/cmw_vd66gy.c ****   io_ctx->ctx_driver.shutdown_pin = VD6G_ShutdownPin;
 2065              		.loc 1 657 3 view .LVU575
 653:../Middlewares/stm32-mw-camera/sensors/cmw_vd66gy.c ****   int ret = CMW_ERROR_NONE;
 2066              		.loc 1 653 1 is_stmt 0 view .LVU576
 2067 0000 37B5     		push	{r0, r1, r2, r4, r5, lr}
 2068              		.cfi_def_cfa_offset 24
 2069              		.cfi_offset 4, -12
 2070              		.cfi_offset 5, -8
 2071              		.cfi_offset 14, -4
 653:../Middlewares/stm32-mw-camera/sensors/cmw_vd66gy.c ****   int ret = CMW_ERROR_NONE;
 2072              		.loc 1 653 1 view .LVU577
 2073 0002 0446     		mov	r4, r0
 2074              		.loc 1 657 35 view .LVU578
 2075 0004 2E4B     		ldr	r3, .L109
 653:../Middlewares/stm32-mw-camera/sensors/cmw_vd66gy.c ****   int ret = CMW_ERROR_NONE;
 2076              		.loc 1 653 1 view .LVU579
 2077 0006 0D46     		mov	r5, r1
 2078              		.loc 1 657 35 view .LVU580
 2079 0008 4360     		str	r3, [r0, #4]
 658:../Middlewares/stm32-mw-camera/sensors/cmw_vd66gy.c ****   io_ctx->ctx_driver.read8 = VD6G_Read8;
 2080              		.loc 1 658 3 is_stmt 1 view .LVU581
 2081              		.loc 1 658 28 is_stmt 0 view .LVU582
 2082 000a 2E4B     		ldr	r3, .L109+4
 2083 000c 8360     		str	r3, [r0, #8]
 659:../Middlewares/stm32-mw-camera/sensors/cmw_vd66gy.c ****   io_ctx->ctx_driver.read16 = VD6G_Read16;
 2084              		.loc 1 659 3 is_stmt 1 view .LVU583
 2085              		.loc 1 659 29 is_stmt 0 view .LVU584
 2086 000e 2E4B     		ldr	r3, .L109+8
 2087 0010 C360     		str	r3, [r0, #12]
 660:../Middlewares/stm32-mw-camera/sensors/cmw_vd66gy.c ****   io_ctx->ctx_driver.read32 = VD6G_Read32;
 2088              		.loc 1 660 3 is_stmt 1 view .LVU585
 2089              		.loc 1 660 29 is_stmt 0 view .LVU586
 2090 0012 2E4B     		ldr	r3, .L109+12
 2091 0014 0361     		str	r3, [r0, #16]
 661:../Middlewares/stm32-mw-camera/sensors/cmw_vd66gy.c ****   io_ctx->ctx_driver.write8 = VD6G_Write8;
ARM GAS  /tmp/ccOQJSAL.s 			page 57


 2092              		.loc 1 661 3 is_stmt 1 view .LVU587
 2093              		.loc 1 661 29 is_stmt 0 view .LVU588
 2094 0016 2E4B     		ldr	r3, .L109+16
 2095 0018 4361     		str	r3, [r0, #20]
 662:../Middlewares/stm32-mw-camera/sensors/cmw_vd66gy.c ****   io_ctx->ctx_driver.write16 = VD6G_Write16;
 2096              		.loc 1 662 3 is_stmt 1 view .LVU589
 2097              		.loc 1 662 30 is_stmt 0 view .LVU590
 2098 001a 2E4B     		ldr	r3, .L109+20
 2099 001c 8361     		str	r3, [r0, #24]
 663:../Middlewares/stm32-mw-camera/sensors/cmw_vd66gy.c ****   io_ctx->ctx_driver.write32 = VD6G_Write32;
 2100              		.loc 1 663 3 is_stmt 1 view .LVU591
 2101              		.loc 1 663 30 is_stmt 0 view .LVU592
 2102 001e 2E4B     		ldr	r3, .L109+24
 2103 0020 C361     		str	r3, [r0, #28]
 664:../Middlewares/stm32-mw-camera/sensors/cmw_vd66gy.c ****   io_ctx->ctx_driver.write_array = VD6G_WriteArray;
 2104              		.loc 1 664 3 is_stmt 1 view .LVU593
 2105              		.loc 1 664 34 is_stmt 0 view .LVU594
 2106 0022 2E4B     		ldr	r3, .L109+28
 2107 0024 0362     		str	r3, [r0, #32]
 665:../Middlewares/stm32-mw-camera/sensors/cmw_vd66gy.c ****   io_ctx->ctx_driver.delay = VD6G_Delay;
 2108              		.loc 1 665 3 is_stmt 1 view .LVU595
 2109              		.loc 1 665 28 is_stmt 0 view .LVU596
 2110 0026 2E4B     		ldr	r3, .L109+32
 2111 0028 4362     		str	r3, [r0, #36]
 666:../Middlewares/stm32-mw-camera/sensors/cmw_vd66gy.c ****   io_ctx->ctx_driver.log = VD6G_Log;
 2112              		.loc 1 666 3 is_stmt 1 view .LVU597
 2113              		.loc 1 666 26 is_stmt 0 view .LVU598
 2114 002a 2E4B     		ldr	r3, .L109+36
 2115 002c 8362     		str	r3, [r0, #40]
 667:../Middlewares/stm32-mw-camera/sensors/cmw_vd66gy.c **** 
 668:../Middlewares/stm32-mw-camera/sensors/cmw_vd66gy.c ****   CMW_VD66GY_PowerOn(io_ctx);
 2116              		.loc 1 668 3 is_stmt 1 view .LVU599
 2117              	.LVL197:
 2118              	.LBB55:
 2119              	.LBI55:
 640:../Middlewares/stm32-mw-camera/sensors/cmw_vd66gy.c **** {
 2120              		.loc 1 640 13 view .LVU600
 2121              	.LBB56:
 644:../Middlewares/stm32-mw-camera/sensors/cmw_vd66gy.c ****   io_ctx->ShutdownPin(0);  /* Disable MB1723 2V8 signal  */
 2122              		.loc 1 644 3 view .LVU601
 2123 002e D0F84031 		ldr	r3, [r0, #320]
 2124 0032 0120     		movs	r0, #1
 2125              	.LVL198:
 644:../Middlewares/stm32-mw-camera/sensors/cmw_vd66gy.c ****   io_ctx->ShutdownPin(0);  /* Disable MB1723 2V8 signal  */
 2126              		.loc 1 644 3 is_stmt 0 view .LVU602
 2127 0034 9847     		blx	r3
 2128              	.LVL199:
 645:../Middlewares/stm32-mw-camera/sensors/cmw_vd66gy.c ****   HAL_Delay(200);   /* NRST signals asserted during 200ms */
 2129              		.loc 1 645 3 is_stmt 1 view .LVU603
 2130 0036 D4F83C31 		ldr	r3, [r4, #316]
 2131 003a 0020     		movs	r0, #0
 2132 003c 9847     		blx	r3
 2133              	.LVL200:
 646:../Middlewares/stm32-mw-camera/sensors/cmw_vd66gy.c ****   /* De-assert the camera STANDBY pin (active high) */
 2134              		.loc 1 646 3 view .LVU604
 2135 003e C820     		movs	r0, #200
 2136 0040 FFF7FEFF 		bl	HAL_Delay
ARM GAS  /tmp/ccOQJSAL.s 			page 58


 2137              	.LVL201:
 648:../Middlewares/stm32-mw-camera/sensors/cmw_vd66gy.c ****   HAL_Delay(20);     /* NRST de-asserted during 20ms */
 2138              		.loc 1 648 3 view .LVU605
 2139 0044 0120     		movs	r0, #1
 2140 0046 D4F83C31 		ldr	r3, [r4, #316]
 2141 004a 9847     		blx	r3
 2142              	.LVL202:
 649:../Middlewares/stm32-mw-camera/sensors/cmw_vd66gy.c **** }
 2143              		.loc 1 649 3 view .LVU606
 2144 004c 1420     		movs	r0, #20
 2145 004e FFF7FEFF 		bl	HAL_Delay
 2146              	.LVL203:
 649:../Middlewares/stm32-mw-camera/sensors/cmw_vd66gy.c **** }
 2147              		.loc 1 649 3 is_stmt 0 view .LVU607
 2148              	.LBE56:
 2149              	.LBE55:
 669:../Middlewares/stm32-mw-camera/sensors/cmw_vd66gy.c **** 
 670:../Middlewares/stm32-mw-camera/sensors/cmw_vd66gy.c ****   ret = VD66GY_RegisterBusIO(io_ctx);
 2150              		.loc 1 670 3 is_stmt 1 view .LVU608
 2151              		.loc 1 670 9 is_stmt 0 view .LVU609
 2152 0052 2046     		mov	r0, r4
 2153 0054 FFF7FEFF 		bl	VD66GY_RegisterBusIO
 2154              	.LVL204:
 671:../Middlewares/stm32-mw-camera/sensors/cmw_vd66gy.c ****   if (ret != CMW_ERROR_NONE)
 2155              		.loc 1 671 3 is_stmt 1 view .LVU610
 2156              		.loc 1 671 6 is_stmt 0 view .LVU611
 2157 0058 20B1     		cbz	r0, .L106
 2158              	.LVL205:
 2159              	.L108:
 672:../Middlewares/stm32-mw-camera/sensors/cmw_vd66gy.c ****   {
 673:../Middlewares/stm32-mw-camera/sensors/cmw_vd66gy.c ****     return CMW_ERROR_COMPONENT_FAILURE;
 2160              		.loc 1 673 12 view .LVU612
 2161 005a 6FF00404 		mvn	r4, #4
 2162              	.LVL206:
 2163              	.L105:
 674:../Middlewares/stm32-mw-camera/sensors/cmw_vd66gy.c ****   }
 675:../Middlewares/stm32-mw-camera/sensors/cmw_vd66gy.c **** 
 676:../Middlewares/stm32-mw-camera/sensors/cmw_vd66gy.c ****   ret = VD66GY_ReadID(io_ctx, &id);
 677:../Middlewares/stm32-mw-camera/sensors/cmw_vd66gy.c ****   if (ret != CMW_ERROR_NONE)
 678:../Middlewares/stm32-mw-camera/sensors/cmw_vd66gy.c ****   {
 679:../Middlewares/stm32-mw-camera/sensors/cmw_vd66gy.c ****     return CMW_ERROR_COMPONENT_FAILURE;
 680:../Middlewares/stm32-mw-camera/sensors/cmw_vd66gy.c ****   }
 681:../Middlewares/stm32-mw-camera/sensors/cmw_vd66gy.c ****   if (id != VD66GY_CHIP_ID)
 682:../Middlewares/stm32-mw-camera/sensors/cmw_vd66gy.c ****   {
 683:../Middlewares/stm32-mw-camera/sensors/cmw_vd66gy.c ****     return CMW_ERROR_COMPONENT_FAILURE;
 684:../Middlewares/stm32-mw-camera/sensors/cmw_vd66gy.c ****   }
 685:../Middlewares/stm32-mw-camera/sensors/cmw_vd66gy.c **** 
 686:../Middlewares/stm32-mw-camera/sensors/cmw_vd66gy.c ****   memset(vd6g_if, 0, sizeof(*vd6g_if));
 687:../Middlewares/stm32-mw-camera/sensors/cmw_vd66gy.c ****   vd6g_if->Init = CMW_VD66GY_Init;
 688:../Middlewares/stm32-mw-camera/sensors/cmw_vd66gy.c ****   vd6g_if->DeInit = CMW_VD66GY_DeInit;
 689:../Middlewares/stm32-mw-camera/sensors/cmw_vd66gy.c ****   vd6g_if->Run = CMW_VD66GY_Run;
 690:../Middlewares/stm32-mw-camera/sensors/cmw_vd66gy.c ****   vd6g_if->VsyncEventCallback = CMW_VD66GY_VsyncEventCallback;
 691:../Middlewares/stm32-mw-camera/sensors/cmw_vd66gy.c ****   vd6g_if->FrameEventCallback = CMW_VD66GY_FrameEventCallback;
 692:../Middlewares/stm32-mw-camera/sensors/cmw_vd66gy.c ****   vd6g_if->Start = CMW_VD66GY_Start;
 693:../Middlewares/stm32-mw-camera/sensors/cmw_vd66gy.c ****   vd6g_if->Stop = CMW_VD66GY_Stop;
 694:../Middlewares/stm32-mw-camera/sensors/cmw_vd66gy.c ****   vd6g_if->SetGain = CMW_VD66GY_SetGain;
 695:../Middlewares/stm32-mw-camera/sensors/cmw_vd66gy.c ****   vd6g_if->SetExposure = CMW_VD66GY_SetExposure;
ARM GAS  /tmp/ccOQJSAL.s 			page 59


 696:../Middlewares/stm32-mw-camera/sensors/cmw_vd66gy.c ****   vd6g_if->SetExposureMode = CMW_VD66GY_SetExposureMode;
 697:../Middlewares/stm32-mw-camera/sensors/cmw_vd66gy.c ****   vd6g_if->SetWBRefMode = CMW_VD66GY_SetWBRefMode;
 698:../Middlewares/stm32-mw-camera/sensors/cmw_vd66gy.c ****   vd6g_if->ListWBRefModes = CMW_VD66GY_ListWBRefModes;
 699:../Middlewares/stm32-mw-camera/sensors/cmw_vd66gy.c ****   vd6g_if->GetSensorInfo = CMW_VD66GY_GetSensorInfo;
 700:../Middlewares/stm32-mw-camera/sensors/cmw_vd66gy.c ****   return ret;
 701:../Middlewares/stm32-mw-camera/sensors/cmw_vd66gy.c **** }
 2164              		.loc 1 701 1 view .LVU613
 2165 005e 2046     		mov	r0, r4
 2166 0060 03B0     		add	sp, sp, #12
 2167              		.cfi_remember_state
 2168              		.cfi_def_cfa_offset 12
 2169              		@ sp needed
 2170 0062 30BD     		pop	{r4, r5, pc}
 2171              	.LVL207:
 2172              	.L106:
 2173              		.cfi_restore_state
 676:../Middlewares/stm32-mw-camera/sensors/cmw_vd66gy.c ****   if (ret != CMW_ERROR_NONE)
 2174              		.loc 1 676 3 is_stmt 1 view .LVU614
 676:../Middlewares/stm32-mw-camera/sensors/cmw_vd66gy.c ****   if (ret != CMW_ERROR_NONE)
 2175              		.loc 1 676 9 is_stmt 0 view .LVU615
 2176 0064 2046     		mov	r0, r4
 2177              	.LVL208:
 676:../Middlewares/stm32-mw-camera/sensors/cmw_vd66gy.c ****   if (ret != CMW_ERROR_NONE)
 2178              		.loc 1 676 9 view .LVU616
 2179 0066 01A9     		add	r1, sp, #4
 2180 0068 FFF7FEFF 		bl	VD66GY_ReadID
 2181              	.LVL209:
 677:../Middlewares/stm32-mw-camera/sensors/cmw_vd66gy.c ****   {
 2182              		.loc 1 677 3 is_stmt 1 view .LVU617
 677:../Middlewares/stm32-mw-camera/sensors/cmw_vd66gy.c ****   {
 2183              		.loc 1 677 6 is_stmt 0 view .LVU618
 2184 006c 0446     		mov	r4, r0
 2185              	.LVL210:
 677:../Middlewares/stm32-mw-camera/sensors/cmw_vd66gy.c ****   {
 2186              		.loc 1 677 6 view .LVU619
 2187 006e 0028     		cmp	r0, #0
 2188 0070 F3D1     		bne	.L108
 681:../Middlewares/stm32-mw-camera/sensors/cmw_vd66gy.c ****   {
 2189              		.loc 1 681 3 is_stmt 1 view .LVU620
 681:../Middlewares/stm32-mw-camera/sensors/cmw_vd66gy.c ****   {
 2190              		.loc 1 681 6 is_stmt 0 view .LVU621
 2191 0072 45F20363 		movw	r3, #22019
 2192 0076 019A     		ldr	r2, [sp, #4]
 2193 0078 9A42     		cmp	r2, r3
 2194 007a EED1     		bne	.L108
 686:../Middlewares/stm32-mw-camera/sensors/cmw_vd66gy.c ****   vd6g_if->Init = CMW_VD66GY_Init;
 2195              		.loc 1 686 3 is_stmt 1 view .LVU622
 2196 007c 0146     		mov	r1, r0
 2197 007e 5022     		movs	r2, #80
 2198 0080 05F11C00 		add	r0, r5, #28
 2199              	.LVL211:
 686:../Middlewares/stm32-mw-camera/sensors/cmw_vd66gy.c ****   vd6g_if->Init = CMW_VD66GY_Init;
 2200              		.loc 1 686 3 is_stmt 0 view .LVU623
 2201 0084 FFF7FEFF 		bl	memset
 2202              	.LVL212:
 687:../Middlewares/stm32-mw-camera/sensors/cmw_vd66gy.c ****   vd6g_if->DeInit = CMW_VD66GY_DeInit;
 2203              		.loc 1 687 3 is_stmt 1 view .LVU624
ARM GAS  /tmp/ccOQJSAL.s 			page 60


 687:../Middlewares/stm32-mw-camera/sensors/cmw_vd66gy.c ****   vd6g_if->DeInit = CMW_VD66GY_DeInit;
 2204              		.loc 1 687 17 is_stmt 0 view .LVU625
 2205 0088 174B     		ldr	r3, .L109+40
 2206 008a 2B60     		str	r3, [r5]
 688:../Middlewares/stm32-mw-camera/sensors/cmw_vd66gy.c ****   vd6g_if->Run = CMW_VD66GY_Run;
 2207              		.loc 1 688 3 is_stmt 1 view .LVU626
 688:../Middlewares/stm32-mw-camera/sensors/cmw_vd66gy.c ****   vd6g_if->Run = CMW_VD66GY_Run;
 2208              		.loc 1 688 19 is_stmt 0 view .LVU627
 2209 008c 174B     		ldr	r3, .L109+44
 2210 008e 6B60     		str	r3, [r5, #4]
 689:../Middlewares/stm32-mw-camera/sensors/cmw_vd66gy.c ****   vd6g_if->VsyncEventCallback = CMW_VD66GY_VsyncEventCallback;
 2211              		.loc 1 689 3 is_stmt 1 view .LVU628
 689:../Middlewares/stm32-mw-camera/sensors/cmw_vd66gy.c ****   vd6g_if->VsyncEventCallback = CMW_VD66GY_VsyncEventCallback;
 2212              		.loc 1 689 16 is_stmt 0 view .LVU629
 2213 0090 174B     		ldr	r3, .L109+48
 2214 0092 EB60     		str	r3, [r5, #12]
 690:../Middlewares/stm32-mw-camera/sensors/cmw_vd66gy.c ****   vd6g_if->FrameEventCallback = CMW_VD66GY_FrameEventCallback;
 2215              		.loc 1 690 3 is_stmt 1 view .LVU630
 690:../Middlewares/stm32-mw-camera/sensors/cmw_vd66gy.c ****   vd6g_if->FrameEventCallback = CMW_VD66GY_FrameEventCallback;
 2216              		.loc 1 690 31 is_stmt 0 view .LVU631
 2217 0094 174B     		ldr	r3, .L109+52
 2218 0096 2B61     		str	r3, [r5, #16]
 691:../Middlewares/stm32-mw-camera/sensors/cmw_vd66gy.c ****   vd6g_if->Start = CMW_VD66GY_Start;
 2219              		.loc 1 691 3 is_stmt 1 view .LVU632
 691:../Middlewares/stm32-mw-camera/sensors/cmw_vd66gy.c ****   vd6g_if->Start = CMW_VD66GY_Start;
 2220              		.loc 1 691 31 is_stmt 0 view .LVU633
 2221 0098 174B     		ldr	r3, .L109+56
 2222 009a 6B61     		str	r3, [r5, #20]
 692:../Middlewares/stm32-mw-camera/sensors/cmw_vd66gy.c ****   vd6g_if->Stop = CMW_VD66GY_Stop;
 2223              		.loc 1 692 3 is_stmt 1 view .LVU634
 692:../Middlewares/stm32-mw-camera/sensors/cmw_vd66gy.c ****   vd6g_if->Stop = CMW_VD66GY_Stop;
 2224              		.loc 1 692 18 is_stmt 0 view .LVU635
 2225 009c 174B     		ldr	r3, .L109+60
 2226 009e AB60     		str	r3, [r5, #8]
 693:../Middlewares/stm32-mw-camera/sensors/cmw_vd66gy.c ****   vd6g_if->SetGain = CMW_VD66GY_SetGain;
 2227              		.loc 1 693 3 is_stmt 1 view .LVU636
 693:../Middlewares/stm32-mw-camera/sensors/cmw_vd66gy.c ****   vd6g_if->SetGain = CMW_VD66GY_SetGain;
 2228              		.loc 1 693 17 is_stmt 0 view .LVU637
 2229 00a0 174B     		ldr	r3, .L109+64
 2230 00a2 AB61     		str	r3, [r5, #24]
 694:../Middlewares/stm32-mw-camera/sensors/cmw_vd66gy.c ****   vd6g_if->SetExposure = CMW_VD66GY_SetExposure;
 2231              		.loc 1 694 3 is_stmt 1 view .LVU638
 694:../Middlewares/stm32-mw-camera/sensors/cmw_vd66gy.c ****   vd6g_if->SetExposure = CMW_VD66GY_SetExposure;
 2232              		.loc 1 694 20 is_stmt 0 view .LVU639
 2233 00a4 174B     		ldr	r3, .L109+68
 2234 00a6 AB64     		str	r3, [r5, #72]
 695:../Middlewares/stm32-mw-camera/sensors/cmw_vd66gy.c ****   vd6g_if->SetExposureMode = CMW_VD66GY_SetExposureMode;
 2235              		.loc 1 695 3 is_stmt 1 view .LVU640
 695:../Middlewares/stm32-mw-camera/sensors/cmw_vd66gy.c ****   vd6g_if->SetExposureMode = CMW_VD66GY_SetExposureMode;
 2236              		.loc 1 695 24 is_stmt 0 view .LVU641
 2237 00a8 174B     		ldr	r3, .L109+72
 2238 00aa EB64     		str	r3, [r5, #76]
 696:../Middlewares/stm32-mw-camera/sensors/cmw_vd66gy.c ****   vd6g_if->SetWBRefMode = CMW_VD66GY_SetWBRefMode;
 2239              		.loc 1 696 3 is_stmt 1 view .LVU642
 696:../Middlewares/stm32-mw-camera/sensors/cmw_vd66gy.c ****   vd6g_if->SetWBRefMode = CMW_VD66GY_SetWBRefMode;
 2240              		.loc 1 696 28 is_stmt 0 view .LVU643
 2241 00ac 174B     		ldr	r3, .L109+76
ARM GAS  /tmp/ccOQJSAL.s 			page 61


 2242 00ae 2B65     		str	r3, [r5, #80]
 697:../Middlewares/stm32-mw-camera/sensors/cmw_vd66gy.c ****   vd6g_if->ListWBRefModes = CMW_VD66GY_ListWBRefModes;
 2243              		.loc 1 697 3 is_stmt 1 view .LVU644
 697:../Middlewares/stm32-mw-camera/sensors/cmw_vd66gy.c ****   vd6g_if->ListWBRefModes = CMW_VD66GY_ListWBRefModes;
 2244              		.loc 1 697 25 is_stmt 0 view .LVU645
 2245 00b0 174B     		ldr	r3, .L109+80
 2246 00b2 6B65     		str	r3, [r5, #84]
 698:../Middlewares/stm32-mw-camera/sensors/cmw_vd66gy.c ****   vd6g_if->GetSensorInfo = CMW_VD66GY_GetSensorInfo;
 2247              		.loc 1 698 3 is_stmt 1 view .LVU646
 698:../Middlewares/stm32-mw-camera/sensors/cmw_vd66gy.c ****   vd6g_if->GetSensorInfo = CMW_VD66GY_GetSensorInfo;
 2248              		.loc 1 698 27 is_stmt 0 view .LVU647
 2249 00b4 174B     		ldr	r3, .L109+84
 2250 00b6 AB65     		str	r3, [r5, #88]
 699:../Middlewares/stm32-mw-camera/sensors/cmw_vd66gy.c ****   return ret;
 2251              		.loc 1 699 3 is_stmt 1 view .LVU648
 699:../Middlewares/stm32-mw-camera/sensors/cmw_vd66gy.c ****   return ret;
 2252              		.loc 1 699 26 is_stmt 0 view .LVU649
 2253 00b8 174B     		ldr	r3, .L109+88
 2254 00ba 2B66     		str	r3, [r5, #96]
 700:../Middlewares/stm32-mw-camera/sensors/cmw_vd66gy.c **** }
 2255              		.loc 1 700 3 is_stmt 1 view .LVU650
 700:../Middlewares/stm32-mw-camera/sensors/cmw_vd66gy.c **** }
 2256              		.loc 1 700 10 is_stmt 0 view .LVU651
 2257 00bc CFE7     		b	.L105
 2258              	.L110:
 2259 00be 00BF     		.align	2
 2260              	.L109:
 2261 00c0 00000000 		.word	VD6G_ShutdownPin
 2262 00c4 00000000 		.word	VD6G_Read8
 2263 00c8 00000000 		.word	VD6G_Read16
 2264 00cc 00000000 		.word	VD6G_Read32
 2265 00d0 00000000 		.word	VD6G_Write8
 2266 00d4 00000000 		.word	VD6G_Write16
 2267 00d8 00000000 		.word	VD6G_Write32
 2268 00dc 00000000 		.word	VD6G_WriteArray
 2269 00e0 00000000 		.word	VD6G_Delay
 2270 00e4 00000000 		.word	VD6G_Log
 2271 00e8 00000000 		.word	CMW_VD66GY_Init
 2272 00ec 00000000 		.word	CMW_VD66GY_DeInit
 2273 00f0 00000000 		.word	CMW_VD66GY_Run
 2274 00f4 00000000 		.word	CMW_VD66GY_VsyncEventCallback
 2275 00f8 00000000 		.word	CMW_VD66GY_FrameEventCallback
 2276 00fc 00000000 		.word	CMW_VD66GY_Start
 2277 0100 00000000 		.word	CMW_VD66GY_Stop
 2278 0104 00000000 		.word	CMW_VD66GY_SetGain
 2279 0108 00000000 		.word	CMW_VD66GY_SetExposure
 2280 010c 00000000 		.word	CMW_VD66GY_SetExposureMode
 2281 0110 00000000 		.word	CMW_VD66GY_SetWBRefMode
 2282 0114 00000000 		.word	CMW_VD66GY_ListWBRefModes
 2283 0118 00000000 		.word	CMW_VD66GY_GetSensorInfo
 2284              		.cfi_endproc
 2285              	.LFE1507:
 2287              		.section	.rodata.__func__.0,"a"
 2290              	__func__.0:
 2291 0000 434D575F 		.ascii	"CMW_VD66GY_SetDefaultSensorValues\000"
 2291      56443636 
 2291      47595F53 
ARM GAS  /tmp/ccOQJSAL.s 			page 62


 2291      65744465 
 2291      6661756C 
 2292              		.section	.rodata.ISP_IQParamCacheInit_VD66GY,"a"
 2293              		.align	2
 2296              	ISP_IQParamCacheInit_VD66GY:
 2297 0000 00       		.byte	0
 2298 0001 000000   		.space	3
 2299 0004 00000000 		.word	0
 2300 0008 00000000 		.word	0
 2301 000c 01       		.byte	1
 2302 000d 01       		.byte	1
 2303 000e 02       		.byte	2
 2304 000f 04       		.byte	4
 2305 0010 04       		.byte	4
 2306 0011 06       		.byte	6
 2307 0012 0000     		.space	2
 2308 0014 00       		.byte	0
 2309 0015 000000   		.space	3
 2310 0018 00000000 		.word	0
 2311 001c 00000000 		.word	0
 2312 0020 00000000 		.word	0
 2313 0024 00000000 		.word	0
 2314 0028 00000000 		.word	0
 2315 002c 00000000 		.word	0
 2316 0030 00000000 		.word	0
 2317 0034 00000000 		.word	0
 2318 0038 00000000 		.word	0
 2319 003c 8C000000 		.word	140
 2320 0040 55010000 		.word	341
 2321 0044 48030000 		.word	840
 2322 0048 AA020000 		.word	682
 2323 004c 00000000 		.word	0
 2324 0050 00000000 		.word	0
 2325 0054 00       		.byte	0
 2326 0055 000000   		.space	3
 2327 0058 00000000 		.word	0
 2328 005c 00       		.byte	0
 2329 005d 00       		.byte	0
 2330 005e 00000000 		.space	6
 2330      0000
 2331 0064 01       		.byte	1
 2332 0065 10       		.byte	16
 2333 0066 10       		.byte	16
 2334 0067 10       		.byte	16
 2335 0068 00       		.byte	0
 2336 0069 00       		.byte	0
 2337 006a 00000000 		.space	6
 2337      0000
 2338 0070 00       		.byte	0
 2339 0071 000000   		.space	3
 2340 0074 01       		.byte	1
 2341 0075 4A756467 		.ascii	"JudgeII-A\000"
 2341      6549492D 
 2341      4100
 2342 007f 00000000 		.space	22
 2342      00000000 
 2342      00000000 
ARM GAS  /tmp/ccOQJSAL.s 			page 63


 2342      00000000 
 2342      00000000 
 2343 0095 4A756467 		.ascii	"JudgeII-TL84\000"
 2343      6549492D 
 2343      544C3834 
 2343      00
 2344 00a2 00000000 		.space	19
 2344      00000000 
 2344      00000000 
 2344      00000000 
 2344      000000
 2345 00b5 4A756467 		.ascii	"JudgeII-DAY\000"
 2345      6549492D 
 2345      44415900 
 2346 00c1 00000000 		.space	20
 2346      00000000 
 2346      00000000 
 2346      00000000 
 2346      00000000 
 2347 00d5 00       		.ascii	"\000"
 2348 00d6 00000000 		.space	31
 2348      00000000 
 2348      00000000 
 2348      00000000 
 2348      00000000 
 2349 00f5 00       		.ascii	"\000"
 2350 00f6 00000000 		.space	31
 2350      00000000 
 2350      00000000 
 2350      00000000 
 2350      00000000 
 2351 0115 000000   		.space	3
 2352 0118 BE0A0000 		.word	2750
 2353 011c 36100000 		.word	4150
 2354 0120 5E1A0000 		.word	6750
 2355 0124 00000000 		.word	0
 2356 0128 00000000 		.word	0
 2357 012c C095A905 		.word	95000000
 2358 0130 4047F906 		.word	117000000
 2359 0134 005F4C09 		.word	156000000
 2360 0138 00000000 		.word	0
 2361 013c 00000000 		.word	0
 2362 0140 00E1F505 		.word	100000000
 2363 0144 00E1F505 		.word	100000000
 2364 0148 00E1F505 		.word	100000000
 2365 014c 00000000 		.word	0
 2366 0150 00000000 		.word	0
 2367 0154 80972F0E 		.word	238000000
 2368 0158 40E9430B 		.word	189000000
 2369 015c 80D1F008 		.word	150000000
 2370 0160 00000000 		.word	0
 2371 0164 00000000 		.word	0
 2372 0168 1FC3FB07 		.word	133939999
 2373 016c E0C0C4FE 		.word	-20660000
 2374 0170 80B422FE 		.word	-31280000
 2375 0174 30D8BDFD 		.word	-37890000
 2376 0178 80EFEB08 		.word	149680000
ARM GAS  /tmp/ccOQJSAL.s 			page 64


 2377 017c 618670FE 		.word	-26179999
 2378 0180 C0201F00 		.word	2040000
 2379 0184 404EAEFA 		.word	-89240000
 2380 0188 70DB380D 		.word	221830000
 2381 018c 006BCD08 		.word	147680000
 2382 0190 7021B7FD 		.word	-38330000
 2383 0194 800040FE 		.word	-29360000
 2384 0198 00C498FD 		.word	-40320000
 2385 019c 90EFB308 		.word	146010000
 2386 01a0 C0DF20FE 		.word	-31400000
 2387 01a4 E0C81000 		.word	1100000
 2388 01a8 408D59FC 		.word	-61240000
 2389 01ac 70156B0A 		.word	174790000
 2390 01b0 90EFB308 		.word	146010000
 2391 01b4 80A2A8FD 		.word	-39280000
 2392 01b8 207629FF 		.word	-14060000
 2393 01bc D0D367FE 		.word	-26750000
 2394 01c0 10D01609 		.word	152490000
 2395 01c4 403277FD 		.word	-42520000
 2396 01c8 40B31100 		.word	1160000
 2397 01cc B082B2FC 		.word	-55410000
 2398 01d0 70E49308 		.word	143910000
 2399 01d4 00000000 		.word	0
 2400 01d8 00000000 		.word	0
 2401 01dc 00000000 		.word	0
 2402 01e0 00000000 		.word	0
 2403 01e4 00000000 		.word	0
 2404 01e8 00000000 		.word	0
 2405 01ec 00000000 		.word	0
 2406 01f0 00000000 		.word	0
 2407 01f4 00000000 		.word	0
 2408 01f8 00000000 		.word	0
 2409 01fc 00000000 		.word	0
 2410 0200 00000000 		.word	0
 2411 0204 00000000 		.word	0
 2412 0208 00000000 		.word	0
 2413 020c 00000000 		.word	0
 2414 0210 00000000 		.word	0
 2415 0214 00000000 		.word	0
 2416 0218 00000000 		.word	0
 2417 021c 50411E   		.ascii	"PA\036"
 2418 021f 454626   		.ascii	"EF&"
 2419 0222 36462D   		.ascii	"6F-"
 2420 0225 000000   		.ascii	"\000\000\000"
 2421 0228 000000   		.ascii	"\000\000\000"
 2422 022b 00       		.space	1
 2423 022c 00       		.byte	0
 2424 022d 000000   		.space	3
 2425 0230 00000000 		.word	0
 2426 0234 00000000 		.word	0
 2427 0238 00000000 		.word	0
 2428 023c 00       		.byte	0
 2429 023d 000000   		.space	3
 2430 0240 00000000 		.word	0
 2431 0244 00000000 		.word	0
 2432 0248 00000000 		.word	0
 2433 024c 00000000 		.word	0
ARM GAS  /tmp/ccOQJSAL.s 			page 65


 2434 0250 00000000 		.word	0
 2435 0254 00000000 		.word	0
 2436 0258 00000000 		.word	0
 2437 025c 00000000 		.word	0
 2438 0260 00000000 		.word	0
 2439 0264 01       		.byte	1
 2440 0265 04       		.byte	4
 2441 0266 0000     		.space	2
 2442 0268 78050000 		.word	1400
 2443 026c D0070000 		.word	2000
 2444 0270 2A       		.byte	42
 2445 0271 000000   		.space	3
 2446 0274 204E0000 		.word	20000
 2447 0278 C8       		.byte	-56
 2448 0279 000000   		.space	3
 2449 027c 2C010000 		.word	300
 2450 0280 88130000 		.word	5000
 2451 0284 14       		.byte	20
 2452 0285 000000   		.space	3
 2453 0288 83740000 		.word	29827
 2454 028c 6F       		.byte	111
 2455 028d 000000   		.space	3
 2456 0290 91ED3C3F 		.word	1060957585
 2457              		.text
 2458              	.Letext0:
 2459              		.file 2 "/opt/st/stm32cubeclt_1.21.0/GNU-tools-for-STM32/arm-none-eabi/include/machine/_default_ty
 2460              		.file 3 "/opt/st/stm32cubeclt_1.21.0/GNU-tools-for-STM32/arm-none-eabi/include/sys/_stdint.h"
 2461              		.file 4 "../STM32Cube_FW_N6/Drivers/CMSIS/Device/ST/STM32N6xx/Include/stm32n657xx.h"
 2462              		.file 5 "../STM32Cube_FW_N6/Drivers/STM32N6xx_HAL_Driver/Inc/stm32n6xx_hal_dcmipp.h"
 2463              		.file 6 "/opt/st/stm32cubeclt_1.21.0/GNU-tools-for-STM32/lib/gcc/arm-none-eabi/14.3.1/include/stda
 2464              		.file 7 "/opt/st/stm32cubeclt_1.21.0/GNU-tools-for-STM32/arm-none-eabi/include/stdio.h"
 2465              		.file 8 "../Middlewares/stm32-mw-camera/ISP_Library/isp/Inc/isp_core.h"
 2466              		.file 9 "../Middlewares/stm32-mw-camera/sensors/cmw_sensors_if.h"
 2467              		.file 10 "../Middlewares/stm32-mw-camera/sensors/vd6g/vd6g.h"
 2468              		.file 11 "../Middlewares/stm32-mw-camera/cmw_camera.h"
 2469              		.file 12 "../Middlewares/stm32-mw-camera/sensors/cmw_vd66gy.h"
 2470              		.file 13 "/opt/st/stm32cubeclt_1.21.0/GNU-tools-for-STM32/lib/gcc/arm-none-eabi/14.3.1/include/arm
 2471              		.file 14 "Inc/app_config.h"
 2472              		.file 15 "Inc/imx335_isp_param_conf.h"
 2473              		.file 16 "Inc/vd66gy_isp_param_conf.h"
 2474              		.file 17 "Inc/vd1943_isp_param_conf.h"
 2475              		.file 18 "../Middlewares/stm32-mw-camera/ISP_Library/isp/Inc/isp_api.h"
 2476              		.file 19 "../STM32Cube_FW_N6/Drivers/STM32N6xx_HAL_Driver/Inc/stm32n6xx_hal.h"
 2477              		.file 20 "/opt/st/stm32cubeclt_1.21.0/GNU-tools-for-STM32/arm-none-eabi/include/string.h"
 2478              		.file 21 "/opt/st/stm32cubeclt_1.21.0/GNU-tools-for-STM32/arm-none-eabi/include/math.h"
 2479              		.file 22 "/opt/st/stm32cubeclt_1.21.0/GNU-tools-for-STM32/arm-none-eabi/include/assert.h"
 2480              		.file 23 "Inc/isp_param_conf.h"
 2481              		.file 24 "<built-in>"
ARM GAS  /tmp/ccOQJSAL.s 			page 66

