ARM GAS  /tmp/ccLUFO2E.s 			page 1


   1              		.arch armv8.1-m.main
   2              		.fpu fpv5-d16
   3              		.arch_extension dsp
   4              		.arch_extension fp
   5              		.arch_extension fp.dp
   6              		.arch_extension mve
   7              		.arch_extension mve.fp
   8              		.eabi_attribute 5, "cortex-m55"
   9              		.eabi_attribute 28, 1
  10              		.eabi_attribute 20, 1
  11              		.eabi_attribute 21, 1
  12              		.eabi_attribute 23, 3
  13              		.eabi_attribute 24, 1
  14              		.eabi_attribute 25, 1
  15              		.eabi_attribute 26, 1
  16              		.eabi_attribute 30, 4
  17              		.eabi_attribute 34, 1
  18              		.eabi_attribute 38, 1
  19              		.eabi_attribute 18, 4
  20              		.file	"cmw_utils.c"
  21              		.text
  22              	.Ltext0:
  23              		.cfi_sections	.debug_frame
  24              		.file 1 "../Middlewares/stm32-mw-camera/cmw_utils.c"
  25              		.section	.rodata.CMW_UTILS_GetPipeConfig.str1.1,"aMS",%progbits,1
  26              	.LC0:
  27 0000 72617469 		.ascii	"ratio >= 1\000"
  27      6F203E3D 
  27      203100
  28              	.LC1:
  29 000b 2E2E2F4D 		.ascii	"../Middlewares/stm32-mw-camera/cmw_utils.c\000"
  29      6964646C 
  29      65776172 
  29      65732F73 
  29      746D3332 
  30              	.LC2:
  31 0036 72617469 		.ascii	"ratio < 64\000"
  31      6F203C20 
  31      363400
  32              	.LC3:
  33 0041 3000     		.ascii	"0\000"
  34              		.section	.text.CMW_UTILS_GetPipeConfig,"ax",%progbits
  35              		.align	1
  36              		.global	CMW_UTILS_GetPipeConfig
  37              		.syntax unified
  38              		.thumb
  39              		.thumb_func
  41              	CMW_UTILS_GetPipeConfig:
  42              	.LVL0:
  43              	.LFB884:
   1:../Middlewares/stm32-mw-camera/cmw_utils.c ****  /**
   2:../Middlewares/stm32-mw-camera/cmw_utils.c ****  ******************************************************************************
   3:../Middlewares/stm32-mw-camera/cmw_utils.c ****  * @file    cmw_utils.c
   4:../Middlewares/stm32-mw-camera/cmw_utils.c ****  * @author  GPM Application Team
   5:../Middlewares/stm32-mw-camera/cmw_utils.c ****  *
   6:../Middlewares/stm32-mw-camera/cmw_utils.c ****  ******************************************************************************
   7:../Middlewares/stm32-mw-camera/cmw_utils.c ****  * @attention
ARM GAS  /tmp/ccLUFO2E.s 			page 2


   8:../Middlewares/stm32-mw-camera/cmw_utils.c ****  *
   9:../Middlewares/stm32-mw-camera/cmw_utils.c ****  * Copyright (c) 2024 STMicroelectronics.
  10:../Middlewares/stm32-mw-camera/cmw_utils.c ****  * All rights reserved.
  11:../Middlewares/stm32-mw-camera/cmw_utils.c ****  *
  12:../Middlewares/stm32-mw-camera/cmw_utils.c ****  * This software is licensed under terms that can be found in the LICENSE file
  13:../Middlewares/stm32-mw-camera/cmw_utils.c ****  * in the root directory of this software component.
  14:../Middlewares/stm32-mw-camera/cmw_utils.c ****  * If no LICENSE file comes with this software, it is provided AS-IS.
  15:../Middlewares/stm32-mw-camera/cmw_utils.c ****  *
  16:../Middlewares/stm32-mw-camera/cmw_utils.c ****  ******************************************************************************
  17:../Middlewares/stm32-mw-camera/cmw_utils.c ****  */
  18:../Middlewares/stm32-mw-camera/cmw_utils.c **** 
  19:../Middlewares/stm32-mw-camera/cmw_utils.c **** #include "cmw_utils.h"
  20:../Middlewares/stm32-mw-camera/cmw_utils.c **** 
  21:../Middlewares/stm32-mw-camera/cmw_utils.c **** #include <assert.h>
  22:../Middlewares/stm32-mw-camera/cmw_utils.c **** #include "stm32n6xx_hal_dcmipp.h"
  23:../Middlewares/stm32-mw-camera/cmw_utils.c **** 
  24:../Middlewares/stm32-mw-camera/cmw_utils.c **** #ifndef MIN
  25:../Middlewares/stm32-mw-camera/cmw_utils.c **** #define MIN(a,b) ((a)<(b)?(a):(b))
  26:../Middlewares/stm32-mw-camera/cmw_utils.c **** #endif
  27:../Middlewares/stm32-mw-camera/cmw_utils.c **** 
  28:../Middlewares/stm32-mw-camera/cmw_utils.c **** #ifndef MAX
  29:../Middlewares/stm32-mw-camera/cmw_utils.c **** #define MAX(a,b) ((a)>(b)?(a):(b))
  30:../Middlewares/stm32-mw-camera/cmw_utils.c **** #endif
  31:../Middlewares/stm32-mw-camera/cmw_utils.c **** 
  32:../Middlewares/stm32-mw-camera/cmw_utils.c **** 
  33:../Middlewares/stm32-mw-camera/cmw_utils.c **** 
  34:../Middlewares/stm32-mw-camera/cmw_utils.c **** 
  35:../Middlewares/stm32-mw-camera/cmw_utils.c **** 
  36:../Middlewares/stm32-mw-camera/cmw_utils.c **** 
  37:../Middlewares/stm32-mw-camera/cmw_utils.c **** static void CMW_UTILS_get_crop_config(uint32_t cam_width, uint32_t cam_height, uint32_t pipe_width,
  38:../Middlewares/stm32-mw-camera/cmw_utils.c ****                                       uint32_t pipe_height, DCMIPP_CropConfTypeDef *crop);
  39:../Middlewares/stm32-mw-camera/cmw_utils.c **** static void CMW_UTILS_get_crop_config_from_manual(CMW_Manual_roi_area_t *conf, DCMIPP_CropConfTypeD
  40:../Middlewares/stm32-mw-camera/cmw_utils.c **** static void CMW_UTILS_get_down_config(float ratio_width, float ratio_height, int width, int height,
  41:../Middlewares/stm32-mw-camera/cmw_utils.c ****                                       DCMIPP_DownsizeTypeDef *down);
  42:../Middlewares/stm32-mw-camera/cmw_utils.c **** static uint32_t CMW_UTILS_get_dec_ratio_and_update(float *ratio, int is_vertical);
  43:../Middlewares/stm32-mw-camera/cmw_utils.c **** static void CMW_UTILS_get_scale_configs(CMW_DCMIPP_Conf_t *p_conf, float ratio_width, float ratio_h
  44:../Middlewares/stm32-mw-camera/cmw_utils.c ****                                        DCMIPP_DecimationConfTypeDef *dec, DCMIPP_DownsizeTypeDef *d
  45:../Middlewares/stm32-mw-camera/cmw_utils.c **** 
  46:../Middlewares/stm32-mw-camera/cmw_utils.c **** void CMW_UTILS_GetPipeConfig(uint32_t cam_width, uint32_t cam_height, CMW_DCMIPP_Conf_t *p_conf,
  47:../Middlewares/stm32-mw-camera/cmw_utils.c ****                              DCMIPP_CropConfTypeDef *crop, DCMIPP_DecimationConfTypeDef *dec,
  48:../Middlewares/stm32-mw-camera/cmw_utils.c ****                              DCMIPP_DownsizeTypeDef *down)
  49:../Middlewares/stm32-mw-camera/cmw_utils.c **** {
  44              		.loc 1 49 1 view -0
  45              		.cfi_startproc
  46              		@ args = 8, pretend = 0, frame = 0
  47              		@ frame_needed = 0, uses_anonymous_args = 0
  48              		.loc 1 49 1 is_stmt 0 view .LVU1
  49 0000 F8B5     		push	{r3, r4, r5, r6, r7, lr}
  50              		.cfi_def_cfa_offset 24
  51              		.cfi_offset 3, -24
  52              		.cfi_offset 4, -20
  53              		.cfi_offset 5, -16
  54              		.cfi_offset 6, -12
  55              		.cfi_offset 7, -8
  56              		.cfi_offset 14, -4
  50:../Middlewares/stm32-mw-camera/cmw_utils.c ****   float ratio_height = 0;
  51:../Middlewares/stm32-mw-camera/cmw_utils.c ****   float ratio_width = 0;
ARM GAS  /tmp/ccLUFO2E.s 			page 3


  52:../Middlewares/stm32-mw-camera/cmw_utils.c **** 
  53:../Middlewares/stm32-mw-camera/cmw_utils.c ****   if (p_conf->mode == CMW_Aspect_ratio_crop)
  54:../Middlewares/stm32-mw-camera/cmw_utils.c ****   {
  55:../Middlewares/stm32-mw-camera/cmw_utils.c ****     CMW_UTILS_get_crop_config(cam_width, cam_height, p_conf->output_width, p_conf->output_height, c
  57              		.loc 1 55 5 view .LVU2
  58 0002 5768     		ldr	r7, [r2, #4]
  53:../Middlewares/stm32-mw-camera/cmw_utils.c ****   {
  59              		.loc 1 53 13 view .LVU3
  60 0004 9669     		ldr	r6, [r2, #24]
  61              	.LBB18:
  62              	.LBB19:
  56:../Middlewares/stm32-mw-camera/cmw_utils.c ****     ratio_width = (float)crop->HSize / p_conf->output_width;
  57:../Middlewares/stm32-mw-camera/cmw_utils.c ****     ratio_height = (float)crop->VSize / p_conf->output_height;
  58:../Middlewares/stm32-mw-camera/cmw_utils.c ****   }
  59:../Middlewares/stm32-mw-camera/cmw_utils.c ****   else if (p_conf->mode == CMW_Aspect_ratio_fit)
  60:../Middlewares/stm32-mw-camera/cmw_utils.c ****   {
  61:../Middlewares/stm32-mw-camera/cmw_utils.c ****     ratio_width = (float)cam_width / p_conf->output_width;
  62:../Middlewares/stm32-mw-camera/cmw_utils.c ****     ratio_height = (float)cam_height / p_conf->output_height;
  63:../Middlewares/stm32-mw-camera/cmw_utils.c ****   }
  64:../Middlewares/stm32-mw-camera/cmw_utils.c ****   else if (p_conf->mode == CMW_Aspect_ratio_fullscreen)
  65:../Middlewares/stm32-mw-camera/cmw_utils.c ****   {
  66:../Middlewares/stm32-mw-camera/cmw_utils.c ****     ratio_height = (float) cam_height / p_conf->output_height;
  67:../Middlewares/stm32-mw-camera/cmw_utils.c ****     ratio_width = (float) ratio_height;
  68:../Middlewares/stm32-mw-camera/cmw_utils.c ****   }
  69:../Middlewares/stm32-mw-camera/cmw_utils.c ****   else
  70:../Middlewares/stm32-mw-camera/cmw_utils.c ****   {
  71:../Middlewares/stm32-mw-camera/cmw_utils.c ****     CMW_UTILS_get_crop_config_from_manual(&p_conf->manual_conf, crop);
  72:../Middlewares/stm32-mw-camera/cmw_utils.c ****     ratio_width = (float)crop->HSize / p_conf->output_width;
  73:../Middlewares/stm32-mw-camera/cmw_utils.c ****     ratio_height = (float)crop->VSize / p_conf->output_height;
  74:../Middlewares/stm32-mw-camera/cmw_utils.c ****   }
  75:../Middlewares/stm32-mw-camera/cmw_utils.c **** 
  76:../Middlewares/stm32-mw-camera/cmw_utils.c ****   CMW_UTILS_get_scale_configs(p_conf, ratio_width, ratio_height, dec, down);
  77:../Middlewares/stm32-mw-camera/cmw_utils.c **** }
  78:../Middlewares/stm32-mw-camera/cmw_utils.c **** 
  79:../Middlewares/stm32-mw-camera/cmw_utils.c **** int32_t CMW_UTILS_getClosest_HAL_PHYBitrate(uint32_t val)
  80:../Middlewares/stm32-mw-camera/cmw_utils.c **** {
  81:../Middlewares/stm32-mw-camera/cmw_utils.c ****   static const uint32_t PHYBitrate_in_mps[][2] =
  82:../Middlewares/stm32-mw-camera/cmw_utils.c ****   {
  83:../Middlewares/stm32-mw-camera/cmw_utils.c ****     {DCMIPP_CSI_PHY_BT_80 , 80000000},
  84:../Middlewares/stm32-mw-camera/cmw_utils.c ****     {DCMIPP_CSI_PHY_BT_90 , 90000000},
  85:../Middlewares/stm32-mw-camera/cmw_utils.c ****     {DCMIPP_CSI_PHY_BT_100, 100000000},
  86:../Middlewares/stm32-mw-camera/cmw_utils.c ****     {DCMIPP_CSI_PHY_BT_110, 110000000},
  87:../Middlewares/stm32-mw-camera/cmw_utils.c ****     {DCMIPP_CSI_PHY_BT_120, 120000000},
  88:../Middlewares/stm32-mw-camera/cmw_utils.c ****     {DCMIPP_CSI_PHY_BT_130, 130000000},
  89:../Middlewares/stm32-mw-camera/cmw_utils.c ****     {DCMIPP_CSI_PHY_BT_140, 140000000},
  90:../Middlewares/stm32-mw-camera/cmw_utils.c ****     {DCMIPP_CSI_PHY_BT_150, 150000000},
  91:../Middlewares/stm32-mw-camera/cmw_utils.c ****     {DCMIPP_CSI_PHY_BT_160, 160000000},
  92:../Middlewares/stm32-mw-camera/cmw_utils.c ****     {DCMIPP_CSI_PHY_BT_170, 170000000},
  93:../Middlewares/stm32-mw-camera/cmw_utils.c ****     {DCMIPP_CSI_PHY_BT_180, 180000000},
  94:../Middlewares/stm32-mw-camera/cmw_utils.c ****     {DCMIPP_CSI_PHY_BT_190, 190000000},
  95:../Middlewares/stm32-mw-camera/cmw_utils.c ****     {DCMIPP_CSI_PHY_BT_205, 205000000},
  96:../Middlewares/stm32-mw-camera/cmw_utils.c ****     {DCMIPP_CSI_PHY_BT_220, 220000000},
  97:../Middlewares/stm32-mw-camera/cmw_utils.c ****     {DCMIPP_CSI_PHY_BT_235, 235000000},
  98:../Middlewares/stm32-mw-camera/cmw_utils.c ****     {DCMIPP_CSI_PHY_BT_250, 250000000},
  99:../Middlewares/stm32-mw-camera/cmw_utils.c ****     {DCMIPP_CSI_PHY_BT_275, 275000000},
 100:../Middlewares/stm32-mw-camera/cmw_utils.c ****     {DCMIPP_CSI_PHY_BT_300, 300000000},
 101:../Middlewares/stm32-mw-camera/cmw_utils.c ****     {DCMIPP_CSI_PHY_BT_325, 325000000},
ARM GAS  /tmp/ccLUFO2E.s 			page 4


 102:../Middlewares/stm32-mw-camera/cmw_utils.c ****     {DCMIPP_CSI_PHY_BT_350, 350000000},
 103:../Middlewares/stm32-mw-camera/cmw_utils.c ****     {DCMIPP_CSI_PHY_BT_400, 400000000},
 104:../Middlewares/stm32-mw-camera/cmw_utils.c ****     {DCMIPP_CSI_PHY_BT_450, 450000000},
 105:../Middlewares/stm32-mw-camera/cmw_utils.c ****     {DCMIPP_CSI_PHY_BT_500, 500000000},
 106:../Middlewares/stm32-mw-camera/cmw_utils.c ****     {DCMIPP_CSI_PHY_BT_550, 550000000},
 107:../Middlewares/stm32-mw-camera/cmw_utils.c ****     {DCMIPP_CSI_PHY_BT_600, 600000000},
 108:../Middlewares/stm32-mw-camera/cmw_utils.c ****     {DCMIPP_CSI_PHY_BT_650, 650000000},
 109:../Middlewares/stm32-mw-camera/cmw_utils.c ****     {DCMIPP_CSI_PHY_BT_700, 700000000},
 110:../Middlewares/stm32-mw-camera/cmw_utils.c ****     {DCMIPP_CSI_PHY_BT_750, 750000000},
 111:../Middlewares/stm32-mw-camera/cmw_utils.c ****     {DCMIPP_CSI_PHY_BT_800, 800000000},
 112:../Middlewares/stm32-mw-camera/cmw_utils.c ****     {DCMIPP_CSI_PHY_BT_850, 850000000},
 113:../Middlewares/stm32-mw-camera/cmw_utils.c ****     {DCMIPP_CSI_PHY_BT_900, 900000000},
 114:../Middlewares/stm32-mw-camera/cmw_utils.c ****     {DCMIPP_CSI_PHY_BT_950, 950000000},
 115:../Middlewares/stm32-mw-camera/cmw_utils.c ****     {DCMIPP_CSI_PHY_BT_1000, 1000000000},
 116:../Middlewares/stm32-mw-camera/cmw_utils.c ****     {DCMIPP_CSI_PHY_BT_1050, 1050000000},
 117:../Middlewares/stm32-mw-camera/cmw_utils.c ****     {DCMIPP_CSI_PHY_BT_1100, 1100000000},
 118:../Middlewares/stm32-mw-camera/cmw_utils.c ****     {DCMIPP_CSI_PHY_BT_1150, 1150000000},
 119:../Middlewares/stm32-mw-camera/cmw_utils.c ****     {DCMIPP_CSI_PHY_BT_1200, 1200000000},
 120:../Middlewares/stm32-mw-camera/cmw_utils.c ****     {DCMIPP_CSI_PHY_BT_1250, 1250000000},
 121:../Middlewares/stm32-mw-camera/cmw_utils.c ****     {DCMIPP_CSI_PHY_BT_1300, 1300000000},
 122:../Middlewares/stm32-mw-camera/cmw_utils.c ****     {DCMIPP_CSI_PHY_BT_1350, 1350000000},
 123:../Middlewares/stm32-mw-camera/cmw_utils.c ****     {DCMIPP_CSI_PHY_BT_1400, 1400000000},
 124:../Middlewares/stm32-mw-camera/cmw_utils.c ****     {DCMIPP_CSI_PHY_BT_1450, 1450000000},
 125:../Middlewares/stm32-mw-camera/cmw_utils.c ****     {DCMIPP_CSI_PHY_BT_1500, 1500000000},
 126:../Middlewares/stm32-mw-camera/cmw_utils.c ****     {DCMIPP_CSI_PHY_BT_1550, 1550000000},
 127:../Middlewares/stm32-mw-camera/cmw_utils.c ****     {DCMIPP_CSI_PHY_BT_1600, 1600000000},
 128:../Middlewares/stm32-mw-camera/cmw_utils.c ****     {DCMIPP_CSI_PHY_BT_1650, 1650000000},
 129:../Middlewares/stm32-mw-camera/cmw_utils.c ****     {DCMIPP_CSI_PHY_BT_1700, 1700000000},
 130:../Middlewares/stm32-mw-camera/cmw_utils.c ****     {DCMIPP_CSI_PHY_BT_1750, 1750000000},
 131:../Middlewares/stm32-mw-camera/cmw_utils.c ****     {DCMIPP_CSI_PHY_BT_1800, 1800000000},
 132:../Middlewares/stm32-mw-camera/cmw_utils.c ****     {DCMIPP_CSI_PHY_BT_1850, 1850000000},
 133:../Middlewares/stm32-mw-camera/cmw_utils.c ****     {DCMIPP_CSI_PHY_BT_1900, 1900000000},
 134:../Middlewares/stm32-mw-camera/cmw_utils.c ****     {DCMIPP_CSI_PHY_BT_1950, 1950000000},
 135:../Middlewares/stm32-mw-camera/cmw_utils.c ****     {DCMIPP_CSI_PHY_BT_2000, 2000000000},
 136:../Middlewares/stm32-mw-camera/cmw_utils.c ****     {DCMIPP_CSI_PHY_BT_2050, 2050000000},
 137:../Middlewares/stm32-mw-camera/cmw_utils.c ****     {DCMIPP_CSI_PHY_BT_2100, 2100000000},
 138:../Middlewares/stm32-mw-camera/cmw_utils.c ****     {DCMIPP_CSI_PHY_BT_2150, 2150000000},
 139:../Middlewares/stm32-mw-camera/cmw_utils.c ****     {DCMIPP_CSI_PHY_BT_2200, 2200000000},
 140:../Middlewares/stm32-mw-camera/cmw_utils.c ****     {DCMIPP_CSI_PHY_BT_2250, 2250000000},
 141:../Middlewares/stm32-mw-camera/cmw_utils.c ****     {DCMIPP_CSI_PHY_BT_2300, 2300000000},
 142:../Middlewares/stm32-mw-camera/cmw_utils.c ****     {DCMIPP_CSI_PHY_BT_2350, 2350000000},
 143:../Middlewares/stm32-mw-camera/cmw_utils.c ****     {DCMIPP_CSI_PHY_BT_2400, 2400000000},
 144:../Middlewares/stm32-mw-camera/cmw_utils.c ****     {DCMIPP_CSI_PHY_BT_2450, 2450000000},
 145:../Middlewares/stm32-mw-camera/cmw_utils.c ****     {DCMIPP_CSI_PHY_BT_2500, 2500000000}
 146:../Middlewares/stm32-mw-camera/cmw_utils.c ****   };
 147:../Middlewares/stm32-mw-camera/cmw_utils.c **** 
 148:../Middlewares/stm32-mw-camera/cmw_utils.c ****   uint32_t closest_i = PHYBitrate_in_mps[0][0];
 149:../Middlewares/stm32-mw-camera/cmw_utils.c ****   int32_t min_diff = abs((int32_t)val - (int32_t)PHYBitrate_in_mps[0][1]);
 150:../Middlewares/stm32-mw-camera/cmw_utils.c ****   size_t size = sizeof(PHYBitrate_in_mps) / sizeof(PHYBitrate_in_mps[0]);
 151:../Middlewares/stm32-mw-camera/cmw_utils.c **** 
 152:../Middlewares/stm32-mw-camera/cmw_utils.c ****   if (size == 0)
 153:../Middlewares/stm32-mw-camera/cmw_utils.c ****   {
 154:../Middlewares/stm32-mw-camera/cmw_utils.c ****       return -1;
 155:../Middlewares/stm32-mw-camera/cmw_utils.c ****   }
 156:../Middlewares/stm32-mw-camera/cmw_utils.c ****   for (size_t i = 1; i < size; i++)
 157:../Middlewares/stm32-mw-camera/cmw_utils.c ****   {
 158:../Middlewares/stm32-mw-camera/cmw_utils.c ****       int32_t diff = abs((int32_t)val - (int32_t)PHYBitrate_in_mps[i][1]);
ARM GAS  /tmp/ccLUFO2E.s 			page 5


 159:../Middlewares/stm32-mw-camera/cmw_utils.c ****       if (diff < min_diff)
 160:../Middlewares/stm32-mw-camera/cmw_utils.c ****       {
 161:../Middlewares/stm32-mw-camera/cmw_utils.c ****           min_diff = diff;
 162:../Middlewares/stm32-mw-camera/cmw_utils.c ****           closest_i = PHYBitrate_in_mps[i][0];
 163:../Middlewares/stm32-mw-camera/cmw_utils.c ****       }
 164:../Middlewares/stm32-mw-camera/cmw_utils.c ****   }
 165:../Middlewares/stm32-mw-camera/cmw_utils.c ****   return closest_i;
 166:../Middlewares/stm32-mw-camera/cmw_utils.c **** }
 167:../Middlewares/stm32-mw-camera/cmw_utils.c **** 
 168:../Middlewares/stm32-mw-camera/cmw_utils.c **** static void CMW_UTILS_get_crop_config(uint32_t cam_width, uint32_t cam_height, uint32_t pipe_width,
 169:../Middlewares/stm32-mw-camera/cmw_utils.c **** {
 170:../Middlewares/stm32-mw-camera/cmw_utils.c ****   const float ratio_width = (float)cam_width / pipe_width ;
 171:../Middlewares/stm32-mw-camera/cmw_utils.c ****   const float ratio_height = (float)cam_height / pipe_height;
  63              		.loc 1 171 48 view .LVU4
  64 0006 07EE907A 		vmov	s15, r7	@ int
  65              	.LBE19:
  66              	.LBE18:
  49:../Middlewares/stm32-mw-camera/cmw_utils.c ****   float ratio_height = 0;
  67              		.loc 1 49 1 view .LVU5
  68 000a DDE90654 		ldrd	r5, r4, [sp, #24]
  69 000e 06EE900A 		vmov	s13, r0	@ int
  70 0012 07EE101A 		vmov	s14, r1	@ int
  50:../Middlewares/stm32-mw-camera/cmw_utils.c ****   float ratio_width = 0;
  71              		.loc 1 50 3 is_stmt 1 view .LVU6
  72              	.LVL1:
  51:../Middlewares/stm32-mw-camera/cmw_utils.c **** 
  73              		.loc 1 51 3 view .LVU7
  53:../Middlewares/stm32-mw-camera/cmw_utils.c ****   {
  74              		.loc 1 53 3 view .LVU8
  75              	.LBB24:
  76              	.LBB20:
  77              		.loc 1 171 48 is_stmt 0 view .LVU9
  78 0016 F8EE675A 		vcvt.f32.u32	s11, s15
  79              	.LBE20:
  80              	.LBE24:
  53:../Middlewares/stm32-mw-camera/cmw_utils.c ****   {
  81              		.loc 1 53 6 view .LVU10
  82 001a 002E     		cmp	r6, #0
  83 001c 5AD1     		bne	.L2
  55:../Middlewares/stm32-mw-camera/cmw_utils.c ****     ratio_width = (float)crop->HSize / p_conf->output_width;
  84              		.loc 1 55 5 is_stmt 1 view .LVU11
  85              	.LVL2:
  86              	.LBB25:
  87              	.LBI18:
 168:../Middlewares/stm32-mw-camera/cmw_utils.c **** {
  88              		.loc 1 168 13 view .LVU12
  89              	.LBB21:
 170:../Middlewares/stm32-mw-camera/cmw_utils.c ****   const float ratio_height = (float)cam_height / pipe_height;
  90              		.loc 1 170 3 view .LVU13
 170:../Middlewares/stm32-mw-camera/cmw_utils.c ****   const float ratio_height = (float)cam_height / pipe_height;
  91              		.loc 1 170 46 is_stmt 0 view .LVU14
  92 001e D2ED007A 		vldr.32	s15, [r2]	@ int
 170:../Middlewares/stm32-mw-camera/cmw_utils.c ****   const float ratio_height = (float)cam_height / pipe_height;
  93              		.loc 1 170 29 view .LVU15
  94 0022 B8EE664A 		vcvt.f32.u32	s8, s13
 170:../Middlewares/stm32-mw-camera/cmw_utils.c ****   const float ratio_height = (float)cam_height / pipe_height;
  95              		.loc 1 170 46 view .LVU16
ARM GAS  /tmp/ccLUFO2E.s 			page 6


  96 0026 B8EE675A 		vcvt.f32.u32	s10, s15
  97              		.loc 1 171 30 view .LVU17
  98 002a F8EE474A 		vcvt.f32.u32	s9, s14
 170:../Middlewares/stm32-mw-camera/cmw_utils.c ****   const float ratio_height = (float)cam_height / pipe_height;
  99              		.loc 1 170 15 view .LVU18
 100 002e C4EE057A 		vdiv.f32	s15, s8, s10
 101              	.LVL3:
 102              		.loc 1 171 3 is_stmt 1 view .LVU19
 103              		.loc 1 171 15 is_stmt 0 view .LVU20
 104 0032 84EEA56A 		vdiv.f32	s12, s9, s11
 105              	.LVL4:
 172:../Middlewares/stm32-mw-camera/cmw_utils.c ****   const float ratio = MIN(ratio_width, ratio_height);
 106              		.loc 1 172 3 is_stmt 1 view .LVU21
 107 0036 B4EEE76A 		vcmpe.f32	s12, s15
 108 003a F1EE10FA 		vmrs	APSR_nzcv, FPSCR
 109 003e 77FE867A 		vselgt.f32	s15, s15, s12
 110              	.LVL5:
 173:../Middlewares/stm32-mw-camera/cmw_utils.c **** 
 174:../Middlewares/stm32-mw-camera/cmw_utils.c ****   assert(ratio >= 1);
 111              		.loc 1 174 3 view .LVU22
 112 0042 B7EE006A 		vmov.f32	s12, #1.0e+0
 113              	.LVL6:
 114              		.loc 1 174 3 is_stmt 0 view .LVU23
 115 0046 F4EEC67A 		vcmpe.f32	s15, s12
 116 004a F1EE10FA 		vmrs	APSR_nzcv, FPSCR
 117 004e 05DA     		bge	.L3
 118              		.loc 1 174 3 discriminator 1 view .LVU24
 119 0050 AE21     		movs	r1, #174
 120              	.LVL7:
 121              		.loc 1 174 3 discriminator 1 view .LVU25
 122 0052 654B     		ldr	r3, .L29
 123              	.LVL8:
 124              		.loc 1 174 3 discriminator 1 view .LVU26
 125 0054 654A     		ldr	r2, .L29+4
 126              	.LVL9:
 127              	.L28:
 175:../Middlewares/stm32-mw-camera/cmw_utils.c ****   assert(ratio < 64);
 128              		.loc 1 175 3 discriminator 1 view .LVU27
 129 0056 6648     		ldr	r0, .L29+8
 130 0058 FFF7FEFF 		bl	__assert_func
 131              	.LVL10:
 132              	.L3:
 133              		.loc 1 175 3 is_stmt 1 view .LVU28
 134 005c 9FED656A 		vldr.32	s12, .L29+12
 135 0060 F4EEC67A 		vcmpe.f32	s15, s12
 136 0064 F1EE10FA 		vmrs	APSR_nzcv, FPSCR
 137 0068 03D4     		bmi	.L4
 138              		.loc 1 175 3 is_stmt 0 discriminator 1 view .LVU29
 139 006a AF21     		movs	r1, #175
 140              	.LVL11:
 141              		.loc 1 175 3 discriminator 1 view .LVU30
 142 006c 624B     		ldr	r3, .L29+16
 143              	.LVL12:
 144              		.loc 1 175 3 discriminator 1 view .LVU31
 145 006e 5F4A     		ldr	r2, .L29+4
 146              	.LVL13:
 147              		.loc 1 175 3 discriminator 1 view .LVU32
ARM GAS  /tmp/ccLUFO2E.s 			page 7


 148 0070 F1E7     		b	.L28
 149              	.LVL14:
 150              	.L4:
 176:../Middlewares/stm32-mw-camera/cmw_utils.c **** 
 177:../Middlewares/stm32-mw-camera/cmw_utils.c ****   crop->HSize = (uint32_t) MIN(pipe_width * ratio, cam_width);
 151              		.loc 1 177 3 is_stmt 1 view .LVU33
 152              		.loc 1 177 28 is_stmt 0 view .LVU34
 153 0072 25EE276A 		vmul.f32	s12, s10, s15
 154 0076 B4EEC64A 		vcmpe.f32	s8, s12
 178:../Middlewares/stm32-mw-camera/cmw_utils.c ****   crop->VSize = (uint32_t) MIN(pipe_height * ratio, cam_height);
 155              		.loc 1 178 28 view .LVU35
 156 007a 67EEA57A 		vmul.f32	s15, s15, s11
 157              	.LVL15:
 158              		.loc 1 178 28 view .LVU36
 159 007e F1EE10FA 		vmrs	APSR_nzcv, FPSCR
 160 0082 F4EEE74A 		vcmpe.f32	s9, s15
 161 0086 36FE046A 		vselgt.f32	s12, s12, s8
 162 008a BCEEC66A 		vcvt.u32.f32	s12, s12
 163 008e F1EE10FA 		vmrs	APSR_nzcv, FPSCR
 179:../Middlewares/stm32-mw-camera/cmw_utils.c ****   crop->HStart = (cam_width - crop->HSize + 1) / 2;
 164              		.loc 1 179 43 view .LVU37
 165 0092 0146     		mov	r1, r0
 166              	.LVL16:
 167              		.loc 1 179 43 view .LVU38
 168 0094 16EE100A 		vmov	r0, s12	@ int
 169              	.LVL17:
 170              		.loc 1 179 43 view .LVU39
 171 0098 77FEA47A 		vselgt.f32	s15, s15, s9
 172 009c FCEEE77A 		vcvt.u32.f32	s15, s15
 173 00a0 0131     		adds	r1, r1, #1
 174 00a2 091A     		subs	r1, r1, r0
 175              		.loc 1 179 48 view .LVU40
 176 00a4 4908     		lsrs	r1, r1, #1
 177              		.loc 1 179 16 view .LVU41
 178 00a6 5960     		str	r1, [r3, #4]
 180:../Middlewares/stm32-mw-camera/cmw_utils.c ****   crop->VStart = (cam_height - crop->VSize + 1) / 2;
 179              		.loc 1 180 44 view .LVU42
 180 00a8 17EE101A 		vmov	r1, s14	@ int
 181              	.LBE21:
 182              	.LBE25:
  56:../Middlewares/stm32-mw-camera/cmw_utils.c ****     ratio_height = (float)crop->VSize / p_conf->output_height;
 183              		.loc 1 56 19 view .LVU43
 184 00ac B8EE467A 		vcvt.f32.u32	s14, s12
 185              	.LVL18:
 186              	.LBB26:
 187              	.LBB22:
 188              		.loc 1 180 44 view .LVU44
 189 00b0 17EE900A 		vmov	r0, s15	@ int
 177:../Middlewares/stm32-mw-camera/cmw_utils.c ****   crop->VSize = (uint32_t) MIN(pipe_height * ratio, cam_height);
 190              		.loc 1 177 15 discriminator 4 view .LVU45
 191 00b4 83ED036A 		vstr.32	s12, [r3, #12]	@ int
 178:../Middlewares/stm32-mw-camera/cmw_utils.c ****   crop->HStart = (cam_width - crop->HSize + 1) / 2;
 192              		.loc 1 178 3 is_stmt 1 view .LVU46
 178:../Middlewares/stm32-mw-camera/cmw_utils.c ****   crop->HStart = (cam_width - crop->HSize + 1) / 2;
 193              		.loc 1 178 15 is_stmt 0 discriminator 4 view .LVU47
 194 00b8 C3ED027A 		vstr.32	s15, [r3, #8]	@ int
 179:../Middlewares/stm32-mw-camera/cmw_utils.c ****   crop->VStart = (cam_height - crop->VSize + 1) / 2;
ARM GAS  /tmp/ccLUFO2E.s 			page 8


 195              		.loc 1 179 3 is_stmt 1 view .LVU48
 196              		.loc 1 180 3 view .LVU49
 197              	.LBE22:
 198              	.LBE26:
  56:../Middlewares/stm32-mw-camera/cmw_utils.c ****     ratio_height = (float)crop->VSize / p_conf->output_height;
 199              		.loc 1 56 17 is_stmt 0 view .LVU50
 200 00bc C7EE056A 		vdiv.f32	s13, s14, s10
 201              	.LVL19:
 202              	.LBB27:
 203              	.LBB23:
 204              		.loc 1 180 44 view .LVU51
 205 00c0 0131     		adds	r1, r1, #1
 206              	.LVL20:
 207              		.loc 1 180 44 view .LVU52
 208 00c2 091A     		subs	r1, r1, r0
 209              	.LVL21:
 210              		.loc 1 180 49 view .LVU53
 211 00c4 4908     		lsrs	r1, r1, #1
 212              		.loc 1 180 16 view .LVU54
 213 00c6 1960     		str	r1, [r3]
 181:../Middlewares/stm32-mw-camera/cmw_utils.c ****   crop->PipeArea = DCMIPP_POSITIVE_AREA;
 214              		.loc 1 181 3 is_stmt 1 view .LVU55
 215              		.loc 1 181 18 is_stmt 0 view .LVU56
 216 00c8 1E61     		str	r6, [r3, #16]
 217              	.LVL22:
 218              		.loc 1 181 18 view .LVU57
 219              	.LBE23:
 220              	.LBE27:
  56:../Middlewares/stm32-mw-camera/cmw_utils.c ****     ratio_height = (float)crop->VSize / p_conf->output_height;
 221              		.loc 1 56 5 is_stmt 1 view .LVU58
  57:../Middlewares/stm32-mw-camera/cmw_utils.c ****   }
 222              		.loc 1 57 5 view .LVU59
 223              	.L27:
  73:../Middlewares/stm32-mw-camera/cmw_utils.c ****   }
 224              		.loc 1 73 20 is_stmt 0 view .LVU60
 225 00ca F8EE677A 		vcvt.f32.u32	s15, s15
  73:../Middlewares/stm32-mw-camera/cmw_utils.c ****   }
 226              		.loc 1 73 18 view .LVU61
 227 00ce 87EEA56A 		vdiv.f32	s12, s15, s11
 228 00d2 0DE0     		b	.L5
 229              	.LVL23:
 230              	.L2:
  59:../Middlewares/stm32-mw-camera/cmw_utils.c ****   {
 231              		.loc 1 59 8 is_stmt 1 view .LVU62
  59:../Middlewares/stm32-mw-camera/cmw_utils.c ****   {
 232              		.loc 1 59 11 is_stmt 0 view .LVU63
 233 00d4 012E     		cmp	r6, #1
 234 00d6 1ED1     		bne	.L6
  61:../Middlewares/stm32-mw-camera/cmw_utils.c ****     ratio_height = (float)cam_height / p_conf->output_height;
 235              		.loc 1 61 5 is_stmt 1 view .LVU64
  61:../Middlewares/stm32-mw-camera/cmw_utils.c ****     ratio_height = (float)cam_height / p_conf->output_height;
 236              		.loc 1 61 19 is_stmt 0 view .LVU65
 237 00d8 F8EE667A 		vcvt.f32.u32	s15, s13
  61:../Middlewares/stm32-mw-camera/cmw_utils.c ****     ratio_height = (float)cam_height / p_conf->output_height;
 238              		.loc 1 61 36 view .LVU66
 239 00dc D2ED006A 		vldr.32	s13, [r2]	@ int
  62:../Middlewares/stm32-mw-camera/cmw_utils.c ****   }
ARM GAS  /tmp/ccLUFO2E.s 			page 9


 240              		.loc 1 62 20 view .LVU67
 241 00e0 B8EE477A 		vcvt.f32.u32	s14, s14
  61:../Middlewares/stm32-mw-camera/cmw_utils.c ****     ratio_height = (float)cam_height / p_conf->output_height;
 242              		.loc 1 61 36 view .LVU68
 243 00e4 B8EE666A 		vcvt.f32.u32	s12, s13
  61:../Middlewares/stm32-mw-camera/cmw_utils.c ****     ratio_height = (float)cam_height / p_conf->output_height;
 244              		.loc 1 61 17 view .LVU69
 245 00e8 C7EE866A 		vdiv.f32	s13, s15, s12
 246              	.LVL24:
  62:../Middlewares/stm32-mw-camera/cmw_utils.c ****   }
 247              		.loc 1 62 5 is_stmt 1 view .LVU70
  62:../Middlewares/stm32-mw-camera/cmw_utils.c ****   }
 248              		.loc 1 62 18 is_stmt 0 view .LVU71
 249 00ec 87EE256A 		vdiv.f32	s12, s14, s11
 250              	.LVL25:
 251              	.L5:
  76:../Middlewares/stm32-mw-camera/cmw_utils.c **** }
 252              		.loc 1 76 3 is_stmt 1 view .LVU72
 253              	.LBB28:
 254              	.LBI28:
 182:../Middlewares/stm32-mw-camera/cmw_utils.c **** }
 183:../Middlewares/stm32-mw-camera/cmw_utils.c **** 
 184:../Middlewares/stm32-mw-camera/cmw_utils.c **** static void CMW_UTILS_get_crop_config_from_manual(CMW_Manual_roi_area_t *roi, DCMIPP_CropConfTypeDe
 185:../Middlewares/stm32-mw-camera/cmw_utils.c **** {
 186:../Middlewares/stm32-mw-camera/cmw_utils.c ****   crop->HSize = roi->width;
 187:../Middlewares/stm32-mw-camera/cmw_utils.c ****   crop->VSize = roi->height;
 188:../Middlewares/stm32-mw-camera/cmw_utils.c ****   crop->HStart = roi->offset_x;
 189:../Middlewares/stm32-mw-camera/cmw_utils.c ****   crop->VStart = roi->offset_y;
 190:../Middlewares/stm32-mw-camera/cmw_utils.c **** }
 191:../Middlewares/stm32-mw-camera/cmw_utils.c **** 
 192:../Middlewares/stm32-mw-camera/cmw_utils.c **** static void CMW_UTILS_get_down_config(float ratio_width, float ratio_height, int width, int height,
 193:../Middlewares/stm32-mw-camera/cmw_utils.c **** {
 194:../Middlewares/stm32-mw-camera/cmw_utils.c ****   down->HRatio = (uint32_t) (8192 * ratio_width);
 195:../Middlewares/stm32-mw-camera/cmw_utils.c ****   down->VRatio = (uint32_t) (8192 * ratio_height);
 196:../Middlewares/stm32-mw-camera/cmw_utils.c ****   down->HDivFactor = (1024 * 8192 - 1) / down->HRatio;
 197:../Middlewares/stm32-mw-camera/cmw_utils.c ****   down->VDivFactor = (1024 * 8192 - 1) / down->VRatio;
 198:../Middlewares/stm32-mw-camera/cmw_utils.c ****   down->HSize = width;
 199:../Middlewares/stm32-mw-camera/cmw_utils.c ****   down->VSize = height;
 200:../Middlewares/stm32-mw-camera/cmw_utils.c **** }
 201:../Middlewares/stm32-mw-camera/cmw_utils.c **** 
 202:../Middlewares/stm32-mw-camera/cmw_utils.c **** static uint32_t CMW_UTILS_get_dec_ratio_from_decimal_ratio(int dec_ratio, int is_vertical)
 203:../Middlewares/stm32-mw-camera/cmw_utils.c **** {
 204:../Middlewares/stm32-mw-camera/cmw_utils.c ****   switch (dec_ratio) {
 205:../Middlewares/stm32-mw-camera/cmw_utils.c ****   case 1:
 206:../Middlewares/stm32-mw-camera/cmw_utils.c ****     return is_vertical ? DCMIPP_VDEC_ALL : DCMIPP_HDEC_ALL;
 207:../Middlewares/stm32-mw-camera/cmw_utils.c ****   case 2:
 208:../Middlewares/stm32-mw-camera/cmw_utils.c ****     return is_vertical ? DCMIPP_VDEC_1_OUT_2 : DCMIPP_HDEC_1_OUT_2;
 209:../Middlewares/stm32-mw-camera/cmw_utils.c ****   case 4:
 210:../Middlewares/stm32-mw-camera/cmw_utils.c ****     return is_vertical ? DCMIPP_VDEC_1_OUT_4 : DCMIPP_HDEC_1_OUT_4;
 211:../Middlewares/stm32-mw-camera/cmw_utils.c ****   case 8:
 212:../Middlewares/stm32-mw-camera/cmw_utils.c ****     return is_vertical ? DCMIPP_VDEC_1_OUT_8 : DCMIPP_HDEC_1_OUT_8;
 213:../Middlewares/stm32-mw-camera/cmw_utils.c ****   default:
 214:../Middlewares/stm32-mw-camera/cmw_utils.c ****     assert(0);
 215:../Middlewares/stm32-mw-camera/cmw_utils.c ****   }
 216:../Middlewares/stm32-mw-camera/cmw_utils.c **** 
 217:../Middlewares/stm32-mw-camera/cmw_utils.c ****   return is_vertical ? DCMIPP_VDEC_ALL : DCMIPP_HDEC_ALL;
 218:../Middlewares/stm32-mw-camera/cmw_utils.c **** }
ARM GAS  /tmp/ccLUFO2E.s 			page 10


 219:../Middlewares/stm32-mw-camera/cmw_utils.c **** 
 220:../Middlewares/stm32-mw-camera/cmw_utils.c **** static uint32_t CMW_UTILS_get_dec_ratio_and_update(float *ratio, int is_vertical)
 221:../Middlewares/stm32-mw-camera/cmw_utils.c **** {
 222:../Middlewares/stm32-mw-camera/cmw_utils.c ****   int dec_ratio = 1;
 223:../Middlewares/stm32-mw-camera/cmw_utils.c **** 
 224:../Middlewares/stm32-mw-camera/cmw_utils.c ****   while (*ratio >= 8) {
 225:../Middlewares/stm32-mw-camera/cmw_utils.c ****     dec_ratio *= 2;
 226:../Middlewares/stm32-mw-camera/cmw_utils.c ****     *ratio /= 2;
 227:../Middlewares/stm32-mw-camera/cmw_utils.c ****   }
 228:../Middlewares/stm32-mw-camera/cmw_utils.c **** 
 229:../Middlewares/stm32-mw-camera/cmw_utils.c ****   return CMW_UTILS_get_dec_ratio_from_decimal_ratio(dec_ratio, is_vertical);
 230:../Middlewares/stm32-mw-camera/cmw_utils.c **** }
 231:../Middlewares/stm32-mw-camera/cmw_utils.c **** 
 232:../Middlewares/stm32-mw-camera/cmw_utils.c **** static void CMW_UTILS_get_scale_configs(CMW_DCMIPP_Conf_t *p_conf, float ratio_width, float ratio_h
 255              		.loc 1 232 13 view .LVU73
 256              	.LBB29:
 233:../Middlewares/stm32-mw-camera/cmw_utils.c ****                                        DCMIPP_DecimationConfTypeDef *dec, DCMIPP_DownsizeTypeDef *d
 234:../Middlewares/stm32-mw-camera/cmw_utils.c **** {
 235:../Middlewares/stm32-mw-camera/cmw_utils.c ****   dec->HRatio = CMW_UTILS_get_dec_ratio_and_update(&ratio_width, 0);
 257              		.loc 1 235 3 view .LVU74
 258              	.LBB30:
 259              	.LBI30:
 220:../Middlewares/stm32-mw-camera/cmw_utils.c **** {
 260              		.loc 1 220 17 view .LVU75
 261              	.LBB31:
 222:../Middlewares/stm32-mw-camera/cmw_utils.c **** 
 262              		.loc 1 222 3 view .LVU76
 224:../Middlewares/stm32-mw-camera/cmw_utils.c ****     dec_ratio *= 2;
 263              		.loc 1 224 3 view .LVU77
 222:../Middlewares/stm32-mw-camera/cmw_utils.c **** 
 264              		.loc 1 222 7 is_stmt 0 view .LVU78
 265 00f0 0123     		movs	r3, #1
 266              	.LVL26:
 224:../Middlewares/stm32-mw-camera/cmw_utils.c ****     dec_ratio *= 2;
 267              		.loc 1 224 17 view .LVU79
 268 00f2 F2EE007A 		vmov.f32	s15, #8.0e+0
 226:../Middlewares/stm32-mw-camera/cmw_utils.c ****   }
 269              		.loc 1 226 12 view .LVU80
 270 00f6 B6EE007A 		vmov.f32	s14, #5.0e-1
 271              	.LVL27:
 272              	.L8:
 224:../Middlewares/stm32-mw-camera/cmw_utils.c ****     dec_ratio *= 2;
 273              		.loc 1 224 17 is_stmt 1 view .LVU81
 274 00fa F4EEE76A 		vcmpe.f32	s13, s15
 275 00fe F1EE10FA 		vmrs	APSR_nzcv, FPSCR
 276 0102 26DA     		bge	.L9
 229:../Middlewares/stm32-mw-camera/cmw_utils.c **** }
 277              		.loc 1 229 3 view .LVU82
 278              	.LVL28:
 279              	.LBB32:
 280              	.LBI32:
 202:../Middlewares/stm32-mw-camera/cmw_utils.c **** {
 281              		.loc 1 202 17 view .LVU83
 282              	.LBB33:
 204:../Middlewares/stm32-mw-camera/cmw_utils.c ****   case 1:
 283              		.loc 1 204 3 view .LVU84
 284 0104 013B     		subs	r3, r3, #1
ARM GAS  /tmp/ccLUFO2E.s 			page 11


 285 0106 072B     		cmp	r3, #7
 286 0108 3CD8     		bhi	.L10
 287 010a DFE803F0 		tbb	[pc, r3]
 288              	.L12:
 289 010e 3F       		.byte	(.L15-.L12)/2
 290 010f 41       		.byte	(.L23-.L12)/2
 291 0110 3B       		.byte	(.L10-.L12)/2
 292 0111 26       		.byte	(.L13-.L12)/2
 293 0112 3B       		.byte	(.L10-.L12)/2
 294 0113 3B       		.byte	(.L10-.L12)/2
 295 0114 3B       		.byte	(.L10-.L12)/2
 296 0115 39       		.byte	(.L11-.L12)/2
 297              	.LVL29:
 298              		.p2align 1
 299              	.L6:
 204:../Middlewares/stm32-mw-camera/cmw_utils.c ****   case 1:
 300              		.loc 1 204 3 is_stmt 0 view .LVU85
 301              	.LBE33:
 302              	.LBE32:
 303              	.LBE31:
 304              	.LBE30:
 305              	.LBE29:
 306              	.LBE28:
  64:../Middlewares/stm32-mw-camera/cmw_utils.c ****   {
 307              		.loc 1 64 8 is_stmt 1 view .LVU86
  64:../Middlewares/stm32-mw-camera/cmw_utils.c ****   {
 308              		.loc 1 64 11 is_stmt 0 view .LVU87
 309 0116 022E     		cmp	r6, #2
 310 0118 06D1     		bne	.L7
  66:../Middlewares/stm32-mw-camera/cmw_utils.c ****     ratio_width = (float) ratio_height;
 311              		.loc 1 66 5 is_stmt 1 view .LVU88
  66:../Middlewares/stm32-mw-camera/cmw_utils.c ****     ratio_width = (float) ratio_height;
 312              		.loc 1 66 20 is_stmt 0 view .LVU89
 313 011a B8EE477A 		vcvt.f32.u32	s14, s14
  66:../Middlewares/stm32-mw-camera/cmw_utils.c ****     ratio_width = (float) ratio_height;
 314              		.loc 1 66 18 view .LVU90
 315 011e C7EE256A 		vdiv.f32	s13, s14, s11
 316              	.LVL30:
  67:../Middlewares/stm32-mw-camera/cmw_utils.c ****   }
 317              		.loc 1 67 5 is_stmt 1 view .LVU91
  66:../Middlewares/stm32-mw-camera/cmw_utils.c ****     ratio_width = (float) ratio_height;
 318              		.loc 1 66 18 is_stmt 0 view .LVU92
 319 0122 B0EE666A 		vmov.f32	s12, s13
 320 0126 E3E7     		b	.L5
 321              	.LVL31:
 322              	.L7:
  71:../Middlewares/stm32-mw-camera/cmw_utils.c ****     ratio_width = (float)crop->HSize / p_conf->output_width;
 323              		.loc 1 71 5 is_stmt 1 view .LVU93
 324              	.LBB60:
 325              	.LBI60:
 184:../Middlewares/stm32-mw-camera/cmw_utils.c **** {
 326              		.loc 1 184 13 view .LVU94
 327              	.LBB61:
 186:../Middlewares/stm32-mw-camera/cmw_utils.c ****   crop->VSize = roi->height;
 328              		.loc 1 186 3 view .LVU95
 186:../Middlewares/stm32-mw-camera/cmw_utils.c ****   crop->VSize = roi->height;
 329              		.loc 1 186 20 is_stmt 0 view .LVU96
ARM GAS  /tmp/ccLUFO2E.s 			page 12


 330 0128 D069     		ldr	r0, [r2, #28]
 331              	.LVL32:
 186:../Middlewares/stm32-mw-camera/cmw_utils.c ****   crop->VSize = roi->height;
 332              		.loc 1 186 20 view .LVU97
 333              	.LBE61:
 334              	.LBE60:
  72:../Middlewares/stm32-mw-camera/cmw_utils.c ****     ratio_height = (float)crop->VSize / p_conf->output_height;
 335              		.loc 1 72 38 view .LVU98
 336 012a 92ED007A 		vldr.32	s14, [r2]	@ int
  72:../Middlewares/stm32-mw-camera/cmw_utils.c ****     ratio_height = (float)crop->VSize / p_conf->output_height;
 337              		.loc 1 72 19 view .LVU99
 338 012e 07EE900A 		vmov	s15, r0	@ int
  72:../Middlewares/stm32-mw-camera/cmw_utils.c ****     ratio_height = (float)crop->VSize / p_conf->output_height;
 339              		.loc 1 72 38 view .LVU100
 340 0132 B8EE477A 		vcvt.f32.u32	s14, s14
  72:../Middlewares/stm32-mw-camera/cmw_utils.c ****     ratio_height = (float)crop->VSize / p_conf->output_height;
 341              		.loc 1 72 19 view .LVU101
 342 0136 F8EE677A 		vcvt.f32.u32	s15, s15
 343              	.LBB65:
 344              	.LBB62:
 188:../Middlewares/stm32-mw-camera/cmw_utils.c ****   crop->VStart = roi->offset_y;
 345              		.loc 1 188 16 view .LVU102
 346 013a 566A     		ldr	r6, [r2, #36]
 187:../Middlewares/stm32-mw-camera/cmw_utils.c ****   crop->HStart = roi->offset_x;
 347              		.loc 1 187 20 view .LVU103
 348 013c 116A     		ldr	r1, [r2, #32]
 349              	.LVL33:
 188:../Middlewares/stm32-mw-camera/cmw_utils.c ****   crop->VStart = roi->offset_y;
 350              		.loc 1 188 16 view .LVU104
 351 013e 5E60     		str	r6, [r3, #4]
 189:../Middlewares/stm32-mw-camera/cmw_utils.c **** }
 352              		.loc 1 189 16 view .LVU105
 353 0140 966A     		ldr	r6, [r2, #40]
 354              	.LBE62:
 355              	.LBE65:
  72:../Middlewares/stm32-mw-camera/cmw_utils.c ****     ratio_height = (float)crop->VSize / p_conf->output_height;
 356              		.loc 1 72 17 view .LVU106
 357 0142 C7EE876A 		vdiv.f32	s13, s15, s14
 358              	.LVL34:
 359              	.LBB66:
 360              	.LBB63:
 186:../Middlewares/stm32-mw-camera/cmw_utils.c ****   crop->VSize = roi->height;
 361              		.loc 1 186 15 view .LVU107
 362 0146 D860     		str	r0, [r3, #12]
 187:../Middlewares/stm32-mw-camera/cmw_utils.c ****   crop->HStart = roi->offset_x;
 363              		.loc 1 187 3 is_stmt 1 view .LVU108
 364              	.LBE63:
 365              	.LBE66:
  73:../Middlewares/stm32-mw-camera/cmw_utils.c ****   }
 366              		.loc 1 73 20 is_stmt 0 view .LVU109
 367 0148 07EE901A 		vmov	s15, r1	@ int
 368              	.LBB67:
 369              	.LBB64:
 187:../Middlewares/stm32-mw-camera/cmw_utils.c ****   crop->HStart = roi->offset_x;
 370              		.loc 1 187 15 view .LVU110
 371 014c 9960     		str	r1, [r3, #8]
 188:../Middlewares/stm32-mw-camera/cmw_utils.c ****   crop->VStart = roi->offset_y;
ARM GAS  /tmp/ccLUFO2E.s 			page 13


 372              		.loc 1 188 3 is_stmt 1 view .LVU111
 189:../Middlewares/stm32-mw-camera/cmw_utils.c **** }
 373              		.loc 1 189 3 view .LVU112
 189:../Middlewares/stm32-mw-camera/cmw_utils.c **** }
 374              		.loc 1 189 16 is_stmt 0 view .LVU113
 375 014e 1E60     		str	r6, [r3]
 376              	.LVL35:
 189:../Middlewares/stm32-mw-camera/cmw_utils.c **** }
 377              		.loc 1 189 16 view .LVU114
 378              	.LBE64:
 379              	.LBE67:
  72:../Middlewares/stm32-mw-camera/cmw_utils.c ****     ratio_height = (float)crop->VSize / p_conf->output_height;
 380              		.loc 1 72 5 is_stmt 1 view .LVU115
  73:../Middlewares/stm32-mw-camera/cmw_utils.c ****   }
 381              		.loc 1 73 5 view .LVU116
 382 0150 BBE7     		b	.L27
 383              	.LVL36:
 384              	.L9:
 385              	.LBB68:
 386              	.LBB58:
 387              	.LBB40:
 388              	.LBB38:
 225:../Middlewares/stm32-mw-camera/cmw_utils.c ****     *ratio /= 2;
 389              		.loc 1 225 5 view .LVU117
 226:../Middlewares/stm32-mw-camera/cmw_utils.c ****   }
 390              		.loc 1 226 12 is_stmt 0 view .LVU118
 391 0152 66EE876A 		vmul.f32	s13, s13, s14
 392              	.LVL37:
 225:../Middlewares/stm32-mw-camera/cmw_utils.c ****     *ratio /= 2;
 393              		.loc 1 225 15 view .LVU119
 394 0156 5B00     		lsls	r3, r3, #1
 395              	.LVL38:
 226:../Middlewares/stm32-mw-camera/cmw_utils.c ****   }
 396              		.loc 1 226 5 is_stmt 1 view .LVU120
 397 0158 CFE7     		b	.L8
 398              	.LVL39:
 399              	.L13:
 400              	.LBB36:
 401              	.LBB34:
 210:../Middlewares/stm32-mw-camera/cmw_utils.c ****   case 8:
 402              		.loc 1 210 46 is_stmt 0 discriminator 2 view .LVU121
 403 015a 0423     		movs	r3, #4
 404              	.L14:
 405              	.LVL40:
 210:../Middlewares/stm32-mw-camera/cmw_utils.c ****   case 8:
 406              		.loc 1 210 46 discriminator 2 view .LVU122
 407              	.LBE34:
 408              	.LBE36:
 409              	.LBE38:
 410              	.LBE40:
 411              		.loc 1 235 15 discriminator 1 view .LVU123
 412 015c 6B60     		str	r3, [r5, #4]
 236:../Middlewares/stm32-mw-camera/cmw_utils.c ****   dec->VRatio = CMW_UTILS_get_dec_ratio_and_update(&ratio_height, 1);
 413              		.loc 1 236 3 is_stmt 1 view .LVU124
 414              	.LVL41:
 415              	.LBB41:
 416              	.LBI41:
ARM GAS  /tmp/ccLUFO2E.s 			page 14


 220:../Middlewares/stm32-mw-camera/cmw_utils.c **** {
 417              		.loc 1 220 17 view .LVU125
 418              	.LBB42:
 222:../Middlewares/stm32-mw-camera/cmw_utils.c **** 
 419              		.loc 1 222 3 view .LVU126
 224:../Middlewares/stm32-mw-camera/cmw_utils.c ****     dec_ratio *= 2;
 420              		.loc 1 224 3 view .LVU127
 226:../Middlewares/stm32-mw-camera/cmw_utils.c ****   }
 421              		.loc 1 226 12 is_stmt 0 view .LVU128
 422 015e B6EE007A 		vmov.f32	s14, #5.0e-1
 222:../Middlewares/stm32-mw-camera/cmw_utils.c **** 
 423              		.loc 1 222 7 view .LVU129
 424 0162 0123     		movs	r3, #1
 425              	.LVL42:
 426              	.L16:
 224:../Middlewares/stm32-mw-camera/cmw_utils.c ****     dec_ratio *= 2;
 427              		.loc 1 224 17 is_stmt 1 view .LVU130
 428 0164 B4EEE76A 		vcmpe.f32	s12, s15
 429 0168 F1EE10FA 		vmrs	APSR_nzcv, FPSCR
 430 016c 12DA     		bge	.L17
 229:../Middlewares/stm32-mw-camera/cmw_utils.c **** }
 431              		.loc 1 229 3 view .LVU131
 432              	.LVL43:
 433              	.LBB43:
 434              	.LBI43:
 202:../Middlewares/stm32-mw-camera/cmw_utils.c **** {
 435              		.loc 1 202 17 view .LVU132
 436              	.LBB44:
 204:../Middlewares/stm32-mw-camera/cmw_utils.c ****   case 1:
 437              		.loc 1 204 3 view .LVU133
 438 016e 013B     		subs	r3, r3, #1
 439 0170 072B     		cmp	r3, #7
 440 0172 07D8     		bhi	.L10
 441 0174 DFE803F0 		tbb	[pc, r3]
 442              	.L19:
 443 0178 33       		.byte	(.L22-.L19)/2
 444 0179 35       		.byte	(.L24-.L19)/2
 445 017a 06       		.byte	(.L10-.L19)/2
 446 017b 12       		.byte	(.L20-.L19)/2
 447 017c 06       		.byte	(.L10-.L19)/2
 448 017d 06       		.byte	(.L10-.L19)/2
 449 017e 06       		.byte	(.L10-.L19)/2
 450 017f 31       		.byte	(.L18-.L19)/2
 451              	.LVL44:
 452              		.p2align 1
 453              	.L11:
 204:../Middlewares/stm32-mw-camera/cmw_utils.c ****   case 1:
 454              		.loc 1 204 3 is_stmt 0 view .LVU134
 455              	.LBE44:
 456              	.LBE43:
 457              	.LBE42:
 458              	.LBE41:
 459              	.LBB51:
 460              	.LBB39:
 461              	.LBB37:
 462              	.LBB35:
 212:../Middlewares/stm32-mw-camera/cmw_utils.c ****   default:
ARM GAS  /tmp/ccLUFO2E.s 			page 15


 463              		.loc 1 212 5 is_stmt 1 view .LVU135
 212:../Middlewares/stm32-mw-camera/cmw_utils.c ****   default:
 464              		.loc 1 212 46 is_stmt 0 discriminator 2 view .LVU136
 465 0180 0623     		movs	r3, #6
 466 0182 EBE7     		b	.L14
 467              	.LVL45:
 468              	.L10:
 214:../Middlewares/stm32-mw-camera/cmw_utils.c ****   }
 469              		.loc 1 214 5 is_stmt 1 view .LVU137
 470 0184 D621     		movs	r1, #214
 471 0186 1D4B     		ldr	r3, .L29+20
 472 0188 1D4A     		ldr	r2, .L29+24
 473              	.LVL46:
 214:../Middlewares/stm32-mw-camera/cmw_utils.c ****   }
 474              		.loc 1 214 5 is_stmt 0 view .LVU138
 475 018a 64E7     		b	.L28
 476              	.LVL47:
 477              	.L15:
 206:../Middlewares/stm32-mw-camera/cmw_utils.c ****   case 2:
 478              		.loc 1 206 42 view .LVU139
 479 018c 0023     		movs	r3, #0
 480 018e E5E7     		b	.L14
 481              	.L23:
 204:../Middlewares/stm32-mw-camera/cmw_utils.c ****   case 1:
 482              		.loc 1 204 3 view .LVU140
 483 0190 0223     		movs	r3, #2
 484 0192 E3E7     		b	.L14
 485              	.LVL48:
 486              	.L17:
 204:../Middlewares/stm32-mw-camera/cmw_utils.c ****   case 1:
 487              		.loc 1 204 3 view .LVU141
 488              	.LBE35:
 489              	.LBE37:
 490              	.LBE39:
 491              	.LBE51:
 492              	.LBB52:
 493              	.LBB49:
 225:../Middlewares/stm32-mw-camera/cmw_utils.c ****     *ratio /= 2;
 494              		.loc 1 225 5 is_stmt 1 view .LVU142
 226:../Middlewares/stm32-mw-camera/cmw_utils.c ****   }
 495              		.loc 1 226 12 is_stmt 0 view .LVU143
 496 0194 26EE076A 		vmul.f32	s12, s12, s14
 497              	.LVL49:
 225:../Middlewares/stm32-mw-camera/cmw_utils.c ****     *ratio /= 2;
 498              		.loc 1 225 15 view .LVU144
 499 0198 5B00     		lsls	r3, r3, #1
 500              	.LVL50:
 226:../Middlewares/stm32-mw-camera/cmw_utils.c ****   }
 501              		.loc 1 226 5 is_stmt 1 view .LVU145
 502 019a E3E7     		b	.L16
 503              	.LVL51:
 504              	.L20:
 505              	.LBB47:
 506              	.LBB45:
 210:../Middlewares/stm32-mw-camera/cmw_utils.c ****   case 8:
 507              		.loc 1 210 46 is_stmt 0 discriminator 1 view .LVU146
 508 019c 1023     		movs	r3, #16
ARM GAS  /tmp/ccLUFO2E.s 			page 16


 509              	.L21:
 510              	.LVL52:
 210:../Middlewares/stm32-mw-camera/cmw_utils.c ****   case 8:
 511              		.loc 1 210 46 discriminator 1 view .LVU147
 512              	.LBE45:
 513              	.LBE47:
 514              	.LBE49:
 515              	.LBE52:
 516              	.LBB53:
 517              	.LBB54:
 194:../Middlewares/stm32-mw-camera/cmw_utils.c ****   down->VRatio = (uint32_t) (8192 * ratio_height);
 518              		.loc 1 194 35 view .LVU148
 519 019e DFED197A 		vldr.32	s15, .L29+28
 520 01a2 66EEA76A 		vmul.f32	s13, s13, s15
 521              	.LVL53:
 195:../Middlewares/stm32-mw-camera/cmw_utils.c ****   down->HDivFactor = (1024 * 8192 - 1) / down->HRatio;
 522              		.loc 1 195 35 view .LVU149
 523 01a6 26EE276A 		vmul.f32	s12, s12, s15
 524              	.LVL54:
 194:../Middlewares/stm32-mw-camera/cmw_utils.c ****   down->VRatio = (uint32_t) (8192 * ratio_height);
 525              		.loc 1 194 18 view .LVU150
 526 01aa BCEEE67A 		vcvt.u32.f32	s14, s13
 195:../Middlewares/stm32-mw-camera/cmw_utils.c ****   down->HDivFactor = (1024 * 8192 - 1) / down->HRatio;
 527              		.loc 1 195 18 view .LVU151
 528 01ae FCEEC67A 		vcvt.u32.f32	s15, s12
 529              	.LBE54:
 530              	.LBE53:
 237:../Middlewares/stm32-mw-camera/cmw_utils.c ****   CMW_UTILS_get_down_config(ratio_width, ratio_height, p_conf->output_width, p_conf->output_height,
 531              		.loc 1 237 62 view .LVU152
 532 01b2 1068     		ldr	r0, [r2]
 236:../Middlewares/stm32-mw-camera/cmw_utils.c ****   CMW_UTILS_get_down_config(ratio_width, ratio_height, p_conf->output_width, p_conf->output_height,
 533              		.loc 1 236 15 discriminator 1 view .LVU153
 534 01b4 2B60     		str	r3, [r5]
 535              		.loc 1 237 3 is_stmt 1 view .LVU154
 536              	.LVL55:
 537              	.LBB56:
 538              	.LBI53:
 192:../Middlewares/stm32-mw-camera/cmw_utils.c **** {
 539              		.loc 1 192 13 view .LVU155
 540              	.LBB55:
 194:../Middlewares/stm32-mw-camera/cmw_utils.c ****   down->VRatio = (uint32_t) (8192 * ratio_height);
 541              		.loc 1 194 3 view .LVU156
 195:../Middlewares/stm32-mw-camera/cmw_utils.c ****   down->HDivFactor = (1024 * 8192 - 1) / down->HRatio;
 542              		.loc 1 195 18 is_stmt 0 view .LVU157
 543 01b6 17EE902A 		vmov	r2, s15	@ int
 544              	.LVL56:
 194:../Middlewares/stm32-mw-camera/cmw_utils.c ****   down->VRatio = (uint32_t) (8192 * ratio_height);
 545              		.loc 1 194 18 view .LVU158
 546 01ba 17EE103A 		vmov	r3, s14	@ int
 196:../Middlewares/stm32-mw-camera/cmw_utils.c ****   down->VDivFactor = (1024 * 8192 - 1) / down->VRatio;
 547              		.loc 1 196 40 view .LVU159
 548 01be 1249     		ldr	r1, .L29+32
 194:../Middlewares/stm32-mw-camera/cmw_utils.c ****   down->VRatio = (uint32_t) (8192 * ratio_height);
 549              		.loc 1 194 16 view .LVU160
 550 01c0 84ED037A 		vstr.32	s14, [r4, #12]	@ int
 195:../Middlewares/stm32-mw-camera/cmw_utils.c ****   down->HDivFactor = (1024 * 8192 - 1) / down->HRatio;
 551              		.loc 1 195 3 is_stmt 1 view .LVU161
ARM GAS  /tmp/ccLUFO2E.s 			page 17


 196:../Middlewares/stm32-mw-camera/cmw_utils.c ****   down->VDivFactor = (1024 * 8192 - 1) / down->VRatio;
 552              		.loc 1 196 40 is_stmt 0 view .LVU162
 553 01c4 B1FBF3F3 		udiv	r3, r1, r3
 197:../Middlewares/stm32-mw-camera/cmw_utils.c ****   down->HSize = width;
 554              		.loc 1 197 40 view .LVU163
 555 01c8 B1FBF2F1 		udiv	r1, r1, r2
 195:../Middlewares/stm32-mw-camera/cmw_utils.c ****   down->HDivFactor = (1024 * 8192 - 1) / down->HRatio;
 556              		.loc 1 195 16 view .LVU164
 557 01cc C4ED027A 		vstr.32	s15, [r4, #8]	@ int
 196:../Middlewares/stm32-mw-camera/cmw_utils.c ****   down->VDivFactor = (1024 * 8192 - 1) / down->VRatio;
 558              		.loc 1 196 3 is_stmt 1 view .LVU165
 199:../Middlewares/stm32-mw-camera/cmw_utils.c **** }
 559              		.loc 1 199 15 is_stmt 0 view .LVU166
 560 01d0 C4E90070 		strd	r7, r0, [r4]
 196:../Middlewares/stm32-mw-camera/cmw_utils.c ****   down->VDivFactor = (1024 * 8192 - 1) / down->VRatio;
 561              		.loc 1 196 20 view .LVU167
 562 01d4 6361     		str	r3, [r4, #20]
 197:../Middlewares/stm32-mw-camera/cmw_utils.c ****   down->HSize = width;
 563              		.loc 1 197 3 is_stmt 1 view .LVU168
 197:../Middlewares/stm32-mw-camera/cmw_utils.c ****   down->HSize = width;
 564              		.loc 1 197 20 is_stmt 0 view .LVU169
 565 01d6 2161     		str	r1, [r4, #16]
 198:../Middlewares/stm32-mw-camera/cmw_utils.c ****   down->VSize = height;
 566              		.loc 1 198 3 is_stmt 1 view .LVU170
 567              	.LVL57:
 198:../Middlewares/stm32-mw-camera/cmw_utils.c ****   down->VSize = height;
 568              		.loc 1 198 3 is_stmt 0 view .LVU171
 569              	.LBE55:
 570              	.LBE56:
 571              	.LBE58:
 572              	.LBE68:
  77:../Middlewares/stm32-mw-camera/cmw_utils.c **** 
 573              		.loc 1 77 1 view .LVU172
 574 01d8 F8BD     		pop	{r3, r4, r5, r6, r7, pc}
 575              	.LVL58:
 576              	.L18:
 577              	.LBB69:
 578              	.LBB59:
 579              	.LBB57:
 580              	.LBB50:
 581              	.LBB48:
 582              	.LBB46:
 212:../Middlewares/stm32-mw-camera/cmw_utils.c ****   default:
 583              		.loc 1 212 5 is_stmt 1 view .LVU173
 212:../Middlewares/stm32-mw-camera/cmw_utils.c ****   default:
 584              		.loc 1 212 46 is_stmt 0 discriminator 1 view .LVU174
 585 01da 1823     		movs	r3, #24
 586 01dc DFE7     		b	.L21
 587              	.L22:
 206:../Middlewares/stm32-mw-camera/cmw_utils.c ****   case 2:
 588              		.loc 1 206 42 view .LVU175
 589 01de 0023     		movs	r3, #0
 590 01e0 DDE7     		b	.L21
 591              	.L24:
 204:../Middlewares/stm32-mw-camera/cmw_utils.c ****   case 1:
 592              		.loc 1 204 3 view .LVU176
 593 01e2 0823     		movs	r3, #8
ARM GAS  /tmp/ccLUFO2E.s 			page 18


 594 01e4 DBE7     		b	.L21
 595              	.L30:
 596 01e6 00BF     		.align	2
 597              	.L29:
 598 01e8 00000000 		.word	.LC0
 599 01ec 00000000 		.word	__func__.2
 600 01f0 0B000000 		.word	.LC1
 601 01f4 00008042 		.word	1115684864
 602 01f8 36000000 		.word	.LC2
 603 01fc 41000000 		.word	.LC3
 604 0200 00000000 		.word	__func__.1
 605 0204 00000046 		.word	1174405120
 606 0208 FFFF7F00 		.word	8388607
 607              	.LBE46:
 608              	.LBE48:
 609              	.LBE50:
 610              	.LBE57:
 611              	.LBE59:
 612              	.LBE69:
 613              		.cfi_endproc
 614              	.LFE884:
 616              		.section	.text.CMW_UTILS_getClosest_HAL_PHYBitrate,"ax",%progbits
 617              		.align	1
 618              		.global	CMW_UTILS_getClosest_HAL_PHYBitrate
 619              		.syntax unified
 620              		.thumb
 621              		.thumb_func
 623              	CMW_UTILS_getClosest_HAL_PHYBitrate:
 624              	.LVL59:
 625              	.LFB885:
  80:../Middlewares/stm32-mw-camera/cmw_utils.c ****   static const uint32_t PHYBitrate_in_mps[][2] =
 626              		.loc 1 80 1 is_stmt 1 view -0
 627              		.cfi_startproc
 628              		@ args = 0, pretend = 0, frame = 0
 629              		@ frame_needed = 0, uses_anonymous_args = 0
  81:../Middlewares/stm32-mw-camera/cmw_utils.c ****   {
 630              		.loc 1 81 3 view .LVU178
 148:../Middlewares/stm32-mw-camera/cmw_utils.c ****   int32_t min_diff = abs((int32_t)val - (int32_t)PHYBitrate_in_mps[0][1]);
 631              		.loc 1 148 3 view .LVU179
 149:../Middlewares/stm32-mw-camera/cmw_utils.c ****   size_t size = sizeof(PHYBitrate_in_mps) / sizeof(PHYBitrate_in_mps[0]);
 632              		.loc 1 149 3 view .LVU180
 149:../Middlewares/stm32-mw-camera/cmw_utils.c ****   size_t size = sizeof(PHYBitrate_in_mps) / sizeof(PHYBitrate_in_mps[0]);
 633              		.loc 1 149 39 is_stmt 0 view .LVU181
 634 0000 0B4B     		ldr	r3, .L35
  80:../Middlewares/stm32-mw-camera/cmw_utils.c ****   static const uint32_t PHYBitrate_in_mps[][2] =
 635              		.loc 1 80 1 view .LVU182
 636 0002 30B5     		push	{r4, r5, lr}
 637              		.cfi_def_cfa_offset 12
 638              		.cfi_offset 4, -12
 639              		.cfi_offset 5, -8
 640              		.cfi_offset 14, -4
 149:../Middlewares/stm32-mw-camera/cmw_utils.c ****   size_t size = sizeof(PHYBitrate_in_mps) / sizeof(PHYBitrate_in_mps[0]);
 641              		.loc 1 149 39 view .LVU183
 642 0004 0344     		add	r3, r3, r0
  80:../Middlewares/stm32-mw-camera/cmw_utils.c ****   static const uint32_t PHYBitrate_in_mps[][2] =
 643              		.loc 1 80 1 view .LVU184
 644 0006 0446     		mov	r4, r0
ARM GAS  /tmp/ccLUFO2E.s 			page 19


 148:../Middlewares/stm32-mw-camera/cmw_utils.c ****   int32_t min_diff = abs((int32_t)val - (int32_t)PHYBitrate_in_mps[0][1]);
 645              		.loc 1 148 12 view .LVU185
 646 0008 3E25     		movs	r5, #62
 647 000a 0020     		movs	r0, #0
 648              	.LVL60:
 149:../Middlewares/stm32-mw-camera/cmw_utils.c ****   size_t size = sizeof(PHYBitrate_in_mps) / sizeof(PHYBitrate_in_mps[0]);
 649              		.loc 1 149 11 view .LVU186
 650 000c 002B     		cmp	r3, #0
 651 000e 0949     		ldr	r1, .L35+4
 652 0010 B8BF     		it	lt
 653 0012 5B42     		rsblt	r3, r3, #0
 654              	.LVL61:
 150:../Middlewares/stm32-mw-camera/cmw_utils.c **** 
 655              		.loc 1 150 3 is_stmt 1 view .LVU187
 152:../Middlewares/stm32-mw-camera/cmw_utils.c ****   {
 656              		.loc 1 152 3 view .LVU188
 156:../Middlewares/stm32-mw-camera/cmw_utils.c ****   {
 657              		.loc 1 156 3 view .LVU189
 658              	.LBB70:
 156:../Middlewares/stm32-mw-camera/cmw_utils.c ****   {
 659              		.loc 1 156 8 view .LVU190
 156:../Middlewares/stm32-mw-camera/cmw_utils.c ****   {
 660              		.loc 1 156 24 discriminator 1 view .LVU191
 661              	.L33:
 662              	.LBB71:
 158:../Middlewares/stm32-mw-camera/cmw_utils.c ****       if (diff < min_diff)
 663              		.loc 1 158 7 view .LVU192
 158:../Middlewares/stm32-mw-camera/cmw_utils.c ****       if (diff < min_diff)
 664              		.loc 1 158 39 is_stmt 0 view .LVU193
 665 0014 CA68     		ldr	r2, [r1, #12]
 666              	.LBE71:
 156:../Middlewares/stm32-mw-camera/cmw_utils.c ****   {
 667              		.loc 1 156 24 discriminator 1 view .LVU194
 668 0016 0831     		adds	r1, r1, #8
 669              	.LBB72:
 158:../Middlewares/stm32-mw-camera/cmw_utils.c ****       if (diff < min_diff)
 670              		.loc 1 158 39 view .LVU195
 671 0018 A21A     		subs	r2, r4, r2
 158:../Middlewares/stm32-mw-camera/cmw_utils.c ****       if (diff < min_diff)
 672              		.loc 1 158 15 view .LVU196
 673 001a 002A     		cmp	r2, #0
 674 001c B8BF     		it	lt
 675 001e 5242     		rsblt	r2, r2, #0
 676              	.LVL62:
 159:../Middlewares/stm32-mw-camera/cmw_utils.c ****       {
 677              		.loc 1 159 7 is_stmt 1 view .LVU197
 159:../Middlewares/stm32-mw-camera/cmw_utils.c ****       {
 678              		.loc 1 159 10 is_stmt 0 view .LVU198
 679 0020 9A42     		cmp	r2, r3
 161:../Middlewares/stm32-mw-camera/cmw_utils.c ****           closest_i = PHYBitrate_in_mps[i][0];
 680              		.loc 1 161 11 is_stmt 1 view .LVU199
 681              	.LVL63:
 162:../Middlewares/stm32-mw-camera/cmw_utils.c ****       }
 682              		.loc 1 162 11 view .LVU200
 162:../Middlewares/stm32-mw-camera/cmw_utils.c ****       }
 683              		.loc 1 162 21 is_stmt 0 view .LVU201
 684 0022 BCBF     		itt	lt
ARM GAS  /tmp/ccLUFO2E.s 			page 20


 685 0024 0868     		ldrlt	r0, [r1]
 686              	.LVL64:
 161:../Middlewares/stm32-mw-camera/cmw_utils.c ****           closest_i = PHYBitrate_in_mps[i][0];
 687              		.loc 1 161 20 view .LVU202
 688 0026 1346     		movlt	r3, r2
 689              	.LVL65:
 161:../Middlewares/stm32-mw-camera/cmw_utils.c ****           closest_i = PHYBitrate_in_mps[i][0];
 690              		.loc 1 161 20 view .LVU203
 691              	.LBE72:
 156:../Middlewares/stm32-mw-camera/cmw_utils.c ****   {
 692              		.loc 1 156 33 is_stmt 1 discriminator 2 view .LVU204
 156:../Middlewares/stm32-mw-camera/cmw_utils.c ****   {
 693              		.loc 1 156 24 discriminator 1 view .LVU205
 694 0028 013D     		subs	r5, r5, #1
 695 002a F3D1     		bne	.L33
 696              	.LBE70:
 165:../Middlewares/stm32-mw-camera/cmw_utils.c **** }
 697              		.loc 1 165 3 view .LVU206
 166:../Middlewares/stm32-mw-camera/cmw_utils.c **** 
 698              		.loc 1 166 1 is_stmt 0 view .LVU207
 699 002c 30BD     		pop	{r4, r5, pc}
 700              	.LVL66:
 701              	.L36:
 166:../Middlewares/stm32-mw-camera/cmw_utils.c **** 
 702              		.loc 1 166 1 view .LVU208
 703 002e 00BF     		.align	2
 704              	.L35:
 705 0030 004C3BFB 		.word	-80000000
 706 0034 00000000 		.word	PHYBitrate_in_mps.0
 707              		.cfi_endproc
 708              	.LFE885:
 710              		.section	.rodata.PHYBitrate_in_mps.0,"a"
 711              		.align	2
 714              	PHYBitrate_in_mps.0:
 715 0000 00000000 		.word	0
 716 0004 00B4C404 		.word	80000000
 717 0008 01000000 		.word	1
 718 000c 804A5D05 		.word	90000000
 719 0010 02000000 		.word	2
 720 0014 00E1F505 		.word	100000000
 721 0018 03000000 		.word	3
 722 001c 80778E06 		.word	110000000
 723 0020 04000000 		.word	4
 724 0024 000E2707 		.word	120000000
 725 0028 05000000 		.word	5
 726 002c 80A4BF07 		.word	130000000
 727 0030 06000000 		.word	6
 728 0034 003B5808 		.word	140000000
 729 0038 07000000 		.word	7
 730 003c 80D1F008 		.word	150000000
 731 0040 08000000 		.word	8
 732 0044 00688909 		.word	160000000
 733 0048 09000000 		.word	9
 734 004c 80FE210A 		.word	170000000
 735 0050 0A000000 		.word	10
 736 0054 0095BA0A 		.word	180000000
 737 0058 0B000000 		.word	11
ARM GAS  /tmp/ccLUFO2E.s 			page 21


 738 005c 802B530B 		.word	190000000
 739 0060 0C000000 		.word	12
 740 0064 400D380C 		.word	205000000
 741 0068 0D000000 		.word	13
 742 006c 00EF1C0D 		.word	220000000
 743 0070 0E000000 		.word	14
 744 0074 C0D0010E 		.word	235000000
 745 0078 0F000000 		.word	15
 746 007c 80B2E60E 		.word	250000000
 747 0080 10000000 		.word	16
 748 0084 C02A6410 		.word	275000000
 749 0088 11000000 		.word	17
 750 008c 00A3E111 		.word	300000000
 751 0090 12000000 		.word	18
 752 0094 401B5F13 		.word	325000000
 753 0098 13000000 		.word	19
 754 009c 8093DC14 		.word	350000000
 755 00a0 14000000 		.word	20
 756 00a4 0084D717 		.word	400000000
 757 00a8 15000000 		.word	21
 758 00ac 8074D21A 		.word	450000000
 759 00b0 16000000 		.word	22
 760 00b4 0065CD1D 		.word	500000000
 761 00b8 17000000 		.word	23
 762 00bc 8055C820 		.word	550000000
 763 00c0 18000000 		.word	24
 764 00c4 0046C323 		.word	600000000
 765 00c8 19000000 		.word	25
 766 00cc 8036BE26 		.word	650000000
 767 00d0 1A000000 		.word	26
 768 00d4 0027B929 		.word	700000000
 769 00d8 1B000000 		.word	27
 770 00dc 8017B42C 		.word	750000000
 771 00e0 1C000000 		.word	28
 772 00e4 0008AF2F 		.word	800000000
 773 00e8 1D000000 		.word	29
 774 00ec 80F8A932 		.word	850000000
 775 00f0 1E000000 		.word	30
 776 00f4 00E9A435 		.word	900000000
 777 00f8 1F000000 		.word	31
 778 00fc 80D99F38 		.word	950000000
 779 0100 20000000 		.word	32
 780 0104 00CA9A3B 		.word	1000000000
 781 0108 21000000 		.word	33
 782 010c 80BA953E 		.word	1050000000
 783 0110 22000000 		.word	34
 784 0114 00AB9041 		.word	1100000000
 785 0118 23000000 		.word	35
 786 011c 809B8B44 		.word	1150000000
 787 0120 24000000 		.word	36
 788 0124 008C8647 		.word	1200000000
 789 0128 25000000 		.word	37
 790 012c 807C814A 		.word	1250000000
 791 0130 26000000 		.word	38
 792 0134 006D7C4D 		.word	1300000000
 793 0138 27000000 		.word	39
 794 013c 805D7750 		.word	1350000000
ARM GAS  /tmp/ccLUFO2E.s 			page 22


 795 0140 28000000 		.word	40
 796 0144 004E7253 		.word	1400000000
 797 0148 29000000 		.word	41
 798 014c 803E6D56 		.word	1450000000
 799 0150 2A000000 		.word	42
 800 0154 002F6859 		.word	1500000000
 801 0158 2B000000 		.word	43
 802 015c 801F635C 		.word	1550000000
 803 0160 2C000000 		.word	44
 804 0164 00105E5F 		.word	1600000000
 805 0168 2D000000 		.word	45
 806 016c 80005962 		.word	1650000000
 807 0170 2E000000 		.word	46
 808 0174 00F15365 		.word	1700000000
 809 0178 2F000000 		.word	47
 810 017c 80E14E68 		.word	1750000000
 811 0180 30000000 		.word	48
 812 0184 00D2496B 		.word	1800000000
 813 0188 31000000 		.word	49
 814 018c 80C2446E 		.word	1850000000
 815 0190 32000000 		.word	50
 816 0194 00B33F71 		.word	1900000000
 817 0198 33000000 		.word	51
 818 019c 80A33A74 		.word	1950000000
 819 01a0 34000000 		.word	52
 820 01a4 00943577 		.word	2000000000
 821 01a8 35000000 		.word	53
 822 01ac 8084307A 		.word	2050000000
 823 01b0 36000000 		.word	54
 824 01b4 00752B7D 		.word	2100000000
 825 01b8 37000000 		.word	55
 826 01bc 80652680 		.word	-2144967296
 827 01c0 38000000 		.word	56
 828 01c4 00562183 		.word	-2094967296
 829 01c8 39000000 		.word	57
 830 01cc 80461C86 		.word	-2044967296
 831 01d0 3A000000 		.word	58
 832 01d4 00371789 		.word	-1994967296
 833 01d8 3B000000 		.word	59
 834 01dc 8027128C 		.word	-1944967296
 835 01e0 3C000000 		.word	60
 836 01e4 00180D8F 		.word	-1894967296
 837 01e8 3D000000 		.word	61
 838 01ec 80080892 		.word	-1844967296
 839 01f0 3E000000 		.word	62
 840 01f4 00F90295 		.word	-1794967296
 841              		.section	.rodata.__func__.1,"a"
 844              	__func__.1:
 845 0000 434D575F 		.ascii	"CMW_UTILS_get_dec_ratio_from_decimal_ratio\000"
 845      5554494C 
 845      535F6765 
 845      745F6465 
 845      635F7261 
 846              		.section	.rodata.__func__.2,"a"
 849              	__func__.2:
 850 0000 434D575F 		.ascii	"CMW_UTILS_get_crop_config\000"
 850      5554494C 
ARM GAS  /tmp/ccLUFO2E.s 			page 23


 850      535F6765 
 850      745F6372 
 850      6F705F63 
 851              		.text
 852              	.Letext0:
 853              		.file 2 "/opt/st/stm32cubeclt_1.21.0/GNU-tools-for-STM32/lib/gcc/arm-none-eabi/14.3.1/include/stdd
 854              		.file 3 "/opt/st/stm32cubeclt_1.21.0/GNU-tools-for-STM32/arm-none-eabi/include/machine/_default_ty
 855              		.file 4 "/opt/st/stm32cubeclt_1.21.0/GNU-tools-for-STM32/arm-none-eabi/include/sys/_stdint.h"
 856              		.file 5 "../STM32Cube_FW_N6/Drivers/STM32N6xx_HAL_Driver/Inc/stm32n6xx_hal_dcmipp.h"
 857              		.file 6 "../Middlewares/stm32-mw-camera/cmw_camera.h"
 858              		.file 7 "/opt/st/stm32cubeclt_1.21.0/GNU-tools-for-STM32/arm-none-eabi/include/assert.h"
ARM GAS  /tmp/ccLUFO2E.s 			page 24

