ARM GAS  /tmp/ccCLNRaf.s 			page 1


   1              		.arch armv8.1-m.main
   2              		.fpu fpv5-d16
   3              		.arch_extension dsp
   4              		.arch_extension fp
   5              		.arch_extension fp.dp
   6              		.arch_extension mve
   7              		.arch_extension mve.fp
   8              		.eabi_attribute 5, "cortex-m55"
   9              		.eabi_attribute 28, 1
  10              		.eabi_attribute 20, 1
  11              		.eabi_attribute 21, 1
  12              		.eabi_attribute 23, 3
  13              		.eabi_attribute 24, 1
  14              		.eabi_attribute 25, 1
  15              		.eabi_attribute 26, 1
  16              		.eabi_attribute 30, 4
  17              		.eabi_attribute 34, 1
  18              		.eabi_attribute 38, 1
  19              		.eabi_attribute 18, 4
  20              		.file	"isp_algo.c"
  21              		.text
  22              	.Ltext0:
  23              		.cfi_sections	.debug_frame
  24              		.file 1 "../Middlewares/stm32-mw-camera/ISP_Library/isp/Src/isp_algo.c"
  25              		.section	.text.ISP_Algo_BadPixel_Init,"ax",%progbits
  26              		.align	1
  27              		.global	ISP_Algo_BadPixel_Init
  28              		.syntax unified
  29              		.thumb
  30              		.thumb_func
  32              	ISP_Algo_BadPixel_Init:
  33              	.LVL0:
  34              	.LFB884:
   1:../Middlewares/stm32-mw-camera/ISP_Library/isp/Src/isp_algo.c **** /**
   2:../Middlewares/stm32-mw-camera/ISP_Library/isp/Src/isp_algo.c ****  ******************************************************************************
   3:../Middlewares/stm32-mw-camera/ISP_Library/isp/Src/isp_algo.c ****  * @file    isp_algo.c
   4:../Middlewares/stm32-mw-camera/ISP_Library/isp/Src/isp_algo.c ****  * @author  AIS Application Team
   5:../Middlewares/stm32-mw-camera/ISP_Library/isp/Src/isp_algo.c ****  * @brief   ISP algorithm
   6:../Middlewares/stm32-mw-camera/ISP_Library/isp/Src/isp_algo.c ****  ******************************************************************************
   7:../Middlewares/stm32-mw-camera/ISP_Library/isp/Src/isp_algo.c ****  * @attention
   8:../Middlewares/stm32-mw-camera/ISP_Library/isp/Src/isp_algo.c ****  *
   9:../Middlewares/stm32-mw-camera/ISP_Library/isp/Src/isp_algo.c ****  * Copyright (c) 2023 STMicroelectronics.
  10:../Middlewares/stm32-mw-camera/ISP_Library/isp/Src/isp_algo.c ****  * All rights reserved.
  11:../Middlewares/stm32-mw-camera/ISP_Library/isp/Src/isp_algo.c ****  *
  12:../Middlewares/stm32-mw-camera/ISP_Library/isp/Src/isp_algo.c ****  * This software is licensed under terms that can be found in the LICENSE file
  13:../Middlewares/stm32-mw-camera/ISP_Library/isp/Src/isp_algo.c ****  * in the root directory of this software component.
  14:../Middlewares/stm32-mw-camera/ISP_Library/isp/Src/isp_algo.c ****  * If no LICENSE file comes with this software, it is provided AS-IS.
  15:../Middlewares/stm32-mw-camera/ISP_Library/isp/Src/isp_algo.c ****  *
  16:../Middlewares/stm32-mw-camera/ISP_Library/isp/Src/isp_algo.c ****  ******************************************************************************
  17:../Middlewares/stm32-mw-camera/ISP_Library/isp/Src/isp_algo.c ****  */
  18:../Middlewares/stm32-mw-camera/ISP_Library/isp/Src/isp_algo.c **** 
  19:../Middlewares/stm32-mw-camera/ISP_Library/isp/Src/isp_algo.c **** /* Includes ------------------------------------------------------------------*/
  20:../Middlewares/stm32-mw-camera/ISP_Library/isp/Src/isp_algo.c **** #include "isp_core.h"
  21:../Middlewares/stm32-mw-camera/ISP_Library/isp/Src/isp_algo.c **** #include "isp_algo.h"
  22:../Middlewares/stm32-mw-camera/ISP_Library/isp/Src/isp_algo.c **** #include "isp_services.h"
  23:../Middlewares/stm32-mw-camera/ISP_Library/isp/Src/isp_algo.c **** #include "isp_ae_algo.h"
  24:../Middlewares/stm32-mw-camera/ISP_Library/isp/Src/isp_algo.c **** #include "isp_awb_algo.h"
ARM GAS  /tmp/ccCLNRaf.s 			page 2


  25:../Middlewares/stm32-mw-camera/ISP_Library/isp/Src/isp_algo.c **** #include <limits.h>
  26:../Middlewares/stm32-mw-camera/ISP_Library/isp/Src/isp_algo.c **** #include <math.h>
  27:../Middlewares/stm32-mw-camera/ISP_Library/isp/Src/isp_algo.c **** #include <inttypes.h>
  28:../Middlewares/stm32-mw-camera/ISP_Library/isp/Src/isp_algo.c **** 
  29:../Middlewares/stm32-mw-camera/ISP_Library/isp/Src/isp_algo.c **** /* Private types -------------------------------------------------------------*/
  30:../Middlewares/stm32-mw-camera/ISP_Library/isp/Src/isp_algo.c **** /* ISP algorithms identifier */
  31:../Middlewares/stm32-mw-camera/ISP_Library/isp/Src/isp_algo.c **** typedef enum
  32:../Middlewares/stm32-mw-camera/ISP_Library/isp/Src/isp_algo.c **** {
  33:../Middlewares/stm32-mw-camera/ISP_Library/isp/Src/isp_algo.c ****   ISP_ALGO_ID_BACKGROUND = 0U,
  34:../Middlewares/stm32-mw-camera/ISP_Library/isp/Src/isp_algo.c ****   ISP_ALGO_ID_BADPIXEL,
  35:../Middlewares/stm32-mw-camera/ISP_Library/isp/Src/isp_algo.c ****   ISP_ALGO_ID_AEC,
  36:../Middlewares/stm32-mw-camera/ISP_Library/isp/Src/isp_algo.c ****   ISP_ALGO_ID_AWB,
  37:../Middlewares/stm32-mw-camera/ISP_Library/isp/Src/isp_algo.c ****   ISP_ALGO_ID_SENSOR_DELAY = 255U,
  38:../Middlewares/stm32-mw-camera/ISP_Library/isp/Src/isp_algo.c **** } ISP_AlgoIDTypeDef;
  39:../Middlewares/stm32-mw-camera/ISP_Library/isp/Src/isp_algo.c **** 
  40:../Middlewares/stm32-mw-camera/ISP_Library/isp/Src/isp_algo.c **** /* Private constants ---------------------------------------------------------*/
  41:../Middlewares/stm32-mw-camera/ISP_Library/isp/Src/isp_algo.c **** /* Delay (in number of VSYNC) between the time an ISP control (e.g. ColorConv)
  42:../Middlewares/stm32-mw-camera/ISP_Library/isp/Src/isp_algo.c ****  * is updated and the time the frame is actually updated. Typical user = AWB algo. */
  43:../Middlewares/stm32-mw-camera/ISP_Library/isp/Src/isp_algo.c **** #define ALGO_ISP_LATENCY                             2
  44:../Middlewares/stm32-mw-camera/ISP_Library/isp/Src/isp_algo.c **** /* Additional delay to let things getting stable after an AWB update */
  45:../Middlewares/stm32-mw-camera/ISP_Library/isp/Src/isp_algo.c **** #define ALGO_AWB_ADDITIONAL_LATENCY                  3
  46:../Middlewares/stm32-mw-camera/ISP_Library/isp/Src/isp_algo.c **** 
  47:../Middlewares/stm32-mw-camera/ISP_Library/isp/Src/isp_algo.c **** /* Debug logs control */
  48:../Middlewares/stm32-mw-camera/ISP_Library/isp/Src/isp_algo.c **** //#define ALGO_AEC_DBG_LOGS
  49:../Middlewares/stm32-mw-camera/ISP_Library/isp/Src/isp_algo.c **** //#define ALGO_PERF_DBG_LOGS
  50:../Middlewares/stm32-mw-camera/ISP_Library/isp/Src/isp_algo.c **** 
  51:../Middlewares/stm32-mw-camera/ISP_Library/isp/Src/isp_algo.c **** #ifdef ALGO_PERF_DBG_LOGS
  52:../Middlewares/stm32-mw-camera/ISP_Library/isp/Src/isp_algo.c **** #define MEAS_ITERATION 30
  53:../Middlewares/stm32-mw-camera/ISP_Library/isp/Src/isp_algo.c **** #endif
  54:../Middlewares/stm32-mw-camera/ISP_Library/isp/Src/isp_algo.c **** 
  55:../Middlewares/stm32-mw-camera/ISP_Library/isp/Src/isp_algo.c **** /* Max acceptable sensor delay */
  56:../Middlewares/stm32-mw-camera/ISP_Library/isp/Src/isp_algo.c **** #define ALGO_DELAY_MAX               10
  57:../Middlewares/stm32-mw-camera/ISP_Library/isp/Src/isp_algo.c **** /* Number of delay test configurations */
  58:../Middlewares/stm32-mw-camera/ISP_Library/isp/Src/isp_algo.c **** #define ALGO_DELAY_NB_CONFIG         12
  59:../Middlewares/stm32-mw-camera/ISP_Library/isp/Src/isp_algo.c **** /* Minimum Luminance update during delay test measurements */
  60:../Middlewares/stm32-mw-camera/ISP_Library/isp/Src/isp_algo.c **** #define ALGO_DELAY_L_MARGIN          3
  61:../Middlewares/stm32-mw-camera/ISP_Library/isp/Src/isp_algo.c **** 
  62:../Middlewares/stm32-mw-camera/ISP_Library/isp/Src/isp_algo.c **** /* Private macro -------------------------------------------------------------*/
  63:../Middlewares/stm32-mw-camera/ISP_Library/isp/Src/isp_algo.c **** /* Private function prototypes -----------------------------------------------*/
  64:../Middlewares/stm32-mw-camera/ISP_Library/isp/Src/isp_algo.c **** ISP_StatusTypeDef ISP_Algo_BadPixel_Init(void *hIsp, void *pAlgo);
  65:../Middlewares/stm32-mw-camera/ISP_Library/isp/Src/isp_algo.c **** ISP_StatusTypeDef ISP_Algo_BadPixel_DeInit(void *hIsp, void *pAlgo);
  66:../Middlewares/stm32-mw-camera/ISP_Library/isp/Src/isp_algo.c **** ISP_StatusTypeDef ISP_Algo_BadPixel_Process(void *hIsp, void *pAlgo);
  67:../Middlewares/stm32-mw-camera/ISP_Library/isp/Src/isp_algo.c **** ISP_StatusTypeDef ISP_Algo_AEC_Init(void *hIsp, void *pAlgo);
  68:../Middlewares/stm32-mw-camera/ISP_Library/isp/Src/isp_algo.c **** ISP_StatusTypeDef ISP_Algo_AEC_DeInit(void *hIsp, void *pAlgo);
  69:../Middlewares/stm32-mw-camera/ISP_Library/isp/Src/isp_algo.c **** ISP_StatusTypeDef ISP_Algo_AEC_Process(void *hIsp, void *pAlgo);
  70:../Middlewares/stm32-mw-camera/ISP_Library/isp/Src/isp_algo.c **** ISP_StatusTypeDef ISP_Algo_AWB_Init(void *hIsp, void *pAlgo);
  71:../Middlewares/stm32-mw-camera/ISP_Library/isp/Src/isp_algo.c **** ISP_StatusTypeDef ISP_Algo_AWB_DeInit(void *hIsp, void *pAlgo);
  72:../Middlewares/stm32-mw-camera/ISP_Library/isp/Src/isp_algo.c **** ISP_StatusTypeDef ISP_Algo_AWB_Process(void *hIsp, void *pAlgo);
  73:../Middlewares/stm32-mw-camera/ISP_Library/isp/Src/isp_algo.c **** ISP_StatusTypeDef ISP_Algo_Background_Init(void *hIsp, void *pAlgo);
  74:../Middlewares/stm32-mw-camera/ISP_Library/isp/Src/isp_algo.c **** ISP_StatusTypeDef ISP_Algo_Background_DeInit(void *hIsp, void *pAlgo);
  75:../Middlewares/stm32-mw-camera/ISP_Library/isp/Src/isp_algo.c **** ISP_StatusTypeDef ISP_Algo_Background_Process(void *hIsp, void *pAlgo);
  76:../Middlewares/stm32-mw-camera/ISP_Library/isp/Src/isp_algo.c **** #ifdef ISP_MW_TUNING_TOOL_SUPPORT
  77:../Middlewares/stm32-mw-camera/ISP_Library/isp/Src/isp_algo.c **** ISP_StatusTypeDef ISP_Algo_SensorDelay_Init(void *hIsp, void *pAlgo);
  78:../Middlewares/stm32-mw-camera/ISP_Library/isp/Src/isp_algo.c **** ISP_StatusTypeDef ISP_Algo_SensorDelay_DeInit(void *hIsp, void *pAlgo);
  79:../Middlewares/stm32-mw-camera/ISP_Library/isp/Src/isp_algo.c **** ISP_StatusTypeDef ISP_Algo_SensorDelay_Process(void *hIsp, void *pAlgo);
  80:../Middlewares/stm32-mw-camera/ISP_Library/isp/Src/isp_algo.c **** #endif
  81:../Middlewares/stm32-mw-camera/ISP_Library/isp/Src/isp_algo.c **** 
ARM GAS  /tmp/ccCLNRaf.s 			page 3


  82:../Middlewares/stm32-mw-camera/ISP_Library/isp/Src/isp_algo.c **** /* Private variables ---------------------------------------------------------*/
  83:../Middlewares/stm32-mw-camera/ISP_Library/isp/Src/isp_algo.c **** /* Bad Pixel algorithm handle */
  84:../Middlewares/stm32-mw-camera/ISP_Library/isp/Src/isp_algo.c **** ISP_AlgoTypeDef ISP_Algo_BadPixel = {
  85:../Middlewares/stm32-mw-camera/ISP_Library/isp/Src/isp_algo.c ****     .id = ISP_ALGO_ID_BADPIXEL,
  86:../Middlewares/stm32-mw-camera/ISP_Library/isp/Src/isp_algo.c ****     .Init = ISP_Algo_BadPixel_Init,
  87:../Middlewares/stm32-mw-camera/ISP_Library/isp/Src/isp_algo.c ****     .DeInit = ISP_Algo_BadPixel_DeInit,
  88:../Middlewares/stm32-mw-camera/ISP_Library/isp/Src/isp_algo.c ****     .Process = ISP_Algo_BadPixel_Process,
  89:../Middlewares/stm32-mw-camera/ISP_Library/isp/Src/isp_algo.c **** };
  90:../Middlewares/stm32-mw-camera/ISP_Library/isp/Src/isp_algo.c **** 
  91:../Middlewares/stm32-mw-camera/ISP_Library/isp/Src/isp_algo.c **** #ifdef ISP_MW_SW_AEC_ALGO_SUPPORT
  92:../Middlewares/stm32-mw-camera/ISP_Library/isp/Src/isp_algo.c **** /* AEC algorithm handle */
  93:../Middlewares/stm32-mw-camera/ISP_Library/isp/Src/isp_algo.c **** ISP_AlgoTypeDef ISP_Algo_AEC = {
  94:../Middlewares/stm32-mw-camera/ISP_Library/isp/Src/isp_algo.c ****     .id = ISP_ALGO_ID_AEC,
  95:../Middlewares/stm32-mw-camera/ISP_Library/isp/Src/isp_algo.c ****     .Init = ISP_Algo_AEC_Init,
  96:../Middlewares/stm32-mw-camera/ISP_Library/isp/Src/isp_algo.c ****     .DeInit = ISP_Algo_AEC_DeInit,
  97:../Middlewares/stm32-mw-camera/ISP_Library/isp/Src/isp_algo.c ****     .Process = ISP_Algo_AEC_Process,
  98:../Middlewares/stm32-mw-camera/ISP_Library/isp/Src/isp_algo.c **** };
  99:../Middlewares/stm32-mw-camera/ISP_Library/isp/Src/isp_algo.c **** #endif /* ISP_MW_SW_AEC_ALGO_SUPPORT */
 100:../Middlewares/stm32-mw-camera/ISP_Library/isp/Src/isp_algo.c **** 
 101:../Middlewares/stm32-mw-camera/ISP_Library/isp/Src/isp_algo.c **** #ifdef ISP_MW_SW_AWB_ALGO_SUPPORT
 102:../Middlewares/stm32-mw-camera/ISP_Library/isp/Src/isp_algo.c **** /* AWB algorithm handle */
 103:../Middlewares/stm32-mw-camera/ISP_Library/isp/Src/isp_algo.c **** ISP_AlgoTypeDef ISP_Algo_AWB = {
 104:../Middlewares/stm32-mw-camera/ISP_Library/isp/Src/isp_algo.c ****     .id = ISP_ALGO_ID_AWB,
 105:../Middlewares/stm32-mw-camera/ISP_Library/isp/Src/isp_algo.c ****     .Init = ISP_Algo_AWB_Init,
 106:../Middlewares/stm32-mw-camera/ISP_Library/isp/Src/isp_algo.c ****     .DeInit = ISP_Algo_AWB_DeInit,
 107:../Middlewares/stm32-mw-camera/ISP_Library/isp/Src/isp_algo.c ****     .Process = ISP_Algo_AWB_Process,
 108:../Middlewares/stm32-mw-camera/ISP_Library/isp/Src/isp_algo.c **** };
 109:../Middlewares/stm32-mw-camera/ISP_Library/isp/Src/isp_algo.c **** #endif /* ISP_MW_SW_AWB_ALGO_SUPPORT */
 110:../Middlewares/stm32-mw-camera/ISP_Library/isp/Src/isp_algo.c **** 
 111:../Middlewares/stm32-mw-camera/ISP_Library/isp/Src/isp_algo.c **** #ifdef ISP_MW_TUNING_TOOL_SUPPORT
 112:../Middlewares/stm32-mw-camera/ISP_Library/isp/Src/isp_algo.c **** /* Sensor Delay measurement algorithm handle */
 113:../Middlewares/stm32-mw-camera/ISP_Library/isp/Src/isp_algo.c **** ISP_AlgoTypeDef ISP_Algo_SensorDelay = {
 114:../Middlewares/stm32-mw-camera/ISP_Library/isp/Src/isp_algo.c ****     .id = ISP_ALGO_ID_SENSOR_DELAY,
 115:../Middlewares/stm32-mw-camera/ISP_Library/isp/Src/isp_algo.c ****     .Init = ISP_Algo_SensorDelay_Init,
 116:../Middlewares/stm32-mw-camera/ISP_Library/isp/Src/isp_algo.c ****     .DeInit = ISP_Algo_SensorDelay_DeInit,
 117:../Middlewares/stm32-mw-camera/ISP_Library/isp/Src/isp_algo.c ****     .Process = ISP_Algo_SensorDelay_Process,
 118:../Middlewares/stm32-mw-camera/ISP_Library/isp/Src/isp_algo.c **** };
 119:../Middlewares/stm32-mw-camera/ISP_Library/isp/Src/isp_algo.c **** #endif
 120:../Middlewares/stm32-mw-camera/ISP_Library/isp/Src/isp_algo.c **** 
 121:../Middlewares/stm32-mw-camera/ISP_Library/isp/Src/isp_algo.c **** /* Background algorithm handle for statistics update */
 122:../Middlewares/stm32-mw-camera/ISP_Library/isp/Src/isp_algo.c **** ISP_AlgoTypeDef ISP_Algo_Background = {
 123:../Middlewares/stm32-mw-camera/ISP_Library/isp/Src/isp_algo.c ****     .id = ISP_ALGO_ID_BACKGROUND,
 124:../Middlewares/stm32-mw-camera/ISP_Library/isp/Src/isp_algo.c ****     .Init = ISP_Algo_Background_Init,
 125:../Middlewares/stm32-mw-camera/ISP_Library/isp/Src/isp_algo.c ****     .DeInit = ISP_Algo_Background_DeInit,
 126:../Middlewares/stm32-mw-camera/ISP_Library/isp/Src/isp_algo.c ****     .Process = ISP_Algo_Background_Process,
 127:../Middlewares/stm32-mw-camera/ISP_Library/isp/Src/isp_algo.c **** };
 128:../Middlewares/stm32-mw-camera/ISP_Library/isp/Src/isp_algo.c **** 
 129:../Middlewares/stm32-mw-camera/ISP_Library/isp/Src/isp_algo.c **** /* Registered algorithm list */
 130:../Middlewares/stm32-mw-camera/ISP_Library/isp/Src/isp_algo.c **** ISP_AlgoTypeDef *ISP_Algo_List[] = {
 131:../Middlewares/stm32-mw-camera/ISP_Library/isp/Src/isp_algo.c ****     &ISP_Algo_Background,
 132:../Middlewares/stm32-mw-camera/ISP_Library/isp/Src/isp_algo.c ****     &ISP_Algo_BadPixel,
 133:../Middlewares/stm32-mw-camera/ISP_Library/isp/Src/isp_algo.c **** #ifdef ISP_MW_SW_AEC_ALGO_SUPPORT
 134:../Middlewares/stm32-mw-camera/ISP_Library/isp/Src/isp_algo.c ****     &ISP_Algo_AEC,
 135:../Middlewares/stm32-mw-camera/ISP_Library/isp/Src/isp_algo.c **** #endif /* ISP_MW_SW_AEC_ALGO_SUPPORT */
 136:../Middlewares/stm32-mw-camera/ISP_Library/isp/Src/isp_algo.c **** #ifdef ISP_MW_SW_AWB_ALGO_SUPPORT
 137:../Middlewares/stm32-mw-camera/ISP_Library/isp/Src/isp_algo.c ****     &ISP_Algo_AWB,
 138:../Middlewares/stm32-mw-camera/ISP_Library/isp/Src/isp_algo.c **** #endif /* ISP_MW_SW_AWB_ALGO_SUPPORT */
ARM GAS  /tmp/ccCLNRaf.s 			page 4


 139:../Middlewares/stm32-mw-camera/ISP_Library/isp/Src/isp_algo.c **** #ifdef ISP_MW_TUNING_TOOL_SUPPORT
 140:../Middlewares/stm32-mw-camera/ISP_Library/isp/Src/isp_algo.c ****     &ISP_Algo_SensorDelay,
 141:../Middlewares/stm32-mw-camera/ISP_Library/isp/Src/isp_algo.c **** #endif /* ISP_MW_TUNING_TOOL_SUPPORT */
 142:../Middlewares/stm32-mw-camera/ISP_Library/isp/Src/isp_algo.c **** };
 143:../Middlewares/stm32-mw-camera/ISP_Library/isp/Src/isp_algo.c **** 
 144:../Middlewares/stm32-mw-camera/ISP_Library/isp/Src/isp_algo.c **** /* Global variables ----------------------------------------------------------*/
 145:../Middlewares/stm32-mw-camera/ISP_Library/isp/Src/isp_algo.c **** ISP_MetaTypeDef Meta = {0};
 146:../Middlewares/stm32-mw-camera/ISP_Library/isp/Src/isp_algo.c **** 
 147:../Middlewares/stm32-mw-camera/ISP_Library/isp/Src/isp_algo.c **** /* Private functions ---------------------------------------------------------*/
 148:../Middlewares/stm32-mw-camera/ISP_Library/isp/Src/isp_algo.c **** /**
 149:../Middlewares/stm32-mw-camera/ISP_Library/isp/Src/isp_algo.c ****   * @brief  ISP_Algo_BadPixel_Init
 150:../Middlewares/stm32-mw-camera/ISP_Library/isp/Src/isp_algo.c ****   *         Initialize the BadPixel algorithm
 151:../Middlewares/stm32-mw-camera/ISP_Library/isp/Src/isp_algo.c ****   * @param  hIsp:  ISP device handle. To cast in (ISP_HandleTypeDef *).
 152:../Middlewares/stm32-mw-camera/ISP_Library/isp/Src/isp_algo.c ****   * @param  pAlgo: ISP algorithm handle. To cast in (ISP_AlgoTypeDef *).
 153:../Middlewares/stm32-mw-camera/ISP_Library/isp/Src/isp_algo.c ****   * @retval operation result
 154:../Middlewares/stm32-mw-camera/ISP_Library/isp/Src/isp_algo.c ****   */
 155:../Middlewares/stm32-mw-camera/ISP_Library/isp/Src/isp_algo.c **** ISP_StatusTypeDef ISP_Algo_BadPixel_Init(void *hIsp, void *pAlgo)
 156:../Middlewares/stm32-mw-camera/ISP_Library/isp/Src/isp_algo.c **** {
  35              		.loc 1 156 1 view -0
  36              		.cfi_startproc
  37              		@ args = 0, pretend = 0, frame = 0
  38              		@ frame_needed = 0, uses_anonymous_args = 0
  39              		@ link register save eliminated.
 157:../Middlewares/stm32-mw-camera/ISP_Library/isp/Src/isp_algo.c ****   (void)hIsp; /* unused */
  40              		.loc 1 157 3 view .LVU1
 158:../Middlewares/stm32-mw-camera/ISP_Library/isp/Src/isp_algo.c **** 
 159:../Middlewares/stm32-mw-camera/ISP_Library/isp/Src/isp_algo.c ****   ((ISP_AlgoTypeDef *)pAlgo)->state = ISP_ALGO_STATE_INIT;
  41              		.loc 1 159 3 view .LVU2
  42              		.loc 1 159 37 is_stmt 0 view .LVU3
  43 0000 0020     		movs	r0, #0
  44              	.LVL1:
  45              		.loc 1 159 37 view .LVU4
  46 0002 4870     		strb	r0, [r1, #1]
 160:../Middlewares/stm32-mw-camera/ISP_Library/isp/Src/isp_algo.c **** 
 161:../Middlewares/stm32-mw-camera/ISP_Library/isp/Src/isp_algo.c ****   return ISP_OK;
  47              		.loc 1 161 3 is_stmt 1 view .LVU5
 162:../Middlewares/stm32-mw-camera/ISP_Library/isp/Src/isp_algo.c **** }
  48              		.loc 1 162 1 is_stmt 0 view .LVU6
  49 0004 7047     		bx	lr
  50              		.cfi_endproc
  51              	.LFE884:
  53              		.section	.text.ISP_Algo_BadPixel_DeInit,"ax",%progbits
  54              		.align	1
  55              		.global	ISP_Algo_BadPixel_DeInit
  56              		.syntax unified
  57              		.thumb
  58              		.thumb_func
  60              	ISP_Algo_BadPixel_DeInit:
  61              	.LVL2:
  62              	.LFB885:
 163:../Middlewares/stm32-mw-camera/ISP_Library/isp/Src/isp_algo.c **** 
 164:../Middlewares/stm32-mw-camera/ISP_Library/isp/Src/isp_algo.c **** /**
 165:../Middlewares/stm32-mw-camera/ISP_Library/isp/Src/isp_algo.c ****   * @brief  ISP_Algo_BadPixel_DeInit
 166:../Middlewares/stm32-mw-camera/ISP_Library/isp/Src/isp_algo.c ****   *         Deinitialize the BadPixel algorithm
 167:../Middlewares/stm32-mw-camera/ISP_Library/isp/Src/isp_algo.c ****   * @param  hIsp:  ISP device handle. To cast in (ISP_HandleTypeDef *).
 168:../Middlewares/stm32-mw-camera/ISP_Library/isp/Src/isp_algo.c ****   * @param  pAlgo: ISP algorithm handle. To cast in (ISP_AlgoTypeDef *).
 169:../Middlewares/stm32-mw-camera/ISP_Library/isp/Src/isp_algo.c ****   * @retval operation result
ARM GAS  /tmp/ccCLNRaf.s 			page 5


 170:../Middlewares/stm32-mw-camera/ISP_Library/isp/Src/isp_algo.c ****   */
 171:../Middlewares/stm32-mw-camera/ISP_Library/isp/Src/isp_algo.c **** ISP_StatusTypeDef ISP_Algo_BadPixel_DeInit(void *hIsp, void *pAlgo)
 172:../Middlewares/stm32-mw-camera/ISP_Library/isp/Src/isp_algo.c **** {
  63              		.loc 1 172 1 is_stmt 1 view -0
  64              		.cfi_startproc
  65              		@ args = 0, pretend = 0, frame = 0
  66              		@ frame_needed = 0, uses_anonymous_args = 0
  67              		@ link register save eliminated.
 173:../Middlewares/stm32-mw-camera/ISP_Library/isp/Src/isp_algo.c ****   (void)hIsp; /* unused */
  68              		.loc 1 173 3 view .LVU8
 174:../Middlewares/stm32-mw-camera/ISP_Library/isp/Src/isp_algo.c ****   (void)pAlgo; /* unused */
  69              		.loc 1 174 3 view .LVU9
 175:../Middlewares/stm32-mw-camera/ISP_Library/isp/Src/isp_algo.c **** 
 176:../Middlewares/stm32-mw-camera/ISP_Library/isp/Src/isp_algo.c ****   return ISP_OK;
  70              		.loc 1 176 3 view .LVU10
 177:../Middlewares/stm32-mw-camera/ISP_Library/isp/Src/isp_algo.c **** }
  71              		.loc 1 177 1 is_stmt 0 view .LVU11
  72 0000 0020     		movs	r0, #0
  73              	.LVL3:
  74              		.loc 1 177 1 view .LVU12
  75 0002 7047     		bx	lr
  76              		.cfi_endproc
  77              	.LFE885:
  79              		.section	.text.ISP_Algo_AEC_StatCb,"ax",%progbits
  80              		.align	1
  81              		.global	ISP_Algo_AEC_StatCb
  82              		.syntax unified
  83              		.thumb
  84              		.thumb_func
  86              	ISP_Algo_AEC_StatCb:
  87              	.LVL4:
  88              	.LFB889:
 178:../Middlewares/stm32-mw-camera/ISP_Library/isp/Src/isp_algo.c **** 
 179:../Middlewares/stm32-mw-camera/ISP_Library/isp/Src/isp_algo.c **** /**
 180:../Middlewares/stm32-mw-camera/ISP_Library/isp/Src/isp_algo.c ****   * @brief  ISP_Algo_BadPixel_Process
 181:../Middlewares/stm32-mw-camera/ISP_Library/isp/Src/isp_algo.c ****   *         Process the BadPixel algorithm
 182:../Middlewares/stm32-mw-camera/ISP_Library/isp/Src/isp_algo.c ****   * @param  hIsp:  ISP device handle. To cast in (ISP_HandleTypeDef *).
 183:../Middlewares/stm32-mw-camera/ISP_Library/isp/Src/isp_algo.c ****   * @param  pAlgo: ISP algorithm handle. To cast in (ISP_AlgoTypeDef *).
 184:../Middlewares/stm32-mw-camera/ISP_Library/isp/Src/isp_algo.c ****   * @retval operation result
 185:../Middlewares/stm32-mw-camera/ISP_Library/isp/Src/isp_algo.c ****   */
 186:../Middlewares/stm32-mw-camera/ISP_Library/isp/Src/isp_algo.c **** ISP_StatusTypeDef ISP_Algo_BadPixel_Process(void *hIsp, void *pAlgo)
 187:../Middlewares/stm32-mw-camera/ISP_Library/isp/Src/isp_algo.c **** {
 188:../Middlewares/stm32-mw-camera/ISP_Library/isp/Src/isp_algo.c ****   (void)hIsp; /* unused */
 189:../Middlewares/stm32-mw-camera/ISP_Library/isp/Src/isp_algo.c ****   (void)pAlgo; /* unused */
 190:../Middlewares/stm32-mw-camera/ISP_Library/isp/Src/isp_algo.c ****   static uint32_t BadPixelCount, LastFrameId;
 191:../Middlewares/stm32-mw-camera/ISP_Library/isp/Src/isp_algo.c ****   static int8_t Step;
 192:../Middlewares/stm32-mw-camera/ISP_Library/isp/Src/isp_algo.c ****   uint32_t CurrentFrameId;
 193:../Middlewares/stm32-mw-camera/ISP_Library/isp/Src/isp_algo.c ****   ISP_BadPixelTypeDef BadPixelConfig;
 194:../Middlewares/stm32-mw-camera/ISP_Library/isp/Src/isp_algo.c ****   ISP_IQParamTypeDef *IQParamConfig;
 195:../Middlewares/stm32-mw-camera/ISP_Library/isp/Src/isp_algo.c ****   ISP_StatusTypeDef ret;
 196:../Middlewares/stm32-mw-camera/ISP_Library/isp/Src/isp_algo.c **** 
 197:../Middlewares/stm32-mw-camera/ISP_Library/isp/Src/isp_algo.c ****   IQParamConfig = ISP_SVC_IQParam_Get(hIsp);
 198:../Middlewares/stm32-mw-camera/ISP_Library/isp/Src/isp_algo.c **** 
 199:../Middlewares/stm32-mw-camera/ISP_Library/isp/Src/isp_algo.c ****   if (IQParamConfig->badPixelAlgo.enable == false)
 200:../Middlewares/stm32-mw-camera/ISP_Library/isp/Src/isp_algo.c ****   {
 201:../Middlewares/stm32-mw-camera/ISP_Library/isp/Src/isp_algo.c ****     return ISP_OK;
 202:../Middlewares/stm32-mw-camera/ISP_Library/isp/Src/isp_algo.c ****   }
ARM GAS  /tmp/ccCLNRaf.s 			page 6


 203:../Middlewares/stm32-mw-camera/ISP_Library/isp/Src/isp_algo.c **** 
 204:../Middlewares/stm32-mw-camera/ISP_Library/isp/Src/isp_algo.c ****   /* Wait for a new frame */
 205:../Middlewares/stm32-mw-camera/ISP_Library/isp/Src/isp_algo.c ****   CurrentFrameId = ISP_SVC_Misc_GetMainFrameId(hIsp);
 206:../Middlewares/stm32-mw-camera/ISP_Library/isp/Src/isp_algo.c ****   if (CurrentFrameId == LastFrameId)
 207:../Middlewares/stm32-mw-camera/ISP_Library/isp/Src/isp_algo.c ****   {
 208:../Middlewares/stm32-mw-camera/ISP_Library/isp/Src/isp_algo.c ****     return ISP_OK;
 209:../Middlewares/stm32-mw-camera/ISP_Library/isp/Src/isp_algo.c ****   }
 210:../Middlewares/stm32-mw-camera/ISP_Library/isp/Src/isp_algo.c ****   LastFrameId = CurrentFrameId;
 211:../Middlewares/stm32-mw-camera/ISP_Library/isp/Src/isp_algo.c **** 
 212:../Middlewares/stm32-mw-camera/ISP_Library/isp/Src/isp_algo.c ****   if (Step++ >= 0)
 213:../Middlewares/stm32-mw-camera/ISP_Library/isp/Src/isp_algo.c ****   {
 214:../Middlewares/stm32-mw-camera/ISP_Library/isp/Src/isp_algo.c ****     /* Measure the number of bad pixels */
 215:../Middlewares/stm32-mw-camera/ISP_Library/isp/Src/isp_algo.c ****     ret = ISP_SVC_ISP_GetBadPixel(hIsp, &BadPixelConfig);
 216:../Middlewares/stm32-mw-camera/ISP_Library/isp/Src/isp_algo.c ****     if (ret != ISP_OK)
 217:../Middlewares/stm32-mw-camera/ISP_Library/isp/Src/isp_algo.c ****     {
 218:../Middlewares/stm32-mw-camera/ISP_Library/isp/Src/isp_algo.c ****       return ret;
 219:../Middlewares/stm32-mw-camera/ISP_Library/isp/Src/isp_algo.c ****     }
 220:../Middlewares/stm32-mw-camera/ISP_Library/isp/Src/isp_algo.c ****     BadPixelCount += BadPixelConfig.count;
 221:../Middlewares/stm32-mw-camera/ISP_Library/isp/Src/isp_algo.c ****   }
 222:../Middlewares/stm32-mw-camera/ISP_Library/isp/Src/isp_algo.c **** 
 223:../Middlewares/stm32-mw-camera/ISP_Library/isp/Src/isp_algo.c ****   if (Step == 10)
 224:../Middlewares/stm32-mw-camera/ISP_Library/isp/Src/isp_algo.c ****   {
 225:../Middlewares/stm32-mw-camera/ISP_Library/isp/Src/isp_algo.c ****     /* All measures done : make an average and compare with threshold */
 226:../Middlewares/stm32-mw-camera/ISP_Library/isp/Src/isp_algo.c ****     BadPixelCount /= 10;
 227:../Middlewares/stm32-mw-camera/ISP_Library/isp/Src/isp_algo.c **** 
 228:../Middlewares/stm32-mw-camera/ISP_Library/isp/Src/isp_algo.c ****     if ((BadPixelCount > IQParamConfig->badPixelAlgo.threshold) && (BadPixelConfig.strength > 0))
 229:../Middlewares/stm32-mw-camera/ISP_Library/isp/Src/isp_algo.c ****     {
 230:../Middlewares/stm32-mw-camera/ISP_Library/isp/Src/isp_algo.c ****       /* Bad pixel is above target : decrease strength */
 231:../Middlewares/stm32-mw-camera/ISP_Library/isp/Src/isp_algo.c ****       BadPixelConfig.strength--;
 232:../Middlewares/stm32-mw-camera/ISP_Library/isp/Src/isp_algo.c ****     }
 233:../Middlewares/stm32-mw-camera/ISP_Library/isp/Src/isp_algo.c ****     else if ((BadPixelCount < IQParamConfig->badPixelAlgo.threshold) && (BadPixelConfig.strength < 
 234:../Middlewares/stm32-mw-camera/ISP_Library/isp/Src/isp_algo.c ****     {
 235:../Middlewares/stm32-mw-camera/ISP_Library/isp/Src/isp_algo.c ****       /* Bad pixel is below target : increase strength. (exclude ISP_BADPIXEL_STRENGTH_MAX which gi
 236:../Middlewares/stm32-mw-camera/ISP_Library/isp/Src/isp_algo.c ****       BadPixelConfig.strength++;
 237:../Middlewares/stm32-mw-camera/ISP_Library/isp/Src/isp_algo.c ****     }
 238:../Middlewares/stm32-mw-camera/ISP_Library/isp/Src/isp_algo.c **** 
 239:../Middlewares/stm32-mw-camera/ISP_Library/isp/Src/isp_algo.c ****     /* Set updated Strength */
 240:../Middlewares/stm32-mw-camera/ISP_Library/isp/Src/isp_algo.c ****     BadPixelConfig.enable = 1;
 241:../Middlewares/stm32-mw-camera/ISP_Library/isp/Src/isp_algo.c ****     ret = ISP_SVC_ISP_SetBadPixel(hIsp, &BadPixelConfig);
 242:../Middlewares/stm32-mw-camera/ISP_Library/isp/Src/isp_algo.c ****     if (ret != ISP_OK)
 243:../Middlewares/stm32-mw-camera/ISP_Library/isp/Src/isp_algo.c ****     {
 244:../Middlewares/stm32-mw-camera/ISP_Library/isp/Src/isp_algo.c ****       return ret;
 245:../Middlewares/stm32-mw-camera/ISP_Library/isp/Src/isp_algo.c ****     }
 246:../Middlewares/stm32-mw-camera/ISP_Library/isp/Src/isp_algo.c **** 
 247:../Middlewares/stm32-mw-camera/ISP_Library/isp/Src/isp_algo.c ****     /* Set Step to -1 to wait for an extra frame before a new measurement (the ISP HW needs one fra
 248:../Middlewares/stm32-mw-camera/ISP_Library/isp/Src/isp_algo.c ****     Step = -1;
 249:../Middlewares/stm32-mw-camera/ISP_Library/isp/Src/isp_algo.c ****     BadPixelCount = 0;
 250:../Middlewares/stm32-mw-camera/ISP_Library/isp/Src/isp_algo.c ****   }
 251:../Middlewares/stm32-mw-camera/ISP_Library/isp/Src/isp_algo.c **** 
 252:../Middlewares/stm32-mw-camera/ISP_Library/isp/Src/isp_algo.c ****   return ISP_OK;
 253:../Middlewares/stm32-mw-camera/ISP_Library/isp/Src/isp_algo.c **** }
 254:../Middlewares/stm32-mw-camera/ISP_Library/isp/Src/isp_algo.c **** 
 255:../Middlewares/stm32-mw-camera/ISP_Library/isp/Src/isp_algo.c **** #ifdef ISP_MW_SW_AEC_ALGO_SUPPORT
 256:../Middlewares/stm32-mw-camera/ISP_Library/isp/Src/isp_algo.c **** /**
 257:../Middlewares/stm32-mw-camera/ISP_Library/isp/Src/isp_algo.c ****   * @brief  ISP_Algo_AEC_Init
 258:../Middlewares/stm32-mw-camera/ISP_Library/isp/Src/isp_algo.c ****   *         Initialize the AEC algorithm
 259:../Middlewares/stm32-mw-camera/ISP_Library/isp/Src/isp_algo.c ****   * @param  hIsp:  ISP device handle. To cast in (ISP_HandleTypeDef *).
ARM GAS  /tmp/ccCLNRaf.s 			page 7


 260:../Middlewares/stm32-mw-camera/ISP_Library/isp/Src/isp_algo.c ****   * @param  pAlgo: ISP algorithm handle. To cast in (ISP_AlgoTypeDef *).
 261:../Middlewares/stm32-mw-camera/ISP_Library/isp/Src/isp_algo.c ****   * @retval operation result
 262:../Middlewares/stm32-mw-camera/ISP_Library/isp/Src/isp_algo.c ****   */
 263:../Middlewares/stm32-mw-camera/ISP_Library/isp/Src/isp_algo.c **** ISP_StatusTypeDef ISP_Algo_AEC_Init(void *hIsp, void *pAlgo)
 264:../Middlewares/stm32-mw-camera/ISP_Library/isp/Src/isp_algo.c **** {
 265:../Middlewares/stm32-mw-camera/ISP_Library/isp/Src/isp_algo.c ****   ISP_HandleTypeDef *pIsp_handle = (ISP_HandleTypeDef*) hIsp;
 266:../Middlewares/stm32-mw-camera/ISP_Library/isp/Src/isp_algo.c ****   ISP_AlgoTypeDef *algo = (ISP_AlgoTypeDef *)pAlgo;
 267:../Middlewares/stm32-mw-camera/ISP_Library/isp/Src/isp_algo.c ****   ISP_SensorExposureTypeDef exposureConfig;
 268:../Middlewares/stm32-mw-camera/ISP_Library/isp/Src/isp_algo.c ****   ISP_SensorGainTypeDef gainConfig;
 269:../Middlewares/stm32-mw-camera/ISP_Library/isp/Src/isp_algo.c ****   ISP_IQParamTypeDef *IQParamConfig;
 270:../Middlewares/stm32-mw-camera/ISP_Library/isp/Src/isp_algo.c ****   ISP_RestartStateTypeDef *pRestartState;
 271:../Middlewares/stm32-mw-camera/ISP_Library/isp/Src/isp_algo.c **** 
 272:../Middlewares/stm32-mw-camera/ISP_Library/isp/Src/isp_algo.c ****   IQParamConfig = ISP_SVC_IQParam_Get(hIsp);
 273:../Middlewares/stm32-mw-camera/ISP_Library/isp/Src/isp_algo.c ****   pRestartState = ISP_SVC_GetRestartState(hIsp);
 274:../Middlewares/stm32-mw-camera/ISP_Library/isp/Src/isp_algo.c **** 
 275:../Middlewares/stm32-mw-camera/ISP_Library/isp/Src/isp_algo.c ****   if (IQParamConfig->sensorDelay.delay == 0)
 276:../Middlewares/stm32-mw-camera/ISP_Library/isp/Src/isp_algo.c ****   {
 277:../Middlewares/stm32-mw-camera/ISP_Library/isp/Src/isp_algo.c ****     /* A value of 0 is invalid, it would break the AEC algo */
 278:../Middlewares/stm32-mw-camera/ISP_Library/isp/Src/isp_algo.c ****     IQParamConfig->sensorDelay.delay = 1;
 279:../Middlewares/stm32-mw-camera/ISP_Library/isp/Src/isp_algo.c ****   }
 280:../Middlewares/stm32-mw-camera/ISP_Library/isp/Src/isp_algo.c **** 
 281:../Middlewares/stm32-mw-camera/ISP_Library/isp/Src/isp_algo.c ****   isp_ae_init(pIsp_handle);
 282:../Middlewares/stm32-mw-camera/ISP_Library/isp/Src/isp_algo.c **** 
 283:../Middlewares/stm32-mw-camera/ISP_Library/isp/Src/isp_algo.c ****   /* Initialize exposure and gain values */
 284:../Middlewares/stm32-mw-camera/ISP_Library/isp/Src/isp_algo.c ****   if (IQParamConfig->AECAlgo.enable == true)
 285:../Middlewares/stm32-mw-camera/ISP_Library/isp/Src/isp_algo.c ****   {
 286:../Middlewares/stm32-mw-camera/ISP_Library/isp/Src/isp_algo.c ****     if (pRestartState && pRestartState->sensorConfigured)
 287:../Middlewares/stm32-mw-camera/ISP_Library/isp/Src/isp_algo.c ****     {
 288:../Middlewares/stm32-mw-camera/ISP_Library/isp/Src/isp_algo.c ****       /* Resume from the latest applied config */
 289:../Middlewares/stm32-mw-camera/ISP_Library/isp/Src/isp_algo.c ****       exposureConfig.exposure = pRestartState->sensorExposure;
 290:../Middlewares/stm32-mw-camera/ISP_Library/isp/Src/isp_algo.c ****       gainConfig.gain = pRestartState->sensorGain;
 291:../Middlewares/stm32-mw-camera/ISP_Library/isp/Src/isp_algo.c ****     }
 292:../Middlewares/stm32-mw-camera/ISP_Library/isp/Src/isp_algo.c ****     else
 293:../Middlewares/stm32-mw-camera/ISP_Library/isp/Src/isp_algo.c ****     {
 294:../Middlewares/stm32-mw-camera/ISP_Library/isp/Src/isp_algo.c ****       /* Start from black frame */
 295:../Middlewares/stm32-mw-camera/ISP_Library/isp/Src/isp_algo.c ****       exposureConfig.exposure = pIsp_handle->sensorInfo.exposure_min;
 296:../Middlewares/stm32-mw-camera/ISP_Library/isp/Src/isp_algo.c ****       gainConfig.gain = pIsp_handle->sensorInfo.gain_min;
 297:../Middlewares/stm32-mw-camera/ISP_Library/isp/Src/isp_algo.c ****     }
 298:../Middlewares/stm32-mw-camera/ISP_Library/isp/Src/isp_algo.c **** 
 299:../Middlewares/stm32-mw-camera/ISP_Library/isp/Src/isp_algo.c ****     if ((ISP_SVC_Sensor_SetExposure(hIsp, &exposureConfig) != ISP_OK) || (ISP_SVC_Sensor_SetGain(hI
 300:../Middlewares/stm32-mw-camera/ISP_Library/isp/Src/isp_algo.c ****     {
 301:../Middlewares/stm32-mw-camera/ISP_Library/isp/Src/isp_algo.c ****       return ISP_ERR_ALGO;
 302:../Middlewares/stm32-mw-camera/ISP_Library/isp/Src/isp_algo.c ****     }
 303:../Middlewares/stm32-mw-camera/ISP_Library/isp/Src/isp_algo.c ****   }
 304:../Middlewares/stm32-mw-camera/ISP_Library/isp/Src/isp_algo.c **** 
 305:../Middlewares/stm32-mw-camera/ISP_Library/isp/Src/isp_algo.c ****   /* Update State */
 306:../Middlewares/stm32-mw-camera/ISP_Library/isp/Src/isp_algo.c ****   algo->state = ISP_ALGO_STATE_INIT;
 307:../Middlewares/stm32-mw-camera/ISP_Library/isp/Src/isp_algo.c **** 
 308:../Middlewares/stm32-mw-camera/ISP_Library/isp/Src/isp_algo.c ****   return ISP_OK;
 309:../Middlewares/stm32-mw-camera/ISP_Library/isp/Src/isp_algo.c **** }
 310:../Middlewares/stm32-mw-camera/ISP_Library/isp/Src/isp_algo.c **** 
 311:../Middlewares/stm32-mw-camera/ISP_Library/isp/Src/isp_algo.c **** /**
 312:../Middlewares/stm32-mw-camera/ISP_Library/isp/Src/isp_algo.c ****   * @brief  ISP_Algo_AEC_DeInit
 313:../Middlewares/stm32-mw-camera/ISP_Library/isp/Src/isp_algo.c ****   *         Deinitialize the AEC algorithm
 314:../Middlewares/stm32-mw-camera/ISP_Library/isp/Src/isp_algo.c ****   * @param  hIsp:  ISP device handle. To cast in (ISP_HandleTypeDef *).
 315:../Middlewares/stm32-mw-camera/ISP_Library/isp/Src/isp_algo.c ****   * @param  pAlgo: ISP algorithm handle. To cast in (ISP_AlgoTypeDef *).
 316:../Middlewares/stm32-mw-camera/ISP_Library/isp/Src/isp_algo.c ****   * @retval operation result
ARM GAS  /tmp/ccCLNRaf.s 			page 8


 317:../Middlewares/stm32-mw-camera/ISP_Library/isp/Src/isp_algo.c ****   */
 318:../Middlewares/stm32-mw-camera/ISP_Library/isp/Src/isp_algo.c **** ISP_StatusTypeDef ISP_Algo_AEC_DeInit(void *hIsp, void *pAlgo)
 319:../Middlewares/stm32-mw-camera/ISP_Library/isp/Src/isp_algo.c **** {
 320:../Middlewares/stm32-mw-camera/ISP_Library/isp/Src/isp_algo.c ****   (void)hIsp; /* unused */
 321:../Middlewares/stm32-mw-camera/ISP_Library/isp/Src/isp_algo.c ****   (void)pAlgo; /* unused */
 322:../Middlewares/stm32-mw-camera/ISP_Library/isp/Src/isp_algo.c **** 
 323:../Middlewares/stm32-mw-camera/ISP_Library/isp/Src/isp_algo.c ****   return ISP_OK;
 324:../Middlewares/stm32-mw-camera/ISP_Library/isp/Src/isp_algo.c **** }
 325:../Middlewares/stm32-mw-camera/ISP_Library/isp/Src/isp_algo.c **** 
 326:../Middlewares/stm32-mw-camera/ISP_Library/isp/Src/isp_algo.c **** /**
 327:../Middlewares/stm32-mw-camera/ISP_Library/isp/Src/isp_algo.c ****   * @brief  ISP_Algo_AEC_StatCb
 328:../Middlewares/stm32-mw-camera/ISP_Library/isp/Src/isp_algo.c ****   *         Callback informing that statistics are available
 329:../Middlewares/stm32-mw-camera/ISP_Library/isp/Src/isp_algo.c ****   * @param  pAlgo: ISP algorithm handle.
 330:../Middlewares/stm32-mw-camera/ISP_Library/isp/Src/isp_algo.c ****   * @retval operation result
 331:../Middlewares/stm32-mw-camera/ISP_Library/isp/Src/isp_algo.c ****   */
 332:../Middlewares/stm32-mw-camera/ISP_Library/isp/Src/isp_algo.c **** ISP_StatusTypeDef ISP_Algo_AEC_StatCb(ISP_AlgoTypeDef *pAlgo)
 333:../Middlewares/stm32-mw-camera/ISP_Library/isp/Src/isp_algo.c **** {
  89              		.loc 1 333 1 is_stmt 1 view -0
  90              		.cfi_startproc
  91              		@ args = 0, pretend = 0, frame = 0
  92              		@ frame_needed = 0, uses_anonymous_args = 0
  93              		@ link register save eliminated.
 334:../Middlewares/stm32-mw-camera/ISP_Library/isp/Src/isp_algo.c ****   /* Update State */
 335:../Middlewares/stm32-mw-camera/ISP_Library/isp/Src/isp_algo.c ****   pAlgo->state = ISP_ALGO_STATE_STAT_READY;
  94              		.loc 1 335 3 view .LVU14
  95              		.loc 1 335 16 is_stmt 0 view .LVU15
  96 0000 0323     		movs	r3, #3
  97 0002 4370     		strb	r3, [r0, #1]
 336:../Middlewares/stm32-mw-camera/ISP_Library/isp/Src/isp_algo.c **** 
 337:../Middlewares/stm32-mw-camera/ISP_Library/isp/Src/isp_algo.c ****   return ISP_OK;
  98              		.loc 1 337 3 is_stmt 1 view .LVU16
 338:../Middlewares/stm32-mw-camera/ISP_Library/isp/Src/isp_algo.c **** }
  99              		.loc 1 338 1 is_stmt 0 view .LVU17
 100 0004 0020     		movs	r0, #0
 101              	.LVL5:
 102              		.loc 1 338 1 view .LVU18
 103 0006 7047     		bx	lr
 104              		.cfi_endproc
 105              	.LFE889:
 107              		.section	.text.ISP_Algo_AWB_StatCb,"ax",%progbits
 108              		.align	1
 109              		.global	ISP_Algo_AWB_StatCb
 110              		.syntax unified
 111              		.thumb
 112              		.thumb_func
 114              	ISP_Algo_AWB_StatCb:
 115              	.LVL6:
 116              	.LFB895:
 339:../Middlewares/stm32-mw-camera/ISP_Library/isp/Src/isp_algo.c **** 
 340:../Middlewares/stm32-mw-camera/ISP_Library/isp/Src/isp_algo.c **** /**
 341:../Middlewares/stm32-mw-camera/ISP_Library/isp/Src/isp_algo.c ****   * @brief  ISP_Algo_AEC_Process
 342:../Middlewares/stm32-mw-camera/ISP_Library/isp/Src/isp_algo.c ****   *         Process the AEC algorithm. This basic algorithm controls the sensor exposure
 343:../Middlewares/stm32-mw-camera/ISP_Library/isp/Src/isp_algo.c ****   *         in order to reach an average luminance of exposureTarget.
 344:../Middlewares/stm32-mw-camera/ISP_Library/isp/Src/isp_algo.c ****   * @param  hIsp:  ISP device handle. To cast in (ISP_HandleTypeDef *).
 345:../Middlewares/stm32-mw-camera/ISP_Library/isp/Src/isp_algo.c ****   * @param  pAlgo: ISP algorithm handle. To cast in (ISP_AlgoTypeDef *).
 346:../Middlewares/stm32-mw-camera/ISP_Library/isp/Src/isp_algo.c ****   * @retval operation result
 347:../Middlewares/stm32-mw-camera/ISP_Library/isp/Src/isp_algo.c ****   */
ARM GAS  /tmp/ccCLNRaf.s 			page 9


 348:../Middlewares/stm32-mw-camera/ISP_Library/isp/Src/isp_algo.c **** ISP_StatusTypeDef ISP_Algo_AEC_Process(void *hIsp, void *pAlgo)
 349:../Middlewares/stm32-mw-camera/ISP_Library/isp/Src/isp_algo.c **** {
 350:../Middlewares/stm32-mw-camera/ISP_Library/isp/Src/isp_algo.c ****   static ISP_SVC_StatStateTypeDef stats;
 351:../Middlewares/stm32-mw-camera/ISP_Library/isp/Src/isp_algo.c ****   ISP_AlgoTypeDef *algo = (ISP_AlgoTypeDef *)pAlgo;
 352:../Middlewares/stm32-mw-camera/ISP_Library/isp/Src/isp_algo.c ****   ISP_IQParamTypeDef *IQParamConfig;
 353:../Middlewares/stm32-mw-camera/ISP_Library/isp/Src/isp_algo.c ****   ISP_RestartStateTypeDef *pRestartState;
 354:../Middlewares/stm32-mw-camera/ISP_Library/isp/Src/isp_algo.c ****   ISP_StatusTypeDef ret = ISP_OK;
 355:../Middlewares/stm32-mw-camera/ISP_Library/isp/Src/isp_algo.c ****   ISP_SensorGainTypeDef gainConfig;
 356:../Middlewares/stm32-mw-camera/ISP_Library/isp/Src/isp_algo.c ****   ISP_SensorExposureTypeDef exposureConfig;
 357:../Middlewares/stm32-mw-camera/ISP_Library/isp/Src/isp_algo.c ****   uint32_t avgL, newExposure, newGain;
 358:../Middlewares/stm32-mw-camera/ISP_Library/isp/Src/isp_algo.c **** #ifdef ALGO_AEC_DBG_LOGS
 359:../Middlewares/stm32-mw-camera/ISP_Library/isp/Src/isp_algo.c ****   static uint32_t currentL;
 360:../Middlewares/stm32-mw-camera/ISP_Library/isp/Src/isp_algo.c **** #endif
 361:../Middlewares/stm32-mw-camera/ISP_Library/isp/Src/isp_algo.c ****   int32_t estimated_lux;
 362:../Middlewares/stm32-mw-camera/ISP_Library/isp/Src/isp_algo.c ****  ISP_HandleTypeDef *pIsp_handle = (ISP_HandleTypeDef *)hIsp;
 363:../Middlewares/stm32-mw-camera/ISP_Library/isp/Src/isp_algo.c **** 
 364:../Middlewares/stm32-mw-camera/ISP_Library/isp/Src/isp_algo.c ****   IQParamConfig = ISP_SVC_IQParam_Get(hIsp);
 365:../Middlewares/stm32-mw-camera/ISP_Library/isp/Src/isp_algo.c ****   if (IQParamConfig->AECAlgo.enable == false)
 366:../Middlewares/stm32-mw-camera/ISP_Library/isp/Src/isp_algo.c ****   {
 367:../Middlewares/stm32-mw-camera/ISP_Library/isp/Src/isp_algo.c ****     return ISP_OK;
 368:../Middlewares/stm32-mw-camera/ISP_Library/isp/Src/isp_algo.c ****   }
 369:../Middlewares/stm32-mw-camera/ISP_Library/isp/Src/isp_algo.c **** 
 370:../Middlewares/stm32-mw-camera/ISP_Library/isp/Src/isp_algo.c ****   switch(algo->state)
 371:../Middlewares/stm32-mw-camera/ISP_Library/isp/Src/isp_algo.c ****   {
 372:../Middlewares/stm32-mw-camera/ISP_Library/isp/Src/isp_algo.c ****   case ISP_ALGO_STATE_INIT:
 373:../Middlewares/stm32-mw-camera/ISP_Library/isp/Src/isp_algo.c ****     /* Update Sensor Info in case calculated exposure limits are changed*/
 374:../Middlewares/stm32-mw-camera/ISP_Library/isp/Src/isp_algo.c ****     ret = ISP_SVC_Sensor_GetInfo(hIsp, &pIsp_handle->sensorInfo);
 375:../Middlewares/stm32-mw-camera/ISP_Library/isp/Src/isp_algo.c ****     if (ret != ISP_OK)
 376:../Middlewares/stm32-mw-camera/ISP_Library/isp/Src/isp_algo.c ****     {
 377:../Middlewares/stm32-mw-camera/ISP_Library/isp/Src/isp_algo.c ****       return ret;
 378:../Middlewares/stm32-mw-camera/ISP_Library/isp/Src/isp_algo.c ****     }
 379:../Middlewares/stm32-mw-camera/ISP_Library/isp/Src/isp_algo.c ****   case ISP_ALGO_STATE_NEED_STAT:
 380:../Middlewares/stm32-mw-camera/ISP_Library/isp/Src/isp_algo.c ****     /* Ask for stats */
 381:../Middlewares/stm32-mw-camera/ISP_Library/isp/Src/isp_algo.c ****     ret = ISP_SVC_Stats_GetNext(hIsp, &ISP_Algo_AEC_StatCb, pAlgo, &stats, ISP_STAT_LOC_DOWN,
 382:../Middlewares/stm32-mw-camera/ISP_Library/isp/Src/isp_algo.c ****                                 ISP_STAT_TYPE_AVG, IQParamConfig->sensorDelay.delay);
 383:../Middlewares/stm32-mw-camera/ISP_Library/isp/Src/isp_algo.c ****     if (ret != ISP_OK)
 384:../Middlewares/stm32-mw-camera/ISP_Library/isp/Src/isp_algo.c ****     {
 385:../Middlewares/stm32-mw-camera/ISP_Library/isp/Src/isp_algo.c ****       return ret;
 386:../Middlewares/stm32-mw-camera/ISP_Library/isp/Src/isp_algo.c ****     }
 387:../Middlewares/stm32-mw-camera/ISP_Library/isp/Src/isp_algo.c **** 
 388:../Middlewares/stm32-mw-camera/ISP_Library/isp/Src/isp_algo.c ****     /* Wait for stats to be ready */
 389:../Middlewares/stm32-mw-camera/ISP_Library/isp/Src/isp_algo.c ****     algo->state = ISP_ALGO_STATE_WAITING_STAT;
 390:../Middlewares/stm32-mw-camera/ISP_Library/isp/Src/isp_algo.c ****     break;
 391:../Middlewares/stm32-mw-camera/ISP_Library/isp/Src/isp_algo.c **** 
 392:../Middlewares/stm32-mw-camera/ISP_Library/isp/Src/isp_algo.c ****   case ISP_ALGO_STATE_WAITING_STAT:
 393:../Middlewares/stm32-mw-camera/ISP_Library/isp/Src/isp_algo.c ****     /* Do nothing */
 394:../Middlewares/stm32-mw-camera/ISP_Library/isp/Src/isp_algo.c ****     break;
 395:../Middlewares/stm32-mw-camera/ISP_Library/isp/Src/isp_algo.c **** 
 396:../Middlewares/stm32-mw-camera/ISP_Library/isp/Src/isp_algo.c ****   case ISP_ALGO_STATE_STAT_READY:
 397:../Middlewares/stm32-mw-camera/ISP_Library/isp/Src/isp_algo.c **** #ifdef ALGO_PERF_DBG_LOGS
 398:../Middlewares/stm32-mw-camera/ISP_Library/isp/Src/isp_algo.c ****     static float sum_calc, sum_process = 0;
 399:../Middlewares/stm32-mw-camera/ISP_Library/isp/Src/isp_algo.c ****     static uint32_t iter = 0;
 400:../Middlewares/stm32-mw-camera/ISP_Library/isp/Src/isp_algo.c ****     uint32_t end_algo_calc, end_algo_process = 20;
 401:../Middlewares/stm32-mw-camera/ISP_Library/isp/Src/isp_algo.c ****     uint32_t start_algo = DWT->CYCCNT;
 402:../Middlewares/stm32-mw-camera/ISP_Library/isp/Src/isp_algo.c **** #endif
 403:../Middlewares/stm32-mw-camera/ISP_Library/isp/Src/isp_algo.c ****     avgL = stats.down.averageL;
 404:../Middlewares/stm32-mw-camera/ISP_Library/isp/Src/isp_algo.c **** #ifdef ALGO_AEC_DBG_LOGS
ARM GAS  /tmp/ccCLNRaf.s 			page 10


 405:../Middlewares/stm32-mw-camera/ISP_Library/isp/Src/isp_algo.c ****     if (avgL != currentL)
 406:../Middlewares/stm32-mw-camera/ISP_Library/isp/Src/isp_algo.c ****     {
 407:../Middlewares/stm32-mw-camera/ISP_Library/isp/Src/isp_algo.c ****       printf("L = %"PRIu32"\r\n", avgL);
 408:../Middlewares/stm32-mw-camera/ISP_Library/isp/Src/isp_algo.c ****       currentL = avgL;
 409:../Middlewares/stm32-mw-camera/ISP_Library/isp/Src/isp_algo.c ****     }
 410:../Middlewares/stm32-mw-camera/ISP_Library/isp/Src/isp_algo.c **** #endif
 411:../Middlewares/stm32-mw-camera/ISP_Library/isp/Src/isp_algo.c ****     /* Read the current sensor gain */
 412:../Middlewares/stm32-mw-camera/ISP_Library/isp/Src/isp_algo.c ****     ret = ISP_SVC_Sensor_GetGain(hIsp, &gainConfig);
 413:../Middlewares/stm32-mw-camera/ISP_Library/isp/Src/isp_algo.c ****     if (ret != ISP_OK)
 414:../Middlewares/stm32-mw-camera/ISP_Library/isp/Src/isp_algo.c ****     {
 415:../Middlewares/stm32-mw-camera/ISP_Library/isp/Src/isp_algo.c ****       return ret;
 416:../Middlewares/stm32-mw-camera/ISP_Library/isp/Src/isp_algo.c ****     }
 417:../Middlewares/stm32-mw-camera/ISP_Library/isp/Src/isp_algo.c **** 
 418:../Middlewares/stm32-mw-camera/ISP_Library/isp/Src/isp_algo.c ****     ret = ISP_SVC_Sensor_GetExposure(hIsp, &exposureConfig);
 419:../Middlewares/stm32-mw-camera/ISP_Library/isp/Src/isp_algo.c ****     if (ret != ISP_OK)
 420:../Middlewares/stm32-mw-camera/ISP_Library/isp/Src/isp_algo.c ****     {
 421:../Middlewares/stm32-mw-camera/ISP_Library/isp/Src/isp_algo.c ****       return ret;
 422:../Middlewares/stm32-mw-camera/ISP_Library/isp/Src/isp_algo.c ****     }
 423:../Middlewares/stm32-mw-camera/ISP_Library/isp/Src/isp_algo.c **** 
 424:../Middlewares/stm32-mw-camera/ISP_Library/isp/Src/isp_algo.c ****     estimated_lux = ISP_SVC_Misc_GetEstimatedLux(hIsp);
 425:../Middlewares/stm32-mw-camera/ISP_Library/isp/Src/isp_algo.c **** 
 426:../Middlewares/stm32-mw-camera/ISP_Library/isp/Src/isp_algo.c **** #ifdef ALGO_AEC_DBG_LOGS
 427:../Middlewares/stm32-mw-camera/ISP_Library/isp/Src/isp_algo.c ****     printf("Lux = %"PRIu32", L = %"PRIu32", E = %"PRIu32", G = %"PRIu32"\r\n", estimated_lux, avgL,
 428:../Middlewares/stm32-mw-camera/ISP_Library/isp/Src/isp_algo.c **** #endif
 429:../Middlewares/stm32-mw-camera/ISP_Library/isp/Src/isp_algo.c **** 
 430:../Middlewares/stm32-mw-camera/ISP_Library/isp/Src/isp_algo.c ****     if (estimated_lux >= 0)
 431:../Middlewares/stm32-mw-camera/ISP_Library/isp/Src/isp_algo.c ****     {
 432:../Middlewares/stm32-mw-camera/ISP_Library/isp/Src/isp_algo.c ****       isp_ae_get_new_exposure((uint32_t)estimated_lux, avgL, &newExposure, &newGain, exposureConfig
 433:../Middlewares/stm32-mw-camera/ISP_Library/isp/Src/isp_algo.c **** #ifdef ALGO_PERF_DBG_LOGS
 434:../Middlewares/stm32-mw-camera/ISP_Library/isp/Src/isp_algo.c ****       end_algo_calc = DWT->CYCCNT;
 435:../Middlewares/stm32-mw-camera/ISP_Library/isp/Src/isp_algo.c **** #endif
 436:../Middlewares/stm32-mw-camera/ISP_Library/isp/Src/isp_algo.c ****       if (gainConfig.gain != newGain)
 437:../Middlewares/stm32-mw-camera/ISP_Library/isp/Src/isp_algo.c ****       {
 438:../Middlewares/stm32-mw-camera/ISP_Library/isp/Src/isp_algo.c ****         /* Set new gain */
 439:../Middlewares/stm32-mw-camera/ISP_Library/isp/Src/isp_algo.c ****         gainConfig.gain = newGain;
 440:../Middlewares/stm32-mw-camera/ISP_Library/isp/Src/isp_algo.c **** 
 441:../Middlewares/stm32-mw-camera/ISP_Library/isp/Src/isp_algo.c ****         ret = ISP_SVC_Sensor_SetGain(hIsp, &gainConfig);
 442:../Middlewares/stm32-mw-camera/ISP_Library/isp/Src/isp_algo.c ****         if (ret != ISP_OK)
 443:../Middlewares/stm32-mw-camera/ISP_Library/isp/Src/isp_algo.c ****         {
 444:../Middlewares/stm32-mw-camera/ISP_Library/isp/Src/isp_algo.c ****           return ret;
 445:../Middlewares/stm32-mw-camera/ISP_Library/isp/Src/isp_algo.c ****         }
 446:../Middlewares/stm32-mw-camera/ISP_Library/isp/Src/isp_algo.c **** 
 447:../Middlewares/stm32-mw-camera/ISP_Library/isp/Src/isp_algo.c **** #ifdef ALGO_AEC_DBG_LOGS
 448:../Middlewares/stm32-mw-camera/ISP_Library/isp/Src/isp_algo.c ****         printf("New gain = %"PRIu32"\r\n", gainConfig.gain);
 449:../Middlewares/stm32-mw-camera/ISP_Library/isp/Src/isp_algo.c **** #endif
 450:../Middlewares/stm32-mw-camera/ISP_Library/isp/Src/isp_algo.c ****       }
 451:../Middlewares/stm32-mw-camera/ISP_Library/isp/Src/isp_algo.c **** 
 452:../Middlewares/stm32-mw-camera/ISP_Library/isp/Src/isp_algo.c ****       if (exposureConfig.exposure != newExposure)
 453:../Middlewares/stm32-mw-camera/ISP_Library/isp/Src/isp_algo.c ****       {
 454:../Middlewares/stm32-mw-camera/ISP_Library/isp/Src/isp_algo.c ****         /* Set new exposure */
 455:../Middlewares/stm32-mw-camera/ISP_Library/isp/Src/isp_algo.c ****         exposureConfig.exposure = newExposure;
 456:../Middlewares/stm32-mw-camera/ISP_Library/isp/Src/isp_algo.c **** 
 457:../Middlewares/stm32-mw-camera/ISP_Library/isp/Src/isp_algo.c ****         ret = ISP_SVC_Sensor_SetExposure(hIsp, &exposureConfig);
 458:../Middlewares/stm32-mw-camera/ISP_Library/isp/Src/isp_algo.c ****         if (ret != ISP_OK)
 459:../Middlewares/stm32-mw-camera/ISP_Library/isp/Src/isp_algo.c ****         {
 460:../Middlewares/stm32-mw-camera/ISP_Library/isp/Src/isp_algo.c ****           return ret;
 461:../Middlewares/stm32-mw-camera/ISP_Library/isp/Src/isp_algo.c ****         }
ARM GAS  /tmp/ccCLNRaf.s 			page 11


 462:../Middlewares/stm32-mw-camera/ISP_Library/isp/Src/isp_algo.c **** 
 463:../Middlewares/stm32-mw-camera/ISP_Library/isp/Src/isp_algo.c **** #ifdef ALGO_AEC_DBG_LOGS
 464:../Middlewares/stm32-mw-camera/ISP_Library/isp/Src/isp_algo.c ****         printf("New exposure = %"PRIu32"\r\n", exposureConfig.exposure);
 465:../Middlewares/stm32-mw-camera/ISP_Library/isp/Src/isp_algo.c **** #endif
 466:../Middlewares/stm32-mw-camera/ISP_Library/isp/Src/isp_algo.c ****       }
 467:../Middlewares/stm32-mw-camera/ISP_Library/isp/Src/isp_algo.c **** 
 468:../Middlewares/stm32-mw-camera/ISP_Library/isp/Src/isp_algo.c ****       /* Update the restart state config */
 469:../Middlewares/stm32-mw-camera/ISP_Library/isp/Src/isp_algo.c ****       pRestartState = ISP_SVC_GetRestartState(hIsp);
 470:../Middlewares/stm32-mw-camera/ISP_Library/isp/Src/isp_algo.c ****       if (pRestartState)
 471:../Middlewares/stm32-mw-camera/ISP_Library/isp/Src/isp_algo.c ****       {
 472:../Middlewares/stm32-mw-camera/ISP_Library/isp/Src/isp_algo.c ****         pRestartState->sensorGain = newGain;
 473:../Middlewares/stm32-mw-camera/ISP_Library/isp/Src/isp_algo.c ****         pRestartState->sensorExposure = newExposure;
 474:../Middlewares/stm32-mw-camera/ISP_Library/isp/Src/isp_algo.c ****         pRestartState->sensorConfigured = 1;
 475:../Middlewares/stm32-mw-camera/ISP_Library/isp/Src/isp_algo.c ****       }
 476:../Middlewares/stm32-mw-camera/ISP_Library/isp/Src/isp_algo.c ****     }
 477:../Middlewares/stm32-mw-camera/ISP_Library/isp/Src/isp_algo.c ****     else
 478:../Middlewares/stm32-mw-camera/ISP_Library/isp/Src/isp_algo.c ****     {
 479:../Middlewares/stm32-mw-camera/ISP_Library/isp/Src/isp_algo.c ****       ret = ISP_ERR_ALGO;
 480:../Middlewares/stm32-mw-camera/ISP_Library/isp/Src/isp_algo.c ****       printf("ERROR: Lux value of the scene cannot be estimated\r\n");
 481:../Middlewares/stm32-mw-camera/ISP_Library/isp/Src/isp_algo.c ****     }
 482:../Middlewares/stm32-mw-camera/ISP_Library/isp/Src/isp_algo.c **** 
 483:../Middlewares/stm32-mw-camera/ISP_Library/isp/Src/isp_algo.c **** #ifdef ALGO_PERF_DBG_LOGS
 484:../Middlewares/stm32-mw-camera/ISP_Library/isp/Src/isp_algo.c ****     end_algo_process = DWT->CYCCNT;
 485:../Middlewares/stm32-mw-camera/ISP_Library/isp/Src/isp_algo.c ****     sum_calc += (float)(end_algo_calc - start_algo) / (SystemCoreClock / 1e6);
 486:../Middlewares/stm32-mw-camera/ISP_Library/isp/Src/isp_algo.c ****     sum_process += (float)(end_algo_process - start_algo) / (SystemCoreClock / 1e6);
 487:../Middlewares/stm32-mw-camera/ISP_Library/isp/Src/isp_algo.c ****     iter++;
 488:../Middlewares/stm32-mw-camera/ISP_Library/isp/Src/isp_algo.c **** 
 489:../Middlewares/stm32-mw-camera/ISP_Library/isp/Src/isp_algo.c ****     if (iter == MEAS_ITERATION)
 490:../Middlewares/stm32-mw-camera/ISP_Library/isp/Src/isp_algo.c ****     {
 491:../Middlewares/stm32-mw-camera/ISP_Library/isp/Src/isp_algo.c ****       printf("AEC time  = %.3f us (calc in %.3f us)\r\n", sum_process / MEAS_ITERATION, sum_calc / 
 492:../Middlewares/stm32-mw-camera/ISP_Library/isp/Src/isp_algo.c ****       sum_process = 0;
 493:../Middlewares/stm32-mw-camera/ISP_Library/isp/Src/isp_algo.c ****       sum_calc = 0;
 494:../Middlewares/stm32-mw-camera/ISP_Library/isp/Src/isp_algo.c ****       iter = 0;
 495:../Middlewares/stm32-mw-camera/ISP_Library/isp/Src/isp_algo.c ****     }
 496:../Middlewares/stm32-mw-camera/ISP_Library/isp/Src/isp_algo.c **** #endif
 497:../Middlewares/stm32-mw-camera/ISP_Library/isp/Src/isp_algo.c **** 
 498:../Middlewares/stm32-mw-camera/ISP_Library/isp/Src/isp_algo.c ****     /* Ask for stats */
 499:../Middlewares/stm32-mw-camera/ISP_Library/isp/Src/isp_algo.c ****     ret = ISP_SVC_Stats_GetNext(hIsp, &ISP_Algo_AEC_StatCb, pAlgo, &stats, ISP_STAT_LOC_DOWN,
 500:../Middlewares/stm32-mw-camera/ISP_Library/isp/Src/isp_algo.c ****                                 ISP_STAT_TYPE_AVG, IQParamConfig->sensorDelay.delay);
 501:../Middlewares/stm32-mw-camera/ISP_Library/isp/Src/isp_algo.c **** 
 502:../Middlewares/stm32-mw-camera/ISP_Library/isp/Src/isp_algo.c ****     /* Wait for stats to be ready */
 503:../Middlewares/stm32-mw-camera/ISP_Library/isp/Src/isp_algo.c ****     algo->state = ISP_ALGO_STATE_WAITING_STAT;
 504:../Middlewares/stm32-mw-camera/ISP_Library/isp/Src/isp_algo.c ****     break;
 505:../Middlewares/stm32-mw-camera/ISP_Library/isp/Src/isp_algo.c **** 
 506:../Middlewares/stm32-mw-camera/ISP_Library/isp/Src/isp_algo.c ****   default:
 507:../Middlewares/stm32-mw-camera/ISP_Library/isp/Src/isp_algo.c ****     printf("WARNING: Unknown AE algo state\r\n");
 508:../Middlewares/stm32-mw-camera/ISP_Library/isp/Src/isp_algo.c ****     /* Reset state to ISP_ALGO_STATE_INIT */
 509:../Middlewares/stm32-mw-camera/ISP_Library/isp/Src/isp_algo.c ****     algo->state = ISP_ALGO_STATE_INIT;
 510:../Middlewares/stm32-mw-camera/ISP_Library/isp/Src/isp_algo.c ****     break;
 511:../Middlewares/stm32-mw-camera/ISP_Library/isp/Src/isp_algo.c **** 
 512:../Middlewares/stm32-mw-camera/ISP_Library/isp/Src/isp_algo.c ****   }
 513:../Middlewares/stm32-mw-camera/ISP_Library/isp/Src/isp_algo.c **** 
 514:../Middlewares/stm32-mw-camera/ISP_Library/isp/Src/isp_algo.c ****   return ret;
 515:../Middlewares/stm32-mw-camera/ISP_Library/isp/Src/isp_algo.c **** }
 516:../Middlewares/stm32-mw-camera/ISP_Library/isp/Src/isp_algo.c **** #endif /* ISP_MW_SW_AEC_ALGO_SUPPORT */
 517:../Middlewares/stm32-mw-camera/ISP_Library/isp/Src/isp_algo.c **** 
 518:../Middlewares/stm32-mw-camera/ISP_Library/isp/Src/isp_algo.c **** #ifdef ISP_MW_SW_AWB_ALGO_SUPPORT
ARM GAS  /tmp/ccCLNRaf.s 			page 12


 519:../Middlewares/stm32-mw-camera/ISP_Library/isp/Src/isp_algo.c **** /**
 520:../Middlewares/stm32-mw-camera/ISP_Library/isp/Src/isp_algo.c ****   * @brief  ISP_Algo_ApplyGammaInverse
 521:../Middlewares/stm32-mw-camera/ISP_Library/isp/Src/isp_algo.c ****   *         Apply Gamma 1/2.2 correction to a component value
 522:../Middlewares/stm32-mw-camera/ISP_Library/isp/Src/isp_algo.c ****   * @param  hIsp:  ISP device handle.
 523:../Middlewares/stm32-mw-camera/ISP_Library/isp/Src/isp_algo.c ****   * @param  comp: component value
 524:../Middlewares/stm32-mw-camera/ISP_Library/isp/Src/isp_algo.c ****   * @retval gamma corrected value
 525:../Middlewares/stm32-mw-camera/ISP_Library/isp/Src/isp_algo.c ****   */
 526:../Middlewares/stm32-mw-camera/ISP_Library/isp/Src/isp_algo.c **** double ISP_Algo_ApplyGammaInverse(ISP_HandleTypeDef *hIsp, uint32_t comp)
 527:../Middlewares/stm32-mw-camera/ISP_Library/isp/Src/isp_algo.c **** {
 528:../Middlewares/stm32-mw-camera/ISP_Library/isp/Src/isp_algo.c ****   double out;
 529:../Middlewares/stm32-mw-camera/ISP_Library/isp/Src/isp_algo.c **** 
 530:../Middlewares/stm32-mw-camera/ISP_Library/isp/Src/isp_algo.c ****   /* Check if gamma is enabled */
 531:../Middlewares/stm32-mw-camera/ISP_Library/isp/Src/isp_algo.c ****   if (ISP_SVC_Misc_IsGammaEnabled(hIsp, 1 /*main pipe*/)) {
 532:../Middlewares/stm32-mw-camera/ISP_Library/isp/Src/isp_algo.c ****     out = 255 * pow((float)comp / 255, 1.0 / 2.2);
 533:../Middlewares/stm32-mw-camera/ISP_Library/isp/Src/isp_algo.c ****   }
 534:../Middlewares/stm32-mw-camera/ISP_Library/isp/Src/isp_algo.c ****   else
 535:../Middlewares/stm32-mw-camera/ISP_Library/isp/Src/isp_algo.c ****   {
 536:../Middlewares/stm32-mw-camera/ISP_Library/isp/Src/isp_algo.c ****     out = (double) comp;
 537:../Middlewares/stm32-mw-camera/ISP_Library/isp/Src/isp_algo.c ****   }
 538:../Middlewares/stm32-mw-camera/ISP_Library/isp/Src/isp_algo.c ****   return out;
 539:../Middlewares/stm32-mw-camera/ISP_Library/isp/Src/isp_algo.c **** }
 540:../Middlewares/stm32-mw-camera/ISP_Library/isp/Src/isp_algo.c **** 
 541:../Middlewares/stm32-mw-camera/ISP_Library/isp/Src/isp_algo.c **** /**
 542:../Middlewares/stm32-mw-camera/ISP_Library/isp/Src/isp_algo.c ****   * @brief  ISP_Algo_ApplyCConv
 543:../Middlewares/stm32-mw-camera/ISP_Library/isp/Src/isp_algo.c ****   *         Apply Color Conversion matrix to RGB components, clamping output values to [0-255]
 544:../Middlewares/stm32-mw-camera/ISP_Library/isp/Src/isp_algo.c ****   * @param  hIsp:  ISP device handle.
 545:../Middlewares/stm32-mw-camera/ISP_Library/isp/Src/isp_algo.c ****   * @param  inR: Red component value
 546:../Middlewares/stm32-mw-camera/ISP_Library/isp/Src/isp_algo.c ****   * @param  inG: Green component value
 547:../Middlewares/stm32-mw-camera/ISP_Library/isp/Src/isp_algo.c ****   * @param  inB: Blue component value
 548:../Middlewares/stm32-mw-camera/ISP_Library/isp/Src/isp_algo.c ****   * @param  outR: pointer to Red component value after color conversion
 549:../Middlewares/stm32-mw-camera/ISP_Library/isp/Src/isp_algo.c ****   * @param  outG: pointer to Green component value after color conversion
 550:../Middlewares/stm32-mw-camera/ISP_Library/isp/Src/isp_algo.c ****   * @param  outB: pointer to Blue component value after color conversion
 551:../Middlewares/stm32-mw-camera/ISP_Library/isp/Src/isp_algo.c ****   * @retval None
 552:../Middlewares/stm32-mw-camera/ISP_Library/isp/Src/isp_algo.c ****   */
 553:../Middlewares/stm32-mw-camera/ISP_Library/isp/Src/isp_algo.c **** void ISP_Algo_ApplyCConv(ISP_HandleTypeDef *hIsp, uint32_t inR, uint32_t inG, uint32_t inB, uint32_
 554:../Middlewares/stm32-mw-camera/ISP_Library/isp/Src/isp_algo.c **** {
 555:../Middlewares/stm32-mw-camera/ISP_Library/isp/Src/isp_algo.c ****   ISP_ColorConvTypeDef colorConv;
 556:../Middlewares/stm32-mw-camera/ISP_Library/isp/Src/isp_algo.c ****   int64_t ccR, ccG, ccB;
 557:../Middlewares/stm32-mw-camera/ISP_Library/isp/Src/isp_algo.c **** 
 558:../Middlewares/stm32-mw-camera/ISP_Library/isp/Src/isp_algo.c ****   if ((ISP_SVC_ISP_GetColorConv(hIsp, &colorConv) == ISP_OK) && (colorConv.enable == 1))
 559:../Middlewares/stm32-mw-camera/ISP_Library/isp/Src/isp_algo.c ****   {
 560:../Middlewares/stm32-mw-camera/ISP_Library/isp/Src/isp_algo.c ****     /* Apply ColorConversion matrix to the input components */
 561:../Middlewares/stm32-mw-camera/ISP_Library/isp/Src/isp_algo.c ****     ccR = (int64_t) inR * colorConv.coeff[0][0] + (int64_t) inG * colorConv.coeff[0][1] + (int64_t)
 562:../Middlewares/stm32-mw-camera/ISP_Library/isp/Src/isp_algo.c ****     ccG = (int64_t) inR * colorConv.coeff[1][0] + (int64_t) inG * colorConv.coeff[1][1] + (int64_t)
 563:../Middlewares/stm32-mw-camera/ISP_Library/isp/Src/isp_algo.c ****     ccB = (int64_t) inR * colorConv.coeff[2][0] + (int64_t) inG * colorConv.coeff[2][1] + (int64_t)
 564:../Middlewares/stm32-mw-camera/ISP_Library/isp/Src/isp_algo.c **** 
 565:../Middlewares/stm32-mw-camera/ISP_Library/isp/Src/isp_algo.c ****     ccR /= ISP_CCM_PRECISION_FACTOR;
 566:../Middlewares/stm32-mw-camera/ISP_Library/isp/Src/isp_algo.c ****     ccG /= ISP_CCM_PRECISION_FACTOR;
 567:../Middlewares/stm32-mw-camera/ISP_Library/isp/Src/isp_algo.c ****     ccB /= ISP_CCM_PRECISION_FACTOR;
 568:../Middlewares/stm32-mw-camera/ISP_Library/isp/Src/isp_algo.c **** 
 569:../Middlewares/stm32-mw-camera/ISP_Library/isp/Src/isp_algo.c ****     /* Clamp values to 0-255 */
 570:../Middlewares/stm32-mw-camera/ISP_Library/isp/Src/isp_algo.c ****     ccR = (ccR < 0) ? 0 : (ccR > 255) ? 255 : ccR;
 571:../Middlewares/stm32-mw-camera/ISP_Library/isp/Src/isp_algo.c ****     ccG = (ccG < 0) ? 0 : (ccG > 255) ? 255 : ccG;
 572:../Middlewares/stm32-mw-camera/ISP_Library/isp/Src/isp_algo.c ****     ccB = (ccB < 0) ? 0 : (ccB > 255) ? 255 : ccB;
 573:../Middlewares/stm32-mw-camera/ISP_Library/isp/Src/isp_algo.c **** 
 574:../Middlewares/stm32-mw-camera/ISP_Library/isp/Src/isp_algo.c ****     *outR = (uint32_t) ccR;
 575:../Middlewares/stm32-mw-camera/ISP_Library/isp/Src/isp_algo.c ****     *outG = (uint32_t) ccG;
ARM GAS  /tmp/ccCLNRaf.s 			page 13


 576:../Middlewares/stm32-mw-camera/ISP_Library/isp/Src/isp_algo.c ****     *outB = (uint32_t) ccB;
 577:../Middlewares/stm32-mw-camera/ISP_Library/isp/Src/isp_algo.c ****   }
 578:../Middlewares/stm32-mw-camera/ISP_Library/isp/Src/isp_algo.c ****   else
 579:../Middlewares/stm32-mw-camera/ISP_Library/isp/Src/isp_algo.c ****   {
 580:../Middlewares/stm32-mw-camera/ISP_Library/isp/Src/isp_algo.c ****     *outR = inR;
 581:../Middlewares/stm32-mw-camera/ISP_Library/isp/Src/isp_algo.c ****     *outG = inG;
 582:../Middlewares/stm32-mw-camera/ISP_Library/isp/Src/isp_algo.c ****     *outB = inB;
 583:../Middlewares/stm32-mw-camera/ISP_Library/isp/Src/isp_algo.c ****   }
 584:../Middlewares/stm32-mw-camera/ISP_Library/isp/Src/isp_algo.c **** }
 585:../Middlewares/stm32-mw-camera/ISP_Library/isp/Src/isp_algo.c **** 
 586:../Middlewares/stm32-mw-camera/ISP_Library/isp/Src/isp_algo.c **** /**
 587:../Middlewares/stm32-mw-camera/ISP_Library/isp/Src/isp_algo.c ****   * @brief  ISP_Algo_AWB_Init
 588:../Middlewares/stm32-mw-camera/ISP_Library/isp/Src/isp_algo.c ****   *         Initialize the AWB algorithm
 589:../Middlewares/stm32-mw-camera/ISP_Library/isp/Src/isp_algo.c ****   * @param  hIsp:  ISP device handle. To cast in (ISP_HandleTypeDef *).
 590:../Middlewares/stm32-mw-camera/ISP_Library/isp/Src/isp_algo.c ****   * @param  pAlgo: ISP algorithm handle. To cast in (ISP_AlgoTypeDef *).
 591:../Middlewares/stm32-mw-camera/ISP_Library/isp/Src/isp_algo.c ****   * @retval operation result
 592:../Middlewares/stm32-mw-camera/ISP_Library/isp/Src/isp_algo.c ****   */
 593:../Middlewares/stm32-mw-camera/ISP_Library/isp/Src/isp_algo.c **** ISP_StatusTypeDef ISP_Algo_AWB_Init(void *hIsp, void *pAlgo)
 594:../Middlewares/stm32-mw-camera/ISP_Library/isp/Src/isp_algo.c **** {
 595:../Middlewares/stm32-mw-camera/ISP_Library/isp/Src/isp_algo.c ****   (void)hIsp; /* unused */
 596:../Middlewares/stm32-mw-camera/ISP_Library/isp/Src/isp_algo.c ****   ISP_AlgoTypeDef *algo = (ISP_AlgoTypeDef *)pAlgo;
 597:../Middlewares/stm32-mw-camera/ISP_Library/isp/Src/isp_algo.c ****   ISP_RestartStateTypeDef *pRestartState;
 598:../Middlewares/stm32-mw-camera/ISP_Library/isp/Src/isp_algo.c **** 
 599:../Middlewares/stm32-mw-camera/ISP_Library/isp/Src/isp_algo.c ****   pRestartState = ISP_SVC_GetRestartState(hIsp);
 600:../Middlewares/stm32-mw-camera/ISP_Library/isp/Src/isp_algo.c ****   if (pRestartState && pRestartState->awbConfigured)
 601:../Middlewares/stm32-mw-camera/ISP_Library/isp/Src/isp_algo.c ****   {
 602:../Middlewares/stm32-mw-camera/ISP_Library/isp/Src/isp_algo.c ****     /* Resume from the latest applied config */
 603:../Middlewares/stm32-mw-camera/ISP_Library/isp/Src/isp_algo.c ****     ISP_SVC_ISP_SetColorConv(hIsp, &pRestartState->colorConv);
 604:../Middlewares/stm32-mw-camera/ISP_Library/isp/Src/isp_algo.c ****     ISP_SVC_ISP_SetGain(hIsp, &pRestartState->ISPGain);
 605:../Middlewares/stm32-mw-camera/ISP_Library/isp/Src/isp_algo.c ****   }
 606:../Middlewares/stm32-mw-camera/ISP_Library/isp/Src/isp_algo.c **** 
 607:../Middlewares/stm32-mw-camera/ISP_Library/isp/Src/isp_algo.c ****   /* Continue the initialization in ISP_Algo_AWB_Process() function when state is ISP_ALGO_STATE_IN
 608:../Middlewares/stm32-mw-camera/ISP_Library/isp/Src/isp_algo.c ****    * This allows to read the IQ params after an algo stop/start cycle */
 609:../Middlewares/stm32-mw-camera/ISP_Library/isp/Src/isp_algo.c ****   algo->state = ISP_ALGO_STATE_INIT;
 610:../Middlewares/stm32-mw-camera/ISP_Library/isp/Src/isp_algo.c **** 
 611:../Middlewares/stm32-mw-camera/ISP_Library/isp/Src/isp_algo.c ****   return ISP_OK;
 612:../Middlewares/stm32-mw-camera/ISP_Library/isp/Src/isp_algo.c **** }
 613:../Middlewares/stm32-mw-camera/ISP_Library/isp/Src/isp_algo.c **** 
 614:../Middlewares/stm32-mw-camera/ISP_Library/isp/Src/isp_algo.c **** /**
 615:../Middlewares/stm32-mw-camera/ISP_Library/isp/Src/isp_algo.c ****   * @brief  ISP_Algo_AWB_DeInit
 616:../Middlewares/stm32-mw-camera/ISP_Library/isp/Src/isp_algo.c ****   *         Deinitialize the AWB algorithm
 617:../Middlewares/stm32-mw-camera/ISP_Library/isp/Src/isp_algo.c ****   * @param  hIsp:  ISP device handle. To cast in (ISP_HandleTypeDef *).
 618:../Middlewares/stm32-mw-camera/ISP_Library/isp/Src/isp_algo.c ****   * @param  pAlgo: ISP algorithm handle. To cast in (ISP_AlgoTypeDef *).
 619:../Middlewares/stm32-mw-camera/ISP_Library/isp/Src/isp_algo.c ****   * @retval operation result
 620:../Middlewares/stm32-mw-camera/ISP_Library/isp/Src/isp_algo.c ****   */
 621:../Middlewares/stm32-mw-camera/ISP_Library/isp/Src/isp_algo.c **** ISP_StatusTypeDef ISP_Algo_AWB_DeInit(void *hIsp, void *pAlgo)
 622:../Middlewares/stm32-mw-camera/ISP_Library/isp/Src/isp_algo.c **** {
 623:../Middlewares/stm32-mw-camera/ISP_Library/isp/Src/isp_algo.c ****   (void)hIsp; /* unused */
 624:../Middlewares/stm32-mw-camera/ISP_Library/isp/Src/isp_algo.c ****   (void)pAlgo; /* unused */
 625:../Middlewares/stm32-mw-camera/ISP_Library/isp/Src/isp_algo.c **** 
 626:../Middlewares/stm32-mw-camera/ISP_Library/isp/Src/isp_algo.c ****   return ISP_OK;
 627:../Middlewares/stm32-mw-camera/ISP_Library/isp/Src/isp_algo.c **** }
 628:../Middlewares/stm32-mw-camera/ISP_Library/isp/Src/isp_algo.c **** 
 629:../Middlewares/stm32-mw-camera/ISP_Library/isp/Src/isp_algo.c **** /**
 630:../Middlewares/stm32-mw-camera/ISP_Library/isp/Src/isp_algo.c ****   * @brief  ISP_Algo_AWB_StatCb
 631:../Middlewares/stm32-mw-camera/ISP_Library/isp/Src/isp_algo.c ****   *         Callback informing that statistics are available
 632:../Middlewares/stm32-mw-camera/ISP_Library/isp/Src/isp_algo.c ****   * @param  pAlgo: ISP algorithm handle.
ARM GAS  /tmp/ccCLNRaf.s 			page 14


 633:../Middlewares/stm32-mw-camera/ISP_Library/isp/Src/isp_algo.c ****   * @retval operation result
 634:../Middlewares/stm32-mw-camera/ISP_Library/isp/Src/isp_algo.c ****   */
 635:../Middlewares/stm32-mw-camera/ISP_Library/isp/Src/isp_algo.c **** ISP_StatusTypeDef ISP_Algo_AWB_StatCb(ISP_AlgoTypeDef *pAlgo)
 636:../Middlewares/stm32-mw-camera/ISP_Library/isp/Src/isp_algo.c **** {
 117              		.loc 1 636 1 is_stmt 1 view -0
 118              		.cfi_startproc
 119              		@ args = 0, pretend = 0, frame = 0
 120              		@ frame_needed = 0, uses_anonymous_args = 0
 121              		@ link register save eliminated.
 637:../Middlewares/stm32-mw-camera/ISP_Library/isp/Src/isp_algo.c ****   /* Update State */
 638:../Middlewares/stm32-mw-camera/ISP_Library/isp/Src/isp_algo.c ****   if (pAlgo->state != ISP_ALGO_STATE_INIT)
 122              		.loc 1 638 3 view .LVU20
 123              		.loc 1 638 6 is_stmt 0 view .LVU21
 124 0000 4378     		ldrb	r3, [r0, #1]	@ zero_extendqisi2
 125 0002 0BB1     		cbz	r3, .L5
 639:../Middlewares/stm32-mw-camera/ISP_Library/isp/Src/isp_algo.c ****   {
 640:../Middlewares/stm32-mw-camera/ISP_Library/isp/Src/isp_algo.c ****     pAlgo->state = ISP_ALGO_STATE_STAT_READY;
 126              		.loc 1 640 5 is_stmt 1 view .LVU22
 127              		.loc 1 640 18 is_stmt 0 view .LVU23
 128 0004 0323     		movs	r3, #3
 129 0006 4370     		strb	r3, [r0, #1]
 130              	.L5:
 641:../Middlewares/stm32-mw-camera/ISP_Library/isp/Src/isp_algo.c ****   }
 642:../Middlewares/stm32-mw-camera/ISP_Library/isp/Src/isp_algo.c **** 
 643:../Middlewares/stm32-mw-camera/ISP_Library/isp/Src/isp_algo.c ****   return ISP_OK;
 131              		.loc 1 643 3 is_stmt 1 view .LVU24
 644:../Middlewares/stm32-mw-camera/ISP_Library/isp/Src/isp_algo.c **** }
 132              		.loc 1 644 1 is_stmt 0 view .LVU25
 133 0008 0020     		movs	r0, #0
 134              	.LVL7:
 135              		.loc 1 644 1 view .LVU26
 136 000a 7047     		bx	lr
 137              		.cfi_endproc
 138              	.LFE895:
 140              		.section	.text.ISP_Algo_BadPixel_Process,"ax",%progbits
 141              		.align	1
 142              		.global	ISP_Algo_BadPixel_Process
 143              		.syntax unified
 144              		.thumb
 145              		.thumb_func
 147              	ISP_Algo_BadPixel_Process:
 148              	.LVL8:
 149              	.LFB886:
 187:../Middlewares/stm32-mw-camera/ISP_Library/isp/Src/isp_algo.c ****   (void)hIsp; /* unused */
 150              		.loc 1 187 1 is_stmt 1 view -0
 151              		.cfi_startproc
 152              		@ args = 0, pretend = 0, frame = 8
 153              		@ frame_needed = 0, uses_anonymous_args = 0
 188:../Middlewares/stm32-mw-camera/ISP_Library/isp/Src/isp_algo.c ****   (void)pAlgo; /* unused */
 154              		.loc 1 188 3 view .LVU28
 189:../Middlewares/stm32-mw-camera/ISP_Library/isp/Src/isp_algo.c ****   static uint32_t BadPixelCount, LastFrameId;
 155              		.loc 1 189 3 view .LVU29
 190:../Middlewares/stm32-mw-camera/ISP_Library/isp/Src/isp_algo.c ****   static int8_t Step;
 156              		.loc 1 190 3 view .LVU30
 191:../Middlewares/stm32-mw-camera/ISP_Library/isp/Src/isp_algo.c ****   uint32_t CurrentFrameId;
 157              		.loc 1 191 3 view .LVU31
 192:../Middlewares/stm32-mw-camera/ISP_Library/isp/Src/isp_algo.c ****   ISP_BadPixelTypeDef BadPixelConfig;
ARM GAS  /tmp/ccCLNRaf.s 			page 15


 158              		.loc 1 192 3 view .LVU32
 193:../Middlewares/stm32-mw-camera/ISP_Library/isp/Src/isp_algo.c ****   ISP_IQParamTypeDef *IQParamConfig;
 159              		.loc 1 193 3 view .LVU33
 194:../Middlewares/stm32-mw-camera/ISP_Library/isp/Src/isp_algo.c ****   ISP_StatusTypeDef ret;
 160              		.loc 1 194 3 view .LVU34
 195:../Middlewares/stm32-mw-camera/ISP_Library/isp/Src/isp_algo.c **** 
 161              		.loc 1 195 3 view .LVU35
 197:../Middlewares/stm32-mw-camera/ISP_Library/isp/Src/isp_algo.c **** 
 162              		.loc 1 197 3 view .LVU36
 187:../Middlewares/stm32-mw-camera/ISP_Library/isp/Src/isp_algo.c ****   (void)hIsp; /* unused */
 163              		.loc 1 187 1 is_stmt 0 view .LVU37
 164 0000 F7B5     		push	{r0, r1, r2, r4, r5, r6, r7, lr}
 165              		.cfi_def_cfa_offset 32
 166              		.cfi_offset 4, -20
 167              		.cfi_offset 5, -16
 168              		.cfi_offset 6, -12
 169              		.cfi_offset 7, -8
 170              		.cfi_offset 14, -4
 187:../Middlewares/stm32-mw-camera/ISP_Library/isp/Src/isp_algo.c ****   (void)hIsp; /* unused */
 171              		.loc 1 187 1 view .LVU38
 172 0002 0446     		mov	r4, r0
 197:../Middlewares/stm32-mw-camera/ISP_Library/isp/Src/isp_algo.c **** 
 173              		.loc 1 197 19 view .LVU39
 174 0004 FFF7FEFF 		bl	ISP_SVC_IQParam_Get
 175              	.LVL9:
 199:../Middlewares/stm32-mw-camera/ISP_Library/isp/Src/isp_algo.c ****   {
 176              		.loc 1 199 6 view .LVU40
 177 0008 90F85430 		ldrb	r3, [r0, #84]	@ zero_extendqisi2
 197:../Middlewares/stm32-mw-camera/ISP_Library/isp/Src/isp_algo.c **** 
 178              		.loc 1 197 19 view .LVU41
 179 000c 0746     		mov	r7, r0
 180              	.LVL10:
 199:../Middlewares/stm32-mw-camera/ISP_Library/isp/Src/isp_algo.c ****   {
 181              		.loc 1 199 3 is_stmt 1 view .LVU42
 199:../Middlewares/stm32-mw-camera/ISP_Library/isp/Src/isp_algo.c ****   {
 182              		.loc 1 199 6 is_stmt 0 view .LVU43
 183 000e 13B9     		cbnz	r3, .L10
 184              	.LVL11:
 185              	.L12:
 201:../Middlewares/stm32-mw-camera/ISP_Library/isp/Src/isp_algo.c ****   }
 186              		.loc 1 201 12 view .LVU44
 187 0010 0020     		movs	r0, #0
 188              	.L11:
 253:../Middlewares/stm32-mw-camera/ISP_Library/isp/Src/isp_algo.c **** 
 189              		.loc 1 253 1 view .LVU45
 190 0012 03B0     		add	sp, sp, #12
 191              		.cfi_remember_state
 192              		.cfi_def_cfa_offset 20
 193              		@ sp needed
 194 0014 F0BD     		pop	{r4, r5, r6, r7, pc}
 195              	.LVL12:
 196              	.L10:
 197              		.cfi_restore_state
 205:../Middlewares/stm32-mw-camera/ISP_Library/isp/Src/isp_algo.c ****   if (CurrentFrameId == LastFrameId)
 198              		.loc 1 205 3 is_stmt 1 view .LVU46
 205:../Middlewares/stm32-mw-camera/ISP_Library/isp/Src/isp_algo.c ****   if (CurrentFrameId == LastFrameId)
 199              		.loc 1 205 20 is_stmt 0 view .LVU47
ARM GAS  /tmp/ccCLNRaf.s 			page 16


 200 0016 2046     		mov	r0, r4
 201              	.LVL13:
 205:../Middlewares/stm32-mw-camera/ISP_Library/isp/Src/isp_algo.c ****   if (CurrentFrameId == LastFrameId)
 202              		.loc 1 205 20 view .LVU48
 203 0018 FFF7FEFF 		bl	ISP_SVC_Misc_GetMainFrameId
 204              	.LVL14:
 206:../Middlewares/stm32-mw-camera/ISP_Library/isp/Src/isp_algo.c ****   {
 205              		.loc 1 206 3 is_stmt 1 view .LVU49
 206:../Middlewares/stm32-mw-camera/ISP_Library/isp/Src/isp_algo.c ****   {
 206              		.loc 1 206 22 is_stmt 0 view .LVU50
 207 001c 1E4B     		ldr	r3, .L21
 206:../Middlewares/stm32-mw-camera/ISP_Library/isp/Src/isp_algo.c ****   {
 208              		.loc 1 206 6 view .LVU51
 209 001e 1A68     		ldr	r2, [r3]
 210 0020 8242     		cmp	r2, r0
 211 0022 F5D0     		beq	.L12
 210:../Middlewares/stm32-mw-camera/ISP_Library/isp/Src/isp_algo.c **** 
 212              		.loc 1 210 3 is_stmt 1 view .LVU52
 212:../Middlewares/stm32-mw-camera/ISP_Library/isp/Src/isp_algo.c ****   {
 213              		.loc 1 212 11 is_stmt 0 view .LVU53
 214 0024 1D4D     		ldr	r5, .L21+4
 210:../Middlewares/stm32-mw-camera/ISP_Library/isp/Src/isp_algo.c **** 
 215              		.loc 1 210 15 view .LVU54
 216 0026 1860     		str	r0, [r3]
 212:../Middlewares/stm32-mw-camera/ISP_Library/isp/Src/isp_algo.c ****   {
 217              		.loc 1 212 3 is_stmt 1 view .LVU55
 212:../Middlewares/stm32-mw-camera/ISP_Library/isp/Src/isp_algo.c ****   {
 218              		.loc 1 212 11 is_stmt 0 view .LVU56
 219 0028 95F90030 		ldrsb	r3, [r5]
 220 002c 5A1C     		adds	r2, r3, #1
 212:../Middlewares/stm32-mw-camera/ISP_Library/isp/Src/isp_algo.c ****   {
 221              		.loc 1 212 6 view .LVU57
 222 002e 002B     		cmp	r3, #0
 212:../Middlewares/stm32-mw-camera/ISP_Library/isp/Src/isp_algo.c ****   {
 223              		.loc 1 212 11 view .LVU58
 224 0030 2A70     		strb	r2, [r5]
 212:../Middlewares/stm32-mw-camera/ISP_Library/isp/Src/isp_algo.c ****   {
 225              		.loc 1 212 6 view .LVU59
 226 0032 0ADB     		blt	.L13
 215:../Middlewares/stm32-mw-camera/ISP_Library/isp/Src/isp_algo.c ****     if (ret != ISP_OK)
 227              		.loc 1 215 5 is_stmt 1 view .LVU60
 215:../Middlewares/stm32-mw-camera/ISP_Library/isp/Src/isp_algo.c ****     if (ret != ISP_OK)
 228              		.loc 1 215 11 is_stmt 0 view .LVU61
 229 0034 6946     		mov	r1, sp
 230 0036 2046     		mov	r0, r4
 231              	.LVL15:
 215:../Middlewares/stm32-mw-camera/ISP_Library/isp/Src/isp_algo.c ****     if (ret != ISP_OK)
 232              		.loc 1 215 11 view .LVU62
 233 0038 FFF7FEFF 		bl	ISP_SVC_ISP_GetBadPixel
 234              	.LVL16:
 216:../Middlewares/stm32-mw-camera/ISP_Library/isp/Src/isp_algo.c ****     {
 235              		.loc 1 216 5 is_stmt 1 view .LVU63
 216:../Middlewares/stm32-mw-camera/ISP_Library/isp/Src/isp_algo.c ****     {
 236              		.loc 1 216 8 is_stmt 0 view .LVU64
 237 003c 0028     		cmp	r0, #0
 238 003e E8D1     		bne	.L11
 220:../Middlewares/stm32-mw-camera/ISP_Library/isp/Src/isp_algo.c ****   }
ARM GAS  /tmp/ccCLNRaf.s 			page 17


 239              		.loc 1 220 5 is_stmt 1 view .LVU65
 220:../Middlewares/stm32-mw-camera/ISP_Library/isp/Src/isp_algo.c ****   }
 240              		.loc 1 220 19 is_stmt 0 view .LVU66
 241 0040 174A     		ldr	r2, .L21+8
 242 0042 019B     		ldr	r3, [sp, #4]
 243 0044 1168     		ldr	r1, [r2]
 244 0046 0B44     		add	r3, r3, r1
 245 0048 1360     		str	r3, [r2]
 246              	.LVL17:
 247              	.L13:
 223:../Middlewares/stm32-mw-camera/ISP_Library/isp/Src/isp_algo.c ****   {
 248              		.loc 1 223 3 is_stmt 1 view .LVU67
 223:../Middlewares/stm32-mw-camera/ISP_Library/isp/Src/isp_algo.c ****   {
 249              		.loc 1 223 6 is_stmt 0 view .LVU68
 250 004a 95F90020 		ldrsb	r2, [r5]
 251 004e 0A2A     		cmp	r2, #10
 252 0050 DED1     		bne	.L12
 226:../Middlewares/stm32-mw-camera/ISP_Library/isp/Src/isp_algo.c **** 
 253              		.loc 1 226 5 is_stmt 1 view .LVU69
 226:../Middlewares/stm32-mw-camera/ISP_Library/isp/Src/isp_algo.c **** 
 254              		.loc 1 226 19 is_stmt 0 view .LVU70
 255 0052 134E     		ldr	r6, .L21+8
 256 0054 3368     		ldr	r3, [r6]
 257 0056 B3FBF2F3 		udiv	r3, r3, r2
 228:../Middlewares/stm32-mw-camera/ISP_Library/isp/Src/isp_algo.c ****     {
 258              		.loc 1 228 53 view .LVU71
 259 005a BA6D     		ldr	r2, [r7, #88]
 226:../Middlewares/stm32-mw-camera/ISP_Library/isp/Src/isp_algo.c **** 
 260              		.loc 1 226 19 view .LVU72
 261 005c 3360     		str	r3, [r6]
 228:../Middlewares/stm32-mw-camera/ISP_Library/isp/Src/isp_algo.c ****     {
 262              		.loc 1 228 5 is_stmt 1 view .LVU73
 228:../Middlewares/stm32-mw-camera/ISP_Library/isp/Src/isp_algo.c ****     {
 263              		.loc 1 228 8 is_stmt 0 view .LVU74
 264 005e 9342     		cmp	r3, r2
 265 0060 12D9     		bls	.L14
 228:../Middlewares/stm32-mw-camera/ISP_Library/isp/Src/isp_algo.c ****     {
 266              		.loc 1 228 83 discriminator 1 view .LVU75
 267 0062 9DF80130 		ldrb	r3, [sp, #1]	@ zero_extendqisi2
 228:../Middlewares/stm32-mw-camera/ISP_Library/isp/Src/isp_algo.c ****     {
 268              		.loc 1 228 65 discriminator 1 view .LVU76
 269 0066 13B1     		cbz	r3, .L15
 231:../Middlewares/stm32-mw-camera/ISP_Library/isp/Src/isp_algo.c ****     }
 270              		.loc 1 231 7 is_stmt 1 view .LVU77
 231:../Middlewares/stm32-mw-camera/ISP_Library/isp/Src/isp_algo.c ****     }
 271              		.loc 1 231 30 is_stmt 0 view .LVU78
 272 0068 013B     		subs	r3, r3, #1
 273              	.L20:
 236:../Middlewares/stm32-mw-camera/ISP_Library/isp/Src/isp_algo.c ****     }
 274              		.loc 1 236 30 view .LVU79
 275 006a 8DF80130 		strb	r3, [sp, #1]
 276              	.L15:
 240:../Middlewares/stm32-mw-camera/ISP_Library/isp/Src/isp_algo.c ****     ret = ISP_SVC_ISP_SetBadPixel(hIsp, &BadPixelConfig);
 277              		.loc 1 240 5 is_stmt 1 view .LVU80
 240:../Middlewares/stm32-mw-camera/ISP_Library/isp/Src/isp_algo.c ****     ret = ISP_SVC_ISP_SetBadPixel(hIsp, &BadPixelConfig);
 278              		.loc 1 240 27 is_stmt 0 view .LVU81
 279 006e 0123     		movs	r3, #1
ARM GAS  /tmp/ccCLNRaf.s 			page 18


 241:../Middlewares/stm32-mw-camera/ISP_Library/isp/Src/isp_algo.c ****     if (ret != ISP_OK)
 280              		.loc 1 241 11 view .LVU82
 281 0070 6946     		mov	r1, sp
 282 0072 2046     		mov	r0, r4
 240:../Middlewares/stm32-mw-camera/ISP_Library/isp/Src/isp_algo.c ****     ret = ISP_SVC_ISP_SetBadPixel(hIsp, &BadPixelConfig);
 283              		.loc 1 240 27 view .LVU83
 284 0074 8DF80030 		strb	r3, [sp]
 241:../Middlewares/stm32-mw-camera/ISP_Library/isp/Src/isp_algo.c ****     if (ret != ISP_OK)
 285              		.loc 1 241 5 is_stmt 1 view .LVU84
 241:../Middlewares/stm32-mw-camera/ISP_Library/isp/Src/isp_algo.c ****     if (ret != ISP_OK)
 286              		.loc 1 241 11 is_stmt 0 view .LVU85
 287 0078 FFF7FEFF 		bl	ISP_SVC_ISP_SetBadPixel
 288              	.LVL18:
 242:../Middlewares/stm32-mw-camera/ISP_Library/isp/Src/isp_algo.c ****     {
 289              		.loc 1 242 5 is_stmt 1 view .LVU86
 242:../Middlewares/stm32-mw-camera/ISP_Library/isp/Src/isp_algo.c ****     {
 290              		.loc 1 242 8 is_stmt 0 view .LVU87
 291 007c 0028     		cmp	r0, #0
 292 007e C8D1     		bne	.L11
 248:../Middlewares/stm32-mw-camera/ISP_Library/isp/Src/isp_algo.c ****     BadPixelCount = 0;
 293              		.loc 1 248 5 is_stmt 1 view .LVU88
 248:../Middlewares/stm32-mw-camera/ISP_Library/isp/Src/isp_algo.c ****     BadPixelCount = 0;
 294              		.loc 1 248 10 is_stmt 0 view .LVU89
 295 0080 FF23     		movs	r3, #255
 249:../Middlewares/stm32-mw-camera/ISP_Library/isp/Src/isp_algo.c ****   }
 296              		.loc 1 249 19 view .LVU90
 297 0082 3060     		str	r0, [r6]
 248:../Middlewares/stm32-mw-camera/ISP_Library/isp/Src/isp_algo.c ****     BadPixelCount = 0;
 298              		.loc 1 248 10 view .LVU91
 299 0084 2B70     		strb	r3, [r5]
 249:../Middlewares/stm32-mw-camera/ISP_Library/isp/Src/isp_algo.c ****   }
 300              		.loc 1 249 5 is_stmt 1 view .LVU92
 301 0086 C4E7     		b	.L11
 302              	.LVL19:
 303              	.L14:
 233:../Middlewares/stm32-mw-camera/ISP_Library/isp/Src/isp_algo.c ****     {
 304              		.loc 1 233 10 view .LVU93
 233:../Middlewares/stm32-mw-camera/ISP_Library/isp/Src/isp_algo.c ****     {
 305              		.loc 1 233 13 is_stmt 0 view .LVU94
 306 0088 F1D2     		bcs	.L15
 233:../Middlewares/stm32-mw-camera/ISP_Library/isp/Src/isp_algo.c ****     {
 307              		.loc 1 233 88 discriminator 1 view .LVU95
 308 008a 9DF80130 		ldrb	r3, [sp, #1]	@ zero_extendqisi2
 233:../Middlewares/stm32-mw-camera/ISP_Library/isp/Src/isp_algo.c ****     {
 309              		.loc 1 233 70 discriminator 1 view .LVU96
 310 008e 052B     		cmp	r3, #5
 311 0090 EDD8     		bhi	.L15
 236:../Middlewares/stm32-mw-camera/ISP_Library/isp/Src/isp_algo.c ****     }
 312              		.loc 1 236 7 is_stmt 1 view .LVU97
 236:../Middlewares/stm32-mw-camera/ISP_Library/isp/Src/isp_algo.c ****     }
 313              		.loc 1 236 30 is_stmt 0 view .LVU98
 314 0092 0133     		adds	r3, r3, #1
 315 0094 E9E7     		b	.L20
 316              	.L22:
 317 0096 00BF     		.align	2
 318              	.L21:
 319 0098 00000000 		.word	LastFrameId.8
ARM GAS  /tmp/ccCLNRaf.s 			page 19


 320 009c 00000000 		.word	Step.7
 321 00a0 00000000 		.word	BadPixelCount.6
 322              		.cfi_endproc
 323              	.LFE886:
 325              		.section	.text.ISP_Algo_AEC_Init,"ax",%progbits
 326              		.align	1
 327              		.global	ISP_Algo_AEC_Init
 328              		.syntax unified
 329              		.thumb
 330              		.thumb_func
 332              	ISP_Algo_AEC_Init:
 333              	.LVL20:
 334              	.LFB887:
 264:../Middlewares/stm32-mw-camera/ISP_Library/isp/Src/isp_algo.c ****   ISP_HandleTypeDef *pIsp_handle = (ISP_HandleTypeDef*) hIsp;
 335              		.loc 1 264 1 is_stmt 1 view -0
 336              		.cfi_startproc
 337              		@ args = 0, pretend = 0, frame = 8
 338              		@ frame_needed = 0, uses_anonymous_args = 0
 265:../Middlewares/stm32-mw-camera/ISP_Library/isp/Src/isp_algo.c ****   ISP_AlgoTypeDef *algo = (ISP_AlgoTypeDef *)pAlgo;
 339              		.loc 1 265 3 view .LVU100
 264:../Middlewares/stm32-mw-camera/ISP_Library/isp/Src/isp_algo.c ****   ISP_HandleTypeDef *pIsp_handle = (ISP_HandleTypeDef*) hIsp;
 340              		.loc 1 264 1 is_stmt 0 view .LVU101
 341 0000 F7B5     		push	{r0, r1, r2, r4, r5, r6, r7, lr}
 342              		.cfi_def_cfa_offset 32
 343              		.cfi_offset 4, -20
 344              		.cfi_offset 5, -16
 345              		.cfi_offset 6, -12
 346              		.cfi_offset 7, -8
 347              		.cfi_offset 14, -4
 264:../Middlewares/stm32-mw-camera/ISP_Library/isp/Src/isp_algo.c ****   ISP_HandleTypeDef *pIsp_handle = (ISP_HandleTypeDef*) hIsp;
 348              		.loc 1 264 1 view .LVU102
 349 0002 0446     		mov	r4, r0
 350              	.LVL21:
 266:../Middlewares/stm32-mw-camera/ISP_Library/isp/Src/isp_algo.c ****   ISP_SensorExposureTypeDef exposureConfig;
 351              		.loc 1 266 3 is_stmt 1 view .LVU103
 264:../Middlewares/stm32-mw-camera/ISP_Library/isp/Src/isp_algo.c ****   ISP_HandleTypeDef *pIsp_handle = (ISP_HandleTypeDef*) hIsp;
 352              		.loc 1 264 1 is_stmt 0 view .LVU104
 353 0004 0F46     		mov	r7, r1
 354              	.LVL22:
 267:../Middlewares/stm32-mw-camera/ISP_Library/isp/Src/isp_algo.c ****   ISP_SensorGainTypeDef gainConfig;
 355              		.loc 1 267 3 is_stmt 1 view .LVU105
 268:../Middlewares/stm32-mw-camera/ISP_Library/isp/Src/isp_algo.c ****   ISP_IQParamTypeDef *IQParamConfig;
 356              		.loc 1 268 3 view .LVU106
 269:../Middlewares/stm32-mw-camera/ISP_Library/isp/Src/isp_algo.c ****   ISP_RestartStateTypeDef *pRestartState;
 357              		.loc 1 269 3 view .LVU107
 270:../Middlewares/stm32-mw-camera/ISP_Library/isp/Src/isp_algo.c **** 
 358              		.loc 1 270 3 view .LVU108
 272:../Middlewares/stm32-mw-camera/ISP_Library/isp/Src/isp_algo.c ****   pRestartState = ISP_SVC_GetRestartState(hIsp);
 359              		.loc 1 272 3 view .LVU109
 272:../Middlewares/stm32-mw-camera/ISP_Library/isp/Src/isp_algo.c ****   pRestartState = ISP_SVC_GetRestartState(hIsp);
 360              		.loc 1 272 19 is_stmt 0 view .LVU110
 361 0006 FFF7FEFF 		bl	ISP_SVC_IQParam_Get
 362              	.LVL23:
 272:../Middlewares/stm32-mw-camera/ISP_Library/isp/Src/isp_algo.c ****   pRestartState = ISP_SVC_GetRestartState(hIsp);
 363              		.loc 1 272 19 view .LVU111
 364 000a 0646     		mov	r6, r0
 365              	.LVL24:
ARM GAS  /tmp/ccCLNRaf.s 			page 20


 273:../Middlewares/stm32-mw-camera/ISP_Library/isp/Src/isp_algo.c **** 
 366              		.loc 1 273 3 is_stmt 1 view .LVU112
 273:../Middlewares/stm32-mw-camera/ISP_Library/isp/Src/isp_algo.c **** 
 367              		.loc 1 273 19 is_stmt 0 view .LVU113
 368 000c 2046     		mov	r0, r4
 369              	.LVL25:
 273:../Middlewares/stm32-mw-camera/ISP_Library/isp/Src/isp_algo.c **** 
 370              		.loc 1 273 19 view .LVU114
 371 000e FFF7FEFF 		bl	ISP_SVC_GetRestartState
 372              	.LVL26:
 275:../Middlewares/stm32-mw-camera/ISP_Library/isp/Src/isp_algo.c ****   {
 373              		.loc 1 275 6 view .LVU115
 374 0012 96F86532 		ldrb	r3, [r6, #613]	@ zero_extendqisi2
 273:../Middlewares/stm32-mw-camera/ISP_Library/isp/Src/isp_algo.c **** 
 375              		.loc 1 273 19 view .LVU116
 376 0016 0546     		mov	r5, r0
 377              	.LVL27:
 275:../Middlewares/stm32-mw-camera/ISP_Library/isp/Src/isp_algo.c ****   {
 378              		.loc 1 275 3 is_stmt 1 view .LVU117
 275:../Middlewares/stm32-mw-camera/ISP_Library/isp/Src/isp_algo.c ****   {
 379              		.loc 1 275 6 is_stmt 0 view .LVU118
 380 0018 13B9     		cbnz	r3, .L24
 278:../Middlewares/stm32-mw-camera/ISP_Library/isp/Src/isp_algo.c ****   }
 381              		.loc 1 278 5 is_stmt 1 view .LVU119
 278:../Middlewares/stm32-mw-camera/ISP_Library/isp/Src/isp_algo.c ****   }
 382              		.loc 1 278 38 is_stmt 0 view .LVU120
 383 001a 0123     		movs	r3, #1
 384 001c 86F86532 		strb	r3, [r6, #613]
 385              	.L24:
 281:../Middlewares/stm32-mw-camera/ISP_Library/isp/Src/isp_algo.c **** 
 386              		.loc 1 281 3 is_stmt 1 view .LVU121
 387 0020 2046     		mov	r0, r4
 388              	.LVL28:
 281:../Middlewares/stm32-mw-camera/ISP_Library/isp/Src/isp_algo.c **** 
 389              		.loc 1 281 3 is_stmt 0 view .LVU122
 390 0022 FFF7FEFF 		bl	isp_ae_init
 391              	.LVL29:
 284:../Middlewares/stm32-mw-camera/ISP_Library/isp/Src/isp_algo.c ****   {
 392              		.loc 1 284 3 is_stmt 1 view .LVU123
 284:../Middlewares/stm32-mw-camera/ISP_Library/isp/Src/isp_algo.c ****   {
 393              		.loc 1 284 6 is_stmt 0 view .LVU124
 394 0026 96F86830 		ldrb	r3, [r6, #104]	@ zero_extendqisi2
 395 002a 012B     		cmp	r3, #1
 396 002c 03D0     		beq	.L25
 397              	.L31:
 306:../Middlewares/stm32-mw-camera/ISP_Library/isp/Src/isp_algo.c **** 
 398              		.loc 1 306 3 is_stmt 1 view .LVU125
 306:../Middlewares/stm32-mw-camera/ISP_Library/isp/Src/isp_algo.c **** 
 399              		.loc 1 306 15 is_stmt 0 view .LVU126
 400 002e 0020     		movs	r0, #0
 401 0030 7870     		strb	r0, [r7, #1]
 308:../Middlewares/stm32-mw-camera/ISP_Library/isp/Src/isp_algo.c **** }
 402              		.loc 1 308 3 is_stmt 1 view .LVU127
 403              	.L26:
 309:../Middlewares/stm32-mw-camera/ISP_Library/isp/Src/isp_algo.c **** 
 404              		.loc 1 309 1 is_stmt 0 view .LVU128
 405 0032 03B0     		add	sp, sp, #12
ARM GAS  /tmp/ccCLNRaf.s 			page 21


 406              		.cfi_remember_state
 407              		.cfi_def_cfa_offset 20
 408              		@ sp needed
 409 0034 F0BD     		pop	{r4, r5, r6, r7, pc}
 410              	.LVL30:
 411              	.L25:
 412              		.cfi_restore_state
 286:../Middlewares/stm32-mw-camera/ISP_Library/isp/Src/isp_algo.c ****     {
 413              		.loc 1 286 5 is_stmt 1 view .LVU129
 286:../Middlewares/stm32-mw-camera/ISP_Library/isp/Src/isp_algo.c ****     {
 414              		.loc 1 286 8 is_stmt 0 view .LVU130
 415 0036 65B1     		cbz	r5, .L27
 286:../Middlewares/stm32-mw-camera/ISP_Library/isp/Src/isp_algo.c ****     {
 416              		.loc 1 286 23 discriminator 1 view .LVU131
 417 0038 2B78     		ldrb	r3, [r5]	@ zero_extendqisi2
 418 003a 53B1     		cbz	r3, .L27
 289:../Middlewares/stm32-mw-camera/ISP_Library/isp/Src/isp_algo.c ****       gainConfig.gain = pRestartState->sensorGain;
 419              		.loc 1 289 7 is_stmt 1 view .LVU132
 289:../Middlewares/stm32-mw-camera/ISP_Library/isp/Src/isp_algo.c ****       gainConfig.gain = pRestartState->sensorGain;
 420              		.loc 1 289 31 is_stmt 0 view .LVU133
 421 003c AB68     		ldr	r3, [r5, #8]
 422 003e 0093     		str	r3, [sp]
 290:../Middlewares/stm32-mw-camera/ISP_Library/isp/Src/isp_algo.c ****     }
 423              		.loc 1 290 7 is_stmt 1 view .LVU134
 290:../Middlewares/stm32-mw-camera/ISP_Library/isp/Src/isp_algo.c ****     }
 424              		.loc 1 290 38 is_stmt 0 view .LVU135
 425 0040 6B68     		ldr	r3, [r5, #4]
 426              	.L28:
 299:../Middlewares/stm32-mw-camera/ISP_Library/isp/Src/isp_algo.c ****     {
 427              		.loc 1 299 10 view .LVU136
 428 0042 6946     		mov	r1, sp
 429 0044 2046     		mov	r0, r4
 290:../Middlewares/stm32-mw-camera/ISP_Library/isp/Src/isp_algo.c ****     }
 430              		.loc 1 290 23 view .LVU137
 431 0046 0193     		str	r3, [sp, #4]
 299:../Middlewares/stm32-mw-camera/ISP_Library/isp/Src/isp_algo.c ****     {
 432              		.loc 1 299 5 is_stmt 1 view .LVU138
 299:../Middlewares/stm32-mw-camera/ISP_Library/isp/Src/isp_algo.c ****     {
 433              		.loc 1 299 10 is_stmt 0 view .LVU139
 434 0048 FFF7FEFF 		bl	ISP_SVC_Sensor_SetExposure
 435              	.LVL31:
 299:../Middlewares/stm32-mw-camera/ISP_Library/isp/Src/isp_algo.c ****     {
 436              		.loc 1 299 8 discriminator 1 view .LVU140
 437 004c 30B1     		cbz	r0, .L29
 438              	.L30:
 301:../Middlewares/stm32-mw-camera/ISP_Library/isp/Src/isp_algo.c ****     }
 439              		.loc 1 301 14 view .LVU141
 440 004e BE20     		movs	r0, #190
 441 0050 EFE7     		b	.L26
 442              	.L27:
 295:../Middlewares/stm32-mw-camera/ISP_Library/isp/Src/isp_algo.c ****       gainConfig.gain = pIsp_handle->sensorInfo.gain_min;
 443              		.loc 1 295 7 is_stmt 1 view .LVU142
 295:../Middlewares/stm32-mw-camera/ISP_Library/isp/Src/isp_algo.c ****       gainConfig.gain = pIsp_handle->sensorInfo.gain_min;
 444              		.loc 1 295 31 is_stmt 0 view .LVU143
 445 0052 D4F88430 		ldr	r3, [r4, #132]
 446 0056 0093     		str	r3, [sp]
 296:../Middlewares/stm32-mw-camera/ISP_Library/isp/Src/isp_algo.c ****     }
ARM GAS  /tmp/ccCLNRaf.s 			page 22


 447              		.loc 1 296 7 is_stmt 1 view .LVU144
 296:../Middlewares/stm32-mw-camera/ISP_Library/isp/Src/isp_algo.c ****     }
 448              		.loc 1 296 48 is_stmt 0 view .LVU145
 449 0058 A36F     		ldr	r3, [r4, #120]
 450 005a F2E7     		b	.L28
 451              	.L29:
 299:../Middlewares/stm32-mw-camera/ISP_Library/isp/Src/isp_algo.c ****     {
 452              		.loc 1 299 75 discriminator 1 view .LVU146
 453 005c 2046     		mov	r0, r4
 454 005e 01A9     		add	r1, sp, #4
 455 0060 FFF7FEFF 		bl	ISP_SVC_Sensor_SetGain
 456              	.LVL32:
 299:../Middlewares/stm32-mw-camera/ISP_Library/isp/Src/isp_algo.c ****     {
 457              		.loc 1 299 71 discriminator 1 view .LVU147
 458 0064 0028     		cmp	r0, #0
 459 0066 E2D0     		beq	.L31
 460 0068 F1E7     		b	.L30
 461              		.cfi_endproc
 462              	.LFE887:
 464              		.section	.rodata.ISP_Algo_AEC_Process.str1.1,"aMS",%progbits,1
 465              	.LC0:
 466 0000 4552524F 		.ascii	"ERROR: Lux value of the scene cannot be estimated\015"
 466      523A204C 
 466      75782076 
 466      616C7565 
 466      206F6620 
 467 0032 00       		.ascii	"\000"
 468              	.LC1:
 469 0033 5741524E 		.ascii	"WARNING: Unknown AE algo state\015\000"
 469      494E473A 
 469      20556E6B 
 469      6E6F776E 
 469      20414520 
 470              		.section	.text.ISP_Algo_AEC_Process,"ax",%progbits
 471              		.align	1
 472              		.global	ISP_Algo_AEC_Process
 473              		.syntax unified
 474              		.thumb
 475              		.thumb_func
 477              	ISP_Algo_AEC_Process:
 478              	.LVL33:
 479              	.LFB890:
 349:../Middlewares/stm32-mw-camera/ISP_Library/isp/Src/isp_algo.c ****   static ISP_SVC_StatStateTypeDef stats;
 480              		.loc 1 349 1 is_stmt 1 view -0
 481              		.cfi_startproc
 482              		@ args = 0, pretend = 0, frame = 16
 483              		@ frame_needed = 0, uses_anonymous_args = 0
 350:../Middlewares/stm32-mw-camera/ISP_Library/isp/Src/isp_algo.c ****   ISP_AlgoTypeDef *algo = (ISP_AlgoTypeDef *)pAlgo;
 484              		.loc 1 350 3 view .LVU149
 351:../Middlewares/stm32-mw-camera/ISP_Library/isp/Src/isp_algo.c ****   ISP_IQParamTypeDef *IQParamConfig;
 485              		.loc 1 351 3 view .LVU150
 349:../Middlewares/stm32-mw-camera/ISP_Library/isp/Src/isp_algo.c ****   static ISP_SVC_StatStateTypeDef stats;
 486              		.loc 1 349 1 is_stmt 0 view .LVU151
 487 0000 F0B5     		push	{r4, r5, r6, r7, lr}
 488              		.cfi_def_cfa_offset 20
 489              		.cfi_offset 4, -20
 490              		.cfi_offset 5, -16
ARM GAS  /tmp/ccCLNRaf.s 			page 23


 491              		.cfi_offset 6, -12
 492              		.cfi_offset 7, -8
 493              		.cfi_offset 14, -4
 494 0002 89B0     		sub	sp, sp, #36
 495              		.cfi_def_cfa_offset 56
 349:../Middlewares/stm32-mw-camera/ISP_Library/isp/Src/isp_algo.c ****   static ISP_SVC_StatStateTypeDef stats;
 496              		.loc 1 349 1 view .LVU152
 497 0004 0546     		mov	r5, r0
 498 0006 0C46     		mov	r4, r1
 499              	.LVL34:
 352:../Middlewares/stm32-mw-camera/ISP_Library/isp/Src/isp_algo.c ****   ISP_RestartStateTypeDef *pRestartState;
 500              		.loc 1 352 3 is_stmt 1 view .LVU153
 353:../Middlewares/stm32-mw-camera/ISP_Library/isp/Src/isp_algo.c ****   ISP_StatusTypeDef ret = ISP_OK;
 501              		.loc 1 353 3 view .LVU154
 354:../Middlewares/stm32-mw-camera/ISP_Library/isp/Src/isp_algo.c ****   ISP_SensorGainTypeDef gainConfig;
 502              		.loc 1 354 3 view .LVU155
 355:../Middlewares/stm32-mw-camera/ISP_Library/isp/Src/isp_algo.c ****   ISP_SensorExposureTypeDef exposureConfig;
 503              		.loc 1 355 3 view .LVU156
 356:../Middlewares/stm32-mw-camera/ISP_Library/isp/Src/isp_algo.c ****   uint32_t avgL, newExposure, newGain;
 504              		.loc 1 356 3 view .LVU157
 357:../Middlewares/stm32-mw-camera/ISP_Library/isp/Src/isp_algo.c **** #ifdef ALGO_AEC_DBG_LOGS
 505              		.loc 1 357 3 view .LVU158
 361:../Middlewares/stm32-mw-camera/ISP_Library/isp/Src/isp_algo.c ****  ISP_HandleTypeDef *pIsp_handle = (ISP_HandleTypeDef *)hIsp;
 506              		.loc 1 361 3 view .LVU159
 362:../Middlewares/stm32-mw-camera/ISP_Library/isp/Src/isp_algo.c **** 
 507              		.loc 1 362 2 view .LVU160
 364:../Middlewares/stm32-mw-camera/ISP_Library/isp/Src/isp_algo.c ****   if (IQParamConfig->AECAlgo.enable == false)
 508              		.loc 1 364 3 view .LVU161
 364:../Middlewares/stm32-mw-camera/ISP_Library/isp/Src/isp_algo.c ****   if (IQParamConfig->AECAlgo.enable == false)
 509              		.loc 1 364 19 is_stmt 0 view .LVU162
 510 0008 FFF7FEFF 		bl	ISP_SVC_IQParam_Get
 511              	.LVL35:
 365:../Middlewares/stm32-mw-camera/ISP_Library/isp/Src/isp_algo.c ****   {
 512              		.loc 1 365 6 view .LVU163
 513 000c 90F86830 		ldrb	r3, [r0, #104]	@ zero_extendqisi2
 364:../Middlewares/stm32-mw-camera/ISP_Library/isp/Src/isp_algo.c ****   if (IQParamConfig->AECAlgo.enable == false)
 514              		.loc 1 364 19 view .LVU164
 515 0010 0646     		mov	r6, r0
 516              	.LVL36:
 365:../Middlewares/stm32-mw-camera/ISP_Library/isp/Src/isp_algo.c ****   {
 517              		.loc 1 365 3 is_stmt 1 view .LVU165
 365:../Middlewares/stm32-mw-camera/ISP_Library/isp/Src/isp_algo.c ****   {
 518              		.loc 1 365 6 is_stmt 0 view .LVU166
 519 0012 002B     		cmp	r3, #0
 520 0014 75D0     		beq	.L39
 370:../Middlewares/stm32-mw-camera/ISP_Library/isp/Src/isp_algo.c ****   {
 521              		.loc 1 370 3 is_stmt 1 view .LVU167
 522 0016 6378     		ldrb	r3, [r4, #1]	@ zero_extendqisi2
 523 0018 032B     		cmp	r3, #3
 524 001a 6DD8     		bhi	.L40
 525 001c DFE803F0 		tbb	[pc, r3]
 526              	.L42:
 527 0020 02       		.byte	(.L44-.L42)/2
 528 0021 09       		.byte	(.L43-.L42)/2
 529 0022 71       		.byte	(.L39-.L42)/2
 530 0023 1A       		.byte	(.L41-.L42)/2
 531              		.p2align 1
ARM GAS  /tmp/ccCLNRaf.s 			page 24


 532              	.L44:
 374:../Middlewares/stm32-mw-camera/ISP_Library/isp/Src/isp_algo.c ****     if (ret != ISP_OK)
 533              		.loc 1 374 5 view .LVU168
 374:../Middlewares/stm32-mw-camera/ISP_Library/isp/Src/isp_algo.c ****     if (ret != ISP_OK)
 534              		.loc 1 374 11 is_stmt 0 view .LVU169
 535 0024 2846     		mov	r0, r5
 536              	.LVL37:
 374:../Middlewares/stm32-mw-camera/ISP_Library/isp/Src/isp_algo.c ****     if (ret != ISP_OK)
 537              		.loc 1 374 11 view .LVU170
 538 0026 05F14C01 		add	r1, r5, #76
 539 002a FFF7FEFF 		bl	ISP_SVC_Sensor_GetInfo
 540              	.LVL38:
 375:../Middlewares/stm32-mw-camera/ISP_Library/isp/Src/isp_algo.c ****     {
 541              		.loc 1 375 5 is_stmt 1 view .LVU171
 375:../Middlewares/stm32-mw-camera/ISP_Library/isp/Src/isp_algo.c ****     {
 542              		.loc 1 375 8 is_stmt 0 view .LVU172
 543 002e 0028     		cmp	r0, #0
 544 0030 68D1     		bne	.L45
 545              	.LVL39:
 546              	.L43:
 381:../Middlewares/stm32-mw-camera/ISP_Library/isp/Src/isp_algo.c ****                                 ISP_STAT_TYPE_AVG, IQParamConfig->sensorDelay.delay);
 547              		.loc 1 381 5 is_stmt 1 view .LVU173
 381:../Middlewares/stm32-mw-camera/ISP_Library/isp/Src/isp_algo.c ****                                 ISP_STAT_TYPE_AVG, IQParamConfig->sensorDelay.delay);
 548              		.loc 1 381 11 is_stmt 0 view .LVU174
 549 0032 96F86532 		ldrb	r3, [r6, #613]	@ zero_extendqisi2
 550 0036 0226     		movs	r6, #2
 551              	.LVL40:
 381:../Middlewares/stm32-mw-camera/ISP_Library/isp/Src/isp_algo.c ****                                 ISP_STAT_TYPE_AVG, IQParamConfig->sensorDelay.delay);
 552              		.loc 1 381 11 view .LVU175
 553 0038 0293     		str	r3, [sp, #8]
 554 003a 0123     		movs	r3, #1
 555 003c 2246     		mov	r2, r4
 556 003e CDE90063 		strd	r6, r3, [sp]
 557 0042 2846     		mov	r0, r5
 558 0044 304B     		ldr	r3, .L60
 559 0046 3149     		ldr	r1, .L60+4
 560 0048 FFF7FEFF 		bl	ISP_SVC_Stats_GetNext
 561              	.LVL41:
 383:../Middlewares/stm32-mw-camera/ISP_Library/isp/Src/isp_algo.c ****     {
 562              		.loc 1 383 5 is_stmt 1 view .LVU176
 383:../Middlewares/stm32-mw-camera/ISP_Library/isp/Src/isp_algo.c ****     {
 563              		.loc 1 383 8 is_stmt 0 view .LVU177
 564 004c 0028     		cmp	r0, #0
 565 004e 59D1     		bne	.L45
 566              	.LVL42:
 567              	.L59:
 503:../Middlewares/stm32-mw-camera/ISP_Library/isp/Src/isp_algo.c ****     break;
 568              		.loc 1 503 5 is_stmt 1 view .LVU178
 503:../Middlewares/stm32-mw-camera/ISP_Library/isp/Src/isp_algo.c ****     break;
 569              		.loc 1 503 17 is_stmt 0 view .LVU179
 570 0050 6670     		strb	r6, [r4, #1]
 504:../Middlewares/stm32-mw-camera/ISP_Library/isp/Src/isp_algo.c **** 
 571              		.loc 1 504 5 is_stmt 1 view .LVU180
 572 0052 57E0     		b	.L45
 573              	.LVL43:
 574              	.L41:
 403:../Middlewares/stm32-mw-camera/ISP_Library/isp/Src/isp_algo.c **** #ifdef ALGO_AEC_DBG_LOGS
ARM GAS  /tmp/ccCLNRaf.s 			page 25


 575              		.loc 1 403 5 view .LVU181
 403:../Middlewares/stm32-mw-camera/ISP_Library/isp/Src/isp_algo.c **** #ifdef ALGO_AEC_DBG_LOGS
 576              		.loc 1 403 22 is_stmt 0 view .LVU182
 577 0054 2C4B     		ldr	r3, .L60
 412:../Middlewares/stm32-mw-camera/ISP_Library/isp/Src/isp_algo.c ****     if (ret != ISP_OK)
 578              		.loc 1 412 11 view .LVU183
 579 0056 2846     		mov	r0, r5
 580              	.LVL44:
 412:../Middlewares/stm32-mw-camera/ISP_Library/isp/Src/isp_algo.c ****     if (ret != ISP_OK)
 581              		.loc 1 412 11 view .LVU184
 582 0058 04A9     		add	r1, sp, #16
 403:../Middlewares/stm32-mw-camera/ISP_Library/isp/Src/isp_algo.c **** #ifdef ALGO_AEC_DBG_LOGS
 583              		.loc 1 403 22 view .LVU185
 584 005a 93F83770 		ldrb	r7, [r3, #55]	@ zero_extendqisi2
 585              	.LVL45:
 412:../Middlewares/stm32-mw-camera/ISP_Library/isp/Src/isp_algo.c ****     if (ret != ISP_OK)
 586              		.loc 1 412 5 is_stmt 1 view .LVU186
 412:../Middlewares/stm32-mw-camera/ISP_Library/isp/Src/isp_algo.c ****     if (ret != ISP_OK)
 587              		.loc 1 412 11 is_stmt 0 view .LVU187
 588 005e FFF7FEFF 		bl	ISP_SVC_Sensor_GetGain
 589              	.LVL46:
 413:../Middlewares/stm32-mw-camera/ISP_Library/isp/Src/isp_algo.c ****     {
 590              		.loc 1 413 5 is_stmt 1 view .LVU188
 413:../Middlewares/stm32-mw-camera/ISP_Library/isp/Src/isp_algo.c ****     {
 591              		.loc 1 413 8 is_stmt 0 view .LVU189
 592 0062 0028     		cmp	r0, #0
 593 0064 4ED1     		bne	.L45
 418:../Middlewares/stm32-mw-camera/ISP_Library/isp/Src/isp_algo.c ****     if (ret != ISP_OK)
 594              		.loc 1 418 5 is_stmt 1 view .LVU190
 418:../Middlewares/stm32-mw-camera/ISP_Library/isp/Src/isp_algo.c ****     if (ret != ISP_OK)
 595              		.loc 1 418 11 is_stmt 0 view .LVU191
 596 0066 2846     		mov	r0, r5
 597              	.LVL47:
 418:../Middlewares/stm32-mw-camera/ISP_Library/isp/Src/isp_algo.c ****     if (ret != ISP_OK)
 598              		.loc 1 418 11 view .LVU192
 599 0068 05A9     		add	r1, sp, #20
 600 006a FFF7FEFF 		bl	ISP_SVC_Sensor_GetExposure
 601              	.LVL48:
 419:../Middlewares/stm32-mw-camera/ISP_Library/isp/Src/isp_algo.c ****     {
 602              		.loc 1 419 5 is_stmt 1 view .LVU193
 419:../Middlewares/stm32-mw-camera/ISP_Library/isp/Src/isp_algo.c ****     {
 603              		.loc 1 419 8 is_stmt 0 view .LVU194
 604 006e 0028     		cmp	r0, #0
 605 0070 48D1     		bne	.L45
 424:../Middlewares/stm32-mw-camera/ISP_Library/isp/Src/isp_algo.c **** 
 606              		.loc 1 424 5 is_stmt 1 view .LVU195
 424:../Middlewares/stm32-mw-camera/ISP_Library/isp/Src/isp_algo.c **** 
 607              		.loc 1 424 21 is_stmt 0 view .LVU196
 608 0072 2846     		mov	r0, r5
 609              	.LVL49:
 424:../Middlewares/stm32-mw-camera/ISP_Library/isp/Src/isp_algo.c **** 
 610              		.loc 1 424 21 view .LVU197
 611 0074 FFF7FEFF 		bl	ISP_SVC_Misc_GetEstimatedLux
 612              	.LVL50:
 430:../Middlewares/stm32-mw-camera/ISP_Library/isp/Src/isp_algo.c ****     {
 613              		.loc 1 430 5 is_stmt 1 view .LVU198
 430:../Middlewares/stm32-mw-camera/ISP_Library/isp/Src/isp_algo.c ****     {
ARM GAS  /tmp/ccCLNRaf.s 			page 26


 614              		.loc 1 430 8 is_stmt 0 view .LVU199
 615 0078 0028     		cmp	r0, #0
 616 007a 39DB     		blt	.L47
 432:../Middlewares/stm32-mw-camera/ISP_Library/isp/Src/isp_algo.c **** #ifdef ALGO_PERF_DBG_LOGS
 617              		.loc 1 432 7 is_stmt 1 view .LVU200
 618 007c 049B     		ldr	r3, [sp, #16]
 619 007e 06AA     		add	r2, sp, #24
 620 0080 0193     		str	r3, [sp, #4]
 621 0082 059B     		ldr	r3, [sp, #20]
 622 0084 3946     		mov	r1, r7
 623 0086 0093     		str	r3, [sp]
 624 0088 07AB     		add	r3, sp, #28
 625 008a FFF7FEFF 		bl	isp_ae_get_new_exposure
 626              	.LVL51:
 436:../Middlewares/stm32-mw-camera/ISP_Library/isp/Src/isp_algo.c ****       {
 627              		.loc 1 436 7 view .LVU201
 436:../Middlewares/stm32-mw-camera/ISP_Library/isp/Src/isp_algo.c ****       {
 628              		.loc 1 436 27 is_stmt 0 view .LVU202
 629 008e 079B     		ldr	r3, [sp, #28]
 436:../Middlewares/stm32-mw-camera/ISP_Library/isp/Src/isp_algo.c ****       {
 630              		.loc 1 436 10 view .LVU203
 631 0090 049A     		ldr	r2, [sp, #16]
 632 0092 9A42     		cmp	r2, r3
 633 0094 15D1     		bne	.L48
 634              	.LVL52:
 635              	.L51:
 452:../Middlewares/stm32-mw-camera/ISP_Library/isp/Src/isp_algo.c ****       {
 636              		.loc 1 452 7 is_stmt 1 view .LVU204
 452:../Middlewares/stm32-mw-camera/ISP_Library/isp/Src/isp_algo.c ****       {
 637              		.loc 1 452 10 is_stmt 0 view .LVU205
 638 0096 DDE90523 		ldrd	r2, r3, [sp, #20]
 639 009a 9A42     		cmp	r2, r3
 640 009c 19D1     		bne	.L49
 641              	.L50:
 469:../Middlewares/stm32-mw-camera/ISP_Library/isp/Src/isp_algo.c ****       if (pRestartState)
 642              		.loc 1 469 7 is_stmt 1 view .LVU206
 469:../Middlewares/stm32-mw-camera/ISP_Library/isp/Src/isp_algo.c ****       if (pRestartState)
 643              		.loc 1 469 23 is_stmt 0 view .LVU207
 644 009e 2846     		mov	r0, r5
 645 00a0 FFF7FEFF 		bl	ISP_SVC_GetRestartState
 646              	.LVL53:
 470:../Middlewares/stm32-mw-camera/ISP_Library/isp/Src/isp_algo.c ****       {
 647              		.loc 1 470 7 is_stmt 1 view .LVU208
 470:../Middlewares/stm32-mw-camera/ISP_Library/isp/Src/isp_algo.c ****       {
 648              		.loc 1 470 10 is_stmt 0 view .LVU209
 649 00a4 E8B9     		cbnz	r0, .L52
 650              	.LVL54:
 651              	.L53:
 499:../Middlewares/stm32-mw-camera/ISP_Library/isp/Src/isp_algo.c ****                                 ISP_STAT_TYPE_AVG, IQParamConfig->sensorDelay.delay);
 652              		.loc 1 499 5 is_stmt 1 view .LVU210
 499:../Middlewares/stm32-mw-camera/ISP_Library/isp/Src/isp_algo.c ****                                 ISP_STAT_TYPE_AVG, IQParamConfig->sensorDelay.delay);
 653              		.loc 1 499 11 is_stmt 0 view .LVU211
 654 00a6 96F86532 		ldrb	r3, [r6, #613]	@ zero_extendqisi2
 655 00aa 0226     		movs	r6, #2
 656              	.LVL55:
 499:../Middlewares/stm32-mw-camera/ISP_Library/isp/Src/isp_algo.c ****                                 ISP_STAT_TYPE_AVG, IQParamConfig->sensorDelay.delay);
 657              		.loc 1 499 11 view .LVU212
ARM GAS  /tmp/ccCLNRaf.s 			page 27


 658 00ac 0293     		str	r3, [sp, #8]
 659 00ae 0123     		movs	r3, #1
 660 00b0 2246     		mov	r2, r4
 661 00b2 CDE90063 		strd	r6, r3, [sp]
 662 00b6 2846     		mov	r0, r5
 663 00b8 134B     		ldr	r3, .L60
 664 00ba 1449     		ldr	r1, .L60+4
 665 00bc FFF7FEFF 		bl	ISP_SVC_Stats_GetNext
 666              	.LVL56:
 667 00c0 C6E7     		b	.L59
 668              	.LVL57:
 669              	.L48:
 439:../Middlewares/stm32-mw-camera/ISP_Library/isp/Src/isp_algo.c **** 
 670              		.loc 1 439 9 is_stmt 1 view .LVU213
 441:../Middlewares/stm32-mw-camera/ISP_Library/isp/Src/isp_algo.c ****         if (ret != ISP_OK)
 671              		.loc 1 441 15 is_stmt 0 view .LVU214
 672 00c2 2846     		mov	r0, r5
 673 00c4 04A9     		add	r1, sp, #16
 439:../Middlewares/stm32-mw-camera/ISP_Library/isp/Src/isp_algo.c **** 
 674              		.loc 1 439 25 view .LVU215
 675 00c6 0493     		str	r3, [sp, #16]
 441:../Middlewares/stm32-mw-camera/ISP_Library/isp/Src/isp_algo.c ****         if (ret != ISP_OK)
 676              		.loc 1 441 9 is_stmt 1 view .LVU216
 441:../Middlewares/stm32-mw-camera/ISP_Library/isp/Src/isp_algo.c ****         if (ret != ISP_OK)
 677              		.loc 1 441 15 is_stmt 0 view .LVU217
 678 00c8 FFF7FEFF 		bl	ISP_SVC_Sensor_SetGain
 679              	.LVL58:
 442:../Middlewares/stm32-mw-camera/ISP_Library/isp/Src/isp_algo.c ****         {
 680              		.loc 1 442 9 is_stmt 1 view .LVU218
 442:../Middlewares/stm32-mw-camera/ISP_Library/isp/Src/isp_algo.c ****         {
 681              		.loc 1 442 12 is_stmt 0 view .LVU219
 682 00cc 0028     		cmp	r0, #0
 683 00ce E2D0     		beq	.L51
 684 00d0 18E0     		b	.L45
 685              	.LVL59:
 686              	.L49:
 455:../Middlewares/stm32-mw-camera/ISP_Library/isp/Src/isp_algo.c **** 
 687              		.loc 1 455 9 is_stmt 1 view .LVU220
 457:../Middlewares/stm32-mw-camera/ISP_Library/isp/Src/isp_algo.c ****         if (ret != ISP_OK)
 688              		.loc 1 457 15 is_stmt 0 view .LVU221
 689 00d2 2846     		mov	r0, r5
 690 00d4 05A9     		add	r1, sp, #20
 455:../Middlewares/stm32-mw-camera/ISP_Library/isp/Src/isp_algo.c **** 
 691              		.loc 1 455 33 view .LVU222
 692 00d6 0593     		str	r3, [sp, #20]
 457:../Middlewares/stm32-mw-camera/ISP_Library/isp/Src/isp_algo.c ****         if (ret != ISP_OK)
 693              		.loc 1 457 9 is_stmt 1 view .LVU223
 457:../Middlewares/stm32-mw-camera/ISP_Library/isp/Src/isp_algo.c ****         if (ret != ISP_OK)
 694              		.loc 1 457 15 is_stmt 0 view .LVU224
 695 00d8 FFF7FEFF 		bl	ISP_SVC_Sensor_SetExposure
 696              	.LVL60:
 458:../Middlewares/stm32-mw-camera/ISP_Library/isp/Src/isp_algo.c ****         {
 697              		.loc 1 458 9 is_stmt 1 view .LVU225
 458:../Middlewares/stm32-mw-camera/ISP_Library/isp/Src/isp_algo.c ****         {
 698              		.loc 1 458 12 is_stmt 0 view .LVU226
 699 00dc 0028     		cmp	r0, #0
 700 00de DED0     		beq	.L50
ARM GAS  /tmp/ccCLNRaf.s 			page 28


 701 00e0 10E0     		b	.L45
 702              	.LVL61:
 703              	.L52:
 472:../Middlewares/stm32-mw-camera/ISP_Library/isp/Src/isp_algo.c ****         pRestartState->sensorExposure = newExposure;
 704              		.loc 1 472 9 is_stmt 1 view .LVU227
 472:../Middlewares/stm32-mw-camera/ISP_Library/isp/Src/isp_algo.c ****         pRestartState->sensorExposure = newExposure;
 705              		.loc 1 472 35 is_stmt 0 view .LVU228
 706 00e2 079B     		ldr	r3, [sp, #28]
 707 00e4 4360     		str	r3, [r0, #4]
 473:../Middlewares/stm32-mw-camera/ISP_Library/isp/Src/isp_algo.c ****         pRestartState->sensorConfigured = 1;
 708              		.loc 1 473 9 is_stmt 1 view .LVU229
 473:../Middlewares/stm32-mw-camera/ISP_Library/isp/Src/isp_algo.c ****         pRestartState->sensorConfigured = 1;
 709              		.loc 1 473 39 is_stmt 0 view .LVU230
 710 00e6 069B     		ldr	r3, [sp, #24]
 711 00e8 8360     		str	r3, [r0, #8]
 474:../Middlewares/stm32-mw-camera/ISP_Library/isp/Src/isp_algo.c ****       }
 712              		.loc 1 474 9 is_stmt 1 view .LVU231
 474:../Middlewares/stm32-mw-camera/ISP_Library/isp/Src/isp_algo.c ****       }
 713              		.loc 1 474 41 is_stmt 0 view .LVU232
 714 00ea 0123     		movs	r3, #1
 715 00ec 0370     		strb	r3, [r0]
 716 00ee DAE7     		b	.L53
 717              	.LVL62:
 718              	.L47:
 479:../Middlewares/stm32-mw-camera/ISP_Library/isp/Src/isp_algo.c ****       printf("ERROR: Lux value of the scene cannot be estimated\r\n");
 719              		.loc 1 479 7 is_stmt 1 view .LVU233
 480:../Middlewares/stm32-mw-camera/ISP_Library/isp/Src/isp_algo.c ****     }
 720              		.loc 1 480 7 view .LVU234
 721 00f0 0748     		ldr	r0, .L60+8
 722              	.LVL63:
 480:../Middlewares/stm32-mw-camera/ISP_Library/isp/Src/isp_algo.c ****     }
 723              		.loc 1 480 7 is_stmt 0 view .LVU235
 724 00f2 FFF7FEFF 		bl	puts
 725              	.LVL64:
 726 00f6 D6E7     		b	.L53
 727              	.LVL65:
 728              	.L40:
 507:../Middlewares/stm32-mw-camera/ISP_Library/isp/Src/isp_algo.c ****     /* Reset state to ISP_ALGO_STATE_INIT */
 729              		.loc 1 507 5 is_stmt 1 view .LVU236
 730 00f8 0648     		ldr	r0, .L60+12
 731              	.LVL66:
 507:../Middlewares/stm32-mw-camera/ISP_Library/isp/Src/isp_algo.c ****     /* Reset state to ISP_ALGO_STATE_INIT */
 732              		.loc 1 507 5 is_stmt 0 view .LVU237
 733 00fa FFF7FEFF 		bl	puts
 734              	.LVL67:
 509:../Middlewares/stm32-mw-camera/ISP_Library/isp/Src/isp_algo.c ****     break;
 735              		.loc 1 509 5 is_stmt 1 view .LVU238
 509:../Middlewares/stm32-mw-camera/ISP_Library/isp/Src/isp_algo.c ****     break;
 736              		.loc 1 509 17 is_stmt 0 view .LVU239
 737 00fe 0023     		movs	r3, #0
 738 0100 6370     		strb	r3, [r4, #1]
 510:../Middlewares/stm32-mw-camera/ISP_Library/isp/Src/isp_algo.c **** 
 739              		.loc 1 510 5 is_stmt 1 view .LVU240
 740              	.L39:
 349:../Middlewares/stm32-mw-camera/ISP_Library/isp/Src/isp_algo.c ****   static ISP_SVC_StatStateTypeDef stats;
 741              		.loc 1 349 1 is_stmt 0 view .LVU241
 742 0102 0020     		movs	r0, #0
ARM GAS  /tmp/ccCLNRaf.s 			page 29


 743              	.LVL68:
 744              	.L45:
 515:../Middlewares/stm32-mw-camera/ISP_Library/isp/Src/isp_algo.c **** #endif /* ISP_MW_SW_AEC_ALGO_SUPPORT */
 745              		.loc 1 515 1 view .LVU242
 746 0104 09B0     		add	sp, sp, #36
 747              		.cfi_def_cfa_offset 20
 748              		@ sp needed
 749 0106 F0BD     		pop	{r4, r5, r6, r7, pc}
 750              	.LVL69:
 751              	.L61:
 515:../Middlewares/stm32-mw-camera/ISP_Library/isp/Src/isp_algo.c **** #endif /* ISP_MW_SW_AEC_ALGO_SUPPORT */
 752              		.loc 1 515 1 view .LVU243
 753              		.align	2
 754              	.L60:
 755 0108 00000000 		.word	stats.5
 756 010c 00000000 		.word	ISP_Algo_AEC_StatCb
 757 0110 00000000 		.word	.LC0
 758 0114 33000000 		.word	.LC1
 759              		.cfi_endproc
 760              	.LFE890:
 762              		.section	.rodata.ISP_Algo_Background_Process.str1.1,"aMS",%progbits,1
 763              	.LC2:
 764 0000 5741524E 		.ascii	"WARNING: Unknown background algo state\015\000"
 764      494E473A 
 764      20556E6B 
 764      6E6F776E 
 764      20626163 
 765              		.section	.text.ISP_Algo_Background_Process,"ax",%progbits
 766              		.align	1
 767              		.global	ISP_Algo_Background_Process
 768              		.syntax unified
 769              		.thumb
 770              		.thumb_func
 772              	ISP_Algo_Background_Process:
 773              	.LVL70:
 774              	.LFB900:
 645:../Middlewares/stm32-mw-camera/ISP_Library/isp/Src/isp_algo.c **** 
 646:../Middlewares/stm32-mw-camera/ISP_Library/isp/Src/isp_algo.c **** /**
 647:../Middlewares/stm32-mw-camera/ISP_Library/isp/Src/isp_algo.c ****   * @brief  ISP_Algo_AWB_Process
 648:../Middlewares/stm32-mw-camera/ISP_Library/isp/Src/isp_algo.c ****   *         Process the AWB algorithm. This algorithm controls the ISP gain and color conversion
 649:../Middlewares/stm32-mw-camera/ISP_Library/isp/Src/isp_algo.c ****   *         in order to output realistic colors (white balance).
 650:../Middlewares/stm32-mw-camera/ISP_Library/isp/Src/isp_algo.c ****   * @param  hIsp:  ISP device handle. To cast in (ISP_HandleTypeDef *).
 651:../Middlewares/stm32-mw-camera/ISP_Library/isp/Src/isp_algo.c ****   * @param  pAlgo: ISP algorithm handle. To cast in (ISP_AlgoTypeDef *).
 652:../Middlewares/stm32-mw-camera/ISP_Library/isp/Src/isp_algo.c ****   * @retval operation result
 653:../Middlewares/stm32-mw-camera/ISP_Library/isp/Src/isp_algo.c ****   */
 654:../Middlewares/stm32-mw-camera/ISP_Library/isp/Src/isp_algo.c **** ISP_StatusTypeDef ISP_Algo_AWB_Process(void *hIsp, void *pAlgo)
 655:../Middlewares/stm32-mw-camera/ISP_Library/isp/Src/isp_algo.c **** {
 656:../Middlewares/stm32-mw-camera/ISP_Library/isp/Src/isp_algo.c ****   static ISP_SVC_StatStateTypeDef stats;
 657:../Middlewares/stm32-mw-camera/ISP_Library/isp/Src/isp_algo.c ****   static uint8_t enableCurrent = false;
 658:../Middlewares/stm32-mw-camera/ISP_Library/isp/Src/isp_algo.c ****   static uint8_t reconfigureRequest = false;
 659:../Middlewares/stm32-mw-camera/ISP_Library/isp/Src/isp_algo.c ****   static uint32_t currentColorTemp = 0;
 660:../Middlewares/stm32-mw-camera/ISP_Library/isp/Src/isp_algo.c ****   ISP_IQParamTypeDef *IQParamConfig;
 661:../Middlewares/stm32-mw-camera/ISP_Library/isp/Src/isp_algo.c ****   ISP_RestartStateTypeDef *pRestartState;
 662:../Middlewares/stm32-mw-camera/ISP_Library/isp/Src/isp_algo.c ****   ISP_ColorConvTypeDef ColorConvConfig;
 663:../Middlewares/stm32-mw-camera/ISP_Library/isp/Src/isp_algo.c ****   ISP_ISPGainTypeDef ISPGainConfig;
 664:../Middlewares/stm32-mw-camera/ISP_Library/isp/Src/isp_algo.c ****   ISP_AlgoTypeDef *algo = (ISP_AlgoTypeDef *)pAlgo;
 665:../Middlewares/stm32-mw-camera/ISP_Library/isp/Src/isp_algo.c ****   ISP_StatusTypeDef ret_stat, ret = ISP_OK;
ARM GAS  /tmp/ccCLNRaf.s 			page 30


 666:../Middlewares/stm32-mw-camera/ISP_Library/isp/Src/isp_algo.c ****   uint32_t estimatedColorTemp = 0;
 667:../Middlewares/stm32-mw-camera/ISP_Library/isp/Src/isp_algo.c **** 
 668:../Middlewares/stm32-mw-camera/ISP_Library/isp/Src/isp_algo.c ****   IQParamConfig = ISP_SVC_IQParam_Get(hIsp);
 669:../Middlewares/stm32-mw-camera/ISP_Library/isp/Src/isp_algo.c **** 
 670:../Middlewares/stm32-mw-camera/ISP_Library/isp/Src/isp_algo.c ****   if (IQParamConfig->AWBAlgo.enable == false)
 671:../Middlewares/stm32-mw-camera/ISP_Library/isp/Src/isp_algo.c ****   {
 672:../Middlewares/stm32-mw-camera/ISP_Library/isp/Src/isp_algo.c ****     enableCurrent = false;
 673:../Middlewares/stm32-mw-camera/ISP_Library/isp/Src/isp_algo.c ****     return ISP_OK;
 674:../Middlewares/stm32-mw-camera/ISP_Library/isp/Src/isp_algo.c ****   }
 675:../Middlewares/stm32-mw-camera/ISP_Library/isp/Src/isp_algo.c ****   else if ((enableCurrent == false) || (IQParamConfig->AWBAlgo.enable == ISP_AWB_ENABLE_RECONFIGURE
 676:../Middlewares/stm32-mw-camera/ISP_Library/isp/Src/isp_algo.c ****   {
 677:../Middlewares/stm32-mw-camera/ISP_Library/isp/Src/isp_algo.c ****     /* Start or resume algo : set state to INIT in order to read the IQ params */
 678:../Middlewares/stm32-mw-camera/ISP_Library/isp/Src/isp_algo.c ****     algo->state = ISP_ALGO_STATE_INIT;
 679:../Middlewares/stm32-mw-camera/ISP_Library/isp/Src/isp_algo.c ****     IQParamConfig->AWBAlgo.enable = true;
 680:../Middlewares/stm32-mw-camera/ISP_Library/isp/Src/isp_algo.c ****     reconfigureRequest = true;
 681:../Middlewares/stm32-mw-camera/ISP_Library/isp/Src/isp_algo.c ****     enableCurrent = true;
 682:../Middlewares/stm32-mw-camera/ISP_Library/isp/Src/isp_algo.c ****   }
 683:../Middlewares/stm32-mw-camera/ISP_Library/isp/Src/isp_algo.c **** 
 684:../Middlewares/stm32-mw-camera/ISP_Library/isp/Src/isp_algo.c ****   switch(algo->state)
 685:../Middlewares/stm32-mw-camera/ISP_Library/isp/Src/isp_algo.c ****   {
 686:../Middlewares/stm32-mw-camera/ISP_Library/isp/Src/isp_algo.c ****   case ISP_ALGO_STATE_INIT:
 687:../Middlewares/stm32-mw-camera/ISP_Library/isp/Src/isp_algo.c ****     ret = ISP_AWB_Init(&IQParamConfig->AWBAlgo);
 688:../Middlewares/stm32-mw-camera/ISP_Library/isp/Src/isp_algo.c ****     if (ret != ISP_OK)
 689:../Middlewares/stm32-mw-camera/ISP_Library/isp/Src/isp_algo.c ****     {
 690:../Middlewares/stm32-mw-camera/ISP_Library/isp/Src/isp_algo.c ****       return ret;
 691:../Middlewares/stm32-mw-camera/ISP_Library/isp/Src/isp_algo.c ****     }
 692:../Middlewares/stm32-mw-camera/ISP_Library/isp/Src/isp_algo.c **** 
 693:../Middlewares/stm32-mw-camera/ISP_Library/isp/Src/isp_algo.c ****     /* Ask for stats */
 694:../Middlewares/stm32-mw-camera/ISP_Library/isp/Src/isp_algo.c ****     ret = ISP_SVC_Stats_GetNext(hIsp, &ISP_Algo_AWB_StatCb, pAlgo, &stats, ISP_STAT_LOC_DOWN,
 695:../Middlewares/stm32-mw-camera/ISP_Library/isp/Src/isp_algo.c ****                                 ISP_STAT_TYPE_AVG, ALGO_ISP_LATENCY + ALGO_AWB_ADDITIONAL_LATENCY);
 696:../Middlewares/stm32-mw-camera/ISP_Library/isp/Src/isp_algo.c ****     if (ret != ISP_OK)
 697:../Middlewares/stm32-mw-camera/ISP_Library/isp/Src/isp_algo.c ****     {
 698:../Middlewares/stm32-mw-camera/ISP_Library/isp/Src/isp_algo.c ****       return ret;
 699:../Middlewares/stm32-mw-camera/ISP_Library/isp/Src/isp_algo.c ****     }
 700:../Middlewares/stm32-mw-camera/ISP_Library/isp/Src/isp_algo.c **** 
 701:../Middlewares/stm32-mw-camera/ISP_Library/isp/Src/isp_algo.c ****     /* Wait for stats to be ready */
 702:../Middlewares/stm32-mw-camera/ISP_Library/isp/Src/isp_algo.c ****     algo->state = ISP_ALGO_STATE_WAITING_STAT;
 703:../Middlewares/stm32-mw-camera/ISP_Library/isp/Src/isp_algo.c ****     break;
 704:../Middlewares/stm32-mw-camera/ISP_Library/isp/Src/isp_algo.c **** 
 705:../Middlewares/stm32-mw-camera/ISP_Library/isp/Src/isp_algo.c ****   case ISP_ALGO_STATE_NEED_STAT:
 706:../Middlewares/stm32-mw-camera/ISP_Library/isp/Src/isp_algo.c ****     ret = ISP_SVC_Stats_GetNext(hIsp, &ISP_Algo_AWB_StatCb, pAlgo, &stats, ISP_STAT_LOC_DOWN,
 707:../Middlewares/stm32-mw-camera/ISP_Library/isp/Src/isp_algo.c ****                                 ISP_STAT_TYPE_AVG, ALGO_ISP_LATENCY + ALGO_AWB_ADDITIONAL_LATENCY);
 708:../Middlewares/stm32-mw-camera/ISP_Library/isp/Src/isp_algo.c ****     if (ret != ISP_OK)
 709:../Middlewares/stm32-mw-camera/ISP_Library/isp/Src/isp_algo.c ****     {
 710:../Middlewares/stm32-mw-camera/ISP_Library/isp/Src/isp_algo.c ****       return ret;
 711:../Middlewares/stm32-mw-camera/ISP_Library/isp/Src/isp_algo.c ****     }
 712:../Middlewares/stm32-mw-camera/ISP_Library/isp/Src/isp_algo.c **** 
 713:../Middlewares/stm32-mw-camera/ISP_Library/isp/Src/isp_algo.c ****     /* Wait for stats to be ready */
 714:../Middlewares/stm32-mw-camera/ISP_Library/isp/Src/isp_algo.c ****     algo->state = ISP_ALGO_STATE_WAITING_STAT;
 715:../Middlewares/stm32-mw-camera/ISP_Library/isp/Src/isp_algo.c ****     break;
 716:../Middlewares/stm32-mw-camera/ISP_Library/isp/Src/isp_algo.c **** 
 717:../Middlewares/stm32-mw-camera/ISP_Library/isp/Src/isp_algo.c ****   case ISP_ALGO_STATE_WAITING_STAT:
 718:../Middlewares/stm32-mw-camera/ISP_Library/isp/Src/isp_algo.c ****     /* Do nothing */
 719:../Middlewares/stm32-mw-camera/ISP_Library/isp/Src/isp_algo.c ****     break;
 720:../Middlewares/stm32-mw-camera/ISP_Library/isp/Src/isp_algo.c **** 
 721:../Middlewares/stm32-mw-camera/ISP_Library/isp/Src/isp_algo.c ****   case ISP_ALGO_STATE_STAT_READY:
 722:../Middlewares/stm32-mw-camera/ISP_Library/isp/Src/isp_algo.c **** #ifdef ALGO_PERF_DBG_LOGS
ARM GAS  /tmp/ccCLNRaf.s 			page 31


 723:../Middlewares/stm32-mw-camera/ISP_Library/isp/Src/isp_algo.c ****     static float sum_calc, sum_process = 0;
 724:../Middlewares/stm32-mw-camera/ISP_Library/isp/Src/isp_algo.c ****     static uint32_t iter = 0;
 725:../Middlewares/stm32-mw-camera/ISP_Library/isp/Src/isp_algo.c ****     uint32_t end_algo_calc, end_algo_process = 20;
 726:../Middlewares/stm32-mw-camera/ISP_Library/isp/Src/isp_algo.c ****     uint32_t start_algo = DWT->CYCCNT;
 727:../Middlewares/stm32-mw-camera/ISP_Library/isp/Src/isp_algo.c **** #endif
 728:../Middlewares/stm32-mw-camera/ISP_Library/isp/Src/isp_algo.c ****     /* Optimization: do not ask for Up stats, but evaluate them from the down stats */
 729:../Middlewares/stm32-mw-camera/ISP_Library/isp/Src/isp_algo.c ****     ISP_SVC_Stats_EvaluateUp(hIsp, &stats.down, &stats.up);
 730:../Middlewares/stm32-mw-camera/ISP_Library/isp/Src/isp_algo.c **** 
 731:../Middlewares/stm32-mw-camera/ISP_Library/isp/Src/isp_algo.c ****     ret = ISP_AWB_GetConfig(&stats.up, &ColorConvConfig, &ISPGainConfig, &estimatedColorTemp);
 732:../Middlewares/stm32-mw-camera/ISP_Library/isp/Src/isp_algo.c **** #ifdef ALGO_PERF_DBG_LOGS
 733:../Middlewares/stm32-mw-camera/ISP_Library/isp/Src/isp_algo.c ****       end_algo_calc = DWT->CYCCNT;
 734:../Middlewares/stm32-mw-camera/ISP_Library/isp/Src/isp_algo.c **** #endif
 735:../Middlewares/stm32-mw-camera/ISP_Library/isp/Src/isp_algo.c ****     if (ret == ISP_OK)
 736:../Middlewares/stm32-mw-camera/ISP_Library/isp/Src/isp_algo.c ****     {
 737:../Middlewares/stm32-mw-camera/ISP_Library/isp/Src/isp_algo.c ****       if (estimatedColorTemp != currentColorTemp || reconfigureRequest == true)
 738:../Middlewares/stm32-mw-camera/ISP_Library/isp/Src/isp_algo.c ****       {
 739:../Middlewares/stm32-mw-camera/ISP_Library/isp/Src/isp_algo.c ****         /* Apply Color Conversion */
 740:../Middlewares/stm32-mw-camera/ISP_Library/isp/Src/isp_algo.c ****         ret = ISP_SVC_ISP_SetColorConv(hIsp, &ColorConvConfig);
 741:../Middlewares/stm32-mw-camera/ISP_Library/isp/Src/isp_algo.c ****         if (ret == ISP_OK)
 742:../Middlewares/stm32-mw-camera/ISP_Library/isp/Src/isp_algo.c ****         {
 743:../Middlewares/stm32-mw-camera/ISP_Library/isp/Src/isp_algo.c ****           /* Apply gain */
 744:../Middlewares/stm32-mw-camera/ISP_Library/isp/Src/isp_algo.c ****           ret = ISP_SVC_ISP_SetGain(hIsp, &ISPGainConfig);
 745:../Middlewares/stm32-mw-camera/ISP_Library/isp/Src/isp_algo.c ****           if (ret == ISP_OK)
 746:../Middlewares/stm32-mw-camera/ISP_Library/isp/Src/isp_algo.c ****           {
 747:../Middlewares/stm32-mw-camera/ISP_Library/isp/Src/isp_algo.c ****             Meta.colorTemp = estimatedColorTemp;
 748:../Middlewares/stm32-mw-camera/ISP_Library/isp/Src/isp_algo.c ****             currentColorTemp = estimatedColorTemp ;
 749:../Middlewares/stm32-mw-camera/ISP_Library/isp/Src/isp_algo.c **** 
 750:../Middlewares/stm32-mw-camera/ISP_Library/isp/Src/isp_algo.c ****             /* Update the restart state */
 751:../Middlewares/stm32-mw-camera/ISP_Library/isp/Src/isp_algo.c ****             pRestartState = ISP_SVC_GetRestartState(hIsp);
 752:../Middlewares/stm32-mw-camera/ISP_Library/isp/Src/isp_algo.c ****             if (pRestartState)
 753:../Middlewares/stm32-mw-camera/ISP_Library/isp/Src/isp_algo.c ****             {
 754:../Middlewares/stm32-mw-camera/ISP_Library/isp/Src/isp_algo.c ****               pRestartState->awbConfigured = 1;
 755:../Middlewares/stm32-mw-camera/ISP_Library/isp/Src/isp_algo.c ****               pRestartState->colorConv = ColorConvConfig;
 756:../Middlewares/stm32-mw-camera/ISP_Library/isp/Src/isp_algo.c ****               pRestartState->ISPGain = ISPGainConfig;
 757:../Middlewares/stm32-mw-camera/ISP_Library/isp/Src/isp_algo.c ****             }
 758:../Middlewares/stm32-mw-camera/ISP_Library/isp/Src/isp_algo.c ****           }
 759:../Middlewares/stm32-mw-camera/ISP_Library/isp/Src/isp_algo.c ****         }
 760:../Middlewares/stm32-mw-camera/ISP_Library/isp/Src/isp_algo.c ****       }
 761:../Middlewares/stm32-mw-camera/ISP_Library/isp/Src/isp_algo.c ****     }
 762:../Middlewares/stm32-mw-camera/ISP_Library/isp/Src/isp_algo.c ****     if (ret != ISP_OK)
 763:../Middlewares/stm32-mw-camera/ISP_Library/isp/Src/isp_algo.c ****     {
 764:../Middlewares/stm32-mw-camera/ISP_Library/isp/Src/isp_algo.c ****       ret = ISP_ERR_ALGO;
 765:../Middlewares/stm32-mw-camera/ISP_Library/isp/Src/isp_algo.c ****     }
 766:../Middlewares/stm32-mw-camera/ISP_Library/isp/Src/isp_algo.c **** 
 767:../Middlewares/stm32-mw-camera/ISP_Library/isp/Src/isp_algo.c ****     /* Reset reconfigureRequest */
 768:../Middlewares/stm32-mw-camera/ISP_Library/isp/Src/isp_algo.c ****     reconfigureRequest = false;
 769:../Middlewares/stm32-mw-camera/ISP_Library/isp/Src/isp_algo.c **** 
 770:../Middlewares/stm32-mw-camera/ISP_Library/isp/Src/isp_algo.c **** #ifdef ALGO_PERF_DBG_LOGS
 771:../Middlewares/stm32-mw-camera/ISP_Library/isp/Src/isp_algo.c ****     end_algo_process = DWT->CYCCNT;
 772:../Middlewares/stm32-mw-camera/ISP_Library/isp/Src/isp_algo.c ****     sum_calc += (float)(end_algo_calc - start_algo) / (SystemCoreClock / 1e6);
 773:../Middlewares/stm32-mw-camera/ISP_Library/isp/Src/isp_algo.c ****     sum_process += (float)(end_algo_process - start_algo) / (SystemCoreClock / 1e6);
 774:../Middlewares/stm32-mw-camera/ISP_Library/isp/Src/isp_algo.c ****     iter++;
 775:../Middlewares/stm32-mw-camera/ISP_Library/isp/Src/isp_algo.c **** 
 776:../Middlewares/stm32-mw-camera/ISP_Library/isp/Src/isp_algo.c ****     if (iter == MEAS_ITERATION)
 777:../Middlewares/stm32-mw-camera/ISP_Library/isp/Src/isp_algo.c ****     {
 778:../Middlewares/stm32-mw-camera/ISP_Library/isp/Src/isp_algo.c ****       printf("AWB time  = %.3f us (calc in %.3f us)\r\n", sum_process / MEAS_ITERATION, sum_calc / 
 779:../Middlewares/stm32-mw-camera/ISP_Library/isp/Src/isp_algo.c ****       sum_process = 0;
ARM GAS  /tmp/ccCLNRaf.s 			page 32


 780:../Middlewares/stm32-mw-camera/ISP_Library/isp/Src/isp_algo.c ****       sum_calc = 0;
 781:../Middlewares/stm32-mw-camera/ISP_Library/isp/Src/isp_algo.c ****       iter = 0;
 782:../Middlewares/stm32-mw-camera/ISP_Library/isp/Src/isp_algo.c ****     }
 783:../Middlewares/stm32-mw-camera/ISP_Library/isp/Src/isp_algo.c **** #endif
 784:../Middlewares/stm32-mw-camera/ISP_Library/isp/Src/isp_algo.c **** 
 785:../Middlewares/stm32-mw-camera/ISP_Library/isp/Src/isp_algo.c ****     /* Ask for stats */
 786:../Middlewares/stm32-mw-camera/ISP_Library/isp/Src/isp_algo.c ****     ret_stat = ISP_SVC_Stats_GetNext(hIsp, &ISP_Algo_AWB_StatCb, pAlgo, &stats, ISP_STAT_LOC_DOWN,
 787:../Middlewares/stm32-mw-camera/ISP_Library/isp/Src/isp_algo.c ****                                      ISP_STAT_TYPE_AVG, ALGO_ISP_LATENCY + ALGO_AWB_ADDITIONAL_LATE
 788:../Middlewares/stm32-mw-camera/ISP_Library/isp/Src/isp_algo.c ****     ret = (ret != ISP_OK) ? ret : ret_stat;
 789:../Middlewares/stm32-mw-camera/ISP_Library/isp/Src/isp_algo.c **** 
 790:../Middlewares/stm32-mw-camera/ISP_Library/isp/Src/isp_algo.c ****     /* Wait for stats to be ready */
 791:../Middlewares/stm32-mw-camera/ISP_Library/isp/Src/isp_algo.c ****     algo->state = ISP_ALGO_STATE_WAITING_STAT;
 792:../Middlewares/stm32-mw-camera/ISP_Library/isp/Src/isp_algo.c ****     break;
 793:../Middlewares/stm32-mw-camera/ISP_Library/isp/Src/isp_algo.c **** 
 794:../Middlewares/stm32-mw-camera/ISP_Library/isp/Src/isp_algo.c ****   default:
 795:../Middlewares/stm32-mw-camera/ISP_Library/isp/Src/isp_algo.c ****     printf("WARNING: Unknown AWB algo state\r\n");
 796:../Middlewares/stm32-mw-camera/ISP_Library/isp/Src/isp_algo.c ****     /* Reset state to ISP_ALGO_STATE_INIT */
 797:../Middlewares/stm32-mw-camera/ISP_Library/isp/Src/isp_algo.c ****     algo->state = ISP_ALGO_STATE_INIT;
 798:../Middlewares/stm32-mw-camera/ISP_Library/isp/Src/isp_algo.c ****     break;
 799:../Middlewares/stm32-mw-camera/ISP_Library/isp/Src/isp_algo.c ****   }
 800:../Middlewares/stm32-mw-camera/ISP_Library/isp/Src/isp_algo.c **** 
 801:../Middlewares/stm32-mw-camera/ISP_Library/isp/Src/isp_algo.c ****   return ret;
 802:../Middlewares/stm32-mw-camera/ISP_Library/isp/Src/isp_algo.c **** }
 803:../Middlewares/stm32-mw-camera/ISP_Library/isp/Src/isp_algo.c **** #endif /* ISP_MW_SW_AWB_ALGO_SUPPORT */
 804:../Middlewares/stm32-mw-camera/ISP_Library/isp/Src/isp_algo.c **** 
 805:../Middlewares/stm32-mw-camera/ISP_Library/isp/Src/isp_algo.c **** #ifdef ISP_MW_TUNING_TOOL_SUPPORT
 806:../Middlewares/stm32-mw-camera/ISP_Library/isp/Src/isp_algo.c **** /**
 807:../Middlewares/stm32-mw-camera/ISP_Library/isp/Src/isp_algo.c ****   * @brief  ISP_Algo_SensorDelay_Init
 808:../Middlewares/stm32-mw-camera/ISP_Library/isp/Src/isp_algo.c ****   *         Initialize the SensorDelay algorithm
 809:../Middlewares/stm32-mw-camera/ISP_Library/isp/Src/isp_algo.c ****   * @param  hIsp:  ISP device handle. To cast in (ISP_HandleTypeDef *).
 810:../Middlewares/stm32-mw-camera/ISP_Library/isp/Src/isp_algo.c ****   * @param  pAlgo: ISP algorithm handle. To cast in (ISP_AlgoTypeDef *).
 811:../Middlewares/stm32-mw-camera/ISP_Library/isp/Src/isp_algo.c ****   * @retval operation result
 812:../Middlewares/stm32-mw-camera/ISP_Library/isp/Src/isp_algo.c ****   */
 813:../Middlewares/stm32-mw-camera/ISP_Library/isp/Src/isp_algo.c **** ISP_StatusTypeDef ISP_Algo_SensorDelay_Init(void *hIsp, void *pAlgo)
 814:../Middlewares/stm32-mw-camera/ISP_Library/isp/Src/isp_algo.c **** {
 815:../Middlewares/stm32-mw-camera/ISP_Library/isp/Src/isp_algo.c ****   (void)hIsp; /* unused */
 816:../Middlewares/stm32-mw-camera/ISP_Library/isp/Src/isp_algo.c **** 
 817:../Middlewares/stm32-mw-camera/ISP_Library/isp/Src/isp_algo.c ****   ((ISP_AlgoTypeDef *)pAlgo)->state = ISP_ALGO_STATE_INIT;
 818:../Middlewares/stm32-mw-camera/ISP_Library/isp/Src/isp_algo.c **** 
 819:../Middlewares/stm32-mw-camera/ISP_Library/isp/Src/isp_algo.c ****   return ISP_OK;
 820:../Middlewares/stm32-mw-camera/ISP_Library/isp/Src/isp_algo.c **** }
 821:../Middlewares/stm32-mw-camera/ISP_Library/isp/Src/isp_algo.c **** 
 822:../Middlewares/stm32-mw-camera/ISP_Library/isp/Src/isp_algo.c **** /**
 823:../Middlewares/stm32-mw-camera/ISP_Library/isp/Src/isp_algo.c ****   * @brief  ISP_Algo_SensorDelay_DeInit
 824:../Middlewares/stm32-mw-camera/ISP_Library/isp/Src/isp_algo.c ****   *         Deinitialize the SensorDelay algorithm
 825:../Middlewares/stm32-mw-camera/ISP_Library/isp/Src/isp_algo.c ****   * @param  hIsp:  ISP device handle. To cast in (ISP_HandleTypeDef *).
 826:../Middlewares/stm32-mw-camera/ISP_Library/isp/Src/isp_algo.c ****   * @param  pAlgo: ISP algorithm handle. To cast in (ISP_AlgoTypeDef *).
 827:../Middlewares/stm32-mw-camera/ISP_Library/isp/Src/isp_algo.c ****   * @retval operation result
 828:../Middlewares/stm32-mw-camera/ISP_Library/isp/Src/isp_algo.c ****   */
 829:../Middlewares/stm32-mw-camera/ISP_Library/isp/Src/isp_algo.c **** ISP_StatusTypeDef ISP_Algo_SensorDelay_DeInit(void *hIsp, void *pAlgo)
 830:../Middlewares/stm32-mw-camera/ISP_Library/isp/Src/isp_algo.c **** {
 831:../Middlewares/stm32-mw-camera/ISP_Library/isp/Src/isp_algo.c ****   (void)hIsp; /* unused */
 832:../Middlewares/stm32-mw-camera/ISP_Library/isp/Src/isp_algo.c **** 
 833:../Middlewares/stm32-mw-camera/ISP_Library/isp/Src/isp_algo.c ****   ((ISP_AlgoTypeDef *)pAlgo)->state = ISP_ALGO_STATE_INIT;
 834:../Middlewares/stm32-mw-camera/ISP_Library/isp/Src/isp_algo.c **** 
 835:../Middlewares/stm32-mw-camera/ISP_Library/isp/Src/isp_algo.c ****   return ISP_OK;
 836:../Middlewares/stm32-mw-camera/ISP_Library/isp/Src/isp_algo.c **** }
ARM GAS  /tmp/ccCLNRaf.s 			page 33


 837:../Middlewares/stm32-mw-camera/ISP_Library/isp/Src/isp_algo.c **** 
 838:../Middlewares/stm32-mw-camera/ISP_Library/isp/Src/isp_algo.c **** /**
 839:../Middlewares/stm32-mw-camera/ISP_Library/isp/Src/isp_algo.c ****   * @brief  ISP_Algo_SensorDelay_StatCb
 840:../Middlewares/stm32-mw-camera/ISP_Library/isp/Src/isp_algo.c ****   *         Callback informing that statistics are available
 841:../Middlewares/stm32-mw-camera/ISP_Library/isp/Src/isp_algo.c ****   * @param  pAlgo: ISP algorithm handle.
 842:../Middlewares/stm32-mw-camera/ISP_Library/isp/Src/isp_algo.c ****   * @retval operation result
 843:../Middlewares/stm32-mw-camera/ISP_Library/isp/Src/isp_algo.c ****   */
 844:../Middlewares/stm32-mw-camera/ISP_Library/isp/Src/isp_algo.c **** ISP_StatusTypeDef ISP_Algo_SensorDelay_StatCb(ISP_AlgoTypeDef *pAlgo)
 845:../Middlewares/stm32-mw-camera/ISP_Library/isp/Src/isp_algo.c **** {
 846:../Middlewares/stm32-mw-camera/ISP_Library/isp/Src/isp_algo.c ****   /* Update State */
 847:../Middlewares/stm32-mw-camera/ISP_Library/isp/Src/isp_algo.c ****   pAlgo->state = ISP_ALGO_STATE_STAT_READY;
 848:../Middlewares/stm32-mw-camera/ISP_Library/isp/Src/isp_algo.c **** 
 849:../Middlewares/stm32-mw-camera/ISP_Library/isp/Src/isp_algo.c ****   return ISP_OK;
 850:../Middlewares/stm32-mw-camera/ISP_Library/isp/Src/isp_algo.c **** }
 851:../Middlewares/stm32-mw-camera/ISP_Library/isp/Src/isp_algo.c **** 
 852:../Middlewares/stm32-mw-camera/ISP_Library/isp/Src/isp_algo.c **** /**
 853:../Middlewares/stm32-mw-camera/ISP_Library/isp/Src/isp_algo.c ****   * @brief  ISP_Algo_SensorDelay_Process
 854:../Middlewares/stm32-mw-camera/ISP_Library/isp/Src/isp_algo.c ****   *         Process the SensorDelay algorithm. Change the sensor gain and exposure and
 855:../Middlewares/stm32-mw-camera/ISP_Library/isp/Src/isp_algo.c ****   *         measure the number of frames it takes to have the frame updated.
 856:../Middlewares/stm32-mw-camera/ISP_Library/isp/Src/isp_algo.c ****   * @param  hIsp:  ISP device handle. To cast in (ISP_HandleTypeDef *).
 857:../Middlewares/stm32-mw-camera/ISP_Library/isp/Src/isp_algo.c ****   * @param  pAlgo: ISP algorithm handle. To cast in (ISP_AlgoTypeDef *).
 858:../Middlewares/stm32-mw-camera/ISP_Library/isp/Src/isp_algo.c ****   * @retval operation result
 859:../Middlewares/stm32-mw-camera/ISP_Library/isp/Src/isp_algo.c ****   */
 860:../Middlewares/stm32-mw-camera/ISP_Library/isp/Src/isp_algo.c **** ISP_StatusTypeDef ISP_Algo_SensorDelay_Process(void *hIsp, void *pAlgo)
 861:../Middlewares/stm32-mw-camera/ISP_Library/isp/Src/isp_algo.c **** {
 862:../Middlewares/stm32-mw-camera/ISP_Library/isp/Src/isp_algo.c ****   ISP_AlgoTypeDef *algo = (ISP_AlgoTypeDef *)pAlgo;
 863:../Middlewares/stm32-mw-camera/ISP_Library/isp/Src/isp_algo.c ****   ISP_SensorInfoTypeDef *pSensorInfo;
 864:../Middlewares/stm32-mw-camera/ISP_Library/isp/Src/isp_algo.c ****   ISP_IQParamTypeDef *IQParamConfig;
 865:../Middlewares/stm32-mw-camera/ISP_Library/isp/Src/isp_algo.c ****   ISP_StatusTypeDef ret = ISP_OK;
 866:../Middlewares/stm32-mw-camera/ISP_Library/isp/Src/isp_algo.c ****   uint8_t sensorDelay;
 867:../Middlewares/stm32-mw-camera/ISP_Library/isp/Src/isp_algo.c ****   int32_t avgL;
 868:../Middlewares/stm32-mw-camera/ISP_Library/isp/Src/isp_algo.c ****   uint32_t i;
 869:../Middlewares/stm32-mw-camera/ISP_Library/isp/Src/isp_algo.c ****   static int32_t refL, delay, delays[ALGO_DELAY_NB_CONFIG - 1], configId;
 870:../Middlewares/stm32-mw-camera/ISP_Library/isp/Src/isp_algo.c ****   static ISP_SensorExposureTypeDef configExposure[ALGO_DELAY_NB_CONFIG];
 871:../Middlewares/stm32-mw-camera/ISP_Library/isp/Src/isp_algo.c ****   static ISP_SensorGainTypeDef configGain[ALGO_DELAY_NB_CONFIG];
 872:../Middlewares/stm32-mw-camera/ISP_Library/isp/Src/isp_algo.c ****   static ISP_SensorExposureTypeDef prevExposureConfig;
 873:../Middlewares/stm32-mw-camera/ISP_Library/isp/Src/isp_algo.c ****   static ISP_SensorGainTypeDef prevGainConfig;
 874:../Middlewares/stm32-mw-camera/ISP_Library/isp/Src/isp_algo.c ****   static uint8_t prevAECStatus, prevAWBStatus;
 875:../Middlewares/stm32-mw-camera/ISP_Library/isp/Src/isp_algo.c ****   static ISP_SVC_StatStateTypeDef stats;
 876:../Middlewares/stm32-mw-camera/ISP_Library/isp/Src/isp_algo.c **** 
 877:../Middlewares/stm32-mw-camera/ISP_Library/isp/Src/isp_algo.c ****   if (ISP_SVC_Misc_SensorDelayMeasureIsRunning() == false)
 878:../Middlewares/stm32-mw-camera/ISP_Library/isp/Src/isp_algo.c ****   {
 879:../Middlewares/stm32-mw-camera/ISP_Library/isp/Src/isp_algo.c ****     return ISP_OK;
 880:../Middlewares/stm32-mw-camera/ISP_Library/isp/Src/isp_algo.c ****   }
 881:../Middlewares/stm32-mw-camera/ISP_Library/isp/Src/isp_algo.c **** 
 882:../Middlewares/stm32-mw-camera/ISP_Library/isp/Src/isp_algo.c ****   IQParamConfig = ISP_SVC_IQParam_Get(hIsp);
 883:../Middlewares/stm32-mw-camera/ISP_Library/isp/Src/isp_algo.c **** 
 884:../Middlewares/stm32-mw-camera/ISP_Library/isp/Src/isp_algo.c ****   switch(algo->state)
 885:../Middlewares/stm32-mw-camera/ISP_Library/isp/Src/isp_algo.c ****   {
 886:../Middlewares/stm32-mw-camera/ISP_Library/isp/Src/isp_algo.c ****   case ISP_ALGO_STATE_INIT:
 887:../Middlewares/stm32-mw-camera/ISP_Library/isp/Src/isp_algo.c ****     /* Get current AEC and AWB algo status and sensor configuration */
 888:../Middlewares/stm32-mw-camera/ISP_Library/isp/Src/isp_algo.c ****     prevAECStatus = IQParamConfig->AECAlgo.enable;
 889:../Middlewares/stm32-mw-camera/ISP_Library/isp/Src/isp_algo.c ****     prevAWBStatus = IQParamConfig->AWBAlgo.enable;
 890:../Middlewares/stm32-mw-camera/ISP_Library/isp/Src/isp_algo.c ****     ret = ISP_SVC_Sensor_GetGain(hIsp, &prevGainConfig);
 891:../Middlewares/stm32-mw-camera/ISP_Library/isp/Src/isp_algo.c ****     if (ret != ISP_OK)
 892:../Middlewares/stm32-mw-camera/ISP_Library/isp/Src/isp_algo.c ****     {
 893:../Middlewares/stm32-mw-camera/ISP_Library/isp/Src/isp_algo.c ****       return ret;
ARM GAS  /tmp/ccCLNRaf.s 			page 34


 894:../Middlewares/stm32-mw-camera/ISP_Library/isp/Src/isp_algo.c ****     }
 895:../Middlewares/stm32-mw-camera/ISP_Library/isp/Src/isp_algo.c ****     ret = ISP_SVC_Sensor_GetExposure(hIsp, &prevExposureConfig);
 896:../Middlewares/stm32-mw-camera/ISP_Library/isp/Src/isp_algo.c ****     if (ret != ISP_OK)
 897:../Middlewares/stm32-mw-camera/ISP_Library/isp/Src/isp_algo.c ****     {
 898:../Middlewares/stm32-mw-camera/ISP_Library/isp/Src/isp_algo.c ****       return ret;
 899:../Middlewares/stm32-mw-camera/ISP_Library/isp/Src/isp_algo.c ****     }
 900:../Middlewares/stm32-mw-camera/ISP_Library/isp/Src/isp_algo.c **** 
 901:../Middlewares/stm32-mw-camera/ISP_Library/isp/Src/isp_algo.c ****     /* Disable AEC and AWB algo to avoid interferences */
 902:../Middlewares/stm32-mw-camera/ISP_Library/isp/Src/isp_algo.c ****     IQParamConfig->AECAlgo.enable = false;
 903:../Middlewares/stm32-mw-camera/ISP_Library/isp/Src/isp_algo.c ****     IQParamConfig->AWBAlgo.enable = false;
 904:../Middlewares/stm32-mw-camera/ISP_Library/isp/Src/isp_algo.c **** 
 905:../Middlewares/stm32-mw-camera/ISP_Library/isp/Src/isp_algo.c ****     /* Initialize the sensor test configurations */
 906:../Middlewares/stm32-mw-camera/ISP_Library/isp/Src/isp_algo.c ****     pSensorInfo = &((ISP_HandleTypeDef*) hIsp)->sensorInfo;
 907:../Middlewares/stm32-mw-camera/ISP_Library/isp/Src/isp_algo.c ****     /* Config  0: Exposure =   0%  -  Gain =  0%
 908:../Middlewares/stm32-mw-camera/ISP_Library/isp/Src/isp_algo.c ****      *    .................. +20% ...........
 909:../Middlewares/stm32-mw-camera/ISP_Library/isp/Src/isp_algo.c ****      * Config  5: Exposure = 100%  -  Gain =  0%
 910:../Middlewares/stm32-mw-camera/ISP_Library/isp/Src/isp_algo.c ****      *    ................................. +10%
 911:../Middlewares/stm32-mw-camera/ISP_Library/isp/Src/isp_algo.c ****      * Config 11: Exposure = 100%  -  Gain = 60%
 912:../Middlewares/stm32-mw-camera/ISP_Library/isp/Src/isp_algo.c ****      */
 913:../Middlewares/stm32-mw-camera/ISP_Library/isp/Src/isp_algo.c ****     for (i = 0; i < 6; i++)
 914:../Middlewares/stm32-mw-camera/ISP_Library/isp/Src/isp_algo.c ****     {
 915:../Middlewares/stm32-mw-camera/ISP_Library/isp/Src/isp_algo.c ****       configExposure[i].exposure = i ? (pSensorInfo->exposure_max * 20 * i) / 100 : pSensorInfo->ex
 916:../Middlewares/stm32-mw-camera/ISP_Library/isp/Src/isp_algo.c ****       configGain[i].gain = pSensorInfo->gain_min;
 917:../Middlewares/stm32-mw-camera/ISP_Library/isp/Src/isp_algo.c ****       configExposure[i + 6].exposure = pSensorInfo->exposure_max;
 918:../Middlewares/stm32-mw-camera/ISP_Library/isp/Src/isp_algo.c ****       configGain[i + 6].gain = (pSensorInfo->gain_max * 10 * (i + 1)) / 100;
 919:../Middlewares/stm32-mw-camera/ISP_Library/isp/Src/isp_algo.c ****     }
 920:../Middlewares/stm32-mw-camera/ISP_Library/isp/Src/isp_algo.c **** 
 921:../Middlewares/stm32-mw-camera/ISP_Library/isp/Src/isp_algo.c ****     /* Apply first test configuration */
 922:../Middlewares/stm32-mw-camera/ISP_Library/isp/Src/isp_algo.c ****     configId = 0;
 923:../Middlewares/stm32-mw-camera/ISP_Library/isp/Src/isp_algo.c ****     ret = ISP_SVC_Sensor_SetGain(hIsp, &configGain[configId]);
 924:../Middlewares/stm32-mw-camera/ISP_Library/isp/Src/isp_algo.c ****     if (ret != ISP_OK)
 925:../Middlewares/stm32-mw-camera/ISP_Library/isp/Src/isp_algo.c ****     {
 926:../Middlewares/stm32-mw-camera/ISP_Library/isp/Src/isp_algo.c ****       return ret;
 927:../Middlewares/stm32-mw-camera/ISP_Library/isp/Src/isp_algo.c ****     }
 928:../Middlewares/stm32-mw-camera/ISP_Library/isp/Src/isp_algo.c ****     ret = ISP_SVC_Sensor_SetExposure(hIsp, &configExposure[configId]);
 929:../Middlewares/stm32-mw-camera/ISP_Library/isp/Src/isp_algo.c ****     if (ret != ISP_OK)
 930:../Middlewares/stm32-mw-camera/ISP_Library/isp/Src/isp_algo.c ****     {
 931:../Middlewares/stm32-mw-camera/ISP_Library/isp/Src/isp_algo.c ****       return ret;
 932:../Middlewares/stm32-mw-camera/ISP_Library/isp/Src/isp_algo.c ****     }
 933:../Middlewares/stm32-mw-camera/ISP_Library/isp/Src/isp_algo.c **** 
 934:../Middlewares/stm32-mw-camera/ISP_Library/isp/Src/isp_algo.c ****     /* Ask for stats lately (just to define a test starting point) */
 935:../Middlewares/stm32-mw-camera/ISP_Library/isp/Src/isp_algo.c ****     delay = 0;
 936:../Middlewares/stm32-mw-camera/ISP_Library/isp/Src/isp_algo.c ****     refL = 0;
 937:../Middlewares/stm32-mw-camera/ISP_Library/isp/Src/isp_algo.c ****     memset(delays, 0, sizeof(delays));
 938:../Middlewares/stm32-mw-camera/ISP_Library/isp/Src/isp_algo.c ****     ret = ISP_SVC_Stats_GetNext(hIsp, &ISP_Algo_SensorDelay_StatCb, pAlgo, &stats, ISP_STAT_LOC_DOW
 939:../Middlewares/stm32-mw-camera/ISP_Library/isp/Src/isp_algo.c ****     if (ret != ISP_OK)
 940:../Middlewares/stm32-mw-camera/ISP_Library/isp/Src/isp_algo.c ****     {
 941:../Middlewares/stm32-mw-camera/ISP_Library/isp/Src/isp_algo.c ****       return ret;
 942:../Middlewares/stm32-mw-camera/ISP_Library/isp/Src/isp_algo.c ****     }
 943:../Middlewares/stm32-mw-camera/ISP_Library/isp/Src/isp_algo.c **** 
 944:../Middlewares/stm32-mw-camera/ISP_Library/isp/Src/isp_algo.c ****     /* Wait for stats to be ready */
 945:../Middlewares/stm32-mw-camera/ISP_Library/isp/Src/isp_algo.c ****     algo->state = ISP_ALGO_STATE_WAITING_STAT;
 946:../Middlewares/stm32-mw-camera/ISP_Library/isp/Src/isp_algo.c ****     break;
 947:../Middlewares/stm32-mw-camera/ISP_Library/isp/Src/isp_algo.c **** 
 948:../Middlewares/stm32-mw-camera/ISP_Library/isp/Src/isp_algo.c ****   case ISP_ALGO_STATE_NEED_STAT:
 949:../Middlewares/stm32-mw-camera/ISP_Library/isp/Src/isp_algo.c ****     break;
 950:../Middlewares/stm32-mw-camera/ISP_Library/isp/Src/isp_algo.c **** 
ARM GAS  /tmp/ccCLNRaf.s 			page 35


 951:../Middlewares/stm32-mw-camera/ISP_Library/isp/Src/isp_algo.c ****   case ISP_ALGO_STATE_WAITING_STAT:
 952:../Middlewares/stm32-mw-camera/ISP_Library/isp/Src/isp_algo.c ****     /* Do nothing */
 953:../Middlewares/stm32-mw-camera/ISP_Library/isp/Src/isp_algo.c ****     break;
 954:../Middlewares/stm32-mw-camera/ISP_Library/isp/Src/isp_algo.c **** 
 955:../Middlewares/stm32-mw-camera/ISP_Library/isp/Src/isp_algo.c ****   case ISP_ALGO_STATE_STAT_READY:
 956:../Middlewares/stm32-mw-camera/ISP_Library/isp/Src/isp_algo.c ****     avgL = (int32_t)stats.down.averageL;
 957:../Middlewares/stm32-mw-camera/ISP_Library/isp/Src/isp_algo.c ****     if (configId > 0)
 958:../Middlewares/stm32-mw-camera/ISP_Library/isp/Src/isp_algo.c ****     {
 959:../Middlewares/stm32-mw-camera/ISP_Library/isp/Src/isp_algo.c ****       /* New stat available, check if Luminance has changed */
 960:../Middlewares/stm32-mw-camera/ISP_Library/isp/Src/isp_algo.c ****       delay++;
 961:../Middlewares/stm32-mw-camera/ISP_Library/isp/Src/isp_algo.c **** 
 962:../Middlewares/stm32-mw-camera/ISP_Library/isp/Src/isp_algo.c ****       if (abs(avgL- refL) <= ALGO_DELAY_L_MARGIN && delay != ALGO_DELAY_MAX)
 963:../Middlewares/stm32-mw-camera/ISP_Library/isp/Src/isp_algo.c ****       {
 964:../Middlewares/stm32-mw-camera/ISP_Library/isp/Src/isp_algo.c ****         /* No change, wait for next frame */
 965:../Middlewares/stm32-mw-camera/ISP_Library/isp/Src/isp_algo.c ****         ret = ISP_SVC_Stats_GetNext(hIsp, &ISP_Algo_SensorDelay_StatCb, pAlgo, &stats, ISP_STAT_LOC
 966:../Middlewares/stm32-mw-camera/ISP_Library/isp/Src/isp_algo.c ****         algo->state = ISP_ALGO_STATE_WAITING_STAT;
 967:../Middlewares/stm32-mw-camera/ISP_Library/isp/Src/isp_algo.c ****         return ret;
 968:../Middlewares/stm32-mw-camera/ISP_Library/isp/Src/isp_algo.c ****       }
 969:../Middlewares/stm32-mw-camera/ISP_Library/isp/Src/isp_algo.c **** 
 970:../Middlewares/stm32-mw-camera/ISP_Library/isp/Src/isp_algo.c ****       /* Luminance was updated since we applied a new sensor configuration : store the result for t
 971:../Middlewares/stm32-mw-camera/ISP_Library/isp/Src/isp_algo.c ****        * Reaching ALGO_DELAY_MAX happens when we have a totally black or white frame. The measure s
 972:../Middlewares/stm32-mw-camera/ISP_Library/isp/Src/isp_algo.c ****       delays[configId - 1] = delay;
 973:../Middlewares/stm32-mw-camera/ISP_Library/isp/Src/isp_algo.c ****     }
 974:../Middlewares/stm32-mw-camera/ISP_Library/isp/Src/isp_algo.c **** 
 975:../Middlewares/stm32-mw-camera/ISP_Library/isp/Src/isp_algo.c ****     /* New delay measure available */
 976:../Middlewares/stm32-mw-camera/ISP_Library/isp/Src/isp_algo.c ****     if (++configId != ALGO_DELAY_NB_CONFIG)
 977:../Middlewares/stm32-mw-camera/ISP_Library/isp/Src/isp_algo.c ****     {
 978:../Middlewares/stm32-mw-camera/ISP_Library/isp/Src/isp_algo.c ****       /* Apply new sensor test configuration  */
 979:../Middlewares/stm32-mw-camera/ISP_Library/isp/Src/isp_algo.c ****       ret = ISP_SVC_Sensor_SetGain(hIsp, &configGain[configId]);
 980:../Middlewares/stm32-mw-camera/ISP_Library/isp/Src/isp_algo.c ****       if (ret != ISP_OK)
 981:../Middlewares/stm32-mw-camera/ISP_Library/isp/Src/isp_algo.c ****       {
 982:../Middlewares/stm32-mw-camera/ISP_Library/isp/Src/isp_algo.c ****         return ret;
 983:../Middlewares/stm32-mw-camera/ISP_Library/isp/Src/isp_algo.c ****       }
 984:../Middlewares/stm32-mw-camera/ISP_Library/isp/Src/isp_algo.c ****       ret = ISP_SVC_Sensor_SetExposure(hIsp, &configExposure[configId]);
 985:../Middlewares/stm32-mw-camera/ISP_Library/isp/Src/isp_algo.c ****       if (ret != ISP_OK)
 986:../Middlewares/stm32-mw-camera/ISP_Library/isp/Src/isp_algo.c ****       {
 987:../Middlewares/stm32-mw-camera/ISP_Library/isp/Src/isp_algo.c ****         return ret;
 988:../Middlewares/stm32-mw-camera/ISP_Library/isp/Src/isp_algo.c ****       }
 989:../Middlewares/stm32-mw-camera/ISP_Library/isp/Src/isp_algo.c **** 
 990:../Middlewares/stm32-mw-camera/ISP_Library/isp/Src/isp_algo.c ****       /* Ask for stats at next frame */
 991:../Middlewares/stm32-mw-camera/ISP_Library/isp/Src/isp_algo.c ****       delay = 0;
 992:../Middlewares/stm32-mw-camera/ISP_Library/isp/Src/isp_algo.c ****       refL = avgL;
 993:../Middlewares/stm32-mw-camera/ISP_Library/isp/Src/isp_algo.c ****       ret = ISP_SVC_Stats_GetNext(hIsp, &ISP_Algo_SensorDelay_StatCb, pAlgo, &stats, ISP_STAT_LOC_D
 994:../Middlewares/stm32-mw-camera/ISP_Library/isp/Src/isp_algo.c ****       if (ret != ISP_OK)
 995:../Middlewares/stm32-mw-camera/ISP_Library/isp/Src/isp_algo.c ****       {
 996:../Middlewares/stm32-mw-camera/ISP_Library/isp/Src/isp_algo.c ****         return ret;
 997:../Middlewares/stm32-mw-camera/ISP_Library/isp/Src/isp_algo.c ****       }
 998:../Middlewares/stm32-mw-camera/ISP_Library/isp/Src/isp_algo.c **** 
 999:../Middlewares/stm32-mw-camera/ISP_Library/isp/Src/isp_algo.c ****       /* Wait for stats to be ready */
1000:../Middlewares/stm32-mw-camera/ISP_Library/isp/Src/isp_algo.c ****       algo->state = ISP_ALGO_STATE_WAITING_STAT;
1001:../Middlewares/stm32-mw-camera/ISP_Library/isp/Src/isp_algo.c ****     }
1002:../Middlewares/stm32-mw-camera/ISP_Library/isp/Src/isp_algo.c ****     else
1003:../Middlewares/stm32-mw-camera/ISP_Library/isp/Src/isp_algo.c ****     {
1004:../Middlewares/stm32-mw-camera/ISP_Library/isp/Src/isp_algo.c ****       /* All the configurations have been tested, finalize the test procedure */
1005:../Middlewares/stm32-mw-camera/ISP_Library/isp/Src/isp_algo.c ****       /* Find the max valid delay (ALGO_DELAY_MAX being considered as invalid) */
1006:../Middlewares/stm32-mw-camera/ISP_Library/isp/Src/isp_algo.c ****       sensorDelay = 0;
1007:../Middlewares/stm32-mw-camera/ISP_Library/isp/Src/isp_algo.c ****       for (i = 0; i < ALGO_DELAY_NB_CONFIG - 1; i++)
ARM GAS  /tmp/ccCLNRaf.s 			page 36


1008:../Middlewares/stm32-mw-camera/ISP_Library/isp/Src/isp_algo.c ****       {
1009:../Middlewares/stm32-mw-camera/ISP_Library/isp/Src/isp_algo.c ****         if ((delays[i] != ALGO_DELAY_MAX) && (delays[i] > sensorDelay))
1010:../Middlewares/stm32-mw-camera/ISP_Library/isp/Src/isp_algo.c ****         {
1011:../Middlewares/stm32-mw-camera/ISP_Library/isp/Src/isp_algo.c ****           sensorDelay = (uint8_t)delays[i];
1012:../Middlewares/stm32-mw-camera/ISP_Library/isp/Src/isp_algo.c ****         }
1013:../Middlewares/stm32-mw-camera/ISP_Library/isp/Src/isp_algo.c ****       }
1014:../Middlewares/stm32-mw-camera/ISP_Library/isp/Src/isp_algo.c **** 
1015:../Middlewares/stm32-mw-camera/ISP_Library/isp/Src/isp_algo.c ****       /* Restore initial AEC, AWB and sensor states */
1016:../Middlewares/stm32-mw-camera/ISP_Library/isp/Src/isp_algo.c ****       IQParamConfig->AECAlgo.enable = prevAECStatus;
1017:../Middlewares/stm32-mw-camera/ISP_Library/isp/Src/isp_algo.c ****       IQParamConfig->AWBAlgo.enable = prevAWBStatus;
1018:../Middlewares/stm32-mw-camera/ISP_Library/isp/Src/isp_algo.c ****       ret = ISP_SVC_Sensor_SetGain(hIsp, &prevGainConfig);
1019:../Middlewares/stm32-mw-camera/ISP_Library/isp/Src/isp_algo.c ****       if (ret != ISP_OK)
1020:../Middlewares/stm32-mw-camera/ISP_Library/isp/Src/isp_algo.c ****       {
1021:../Middlewares/stm32-mw-camera/ISP_Library/isp/Src/isp_algo.c ****         return ret;
1022:../Middlewares/stm32-mw-camera/ISP_Library/isp/Src/isp_algo.c ****       }
1023:../Middlewares/stm32-mw-camera/ISP_Library/isp/Src/isp_algo.c ****       ret = ISP_SVC_Sensor_SetExposure(hIsp, &prevExposureConfig);
1024:../Middlewares/stm32-mw-camera/ISP_Library/isp/Src/isp_algo.c ****       if (ret != ISP_OK)
1025:../Middlewares/stm32-mw-camera/ISP_Library/isp/Src/isp_algo.c ****       {
1026:../Middlewares/stm32-mw-camera/ISP_Library/isp/Src/isp_algo.c ****         return ret;
1027:../Middlewares/stm32-mw-camera/ISP_Library/isp/Src/isp_algo.c ****       }
1028:../Middlewares/stm32-mw-camera/ISP_Library/isp/Src/isp_algo.c **** 
1029:../Middlewares/stm32-mw-camera/ISP_Library/isp/Src/isp_algo.c ****       /* Apply the measure (if valid) and send answer to the remote IQTune */
1030:../Middlewares/stm32-mw-camera/ISP_Library/isp/Src/isp_algo.c ****       if (sensorDelay)
1031:../Middlewares/stm32-mw-camera/ISP_Library/isp/Src/isp_algo.c ****       {
1032:../Middlewares/stm32-mw-camera/ISP_Library/isp/Src/isp_algo.c ****         IQParamConfig->sensorDelay.delay = sensorDelay;
1033:../Middlewares/stm32-mw-camera/ISP_Library/isp/Src/isp_algo.c ****       }
1034:../Middlewares/stm32-mw-camera/ISP_Library/isp/Src/isp_algo.c ****       ret = ISP_SVC_Misc_SendSensorDelayMeasure(hIsp, (ISP_SensorDelayTypeDef *)&sensorDelay);
1035:../Middlewares/stm32-mw-camera/ISP_Library/isp/Src/isp_algo.c **** 
1036:../Middlewares/stm32-mw-camera/ISP_Library/isp/Src/isp_algo.c ****       /* Stop delay algo */
1037:../Middlewares/stm32-mw-camera/ISP_Library/isp/Src/isp_algo.c ****       ISP_SVC_Misc_SensorDelayMeasureStop();
1038:../Middlewares/stm32-mw-camera/ISP_Library/isp/Src/isp_algo.c **** 
1039:../Middlewares/stm32-mw-camera/ISP_Library/isp/Src/isp_algo.c ****       algo->state = ISP_ALGO_STATE_INIT;
1040:../Middlewares/stm32-mw-camera/ISP_Library/isp/Src/isp_algo.c ****     }
1041:../Middlewares/stm32-mw-camera/ISP_Library/isp/Src/isp_algo.c ****     break;
1042:../Middlewares/stm32-mw-camera/ISP_Library/isp/Src/isp_algo.c **** 
1043:../Middlewares/stm32-mw-camera/ISP_Library/isp/Src/isp_algo.c ****   default:
1044:../Middlewares/stm32-mw-camera/ISP_Library/isp/Src/isp_algo.c ****     printf("WARNING: Unknown Sensor Delay algo state\r\n");
1045:../Middlewares/stm32-mw-camera/ISP_Library/isp/Src/isp_algo.c ****     /* Reset state to ISP_ALGO_STATE_INIT */
1046:../Middlewares/stm32-mw-camera/ISP_Library/isp/Src/isp_algo.c ****     algo->state = ISP_ALGO_STATE_INIT;
1047:../Middlewares/stm32-mw-camera/ISP_Library/isp/Src/isp_algo.c ****     break;
1048:../Middlewares/stm32-mw-camera/ISP_Library/isp/Src/isp_algo.c ****   }
1049:../Middlewares/stm32-mw-camera/ISP_Library/isp/Src/isp_algo.c **** 
1050:../Middlewares/stm32-mw-camera/ISP_Library/isp/Src/isp_algo.c ****   return ret;
1051:../Middlewares/stm32-mw-camera/ISP_Library/isp/Src/isp_algo.c **** }
1052:../Middlewares/stm32-mw-camera/ISP_Library/isp/Src/isp_algo.c **** #endif /* ISP_MW_TUNING_TOOL_SUPPORT */
1053:../Middlewares/stm32-mw-camera/ISP_Library/isp/Src/isp_algo.c **** 
1054:../Middlewares/stm32-mw-camera/ISP_Library/isp/Src/isp_algo.c **** 
1055:../Middlewares/stm32-mw-camera/ISP_Library/isp/Src/isp_algo.c **** /**
1056:../Middlewares/stm32-mw-camera/ISP_Library/isp/Src/isp_algo.c ****   * @brief  ISP_Algo_Background_StatCb
1057:../Middlewares/stm32-mw-camera/ISP_Library/isp/Src/isp_algo.c ****   *         Callback informing that statistics are available
1058:../Middlewares/stm32-mw-camera/ISP_Library/isp/Src/isp_algo.c ****   * @param  pAlgo: ISP algorithm handle.
1059:../Middlewares/stm32-mw-camera/ISP_Library/isp/Src/isp_algo.c ****   * @retval operation result
1060:../Middlewares/stm32-mw-camera/ISP_Library/isp/Src/isp_algo.c ****   */
1061:../Middlewares/stm32-mw-camera/ISP_Library/isp/Src/isp_algo.c **** ISP_StatusTypeDef ISP_Algo_Background_StatCb(ISP_AlgoTypeDef *pAlgo)
1062:../Middlewares/stm32-mw-camera/ISP_Library/isp/Src/isp_algo.c **** {
1063:../Middlewares/stm32-mw-camera/ISP_Library/isp/Src/isp_algo.c ****   /* Update State */
1064:../Middlewares/stm32-mw-camera/ISP_Library/isp/Src/isp_algo.c ****   pAlgo->state = ISP_ALGO_STATE_STAT_READY;
ARM GAS  /tmp/ccCLNRaf.s 			page 37


1065:../Middlewares/stm32-mw-camera/ISP_Library/isp/Src/isp_algo.c **** 
1066:../Middlewares/stm32-mw-camera/ISP_Library/isp/Src/isp_algo.c ****   return ISP_OK;
1067:../Middlewares/stm32-mw-camera/ISP_Library/isp/Src/isp_algo.c **** }
1068:../Middlewares/stm32-mw-camera/ISP_Library/isp/Src/isp_algo.c **** 
1069:../Middlewares/stm32-mw-camera/ISP_Library/isp/Src/isp_algo.c **** /**
1070:../Middlewares/stm32-mw-camera/ISP_Library/isp/Src/isp_algo.c ****   * @brief  ISP_Algo_Background_Init
1071:../Middlewares/stm32-mw-camera/ISP_Library/isp/Src/isp_algo.c ****   *         Initialize the Background algorithm
1072:../Middlewares/stm32-mw-camera/ISP_Library/isp/Src/isp_algo.c ****   * @param  hIsp:  ISP device handle. To cast in (ISP_HandleTypeDef *).
1073:../Middlewares/stm32-mw-camera/ISP_Library/isp/Src/isp_algo.c ****   * @param  pAlgo: ISP algorithm handle. To cast in (ISP_AlgoTypeDef *).
1074:../Middlewares/stm32-mw-camera/ISP_Library/isp/Src/isp_algo.c ****   * @retval operation result
1075:../Middlewares/stm32-mw-camera/ISP_Library/isp/Src/isp_algo.c ****   */
1076:../Middlewares/stm32-mw-camera/ISP_Library/isp/Src/isp_algo.c **** ISP_StatusTypeDef ISP_Algo_Background_Init(void *hIsp, void *pAlgo)
1077:../Middlewares/stm32-mw-camera/ISP_Library/isp/Src/isp_algo.c **** {
1078:../Middlewares/stm32-mw-camera/ISP_Library/isp/Src/isp_algo.c ****   (void)hIsp; /* unused */
1079:../Middlewares/stm32-mw-camera/ISP_Library/isp/Src/isp_algo.c **** 
1080:../Middlewares/stm32-mw-camera/ISP_Library/isp/Src/isp_algo.c ****   ((ISP_AlgoTypeDef *)pAlgo)->state = ISP_ALGO_STATE_INIT;
1081:../Middlewares/stm32-mw-camera/ISP_Library/isp/Src/isp_algo.c **** 
1082:../Middlewares/stm32-mw-camera/ISP_Library/isp/Src/isp_algo.c ****   return ISP_OK;
1083:../Middlewares/stm32-mw-camera/ISP_Library/isp/Src/isp_algo.c **** }
1084:../Middlewares/stm32-mw-camera/ISP_Library/isp/Src/isp_algo.c **** 
1085:../Middlewares/stm32-mw-camera/ISP_Library/isp/Src/isp_algo.c **** /**
1086:../Middlewares/stm32-mw-camera/ISP_Library/isp/Src/isp_algo.c ****   * @brief  ISP_Algo_Background_DeInit
1087:../Middlewares/stm32-mw-camera/ISP_Library/isp/Src/isp_algo.c ****   *         Deinitialize the Background algorithm
1088:../Middlewares/stm32-mw-camera/ISP_Library/isp/Src/isp_algo.c ****   * @param  hIsp:  ISP device handle. To cast in (ISP_HandleTypeDef *).
1089:../Middlewares/stm32-mw-camera/ISP_Library/isp/Src/isp_algo.c ****   * @param  pAlgo: ISP algorithm handle. To cast in (ISP_AlgoTypeDef *).
1090:../Middlewares/stm32-mw-camera/ISP_Library/isp/Src/isp_algo.c ****   * @retval operation result
1091:../Middlewares/stm32-mw-camera/ISP_Library/isp/Src/isp_algo.c ****   */
1092:../Middlewares/stm32-mw-camera/ISP_Library/isp/Src/isp_algo.c **** ISP_StatusTypeDef ISP_Algo_Background_DeInit(void *hIsp, void *pAlgo)
1093:../Middlewares/stm32-mw-camera/ISP_Library/isp/Src/isp_algo.c **** {
1094:../Middlewares/stm32-mw-camera/ISP_Library/isp/Src/isp_algo.c ****   (void)hIsp; /* unused */
1095:../Middlewares/stm32-mw-camera/ISP_Library/isp/Src/isp_algo.c ****   (void)pAlgo; /* unused */
1096:../Middlewares/stm32-mw-camera/ISP_Library/isp/Src/isp_algo.c **** 
1097:../Middlewares/stm32-mw-camera/ISP_Library/isp/Src/isp_algo.c ****   return ISP_OK;
1098:../Middlewares/stm32-mw-camera/ISP_Library/isp/Src/isp_algo.c **** }
1099:../Middlewares/stm32-mw-camera/ISP_Library/isp/Src/isp_algo.c **** 
1100:../Middlewares/stm32-mw-camera/ISP_Library/isp/Src/isp_algo.c **** /**
1101:../Middlewares/stm32-mw-camera/ISP_Library/isp/Src/isp_algo.c ****   * @brief  ISP_Algo_Background_Process
1102:../Middlewares/stm32-mw-camera/ISP_Library/isp/Src/isp_algo.c ****   *         Process called in case no algorithm is enabled to collect average statistics
1103:../Middlewares/stm32-mw-camera/ISP_Library/isp/Src/isp_algo.c ****   *         for regular update
1104:../Middlewares/stm32-mw-camera/ISP_Library/isp/Src/isp_algo.c ****   * @param  hIsp:  ISP device handle. To cast in (ISP_HandleTypeDef *).
1105:../Middlewares/stm32-mw-camera/ISP_Library/isp/Src/isp_algo.c ****   * @param  pAlgo: ISP algorithm handle. To cast in (ISP_AlgoTypeDef *).
1106:../Middlewares/stm32-mw-camera/ISP_Library/isp/Src/isp_algo.c ****   * @retval operation result
1107:../Middlewares/stm32-mw-camera/ISP_Library/isp/Src/isp_algo.c ****   */
1108:../Middlewares/stm32-mw-camera/ISP_Library/isp/Src/isp_algo.c **** ISP_StatusTypeDef ISP_Algo_Background_Process(void *hIsp, void *pAlgo)
1109:../Middlewares/stm32-mw-camera/ISP_Library/isp/Src/isp_algo.c **** {
 775              		.loc 1 1109 1 is_stmt 1 view -0
 776              		.cfi_startproc
 777              		@ args = 0, pretend = 0, frame = 0
 778              		@ frame_needed = 0, uses_anonymous_args = 0
1110:../Middlewares/stm32-mw-camera/ISP_Library/isp/Src/isp_algo.c ****   static ISP_SVC_StatStateTypeDef stats;
 779              		.loc 1 1110 3 view .LVU245
1111:../Middlewares/stm32-mw-camera/ISP_Library/isp/Src/isp_algo.c ****   ISP_AlgoTypeDef *algo = (ISP_AlgoTypeDef *)pAlgo;
 780              		.loc 1 1111 3 view .LVU246
1109:../Middlewares/stm32-mw-camera/ISP_Library/isp/Src/isp_algo.c ****   static ISP_SVC_StatStateTypeDef stats;
 781              		.loc 1 1109 1 is_stmt 0 view .LVU247
 782 0000 7FB5     		push	{r0, r1, r2, r3, r4, r5, r6, lr}
 783              		.cfi_def_cfa_offset 32
ARM GAS  /tmp/ccCLNRaf.s 			page 38


 784              		.cfi_offset 4, -16
 785              		.cfi_offset 5, -12
 786              		.cfi_offset 6, -8
 787              		.cfi_offset 14, -4
1109:../Middlewares/stm32-mw-camera/ISP_Library/isp/Src/isp_algo.c ****   static ISP_SVC_StatStateTypeDef stats;
 788              		.loc 1 1109 1 view .LVU248
 789 0002 0546     		mov	r5, r0
 790 0004 0C46     		mov	r4, r1
 791              	.LVL71:
1112:../Middlewares/stm32-mw-camera/ISP_Library/isp/Src/isp_algo.c ****   ISP_IQParamTypeDef *IQParamConfig;
 792              		.loc 1 1112 3 is_stmt 1 view .LVU249
1113:../Middlewares/stm32-mw-camera/ISP_Library/isp/Src/isp_algo.c ****   ISP_StatusTypeDef ret = ISP_OK;
 793              		.loc 1 1113 3 view .LVU250
1114:../Middlewares/stm32-mw-camera/ISP_Library/isp/Src/isp_algo.c **** 
1115:../Middlewares/stm32-mw-camera/ISP_Library/isp/Src/isp_algo.c ****   IQParamConfig = ISP_SVC_IQParam_Get(hIsp);
 794              		.loc 1 1115 3 view .LVU251
 795              		.loc 1 1115 19 is_stmt 0 view .LVU252
 796 0006 FFF7FEFF 		bl	ISP_SVC_IQParam_Get
 797              	.LVL72:
1116:../Middlewares/stm32-mw-camera/ISP_Library/isp/Src/isp_algo.c **** 
1117:../Middlewares/stm32-mw-camera/ISP_Library/isp/Src/isp_algo.c **** #ifdef ISP_MW_SW_AEC_ALGO_SUPPORT
1118:../Middlewares/stm32-mw-camera/ISP_Library/isp/Src/isp_algo.c ****   if (IQParamConfig->AECAlgo.enable == true)
 798              		.loc 1 1118 3 is_stmt 1 view .LVU253
 799              		.loc 1 1118 6 is_stmt 0 view .LVU254
 800 000a 90F86830 		ldrb	r3, [r0, #104]	@ zero_extendqisi2
 801 000e 012B     		cmp	r3, #1
 802 0010 06D0     		beq	.L63
1119:../Middlewares/stm32-mw-camera/ISP_Library/isp/Src/isp_algo.c ****   {
1120:../Middlewares/stm32-mw-camera/ISP_Library/isp/Src/isp_algo.c ****     /* No need to collect other statistics for regular update*/
1121:../Middlewares/stm32-mw-camera/ISP_Library/isp/Src/isp_algo.c ****     return ISP_OK;
1122:../Middlewares/stm32-mw-camera/ISP_Library/isp/Src/isp_algo.c ****   }
1123:../Middlewares/stm32-mw-camera/ISP_Library/isp/Src/isp_algo.c **** #endif /* ISP_MW_SW_AEC_ALGO_SUPPORT */
1124:../Middlewares/stm32-mw-camera/ISP_Library/isp/Src/isp_algo.c **** #ifdef ISP_MW_SW_AWB_ALGO_SUPPORT
1125:../Middlewares/stm32-mw-camera/ISP_Library/isp/Src/isp_algo.c ****   if (IQParamConfig->AWBAlgo.enable == true)
 803              		.loc 1 1125 3 is_stmt 1 view .LVU255
 804              		.loc 1 1125 6 is_stmt 0 view .LVU256
 805 0012 90F87430 		ldrb	r3, [r0, #116]	@ zero_extendqisi2
 806 0016 012B     		cmp	r3, #1
 807 0018 02D0     		beq	.L63
1126:../Middlewares/stm32-mw-camera/ISP_Library/isp/Src/isp_algo.c ****   {
1127:../Middlewares/stm32-mw-camera/ISP_Library/isp/Src/isp_algo.c ****     /* No need to collect other statistics for regular update*/
1128:../Middlewares/stm32-mw-camera/ISP_Library/isp/Src/isp_algo.c ****     return ISP_OK;
1129:../Middlewares/stm32-mw-camera/ISP_Library/isp/Src/isp_algo.c ****   }
1130:../Middlewares/stm32-mw-camera/ISP_Library/isp/Src/isp_algo.c **** #endif /* ISP_MW_SW_AWB_ALGO_SUPPORT */
1131:../Middlewares/stm32-mw-camera/ISP_Library/isp/Src/isp_algo.c **** 
1132:../Middlewares/stm32-mw-camera/ISP_Library/isp/Src/isp_algo.c ****   switch(algo->state)
 808              		.loc 1 1132 3 is_stmt 1 view .LVU257
 809              		.loc 1 1132 14 is_stmt 0 view .LVU258
 810 001a 6378     		ldrb	r3, [r4, #1]	@ zero_extendqisi2
 811              		.loc 1 1132 3 view .LVU259
 812 001c 022B     		cmp	r3, #2
 813 001e 02D1     		bne	.L64
 814              	.LVL73:
 815              	.L63:
1109:../Middlewares/stm32-mw-camera/ISP_Library/isp/Src/isp_algo.c ****   static ISP_SVC_StatStateTypeDef stats;
 816              		.loc 1 1109 1 view .LVU260
 817 0020 0020     		movs	r0, #0
ARM GAS  /tmp/ccCLNRaf.s 			page 39


 818              	.LVL74:
 819              	.L65:
1133:../Middlewares/stm32-mw-camera/ISP_Library/isp/Src/isp_algo.c ****   {
1134:../Middlewares/stm32-mw-camera/ISP_Library/isp/Src/isp_algo.c ****   case ISP_ALGO_STATE_INIT:
1135:../Middlewares/stm32-mw-camera/ISP_Library/isp/Src/isp_algo.c ****   case ISP_ALGO_STATE_NEED_STAT:
1136:../Middlewares/stm32-mw-camera/ISP_Library/isp/Src/isp_algo.c ****     /* Ask for stats */
1137:../Middlewares/stm32-mw-camera/ISP_Library/isp/Src/isp_algo.c ****     ret = ISP_SVC_Stats_GetNext(hIsp, &ISP_Algo_Background_StatCb, pAlgo, &stats, ISP_STAT_LOC_DOWN
1138:../Middlewares/stm32-mw-camera/ISP_Library/isp/Src/isp_algo.c ****                                 ISP_STAT_TYPE_AVG, IQParamConfig->sensorDelay.delay);
1139:../Middlewares/stm32-mw-camera/ISP_Library/isp/Src/isp_algo.c ****     if (ret != ISP_OK)
1140:../Middlewares/stm32-mw-camera/ISP_Library/isp/Src/isp_algo.c ****     {
1141:../Middlewares/stm32-mw-camera/ISP_Library/isp/Src/isp_algo.c ****       return ret;
1142:../Middlewares/stm32-mw-camera/ISP_Library/isp/Src/isp_algo.c ****     }
1143:../Middlewares/stm32-mw-camera/ISP_Library/isp/Src/isp_algo.c **** 
1144:../Middlewares/stm32-mw-camera/ISP_Library/isp/Src/isp_algo.c ****     /* Wait for stats to be ready */
1145:../Middlewares/stm32-mw-camera/ISP_Library/isp/Src/isp_algo.c ****     algo->state = ISP_ALGO_STATE_WAITING_STAT;
1146:../Middlewares/stm32-mw-camera/ISP_Library/isp/Src/isp_algo.c ****     break;
1147:../Middlewares/stm32-mw-camera/ISP_Library/isp/Src/isp_algo.c **** 
1148:../Middlewares/stm32-mw-camera/ISP_Library/isp/Src/isp_algo.c ****   case ISP_ALGO_STATE_WAITING_STAT:
1149:../Middlewares/stm32-mw-camera/ISP_Library/isp/Src/isp_algo.c ****     /* Do nothing */
1150:../Middlewares/stm32-mw-camera/ISP_Library/isp/Src/isp_algo.c ****     break;
1151:../Middlewares/stm32-mw-camera/ISP_Library/isp/Src/isp_algo.c **** 
1152:../Middlewares/stm32-mw-camera/ISP_Library/isp/Src/isp_algo.c ****   case ISP_ALGO_STATE_STAT_READY:
1153:../Middlewares/stm32-mw-camera/ISP_Library/isp/Src/isp_algo.c ****     /* Ask for stats */
1154:../Middlewares/stm32-mw-camera/ISP_Library/isp/Src/isp_algo.c ****     ret = ISP_SVC_Stats_GetNext(hIsp, &ISP_Algo_Background_StatCb, pAlgo, &stats, ISP_STAT_LOC_DOWN
1155:../Middlewares/stm32-mw-camera/ISP_Library/isp/Src/isp_algo.c ****                                 ISP_STAT_TYPE_AVG, IQParamConfig->sensorDelay.delay);
1156:../Middlewares/stm32-mw-camera/ISP_Library/isp/Src/isp_algo.c **** 
1157:../Middlewares/stm32-mw-camera/ISP_Library/isp/Src/isp_algo.c ****     /* Wait for stats to be ready */
1158:../Middlewares/stm32-mw-camera/ISP_Library/isp/Src/isp_algo.c ****     algo->state = ISP_ALGO_STATE_WAITING_STAT;
1159:../Middlewares/stm32-mw-camera/ISP_Library/isp/Src/isp_algo.c ****     break;
1160:../Middlewares/stm32-mw-camera/ISP_Library/isp/Src/isp_algo.c **** 
1161:../Middlewares/stm32-mw-camera/ISP_Library/isp/Src/isp_algo.c ****   default:
1162:../Middlewares/stm32-mw-camera/ISP_Library/isp/Src/isp_algo.c ****     printf("WARNING: Unknown background algo state\r\n");
1163:../Middlewares/stm32-mw-camera/ISP_Library/isp/Src/isp_algo.c ****     /* Reset state to ISP_ALGO_STATE_INIT */
1164:../Middlewares/stm32-mw-camera/ISP_Library/isp/Src/isp_algo.c ****     algo->state = ISP_ALGO_STATE_INIT;
1165:../Middlewares/stm32-mw-camera/ISP_Library/isp/Src/isp_algo.c ****     break;
1166:../Middlewares/stm32-mw-camera/ISP_Library/isp/Src/isp_algo.c **** 
1167:../Middlewares/stm32-mw-camera/ISP_Library/isp/Src/isp_algo.c ****   }
1168:../Middlewares/stm32-mw-camera/ISP_Library/isp/Src/isp_algo.c **** 
1169:../Middlewares/stm32-mw-camera/ISP_Library/isp/Src/isp_algo.c ****   return ret;
1170:../Middlewares/stm32-mw-camera/ISP_Library/isp/Src/isp_algo.c **** }
 820              		.loc 1 1170 1 view .LVU261
 821 0022 04B0     		add	sp, sp, #16
 822              		.cfi_remember_state
 823              		.cfi_def_cfa_offset 16
 824              		@ sp needed
 825 0024 70BD     		pop	{r4, r5, r6, pc}
 826              	.LVL75:
 827              	.L64:
 828              		.cfi_restore_state
1132:../Middlewares/stm32-mw-camera/ISP_Library/isp/Src/isp_algo.c ****   {
 829              		.loc 1 1132 3 view .LVU262
 830 0026 07D9     		bls	.L66
 831 0028 032B     		cmp	r3, #3
 832 002a 16D0     		beq	.L67
1162:../Middlewares/stm32-mw-camera/ISP_Library/isp/Src/isp_algo.c ****     /* Reset state to ISP_ALGO_STATE_INIT */
 833              		.loc 1 1162 5 is_stmt 1 view .LVU263
 834 002c 1248     		ldr	r0, .L78
ARM GAS  /tmp/ccCLNRaf.s 			page 40


 835              	.LVL76:
1162:../Middlewares/stm32-mw-camera/ISP_Library/isp/Src/isp_algo.c ****     /* Reset state to ISP_ALGO_STATE_INIT */
 836              		.loc 1 1162 5 is_stmt 0 view .LVU264
 837 002e FFF7FEFF 		bl	puts
 838              	.LVL77:
1164:../Middlewares/stm32-mw-camera/ISP_Library/isp/Src/isp_algo.c ****     break;
 839              		.loc 1 1164 5 is_stmt 1 view .LVU265
1164:../Middlewares/stm32-mw-camera/ISP_Library/isp/Src/isp_algo.c ****     break;
 840              		.loc 1 1164 17 is_stmt 0 view .LVU266
 841 0032 0023     		movs	r3, #0
 842 0034 6370     		strb	r3, [r4, #1]
1165:../Middlewares/stm32-mw-camera/ISP_Library/isp/Src/isp_algo.c **** 
 843              		.loc 1 1165 5 is_stmt 1 view .LVU267
 844 0036 F3E7     		b	.L63
 845              	.LVL78:
 846              	.L66:
1137:../Middlewares/stm32-mw-camera/ISP_Library/isp/Src/isp_algo.c ****                                 ISP_STAT_TYPE_AVG, IQParamConfig->sensorDelay.delay);
 847              		.loc 1 1137 5 view .LVU268
1137:../Middlewares/stm32-mw-camera/ISP_Library/isp/Src/isp_algo.c ****                                 ISP_STAT_TYPE_AVG, IQParamConfig->sensorDelay.delay);
 848              		.loc 1 1137 11 is_stmt 0 view .LVU269
 849 0038 90F86532 		ldrb	r3, [r0, #613]	@ zero_extendqisi2
 850 003c 0226     		movs	r6, #2
 851 003e 0293     		str	r3, [sp, #8]
 852 0040 0123     		movs	r3, #1
 853 0042 2246     		mov	r2, r4
 854 0044 CDE90063 		strd	r6, r3, [sp]
 855 0048 2846     		mov	r0, r5
 856              	.LVL79:
1137:../Middlewares/stm32-mw-camera/ISP_Library/isp/Src/isp_algo.c ****                                 ISP_STAT_TYPE_AVG, IQParamConfig->sensorDelay.delay);
 857              		.loc 1 1137 11 view .LVU270
 858 004a 0C4B     		ldr	r3, .L78+4
 859 004c 0C49     		ldr	r1, .L78+8
 860 004e FFF7FEFF 		bl	ISP_SVC_Stats_GetNext
 861              	.LVL80:
1139:../Middlewares/stm32-mw-camera/ISP_Library/isp/Src/isp_algo.c ****     {
 862              		.loc 1 1139 5 is_stmt 1 view .LVU271
1139:../Middlewares/stm32-mw-camera/ISP_Library/isp/Src/isp_algo.c ****     {
 863              		.loc 1 1139 8 is_stmt 0 view .LVU272
 864 0052 0028     		cmp	r0, #0
 865 0054 E5D1     		bne	.L65
 866              	.LVL81:
 867              	.L77:
1158:../Middlewares/stm32-mw-camera/ISP_Library/isp/Src/isp_algo.c ****     break;
 868              		.loc 1 1158 5 is_stmt 1 view .LVU273
1158:../Middlewares/stm32-mw-camera/ISP_Library/isp/Src/isp_algo.c ****     break;
 869              		.loc 1 1158 17 is_stmt 0 view .LVU274
 870 0056 6670     		strb	r6, [r4, #1]
1159:../Middlewares/stm32-mw-camera/ISP_Library/isp/Src/isp_algo.c **** 
 871              		.loc 1 1159 5 is_stmt 1 view .LVU275
 872 0058 E3E7     		b	.L65
 873              	.LVL82:
 874              	.L67:
1154:../Middlewares/stm32-mw-camera/ISP_Library/isp/Src/isp_algo.c ****                                 ISP_STAT_TYPE_AVG, IQParamConfig->sensorDelay.delay);
 875              		.loc 1 1154 5 view .LVU276
1154:../Middlewares/stm32-mw-camera/ISP_Library/isp/Src/isp_algo.c ****                                 ISP_STAT_TYPE_AVG, IQParamConfig->sensorDelay.delay);
 876              		.loc 1 1154 11 is_stmt 0 view .LVU277
 877 005a 90F86532 		ldrb	r3, [r0, #613]	@ zero_extendqisi2
ARM GAS  /tmp/ccCLNRaf.s 			page 41


 878 005e 0226     		movs	r6, #2
 879 0060 0293     		str	r3, [sp, #8]
 880 0062 0123     		movs	r3, #1
 881 0064 2246     		mov	r2, r4
 882 0066 CDE90063 		strd	r6, r3, [sp]
 883 006a 2846     		mov	r0, r5
 884              	.LVL83:
1154:../Middlewares/stm32-mw-camera/ISP_Library/isp/Src/isp_algo.c ****                                 ISP_STAT_TYPE_AVG, IQParamConfig->sensorDelay.delay);
 885              		.loc 1 1154 11 view .LVU278
 886 006c 034B     		ldr	r3, .L78+4
 887 006e 0449     		ldr	r1, .L78+8
 888 0070 FFF7FEFF 		bl	ISP_SVC_Stats_GetNext
 889              	.LVL84:
 890 0074 EFE7     		b	.L77
 891              	.L79:
 892 0076 00BF     		.align	2
 893              	.L78:
 894 0078 00000000 		.word	.LC2
 895 007c 00000000 		.word	stats.0
 896 0080 00000000 		.word	ISP_Algo_Background_StatCb
 897              		.cfi_endproc
 898              	.LFE900:
 900              		.section	.text.ISP_Algo_AWB_Init,"ax",%progbits
 901              		.align	1
 902              		.global	ISP_Algo_AWB_Init
 903              		.syntax unified
 904              		.thumb
 905              		.thumb_func
 907              	ISP_Algo_AWB_Init:
 908              	.LVL85:
 909              	.LFB893:
 594:../Middlewares/stm32-mw-camera/ISP_Library/isp/Src/isp_algo.c ****   (void)hIsp; /* unused */
 910              		.loc 1 594 1 is_stmt 1 view -0
 911              		.cfi_startproc
 912              		@ args = 0, pretend = 0, frame = 0
 913              		@ frame_needed = 0, uses_anonymous_args = 0
 595:../Middlewares/stm32-mw-camera/ISP_Library/isp/Src/isp_algo.c ****   ISP_AlgoTypeDef *algo = (ISP_AlgoTypeDef *)pAlgo;
 914              		.loc 1 595 3 view .LVU280
 596:../Middlewares/stm32-mw-camera/ISP_Library/isp/Src/isp_algo.c ****   ISP_RestartStateTypeDef *pRestartState;
 915              		.loc 1 596 3 view .LVU281
 594:../Middlewares/stm32-mw-camera/ISP_Library/isp/Src/isp_algo.c ****   (void)hIsp; /* unused */
 916              		.loc 1 594 1 is_stmt 0 view .LVU282
 917 0000 70B5     		push	{r4, r5, r6, lr}
 918              		.cfi_def_cfa_offset 16
 919              		.cfi_offset 4, -16
 920              		.cfi_offset 5, -12
 921              		.cfi_offset 6, -8
 922              		.cfi_offset 14, -4
 594:../Middlewares/stm32-mw-camera/ISP_Library/isp/Src/isp_algo.c ****   (void)hIsp; /* unused */
 923              		.loc 1 594 1 view .LVU283
 924 0002 0546     		mov	r5, r0
 925 0004 0E46     		mov	r6, r1
 926              	.LVL86:
 597:../Middlewares/stm32-mw-camera/ISP_Library/isp/Src/isp_algo.c **** 
 927              		.loc 1 597 3 is_stmt 1 view .LVU284
 599:../Middlewares/stm32-mw-camera/ISP_Library/isp/Src/isp_algo.c ****   if (pRestartState && pRestartState->awbConfigured)
 928              		.loc 1 599 3 view .LVU285
ARM GAS  /tmp/ccCLNRaf.s 			page 42


 599:../Middlewares/stm32-mw-camera/ISP_Library/isp/Src/isp_algo.c ****   if (pRestartState && pRestartState->awbConfigured)
 929              		.loc 1 599 19 is_stmt 0 view .LVU286
 930 0006 FFF7FEFF 		bl	ISP_SVC_GetRestartState
 931              	.LVL87:
 600:../Middlewares/stm32-mw-camera/ISP_Library/isp/Src/isp_algo.c ****   {
 932              		.loc 1 600 3 is_stmt 1 view .LVU287
 600:../Middlewares/stm32-mw-camera/ISP_Library/isp/Src/isp_algo.c ****   {
 933              		.loc 1 600 6 is_stmt 0 view .LVU288
 934 000a 0446     		mov	r4, r0
 935 000c 58B1     		cbz	r0, .L81
 600:../Middlewares/stm32-mw-camera/ISP_Library/isp/Src/isp_algo.c ****   {
 936              		.loc 1 600 21 discriminator 1 view .LVU289
 937 000e 037B     		ldrb	r3, [r0, #12]	@ zero_extendqisi2
 938 0010 4BB1     		cbz	r3, .L81
 603:../Middlewares/stm32-mw-camera/ISP_Library/isp/Src/isp_algo.c ****     ISP_SVC_ISP_SetGain(hIsp, &pRestartState->ISPGain);
 939              		.loc 1 603 5 is_stmt 1 view .LVU290
 940 0012 00F11001 		add	r1, r0, #16
 941 0016 2846     		mov	r0, r5
 942              	.LVL88:
 603:../Middlewares/stm32-mw-camera/ISP_Library/isp/Src/isp_algo.c ****     ISP_SVC_ISP_SetGain(hIsp, &pRestartState->ISPGain);
 943              		.loc 1 603 5 is_stmt 0 view .LVU291
 944 0018 FFF7FEFF 		bl	ISP_SVC_ISP_SetColorConv
 945              	.LVL89:
 604:../Middlewares/stm32-mw-camera/ISP_Library/isp/Src/isp_algo.c ****   }
 946              		.loc 1 604 5 is_stmt 1 view .LVU292
 947 001c 2846     		mov	r0, r5
 948 001e 04F13801 		add	r1, r4, #56
 949 0022 FFF7FEFF 		bl	ISP_SVC_ISP_SetGain
 950              	.LVL90:
 951              	.L81:
 609:../Middlewares/stm32-mw-camera/ISP_Library/isp/Src/isp_algo.c **** 
 952              		.loc 1 609 3 view .LVU293
 609:../Middlewares/stm32-mw-camera/ISP_Library/isp/Src/isp_algo.c **** 
 953              		.loc 1 609 15 is_stmt 0 view .LVU294
 954 0026 0020     		movs	r0, #0
 955 0028 7070     		strb	r0, [r6, #1]
 611:../Middlewares/stm32-mw-camera/ISP_Library/isp/Src/isp_algo.c **** }
 956              		.loc 1 611 3 is_stmt 1 view .LVU295
 612:../Middlewares/stm32-mw-camera/ISP_Library/isp/Src/isp_algo.c **** 
 957              		.loc 1 612 1 is_stmt 0 view .LVU296
 958 002a 70BD     		pop	{r4, r5, r6, pc}
 612:../Middlewares/stm32-mw-camera/ISP_Library/isp/Src/isp_algo.c **** 
 959              		.loc 1 612 1 view .LVU297
 960              		.cfi_endproc
 961              	.LFE893:
 963              		.section	.rodata.ISP_Algo_AWB_Process.str1.1,"aMS",%progbits,1
 964              	.LC3:
 965 0000 5741524E 		.ascii	"WARNING: Unknown AWB algo state\015\000"
 965      494E473A 
 965      20556E6B 
 965      6E6F776E 
 965      20415742 
 966              		.section	.text.ISP_Algo_AWB_Process,"ax",%progbits
 967              		.align	1
 968              		.global	ISP_Algo_AWB_Process
 969              		.syntax unified
 970              		.thumb
ARM GAS  /tmp/ccCLNRaf.s 			page 43


 971              		.thumb_func
 973              	ISP_Algo_AWB_Process:
 974              	.LVL91:
 975              	.LFB896:
 655:../Middlewares/stm32-mw-camera/ISP_Library/isp/Src/isp_algo.c ****   static ISP_SVC_StatStateTypeDef stats;
 976              		.loc 1 655 1 is_stmt 1 view -0
 977              		.cfi_startproc
 978              		@ args = 0, pretend = 0, frame = 64
 979              		@ frame_needed = 0, uses_anonymous_args = 0
 656:../Middlewares/stm32-mw-camera/ISP_Library/isp/Src/isp_algo.c ****   static uint8_t enableCurrent = false;
 980              		.loc 1 656 3 view .LVU299
 657:../Middlewares/stm32-mw-camera/ISP_Library/isp/Src/isp_algo.c ****   static uint8_t reconfigureRequest = false;
 981              		.loc 1 657 3 view .LVU300
 658:../Middlewares/stm32-mw-camera/ISP_Library/isp/Src/isp_algo.c ****   static uint32_t currentColorTemp = 0;
 982              		.loc 1 658 3 view .LVU301
 659:../Middlewares/stm32-mw-camera/ISP_Library/isp/Src/isp_algo.c ****   ISP_IQParamTypeDef *IQParamConfig;
 983              		.loc 1 659 3 view .LVU302
 660:../Middlewares/stm32-mw-camera/ISP_Library/isp/Src/isp_algo.c ****   ISP_RestartStateTypeDef *pRestartState;
 984              		.loc 1 660 3 view .LVU303
 661:../Middlewares/stm32-mw-camera/ISP_Library/isp/Src/isp_algo.c ****   ISP_ColorConvTypeDef ColorConvConfig;
 985              		.loc 1 661 3 view .LVU304
 662:../Middlewares/stm32-mw-camera/ISP_Library/isp/Src/isp_algo.c ****   ISP_ISPGainTypeDef ISPGainConfig;
 986              		.loc 1 662 3 view .LVU305
 663:../Middlewares/stm32-mw-camera/ISP_Library/isp/Src/isp_algo.c ****   ISP_AlgoTypeDef *algo = (ISP_AlgoTypeDef *)pAlgo;
 987              		.loc 1 663 3 view .LVU306
 664:../Middlewares/stm32-mw-camera/ISP_Library/isp/Src/isp_algo.c ****   ISP_StatusTypeDef ret_stat, ret = ISP_OK;
 988              		.loc 1 664 3 view .LVU307
 666:../Middlewares/stm32-mw-camera/ISP_Library/isp/Src/isp_algo.c **** 
 989              		.loc 1 666 12 is_stmt 0 view .LVU308
 990 0000 0023     		movs	r3, #0
 655:../Middlewares/stm32-mw-camera/ISP_Library/isp/Src/isp_algo.c ****   static ISP_SVC_StatStateTypeDef stats;
 991              		.loc 1 655 1 view .LVU309
 992 0002 2DE9F047 		push	{r4, r5, r6, r7, r8, r9, r10, lr}
 993              		.cfi_def_cfa_offset 32
 994              		.cfi_offset 4, -32
 995              		.cfi_offset 5, -28
 996              		.cfi_offset 6, -24
 997              		.cfi_offset 7, -20
 998              		.cfi_offset 8, -16
 999              		.cfi_offset 9, -12
 1000              		.cfi_offset 10, -8
 1001              		.cfi_offset 14, -4
 1002 0006 94B0     		sub	sp, sp, #80
 1003              		.cfi_def_cfa_offset 112
 666:../Middlewares/stm32-mw-camera/ISP_Library/isp/Src/isp_algo.c **** 
 1004              		.loc 1 666 12 view .LVU310
 1005 0008 0593     		str	r3, [sp, #20]
 655:../Middlewares/stm32-mw-camera/ISP_Library/isp/Src/isp_algo.c ****   static ISP_SVC_StatStateTypeDef stats;
 1006              		.loc 1 655 1 view .LVU311
 1007 000a 0746     		mov	r7, r0
 1008 000c 0E46     		mov	r6, r1
 1009              	.LVL92:
 665:../Middlewares/stm32-mw-camera/ISP_Library/isp/Src/isp_algo.c ****   uint32_t estimatedColorTemp = 0;
 1010              		.loc 1 665 3 is_stmt 1 view .LVU312
 666:../Middlewares/stm32-mw-camera/ISP_Library/isp/Src/isp_algo.c **** 
 1011              		.loc 1 666 3 view .LVU313
 668:../Middlewares/stm32-mw-camera/ISP_Library/isp/Src/isp_algo.c **** 
ARM GAS  /tmp/ccCLNRaf.s 			page 44


 1012              		.loc 1 668 3 view .LVU314
 668:../Middlewares/stm32-mw-camera/ISP_Library/isp/Src/isp_algo.c **** 
 1013              		.loc 1 668 19 is_stmt 0 view .LVU315
 1014 000e FFF7FEFF 		bl	ISP_SVC_IQParam_Get
 1015              	.LVL93:
 670:../Middlewares/stm32-mw-camera/ISP_Library/isp/Src/isp_algo.c ****   {
 1016              		.loc 1 670 3 is_stmt 1 view .LVU316
 670:../Middlewares/stm32-mw-camera/ISP_Library/isp/Src/isp_algo.c ****   {
 1017              		.loc 1 670 29 is_stmt 0 view .LVU317
 1018 0012 90F87420 		ldrb	r2, [r0, #116]	@ zero_extendqisi2
 1019 0016 4B4B     		ldr	r3, .L123
 670:../Middlewares/stm32-mw-camera/ISP_Library/isp/Src/isp_algo.c ****   {
 1020              		.loc 1 670 6 view .LVU318
 1021 0018 22B9     		cbnz	r2, .L89
 672:../Middlewares/stm32-mw-camera/ISP_Library/isp/Src/isp_algo.c ****     return ISP_OK;
 1022              		.loc 1 672 5 is_stmt 1 view .LVU319
 672:../Middlewares/stm32-mw-camera/ISP_Library/isp/Src/isp_algo.c ****     return ISP_OK;
 1023              		.loc 1 672 19 is_stmt 0 view .LVU320
 1024 001a 1A70     		strb	r2, [r3]
 673:../Middlewares/stm32-mw-camera/ISP_Library/isp/Src/isp_algo.c ****   }
 1025              		.loc 1 673 5 is_stmt 1 view .LVU321
 1026              	.LVL94:
 1027              	.L90:
 673:../Middlewares/stm32-mw-camera/ISP_Library/isp/Src/isp_algo.c ****   }
 1028              		.loc 1 673 12 is_stmt 0 view .LVU322
 1029 001c 0020     		movs	r0, #0
 1030              	.LVL95:
 1031              	.L91:
 802:../Middlewares/stm32-mw-camera/ISP_Library/isp/Src/isp_algo.c **** #endif /* ISP_MW_SW_AWB_ALGO_SUPPORT */
 1032              		.loc 1 802 1 view .LVU323
 1033 001e 14B0     		add	sp, sp, #80
 1034              		.cfi_remember_state
 1035              		.cfi_def_cfa_offset 32
 1036              		@ sp needed
 1037 0020 BDE8F087 		pop	{r4, r5, r6, r7, r8, r9, r10, pc}
 1038              	.LVL96:
 1039              	.L89:
 1040              		.cfi_restore_state
 675:../Middlewares/stm32-mw-camera/ISP_Library/isp/Src/isp_algo.c ****   {
 1041              		.loc 1 675 8 is_stmt 1 view .LVU324
 675:../Middlewares/stm32-mw-camera/ISP_Library/isp/Src/isp_algo.c ****   {
 1042              		.loc 1 675 11 is_stmt 0 view .LVU325
 1043 0024 1978     		ldrb	r1, [r3]	@ zero_extendqisi2
 1044 0026 09B1     		cbz	r1, .L92
 675:../Middlewares/stm32-mw-camera/ISP_Library/isp/Src/isp_algo.c ****   {
 1045              		.loc 1 675 37 discriminator 1 view .LVU326
 1046 0028 FF2A     		cmp	r2, #255
 1047 002a 07D1     		bne	.L93
 1048              	.L92:
 678:../Middlewares/stm32-mw-camera/ISP_Library/isp/Src/isp_algo.c ****     IQParamConfig->AWBAlgo.enable = true;
 1049              		.loc 1 678 5 is_stmt 1 view .LVU327
 678:../Middlewares/stm32-mw-camera/ISP_Library/isp/Src/isp_algo.c ****     IQParamConfig->AWBAlgo.enable = true;
 1050              		.loc 1 678 17 is_stmt 0 view .LVU328
 1051 002c 0022     		movs	r2, #0
 1052 002e 7270     		strb	r2, [r6, #1]
 679:../Middlewares/stm32-mw-camera/ISP_Library/isp/Src/isp_algo.c ****     reconfigureRequest = true;
 1053              		.loc 1 679 5 is_stmt 1 view .LVU329
ARM GAS  /tmp/ccCLNRaf.s 			page 45


 679:../Middlewares/stm32-mw-camera/ISP_Library/isp/Src/isp_algo.c ****     reconfigureRequest = true;
 1054              		.loc 1 679 35 is_stmt 0 view .LVU330
 1055 0030 0122     		movs	r2, #1
 680:../Middlewares/stm32-mw-camera/ISP_Library/isp/Src/isp_algo.c ****     enableCurrent = true;
 1056              		.loc 1 680 24 view .LVU331
 1057 0032 4549     		ldr	r1, .L123+4
 679:../Middlewares/stm32-mw-camera/ISP_Library/isp/Src/isp_algo.c ****     reconfigureRequest = true;
 1058              		.loc 1 679 35 view .LVU332
 1059 0034 80F87420 		strb	r2, [r0, #116]
 680:../Middlewares/stm32-mw-camera/ISP_Library/isp/Src/isp_algo.c ****     enableCurrent = true;
 1060              		.loc 1 680 5 is_stmt 1 view .LVU333
 680:../Middlewares/stm32-mw-camera/ISP_Library/isp/Src/isp_algo.c ****     enableCurrent = true;
 1061              		.loc 1 680 24 is_stmt 0 view .LVU334
 1062 0038 0A70     		strb	r2, [r1]
 681:../Middlewares/stm32-mw-camera/ISP_Library/isp/Src/isp_algo.c ****   }
 1063              		.loc 1 681 5 is_stmt 1 view .LVU335
 681:../Middlewares/stm32-mw-camera/ISP_Library/isp/Src/isp_algo.c ****   }
 1064              		.loc 1 681 19 is_stmt 0 view .LVU336
 1065 003a 1A70     		strb	r2, [r3]
 1066              	.L93:
 684:../Middlewares/stm32-mw-camera/ISP_Library/isp/Src/isp_algo.c ****   {
 1067              		.loc 1 684 3 is_stmt 1 view .LVU337
 1068 003c 7378     		ldrb	r3, [r6, #1]	@ zero_extendqisi2
 1069 003e 032B     		cmp	r3, #3
 1070 0040 7AD8     		bhi	.L94
 1071 0042 01A2     		adr	r2, .L96
 1072 0044 52F823F0 		ldr	pc, [r2, r3, lsl #2]
 1073              		.p2align 2
 1074              	.L96:
 1075 0048 59000000 		.word	.L98+1
 1076 004c 63000000 		.word	.L97+1
 1077 0050 1D000000 		.word	.L90+1
 1078 0054 83000000 		.word	.L95+1
 1079              		.p2align 1
 1080              	.L98:
 687:../Middlewares/stm32-mw-camera/ISP_Library/isp/Src/isp_algo.c ****     if (ret != ISP_OK)
 1081              		.loc 1 687 5 view .LVU338
 687:../Middlewares/stm32-mw-camera/ISP_Library/isp/Src/isp_algo.c ****     if (ret != ISP_OK)
 1082              		.loc 1 687 11 is_stmt 0 view .LVU339
 1083 0058 7430     		adds	r0, r0, #116
 1084              	.LVL97:
 687:../Middlewares/stm32-mw-camera/ISP_Library/isp/Src/isp_algo.c ****     if (ret != ISP_OK)
 1085              		.loc 1 687 11 view .LVU340
 1086 005a FFF7FEFF 		bl	ISP_AWB_Init
 1087              	.LVL98:
 688:../Middlewares/stm32-mw-camera/ISP_Library/isp/Src/isp_algo.c ****     {
 1088              		.loc 1 688 5 is_stmt 1 view .LVU341
 688:../Middlewares/stm32-mw-camera/ISP_Library/isp/Src/isp_algo.c ****     {
 1089              		.loc 1 688 8 is_stmt 0 view .LVU342
 1090 005e 0028     		cmp	r0, #0
 1091 0060 DDD1     		bne	.L91
 1092              	.LVL99:
 1093              	.L97:
 706:../Middlewares/stm32-mw-camera/ISP_Library/isp/Src/isp_algo.c ****                                 ISP_STAT_TYPE_AVG, ALGO_ISP_LATENCY + ALGO_AWB_ADDITIONAL_LATENCY);
 1094              		.loc 1 706 5 is_stmt 1 view .LVU343
 706:../Middlewares/stm32-mw-camera/ISP_Library/isp/Src/isp_algo.c ****                                 ISP_STAT_TYPE_AVG, ALGO_ISP_LATENCY + ALGO_AWB_ADDITIONAL_LATENCY);
 1095              		.loc 1 706 11 is_stmt 0 view .LVU344
ARM GAS  /tmp/ccCLNRaf.s 			page 46


 1096 0062 0123     		movs	r3, #1
 1097 0064 0521     		movs	r1, #5
 1098 0066 0224     		movs	r4, #2
 1099 0068 CDE90131 		strd	r3, r1, [sp, #4]
 1100 006c 3246     		mov	r2, r6
 1101 006e 3846     		mov	r0, r7
 1102 0070 364B     		ldr	r3, .L123+8
 1103 0072 3749     		ldr	r1, .L123+12
 1104 0074 0094     		str	r4, [sp]
 1105 0076 FFF7FEFF 		bl	ISP_SVC_Stats_GetNext
 1106              	.LVL100:
 708:../Middlewares/stm32-mw-camera/ISP_Library/isp/Src/isp_algo.c ****     {
 1107              		.loc 1 708 5 is_stmt 1 view .LVU345
 708:../Middlewares/stm32-mw-camera/ISP_Library/isp/Src/isp_algo.c ****     {
 1108              		.loc 1 708 8 is_stmt 0 view .LVU346
 1109 007a 0028     		cmp	r0, #0
 1110 007c CFD1     		bne	.L91
 1111              	.LVL101:
 1112              	.L121:
 791:../Middlewares/stm32-mw-camera/ISP_Library/isp/Src/isp_algo.c ****     break;
 1113              		.loc 1 791 5 is_stmt 1 view .LVU347
 791:../Middlewares/stm32-mw-camera/ISP_Library/isp/Src/isp_algo.c ****     break;
 1114              		.loc 1 791 17 is_stmt 0 view .LVU348
 1115 007e 7470     		strb	r4, [r6, #1]
 792:../Middlewares/stm32-mw-camera/ISP_Library/isp/Src/isp_algo.c **** 
 1116              		.loc 1 792 5 is_stmt 1 view .LVU349
 1117 0080 CDE7     		b	.L91
 1118              	.LVL102:
 1119              	.L95:
 729:../Middlewares/stm32-mw-camera/ISP_Library/isp/Src/isp_algo.c **** 
 1120              		.loc 1 729 5 view .LVU350
 1121 0082 324A     		ldr	r2, .L123+8
 1122 0084 3846     		mov	r0, r7
 1123              	.LVL103:
 729:../Middlewares/stm32-mw-camera/ISP_Library/isp/Src/isp_algo.c **** 
 1124              		.loc 1 729 5 is_stmt 0 view .LVU351
 1125 0086 02F13401 		add	r1, r2, #52
 731:../Middlewares/stm32-mw-camera/ISP_Library/isp/Src/isp_algo.c **** #ifdef ALGO_PERF_DBG_LOGS
 1126              		.loc 1 731 11 view .LVU352
 1127 008a 0DF11808 		add	r8, sp, #24
 729:../Middlewares/stm32-mw-camera/ISP_Library/isp/Src/isp_algo.c **** 
 1128              		.loc 1 729 5 view .LVU353
 1129 008e FFF7FEFF 		bl	ISP_SVC_Stats_EvaluateUp
 1130              	.LVL104:
 731:../Middlewares/stm32-mw-camera/ISP_Library/isp/Src/isp_algo.c **** #ifdef ALGO_PERF_DBG_LOGS
 1131              		.loc 1 731 5 is_stmt 1 view .LVU354
 731:../Middlewares/stm32-mw-camera/ISP_Library/isp/Src/isp_algo.c **** #ifdef ALGO_PERF_DBG_LOGS
 1132              		.loc 1 731 11 is_stmt 0 view .LVU355
 1133 0092 4246     		mov	r2, r8
 1134 0094 2D48     		ldr	r0, .L123+8
 1135 0096 05AB     		add	r3, sp, #20
 1136 0098 0AA9     		add	r1, sp, #40
 1137 009a FFF7FEFF 		bl	ISP_AWB_GetConfig
 1138              	.LVL105:
 735:../Middlewares/stm32-mw-camera/ISP_Library/isp/Src/isp_algo.c ****     {
 1139              		.loc 1 735 5 is_stmt 1 view .LVU356
 1140 009e DFF8A8A0 		ldr	r10, .L123+4
ARM GAS  /tmp/ccCLNRaf.s 			page 47


 735:../Middlewares/stm32-mw-camera/ISP_Library/isp/Src/isp_algo.c ****     {
 1141              		.loc 1 735 8 is_stmt 0 view .LVU357
 1142 00a2 8146     		mov	r9, r0
 1143 00a4 A8B1     		cbz	r0, .L101
 1144              	.L105:
 764:../Middlewares/stm32-mw-camera/ISP_Library/isp/Src/isp_algo.c ****     }
 1145              		.loc 1 764 11 view .LVU358
 1146 00a6 4FF0BE09 		mov	r9, #190
 1147              	.LVL106:
 1148              	.L102:
 768:../Middlewares/stm32-mw-camera/ISP_Library/isp/Src/isp_algo.c **** 
 1149              		.loc 1 768 5 is_stmt 1 view .LVU359
 768:../Middlewares/stm32-mw-camera/ISP_Library/isp/Src/isp_algo.c **** 
 1150              		.loc 1 768 24 is_stmt 0 view .LVU360
 1151 00aa 0023     		movs	r3, #0
 786:../Middlewares/stm32-mw-camera/ISP_Library/isp/Src/isp_algo.c ****                                      ISP_STAT_TYPE_AVG, ALGO_ISP_LATENCY + ALGO_AWB_ADDITIONAL_LATE
 1152              		.loc 1 786 16 view .LVU361
 1153 00ac 0522     		movs	r2, #5
 768:../Middlewares/stm32-mw-camera/ISP_Library/isp/Src/isp_algo.c **** 
 1154              		.loc 1 768 24 view .LVU362
 1155 00ae 8AF80030 		strb	r3, [r10]
 786:../Middlewares/stm32-mw-camera/ISP_Library/isp/Src/isp_algo.c ****                                      ISP_STAT_TYPE_AVG, ALGO_ISP_LATENCY + ALGO_AWB_ADDITIONAL_LATE
 1156              		.loc 1 786 5 is_stmt 1 view .LVU363
 786:../Middlewares/stm32-mw-camera/ISP_Library/isp/Src/isp_algo.c ****                                      ISP_STAT_TYPE_AVG, ALGO_ISP_LATENCY + ALGO_AWB_ADDITIONAL_LATE
 1157              		.loc 1 786 16 is_stmt 0 view .LVU364
 1158 00b2 0224     		movs	r4, #2
 1159 00b4 0123     		movs	r3, #1
 1160 00b6 3846     		mov	r0, r7
 1161 00b8 CDE90132 		strd	r3, r2, [sp, #4]
 1162 00bc 2449     		ldr	r1, .L123+12
 1163 00be 3246     		mov	r2, r6
 1164 00c0 224B     		ldr	r3, .L123+8
 1165 00c2 0094     		str	r4, [sp]
 1166 00c4 FFF7FEFF 		bl	ISP_SVC_Stats_GetNext
 1167              	.LVL107:
 788:../Middlewares/stm32-mw-camera/ISP_Library/isp/Src/isp_algo.c **** 
 1168              		.loc 1 788 5 is_stmt 1 view .LVU365
 788:../Middlewares/stm32-mw-camera/ISP_Library/isp/Src/isp_algo.c **** 
 1169              		.loc 1 788 33 is_stmt 0 discriminator 1 view .LVU366
 1170 00c8 B9F1000F 		cmp	r9, #0
 1171 00cc 18BF     		it	ne
 1172 00ce BE20     		movne	r0, #190
 1173              	.LVL108:
 788:../Middlewares/stm32-mw-camera/ISP_Library/isp/Src/isp_algo.c **** 
 1174              		.loc 1 788 33 discriminator 1 view .LVU367
 1175 00d0 D5E7     		b	.L121
 1176              	.LVL109:
 1177              	.L101:
 737:../Middlewares/stm32-mw-camera/ISP_Library/isp/Src/isp_algo.c ****       {
 1178              		.loc 1 737 7 is_stmt 1 view .LVU368
 737:../Middlewares/stm32-mw-camera/ISP_Library/isp/Src/isp_algo.c ****       {
 1179              		.loc 1 737 30 is_stmt 0 view .LVU369
 1180 00d2 204C     		ldr	r4, .L123+16
 737:../Middlewares/stm32-mw-camera/ISP_Library/isp/Src/isp_algo.c ****       {
 1181              		.loc 1 737 10 view .LVU370
 1182 00d4 059A     		ldr	r2, [sp, #20]
 1183 00d6 2368     		ldr	r3, [r4]
ARM GAS  /tmp/ccCLNRaf.s 			page 48


 1184 00d8 9A42     		cmp	r2, r3
 1185 00da 03D1     		bne	.L103
 737:../Middlewares/stm32-mw-camera/ISP_Library/isp/Src/isp_algo.c ****       {
 1186              		.loc 1 737 50 discriminator 1 view .LVU371
 1187 00dc 9AF80030 		ldrb	r3, [r10]	@ zero_extendqisi2
 1188 00e0 012B     		cmp	r3, #1
 1189 00e2 E2D1     		bne	.L102
 1190              	.L103:
 740:../Middlewares/stm32-mw-camera/ISP_Library/isp/Src/isp_algo.c ****         if (ret == ISP_OK)
 1191              		.loc 1 740 9 is_stmt 1 view .LVU372
 740:../Middlewares/stm32-mw-camera/ISP_Library/isp/Src/isp_algo.c ****         if (ret == ISP_OK)
 1192              		.loc 1 740 15 is_stmt 0 view .LVU373
 1193 00e4 3846     		mov	r0, r7
 1194              	.LVL110:
 740:../Middlewares/stm32-mw-camera/ISP_Library/isp/Src/isp_algo.c ****         if (ret == ISP_OK)
 1195              		.loc 1 740 15 view .LVU374
 1196 00e6 0AA9     		add	r1, sp, #40
 1197 00e8 FFF7FEFF 		bl	ISP_SVC_ISP_SetColorConv
 1198              	.LVL111:
 741:../Middlewares/stm32-mw-camera/ISP_Library/isp/Src/isp_algo.c ****         {
 1199              		.loc 1 741 9 is_stmt 1 view .LVU375
 741:../Middlewares/stm32-mw-camera/ISP_Library/isp/Src/isp_algo.c ****         {
 1200              		.loc 1 741 12 is_stmt 0 view .LVU376
 1201 00ec 0028     		cmp	r0, #0
 1202 00ee DAD1     		bne	.L105
 744:../Middlewares/stm32-mw-camera/ISP_Library/isp/Src/isp_algo.c ****           if (ret == ISP_OK)
 1203              		.loc 1 744 11 is_stmt 1 view .LVU377
 744:../Middlewares/stm32-mw-camera/ISP_Library/isp/Src/isp_algo.c ****           if (ret == ISP_OK)
 1204              		.loc 1 744 17 is_stmt 0 view .LVU378
 1205 00f0 4146     		mov	r1, r8
 1206 00f2 3846     		mov	r0, r7
 1207              	.LVL112:
 744:../Middlewares/stm32-mw-camera/ISP_Library/isp/Src/isp_algo.c ****           if (ret == ISP_OK)
 1208              		.loc 1 744 17 view .LVU379
 1209 00f4 FFF7FEFF 		bl	ISP_SVC_ISP_SetGain
 1210              	.LVL113:
 745:../Middlewares/stm32-mw-camera/ISP_Library/isp/Src/isp_algo.c ****           {
 1211              		.loc 1 745 11 is_stmt 1 view .LVU380
 745:../Middlewares/stm32-mw-camera/ISP_Library/isp/Src/isp_algo.c ****           {
 1212              		.loc 1 745 14 is_stmt 0 view .LVU381
 1213 00f8 0028     		cmp	r0, #0
 1214 00fa D4D1     		bne	.L105
 747:../Middlewares/stm32-mw-camera/ISP_Library/isp/Src/isp_algo.c ****             currentColorTemp = estimatedColorTemp ;
 1215              		.loc 1 747 13 is_stmt 1 view .LVU382
 747:../Middlewares/stm32-mw-camera/ISP_Library/isp/Src/isp_algo.c ****             currentColorTemp = estimatedColorTemp ;
 1216              		.loc 1 747 28 is_stmt 0 view .LVU383
 1217 00fc 059B     		ldr	r3, [sp, #20]
 1218 00fe 164A     		ldr	r2, .L123+20
 751:../Middlewares/stm32-mw-camera/ISP_Library/isp/Src/isp_algo.c ****             if (pRestartState)
 1219              		.loc 1 751 29 view .LVU384
 1220 0100 3846     		mov	r0, r7
 1221              	.LVL114:
 747:../Middlewares/stm32-mw-camera/ISP_Library/isp/Src/isp_algo.c ****             currentColorTemp = estimatedColorTemp ;
 1222              		.loc 1 747 28 view .LVU385
 1223 0102 1361     		str	r3, [r2, #16]
 748:../Middlewares/stm32-mw-camera/ISP_Library/isp/Src/isp_algo.c **** 
 1224              		.loc 1 748 13 is_stmt 1 view .LVU386
ARM GAS  /tmp/ccCLNRaf.s 			page 49


 748:../Middlewares/stm32-mw-camera/ISP_Library/isp/Src/isp_algo.c **** 
 1225              		.loc 1 748 30 is_stmt 0 view .LVU387
 1226 0104 2360     		str	r3, [r4]
 751:../Middlewares/stm32-mw-camera/ISP_Library/isp/Src/isp_algo.c ****             if (pRestartState)
 1227              		.loc 1 751 13 is_stmt 1 view .LVU388
 751:../Middlewares/stm32-mw-camera/ISP_Library/isp/Src/isp_algo.c ****             if (pRestartState)
 1228              		.loc 1 751 29 is_stmt 0 view .LVU389
 1229 0106 FFF7FEFF 		bl	ISP_SVC_GetRestartState
 1230              	.LVL115:
 752:../Middlewares/stm32-mw-camera/ISP_Library/isp/Src/isp_algo.c ****             {
 1231              		.loc 1 752 13 is_stmt 1 view .LVU390
 752:../Middlewares/stm32-mw-camera/ISP_Library/isp/Src/isp_algo.c ****             {
 1232              		.loc 1 752 16 is_stmt 0 view .LVU391
 1233 010a 8446     		mov	ip, r0
 1234 010c 0028     		cmp	r0, #0
 1235 010e CCD0     		beq	.L102
 754:../Middlewares/stm32-mw-camera/ISP_Library/isp/Src/isp_algo.c ****               pRestartState->colorConv = ColorConvConfig;
 1236              		.loc 1 754 15 is_stmt 1 view .LVU392
 754:../Middlewares/stm32-mw-camera/ISP_Library/isp/Src/isp_algo.c ****               pRestartState->colorConv = ColorConvConfig;
 1237              		.loc 1 754 44 is_stmt 0 view .LVU393
 1238 0110 0123     		movs	r3, #1
 755:../Middlewares/stm32-mw-camera/ISP_Library/isp/Src/isp_algo.c ****               pRestartState->ISPGain = ISPGainConfig;
 1239              		.loc 1 755 40 view .LVU394
 1240 0112 00F11005 		add	r5, r0, #16
 754:../Middlewares/stm32-mw-camera/ISP_Library/isp/Src/isp_algo.c ****               pRestartState->colorConv = ColorConvConfig;
 1241              		.loc 1 754 44 view .LVU395
 1242 0116 0373     		strb	r3, [r0, #12]
 755:../Middlewares/stm32-mw-camera/ISP_Library/isp/Src/isp_algo.c ****               pRestartState->ISPGain = ISPGainConfig;
 1243              		.loc 1 755 15 is_stmt 1 view .LVU396
 755:../Middlewares/stm32-mw-camera/ISP_Library/isp/Src/isp_algo.c ****               pRestartState->ISPGain = ISPGainConfig;
 1244              		.loc 1 755 40 is_stmt 0 view .LVU397
 1245 0118 0AAC     		add	r4, sp, #40
 1246 011a 0FCC     		ldmia	r4!, {r0, r1, r2, r3}
 1247              	.LVL116:
 755:../Middlewares/stm32-mw-camera/ISP_Library/isp/Src/isp_algo.c ****               pRestartState->ISPGain = ISPGainConfig;
 1248              		.loc 1 755 40 view .LVU398
 1249 011c 0FC5     		stmia	r5!, {r0, r1, r2, r3}
 1250 011e 0FCC     		ldmia	r4!, {r0, r1, r2, r3}
 1251 0120 0FC5     		stmia	r5!, {r0, r1, r2, r3}
 1252 0122 94E80300 		ldm	r4, {r0, r1}
 756:../Middlewares/stm32-mw-camera/ISP_Library/isp/Src/isp_algo.c ****             }
 1253              		.loc 1 756 38 view .LVU399
 1254 0126 0CF13804 		add	r4, ip, #56
 755:../Middlewares/stm32-mw-camera/ISP_Library/isp/Src/isp_algo.c ****               pRestartState->ISPGain = ISPGainConfig;
 1255              		.loc 1 755 40 view .LVU400
 1256 012a 85E80300 		stm	r5, {r0, r1}
 756:../Middlewares/stm32-mw-camera/ISP_Library/isp/Src/isp_algo.c ****             }
 1257              		.loc 1 756 15 is_stmt 1 view .LVU401
 756:../Middlewares/stm32-mw-camera/ISP_Library/isp/Src/isp_algo.c ****             }
 1258              		.loc 1 756 38 is_stmt 0 view .LVU402
 1259 012e 98E80F00 		ldm	r8, {r0, r1, r2, r3}
 1260 0132 84E80F00 		stm	r4, {r0, r1, r2, r3}
 1261 0136 B8E7     		b	.L102
 1262              	.LVL117:
 1263              	.L94:
 795:../Middlewares/stm32-mw-camera/ISP_Library/isp/Src/isp_algo.c ****     /* Reset state to ISP_ALGO_STATE_INIT */
 1264              		.loc 1 795 5 is_stmt 1 view .LVU403
ARM GAS  /tmp/ccCLNRaf.s 			page 50


 1265 0138 0848     		ldr	r0, .L123+24
 1266              	.LVL118:
 795:../Middlewares/stm32-mw-camera/ISP_Library/isp/Src/isp_algo.c ****     /* Reset state to ISP_ALGO_STATE_INIT */
 1267              		.loc 1 795 5 is_stmt 0 view .LVU404
 1268 013a FFF7FEFF 		bl	puts
 1269              	.LVL119:
 797:../Middlewares/stm32-mw-camera/ISP_Library/isp/Src/isp_algo.c ****     break;
 1270              		.loc 1 797 5 is_stmt 1 view .LVU405
 797:../Middlewares/stm32-mw-camera/ISP_Library/isp/Src/isp_algo.c ****     break;
 1271              		.loc 1 797 17 is_stmt 0 view .LVU406
 1272 013e 0023     		movs	r3, #0
 1273 0140 7370     		strb	r3, [r6, #1]
 798:../Middlewares/stm32-mw-camera/ISP_Library/isp/Src/isp_algo.c ****   }
 1274              		.loc 1 798 5 is_stmt 1 view .LVU407
 1275 0142 6BE7     		b	.L90
 1276              	.L124:
 1277              		.align	2
 1278              	.L123:
 1279 0144 00000000 		.word	enableCurrent.4
 1280 0148 00000000 		.word	reconfigureRequest.3
 1281 014c 00000000 		.word	stats.2
 1282 0150 00000000 		.word	ISP_Algo_AWB_StatCb
 1283 0154 00000000 		.word	currentColorTemp.1
 1284 0158 00000000 		.word	Meta
 1285 015c 00000000 		.word	.LC3
 1286              		.cfi_endproc
 1287              	.LFE896:
 1289              		.section	.text.ISP_Algo_Background_DeInit,"ax",%progbits
 1290              		.align	1
 1291              		.global	ISP_Algo_Background_DeInit
 1292              		.syntax unified
 1293              		.thumb
 1294              		.thumb_func
 1296              	ISP_Algo_Background_DeInit:
 1297              	.LFB911:
 1298              		.cfi_startproc
1092:../Middlewares/stm32-mw-camera/ISP_Library/isp/Src/isp_algo.c **** {
 1299              		.loc 1 1092 19 view -0
 1300              		@ args = 0, pretend = 0, frame = 0
 1301              		@ frame_needed = 0, uses_anonymous_args = 0
 1302              		@ link register save eliminated.
 1303 0000 0020     		movs	r0, #0
 1304 0002 7047     		bx	lr
 1305              		.cfi_endproc
 1306              	.LFE911:
 1308              		.section	.text.ISP_Algo_AEC_DeInit,"ax",%progbits
 1309              		.align	1
 1310              		.global	ISP_Algo_AEC_DeInit
 1311              		.syntax unified
 1312              		.thumb
 1313              		.thumb_func
 1315              	ISP_Algo_AEC_DeInit:
 1316              	.LFB907:
 1317              		.cfi_startproc
 318:../Middlewares/stm32-mw-camera/ISP_Library/isp/Src/isp_algo.c **** {
 1318              		.loc 1 318 19 view -0
 1319              		@ args = 0, pretend = 0, frame = 0
ARM GAS  /tmp/ccCLNRaf.s 			page 51


 1320              		@ frame_needed = 0, uses_anonymous_args = 0
 1321              		@ link register save eliminated.
 1322 0000 0020     		movs	r0, #0
 1323 0002 7047     		bx	lr
 1324              		.cfi_endproc
 1325              	.LFE907:
 1327              		.section	.text.ISP_Algo_AWB_DeInit,"ax",%progbits
 1328              		.align	1
 1329              		.global	ISP_Algo_AWB_DeInit
 1330              		.syntax unified
 1331              		.thumb
 1332              		.thumb_func
 1334              	ISP_Algo_AWB_DeInit:
 1335              	.LFB909:
 1336              		.cfi_startproc
 621:../Middlewares/stm32-mw-camera/ISP_Library/isp/Src/isp_algo.c **** {
 1337              		.loc 1 621 19 view -0
 1338              		@ args = 0, pretend = 0, frame = 0
 1339              		@ frame_needed = 0, uses_anonymous_args = 0
 1340              		@ link register save eliminated.
 1341 0000 0020     		movs	r0, #0
 1342 0002 7047     		bx	lr
 1343              		.cfi_endproc
 1344              	.LFE909:
 1346              		.section	.text.ISP_Algo_Background_Init,"ax",%progbits
 1347              		.align	1
 1348              		.global	ISP_Algo_Background_Init
 1349              		.syntax unified
 1350              		.thumb
 1351              		.thumb_func
 1353              	ISP_Algo_Background_Init:
 1354              	.LFB905:
 1355              		.cfi_startproc
1076:../Middlewares/stm32-mw-camera/ISP_Library/isp/Src/isp_algo.c **** {
 1356              		.loc 1 1076 19 view -0
 1357              		@ args = 0, pretend = 0, frame = 0
 1358              		@ frame_needed = 0, uses_anonymous_args = 0
 1359              		@ link register save eliminated.
 1360 0000 0020     		movs	r0, #0
 1361 0002 4870     		strb	r0, [r1, #1]
 1362 0004 7047     		bx	lr
 1363              		.cfi_endproc
 1364              	.LFE905:
 1366              		.section	.text.ISP_Algo_Background_StatCb,"ax",%progbits
 1367              		.align	1
 1368              		.global	ISP_Algo_Background_StatCb
 1369              		.syntax unified
 1370              		.thumb
 1371              		.thumb_func
 1373              	ISP_Algo_Background_StatCb:
 1374              	.LFB913:
 1375              		.cfi_startproc
1061:../Middlewares/stm32-mw-camera/ISP_Library/isp/Src/isp_algo.c **** {
 1376              		.loc 1 1061 19 view -0
 1377              		@ args = 0, pretend = 0, frame = 0
 1378              		@ frame_needed = 0, uses_anonymous_args = 0
 1379              		@ link register save eliminated.
ARM GAS  /tmp/ccCLNRaf.s 			page 52


 1380 0000 0323     		movs	r3, #3
 1381 0002 4370     		strb	r3, [r0, #1]
 1382 0004 0020     		movs	r0, #0
 1383 0006 7047     		bx	lr
 1384              		.cfi_endproc
 1385              	.LFE913:
 1387              		.section	.text.ISP_Algo_ApplyGammaInverse,"ax",%progbits
 1388              		.align	1
 1389              		.global	ISP_Algo_ApplyGammaInverse
 1390              		.syntax unified
 1391              		.thumb
 1392              		.thumb_func
 1394              	ISP_Algo_ApplyGammaInverse:
 1395              	.LVL120:
 1396              	.LFB891:
 527:../Middlewares/stm32-mw-camera/ISP_Library/isp/Src/isp_algo.c ****   double out;
 1397              		.loc 1 527 1 view -0
 1398              		.cfi_startproc
 1399              		@ args = 0, pretend = 0, frame = 0
 1400              		@ frame_needed = 0, uses_anonymous_args = 0
 528:../Middlewares/stm32-mw-camera/ISP_Library/isp/Src/isp_algo.c **** 
 1401              		.loc 1 528 3 view .LVU414
 531:../Middlewares/stm32-mw-camera/ISP_Library/isp/Src/isp_algo.c ****     out = 255 * pow((float)comp / 255, 1.0 / 2.2);
 1402              		.loc 1 531 3 view .LVU415
 527:../Middlewares/stm32-mw-camera/ISP_Library/isp/Src/isp_algo.c ****   double out;
 1403              		.loc 1 527 1 is_stmt 0 view .LVU416
 1404 0000 08B5     		push	{r3, lr}
 1405              		.cfi_def_cfa_offset 8
 1406              		.cfi_offset 3, -8
 1407              		.cfi_offset 14, -4
 1408 0002 2DED028B 		vpush.64	{d8}
 1409              		.cfi_def_cfa_offset 16
 1410              		.cfi_offset 80, -16
 1411              		.cfi_offset 81, -12
 527:../Middlewares/stm32-mw-camera/ISP_Library/isp/Src/isp_algo.c ****   double out;
 1412              		.loc 1 527 1 view .LVU417
 1413 0006 08EE101A 		vmov	s16, r1	@ int
 531:../Middlewares/stm32-mw-camera/ISP_Library/isp/Src/isp_algo.c ****     out = 255 * pow((float)comp / 255, 1.0 / 2.2);
 1414              		.loc 1 531 7 view .LVU418
 1415 000a 0121     		movs	r1, #1
 1416              	.LVL121:
 531:../Middlewares/stm32-mw-camera/ISP_Library/isp/Src/isp_algo.c ****     out = 255 * pow((float)comp / 255, 1.0 / 2.2);
 1417              		.loc 1 531 7 view .LVU419
 1418 000c FFF7FEFF 		bl	ISP_SVC_Misc_IsGammaEnabled
 1419              	.LVL122:
 531:../Middlewares/stm32-mw-camera/ISP_Library/isp/Src/isp_algo.c ****     out = 255 * pow((float)comp / 255, 1.0 / 2.2);
 1420              		.loc 1 531 6 discriminator 1 view .LVU420
 1421 0010 90B1     		cbz	r0, .L131
 532:../Middlewares/stm32-mw-camera/ISP_Library/isp/Src/isp_algo.c ****   }
 1422              		.loc 1 532 5 is_stmt 1 view .LVU421
 532:../Middlewares/stm32-mw-camera/ISP_Library/isp/Src/isp_algo.c ****   }
 1423              		.loc 1 532 33 is_stmt 0 view .LVU422
 1424 0012 DFED0F7A 		vldr.32	s15, .L133+16
 532:../Middlewares/stm32-mw-camera/ISP_Library/isp/Src/isp_algo.c ****   }
 1425              		.loc 1 532 21 view .LVU423
 1426 0016 B8EE488A 		vcvt.f32.u32	s16, s16
 1427              	.LVL123:
ARM GAS  /tmp/ccCLNRaf.s 			page 53


 532:../Middlewares/stm32-mw-camera/ISP_Library/isp/Src/isp_algo.c ****   }
 1428              		.loc 1 532 33 view .LVU424
 1429 001a 88EE270A 		vdiv.f32	s0, s16, s15
 532:../Middlewares/stm32-mw-camera/ISP_Library/isp/Src/isp_algo.c ****   }
 1430              		.loc 1 532 17 view .LVU425
 1431 001e 9FED081B 		vldr.64	d1, .L133
 1432 0022 B7EEC00A 		vcvt.f64.f32	d0, s0
 1433 0026 FFF7FEFF 		bl	pow
 1434              	.LVL124:
 532:../Middlewares/stm32-mw-camera/ISP_Library/isp/Src/isp_algo.c ****   }
 1435              		.loc 1 532 9 discriminator 1 view .LVU426
 1436 002a 9FED077B 		vldr.64	d7, .L133+8
 1437 002e 20EE070B 		vmul.f64	d0, d0, d7
 1438              	.LVL125:
 1439              	.L130:
 539:../Middlewares/stm32-mw-camera/ISP_Library/isp/Src/isp_algo.c **** 
 1440              		.loc 1 539 1 view .LVU427
 1441 0032 BDEC028B 		vldm	sp!, {d8}
 1442              		.cfi_remember_state
 1443              		.cfi_restore 80
 1444              		.cfi_restore 81
 1445              		.cfi_def_cfa_offset 8
 1446 0036 08BD     		pop	{r3, pc}
 1447              	.LVL126:
 1448              	.L131:
 1449              		.cfi_restore_state
 536:../Middlewares/stm32-mw-camera/ISP_Library/isp/Src/isp_algo.c ****   }
 1450              		.loc 1 536 5 is_stmt 1 view .LVU428
 536:../Middlewares/stm32-mw-camera/ISP_Library/isp/Src/isp_algo.c ****   }
 1451              		.loc 1 536 9 is_stmt 0 view .LVU429
 1452 0038 B8EE480B 		vcvt.f64.u32	d0, s16
 1453              	.LVL127:
 538:../Middlewares/stm32-mw-camera/ISP_Library/isp/Src/isp_algo.c **** }
 1454              		.loc 1 538 3 is_stmt 1 view .LVU430
 538:../Middlewares/stm32-mw-camera/ISP_Library/isp/Src/isp_algo.c **** }
 1455              		.loc 1 538 10 is_stmt 0 view .LVU431
 1456 003c F9E7     		b	.L130
 1457              	.L134:
 1458 003e 00BF     		.align	3
 1459              	.L133:
 1460 0040 175D74D1 		.word	-780903145
 1461 0044 4517DD3F 		.word	1071454021
 1462 0048 00000000 		.word	0
 1463 004c 00E06F40 		.word	1081073664
 1464 0050 00007F43 		.word	1132396544
 1465              		.cfi_endproc
 1466              	.LFE891:
 1468              		.section	.text.ISP_Algo_ApplyCConv,"ax",%progbits
 1469              		.align	1
 1470              		.global	ISP_Algo_ApplyCConv
 1471              		.syntax unified
 1472              		.thumb
 1473              		.thumb_func
 1475              	ISP_Algo_ApplyCConv:
 1476              	.LVL128:
 1477              	.LFB892:
 554:../Middlewares/stm32-mw-camera/ISP_Library/isp/Src/isp_algo.c ****   ISP_ColorConvTypeDef colorConv;
ARM GAS  /tmp/ccCLNRaf.s 			page 54


 1478              		.loc 1 554 1 is_stmt 1 view -0
 1479              		.cfi_startproc
 1480              		@ args = 12, pretend = 0, frame = 40
 1481              		@ frame_needed = 0, uses_anonymous_args = 0
 555:../Middlewares/stm32-mw-camera/ISP_Library/isp/Src/isp_algo.c ****   int64_t ccR, ccG, ccB;
 1482              		.loc 1 555 3 view .LVU433
 556:../Middlewares/stm32-mw-camera/ISP_Library/isp/Src/isp_algo.c **** 
 1483              		.loc 1 556 3 view .LVU434
 558:../Middlewares/stm32-mw-camera/ISP_Library/isp/Src/isp_algo.c ****   {
 1484              		.loc 1 558 3 view .LVU435
 554:../Middlewares/stm32-mw-camera/ISP_Library/isp/Src/isp_algo.c ****   ISP_ColorConvTypeDef colorConv;
 1485              		.loc 1 554 1 is_stmt 0 view .LVU436
 1486 0000 2DE9F04F 		push	{r4, r5, r6, r7, r8, r9, r10, fp, lr}
 1487              		.cfi_def_cfa_offset 36
 1488              		.cfi_offset 4, -36
 1489              		.cfi_offset 5, -32
 1490              		.cfi_offset 6, -28
 1491              		.cfi_offset 7, -24
 1492              		.cfi_offset 8, -20
 1493              		.cfi_offset 9, -16
 1494              		.cfi_offset 10, -12
 1495              		.cfi_offset 11, -8
 1496              		.cfi_offset 14, -4
 1497 0004 8BB0     		sub	sp, sp, #44
 1498              		.cfi_def_cfa_offset 80
 554:../Middlewares/stm32-mw-camera/ISP_Library/isp/Src/isp_algo.c ****   ISP_ColorConvTypeDef colorConv;
 1499              		.loc 1 554 1 view .LVU437
 1500 0006 0E46     		mov	r6, r1
 558:../Middlewares/stm32-mw-camera/ISP_Library/isp/Src/isp_algo.c ****   {
 1501              		.loc 1 558 8 view .LVU438
 1502 0008 6946     		mov	r1, sp
 1503              	.LVL129:
 554:../Middlewares/stm32-mw-camera/ISP_Library/isp/Src/isp_algo.c ****   ISP_ColorConvTypeDef colorConv;
 1504              		.loc 1 554 1 view .LVU439
 1505 000a 1546     		mov	r5, r2
 1506 000c 1C46     		mov	r4, r3
 558:../Middlewares/stm32-mw-camera/ISP_Library/isp/Src/isp_algo.c ****   {
 1507              		.loc 1 558 8 view .LVU440
 1508 000e FFF7FEFF 		bl	ISP_SVC_ISP_GetColorConv
 1509              	.LVL130:
 558:../Middlewares/stm32-mw-camera/ISP_Library/isp/Src/isp_algo.c ****   {
 1510              		.loc 1 558 6 discriminator 1 view .LVU441
 1511 0012 0746     		mov	r7, r0
 1512 0014 0028     		cmp	r0, #0
 1513 0016 40F08C80 		bne	.L136
 558:../Middlewares/stm32-mw-camera/ISP_Library/isp/Src/isp_algo.c ****   {
 1514              		.loc 1 558 62 discriminator 1 view .LVU442
 1515 001a 9DF80030 		ldrb	r3, [sp]	@ zero_extendqisi2
 1516 001e 012B     		cmp	r3, #1
 1517 0020 40F08780 		bne	.L136
 561:../Middlewares/stm32-mw-camera/ISP_Library/isp/Src/isp_algo.c ****     ccG = (int64_t) inR * colorConv.coeff[1][0] + (int64_t) inG * colorConv.coeff[1][1] + (int64_t)
 1518              		.loc 1 561 5 is_stmt 1 view .LVU443
 561:../Middlewares/stm32-mw-camera/ISP_Library/isp/Src/isp_algo.c ****     ccG = (int64_t) inR * colorConv.coeff[1][0] + (int64_t) inG * colorConv.coeff[1][1] + (int64_t)
 1519              		.loc 1 561 45 is_stmt 0 view .LVU444
 1520 0024 019B     		ldr	r3, [sp, #4]
 1521 0026 DA17     		asrs	r2, r3, #31
 561:../Middlewares/stm32-mw-camera/ISP_Library/isp/Src/isp_algo.c ****     ccG = (int64_t) inR * colorConv.coeff[1][0] + (int64_t) inG * colorConv.coeff[1][1] + (int64_t)
ARM GAS  /tmp/ccCLNRaf.s 			page 55


 1522              		.loc 1 561 25 view .LVU445
 1523 0028 A3FB063C 		umull	r3, ip, r3, r6
 1524 002c 06FB02CC 		mla	ip, r6, r2, ip
 561:../Middlewares/stm32-mw-camera/ISP_Library/isp/Src/isp_algo.c ****     ccG = (int64_t) inR * colorConv.coeff[1][0] + (int64_t) inG * colorConv.coeff[1][1] + (int64_t)
 1525              		.loc 1 561 85 view .LVU446
 1526 0030 029A     		ldr	r2, [sp, #8]
 1527 0032 D017     		asrs	r0, r2, #31
 561:../Middlewares/stm32-mw-camera/ISP_Library/isp/Src/isp_algo.c ****     ccG = (int64_t) inR * colorConv.coeff[1][0] + (int64_t) inG * colorConv.coeff[1][1] + (int64_t)
 1528              		.loc 1 561 65 view .LVU447
 1529 0034 A2FB0521 		umull	r2, r1, r2, r5
 1530 0038 05FB0011 		mla	r1, r5, r0, r1
 561:../Middlewares/stm32-mw-camera/ISP_Library/isp/Src/isp_algo.c ****     ccG = (int64_t) inR * colorConv.coeff[1][0] + (int64_t) inG * colorConv.coeff[1][1] + (int64_t)
 1531              		.loc 1 561 49 view .LVU448
 1532 003c 9B18     		adds	r3, r3, r2
 561:../Middlewares/stm32-mw-camera/ISP_Library/isp/Src/isp_algo.c ****     ccG = (int64_t) inR * colorConv.coeff[1][0] + (int64_t) inG * colorConv.coeff[1][1] + (int64_t)
 1533              		.loc 1 561 125 view .LVU449
 1534 003e 039A     		ldr	r2, [sp, #12]
 561:../Middlewares/stm32-mw-camera/ISP_Library/isp/Src/isp_algo.c ****     ccG = (int64_t) inR * colorConv.coeff[1][0] + (int64_t) inG * colorConv.coeff[1][1] + (int64_t)
 1535              		.loc 1 561 49 view .LVU450
 1536 0040 4CEB010C 		adc	ip, ip, r1
 561:../Middlewares/stm32-mw-camera/ISP_Library/isp/Src/isp_algo.c ****     ccG = (int64_t) inR * colorConv.coeff[1][0] + (int64_t) inG * colorConv.coeff[1][1] + (int64_t)
 1537              		.loc 1 561 125 view .LVU451
 1538 0044 D017     		asrs	r0, r2, #31
 561:../Middlewares/stm32-mw-camera/ISP_Library/isp/Src/isp_algo.c ****     ccG = (int64_t) inR * colorConv.coeff[1][0] + (int64_t) inG * colorConv.coeff[1][1] + (int64_t)
 1539              		.loc 1 561 105 view .LVU452
 1540 0046 A2FB0421 		umull	r2, r1, r2, r4
 1541 004a 04FB0011 		mla	r1, r4, r0, r1
 561:../Middlewares/stm32-mw-camera/ISP_Library/isp/Src/isp_algo.c ****     ccG = (int64_t) inR * colorConv.coeff[1][0] + (int64_t) inG * colorConv.coeff[1][1] + (int64_t)
 1542              		.loc 1 561 9 view .LVU453
 1543 004e 9818     		adds	r0, r3, r2
 562:../Middlewares/stm32-mw-camera/ISP_Library/isp/Src/isp_algo.c ****     ccB = (int64_t) inR * colorConv.coeff[2][0] + (int64_t) inG * colorConv.coeff[2][1] + (int64_t)
 1544              		.loc 1 562 45 view .LVU454
 1545 0050 049B     		ldr	r3, [sp, #16]
 561:../Middlewares/stm32-mw-camera/ISP_Library/isp/Src/isp_algo.c ****     ccG = (int64_t) inR * colorConv.coeff[1][0] + (int64_t) inG * colorConv.coeff[1][1] + (int64_t)
 1546              		.loc 1 561 9 view .LVU455
 1547 0052 41EB0C01 		adc	r1, r1, ip
 1548              	.LVL131:
 562:../Middlewares/stm32-mw-camera/ISP_Library/isp/Src/isp_algo.c ****     ccB = (int64_t) inR * colorConv.coeff[2][0] + (int64_t) inG * colorConv.coeff[2][1] + (int64_t)
 1549              		.loc 1 562 5 is_stmt 1 view .LVU456
 562:../Middlewares/stm32-mw-camera/ISP_Library/isp/Src/isp_algo.c ****     ccB = (int64_t) inR * colorConv.coeff[2][0] + (int64_t) inG * colorConv.coeff[2][1] + (int64_t)
 1550              		.loc 1 562 45 is_stmt 0 view .LVU457
 1551 0056 DA17     		asrs	r2, r3, #31
 562:../Middlewares/stm32-mw-camera/ISP_Library/isp/Src/isp_algo.c ****     ccB = (int64_t) inR * colorConv.coeff[2][0] + (int64_t) inG * colorConv.coeff[2][1] + (int64_t)
 1552              		.loc 1 562 25 view .LVU458
 1553 0058 A3FB0683 		umull	r8, r3, r3, r6
 1554 005c 06FB0233 		mla	r3, r6, r2, r3
 562:../Middlewares/stm32-mw-camera/ISP_Library/isp/Src/isp_algo.c ****     ccB = (int64_t) inR * colorConv.coeff[2][0] + (int64_t) inG * colorConv.coeff[2][1] + (int64_t)
 1555              		.loc 1 562 85 view .LVU459
 1556 0060 059A     		ldr	r2, [sp, #20]
 1557 0062 4FEAE27E 		asr	lr, r2, #31
 562:../Middlewares/stm32-mw-camera/ISP_Library/isp/Src/isp_algo.c ****     ccB = (int64_t) inR * colorConv.coeff[2][0] + (int64_t) inG * colorConv.coeff[2][1] + (int64_t)
 1558              		.loc 1 562 65 view .LVU460
 1559 0066 A2FB052C 		umull	r2, ip, r2, r5
 1560 006a 05FB0ECC 		mla	ip, r5, lr, ip
 562:../Middlewares/stm32-mw-camera/ISP_Library/isp/Src/isp_algo.c ****     ccB = (int64_t) inR * colorConv.coeff[2][0] + (int64_t) inG * colorConv.coeff[2][1] + (int64_t)
 1561              		.loc 1 562 49 view .LVU461
 1562 006e 18EB0208 		adds	r8, r8, r2
ARM GAS  /tmp/ccCLNRaf.s 			page 56


 562:../Middlewares/stm32-mw-camera/ISP_Library/isp/Src/isp_algo.c ****     ccB = (int64_t) inR * colorConv.coeff[2][0] + (int64_t) inG * colorConv.coeff[2][1] + (int64_t)
 1563              		.loc 1 562 125 view .LVU462
 1564 0072 069A     		ldr	r2, [sp, #24]
 562:../Middlewares/stm32-mw-camera/ISP_Library/isp/Src/isp_algo.c ****     ccB = (int64_t) inR * colorConv.coeff[2][0] + (int64_t) inG * colorConv.coeff[2][1] + (int64_t)
 1565              		.loc 1 562 49 view .LVU463
 1566 0074 43EB0C03 		adc	r3, r3, ip
 562:../Middlewares/stm32-mw-camera/ISP_Library/isp/Src/isp_algo.c ****     ccB = (int64_t) inR * colorConv.coeff[2][0] + (int64_t) inG * colorConv.coeff[2][1] + (int64_t)
 1567              		.loc 1 562 125 view .LVU464
 1568 0078 4FEAE27C 		asr	ip, r2, #31
 562:../Middlewares/stm32-mw-camera/ISP_Library/isp/Src/isp_algo.c ****     ccB = (int64_t) inR * colorConv.coeff[2][0] + (int64_t) inG * colorConv.coeff[2][1] + (int64_t)
 1569              		.loc 1 562 105 view .LVU465
 1570 007c A2FB0429 		umull	r2, r9, r2, r4
 1571 0080 04FB0C99 		mla	r9, r4, ip, r9
 562:../Middlewares/stm32-mw-camera/ISP_Library/isp/Src/isp_algo.c ****     ccB = (int64_t) inR * colorConv.coeff[2][0] + (int64_t) inG * colorConv.coeff[2][1] + (int64_t)
 1572              		.loc 1 562 9 view .LVU466
 1573 0084 18EB0208 		adds	r8, r8, r2
 1574 0088 49EB0309 		adc	r9, r9, r3
 1575              	.LVL132:
 563:../Middlewares/stm32-mw-camera/ISP_Library/isp/Src/isp_algo.c **** 
 1576              		.loc 1 563 5 is_stmt 1 view .LVU467
 563:../Middlewares/stm32-mw-camera/ISP_Library/isp/Src/isp_algo.c **** 
 1577              		.loc 1 563 45 is_stmt 0 view .LVU468
 1578 008c 079B     		ldr	r3, [sp, #28]
 1579 008e DA17     		asrs	r2, r3, #31
 563:../Middlewares/stm32-mw-camera/ISP_Library/isp/Src/isp_algo.c **** 
 1580              		.loc 1 563 25 view .LVU469
 1581 0090 A3FB06C3 		umull	ip, r3, r3, r6
 1582 0094 06FB0232 		mla	r2, r6, r2, r3
 563:../Middlewares/stm32-mw-camera/ISP_Library/isp/Src/isp_algo.c **** 
 1583              		.loc 1 563 85 view .LVU470
 1584 0098 089B     		ldr	r3, [sp, #32]
 1585 009a 4FEAE37E 		asr	lr, r3, #31
 563:../Middlewares/stm32-mw-camera/ISP_Library/isp/Src/isp_algo.c **** 
 1586              		.loc 1 563 65 view .LVU471
 1587 009e A3FB0536 		umull	r3, r6, r3, r5
 1588              	.LVL133:
 563:../Middlewares/stm32-mw-camera/ISP_Library/isp/Src/isp_algo.c **** 
 1589              		.loc 1 563 65 view .LVU472
 1590 00a2 05FB0E65 		mla	r5, r5, lr, r6
 1591              	.LVL134:
 563:../Middlewares/stm32-mw-camera/ISP_Library/isp/Src/isp_algo.c **** 
 1592              		.loc 1 563 49 view .LVU473
 1593 00a6 1CEB0303 		adds	r3, ip, r3
 1594 00aa 42EB0505 		adc	r5, r2, r5
 563:../Middlewares/stm32-mw-camera/ISP_Library/isp/Src/isp_algo.c **** 
 1595              		.loc 1 563 125 view .LVU474
 1596 00ae 099A     		ldr	r2, [sp, #36]
 1597 00b0 D617     		asrs	r6, r2, #31
 563:../Middlewares/stm32-mw-camera/ISP_Library/isp/Src/isp_algo.c **** 
 1598              		.loc 1 563 105 view .LVU475
 1599 00b2 A2FB042A 		umull	r2, r10, r2, r4
 1600 00b6 04FB06AA 		mla	r10, r4, r6, r10
 563:../Middlewares/stm32-mw-camera/ISP_Library/isp/Src/isp_algo.c **** 
 1601              		.loc 1 563 9 view .LVU476
 1602 00ba 9C18     		adds	r4, r3, r2
 1603              	.LVL135:
 565:../Middlewares/stm32-mw-camera/ISP_Library/isp/Src/isp_algo.c ****     ccG /= ISP_CCM_PRECISION_FACTOR;
ARM GAS  /tmp/ccCLNRaf.s 			page 57


 1604              		.loc 1 565 9 view .LVU477
 1605 00bc 22A3     		adr	r3, .L143
 1606 00be D3E90023 		ldrd	r2, [r3]
 563:../Middlewares/stm32-mw-camera/ISP_Library/isp/Src/isp_algo.c **** 
 1607              		.loc 1 563 9 view .LVU478
 1608 00c2 4AEB050A 		adc	r10, r10, r5
 1609              	.LVL136:
 565:../Middlewares/stm32-mw-camera/ISP_Library/isp/Src/isp_algo.c ****     ccG /= ISP_CCM_PRECISION_FACTOR;
 1610              		.loc 1 565 5 is_stmt 1 view .LVU479
 566:../Middlewares/stm32-mw-camera/ISP_Library/isp/Src/isp_algo.c ****     ccB /= ISP_CCM_PRECISION_FACTOR;
 1611              		.loc 1 566 5 view .LVU480
 567:../Middlewares/stm32-mw-camera/ISP_Library/isp/Src/isp_algo.c **** 
 1612              		.loc 1 567 5 view .LVU481
 570:../Middlewares/stm32-mw-camera/ISP_Library/isp/Src/isp_algo.c ****     ccG = (ccG < 0) ? 0 : (ccG > 255) ? 255 : ccG;
 1613              		.loc 1 570 5 view .LVU482
 565:../Middlewares/stm32-mw-camera/ISP_Library/isp/Src/isp_algo.c ****     ccG /= ISP_CCM_PRECISION_FACTOR;
 1614              		.loc 1 565 9 is_stmt 0 view .LVU483
 1615 00c6 FFF7FEFF 		bl	__aeabi_ldivmod
 1616              	.LVL137:
 566:../Middlewares/stm32-mw-camera/ISP_Library/isp/Src/isp_algo.c ****     ccB /= ISP_CCM_PRECISION_FACTOR;
 1617              		.loc 1 566 9 view .LVU484
 1618 00ca 1FA3     		adr	r3, .L143
 1619 00cc D3E90023 		ldrd	r2, [r3]
 570:../Middlewares/stm32-mw-camera/ISP_Library/isp/Src/isp_algo.c ****     ccG = (ccG < 0) ? 0 : (ccG > 255) ? 255 : ccG;
 1620              		.loc 1 570 45 view .LVU485
 1621 00d0 B0F5807F 		cmp	r0, #256
 1622 00d4 8B46     		mov	fp, r1
 1623 00d6 0646     		mov	r6, r0
 1624 00d8 71F10001 		sbcs	r1, r1, #0
 566:../Middlewares/stm32-mw-camera/ISP_Library/isp/Src/isp_algo.c ****     ccB /= ISP_CCM_PRECISION_FACTOR;
 1625              		.loc 1 566 9 view .LVU486
 1626 00dc 4046     		mov	r0, r8
 1627 00de 4946     		mov	r1, r9
 570:../Middlewares/stm32-mw-camera/ISP_Library/isp/Src/isp_algo.c ****     ccG = (ccG < 0) ? 0 : (ccG > 255) ? 255 : ccG;
 1628              		.loc 1 570 45 view .LVU487
 1629 00e0 A4BF     		itt	ge
 1630 00e2 BB46     		movge	fp, r7
 1631 00e4 FF26     		movge	r6, #255
 1632              	.LVL138:
 571:../Middlewares/stm32-mw-camera/ISP_Library/isp/Src/isp_algo.c ****     ccB = (ccB < 0) ? 0 : (ccB > 255) ? 255 : ccB;
 1633              		.loc 1 571 5 is_stmt 1 view .LVU488
 566:../Middlewares/stm32-mw-camera/ISP_Library/isp/Src/isp_algo.c ****     ccB /= ISP_CCM_PRECISION_FACTOR;
 1634              		.loc 1 566 9 is_stmt 0 view .LVU489
 1635 00e6 FFF7FEFF 		bl	__aeabi_ldivmod
 1636              	.LVL139:
 567:../Middlewares/stm32-mw-camera/ISP_Library/isp/Src/isp_algo.c **** 
 1637              		.loc 1 567 9 view .LVU490
 1638 00ea 17A3     		adr	r3, .L143
 1639 00ec D3E90023 		ldrd	r2, [r3]
 571:../Middlewares/stm32-mw-camera/ISP_Library/isp/Src/isp_algo.c ****     ccB = (ccB < 0) ? 0 : (ccB > 255) ? 255 : ccB;
 1640              		.loc 1 571 45 view .LVU491
 1641 00f0 B0F5807F 		cmp	r0, #256
 1642 00f4 0F46     		mov	r7, r1
 1643 00f6 0546     		mov	r5, r0
 1644 00f8 71F10001 		sbcs	r1, r1, #0
 567:../Middlewares/stm32-mw-camera/ISP_Library/isp/Src/isp_algo.c **** 
 1645              		.loc 1 567 9 view .LVU492
ARM GAS  /tmp/ccCLNRaf.s 			page 58


 1646 00fc 2046     		mov	r0, r4
 1647 00fe 5146     		mov	r1, r10
 571:../Middlewares/stm32-mw-camera/ISP_Library/isp/Src/isp_algo.c ****     ccB = (ccB < 0) ? 0 : (ccB > 255) ? 255 : ccB;
 1648              		.loc 1 571 45 view .LVU493
 1649 0100 A4BF     		itt	ge
 1650 0102 FF25     		movge	r5, #255
 1651 0104 0027     		movge	r7, #0
 1652              	.LVL140:
 572:../Middlewares/stm32-mw-camera/ISP_Library/isp/Src/isp_algo.c **** 
 1653              		.loc 1 572 5 is_stmt 1 view .LVU494
 567:../Middlewares/stm32-mw-camera/ISP_Library/isp/Src/isp_algo.c **** 
 1654              		.loc 1 567 9 is_stmt 0 view .LVU495
 1655 0106 FFF7FEFF 		bl	__aeabi_ldivmod
 1656              	.LVL141:
 572:../Middlewares/stm32-mw-camera/ISP_Library/isp/Src/isp_algo.c **** 
 1657              		.loc 1 572 45 view .LVU496
 1658 010a B0F5807F 		cmp	r0, #256
 1659 010e 0B46     		mov	r3, r1
 1660 0110 71F10001 		sbcs	r1, r1, #0
 1661 0114 A8BF     		it	ge
 1662 0116 0023     		movge	r3, #0
 1663 0118 0446     		mov	r4, r0
 1664              	.LVL142:
 572:../Middlewares/stm32-mw-camera/ISP_Library/isp/Src/isp_algo.c **** 
 1665              		.loc 1 572 45 view .LVU497
 1666 011a A8BF     		it	ge
 1667 011c FF24     		movge	r4, #255
 1668              	.LVL143:
 574:../Middlewares/stm32-mw-camera/ISP_Library/isp/Src/isp_algo.c ****     *outG = (uint32_t) ccG;
 1669              		.loc 1 574 5 is_stmt 1 view .LVU498
 570:../Middlewares/stm32-mw-camera/ISP_Library/isp/Src/isp_algo.c ****     ccG = (ccG < 0) ? 0 : (ccG > 255) ? 255 : ccG;
 1670              		.loc 1 570 9 is_stmt 0 view .LVU499
 1671 011e BBF1000F 		cmp	fp, #0
 1672 0122 B8BF     		it	lt
 1673 0124 0026     		movlt	r6, #0
 1674              	.LVL144:
 575:../Middlewares/stm32-mw-camera/ISP_Library/isp/Src/isp_algo.c ****     *outB = (uint32_t) ccB;
 1675              		.loc 1 575 5 is_stmt 1 view .LVU500
 571:../Middlewares/stm32-mw-camera/ISP_Library/isp/Src/isp_algo.c ****     ccB = (ccB < 0) ? 0 : (ccB > 255) ? 255 : ccB;
 1676              		.loc 1 571 9 is_stmt 0 view .LVU501
 1677 0126 002F     		cmp	r7, #0
 1678 0128 B8BF     		it	lt
 1679 012a 0025     		movlt	r5, #0
 1680              	.LVL145:
 576:../Middlewares/stm32-mw-camera/ISP_Library/isp/Src/isp_algo.c ****   }
 1681              		.loc 1 576 5 is_stmt 1 view .LVU502
 572:../Middlewares/stm32-mw-camera/ISP_Library/isp/Src/isp_algo.c **** 
 1682              		.loc 1 572 9 is_stmt 0 view .LVU503
 1683 012c 002B     		cmp	r3, #0
 1684 012e B8BF     		it	lt
 1685 0130 0024     		movlt	r4, #0
 1686              	.LVL146:
 1687              	.L136:
 574:../Middlewares/stm32-mw-camera/ISP_Library/isp/Src/isp_algo.c ****     *outG = (uint32_t) ccG;
 1688              		.loc 1 574 11 view .LVU504
 1689 0132 149B     		ldr	r3, [sp, #80]
 1690 0134 1E60     		str	r6, [r3]
ARM GAS  /tmp/ccCLNRaf.s 			page 59


 575:../Middlewares/stm32-mw-camera/ISP_Library/isp/Src/isp_algo.c ****     *outB = (uint32_t) ccB;
 1691              		.loc 1 575 11 view .LVU505
 1692 0136 159B     		ldr	r3, [sp, #84]
 1693 0138 1D60     		str	r5, [r3]
 576:../Middlewares/stm32-mw-camera/ISP_Library/isp/Src/isp_algo.c ****   }
 1694              		.loc 1 576 11 view .LVU506
 1695 013a 169B     		ldr	r3, [sp, #88]
 1696 013c 1C60     		str	r4, [r3]
 584:../Middlewares/stm32-mw-camera/ISP_Library/isp/Src/isp_algo.c **** 
 1697              		.loc 1 584 1 view .LVU507
 1698 013e 0BB0     		add	sp, sp, #44
 1699              		.cfi_def_cfa_offset 36
 1700              		@ sp needed
 1701 0140 BDE8F08F 		pop	{r4, r5, r6, r7, r8, r9, r10, fp, pc}
 1702              	.LVL147:
 1703              	.L144:
 584:../Middlewares/stm32-mw-camera/ISP_Library/isp/Src/isp_algo.c **** 
 1704              		.loc 1 584 1 view .LVU508
 1705 0144 AFF30080 		.align	3
 1706              	.L143:
 1707 0148 00E1F505 		.word	100000000
 1708 014c 00000000 		.word	0
 1709              		.cfi_endproc
 1710              	.LFE892:
 1712              		.section	.text.ISP_Algo_Init,"ax",%progbits
 1713              		.align	1
 1714              		.global	ISP_Algo_Init
 1715              		.syntax unified
 1716              		.thumb
 1717              		.thumb_func
 1719              	ISP_Algo_Init:
 1720              	.LVL148:
 1721              	.LFB901:
1171:../Middlewares/stm32-mw-camera/ISP_Library/isp/Src/isp_algo.c **** 
1172:../Middlewares/stm32-mw-camera/ISP_Library/isp/Src/isp_algo.c **** /* Exported functions --------------------------------------------------------*/
1173:../Middlewares/stm32-mw-camera/ISP_Library/isp/Src/isp_algo.c **** /**
1174:../Middlewares/stm32-mw-camera/ISP_Library/isp/Src/isp_algo.c ****   * @brief  ISP_Algo_Init
1175:../Middlewares/stm32-mw-camera/ISP_Library/isp/Src/isp_algo.c ****   *         Register and initialize all the algorithms
1176:../Middlewares/stm32-mw-camera/ISP_Library/isp/Src/isp_algo.c ****   * @param  hIsp: ISP device handle
1177:../Middlewares/stm32-mw-camera/ISP_Library/isp/Src/isp_algo.c ****   * @retval operation result
1178:../Middlewares/stm32-mw-camera/ISP_Library/isp/Src/isp_algo.c ****   */
1179:../Middlewares/stm32-mw-camera/ISP_Library/isp/Src/isp_algo.c **** ISP_StatusTypeDef ISP_Algo_Init(ISP_HandleTypeDef *hIsp)
1180:../Middlewares/stm32-mw-camera/ISP_Library/isp/Src/isp_algo.c **** {
 1722              		.loc 1 1180 1 is_stmt 1 view -0
 1723              		.cfi_startproc
 1724              		@ args = 0, pretend = 0, frame = 0
 1725              		@ frame_needed = 0, uses_anonymous_args = 0
1181:../Middlewares/stm32-mw-camera/ISP_Library/isp/Src/isp_algo.c ****   ISP_AlgoTypeDef *algo;
 1726              		.loc 1 1181 3 view .LVU510
1182:../Middlewares/stm32-mw-camera/ISP_Library/isp/Src/isp_algo.c ****   ISP_StatusTypeDef ret;
 1727              		.loc 1 1182 3 view .LVU511
1183:../Middlewares/stm32-mw-camera/ISP_Library/isp/Src/isp_algo.c ****   uint8_t i;
 1728              		.loc 1 1183 3 view .LVU512
1184:../Middlewares/stm32-mw-camera/ISP_Library/isp/Src/isp_algo.c **** 
1185:../Middlewares/stm32-mw-camera/ISP_Library/isp/Src/isp_algo.c ****   hIsp->algorithm = ISP_Algo_List;
 1729              		.loc 1 1185 3 view .LVU513
1180:../Middlewares/stm32-mw-camera/ISP_Library/isp/Src/isp_algo.c ****   ISP_AlgoTypeDef *algo;
ARM GAS  /tmp/ccCLNRaf.s 			page 60


 1730              		.loc 1 1180 1 is_stmt 0 view .LVU514
 1731 0000 38B5     		push	{r3, r4, r5, lr}
 1732              		.cfi_def_cfa_offset 16
 1733              		.cfi_offset 3, -16
 1734              		.cfi_offset 4, -12
 1735              		.cfi_offset 5, -8
 1736              		.cfi_offset 14, -4
1180:../Middlewares/stm32-mw-camera/ISP_Library/isp/Src/isp_algo.c ****   ISP_AlgoTypeDef *algo;
 1737              		.loc 1 1180 1 view .LVU515
 1738 0002 0446     		mov	r4, r0
 1739              		.loc 1 1185 19 view .LVU516
 1740 0004 0025     		movs	r5, #0
 1741 0006 094B     		ldr	r3, .L157
 1742 0008 8361     		str	r3, [r0, #24]
1186:../Middlewares/stm32-mw-camera/ISP_Library/isp/Src/isp_algo.c **** 
1187:../Middlewares/stm32-mw-camera/ISP_Library/isp/Src/isp_algo.c ****   for (i = 0; i < sizeof(ISP_Algo_List) / sizeof(*ISP_Algo_List); i++)
 1743              		.loc 1 1187 3 is_stmt 1 view .LVU517
 1744              	.LVL149:
 1745              		.loc 1 1187 17 discriminator 1 view .LVU518
 1746              	.L147:
1188:../Middlewares/stm32-mw-camera/ISP_Library/isp/Src/isp_algo.c ****   {
1189:../Middlewares/stm32-mw-camera/ISP_Library/isp/Src/isp_algo.c ****     algo = hIsp->algorithm[i];
 1747              		.loc 1 1189 5 view .LVU519
 1748              		.loc 1 1189 10 is_stmt 0 view .LVU520
 1749 000a A369     		ldr	r3, [r4, #24]
 1750 000c 5959     		ldr	r1, [r3, r5]
 1751              	.LVL150:
1190:../Middlewares/stm32-mw-camera/ISP_Library/isp/Src/isp_algo.c ****     if ((algo != NULL) && (algo->Init != NULL))
 1752              		.loc 1 1190 5 is_stmt 1 view .LVU521
 1753              		.loc 1 1190 8 is_stmt 0 view .LVU522
 1754 000e 21B9     		cbnz	r1, .L146
 1755              	.LVL151:
 1756              	.L149:
1187:../Middlewares/stm32-mw-camera/ISP_Library/isp/Src/isp_algo.c ****   {
 1757              		.loc 1 1187 68 is_stmt 1 discriminator 2 view .LVU523
1187:../Middlewares/stm32-mw-camera/ISP_Library/isp/Src/isp_algo.c ****   {
 1758              		.loc 1 1187 17 discriminator 1 view .LVU524
 1759 0010 0435     		adds	r5, r5, #4
 1760              	.LVL152:
1187:../Middlewares/stm32-mw-camera/ISP_Library/isp/Src/isp_algo.c ****   {
 1761              		.loc 1 1187 17 is_stmt 0 discriminator 1 view .LVU525
 1762 0012 102D     		cmp	r5, #16
 1763 0014 F9D1     		bne	.L147
1191:../Middlewares/stm32-mw-camera/ISP_Library/isp/Src/isp_algo.c ****     {
1192:../Middlewares/stm32-mw-camera/ISP_Library/isp/Src/isp_algo.c ****       ret = algo->Init((void*)hIsp, (void*)algo);
1193:../Middlewares/stm32-mw-camera/ISP_Library/isp/Src/isp_algo.c ****       if (ret != ISP_OK)
1194:../Middlewares/stm32-mw-camera/ISP_Library/isp/Src/isp_algo.c ****       {
1195:../Middlewares/stm32-mw-camera/ISP_Library/isp/Src/isp_algo.c ****         return ret;
1196:../Middlewares/stm32-mw-camera/ISP_Library/isp/Src/isp_algo.c ****       }
1197:../Middlewares/stm32-mw-camera/ISP_Library/isp/Src/isp_algo.c ****     }
1198:../Middlewares/stm32-mw-camera/ISP_Library/isp/Src/isp_algo.c ****   }
1199:../Middlewares/stm32-mw-camera/ISP_Library/isp/Src/isp_algo.c **** 
1200:../Middlewares/stm32-mw-camera/ISP_Library/isp/Src/isp_algo.c **** #ifdef ALGO_PERF_DBG_LOGS
1201:../Middlewares/stm32-mw-camera/ISP_Library/isp/Src/isp_algo.c ****   CoreDebug->DEMCR |= CoreDebug_DEMCR_TRCENA_Msk;
1202:../Middlewares/stm32-mw-camera/ISP_Library/isp/Src/isp_algo.c ****   DWT->CYCCNT = 0;
1203:../Middlewares/stm32-mw-camera/ISP_Library/isp/Src/isp_algo.c ****   DWT->CTRL |= DWT_CTRL_CYCCNTENA_Msk;
1204:../Middlewares/stm32-mw-camera/ISP_Library/isp/Src/isp_algo.c **** #endif
ARM GAS  /tmp/ccCLNRaf.s 			page 61


1205:../Middlewares/stm32-mw-camera/ISP_Library/isp/Src/isp_algo.c **** 
1206:../Middlewares/stm32-mw-camera/ISP_Library/isp/Src/isp_algo.c ****   return ISP_OK;
 1764              		.loc 1 1206 10 view .LVU526
 1765 0016 0020     		movs	r0, #0
 1766              	.LVL153:
 1767              	.L148:
1207:../Middlewares/stm32-mw-camera/ISP_Library/isp/Src/isp_algo.c **** }
 1768              		.loc 1 1207 1 view .LVU527
 1769 0018 38BD     		pop	{r3, r4, r5, pc}
 1770              	.LVL154:
 1771              	.L146:
1190:../Middlewares/stm32-mw-camera/ISP_Library/isp/Src/isp_algo.c ****     {
 1772              		.loc 1 1190 32 discriminator 1 view .LVU528
 1773 001a 4B68     		ldr	r3, [r1, #4]
1190:../Middlewares/stm32-mw-camera/ISP_Library/isp/Src/isp_algo.c ****     {
 1774              		.loc 1 1190 24 discriminator 1 view .LVU529
 1775 001c 002B     		cmp	r3, #0
 1776 001e F7D0     		beq	.L149
1192:../Middlewares/stm32-mw-camera/ISP_Library/isp/Src/isp_algo.c ****       if (ret != ISP_OK)
 1777              		.loc 1 1192 7 is_stmt 1 view .LVU530
1192:../Middlewares/stm32-mw-camera/ISP_Library/isp/Src/isp_algo.c ****       if (ret != ISP_OK)
 1778              		.loc 1 1192 13 is_stmt 0 view .LVU531
 1779 0020 2046     		mov	r0, r4
 1780 0022 9847     		blx	r3
 1781              	.LVL155:
1193:../Middlewares/stm32-mw-camera/ISP_Library/isp/Src/isp_algo.c ****       {
 1782              		.loc 1 1193 7 is_stmt 1 view .LVU532
1193:../Middlewares/stm32-mw-camera/ISP_Library/isp/Src/isp_algo.c ****       {
 1783              		.loc 1 1193 10 is_stmt 0 view .LVU533
 1784 0024 0028     		cmp	r0, #0
 1785 0026 F3D0     		beq	.L149
 1786 0028 F6E7     		b	.L148
 1787              	.L158:
 1788 002a 00BF     		.align	2
 1789              	.L157:
 1790 002c 00000000 		.word	ISP_Algo_List
 1791              		.cfi_endproc
 1792              	.LFE901:
 1794              		.section	.text.ISP_Algo_DeInit,"ax",%progbits
 1795              		.align	1
 1796              		.global	ISP_Algo_DeInit
 1797              		.syntax unified
 1798              		.thumb
 1799              		.thumb_func
 1801              	ISP_Algo_DeInit:
 1802              	.LVL156:
 1803              	.LFB902:
1208:../Middlewares/stm32-mw-camera/ISP_Library/isp/Src/isp_algo.c **** 
1209:../Middlewares/stm32-mw-camera/ISP_Library/isp/Src/isp_algo.c **** /**
1210:../Middlewares/stm32-mw-camera/ISP_Library/isp/Src/isp_algo.c ****   * @brief  ISP_Algo_DeInit
1211:../Middlewares/stm32-mw-camera/ISP_Library/isp/Src/isp_algo.c ****   *         Deinitialize all the algorithms
1212:../Middlewares/stm32-mw-camera/ISP_Library/isp/Src/isp_algo.c ****   * @param  hIsp: ISP device handle
1213:../Middlewares/stm32-mw-camera/ISP_Library/isp/Src/isp_algo.c ****   * @retval operation result
1214:../Middlewares/stm32-mw-camera/ISP_Library/isp/Src/isp_algo.c ****   */
1215:../Middlewares/stm32-mw-camera/ISP_Library/isp/Src/isp_algo.c **** ISP_StatusTypeDef ISP_Algo_DeInit(ISP_HandleTypeDef *hIsp)
1216:../Middlewares/stm32-mw-camera/ISP_Library/isp/Src/isp_algo.c **** {
 1804              		.loc 1 1216 1 is_stmt 1 view -0
ARM GAS  /tmp/ccCLNRaf.s 			page 62


 1805              		.cfi_startproc
 1806              		@ args = 0, pretend = 0, frame = 0
 1807              		@ frame_needed = 0, uses_anonymous_args = 0
1217:../Middlewares/stm32-mw-camera/ISP_Library/isp/Src/isp_algo.c ****   ISP_AlgoTypeDef *algo;
 1808              		.loc 1 1217 3 view .LVU535
1218:../Middlewares/stm32-mw-camera/ISP_Library/isp/Src/isp_algo.c ****   ISP_StatusTypeDef ret;
 1809              		.loc 1 1218 3 view .LVU536
1219:../Middlewares/stm32-mw-camera/ISP_Library/isp/Src/isp_algo.c ****   uint8_t i;
 1810              		.loc 1 1219 3 view .LVU537
1220:../Middlewares/stm32-mw-camera/ISP_Library/isp/Src/isp_algo.c **** 
1221:../Middlewares/stm32-mw-camera/ISP_Library/isp/Src/isp_algo.c ****   for (i = 0; i < sizeof(ISP_Algo_List) / sizeof(*ISP_Algo_List); i++)
 1811              		.loc 1 1221 3 view .LVU538
 1812              		.loc 1 1221 17 discriminator 1 view .LVU539
1216:../Middlewares/stm32-mw-camera/ISP_Library/isp/Src/isp_algo.c ****   ISP_AlgoTypeDef *algo;
 1813              		.loc 1 1216 1 is_stmt 0 view .LVU540
 1814 0000 38B5     		push	{r3, r4, r5, lr}
 1815              		.cfi_def_cfa_offset 16
 1816              		.cfi_offset 3, -16
 1817              		.cfi_offset 4, -12
 1818              		.cfi_offset 5, -8
 1819              		.cfi_offset 14, -4
1216:../Middlewares/stm32-mw-camera/ISP_Library/isp/Src/isp_algo.c ****   ISP_AlgoTypeDef *algo;
 1820              		.loc 1 1216 1 view .LVU541
 1821 0002 0446     		mov	r4, r0
 1822 0004 0025     		movs	r5, #0
 1823              	.LVL157:
 1824              	.L161:
1222:../Middlewares/stm32-mw-camera/ISP_Library/isp/Src/isp_algo.c ****   {
1223:../Middlewares/stm32-mw-camera/ISP_Library/isp/Src/isp_algo.c ****     algo = hIsp->algorithm[i];
 1825              		.loc 1 1223 5 is_stmt 1 view .LVU542
 1826              		.loc 1 1223 10 is_stmt 0 view .LVU543
 1827 0006 A369     		ldr	r3, [r4, #24]
 1828 0008 5959     		ldr	r1, [r3, r5]
 1829              	.LVL158:
1224:../Middlewares/stm32-mw-camera/ISP_Library/isp/Src/isp_algo.c ****     if ((algo != NULL) && (algo->DeInit != NULL))
 1830              		.loc 1 1224 5 is_stmt 1 view .LVU544
 1831              		.loc 1 1224 8 is_stmt 0 view .LVU545
 1832 000a 21B9     		cbnz	r1, .L160
 1833              	.LVL159:
 1834              	.L163:
1221:../Middlewares/stm32-mw-camera/ISP_Library/isp/Src/isp_algo.c ****   {
 1835              		.loc 1 1221 68 is_stmt 1 discriminator 2 view .LVU546
1221:../Middlewares/stm32-mw-camera/ISP_Library/isp/Src/isp_algo.c ****   {
 1836              		.loc 1 1221 17 discriminator 1 view .LVU547
 1837 000c 0435     		adds	r5, r5, #4
 1838              	.LVL160:
1221:../Middlewares/stm32-mw-camera/ISP_Library/isp/Src/isp_algo.c ****   {
 1839              		.loc 1 1221 17 is_stmt 0 discriminator 1 view .LVU548
 1840 000e 102D     		cmp	r5, #16
 1841 0010 F9D1     		bne	.L161
1225:../Middlewares/stm32-mw-camera/ISP_Library/isp/Src/isp_algo.c ****     {
1226:../Middlewares/stm32-mw-camera/ISP_Library/isp/Src/isp_algo.c ****       ret = algo->DeInit((void*)hIsp, (void*)algo);
1227:../Middlewares/stm32-mw-camera/ISP_Library/isp/Src/isp_algo.c ****       if (ret != ISP_OK)
1228:../Middlewares/stm32-mw-camera/ISP_Library/isp/Src/isp_algo.c ****       {
1229:../Middlewares/stm32-mw-camera/ISP_Library/isp/Src/isp_algo.c ****         return ret;
1230:../Middlewares/stm32-mw-camera/ISP_Library/isp/Src/isp_algo.c ****       }
1231:../Middlewares/stm32-mw-camera/ISP_Library/isp/Src/isp_algo.c ****     }
ARM GAS  /tmp/ccCLNRaf.s 			page 63


1232:../Middlewares/stm32-mw-camera/ISP_Library/isp/Src/isp_algo.c ****   }
1233:../Middlewares/stm32-mw-camera/ISP_Library/isp/Src/isp_algo.c **** 
