ARM GAS  /tmp/ccmL1RJj.s 			page 1


   1              		.arch armv8.1-m.main
   2              		.fpu fpv5-d16
   3              		.arch_extension dsp
   4              		.arch_extension fp
   5              		.arch_extension fp.dp
   6              		.arch_extension mve
   7              		.arch_extension mve.fp
   8              		.eabi_attribute 5, "cortex-m55"
   9              		.eabi_attribute 28, 1
  10              		.eabi_attribute 20, 1
  11              		.eabi_attribute 21, 1
  12              		.eabi_attribute 23, 3
  13              		.eabi_attribute 24, 1
  14              		.eabi_attribute 25, 1
  15              		.eabi_attribute 26, 1
  16              		.eabi_attribute 30, 4
  17              		.eabi_attribute 34, 1
  18              		.eabi_attribute 38, 1
  19              		.eabi_attribute 18, 4
  20              		.file	"ll_aton_runtime.c"
  21              		.text
  22              	.Ltext0:
  23              		.cfi_sections	.debug_frame
  24              		.file 1 "../Middlewares/stedgeai-lib/Npu/ll_aton/ll_aton_runtime.c"
  25              		.section	.text.__LL_ATON_RT_Init_Network,"ax",%progbits
  26              		.align	1
  27              		.syntax unified
  28              		.thumb
  29              		.thumb_func
  31              	__LL_ATON_RT_Init_Network:
  32              	.LVL0:
  33              	.LFB355:
   1:../Middlewares/stedgeai-lib/Npu/ll_aton/ll_aton_runtime.c **** /**
   2:../Middlewares/stedgeai-lib/Npu/ll_aton/ll_aton_runtime.c ****  ******************************************************************************
   3:../Middlewares/stedgeai-lib/Npu/ll_aton/ll_aton_runtime.c ****  * @file    ll_aton_runtime.c
   4:../Middlewares/stedgeai-lib/Npu/ll_aton/ll_aton_runtime.c ****  * @author  SRA Artificial Intelligence & Embedded Architectures
   5:../Middlewares/stedgeai-lib/Npu/ll_aton/ll_aton_runtime.c ****  * @brief   ATON LL runtime.
   6:../Middlewares/stedgeai-lib/Npu/ll_aton/ll_aton_runtime.c ****  * @note    ATON LL runtime currently assumes a single network run
   7:../Middlewares/stedgeai-lib/Npu/ll_aton/ll_aton_runtime.c ****  ******************************************************************************
   8:../Middlewares/stedgeai-lib/Npu/ll_aton/ll_aton_runtime.c ****  * @attention
   9:../Middlewares/stedgeai-lib/Npu/ll_aton/ll_aton_runtime.c ****  *
  10:../Middlewares/stedgeai-lib/Npu/ll_aton/ll_aton_runtime.c ****  * Copyright (c) 2024 STMicroelectronics.
  11:../Middlewares/stedgeai-lib/Npu/ll_aton/ll_aton_runtime.c ****  * All rights reserved.
  12:../Middlewares/stedgeai-lib/Npu/ll_aton/ll_aton_runtime.c ****  *
  13:../Middlewares/stedgeai-lib/Npu/ll_aton/ll_aton_runtime.c ****  * This software is licensed under terms that can be found in the LICENSE file
  14:../Middlewares/stedgeai-lib/Npu/ll_aton/ll_aton_runtime.c ****  * in the root directory of this software component.
  15:../Middlewares/stedgeai-lib/Npu/ll_aton/ll_aton_runtime.c ****  * If no LICENSE file comes with this software, it is provided AS-IS.
  16:../Middlewares/stedgeai-lib/Npu/ll_aton/ll_aton_runtime.c ****  *
  17:../Middlewares/stedgeai-lib/Npu/ll_aton/ll_aton_runtime.c ****  ******************************************************************************
  18:../Middlewares/stedgeai-lib/Npu/ll_aton/ll_aton_runtime.c ****  */
  19:../Middlewares/stedgeai-lib/Npu/ll_aton/ll_aton_runtime.c **** 
  20:../Middlewares/stedgeai-lib/Npu/ll_aton/ll_aton_runtime.c **** #include <inttypes.h>
  21:../Middlewares/stedgeai-lib/Npu/ll_aton/ll_aton_runtime.c **** #include <limits.h>
  22:../Middlewares/stedgeai-lib/Npu/ll_aton/ll_aton_runtime.c **** #include <stdbool.h>
  23:../Middlewares/stedgeai-lib/Npu/ll_aton/ll_aton_runtime.c **** #include <stdint.h>
  24:../Middlewares/stedgeai-lib/Npu/ll_aton/ll_aton_runtime.c **** 
  25:../Middlewares/stedgeai-lib/Npu/ll_aton/ll_aton_runtime.c **** #include "ll_aton_util.h" // Leave blank line after the include
ARM GAS  /tmp/ccmL1RJj.s 			page 2


  26:../Middlewares/stedgeai-lib/Npu/ll_aton/ll_aton_runtime.c **** 
  27:../Middlewares/stedgeai-lib/Npu/ll_aton/ll_aton_runtime.c **** #include "ll_aton.h"
  28:../Middlewares/stedgeai-lib/Npu/ll_aton/ll_aton_runtime.c **** #include "ll_aton_runtime.h"
  29:../Middlewares/stedgeai-lib/Npu/ll_aton/ll_aton_runtime.c **** 
  30:../Middlewares/stedgeai-lib/Npu/ll_aton/ll_aton_runtime.c **** #if defined(LL_ATON_RT_RELOC)
  31:../Middlewares/stedgeai-lib/Npu/ll_aton/ll_aton_runtime.c **** #include "ll_aton_reloc_network.h"
  32:../Middlewares/stedgeai-lib/Npu/ll_aton/ll_aton_runtime.c **** #endif
  33:../Middlewares/stedgeai-lib/Npu/ll_aton/ll_aton_runtime.c **** 
  34:../Middlewares/stedgeai-lib/Npu/ll_aton/ll_aton_runtime.c **** /* Helper macros for interrupt masks generation */
  35:../Middlewares/stedgeai-lib/Npu/ll_aton/ll_aton_runtime.c **** #if (ATON_INTCTRL_INTS(0) > 32)
  36:../Middlewares/stedgeai-lib/Npu/ll_aton/ll_aton_runtime.c **** #define ATON_INT_GET_MASK(_macro_, _unit_) (_macro_(_unit_, 0, 0) | (((uint64_t)_macro_(_unit_, 0, 
  37:../Middlewares/stedgeai-lib/Npu/ll_aton/ll_aton_runtime.c **** #else
  38:../Middlewares/stedgeai-lib/Npu/ll_aton/ll_aton_runtime.c **** #define ATON_INT_GET_MASK(_macro_, _unit_) _macro_(_unit_, 0, 0)
  39:../Middlewares/stedgeai-lib/Npu/ll_aton/ll_aton_runtime.c **** #endif
  40:../Middlewares/stedgeai-lib/Npu/ll_aton/ll_aton_runtime.c **** 
  41:../Middlewares/stedgeai-lib/Npu/ll_aton/ll_aton_runtime.c **** /*** ATON RT Variables ***/
  42:../Middlewares/stedgeai-lib/Npu/ll_aton/ll_aton_runtime.c **** 
  43:../Middlewares/stedgeai-lib/Npu/ll_aton/ll_aton_runtime.c **** /* Check if current runtime is prepared for underlying ATON IP instance */
  44:../Middlewares/stedgeai-lib/Npu/ll_aton/ll_aton_runtime.c **** #if !defined(ATON_INTCTRL_INTS) || !defined(ATON_STRENG_NUM)
  45:../Middlewares/stedgeai-lib/Npu/ll_aton/ll_aton_runtime.c **** #error macros `ATON_INTCTRL_INTS` & `ATON_STRENG_NUM` MUST be defined but at least one is not!
  46:../Middlewares/stedgeai-lib/Npu/ll_aton/ll_aton_runtime.c **** #else // `ATON_INTCTRL_INTS` and `ATON_STRENG_NUM` are defined
  47:../Middlewares/stedgeai-lib/Npu/ll_aton/ll_aton_runtime.c **** 
  48:../Middlewares/stedgeai-lib/Npu/ll_aton/ll_aton_runtime.c **** #if (ATON_INTCTRL_INTS(0) > 64) || ((ATON_STRENG_NUM + ATON_STRENG_INT(0)) > 32)
  49:../Middlewares/stedgeai-lib/Npu/ll_aton/ll_aton_runtime.c **** #error current ATON runtime supports only up to 64 ATON interrupts and up to 32 streaming engines (
  50:../Middlewares/stedgeai-lib/Npu/ll_aton/ll_aton_runtime.c **** #endif // (ATON_INTCTRL_INTS(0) > 64) || ((ATON_STRENG_NUM + ATON_STRENG_INT(0)) > 32)
  51:../Middlewares/stedgeai-lib/Npu/ll_aton/ll_aton_runtime.c **** 
  52:../Middlewares/stedgeai-lib/Npu/ll_aton/ll_aton_runtime.c **** #if defined(ATON_EPOCHCTRL_NUM) && (ATON_EPOCHCTRL_NUM > 32)
  53:../Middlewares/stedgeai-lib/Npu/ll_aton/ll_aton_runtime.c **** #error current ATON runtime supports only up to 32 epoch controllers!
  54:../Middlewares/stedgeai-lib/Npu/ll_aton/ll_aton_runtime.c **** #endif // (ATON_EPOCHCTRL_NUM > 32)
  55:../Middlewares/stedgeai-lib/Npu/ll_aton/ll_aton_runtime.c **** 
  56:../Middlewares/stedgeai-lib/Npu/ll_aton/ll_aton_runtime.c **** #endif // `ATON_INTCTRL_INTS` and `ATON_STRENG_NUM` are defined
  57:../Middlewares/stedgeai-lib/Npu/ll_aton/ll_aton_runtime.c **** 
  58:../Middlewares/stedgeai-lib/Npu/ll_aton/ll_aton_runtime.c **** LL_ATON_WEAK void dump_dma_state(void){};
  59:../Middlewares/stedgeai-lib/Npu/ll_aton/ll_aton_runtime.c **** 
  60:../Middlewares/stedgeai-lib/Npu/ll_aton/ll_aton_runtime.c **** /* Global variable for the current ATON IP owner */
  61:../Middlewares/stedgeai-lib/Npu/ll_aton/ll_aton_runtime.c **** const NN_Instance_TypeDef *volatile __ll_current_aton_ip_owner = NULL;
  62:../Middlewares/stedgeai-lib/Npu/ll_aton/ll_aton_runtime.c **** #ifndef NDEBUG
  63:../Middlewares/stedgeai-lib/Npu/ll_aton/ll_aton_runtime.c **** /* Current wait mask set */
  64:../Middlewares/stedgeai-lib/Npu/ll_aton/ll_aton_runtime.c **** uint32_t volatile __ll_current_wait_mask = 0;
  65:../Middlewares/stedgeai-lib/Npu/ll_aton/ll_aton_runtime.c **** #endif // !NDEBUG
  66:../Middlewares/stedgeai-lib/Npu/ll_aton/ll_aton_runtime.c **** 
  67:../Middlewares/stedgeai-lib/Npu/ll_aton/ll_aton_runtime.c **** /* Trace runtime callback */
  68:../Middlewares/stedgeai-lib/Npu/ll_aton/ll_aton_runtime.c **** static TraceRuntime_FuncPtr_t ll_aton_init_deinit_trace = NULL;
  69:../Middlewares/stedgeai-lib/Npu/ll_aton/ll_aton_runtime.c **** 
  70:../Middlewares/stedgeai-lib/Npu/ll_aton/ll_aton_runtime.c **** /* Forward declaration */
  71:../Middlewares/stedgeai-lib/Npu/ll_aton/ll_aton_runtime.c **** void ATON_STD_IRQHandler(void);
  72:../Middlewares/stedgeai-lib/Npu/ll_aton/ll_aton_runtime.c **** 
  73:../Middlewares/stedgeai-lib/Npu/ll_aton/ll_aton_runtime.c **** #define LL_ATON_DISABLE_ALL_IRQs()                                                                 
  74:../Middlewares/stedgeai-lib/Npu/ll_aton/ll_aton_runtime.c ****   do                                                                                               
  75:../Middlewares/stedgeai-lib/Npu/ll_aton/ll_aton_runtime.c ****   {                                                                                                
  76:../Middlewares/stedgeai-lib/Npu/ll_aton/ll_aton_runtime.c ****     LL_ATON_OSAL_DISABLE_IRQ(0);                                                                   
  77:../Middlewares/stedgeai-lib/Npu/ll_aton/ll_aton_runtime.c ****     LL_ATON_OSAL_DISABLE_IRQ(1);                                                                   
  78:../Middlewares/stedgeai-lib/Npu/ll_aton/ll_aton_runtime.c ****     LL_ATON_OSAL_DISABLE_IRQ(2);                                                                   
  79:../Middlewares/stedgeai-lib/Npu/ll_aton/ll_aton_runtime.c ****     LL_ATON_OSAL_DISABLE_IRQ(3);                                                                   
  80:../Middlewares/stedgeai-lib/Npu/ll_aton/ll_aton_runtime.c ****   } while (0)
  81:../Middlewares/stedgeai-lib/Npu/ll_aton/ll_aton_runtime.c **** 
  82:../Middlewares/stedgeai-lib/Npu/ll_aton/ll_aton_runtime.c **** /*** Helper Functions ***/
ARM GAS  /tmp/ccmL1RJj.s 			page 3


  83:../Middlewares/stedgeai-lib/Npu/ll_aton/ll_aton_runtime.c **** 
  84:../Middlewares/stedgeai-lib/Npu/ll_aton/ll_aton_runtime.c **** #ifndef NDEBUG
  85:../Middlewares/stedgeai-lib/Npu/ll_aton/ll_aton_runtime.c **** static uint32_t __LL_ATON_RT_CntEpochBlocks(const LL_ATON_RT_EpochBlockItem_t *list)
  86:../Middlewares/stedgeai-lib/Npu/ll_aton/ll_aton_runtime.c **** {
  87:../Middlewares/stedgeai-lib/Npu/ll_aton/ll_aton_runtime.c ****   int i = 0;
  88:../Middlewares/stedgeai-lib/Npu/ll_aton/ll_aton_runtime.c **** 
  89:../Middlewares/stedgeai-lib/Npu/ll_aton/ll_aton_runtime.c ****   if (list != NULL)
  90:../Middlewares/stedgeai-lib/Npu/ll_aton/ll_aton_runtime.c ****   {
  91:../Middlewares/stedgeai-lib/Npu/ll_aton/ll_aton_runtime.c ****     for (i = 1; !EpochBlock_IsLastEpochBlock(list); i++)
  92:../Middlewares/stedgeai-lib/Npu/ll_aton/ll_aton_runtime.c ****     { // Note: also terminating empty epoch block is counted
  93:../Middlewares/stedgeai-lib/Npu/ll_aton/ll_aton_runtime.c ****       list++;
  94:../Middlewares/stedgeai-lib/Npu/ll_aton/ll_aton_runtime.c ****     }
  95:../Middlewares/stedgeai-lib/Npu/ll_aton/ll_aton_runtime.c ****   }
  96:../Middlewares/stedgeai-lib/Npu/ll_aton/ll_aton_runtime.c **** 
  97:../Middlewares/stedgeai-lib/Npu/ll_aton/ll_aton_runtime.c ****   return i;
  98:../Middlewares/stedgeai-lib/Npu/ll_aton/ll_aton_runtime.c **** }
  99:../Middlewares/stedgeai-lib/Npu/ll_aton/ll_aton_runtime.c **** #endif
 100:../Middlewares/stedgeai-lib/Npu/ll_aton/ll_aton_runtime.c **** 
 101:../Middlewares/stedgeai-lib/Npu/ll_aton/ll_aton_runtime.c **** static inline void __LL_ATON_RT_ExecStartEpochBlock(const LL_ATON_RT_EpochBlockItem_t *eb,
 102:../Middlewares/stedgeai-lib/Npu/ll_aton/ll_aton_runtime.c ****                                                     NN_Instance_TypeDef *nn_instance)
 103:../Middlewares/stedgeai-lib/Npu/ll_aton/ll_aton_runtime.c **** {
 104:../Middlewares/stedgeai-lib/Npu/ll_aton/ll_aton_runtime.c ****   LL_ATON_ASSERT(nn_instance->exec_state.next_epoch_block == NULL);
 105:../Middlewares/stedgeai-lib/Npu/ll_aton/ll_aton_runtime.c **** 
 106:../Middlewares/stedgeai-lib/Npu/ll_aton/ll_aton_runtime.c ****   if (nn_instance->exec_state.epoch_callback_function != NULL)
 107:../Middlewares/stedgeai-lib/Npu/ll_aton/ll_aton_runtime.c ****     nn_instance->exec_state.epoch_callback_function(LL_ATON_RT_Callbacktype_PRE_START, nn_instance,
 108:../Middlewares/stedgeai-lib/Npu/ll_aton/ll_aton_runtime.c **** 
 109:../Middlewares/stedgeai-lib/Npu/ll_aton/ll_aton_runtime.c ****   /* Is it the first epoch block in an AtoNN epoch? */
 110:../Middlewares/stedgeai-lib/Npu/ll_aton/ll_aton_runtime.c ****   if (EpochBlock_IsEpochStart(eb))
 111:../Middlewares/stedgeai-lib/Npu/ll_aton/ll_aton_runtime.c ****   {
 112:../Middlewares/stedgeai-lib/Npu/ll_aton/ll_aton_runtime.c ****     __LL_ATON_RT_Start_AtoNN_Epoch(nn_instance);
 113:../Middlewares/stedgeai-lib/Npu/ll_aton/ll_aton_runtime.c ****   }
 114:../Middlewares/stedgeai-lib/Npu/ll_aton/ll_aton_runtime.c **** 
 115:../Middlewares/stedgeai-lib/Npu/ll_aton/ll_aton_runtime.c ****   /* Grab ATON IP lock in case it's a HW epoch or an epoch blob */
 116:../Middlewares/stedgeai-lib/Npu/ll_aton/ll_aton_runtime.c ****   if (EpochBlock_IsEpochPureHW(eb)) // epoch blobs are flagged as pure HW, so checking for epoch bl
 117:../Middlewares/stedgeai-lib/Npu/ll_aton/ll_aton_runtime.c ****   {
 118:../Middlewares/stedgeai-lib/Npu/ll_aton/ll_aton_runtime.c ****     __ll_set_aton_owner(nn_instance);
 119:../Middlewares/stedgeai-lib/Npu/ll_aton/ll_aton_runtime.c ****   }
 120:../Middlewares/stedgeai-lib/Npu/ll_aton/ll_aton_runtime.c **** 
 121:../Middlewares/stedgeai-lib/Npu/ll_aton/ll_aton_runtime.c ****   if (!EpochBlock_IsEpochBlob(eb))
 122:../Middlewares/stedgeai-lib/Npu/ll_aton/ll_aton_runtime.c ****   { // standard epoch block handling based on streaming engines
 123:../Middlewares/stedgeai-lib/Npu/ll_aton/ll_aton_runtime.c ****     /* set wait mask(s) in interrupt controller */
 124:../Middlewares/stedgeai-lib/Npu/ll_aton/ll_aton_runtime.c ****     if (EpochBlock_IsEpochPureHW(eb) || EpochBlock_IsEpochInternal(eb))
 125:../Middlewares/stedgeai-lib/Npu/ll_aton/ll_aton_runtime.c ****     {
 126:../Middlewares/stedgeai-lib/Npu/ll_aton/ll_aton_runtime.c ****       LL_ATON_ASSERT(__ll_current_aton_ip_owner == nn_instance);
 127:../Middlewares/stedgeai-lib/Npu/ll_aton/ll_aton_runtime.c ****       __LL_ATON_RT_SetWaitMask(eb->wait_mask);
 128:../Middlewares/stedgeai-lib/Npu/ll_aton/ll_aton_runtime.c ****     }
 129:../Middlewares/stedgeai-lib/Npu/ll_aton/ll_aton_runtime.c ****   }
 130:../Middlewares/stedgeai-lib/Npu/ll_aton/ll_aton_runtime.c ****   else
 131:../Middlewares/stedgeai-lib/Npu/ll_aton/ll_aton_runtime.c ****   { // epoch blob handling based on epoch controller
 132:../Middlewares/stedgeai-lib/Npu/ll_aton/ll_aton_runtime.c **** #if defined(ATON_EPOCHCTRL_NUM) &&                                                                 
 133:../Middlewares/stedgeai-lib/Npu/ll_aton/ll_aton_runtime.c ****     (LL_ATON_RT_MODE == LL_ATON_RT_ASYNC) // Polling mode is not allowed/supported when using the e
 134:../Middlewares/stedgeai-lib/Npu/ll_aton/ll_aton_runtime.c ****     /* reset wait mask(s) in interrupt controller, but ignore stream engine completion event interr
 135:../Middlewares/stedgeai-lib/Npu/ll_aton/ll_aton_runtime.c ****     __LL_ATON_RT_SetWaitMask(ATON_STRENG_INT_MASK(ATON_STRENG_NUM, 0, 0));
 136:../Middlewares/stedgeai-lib/Npu/ll_aton/ll_aton_runtime.c **** #else // !ATON_EPOCHCTRL_NUM || LL_ATON_RT_POLLING
 137:../Middlewares/stedgeai-lib/Npu/ll_aton/ll_aton_runtime.c ****     LL_ATON_PRINTF("Trying to execute an epoch blob, but\n\t"
 138:../Middlewares/stedgeai-lib/Npu/ll_aton/ll_aton_runtime.c ****                    "- either ATON machine configuration does not contain an epoch controller unit o
 139:../Middlewares/stedgeai-lib/Npu/ll_aton/ll_aton_runtime.c ****                    "- ATON runtime is configured for polling mode execution which does not support 
ARM GAS  /tmp/ccmL1RJj.s 			page 4


 140:../Middlewares/stedgeai-lib/Npu/ll_aton/ll_aton_runtime.c ****                    "controllers\n");
 141:../Middlewares/stedgeai-lib/Npu/ll_aton/ll_aton_runtime.c **** #if (ATON_PLAT_HAS_FFLUSH)
 142:../Middlewares/stedgeai-lib/Npu/ll_aton/ll_aton_runtime.c ****     LL_ATON_FFLUSH(stdout);
 143:../Middlewares/stedgeai-lib/Npu/ll_aton/ll_aton_runtime.c **** #endif // ATON_PLAT_HAS_FFLUSH
 144:../Middlewares/stedgeai-lib/Npu/ll_aton/ll_aton_runtime.c ****     LL_ATON_ASSERT(false); // may never happen
 145:../Middlewares/stedgeai-lib/Npu/ll_aton/ll_aton_runtime.c **** #endif // !ATON_EPOCHCTRL_NUM || LL_ATON_RT_POLLING
 146:../Middlewares/stedgeai-lib/Npu/ll_aton/ll_aton_runtime.c ****   }
 147:../Middlewares/stedgeai-lib/Npu/ll_aton/ll_aton_runtime.c **** 
 148:../Middlewares/stedgeai-lib/Npu/ll_aton/ll_aton_runtime.c ****   if (eb->start_epoch_block != NULL)
 149:../Middlewares/stedgeai-lib/Npu/ll_aton/ll_aton_runtime.c ****   {
 150:../Middlewares/stedgeai-lib/Npu/ll_aton/ll_aton_runtime.c ****     LL_ATON_ASSERT(!EpochBlock_IsEpochPureSW(eb) && !EpochBlock_IsEpochHybrid(eb));
 151:../Middlewares/stedgeai-lib/Npu/ll_aton/ll_aton_runtime.c **** 
 152:../Middlewares/stedgeai-lib/Npu/ll_aton/ll_aton_runtime.c ****     /* start epoch block */
 153:../Middlewares/stedgeai-lib/Npu/ll_aton/ll_aton_runtime.c **** #if defined(LL_ATON_RT_RELOC)
 154:../Middlewares/stedgeai-lib/Npu/ll_aton/ll_aton_runtime.c ****     if (nn_instance->exec_state.inst_reloc != 0)
 155:../Middlewares/stedgeai-lib/Npu/ll_aton/ll_aton_runtime.c ****     {
 156:../Middlewares/stedgeai-lib/Npu/ll_aton/ll_aton_runtime.c ****       ai_rel_call_start_end_function(nn_instance->exec_state.inst_reloc, eb->start_epoch_block, eb,
 157:../Middlewares/stedgeai-lib/Npu/ll_aton/ll_aton_runtime.c ****     }
 158:../Middlewares/stedgeai-lib/Npu/ll_aton/ll_aton_runtime.c ****     else
 159:../Middlewares/stedgeai-lib/Npu/ll_aton/ll_aton_runtime.c ****     {
 160:../Middlewares/stedgeai-lib/Npu/ll_aton/ll_aton_runtime.c ****       eb->start_epoch_block(eb, nn_instance);
 161:../Middlewares/stedgeai-lib/Npu/ll_aton/ll_aton_runtime.c ****     }
 162:../Middlewares/stedgeai-lib/Npu/ll_aton/ll_aton_runtime.c **** #else
 163:../Middlewares/stedgeai-lib/Npu/ll_aton/ll_aton_runtime.c ****     eb->start_epoch_block(eb, nn_instance);
 164:../Middlewares/stedgeai-lib/Npu/ll_aton/ll_aton_runtime.c **** #endif
 165:../Middlewares/stedgeai-lib/Npu/ll_aton/ll_aton_runtime.c ****   }
 166:../Middlewares/stedgeai-lib/Npu/ll_aton/ll_aton_runtime.c **** 
 167:../Middlewares/stedgeai-lib/Npu/ll_aton/ll_aton_runtime.c ****   if (EpochBlock_IsEpochBlob(eb))
 168:../Middlewares/stedgeai-lib/Npu/ll_aton/ll_aton_runtime.c ****   {
 169:../Middlewares/stedgeai-lib/Npu/ll_aton/ll_aton_runtime.c **** #if defined(ATON_EPOCHCTRL_NUM)
 170:../Middlewares/stedgeai-lib/Npu/ll_aton/ll_aton_runtime.c ****     /* configure epoch controller */
 171:../Middlewares/stedgeai-lib/Npu/ll_aton/ll_aton_runtime.c ****     uint32_t ecId = EpochBlock_EpochControllerUnit(eb);
 172:../Middlewares/stedgeai-lib/Npu/ll_aton/ll_aton_runtime.c ****     LL_ATON_ASSERT(ecId < ATON_EPOCHCTRL_NUM); // may never happen
 173:../Middlewares/stedgeai-lib/Npu/ll_aton/ll_aton_runtime.c **** 
 174:../Middlewares/stedgeai-lib/Npu/ll_aton/ll_aton_runtime.c ****     LL_EpochCtrl_InitTypeDef conf;
 175:../Middlewares/stedgeai-lib/Npu/ll_aton/ll_aton_runtime.c ****     conf.stepmode = 0;
 176:../Middlewares/stedgeai-lib/Npu/ll_aton/ll_aton_runtime.c ****     conf.blobaddr = EpochBlock_EpochBlobAddr(eb);
 177:../Middlewares/stedgeai-lib/Npu/ll_aton/ll_aton_runtime.c **** 
 178:../Middlewares/stedgeai-lib/Npu/ll_aton/ll_aton_runtime.c ****     LL_EpochCtrl_Init(ecId, &conf);
 179:../Middlewares/stedgeai-lib/Npu/ll_aton/ll_aton_runtime.c **** 
 180:../Middlewares/stedgeai-lib/Npu/ll_aton/ll_aton_runtime.c ****     if (ATON_EPOCHCTRL_ENCRYPTION_EN(ecId) && EpochBlock_IsBlobEncrypted(eb))
 181:../Middlewares/stedgeai-lib/Npu/ll_aton/ll_aton_runtime.c ****     {
 182:../Middlewares/stedgeai-lib/Npu/ll_aton/ll_aton_runtime.c **** #if defined(LL_ATON_RT_RELOC)
 183:../Middlewares/stedgeai-lib/Npu/ll_aton/ll_aton_runtime.c ****       if (nn_instance->exec_state.inst_reloc != 0)
 184:../Middlewares/stedgeai-lib/Npu/ll_aton/ll_aton_runtime.c ****       {
 185:../Middlewares/stedgeai-lib/Npu/ll_aton/ll_aton_runtime.c ****         LL_EpochCtrl_EncryptionInit(ecId, ai_rel_network_blob_encryption_info(nn_instance->exec_sta
 186:../Middlewares/stedgeai-lib/Npu/ll_aton/ll_aton_runtime.c ****       }
 187:../Middlewares/stedgeai-lib/Npu/ll_aton/ll_aton_runtime.c ****       else
 188:../Middlewares/stedgeai-lib/Npu/ll_aton/ll_aton_runtime.c ****       {
 189:../Middlewares/stedgeai-lib/Npu/ll_aton/ll_aton_runtime.c ****         LL_EpochCtrl_EncryptionInit(ecId, nn_instance->network->blob_encryption_info());
 190:../Middlewares/stedgeai-lib/Npu/ll_aton/ll_aton_runtime.c ****       }
 191:../Middlewares/stedgeai-lib/Npu/ll_aton/ll_aton_runtime.c **** #else
 192:../Middlewares/stedgeai-lib/Npu/ll_aton/ll_aton_runtime.c ****       // LL_ATON_ASSERT(nn_instance->network->blob_encryption_info()->enable == 1);
 193:../Middlewares/stedgeai-lib/Npu/ll_aton/ll_aton_runtime.c ****       LL_EpochCtrl_EncryptionInit(ecId, nn_instance->network->blob_encryption_info());
 194:../Middlewares/stedgeai-lib/Npu/ll_aton/ll_aton_runtime.c **** #endif
 195:../Middlewares/stedgeai-lib/Npu/ll_aton/ll_aton_runtime.c ****     }
 196:../Middlewares/stedgeai-lib/Npu/ll_aton/ll_aton_runtime.c **** 
ARM GAS  /tmp/ccmL1RJj.s 			page 5


 197:../Middlewares/stedgeai-lib/Npu/ll_aton/ll_aton_runtime.c ****     /* start/enable epoch controller */
 198:../Middlewares/stedgeai-lib/Npu/ll_aton/ll_aton_runtime.c ****     ATON_ENABLE(EPOCHCTRL, ecId);
 199:../Middlewares/stedgeai-lib/Npu/ll_aton/ll_aton_runtime.c **** #else  // !ATON_EPOCHCTRL_NUM
 200:../Middlewares/stedgeai-lib/Npu/ll_aton/ll_aton_runtime.c ****     LL_ATON_ASSERT(false); // may never happen
 201:../Middlewares/stedgeai-lib/Npu/ll_aton/ll_aton_runtime.c **** #endif // !ATON_EPOCHCTRL_NUM
 202:../Middlewares/stedgeai-lib/Npu/ll_aton/ll_aton_runtime.c ****   }
 203:../Middlewares/stedgeai-lib/Npu/ll_aton/ll_aton_runtime.c **** 
 204:../Middlewares/stedgeai-lib/Npu/ll_aton/ll_aton_runtime.c ****   if (nn_instance->exec_state.epoch_callback_function != NULL)
 205:../Middlewares/stedgeai-lib/Npu/ll_aton/ll_aton_runtime.c ****     nn_instance->exec_state.epoch_callback_function(LL_ATON_RT_Callbacktype_POST_START, nn_instance
 206:../Middlewares/stedgeai-lib/Npu/ll_aton/ll_aton_runtime.c **** }
 207:../Middlewares/stedgeai-lib/Npu/ll_aton/ll_aton_runtime.c **** 
 208:../Middlewares/stedgeai-lib/Npu/ll_aton/ll_aton_runtime.c **** static inline void __LL_ATON_RT_ExecEndEpochBlock(const LL_ATON_RT_EpochBlockItem_t *eb,
 209:../Middlewares/stedgeai-lib/Npu/ll_aton/ll_aton_runtime.c ****                                                   NN_Instance_TypeDef *nn_instance)
 210:../Middlewares/stedgeai-lib/Npu/ll_aton/ll_aton_runtime.c **** {
 211:../Middlewares/stedgeai-lib/Npu/ll_aton/ll_aton_runtime.c ****   if (nn_instance->exec_state.epoch_callback_function != NULL)
 212:../Middlewares/stedgeai-lib/Npu/ll_aton/ll_aton_runtime.c ****     nn_instance->exec_state.epoch_callback_function(LL_ATON_RT_Callbacktype_PRE_END, nn_instance, e
 213:../Middlewares/stedgeai-lib/Npu/ll_aton/ll_aton_runtime.c **** 
 214:../Middlewares/stedgeai-lib/Npu/ll_aton/ll_aton_runtime.c ****   if (EpochBlock_IsEpochBlob(eb))
 215:../Middlewares/stedgeai-lib/Npu/ll_aton/ll_aton_runtime.c ****   {
 216:../Middlewares/stedgeai-lib/Npu/ll_aton/ll_aton_runtime.c **** #if defined(ATON_EPOCHCTRL_NUM)
 217:../Middlewares/stedgeai-lib/Npu/ll_aton/ll_aton_runtime.c ****     /* stop/disable epoch controller */
 218:../Middlewares/stedgeai-lib/Npu/ll_aton/ll_aton_runtime.c ****     uint32_t ecId = EpochBlock_EpochControllerUnit(eb);
 219:../Middlewares/stedgeai-lib/Npu/ll_aton/ll_aton_runtime.c ****     LL_ATON_ASSERT(ecId < ATON_EPOCHCTRL_NUM); // may never happen
 220:../Middlewares/stedgeai-lib/Npu/ll_aton/ll_aton_runtime.c ****     uint32_t t;
 221:../Middlewares/stedgeai-lib/Npu/ll_aton/ll_aton_runtime.c ****     ATON_DISABLE_CLR_CONFCLR(EPOCHCTRL, ecId);
 222:../Middlewares/stedgeai-lib/Npu/ll_aton/ll_aton_runtime.c **** 
 223:../Middlewares/stedgeai-lib/Npu/ll_aton/ll_aton_runtime.c ****     /* disable epoch controller clock */
 224:../Middlewares/stedgeai-lib/Npu/ll_aton/ll_aton_runtime.c ****     LL_ATON_DisableClock(ATON_EPOCHCTRL_CLKB_CLK(ecId));
 225:../Middlewares/stedgeai-lib/Npu/ll_aton/ll_aton_runtime.c **** #else  // !ATON_EPOCHCTRL_NUM
 226:../Middlewares/stedgeai-lib/Npu/ll_aton/ll_aton_runtime.c ****     LL_ATON_ASSERT(false); // may never happen
 227:../Middlewares/stedgeai-lib/Npu/ll_aton/ll_aton_runtime.c **** #endif // !ATON_EPOCHCTRL_NUM
 228:../Middlewares/stedgeai-lib/Npu/ll_aton/ll_aton_runtime.c ****   }
 229:../Middlewares/stedgeai-lib/Npu/ll_aton/ll_aton_runtime.c **** 
 230:../Middlewares/stedgeai-lib/Npu/ll_aton/ll_aton_runtime.c ****   if (eb->end_epoch_block != NULL)
 231:../Middlewares/stedgeai-lib/Npu/ll_aton/ll_aton_runtime.c ****   {
 232:../Middlewares/stedgeai-lib/Npu/ll_aton/ll_aton_runtime.c **** #if defined(LL_ATON_RT_RELOC)
 233:../Middlewares/stedgeai-lib/Npu/ll_aton/ll_aton_runtime.c ****     if (nn_instance->exec_state.inst_reloc != 0)
 234:../Middlewares/stedgeai-lib/Npu/ll_aton/ll_aton_runtime.c ****     {
 235:../Middlewares/stedgeai-lib/Npu/ll_aton/ll_aton_runtime.c ****       ai_rel_call_start_end_function(nn_instance->exec_state.inst_reloc, eb->end_epoch_block, eb, n
 236:../Middlewares/stedgeai-lib/Npu/ll_aton/ll_aton_runtime.c ****     }
 237:../Middlewares/stedgeai-lib/Npu/ll_aton/ll_aton_runtime.c ****     else
 238:../Middlewares/stedgeai-lib/Npu/ll_aton/ll_aton_runtime.c ****     {
 239:../Middlewares/stedgeai-lib/Npu/ll_aton/ll_aton_runtime.c ****       eb->end_epoch_block(eb, nn_instance);
 240:../Middlewares/stedgeai-lib/Npu/ll_aton/ll_aton_runtime.c ****     }
 241:../Middlewares/stedgeai-lib/Npu/ll_aton/ll_aton_runtime.c **** #else
 242:../Middlewares/stedgeai-lib/Npu/ll_aton/ll_aton_runtime.c ****     eb->end_epoch_block(eb, nn_instance);
 243:../Middlewares/stedgeai-lib/Npu/ll_aton/ll_aton_runtime.c **** #endif
 244:../Middlewares/stedgeai-lib/Npu/ll_aton/ll_aton_runtime.c ****   }
 245:../Middlewares/stedgeai-lib/Npu/ll_aton/ll_aton_runtime.c **** 
 246:../Middlewares/stedgeai-lib/Npu/ll_aton/ll_aton_runtime.c ****   if (EpochBlock_IsEpochPureHW(eb)) // epoch blobs are flagged as pure HW, so checking for epoch bl
 247:../Middlewares/stedgeai-lib/Npu/ll_aton/ll_aton_runtime.c ****   {
 248:../Middlewares/stedgeai-lib/Npu/ll_aton/ll_aton_runtime.c ****     LL_ATON_ASSERT(nn_instance == __ll_current_aton_ip_owner);
 249:../Middlewares/stedgeai-lib/Npu/ll_aton/ll_aton_runtime.c **** 
 250:../Middlewares/stedgeai-lib/Npu/ll_aton/ll_aton_runtime.c ****     /* Reset wait mask */
 251:../Middlewares/stedgeai-lib/Npu/ll_aton/ll_aton_runtime.c ****     __LL_ATON_RT_SetWaitMask(0);
 252:../Middlewares/stedgeai-lib/Npu/ll_aton/ll_aton_runtime.c **** 
 253:../Middlewares/stedgeai-lib/Npu/ll_aton/ll_aton_runtime.c ****     /* Release ATON IP lock in case it's a pure HW epoch */
ARM GAS  /tmp/ccmL1RJj.s 			page 6


 254:../Middlewares/stedgeai-lib/Npu/ll_aton/ll_aton_runtime.c ****     __ll_clear_aton_owner(nn_instance, false);
 255:../Middlewares/stedgeai-lib/Npu/ll_aton/ll_aton_runtime.c ****   }
 256:../Middlewares/stedgeai-lib/Npu/ll_aton/ll_aton_runtime.c **** 
 257:../Middlewares/stedgeai-lib/Npu/ll_aton/ll_aton_runtime.c ****   LL_ATON_ASSERT(EpochBlock_IsEpochInternal(eb) || EpochBlock_IsEpochHybrid(eb) ||
 258:../Middlewares/stedgeai-lib/Npu/ll_aton/ll_aton_runtime.c ****                  (__ll_current_aton_ip_owner != nn_instance));
 259:../Middlewares/stedgeai-lib/Npu/ll_aton/ll_aton_runtime.c **** 
 260:../Middlewares/stedgeai-lib/Npu/ll_aton/ll_aton_runtime.c ****   if (nn_instance->exec_state.epoch_callback_function != NULL)
 261:../Middlewares/stedgeai-lib/Npu/ll_aton/ll_aton_runtime.c ****   {
 262:../Middlewares/stedgeai-lib/Npu/ll_aton/ll_aton_runtime.c ****     nn_instance->exec_state.epoch_callback_function(LL_ATON_RT_Callbacktype_POST_END, nn_instance, 
 263:../Middlewares/stedgeai-lib/Npu/ll_aton/ll_aton_runtime.c ****   }
 264:../Middlewares/stedgeai-lib/Npu/ll_aton/ll_aton_runtime.c **** }
 265:../Middlewares/stedgeai-lib/Npu/ll_aton/ll_aton_runtime.c **** 
 266:../Middlewares/stedgeai-lib/Npu/ll_aton/ll_aton_runtime.c **** static void __LL_ATON_RT_DetermineNextEpochBlock(NN_Instance_TypeDef *nn_instance)
 267:../Middlewares/stedgeai-lib/Npu/ll_aton/ll_aton_runtime.c **** {
 268:../Middlewares/stedgeai-lib/Npu/ll_aton/ll_aton_runtime.c ****   LL_ATON_ASSERT(nn_instance != NULL);
 269:../Middlewares/stedgeai-lib/Npu/ll_aton/ll_aton_runtime.c **** #if (LL_ATON_RT_MODE == LL_ATON_RT_ASYNC)
 270:../Middlewares/stedgeai-lib/Npu/ll_aton/ll_aton_runtime.c ****   LL_ATON_ASSERT(nn_instance->exec_state.triggered_events ==
 271:../Middlewares/stedgeai-lib/Npu/ll_aton/ll_aton_runtime.c ****                  0x0); // with the removal of parallel SW/HW epochs execution all triggered events 
 272:../Middlewares/stedgeai-lib/Npu/ll_aton/ll_aton_runtime.c ****                        // cleared at this point in time!
 273:../Middlewares/stedgeai-lib/Npu/ll_aton/ll_aton_runtime.c **** #endif                 // (LL_ATON_RT_MODE == LL_ATON_RT_ASYNC)
 274:../Middlewares/stedgeai-lib/Npu/ll_aton/ll_aton_runtime.c **** 
 275:../Middlewares/stedgeai-lib/Npu/ll_aton/ll_aton_runtime.c ****   /* Determine if there is a new inserted epoch block array */
 276:../Middlewares/stedgeai-lib/Npu/ll_aton/ll_aton_runtime.c ****   if ((nn_instance->exec_state.next_epoch_block != NULL))
 277:../Middlewares/stedgeai-lib/Npu/ll_aton/ll_aton_runtime.c ****   {
 278:../Middlewares/stedgeai-lib/Npu/ll_aton/ll_aton_runtime.c ****     LL_ATON_ASSERT(nn_instance->exec_state.saved_current_epoch_block == NULL);
 279:../Middlewares/stedgeai-lib/Npu/ll_aton/ll_aton_runtime.c **** 
 280:../Middlewares/stedgeai-lib/Npu/ll_aton/ll_aton_runtime.c ****     /* save current context */
 281:../Middlewares/stedgeai-lib/Npu/ll_aton/ll_aton_runtime.c ****     nn_instance->exec_state.saved_current_epoch_block = nn_instance->exec_state.current_epoch_block
 282:../Middlewares/stedgeai-lib/Npu/ll_aton/ll_aton_runtime.c ****     nn_instance->exec_state.saved_first_epoch_block = nn_instance->exec_state.first_epoch_block;
 283:../Middlewares/stedgeai-lib/Npu/ll_aton/ll_aton_runtime.c **** #ifndef NDEBUG
 284:../Middlewares/stedgeai-lib/Npu/ll_aton/ll_aton_runtime.c ****     nn_instance->exec_state.saved_nr_of_epoch_blocks = nn_instance->exec_state.nr_of_epoch_blocks;
 285:../Middlewares/stedgeai-lib/Npu/ll_aton/ll_aton_runtime.c **** #endif
 286:../Middlewares/stedgeai-lib/Npu/ll_aton/ll_aton_runtime.c **** 
 287:../Middlewares/stedgeai-lib/Npu/ll_aton/ll_aton_runtime.c ****     /* set new context */
 288:../Middlewares/stedgeai-lib/Npu/ll_aton/ll_aton_runtime.c ****     nn_instance->exec_state.current_epoch_block = nn_instance->exec_state.next_epoch_block;
 289:../Middlewares/stedgeai-lib/Npu/ll_aton/ll_aton_runtime.c ****     nn_instance->exec_state.first_epoch_block = nn_instance->exec_state.next_epoch_block;
 290:../Middlewares/stedgeai-lib/Npu/ll_aton/ll_aton_runtime.c **** #ifndef NDEBUG
 291:../Middlewares/stedgeai-lib/Npu/ll_aton/ll_aton_runtime.c ****     nn_instance->exec_state.nr_of_epoch_blocks = __LL_ATON_RT_CntEpochBlocks(nn_instance->exec_stat
 292:../Middlewares/stedgeai-lib/Npu/ll_aton/ll_aton_runtime.c **** #endif
 293:../Middlewares/stedgeai-lib/Npu/ll_aton/ll_aton_runtime.c **** 
 294:../Middlewares/stedgeai-lib/Npu/ll_aton/ll_aton_runtime.c ****     /* reset next epoch block */
 295:../Middlewares/stedgeai-lib/Npu/ll_aton/ll_aton_runtime.c ****     nn_instance->exec_state.next_epoch_block = NULL;
 296:../Middlewares/stedgeai-lib/Npu/ll_aton/ll_aton_runtime.c ****   }
 297:../Middlewares/stedgeai-lib/Npu/ll_aton/ll_aton_runtime.c ****   else
 298:../Middlewares/stedgeai-lib/Npu/ll_aton/ll_aton_runtime.c ****   {
 299:../Middlewares/stedgeai-lib/Npu/ll_aton/ll_aton_runtime.c ****     nn_instance->exec_state.current_epoch_block++;
 300:../Middlewares/stedgeai-lib/Npu/ll_aton/ll_aton_runtime.c ****   }
 301:../Middlewares/stedgeai-lib/Npu/ll_aton/ll_aton_runtime.c **** 
 302:../Middlewares/stedgeai-lib/Npu/ll_aton/ll_aton_runtime.c **** #if (LL_ATON_RT_MODE == LL_ATON_RT_ASYNC)
 303:../Middlewares/stedgeai-lib/Npu/ll_aton/ll_aton_runtime.c ****   nn_instance->exec_state.current_epoch_block_started = false;
 304:../Middlewares/stedgeai-lib/Npu/ll_aton/ll_aton_runtime.c **** #endif
 305:../Middlewares/stedgeai-lib/Npu/ll_aton/ll_aton_runtime.c **** }
 306:../Middlewares/stedgeai-lib/Npu/ll_aton/ll_aton_runtime.c **** 
 307:../Middlewares/stedgeai-lib/Npu/ll_aton/ll_aton_runtime.c **** static inline uint32_t __LL_ATON_RT_GetWaitMask(const LL_ATON_RT_EpochBlockItem_t *eb)
 308:../Middlewares/stedgeai-lib/Npu/ll_aton/ll_aton_runtime.c **** {
 309:../Middlewares/stedgeai-lib/Npu/ll_aton/ll_aton_runtime.c ****   if (EpochBlock_IsEpochBlob(eb))
 310:../Middlewares/stedgeai-lib/Npu/ll_aton/ll_aton_runtime.c ****   {
ARM GAS  /tmp/ccmL1RJj.s 			page 7


 311:../Middlewares/stedgeai-lib/Npu/ll_aton/ll_aton_runtime.c ****     // in case of epoch blob `wait_mask` contains unit number of epoch controller to use
 312:../Middlewares/stedgeai-lib/Npu/ll_aton/ll_aton_runtime.c ****     return (1 << EpochBlock_EpochControllerUnit(eb));
 313:../Middlewares/stedgeai-lib/Npu/ll_aton/ll_aton_runtime.c ****   }
 314:../Middlewares/stedgeai-lib/Npu/ll_aton/ll_aton_runtime.c ****   else
 315:../Middlewares/stedgeai-lib/Npu/ll_aton/ll_aton_runtime.c ****   {
 316:../Middlewares/stedgeai-lib/Npu/ll_aton/ll_aton_runtime.c ****     return eb->wait_mask; // in case of "normal" epoch block `wait_mask` contains bitmask of (outpu
 317:../Middlewares/stedgeai-lib/Npu/ll_aton/ll_aton_runtime.c ****                           // wait for
 318:../Middlewares/stedgeai-lib/Npu/ll_aton/ll_aton_runtime.c ****   }
 319:../Middlewares/stedgeai-lib/Npu/ll_aton/ll_aton_runtime.c **** }
 320:../Middlewares/stedgeai-lib/Npu/ll_aton/ll_aton_runtime.c **** 
 321:../Middlewares/stedgeai-lib/Npu/ll_aton/ll_aton_runtime.c **** static inline void __LL_ATON_RT_Init_Network(NN_Instance_TypeDef *nn_instance)
 322:../Middlewares/stedgeai-lib/Npu/ll_aton/ll_aton_runtime.c **** {
  34              		.loc 1 322 1 view -0
  35              		.cfi_startproc
  36              		@ args = 0, pretend = 0, frame = 0
  37              		@ frame_needed = 0, uses_anonymous_args = 0
 323:../Middlewares/stedgeai-lib/Npu/ll_aton/ll_aton_runtime.c ****   /** Exit if `nn_instance` is equal to NULL **/
 324:../Middlewares/stedgeai-lib/Npu/ll_aton/ll_aton_runtime.c ****   if (nn_instance == NULL)
  38              		.loc 1 324 3 view .LVU1
 322:../Middlewares/stedgeai-lib/Npu/ll_aton/ll_aton_runtime.c ****   /** Exit if `nn_instance` is equal to NULL **/
  39              		.loc 1 322 1 is_stmt 0 view .LVU2
  40 0000 10B5     		push	{r4, lr}
  41              		.cfi_def_cfa_offset 8
  42              		.cfi_offset 4, -8
  43              		.cfi_offset 14, -4
  44              		.loc 1 324 6 view .LVU3
  45 0002 0446     		mov	r4, r0
  46 0004 F8B1     		cbz	r0, .L1
 325:../Middlewares/stedgeai-lib/Npu/ll_aton/ll_aton_runtime.c ****   {
 326:../Middlewares/stedgeai-lib/Npu/ll_aton/ll_aton_runtime.c ****     return;
 327:../Middlewares/stedgeai-lib/Npu/ll_aton/ll_aton_runtime.c ****   }
 328:../Middlewares/stedgeai-lib/Npu/ll_aton/ll_aton_runtime.c **** 
 329:../Middlewares/stedgeai-lib/Npu/ll_aton/ll_aton_runtime.c ****   /** Exit if `nn_instance->network` is equal to NULL **/
 330:../Middlewares/stedgeai-lib/Npu/ll_aton/ll_aton_runtime.c ****   if (nn_instance->network == NULL)
  47              		.loc 1 330 3 is_stmt 1 view .LVU4
  48              		.loc 1 330 18 is_stmt 0 view .LVU5
  49 0006 0368     		ldr	r3, [r0]
  50              		.loc 1 330 6 view .LVU6
  51 0008 EBB1     		cbz	r3, .L1
 331:../Middlewares/stedgeai-lib/Npu/ll_aton/ll_aton_runtime.c ****   {
 332:../Middlewares/stedgeai-lib/Npu/ll_aton/ll_aton_runtime.c ****     return;
 333:../Middlewares/stedgeai-lib/Npu/ll_aton/ll_aton_runtime.c ****   }
 334:../Middlewares/stedgeai-lib/Npu/ll_aton/ll_aton_runtime.c **** 
 335:../Middlewares/stedgeai-lib/Npu/ll_aton/ll_aton_runtime.c ****   /** Initialize static variables **/
 336:../Middlewares/stedgeai-lib/Npu/ll_aton/ll_aton_runtime.c ****   /* set context */
 337:../Middlewares/stedgeai-lib/Npu/ll_aton/ll_aton_runtime.c **** #if defined(LL_ATON_RT_RELOC)
 338:../Middlewares/stedgeai-lib/Npu/ll_aton/ll_aton_runtime.c ****   const LL_ATON_RT_EpochBlockItem_t *eb_list;
 339:../Middlewares/stedgeai-lib/Npu/ll_aton/ll_aton_runtime.c ****   if (nn_instance->exec_state.inst_reloc != 0)
 340:../Middlewares/stedgeai-lib/Npu/ll_aton/ll_aton_runtime.c ****   {
 341:../Middlewares/stedgeai-lib/Npu/ll_aton/ll_aton_runtime.c ****     eb_list = ai_rel_network_get_epoch_items(nn_instance->exec_state.inst_reloc);
 342:../Middlewares/stedgeai-lib/Npu/ll_aton/ll_aton_runtime.c ****   }
 343:../Middlewares/stedgeai-lib/Npu/ll_aton/ll_aton_runtime.c ****   else
 344:../Middlewares/stedgeai-lib/Npu/ll_aton/ll_aton_runtime.c ****   {
 345:../Middlewares/stedgeai-lib/Npu/ll_aton/ll_aton_runtime.c ****     eb_list = nn_instance->network->epoch_block_items();
 346:../Middlewares/stedgeai-lib/Npu/ll_aton/ll_aton_runtime.c ****   }
 347:../Middlewares/stedgeai-lib/Npu/ll_aton/ll_aton_runtime.c **** #else
 348:../Middlewares/stedgeai-lib/Npu/ll_aton/ll_aton_runtime.c ****   const LL_ATON_RT_EpochBlockItem_t *eb_list = nn_instance->network->epoch_block_items();
ARM GAS  /tmp/ccmL1RJj.s 			page 8


  52              		.loc 1 348 3 is_stmt 1 view .LVU7
  53              		.loc 1 348 48 is_stmt 0 view .LVU8
  54 000a DB69     		ldr	r3, [r3, #28]
  55 000c 9847     		blx	r3
  56              	.LVL1:
 349:../Middlewares/stedgeai-lib/Npu/ll_aton/ll_aton_runtime.c **** #endif
 350:../Middlewares/stedgeai-lib/Npu/ll_aton/ll_aton_runtime.c ****   nn_instance->exec_state.current_epoch_block = eb_list;
  57              		.loc 1 350 3 is_stmt 1 view .LVU9
 351:../Middlewares/stedgeai-lib/Npu/ll_aton/ll_aton_runtime.c ****   nn_instance->exec_state.first_epoch_block = eb_list;
 352:../Middlewares/stedgeai-lib/Npu/ll_aton/ll_aton_runtime.c ****   nn_instance->exec_state.next_epoch_block = NULL;
  58              		.loc 1 352 44 is_stmt 0 view .LVU10
  59 000e 0023     		movs	r3, #0
 350:../Middlewares/stedgeai-lib/Npu/ll_aton/ll_aton_runtime.c ****   nn_instance->exec_state.first_epoch_block = eb_list;
  60              		.loc 1 350 47 view .LVU11
  61 0010 6060     		str	r0, [r4, #4]
 351:../Middlewares/stedgeai-lib/Npu/ll_aton/ll_aton_runtime.c ****   nn_instance->exec_state.first_epoch_block = eb_list;
  62              		.loc 1 351 3 is_stmt 1 view .LVU12
 351:../Middlewares/stedgeai-lib/Npu/ll_aton/ll_aton_runtime.c ****   nn_instance->exec_state.first_epoch_block = eb_list;
  63              		.loc 1 351 45 is_stmt 0 view .LVU13
  64 0012 A060     		str	r0, [r4, #8]
  65              		.loc 1 352 3 is_stmt 1 view .LVU14
  66              		.loc 1 352 44 is_stmt 0 view .LVU15
  67 0014 E360     		str	r3, [r4, #12]
 353:../Middlewares/stedgeai-lib/Npu/ll_aton/ll_aton_runtime.c **** 
 354:../Middlewares/stedgeai-lib/Npu/ll_aton/ll_aton_runtime.c ****   /* set saved context */
 355:../Middlewares/stedgeai-lib/Npu/ll_aton/ll_aton_runtime.c ****   nn_instance->exec_state.saved_current_epoch_block = NULL;
  68              		.loc 1 355 3 is_stmt 1 view .LVU16
  69              		.loc 1 355 53 is_stmt 0 view .LVU17
  70 0016 2361     		str	r3, [r4, #16]
 356:../Middlewares/stedgeai-lib/Npu/ll_aton/ll_aton_runtime.c ****   nn_instance->exec_state.saved_first_epoch_block = NULL;
  71              		.loc 1 356 3 is_stmt 1 view .LVU18
  72              		.loc 1 356 51 is_stmt 0 view .LVU19
  73 0018 6361     		str	r3, [r4, #20]
 357:../Middlewares/stedgeai-lib/Npu/ll_aton/ll_aton_runtime.c **** #ifndef NDEBUG
 358:../Middlewares/stedgeai-lib/Npu/ll_aton/ll_aton_runtime.c ****   nn_instance->exec_state.nr_of_epoch_blocks = __LL_ATON_RT_CntEpochBlocks(nn_instance->exec_state.
  74              		.loc 1 358 3 is_stmt 1 view .LVU20
  75              		.loc 1 358 99 is_stmt 0 view .LVU21
  76 001a 6368     		ldr	r3, [r4, #4]
  77              	.LVL2:
  78              	.LBB85:
  79              	.LBI85:
  85:../Middlewares/stedgeai-lib/Npu/ll_aton/ll_aton_runtime.c **** {
  80              		.loc 1 85 17 is_stmt 1 view .LVU22
  81              	.LBB86:
  87:../Middlewares/stedgeai-lib/Npu/ll_aton/ll_aton_runtime.c **** 
  82              		.loc 1 87 3 view .LVU23
  89:../Middlewares/stedgeai-lib/Npu/ll_aton/ll_aton_runtime.c ****   {
  83              		.loc 1 89 3 view .LVU24
  89:../Middlewares/stedgeai-lib/Npu/ll_aton/ll_aton_runtime.c ****   {
  84              		.loc 1 89 6 is_stmt 0 view .LVU25
  85 001c 8BB9     		cbnz	r3, .L8
  87:../Middlewares/stedgeai-lib/Npu/ll_aton/ll_aton_runtime.c **** 
  86              		.loc 1 87 7 view .LVU26
  87 001e 1A46     		mov	r2, r3
  88              	.LVL3:
  89              	.L6:
  97:../Middlewares/stedgeai-lib/Npu/ll_aton/ll_aton_runtime.c **** }
ARM GAS  /tmp/ccmL1RJj.s 			page 9


  90              		.loc 1 97 3 is_stmt 1 view .LVU27
  97:../Middlewares/stedgeai-lib/Npu/ll_aton/ll_aton_runtime.c **** }
  91              		.loc 1 97 3 is_stmt 0 view .LVU28
  92              	.LBE86:
  93              	.LBE85:
  94              		.loc 1 358 46 discriminator 1 view .LVU29
  95 0020 E261     		str	r2, [r4, #28]
 359:../Middlewares/stedgeai-lib/Npu/ll_aton/ll_aton_runtime.c ****   nn_instance->exec_state.saved_nr_of_epoch_blocks = 0;
  96              		.loc 1 359 3 is_stmt 1 view .LVU30
  97              		.loc 1 359 52 is_stmt 0 view .LVU31
  98 0022 0022     		movs	r2, #0
 360:../Middlewares/stedgeai-lib/Npu/ll_aton/ll_aton_runtime.c **** #endif
 361:../Middlewares/stedgeai-lib/Npu/ll_aton/ll_aton_runtime.c **** 
 362:../Middlewares/stedgeai-lib/Npu/ll_aton/ll_aton_runtime.c ****   /* set information about running inference */
 363:../Middlewares/stedgeai-lib/Npu/ll_aton/ll_aton_runtime.c ****   nn_instance->exec_state.inference_started = false;
 364:../Middlewares/stedgeai-lib/Npu/ll_aton/ll_aton_runtime.c **** 
 365:../Middlewares/stedgeai-lib/Npu/ll_aton/ll_aton_runtime.c ****   /* set asynchronous status variables */
 366:../Middlewares/stedgeai-lib/Npu/ll_aton/ll_aton_runtime.c **** #if (LL_ATON_RT_MODE == LL_ATON_RT_ASYNC)
 367:../Middlewares/stedgeai-lib/Npu/ll_aton/ll_aton_runtime.c ****   nn_instance->exec_state.triggered_events = 0x0;
 368:../Middlewares/stedgeai-lib/Npu/ll_aton/ll_aton_runtime.c ****   nn_instance->exec_state.current_epoch_block_started = false;
 369:../Middlewares/stedgeai-lib/Npu/ll_aton/ll_aton_runtime.c **** #endif // (LL_ATON_RT_MODE == LL_ATON_RT_ASYNC)
 370:../Middlewares/stedgeai-lib/Npu/ll_aton/ll_aton_runtime.c **** 
 371:../Middlewares/stedgeai-lib/Npu/ll_aton/ll_aton_runtime.c ****   /** Call epoch callback with callback type `LL_ATON_RT_Callbacktype_NN_Init` and network instance
 372:../Middlewares/stedgeai-lib/Npu/ll_aton/ll_aton_runtime.c ****   if (nn_instance->exec_state.epoch_callback_function != NULL)
  99              		.loc 1 372 30 view .LVU32
 100 0024 636A     		ldr	r3, [r4, #36]
 359:../Middlewares/stedgeai-lib/Npu/ll_aton/ll_aton_runtime.c ****   nn_instance->exec_state.saved_nr_of_epoch_blocks = 0;
 101              		.loc 1 359 52 view .LVU33
 102 0026 2262     		str	r2, [r4, #32]
 363:../Middlewares/stedgeai-lib/Npu/ll_aton/ll_aton_runtime.c **** 
 103              		.loc 1 363 3 is_stmt 1 view .LVU34
 363:../Middlewares/stedgeai-lib/Npu/ll_aton/ll_aton_runtime.c **** 
 104              		.loc 1 363 45 is_stmt 0 view .LVU35
 105 0028 2276     		strb	r2, [r4, #24]
 106              		.loc 1 372 3 is_stmt 1 view .LVU36
 107              		.loc 1 372 6 is_stmt 0 view .LVU37
 108 002a 63B1     		cbz	r3, .L1
 373:../Middlewares/stedgeai-lib/Npu/ll_aton/ll_aton_runtime.c ****   {
 374:../Middlewares/stedgeai-lib/Npu/ll_aton/ll_aton_runtime.c ****     nn_instance->exec_state.epoch_callback_function(LL_ATON_RT_Callbacktype_NN_Init, nn_instance, N
 109              		.loc 1 374 5 is_stmt 1 view .LVU38
 110 002c 2146     		mov	r1, r4
 375:../Middlewares/stedgeai-lib/Npu/ll_aton/ll_aton_runtime.c ****   }
 376:../Middlewares/stedgeai-lib/Npu/ll_aton/ll_aton_runtime.c **** }
 111              		.loc 1 376 1 is_stmt 0 view .LVU39
 112 002e BDE81040 		pop	{r4, lr}
 113              		.cfi_remember_state
 114              		.cfi_restore 14
 115              		.cfi_restore 4
 116              		.cfi_def_cfa_offset 0
 117              	.LVL4:
 374:../Middlewares/stedgeai-lib/Npu/ll_aton/ll_aton_runtime.c ****   }
 118              		.loc 1 374 5 view .LVU40
 119 0032 0420     		movs	r0, #4
 120              	.LVL5:
 374:../Middlewares/stedgeai-lib/Npu/ll_aton/ll_aton_runtime.c ****   }
 121              		.loc 1 374 5 view .LVU41
 122 0034 1847     		bx	r3	@ indirect register sibling call
ARM GAS  /tmp/ccmL1RJj.s 			page 10


 123              	.LVL6:
 124              	.L7:
 125              		.cfi_restore_state
 126              	.LBB90:
 127              	.LBB89:
  93:../Middlewares/stedgeai-lib/Npu/ll_aton/ll_aton_runtime.c ****     }
 128              		.loc 1 93 7 is_stmt 1 view .LVU42
  93:../Middlewares/stedgeai-lib/Npu/ll_aton/ll_aton_runtime.c ****     }
 129              		.loc 1 93 11 is_stmt 0 view .LVU43
 130 0036 1433     		adds	r3, r3, #20
 131              	.LVL7:
  91:../Middlewares/stedgeai-lib/Npu/ll_aton/ll_aton_runtime.c ****     { // Note: also terminating empty epoch block is counted
 132              		.loc 1 91 54 is_stmt 1 discriminator 3 view .LVU44
 133 0038 0132     		adds	r2, r2, #1
 134              	.LVL8:
 135              	.L5:
  91:../Middlewares/stedgeai-lib/Npu/ll_aton/ll_aton_runtime.c ****     { // Note: also terminating empty epoch block is counted
 136              		.loc 1 91 17 discriminator 1 view .LVU45
 137              	.LBB87:
 138              	.LBI87:
 139              		.file 2 "../Middlewares/stedgeai-lib/Npu/ll_aton/ll_aton_NN_interface.h"
   1:../Middlewares/stedgeai-lib/Npu/ll_aton/ll_aton_NN_interface.h **** /**
   2:../Middlewares/stedgeai-lib/Npu/ll_aton/ll_aton_NN_interface.h ****  ******************************************************************************
   3:../Middlewares/stedgeai-lib/Npu/ll_aton/ll_aton_NN_interface.h ****  * @file    ll_aton_NN_interface.h
   4:../Middlewares/stedgeai-lib/Npu/ll_aton/ll_aton_NN_interface.h ****  * @author  SRA Artificial Intelligence & Embedded Architectures
   5:../Middlewares/stedgeai-lib/Npu/ll_aton/ll_aton_NN_interface.h ****  * @brief   Interface that defines a NN generated by the AtoNN Compiler.
   6:../Middlewares/stedgeai-lib/Npu/ll_aton/ll_aton_NN_interface.h ****  ******************************************************************************
   7:../Middlewares/stedgeai-lib/Npu/ll_aton/ll_aton_NN_interface.h ****  * @attention
   8:../Middlewares/stedgeai-lib/Npu/ll_aton/ll_aton_NN_interface.h ****  *
   9:../Middlewares/stedgeai-lib/Npu/ll_aton/ll_aton_NN_interface.h ****  * Copyright (c) 2024 STMicroelectronics.
  10:../Middlewares/stedgeai-lib/Npu/ll_aton/ll_aton_NN_interface.h ****  * All rights reserved.
  11:../Middlewares/stedgeai-lib/Npu/ll_aton/ll_aton_NN_interface.h ****  *
  12:../Middlewares/stedgeai-lib/Npu/ll_aton/ll_aton_NN_interface.h ****  * This software is licensed under terms that can be found in the LICENSE file
  13:../Middlewares/stedgeai-lib/Npu/ll_aton/ll_aton_NN_interface.h ****  * in the root directory of this software component.
  14:../Middlewares/stedgeai-lib/Npu/ll_aton/ll_aton_NN_interface.h ****  * If no LICENSE file comes with this software, it is provided AS-IS.
  15:../Middlewares/stedgeai-lib/Npu/ll_aton/ll_aton_NN_interface.h ****  *
  16:../Middlewares/stedgeai-lib/Npu/ll_aton/ll_aton_NN_interface.h ****  ******************************************************************************
  17:../Middlewares/stedgeai-lib/Npu/ll_aton/ll_aton_NN_interface.h ****  */
  18:../Middlewares/stedgeai-lib/Npu/ll_aton/ll_aton_NN_interface.h **** 
  19:../Middlewares/stedgeai-lib/Npu/ll_aton/ll_aton_NN_interface.h **** #ifndef __LL_ATON_NN_INTERFACE_H
  20:../Middlewares/stedgeai-lib/Npu/ll_aton/ll_aton_NN_interface.h **** #define __LL_ATON_NN_INTERFACE_H
  21:../Middlewares/stedgeai-lib/Npu/ll_aton/ll_aton_NN_interface.h **** 
  22:../Middlewares/stedgeai-lib/Npu/ll_aton/ll_aton_NN_interface.h **** #ifdef __cplusplus
  23:../Middlewares/stedgeai-lib/Npu/ll_aton/ll_aton_NN_interface.h **** extern "C"
  24:../Middlewares/stedgeai-lib/Npu/ll_aton/ll_aton_NN_interface.h **** {
  25:../Middlewares/stedgeai-lib/Npu/ll_aton/ll_aton_NN_interface.h **** #endif
  26:../Middlewares/stedgeai-lib/Npu/ll_aton/ll_aton_NN_interface.h **** 
  27:../Middlewares/stedgeai-lib/Npu/ll_aton/ll_aton_NN_interface.h **** #include <stdbool.h>
  28:../Middlewares/stedgeai-lib/Npu/ll_aton/ll_aton_NN_interface.h **** #include <stddef.h>
  29:../Middlewares/stedgeai-lib/Npu/ll_aton/ll_aton_NN_interface.h **** #include <stdint.h>
  30:../Middlewares/stedgeai-lib/Npu/ll_aton/ll_aton_NN_interface.h **** 
  31:../Middlewares/stedgeai-lib/Npu/ll_aton/ll_aton_NN_interface.h **** #include "ll_aton_config.h"
  32:../Middlewares/stedgeai-lib/Npu/ll_aton/ll_aton_NN_interface.h **** 
  33:../Middlewares/stedgeai-lib/Npu/ll_aton/ll_aton_NN_interface.h **** #include "ll_aton_attributes.h"
  34:../Middlewares/stedgeai-lib/Npu/ll_aton/ll_aton_NN_interface.h **** #include "ll_aton_cipher.h"
  35:../Middlewares/stedgeai-lib/Npu/ll_aton/ll_aton_NN_interface.h **** #include "ll_aton_util.h"
  36:../Middlewares/stedgeai-lib/Npu/ll_aton/ll_aton_NN_interface.h **** 
ARM GAS  /tmp/ccmL1RJj.s 			page 11


  37:../Middlewares/stedgeai-lib/Npu/ll_aton/ll_aton_NN_interface.h ****   /** @defgroup User I/O Return Values & Callback Event Types
  38:../Middlewares/stedgeai-lib/Npu/ll_aton/ll_aton_NN_interface.h ****    * @{
  39:../Middlewares/stedgeai-lib/Npu/ll_aton/ll_aton_NN_interface.h ****    */
  40:../Middlewares/stedgeai-lib/Npu/ll_aton/ll_aton_NN_interface.h **** 
  41:../Middlewares/stedgeai-lib/Npu/ll_aton/ll_aton_NN_interface.h ****   typedef enum LL_ATON_User_IO_Result
  42:../Middlewares/stedgeai-lib/Npu/ll_aton/ll_aton_NN_interface.h ****   {
  43:../Middlewares/stedgeai-lib/Npu/ll_aton/ll_aton_NN_interface.h ****     LL_ATON_User_IO_NOERROR,     /**< */
  44:../Middlewares/stedgeai-lib/Npu/ll_aton/ll_aton_NN_interface.h ****     LL_ATON_User_IO_WRONG_ALIGN, /**< */
  45:../Middlewares/stedgeai-lib/Npu/ll_aton/ll_aton_NN_interface.h ****     LL_ATON_User_IO_WRONG_SIZE,  /**< */
  46:../Middlewares/stedgeai-lib/Npu/ll_aton/ll_aton_NN_interface.h ****     LL_ATON_User_IO_WRONG_INDEX, /**< */
  47:../Middlewares/stedgeai-lib/Npu/ll_aton/ll_aton_NN_interface.h ****   } LL_ATON_User_IO_Result_t;
  48:../Middlewares/stedgeai-lib/Npu/ll_aton/ll_aton_NN_interface.h **** 
  49:../Middlewares/stedgeai-lib/Npu/ll_aton/ll_aton_NN_interface.h ****   typedef enum LL_ATON_RT_Callbacktype
  50:../Middlewares/stedgeai-lib/Npu/ll_aton/ll_aton_NN_interface.h ****   {
  51:../Middlewares/stedgeai-lib/Npu/ll_aton/ll_aton_NN_interface.h ****     LL_ATON_RT_Callbacktype_PRE_START,  /**< Callback called before start_epoch_block */
  52:../Middlewares/stedgeai-lib/Npu/ll_aton/ll_aton_NN_interface.h ****     LL_ATON_RT_Callbacktype_POST_START, /**< Callback called after start_epoch_block */
  53:../Middlewares/stedgeai-lib/Npu/ll_aton/ll_aton_NN_interface.h ****     LL_ATON_RT_Callbacktype_PRE_END,    /**< Callback called before end_epoch_block */
  54:../Middlewares/stedgeai-lib/Npu/ll_aton/ll_aton_NN_interface.h ****     LL_ATON_RT_Callbacktype_POST_END,   /**< Callback called after end_epoch_block */
  55:../Middlewares/stedgeai-lib/Npu/ll_aton/ll_aton_NN_interface.h ****     LL_ATON_RT_Callbacktype_NN_Init,    /**< Callback called after `LL_ATON_RT_Init_Network`,
  56:../Middlewares/stedgeai-lib/Npu/ll_aton/ll_aton_NN_interface.h ****                                          *     NOTE: 3rd parameter passed is `NULL` */
  57:../Middlewares/stedgeai-lib/Npu/ll_aton/ll_aton_NN_interface.h ****     LL_ATON_RT_Callbacktype_NN_DeInit,  /**< Callback called after `LL_ATON_RT_DeInit_Network`,
  58:../Middlewares/stedgeai-lib/Npu/ll_aton/ll_aton_NN_interface.h ****                                          *     NOTE: 3rd parameter passed is `NULL` */
  59:../Middlewares/stedgeai-lib/Npu/ll_aton/ll_aton_NN_interface.h ****     LL_ATON_RT_Callbacktype_RT_Init,    /**< Callback called after `LL_ATON_RT_RuntimeInit` */
  60:../Middlewares/stedgeai-lib/Npu/ll_aton/ll_aton_NN_interface.h ****     LL_ATON_RT_Callbacktype_RT_Deinit,  /**< Callback called before `LL_ATON_RT_RuntimeDeInit` */
  61:../Middlewares/stedgeai-lib/Npu/ll_aton/ll_aton_NN_interface.h ****   } LL_ATON_RT_Callbacktype_t;
  62:../Middlewares/stedgeai-lib/Npu/ll_aton/ll_aton_NN_interface.h **** 
  63:../Middlewares/stedgeai-lib/Npu/ll_aton/ll_aton_NN_interface.h ****   /**
  64:../Middlewares/stedgeai-lib/Npu/ll_aton/ll_aton_NN_interface.h ****    * @}
  65:../Middlewares/stedgeai-lib/Npu/ll_aton/ll_aton_NN_interface.h ****    */
  66:../Middlewares/stedgeai-lib/Npu/ll_aton/ll_aton_NN_interface.h **** 
  67:../Middlewares/stedgeai-lib/Npu/ll_aton/ll_aton_NN_interface.h ****   // Forward declarations
  68:../Middlewares/stedgeai-lib/Npu/ll_aton/ll_aton_NN_interface.h ****   struct __nn_instance_struct;
  69:../Middlewares/stedgeai-lib/Npu/ll_aton/ll_aton_NN_interface.h ****   typedef struct __nn_instance_struct NN_Instance_TypeDef;
  70:../Middlewares/stedgeai-lib/Npu/ll_aton/ll_aton_NN_interface.h ****   struct __epoch_block_item;
  71:../Middlewares/stedgeai-lib/Npu/ll_aton/ll_aton_NN_interface.h ****   typedef struct __epoch_block_item LL_ATON_RT_EpochBlockItem_t;
  72:../Middlewares/stedgeai-lib/Npu/ll_aton/ll_aton_NN_interface.h **** 
  73:../Middlewares/stedgeai-lib/Npu/ll_aton/ll_aton_NN_interface.h ****   // Backward compatibility
  74:../Middlewares/stedgeai-lib/Npu/ll_aton/ll_aton_NN_interface.h ****   typedef LL_ATON_RT_EpochBlockItem_t
  75:../Middlewares/stedgeai-lib/Npu/ll_aton/ll_aton_NN_interface.h ****       EpochBlock_ItemTypeDef; // Note: type name `EpochBlock_ItemTypeDef` is deprecated and
  76:../Middlewares/stedgeai-lib/Npu/ll_aton/ll_aton_NN_interface.h ****                               //       will be removed in future releases of the ATON runtime!
  77:../Middlewares/stedgeai-lib/Npu/ll_aton/ll_aton_NN_interface.h **** 
  78:../Middlewares/stedgeai-lib/Npu/ll_aton/ll_aton_NN_interface.h ****   /** @defgroup Handle-style Data Types for Epoch Blocks
  79:../Middlewares/stedgeai-lib/Npu/ll_aton/ll_aton_NN_interface.h ****    * @{
  80:../Middlewares/stedgeai-lib/Npu/ll_aton/ll_aton_NN_interface.h ****    */
  81:../Middlewares/stedgeai-lib/Npu/ll_aton/ll_aton_NN_interface.h **** 
  82:../Middlewares/stedgeai-lib/Npu/ll_aton/ll_aton_NN_interface.h ****   /* this is needed to avoid some problems with compilers (e.g. KEIL) that observe a strict semanti
  83:../Middlewares/stedgeai-lib/Npu/ll_aton/ll_aton_NN_interface.h ****    * pointers to integers in const initializers
  84:../Middlewares/stedgeai-lib/Npu/ll_aton/ll_aton_NN_interface.h ****    */
  85:../Middlewares/stedgeai-lib/Npu/ll_aton/ll_aton_NN_interface.h ****   typedef union
  86:../Middlewares/stedgeai-lib/Npu/ll_aton/ll_aton_NN_interface.h ****   {
  87:../Middlewares/stedgeai-lib/Npu/ll_aton/ll_aton_NN_interface.h ****     unsigned char *p;
  88:../Middlewares/stedgeai-lib/Npu/ll_aton/ll_aton_NN_interface.h ****     uintptr_t i;
  89:../Middlewares/stedgeai-lib/Npu/ll_aton/ll_aton_NN_interface.h ****   } __LL_address_t;
  90:../Middlewares/stedgeai-lib/Npu/ll_aton/ll_aton_NN_interface.h **** 
  91:../Middlewares/stedgeai-lib/Npu/ll_aton/ll_aton_NN_interface.h ****   typedef void (*EpochBlock_FuncPtr_t)(const LL_ATON_RT_EpochBlockItem_t *epoch_block,
  92:../Middlewares/stedgeai-lib/Npu/ll_aton/ll_aton_NN_interface.h ****                                        const NN_Instance_TypeDef *nn_instance);
  93:../Middlewares/stedgeai-lib/Npu/ll_aton/ll_aton_NN_interface.h **** 
ARM GAS  /tmp/ccmL1RJj.s 			page 12


  94:../Middlewares/stedgeai-lib/Npu/ll_aton/ll_aton_NN_interface.h ****   typedef enum
  95:../Middlewares/stedgeai-lib/Npu/ll_aton/ll_aton_NN_interface.h ****   {
  96:../Middlewares/stedgeai-lib/Npu/ll_aton/ll_aton_NN_interface.h ****     EpochBlock_Flags_NONE = 0x0,                 /**< */
  97:../Middlewares/stedgeai-lib/Npu/ll_aton/ll_aton_NN_interface.h ****     EpochBlock_Flags_epoch_start = (0x1 << 0),   /**< First EpochBlock of an Epoch */
  98:../Middlewares/stedgeai-lib/Npu/ll_aton/ll_aton_NN_interface.h ****     EpochBlock_Flags_epoch_end = (0x1 << 1),     /**< Last EpochBlock of an Epoch */
  99:../Middlewares/stedgeai-lib/Npu/ll_aton/ll_aton_NN_interface.h ****     EpochBlock_Flags_blob = (0x1 << 2),          /**< Item is an Epoch Blob */
 100:../Middlewares/stedgeai-lib/Npu/ll_aton/ll_aton_NN_interface.h ****     EpochBlock_Flags_last_eb = (0x1 << 3),       /**< Last EpochBlock */
 101:../Middlewares/stedgeai-lib/Npu/ll_aton/ll_aton_NN_interface.h ****     EpochBlock_Flags_pure_hw = (0x1 << 4),       /**< Pure HW EpochBlock */
 102:../Middlewares/stedgeai-lib/Npu/ll_aton/ll_aton_NN_interface.h ****     EpochBlock_Flags_pure_sw = (0x1 << 5),       /**< Pure SW EpochBlock */
 103:../Middlewares/stedgeai-lib/Npu/ll_aton/ll_aton_NN_interface.h ****     EpochBlock_Flags_hybrid = (0x1 << 6),        /**< Hybrid EpochBlock (i.e. mixed HW/SW) */
 104:../Middlewares/stedgeai-lib/Npu/ll_aton/ll_aton_NN_interface.h ****     EpochBlock_Flags_internal = (0x1 << 7),      /**< ATON lib internal EpochBlock (used to impleme
 105:../Middlewares/stedgeai-lib/Npu/ll_aton/ll_aton_NN_interface.h ****     EpochBlock_Flags_blob_encrypted = (0x1 << 8) /**< The blob is encrypted and must be decrypted o
 106:../Middlewares/stedgeai-lib/Npu/ll_aton/ll_aton_NN_interface.h ****   } EpochBlock_Flags_t;
 107:../Middlewares/stedgeai-lib/Npu/ll_aton/ll_aton_NN_interface.h **** 
 108:../Middlewares/stedgeai-lib/Npu/ll_aton/ll_aton_NN_interface.h ****   struct __epoch_block_item
 109:../Middlewares/stedgeai-lib/Npu/ll_aton/ll_aton_NN_interface.h ****   {
 110:../Middlewares/stedgeai-lib/Npu/ll_aton/ll_aton_NN_interface.h ****     EpochBlock_FuncPtr_t start_epoch_block; /**< Method to execute the EpochBlock;
 111:../Middlewares/stedgeai-lib/Npu/ll_aton/ll_aton_NN_interface.h ****                                                  might be `NULL` */
 112:../Middlewares/stedgeai-lib/Npu/ll_aton/ll_aton_NN_interface.h ****     EpochBlock_FuncPtr_t
 113:../Middlewares/stedgeai-lib/Npu/ll_aton/ll_aton_NN_interface.h ****         end_epoch_block;    /**< Method to be executed when the EpochBlock ends;
 114:../Middlewares/stedgeai-lib/Npu/ll_aton/ll_aton_NN_interface.h ****                                  Note: all SW & hybrid operators have only an `end_epoch_block` fun
 115:../Middlewares/stedgeai-lib/Npu/ll_aton/ll_aton_NN_interface.h ****     uintptr_t blob_address; /**< Blob address (in case this EpochBlock represents an epoch blob) */
 116:../Middlewares/stedgeai-lib/Npu/ll_aton/ll_aton_NN_interface.h ****     uint32_t wait_mask;     /**< Mask needed to check when an EpochBlock ends
 117:../Middlewares/stedgeai-lib/Npu/ll_aton/ll_aton_NN_interface.h ****                              *    - if epoch blob: number (not bitmask) of epoch controller unit to
 118:../Middlewares/stedgeai-lib/Npu/ll_aton/ll_aton_NN_interface.h ****                              *    - otherwise: bitmask with all output streaming engines to wait fo
 119:../Middlewares/stedgeai-lib/Npu/ll_aton/ll_aton_NN_interface.h ****     uint16_t flags;         /**< EpochBlock flags */
 120:../Middlewares/stedgeai-lib/Npu/ll_aton/ll_aton_NN_interface.h **** #ifdef LL_ATON_EB_DBG_INFO
 121:../Middlewares/stedgeai-lib/Npu/ll_aton/ll_aton_NN_interface.h ****     int16_t epoch_num;             /**< Epoch number / First epoch number within blob */
 122:../Middlewares/stedgeai-lib/Npu/ll_aton/ll_aton_NN_interface.h ****     int16_t last_epoch_num;        /**< Epoch number / Last epoch number within blob */
 123:../Middlewares/stedgeai-lib/Npu/ll_aton/ll_aton_NN_interface.h ****     uint32_t in_streng_mask;       /**< Debug information about input streaming engines used in epo
 124:../Middlewares/stedgeai-lib/Npu/ll_aton/ll_aton_NN_interface.h ****     uint32_t out_streng_mask;      /**< Debug information about output streaming engines used in ep
 125:../Middlewares/stedgeai-lib/Npu/ll_aton/ll_aton_NN_interface.h ****     uint64_t estimated_npu_cycles; /**< Debug information estimates for NPU cycles in epoch w/o mem
 126:../Middlewares/stedgeai-lib/Npu/ll_aton/ll_aton_NN_interface.h ****     uint64_t estimated_tot_cycles; /**< Debug information estimates for NPU cycles in epoch w/ memo
 127:../Middlewares/stedgeai-lib/Npu/ll_aton/ll_aton_NN_interface.h **** #endif                             // LL_ATON_EB_DBG_INFO
 128:../Middlewares/stedgeai-lib/Npu/ll_aton/ll_aton_NN_interface.h ****   };
 129:../Middlewares/stedgeai-lib/Npu/ll_aton/ll_aton_NN_interface.h **** 
 130:../Middlewares/stedgeai-lib/Npu/ll_aton/ll_aton_NN_interface.h ****   /**
 131:../Middlewares/stedgeai-lib/Npu/ll_aton/ll_aton_NN_interface.h ****    * @}
 132:../Middlewares/stedgeai-lib/Npu/ll_aton/ll_aton_NN_interface.h ****    */
 133:../Middlewares/stedgeai-lib/Npu/ll_aton/ll_aton_NN_interface.h **** 
 134:../Middlewares/stedgeai-lib/Npu/ll_aton/ll_aton_NN_interface.h ****   /** @defgroup Helper Function Declarations for User Callbacks
 135:../Middlewares/stedgeai-lib/Npu/ll_aton/ll_aton_NN_interface.h ****    * @{
 136:../Middlewares/stedgeai-lib/Npu/ll_aton/ll_aton_NN_interface.h ****    */
 137:../Middlewares/stedgeai-lib/Npu/ll_aton/ll_aton_NN_interface.h **** 
 138:../Middlewares/stedgeai-lib/Npu/ll_aton/ll_aton_NN_interface.h ****   /**
 139:../Middlewares/stedgeai-lib/Npu/ll_aton/ll_aton_NN_interface.h ****    * @brief Checks if the pointed element is the last one of an array of `const LL_ATON_RT_EpochBlo
 140:../Middlewares/stedgeai-lib/Npu/ll_aton/ll_aton_NN_interface.h ****    *
 141:../Middlewares/stedgeai-lib/Npu/ll_aton/ll_aton_NN_interface.h ****    */
 142:../Middlewares/stedgeai-lib/Npu/ll_aton/ll_aton_NN_interface.h ****   static inline bool EpochBlock_IsLastEpochBlock(const LL_ATON_RT_EpochBlockItem_t *eb);
 143:../Middlewares/stedgeai-lib/Npu/ll_aton/ll_aton_NN_interface.h **** 
 144:../Middlewares/stedgeai-lib/Npu/ll_aton/ll_aton_NN_interface.h ****   /**
 145:../Middlewares/stedgeai-lib/Npu/ll_aton/ll_aton_NN_interface.h ****    * @brief Checks if the pointed element is the first EpochBlock of an Epoch
 146:../Middlewares/stedgeai-lib/Npu/ll_aton/ll_aton_NN_interface.h ****    *
 147:../Middlewares/stedgeai-lib/Npu/ll_aton/ll_aton_NN_interface.h ****    */
 148:../Middlewares/stedgeai-lib/Npu/ll_aton/ll_aton_NN_interface.h ****   static inline bool EpochBlock_IsEpochStart(const LL_ATON_RT_EpochBlockItem_t *eb);
 149:../Middlewares/stedgeai-lib/Npu/ll_aton/ll_aton_NN_interface.h **** 
 150:../Middlewares/stedgeai-lib/Npu/ll_aton/ll_aton_NN_interface.h ****   /**
ARM GAS  /tmp/ccmL1RJj.s 			page 13


 151:../Middlewares/stedgeai-lib/Npu/ll_aton/ll_aton_NN_interface.h ****    * @brief Checks if the pointed element is the last EpochBlock of an Epoch
 152:../Middlewares/stedgeai-lib/Npu/ll_aton/ll_aton_NN_interface.h ****    *
 153:../Middlewares/stedgeai-lib/Npu/ll_aton/ll_aton_NN_interface.h ****    */
 154:../Middlewares/stedgeai-lib/Npu/ll_aton/ll_aton_NN_interface.h ****   static inline bool EpochBlock_IsEpochEnd(const LL_ATON_RT_EpochBlockItem_t *eb);
 155:../Middlewares/stedgeai-lib/Npu/ll_aton/ll_aton_NN_interface.h **** 
 156:../Middlewares/stedgeai-lib/Npu/ll_aton/ll_aton_NN_interface.h ****   /**
 157:../Middlewares/stedgeai-lib/Npu/ll_aton/ll_aton_NN_interface.h ****    * @brief Checks if the pointed element is the an Epoch Blob
 158:../Middlewares/stedgeai-lib/Npu/ll_aton/ll_aton_NN_interface.h ****    *
 159:../Middlewares/stedgeai-lib/Npu/ll_aton/ll_aton_NN_interface.h ****    */
 160:../Middlewares/stedgeai-lib/Npu/ll_aton/ll_aton_NN_interface.h ****   static inline bool EpochBlock_IsEpochBlob(const LL_ATON_RT_EpochBlockItem_t *eb);
 161:../Middlewares/stedgeai-lib/Npu/ll_aton/ll_aton_NN_interface.h **** 
 162:../Middlewares/stedgeai-lib/Npu/ll_aton/ll_aton_NN_interface.h ****   /**
 163:../Middlewares/stedgeai-lib/Npu/ll_aton/ll_aton_NN_interface.h ****    * @brief Checks if - in case this epoch is a blob (see above) - the blob is encrypted
 164:../Middlewares/stedgeai-lib/Npu/ll_aton/ll_aton_NN_interface.h ****    *
 165:../Middlewares/stedgeai-lib/Npu/ll_aton/ll_aton_NN_interface.h ****    */
 166:../Middlewares/stedgeai-lib/Npu/ll_aton/ll_aton_NN_interface.h ****   static inline bool EpochBlock_IsBlobEncrypted(const LL_ATON_RT_EpochBlockItem_t *eb);
 167:../Middlewares/stedgeai-lib/Npu/ll_aton/ll_aton_NN_interface.h **** 
 168:../Middlewares/stedgeai-lib/Npu/ll_aton/ll_aton_NN_interface.h ****   /**
 169:../Middlewares/stedgeai-lib/Npu/ll_aton/ll_aton_NN_interface.h ****    * @brief Checks if the pointed element is pure SW epoch
 170:../Middlewares/stedgeai-lib/Npu/ll_aton/ll_aton_NN_interface.h ****    *
 171:../Middlewares/stedgeai-lib/Npu/ll_aton/ll_aton_NN_interface.h ****    */
 172:../Middlewares/stedgeai-lib/Npu/ll_aton/ll_aton_NN_interface.h ****   static inline bool EpochBlock_IsEpochPureSW(const LL_ATON_RT_EpochBlockItem_t *eb);
 173:../Middlewares/stedgeai-lib/Npu/ll_aton/ll_aton_NN_interface.h **** 
 174:../Middlewares/stedgeai-lib/Npu/ll_aton/ll_aton_NN_interface.h ****   /**
 175:../Middlewares/stedgeai-lib/Npu/ll_aton/ll_aton_NN_interface.h ****    * @brief Checks if the pointed element is a pure HW or mixed SW/HW epoch
 176:../Middlewares/stedgeai-lib/Npu/ll_aton/ll_aton_NN_interface.h ****    *
 177:../Middlewares/stedgeai-lib/Npu/ll_aton/ll_aton_NN_interface.h ****    */
 178:../Middlewares/stedgeai-lib/Npu/ll_aton/ll_aton_NN_interface.h ****   static inline bool EpochBlock_IsEpochPureHW(const LL_ATON_RT_EpochBlockItem_t *eb);
 179:../Middlewares/stedgeai-lib/Npu/ll_aton/ll_aton_NN_interface.h **** 
 180:../Middlewares/stedgeai-lib/Npu/ll_aton/ll_aton_NN_interface.h ****   /**
 181:../Middlewares/stedgeai-lib/Npu/ll_aton/ll_aton_NN_interface.h ****    * @brief Checks if the pointed element is a hybrid epoch
 182:../Middlewares/stedgeai-lib/Npu/ll_aton/ll_aton_NN_interface.h ****    *
 183:../Middlewares/stedgeai-lib/Npu/ll_aton/ll_aton_NN_interface.h ****    */
 184:../Middlewares/stedgeai-lib/Npu/ll_aton/ll_aton_NN_interface.h ****   static inline bool EpochBlock_IsEpochHybrid(const LL_ATON_RT_EpochBlockItem_t *eb);
 185:../Middlewares/stedgeai-lib/Npu/ll_aton/ll_aton_NN_interface.h **** 
 186:../Middlewares/stedgeai-lib/Npu/ll_aton/ll_aton_NN_interface.h ****   /**
 187:../Middlewares/stedgeai-lib/Npu/ll_aton/ll_aton_NN_interface.h ****    * @brief Checks if the pointed element is an internal epoch
 188:../Middlewares/stedgeai-lib/Npu/ll_aton/ll_aton_NN_interface.h ****    *
 189:../Middlewares/stedgeai-lib/Npu/ll_aton/ll_aton_NN_interface.h ****    */
 190:../Middlewares/stedgeai-lib/Npu/ll_aton/ll_aton_NN_interface.h ****   static inline bool EpochBlock_IsEpochInternal(const LL_ATON_RT_EpochBlockItem_t *eb);
 191:../Middlewares/stedgeai-lib/Npu/ll_aton/ll_aton_NN_interface.h **** 
 192:../Middlewares/stedgeai-lib/Npu/ll_aton/ll_aton_NN_interface.h ****   /**
 193:../Middlewares/stedgeai-lib/Npu/ll_aton/ll_aton_NN_interface.h ****    * @brief Returns the Epoch controller id to use
 194:../Middlewares/stedgeai-lib/Npu/ll_aton/ll_aton_NN_interface.h ****    *
 195:../Middlewares/stedgeai-lib/Npu/ll_aton/ll_aton_NN_interface.h ****    */
 196:../Middlewares/stedgeai-lib/Npu/ll_aton/ll_aton_NN_interface.h ****   static inline uint32_t EpochBlock_EpochControllerUnit(const LL_ATON_RT_EpochBlockItem_t *eb);
 197:../Middlewares/stedgeai-lib/Npu/ll_aton/ll_aton_NN_interface.h **** 
 198:../Middlewares/stedgeai-lib/Npu/ll_aton/ll_aton_NN_interface.h ****   /**
 199:../Middlewares/stedgeai-lib/Npu/ll_aton/ll_aton_NN_interface.h ****    * @brief Returns the address of the configuration of the epoch controller (the blob address)
 200:../Middlewares/stedgeai-lib/Npu/ll_aton/ll_aton_NN_interface.h ****    *
 201:../Middlewares/stedgeai-lib/Npu/ll_aton/ll_aton_NN_interface.h ****    */
 202:../Middlewares/stedgeai-lib/Npu/ll_aton/ll_aton_NN_interface.h ****   static inline uintptr_t EpochBlock_EpochBlobAddr(const LL_ATON_RT_EpochBlockItem_t *eb);
 203:../Middlewares/stedgeai-lib/Npu/ll_aton/ll_aton_NN_interface.h **** 
 204:../Middlewares/stedgeai-lib/Npu/ll_aton/ll_aton_NN_interface.h ****   /**
 205:../Middlewares/stedgeai-lib/Npu/ll_aton/ll_aton_NN_interface.h ****    * @brief ATON buffer types definition
 206:../Middlewares/stedgeai-lib/Npu/ll_aton/ll_aton_NN_interface.h ****    */
 207:../Middlewares/stedgeai-lib/Npu/ll_aton/ll_aton_NN_interface.h **** 
ARM GAS  /tmp/ccmL1RJj.s 			page 14


 208:../Middlewares/stedgeai-lib/Npu/ll_aton/ll_aton_NN_interface.h ****   /**
 209:../Middlewares/stedgeai-lib/Npu/ll_aton/ll_aton_NN_interface.h ****    * @}
 210:../Middlewares/stedgeai-lib/Npu/ll_aton/ll_aton_NN_interface.h ****    */
 211:../Middlewares/stedgeai-lib/Npu/ll_aton/ll_aton_NN_interface.h **** 
 212:../Middlewares/stedgeai-lib/Npu/ll_aton/ll_aton_NN_interface.h ****   /** @defgroup Handle-style Data Types for Input, Output, and Internal Buffers
 213:../Middlewares/stedgeai-lib/Npu/ll_aton/ll_aton_NN_interface.h ****    * @{
 214:../Middlewares/stedgeai-lib/Npu/ll_aton/ll_aton_NN_interface.h ****    */
 215:../Middlewares/stedgeai-lib/Npu/ll_aton/ll_aton_NN_interface.h **** 
 216:../Middlewares/stedgeai-lib/Npu/ll_aton/ll_aton_NN_interface.h ****   typedef enum
 217:../Middlewares/stedgeai-lib/Npu/ll_aton/ll_aton_NN_interface.h ****   {
 218:../Middlewares/stedgeai-lib/Npu/ll_aton/ll_aton_NN_interface.h ****     DataType_UNDEFINED = 0,
 219:../Middlewares/stedgeai-lib/Npu/ll_aton/ll_aton_NN_interface.h ****     DataType_FLOAT = 1,
 220:../Middlewares/stedgeai-lib/Npu/ll_aton/ll_aton_NN_interface.h ****     DataType_UINT2 = 2,
 221:../Middlewares/stedgeai-lib/Npu/ll_aton/ll_aton_NN_interface.h ****     DataType_INT2 = 3,
 222:../Middlewares/stedgeai-lib/Npu/ll_aton/ll_aton_NN_interface.h ****     DataType_UINT4 = 4,
 223:../Middlewares/stedgeai-lib/Npu/ll_aton/ll_aton_NN_interface.h ****     DataType_INT4 = 5,
 224:../Middlewares/stedgeai-lib/Npu/ll_aton/ll_aton_NN_interface.h ****     DataType_UINT8 = 6,
 225:../Middlewares/stedgeai-lib/Npu/ll_aton/ll_aton_NN_interface.h ****     DataType_INT8 = 7,
 226:../Middlewares/stedgeai-lib/Npu/ll_aton/ll_aton_NN_interface.h ****     DataType_UINT16 = 8,
 227:../Middlewares/stedgeai-lib/Npu/ll_aton/ll_aton_NN_interface.h ****     DataType_INT16 = 9,
 228:../Middlewares/stedgeai-lib/Npu/ll_aton/ll_aton_NN_interface.h ****     DataType_INT32 = 10,
 229:../Middlewares/stedgeai-lib/Npu/ll_aton/ll_aton_NN_interface.h ****     DataType_INT64 = 11,
 230:../Middlewares/stedgeai-lib/Npu/ll_aton/ll_aton_NN_interface.h ****     DataType_STRING = 12,
 231:../Middlewares/stedgeai-lib/Npu/ll_aton/ll_aton_NN_interface.h ****     DataType_BOOL = 13,
 232:../Middlewares/stedgeai-lib/Npu/ll_aton/ll_aton_NN_interface.h ****     DataType_FLOAT16 = 14,
 233:../Middlewares/stedgeai-lib/Npu/ll_aton/ll_aton_NN_interface.h ****     DataType_DOUBLE = 15,
 234:../Middlewares/stedgeai-lib/Npu/ll_aton/ll_aton_NN_interface.h ****     DataType_UINT32 = 16,
 235:../Middlewares/stedgeai-lib/Npu/ll_aton/ll_aton_NN_interface.h ****     DataType_UINT64 = 17,
 236:../Middlewares/stedgeai-lib/Npu/ll_aton/ll_aton_NN_interface.h ****     DataType_COMPLEX64 = 18,
 237:../Middlewares/stedgeai-lib/Npu/ll_aton/ll_aton_NN_interface.h ****     DataType_COMPLEX128 = 19,
 238:../Middlewares/stedgeai-lib/Npu/ll_aton/ll_aton_NN_interface.h ****     DataType_BFLOAT16 = 20,
 239:../Middlewares/stedgeai-lib/Npu/ll_aton/ll_aton_NN_interface.h ****     DataType_FXP = 100 // AtoNN specific
 240:../Middlewares/stedgeai-lib/Npu/ll_aton/ll_aton_NN_interface.h ****   } Buffer_DataType_TypeDef;
 241:../Middlewares/stedgeai-lib/Npu/ll_aton/ll_aton_NN_interface.h **** 
 242:../Middlewares/stedgeai-lib/Npu/ll_aton/ll_aton_NN_interface.h ****   /**
 243:../Middlewares/stedgeai-lib/Npu/ll_aton/ll_aton_NN_interface.h ****    * @brief ATON buffer Channel position
 244:../Middlewares/stedgeai-lib/Npu/ll_aton/ll_aton_NN_interface.h ****    */
 245:../Middlewares/stedgeai-lib/Npu/ll_aton/ll_aton_NN_interface.h **** 
 246:../Middlewares/stedgeai-lib/Npu/ll_aton/ll_aton_NN_interface.h ****   typedef enum
 247:../Middlewares/stedgeai-lib/Npu/ll_aton/ll_aton_NN_interface.h ****   {
 248:../Middlewares/stedgeai-lib/Npu/ll_aton/ll_aton_NN_interface.h ****     CHPos_UNDEFINED = 0, /**< No channel present */
 249:../Middlewares/stedgeai-lib/Npu/ll_aton/ll_aton_NN_interface.h ****     CHPos_First = 1,     /**< Channel First         ( ...B C H W )*/
 250:../Middlewares/stedgeai-lib/Npu/ll_aton/ll_aton_NN_interface.h ****     CHPos_Last = 2,      /**< Channel Last          ( ...B H W C ) */
 251:../Middlewares/stedgeai-lib/Npu/ll_aton/ll_aton_NN_interface.h ****     CHPos_Mixed = 3,     /**< Channel with Batch(b) ( ...B C/b H W b ) */
 252:../Middlewares/stedgeai-lib/Npu/ll_aton/ll_aton_NN_interface.h ****   } Buffer_CHPos_TypeDef;
 253:../Middlewares/stedgeai-lib/Npu/ll_aton/ll_aton_NN_interface.h **** 
 254:../Middlewares/stedgeai-lib/Npu/ll_aton/ll_aton_NN_interface.h ****   /**
 255:../Middlewares/stedgeai-lib/Npu/ll_aton/ll_aton_NN_interface.h ****    * @brief ATON buffer definition
 256:../Middlewares/stedgeai-lib/Npu/ll_aton/ll_aton_NN_interface.h ****    */
 257:../Middlewares/stedgeai-lib/Npu/ll_aton/ll_aton_NN_interface.h ****   typedef struct
 258:../Middlewares/stedgeai-lib/Npu/ll_aton/ll_aton_NN_interface.h ****   {
 259:../Middlewares/stedgeai-lib/Npu/ll_aton/ll_aton_NN_interface.h ****     const char *name;             /**< Buffer name. NULL if end of list */
 260:../Middlewares/stedgeai-lib/Npu/ll_aton/ll_aton_NN_interface.h ****     __LL_address_t addr_base;     /**< Buffer base address */
 261:../Middlewares/stedgeai-lib/Npu/ll_aton/ll_aton_NN_interface.h ****     uint32_t offset_start;        /**< Offset of the buffer start address from the base address */
 262:../Middlewares/stedgeai-lib/Npu/ll_aton/ll_aton_NN_interface.h ****     uint32_t offset_end;          /**< Offset of the buffer end address from the base address
 263:../Middlewares/stedgeai-lib/Npu/ll_aton/ll_aton_NN_interface.h ****                                    *   (first bytes address beyond buffer length) */
 264:../Middlewares/stedgeai-lib/Npu/ll_aton/ll_aton_NN_interface.h ****     uint32_t offset_limit;        /**< Offset of the limiter address from the base address,
ARM GAS  /tmp/ccmL1RJj.s 			page 15


 265:../Middlewares/stedgeai-lib/Npu/ll_aton/ll_aton_NN_interface.h ****                                    *   (needed for configuring streaming engines) */
 266:../Middlewares/stedgeai-lib/Npu/ll_aton/ll_aton_NN_interface.h ****     uint8_t is_user_allocated;    /**< */
 267:../Middlewares/stedgeai-lib/Npu/ll_aton/ll_aton_NN_interface.h ****     uint8_t is_param;             /**< */
 268:../Middlewares/stedgeai-lib/Npu/ll_aton/ll_aton_NN_interface.h ****     uint16_t epoch;               /**< */
 269:../Middlewares/stedgeai-lib/Npu/ll_aton/ll_aton_NN_interface.h ****     uint32_t batch;               /**< */
 270:../Middlewares/stedgeai-lib/Npu/ll_aton/ll_aton_NN_interface.h ****     const uint32_t *mem_shape;    /**< shape as seen by the user in memory (only valid for input/ou
 271:../Middlewares/stedgeai-lib/Npu/ll_aton/ll_aton_NN_interface.h ****     uint16_t mem_ndims;           /**< Number of dimensions of mem_shape (Length of mem_shape) */
 272:../Middlewares/stedgeai-lib/Npu/ll_aton/ll_aton_NN_interface.h ****     Buffer_CHPos_TypeDef chpos;   /**< Position  of channels dimension in mem shape */
 273:../Middlewares/stedgeai-lib/Npu/ll_aton/ll_aton_NN_interface.h ****     Buffer_DataType_TypeDef type; /**< */
 274:../Middlewares/stedgeai-lib/Npu/ll_aton/ll_aton_NN_interface.h ****     int8_t Qm;                    /**< */
 275:../Middlewares/stedgeai-lib/Npu/ll_aton/ll_aton_NN_interface.h ****     int8_t Qn;                    /**< */
 276:../Middlewares/stedgeai-lib/Npu/ll_aton/ll_aton_NN_interface.h ****     uint8_t Qunsigned;            /**< */
 277:../Middlewares/stedgeai-lib/Npu/ll_aton/ll_aton_NN_interface.h ****     uint8_t ndims;                /**< */
 278:../Middlewares/stedgeai-lib/Npu/ll_aton/ll_aton_NN_interface.h ****     uint8_t nbits;                /**< */
 279:../Middlewares/stedgeai-lib/Npu/ll_aton/ll_aton_NN_interface.h ****     uint8_t per_channel;          /**< */
 280:../Middlewares/stedgeai-lib/Npu/ll_aton/ll_aton_NN_interface.h ****     const uint32_t *shape;        /**< */
 281:../Middlewares/stedgeai-lib/Npu/ll_aton/ll_aton_NN_interface.h ****     const float *scale;           /**< */
 282:../Middlewares/stedgeai-lib/Npu/ll_aton/ll_aton_NN_interface.h ****     const int16_t *offset;        /**< This can become int8 or uint8 based on the Qunsigned field.
 283:../Middlewares/stedgeai-lib/Npu/ll_aton/ll_aton_NN_interface.h ****                                    *   (This field Must have the same format of the quantized value
 284:../Middlewares/stedgeai-lib/Npu/ll_aton/ll_aton_NN_interface.h ****   } LL_Buffer_InfoTypeDef;
 285:../Middlewares/stedgeai-lib/Npu/ll_aton/ll_aton_NN_interface.h **** 
 286:../Middlewares/stedgeai-lib/Npu/ll_aton/ll_aton_NN_interface.h ****   /**
 287:../Middlewares/stedgeai-lib/Npu/ll_aton/ll_aton_NN_interface.h ****    * @}
 288:../Middlewares/stedgeai-lib/Npu/ll_aton/ll_aton_NN_interface.h ****    */
 289:../Middlewares/stedgeai-lib/Npu/ll_aton/ll_aton_NN_interface.h **** 
 290:../Middlewares/stedgeai-lib/Npu/ll_aton/ll_aton_NN_interface.h ****   /** @defgroup Helper Function Declarations for Buffer Analysis
 291:../Middlewares/stedgeai-lib/Npu/ll_aton/ll_aton_NN_interface.h ****    * @{
 292:../Middlewares/stedgeai-lib/Npu/ll_aton/ll_aton_NN_interface.h ****    */
 293:../Middlewares/stedgeai-lib/Npu/ll_aton/ll_aton_NN_interface.h **** 
 294:../Middlewares/stedgeai-lib/Npu/ll_aton/ll_aton_NN_interface.h ****   /**
 295:../Middlewares/stedgeai-lib/Npu/ll_aton/ll_aton_NN_interface.h ****    * @brief returns the base address of the mem pool the buffer is allocated in
 296:../Middlewares/stedgeai-lib/Npu/ll_aton/ll_aton_NN_interface.h ****    *
 297:../Middlewares/stedgeai-lib/Npu/ll_aton/ll_aton_NN_interface.h ****    */
 298:../Middlewares/stedgeai-lib/Npu/ll_aton/ll_aton_NN_interface.h ****   static inline unsigned char *LL_Buffer_addr_base(const LL_Buffer_InfoTypeDef *buf);
 299:../Middlewares/stedgeai-lib/Npu/ll_aton/ll_aton_NN_interface.h **** 
 300:../Middlewares/stedgeai-lib/Npu/ll_aton/ll_aton_NN_interface.h ****   /**
 301:../Middlewares/stedgeai-lib/Npu/ll_aton/ll_aton_NN_interface.h ****    * @brief returns the start address of the buffer
 302:../Middlewares/stedgeai-lib/Npu/ll_aton/ll_aton_NN_interface.h ****    *
 303:../Middlewares/stedgeai-lib/Npu/ll_aton/ll_aton_NN_interface.h ****    */
 304:../Middlewares/stedgeai-lib/Npu/ll_aton/ll_aton_NN_interface.h ****   static inline unsigned char *LL_Buffer_addr_start(const LL_Buffer_InfoTypeDef *buf);
 305:../Middlewares/stedgeai-lib/Npu/ll_aton/ll_aton_NN_interface.h **** 
 306:../Middlewares/stedgeai-lib/Npu/ll_aton/ll_aton_NN_interface.h ****   /**
 307:../Middlewares/stedgeai-lib/Npu/ll_aton/ll_aton_NN_interface.h ****    * @brief returns the end address of the buffer
 308:../Middlewares/stedgeai-lib/Npu/ll_aton/ll_aton_NN_interface.h ****    *
 309:../Middlewares/stedgeai-lib/Npu/ll_aton/ll_aton_NN_interface.h ****    */
 310:../Middlewares/stedgeai-lib/Npu/ll_aton/ll_aton_NN_interface.h ****   static inline unsigned char *LL_Buffer_addr_end(const LL_Buffer_InfoTypeDef *buf);
 311:../Middlewares/stedgeai-lib/Npu/ll_aton/ll_aton_NN_interface.h **** 
 312:../Middlewares/stedgeai-lib/Npu/ll_aton/ll_aton_NN_interface.h ****   /**
 313:../Middlewares/stedgeai-lib/Npu/ll_aton/ll_aton_NN_interface.h ****    * @brief returns the limit address of the buffer
 314:../Middlewares/stedgeai-lib/Npu/ll_aton/ll_aton_NN_interface.h ****    *
 315:../Middlewares/stedgeai-lib/Npu/ll_aton/ll_aton_NN_interface.h ****    */
 316:../Middlewares/stedgeai-lib/Npu/ll_aton/ll_aton_NN_interface.h ****   static inline unsigned char *LL_Buffer_addr_limit(const LL_Buffer_InfoTypeDef *buf);
 317:../Middlewares/stedgeai-lib/Npu/ll_aton/ll_aton_NN_interface.h **** 
 318:../Middlewares/stedgeai-lib/Npu/ll_aton/ll_aton_NN_interface.h ****   /**
 319:../Middlewares/stedgeai-lib/Npu/ll_aton/ll_aton_NN_interface.h ****    * @brief returns the length of the buffer
 320:../Middlewares/stedgeai-lib/Npu/ll_aton/ll_aton_NN_interface.h ****    *
 321:../Middlewares/stedgeai-lib/Npu/ll_aton/ll_aton_NN_interface.h ****    */
ARM GAS  /tmp/ccmL1RJj.s 			page 16


 322:../Middlewares/stedgeai-lib/Npu/ll_aton/ll_aton_NN_interface.h ****   static inline uint32_t LL_Buffer_len(const LL_Buffer_InfoTypeDef *buf);
 323:../Middlewares/stedgeai-lib/Npu/ll_aton/ll_aton_NN_interface.h **** 
 324:../Middlewares/stedgeai-lib/Npu/ll_aton/ll_aton_NN_interface.h ****   /**
 325:../Middlewares/stedgeai-lib/Npu/ll_aton/ll_aton_NN_interface.h ****    * @brief returns the buffer elements number of bits
 326:../Middlewares/stedgeai-lib/Npu/ll_aton/ll_aton_NN_interface.h ****    *
 327:../Middlewares/stedgeai-lib/Npu/ll_aton/ll_aton_NN_interface.h ****    */
 328:../Middlewares/stedgeai-lib/Npu/ll_aton/ll_aton_NN_interface.h ****   static inline uint32_t LL_Buffer_bits(const LL_Buffer_InfoTypeDef *buf);
 329:../Middlewares/stedgeai-lib/Npu/ll_aton/ll_aton_NN_interface.h **** 
 330:../Middlewares/stedgeai-lib/Npu/ll_aton/ll_aton_NN_interface.h ****   /**
 331:../Middlewares/stedgeai-lib/Npu/ll_aton/ll_aton_NN_interface.h ****    * @}
 332:../Middlewares/stedgeai-lib/Npu/ll_aton/ll_aton_NN_interface.h ****    */
 333:../Middlewares/stedgeai-lib/Npu/ll_aton/ll_aton_NN_interface.h **** 
 334:../Middlewares/stedgeai-lib/Npu/ll_aton/ll_aton_NN_interface.h ****   /** @defgroup Handle-style Data Types and Declaration Macros for ATON Runtime Execution & User AP
 335:../Middlewares/stedgeai-lib/Npu/ll_aton/ll_aton_NN_interface.h ****    * @{
 336:../Middlewares/stedgeai-lib/Npu/ll_aton/ll_aton_NN_interface.h ****    */
 337:../Middlewares/stedgeai-lib/Npu/ll_aton/ll_aton_NN_interface.h **** 
 338:../Middlewares/stedgeai-lib/Npu/ll_aton/ll_aton_NN_interface.h **** /**
 339:../Middlewares/stedgeai-lib/Npu/ll_aton/ll_aton_NN_interface.h ****  * @brief Declare the function prototypes for named NN interface functions generated by the AtoNN c
 340:../Middlewares/stedgeai-lib/Npu/ll_aton/ll_aton_NN_interface.h ****  * @param network_name name of the network as provided by option `--network-name`
 341:../Middlewares/stedgeai-lib/Npu/ll_aton/ll_aton_NN_interface.h ****  */
 342:../Middlewares/stedgeai-lib/Npu/ll_aton/ll_aton_NN_interface.h **** #define LL_ATON_DECLARE_NAMED_NN_PROTOS(network_name)                                              
 343:../Middlewares/stedgeai-lib/Npu/ll_aton/ll_aton_NN_interface.h ****   extern bool LL_ATON_EC_Network_Init_##network_name(void);                                        
 344:../Middlewares/stedgeai-lib/Npu/ll_aton/ll_aton_NN_interface.h ****   extern bool LL_ATON_EC_Inference_Init_##network_name(void);                                      
 345:../Middlewares/stedgeai-lib/Npu/ll_aton/ll_aton_NN_interface.h ****   extern LL_ATON_User_IO_Result_t LL_ATON_Set_User_Input_Buffer_##network_name(uint32_t num, void *
 346:../Middlewares/stedgeai-lib/Npu/ll_aton/ll_aton_NN_interface.h ****                                                                                uint32_t size);     
 347:../Middlewares/stedgeai-lib/Npu/ll_aton/ll_aton_NN_interface.h ****   extern void *LL_ATON_Get_User_Input_Buffer_##network_name(uint32_t num);                         
 348:../Middlewares/stedgeai-lib/Npu/ll_aton/ll_aton_NN_interface.h ****   extern LL_ATON_User_IO_Result_t LL_ATON_Set_User_Output_Buffer_##network_name(uint32_t num, void 
 349:../Middlewares/stedgeai-lib/Npu/ll_aton/ll_aton_NN_interface.h ****                                                                                 uint32_t size);    
 350:../Middlewares/stedgeai-lib/Npu/ll_aton/ll_aton_NN_interface.h ****   extern void *LL_ATON_Get_User_Output_Buffer_##network_name(uint32_t num);                        
 351:../Middlewares/stedgeai-lib/Npu/ll_aton/ll_aton_NN_interface.h ****   extern const LL_ATON_RT_EpochBlockItem_t *LL_ATON_EpochBlockItems_##network_name(void);          
 352:../Middlewares/stedgeai-lib/Npu/ll_aton/ll_aton_NN_interface.h ****   extern const LL_Buffer_InfoTypeDef *LL_ATON_Output_Buffers_Info_##network_name(void);            
 353:../Middlewares/stedgeai-lib/Npu/ll_aton/ll_aton_NN_interface.h ****   extern const LL_Buffer_InfoTypeDef *LL_ATON_Input_Buffers_Info_##network_name(void);             
 354:../Middlewares/stedgeai-lib/Npu/ll_aton/ll_aton_NN_interface.h ****   extern const LL_Streng_EncryptionTypedef *LL_ATON_WeightEncryption_Info_##network_name(void);    
 355:../Middlewares/stedgeai-lib/Npu/ll_aton/ll_aton_NN_interface.h ****   extern const LL_Streng_EncryptionTypedef *LL_ATON_BlobEncryption_Info_##network_name(void);      
 356:../Middlewares/stedgeai-lib/Npu/ll_aton/ll_aton_NN_interface.h ****   extern const LL_Buffer_InfoTypeDef *LL_ATON_Internal_Buffers_Info_##network_name(void);
 357:../Middlewares/stedgeai-lib/Npu/ll_aton/ll_aton_NN_interface.h **** 
 358:../Middlewares/stedgeai-lib/Npu/ll_aton/ll_aton_NN_interface.h ****   /**
 359:../Middlewares/stedgeai-lib/Npu/ll_aton/ll_aton_NN_interface.h ****    * @brief  Type definitions for NN interface functions
 360:../Middlewares/stedgeai-lib/Npu/ll_aton/ll_aton_NN_interface.h ****    */
 361:../Middlewares/stedgeai-lib/Npu/ll_aton/ll_aton_NN_interface.h ****   typedef bool (*NN_EC_Hook_TypeDef)(void);
 362:../Middlewares/stedgeai-lib/Npu/ll_aton/ll_aton_NN_interface.h ****   typedef LL_ATON_User_IO_Result_t (*NN_InputSetter_TypeDef)(uint32_t num, void *buffer, uint32_t s
 363:../Middlewares/stedgeai-lib/Npu/ll_aton/ll_aton_NN_interface.h ****   typedef void *(*NN_InputGetter_TypeDef)(uint32_t num);
 364:../Middlewares/stedgeai-lib/Npu/ll_aton/ll_aton_NN_interface.h ****   typedef LL_ATON_User_IO_Result_t (*NN_OutputSetter_TypeDef)(uint32_t num, void *buffer, uint32_t 
 365:../Middlewares/stedgeai-lib/Npu/ll_aton/ll_aton_NN_interface.h ****   typedef void *(*NN_OutputGetter_TypeDef)(uint32_t num);
 366:../Middlewares/stedgeai-lib/Npu/ll_aton/ll_aton_NN_interface.h ****   typedef const LL_ATON_RT_EpochBlockItem_t *(*NN_EpochBlockItems_TypeDef)(void);
 367:../Middlewares/stedgeai-lib/Npu/ll_aton/ll_aton_NN_interface.h ****   typedef const LL_Streng_EncryptionTypedef *(*NN_Encryption_Info_TypeDef)(void);
 368:../Middlewares/stedgeai-lib/Npu/ll_aton/ll_aton_NN_interface.h ****   typedef const LL_Buffer_InfoTypeDef *(*NN_Buffers_Info_TypeDef)(void);
 369:../Middlewares/stedgeai-lib/Npu/ll_aton/ll_aton_NN_interface.h **** 
 370:../Middlewares/stedgeai-lib/Npu/ll_aton/ll_aton_NN_interface.h ****   typedef void (*TraceRuntime_FuncPtr_t)(LL_ATON_RT_Callbacktype_t ctype);
 371:../Middlewares/stedgeai-lib/Npu/ll_aton/ll_aton_NN_interface.h **** 
 372:../Middlewares/stedgeai-lib/Npu/ll_aton/ll_aton_NN_interface.h ****   typedef void (*TraceEpochBlock_FuncPtr_t)(LL_ATON_RT_Callbacktype_t ctype, const NN_Instance_Type
 373:../Middlewares/stedgeai-lib/Npu/ll_aton/ll_aton_NN_interface.h ****                                             const LL_ATON_RT_EpochBlockItem_t *epoch_block);
 374:../Middlewares/stedgeai-lib/Npu/ll_aton/ll_aton_NN_interface.h **** 
 375:../Middlewares/stedgeai-lib/Npu/ll_aton/ll_aton_NN_interface.h ****   typedef struct
 376:../Middlewares/stedgeai-lib/Npu/ll_aton/ll_aton_NN_interface.h ****   {
 377:../Middlewares/stedgeai-lib/Npu/ll_aton/ll_aton_NN_interface.h ****     const char *network_name;                     // name of the network as provided by compiler op
 378:../Middlewares/stedgeai-lib/Npu/ll_aton/ll_aton_NN_interface.h ****     NN_EC_Hook_TypeDef ec_network_init;           // pointer to epoch controller network initializa
ARM GAS  /tmp/ccmL1RJj.s 			page 17


 379:../Middlewares/stedgeai-lib/Npu/ll_aton/ll_aton_NN_interface.h ****     NN_EC_Hook_TypeDef ec_inference_init;         // pointer to epoch controller start inference fu
 380:../Middlewares/stedgeai-lib/Npu/ll_aton/ll_aton_NN_interface.h ****     NN_InputSetter_TypeDef input_setter;          // function pointer for setting user-defined inpu
 381:../Middlewares/stedgeai-lib/Npu/ll_aton/ll_aton_NN_interface.h ****     NN_InputGetter_TypeDef input_getter;          // function pointer for getting user-defined inpu
 382:../Middlewares/stedgeai-lib/Npu/ll_aton/ll_aton_NN_interface.h ****     NN_OutputSetter_TypeDef output_setter;        // function pointer for setting user-defined outp
 383:../Middlewares/stedgeai-lib/Npu/ll_aton/ll_aton_NN_interface.h ****     NN_OutputGetter_TypeDef output_getter;        // function pointer for getting user-defined outp
 384:../Middlewares/stedgeai-lib/Npu/ll_aton/ll_aton_NN_interface.h ****     NN_EpochBlockItems_TypeDef epoch_block_items; // function pointer to retrieve the epoch block a
 385:../Middlewares/stedgeai-lib/Npu/ll_aton/ll_aton_NN_interface.h ****     NN_Buffers_Info_TypeDef output_buffers_info;  // function pointer returning information about a
 386:../Middlewares/stedgeai-lib/Npu/ll_aton/ll_aton_NN_interface.h ****     NN_Buffers_Info_TypeDef input_buffers_info;   // function pointer returning information about a
 387:../Middlewares/stedgeai-lib/Npu/ll_aton/ll_aton_NN_interface.h ****     NN_Encryption_Info_TypeDef blob_encryption_info;   // function pointer returning epoch blobs en
 388:../Middlewares/stedgeai-lib/Npu/ll_aton/ll_aton_NN_interface.h ****     NN_Encryption_Info_TypeDef weight_encryption_info; // function pointer returning weights encryp
 389:../Middlewares/stedgeai-lib/Npu/ll_aton/ll_aton_NN_interface.h ****     NN_Buffers_Info_TypeDef internal_buffers_info; // function pointer returning information about 
 390:../Middlewares/stedgeai-lib/Npu/ll_aton/ll_aton_NN_interface.h ****   } NN_Interface_TypeDef;
 391:../Middlewares/stedgeai-lib/Npu/ll_aton/ll_aton_NN_interface.h **** 
 392:../Middlewares/stedgeai-lib/Npu/ll_aton/ll_aton_NN_interface.h ****   typedef struct
 393:../Middlewares/stedgeai-lib/Npu/ll_aton/ll_aton_NN_interface.h ****   {
 394:../Middlewares/stedgeai-lib/Npu/ll_aton/ll_aton_NN_interface.h ****     const LL_ATON_RT_EpochBlockItem_t *volatile current_epoch_block; // pointer to current epoch bl
 395:../Middlewares/stedgeai-lib/Npu/ll_aton/ll_aton_NN_interface.h ****     const LL_ATON_RT_EpochBlockItem_t *volatile first_epoch_block; // pointer to first epoch block 
 396:../Middlewares/stedgeai-lib/Npu/ll_aton/ll_aton_NN_interface.h ****     const LL_ATON_RT_EpochBlockItem_t *volatile next_epoch_block;  // pointer to epoch block to be 
 397:../Middlewares/stedgeai-lib/Npu/ll_aton/ll_aton_NN_interface.h **** 
 398:../Middlewares/stedgeai-lib/Npu/ll_aton/ll_aton_NN_interface.h ****     const LL_ATON_RT_EpochBlockItem_t *volatile saved_current_epoch_block; // pointer to saved curr
 399:../Middlewares/stedgeai-lib/Npu/ll_aton/ll_aton_NN_interface.h ****     const LL_ATON_RT_EpochBlockItem_t
 400:../Middlewares/stedgeai-lib/Npu/ll_aton/ll_aton_NN_interface.h ****         *volatile saved_first_epoch_block; // pointer to saved first epoch block in current epoch l
 401:../Middlewares/stedgeai-lib/Npu/ll_aton/ll_aton_NN_interface.h **** 
 402:../Middlewares/stedgeai-lib/Npu/ll_aton/ll_aton_NN_interface.h ****     bool inference_started; // inference has been started
 403:../Middlewares/stedgeai-lib/Npu/ll_aton/ll_aton_NN_interface.h **** 
 404:../Middlewares/stedgeai-lib/Npu/ll_aton/ll_aton_NN_interface.h **** #if (LL_ATON_RT_MODE == LL_ATON_RT_ASYNC)
 405:../Middlewares/stedgeai-lib/Npu/ll_aton/ll_aton_NN_interface.h ****     volatile uint32_t triggered_events;        // currently triggered events/IRQs in current epoch
 406:../Middlewares/stedgeai-lib/Npu/ll_aton/ll_aton_NN_interface.h ****     volatile bool current_epoch_block_started; // has current epoch block already been started
 407:../Middlewares/stedgeai-lib/Npu/ll_aton/ll_aton_NN_interface.h **** #endif                                         // (LL_ATON_RT_MODE == LL_ATON_RT_ASYNC)
 408:../Middlewares/stedgeai-lib/Npu/ll_aton/ll_aton_NN_interface.h **** 
 409:../Middlewares/stedgeai-lib/Npu/ll_aton/ll_aton_NN_interface.h **** #ifndef NDEBUG
 410:../Middlewares/stedgeai-lib/Npu/ll_aton/ll_aton_NN_interface.h ****     volatile uint32_t
 411:../Middlewares/stedgeai-lib/Npu/ll_aton/ll_aton_NN_interface.h ****         nr_of_epoch_blocks; // number of epoch blocks in network (includes also terminating empty e
 412:../Middlewares/stedgeai-lib/Npu/ll_aton/ll_aton_NN_interface.h ****     volatile uint32_t saved_nr_of_epoch_blocks; // number of epoch blocks in saved network (include
 413:../Middlewares/stedgeai-lib/Npu/ll_aton/ll_aton_NN_interface.h ****                                                 // empty epoch block)
 414:../Middlewares/stedgeai-lib/Npu/ll_aton/ll_aton_NN_interface.h **** #endif                                          // !NDEBUG
 415:../Middlewares/stedgeai-lib/Npu/ll_aton/ll_aton_NN_interface.h **** 
 416:../Middlewares/stedgeai-lib/Npu/ll_aton/ll_aton_NN_interface.h ****     TraceEpochBlock_FuncPtr_t epoch_callback_function; // epoch callback function
 417:../Middlewares/stedgeai-lib/Npu/ll_aton/ll_aton_NN_interface.h **** 
 418:../Middlewares/stedgeai-lib/Npu/ll_aton/ll_aton_NN_interface.h **** #if defined(LL_ATON_RT_RELOC)
 419:../Middlewares/stedgeai-lib/Npu/ll_aton/ll_aton_NN_interface.h ****     uint32_t inst_reloc; // handle to relocation context
 420:../Middlewares/stedgeai-lib/Npu/ll_aton/ll_aton_NN_interface.h **** #endif                   // LL_ATON_RELOC
 421:../Middlewares/stedgeai-lib/Npu/ll_aton/ll_aton_NN_interface.h ****   } NN_Execution_State_TypeDef;
 422:../Middlewares/stedgeai-lib/Npu/ll_aton/ll_aton_NN_interface.h **** 
 423:../Middlewares/stedgeai-lib/Npu/ll_aton/ll_aton_NN_interface.h ****   struct __nn_instance_struct
 424:../Middlewares/stedgeai-lib/Npu/ll_aton/ll_aton_NN_interface.h ****   {
 425:../Middlewares/stedgeai-lib/Npu/ll_aton/ll_aton_NN_interface.h ****     const NN_Interface_TypeDef *network;
 426:../Middlewares/stedgeai-lib/Npu/ll_aton/ll_aton_NN_interface.h ****     NN_Execution_State_TypeDef exec_state;
 427:../Middlewares/stedgeai-lib/Npu/ll_aton/ll_aton_NN_interface.h ****   };
 428:../Middlewares/stedgeai-lib/Npu/ll_aton/ll_aton_NN_interface.h **** 
 429:../Middlewares/stedgeai-lib/Npu/ll_aton/ll_aton_NN_interface.h ****   /**
 430:../Middlewares/stedgeai-lib/Npu/ll_aton/ll_aton_NN_interface.h ****    * @}
 431:../Middlewares/stedgeai-lib/Npu/ll_aton/ll_aton_NN_interface.h ****    */
 432:../Middlewares/stedgeai-lib/Npu/ll_aton/ll_aton_NN_interface.h **** 
 433:../Middlewares/stedgeai-lib/Npu/ll_aton/ll_aton_NN_interface.h ****   /** @defgroup Helper Function Inline Implementations
 434:../Middlewares/stedgeai-lib/Npu/ll_aton/ll_aton_NN_interface.h ****    * @{
 435:../Middlewares/stedgeai-lib/Npu/ll_aton/ll_aton_NN_interface.h ****    */
ARM GAS  /tmp/ccmL1RJj.s 			page 18


 436:../Middlewares/stedgeai-lib/Npu/ll_aton/ll_aton_NN_interface.h **** 
 437:../Middlewares/stedgeai-lib/Npu/ll_aton/ll_aton_NN_interface.h ****   static inline bool EpochBlock_IsLastEpochBlock(const LL_ATON_RT_EpochBlockItem_t *eb)
 140              		.loc 2 437 22 view .LVU46
 141              	.LBB88:
 438:../Middlewares/stedgeai-lib/Npu/ll_aton/ll_aton_NN_interface.h ****   {
 439:../Middlewares/stedgeai-lib/Npu/ll_aton/ll_aton_NN_interface.h ****     return ((eb->flags & EpochBlock_Flags_last_eb) != 0);
 142              		.loc 2 439 5 view .LVU47
 143              		.loc 2 439 5 is_stmt 0 view .LVU48
 144              	.LBE88:
 145              	.LBE87:
  91:../Middlewares/stedgeai-lib/Npu/ll_aton/ll_aton_runtime.c ****     { // Note: also terminating empty epoch block is counted
 146              		.loc 1 91 17 discriminator 1 view .LVU49
 147 003a 198A     		ldrh	r1, [r3, #16]
 148 003c 0907     		lsls	r1, r1, #28
 149 003e FAD5     		bpl	.L7
  91:../Middlewares/stedgeai-lib/Npu/ll_aton/ll_aton_runtime.c ****     { // Note: also terminating empty epoch block is counted
 150              		.loc 1 91 17 discriminator 1 view .LVU50
 151 0040 EEE7     		b	.L6
 152              	.LVL9:
 153              	.L8:
  91:../Middlewares/stedgeai-lib/Npu/ll_aton/ll_aton_runtime.c ****     { // Note: also terminating empty epoch block is counted
 154              		.loc 1 91 12 view .LVU51
 155 0042 0122     		movs	r2, #1
 156 0044 F9E7     		b	.L5
 157              	.LVL10:
 158              	.L1:
  91:../Middlewares/stedgeai-lib/Npu/ll_aton/ll_aton_runtime.c ****     { // Note: also terminating empty epoch block is counted
 159              		.loc 1 91 12 view .LVU52
 160              	.LBE89:
 161              	.LBE90:
 162              		.loc 1 376 1 view .LVU53
 163 0046 10BD     		pop	{r4, pc}
 164              		.loc 1 376 1 view .LVU54
 165              		.cfi_endproc
 166              	.LFE355:
 168              		.section	.rodata.__LL_ATON_RT_SetWaitMask.part.0.str1.1,"aMS",%progbits,1
 169              	.LC0:
 170 0000 5F5F6C6C 		.ascii	"__ll_current_aton_ip_owner != ((void *)0)\000"
 170      5F637572 
 170      72656E74 
 170      5F61746F 
 170      6E5F6970 
 171              	.LC1:
 172 002a 2E2E2F4D 		.ascii	"../Middlewares/stedgeai-lib/Npu/ll_aton/ll_aton_run"
 172      6964646C 
 172      65776172 
 172      65732F73 
 172      74656467 
 173 005d 74696D65 		.ascii	"time.h\000"
 173      2E6800
 174              		.section	.text.__LL_ATON_RT_SetWaitMask.part.0,"ax",%progbits
 175              		.align	1
 176              		.syntax unified
 177              		.thumb
 178              		.thumb_func
 180              	__LL_ATON_RT_SetWaitMask.part.0:
 181              	.LFB368:
ARM GAS  /tmp/ccmL1RJj.s 			page 19


 182              		.file 3 "../Middlewares/stedgeai-lib/Npu/ll_aton/ll_aton_runtime.h"
   1:../Middlewares/stedgeai-lib/Npu/ll_aton/ll_aton_runtime.h **** /**
   2:../Middlewares/stedgeai-lib/Npu/ll_aton/ll_aton_runtime.h ****  ******************************************************************************
   3:../Middlewares/stedgeai-lib/Npu/ll_aton/ll_aton_runtime.h ****  * @file    ll_aton_runtime.h
   4:../Middlewares/stedgeai-lib/Npu/ll_aton/ll_aton_runtime.h ****  * @author  SRA Artificial Intelligence & Embedded Architectures
   5:../Middlewares/stedgeai-lib/Npu/ll_aton/ll_aton_runtime.h ****  * @brief   Header file of ATON LL runtime.
   6:../Middlewares/stedgeai-lib/Npu/ll_aton/ll_aton_runtime.h ****  * @note    ATON LL runtime currently assumes a single network run
   7:../Middlewares/stedgeai-lib/Npu/ll_aton/ll_aton_runtime.h ****  ******************************************************************************
   8:../Middlewares/stedgeai-lib/Npu/ll_aton/ll_aton_runtime.h ****  * @attention
   9:../Middlewares/stedgeai-lib/Npu/ll_aton/ll_aton_runtime.h ****  *
  10:../Middlewares/stedgeai-lib/Npu/ll_aton/ll_aton_runtime.h ****  * Copyright (c) 2024 STMicroelectronics.
  11:../Middlewares/stedgeai-lib/Npu/ll_aton/ll_aton_runtime.h ****  * All rights reserved.
  12:../Middlewares/stedgeai-lib/Npu/ll_aton/ll_aton_runtime.h ****  *
  13:../Middlewares/stedgeai-lib/Npu/ll_aton/ll_aton_runtime.h ****  * This software is licensed under terms that can be found in the LICENSE file
  14:../Middlewares/stedgeai-lib/Npu/ll_aton/ll_aton_runtime.h ****  * in the root directory of this software component.
  15:../Middlewares/stedgeai-lib/Npu/ll_aton/ll_aton_runtime.h ****  * If no LICENSE file comes with this software, it is provided AS-IS.
  16:../Middlewares/stedgeai-lib/Npu/ll_aton/ll_aton_runtime.h ****  *
  17:../Middlewares/stedgeai-lib/Npu/ll_aton/ll_aton_runtime.h ****  ******************************************************************************
  18:../Middlewares/stedgeai-lib/Npu/ll_aton/ll_aton_runtime.h ****  */
  19:../Middlewares/stedgeai-lib/Npu/ll_aton/ll_aton_runtime.h **** 
  20:../Middlewares/stedgeai-lib/Npu/ll_aton/ll_aton_runtime.h **** #ifndef __LL_ATON_RUNTIME_H
  21:../Middlewares/stedgeai-lib/Npu/ll_aton/ll_aton_runtime.h **** #define __LL_ATON_RUNTIME_H
  22:../Middlewares/stedgeai-lib/Npu/ll_aton/ll_aton_runtime.h **** 
  23:../Middlewares/stedgeai-lib/Npu/ll_aton/ll_aton_runtime.h **** #ifdef __cplusplus
  24:../Middlewares/stedgeai-lib/Npu/ll_aton/ll_aton_runtime.h **** extern "C"
  25:../Middlewares/stedgeai-lib/Npu/ll_aton/ll_aton_runtime.h **** {
  26:../Middlewares/stedgeai-lib/Npu/ll_aton/ll_aton_runtime.h **** #endif
  27:../Middlewares/stedgeai-lib/Npu/ll_aton/ll_aton_runtime.h **** 
  28:../Middlewares/stedgeai-lib/Npu/ll_aton/ll_aton_runtime.h **** #include <stdint.h>
  29:../Middlewares/stedgeai-lib/Npu/ll_aton/ll_aton_runtime.h **** #include <stdio.h>
  30:../Middlewares/stedgeai-lib/Npu/ll_aton/ll_aton_runtime.h **** #include <stdlib.h>
  31:../Middlewares/stedgeai-lib/Npu/ll_aton/ll_aton_runtime.h **** 
  32:../Middlewares/stedgeai-lib/Npu/ll_aton/ll_aton_runtime.h **** #include "ll_aton_rt_user_api.h"
  33:../Middlewares/stedgeai-lib/Npu/ll_aton/ll_aton_runtime.h **** #include "ll_aton_util.h"
  34:../Middlewares/stedgeai-lib/Npu/ll_aton/ll_aton_runtime.h **** 
  35:../Middlewares/stedgeai-lib/Npu/ll_aton/ll_aton_runtime.h ****   /*** Helper Functions ***/
  36:../Middlewares/stedgeai-lib/Npu/ll_aton/ll_aton_runtime.h **** 
  37:../Middlewares/stedgeai-lib/Npu/ll_aton/ll_aton_runtime.h ****   static inline void __ll_set_aton_owner(const NN_Instance_TypeDef *new_owner)
  38:../Middlewares/stedgeai-lib/Npu/ll_aton/ll_aton_runtime.h ****   {
  39:../Middlewares/stedgeai-lib/Npu/ll_aton/ll_aton_runtime.h ****     extern const NN_Instance_TypeDef *volatile __ll_current_aton_ip_owner;
  40:../Middlewares/stedgeai-lib/Npu/ll_aton/ll_aton_runtime.h ****     LL_ATON_ASSERT(new_owner != __ll_current_aton_ip_owner);
  41:../Middlewares/stedgeai-lib/Npu/ll_aton/ll_aton_runtime.h **** 
  42:../Middlewares/stedgeai-lib/Npu/ll_aton/ll_aton_runtime.h ****     LL_ATON_OSAL_LOCK_ATON();
  43:../Middlewares/stedgeai-lib/Npu/ll_aton/ll_aton_runtime.h **** 
  44:../Middlewares/stedgeai-lib/Npu/ll_aton/ll_aton_runtime.h ****     LL_ATON_ASSERT(__ll_current_aton_ip_owner == NULL);
  45:../Middlewares/stedgeai-lib/Npu/ll_aton/ll_aton_runtime.h **** 
  46:../Middlewares/stedgeai-lib/Npu/ll_aton/ll_aton_runtime.h **** #ifndef NDEBUG
  47:../Middlewares/stedgeai-lib/Npu/ll_aton/ll_aton_runtime.h ****     extern uint32_t volatile __ll_current_wait_mask;
  48:../Middlewares/stedgeai-lib/Npu/ll_aton/ll_aton_runtime.h ****     LL_ATON_ASSERT(__ll_current_wait_mask == 0);
  49:../Middlewares/stedgeai-lib/Npu/ll_aton/ll_aton_runtime.h **** #endif // !NDEBUG
  50:../Middlewares/stedgeai-lib/Npu/ll_aton/ll_aton_runtime.h **** 
  51:../Middlewares/stedgeai-lib/Npu/ll_aton/ll_aton_runtime.h ****     __ll_current_aton_ip_owner = new_owner;
  52:../Middlewares/stedgeai-lib/Npu/ll_aton/ll_aton_runtime.h ****   }
  53:../Middlewares/stedgeai-lib/Npu/ll_aton/ll_aton_runtime.h **** 
  54:../Middlewares/stedgeai-lib/Npu/ll_aton/ll_aton_runtime.h ****   static inline void __ll_clear_aton_owner(const NN_Instance_TypeDef *current_owner, bool reset_mas
  55:../Middlewares/stedgeai-lib/Npu/ll_aton/ll_aton_runtime.h ****   {
  56:../Middlewares/stedgeai-lib/Npu/ll_aton/ll_aton_runtime.h **** #ifndef NDEBUG
ARM GAS  /tmp/ccmL1RJj.s 			page 20


  57:../Middlewares/stedgeai-lib/Npu/ll_aton/ll_aton_runtime.h ****     extern uint32_t volatile __ll_current_wait_mask;
  58:../Middlewares/stedgeai-lib/Npu/ll_aton/ll_aton_runtime.h **** #endif // !NDEBUG
  59:../Middlewares/stedgeai-lib/Npu/ll_aton/ll_aton_runtime.h ****     extern const NN_Instance_TypeDef *volatile __ll_current_aton_ip_owner;
  60:../Middlewares/stedgeai-lib/Npu/ll_aton/ll_aton_runtime.h ****     LL_ATON_ASSERT(current_owner == __ll_current_aton_ip_owner);
  61:../Middlewares/stedgeai-lib/Npu/ll_aton/ll_aton_runtime.h **** 
  62:../Middlewares/stedgeai-lib/Npu/ll_aton/ll_aton_runtime.h **** #ifndef NDEBUG
  63:../Middlewares/stedgeai-lib/Npu/ll_aton/ll_aton_runtime.h ****     if (reset_mask && (__ll_current_wait_mask != 0))
  64:../Middlewares/stedgeai-lib/Npu/ll_aton/ll_aton_runtime.h ****     {
  65:../Middlewares/stedgeai-lib/Npu/ll_aton/ll_aton_runtime.h ****       LL_ATON_PRINTF("WARNING: performing a hard-reset of debug wait-mask!\n");
  66:../Middlewares/stedgeai-lib/Npu/ll_aton/ll_aton_runtime.h ****       __ll_current_wait_mask = 0;
  67:../Middlewares/stedgeai-lib/Npu/ll_aton/ll_aton_runtime.h ****     }
  68:../Middlewares/stedgeai-lib/Npu/ll_aton/ll_aton_runtime.h ****     else
  69:../Middlewares/stedgeai-lib/Npu/ll_aton/ll_aton_runtime.h ****     {
  70:../Middlewares/stedgeai-lib/Npu/ll_aton/ll_aton_runtime.h ****       LL_ATON_ASSERT(__ll_current_wait_mask == 0);
  71:../Middlewares/stedgeai-lib/Npu/ll_aton/ll_aton_runtime.h ****     }
  72:../Middlewares/stedgeai-lib/Npu/ll_aton/ll_aton_runtime.h **** #else  // !NDEBUG
  73:../Middlewares/stedgeai-lib/Npu/ll_aton/ll_aton_runtime.h ****   LL_ATON_LIB_UNUSED(reset_mask);
  74:../Middlewares/stedgeai-lib/Npu/ll_aton/ll_aton_runtime.h **** #endif // !NDEBUG
  75:../Middlewares/stedgeai-lib/Npu/ll_aton/ll_aton_runtime.h **** 
  76:../Middlewares/stedgeai-lib/Npu/ll_aton/ll_aton_runtime.h ****     __ll_current_aton_ip_owner = NULL;
  77:../Middlewares/stedgeai-lib/Npu/ll_aton/ll_aton_runtime.h ****     LL_ATON_OSAL_UNLOCK_ATON();
  78:../Middlewares/stedgeai-lib/Npu/ll_aton/ll_aton_runtime.h ****   }
  79:../Middlewares/stedgeai-lib/Npu/ll_aton/ll_aton_runtime.h **** 
  80:../Middlewares/stedgeai-lib/Npu/ll_aton/ll_aton_runtime.h ****   /**
  81:../Middlewares/stedgeai-lib/Npu/ll_aton/ll_aton_runtime.h ****    *  Note: the following function may only be called at the beginning of
  82:../Middlewares/stedgeai-lib/Npu/ll_aton/ll_aton_runtime.h ****    *       `LL_ATON_Start_EpochBlock<n>()` functions, assuming also that at that point
  83:../Middlewares/stedgeai-lib/Npu/ll_aton/ll_aton_runtime.h ****    *       no streaming engine interrupts might trigger (anymore)!
  84:../Middlewares/stedgeai-lib/Npu/ll_aton/ll_aton_runtime.h ****    **/
  85:../Middlewares/stedgeai-lib/Npu/ll_aton/ll_aton_runtime.h ****   static inline void __LL_ATON_RT_Start_AtoNN_Epoch(const NN_Instance_TypeDef *nn_instance)
  86:../Middlewares/stedgeai-lib/Npu/ll_aton/ll_aton_runtime.h ****   {
  87:../Middlewares/stedgeai-lib/Npu/ll_aton/ll_aton_runtime.h ****     LL_ATON_ASSERT(nn_instance != NULL);
  88:../Middlewares/stedgeai-lib/Npu/ll_aton/ll_aton_runtime.h **** #if (LL_ATON_RT_MODE == LL_ATON_RT_ASYNC)
  89:../Middlewares/stedgeai-lib/Npu/ll_aton/ll_aton_runtime.h ****     LL_ATON_ASSERT(nn_instance->exec_state.triggered_events ==
  90:../Middlewares/stedgeai-lib/Npu/ll_aton/ll_aton_runtime.h ****                    0x0); // with the removal of parallel SW/HW epochs execution all triggered event
  91:../Middlewares/stedgeai-lib/Npu/ll_aton/ll_aton_runtime.h ****                          // cleared at this point in time!
  92:../Middlewares/stedgeai-lib/Npu/ll_aton/ll_aton_runtime.h **** #endif
  93:../Middlewares/stedgeai-lib/Npu/ll_aton/ll_aton_runtime.h ****   }
  94:../Middlewares/stedgeai-lib/Npu/ll_aton/ll_aton_runtime.h **** 
  95:../Middlewares/stedgeai-lib/Npu/ll_aton/ll_aton_runtime.h ****   static inline uint32_t __LL_ATON_RT_GetCurrEpochBlockIndex(const NN_Instance_TypeDef *nn_instance
  96:../Middlewares/stedgeai-lib/Npu/ll_aton/ll_aton_runtime.h ****   {
  97:../Middlewares/stedgeai-lib/Npu/ll_aton/ll_aton_runtime.h ****     const LL_ATON_RT_EpochBlockItem_t *_current_epoch_block = nn_instance->exec_state.current_epoch
  98:../Middlewares/stedgeai-lib/Npu/ll_aton/ll_aton_runtime.h ****     const LL_ATON_RT_EpochBlockItem_t *_first_epoch_block = nn_instance->exec_state.first_epoch_blo
  99:../Middlewares/stedgeai-lib/Npu/ll_aton/ll_aton_runtime.h ****     LL_ATON_ASSERT(_first_epoch_block <= _current_epoch_block); // should never happen
 100:../Middlewares/stedgeai-lib/Npu/ll_aton/ll_aton_runtime.h **** 
 101:../Middlewares/stedgeai-lib/Npu/ll_aton/ll_aton_runtime.h ****     return (_current_epoch_block - _first_epoch_block);
 102:../Middlewares/stedgeai-lib/Npu/ll_aton/ll_aton_runtime.h ****   }
 103:../Middlewares/stedgeai-lib/Npu/ll_aton/ll_aton_runtime.h **** 
 104:../Middlewares/stedgeai-lib/Npu/ll_aton/ll_aton_runtime.h ****   static inline void __LL_ATON_RT_SetCurrentEpochBlock(int32_t index, const NN_Instance_TypeDef *nn
 105:../Middlewares/stedgeai-lib/Npu/ll_aton/ll_aton_runtime.h ****   {
 106:../Middlewares/stedgeai-lib/Npu/ll_aton/ll_aton_runtime.h **** #ifndef NDEBUG
 107:../Middlewares/stedgeai-lib/Npu/ll_aton/ll_aton_runtime.h ****     /* should never happen (assumes that a `nn_instance->exec_state.current_epoch_block++` will be
 108:../Middlewares/stedgeai-lib/Npu/ll_aton/ll_aton_runtime.h ****        performed by the runtime immediately afterwards) */
 109:../Middlewares/stedgeai-lib/Npu/ll_aton/ll_aton_runtime.h ****     LL_ATON_ASSERT(index < (int32_t)(nn_instance->exec_state.nr_of_epoch_blocks - 1));
 110:../Middlewares/stedgeai-lib/Npu/ll_aton/ll_aton_runtime.h **** #endif
 111:../Middlewares/stedgeai-lib/Npu/ll_aton/ll_aton_runtime.h **** 
 112:../Middlewares/stedgeai-lib/Npu/ll_aton/ll_aton_runtime.h ****     ((NN_Instance_TypeDef *)nn_instance)->exec_state.current_epoch_block =
 113:../Middlewares/stedgeai-lib/Npu/ll_aton/ll_aton_runtime.h ****         &nn_instance->exec_state.first_epoch_block[index];
ARM GAS  /tmp/ccmL1RJj.s 			page 21


 114:../Middlewares/stedgeai-lib/Npu/ll_aton/ll_aton_runtime.h ****   }
 115:../Middlewares/stedgeai-lib/Npu/ll_aton/ll_aton_runtime.h **** 
 116:../Middlewares/stedgeai-lib/Npu/ll_aton/ll_aton_runtime.h ****   /* set wait mask(s) in interrupt controller */
 117:../Middlewares/stedgeai-lib/Npu/ll_aton/ll_aton_runtime.h ****   static inline void __LL_ATON_RT_SetWaitMask(uint32_t wait_mask)
 183              		.loc 3 117 22 is_stmt 1 view -0
 184              		.cfi_startproc
 185              		@ Volatile: function does not return.
 186              		@ args = 0, pretend = 0, frame = 0
 187              		@ frame_needed = 0, uses_anonymous_args = 0
 188              	.LVL11:
 189              		.loc 3 117 22 is_stmt 0 view .LVU56
 190 0000 08B5     		push	{r3, lr}
 191              		.cfi_def_cfa_offset 8
 192              		.cfi_offset 3, -8
 193              		.cfi_offset 14, -4
 118:../Middlewares/stedgeai-lib/Npu/ll_aton/ll_aton_runtime.h ****   {
 119:../Middlewares/stedgeai-lib/Npu/ll_aton/ll_aton_runtime.h **** #ifndef NDEBUG
 120:../Middlewares/stedgeai-lib/Npu/ll_aton/ll_aton_runtime.h ****     extern const NN_Instance_TypeDef *volatile __ll_current_aton_ip_owner;
 121:../Middlewares/stedgeai-lib/Npu/ll_aton/ll_aton_runtime.h ****     LL_ATON_ASSERT(__ll_current_aton_ip_owner != NULL);
 194              		.loc 3 121 5 discriminator 1 view .LVU57
 195 0002 7921     		movs	r1, #121
 196 0004 024B     		ldr	r3, .L16
 197 0006 034A     		ldr	r2, .L16+4
 198 0008 0348     		ldr	r0, .L16+8
 199 000a FFF7FEFF 		bl	__assert_func
 200              	.LVL12:
 201              	.L17:
 202 000e 00BF     		.align	2
 203              	.L16:
 204 0010 00000000 		.word	.LC0
 205 0014 00000000 		.word	__func__.5
 206 0018 2A000000 		.word	.LC1
 207              		.cfi_endproc
 208              	.LFE368:
 210              		.section	.rodata.EpochBlock_EpochControllerUnit.str1.1,"aMS",%progbits,1
 211              	.LC2:
 212 0000 45706F63 		.ascii	"EpochBlock_IsEpochBlob(eb)\000"
 212      68426C6F 
 212      636B5F49 
 212      7345706F 
 212      6368426C 
 213              	.LC3:
 214 001b 2E2E2F4D 		.ascii	"../Middlewares/stedgeai-lib/Npu/ll_aton/ll_aton_NN_"
 214      6964646C 
 214      65776172 
 214      65732F73 
 214      74656467 
 215 004e 696E7465 		.ascii	"interface.h\000"
 215      72666163 
 215      652E6800 
 216              		.section	.text.EpochBlock_EpochControllerUnit,"ax",%progbits
 217              		.align	1
 218              		.syntax unified
 219              		.thumb
 220              		.thumb_func
 222              	EpochBlock_EpochControllerUnit:
 223              	.LVL13:
ARM GAS  /tmp/ccmL1RJj.s 			page 22


 224              	.LFB319:
 440:../Middlewares/stedgeai-lib/Npu/ll_aton/ll_aton_NN_interface.h ****   }
 441:../Middlewares/stedgeai-lib/Npu/ll_aton/ll_aton_NN_interface.h **** 
 442:../Middlewares/stedgeai-lib/Npu/ll_aton/ll_aton_NN_interface.h ****   static inline bool EpochBlock_IsEpochStart(const LL_ATON_RT_EpochBlockItem_t *eb)
 443:../Middlewares/stedgeai-lib/Npu/ll_aton/ll_aton_NN_interface.h ****   {
 444:../Middlewares/stedgeai-lib/Npu/ll_aton/ll_aton_NN_interface.h ****     return ((eb->flags & EpochBlock_Flags_epoch_start) != 0);
 445:../Middlewares/stedgeai-lib/Npu/ll_aton/ll_aton_NN_interface.h ****   }
 446:../Middlewares/stedgeai-lib/Npu/ll_aton/ll_aton_NN_interface.h **** 
 447:../Middlewares/stedgeai-lib/Npu/ll_aton/ll_aton_NN_interface.h ****   static inline bool EpochBlock_IsEpochEnd(const LL_ATON_RT_EpochBlockItem_t *eb)
 448:../Middlewares/stedgeai-lib/Npu/ll_aton/ll_aton_NN_interface.h ****   {
 449:../Middlewares/stedgeai-lib/Npu/ll_aton/ll_aton_NN_interface.h ****     return ((eb->flags & EpochBlock_Flags_epoch_end) != 0);
 450:../Middlewares/stedgeai-lib/Npu/ll_aton/ll_aton_NN_interface.h ****   }
 451:../Middlewares/stedgeai-lib/Npu/ll_aton/ll_aton_NN_interface.h **** 
 452:../Middlewares/stedgeai-lib/Npu/ll_aton/ll_aton_NN_interface.h ****   static inline bool EpochBlock_IsEpochBlob(const LL_ATON_RT_EpochBlockItem_t *eb)
 453:../Middlewares/stedgeai-lib/Npu/ll_aton/ll_aton_NN_interface.h ****   {
 454:../Middlewares/stedgeai-lib/Npu/ll_aton/ll_aton_NN_interface.h ****     return ((eb->flags & EpochBlock_Flags_blob) != 0);
 455:../Middlewares/stedgeai-lib/Npu/ll_aton/ll_aton_NN_interface.h ****   }
 456:../Middlewares/stedgeai-lib/Npu/ll_aton/ll_aton_NN_interface.h **** 
 457:../Middlewares/stedgeai-lib/Npu/ll_aton/ll_aton_NN_interface.h ****   static inline bool EpochBlock_IsBlobEncrypted(const LL_ATON_RT_EpochBlockItem_t *eb)
 458:../Middlewares/stedgeai-lib/Npu/ll_aton/ll_aton_NN_interface.h ****   {
 459:../Middlewares/stedgeai-lib/Npu/ll_aton/ll_aton_NN_interface.h ****     return ((eb->flags & EpochBlock_Flags_blob_encrypted) != 0);
 460:../Middlewares/stedgeai-lib/Npu/ll_aton/ll_aton_NN_interface.h ****   }
 461:../Middlewares/stedgeai-lib/Npu/ll_aton/ll_aton_NN_interface.h **** 
 462:../Middlewares/stedgeai-lib/Npu/ll_aton/ll_aton_NN_interface.h ****   static inline bool EpochBlock_IsEpochPureSW(const LL_ATON_RT_EpochBlockItem_t *eb)
 463:../Middlewares/stedgeai-lib/Npu/ll_aton/ll_aton_NN_interface.h ****   {
 464:../Middlewares/stedgeai-lib/Npu/ll_aton/ll_aton_NN_interface.h ****     return ((eb->flags & EpochBlock_Flags_pure_sw) != 0);
 465:../Middlewares/stedgeai-lib/Npu/ll_aton/ll_aton_NN_interface.h ****   }
 466:../Middlewares/stedgeai-lib/Npu/ll_aton/ll_aton_NN_interface.h **** 
 467:../Middlewares/stedgeai-lib/Npu/ll_aton/ll_aton_NN_interface.h ****   static inline bool EpochBlock_IsEpochPureHW(const LL_ATON_RT_EpochBlockItem_t *eb)
 468:../Middlewares/stedgeai-lib/Npu/ll_aton/ll_aton_NN_interface.h ****   {
 469:../Middlewares/stedgeai-lib/Npu/ll_aton/ll_aton_NN_interface.h ****     return ((eb->flags & EpochBlock_Flags_pure_hw) != 0);
 470:../Middlewares/stedgeai-lib/Npu/ll_aton/ll_aton_NN_interface.h ****   }
 471:../Middlewares/stedgeai-lib/Npu/ll_aton/ll_aton_NN_interface.h **** 
 472:../Middlewares/stedgeai-lib/Npu/ll_aton/ll_aton_NN_interface.h ****   static inline bool EpochBlock_IsEpochHybrid(const LL_ATON_RT_EpochBlockItem_t *eb)
 473:../Middlewares/stedgeai-lib/Npu/ll_aton/ll_aton_NN_interface.h ****   {
 474:../Middlewares/stedgeai-lib/Npu/ll_aton/ll_aton_NN_interface.h ****     return ((eb->flags & EpochBlock_Flags_hybrid) != 0);
 475:../Middlewares/stedgeai-lib/Npu/ll_aton/ll_aton_NN_interface.h ****   }
 476:../Middlewares/stedgeai-lib/Npu/ll_aton/ll_aton_NN_interface.h **** 
 477:../Middlewares/stedgeai-lib/Npu/ll_aton/ll_aton_NN_interface.h ****   static inline bool EpochBlock_IsEpochInternal(const LL_ATON_RT_EpochBlockItem_t *eb)
 478:../Middlewares/stedgeai-lib/Npu/ll_aton/ll_aton_NN_interface.h ****   {
 479:../Middlewares/stedgeai-lib/Npu/ll_aton/ll_aton_NN_interface.h ****     return ((eb->flags & EpochBlock_Flags_internal) != 0);
 480:../Middlewares/stedgeai-lib/Npu/ll_aton/ll_aton_NN_interface.h ****   }
 481:../Middlewares/stedgeai-lib/Npu/ll_aton/ll_aton_NN_interface.h **** 
 482:../Middlewares/stedgeai-lib/Npu/ll_aton/ll_aton_NN_interface.h ****   static inline uint32_t EpochBlock_EpochControllerUnit(const LL_ATON_RT_EpochBlockItem_t *eb)
 483:../Middlewares/stedgeai-lib/Npu/ll_aton/ll_aton_NN_interface.h ****   {
 225              		.loc 2 483 3 is_stmt 1 view -0
 226              		.cfi_startproc
 227              		@ args = 0, pretend = 0, frame = 0
 228              		@ frame_needed = 0, uses_anonymous_args = 0
 484:../Middlewares/stedgeai-lib/Npu/ll_aton/ll_aton_NN_interface.h ****     LL_ATON_ASSERT(EpochBlock_IsEpochBlob(eb));
 229              		.loc 2 484 5 view .LVU59
 230              	.LBB97:
 231              	.LBI97:
 452:../Middlewares/stedgeai-lib/Npu/ll_aton/ll_aton_NN_interface.h ****   {
 232              		.loc 2 452 22 view .LVU60
 233              	.LBB98:
 454:../Middlewares/stedgeai-lib/Npu/ll_aton/ll_aton_NN_interface.h ****   }
ARM GAS  /tmp/ccmL1RJj.s 			page 23


 234              		.loc 2 454 5 view .LVU61
 454:../Middlewares/stedgeai-lib/Npu/ll_aton/ll_aton_NN_interface.h ****   }
 235              		.loc 2 454 5 is_stmt 0 view .LVU62
 236              	.LBE98:
 237              	.LBE97:
 483:../Middlewares/stedgeai-lib/Npu/ll_aton/ll_aton_NN_interface.h ****     LL_ATON_ASSERT(EpochBlock_IsEpochBlob(eb));
 238              		.loc 2 483 3 view .LVU63
 239 0000 08B5     		push	{r3, lr}
 240              		.cfi_def_cfa_offset 8
 241              		.cfi_offset 3, -8
 242              		.cfi_offset 14, -4
 243              		.loc 2 484 5 discriminator 1 view .LVU64
 244 0002 038A     		ldrh	r3, [r0, #16]
 245 0004 5B07     		lsls	r3, r3, #29
 246 0006 06D4     		bmi	.L19
 247              	.LBB99:
 248              	.LBI99:
 482:../Middlewares/stedgeai-lib/Npu/ll_aton/ll_aton_NN_interface.h ****   {
 249              		.loc 2 482 26 is_stmt 1 view .LVU65
 250              	.LVL14:
 251              	.LBB100:
 252              		.loc 2 484 5 is_stmt 0 discriminator 1 view .LVU66
 253 0008 4FF4F271 		mov	r1, #484
 254 000c 034B     		ldr	r3, .L20
 255 000e 044A     		ldr	r2, .L20+4
 256 0010 0448     		ldr	r0, .L20+8
 257              	.LVL15:
 258              		.loc 2 484 5 discriminator 1 view .LVU67
 259 0012 FFF7FEFF 		bl	__assert_func
 260              	.LVL16:
 261              	.L19:
 262              		.loc 2 484 5 discriminator 1 view .LVU68
 263              	.LBE100:
 264              	.LBE99:
 485:../Middlewares/stedgeai-lib/Npu/ll_aton/ll_aton_NN_interface.h ****     return eb->wait_mask;
 265              		.loc 2 485 5 is_stmt 1 view .LVU69
 486:../Middlewares/stedgeai-lib/Npu/ll_aton/ll_aton_NN_interface.h ****   }
 266              		.loc 2 486 3 is_stmt 0 view .LVU70
 267 0016 C068     		ldr	r0, [r0, #12]
 268              	.LVL17:
 269              		.loc 2 486 3 view .LVU71
 270 0018 08BD     		pop	{r3, pc}
 271              	.L21:
 272 001a 00BF     		.align	2
 273              	.L20:
 274 001c 00000000 		.word	.LC2
 275 0020 00000000 		.word	__func__.4
 276 0024 1B000000 		.word	.LC3
 277              		.cfi_endproc
 278              	.LFE319:
 280              		.section	.rodata.__ll_clear_aton_owner.str1.1,"aMS",%progbits,1
 281              	.LC4:
 282 0000 63757272 		.ascii	"current_owner == __ll_current_aton_ip_owner\000"
 282      656E745F 
 282      6F776E65 
 282      72203D3D 
 282      205F5F6C 
ARM GAS  /tmp/ccmL1RJj.s 			page 24


 283              	.LC5:
 284 002c 5741524E 		.ascii	"WARNING: performing a hard-reset of debug wait-mask"
 284      494E473A 
 284      20706572 
 284      666F726D 
 284      696E6720 
 285 005f 2100     		.ascii	"!\000"
 286              	.LC6:
 287 0061 5F5F6C6C 		.ascii	"__ll_current_wait_mask == 0\000"
 287      5F637572 
 287      72656E74 
 287      5F776169 
 287      745F6D61 
 288              		.section	.text.__ll_clear_aton_owner,"ax",%progbits
 289              		.align	1
 290              		.syntax unified
 291              		.thumb
 292              		.thumb_func
 294              	__ll_clear_aton_owner:
 295              	.LVL18:
 296              	.LFB340:
  55:../Middlewares/stedgeai-lib/Npu/ll_aton/ll_aton_runtime.h **** #ifndef NDEBUG
 297              		.loc 3 55 3 is_stmt 1 view -0
 298              		.cfi_startproc
 299              		@ args = 0, pretend = 0, frame = 0
 300              		@ frame_needed = 0, uses_anonymous_args = 0
  57:../Middlewares/stedgeai-lib/Npu/ll_aton/ll_aton_runtime.h **** #endif // !NDEBUG
 301              		.loc 3 57 5 view .LVU73
  59:../Middlewares/stedgeai-lib/Npu/ll_aton/ll_aton_runtime.h ****     LL_ATON_ASSERT(current_owner == __ll_current_aton_ip_owner);
 302              		.loc 3 59 5 view .LVU74
  60:../Middlewares/stedgeai-lib/Npu/ll_aton/ll_aton_runtime.h **** 
 303              		.loc 3 60 5 view .LVU75
  55:../Middlewares/stedgeai-lib/Npu/ll_aton/ll_aton_runtime.h **** #ifndef NDEBUG
 304              		.loc 3 55 3 is_stmt 0 view .LVU76
 305 0000 38B5     		push	{r3, r4, r5, lr}
 306              		.cfi_def_cfa_offset 16
 307              		.cfi_offset 3, -16
 308              		.cfi_offset 4, -12
 309              		.cfi_offset 5, -8
 310              		.cfi_offset 14, -4
  60:../Middlewares/stedgeai-lib/Npu/ll_aton/ll_aton_runtime.h **** 
 311              		.loc 3 60 5 view .LVU77
 312 0002 0E4D     		ldr	r5, .L36
 313 0004 2B68     		ldr	r3, [r5]
 314 0006 8342     		cmp	r3, r0
 315 0008 05D0     		beq	.L23
  60:../Middlewares/stedgeai-lib/Npu/ll_aton/ll_aton_runtime.h **** 
 316              		.loc 3 60 5 discriminator 1 view .LVU78
 317 000a 3C21     		movs	r1, #60
 318              	.LVL19:
  60:../Middlewares/stedgeai-lib/Npu/ll_aton/ll_aton_runtime.h **** 
 319              		.loc 3 60 5 discriminator 1 view .LVU79
 320 000c 0C4B     		ldr	r3, .L36+4
 321 000e 0D4A     		ldr	r2, .L36+8
 322              	.L35:
 323              	.LBB103:
 324              	.LBB104:
ARM GAS  /tmp/ccmL1RJj.s 			page 25


  70:../Middlewares/stedgeai-lib/Npu/ll_aton/ll_aton_runtime.h ****     }
 325              		.loc 3 70 7 discriminator 1 view .LVU80
 326 0010 0D48     		ldr	r0, .L36+12
 327              	.LVL20:
  70:../Middlewares/stedgeai-lib/Npu/ll_aton/ll_aton_runtime.h ****     }
 328              		.loc 3 70 7 discriminator 1 view .LVU81
 329 0012 FFF7FEFF 		bl	__assert_func
 330              	.LVL21:
 331              	.L23:
  70:../Middlewares/stedgeai-lib/Npu/ll_aton/ll_aton_runtime.h ****     }
 332              		.loc 3 70 7 discriminator 1 view .LVU82
 333              	.LBE104:
 334              	.LBE103:
  63:../Middlewares/stedgeai-lib/Npu/ll_aton/ll_aton_runtime.h ****     {
 335              		.loc 3 63 5 is_stmt 1 view .LVU83
 336 0016 0D4C     		ldr	r4, .L36+16
  63:../Middlewares/stedgeai-lib/Npu/ll_aton/ll_aton_runtime.h ****     {
 337              		.loc 3 63 8 is_stmt 0 view .LVU84
 338 0018 49B1     		cbz	r1, .L24
  63:../Middlewares/stedgeai-lib/Npu/ll_aton/ll_aton_runtime.h ****     {
 339              		.loc 3 63 47 discriminator 1 view .LVU85
 340 001a 2368     		ldr	r3, [r4]
  63:../Middlewares/stedgeai-lib/Npu/ll_aton/ll_aton_runtime.h ****     {
 341              		.loc 3 63 20 discriminator 1 view .LVU86
 342 001c 3BB1     		cbz	r3, .L24
  65:../Middlewares/stedgeai-lib/Npu/ll_aton/ll_aton_runtime.h ****       __ll_current_wait_mask = 0;
 343              		.loc 3 65 7 is_stmt 1 view .LVU87
 344 001e 0C48     		ldr	r0, .L36+20
 345              	.LVL22:
  65:../Middlewares/stedgeai-lib/Npu/ll_aton/ll_aton_runtime.h ****       __ll_current_wait_mask = 0;
 346              		.loc 3 65 7 is_stmt 0 view .LVU88
 347 0020 FFF7FEFF 		bl	puts
 348              	.LVL23:
  66:../Middlewares/stedgeai-lib/Npu/ll_aton/ll_aton_runtime.h ****     }
 349              		.loc 3 66 7 is_stmt 1 view .LVU89
  66:../Middlewares/stedgeai-lib/Npu/ll_aton/ll_aton_runtime.h ****     }
 350              		.loc 3 66 30 is_stmt 0 view .LVU90
 351 0024 0023     		movs	r3, #0
 352 0026 2360     		str	r3, [r4]
 353              	.L25:
  76:../Middlewares/stedgeai-lib/Npu/ll_aton/ll_aton_runtime.h ****     LL_ATON_OSAL_UNLOCK_ATON();
 354              		.loc 3 76 5 is_stmt 1 view .LVU91
  76:../Middlewares/stedgeai-lib/Npu/ll_aton/ll_aton_runtime.h ****     LL_ATON_OSAL_UNLOCK_ATON();
 355              		.loc 3 76 32 is_stmt 0 view .LVU92
 356 0028 0023     		movs	r3, #0
 357 002a 2B60     		str	r3, [r5]
  77:../Middlewares/stedgeai-lib/Npu/ll_aton/ll_aton_runtime.h ****   }
 358              		.loc 3 77 31 is_stmt 1 view .LVU93
  78:../Middlewares/stedgeai-lib/Npu/ll_aton/ll_aton_runtime.h **** 
 359              		.loc 3 78 3 is_stmt 0 view .LVU94
 360 002c 38BD     		pop	{r3, r4, r5, pc}
 361              	.LVL24:
 362              	.L24:
  70:../Middlewares/stedgeai-lib/Npu/ll_aton/ll_aton_runtime.h ****     }
 363              		.loc 3 70 7 is_stmt 1 view .LVU95
 364 002e 2368     		ldr	r3, [r4]
 365 0030 002B     		cmp	r3, #0
ARM GAS  /tmp/ccmL1RJj.s 			page 26


 366 0032 F9D0     		beq	.L25
 367              	.LBB106:
 368              	.LBI103:
  54:../Middlewares/stedgeai-lib/Npu/ll_aton/ll_aton_runtime.h ****   {
 369              		.loc 3 54 22 view .LVU96
 370              	.LVL25:
 371              	.LBB105:
  70:../Middlewares/stedgeai-lib/Npu/ll_aton/ll_aton_runtime.h ****     }
 372              		.loc 3 70 7 is_stmt 0 discriminator 1 view .LVU97
 373 0034 4621     		movs	r1, #70
 374              	.LVL26:
  70:../Middlewares/stedgeai-lib/Npu/ll_aton/ll_aton_runtime.h ****     }
 375              		.loc 3 70 7 discriminator 1 view .LVU98
 376 0036 074B     		ldr	r3, .L36+24
 377 0038 024A     		ldr	r2, .L36+8
 378 003a E9E7     		b	.L35
 379              	.L37:
 380              		.align	2
 381              	.L36:
 382 003c 00000000 		.word	__ll_current_aton_ip_owner
 383 0040 00000000 		.word	.LC4
 384 0044 00000000 		.word	__func__.11
 385 0048 2A000000 		.word	.LC1
 386 004c 00000000 		.word	__ll_current_wait_mask
 387 0050 2C000000 		.word	.LC5
 388 0054 61000000 		.word	.LC6
 389              	.LBE105:
 390              	.LBE106:
 391              		.cfi_endproc
 392              	.LFE340:
 394              		.section	.text.dump_dma_state,"ax",%progbits
 395              		.align	1
 396              		.weak	dump_dma_state
 397              		.syntax unified
 398              		.thumb
 399              		.thumb_func
 401              	dump_dma_state:
 402              	.LFB349:
  58:../Middlewares/stedgeai-lib/Npu/ll_aton/ll_aton_runtime.c **** 
 403              		.loc 1 58 39 is_stmt 1 view -0
 404              		.cfi_startproc
 405              		@ args = 0, pretend = 0, frame = 0
 406              		@ frame_needed = 0, uses_anonymous_args = 0
 407              		@ link register save eliminated.
  58:../Middlewares/stedgeai-lib/Npu/ll_aton/ll_aton_runtime.c **** 
 408              		.loc 1 58 40 view .LVU100
 409 0000 7047     		bx	lr
 410              		.cfi_endproc
 411              	.LFE349:
 413              		.section	.text.LL_ATON_RT_SetRuntimeCallback,"ax",%progbits
 414              		.align	1
 415              		.global	LL_ATON_RT_SetRuntimeCallback
 416              		.syntax unified
 417              		.thumb
 418              		.thumb_func
 420              	LL_ATON_RT_SetRuntimeCallback:
 421              	.LVL27:
ARM GAS  /tmp/ccmL1RJj.s 			page 27


 422              	.LFB356:
 377:../Middlewares/stedgeai-lib/Npu/ll_aton/ll_aton_runtime.c **** 
 378:../Middlewares/stedgeai-lib/Npu/ll_aton/ll_aton_runtime.c **** /*** User API Functions ***/
 379:../Middlewares/stedgeai-lib/Npu/ll_aton/ll_aton_runtime.c **** 
 380:../Middlewares/stedgeai-lib/Npu/ll_aton/ll_aton_runtime.c **** /**
 381:../Middlewares/stedgeai-lib/Npu/ll_aton/ll_aton_runtime.c ****  * @brief Registers callbacks for ATON runtime related events (e.g. initialization/deinitialization
 382:../Middlewares/stedgeai-lib/Npu/ll_aton/ll_aton_runtime.c ****  * `LL_ATON_RT_Callbacktype_t`)
 383:../Middlewares/stedgeai-lib/Npu/ll_aton/ll_aton_runtime.c ****  * @param rt_callback Function pointer to callback function (set to `NULL` to disable epoch tracing
 384:../Middlewares/stedgeai-lib/Npu/ll_aton/ll_aton_runtime.c ****  *
 385:../Middlewares/stedgeai-lib/Npu/ll_aton/ll_aton_runtime.c ****  * @note  This function must only be called when no network is currently executing!
 386:../Middlewares/stedgeai-lib/Npu/ll_aton/ll_aton_runtime.c ****  */
 387:../Middlewares/stedgeai-lib/Npu/ll_aton/ll_aton_runtime.c **** void LL_ATON_RT_SetRuntimeCallback(TraceRuntime_FuncPtr_t rt_callback)
 388:../Middlewares/stedgeai-lib/Npu/ll_aton/ll_aton_runtime.c **** {
 423              		.loc 1 388 1 view -0
 424              		.cfi_startproc
 425              		@ args = 0, pretend = 0, frame = 0
 426              		@ frame_needed = 0, uses_anonymous_args = 0
 427              		@ link register save eliminated.
 389:../Middlewares/stedgeai-lib/Npu/ll_aton/ll_aton_runtime.c ****   ll_aton_init_deinit_trace = rt_callback;
 428              		.loc 1 389 3 view .LVU102
 429              		.loc 1 389 29 is_stmt 0 view .LVU103
 430 0000 014B     		ldr	r3, .L40
 431 0002 1860     		str	r0, [r3]
 390:../Middlewares/stedgeai-lib/Npu/ll_aton/ll_aton_runtime.c **** }
 432              		.loc 1 390 1 view .LVU104
 433 0004 7047     		bx	lr
 434              	.L41:
 435 0006 00BF     		.align	2
 436              	.L40:
 437 0008 00000000 		.word	ll_aton_init_deinit_trace
 438              		.cfi_endproc
 439              	.LFE356:
 441              		.section	.rodata.LL_ATON_RT_SetEpochCallback.str1.1,"aMS",%progbits,1
 442              	.LC7:
 443 0000 6E6E5F69 		.ascii	"nn_instance != ((void *)0)\000"
 443      6E737461 
 443      6E636520 
 443      213D2028 
 443      28766F69 
 444              	.LC8:
 445 001b 2E2E2F4D 		.ascii	"../Middlewares/stedgeai-lib/Npu/ll_aton/ll_aton_run"
 445      6964646C 
 445      65776172 
 445      65732F73 
 445      74656467 
 446 004e 74696D65 		.ascii	"time.c\000"
 446      2E6300
 447              		.section	.text.LL_ATON_RT_SetEpochCallback,"ax",%progbits
 448              		.align	1
 449              		.global	LL_ATON_RT_SetEpochCallback
 450              		.syntax unified
 451              		.thumb
 452              		.thumb_func
 454              	LL_ATON_RT_SetEpochCallback:
 455              	.LVL28:
 456              	.LFB357:
 391:../Middlewares/stedgeai-lib/Npu/ll_aton/ll_aton_runtime.c **** 
ARM GAS  /tmp/ccmL1RJj.s 			page 28


 392:../Middlewares/stedgeai-lib/Npu/ll_aton/ll_aton_runtime.c **** /**
 393:../Middlewares/stedgeai-lib/Npu/ll_aton/ll_aton_runtime.c ****  * @brief Register callback for tracing epoch/network related events (see `LL_ATON_RT_Callbacktype_
 394:../Middlewares/stedgeai-lib/Npu/ll_aton/ll_aton_runtime.c ****  * @param epoch_block_callback Function pointer to callback function (set to `NULL` to disable epoc
 395:../Middlewares/stedgeai-lib/Npu/ll_aton/ll_aton_runtime.c ****  * @param nn_instance          Pointer to network instance for which to set the callback (may not b
 396:../Middlewares/stedgeai-lib/Npu/ll_aton/ll_aton_runtime.c ****  *
 397:../Middlewares/stedgeai-lib/Npu/ll_aton/ll_aton_runtime.c ****  * @deprecated This function is deprecated and will be removed in a future release.
 398:../Middlewares/stedgeai-lib/Npu/ll_aton/ll_aton_runtime.c ****  *             Use `LL_ATON_RT_SetNetworkCallback()` instead!
 399:../Middlewares/stedgeai-lib/Npu/ll_aton/ll_aton_runtime.c ****  */
 400:../Middlewares/stedgeai-lib/Npu/ll_aton/ll_aton_runtime.c **** void LL_ATON_RT_SetEpochCallback(TraceEpochBlock_FuncPtr_t epoch_block_callback, NN_Instance_TypeDe
 401:../Middlewares/stedgeai-lib/Npu/ll_aton/ll_aton_runtime.c **** {
 457              		.loc 1 401 1 is_stmt 1 view -0
 458              		.cfi_startproc
 459              		@ args = 0, pretend = 0, frame = 0
 460              		@ frame_needed = 0, uses_anonymous_args = 0
 402:../Middlewares/stedgeai-lib/Npu/ll_aton/ll_aton_runtime.c ****   LL_ATON_ASSERT(nn_instance != NULL);
 461              		.loc 1 402 3 view .LVU106
 401:../Middlewares/stedgeai-lib/Npu/ll_aton/ll_aton_runtime.c ****   LL_ATON_ASSERT(nn_instance != NULL);
 462              		.loc 1 401 1 is_stmt 0 view .LVU107
 463 0000 08B5     		push	{r3, lr}
 464              		.cfi_def_cfa_offset 8
 465              		.cfi_offset 3, -8
 466              		.cfi_offset 14, -4
 467              		.loc 1 402 3 view .LVU108
 468 0002 31B9     		cbnz	r1, .L43
 469              		.loc 1 402 3 discriminator 1 view .LVU109
 470 0004 4FF4C971 		mov	r1, #402
 471              	.LVL29:
 472              		.loc 1 402 3 discriminator 1 view .LVU110
 473 0008 034B     		ldr	r3, .L44
 474 000a 044A     		ldr	r2, .L44+4
 475 000c 0448     		ldr	r0, .L44+8
 476              	.LVL30:
 477              		.loc 1 402 3 discriminator 1 view .LVU111
 478 000e FFF7FEFF 		bl	__assert_func
 479              	.LVL31:
 480              	.L43:
 403:../Middlewares/stedgeai-lib/Npu/ll_aton/ll_aton_runtime.c ****   nn_instance->exec_state.epoch_callback_function = epoch_block_callback;
 481              		.loc 1 403 3 is_stmt 1 view .LVU112
 482              		.loc 1 403 51 is_stmt 0 view .LVU113
 483 0012 4862     		str	r0, [r1, #36]
 404:../Middlewares/stedgeai-lib/Npu/ll_aton/ll_aton_runtime.c **** }
 484              		.loc 1 404 1 view .LVU114
 485 0014 08BD     		pop	{r3, pc}
 486              	.L45:
 487 0016 00BF     		.align	2
 488              	.L44:
 489 0018 00000000 		.word	.LC7
 490 001c 00000000 		.word	__func__.14
 491 0020 1B000000 		.word	.LC8
 492              		.cfi_endproc
 493              	.LFE357:
 495              		.section	.text.LL_ATON_RT_SetNetworkCallback,"ax",%progbits
 496              		.align	1
 497              		.global	LL_ATON_RT_SetNetworkCallback
 498              		.syntax unified
 499              		.thumb
 500              		.thumb_func
ARM GAS  /tmp/ccmL1RJj.s 			page 29


 502              	LL_ATON_RT_SetNetworkCallback:
 503              	.LVL32:
 504              	.LFB358:
 405:../Middlewares/stedgeai-lib/Npu/ll_aton/ll_aton_runtime.c **** 
 406:../Middlewares/stedgeai-lib/Npu/ll_aton/ll_aton_runtime.c **** /**
 407:../Middlewares/stedgeai-lib/Npu/ll_aton/ll_aton_runtime.c ****  * @brief Register callback for tracing epoch/network related events (see `LL_ATON_RT_Callbacktype_
 408:../Middlewares/stedgeai-lib/Npu/ll_aton/ll_aton_runtime.c ****  * @param nn_instance          Pointer to network instance for which to set the callback (may not b
 409:../Middlewares/stedgeai-lib/Npu/ll_aton/ll_aton_runtime.c ****  * @param epoch_block_callback Function pointer to callback function (set to `NULL` to disable epoc
 410:../Middlewares/stedgeai-lib/Npu/ll_aton/ll_aton_runtime.c ****  *
 411:../Middlewares/stedgeai-lib/Npu/ll_aton/ll_aton_runtime.c ****  * @note  This function must only be called while the passed network instance is not executing
 412:../Middlewares/stedgeai-lib/Npu/ll_aton/ll_aton_runtime.c ****  *        and should be called before `LL_ATON_RT_Init_Network()`!
 413:../Middlewares/stedgeai-lib/Npu/ll_aton/ll_aton_runtime.c ****  */
 414:../Middlewares/stedgeai-lib/Npu/ll_aton/ll_aton_runtime.c **** void LL_ATON_RT_SetNetworkCallback(NN_Instance_TypeDef *nn_instance, TraceEpochBlock_FuncPtr_t epoc
 415:../Middlewares/stedgeai-lib/Npu/ll_aton/ll_aton_runtime.c **** {
 505              		.loc 1 415 1 is_stmt 1 view -0
 506              		.cfi_startproc
 507              		@ args = 0, pretend = 0, frame = 0
 508              		@ frame_needed = 0, uses_anonymous_args = 0
 416:../Middlewares/stedgeai-lib/Npu/ll_aton/ll_aton_runtime.c ****   LL_ATON_ASSERT(nn_instance != NULL);
 509              		.loc 1 416 3 view .LVU116
 415:../Middlewares/stedgeai-lib/Npu/ll_aton/ll_aton_runtime.c ****   LL_ATON_ASSERT(nn_instance != NULL);
 510              		.loc 1 415 1 is_stmt 0 view .LVU117
 511 0000 08B5     		push	{r3, lr}
 512              		.cfi_def_cfa_offset 8
 513              		.cfi_offset 3, -8
 514              		.cfi_offset 14, -4
 515              		.loc 1 416 3 view .LVU118
 516 0002 30B9     		cbnz	r0, .L47
 517              		.loc 1 416 3 discriminator 1 view .LVU119
 518 0004 4FF4D071 		mov	r1, #416
 519              	.LVL33:
 520              		.loc 1 416 3 discriminator 1 view .LVU120
 521 0008 034B     		ldr	r3, .L48
 522 000a 044A     		ldr	r2, .L48+4
 523 000c 0448     		ldr	r0, .L48+8
 524              	.LVL34:
 525              		.loc 1 416 3 discriminator 1 view .LVU121
 526 000e FFF7FEFF 		bl	__assert_func
 527              	.LVL35:
 528              	.L47:
 417:../Middlewares/stedgeai-lib/Npu/ll_aton/ll_aton_runtime.c ****   nn_instance->exec_state.epoch_callback_function = epoch_block_callback;
 529              		.loc 1 417 3 is_stmt 1 view .LVU122
 530              		.loc 1 417 51 is_stmt 0 view .LVU123
 531 0012 4162     		str	r1, [r0, #36]
 418:../Middlewares/stedgeai-lib/Npu/ll_aton/ll_aton_runtime.c **** }
 532              		.loc 1 418 1 view .LVU124
 533 0014 08BD     		pop	{r3, pc}
 534              	.L49:
 535 0016 00BF     		.align	2
 536              	.L48:
 537 0018 00000000 		.word	.LC7
 538 001c 00000000 		.word	__func__.13
 539 0020 1B000000 		.word	.LC8
 540              		.cfi_endproc
 541              	.LFE358:
 543              		.section	.rodata.LL_ATON_RT_Init_Network.str1.1,"aMS",%progbits,1
 544              	.LC9:
ARM GAS  /tmp/ccmL1RJj.s 			page 30


 545 0000 6E6E5F69 		.ascii	"nn_instance->network->ec_network_init != ((void *)0"
 545      6E737461 
 545      6E63652D 
 545      3E6E6574 
 545      776F726B 
 546 0033 2900     		.ascii	")\000"
 547              	.LC10:
 548 0035 72657420 		.ascii	"ret == 1\000"
 548      3D3D2031 
 548      00
 549              		.section	.text.LL_ATON_RT_Init_Network,"ax",%progbits
 550              		.align	1
 551              		.global	LL_ATON_RT_Init_Network
 552              		.syntax unified
 553              		.thumb
 554              		.thumb_func
 556              	LL_ATON_RT_Init_Network:
 557              	.LVL36:
 558              	.LFB359:
 419:../Middlewares/stedgeai-lib/Npu/ll_aton/ll_aton_runtime.c **** 
 420:../Middlewares/stedgeai-lib/Npu/ll_aton/ll_aton_runtime.c **** /**
 421:../Middlewares/stedgeai-lib/Npu/ll_aton/ll_aton_runtime.c ****  * @brief Initialize a network instance
 422:../Middlewares/stedgeai-lib/Npu/ll_aton/ll_aton_runtime.c ****  * @param nn_instance Pointer to network instance to initialize
 423:../Middlewares/stedgeai-lib/Npu/ll_aton/ll_aton_runtime.c ****  */
 424:../Middlewares/stedgeai-lib/Npu/ll_aton/ll_aton_runtime.c **** void LL_ATON_RT_Init_Network(NN_Instance_TypeDef *nn_instance)
 425:../Middlewares/stedgeai-lib/Npu/ll_aton/ll_aton_runtime.c **** {
 559              		.loc 1 425 1 is_stmt 1 view -0
 560              		.cfi_startproc
 561              		@ args = 0, pretend = 0, frame = 0
 562              		@ frame_needed = 0, uses_anonymous_args = 0
 426:../Middlewares/stedgeai-lib/Npu/ll_aton/ll_aton_runtime.c ****   /** Exit if `nn_instance` is equal to NULL **/
 427:../Middlewares/stedgeai-lib/Npu/ll_aton/ll_aton_runtime.c ****   if (nn_instance == NULL)
 563              		.loc 1 427 3 view .LVU126
 425:../Middlewares/stedgeai-lib/Npu/ll_aton/ll_aton_runtime.c ****   /** Exit if `nn_instance` is equal to NULL **/
 564              		.loc 1 425 1 is_stmt 0 view .LVU127
 565 0000 10B5     		push	{r4, lr}
 566              		.cfi_def_cfa_offset 8
 567              		.cfi_offset 4, -8
 568              		.cfi_offset 14, -4
 569              		.loc 1 427 6 view .LVU128
 570 0002 0446     		mov	r4, r0
 571 0004 B0B1     		cbz	r0, .L50
 428:../Middlewares/stedgeai-lib/Npu/ll_aton/ll_aton_runtime.c ****   {
 429:../Middlewares/stedgeai-lib/Npu/ll_aton/ll_aton_runtime.c ****     return;
 430:../Middlewares/stedgeai-lib/Npu/ll_aton/ll_aton_runtime.c ****   }
 431:../Middlewares/stedgeai-lib/Npu/ll_aton/ll_aton_runtime.c **** 
 432:../Middlewares/stedgeai-lib/Npu/ll_aton/ll_aton_runtime.c ****   /** Exit if `nn_instance->network` is equal to NULL **/
 433:../Middlewares/stedgeai-lib/Npu/ll_aton/ll_aton_runtime.c ****   if (nn_instance->network == NULL)
 572              		.loc 1 433 3 is_stmt 1 view .LVU129
 573              		.loc 1 433 18 is_stmt 0 view .LVU130
 574 0006 0368     		ldr	r3, [r0]
 575              		.loc 1 433 6 view .LVU131
 576 0008 A3B1     		cbz	r3, .L50
 434:../Middlewares/stedgeai-lib/Npu/ll_aton/ll_aton_runtime.c ****   {
 435:../Middlewares/stedgeai-lib/Npu/ll_aton/ll_aton_runtime.c ****     return;
 436:../Middlewares/stedgeai-lib/Npu/ll_aton/ll_aton_runtime.c ****   }
 437:../Middlewares/stedgeai-lib/Npu/ll_aton/ll_aton_runtime.c **** 
ARM GAS  /tmp/ccmL1RJj.s 			page 31


 438:../Middlewares/stedgeai-lib/Npu/ll_aton/ll_aton_runtime.c ****   /* Care about epoch controller blobs relocation */
 439:../Middlewares/stedgeai-lib/Npu/ll_aton/ll_aton_runtime.c **** #if defined(LL_ATON_RT_RELOC)
 440:../Middlewares/stedgeai-lib/Npu/ll_aton/ll_aton_runtime.c ****   bool ret = false;
 441:../Middlewares/stedgeai-lib/Npu/ll_aton/ll_aton_runtime.c ****   if (nn_instance->exec_state.inst_reloc != 0)
 442:../Middlewares/stedgeai-lib/Npu/ll_aton/ll_aton_runtime.c ****   {
 443:../Middlewares/stedgeai-lib/Npu/ll_aton/ll_aton_runtime.c ****     ret = ai_rel_network_ec_network_init(nn_instance->exec_state.inst_reloc);
 444:../Middlewares/stedgeai-lib/Npu/ll_aton/ll_aton_runtime.c ****   }
 445:../Middlewares/stedgeai-lib/Npu/ll_aton/ll_aton_runtime.c ****   else
 446:../Middlewares/stedgeai-lib/Npu/ll_aton/ll_aton_runtime.c ****   {
 447:../Middlewares/stedgeai-lib/Npu/ll_aton/ll_aton_runtime.c ****     LL_ATON_ASSERT(nn_instance->network->ec_network_init != NULL);
 448:../Middlewares/stedgeai-lib/Npu/ll_aton/ll_aton_runtime.c ****     ret = nn_instance->network->ec_network_init();
 449:../Middlewares/stedgeai-lib/Npu/ll_aton/ll_aton_runtime.c ****   }
 450:../Middlewares/stedgeai-lib/Npu/ll_aton/ll_aton_runtime.c **** #else
 451:../Middlewares/stedgeai-lib/Npu/ll_aton/ll_aton_runtime.c ****   LL_ATON_ASSERT(nn_instance->network->ec_network_init != NULL);
 577              		.loc 1 451 3 is_stmt 1 view .LVU132
 578 000a 5B68     		ldr	r3, [r3, #4]
 579 000c 33B9     		cbnz	r3, .L52
 580              		.loc 1 451 3 is_stmt 0 discriminator 1 view .LVU133
 581 000e 40F2C311 		movw	r1, #451
 582 0012 094B     		ldr	r3, .L61
 583 0014 094A     		ldr	r2, .L61+4
 584              	.LVL37:
 585              	.L60:
 452:../Middlewares/stedgeai-lib/Npu/ll_aton/ll_aton_runtime.c ****   bool ret = nn_instance->network->ec_network_init();
 453:../Middlewares/stedgeai-lib/Npu/ll_aton/ll_aton_runtime.c **** #endif
 454:../Middlewares/stedgeai-lib/Npu/ll_aton/ll_aton_runtime.c ****   LL_ATON_ASSERT(ret == true);
 586              		.loc 1 454 3 discriminator 1 view .LVU134
 587 0016 0A48     		ldr	r0, .L61+8
 588 0018 FFF7FEFF 		bl	__assert_func
 589              	.LVL38:
 590              	.L52:
 452:../Middlewares/stedgeai-lib/Npu/ll_aton/ll_aton_runtime.c ****   bool ret = nn_instance->network->ec_network_init();
 591              		.loc 1 452 3 is_stmt 1 view .LVU135
 452:../Middlewares/stedgeai-lib/Npu/ll_aton/ll_aton_runtime.c ****   bool ret = nn_instance->network->ec_network_init();
 592              		.loc 1 452 14 is_stmt 0 view .LVU136
 593 001c 9847     		blx	r3
 594              	.LVL39:
 595              		.loc 1 454 3 is_stmt 1 view .LVU137
 596 001e 20B9     		cbnz	r0, .L53
 597              		.loc 1 454 3 is_stmt 0 discriminator 1 view .LVU138
 598 0020 4FF4E371 		mov	r1, #454
 599 0024 074B     		ldr	r3, .L61+12
 600 0026 054A     		ldr	r2, .L61+4
 601 0028 F5E7     		b	.L60
 602              	.L53:
 455:../Middlewares/stedgeai-lib/Npu/ll_aton/ll_aton_runtime.c ****   LL_ATON_LIB_UNUSED(ret);
 603              		.loc 1 455 3 is_stmt 1 view .LVU139
 456:../Middlewares/stedgeai-lib/Npu/ll_aton/ll_aton_runtime.c **** 
 457:../Middlewares/stedgeai-lib/Npu/ll_aton/ll_aton_runtime.c ****   /* Call actual network instance initialization */
 458:../Middlewares/stedgeai-lib/Npu/ll_aton/ll_aton_runtime.c ****   __LL_ATON_RT_Init_Network(nn_instance);
 604              		.loc 1 458 3 view .LVU140
 605 002a 2046     		mov	r0, r4
 606              	.LVL40:
 459:../Middlewares/stedgeai-lib/Npu/ll_aton/ll_aton_runtime.c **** }
 607              		.loc 1 459 1 is_stmt 0 view .LVU141
 608 002c BDE81040 		pop	{r4, lr}
 609              		.cfi_remember_state
ARM GAS  /tmp/ccmL1RJj.s 			page 32


 610              		.cfi_restore 14
 611              		.cfi_restore 4
 612              		.cfi_def_cfa_offset 0
 613              	.LVL41:
 458:../Middlewares/stedgeai-lib/Npu/ll_aton/ll_aton_runtime.c **** }
 614              		.loc 1 458 3 view .LVU142
 615 0030 FFF7FEBF 		b	__LL_ATON_RT_Init_Network
 616              	.LVL42:
 617              	.L50:
 618              		.cfi_restore_state
 619              		.loc 1 459 1 view .LVU143
 620 0034 10BD     		pop	{r4, pc}
 621              	.L62:
 622 0036 00BF     		.align	2
 623              	.L61:
 624 0038 00000000 		.word	.LC9
 625 003c 00000000 		.word	__func__.12
 626 0040 1B000000 		.word	.LC8
 627 0044 35000000 		.word	.LC10
 628              		.cfi_endproc
 629              	.LFE359:
 631              		.section	.text.LL_ATON_RT_DeInit_Network,"ax",%progbits
 632              		.align	1
 633              		.global	LL_ATON_RT_DeInit_Network
 634              		.syntax unified
 635              		.thumb
 636              		.thumb_func
 638              	LL_ATON_RT_DeInit_Network:
 639              	.LVL43:
 640              	.LFB360:
 460:../Middlewares/stedgeai-lib/Npu/ll_aton/ll_aton_runtime.c **** 
 461:../Middlewares/stedgeai-lib/Npu/ll_aton/ll_aton_runtime.c **** /**
 462:../Middlewares/stedgeai-lib/Npu/ll_aton/ll_aton_runtime.c ****  * @brief De-initialize a network instance
 463:../Middlewares/stedgeai-lib/Npu/ll_aton/ll_aton_runtime.c ****  * @param nn_instance Pointer to network instance to de-initialize
 464:../Middlewares/stedgeai-lib/Npu/ll_aton/ll_aton_runtime.c ****  */
 465:../Middlewares/stedgeai-lib/Npu/ll_aton/ll_aton_runtime.c **** void LL_ATON_RT_DeInit_Network(NN_Instance_TypeDef *nn_instance)
 466:../Middlewares/stedgeai-lib/Npu/ll_aton/ll_aton_runtime.c **** {
 641              		.loc 1 466 1 is_stmt 1 view -0
 642              		.cfi_startproc
 643              		@ args = 0, pretend = 0, frame = 0
 644              		@ frame_needed = 0, uses_anonymous_args = 0
 467:../Middlewares/stedgeai-lib/Npu/ll_aton/ll_aton_runtime.c ****   /** Exit if `nn_instance` is equal to NULL **/
 468:../Middlewares/stedgeai-lib/Npu/ll_aton/ll_aton_runtime.c ****   if (nn_instance == NULL)
 645              		.loc 1 468 3 view .LVU145
 466:../Middlewares/stedgeai-lib/Npu/ll_aton/ll_aton_runtime.c ****   /** Exit if `nn_instance` is equal to NULL **/
 646              		.loc 1 466 1 is_stmt 0 view .LVU146
 647 0000 10B5     		push	{r4, lr}
 648              		.cfi_def_cfa_offset 8
 649              		.cfi_offset 4, -8
 650              		.cfi_offset 14, -4
 651              		.loc 1 468 6 view .LVU147
 652 0002 0446     		mov	r4, r0
 653 0004 A8B1     		cbz	r0, .L63
 469:../Middlewares/stedgeai-lib/Npu/ll_aton/ll_aton_runtime.c ****   {
 470:../Middlewares/stedgeai-lib/Npu/ll_aton/ll_aton_runtime.c ****     return;
 471:../Middlewares/stedgeai-lib/Npu/ll_aton/ll_aton_runtime.c ****   }
 472:../Middlewares/stedgeai-lib/Npu/ll_aton/ll_aton_runtime.c **** 
ARM GAS  /tmp/ccmL1RJj.s 			page 33


 473:../Middlewares/stedgeai-lib/Npu/ll_aton/ll_aton_runtime.c ****   /** Call epoch callback with callback type `LL_ATON_RT_Callbacktype_NN_DeInit` and network instan
 474:../Middlewares/stedgeai-lib/Npu/ll_aton/ll_aton_runtime.c ****   if (nn_instance->exec_state.epoch_callback_function != NULL)
 654              		.loc 1 474 3 is_stmt 1 view .LVU148
 655              		.loc 1 474 30 is_stmt 0 view .LVU149
 656 0006 436A     		ldr	r3, [r0, #36]
 657              		.loc 1 474 6 view .LVU150
 658 0008 1BB1     		cbz	r3, .L65
 475:../Middlewares/stedgeai-lib/Npu/ll_aton/ll_aton_runtime.c ****   {
 476:../Middlewares/stedgeai-lib/Npu/ll_aton/ll_aton_runtime.c ****     nn_instance->exec_state.epoch_callback_function(LL_ATON_RT_Callbacktype_NN_DeInit, nn_instance,
 659              		.loc 1 476 5 is_stmt 1 view .LVU151
 660 000a 0146     		mov	r1, r0
 661 000c 0022     		movs	r2, #0
 662 000e 0520     		movs	r0, #5
 663              	.LVL44:
 664              		.loc 1 476 5 is_stmt 0 view .LVU152
 665 0010 9847     		blx	r3
 666              	.LVL45:
 667              	.L65:
 477:../Middlewares/stedgeai-lib/Npu/ll_aton/ll_aton_runtime.c ****   }
 478:../Middlewares/stedgeai-lib/Npu/ll_aton/ll_aton_runtime.c **** 
 479:../Middlewares/stedgeai-lib/Npu/ll_aton/ll_aton_runtime.c ****   /** Re-set ATON IP owner */
 480:../Middlewares/stedgeai-lib/Npu/ll_aton/ll_aton_runtime.c ****   if (nn_instance == __ll_current_aton_ip_owner)
 668              		.loc 1 480 3 is_stmt 1 view .LVU153
 669              		.loc 1 480 19 is_stmt 0 view .LVU154
 670 0012 084B     		ldr	r3, .L73
 671 0014 1B68     		ldr	r3, [r3]
 672              		.loc 1 480 6 view .LVU155
 673 0016 A342     		cmp	r3, r4
 674 0018 03D1     		bne	.L66
 481:../Middlewares/stedgeai-lib/Npu/ll_aton/ll_aton_runtime.c ****   { // In case this function gets called while an ATON lib internal EpochBlock (used to implement h
 482:../Middlewares/stedgeai-lib/Npu/ll_aton/ll_aton_runtime.c ****     // under execution we might still be owner of the ATON IP
 483:../Middlewares/stedgeai-lib/Npu/ll_aton/ll_aton_runtime.c ****     __ll_clear_aton_owner(nn_instance, true); // `true` means "allow for hard de-initialization of 
 675              		.loc 1 483 5 is_stmt 1 view .LVU156
 676 001a 0121     		movs	r1, #1
 677 001c 2046     		mov	r0, r4
 678 001e FFF7FEFF 		bl	__ll_clear_aton_owner
 679              	.LVL46:
 680              	.L66:
 484:../Middlewares/stedgeai-lib/Npu/ll_aton/ll_aton_runtime.c ****   }
 485:../Middlewares/stedgeai-lib/Npu/ll_aton/ll_aton_runtime.c **** 
 486:../Middlewares/stedgeai-lib/Npu/ll_aton/ll_aton_runtime.c ****   /** De-initialize static variables **/
 487:../Middlewares/stedgeai-lib/Npu/ll_aton/ll_aton_runtime.c ****   /* re-set context */
 488:../Middlewares/stedgeai-lib/Npu/ll_aton/ll_aton_runtime.c ****   const LL_ATON_RT_EpochBlockItem_t *eb_list = NULL;
 681              		.loc 1 488 3 view .LVU157
 489:../Middlewares/stedgeai-lib/Npu/ll_aton/ll_aton_runtime.c ****   nn_instance->exec_state.current_epoch_block = eb_list;
 682              		.loc 1 489 3 view .LVU158
 683              		.loc 1 489 47 is_stmt 0 view .LVU159
 684 0022 0023     		movs	r3, #0
 685 0024 6360     		str	r3, [r4, #4]
 490:../Middlewares/stedgeai-lib/Npu/ll_aton/ll_aton_runtime.c ****   nn_instance->exec_state.first_epoch_block = eb_list;
 686              		.loc 1 490 3 is_stmt 1 view .LVU160
 687              		.loc 1 490 45 is_stmt 0 view .LVU161
 688 0026 A360     		str	r3, [r4, #8]
 491:../Middlewares/stedgeai-lib/Npu/ll_aton/ll_aton_runtime.c ****   nn_instance->exec_state.next_epoch_block = NULL;
 689              		.loc 1 491 3 is_stmt 1 view .LVU162
 690              		.loc 1 491 44 is_stmt 0 view .LVU163
 691 0028 E360     		str	r3, [r4, #12]
ARM GAS  /tmp/ccmL1RJj.s 			page 34


 492:../Middlewares/stedgeai-lib/Npu/ll_aton/ll_aton_runtime.c **** 
 493:../Middlewares/stedgeai-lib/Npu/ll_aton/ll_aton_runtime.c ****   /* re-set saved context */
 494:../Middlewares/stedgeai-lib/Npu/ll_aton/ll_aton_runtime.c ****   nn_instance->exec_state.saved_current_epoch_block = NULL;
 692              		.loc 1 494 3 is_stmt 1 view .LVU164
 693              		.loc 1 494 53 is_stmt 0 view .LVU165
 694 002a 2361     		str	r3, [r4, #16]
 495:../Middlewares/stedgeai-lib/Npu/ll_aton/ll_aton_runtime.c ****   nn_instance->exec_state.saved_first_epoch_block = NULL;
 695              		.loc 1 495 3 is_stmt 1 view .LVU166
 696              		.loc 1 495 51 is_stmt 0 view .LVU167
 697 002c 6361     		str	r3, [r4, #20]
 496:../Middlewares/stedgeai-lib/Npu/ll_aton/ll_aton_runtime.c **** #ifndef NDEBUG
 497:../Middlewares/stedgeai-lib/Npu/ll_aton/ll_aton_runtime.c ****   nn_instance->exec_state.nr_of_epoch_blocks = 0;
 698              		.loc 1 497 3 is_stmt 1 view .LVU168
 699              		.loc 1 497 46 is_stmt 0 view .LVU169
 700 002e E361     		str	r3, [r4, #28]
 498:../Middlewares/stedgeai-lib/Npu/ll_aton/ll_aton_runtime.c ****   nn_instance->exec_state.saved_nr_of_epoch_blocks = 0;
 701              		.loc 1 498 3 is_stmt 1 view .LVU170
 702              		.loc 1 498 52 is_stmt 0 view .LVU171
 703 0030 2362     		str	r3, [r4, #32]
 704              	.LVL47:
 705              	.L63:
 499:../Middlewares/stedgeai-lib/Npu/ll_aton/ll_aton_runtime.c **** #endif
 500:../Middlewares/stedgeai-lib/Npu/ll_aton/ll_aton_runtime.c **** 
 501:../Middlewares/stedgeai-lib/Npu/ll_aton/ll_aton_runtime.c ****   /* intentional do not re-set information about running inference `nn_instance->exec_state.inferen
 502:../Middlewares/stedgeai-lib/Npu/ll_aton/ll_aton_runtime.c **** 
 503:../Middlewares/stedgeai-lib/Npu/ll_aton/ll_aton_runtime.c ****   /* re-set asynchronous status variables */
 504:../Middlewares/stedgeai-lib/Npu/ll_aton/ll_aton_runtime.c **** #if (LL_ATON_RT_MODE == LL_ATON_RT_ASYNC)
 505:../Middlewares/stedgeai-lib/Npu/ll_aton/ll_aton_runtime.c ****   nn_instance->exec_state.triggered_events = 0x0;
 506:../Middlewares/stedgeai-lib/Npu/ll_aton/ll_aton_runtime.c ****   nn_instance->exec_state.current_epoch_block_started = false;
 507:../Middlewares/stedgeai-lib/Npu/ll_aton/ll_aton_runtime.c **** #endif // (LL_ATON_RT_MODE == LL_ATON_RT_ASYNC)
 508:../Middlewares/stedgeai-lib/Npu/ll_aton/ll_aton_runtime.c **** }
 706              		.loc 1 508 1 view .LVU172
 707 0032 10BD     		pop	{r4, pc}
 708              	.LVL48:
 709              	.L74:
 710              		.loc 1 508 1 view .LVU173
 711              		.align	2
 712              	.L73:
 713 0034 00000000 		.word	__ll_current_aton_ip_owner
 714              		.cfi_endproc
 715              	.LFE360:
 717              		.section	.text.LL_ATON_RT_Reset_Network,"ax",%progbits
 718              		.align	1
 719              		.global	LL_ATON_RT_Reset_Network
 720              		.syntax unified
 721              		.thumb
 722              		.thumb_func
 724              	LL_ATON_RT_Reset_Network:
 725              	.LVL49:
 726              	.LFB361:
 509:../Middlewares/stedgeai-lib/Npu/ll_aton/ll_aton_runtime.c **** 
 510:../Middlewares/stedgeai-lib/Npu/ll_aton/ll_aton_runtime.c **** /**
 511:../Middlewares/stedgeai-lib/Npu/ll_aton/ll_aton_runtime.c ****  * @brief Reset network instance for getting ready for a new inference
 512:../Middlewares/stedgeai-lib/Npu/ll_aton/ll_aton_runtime.c ****  * @param nn_instance Pointer to network instance to initialize
 513:../Middlewares/stedgeai-lib/Npu/ll_aton/ll_aton_runtime.c ****  */
 514:../Middlewares/stedgeai-lib/Npu/ll_aton/ll_aton_runtime.c **** void LL_ATON_RT_Reset_Network(NN_Instance_TypeDef *nn_instance)
 515:../Middlewares/stedgeai-lib/Npu/ll_aton/ll_aton_runtime.c **** {
ARM GAS  /tmp/ccmL1RJj.s 			page 35


 727              		.loc 1 515 1 is_stmt 1 view -0
 728              		.cfi_startproc
 729              		@ args = 0, pretend = 0, frame = 0
 730              		@ frame_needed = 0, uses_anonymous_args = 0
 516:../Middlewares/stedgeai-lib/Npu/ll_aton/ll_aton_runtime.c ****   LL_ATON_RT_DeInit_Network(nn_instance);
 731              		.loc 1 516 3 view .LVU175
 515:../Middlewares/stedgeai-lib/Npu/ll_aton/ll_aton_runtime.c ****   LL_ATON_RT_DeInit_Network(nn_instance);
 732              		.loc 1 515 1 is_stmt 0 view .LVU176
 733 0000 10B5     		push	{r4, lr}
 734              		.cfi_def_cfa_offset 8
 735              		.cfi_offset 4, -8
 736              		.cfi_offset 14, -4
 515:../Middlewares/stedgeai-lib/Npu/ll_aton/ll_aton_runtime.c ****   LL_ATON_RT_DeInit_Network(nn_instance);
 737              		.loc 1 515 1 view .LVU177
 738 0002 0446     		mov	r4, r0
 739              		.loc 1 516 3 view .LVU178
 740 0004 FFF7FEFF 		bl	LL_ATON_RT_DeInit_Network
 741              	.LVL50:
 517:../Middlewares/stedgeai-lib/Npu/ll_aton/ll_aton_runtime.c ****   __LL_ATON_RT_Init_Network(nn_instance);
 742              		.loc 1 517 3 is_stmt 1 view .LVU179
 743 0008 2046     		mov	r0, r4
 518:../Middlewares/stedgeai-lib/Npu/ll_aton/ll_aton_runtime.c **** }
 744              		.loc 1 518 1 is_stmt 0 view .LVU180
 745 000a BDE81040 		pop	{r4, lr}
 746              		.cfi_restore 14
 747              		.cfi_restore 4
 748              		.cfi_def_cfa_offset 0
 749              	.LVL51:
 517:../Middlewares/stedgeai-lib/Npu/ll_aton/ll_aton_runtime.c ****   __LL_ATON_RT_Init_Network(nn_instance);
 750              		.loc 1 517 3 view .LVU181
 751 000e FFF7FEBF 		b	__LL_ATON_RT_Init_Network
 752              	.LVL52:
 517:../Middlewares/stedgeai-lib/Npu/ll_aton/ll_aton_runtime.c ****   __LL_ATON_RT_Init_Network(nn_instance);
 753              		.loc 1 517 3 view .LVU182
 754              		.cfi_endproc
 755              	.LFE361:
 757              		.section	.text.LL_ATON_RT_RuntimeInit,"ax",%progbits
 758              		.align	1
 759              		.global	LL_ATON_RT_RuntimeInit
 760              		.syntax unified
 761              		.thumb
 762              		.thumb_func
 764              	LL_ATON_RT_RuntimeInit:
 765              	.LFB362:
 519:../Middlewares/stedgeai-lib/Npu/ll_aton/ll_aton_runtime.c **** 
 520:../Middlewares/stedgeai-lib/Npu/ll_aton/ll_aton_runtime.c **** /**
 521:../Middlewares/stedgeai-lib/Npu/ll_aton/ll_aton_runtime.c ****  * @brief Initialize the ATON runtime
 522:../Middlewares/stedgeai-lib/Npu/ll_aton/ll_aton_runtime.c ****  */
 523:../Middlewares/stedgeai-lib/Npu/ll_aton/ll_aton_runtime.c **** void LL_ATON_RT_RuntimeInit(void)
 524:../Middlewares/stedgeai-lib/Npu/ll_aton/ll_aton_runtime.c **** {
 766              		.loc 1 524 1 is_stmt 1 view -0
 767              		.cfi_startproc
 768              		@ args = 0, pretend = 0, frame = 0
 769              		@ frame_needed = 0, uses_anonymous_args = 0
 525:../Middlewares/stedgeai-lib/Npu/ll_aton/ll_aton_runtime.c ****   /** Initialize ATON IPs **/
 526:../Middlewares/stedgeai-lib/Npu/ll_aton/ll_aton_runtime.c ****   LL_ATON_Init();
 770              		.loc 1 526 3 view .LVU184
ARM GAS  /tmp/ccmL1RJj.s 			page 36


 524:../Middlewares/stedgeai-lib/Npu/ll_aton/ll_aton_runtime.c ****   /** Initialize ATON IPs **/
 771              		.loc 1 524 1 is_stmt 0 view .LVU185
 772 0000 10B5     		push	{r4, lr}
 773              		.cfi_def_cfa_offset 8
 774              		.cfi_offset 4, -8
 775              		.cfi_offset 14, -4
 776              		.loc 1 526 3 view .LVU186
 777 0002 FFF7FEFF 		bl	LL_ATON_Init
 778              	.LVL53:
 779              	.LBB143:
 527:../Middlewares/stedgeai-lib/Npu/ll_aton/ll_aton_runtime.c **** 
 528:../Middlewares/stedgeai-lib/Npu/ll_aton/ll_aton_runtime.c ****   /** Initialize IRQ Context **/
 529:../Middlewares/stedgeai-lib/Npu/ll_aton/ll_aton_runtime.c ****   {
 530:../Middlewares/stedgeai-lib/Npu/ll_aton/ll_aton_runtime.c ****     uint32_t t;
 780              		.loc 1 530 5 is_stmt 1 view .LVU187
 531:../Middlewares/stedgeai-lib/Npu/ll_aton/ll_aton_runtime.c **** 
 532:../Middlewares/stedgeai-lib/Npu/ll_aton/ll_aton_runtime.c ****     /* Disable & Clear interrupt controller */
 533:../Middlewares/stedgeai-lib/Npu/ll_aton/ll_aton_runtime.c ****     ATON_DISABLE_CLR_CONFCLR(INTCTRL, 0);
 781              		.loc 1 533 5 view .LVU188
 782              		.loc 1 533 5 view .LVU189
 783              		.loc 1 533 5 view .LVU190
 784              		.loc 1 533 5 view .LVU191
 785              		.loc 1 533 5 view .LVU192
 786              		.loc 1 533 5 view .LVU193
 787              		.loc 1 533 5 view .LVU194
 788 0006 0222     		movs	r2, #2
 789 0008 204B     		ldr	r3, .L82
 790 000a 1A60     		str	r2, [r3]
 791              		.loc 1 533 5 view .LVU195
 792              		.loc 1 533 5 view .LVU196
 793              		.loc 1 533 5 view .LVU197
 794              		.loc 1 533 5 view .LVU198
 795              	.L77:
 796              		.loc 1 533 5 discriminator 2 view .LVU199
 797              		.loc 1 533 5 discriminator 2 view .LVU200
 798 000c 1A68     		ldr	r2, [r3]
 799 000e 9107     		lsls	r1, r2, #30
 800 0010 FCD4     		bmi	.L77
 801              		.loc 1 533 5 discriminator 3 view .LVU201
 802              		.loc 1 533 5 discriminator 3 view .LVU202
 803              	.LVL54:
 804              		.loc 1 533 5 view .LVU203
 805              		.loc 1 533 5 view .LVU204
 806              		.loc 1 533 5 view .LVU205
 807              		.loc 1 533 5 view .LVU206
 808              		.loc 1 533 5 is_stmt 0 discriminator 3 view .LVU207
 809 0012 4FF08042 		mov	r2, #1073741824
 810 0016 1A60     		str	r2, [r3]
 811              		.loc 1 533 5 is_stmt 1 view .LVU208
 812              		.loc 1 533 5 view .LVU209
 813              		.loc 1 533 5 view .LVU210
 814              		.loc 1 533 5 view .LVU211
 815              	.L78:
 816              		.loc 1 533 5 discriminator 5 view .LVU212
 817              		.loc 1 533 5 discriminator 5 view .LVU213
 818 0018 1A68     		ldr	r2, [r3]
 819 001a 5200     		lsls	r2, r2, #1
ARM GAS  /tmp/ccmL1RJj.s 			page 37


 820 001c FCD4     		bmi	.L78
 821              		.loc 1 533 5 view .LVU214
 822              		.loc 1 533 5 view .LVU215
 534:../Middlewares/stedgeai-lib/Npu/ll_aton/ll_aton_runtime.c **** 
 535:../Middlewares/stedgeai-lib/Npu/ll_aton/ll_aton_runtime.c ****     /* Preset Interrupt Controller masks */
 536:../Middlewares/stedgeai-lib/Npu/ll_aton/ll_aton_runtime.c ****     ATON_INTCTRL_STD_INTORMSK_SET(ATON_STRENG_INT_MASK(
 823              		.loc 1 536 5 view .LVU216
 824              		.loc 1 536 5 view .LVU217
 825              		.loc 1 536 5 view .LVU218
 826 001e 40F2FF32 		movw	r2, #1023
 827 0022 5A61     		str	r2, [r3, #20]
 828              		.loc 1 536 5 view .LVU219
 829              		.loc 1 536 5 view .LVU220
 537:../Middlewares/stedgeai-lib/Npu/ll_aton/ll_aton_runtime.c ****         ATON_STRENG_NUM, 0, 0)); // OR-mask: disable all streaming engine events and enable all oth
 538:../Middlewares/stedgeai-lib/Npu/ll_aton/ll_aton_runtime.c ****     ATON_INTCTRL_STD_INTANDMSK_SET(0xFFFFFFFF); // AND-mask: disable all events & errors
 830              		.loc 1 538 5 view .LVU221
 831              		.loc 1 538 5 view .LVU222
 832              		.loc 1 538 5 view .LVU223
 833 0024 4FF0FF32 		mov	r2, #-1
 834 0028 5A62     		str	r2, [r3, #36]
 835              		.loc 1 538 5 view .LVU224
 836              		.loc 1 538 5 view .LVU225
 539:../Middlewares/stedgeai-lib/Npu/ll_aton/ll_aton_runtime.c **** 
 540:../Middlewares/stedgeai-lib/Npu/ll_aton/ll_aton_runtime.c **** #if (ATON_INTCTRL_INTS(0) > 32)
 541:../Middlewares/stedgeai-lib/Npu/ll_aton/ll_aton_runtime.c ****     ATON_INTCTRL_STD_INTORMSK_H_SET(0);           // OR-mask: enable all events & errors
 542:../Middlewares/stedgeai-lib/Npu/ll_aton/ll_aton_runtime.c ****     ATON_INTCTRL_STD_INTANDMSK_H_SET(0xFFFFFFFF); // AND-mask: disable all events & errors
 543:../Middlewares/stedgeai-lib/Npu/ll_aton/ll_aton_runtime.c **** #endif
 544:../Middlewares/stedgeai-lib/Npu/ll_aton/ll_aton_runtime.c **** 
 545:../Middlewares/stedgeai-lib/Npu/ll_aton/ll_aton_runtime.c ****     /* Enable Interrupt Controller (again) */
 546:../Middlewares/stedgeai-lib/Npu/ll_aton/ll_aton_runtime.c ****     ATON_ENABLE(INTCTRL, 0);
 837              		.loc 1 546 5 view .LVU226
 838              	.LBB144:
 839              		.loc 1 546 5 view .LVU227
 840 002a 1A68     		ldr	r2, [r3]
 841              	.LVL55:
 842              		.loc 1 546 5 view .LVU228
 843 002c 42F00102 		orr	r2, r2, #1
 844              	.LVL56:
 845              		.loc 1 546 5 view .LVU229
 846              		.loc 1 546 5 view .LVU230
 847              		.loc 1 546 5 view .LVU231
 848 0030 1A60     		str	r2, [r3]
 849              		.loc 1 546 5 view .LVU232
 850              		.loc 1 546 5 view .LVU233
 851              	.LBE144:
 852              		.loc 1 546 5 view .LVU234
 853              	.LBE143:
 547:../Middlewares/stedgeai-lib/Npu/ll_aton/ll_aton_runtime.c ****   }
 548:../Middlewares/stedgeai-lib/Npu/ll_aton/ll_aton_runtime.c **** 
 549:../Middlewares/stedgeai-lib/Npu/ll_aton/ll_aton_runtime.c ****   /** Initialize OSAL layer **/
 550:../Middlewares/stedgeai-lib/Npu/ll_aton/ll_aton_runtime.c ****   LL_ATON_OSAL_INIT();
 854              		.loc 1 550 3 view .LVU235
 855 0032 FFF7FEFF 		bl	aton_osal_threadx_init
 856              	.LVL57:
 551:../Middlewares/stedgeai-lib/Npu/ll_aton/ll_aton_runtime.c **** 
 552:../Middlewares/stedgeai-lib/Npu/ll_aton/ll_aton_runtime.c ****   /** Disable all four ATON interrupts **/
 553:../Middlewares/stedgeai-lib/Npu/ll_aton/ll_aton_runtime.c ****   LL_ATON_DISABLE_ALL_IRQs();
ARM GAS  /tmp/ccmL1RJj.s 			page 38


 857              		.loc 1 553 3 view .LVU236
 858              		.loc 1 553 3 view .LVU237
 859              		.loc 1 553 3 view .LVU238
 860              		.loc 1 553 3 view .LVU239
 861              	.LBB145:
 862              	.LBI145:
 863              		.file 4 "../STM32Cube_FW_N6/Drivers/CMSIS/Include/core_cm55.h"
   1:../STM32Cube_FW_N6/Drivers/CMSIS/Include/core_cm55.h **** /*
   2:../STM32Cube_FW_N6/Drivers/CMSIS/Include/core_cm55.h ****  * Copyright (c) 2018-2024 Arm Limited. All rights reserved.
   3:../STM32Cube_FW_N6/Drivers/CMSIS/Include/core_cm55.h ****  *
   4:../STM32Cube_FW_N6/Drivers/CMSIS/Include/core_cm55.h ****  * SPDX-License-Identifier: Apache-2.0
   5:../STM32Cube_FW_N6/Drivers/CMSIS/Include/core_cm55.h ****  *
   6:../STM32Cube_FW_N6/Drivers/CMSIS/Include/core_cm55.h ****  * Licensed under the Apache License, Version 2.0 (the License); you may
   7:../STM32Cube_FW_N6/Drivers/CMSIS/Include/core_cm55.h ****  * not use this file except in compliance with the License.
   8:../STM32Cube_FW_N6/Drivers/CMSIS/Include/core_cm55.h ****  * You may obtain a copy of the License at
   9:../STM32Cube_FW_N6/Drivers/CMSIS/Include/core_cm55.h ****  *
  10:../STM32Cube_FW_N6/Drivers/CMSIS/Include/core_cm55.h ****  * www.apache.org/licenses/LICENSE-2.0
  11:../STM32Cube_FW_N6/Drivers/CMSIS/Include/core_cm55.h ****  *
  12:../STM32Cube_FW_N6/Drivers/CMSIS/Include/core_cm55.h ****  * Unless required by applicable law or agreed to in writing, software
  13:../STM32Cube_FW_N6/Drivers/CMSIS/Include/core_cm55.h ****  * distributed under the License is distributed on an AS IS BASIS, WITHOUT
  14:../STM32Cube_FW_N6/Drivers/CMSIS/Include/core_cm55.h ****  * WARRANTIES OR CONDITIONS OF ANY KIND, either express or implied.
  15:../STM32Cube_FW_N6/Drivers/CMSIS/Include/core_cm55.h ****  * See the License for the specific language governing permissions and
  16:../STM32Cube_FW_N6/Drivers/CMSIS/Include/core_cm55.h ****  * limitations under the License.
  17:../STM32Cube_FW_N6/Drivers/CMSIS/Include/core_cm55.h ****  */
  18:../STM32Cube_FW_N6/Drivers/CMSIS/Include/core_cm55.h **** 
  19:../STM32Cube_FW_N6/Drivers/CMSIS/Include/core_cm55.h **** /*
  20:../STM32Cube_FW_N6/Drivers/CMSIS/Include/core_cm55.h ****  * CMSIS Cortex-M55 Core Peripheral Access Layer Header File
  21:../STM32Cube_FW_N6/Drivers/CMSIS/Include/core_cm55.h ****  */
  22:../STM32Cube_FW_N6/Drivers/CMSIS/Include/core_cm55.h **** 
  23:../STM32Cube_FW_N6/Drivers/CMSIS/Include/core_cm55.h **** #if   defined ( __ICCARM__ )
  24:../STM32Cube_FW_N6/Drivers/CMSIS/Include/core_cm55.h ****   #pragma system_include                        /* treat file as system include file for MISRA chec
  25:../STM32Cube_FW_N6/Drivers/CMSIS/Include/core_cm55.h **** #elif defined (__clang__)
  26:../STM32Cube_FW_N6/Drivers/CMSIS/Include/core_cm55.h ****   #pragma clang system_header                   /* treat file as system include file */
  27:../STM32Cube_FW_N6/Drivers/CMSIS/Include/core_cm55.h **** #elif defined ( __GNUC__ )
  28:../STM32Cube_FW_N6/Drivers/CMSIS/Include/core_cm55.h ****   #pragma GCC diagnostic ignored "-Wpedantic"   /* disable pedantic warning due to unnamed structs/
  29:../STM32Cube_FW_N6/Drivers/CMSIS/Include/core_cm55.h **** #endif
  30:../STM32Cube_FW_N6/Drivers/CMSIS/Include/core_cm55.h **** 
  31:../STM32Cube_FW_N6/Drivers/CMSIS/Include/core_cm55.h **** #ifndef __CORE_CM55_H_GENERIC
  32:../STM32Cube_FW_N6/Drivers/CMSIS/Include/core_cm55.h **** #define __CORE_CM55_H_GENERIC
  33:../STM32Cube_FW_N6/Drivers/CMSIS/Include/core_cm55.h **** 
  34:../STM32Cube_FW_N6/Drivers/CMSIS/Include/core_cm55.h **** #include <stdint.h>
  35:../STM32Cube_FW_N6/Drivers/CMSIS/Include/core_cm55.h **** 
  36:../STM32Cube_FW_N6/Drivers/CMSIS/Include/core_cm55.h **** #ifdef __cplusplus
  37:../STM32Cube_FW_N6/Drivers/CMSIS/Include/core_cm55.h ****  extern "C" {
  38:../STM32Cube_FW_N6/Drivers/CMSIS/Include/core_cm55.h **** #endif
  39:../STM32Cube_FW_N6/Drivers/CMSIS/Include/core_cm55.h **** 
  40:../STM32Cube_FW_N6/Drivers/CMSIS/Include/core_cm55.h **** /**
  41:../STM32Cube_FW_N6/Drivers/CMSIS/Include/core_cm55.h ****   \page CMSIS_MISRA_Exceptions  MISRA-C:2004 Compliance Exceptions
  42:../STM32Cube_FW_N6/Drivers/CMSIS/Include/core_cm55.h ****   CMSIS violates the following MISRA-C:2004 rules:
  43:../STM32Cube_FW_N6/Drivers/CMSIS/Include/core_cm55.h **** 
  44:../STM32Cube_FW_N6/Drivers/CMSIS/Include/core_cm55.h ****    \li Required Rule 8.5, object/function definition in header file.<br>
  45:../STM32Cube_FW_N6/Drivers/CMSIS/Include/core_cm55.h ****      Function definitions in header files are used to allow 'inlining'.
  46:../STM32Cube_FW_N6/Drivers/CMSIS/Include/core_cm55.h **** 
  47:../STM32Cube_FW_N6/Drivers/CMSIS/Include/core_cm55.h ****    \li Required Rule 18.4, declaration of union type or object of union type: '{...}'.<br>
  48:../STM32Cube_FW_N6/Drivers/CMSIS/Include/core_cm55.h ****      Unions are used for effective representation of core registers.
  49:../STM32Cube_FW_N6/Drivers/CMSIS/Include/core_cm55.h **** 
  50:../STM32Cube_FW_N6/Drivers/CMSIS/Include/core_cm55.h ****    \li Advisory Rule 19.7, Function-like macro defined.<br>
ARM GAS  /tmp/ccmL1RJj.s 			page 39


  51:../STM32Cube_FW_N6/Drivers/CMSIS/Include/core_cm55.h ****      Function-like macros are used to allow more efficient code.
  52:../STM32Cube_FW_N6/Drivers/CMSIS/Include/core_cm55.h ****  */
  53:../STM32Cube_FW_N6/Drivers/CMSIS/Include/core_cm55.h **** 
  54:../STM32Cube_FW_N6/Drivers/CMSIS/Include/core_cm55.h **** 
  55:../STM32Cube_FW_N6/Drivers/CMSIS/Include/core_cm55.h **** /*******************************************************************************
  56:../STM32Cube_FW_N6/Drivers/CMSIS/Include/core_cm55.h ****  *                 CMSIS definitions
  57:../STM32Cube_FW_N6/Drivers/CMSIS/Include/core_cm55.h ****  ******************************************************************************/
  58:../STM32Cube_FW_N6/Drivers/CMSIS/Include/core_cm55.h **** /**
  59:../STM32Cube_FW_N6/Drivers/CMSIS/Include/core_cm55.h ****   \ingroup Cortex_M55
  60:../STM32Cube_FW_N6/Drivers/CMSIS/Include/core_cm55.h ****   @{
  61:../STM32Cube_FW_N6/Drivers/CMSIS/Include/core_cm55.h ****  */
  62:../STM32Cube_FW_N6/Drivers/CMSIS/Include/core_cm55.h **** 
  63:../STM32Cube_FW_N6/Drivers/CMSIS/Include/core_cm55.h **** #include "cmsis_version.h"
  64:../STM32Cube_FW_N6/Drivers/CMSIS/Include/core_cm55.h **** 
  65:../STM32Cube_FW_N6/Drivers/CMSIS/Include/core_cm55.h **** /* CMSIS CM55 definitions */
  66:../STM32Cube_FW_N6/Drivers/CMSIS/Include/core_cm55.h **** 
  67:../STM32Cube_FW_N6/Drivers/CMSIS/Include/core_cm55.h **** #define __CORTEX_M                (55U)                               /*!< Cortex-M Core */
  68:../STM32Cube_FW_N6/Drivers/CMSIS/Include/core_cm55.h **** 
  69:../STM32Cube_FW_N6/Drivers/CMSIS/Include/core_cm55.h **** #if defined ( __CC_ARM )
  70:../STM32Cube_FW_N6/Drivers/CMSIS/Include/core_cm55.h ****   #error Legacy Arm Compiler does not support Armv8.1-M target architecture.
  71:../STM32Cube_FW_N6/Drivers/CMSIS/Include/core_cm55.h **** #elif defined (__ARMCC_VERSION) && (__ARMCC_VERSION >= 6010050)
  72:../STM32Cube_FW_N6/Drivers/CMSIS/Include/core_cm55.h ****   #if defined (__ARM_FP)
  73:../STM32Cube_FW_N6/Drivers/CMSIS/Include/core_cm55.h ****     #if defined (__FPU_PRESENT) && (__FPU_PRESENT == 1U)
  74:../STM32Cube_FW_N6/Drivers/CMSIS/Include/core_cm55.h ****       #define __FPU_USED       1U
  75:../STM32Cube_FW_N6/Drivers/CMSIS/Include/core_cm55.h ****     #else
  76:../STM32Cube_FW_N6/Drivers/CMSIS/Include/core_cm55.h ****       #error "Compiler generates FPU instructions for a device without an FPU (check __FPU_PRESENT)
  77:../STM32Cube_FW_N6/Drivers/CMSIS/Include/core_cm55.h ****       #define __FPU_USED       0U
  78:../STM32Cube_FW_N6/Drivers/CMSIS/Include/core_cm55.h ****     #endif
  79:../STM32Cube_FW_N6/Drivers/CMSIS/Include/core_cm55.h ****   #else
  80:../STM32Cube_FW_N6/Drivers/CMSIS/Include/core_cm55.h ****     #define __FPU_USED         0U
  81:../STM32Cube_FW_N6/Drivers/CMSIS/Include/core_cm55.h ****   #endif
  82:../STM32Cube_FW_N6/Drivers/CMSIS/Include/core_cm55.h **** 
  83:../STM32Cube_FW_N6/Drivers/CMSIS/Include/core_cm55.h ****   #if defined (__ARM_FEATURE_DSP) && (__ARM_FEATURE_DSP == 1U)
  84:../STM32Cube_FW_N6/Drivers/CMSIS/Include/core_cm55.h ****     #if defined (__DSP_PRESENT) && (__DSP_PRESENT == 1U)
  85:../STM32Cube_FW_N6/Drivers/CMSIS/Include/core_cm55.h ****       #define __DSP_USED       1U
  86:../STM32Cube_FW_N6/Drivers/CMSIS/Include/core_cm55.h ****     #else
  87:../STM32Cube_FW_N6/Drivers/CMSIS/Include/core_cm55.h ****       #error "Compiler generates DSP (SIMD) instructions for a devices without DSP extensions (chec
  88:../STM32Cube_FW_N6/Drivers/CMSIS/Include/core_cm55.h ****       #define __DSP_USED       0U
  89:../STM32Cube_FW_N6/Drivers/CMSIS/Include/core_cm55.h ****     #endif
  90:../STM32Cube_FW_N6/Drivers/CMSIS/Include/core_cm55.h ****   #else
  91:../STM32Cube_FW_N6/Drivers/CMSIS/Include/core_cm55.h ****     #define __DSP_USED         0U
  92:../STM32Cube_FW_N6/Drivers/CMSIS/Include/core_cm55.h ****   #endif
  93:../STM32Cube_FW_N6/Drivers/CMSIS/Include/core_cm55.h **** 
  94:../STM32Cube_FW_N6/Drivers/CMSIS/Include/core_cm55.h **** #elif defined (__ti__)
  95:../STM32Cube_FW_N6/Drivers/CMSIS/Include/core_cm55.h ****   #if defined (__ARM_FP)
  96:../STM32Cube_FW_N6/Drivers/CMSIS/Include/core_cm55.h ****     #if defined (__FPU_PRESENT) && (__FPU_PRESENT == 1U)
  97:../STM32Cube_FW_N6/Drivers/CMSIS/Include/core_cm55.h ****       #define __FPU_USED       1U
  98:../STM32Cube_FW_N6/Drivers/CMSIS/Include/core_cm55.h ****     #else
  99:../STM32Cube_FW_N6/Drivers/CMSIS/Include/core_cm55.h ****       #error "Compiler generates FPU instructions for a device without an FPU (check __FPU_PRESENT)
 100:../STM32Cube_FW_N6/Drivers/CMSIS/Include/core_cm55.h ****       #define __FPU_USED       0U
 101:../STM32Cube_FW_N6/Drivers/CMSIS/Include/core_cm55.h ****     #endif
 102:../STM32Cube_FW_N6/Drivers/CMSIS/Include/core_cm55.h ****   #else
 103:../STM32Cube_FW_N6/Drivers/CMSIS/Include/core_cm55.h ****     #define __FPU_USED         0U
 104:../STM32Cube_FW_N6/Drivers/CMSIS/Include/core_cm55.h ****   #endif
 105:../STM32Cube_FW_N6/Drivers/CMSIS/Include/core_cm55.h **** 
 106:../STM32Cube_FW_N6/Drivers/CMSIS/Include/core_cm55.h ****   #if defined (__ARM_FEATURE_DSP) && (__ARM_FEATURE_DSP == 1U)
 107:../STM32Cube_FW_N6/Drivers/CMSIS/Include/core_cm55.h ****     #if defined (__DSP_PRESENT) && (__DSP_PRESENT == 1U)
ARM GAS  /tmp/ccmL1RJj.s 			page 40


 108:../STM32Cube_FW_N6/Drivers/CMSIS/Include/core_cm55.h ****       #define __DSP_USED       1U
 109:../STM32Cube_FW_N6/Drivers/CMSIS/Include/core_cm55.h ****     #else
 110:../STM32Cube_FW_N6/Drivers/CMSIS/Include/core_cm55.h ****       #error "Compiler generates DSP (SIMD) instructions for a devices without DSP extensions (chec
 111:../STM32Cube_FW_N6/Drivers/CMSIS/Include/core_cm55.h ****       #define __DSP_USED       0U
 112:../STM32Cube_FW_N6/Drivers/CMSIS/Include/core_cm55.h ****     #endif
 113:../STM32Cube_FW_N6/Drivers/CMSIS/Include/core_cm55.h ****   #else
 114:../STM32Cube_FW_N6/Drivers/CMSIS/Include/core_cm55.h ****     #define __DSP_USED         0U
 115:../STM32Cube_FW_N6/Drivers/CMSIS/Include/core_cm55.h ****   #endif
 116:../STM32Cube_FW_N6/Drivers/CMSIS/Include/core_cm55.h **** 
 117:../STM32Cube_FW_N6/Drivers/CMSIS/Include/core_cm55.h **** #elif defined ( __GNUC__ )
 118:../STM32Cube_FW_N6/Drivers/CMSIS/Include/core_cm55.h ****   #if defined (__VFP_FP__) && !defined(__SOFTFP__)
 119:../STM32Cube_FW_N6/Drivers/CMSIS/Include/core_cm55.h ****     #if defined (__FPU_PRESENT) && (__FPU_PRESENT == 1U)
 120:../STM32Cube_FW_N6/Drivers/CMSIS/Include/core_cm55.h ****       #define __FPU_USED       1U
 121:../STM32Cube_FW_N6/Drivers/CMSIS/Include/core_cm55.h ****     #else
 122:../STM32Cube_FW_N6/Drivers/CMSIS/Include/core_cm55.h ****       #error "Compiler generates FPU instructions for a device without an FPU (check __FPU_PRESENT)
 123:../STM32Cube_FW_N6/Drivers/CMSIS/Include/core_cm55.h ****       #define __FPU_USED       0U
 124:../STM32Cube_FW_N6/Drivers/CMSIS/Include/core_cm55.h ****     #endif
 125:../STM32Cube_FW_N6/Drivers/CMSIS/Include/core_cm55.h ****   #else
 126:../STM32Cube_FW_N6/Drivers/CMSIS/Include/core_cm55.h ****     #define __FPU_USED         0U
 127:../STM32Cube_FW_N6/Drivers/CMSIS/Include/core_cm55.h ****   #endif
 128:../STM32Cube_FW_N6/Drivers/CMSIS/Include/core_cm55.h **** 
 129:../STM32Cube_FW_N6/Drivers/CMSIS/Include/core_cm55.h ****   #if defined (__ARM_FEATURE_DSP) && (__ARM_FEATURE_DSP == 1U)
 130:../STM32Cube_FW_N6/Drivers/CMSIS/Include/core_cm55.h ****     #if defined (__DSP_PRESENT) && (__DSP_PRESENT == 1U)
 131:../STM32Cube_FW_N6/Drivers/CMSIS/Include/core_cm55.h ****       #define __DSP_USED       1U
 132:../STM32Cube_FW_N6/Drivers/CMSIS/Include/core_cm55.h ****     #else
 133:../STM32Cube_FW_N6/Drivers/CMSIS/Include/core_cm55.h ****       #error "Compiler generates DSP (SIMD) instructions for a devices without DSP extensions (chec
 134:../STM32Cube_FW_N6/Drivers/CMSIS/Include/core_cm55.h ****       #define __DSP_USED         0U
 135:../STM32Cube_FW_N6/Drivers/CMSIS/Include/core_cm55.h ****     #endif
 136:../STM32Cube_FW_N6/Drivers/CMSIS/Include/core_cm55.h ****   #else
 137:../STM32Cube_FW_N6/Drivers/CMSIS/Include/core_cm55.h ****     #define __DSP_USED         0U
 138:../STM32Cube_FW_N6/Drivers/CMSIS/Include/core_cm55.h ****   #endif
 139:../STM32Cube_FW_N6/Drivers/CMSIS/Include/core_cm55.h **** 
 140:../STM32Cube_FW_N6/Drivers/CMSIS/Include/core_cm55.h **** #elif defined ( __ICCARM__ )
 141:../STM32Cube_FW_N6/Drivers/CMSIS/Include/core_cm55.h ****   #if defined (__ARMVFP__)
 142:../STM32Cube_FW_N6/Drivers/CMSIS/Include/core_cm55.h ****     #if defined (__FPU_PRESENT) && (__FPU_PRESENT == 1U)
 143:../STM32Cube_FW_N6/Drivers/CMSIS/Include/core_cm55.h ****       #define __FPU_USED       1U
 144:../STM32Cube_FW_N6/Drivers/CMSIS/Include/core_cm55.h ****     #else
 145:../STM32Cube_FW_N6/Drivers/CMSIS/Include/core_cm55.h ****       #error "Compiler generates FPU instructions for a device without an FPU (check __FPU_PRESENT)
 146:../STM32Cube_FW_N6/Drivers/CMSIS/Include/core_cm55.h ****       #define __FPU_USED       0U
 147:../STM32Cube_FW_N6/Drivers/CMSIS/Include/core_cm55.h ****     #endif
 148:../STM32Cube_FW_N6/Drivers/CMSIS/Include/core_cm55.h ****   #else
 149:../STM32Cube_FW_N6/Drivers/CMSIS/Include/core_cm55.h ****     #define __FPU_USED         0U
 150:../STM32Cube_FW_N6/Drivers/CMSIS/Include/core_cm55.h ****   #endif
 151:../STM32Cube_FW_N6/Drivers/CMSIS/Include/core_cm55.h **** 
 152:../STM32Cube_FW_N6/Drivers/CMSIS/Include/core_cm55.h ****   #if defined (__ARM_FEATURE_DSP) && (__ARM_FEATURE_DSP == 1U)
 153:../STM32Cube_FW_N6/Drivers/CMSIS/Include/core_cm55.h ****     #if defined (__DSP_PRESENT) && (__DSP_PRESENT == 1U)
 154:../STM32Cube_FW_N6/Drivers/CMSIS/Include/core_cm55.h ****       #define __DSP_USED       1U
 155:../STM32Cube_FW_N6/Drivers/CMSIS/Include/core_cm55.h ****     #else
 156:../STM32Cube_FW_N6/Drivers/CMSIS/Include/core_cm55.h ****       #error "Compiler generates DSP (SIMD) instructions for a devices without DSP extensions (chec
 157:../STM32Cube_FW_N6/Drivers/CMSIS/Include/core_cm55.h ****       #define __DSP_USED         0U
 158:../STM32Cube_FW_N6/Drivers/CMSIS/Include/core_cm55.h ****     #endif
 159:../STM32Cube_FW_N6/Drivers/CMSIS/Include/core_cm55.h ****   #else
 160:../STM32Cube_FW_N6/Drivers/CMSIS/Include/core_cm55.h ****     #define __DSP_USED         0U
 161:../STM32Cube_FW_N6/Drivers/CMSIS/Include/core_cm55.h ****   #endif
 162:../STM32Cube_FW_N6/Drivers/CMSIS/Include/core_cm55.h **** 
 163:../STM32Cube_FW_N6/Drivers/CMSIS/Include/core_cm55.h **** #elif defined ( __TI_ARM__ )
 164:../STM32Cube_FW_N6/Drivers/CMSIS/Include/core_cm55.h ****   #if defined (__TI_VFP_SUPPORT__)
ARM GAS  /tmp/ccmL1RJj.s 			page 41


 165:../STM32Cube_FW_N6/Drivers/CMSIS/Include/core_cm55.h ****     #if defined (__FPU_PRESENT) && (__FPU_PRESENT == 1U)
 166:../STM32Cube_FW_N6/Drivers/CMSIS/Include/core_cm55.h ****       #define __FPU_USED       1U
 167:../STM32Cube_FW_N6/Drivers/CMSIS/Include/core_cm55.h ****     #else
 168:../STM32Cube_FW_N6/Drivers/CMSIS/Include/core_cm55.h ****       #error "Compiler generates FPU instructions for a device without an FPU (check __FPU_PRESENT)
 169:../STM32Cube_FW_N6/Drivers/CMSIS/Include/core_cm55.h ****       #define __FPU_USED       0U
 170:../STM32Cube_FW_N6/Drivers/CMSIS/Include/core_cm55.h ****     #endif
 171:../STM32Cube_FW_N6/Drivers/CMSIS/Include/core_cm55.h ****   #else
 172:../STM32Cube_FW_N6/Drivers/CMSIS/Include/core_cm55.h ****     #define __FPU_USED         0U
 173:../STM32Cube_FW_N6/Drivers/CMSIS/Include/core_cm55.h ****   #endif
 174:../STM32Cube_FW_N6/Drivers/CMSIS/Include/core_cm55.h **** 
 175:../STM32Cube_FW_N6/Drivers/CMSIS/Include/core_cm55.h **** #elif defined ( __TASKING__ )
 176:../STM32Cube_FW_N6/Drivers/CMSIS/Include/core_cm55.h ****   #if defined (__FPU_VFP__)
 177:../STM32Cube_FW_N6/Drivers/CMSIS/Include/core_cm55.h ****     #if defined (__FPU_PRESENT) && (__FPU_PRESENT == 1U)
 178:../STM32Cube_FW_N6/Drivers/CMSIS/Include/core_cm55.h ****       #define __FPU_USED       1U
 179:../STM32Cube_FW_N6/Drivers/CMSIS/Include/core_cm55.h ****     #else
 180:../STM32Cube_FW_N6/Drivers/CMSIS/Include/core_cm55.h ****       #error "Compiler generates FPU instructions for a device without an FPU (check __FPU_PRESENT)
 181:../STM32Cube_FW_N6/Drivers/CMSIS/Include/core_cm55.h ****       #define __FPU_USED       0U
 182:../STM32Cube_FW_N6/Drivers/CMSIS/Include/core_cm55.h ****     #endif
 183:../STM32Cube_FW_N6/Drivers/CMSIS/Include/core_cm55.h ****   #else
 184:../STM32Cube_FW_N6/Drivers/CMSIS/Include/core_cm55.h ****     #define __FPU_USED         0U
 185:../STM32Cube_FW_N6/Drivers/CMSIS/Include/core_cm55.h ****   #endif
 186:../STM32Cube_FW_N6/Drivers/CMSIS/Include/core_cm55.h **** 
 187:../STM32Cube_FW_N6/Drivers/CMSIS/Include/core_cm55.h **** #elif defined ( __CSMC__ )
 188:../STM32Cube_FW_N6/Drivers/CMSIS/Include/core_cm55.h ****   #if ( __CSMC__ & 0x400U)
 189:../STM32Cube_FW_N6/Drivers/CMSIS/Include/core_cm55.h ****     #if defined (__FPU_PRESENT) && (__FPU_PRESENT == 1U)
 190:../STM32Cube_FW_N6/Drivers/CMSIS/Include/core_cm55.h ****       #define __FPU_USED       1U
 191:../STM32Cube_FW_N6/Drivers/CMSIS/Include/core_cm55.h ****     #else
 192:../STM32Cube_FW_N6/Drivers/CMSIS/Include/core_cm55.h ****       #error "Compiler generates FPU instructions for a device without an FPU (check __FPU_PRESENT)
 193:../STM32Cube_FW_N6/Drivers/CMSIS/Include/core_cm55.h ****       #define __FPU_USED       0U
 194:../STM32Cube_FW_N6/Drivers/CMSIS/Include/core_cm55.h ****     #endif
 195:../STM32Cube_FW_N6/Drivers/CMSIS/Include/core_cm55.h ****   #else
 196:../STM32Cube_FW_N6/Drivers/CMSIS/Include/core_cm55.h ****     #define __FPU_USED         0U
 197:../STM32Cube_FW_N6/Drivers/CMSIS/Include/core_cm55.h ****   #endif
 198:../STM32Cube_FW_N6/Drivers/CMSIS/Include/core_cm55.h **** 
 199:../STM32Cube_FW_N6/Drivers/CMSIS/Include/core_cm55.h **** #endif
 200:../STM32Cube_FW_N6/Drivers/CMSIS/Include/core_cm55.h **** 
 201:../STM32Cube_FW_N6/Drivers/CMSIS/Include/core_cm55.h **** #include "cmsis_compiler.h"               /* CMSIS compiler specific defines */
 202:../STM32Cube_FW_N6/Drivers/CMSIS/Include/core_cm55.h **** 
 203:../STM32Cube_FW_N6/Drivers/CMSIS/Include/core_cm55.h **** 
 204:../STM32Cube_FW_N6/Drivers/CMSIS/Include/core_cm55.h **** #ifdef __cplusplus
 205:../STM32Cube_FW_N6/Drivers/CMSIS/Include/core_cm55.h **** }
 206:../STM32Cube_FW_N6/Drivers/CMSIS/Include/core_cm55.h **** #endif
 207:../STM32Cube_FW_N6/Drivers/CMSIS/Include/core_cm55.h **** 
 208:../STM32Cube_FW_N6/Drivers/CMSIS/Include/core_cm55.h **** #endif /* __CORE_CM55_H_GENERIC */
 209:../STM32Cube_FW_N6/Drivers/CMSIS/Include/core_cm55.h **** 
 210:../STM32Cube_FW_N6/Drivers/CMSIS/Include/core_cm55.h **** #ifndef __CMSIS_GENERIC
 211:../STM32Cube_FW_N6/Drivers/CMSIS/Include/core_cm55.h **** 
 212:../STM32Cube_FW_N6/Drivers/CMSIS/Include/core_cm55.h **** #ifndef __CORE_CM55_H_DEPENDANT
 213:../STM32Cube_FW_N6/Drivers/CMSIS/Include/core_cm55.h **** #define __CORE_CM55_H_DEPENDANT
 214:../STM32Cube_FW_N6/Drivers/CMSIS/Include/core_cm55.h **** 
 215:../STM32Cube_FW_N6/Drivers/CMSIS/Include/core_cm55.h **** #ifdef __cplusplus
 216:../STM32Cube_FW_N6/Drivers/CMSIS/Include/core_cm55.h ****  extern "C" {
 217:../STM32Cube_FW_N6/Drivers/CMSIS/Include/core_cm55.h **** #endif
 218:../STM32Cube_FW_N6/Drivers/CMSIS/Include/core_cm55.h **** 
 219:../STM32Cube_FW_N6/Drivers/CMSIS/Include/core_cm55.h **** /* check device defines and use defaults */
 220:../STM32Cube_FW_N6/Drivers/CMSIS/Include/core_cm55.h **** #if defined __CHECK_DEVICE_DEFINES
 221:../STM32Cube_FW_N6/Drivers/CMSIS/Include/core_cm55.h ****   #ifndef __CM55_REV
ARM GAS  /tmp/ccmL1RJj.s 			page 42


 222:../STM32Cube_FW_N6/Drivers/CMSIS/Include/core_cm55.h ****     #define __CM55_REV               0x0000U
 223:../STM32Cube_FW_N6/Drivers/CMSIS/Include/core_cm55.h ****     #warning "__CM55_REV not defined in device header file; using default!"
 224:../STM32Cube_FW_N6/Drivers/CMSIS/Include/core_cm55.h ****   #endif
 225:../STM32Cube_FW_N6/Drivers/CMSIS/Include/core_cm55.h **** 
 226:../STM32Cube_FW_N6/Drivers/CMSIS/Include/core_cm55.h ****   #ifndef __FPU_PRESENT
 227:../STM32Cube_FW_N6/Drivers/CMSIS/Include/core_cm55.h ****     #define __FPU_PRESENT             0U
 228:../STM32Cube_FW_N6/Drivers/CMSIS/Include/core_cm55.h ****     #warning "__FPU_PRESENT not defined in device header file; using default!"
 229:../STM32Cube_FW_N6/Drivers/CMSIS/Include/core_cm55.h ****   #endif
 230:../STM32Cube_FW_N6/Drivers/CMSIS/Include/core_cm55.h **** 
 231:../STM32Cube_FW_N6/Drivers/CMSIS/Include/core_cm55.h ****   #if __FPU_PRESENT != 0U
 232:../STM32Cube_FW_N6/Drivers/CMSIS/Include/core_cm55.h ****     #ifndef __FPU_DP
 233:../STM32Cube_FW_N6/Drivers/CMSIS/Include/core_cm55.h ****       #define __FPU_DP             0U
 234:../STM32Cube_FW_N6/Drivers/CMSIS/Include/core_cm55.h ****       #warning "__FPU_DP not defined in device header file; using default!"
 235:../STM32Cube_FW_N6/Drivers/CMSIS/Include/core_cm55.h ****     #endif
 236:../STM32Cube_FW_N6/Drivers/CMSIS/Include/core_cm55.h ****   #endif
 237:../STM32Cube_FW_N6/Drivers/CMSIS/Include/core_cm55.h **** 
 238:../STM32Cube_FW_N6/Drivers/CMSIS/Include/core_cm55.h ****   #ifndef __MPU_PRESENT
 239:../STM32Cube_FW_N6/Drivers/CMSIS/Include/core_cm55.h ****     #define __MPU_PRESENT             0U
 240:../STM32Cube_FW_N6/Drivers/CMSIS/Include/core_cm55.h ****     #warning "__MPU_PRESENT not defined in device header file; using default!"
 241:../STM32Cube_FW_N6/Drivers/CMSIS/Include/core_cm55.h ****   #endif
 242:../STM32Cube_FW_N6/Drivers/CMSIS/Include/core_cm55.h **** 
 243:../STM32Cube_FW_N6/Drivers/CMSIS/Include/core_cm55.h ****   #ifndef __ICACHE_PRESENT
 244:../STM32Cube_FW_N6/Drivers/CMSIS/Include/core_cm55.h ****     #define __ICACHE_PRESENT          0U
 245:../STM32Cube_FW_N6/Drivers/CMSIS/Include/core_cm55.h ****     #warning "__ICACHE_PRESENT not defined in device header file; using default!"
 246:../STM32Cube_FW_N6/Drivers/CMSIS/Include/core_cm55.h ****   #endif
 247:../STM32Cube_FW_N6/Drivers/CMSIS/Include/core_cm55.h **** 
 248:../STM32Cube_FW_N6/Drivers/CMSIS/Include/core_cm55.h ****   #ifndef __DCACHE_PRESENT
 249:../STM32Cube_FW_N6/Drivers/CMSIS/Include/core_cm55.h ****     #define __DCACHE_PRESENT          0U
 250:../STM32Cube_FW_N6/Drivers/CMSIS/Include/core_cm55.h ****     #warning "__DCACHE_PRESENT not defined in device header file; using default!"
 251:../STM32Cube_FW_N6/Drivers/CMSIS/Include/core_cm55.h ****   #endif
 252:../STM32Cube_FW_N6/Drivers/CMSIS/Include/core_cm55.h **** 
 253:../STM32Cube_FW_N6/Drivers/CMSIS/Include/core_cm55.h ****   #ifndef __VTOR_PRESENT
 254:../STM32Cube_FW_N6/Drivers/CMSIS/Include/core_cm55.h ****     #define __VTOR_PRESENT             1U
 255:../STM32Cube_FW_N6/Drivers/CMSIS/Include/core_cm55.h ****     #warning "__VTOR_PRESENT not defined in device header file; using default!"
 256:../STM32Cube_FW_N6/Drivers/CMSIS/Include/core_cm55.h ****   #endif
 257:../STM32Cube_FW_N6/Drivers/CMSIS/Include/core_cm55.h **** 
 258:../STM32Cube_FW_N6/Drivers/CMSIS/Include/core_cm55.h ****   #ifndef __PMU_PRESENT
 259:../STM32Cube_FW_N6/Drivers/CMSIS/Include/core_cm55.h ****     #define __PMU_PRESENT             0U
 260:../STM32Cube_FW_N6/Drivers/CMSIS/Include/core_cm55.h ****     #warning "__PMU_PRESENT not defined in device header file; using default!"
 261:../STM32Cube_FW_N6/Drivers/CMSIS/Include/core_cm55.h ****   #endif
 262:../STM32Cube_FW_N6/Drivers/CMSIS/Include/core_cm55.h **** 
 263:../STM32Cube_FW_N6/Drivers/CMSIS/Include/core_cm55.h ****   #if __PMU_PRESENT != 0U
 264:../STM32Cube_FW_N6/Drivers/CMSIS/Include/core_cm55.h ****     #ifndef __PMU_NUM_EVENTCNT
 265:../STM32Cube_FW_N6/Drivers/CMSIS/Include/core_cm55.h ****       #define __PMU_NUM_EVENTCNT      8U
 266:../STM32Cube_FW_N6/Drivers/CMSIS/Include/core_cm55.h ****       #warning "__PMU_NUM_EVENTCNT not defined in device header file; using default!"
 267:../STM32Cube_FW_N6/Drivers/CMSIS/Include/core_cm55.h ****     #elif (__PMU_NUM_EVENTCNT > 8 || __PMU_NUM_EVENTCNT < 2)
 268:../STM32Cube_FW_N6/Drivers/CMSIS/Include/core_cm55.h ****     #error "__PMU_NUM_EVENTCNT is out of range in device header file!" */
 269:../STM32Cube_FW_N6/Drivers/CMSIS/Include/core_cm55.h ****     #endif
 270:../STM32Cube_FW_N6/Drivers/CMSIS/Include/core_cm55.h ****   #endif
 271:../STM32Cube_FW_N6/Drivers/CMSIS/Include/core_cm55.h **** 
 272:../STM32Cube_FW_N6/Drivers/CMSIS/Include/core_cm55.h ****   #ifndef __SAUREGION_PRESENT
 273:../STM32Cube_FW_N6/Drivers/CMSIS/Include/core_cm55.h ****     #define __SAUREGION_PRESENT       0U
 274:../STM32Cube_FW_N6/Drivers/CMSIS/Include/core_cm55.h ****     #warning "__SAUREGION_PRESENT not defined in device header file; using default!"
 275:../STM32Cube_FW_N6/Drivers/CMSIS/Include/core_cm55.h ****   #endif
 276:../STM32Cube_FW_N6/Drivers/CMSIS/Include/core_cm55.h **** 
 277:../STM32Cube_FW_N6/Drivers/CMSIS/Include/core_cm55.h ****   #ifndef __DSP_PRESENT
 278:../STM32Cube_FW_N6/Drivers/CMSIS/Include/core_cm55.h ****     #define __DSP_PRESENT             0U
ARM GAS  /tmp/ccmL1RJj.s 			page 43


 279:../STM32Cube_FW_N6/Drivers/CMSIS/Include/core_cm55.h ****     #warning "__DSP_PRESENT not defined in device header file; using default!"
 280:../STM32Cube_FW_N6/Drivers/CMSIS/Include/core_cm55.h ****   #endif
 281:../STM32Cube_FW_N6/Drivers/CMSIS/Include/core_cm55.h **** 
 282:../STM32Cube_FW_N6/Drivers/CMSIS/Include/core_cm55.h ****   #ifndef __NVIC_PRIO_BITS
 283:../STM32Cube_FW_N6/Drivers/CMSIS/Include/core_cm55.h ****     #define __NVIC_PRIO_BITS          3U
 284:../STM32Cube_FW_N6/Drivers/CMSIS/Include/core_cm55.h ****     #warning "__NVIC_PRIO_BITS not defined in device header file; using default!"
 285:../STM32Cube_FW_N6/Drivers/CMSIS/Include/core_cm55.h ****   #endif
 286:../STM32Cube_FW_N6/Drivers/CMSIS/Include/core_cm55.h **** 
 287:../STM32Cube_FW_N6/Drivers/CMSIS/Include/core_cm55.h ****   #ifndef __Vendor_SysTickConfig
 288:../STM32Cube_FW_N6/Drivers/CMSIS/Include/core_cm55.h ****     #define __Vendor_SysTickConfig    0U
 289:../STM32Cube_FW_N6/Drivers/CMSIS/Include/core_cm55.h ****     #warning "__Vendor_SysTickConfig not defined in device header file; using default!"
 290:../STM32Cube_FW_N6/Drivers/CMSIS/Include/core_cm55.h ****   #endif
 291:../STM32Cube_FW_N6/Drivers/CMSIS/Include/core_cm55.h **** #endif
 292:../STM32Cube_FW_N6/Drivers/CMSIS/Include/core_cm55.h **** 
 293:../STM32Cube_FW_N6/Drivers/CMSIS/Include/core_cm55.h **** /* IO definitions (access restrictions to peripheral registers) */
 294:../STM32Cube_FW_N6/Drivers/CMSIS/Include/core_cm55.h **** /**
 295:../STM32Cube_FW_N6/Drivers/CMSIS/Include/core_cm55.h ****     \defgroup CMSIS_glob_defs CMSIS Global Defines
 296:../STM32Cube_FW_N6/Drivers/CMSIS/Include/core_cm55.h **** 
 297:../STM32Cube_FW_N6/Drivers/CMSIS/Include/core_cm55.h ****     <strong>IO Type Qualifiers</strong> are used
 298:../STM32Cube_FW_N6/Drivers/CMSIS/Include/core_cm55.h ****     \li to specify the access to peripheral variables.
 299:../STM32Cube_FW_N6/Drivers/CMSIS/Include/core_cm55.h ****     \li for automatic generation of peripheral register debug information.
 300:../STM32Cube_FW_N6/Drivers/CMSIS/Include/core_cm55.h **** */
 301:../STM32Cube_FW_N6/Drivers/CMSIS/Include/core_cm55.h **** #ifdef __cplusplus
 302:../STM32Cube_FW_N6/Drivers/CMSIS/Include/core_cm55.h ****   #define   __I     volatile             /*!< Defines 'read only' permissions */
 303:../STM32Cube_FW_N6/Drivers/CMSIS/Include/core_cm55.h **** #else
 304:../STM32Cube_FW_N6/Drivers/CMSIS/Include/core_cm55.h ****   #define   __I     volatile const       /*!< Defines 'read only' permissions */
 305:../STM32Cube_FW_N6/Drivers/CMSIS/Include/core_cm55.h **** #endif
 306:../STM32Cube_FW_N6/Drivers/CMSIS/Include/core_cm55.h **** #define     __O     volatile             /*!< Defines 'write only' permissions */
 307:../STM32Cube_FW_N6/Drivers/CMSIS/Include/core_cm55.h **** #define     __IO    volatile             /*!< Defines 'read / write' permissions */
 308:../STM32Cube_FW_N6/Drivers/CMSIS/Include/core_cm55.h **** 
 309:../STM32Cube_FW_N6/Drivers/CMSIS/Include/core_cm55.h **** /* following defines should be used for structure members */
 310:../STM32Cube_FW_N6/Drivers/CMSIS/Include/core_cm55.h **** #define     __IM     volatile const      /*! Defines 'read only' structure member permissions */
 311:../STM32Cube_FW_N6/Drivers/CMSIS/Include/core_cm55.h **** #define     __OM     volatile            /*! Defines 'write only' structure member permissions */
 312:../STM32Cube_FW_N6/Drivers/CMSIS/Include/core_cm55.h **** #define     __IOM    volatile            /*! Defines 'read / write' structure member permissions */
 313:../STM32Cube_FW_N6/Drivers/CMSIS/Include/core_cm55.h **** 
 314:../STM32Cube_FW_N6/Drivers/CMSIS/Include/core_cm55.h **** /*@} end of group Cortex_M55 */
 315:../STM32Cube_FW_N6/Drivers/CMSIS/Include/core_cm55.h **** 
 316:../STM32Cube_FW_N6/Drivers/CMSIS/Include/core_cm55.h **** 
 317:../STM32Cube_FW_N6/Drivers/CMSIS/Include/core_cm55.h **** 
 318:../STM32Cube_FW_N6/Drivers/CMSIS/Include/core_cm55.h **** /*******************************************************************************
 319:../STM32Cube_FW_N6/Drivers/CMSIS/Include/core_cm55.h ****  *                 Register Abstraction
 320:../STM32Cube_FW_N6/Drivers/CMSIS/Include/core_cm55.h ****   Core Register contain:
 321:../STM32Cube_FW_N6/Drivers/CMSIS/Include/core_cm55.h ****   - Core Register
 322:../STM32Cube_FW_N6/Drivers/CMSIS/Include/core_cm55.h ****   - Core NVIC Register
 323:../STM32Cube_FW_N6/Drivers/CMSIS/Include/core_cm55.h ****   - Core EWIC Register
 324:../STM32Cube_FW_N6/Drivers/CMSIS/Include/core_cm55.h ****   - Core EWIC Interrupt Status Access Register
 325:../STM32Cube_FW_N6/Drivers/CMSIS/Include/core_cm55.h ****   - Core SCB Register
 326:../STM32Cube_FW_N6/Drivers/CMSIS/Include/core_cm55.h ****   - Core SysTick Register
 327:../STM32Cube_FW_N6/Drivers/CMSIS/Include/core_cm55.h ****   - Core Debug Register
 328:../STM32Cube_FW_N6/Drivers/CMSIS/Include/core_cm55.h ****   - Core PMU Register
 329:../STM32Cube_FW_N6/Drivers/CMSIS/Include/core_cm55.h ****   - Core MPU Register
 330:../STM32Cube_FW_N6/Drivers/CMSIS/Include/core_cm55.h ****   - Core SAU Register
 331:../STM32Cube_FW_N6/Drivers/CMSIS/Include/core_cm55.h ****   - Core FPU Register
 332:../STM32Cube_FW_N6/Drivers/CMSIS/Include/core_cm55.h ****  ******************************************************************************/
 333:../STM32Cube_FW_N6/Drivers/CMSIS/Include/core_cm55.h **** /**
 334:../STM32Cube_FW_N6/Drivers/CMSIS/Include/core_cm55.h ****   \defgroup CMSIS_core_register Defines and Type Definitions
 335:../STM32Cube_FW_N6/Drivers/CMSIS/Include/core_cm55.h ****   \brief Type definitions and defines for Cortex-M processor based devices.
ARM GAS  /tmp/ccmL1RJj.s 			page 44


 336:../STM32Cube_FW_N6/Drivers/CMSIS/Include/core_cm55.h **** */
 337:../STM32Cube_FW_N6/Drivers/CMSIS/Include/core_cm55.h **** 
 338:../STM32Cube_FW_N6/Drivers/CMSIS/Include/core_cm55.h **** /**
 339:../STM32Cube_FW_N6/Drivers/CMSIS/Include/core_cm55.h ****   \ingroup    CMSIS_core_register
 340:../STM32Cube_FW_N6/Drivers/CMSIS/Include/core_cm55.h ****   \defgroup   CMSIS_CORE  Status and Control Registers
 341:../STM32Cube_FW_N6/Drivers/CMSIS/Include/core_cm55.h ****   \brief      Core Register type definitions.
 342:../STM32Cube_FW_N6/Drivers/CMSIS/Include/core_cm55.h ****   @{
 343:../STM32Cube_FW_N6/Drivers/CMSIS/Include/core_cm55.h ****  */
 344:../STM32Cube_FW_N6/Drivers/CMSIS/Include/core_cm55.h **** 
 345:../STM32Cube_FW_N6/Drivers/CMSIS/Include/core_cm55.h **** /**
 346:../STM32Cube_FW_N6/Drivers/CMSIS/Include/core_cm55.h ****   \brief  Union type to access the Application Program Status Register (APSR).
 347:../STM32Cube_FW_N6/Drivers/CMSIS/Include/core_cm55.h ****  */
 348:../STM32Cube_FW_N6/Drivers/CMSIS/Include/core_cm55.h **** typedef union
 349:../STM32Cube_FW_N6/Drivers/CMSIS/Include/core_cm55.h **** {
 350:../STM32Cube_FW_N6/Drivers/CMSIS/Include/core_cm55.h ****   struct
 351:../STM32Cube_FW_N6/Drivers/CMSIS/Include/core_cm55.h ****   {
 352:../STM32Cube_FW_N6/Drivers/CMSIS/Include/core_cm55.h ****     uint32_t _reserved0:16;              /*!< bit:  0..15  Reserved */
 353:../STM32Cube_FW_N6/Drivers/CMSIS/Include/core_cm55.h ****     uint32_t GE:4;                       /*!< bit: 16..19  Greater than or Equal flags */
 354:../STM32Cube_FW_N6/Drivers/CMSIS/Include/core_cm55.h ****     uint32_t _reserved1:7;               /*!< bit: 20..26  Reserved */
 355:../STM32Cube_FW_N6/Drivers/CMSIS/Include/core_cm55.h ****     uint32_t Q:1;                        /*!< bit:     27  Saturation condition flag */
 356:../STM32Cube_FW_N6/Drivers/CMSIS/Include/core_cm55.h ****     uint32_t V:1;                        /*!< bit:     28  Overflow condition code flag */
 357:../STM32Cube_FW_N6/Drivers/CMSIS/Include/core_cm55.h ****     uint32_t C:1;                        /*!< bit:     29  Carry condition code flag */
 358:../STM32Cube_FW_N6/Drivers/CMSIS/Include/core_cm55.h ****     uint32_t Z:1;                        /*!< bit:     30  Zero condition code flag */
 359:../STM32Cube_FW_N6/Drivers/CMSIS/Include/core_cm55.h ****     uint32_t N:1;                        /*!< bit:     31  Negative condition code flag */
 360:../STM32Cube_FW_N6/Drivers/CMSIS/Include/core_cm55.h ****   } b;                                   /*!< Structure used for bit  access */
 361:../STM32Cube_FW_N6/Drivers/CMSIS/Include/core_cm55.h ****   uint32_t w;                            /*!< Type      used for word access */
 362:../STM32Cube_FW_N6/Drivers/CMSIS/Include/core_cm55.h **** } APSR_Type;
 363:../STM32Cube_FW_N6/Drivers/CMSIS/Include/core_cm55.h **** 
 364:../STM32Cube_FW_N6/Drivers/CMSIS/Include/core_cm55.h **** /** \brief APSR Register Definitions */
 365:../STM32Cube_FW_N6/Drivers/CMSIS/Include/core_cm55.h **** #define APSR_N_Pos                         31U                                            /*!< APSR
 366:../STM32Cube_FW_N6/Drivers/CMSIS/Include/core_cm55.h **** #define APSR_N_Msk                         (1UL << APSR_N_Pos)                            /*!< APSR
 367:../STM32Cube_FW_N6/Drivers/CMSIS/Include/core_cm55.h **** 
 368:../STM32Cube_FW_N6/Drivers/CMSIS/Include/core_cm55.h **** #define APSR_Z_Pos                         30U                                            /*!< APSR
 369:../STM32Cube_FW_N6/Drivers/CMSIS/Include/core_cm55.h **** #define APSR_Z_Msk                         (1UL << APSR_Z_Pos)                            /*!< APSR
 370:../STM32Cube_FW_N6/Drivers/CMSIS/Include/core_cm55.h **** 
 371:../STM32Cube_FW_N6/Drivers/CMSIS/Include/core_cm55.h **** #define APSR_C_Pos                         29U                                            /*!< APSR
 372:../STM32Cube_FW_N6/Drivers/CMSIS/Include/core_cm55.h **** #define APSR_C_Msk                         (1UL << APSR_C_Pos)                            /*!< APSR
 373:../STM32Cube_FW_N6/Drivers/CMSIS/Include/core_cm55.h **** 
 374:../STM32Cube_FW_N6/Drivers/CMSIS/Include/core_cm55.h **** #define APSR_V_Pos                         28U                                            /*!< APSR
 375:../STM32Cube_FW_N6/Drivers/CMSIS/Include/core_cm55.h **** #define APSR_V_Msk                         (1UL << APSR_V_Pos)                            /*!< APSR
 376:../STM32Cube_FW_N6/Drivers/CMSIS/Include/core_cm55.h **** 
 377:../STM32Cube_FW_N6/Drivers/CMSIS/Include/core_cm55.h **** #define APSR_Q_Pos                         27U                                            /*!< APSR
 378:../STM32Cube_FW_N6/Drivers/CMSIS/Include/core_cm55.h **** #define APSR_Q_Msk                         (1UL << APSR_Q_Pos)                            /*!< APSR
 379:../STM32Cube_FW_N6/Drivers/CMSIS/Include/core_cm55.h **** 
 380:../STM32Cube_FW_N6/Drivers/CMSIS/Include/core_cm55.h **** #define APSR_GE_Pos                        16U                                            /*!< APSR
 381:../STM32Cube_FW_N6/Drivers/CMSIS/Include/core_cm55.h **** #define APSR_GE_Msk                        (0xFUL << APSR_GE_Pos)                         /*!< APSR
 382:../STM32Cube_FW_N6/Drivers/CMSIS/Include/core_cm55.h **** 
 383:../STM32Cube_FW_N6/Drivers/CMSIS/Include/core_cm55.h **** 
 384:../STM32Cube_FW_N6/Drivers/CMSIS/Include/core_cm55.h **** /**
 385:../STM32Cube_FW_N6/Drivers/CMSIS/Include/core_cm55.h ****   \brief  Union type to access the Interrupt Program Status Register (IPSR).
 386:../STM32Cube_FW_N6/Drivers/CMSIS/Include/core_cm55.h ****  */
 387:../STM32Cube_FW_N6/Drivers/CMSIS/Include/core_cm55.h **** typedef union
 388:../STM32Cube_FW_N6/Drivers/CMSIS/Include/core_cm55.h **** {
 389:../STM32Cube_FW_N6/Drivers/CMSIS/Include/core_cm55.h ****   struct
 390:../STM32Cube_FW_N6/Drivers/CMSIS/Include/core_cm55.h ****   {
 391:../STM32Cube_FW_N6/Drivers/CMSIS/Include/core_cm55.h ****     uint32_t ISR:9;                      /*!< bit:  0.. 8  Exception number */
 392:../STM32Cube_FW_N6/Drivers/CMSIS/Include/core_cm55.h ****     uint32_t _reserved0:23;              /*!< bit:  9..31  Reserved */
ARM GAS  /tmp/ccmL1RJj.s 			page 45


 393:../STM32Cube_FW_N6/Drivers/CMSIS/Include/core_cm55.h ****   } b;                                   /*!< Structure used for bit  access */
 394:../STM32Cube_FW_N6/Drivers/CMSIS/Include/core_cm55.h ****   uint32_t w;                            /*!< Type      used for word access */
 395:../STM32Cube_FW_N6/Drivers/CMSIS/Include/core_cm55.h **** } IPSR_Type;
 396:../STM32Cube_FW_N6/Drivers/CMSIS/Include/core_cm55.h **** 
 397:../STM32Cube_FW_N6/Drivers/CMSIS/Include/core_cm55.h **** /** \brief IPSR Register Definitions */
 398:../STM32Cube_FW_N6/Drivers/CMSIS/Include/core_cm55.h **** #define IPSR_ISR_Pos                        0U                                            /*!< IPSR
 399:../STM32Cube_FW_N6/Drivers/CMSIS/Include/core_cm55.h **** #define IPSR_ISR_Msk                       (0x1FFUL /*<< IPSR_ISR_Pos*/)                  /*!< IPSR
 400:../STM32Cube_FW_N6/Drivers/CMSIS/Include/core_cm55.h **** 
 401:../STM32Cube_FW_N6/Drivers/CMSIS/Include/core_cm55.h **** 
 402:../STM32Cube_FW_N6/Drivers/CMSIS/Include/core_cm55.h **** /**
 403:../STM32Cube_FW_N6/Drivers/CMSIS/Include/core_cm55.h ****   \brief  Union type to access the Special-Purpose Program Status Registers (xPSR).
 404:../STM32Cube_FW_N6/Drivers/CMSIS/Include/core_cm55.h ****  */
 405:../STM32Cube_FW_N6/Drivers/CMSIS/Include/core_cm55.h **** typedef union
 406:../STM32Cube_FW_N6/Drivers/CMSIS/Include/core_cm55.h **** {
 407:../STM32Cube_FW_N6/Drivers/CMSIS/Include/core_cm55.h ****   struct
 408:../STM32Cube_FW_N6/Drivers/CMSIS/Include/core_cm55.h ****   {
 409:../STM32Cube_FW_N6/Drivers/CMSIS/Include/core_cm55.h ****     uint32_t ISR:9;                      /*!< bit:  0.. 8  Exception number */
 410:../STM32Cube_FW_N6/Drivers/CMSIS/Include/core_cm55.h ****     uint32_t _reserved0:7;               /*!< bit:  9..15  Reserved */
 411:../STM32Cube_FW_N6/Drivers/CMSIS/Include/core_cm55.h ****     uint32_t GE:4;                       /*!< bit: 16..19  Greater than or Equal flags */
 412:../STM32Cube_FW_N6/Drivers/CMSIS/Include/core_cm55.h ****     uint32_t _reserved1:4;               /*!< bit: 20..23  Reserved */
 413:../STM32Cube_FW_N6/Drivers/CMSIS/Include/core_cm55.h ****     uint32_t T:1;                        /*!< bit:     24  Thumb bit        (read 0) */
 414:../STM32Cube_FW_N6/Drivers/CMSIS/Include/core_cm55.h ****     uint32_t IT:2;                       /*!< bit: 25..26  saved IT state   (read 0) */
 415:../STM32Cube_FW_N6/Drivers/CMSIS/Include/core_cm55.h ****     uint32_t Q:1;                        /*!< bit:     27  Saturation condition flag */
 416:../STM32Cube_FW_N6/Drivers/CMSIS/Include/core_cm55.h ****     uint32_t V:1;                        /*!< bit:     28  Overflow condition code flag */
 417:../STM32Cube_FW_N6/Drivers/CMSIS/Include/core_cm55.h ****     uint32_t C:1;                        /*!< bit:     29  Carry condition code flag */
 418:../STM32Cube_FW_N6/Drivers/CMSIS/Include/core_cm55.h ****     uint32_t Z:1;                        /*!< bit:     30  Zero condition code flag */
 419:../STM32Cube_FW_N6/Drivers/CMSIS/Include/core_cm55.h ****     uint32_t N:1;                        /*!< bit:     31  Negative condition code flag */
 420:../STM32Cube_FW_N6/Drivers/CMSIS/Include/core_cm55.h ****   } b;                                   /*!< Structure used for bit  access */
 421:../STM32Cube_FW_N6/Drivers/CMSIS/Include/core_cm55.h ****   uint32_t w;                            /*!< Type      used for word access */
 422:../STM32Cube_FW_N6/Drivers/CMSIS/Include/core_cm55.h **** } xPSR_Type;
 423:../STM32Cube_FW_N6/Drivers/CMSIS/Include/core_cm55.h **** 
 424:../STM32Cube_FW_N6/Drivers/CMSIS/Include/core_cm55.h **** /** \brief xPSR Register Definitions */
 425:../STM32Cube_FW_N6/Drivers/CMSIS/Include/core_cm55.h **** #define xPSR_N_Pos                         31U                                            /*!< xPSR
 426:../STM32Cube_FW_N6/Drivers/CMSIS/Include/core_cm55.h **** #define xPSR_N_Msk                         (1UL << xPSR_N_Pos)                            /*!< xPSR
 427:../STM32Cube_FW_N6/Drivers/CMSIS/Include/core_cm55.h **** 
 428:../STM32Cube_FW_N6/Drivers/CMSIS/Include/core_cm55.h **** #define xPSR_Z_Pos                         30U                                            /*!< xPSR
 429:../STM32Cube_FW_N6/Drivers/CMSIS/Include/core_cm55.h **** #define xPSR_Z_Msk                         (1UL << xPSR_Z_Pos)                            /*!< xPSR
 430:../STM32Cube_FW_N6/Drivers/CMSIS/Include/core_cm55.h **** 
 431:../STM32Cube_FW_N6/Drivers/CMSIS/Include/core_cm55.h **** #define xPSR_C_Pos                         29U                                            /*!< xPSR
 432:../STM32Cube_FW_N6/Drivers/CMSIS/Include/core_cm55.h **** #define xPSR_C_Msk                         (1UL << xPSR_C_Pos)                            /*!< xPSR
 433:../STM32Cube_FW_N6/Drivers/CMSIS/Include/core_cm55.h **** 
 434:../STM32Cube_FW_N6/Drivers/CMSIS/Include/core_cm55.h **** #define xPSR_V_Pos                         28U                                            /*!< xPSR
 435:../STM32Cube_FW_N6/Drivers/CMSIS/Include/core_cm55.h **** #define xPSR_V_Msk                         (1UL << xPSR_V_Pos)                            /*!< xPSR
 436:../STM32Cube_FW_N6/Drivers/CMSIS/Include/core_cm55.h **** 
 437:../STM32Cube_FW_N6/Drivers/CMSIS/Include/core_cm55.h **** #define xPSR_Q_Pos                         27U                                            /*!< xPSR
 438:../STM32Cube_FW_N6/Drivers/CMSIS/Include/core_cm55.h **** #define xPSR_Q_Msk                         (1UL << xPSR_Q_Pos)                            /*!< xPSR
 439:../STM32Cube_FW_N6/Drivers/CMSIS/Include/core_cm55.h **** 
 440:../STM32Cube_FW_N6/Drivers/CMSIS/Include/core_cm55.h **** #define xPSR_IT_Pos                        25U                                            /*!< xPSR
 441:../STM32Cube_FW_N6/Drivers/CMSIS/Include/core_cm55.h **** #define xPSR_IT_Msk                        (3UL << xPSR_IT_Pos)                           /*!< xPSR
 442:../STM32Cube_FW_N6/Drivers/CMSIS/Include/core_cm55.h **** 
 443:../STM32Cube_FW_N6/Drivers/CMSIS/Include/core_cm55.h **** #define xPSR_T_Pos                         24U                                            /*!< xPSR
 444:../STM32Cube_FW_N6/Drivers/CMSIS/Include/core_cm55.h **** #define xPSR_T_Msk                         (1UL << xPSR_T_Pos)                            /*!< xPSR
 445:../STM32Cube_FW_N6/Drivers/CMSIS/Include/core_cm55.h **** 
 446:../STM32Cube_FW_N6/Drivers/CMSIS/Include/core_cm55.h **** #define xPSR_GE_Pos                        16U                                            /*!< xPSR
 447:../STM32Cube_FW_N6/Drivers/CMSIS/Include/core_cm55.h **** #define xPSR_GE_Msk                        (0xFUL << xPSR_GE_Pos)                         /*!< xPSR
 448:../STM32Cube_FW_N6/Drivers/CMSIS/Include/core_cm55.h **** 
 449:../STM32Cube_FW_N6/Drivers/CMSIS/Include/core_cm55.h **** #define xPSR_ISR_Pos                        0U                                            /*!< xPSR
ARM GAS  /tmp/ccmL1RJj.s 			page 46


 450:../STM32Cube_FW_N6/Drivers/CMSIS/Include/core_cm55.h **** #define xPSR_ISR_Msk                       (0x1FFUL /*<< xPSR_ISR_Pos*/)                  /*!< xPSR
 451:../STM32Cube_FW_N6/Drivers/CMSIS/Include/core_cm55.h **** 
 452:../STM32Cube_FW_N6/Drivers/CMSIS/Include/core_cm55.h **** 
 453:../STM32Cube_FW_N6/Drivers/CMSIS/Include/core_cm55.h **** /**
 454:../STM32Cube_FW_N6/Drivers/CMSIS/Include/core_cm55.h ****   \brief  Union type to access the Control Registers (CONTROL).
 455:../STM32Cube_FW_N6/Drivers/CMSIS/Include/core_cm55.h ****  */
 456:../STM32Cube_FW_N6/Drivers/CMSIS/Include/core_cm55.h **** typedef union
 457:../STM32Cube_FW_N6/Drivers/CMSIS/Include/core_cm55.h **** {
 458:../STM32Cube_FW_N6/Drivers/CMSIS/Include/core_cm55.h ****   struct
 459:../STM32Cube_FW_N6/Drivers/CMSIS/Include/core_cm55.h ****   {
 460:../STM32Cube_FW_N6/Drivers/CMSIS/Include/core_cm55.h ****     uint32_t nPRIV:1;                    /*!< bit:      0  Execution privilege in Thread mode */
 461:../STM32Cube_FW_N6/Drivers/CMSIS/Include/core_cm55.h ****     uint32_t SPSEL:1;                    /*!< bit:      1  Stack-pointer select */
 462:../STM32Cube_FW_N6/Drivers/CMSIS/Include/core_cm55.h ****     uint32_t FPCA:1;                     /*!< bit:      2  Floating-point context active */
 463:../STM32Cube_FW_N6/Drivers/CMSIS/Include/core_cm55.h ****     uint32_t SFPA:1;                     /*!< bit:      3  Secure floating-point active */
 464:../STM32Cube_FW_N6/Drivers/CMSIS/Include/core_cm55.h ****     uint32_t _reserved1:28;              /*!< bit:  4..31  Reserved */
 465:../STM32Cube_FW_N6/Drivers/CMSIS/Include/core_cm55.h ****   } b;                                   /*!< Structure used for bit  access */
 466:../STM32Cube_FW_N6/Drivers/CMSIS/Include/core_cm55.h ****   uint32_t w;                            /*!< Type      used for word access */
 467:../STM32Cube_FW_N6/Drivers/CMSIS/Include/core_cm55.h **** } CONTROL_Type;
 468:../STM32Cube_FW_N6/Drivers/CMSIS/Include/core_cm55.h **** 
 469:../STM32Cube_FW_N6/Drivers/CMSIS/Include/core_cm55.h **** /** \brief CONTROL Register Definitions */
 470:../STM32Cube_FW_N6/Drivers/CMSIS/Include/core_cm55.h **** #define CONTROL_SFPA_Pos                    3U                                            /*!< CONT
 471:../STM32Cube_FW_N6/Drivers/CMSIS/Include/core_cm55.h **** #define CONTROL_SFPA_Msk                   (1UL << CONTROL_SFPA_Pos)                      /*!< CONT
 472:../STM32Cube_FW_N6/Drivers/CMSIS/Include/core_cm55.h **** 
 473:../STM32Cube_FW_N6/Drivers/CMSIS/Include/core_cm55.h **** #define CONTROL_FPCA_Pos                    2U                                            /*!< CONT
 474:../STM32Cube_FW_N6/Drivers/CMSIS/Include/core_cm55.h **** #define CONTROL_FPCA_Msk                   (1UL << CONTROL_FPCA_Pos)                      /*!< CONT
 475:../STM32Cube_FW_N6/Drivers/CMSIS/Include/core_cm55.h **** 
 476:../STM32Cube_FW_N6/Drivers/CMSIS/Include/core_cm55.h **** #define CONTROL_SPSEL_Pos                   1U                                            /*!< CONT
 477:../STM32Cube_FW_N6/Drivers/CMSIS/Include/core_cm55.h **** #define CONTROL_SPSEL_Msk                  (1UL << CONTROL_SPSEL_Pos)                     /*!< CONT
 478:../STM32Cube_FW_N6/Drivers/CMSIS/Include/core_cm55.h **** 
 479:../STM32Cube_FW_N6/Drivers/CMSIS/Include/core_cm55.h **** #define CONTROL_nPRIV_Pos                   0U                                            /*!< CONT
 480:../STM32Cube_FW_N6/Drivers/CMSIS/Include/core_cm55.h **** #define CONTROL_nPRIV_Msk                  (1UL /*<< CONTROL_nPRIV_Pos*/)                 /*!< CONT
 481:../STM32Cube_FW_N6/Drivers/CMSIS/Include/core_cm55.h **** 
 482:../STM32Cube_FW_N6/Drivers/CMSIS/Include/core_cm55.h **** /*@} end of group CMSIS_CORE */
 483:../STM32Cube_FW_N6/Drivers/CMSIS/Include/core_cm55.h **** 
 484:../STM32Cube_FW_N6/Drivers/CMSIS/Include/core_cm55.h **** 
 485:../STM32Cube_FW_N6/Drivers/CMSIS/Include/core_cm55.h **** /**
 486:../STM32Cube_FW_N6/Drivers/CMSIS/Include/core_cm55.h ****   \ingroup    CMSIS_core_register
 487:../STM32Cube_FW_N6/Drivers/CMSIS/Include/core_cm55.h ****   \defgroup   CMSIS_NVIC  Nested Vectored Interrupt Controller (NVIC)
 488:../STM32Cube_FW_N6/Drivers/CMSIS/Include/core_cm55.h ****   \brief      Type definitions for the NVIC Registers
 489:../STM32Cube_FW_N6/Drivers/CMSIS/Include/core_cm55.h ****   @{
 490:../STM32Cube_FW_N6/Drivers/CMSIS/Include/core_cm55.h ****  */
 491:../STM32Cube_FW_N6/Drivers/CMSIS/Include/core_cm55.h **** 
 492:../STM32Cube_FW_N6/Drivers/CMSIS/Include/core_cm55.h **** /**
 493:../STM32Cube_FW_N6/Drivers/CMSIS/Include/core_cm55.h ****   \brief  Structure type to access the Nested Vectored Interrupt Controller (NVIC).
 494:../STM32Cube_FW_N6/Drivers/CMSIS/Include/core_cm55.h ****  */
 495:../STM32Cube_FW_N6/Drivers/CMSIS/Include/core_cm55.h **** typedef struct
 496:../STM32Cube_FW_N6/Drivers/CMSIS/Include/core_cm55.h **** {
 497:../STM32Cube_FW_N6/Drivers/CMSIS/Include/core_cm55.h ****   __IOM uint32_t ISER[16U];              /*!< Offset: 0x000 (R/W)  Interrupt Set Enable Register */
 498:../STM32Cube_FW_N6/Drivers/CMSIS/Include/core_cm55.h ****         uint32_t RESERVED0[16U];
 499:../STM32Cube_FW_N6/Drivers/CMSIS/Include/core_cm55.h ****   __IOM uint32_t ICER[16U];              /*!< Offset: 0x080 (R/W)  Interrupt Clear Enable Register 
 500:../STM32Cube_FW_N6/Drivers/CMSIS/Include/core_cm55.h ****         uint32_t RESERVED1[16U];
 501:../STM32Cube_FW_N6/Drivers/CMSIS/Include/core_cm55.h ****   __IOM uint32_t ISPR[16U];              /*!< Offset: 0x100 (R/W)  Interrupt Set Pending Register *
 502:../STM32Cube_FW_N6/Drivers/CMSIS/Include/core_cm55.h ****         uint32_t RESERVED2[16U];
 503:../STM32Cube_FW_N6/Drivers/CMSIS/Include/core_cm55.h ****   __IOM uint32_t ICPR[16U];              /*!< Offset: 0x180 (R/W)  Interrupt Clear Pending Register
 504:../STM32Cube_FW_N6/Drivers/CMSIS/Include/core_cm55.h ****         uint32_t RESERVED3[16U];
 505:../STM32Cube_FW_N6/Drivers/CMSIS/Include/core_cm55.h ****   __IOM uint32_t IABR[16U];              /*!< Offset: 0x200 (R/W)  Interrupt Active bit Register */
 506:../STM32Cube_FW_N6/Drivers/CMSIS/Include/core_cm55.h ****         uint32_t RESERVED4[16U];
ARM GAS  /tmp/ccmL1RJj.s 			page 47


 507:../STM32Cube_FW_N6/Drivers/CMSIS/Include/core_cm55.h ****   __IOM uint32_t ITNS[16U];              /*!< Offset: 0x280 (R/W)  Interrupt Non-Secure State Regis
 508:../STM32Cube_FW_N6/Drivers/CMSIS/Include/core_cm55.h ****         uint32_t RESERVED5[16U];
 509:../STM32Cube_FW_N6/Drivers/CMSIS/Include/core_cm55.h ****   __IOM uint8_t  IPR[496U];              /*!< Offset: 0x300 (R/W)  Interrupt Priority Register (8Bi
 510:../STM32Cube_FW_N6/Drivers/CMSIS/Include/core_cm55.h ****         uint32_t RESERVED6[580U];
 511:../STM32Cube_FW_N6/Drivers/CMSIS/Include/core_cm55.h ****   __OM  uint32_t STIR;                   /*!< Offset: 0xE00 ( /W)  Software Trigger Interrupt Regis
 512:../STM32Cube_FW_N6/Drivers/CMSIS/Include/core_cm55.h **** }  NVIC_Type;
 513:../STM32Cube_FW_N6/Drivers/CMSIS/Include/core_cm55.h **** 
 514:../STM32Cube_FW_N6/Drivers/CMSIS/Include/core_cm55.h **** /** \brief NVIC Software Triggered Interrupt Register Definitions */
 515:../STM32Cube_FW_N6/Drivers/CMSIS/Include/core_cm55.h **** #define NVIC_STIR_INTID_Pos                 0U                                         /*!< STIR: I
 516:../STM32Cube_FW_N6/Drivers/CMSIS/Include/core_cm55.h **** #define NVIC_STIR_INTID_Msk                (0x1FFUL /*<< NVIC_STIR_INTID_Pos*/)        /*!< STIR: I
 517:../STM32Cube_FW_N6/Drivers/CMSIS/Include/core_cm55.h **** 
 518:../STM32Cube_FW_N6/Drivers/CMSIS/Include/core_cm55.h **** /*@} end of group CMSIS_NVIC */
 519:../STM32Cube_FW_N6/Drivers/CMSIS/Include/core_cm55.h **** 
 520:../STM32Cube_FW_N6/Drivers/CMSIS/Include/core_cm55.h **** 
 521:../STM32Cube_FW_N6/Drivers/CMSIS/Include/core_cm55.h **** /**
 522:../STM32Cube_FW_N6/Drivers/CMSIS/Include/core_cm55.h ****   \ingroup  CMSIS_core_register
 523:../STM32Cube_FW_N6/Drivers/CMSIS/Include/core_cm55.h ****   \defgroup CMSIS_SCB     System Control Block (SCB)
 524:../STM32Cube_FW_N6/Drivers/CMSIS/Include/core_cm55.h ****   \brief    Type definitions for the System Control Block Registers
 525:../STM32Cube_FW_N6/Drivers/CMSIS/Include/core_cm55.h ****   @{
 526:../STM32Cube_FW_N6/Drivers/CMSIS/Include/core_cm55.h ****  */
 527:../STM32Cube_FW_N6/Drivers/CMSIS/Include/core_cm55.h **** 
 528:../STM32Cube_FW_N6/Drivers/CMSIS/Include/core_cm55.h **** /**
 529:../STM32Cube_FW_N6/Drivers/CMSIS/Include/core_cm55.h ****   \brief  Structure type to access the System Control Block (SCB).
 530:../STM32Cube_FW_N6/Drivers/CMSIS/Include/core_cm55.h ****  */
 531:../STM32Cube_FW_N6/Drivers/CMSIS/Include/core_cm55.h **** typedef struct
 532:../STM32Cube_FW_N6/Drivers/CMSIS/Include/core_cm55.h **** {
 533:../STM32Cube_FW_N6/Drivers/CMSIS/Include/core_cm55.h ****   __IM  uint32_t CPUID;                  /*!< Offset: 0x000 (R/ )  CPUID Base Register */
 534:../STM32Cube_FW_N6/Drivers/CMSIS/Include/core_cm55.h ****   __IOM uint32_t ICSR;                   /*!< Offset: 0x004 (R/W)  Interrupt Control and State Regi
 535:../STM32Cube_FW_N6/Drivers/CMSIS/Include/core_cm55.h ****   __IOM uint32_t VTOR;                   /*!< Offset: 0x008 (R/W)  Vector Table Offset Register */
 536:../STM32Cube_FW_N6/Drivers/CMSIS/Include/core_cm55.h ****   __IOM uint32_t AIRCR;                  /*!< Offset: 0x00C (R/W)  Application Interrupt and Reset 
 537:../STM32Cube_FW_N6/Drivers/CMSIS/Include/core_cm55.h ****   __IOM uint32_t SCR;                    /*!< Offset: 0x010 (R/W)  System Control Register */
 538:../STM32Cube_FW_N6/Drivers/CMSIS/Include/core_cm55.h ****   __IOM uint32_t CCR;                    /*!< Offset: 0x014 (R/W)  Configuration Control Register *
 539:../STM32Cube_FW_N6/Drivers/CMSIS/Include/core_cm55.h ****   __IOM uint8_t  SHPR[12U];              /*!< Offset: 0x018 (R/W)  System Handlers Priority Registe
 540:../STM32Cube_FW_N6/Drivers/CMSIS/Include/core_cm55.h ****   __IOM uint32_t SHCSR;                  /*!< Offset: 0x024 (R/W)  System Handler Control and State
 541:../STM32Cube_FW_N6/Drivers/CMSIS/Include/core_cm55.h ****   __IOM uint32_t CFSR;                   /*!< Offset: 0x028 (R/W)  Configurable Fault Status Regist
 542:../STM32Cube_FW_N6/Drivers/CMSIS/Include/core_cm55.h ****   __IOM uint32_t HFSR;                   /*!< Offset: 0x02C (R/W)  HardFault Status Register */
 543:../STM32Cube_FW_N6/Drivers/CMSIS/Include/core_cm55.h ****   __IOM uint32_t DFSR;                   /*!< Offset: 0x030 (R/W)  Debug Fault Status Register */
 544:../STM32Cube_FW_N6/Drivers/CMSIS/Include/core_cm55.h ****   __IOM uint32_t MMFAR;                  /*!< Offset: 0x034 (R/W)  MemManage Fault Address Register
 545:../STM32Cube_FW_N6/Drivers/CMSIS/Include/core_cm55.h ****   __IOM uint32_t BFAR;                   /*!< Offset: 0x038 (R/W)  BusFault Address Register */
 546:../STM32Cube_FW_N6/Drivers/CMSIS/Include/core_cm55.h ****   __IOM uint32_t AFSR;                   /*!< Offset: 0x03C (R/W)  Auxiliary Fault Status Register 
 547:../STM32Cube_FW_N6/Drivers/CMSIS/Include/core_cm55.h ****   __IM  uint32_t ID_PFR[2U];             /*!< Offset: 0x040 (R/ )  Processor Feature Register */
 548:../STM32Cube_FW_N6/Drivers/CMSIS/Include/core_cm55.h ****   __IM  uint32_t ID_DFR;                 /*!< Offset: 0x048 (R/ )  Debug Feature Register */
 549:../STM32Cube_FW_N6/Drivers/CMSIS/Include/core_cm55.h ****   __IM  uint32_t ID_AFR;                 /*!< Offset: 0x04C (R/ )  Auxiliary Feature Register */
 550:../STM32Cube_FW_N6/Drivers/CMSIS/Include/core_cm55.h ****   __IM  uint32_t ID_MMFR[4U];            /*!< Offset: 0x050 (R/ )  Memory Model Feature Register */
 551:../STM32Cube_FW_N6/Drivers/CMSIS/Include/core_cm55.h ****   __IM  uint32_t ID_ISAR[6U];            /*!< Offset: 0x060 (R/ )  Instruction Set Attributes Regis
 552:../STM32Cube_FW_N6/Drivers/CMSIS/Include/core_cm55.h ****   __IM  uint32_t CLIDR;                  /*!< Offset: 0x078 (R/ )  Cache Level ID register */
 553:../STM32Cube_FW_N6/Drivers/CMSIS/Include/core_cm55.h ****   __IM  uint32_t CTR;                    /*!< Offset: 0x07C (R/ )  Cache Type register */
 554:../STM32Cube_FW_N6/Drivers/CMSIS/Include/core_cm55.h ****   __IM  uint32_t CCSIDR;                 /*!< Offset: 0x080 (R/ )  Cache Size ID Register */
 555:../STM32Cube_FW_N6/Drivers/CMSIS/Include/core_cm55.h ****   __IOM uint32_t CSSELR;                 /*!< Offset: 0x084 (R/W)  Cache Size Selection Register */
 556:../STM32Cube_FW_N6/Drivers/CMSIS/Include/core_cm55.h ****   __IOM uint32_t CPACR;                  /*!< Offset: 0x088 (R/W)  Coprocessor Access Control Regis
 557:../STM32Cube_FW_N6/Drivers/CMSIS/Include/core_cm55.h ****   __IOM uint32_t NSACR;                  /*!< Offset: 0x08C (R/W)  Non-Secure Access Control Regist
 558:../STM32Cube_FW_N6/Drivers/CMSIS/Include/core_cm55.h ****         uint32_t RESERVED7[21U];
 559:../STM32Cube_FW_N6/Drivers/CMSIS/Include/core_cm55.h ****   __IOM uint32_t SFSR;                   /*!< Offset: 0x0E4 (R/W)  Secure Fault Status Register */
 560:../STM32Cube_FW_N6/Drivers/CMSIS/Include/core_cm55.h ****   __IOM uint32_t SFAR;                   /*!< Offset: 0x0E8 (R/W)  Secure Fault Address Register */
 561:../STM32Cube_FW_N6/Drivers/CMSIS/Include/core_cm55.h ****         uint32_t RESERVED3[69U];
 562:../STM32Cube_FW_N6/Drivers/CMSIS/Include/core_cm55.h ****   __OM  uint32_t STIR;                   /*!< Offset: 0x200 ( /W)  Software Triggered Interrupt Reg
 563:../STM32Cube_FW_N6/Drivers/CMSIS/Include/core_cm55.h ****   __IOM uint32_t RFSR;                   /*!< Offset: 0x204 (R/W)  RAS Fault Status Register */
ARM GAS  /tmp/ccmL1RJj.s 			page 48


 564:../STM32Cube_FW_N6/Drivers/CMSIS/Include/core_cm55.h ****         uint32_t RESERVED4[14U];
 565:../STM32Cube_FW_N6/Drivers/CMSIS/Include/core_cm55.h ****   __IM  uint32_t MVFR0;                  /*!< Offset: 0x240 (R/ )  Media and VFP Feature Register 0
 566:../STM32Cube_FW_N6/Drivers/CMSIS/Include/core_cm55.h ****   __IM  uint32_t MVFR1;                  /*!< Offset: 0x244 (R/ )  Media and VFP Feature Register 1
 567:../STM32Cube_FW_N6/Drivers/CMSIS/Include/core_cm55.h ****   __IM  uint32_t MVFR2;                  /*!< Offset: 0x248 (R/ )  Media and VFP Feature Register 2
 568:../STM32Cube_FW_N6/Drivers/CMSIS/Include/core_cm55.h ****         uint32_t RESERVED5[1U];
 569:../STM32Cube_FW_N6/Drivers/CMSIS/Include/core_cm55.h ****   __OM  uint32_t ICIALLU;                /*!< Offset: 0x250 ( /W)  I-Cache Invalidate All to PoU */
 570:../STM32Cube_FW_N6/Drivers/CMSIS/Include/core_cm55.h ****         uint32_t RESERVED6[1U];
 571:../STM32Cube_FW_N6/Drivers/CMSIS/Include/core_cm55.h ****   __OM  uint32_t ICIMVAU;                /*!< Offset: 0x258 ( /W)  I-Cache Invalidate by MVA to PoU
 572:../STM32Cube_FW_N6/Drivers/CMSIS/Include/core_cm55.h ****   __OM  uint32_t DCIMVAC;                /*!< Offset: 0x25C ( /W)  D-Cache Invalidate by MVA to PoC
 573:../STM32Cube_FW_N6/Drivers/CMSIS/Include/core_cm55.h ****   __OM  uint32_t DCISW;                  /*!< Offset: 0x260 ( /W)  D-Cache Invalidate by Set-way */
 574:../STM32Cube_FW_N6/Drivers/CMSIS/Include/core_cm55.h ****   __OM  uint32_t DCCMVAU;                /*!< Offset: 0x264 ( /W)  D-Cache Clean by MVA to PoU */
 575:../STM32Cube_FW_N6/Drivers/CMSIS/Include/core_cm55.h ****   __OM  uint32_t DCCMVAC;                /*!< Offset: 0x268 ( /W)  D-Cache Clean by MVA to PoC */
 576:../STM32Cube_FW_N6/Drivers/CMSIS/Include/core_cm55.h ****   __OM  uint32_t DCCSW;                  /*!< Offset: 0x26C ( /W)  D-Cache Clean by Set-way */
 577:../STM32Cube_FW_N6/Drivers/CMSIS/Include/core_cm55.h ****   __OM  uint32_t DCCIMVAC;               /*!< Offset: 0x270 ( /W)  D-Cache Clean and Invalidate by 
 578:../STM32Cube_FW_N6/Drivers/CMSIS/Include/core_cm55.h ****   __OM  uint32_t DCCISW;                 /*!< Offset: 0x274 ( /W)  D-Cache Clean and Invalidate by 
 579:../STM32Cube_FW_N6/Drivers/CMSIS/Include/core_cm55.h ****   __OM  uint32_t BPIALL;                 /*!< Offset: 0x278 ( /W)  Branch Predictor Invalidate All 
 580:../STM32Cube_FW_N6/Drivers/CMSIS/Include/core_cm55.h **** } SCB_Type;
 581:../STM32Cube_FW_N6/Drivers/CMSIS/Include/core_cm55.h **** 
 582:../STM32Cube_FW_N6/Drivers/CMSIS/Include/core_cm55.h **** /** \brief SCB CPUID Register Definitions */
 583:../STM32Cube_FW_N6/Drivers/CMSIS/Include/core_cm55.h **** #define SCB_CPUID_IMPLEMENTER_Pos          24U                                            /*!< SCB 
 584:../STM32Cube_FW_N6/Drivers/CMSIS/Include/core_cm55.h **** #define SCB_CPUID_IMPLEMENTER_Msk          (0xFFUL << SCB_CPUID_IMPLEMENTER_Pos)          /*!< SCB 
 585:../STM32Cube_FW_N6/Drivers/CMSIS/Include/core_cm55.h **** 
 586:../STM32Cube_FW_N6/Drivers/CMSIS/Include/core_cm55.h **** #define SCB_CPUID_VARIANT_Pos              20U                                            /*!< SCB 
 587:../STM32Cube_FW_N6/Drivers/CMSIS/Include/core_cm55.h **** #define SCB_CPUID_VARIANT_Msk              (0xFUL << SCB_CPUID_VARIANT_Pos)               /*!< SCB 
 588:../STM32Cube_FW_N6/Drivers/CMSIS/Include/core_cm55.h **** 
 589:../STM32Cube_FW_N6/Drivers/CMSIS/Include/core_cm55.h **** #define SCB_CPUID_ARCHITECTURE_Pos         16U                                            /*!< SCB 
 590:../STM32Cube_FW_N6/Drivers/CMSIS/Include/core_cm55.h **** #define SCB_CPUID_ARCHITECTURE_Msk         (0xFUL << SCB_CPUID_ARCHITECTURE_Pos)          /*!< SCB 
 591:../STM32Cube_FW_N6/Drivers/CMSIS/Include/core_cm55.h **** 
 592:../STM32Cube_FW_N6/Drivers/CMSIS/Include/core_cm55.h **** #define SCB_CPUID_PARTNO_Pos                4U                                            /*!< SCB 
 593:../STM32Cube_FW_N6/Drivers/CMSIS/Include/core_cm55.h **** #define SCB_CPUID_PARTNO_Msk               (0xFFFUL << SCB_CPUID_PARTNO_Pos)              /*!< SCB 
 594:../STM32Cube_FW_N6/Drivers/CMSIS/Include/core_cm55.h **** 
 595:../STM32Cube_FW_N6/Drivers/CMSIS/Include/core_cm55.h **** #define SCB_CPUID_REVISION_Pos              0U                                            /*!< SCB 
 596:../STM32Cube_FW_N6/Drivers/CMSIS/Include/core_cm55.h **** #define SCB_CPUID_REVISION_Msk             (0xFUL /*<< SCB_CPUID_REVISION_Pos*/)          /*!< SCB 
 597:../STM32Cube_FW_N6/Drivers/CMSIS/Include/core_cm55.h **** 
 598:../STM32Cube_FW_N6/Drivers/CMSIS/Include/core_cm55.h **** /** \brief SCB Interrupt Control State Register Definitions */
 599:../STM32Cube_FW_N6/Drivers/CMSIS/Include/core_cm55.h **** #define SCB_ICSR_PENDNMISET_Pos            31U                                            /*!< SCB 
 600:../STM32Cube_FW_N6/Drivers/CMSIS/Include/core_cm55.h **** #define SCB_ICSR_PENDNMISET_Msk            (1UL << SCB_ICSR_PENDNMISET_Pos)               /*!< SCB 
 601:../STM32Cube_FW_N6/Drivers/CMSIS/Include/core_cm55.h **** 
 602:../STM32Cube_FW_N6/Drivers/CMSIS/Include/core_cm55.h **** #define SCB_ICSR_PENDNMICLR_Pos            30U                                            /*!< SCB 
 603:../STM32Cube_FW_N6/Drivers/CMSIS/Include/core_cm55.h **** #define SCB_ICSR_PENDNMICLR_Msk            (1UL << SCB_ICSR_PENDNMICLR_Pos)               /*!< SCB 
 604:../STM32Cube_FW_N6/Drivers/CMSIS/Include/core_cm55.h **** 
 605:../STM32Cube_FW_N6/Drivers/CMSIS/Include/core_cm55.h **** #define SCB_ICSR_PENDSVSET_Pos             28U                                            /*!< SCB 
 606:../STM32Cube_FW_N6/Drivers/CMSIS/Include/core_cm55.h **** #define SCB_ICSR_PENDSVSET_Msk             (1UL << SCB_ICSR_PENDSVSET_Pos)                /*!< SCB 
 607:../STM32Cube_FW_N6/Drivers/CMSIS/Include/core_cm55.h **** 
 608:../STM32Cube_FW_N6/Drivers/CMSIS/Include/core_cm55.h **** #define SCB_ICSR_PENDSVCLR_Pos             27U                                            /*!< SCB 
 609:../STM32Cube_FW_N6/Drivers/CMSIS/Include/core_cm55.h **** #define SCB_ICSR_PENDSVCLR_Msk             (1UL << SCB_ICSR_PENDSVCLR_Pos)                /*!< SCB 
 610:../STM32Cube_FW_N6/Drivers/CMSIS/Include/core_cm55.h **** 
 611:../STM32Cube_FW_N6/Drivers/CMSIS/Include/core_cm55.h **** #define SCB_ICSR_PENDSTSET_Pos             26U                                            /*!< SCB 
 612:../STM32Cube_FW_N6/Drivers/CMSIS/Include/core_cm55.h **** #define SCB_ICSR_PENDSTSET_Msk             (1UL << SCB_ICSR_PENDSTSET_Pos)                /*!< SCB 
 613:../STM32Cube_FW_N6/Drivers/CMSIS/Include/core_cm55.h **** 
 614:../STM32Cube_FW_N6/Drivers/CMSIS/Include/core_cm55.h **** #define SCB_ICSR_PENDSTCLR_Pos             25U                                            /*!< SCB 
 615:../STM32Cube_FW_N6/Drivers/CMSIS/Include/core_cm55.h **** #define SCB_ICSR_PENDSTCLR_Msk             (1UL << SCB_ICSR_PENDSTCLR_Pos)                /*!< SCB 
 616:../STM32Cube_FW_N6/Drivers/CMSIS/Include/core_cm55.h **** 
 617:../STM32Cube_FW_N6/Drivers/CMSIS/Include/core_cm55.h **** #define SCB_ICSR_STTNS_Pos                 24U                                            /*!< SCB 
 618:../STM32Cube_FW_N6/Drivers/CMSIS/Include/core_cm55.h **** #define SCB_ICSR_STTNS_Msk                 (1UL << SCB_ICSR_STTNS_Pos)                    /*!< SCB 
 619:../STM32Cube_FW_N6/Drivers/CMSIS/Include/core_cm55.h **** 
 620:../STM32Cube_FW_N6/Drivers/CMSIS/Include/core_cm55.h **** #define SCB_ICSR_ISRPREEMPT_Pos            23U                                            /*!< SCB 
ARM GAS  /tmp/ccmL1RJj.s 			page 49


 621:../STM32Cube_FW_N6/Drivers/CMSIS/Include/core_cm55.h **** #define SCB_ICSR_ISRPREEMPT_Msk            (1UL << SCB_ICSR_ISRPREEMPT_Pos)               /*!< SCB 
 622:../STM32Cube_FW_N6/Drivers/CMSIS/Include/core_cm55.h **** 
 623:../STM32Cube_FW_N6/Drivers/CMSIS/Include/core_cm55.h **** #define SCB_ICSR_ISRPENDING_Pos            22U                                            /*!< SCB 
 624:../STM32Cube_FW_N6/Drivers/CMSIS/Include/core_cm55.h **** #define SCB_ICSR_ISRPENDING_Msk            (1UL << SCB_ICSR_ISRPENDING_Pos)               /*!< SCB 
 625:../STM32Cube_FW_N6/Drivers/CMSIS/Include/core_cm55.h **** 
 626:../STM32Cube_FW_N6/Drivers/CMSIS/Include/core_cm55.h **** #define SCB_ICSR_VECTPENDING_Pos           12U                                            /*!< SCB 
 627:../STM32Cube_FW_N6/Drivers/CMSIS/Include/core_cm55.h **** #define SCB_ICSR_VECTPENDING_Msk           (0x1FFUL << SCB_ICSR_VECTPENDING_Pos)          /*!< SCB 
 628:../STM32Cube_FW_N6/Drivers/CMSIS/Include/core_cm55.h **** 
 629:../STM32Cube_FW_N6/Drivers/CMSIS/Include/core_cm55.h **** #define SCB_ICSR_RETTOBASE_Pos             11U                                            /*!< SCB 
 630:../STM32Cube_FW_N6/Drivers/CMSIS/Include/core_cm55.h **** #define SCB_ICSR_RETTOBASE_Msk             (1UL << SCB_ICSR_RETTOBASE_Pos)                /*!< SCB 
 631:../STM32Cube_FW_N6/Drivers/CMSIS/Include/core_cm55.h **** 
 632:../STM32Cube_FW_N6/Drivers/CMSIS/Include/core_cm55.h **** #define SCB_ICSR_VECTACTIVE_Pos             0U                                            /*!< SCB 
 633:../STM32Cube_FW_N6/Drivers/CMSIS/Include/core_cm55.h **** #define SCB_ICSR_VECTACTIVE_Msk            (0x1FFUL /*<< SCB_ICSR_VECTACTIVE_Pos*/)       /*!< SCB 
 634:../STM32Cube_FW_N6/Drivers/CMSIS/Include/core_cm55.h **** 
 635:../STM32Cube_FW_N6/Drivers/CMSIS/Include/core_cm55.h **** /** \brief SCB Vector Table Offset Register Definitions */
 636:../STM32Cube_FW_N6/Drivers/CMSIS/Include/core_cm55.h **** #define SCB_VTOR_TBLOFF_Pos                 7U                                            /*!< SCB 
 637:../STM32Cube_FW_N6/Drivers/CMSIS/Include/core_cm55.h **** #define SCB_VTOR_TBLOFF_Msk                (0x1FFFFFFUL << SCB_VTOR_TBLOFF_Pos)           /*!< SCB 
 638:../STM32Cube_FW_N6/Drivers/CMSIS/Include/core_cm55.h **** 
 639:../STM32Cube_FW_N6/Drivers/CMSIS/Include/core_cm55.h **** /** \brief SCB Application Interrupt and Reset Control Register Definitions */
 640:../STM32Cube_FW_N6/Drivers/CMSIS/Include/core_cm55.h **** #define SCB_AIRCR_VECTKEY_Pos              16U                                            /*!< SCB 
 641:../STM32Cube_FW_N6/Drivers/CMSIS/Include/core_cm55.h **** #define SCB_AIRCR_VECTKEY_Msk              (0xFFFFUL << SCB_AIRCR_VECTKEY_Pos)            /*!< SCB 
 642:../STM32Cube_FW_N6/Drivers/CMSIS/Include/core_cm55.h **** 
 643:../STM32Cube_FW_N6/Drivers/CMSIS/Include/core_cm55.h **** #define SCB_AIRCR_VECTKEYSTAT_Pos          16U                                            /*!< SCB 
 644:../STM32Cube_FW_N6/Drivers/CMSIS/Include/core_cm55.h **** #define SCB_AIRCR_VECTKEYSTAT_Msk          (0xFFFFUL << SCB_AIRCR_VECTKEYSTAT_Pos)        /*!< SCB 
 645:../STM32Cube_FW_N6/Drivers/CMSIS/Include/core_cm55.h **** 
 646:../STM32Cube_FW_N6/Drivers/CMSIS/Include/core_cm55.h **** #define SCB_AIRCR_ENDIANNESS_Pos           15U                                            /*!< SCB 
 647:../STM32Cube_FW_N6/Drivers/CMSIS/Include/core_cm55.h **** #define SCB_AIRCR_ENDIANNESS_Msk           (1UL << SCB_AIRCR_ENDIANNESS_Pos)              /*!< SCB 
 648:../STM32Cube_FW_N6/Drivers/CMSIS/Include/core_cm55.h **** 
 649:../STM32Cube_FW_N6/Drivers/CMSIS/Include/core_cm55.h **** #define SCB_AIRCR_PRIS_Pos                 14U                                            /*!< SCB 
 650:../STM32Cube_FW_N6/Drivers/CMSIS/Include/core_cm55.h **** #define SCB_AIRCR_PRIS_Msk                 (1UL << SCB_AIRCR_PRIS_Pos)                    /*!< SCB 
 651:../STM32Cube_FW_N6/Drivers/CMSIS/Include/core_cm55.h **** 
 652:../STM32Cube_FW_N6/Drivers/CMSIS/Include/core_cm55.h **** #define SCB_AIRCR_BFHFNMINS_Pos            13U                                            /*!< SCB 
 653:../STM32Cube_FW_N6/Drivers/CMSIS/Include/core_cm55.h **** #define SCB_AIRCR_BFHFNMINS_Msk            (1UL << SCB_AIRCR_BFHFNMINS_Pos)               /*!< SCB 
 654:../STM32Cube_FW_N6/Drivers/CMSIS/Include/core_cm55.h **** 
 655:../STM32Cube_FW_N6/Drivers/CMSIS/Include/core_cm55.h **** #define SCB_AIRCR_PRIGROUP_Pos              8U                                            /*!< SCB 
 656:../STM32Cube_FW_N6/Drivers/CMSIS/Include/core_cm55.h **** #define SCB_AIRCR_PRIGROUP_Msk             (7UL << SCB_AIRCR_PRIGROUP_Pos)                /*!< SCB 
 657:../STM32Cube_FW_N6/Drivers/CMSIS/Include/core_cm55.h **** 
 658:../STM32Cube_FW_N6/Drivers/CMSIS/Include/core_cm55.h **** #define SCB_AIRCR_IESB_Pos                  5U                                            /*!< SCB 
 659:../STM32Cube_FW_N6/Drivers/CMSIS/Include/core_cm55.h **** #define SCB_AIRCR_IESB_Msk                 (1UL << SCB_AIRCR_IESB_Pos)                    /*!< SCB 
 660:../STM32Cube_FW_N6/Drivers/CMSIS/Include/core_cm55.h **** 
 661:../STM32Cube_FW_N6/Drivers/CMSIS/Include/core_cm55.h **** #define SCB_AIRCR_DIT_Pos                   4U                                            /*!< SCB 
 662:../STM32Cube_FW_N6/Drivers/CMSIS/Include/core_cm55.h **** #define SCB_AIRCR_DIT_Msk                  (1UL << SCB_AIRCR_DIT_Pos)                     /*!< SCB 
 663:../STM32Cube_FW_N6/Drivers/CMSIS/Include/core_cm55.h **** 
 664:../STM32Cube_FW_N6/Drivers/CMSIS/Include/core_cm55.h **** #define SCB_AIRCR_SYSRESETREQS_Pos          3U                                            /*!< SCB 
 665:../STM32Cube_FW_N6/Drivers/CMSIS/Include/core_cm55.h **** #define SCB_AIRCR_SYSRESETREQS_Msk         (1UL << SCB_AIRCR_SYSRESETREQS_Pos)            /*!< SCB 
 666:../STM32Cube_FW_N6/Drivers/CMSIS/Include/core_cm55.h **** 
 667:../STM32Cube_FW_N6/Drivers/CMSIS/Include/core_cm55.h **** #define SCB_AIRCR_SYSRESETREQ_Pos           2U                                            /*!< SCB 
 668:../STM32Cube_FW_N6/Drivers/CMSIS/Include/core_cm55.h **** #define SCB_AIRCR_SYSRESETREQ_Msk          (1UL << SCB_AIRCR_SYSRESETREQ_Pos)             /*!< SCB 
 669:../STM32Cube_FW_N6/Drivers/CMSIS/Include/core_cm55.h **** 
 670:../STM32Cube_FW_N6/Drivers/CMSIS/Include/core_cm55.h **** #define SCB_AIRCR_VECTCLRACTIVE_Pos         1U                                            /*!< SCB 
 671:../STM32Cube_FW_N6/Drivers/CMSIS/Include/core_cm55.h **** #define SCB_AIRCR_VECTCLRACTIVE_Msk        (1UL << SCB_AIRCR_VECTCLRACTIVE_Pos)           /*!< SCB 
 672:../STM32Cube_FW_N6/Drivers/CMSIS/Include/core_cm55.h **** 
 673:../STM32Cube_FW_N6/Drivers/CMSIS/Include/core_cm55.h **** /** \brief SCB System Control Register Definitions */
 674:../STM32Cube_FW_N6/Drivers/CMSIS/Include/core_cm55.h **** #define SCB_SCR_SEVONPEND_Pos               4U                                            /*!< SCB 
 675:../STM32Cube_FW_N6/Drivers/CMSIS/Include/core_cm55.h **** #define SCB_SCR_SEVONPEND_Msk              (1UL << SCB_SCR_SEVONPEND_Pos)                 /*!< SCB 
 676:../STM32Cube_FW_N6/Drivers/CMSIS/Include/core_cm55.h **** 
 677:../STM32Cube_FW_N6/Drivers/CMSIS/Include/core_cm55.h **** #define SCB_SCR_SLEEPDEEPS_Pos              3U                                            /*!< SCB 
ARM GAS  /tmp/ccmL1RJj.s 			page 50


 678:../STM32Cube_FW_N6/Drivers/CMSIS/Include/core_cm55.h **** #define SCB_SCR_SLEEPDEEPS_Msk             (1UL << SCB_SCR_SLEEPDEEPS_Pos)                /*!< SCB 
 679:../STM32Cube_FW_N6/Drivers/CMSIS/Include/core_cm55.h **** 
 680:../STM32Cube_FW_N6/Drivers/CMSIS/Include/core_cm55.h **** #define SCB_SCR_SLEEPDEEP_Pos               2U                                            /*!< SCB 
 681:../STM32Cube_FW_N6/Drivers/CMSIS/Include/core_cm55.h **** #define SCB_SCR_SLEEPDEEP_Msk              (1UL << SCB_SCR_SLEEPDEEP_Pos)                 /*!< SCB 
 682:../STM32Cube_FW_N6/Drivers/CMSIS/Include/core_cm55.h **** 
 683:../STM32Cube_FW_N6/Drivers/CMSIS/Include/core_cm55.h **** #define SCB_SCR_SLEEPONEXIT_Pos             1U                                            /*!< SCB 
 684:../STM32Cube_FW_N6/Drivers/CMSIS/Include/core_cm55.h **** #define SCB_SCR_SLEEPONEXIT_Msk            (1UL << SCB_SCR_SLEEPONEXIT_Pos)               /*!< SCB 
 685:../STM32Cube_FW_N6/Drivers/CMSIS/Include/core_cm55.h **** 
 686:../STM32Cube_FW_N6/Drivers/CMSIS/Include/core_cm55.h **** /** \brief SCB Configuration Control Register Definitions */
 687:../STM32Cube_FW_N6/Drivers/CMSIS/Include/core_cm55.h **** #define SCB_CCR_TRD_Pos                    20U                                            /*!< SCB 
 688:../STM32Cube_FW_N6/Drivers/CMSIS/Include/core_cm55.h **** #define SCB_CCR_TRD_Msk                    (1UL << SCB_CCR_TRD_Pos)                       /*!< SCB 
 689:../STM32Cube_FW_N6/Drivers/CMSIS/Include/core_cm55.h **** 
 690:../STM32Cube_FW_N6/Drivers/CMSIS/Include/core_cm55.h **** #define SCB_CCR_LOB_Pos                    19U                                            /*!< SCB 
 691:../STM32Cube_FW_N6/Drivers/CMSIS/Include/core_cm55.h **** #define SCB_CCR_LOB_Msk                    (1UL << SCB_CCR_LOB_Pos)                       /*!< SCB 
 692:../STM32Cube_FW_N6/Drivers/CMSIS/Include/core_cm55.h **** 
 693:../STM32Cube_FW_N6/Drivers/CMSIS/Include/core_cm55.h **** #define SCB_CCR_BP_Pos                     18U                                            /*!< SCB 
 694:../STM32Cube_FW_N6/Drivers/CMSIS/Include/core_cm55.h **** #define SCB_CCR_BP_Msk                     (1UL << SCB_CCR_BP_Pos)                        /*!< SCB 
 695:../STM32Cube_FW_N6/Drivers/CMSIS/Include/core_cm55.h **** 
 696:../STM32Cube_FW_N6/Drivers/CMSIS/Include/core_cm55.h **** #define SCB_CCR_IC_Pos                     17U                                            /*!< SCB 
 697:../STM32Cube_FW_N6/Drivers/CMSIS/Include/core_cm55.h **** #define SCB_CCR_IC_Msk                     (1UL << SCB_CCR_IC_Pos)                        /*!< SCB 
 698:../STM32Cube_FW_N6/Drivers/CMSIS/Include/core_cm55.h **** 
 699:../STM32Cube_FW_N6/Drivers/CMSIS/Include/core_cm55.h **** #define SCB_CCR_DC_Pos                     16U                                            /*!< SCB 
 700:../STM32Cube_FW_N6/Drivers/CMSIS/Include/core_cm55.h **** #define SCB_CCR_DC_Msk                     (1UL << SCB_CCR_DC_Pos)                        /*!< SCB 
 701:../STM32Cube_FW_N6/Drivers/CMSIS/Include/core_cm55.h **** 
 702:../STM32Cube_FW_N6/Drivers/CMSIS/Include/core_cm55.h **** #define SCB_CCR_STKOFHFNMIGN_Pos           10U                                            /*!< SCB 
 703:../STM32Cube_FW_N6/Drivers/CMSIS/Include/core_cm55.h **** #define SCB_CCR_STKOFHFNMIGN_Msk           (1UL << SCB_CCR_STKOFHFNMIGN_Pos)              /*!< SCB 
 704:../STM32Cube_FW_N6/Drivers/CMSIS/Include/core_cm55.h **** 
 705:../STM32Cube_FW_N6/Drivers/CMSIS/Include/core_cm55.h **** #define SCB_CCR_BFHFNMIGN_Pos               8U                                            /*!< SCB 
 706:../STM32Cube_FW_N6/Drivers/CMSIS/Include/core_cm55.h **** #define SCB_CCR_BFHFNMIGN_Msk              (1UL << SCB_CCR_BFHFNMIGN_Pos)                 /*!< SCB 
 707:../STM32Cube_FW_N6/Drivers/CMSIS/Include/core_cm55.h **** 
 708:../STM32Cube_FW_N6/Drivers/CMSIS/Include/core_cm55.h **** #define SCB_CCR_DIV_0_TRP_Pos               4U                                            /*!< SCB 
 709:../STM32Cube_FW_N6/Drivers/CMSIS/Include/core_cm55.h **** #define SCB_CCR_DIV_0_TRP_Msk              (1UL << SCB_CCR_DIV_0_TRP_Pos)                 /*!< SCB 
 710:../STM32Cube_FW_N6/Drivers/CMSIS/Include/core_cm55.h **** 
 711:../STM32Cube_FW_N6/Drivers/CMSIS/Include/core_cm55.h **** #define SCB_CCR_UNALIGN_TRP_Pos             3U                                            /*!< SCB 
 712:../STM32Cube_FW_N6/Drivers/CMSIS/Include/core_cm55.h **** #define SCB_CCR_UNALIGN_TRP_Msk            (1UL << SCB_CCR_UNALIGN_TRP_Pos)               /*!< SCB 
 713:../STM32Cube_FW_N6/Drivers/CMSIS/Include/core_cm55.h **** 
 714:../STM32Cube_FW_N6/Drivers/CMSIS/Include/core_cm55.h **** #define SCB_CCR_USERSETMPEND_Pos            1U                                            /*!< SCB 
 715:../STM32Cube_FW_N6/Drivers/CMSIS/Include/core_cm55.h **** #define SCB_CCR_USERSETMPEND_Msk           (1UL << SCB_CCR_USERSETMPEND_Pos)              /*!< SCB 
 716:../STM32Cube_FW_N6/Drivers/CMSIS/Include/core_cm55.h **** 
 717:../STM32Cube_FW_N6/Drivers/CMSIS/Include/core_cm55.h **** /** \brief SCB System Handler Control and State Register Definitions */
 718:../STM32Cube_FW_N6/Drivers/CMSIS/Include/core_cm55.h **** #define SCB_SHCSR_HARDFAULTPENDED_Pos      21U                                            /*!< SCB 
 719:../STM32Cube_FW_N6/Drivers/CMSIS/Include/core_cm55.h **** #define SCB_SHCSR_HARDFAULTPENDED_Msk      (1UL << SCB_SHCSR_HARDFAULTPENDED_Pos)         /*!< SCB 
 720:../STM32Cube_FW_N6/Drivers/CMSIS/Include/core_cm55.h **** 
 721:../STM32Cube_FW_N6/Drivers/CMSIS/Include/core_cm55.h **** #define SCB_SHCSR_SECUREFAULTPENDED_Pos    20U                                            /*!< SCB 
 722:../STM32Cube_FW_N6/Drivers/CMSIS/Include/core_cm55.h **** #define SCB_SHCSR_SECUREFAULTPENDED_Msk    (1UL << SCB_SHCSR_SECUREFAULTPENDED_Pos)       /*!< SCB 
 723:../STM32Cube_FW_N6/Drivers/CMSIS/Include/core_cm55.h **** 
 724:../STM32Cube_FW_N6/Drivers/CMSIS/Include/core_cm55.h **** #define SCB_SHCSR_SECUREFAULTENA_Pos       19U                                            /*!< SCB 
 725:../STM32Cube_FW_N6/Drivers/CMSIS/Include/core_cm55.h **** #define SCB_SHCSR_SECUREFAULTENA_Msk       (1UL << SCB_SHCSR_SECUREFAULTENA_Pos)          /*!< SCB 
 726:../STM32Cube_FW_N6/Drivers/CMSIS/Include/core_cm55.h **** 
 727:../STM32Cube_FW_N6/Drivers/CMSIS/Include/core_cm55.h **** #define SCB_SHCSR_USGFAULTENA_Pos          18U                                            /*!< SCB 
 728:../STM32Cube_FW_N6/Drivers/CMSIS/Include/core_cm55.h **** #define SCB_SHCSR_USGFAULTENA_Msk          (1UL << SCB_SHCSR_USGFAULTENA_Pos)             /*!< SCB 
 729:../STM32Cube_FW_N6/Drivers/CMSIS/Include/core_cm55.h **** 
 730:../STM32Cube_FW_N6/Drivers/CMSIS/Include/core_cm55.h **** #define SCB_SHCSR_BUSFAULTENA_Pos          17U                                            /*!< SCB 
 731:../STM32Cube_FW_N6/Drivers/CMSIS/Include/core_cm55.h **** #define SCB_SHCSR_BUSFAULTENA_Msk          (1UL << SCB_SHCSR_BUSFAULTENA_Pos)             /*!< SCB 
 732:../STM32Cube_FW_N6/Drivers/CMSIS/Include/core_cm55.h **** 
 733:../STM32Cube_FW_N6/Drivers/CMSIS/Include/core_cm55.h **** #define SCB_SHCSR_MEMFAULTENA_Pos          16U                                            /*!< SCB 
 734:../STM32Cube_FW_N6/Drivers/CMSIS/Include/core_cm55.h **** #define SCB_SHCSR_MEMFAULTENA_Msk          (1UL << SCB_SHCSR_MEMFAULTENA_Pos)             /*!< SCB 
ARM GAS  /tmp/ccmL1RJj.s 			page 51


 735:../STM32Cube_FW_N6/Drivers/CMSIS/Include/core_cm55.h **** 
 736:../STM32Cube_FW_N6/Drivers/CMSIS/Include/core_cm55.h **** #define SCB_SHCSR_SVCALLPENDED_Pos         15U                                            /*!< SCB 
 737:../STM32Cube_FW_N6/Drivers/CMSIS/Include/core_cm55.h **** #define SCB_SHCSR_SVCALLPENDED_Msk         (1UL << SCB_SHCSR_SVCALLPENDED_Pos)            /*!< SCB 
 738:../STM32Cube_FW_N6/Drivers/CMSIS/Include/core_cm55.h **** 
 739:../STM32Cube_FW_N6/Drivers/CMSIS/Include/core_cm55.h **** #define SCB_SHCSR_BUSFAULTPENDED_Pos       14U                                            /*!< SCB 
 740:../STM32Cube_FW_N6/Drivers/CMSIS/Include/core_cm55.h **** #define SCB_SHCSR_BUSFAULTPENDED_Msk       (1UL << SCB_SHCSR_BUSFAULTPENDED_Pos)          /*!< SCB 
 741:../STM32Cube_FW_N6/Drivers/CMSIS/Include/core_cm55.h **** 
 742:../STM32Cube_FW_N6/Drivers/CMSIS/Include/core_cm55.h **** #define SCB_SHCSR_MEMFAULTPENDED_Pos       13U                                            /*!< SCB 
 743:../STM32Cube_FW_N6/Drivers/CMSIS/Include/core_cm55.h **** #define SCB_SHCSR_MEMFAULTPENDED_Msk       (1UL << SCB_SHCSR_MEMFAULTPENDED_Pos)          /*!< SCB 
 744:../STM32Cube_FW_N6/Drivers/CMSIS/Include/core_cm55.h **** 
 745:../STM32Cube_FW_N6/Drivers/CMSIS/Include/core_cm55.h **** #define SCB_SHCSR_USGFAULTPENDED_Pos       12U                                            /*!< SCB 
