ARM GAS  /tmp/ccTQcp07.s 			page 1


   1              		.arch armv8.1-m.main
   2              		.fpu fpv5-d16
   3              		.arch_extension dsp
   4              		.arch_extension fp
   5              		.arch_extension fp.dp
   6              		.arch_extension mve
   7              		.arch_extension mve.fp
   8              		.eabi_attribute 5, "cortex-m55"
   9              		.eabi_attribute 28, 1
  10              		.eabi_attribute 20, 1
  11              		.eabi_attribute 21, 1
  12              		.eabi_attribute 23, 3
  13              		.eabi_attribute 24, 1
  14              		.eabi_attribute 25, 1
  15              		.eabi_attribute 26, 1
  16              		.eabi_attribute 30, 4
  17              		.eabi_attribute 34, 1
  18              		.eabi_attribute 38, 1
  19              		.eabi_attribute 18, 4
  20              		.file	"ll_aton_lib.c"
  21              		.text
  22              	.Ltext0:
  23              		.cfi_sections	.debug_frame
  24              		.file 1 "../Middlewares/stedgeai-lib/Npu/ll_aton/ll_aton_lib.c"
  25              		.section	.text.LL_Buffer_addr_end,"ax",%progbits
  26              		.align	1
  27              		.syntax unified
  28              		.thumb
  29              		.thumb_func
  31              	LL_Buffer_addr_end:
  32              	.LVL0:
  33              	.LFB328:
  34              		.file 2 "../Middlewares/stedgeai-lib/Npu/ll_aton/ll_aton_NN_interface.h"
   1:../Middlewares/stedgeai-lib/Npu/ll_aton/ll_aton_NN_interface.h **** /**
   2:../Middlewares/stedgeai-lib/Npu/ll_aton/ll_aton_NN_interface.h ****  ******************************************************************************
   3:../Middlewares/stedgeai-lib/Npu/ll_aton/ll_aton_NN_interface.h ****  * @file    ll_aton_NN_interface.h
   4:../Middlewares/stedgeai-lib/Npu/ll_aton/ll_aton_NN_interface.h ****  * @author  SRA Artificial Intelligence & Embedded Architectures
   5:../Middlewares/stedgeai-lib/Npu/ll_aton/ll_aton_NN_interface.h ****  * @brief   Interface that defines a NN generated by the AtoNN Compiler.
   6:../Middlewares/stedgeai-lib/Npu/ll_aton/ll_aton_NN_interface.h ****  ******************************************************************************
   7:../Middlewares/stedgeai-lib/Npu/ll_aton/ll_aton_NN_interface.h ****  * @attention
   8:../Middlewares/stedgeai-lib/Npu/ll_aton/ll_aton_NN_interface.h ****  *
   9:../Middlewares/stedgeai-lib/Npu/ll_aton/ll_aton_NN_interface.h ****  * Copyright (c) 2024 STMicroelectronics.
  10:../Middlewares/stedgeai-lib/Npu/ll_aton/ll_aton_NN_interface.h ****  * All rights reserved.
  11:../Middlewares/stedgeai-lib/Npu/ll_aton/ll_aton_NN_interface.h ****  *
  12:../Middlewares/stedgeai-lib/Npu/ll_aton/ll_aton_NN_interface.h ****  * This software is licensed under terms that can be found in the LICENSE file
  13:../Middlewares/stedgeai-lib/Npu/ll_aton/ll_aton_NN_interface.h ****  * in the root directory of this software component.
  14:../Middlewares/stedgeai-lib/Npu/ll_aton/ll_aton_NN_interface.h ****  * If no LICENSE file comes with this software, it is provided AS-IS.
  15:../Middlewares/stedgeai-lib/Npu/ll_aton/ll_aton_NN_interface.h ****  *
  16:../Middlewares/stedgeai-lib/Npu/ll_aton/ll_aton_NN_interface.h ****  ******************************************************************************
  17:../Middlewares/stedgeai-lib/Npu/ll_aton/ll_aton_NN_interface.h ****  */
  18:../Middlewares/stedgeai-lib/Npu/ll_aton/ll_aton_NN_interface.h **** 
  19:../Middlewares/stedgeai-lib/Npu/ll_aton/ll_aton_NN_interface.h **** #ifndef __LL_ATON_NN_INTERFACE_H
  20:../Middlewares/stedgeai-lib/Npu/ll_aton/ll_aton_NN_interface.h **** #define __LL_ATON_NN_INTERFACE_H
  21:../Middlewares/stedgeai-lib/Npu/ll_aton/ll_aton_NN_interface.h **** 
  22:../Middlewares/stedgeai-lib/Npu/ll_aton/ll_aton_NN_interface.h **** #ifdef __cplusplus
  23:../Middlewares/stedgeai-lib/Npu/ll_aton/ll_aton_NN_interface.h **** extern "C"
  24:../Middlewares/stedgeai-lib/Npu/ll_aton/ll_aton_NN_interface.h **** {
ARM GAS  /tmp/ccTQcp07.s 			page 2


  25:../Middlewares/stedgeai-lib/Npu/ll_aton/ll_aton_NN_interface.h **** #endif
  26:../Middlewares/stedgeai-lib/Npu/ll_aton/ll_aton_NN_interface.h **** 
  27:../Middlewares/stedgeai-lib/Npu/ll_aton/ll_aton_NN_interface.h **** #include <stdbool.h>
  28:../Middlewares/stedgeai-lib/Npu/ll_aton/ll_aton_NN_interface.h **** #include <stddef.h>
  29:../Middlewares/stedgeai-lib/Npu/ll_aton/ll_aton_NN_interface.h **** #include <stdint.h>
  30:../Middlewares/stedgeai-lib/Npu/ll_aton/ll_aton_NN_interface.h **** 
  31:../Middlewares/stedgeai-lib/Npu/ll_aton/ll_aton_NN_interface.h **** #include "ll_aton_config.h"
  32:../Middlewares/stedgeai-lib/Npu/ll_aton/ll_aton_NN_interface.h **** 
  33:../Middlewares/stedgeai-lib/Npu/ll_aton/ll_aton_NN_interface.h **** #include "ll_aton_attributes.h"
  34:../Middlewares/stedgeai-lib/Npu/ll_aton/ll_aton_NN_interface.h **** #include "ll_aton_cipher.h"
  35:../Middlewares/stedgeai-lib/Npu/ll_aton/ll_aton_NN_interface.h **** #include "ll_aton_util.h"
  36:../Middlewares/stedgeai-lib/Npu/ll_aton/ll_aton_NN_interface.h **** 
  37:../Middlewares/stedgeai-lib/Npu/ll_aton/ll_aton_NN_interface.h ****   /** @defgroup User I/O Return Values & Callback Event Types
  38:../Middlewares/stedgeai-lib/Npu/ll_aton/ll_aton_NN_interface.h ****    * @{
  39:../Middlewares/stedgeai-lib/Npu/ll_aton/ll_aton_NN_interface.h ****    */
  40:../Middlewares/stedgeai-lib/Npu/ll_aton/ll_aton_NN_interface.h **** 
  41:../Middlewares/stedgeai-lib/Npu/ll_aton/ll_aton_NN_interface.h ****   typedef enum LL_ATON_User_IO_Result
  42:../Middlewares/stedgeai-lib/Npu/ll_aton/ll_aton_NN_interface.h ****   {
  43:../Middlewares/stedgeai-lib/Npu/ll_aton/ll_aton_NN_interface.h ****     LL_ATON_User_IO_NOERROR,     /**< */
  44:../Middlewares/stedgeai-lib/Npu/ll_aton/ll_aton_NN_interface.h ****     LL_ATON_User_IO_WRONG_ALIGN, /**< */
  45:../Middlewares/stedgeai-lib/Npu/ll_aton/ll_aton_NN_interface.h ****     LL_ATON_User_IO_WRONG_SIZE,  /**< */
  46:../Middlewares/stedgeai-lib/Npu/ll_aton/ll_aton_NN_interface.h ****     LL_ATON_User_IO_WRONG_INDEX, /**< */
  47:../Middlewares/stedgeai-lib/Npu/ll_aton/ll_aton_NN_interface.h ****   } LL_ATON_User_IO_Result_t;
  48:../Middlewares/stedgeai-lib/Npu/ll_aton/ll_aton_NN_interface.h **** 
  49:../Middlewares/stedgeai-lib/Npu/ll_aton/ll_aton_NN_interface.h ****   typedef enum LL_ATON_RT_Callbacktype
  50:../Middlewares/stedgeai-lib/Npu/ll_aton/ll_aton_NN_interface.h ****   {
  51:../Middlewares/stedgeai-lib/Npu/ll_aton/ll_aton_NN_interface.h ****     LL_ATON_RT_Callbacktype_PRE_START,  /**< Callback called before start_epoch_block */
  52:../Middlewares/stedgeai-lib/Npu/ll_aton/ll_aton_NN_interface.h ****     LL_ATON_RT_Callbacktype_POST_START, /**< Callback called after start_epoch_block */
  53:../Middlewares/stedgeai-lib/Npu/ll_aton/ll_aton_NN_interface.h ****     LL_ATON_RT_Callbacktype_PRE_END,    /**< Callback called before end_epoch_block */
  54:../Middlewares/stedgeai-lib/Npu/ll_aton/ll_aton_NN_interface.h ****     LL_ATON_RT_Callbacktype_POST_END,   /**< Callback called after end_epoch_block */
  55:../Middlewares/stedgeai-lib/Npu/ll_aton/ll_aton_NN_interface.h ****     LL_ATON_RT_Callbacktype_NN_Init,    /**< Callback called after `LL_ATON_RT_Init_Network`,
  56:../Middlewares/stedgeai-lib/Npu/ll_aton/ll_aton_NN_interface.h ****                                          *     NOTE: 3rd parameter passed is `NULL` */
  57:../Middlewares/stedgeai-lib/Npu/ll_aton/ll_aton_NN_interface.h ****     LL_ATON_RT_Callbacktype_NN_DeInit,  /**< Callback called after `LL_ATON_RT_DeInit_Network`,
  58:../Middlewares/stedgeai-lib/Npu/ll_aton/ll_aton_NN_interface.h ****                                          *     NOTE: 3rd parameter passed is `NULL` */
  59:../Middlewares/stedgeai-lib/Npu/ll_aton/ll_aton_NN_interface.h ****     LL_ATON_RT_Callbacktype_RT_Init,    /**< Callback called after `LL_ATON_RT_RuntimeInit` */
  60:../Middlewares/stedgeai-lib/Npu/ll_aton/ll_aton_NN_interface.h ****     LL_ATON_RT_Callbacktype_RT_Deinit,  /**< Callback called before `LL_ATON_RT_RuntimeDeInit` */
  61:../Middlewares/stedgeai-lib/Npu/ll_aton/ll_aton_NN_interface.h ****   } LL_ATON_RT_Callbacktype_t;
  62:../Middlewares/stedgeai-lib/Npu/ll_aton/ll_aton_NN_interface.h **** 
  63:../Middlewares/stedgeai-lib/Npu/ll_aton/ll_aton_NN_interface.h ****   /**
  64:../Middlewares/stedgeai-lib/Npu/ll_aton/ll_aton_NN_interface.h ****    * @}
  65:../Middlewares/stedgeai-lib/Npu/ll_aton/ll_aton_NN_interface.h ****    */
  66:../Middlewares/stedgeai-lib/Npu/ll_aton/ll_aton_NN_interface.h **** 
  67:../Middlewares/stedgeai-lib/Npu/ll_aton/ll_aton_NN_interface.h ****   // Forward declarations
  68:../Middlewares/stedgeai-lib/Npu/ll_aton/ll_aton_NN_interface.h ****   struct __nn_instance_struct;
  69:../Middlewares/stedgeai-lib/Npu/ll_aton/ll_aton_NN_interface.h ****   typedef struct __nn_instance_struct NN_Instance_TypeDef;
  70:../Middlewares/stedgeai-lib/Npu/ll_aton/ll_aton_NN_interface.h ****   struct __epoch_block_item;
  71:../Middlewares/stedgeai-lib/Npu/ll_aton/ll_aton_NN_interface.h ****   typedef struct __epoch_block_item LL_ATON_RT_EpochBlockItem_t;
  72:../Middlewares/stedgeai-lib/Npu/ll_aton/ll_aton_NN_interface.h **** 
  73:../Middlewares/stedgeai-lib/Npu/ll_aton/ll_aton_NN_interface.h ****   // Backward compatibility
  74:../Middlewares/stedgeai-lib/Npu/ll_aton/ll_aton_NN_interface.h ****   typedef LL_ATON_RT_EpochBlockItem_t
  75:../Middlewares/stedgeai-lib/Npu/ll_aton/ll_aton_NN_interface.h ****       EpochBlock_ItemTypeDef; // Note: type name `EpochBlock_ItemTypeDef` is deprecated and
  76:../Middlewares/stedgeai-lib/Npu/ll_aton/ll_aton_NN_interface.h ****                               //       will be removed in future releases of the ATON runtime!
  77:../Middlewares/stedgeai-lib/Npu/ll_aton/ll_aton_NN_interface.h **** 
  78:../Middlewares/stedgeai-lib/Npu/ll_aton/ll_aton_NN_interface.h ****   /** @defgroup Handle-style Data Types for Epoch Blocks
  79:../Middlewares/stedgeai-lib/Npu/ll_aton/ll_aton_NN_interface.h ****    * @{
  80:../Middlewares/stedgeai-lib/Npu/ll_aton/ll_aton_NN_interface.h ****    */
  81:../Middlewares/stedgeai-lib/Npu/ll_aton/ll_aton_NN_interface.h **** 
ARM GAS  /tmp/ccTQcp07.s 			page 3


  82:../Middlewares/stedgeai-lib/Npu/ll_aton/ll_aton_NN_interface.h ****   /* this is needed to avoid some problems with compilers (e.g. KEIL) that observe a strict semanti
  83:../Middlewares/stedgeai-lib/Npu/ll_aton/ll_aton_NN_interface.h ****    * pointers to integers in const initializers
  84:../Middlewares/stedgeai-lib/Npu/ll_aton/ll_aton_NN_interface.h ****    */
  85:../Middlewares/stedgeai-lib/Npu/ll_aton/ll_aton_NN_interface.h ****   typedef union
  86:../Middlewares/stedgeai-lib/Npu/ll_aton/ll_aton_NN_interface.h ****   {
  87:../Middlewares/stedgeai-lib/Npu/ll_aton/ll_aton_NN_interface.h ****     unsigned char *p;
  88:../Middlewares/stedgeai-lib/Npu/ll_aton/ll_aton_NN_interface.h ****     uintptr_t i;
  89:../Middlewares/stedgeai-lib/Npu/ll_aton/ll_aton_NN_interface.h ****   } __LL_address_t;
  90:../Middlewares/stedgeai-lib/Npu/ll_aton/ll_aton_NN_interface.h **** 
  91:../Middlewares/stedgeai-lib/Npu/ll_aton/ll_aton_NN_interface.h ****   typedef void (*EpochBlock_FuncPtr_t)(const LL_ATON_RT_EpochBlockItem_t *epoch_block,
  92:../Middlewares/stedgeai-lib/Npu/ll_aton/ll_aton_NN_interface.h ****                                        const NN_Instance_TypeDef *nn_instance);
  93:../Middlewares/stedgeai-lib/Npu/ll_aton/ll_aton_NN_interface.h **** 
  94:../Middlewares/stedgeai-lib/Npu/ll_aton/ll_aton_NN_interface.h ****   typedef enum
  95:../Middlewares/stedgeai-lib/Npu/ll_aton/ll_aton_NN_interface.h ****   {
  96:../Middlewares/stedgeai-lib/Npu/ll_aton/ll_aton_NN_interface.h ****     EpochBlock_Flags_NONE = 0x0,                 /**< */
  97:../Middlewares/stedgeai-lib/Npu/ll_aton/ll_aton_NN_interface.h ****     EpochBlock_Flags_epoch_start = (0x1 << 0),   /**< First EpochBlock of an Epoch */
  98:../Middlewares/stedgeai-lib/Npu/ll_aton/ll_aton_NN_interface.h ****     EpochBlock_Flags_epoch_end = (0x1 << 1),     /**< Last EpochBlock of an Epoch */
  99:../Middlewares/stedgeai-lib/Npu/ll_aton/ll_aton_NN_interface.h ****     EpochBlock_Flags_blob = (0x1 << 2),          /**< Item is an Epoch Blob */
 100:../Middlewares/stedgeai-lib/Npu/ll_aton/ll_aton_NN_interface.h ****     EpochBlock_Flags_last_eb = (0x1 << 3),       /**< Last EpochBlock */
 101:../Middlewares/stedgeai-lib/Npu/ll_aton/ll_aton_NN_interface.h ****     EpochBlock_Flags_pure_hw = (0x1 << 4),       /**< Pure HW EpochBlock */
 102:../Middlewares/stedgeai-lib/Npu/ll_aton/ll_aton_NN_interface.h ****     EpochBlock_Flags_pure_sw = (0x1 << 5),       /**< Pure SW EpochBlock */
 103:../Middlewares/stedgeai-lib/Npu/ll_aton/ll_aton_NN_interface.h ****     EpochBlock_Flags_hybrid = (0x1 << 6),        /**< Hybrid EpochBlock (i.e. mixed HW/SW) */
 104:../Middlewares/stedgeai-lib/Npu/ll_aton/ll_aton_NN_interface.h ****     EpochBlock_Flags_internal = (0x1 << 7),      /**< ATON lib internal EpochBlock (used to impleme
 105:../Middlewares/stedgeai-lib/Npu/ll_aton/ll_aton_NN_interface.h ****     EpochBlock_Flags_blob_encrypted = (0x1 << 8) /**< The blob is encrypted and must be decrypted o
 106:../Middlewares/stedgeai-lib/Npu/ll_aton/ll_aton_NN_interface.h ****   } EpochBlock_Flags_t;
 107:../Middlewares/stedgeai-lib/Npu/ll_aton/ll_aton_NN_interface.h **** 
 108:../Middlewares/stedgeai-lib/Npu/ll_aton/ll_aton_NN_interface.h ****   struct __epoch_block_item
 109:../Middlewares/stedgeai-lib/Npu/ll_aton/ll_aton_NN_interface.h ****   {
 110:../Middlewares/stedgeai-lib/Npu/ll_aton/ll_aton_NN_interface.h ****     EpochBlock_FuncPtr_t start_epoch_block; /**< Method to execute the EpochBlock;
 111:../Middlewares/stedgeai-lib/Npu/ll_aton/ll_aton_NN_interface.h ****                                                  might be `NULL` */
 112:../Middlewares/stedgeai-lib/Npu/ll_aton/ll_aton_NN_interface.h ****     EpochBlock_FuncPtr_t
 113:../Middlewares/stedgeai-lib/Npu/ll_aton/ll_aton_NN_interface.h ****         end_epoch_block;    /**< Method to be executed when the EpochBlock ends;
 114:../Middlewares/stedgeai-lib/Npu/ll_aton/ll_aton_NN_interface.h ****                                  Note: all SW & hybrid operators have only an `end_epoch_block` fun
 115:../Middlewares/stedgeai-lib/Npu/ll_aton/ll_aton_NN_interface.h ****     uintptr_t blob_address; /**< Blob address (in case this EpochBlock represents an epoch blob) */
 116:../Middlewares/stedgeai-lib/Npu/ll_aton/ll_aton_NN_interface.h ****     uint32_t wait_mask;     /**< Mask needed to check when an EpochBlock ends
 117:../Middlewares/stedgeai-lib/Npu/ll_aton/ll_aton_NN_interface.h ****                              *    - if epoch blob: number (not bitmask) of epoch controller unit to
 118:../Middlewares/stedgeai-lib/Npu/ll_aton/ll_aton_NN_interface.h ****                              *    - otherwise: bitmask with all output streaming engines to wait fo
 119:../Middlewares/stedgeai-lib/Npu/ll_aton/ll_aton_NN_interface.h ****     uint16_t flags;         /**< EpochBlock flags */
 120:../Middlewares/stedgeai-lib/Npu/ll_aton/ll_aton_NN_interface.h **** #ifdef LL_ATON_EB_DBG_INFO
 121:../Middlewares/stedgeai-lib/Npu/ll_aton/ll_aton_NN_interface.h ****     int16_t epoch_num;             /**< Epoch number / First epoch number within blob */
 122:../Middlewares/stedgeai-lib/Npu/ll_aton/ll_aton_NN_interface.h ****     int16_t last_epoch_num;        /**< Epoch number / Last epoch number within blob */
 123:../Middlewares/stedgeai-lib/Npu/ll_aton/ll_aton_NN_interface.h ****     uint32_t in_streng_mask;       /**< Debug information about input streaming engines used in epo
 124:../Middlewares/stedgeai-lib/Npu/ll_aton/ll_aton_NN_interface.h ****     uint32_t out_streng_mask;      /**< Debug information about output streaming engines used in ep
 125:../Middlewares/stedgeai-lib/Npu/ll_aton/ll_aton_NN_interface.h ****     uint64_t estimated_npu_cycles; /**< Debug information estimates for NPU cycles in epoch w/o mem
 126:../Middlewares/stedgeai-lib/Npu/ll_aton/ll_aton_NN_interface.h ****     uint64_t estimated_tot_cycles; /**< Debug information estimates for NPU cycles in epoch w/ memo
 127:../Middlewares/stedgeai-lib/Npu/ll_aton/ll_aton_NN_interface.h **** #endif                             // LL_ATON_EB_DBG_INFO
 128:../Middlewares/stedgeai-lib/Npu/ll_aton/ll_aton_NN_interface.h ****   };
 129:../Middlewares/stedgeai-lib/Npu/ll_aton/ll_aton_NN_interface.h **** 
 130:../Middlewares/stedgeai-lib/Npu/ll_aton/ll_aton_NN_interface.h ****   /**
 131:../Middlewares/stedgeai-lib/Npu/ll_aton/ll_aton_NN_interface.h ****    * @}
 132:../Middlewares/stedgeai-lib/Npu/ll_aton/ll_aton_NN_interface.h ****    */
 133:../Middlewares/stedgeai-lib/Npu/ll_aton/ll_aton_NN_interface.h **** 
 134:../Middlewares/stedgeai-lib/Npu/ll_aton/ll_aton_NN_interface.h ****   /** @defgroup Helper Function Declarations for User Callbacks
 135:../Middlewares/stedgeai-lib/Npu/ll_aton/ll_aton_NN_interface.h ****    * @{
 136:../Middlewares/stedgeai-lib/Npu/ll_aton/ll_aton_NN_interface.h ****    */
 137:../Middlewares/stedgeai-lib/Npu/ll_aton/ll_aton_NN_interface.h **** 
 138:../Middlewares/stedgeai-lib/Npu/ll_aton/ll_aton_NN_interface.h ****   /**
ARM GAS  /tmp/ccTQcp07.s 			page 4


 139:../Middlewares/stedgeai-lib/Npu/ll_aton/ll_aton_NN_interface.h ****    * @brief Checks if the pointed element is the last one of an array of `const LL_ATON_RT_EpochBlo
 140:../Middlewares/stedgeai-lib/Npu/ll_aton/ll_aton_NN_interface.h ****    *
 141:../Middlewares/stedgeai-lib/Npu/ll_aton/ll_aton_NN_interface.h ****    */
 142:../Middlewares/stedgeai-lib/Npu/ll_aton/ll_aton_NN_interface.h ****   static inline bool EpochBlock_IsLastEpochBlock(const LL_ATON_RT_EpochBlockItem_t *eb);
 143:../Middlewares/stedgeai-lib/Npu/ll_aton/ll_aton_NN_interface.h **** 
 144:../Middlewares/stedgeai-lib/Npu/ll_aton/ll_aton_NN_interface.h ****   /**
 145:../Middlewares/stedgeai-lib/Npu/ll_aton/ll_aton_NN_interface.h ****    * @brief Checks if the pointed element is the first EpochBlock of an Epoch
 146:../Middlewares/stedgeai-lib/Npu/ll_aton/ll_aton_NN_interface.h ****    *
 147:../Middlewares/stedgeai-lib/Npu/ll_aton/ll_aton_NN_interface.h ****    */
 148:../Middlewares/stedgeai-lib/Npu/ll_aton/ll_aton_NN_interface.h ****   static inline bool EpochBlock_IsEpochStart(const LL_ATON_RT_EpochBlockItem_t *eb);
 149:../Middlewares/stedgeai-lib/Npu/ll_aton/ll_aton_NN_interface.h **** 
 150:../Middlewares/stedgeai-lib/Npu/ll_aton/ll_aton_NN_interface.h ****   /**
 151:../Middlewares/stedgeai-lib/Npu/ll_aton/ll_aton_NN_interface.h ****    * @brief Checks if the pointed element is the last EpochBlock of an Epoch
 152:../Middlewares/stedgeai-lib/Npu/ll_aton/ll_aton_NN_interface.h ****    *
 153:../Middlewares/stedgeai-lib/Npu/ll_aton/ll_aton_NN_interface.h ****    */
 154:../Middlewares/stedgeai-lib/Npu/ll_aton/ll_aton_NN_interface.h ****   static inline bool EpochBlock_IsEpochEnd(const LL_ATON_RT_EpochBlockItem_t *eb);
 155:../Middlewares/stedgeai-lib/Npu/ll_aton/ll_aton_NN_interface.h **** 
 156:../Middlewares/stedgeai-lib/Npu/ll_aton/ll_aton_NN_interface.h ****   /**
 157:../Middlewares/stedgeai-lib/Npu/ll_aton/ll_aton_NN_interface.h ****    * @brief Checks if the pointed element is the an Epoch Blob
 158:../Middlewares/stedgeai-lib/Npu/ll_aton/ll_aton_NN_interface.h ****    *
 159:../Middlewares/stedgeai-lib/Npu/ll_aton/ll_aton_NN_interface.h ****    */
 160:../Middlewares/stedgeai-lib/Npu/ll_aton/ll_aton_NN_interface.h ****   static inline bool EpochBlock_IsEpochBlob(const LL_ATON_RT_EpochBlockItem_t *eb);
 161:../Middlewares/stedgeai-lib/Npu/ll_aton/ll_aton_NN_interface.h **** 
 162:../Middlewares/stedgeai-lib/Npu/ll_aton/ll_aton_NN_interface.h ****   /**
 163:../Middlewares/stedgeai-lib/Npu/ll_aton/ll_aton_NN_interface.h ****    * @brief Checks if - in case this epoch is a blob (see above) - the blob is encrypted
 164:../Middlewares/stedgeai-lib/Npu/ll_aton/ll_aton_NN_interface.h ****    *
 165:../Middlewares/stedgeai-lib/Npu/ll_aton/ll_aton_NN_interface.h ****    */
 166:../Middlewares/stedgeai-lib/Npu/ll_aton/ll_aton_NN_interface.h ****   static inline bool EpochBlock_IsBlobEncrypted(const LL_ATON_RT_EpochBlockItem_t *eb);
 167:../Middlewares/stedgeai-lib/Npu/ll_aton/ll_aton_NN_interface.h **** 
 168:../Middlewares/stedgeai-lib/Npu/ll_aton/ll_aton_NN_interface.h ****   /**
 169:../Middlewares/stedgeai-lib/Npu/ll_aton/ll_aton_NN_interface.h ****    * @brief Checks if the pointed element is pure SW epoch
 170:../Middlewares/stedgeai-lib/Npu/ll_aton/ll_aton_NN_interface.h ****    *
 171:../Middlewares/stedgeai-lib/Npu/ll_aton/ll_aton_NN_interface.h ****    */
 172:../Middlewares/stedgeai-lib/Npu/ll_aton/ll_aton_NN_interface.h ****   static inline bool EpochBlock_IsEpochPureSW(const LL_ATON_RT_EpochBlockItem_t *eb);
 173:../Middlewares/stedgeai-lib/Npu/ll_aton/ll_aton_NN_interface.h **** 
 174:../Middlewares/stedgeai-lib/Npu/ll_aton/ll_aton_NN_interface.h ****   /**
 175:../Middlewares/stedgeai-lib/Npu/ll_aton/ll_aton_NN_interface.h ****    * @brief Checks if the pointed element is a pure HW or mixed SW/HW epoch
 176:../Middlewares/stedgeai-lib/Npu/ll_aton/ll_aton_NN_interface.h ****    *
 177:../Middlewares/stedgeai-lib/Npu/ll_aton/ll_aton_NN_interface.h ****    */
 178:../Middlewares/stedgeai-lib/Npu/ll_aton/ll_aton_NN_interface.h ****   static inline bool EpochBlock_IsEpochPureHW(const LL_ATON_RT_EpochBlockItem_t *eb);
 179:../Middlewares/stedgeai-lib/Npu/ll_aton/ll_aton_NN_interface.h **** 
 180:../Middlewares/stedgeai-lib/Npu/ll_aton/ll_aton_NN_interface.h ****   /**
 181:../Middlewares/stedgeai-lib/Npu/ll_aton/ll_aton_NN_interface.h ****    * @brief Checks if the pointed element is a hybrid epoch
 182:../Middlewares/stedgeai-lib/Npu/ll_aton/ll_aton_NN_interface.h ****    *
 183:../Middlewares/stedgeai-lib/Npu/ll_aton/ll_aton_NN_interface.h ****    */
 184:../Middlewares/stedgeai-lib/Npu/ll_aton/ll_aton_NN_interface.h ****   static inline bool EpochBlock_IsEpochHybrid(const LL_ATON_RT_EpochBlockItem_t *eb);
 185:../Middlewares/stedgeai-lib/Npu/ll_aton/ll_aton_NN_interface.h **** 
 186:../Middlewares/stedgeai-lib/Npu/ll_aton/ll_aton_NN_interface.h ****   /**
 187:../Middlewares/stedgeai-lib/Npu/ll_aton/ll_aton_NN_interface.h ****    * @brief Checks if the pointed element is an internal epoch
 188:../Middlewares/stedgeai-lib/Npu/ll_aton/ll_aton_NN_interface.h ****    *
 189:../Middlewares/stedgeai-lib/Npu/ll_aton/ll_aton_NN_interface.h ****    */
 190:../Middlewares/stedgeai-lib/Npu/ll_aton/ll_aton_NN_interface.h ****   static inline bool EpochBlock_IsEpochInternal(const LL_ATON_RT_EpochBlockItem_t *eb);
 191:../Middlewares/stedgeai-lib/Npu/ll_aton/ll_aton_NN_interface.h **** 
 192:../Middlewares/stedgeai-lib/Npu/ll_aton/ll_aton_NN_interface.h ****   /**
 193:../Middlewares/stedgeai-lib/Npu/ll_aton/ll_aton_NN_interface.h ****    * @brief Returns the Epoch controller id to use
 194:../Middlewares/stedgeai-lib/Npu/ll_aton/ll_aton_NN_interface.h ****    *
 195:../Middlewares/stedgeai-lib/Npu/ll_aton/ll_aton_NN_interface.h ****    */
ARM GAS  /tmp/ccTQcp07.s 			page 5


 196:../Middlewares/stedgeai-lib/Npu/ll_aton/ll_aton_NN_interface.h ****   static inline uint32_t EpochBlock_EpochControllerUnit(const LL_ATON_RT_EpochBlockItem_t *eb);
 197:../Middlewares/stedgeai-lib/Npu/ll_aton/ll_aton_NN_interface.h **** 
 198:../Middlewares/stedgeai-lib/Npu/ll_aton/ll_aton_NN_interface.h ****   /**
 199:../Middlewares/stedgeai-lib/Npu/ll_aton/ll_aton_NN_interface.h ****    * @brief Returns the address of the configuration of the epoch controller (the blob address)
 200:../Middlewares/stedgeai-lib/Npu/ll_aton/ll_aton_NN_interface.h ****    *
 201:../Middlewares/stedgeai-lib/Npu/ll_aton/ll_aton_NN_interface.h ****    */
 202:../Middlewares/stedgeai-lib/Npu/ll_aton/ll_aton_NN_interface.h ****   static inline uintptr_t EpochBlock_EpochBlobAddr(const LL_ATON_RT_EpochBlockItem_t *eb);
 203:../Middlewares/stedgeai-lib/Npu/ll_aton/ll_aton_NN_interface.h **** 
 204:../Middlewares/stedgeai-lib/Npu/ll_aton/ll_aton_NN_interface.h ****   /**
 205:../Middlewares/stedgeai-lib/Npu/ll_aton/ll_aton_NN_interface.h ****    * @brief ATON buffer types definition
 206:../Middlewares/stedgeai-lib/Npu/ll_aton/ll_aton_NN_interface.h ****    */
 207:../Middlewares/stedgeai-lib/Npu/ll_aton/ll_aton_NN_interface.h **** 
 208:../Middlewares/stedgeai-lib/Npu/ll_aton/ll_aton_NN_interface.h ****   /**
 209:../Middlewares/stedgeai-lib/Npu/ll_aton/ll_aton_NN_interface.h ****    * @}
 210:../Middlewares/stedgeai-lib/Npu/ll_aton/ll_aton_NN_interface.h ****    */
 211:../Middlewares/stedgeai-lib/Npu/ll_aton/ll_aton_NN_interface.h **** 
 212:../Middlewares/stedgeai-lib/Npu/ll_aton/ll_aton_NN_interface.h ****   /** @defgroup Handle-style Data Types for Input, Output, and Internal Buffers
 213:../Middlewares/stedgeai-lib/Npu/ll_aton/ll_aton_NN_interface.h ****    * @{
 214:../Middlewares/stedgeai-lib/Npu/ll_aton/ll_aton_NN_interface.h ****    */
 215:../Middlewares/stedgeai-lib/Npu/ll_aton/ll_aton_NN_interface.h **** 
 216:../Middlewares/stedgeai-lib/Npu/ll_aton/ll_aton_NN_interface.h ****   typedef enum
 217:../Middlewares/stedgeai-lib/Npu/ll_aton/ll_aton_NN_interface.h ****   {
 218:../Middlewares/stedgeai-lib/Npu/ll_aton/ll_aton_NN_interface.h ****     DataType_UNDEFINED = 0,
 219:../Middlewares/stedgeai-lib/Npu/ll_aton/ll_aton_NN_interface.h ****     DataType_FLOAT = 1,
 220:../Middlewares/stedgeai-lib/Npu/ll_aton/ll_aton_NN_interface.h ****     DataType_UINT2 = 2,
 221:../Middlewares/stedgeai-lib/Npu/ll_aton/ll_aton_NN_interface.h ****     DataType_INT2 = 3,
 222:../Middlewares/stedgeai-lib/Npu/ll_aton/ll_aton_NN_interface.h ****     DataType_UINT4 = 4,
 223:../Middlewares/stedgeai-lib/Npu/ll_aton/ll_aton_NN_interface.h ****     DataType_INT4 = 5,
 224:../Middlewares/stedgeai-lib/Npu/ll_aton/ll_aton_NN_interface.h ****     DataType_UINT8 = 6,
 225:../Middlewares/stedgeai-lib/Npu/ll_aton/ll_aton_NN_interface.h ****     DataType_INT8 = 7,
 226:../Middlewares/stedgeai-lib/Npu/ll_aton/ll_aton_NN_interface.h ****     DataType_UINT16 = 8,
 227:../Middlewares/stedgeai-lib/Npu/ll_aton/ll_aton_NN_interface.h ****     DataType_INT16 = 9,
 228:../Middlewares/stedgeai-lib/Npu/ll_aton/ll_aton_NN_interface.h ****     DataType_INT32 = 10,
 229:../Middlewares/stedgeai-lib/Npu/ll_aton/ll_aton_NN_interface.h ****     DataType_INT64 = 11,
 230:../Middlewares/stedgeai-lib/Npu/ll_aton/ll_aton_NN_interface.h ****     DataType_STRING = 12,
 231:../Middlewares/stedgeai-lib/Npu/ll_aton/ll_aton_NN_interface.h ****     DataType_BOOL = 13,
 232:../Middlewares/stedgeai-lib/Npu/ll_aton/ll_aton_NN_interface.h ****     DataType_FLOAT16 = 14,
 233:../Middlewares/stedgeai-lib/Npu/ll_aton/ll_aton_NN_interface.h ****     DataType_DOUBLE = 15,
 234:../Middlewares/stedgeai-lib/Npu/ll_aton/ll_aton_NN_interface.h ****     DataType_UINT32 = 16,
 235:../Middlewares/stedgeai-lib/Npu/ll_aton/ll_aton_NN_interface.h ****     DataType_UINT64 = 17,
 236:../Middlewares/stedgeai-lib/Npu/ll_aton/ll_aton_NN_interface.h ****     DataType_COMPLEX64 = 18,
 237:../Middlewares/stedgeai-lib/Npu/ll_aton/ll_aton_NN_interface.h ****     DataType_COMPLEX128 = 19,
 238:../Middlewares/stedgeai-lib/Npu/ll_aton/ll_aton_NN_interface.h ****     DataType_BFLOAT16 = 20,
 239:../Middlewares/stedgeai-lib/Npu/ll_aton/ll_aton_NN_interface.h ****     DataType_FXP = 100 // AtoNN specific
 240:../Middlewares/stedgeai-lib/Npu/ll_aton/ll_aton_NN_interface.h ****   } Buffer_DataType_TypeDef;
 241:../Middlewares/stedgeai-lib/Npu/ll_aton/ll_aton_NN_interface.h **** 
 242:../Middlewares/stedgeai-lib/Npu/ll_aton/ll_aton_NN_interface.h ****   /**
 243:../Middlewares/stedgeai-lib/Npu/ll_aton/ll_aton_NN_interface.h ****    * @brief ATON buffer Channel position
 244:../Middlewares/stedgeai-lib/Npu/ll_aton/ll_aton_NN_interface.h ****    */
 245:../Middlewares/stedgeai-lib/Npu/ll_aton/ll_aton_NN_interface.h **** 
 246:../Middlewares/stedgeai-lib/Npu/ll_aton/ll_aton_NN_interface.h ****   typedef enum
 247:../Middlewares/stedgeai-lib/Npu/ll_aton/ll_aton_NN_interface.h ****   {
 248:../Middlewares/stedgeai-lib/Npu/ll_aton/ll_aton_NN_interface.h ****     CHPos_UNDEFINED = 0, /**< No channel present */
 249:../Middlewares/stedgeai-lib/Npu/ll_aton/ll_aton_NN_interface.h ****     CHPos_First = 1,     /**< Channel First         ( ...B C H W )*/
 250:../Middlewares/stedgeai-lib/Npu/ll_aton/ll_aton_NN_interface.h ****     CHPos_Last = 2,      /**< Channel Last          ( ...B H W C ) */
 251:../Middlewares/stedgeai-lib/Npu/ll_aton/ll_aton_NN_interface.h ****     CHPos_Mixed = 3,     /**< Channel with Batch(b) ( ...B C/b H W b ) */
 252:../Middlewares/stedgeai-lib/Npu/ll_aton/ll_aton_NN_interface.h ****   } Buffer_CHPos_TypeDef;
ARM GAS  /tmp/ccTQcp07.s 			page 6


 253:../Middlewares/stedgeai-lib/Npu/ll_aton/ll_aton_NN_interface.h **** 
 254:../Middlewares/stedgeai-lib/Npu/ll_aton/ll_aton_NN_interface.h ****   /**
 255:../Middlewares/stedgeai-lib/Npu/ll_aton/ll_aton_NN_interface.h ****    * @brief ATON buffer definition
 256:../Middlewares/stedgeai-lib/Npu/ll_aton/ll_aton_NN_interface.h ****    */
 257:../Middlewares/stedgeai-lib/Npu/ll_aton/ll_aton_NN_interface.h ****   typedef struct
 258:../Middlewares/stedgeai-lib/Npu/ll_aton/ll_aton_NN_interface.h ****   {
 259:../Middlewares/stedgeai-lib/Npu/ll_aton/ll_aton_NN_interface.h ****     const char *name;             /**< Buffer name. NULL if end of list */
 260:../Middlewares/stedgeai-lib/Npu/ll_aton/ll_aton_NN_interface.h ****     __LL_address_t addr_base;     /**< Buffer base address */
 261:../Middlewares/stedgeai-lib/Npu/ll_aton/ll_aton_NN_interface.h ****     uint32_t offset_start;        /**< Offset of the buffer start address from the base address */
 262:../Middlewares/stedgeai-lib/Npu/ll_aton/ll_aton_NN_interface.h ****     uint32_t offset_end;          /**< Offset of the buffer end address from the base address
 263:../Middlewares/stedgeai-lib/Npu/ll_aton/ll_aton_NN_interface.h ****                                    *   (first bytes address beyond buffer length) */
 264:../Middlewares/stedgeai-lib/Npu/ll_aton/ll_aton_NN_interface.h ****     uint32_t offset_limit;        /**< Offset of the limiter address from the base address,
 265:../Middlewares/stedgeai-lib/Npu/ll_aton/ll_aton_NN_interface.h ****                                    *   (needed for configuring streaming engines) */
 266:../Middlewares/stedgeai-lib/Npu/ll_aton/ll_aton_NN_interface.h ****     uint8_t is_user_allocated;    /**< */
 267:../Middlewares/stedgeai-lib/Npu/ll_aton/ll_aton_NN_interface.h ****     uint8_t is_param;             /**< */
 268:../Middlewares/stedgeai-lib/Npu/ll_aton/ll_aton_NN_interface.h ****     uint16_t epoch;               /**< */
 269:../Middlewares/stedgeai-lib/Npu/ll_aton/ll_aton_NN_interface.h ****     uint32_t batch;               /**< */
 270:../Middlewares/stedgeai-lib/Npu/ll_aton/ll_aton_NN_interface.h ****     const uint32_t *mem_shape;    /**< shape as seen by the user in memory (only valid for input/ou
 271:../Middlewares/stedgeai-lib/Npu/ll_aton/ll_aton_NN_interface.h ****     uint16_t mem_ndims;           /**< Number of dimensions of mem_shape (Length of mem_shape) */
 272:../Middlewares/stedgeai-lib/Npu/ll_aton/ll_aton_NN_interface.h ****     Buffer_CHPos_TypeDef chpos;   /**< Position  of channels dimension in mem shape */
 273:../Middlewares/stedgeai-lib/Npu/ll_aton/ll_aton_NN_interface.h ****     Buffer_DataType_TypeDef type; /**< */
 274:../Middlewares/stedgeai-lib/Npu/ll_aton/ll_aton_NN_interface.h ****     int8_t Qm;                    /**< */
 275:../Middlewares/stedgeai-lib/Npu/ll_aton/ll_aton_NN_interface.h ****     int8_t Qn;                    /**< */
 276:../Middlewares/stedgeai-lib/Npu/ll_aton/ll_aton_NN_interface.h ****     uint8_t Qunsigned;            /**< */
 277:../Middlewares/stedgeai-lib/Npu/ll_aton/ll_aton_NN_interface.h ****     uint8_t ndims;                /**< */
 278:../Middlewares/stedgeai-lib/Npu/ll_aton/ll_aton_NN_interface.h ****     uint8_t nbits;                /**< */
 279:../Middlewares/stedgeai-lib/Npu/ll_aton/ll_aton_NN_interface.h ****     uint8_t per_channel;          /**< */
 280:../Middlewares/stedgeai-lib/Npu/ll_aton/ll_aton_NN_interface.h ****     const uint32_t *shape;        /**< */
 281:../Middlewares/stedgeai-lib/Npu/ll_aton/ll_aton_NN_interface.h ****     const float *scale;           /**< */
 282:../Middlewares/stedgeai-lib/Npu/ll_aton/ll_aton_NN_interface.h ****     const int16_t *offset;        /**< This can become int8 or uint8 based on the Qunsigned field.
 283:../Middlewares/stedgeai-lib/Npu/ll_aton/ll_aton_NN_interface.h ****                                    *   (This field Must have the same format of the quantized value
 284:../Middlewares/stedgeai-lib/Npu/ll_aton/ll_aton_NN_interface.h ****   } LL_Buffer_InfoTypeDef;
 285:../Middlewares/stedgeai-lib/Npu/ll_aton/ll_aton_NN_interface.h **** 
 286:../Middlewares/stedgeai-lib/Npu/ll_aton/ll_aton_NN_interface.h ****   /**
 287:../Middlewares/stedgeai-lib/Npu/ll_aton/ll_aton_NN_interface.h ****    * @}
 288:../Middlewares/stedgeai-lib/Npu/ll_aton/ll_aton_NN_interface.h ****    */
 289:../Middlewares/stedgeai-lib/Npu/ll_aton/ll_aton_NN_interface.h **** 
 290:../Middlewares/stedgeai-lib/Npu/ll_aton/ll_aton_NN_interface.h ****   /** @defgroup Helper Function Declarations for Buffer Analysis
 291:../Middlewares/stedgeai-lib/Npu/ll_aton/ll_aton_NN_interface.h ****    * @{
 292:../Middlewares/stedgeai-lib/Npu/ll_aton/ll_aton_NN_interface.h ****    */
 293:../Middlewares/stedgeai-lib/Npu/ll_aton/ll_aton_NN_interface.h **** 
 294:../Middlewares/stedgeai-lib/Npu/ll_aton/ll_aton_NN_interface.h ****   /**
 295:../Middlewares/stedgeai-lib/Npu/ll_aton/ll_aton_NN_interface.h ****    * @brief returns the base address of the mem pool the buffer is allocated in
 296:../Middlewares/stedgeai-lib/Npu/ll_aton/ll_aton_NN_interface.h ****    *
 297:../Middlewares/stedgeai-lib/Npu/ll_aton/ll_aton_NN_interface.h ****    */
 298:../Middlewares/stedgeai-lib/Npu/ll_aton/ll_aton_NN_interface.h ****   static inline unsigned char *LL_Buffer_addr_base(const LL_Buffer_InfoTypeDef *buf);
 299:../Middlewares/stedgeai-lib/Npu/ll_aton/ll_aton_NN_interface.h **** 
 300:../Middlewares/stedgeai-lib/Npu/ll_aton/ll_aton_NN_interface.h ****   /**
 301:../Middlewares/stedgeai-lib/Npu/ll_aton/ll_aton_NN_interface.h ****    * @brief returns the start address of the buffer
 302:../Middlewares/stedgeai-lib/Npu/ll_aton/ll_aton_NN_interface.h ****    *
 303:../Middlewares/stedgeai-lib/Npu/ll_aton/ll_aton_NN_interface.h ****    */
 304:../Middlewares/stedgeai-lib/Npu/ll_aton/ll_aton_NN_interface.h ****   static inline unsigned char *LL_Buffer_addr_start(const LL_Buffer_InfoTypeDef *buf);
 305:../Middlewares/stedgeai-lib/Npu/ll_aton/ll_aton_NN_interface.h **** 
 306:../Middlewares/stedgeai-lib/Npu/ll_aton/ll_aton_NN_interface.h ****   /**
 307:../Middlewares/stedgeai-lib/Npu/ll_aton/ll_aton_NN_interface.h ****    * @brief returns the end address of the buffer
 308:../Middlewares/stedgeai-lib/Npu/ll_aton/ll_aton_NN_interface.h ****    *
 309:../Middlewares/stedgeai-lib/Npu/ll_aton/ll_aton_NN_interface.h ****    */
ARM GAS  /tmp/ccTQcp07.s 			page 7


 310:../Middlewares/stedgeai-lib/Npu/ll_aton/ll_aton_NN_interface.h ****   static inline unsigned char *LL_Buffer_addr_end(const LL_Buffer_InfoTypeDef *buf);
 311:../Middlewares/stedgeai-lib/Npu/ll_aton/ll_aton_NN_interface.h **** 
 312:../Middlewares/stedgeai-lib/Npu/ll_aton/ll_aton_NN_interface.h ****   /**
 313:../Middlewares/stedgeai-lib/Npu/ll_aton/ll_aton_NN_interface.h ****    * @brief returns the limit address of the buffer
 314:../Middlewares/stedgeai-lib/Npu/ll_aton/ll_aton_NN_interface.h ****    *
 315:../Middlewares/stedgeai-lib/Npu/ll_aton/ll_aton_NN_interface.h ****    */
 316:../Middlewares/stedgeai-lib/Npu/ll_aton/ll_aton_NN_interface.h ****   static inline unsigned char *LL_Buffer_addr_limit(const LL_Buffer_InfoTypeDef *buf);
 317:../Middlewares/stedgeai-lib/Npu/ll_aton/ll_aton_NN_interface.h **** 
 318:../Middlewares/stedgeai-lib/Npu/ll_aton/ll_aton_NN_interface.h ****   /**
 319:../Middlewares/stedgeai-lib/Npu/ll_aton/ll_aton_NN_interface.h ****    * @brief returns the length of the buffer
 320:../Middlewares/stedgeai-lib/Npu/ll_aton/ll_aton_NN_interface.h ****    *
 321:../Middlewares/stedgeai-lib/Npu/ll_aton/ll_aton_NN_interface.h ****    */
 322:../Middlewares/stedgeai-lib/Npu/ll_aton/ll_aton_NN_interface.h ****   static inline uint32_t LL_Buffer_len(const LL_Buffer_InfoTypeDef *buf);
 323:../Middlewares/stedgeai-lib/Npu/ll_aton/ll_aton_NN_interface.h **** 
 324:../Middlewares/stedgeai-lib/Npu/ll_aton/ll_aton_NN_interface.h ****   /**
 325:../Middlewares/stedgeai-lib/Npu/ll_aton/ll_aton_NN_interface.h ****    * @brief returns the buffer elements number of bits
 326:../Middlewares/stedgeai-lib/Npu/ll_aton/ll_aton_NN_interface.h ****    *
 327:../Middlewares/stedgeai-lib/Npu/ll_aton/ll_aton_NN_interface.h ****    */
 328:../Middlewares/stedgeai-lib/Npu/ll_aton/ll_aton_NN_interface.h ****   static inline uint32_t LL_Buffer_bits(const LL_Buffer_InfoTypeDef *buf);
 329:../Middlewares/stedgeai-lib/Npu/ll_aton/ll_aton_NN_interface.h **** 
 330:../Middlewares/stedgeai-lib/Npu/ll_aton/ll_aton_NN_interface.h ****   /**
 331:../Middlewares/stedgeai-lib/Npu/ll_aton/ll_aton_NN_interface.h ****    * @}
 332:../Middlewares/stedgeai-lib/Npu/ll_aton/ll_aton_NN_interface.h ****    */
 333:../Middlewares/stedgeai-lib/Npu/ll_aton/ll_aton_NN_interface.h **** 
 334:../Middlewares/stedgeai-lib/Npu/ll_aton/ll_aton_NN_interface.h ****   /** @defgroup Handle-style Data Types and Declaration Macros for ATON Runtime Execution & User AP
 335:../Middlewares/stedgeai-lib/Npu/ll_aton/ll_aton_NN_interface.h ****    * @{
 336:../Middlewares/stedgeai-lib/Npu/ll_aton/ll_aton_NN_interface.h ****    */
 337:../Middlewares/stedgeai-lib/Npu/ll_aton/ll_aton_NN_interface.h **** 
 338:../Middlewares/stedgeai-lib/Npu/ll_aton/ll_aton_NN_interface.h **** /**
 339:../Middlewares/stedgeai-lib/Npu/ll_aton/ll_aton_NN_interface.h ****  * @brief Declare the function prototypes for named NN interface functions generated by the AtoNN c
 340:../Middlewares/stedgeai-lib/Npu/ll_aton/ll_aton_NN_interface.h ****  * @param network_name name of the network as provided by option `--network-name`
 341:../Middlewares/stedgeai-lib/Npu/ll_aton/ll_aton_NN_interface.h ****  */
 342:../Middlewares/stedgeai-lib/Npu/ll_aton/ll_aton_NN_interface.h **** #define LL_ATON_DECLARE_NAMED_NN_PROTOS(network_name)                                              
 343:../Middlewares/stedgeai-lib/Npu/ll_aton/ll_aton_NN_interface.h ****   extern bool LL_ATON_EC_Network_Init_##network_name(void);                                        
 344:../Middlewares/stedgeai-lib/Npu/ll_aton/ll_aton_NN_interface.h ****   extern bool LL_ATON_EC_Inference_Init_##network_name(void);                                      
 345:../Middlewares/stedgeai-lib/Npu/ll_aton/ll_aton_NN_interface.h ****   extern LL_ATON_User_IO_Result_t LL_ATON_Set_User_Input_Buffer_##network_name(uint32_t num, void *
 346:../Middlewares/stedgeai-lib/Npu/ll_aton/ll_aton_NN_interface.h ****                                                                                uint32_t size);     
 347:../Middlewares/stedgeai-lib/Npu/ll_aton/ll_aton_NN_interface.h ****   extern void *LL_ATON_Get_User_Input_Buffer_##network_name(uint32_t num);                         
 348:../Middlewares/stedgeai-lib/Npu/ll_aton/ll_aton_NN_interface.h ****   extern LL_ATON_User_IO_Result_t LL_ATON_Set_User_Output_Buffer_##network_name(uint32_t num, void 
 349:../Middlewares/stedgeai-lib/Npu/ll_aton/ll_aton_NN_interface.h ****                                                                                 uint32_t size);    
 350:../Middlewares/stedgeai-lib/Npu/ll_aton/ll_aton_NN_interface.h ****   extern void *LL_ATON_Get_User_Output_Buffer_##network_name(uint32_t num);                        
 351:../Middlewares/stedgeai-lib/Npu/ll_aton/ll_aton_NN_interface.h ****   extern const LL_ATON_RT_EpochBlockItem_t *LL_ATON_EpochBlockItems_##network_name(void);          
 352:../Middlewares/stedgeai-lib/Npu/ll_aton/ll_aton_NN_interface.h ****   extern const LL_Buffer_InfoTypeDef *LL_ATON_Output_Buffers_Info_##network_name(void);            
 353:../Middlewares/stedgeai-lib/Npu/ll_aton/ll_aton_NN_interface.h ****   extern const LL_Buffer_InfoTypeDef *LL_ATON_Input_Buffers_Info_##network_name(void);             
 354:../Middlewares/stedgeai-lib/Npu/ll_aton/ll_aton_NN_interface.h ****   extern const LL_Streng_EncryptionTypedef *LL_ATON_WeightEncryption_Info_##network_name(void);    
 355:../Middlewares/stedgeai-lib/Npu/ll_aton/ll_aton_NN_interface.h ****   extern const LL_Streng_EncryptionTypedef *LL_ATON_BlobEncryption_Info_##network_name(void);      
 356:../Middlewares/stedgeai-lib/Npu/ll_aton/ll_aton_NN_interface.h ****   extern const LL_Buffer_InfoTypeDef *LL_ATON_Internal_Buffers_Info_##network_name(void);
 357:../Middlewares/stedgeai-lib/Npu/ll_aton/ll_aton_NN_interface.h **** 
 358:../Middlewares/stedgeai-lib/Npu/ll_aton/ll_aton_NN_interface.h ****   /**
 359:../Middlewares/stedgeai-lib/Npu/ll_aton/ll_aton_NN_interface.h ****    * @brief  Type definitions for NN interface functions
 360:../Middlewares/stedgeai-lib/Npu/ll_aton/ll_aton_NN_interface.h ****    */
 361:../Middlewares/stedgeai-lib/Npu/ll_aton/ll_aton_NN_interface.h ****   typedef bool (*NN_EC_Hook_TypeDef)(void);
 362:../Middlewares/stedgeai-lib/Npu/ll_aton/ll_aton_NN_interface.h ****   typedef LL_ATON_User_IO_Result_t (*NN_InputSetter_TypeDef)(uint32_t num, void *buffer, uint32_t s
 363:../Middlewares/stedgeai-lib/Npu/ll_aton/ll_aton_NN_interface.h ****   typedef void *(*NN_InputGetter_TypeDef)(uint32_t num);
 364:../Middlewares/stedgeai-lib/Npu/ll_aton/ll_aton_NN_interface.h ****   typedef LL_ATON_User_IO_Result_t (*NN_OutputSetter_TypeDef)(uint32_t num, void *buffer, uint32_t 
 365:../Middlewares/stedgeai-lib/Npu/ll_aton/ll_aton_NN_interface.h ****   typedef void *(*NN_OutputGetter_TypeDef)(uint32_t num);
 366:../Middlewares/stedgeai-lib/Npu/ll_aton/ll_aton_NN_interface.h ****   typedef const LL_ATON_RT_EpochBlockItem_t *(*NN_EpochBlockItems_TypeDef)(void);
ARM GAS  /tmp/ccTQcp07.s 			page 8


 367:../Middlewares/stedgeai-lib/Npu/ll_aton/ll_aton_NN_interface.h ****   typedef const LL_Streng_EncryptionTypedef *(*NN_Encryption_Info_TypeDef)(void);
 368:../Middlewares/stedgeai-lib/Npu/ll_aton/ll_aton_NN_interface.h ****   typedef const LL_Buffer_InfoTypeDef *(*NN_Buffers_Info_TypeDef)(void);
 369:../Middlewares/stedgeai-lib/Npu/ll_aton/ll_aton_NN_interface.h **** 
 370:../Middlewares/stedgeai-lib/Npu/ll_aton/ll_aton_NN_interface.h ****   typedef void (*TraceRuntime_FuncPtr_t)(LL_ATON_RT_Callbacktype_t ctype);
 371:../Middlewares/stedgeai-lib/Npu/ll_aton/ll_aton_NN_interface.h **** 
 372:../Middlewares/stedgeai-lib/Npu/ll_aton/ll_aton_NN_interface.h ****   typedef void (*TraceEpochBlock_FuncPtr_t)(LL_ATON_RT_Callbacktype_t ctype, const NN_Instance_Type
 373:../Middlewares/stedgeai-lib/Npu/ll_aton/ll_aton_NN_interface.h ****                                             const LL_ATON_RT_EpochBlockItem_t *epoch_block);
 374:../Middlewares/stedgeai-lib/Npu/ll_aton/ll_aton_NN_interface.h **** 
 375:../Middlewares/stedgeai-lib/Npu/ll_aton/ll_aton_NN_interface.h ****   typedef struct
 376:../Middlewares/stedgeai-lib/Npu/ll_aton/ll_aton_NN_interface.h ****   {
 377:../Middlewares/stedgeai-lib/Npu/ll_aton/ll_aton_NN_interface.h ****     const char *network_name;                     // name of the network as provided by compiler op
 378:../Middlewares/stedgeai-lib/Npu/ll_aton/ll_aton_NN_interface.h ****     NN_EC_Hook_TypeDef ec_network_init;           // pointer to epoch controller network initializa
 379:../Middlewares/stedgeai-lib/Npu/ll_aton/ll_aton_NN_interface.h ****     NN_EC_Hook_TypeDef ec_inference_init;         // pointer to epoch controller start inference fu
 380:../Middlewares/stedgeai-lib/Npu/ll_aton/ll_aton_NN_interface.h ****     NN_InputSetter_TypeDef input_setter;          // function pointer for setting user-defined inpu
 381:../Middlewares/stedgeai-lib/Npu/ll_aton/ll_aton_NN_interface.h ****     NN_InputGetter_TypeDef input_getter;          // function pointer for getting user-defined inpu
 382:../Middlewares/stedgeai-lib/Npu/ll_aton/ll_aton_NN_interface.h ****     NN_OutputSetter_TypeDef output_setter;        // function pointer for setting user-defined outp
 383:../Middlewares/stedgeai-lib/Npu/ll_aton/ll_aton_NN_interface.h ****     NN_OutputGetter_TypeDef output_getter;        // function pointer for getting user-defined outp
 384:../Middlewares/stedgeai-lib/Npu/ll_aton/ll_aton_NN_interface.h ****     NN_EpochBlockItems_TypeDef epoch_block_items; // function pointer to retrieve the epoch block a
 385:../Middlewares/stedgeai-lib/Npu/ll_aton/ll_aton_NN_interface.h ****     NN_Buffers_Info_TypeDef output_buffers_info;  // function pointer returning information about a
 386:../Middlewares/stedgeai-lib/Npu/ll_aton/ll_aton_NN_interface.h ****     NN_Buffers_Info_TypeDef input_buffers_info;   // function pointer returning information about a
 387:../Middlewares/stedgeai-lib/Npu/ll_aton/ll_aton_NN_interface.h ****     NN_Encryption_Info_TypeDef blob_encryption_info;   // function pointer returning epoch blobs en
 388:../Middlewares/stedgeai-lib/Npu/ll_aton/ll_aton_NN_interface.h ****     NN_Encryption_Info_TypeDef weight_encryption_info; // function pointer returning weights encryp
 389:../Middlewares/stedgeai-lib/Npu/ll_aton/ll_aton_NN_interface.h ****     NN_Buffers_Info_TypeDef internal_buffers_info; // function pointer returning information about 
 390:../Middlewares/stedgeai-lib/Npu/ll_aton/ll_aton_NN_interface.h ****   } NN_Interface_TypeDef;
 391:../Middlewares/stedgeai-lib/Npu/ll_aton/ll_aton_NN_interface.h **** 
 392:../Middlewares/stedgeai-lib/Npu/ll_aton/ll_aton_NN_interface.h ****   typedef struct
 393:../Middlewares/stedgeai-lib/Npu/ll_aton/ll_aton_NN_interface.h ****   {
 394:../Middlewares/stedgeai-lib/Npu/ll_aton/ll_aton_NN_interface.h ****     const LL_ATON_RT_EpochBlockItem_t *volatile current_epoch_block; // pointer to current epoch bl
 395:../Middlewares/stedgeai-lib/Npu/ll_aton/ll_aton_NN_interface.h ****     const LL_ATON_RT_EpochBlockItem_t *volatile first_epoch_block; // pointer to first epoch block 
 396:../Middlewares/stedgeai-lib/Npu/ll_aton/ll_aton_NN_interface.h ****     const LL_ATON_RT_EpochBlockItem_t *volatile next_epoch_block;  // pointer to epoch block to be 
 397:../Middlewares/stedgeai-lib/Npu/ll_aton/ll_aton_NN_interface.h **** 
 398:../Middlewares/stedgeai-lib/Npu/ll_aton/ll_aton_NN_interface.h ****     const LL_ATON_RT_EpochBlockItem_t *volatile saved_current_epoch_block; // pointer to saved curr
 399:../Middlewares/stedgeai-lib/Npu/ll_aton/ll_aton_NN_interface.h ****     const LL_ATON_RT_EpochBlockItem_t
 400:../Middlewares/stedgeai-lib/Npu/ll_aton/ll_aton_NN_interface.h ****         *volatile saved_first_epoch_block; // pointer to saved first epoch block in current epoch l
 401:../Middlewares/stedgeai-lib/Npu/ll_aton/ll_aton_NN_interface.h **** 
 402:../Middlewares/stedgeai-lib/Npu/ll_aton/ll_aton_NN_interface.h ****     bool inference_started; // inference has been started
 403:../Middlewares/stedgeai-lib/Npu/ll_aton/ll_aton_NN_interface.h **** 
 404:../Middlewares/stedgeai-lib/Npu/ll_aton/ll_aton_NN_interface.h **** #if (LL_ATON_RT_MODE == LL_ATON_RT_ASYNC)
 405:../Middlewares/stedgeai-lib/Npu/ll_aton/ll_aton_NN_interface.h ****     volatile uint32_t triggered_events;        // currently triggered events/IRQs in current epoch
 406:../Middlewares/stedgeai-lib/Npu/ll_aton/ll_aton_NN_interface.h ****     volatile bool current_epoch_block_started; // has current epoch block already been started
 407:../Middlewares/stedgeai-lib/Npu/ll_aton/ll_aton_NN_interface.h **** #endif                                         // (LL_ATON_RT_MODE == LL_ATON_RT_ASYNC)
 408:../Middlewares/stedgeai-lib/Npu/ll_aton/ll_aton_NN_interface.h **** 
 409:../Middlewares/stedgeai-lib/Npu/ll_aton/ll_aton_NN_interface.h **** #ifndef NDEBUG
 410:../Middlewares/stedgeai-lib/Npu/ll_aton/ll_aton_NN_interface.h ****     volatile uint32_t
 411:../Middlewares/stedgeai-lib/Npu/ll_aton/ll_aton_NN_interface.h ****         nr_of_epoch_blocks; // number of epoch blocks in network (includes also terminating empty e
 412:../Middlewares/stedgeai-lib/Npu/ll_aton/ll_aton_NN_interface.h ****     volatile uint32_t saved_nr_of_epoch_blocks; // number of epoch blocks in saved network (include
 413:../Middlewares/stedgeai-lib/Npu/ll_aton/ll_aton_NN_interface.h ****                                                 // empty epoch block)
 414:../Middlewares/stedgeai-lib/Npu/ll_aton/ll_aton_NN_interface.h **** #endif                                          // !NDEBUG
 415:../Middlewares/stedgeai-lib/Npu/ll_aton/ll_aton_NN_interface.h **** 
 416:../Middlewares/stedgeai-lib/Npu/ll_aton/ll_aton_NN_interface.h ****     TraceEpochBlock_FuncPtr_t epoch_callback_function; // epoch callback function
 417:../Middlewares/stedgeai-lib/Npu/ll_aton/ll_aton_NN_interface.h **** 
 418:../Middlewares/stedgeai-lib/Npu/ll_aton/ll_aton_NN_interface.h **** #if defined(LL_ATON_RT_RELOC)
 419:../Middlewares/stedgeai-lib/Npu/ll_aton/ll_aton_NN_interface.h ****     uint32_t inst_reloc; // handle to relocation context
 420:../Middlewares/stedgeai-lib/Npu/ll_aton/ll_aton_NN_interface.h **** #endif                   // LL_ATON_RELOC
 421:../Middlewares/stedgeai-lib/Npu/ll_aton/ll_aton_NN_interface.h ****   } NN_Execution_State_TypeDef;
 422:../Middlewares/stedgeai-lib/Npu/ll_aton/ll_aton_NN_interface.h **** 
 423:../Middlewares/stedgeai-lib/Npu/ll_aton/ll_aton_NN_interface.h ****   struct __nn_instance_struct
ARM GAS  /tmp/ccTQcp07.s 			page 9


 424:../Middlewares/stedgeai-lib/Npu/ll_aton/ll_aton_NN_interface.h ****   {
 425:../Middlewares/stedgeai-lib/Npu/ll_aton/ll_aton_NN_interface.h ****     const NN_Interface_TypeDef *network;
 426:../Middlewares/stedgeai-lib/Npu/ll_aton/ll_aton_NN_interface.h ****     NN_Execution_State_TypeDef exec_state;
 427:../Middlewares/stedgeai-lib/Npu/ll_aton/ll_aton_NN_interface.h ****   };
 428:../Middlewares/stedgeai-lib/Npu/ll_aton/ll_aton_NN_interface.h **** 
 429:../Middlewares/stedgeai-lib/Npu/ll_aton/ll_aton_NN_interface.h ****   /**
 430:../Middlewares/stedgeai-lib/Npu/ll_aton/ll_aton_NN_interface.h ****    * @}
 431:../Middlewares/stedgeai-lib/Npu/ll_aton/ll_aton_NN_interface.h ****    */
 432:../Middlewares/stedgeai-lib/Npu/ll_aton/ll_aton_NN_interface.h **** 
 433:../Middlewares/stedgeai-lib/Npu/ll_aton/ll_aton_NN_interface.h ****   /** @defgroup Helper Function Inline Implementations
 434:../Middlewares/stedgeai-lib/Npu/ll_aton/ll_aton_NN_interface.h ****    * @{
 435:../Middlewares/stedgeai-lib/Npu/ll_aton/ll_aton_NN_interface.h ****    */
 436:../Middlewares/stedgeai-lib/Npu/ll_aton/ll_aton_NN_interface.h **** 
 437:../Middlewares/stedgeai-lib/Npu/ll_aton/ll_aton_NN_interface.h ****   static inline bool EpochBlock_IsLastEpochBlock(const LL_ATON_RT_EpochBlockItem_t *eb)
 438:../Middlewares/stedgeai-lib/Npu/ll_aton/ll_aton_NN_interface.h ****   {
 439:../Middlewares/stedgeai-lib/Npu/ll_aton/ll_aton_NN_interface.h ****     return ((eb->flags & EpochBlock_Flags_last_eb) != 0);
 440:../Middlewares/stedgeai-lib/Npu/ll_aton/ll_aton_NN_interface.h ****   }
 441:../Middlewares/stedgeai-lib/Npu/ll_aton/ll_aton_NN_interface.h **** 
 442:../Middlewares/stedgeai-lib/Npu/ll_aton/ll_aton_NN_interface.h ****   static inline bool EpochBlock_IsEpochStart(const LL_ATON_RT_EpochBlockItem_t *eb)
 443:../Middlewares/stedgeai-lib/Npu/ll_aton/ll_aton_NN_interface.h ****   {
 444:../Middlewares/stedgeai-lib/Npu/ll_aton/ll_aton_NN_interface.h ****     return ((eb->flags & EpochBlock_Flags_epoch_start) != 0);
 445:../Middlewares/stedgeai-lib/Npu/ll_aton/ll_aton_NN_interface.h ****   }
 446:../Middlewares/stedgeai-lib/Npu/ll_aton/ll_aton_NN_interface.h **** 
 447:../Middlewares/stedgeai-lib/Npu/ll_aton/ll_aton_NN_interface.h ****   static inline bool EpochBlock_IsEpochEnd(const LL_ATON_RT_EpochBlockItem_t *eb)
 448:../Middlewares/stedgeai-lib/Npu/ll_aton/ll_aton_NN_interface.h ****   {
 449:../Middlewares/stedgeai-lib/Npu/ll_aton/ll_aton_NN_interface.h ****     return ((eb->flags & EpochBlock_Flags_epoch_end) != 0);
 450:../Middlewares/stedgeai-lib/Npu/ll_aton/ll_aton_NN_interface.h ****   }
 451:../Middlewares/stedgeai-lib/Npu/ll_aton/ll_aton_NN_interface.h **** 
 452:../Middlewares/stedgeai-lib/Npu/ll_aton/ll_aton_NN_interface.h ****   static inline bool EpochBlock_IsEpochBlob(const LL_ATON_RT_EpochBlockItem_t *eb)
 453:../Middlewares/stedgeai-lib/Npu/ll_aton/ll_aton_NN_interface.h ****   {
 454:../Middlewares/stedgeai-lib/Npu/ll_aton/ll_aton_NN_interface.h ****     return ((eb->flags & EpochBlock_Flags_blob) != 0);
 455:../Middlewares/stedgeai-lib/Npu/ll_aton/ll_aton_NN_interface.h ****   }
 456:../Middlewares/stedgeai-lib/Npu/ll_aton/ll_aton_NN_interface.h **** 
 457:../Middlewares/stedgeai-lib/Npu/ll_aton/ll_aton_NN_interface.h ****   static inline bool EpochBlock_IsBlobEncrypted(const LL_ATON_RT_EpochBlockItem_t *eb)
 458:../Middlewares/stedgeai-lib/Npu/ll_aton/ll_aton_NN_interface.h ****   {
 459:../Middlewares/stedgeai-lib/Npu/ll_aton/ll_aton_NN_interface.h ****     return ((eb->flags & EpochBlock_Flags_blob_encrypted) != 0);
 460:../Middlewares/stedgeai-lib/Npu/ll_aton/ll_aton_NN_interface.h ****   }
 461:../Middlewares/stedgeai-lib/Npu/ll_aton/ll_aton_NN_interface.h **** 
 462:../Middlewares/stedgeai-lib/Npu/ll_aton/ll_aton_NN_interface.h ****   static inline bool EpochBlock_IsEpochPureSW(const LL_ATON_RT_EpochBlockItem_t *eb)
 463:../Middlewares/stedgeai-lib/Npu/ll_aton/ll_aton_NN_interface.h ****   {
 464:../Middlewares/stedgeai-lib/Npu/ll_aton/ll_aton_NN_interface.h ****     return ((eb->flags & EpochBlock_Flags_pure_sw) != 0);
 465:../Middlewares/stedgeai-lib/Npu/ll_aton/ll_aton_NN_interface.h ****   }
 466:../Middlewares/stedgeai-lib/Npu/ll_aton/ll_aton_NN_interface.h **** 
 467:../Middlewares/stedgeai-lib/Npu/ll_aton/ll_aton_NN_interface.h ****   static inline bool EpochBlock_IsEpochPureHW(const LL_ATON_RT_EpochBlockItem_t *eb)
 468:../Middlewares/stedgeai-lib/Npu/ll_aton/ll_aton_NN_interface.h ****   {
 469:../Middlewares/stedgeai-lib/Npu/ll_aton/ll_aton_NN_interface.h ****     return ((eb->flags & EpochBlock_Flags_pure_hw) != 0);
 470:../Middlewares/stedgeai-lib/Npu/ll_aton/ll_aton_NN_interface.h ****   }
 471:../Middlewares/stedgeai-lib/Npu/ll_aton/ll_aton_NN_interface.h **** 
 472:../Middlewares/stedgeai-lib/Npu/ll_aton/ll_aton_NN_interface.h ****   static inline bool EpochBlock_IsEpochHybrid(const LL_ATON_RT_EpochBlockItem_t *eb)
 473:../Middlewares/stedgeai-lib/Npu/ll_aton/ll_aton_NN_interface.h ****   {
 474:../Middlewares/stedgeai-lib/Npu/ll_aton/ll_aton_NN_interface.h ****     return ((eb->flags & EpochBlock_Flags_hybrid) != 0);
 475:../Middlewares/stedgeai-lib/Npu/ll_aton/ll_aton_NN_interface.h ****   }
 476:../Middlewares/stedgeai-lib/Npu/ll_aton/ll_aton_NN_interface.h **** 
 477:../Middlewares/stedgeai-lib/Npu/ll_aton/ll_aton_NN_interface.h ****   static inline bool EpochBlock_IsEpochInternal(const LL_ATON_RT_EpochBlockItem_t *eb)
 478:../Middlewares/stedgeai-lib/Npu/ll_aton/ll_aton_NN_interface.h ****   {
 479:../Middlewares/stedgeai-lib/Npu/ll_aton/ll_aton_NN_interface.h ****     return ((eb->flags & EpochBlock_Flags_internal) != 0);
 480:../Middlewares/stedgeai-lib/Npu/ll_aton/ll_aton_NN_interface.h ****   }
ARM GAS  /tmp/ccTQcp07.s 			page 10


 481:../Middlewares/stedgeai-lib/Npu/ll_aton/ll_aton_NN_interface.h **** 
 482:../Middlewares/stedgeai-lib/Npu/ll_aton/ll_aton_NN_interface.h ****   static inline uint32_t EpochBlock_EpochControllerUnit(const LL_ATON_RT_EpochBlockItem_t *eb)
 483:../Middlewares/stedgeai-lib/Npu/ll_aton/ll_aton_NN_interface.h ****   {
 484:../Middlewares/stedgeai-lib/Npu/ll_aton/ll_aton_NN_interface.h ****     LL_ATON_ASSERT(EpochBlock_IsEpochBlob(eb));
 485:../Middlewares/stedgeai-lib/Npu/ll_aton/ll_aton_NN_interface.h ****     return eb->wait_mask;
 486:../Middlewares/stedgeai-lib/Npu/ll_aton/ll_aton_NN_interface.h ****   }
 487:../Middlewares/stedgeai-lib/Npu/ll_aton/ll_aton_NN_interface.h **** 
 488:../Middlewares/stedgeai-lib/Npu/ll_aton/ll_aton_NN_interface.h ****   static inline uintptr_t EpochBlock_EpochBlobAddr(const LL_ATON_RT_EpochBlockItem_t *eb)
 489:../Middlewares/stedgeai-lib/Npu/ll_aton/ll_aton_NN_interface.h ****   {
 490:../Middlewares/stedgeai-lib/Npu/ll_aton/ll_aton_NN_interface.h ****     LL_ATON_ASSERT(EpochBlock_IsEpochBlob(eb));
 491:../Middlewares/stedgeai-lib/Npu/ll_aton/ll_aton_NN_interface.h ****     return eb->blob_address;
 492:../Middlewares/stedgeai-lib/Npu/ll_aton/ll_aton_NN_interface.h ****   }
 493:../Middlewares/stedgeai-lib/Npu/ll_aton/ll_aton_NN_interface.h **** 
 494:../Middlewares/stedgeai-lib/Npu/ll_aton/ll_aton_NN_interface.h ****   static inline unsigned char *LL_Buffer_addr_base(const LL_Buffer_InfoTypeDef *buf)
 495:../Middlewares/stedgeai-lib/Npu/ll_aton/ll_aton_NN_interface.h ****   {
 496:../Middlewares/stedgeai-lib/Npu/ll_aton/ll_aton_NN_interface.h ****     if (buf->is_user_allocated)
 497:../Middlewares/stedgeai-lib/Npu/ll_aton/ll_aton_NN_interface.h ****     {
 498:../Middlewares/stedgeai-lib/Npu/ll_aton/ll_aton_NN_interface.h ****       unsigned char **tmp = (unsigned char **)buf->addr_base.p;
 499:../Middlewares/stedgeai-lib/Npu/ll_aton/ll_aton_NN_interface.h ****       return *tmp;
 500:../Middlewares/stedgeai-lib/Npu/ll_aton/ll_aton_NN_interface.h ****     }
 501:../Middlewares/stedgeai-lib/Npu/ll_aton/ll_aton_NN_interface.h ****     return buf->addr_base.p;
 502:../Middlewares/stedgeai-lib/Npu/ll_aton/ll_aton_NN_interface.h ****   }
 503:../Middlewares/stedgeai-lib/Npu/ll_aton/ll_aton_NN_interface.h **** 
 504:../Middlewares/stedgeai-lib/Npu/ll_aton/ll_aton_NN_interface.h ****   static inline unsigned char *LL_Buffer_addr_start(const LL_Buffer_InfoTypeDef *buf)
 505:../Middlewares/stedgeai-lib/Npu/ll_aton/ll_aton_NN_interface.h ****   {
 506:../Middlewares/stedgeai-lib/Npu/ll_aton/ll_aton_NN_interface.h ****     return LL_Buffer_addr_base(buf) + buf->offset_start;
 507:../Middlewares/stedgeai-lib/Npu/ll_aton/ll_aton_NN_interface.h ****   }
 508:../Middlewares/stedgeai-lib/Npu/ll_aton/ll_aton_NN_interface.h **** 
 509:../Middlewares/stedgeai-lib/Npu/ll_aton/ll_aton_NN_interface.h ****   static inline unsigned char *LL_Buffer_addr_end(const LL_Buffer_InfoTypeDef *buf)
 510:../Middlewares/stedgeai-lib/Npu/ll_aton/ll_aton_NN_interface.h ****   {
  35              		.loc 2 510 3 view -0
  36              		.cfi_startproc
  37              		@ args = 0, pretend = 0, frame = 0
  38              		@ frame_needed = 0, uses_anonymous_args = 0
  39              		@ link register save eliminated.
 511:../Middlewares/stedgeai-lib/Npu/ll_aton/ll_aton_NN_interface.h ****     return LL_Buffer_addr_base(buf) + buf->offset_end;
  40              		.loc 2 511 5 view .LVU1
  41              	.LBB168:
  42              	.LBI168:
 494:../Middlewares/stedgeai-lib/Npu/ll_aton/ll_aton_NN_interface.h ****   {
  43              		.loc 2 494 32 view .LVU2
  44              	.LBB169:
 496:../Middlewares/stedgeai-lib/Npu/ll_aton/ll_aton_NN_interface.h ****     {
  45              		.loc 2 496 5 view .LVU3
 496:../Middlewares/stedgeai-lib/Npu/ll_aton/ll_aton_NN_interface.h ****     {
  46              		.loc 2 496 8 is_stmt 0 view .LVU4
  47 0000 027D     		ldrb	r2, [r0, #20]	@ zero_extendqisi2
  48              	.LBB170:
 498:../Middlewares/stedgeai-lib/Npu/ll_aton/ll_aton_NN_interface.h ****       return *tmp;
  49              		.loc 2 498 23 view .LVU5
  50 0002 4368     		ldr	r3, [r0, #4]
  51              	.LBE170:
 496:../Middlewares/stedgeai-lib/Npu/ll_aton/ll_aton_NN_interface.h ****     {
  52              		.loc 2 496 8 view .LVU6
  53 0004 02B1     		cbz	r2, .L2
  54              	.LBB171:
 498:../Middlewares/stedgeai-lib/Npu/ll_aton/ll_aton_NN_interface.h ****       return *tmp;
ARM GAS  /tmp/ccTQcp07.s 			page 11


  55              		.loc 2 498 7 is_stmt 1 view .LVU7
  56              	.LVL1:
 499:../Middlewares/stedgeai-lib/Npu/ll_aton/ll_aton_NN_interface.h ****     }
  57              		.loc 2 499 7 view .LVU8
 499:../Middlewares/stedgeai-lib/Npu/ll_aton/ll_aton_NN_interface.h ****     }
  58              		.loc 2 499 14 is_stmt 0 view .LVU9
  59 0006 1B68     		ldr	r3, [r3]
  60              	.LVL2:
  61              	.L2:
 499:../Middlewares/stedgeai-lib/Npu/ll_aton/ll_aton_NN_interface.h ****     }
  62              		.loc 2 499 14 view .LVU10
  63              	.LBE171:
  64              	.LBE169:
  65              	.LBE168:
  66              		.loc 2 511 37 discriminator 1 view .LVU11
  67 0008 C068     		ldr	r0, [r0, #12]
  68              	.LVL3:
 512:../Middlewares/stedgeai-lib/Npu/ll_aton/ll_aton_NN_interface.h ****   }
  69              		.loc 2 512 3 view .LVU12
  70 000a 1844     		add	r0, r0, r3
  71 000c 7047     		bx	lr
  72              		.cfi_endproc
  73              	.LFE328:
  75              		.section	.text.__floating_to_Q,"ax",%progbits
  76              		.align	1
  77              		.syntax unified
  78              		.thumb
  79              		.thumb_func
  81              	__floating_to_Q:
  82              	.LVL4:
  83              	.LFB351:
   1:../Middlewares/stedgeai-lib/Npu/ll_aton/ll_aton_lib.c **** /**
   2:../Middlewares/stedgeai-lib/Npu/ll_aton/ll_aton_lib.c ****  ******************************************************************************
   3:../Middlewares/stedgeai-lib/Npu/ll_aton/ll_aton_lib.c ****  * @file    ll_aton_lib.c
   4:../Middlewares/stedgeai-lib/Npu/ll_aton/ll_aton_lib.c ****  * @author  SRA Artificial Intelligence & Embedded Architectures
   5:../Middlewares/stedgeai-lib/Npu/ll_aton/ll_aton_lib.c ****  * @brief   ATON LL library for basic kernels making use of HW blocks driver.
   6:../Middlewares/stedgeai-lib/Npu/ll_aton/ll_aton_lib.c ****  ******************************************************************************
   7:../Middlewares/stedgeai-lib/Npu/ll_aton/ll_aton_lib.c ****  * @attention
   8:../Middlewares/stedgeai-lib/Npu/ll_aton/ll_aton_lib.c ****  *
   9:../Middlewares/stedgeai-lib/Npu/ll_aton/ll_aton_lib.c ****  * Copyright (c) 2024 STMicroelectronics.
  10:../Middlewares/stedgeai-lib/Npu/ll_aton/ll_aton_lib.c ****  * All rights reserved.
  11:../Middlewares/stedgeai-lib/Npu/ll_aton/ll_aton_lib.c ****  *
  12:../Middlewares/stedgeai-lib/Npu/ll_aton/ll_aton_lib.c ****  * This software is licensed under terms that can be found in the LICENSE file
  13:../Middlewares/stedgeai-lib/Npu/ll_aton/ll_aton_lib.c ****  * in the root directory of this software component.
  14:../Middlewares/stedgeai-lib/Npu/ll_aton/ll_aton_lib.c ****  * If no LICENSE file comes with this software, it is provided AS-IS.
  15:../Middlewares/stedgeai-lib/Npu/ll_aton/ll_aton_lib.c ****  *
  16:../Middlewares/stedgeai-lib/Npu/ll_aton/ll_aton_lib.c ****  ******************************************************************************
  17:../Middlewares/stedgeai-lib/Npu/ll_aton/ll_aton_lib.c ****  */
  18:../Middlewares/stedgeai-lib/Npu/ll_aton/ll_aton_lib.c **** 
  19:../Middlewares/stedgeai-lib/Npu/ll_aton/ll_aton_lib.c **** #include <float.h>
  20:../Middlewares/stedgeai-lib/Npu/ll_aton/ll_aton_lib.c **** #include <math.h>
  21:../Middlewares/stedgeai-lib/Npu/ll_aton/ll_aton_lib.c **** #include <stdbool.h>
  22:../Middlewares/stedgeai-lib/Npu/ll_aton/ll_aton_lib.c **** #include <stdint.h>
  23:../Middlewares/stedgeai-lib/Npu/ll_aton/ll_aton_lib.c **** #include <stdlib.h>
  24:../Middlewares/stedgeai-lib/Npu/ll_aton/ll_aton_lib.c **** #include <string.h>
  25:../Middlewares/stedgeai-lib/Npu/ll_aton/ll_aton_lib.c **** 
  26:../Middlewares/stedgeai-lib/Npu/ll_aton/ll_aton_lib.c **** #include "ll_aton_util.h" // Leave blank line after the include
ARM GAS  /tmp/ccTQcp07.s 			page 12


  27:../Middlewares/stedgeai-lib/Npu/ll_aton/ll_aton_lib.c **** 
  28:../Middlewares/stedgeai-lib/Npu/ll_aton/ll_aton_lib.c **** #include "ll_aton_caches_interface.h"
  29:../Middlewares/stedgeai-lib/Npu/ll_aton/ll_aton_lib.c **** #include "ll_aton_lib.h"
  30:../Middlewares/stedgeai-lib/Npu/ll_aton/ll_aton_lib.c **** #include "ll_aton_runtime.h"
  31:../Middlewares/stedgeai-lib/Npu/ll_aton/ll_aton_lib.c **** 
  32:../Middlewares/stedgeai-lib/Npu/ll_aton/ll_aton_lib.c **** #if _LL_LIB_DEBUG
  33:../Middlewares/stedgeai-lib/Npu/ll_aton/ll_aton_lib.c **** #include <stdio.h>
  34:../Middlewares/stedgeai-lib/Npu/ll_aton/ll_aton_lib.c **** 
  35:../Middlewares/stedgeai-lib/Npu/ll_aton/ll_aton_lib.c **** // if set it will perform CHECKDISTANCE with COSINE_SIMILARITY and not with MAXDISTANCE
  36:../Middlewares/stedgeai-lib/Npu/ll_aton/ll_aton_lib.c **** #define USE_COSINE_SIMILARITY
  37:../Middlewares/stedgeai-lib/Npu/ll_aton/ll_aton_lib.c **** // CHECKDISTANCE mode thresholds
  38:../Middlewares/stedgeai-lib/Npu/ll_aton/ll_aton_lib.c **** #define MAXDISTANCE_TH       3
  39:../Middlewares/stedgeai-lib/Npu/ll_aton/ll_aton_lib.c **** #define COSINE_SIMILARITY_TH 0.9
  40:../Middlewares/stedgeai-lib/Npu/ll_aton/ll_aton_lib.c **** 
  41:../Middlewares/stedgeai-lib/Npu/ll_aton/ll_aton_lib.c **** /* replace these with ARM ISA instructions and assembly intrinsics */
  42:../Middlewares/stedgeai-lib/Npu/ll_aton/ll_aton_lib.c **** static int __floating_to_Q(float f, int Qm, int Qn)
  43:../Middlewares/stedgeai-lib/Npu/ll_aton/ll_aton_lib.c **** {
  84              		.loc 1 43 1 is_stmt 1 view -0
  85              		.cfi_startproc
  86              		@ args = 0, pretend = 0, frame = 0
  87              		@ frame_needed = 0, uses_anonymous_args = 0
  44:../Middlewares/stedgeai-lib/Npu/ll_aton/ll_aton_lib.c ****   float tmp;
  88              		.loc 1 44 3 view .LVU14
  45:../Middlewares/stedgeai-lib/Npu/ll_aton/ll_aton_lib.c ****   if (Qn >= 0)
  89              		.loc 1 45 3 view .LVU15
  43:../Middlewares/stedgeai-lib/Npu/ll_aton/ll_aton_lib.c ****   float tmp;
  90              		.loc 1 43 1 is_stmt 0 view .LVU16
  91 0000 F8B5     		push	{r3, r4, r5, r6, r7, lr}
  92              		.cfi_def_cfa_offset 24
  93              		.cfi_offset 3, -24
  94              		.cfi_offset 4, -20
  95              		.cfi_offset 5, -16
  96              		.cfi_offset 6, -12
  97              		.cfi_offset 7, -8
  98              		.cfi_offset 14, -4
  99              		.loc 1 45 6 view .LVU17
 100 0002 0C1E     		subs	r4, r1, #0
  43:../Middlewares/stedgeai-lib/Npu/ll_aton/ll_aton_lib.c ****   float tmp;
 101              		.loc 1 43 1 view .LVU18
 102 0004 2DED028B 		vpush.64	{d8}
 103              		.cfi_def_cfa_offset 32
 104              		.cfi_offset 80, -32
 105              		.cfi_offset 81, -28
  43:../Middlewares/stedgeai-lib/Npu/ll_aton/ll_aton_lib.c ****   float tmp;
 106              		.loc 1 43 1 view .LVU19
 107 0008 0546     		mov	r5, r0
 108 000a B0EE408A 		vmov.f32	s16, s0
 109              		.loc 1 45 6 view .LVU20
 110 000e 3BDB     		blt	.L7
  46:../Middlewares/stedgeai-lib/Npu/ll_aton/ll_aton_lib.c ****     tmp = (f * ((long long)1 << Qn) + (f > (float)0 ? (float)0.5 : (float)-0.5));
 111              		.loc 1 46 5 is_stmt 1 view .LVU21
 112              		.loc 1 46 30 is_stmt 0 view .LVU22
 113 0010 0120     		movs	r0, #1
 114              	.LVL5:
 115              		.loc 1 46 30 view .LVU23
 116 0012 0021     		movs	r1, #0
 117              	.LVL6:
ARM GAS  /tmp/ccTQcp07.s 			page 13


 118              		.loc 1 46 30 view .LVU24
 119 0014 50EA0D41 		lsll	r0, r1, r4
 120              		.loc 1 46 14 view .LVU25
 121 0018 FFF7FEFF 		bl	__aeabi_l2f
 122              	.LVL7:
 123              		.loc 1 46 66 view .LVU26
 124 001c B5EEC08A 		vcmpe.f32	s16, #0
 125              		.loc 1 46 14 view .LVU27
 126 0020 08EE900A 		vmov	s17, r0
 127              		.loc 1 46 66 view .LVU28
 128 0024 F1EE10FA 		vmrs	APSR_nzcv, FPSCR
 129              		.loc 1 46 14 view .LVU29
 130 0028 68EE888A 		vmul.f32	s17, s17, s16
 131              		.loc 1 46 66 discriminator 1 view .LVU30
 132 002c CCBF     		ite	gt
 133 002e F6EE007A 		vmovgt.f32	s15, #5.0e-1
 134              		.loc 1 46 66 discriminator 2 view .LVU31
 135 0032 FEEE007A 		vmovle.f32	s15, #-5.0e-1
 136              		.loc 1 46 9 discriminator 4 view .LVU32
 137 0036 78EEA78A 		vadd.f32	s17, s17, s15
 138              	.LVL8:
  47:../Middlewares/stedgeai-lib/Npu/ll_aton/ll_aton_lib.c ****   if (Qn < 0)
 139              		.loc 1 47 3 is_stmt 1 view .LVU33
 140              	.L10:
  48:../Middlewares/stedgeai-lib/Npu/ll_aton/ll_aton_lib.c ****     tmp = (f * (float)1 / ((long long)1 << -Qn));
  49:../Middlewares/stedgeai-lib/Npu/ll_aton/ll_aton_lib.c ****   if (tmp > (float)(((long long)1 << (Qm + Qn)) - 1))
 141              		.loc 1 49 3 view .LVU34
 142              		.loc 1 49 35 is_stmt 0 view .LVU35
 143 003a 0126     		movs	r6, #1
 144 003c 0027     		movs	r7, #0
 145              		.loc 1 49 42 view .LVU36
 146 003e 2C44     		add	r4, r4, r5
 147              	.LVL9:
 148              		.loc 1 49 35 view .LVU37
 149 0040 56EA0D47 		lsll	r6, r7, r4
 150              		.loc 1 49 49 view .LVU38
 151 0044 701E     		subs	r0, r6, #1
 152              		.loc 1 49 13 view .LVU39
 153 0046 67F10001 		sbc	r1, r7, #0
 154 004a FFF7FEFF 		bl	__aeabi_l2f
 155              	.LVL10:
 156 004e 08EE100A 		vmov	s16, r0
 157              	.LVL11:
 158              		.loc 1 49 13 view .LVU40
 159 0052 F4EEC88A 		vcmpe.f32	s17, s16
 160 0056 F1EE10FA 		vmrs	APSR_nzcv, FPSCR
  50:../Middlewares/stedgeai-lib/Npu/ll_aton/ll_aton_lib.c ****     tmp = (float)(((long long)1 << (Qm + Qn)) - 1);
  51:../Middlewares/stedgeai-lib/Npu/ll_aton/ll_aton_lib.c ****   if (tmp < -(float)((long long)1 << (Qm + Qn)))
 161              		.loc 1 51 14 view .LVU41
 162 005a 3046     		mov	r0, r6
 163 005c 3946     		mov	r1, r7
 164 005e 38FE288A 		vselgt.f32	s16, s16, s17
 165              	.LVL12:
 166              		.loc 1 51 3 is_stmt 1 view .LVU42
 167              		.loc 1 51 14 is_stmt 0 view .LVU43
 168 0062 FFF7FEFF 		bl	__aeabi_l2f
 169              	.LVL13:
ARM GAS  /tmp/ccTQcp07.s 			page 14


 170              		.loc 1 51 13 view .LVU44
 171 0066 07EE900A 		vmov	s15, r0
 172 006a F1EE677A 		vneg.f32	s15, s15
 173              	.LVL14:
  52:../Middlewares/stedgeai-lib/Npu/ll_aton/ll_aton_lib.c ****     tmp = -(float)((long long)1 << (Qm + Qn));
  53:../Middlewares/stedgeai-lib/Npu/ll_aton/ll_aton_lib.c ****   return (int)tmp;
 174              		.loc 1 53 3 is_stmt 1 view .LVU45
 175              		.loc 1 53 10 is_stmt 0 view .LVU46
 176 006e F4EEC87A 		vcmpe.f32	s15, s16
 177 0072 F1EE10FA 		vmrs	APSR_nzcv, FPSCR
 178 0076 77FE887A 		vselgt.f32	s15, s15, s16
 179              	.LVL15:
  54:../Middlewares/stedgeai-lib/Npu/ll_aton/ll_aton_lib.c **** }
 180              		.loc 1 54 1 view .LVU47
 181 007a FDEEE77A 		vcvt.s32.f32	s15, s15
 182 007e BDEC028B 		vldm	sp!, {d8}
 183              		.cfi_remember_state
 184              		.cfi_restore 80
 185              		.cfi_restore 81
 186              		.cfi_def_cfa_offset 24
 187              	.LVL16:
 188              		.loc 1 54 1 view .LVU48
 189 0082 17EE900A 		vmov	r0, s15	@ int
 190 0086 F8BD     		pop	{r3, r4, r5, r6, r7, pc}
 191              	.LVL17:
 192              	.L7:
 193              		.cfi_restore_state
  47:../Middlewares/stedgeai-lib/Npu/ll_aton/ll_aton_lib.c ****     tmp = (f * (float)1 / ((long long)1 << -Qn));
 194              		.loc 1 47 3 is_stmt 1 view .LVU49
  48:../Middlewares/stedgeai-lib/Npu/ll_aton/ll_aton_lib.c ****   if (tmp > (float)(((long long)1 << (Qm + Qn)) - 1))
 195              		.loc 1 48 5 view .LVU50
  48:../Middlewares/stedgeai-lib/Npu/ll_aton/ll_aton_lib.c ****   if (tmp > (float)(((long long)1 << (Qm + Qn)) - 1))
 196              		.loc 1 48 41 is_stmt 0 view .LVU51
 197 0088 0120     		movs	r0, #1
 198              	.LVL18:
  48:../Middlewares/stedgeai-lib/Npu/ll_aton/ll_aton_lib.c ****   if (tmp > (float)(((long long)1 << (Qm + Qn)) - 1))
 199              		.loc 1 48 41 view .LVU52
 200 008a 0021     		movs	r1, #0
 201              	.LVL19:
  48:../Middlewares/stedgeai-lib/Npu/ll_aton/ll_aton_lib.c ****   if (tmp > (float)(((long long)1 << (Qm + Qn)) - 1))
 202              		.loc 1 48 44 view .LVU53
 203 008c 6342     		rsbs	r3, r4, #0
  48:../Middlewares/stedgeai-lib/Npu/ll_aton/ll_aton_lib.c ****   if (tmp > (float)(((long long)1 << (Qm + Qn)) - 1))
 204              		.loc 1 48 41 view .LVU54
 205 008e 50EA0D31 		lsll	r0, r1, r3
  48:../Middlewares/stedgeai-lib/Npu/ll_aton/ll_aton_lib.c ****   if (tmp > (float)(((long long)1 << (Qm + Qn)) - 1))
 206              		.loc 1 48 25 view .LVU55
 207 0092 FFF7FEFF 		bl	__aeabi_l2f
 208              	.LVL20:
  48:../Middlewares/stedgeai-lib/Npu/ll_aton/ll_aton_lib.c ****   if (tmp > (float)(((long long)1 << (Qm + Qn)) - 1))
 209              		.loc 1 48 25 view .LVU56
 210 0096 07EE900A 		vmov	s15, r0
  48:../Middlewares/stedgeai-lib/Npu/ll_aton/ll_aton_lib.c ****   if (tmp > (float)(((long long)1 << (Qm + Qn)) - 1))
 211              		.loc 1 48 9 view .LVU57
 212 009a C8EE278A 		vdiv.f32	s17, s16, s15
 213 009e CCE7     		b	.L10
 214              		.cfi_endproc
ARM GAS  /tmp/ccTQcp07.s 			page 15


 215              	.LFE351:
 217              		.section	.text.__ll_lib_memcpy_prolog,"ax",%progbits
 218              		.align	1
 219              		.syntax unified
 220              		.thumb
 221              		.thumb_func
 223              	__ll_lib_memcpy_prolog:
 224              	.LVL21:
 225              	.LFB368:
  55:../Middlewares/stedgeai-lib/Npu/ll_aton/ll_aton_lib.c **** 
  56:../Middlewares/stedgeai-lib/Npu/ll_aton/ll_aton_lib.c **** static float __Q_to_floating(int i, int Qm, int Qn)
  57:../Middlewares/stedgeai-lib/Npu/ll_aton/ll_aton_lib.c **** {
  58:../Middlewares/stedgeai-lib/Npu/ll_aton/ll_aton_lib.c ****   LL_ATON_LIB_UNUSED(Qm);
  59:../Middlewares/stedgeai-lib/Npu/ll_aton/ll_aton_lib.c **** 
  60:../Middlewares/stedgeai-lib/Npu/ll_aton/ll_aton_lib.c ****   if (Qn >= 0)
  61:../Middlewares/stedgeai-lib/Npu/ll_aton/ll_aton_lib.c ****     return ((float)i / (float)((long long)1 << Qn));
  62:../Middlewares/stedgeai-lib/Npu/ll_aton/ll_aton_lib.c ****   if (Qn < 0)
  63:../Middlewares/stedgeai-lib/Npu/ll_aton/ll_aton_lib.c ****     return ((float)i * (float)((long long)1 << -Qn));
  64:../Middlewares/stedgeai-lib/Npu/ll_aton/ll_aton_lib.c ****   return 0.f;
  65:../Middlewares/stedgeai-lib/Npu/ll_aton/ll_aton_lib.c **** }
  66:../Middlewares/stedgeai-lib/Npu/ll_aton/ll_aton_lib.c **** 
  67:../Middlewares/stedgeai-lib/Npu/ll_aton/ll_aton_lib.c **** static int __floating_to_scale_offset(float f, int Qm, int Qn, float scale, int offset)
  68:../Middlewares/stedgeai-lib/Npu/ll_aton/ll_aton_lib.c **** {
  69:../Middlewares/stedgeai-lib/Npu/ll_aton/ll_aton_lib.c ****   float fval = ((f / scale) + offset);
  70:../Middlewares/stedgeai-lib/Npu/ll_aton/ll_aton_lib.c ****   return __floating_to_Q(fval, Qm, Qn);
  71:../Middlewares/stedgeai-lib/Npu/ll_aton/ll_aton_lib.c **** }
  72:../Middlewares/stedgeai-lib/Npu/ll_aton/ll_aton_lib.c **** 
  73:../Middlewares/stedgeai-lib/Npu/ll_aton/ll_aton_lib.c **** static float __scale_offset_to_floating(int f, int Qm, int Qn, float scale, int offset)
  74:../Middlewares/stedgeai-lib/Npu/ll_aton/ll_aton_lib.c **** {
  75:../Middlewares/stedgeai-lib/Npu/ll_aton/ll_aton_lib.c ****   float fval = __Q_to_floating(f, Qm, Qn);
  76:../Middlewares/stedgeai-lib/Npu/ll_aton/ll_aton_lib.c ****   float val = (fval - offset) * scale;
  77:../Middlewares/stedgeai-lib/Npu/ll_aton/ll_aton_lib.c ****   return val;
  78:../Middlewares/stedgeai-lib/Npu/ll_aton/ll_aton_lib.c **** }
  79:../Middlewares/stedgeai-lib/Npu/ll_aton/ll_aton_lib.c **** 
  80:../Middlewares/stedgeai-lib/Npu/ll_aton/ll_aton_lib.c **** static int __Q_to_scale_offset(int f, int Qm_in, int Qn_in, int Qm_out, int Qn_out, float scale, in
  81:../Middlewares/stedgeai-lib/Npu/ll_aton/ll_aton_lib.c **** {
  82:../Middlewares/stedgeai-lib/Npu/ll_aton/ll_aton_lib.c ****   float fval = __Q_to_floating(f, Qm_in, Qn_in);
  83:../Middlewares/stedgeai-lib/Npu/ll_aton/ll_aton_lib.c ****   return __floating_to_scale_offset(fval, Qm_out, Qn_out, scale, offset);
  84:../Middlewares/stedgeai-lib/Npu/ll_aton/ll_aton_lib.c **** }
  85:../Middlewares/stedgeai-lib/Npu/ll_aton/ll_aton_lib.c **** 
  86:../Middlewares/stedgeai-lib/Npu/ll_aton/ll_aton_lib.c **** static int __scale_offset_to_Q(int f, int Qm_in, int Qn_in, float scale, int offset, int Qm_out, in
  87:../Middlewares/stedgeai-lib/Npu/ll_aton/ll_aton_lib.c **** {
  88:../Middlewares/stedgeai-lib/Npu/ll_aton/ll_aton_lib.c ****   float fval = __scale_offset_to_floating(f, Qm_in, Qn_in, scale, offset);
  89:../Middlewares/stedgeai-lib/Npu/ll_aton/ll_aton_lib.c ****   return __floating_to_Q(fval, Qm_out, Qn_out);
  90:../Middlewares/stedgeai-lib/Npu/ll_aton/ll_aton_lib.c **** }
  91:../Middlewares/stedgeai-lib/Npu/ll_aton/ll_aton_lib.c **** 
  92:../Middlewares/stedgeai-lib/Npu/ll_aton/ll_aton_lib.c **** static void __dtype_convert_to_QMN(int *dtype, unsigned int *Qm, unsigned int *Qn, unsigned int nbi
  93:../Middlewares/stedgeai-lib/Npu/ll_aton/ll_aton_lib.c **** {
  94:../Middlewares/stedgeai-lib/Npu/ll_aton/ll_aton_lib.c ****   switch (*dtype)
  95:../Middlewares/stedgeai-lib/Npu/ll_aton/ll_aton_lib.c ****   {
  96:../Middlewares/stedgeai-lib/Npu/ll_aton/ll_aton_lib.c ****   // case  TENSORINFO_DATATYPE_FLOAT: already taken care of above
  97:../Middlewares/stedgeai-lib/Npu/ll_aton/ll_aton_lib.c ****   case DataType_UINT8:
  98:../Middlewares/stedgeai-lib/Npu/ll_aton/ll_aton_lib.c ****   case DataType_INT8:
  99:../Middlewares/stedgeai-lib/Npu/ll_aton/ll_aton_lib.c ****   case DataType_UINT16:
 100:../Middlewares/stedgeai-lib/Npu/ll_aton/ll_aton_lib.c ****   case DataType_INT16:
 101:../Middlewares/stedgeai-lib/Npu/ll_aton/ll_aton_lib.c ****   case DataType_BOOL:
 102:../Middlewares/stedgeai-lib/Npu/ll_aton/ll_aton_lib.c ****   {
ARM GAS  /tmp/ccTQcp07.s 			page 16


 103:../Middlewares/stedgeai-lib/Npu/ll_aton/ll_aton_lib.c ****     *dtype = DataType_FXP;
 104:../Middlewares/stedgeai-lib/Npu/ll_aton/ll_aton_lib.c ****     *Qm = nbits;
 105:../Middlewares/stedgeai-lib/Npu/ll_aton/ll_aton_lib.c ****     *Qn = 0;
 106:../Middlewares/stedgeai-lib/Npu/ll_aton/ll_aton_lib.c ****     break;
 107:../Middlewares/stedgeai-lib/Npu/ll_aton/ll_aton_lib.c ****   }
 108:../Middlewares/stedgeai-lib/Npu/ll_aton/ll_aton_lib.c ****   // for the following we don't support casting yet FIXME !!!
 109:../Middlewares/stedgeai-lib/Npu/ll_aton/ll_aton_lib.c ****   case DataType_INT32:
 110:../Middlewares/stedgeai-lib/Npu/ll_aton/ll_aton_lib.c ****   case DataType_DOUBLE:
 111:../Middlewares/stedgeai-lib/Npu/ll_aton/ll_aton_lib.c ****   case DataType_UINT32:
 112:../Middlewares/stedgeai-lib/Npu/ll_aton/ll_aton_lib.c ****   case DataType_FLOAT16:
 113:../Middlewares/stedgeai-lib/Npu/ll_aton/ll_aton_lib.c ****   case DataType_BFLOAT16:
 114:../Middlewares/stedgeai-lib/Npu/ll_aton/ll_aton_lib.c ****   case DataType_INT64:
 115:../Middlewares/stedgeai-lib/Npu/ll_aton/ll_aton_lib.c ****   case DataType_UINT64:
 116:../Middlewares/stedgeai-lib/Npu/ll_aton/ll_aton_lib.c ****   case DataType_COMPLEX64:
 117:../Middlewares/stedgeai-lib/Npu/ll_aton/ll_aton_lib.c ****   case DataType_COMPLEX128:
 118:../Middlewares/stedgeai-lib/Npu/ll_aton/ll_aton_lib.c ****   case DataType_UNDEFINED:
 119:../Middlewares/stedgeai-lib/Npu/ll_aton/ll_aton_lib.c ****   case DataType_STRING:
 120:../Middlewares/stedgeai-lib/Npu/ll_aton/ll_aton_lib.c ****     // case  TENSORINFO_DATATYPE_QMN=100,  // ATONN specific
 121:../Middlewares/stedgeai-lib/Npu/ll_aton/ll_aton_lib.c ****   default:;
 122:../Middlewares/stedgeai-lib/Npu/ll_aton/ll_aton_lib.c ****   }
 123:../Middlewares/stedgeai-lib/Npu/ll_aton/ll_aton_lib.c **** }
 124:../Middlewares/stedgeai-lib/Npu/ll_aton/ll_aton_lib.c **** 
 125:../Middlewares/stedgeai-lib/Npu/ll_aton/ll_aton_lib.c **** /*** Heap for hybrid operator implementations ***/
 126:../Middlewares/stedgeai-lib/Npu/ll_aton/ll_aton_lib.c **** static uint32_t __ll_lib_heap[__LL_LIB_HEAP_SIZE]; // REMEMBER: static variables are not suited for
 127:../Middlewares/stedgeai-lib/Npu/ll_aton/ll_aton_lib.c ****                                                    // multithreaded etc. environments
 128:../Middlewares/stedgeai-lib/Npu/ll_aton/ll_aton_lib.c **** /** Static constants **/
 129:../Middlewares/stedgeai-lib/Npu/ll_aton/ll_aton_lib.c **** static LL_Switch_InitTypeDef __ll_switch_init[] = {
 130:../Middlewares/stedgeai-lib/Npu/ll_aton/ll_aton_lib.c ****     {LL_Switch_Init_Dest() = ATONN_DSTPORT(STRSWITCH, 0, STRENG, 1, 0),
 131:../Middlewares/stedgeai-lib/Npu/ll_aton/ll_aton_lib.c ****      LL_Switch_Init_Source(0) = ATONN_SRCPORT(STRSWITCH, 0, STRENG, 0, 0), LL_Switch_Init_Context(0
 132:../Middlewares/stedgeai-lib/Npu/ll_aton/ll_aton_lib.c ****      LL_Switch_Init_Frames(0) = 0}};
 133:../Middlewares/stedgeai-lib/Npu/ll_aton/ll_aton_lib.c **** static int __ll_lib_dma_unit_id[] = {1, 0}; /* {<dma_out>, <dma_in>} */
 134:../Middlewares/stedgeai-lib/Npu/ll_aton/ll_aton_lib.c **** static LL_ATON_EnableUnits_InitTypeDef __ll_lib_dma_units[] = {{{STRENG, 1}}, {{STRENG, 0}}};
 135:../Middlewares/stedgeai-lib/Npu/ll_aton/ll_aton_lib.c **** static const LL_Streng_TensorInitTypeDef __ll_lib_static_const_dma_in = {
 136:../Middlewares/stedgeai-lib/Npu/ll_aton/ll_aton_lib.c ****     .dir = 0, .raw = 1, .frame_tot_cnt = 1, .nbits_in = 24, .nbits_out = 24};
 137:../Middlewares/stedgeai-lib/Npu/ll_aton/ll_aton_lib.c **** static const LL_Streng_TensorInitTypeDef __ll_lib_static_const_dma_out = {
 138:../Middlewares/stedgeai-lib/Npu/ll_aton/ll_aton_lib.c ****     .dir = 1, .raw = 1, .frame_tot_cnt = 1, .nbits_in = 24, .nbits_out = 24};
 139:../Middlewares/stedgeai-lib/Npu/ll_aton/ll_aton_lib.c **** 
 140:../Middlewares/stedgeai-lib/Npu/ll_aton/ll_aton_lib.c **** /** Helper function(s) **/
 141:../Middlewares/stedgeai-lib/Npu/ll_aton/ll_aton_lib.c **** void __ll_lib_error(int err_code, int line, const char *func) // for library internal use only
 142:../Middlewares/stedgeai-lib/Npu/ll_aton/ll_aton_lib.c **** {
 143:../Middlewares/stedgeai-lib/Npu/ll_aton/ll_aton_lib.c **** #ifndef NDEBUG
 144:../Middlewares/stedgeai-lib/Npu/ll_aton/ll_aton_lib.c ****   char *errs;
 145:../Middlewares/stedgeai-lib/Npu/ll_aton/ll_aton_lib.c ****   switch (err_code)
 146:../Middlewares/stedgeai-lib/Npu/ll_aton/ll_aton_lib.c ****   {
 147:../Middlewares/stedgeai-lib/Npu/ll_aton/ll_aton_lib.c ****   case _ERR_NINPUTS:
 148:../Middlewares/stedgeai-lib/Npu/ll_aton/ll_aton_lib.c ****     errs = "Wrong number of inputs";
 149:../Middlewares/stedgeai-lib/Npu/ll_aton/ll_aton_lib.c ****     break;
 150:../Middlewares/stedgeai-lib/Npu/ll_aton/ll_aton_lib.c ****   case _ERR_NOUTPUTS:
 151:../Middlewares/stedgeai-lib/Npu/ll_aton/ll_aton_lib.c ****     errs = "Wrong number of outputs";
 152:../Middlewares/stedgeai-lib/Npu/ll_aton/ll_aton_lib.c ****     break;
 153:../Middlewares/stedgeai-lib/Npu/ll_aton/ll_aton_lib.c ****   case _ERR_AXIS:
 154:../Middlewares/stedgeai-lib/Npu/ll_aton/ll_aton_lib.c ****     errs = "Axis mismatch or not supported";
 155:../Middlewares/stedgeai-lib/Npu/ll_aton/ll_aton_lib.c ****     break;
 156:../Middlewares/stedgeai-lib/Npu/ll_aton/ll_aton_lib.c ****   case _ERR_FRACTIONAL:
 157:../Middlewares/stedgeai-lib/Npu/ll_aton/ll_aton_lib.c ****     errs = "Fractional bits not supported";
 158:../Middlewares/stedgeai-lib/Npu/ll_aton/ll_aton_lib.c ****     break;
 159:../Middlewares/stedgeai-lib/Npu/ll_aton/ll_aton_lib.c ****   case _ERR_DATATYPE:
ARM GAS  /tmp/ccTQcp07.s 			page 17


 160:../Middlewares/stedgeai-lib/Npu/ll_aton/ll_aton_lib.c ****     errs = "Datatype not supported";
 161:../Middlewares/stedgeai-lib/Npu/ll_aton/ll_aton_lib.c ****     break;
 162:../Middlewares/stedgeai-lib/Npu/ll_aton/ll_aton_lib.c ****   case _ERR_NBITS:
 163:../Middlewares/stedgeai-lib/Npu/ll_aton/ll_aton_lib.c ****     errs = "Number of bits unsupported or in/out mismatch";
 164:../Middlewares/stedgeai-lib/Npu/ll_aton/ll_aton_lib.c ****     break;
 165:../Middlewares/stedgeai-lib/Npu/ll_aton/ll_aton_lib.c ****   case _ERR_NBITS_IN:
 166:../Middlewares/stedgeai-lib/Npu/ll_aton/ll_aton_lib.c ****     errs = "Number of bits unsupported or in(s) mismatch";
 167:../Middlewares/stedgeai-lib/Npu/ll_aton/ll_aton_lib.c ****     break;
 168:../Middlewares/stedgeai-lib/Npu/ll_aton/ll_aton_lib.c ****   case _ERR_NBITS_OUT:
 169:../Middlewares/stedgeai-lib/Npu/ll_aton/ll_aton_lib.c ****     errs = "Number of bits unsupported or out(s) mismatch";
 170:../Middlewares/stedgeai-lib/Npu/ll_aton/ll_aton_lib.c ****     break;
 171:../Middlewares/stedgeai-lib/Npu/ll_aton/ll_aton_lib.c ****   case _ERR_SHAPE:
 172:../Middlewares/stedgeai-lib/Npu/ll_aton/ll_aton_lib.c ****     errs = "Shape unsupported or in/out mismatch";
 173:../Middlewares/stedgeai-lib/Npu/ll_aton/ll_aton_lib.c ****     break;
 174:../Middlewares/stedgeai-lib/Npu/ll_aton/ll_aton_lib.c ****   case _ERR_SHAPE_IN:
 175:../Middlewares/stedgeai-lib/Npu/ll_aton/ll_aton_lib.c ****     errs = "Shape unsupported or in(s) mismatch";
 176:../Middlewares/stedgeai-lib/Npu/ll_aton/ll_aton_lib.c ****     break;
 177:../Middlewares/stedgeai-lib/Npu/ll_aton/ll_aton_lib.c ****   case _ERR_SHAPE_OUT:
 178:../Middlewares/stedgeai-lib/Npu/ll_aton/ll_aton_lib.c ****     errs = "Shape unsupported or out(s) mismatch";
 179:../Middlewares/stedgeai-lib/Npu/ll_aton/ll_aton_lib.c ****     break;
 180:../Middlewares/stedgeai-lib/Npu/ll_aton/ll_aton_lib.c ****   case _ERR_BUFFER:
 181:../Middlewares/stedgeai-lib/Npu/ll_aton/ll_aton_lib.c ****     errs = "Buffer sizes in/out mismatch";
 182:../Middlewares/stedgeai-lib/Npu/ll_aton/ll_aton_lib.c ****     break;
 183:../Middlewares/stedgeai-lib/Npu/ll_aton/ll_aton_lib.c ****   case _ERR_BUFFER_IN:
 184:../Middlewares/stedgeai-lib/Npu/ll_aton/ll_aton_lib.c ****     errs = "Buffer sizes in(s) mismatch";
 185:../Middlewares/stedgeai-lib/Npu/ll_aton/ll_aton_lib.c ****     break;
 186:../Middlewares/stedgeai-lib/Npu/ll_aton/ll_aton_lib.c ****   case _ERR_BUFFER_OUT:
 187:../Middlewares/stedgeai-lib/Npu/ll_aton/ll_aton_lib.c ****     errs = "Buffer sizes out(s) mismatch";
 188:../Middlewares/stedgeai-lib/Npu/ll_aton/ll_aton_lib.c ****     break;
 189:../Middlewares/stedgeai-lib/Npu/ll_aton/ll_aton_lib.c ****   case _ERR_RANK:
 190:../Middlewares/stedgeai-lib/Npu/ll_aton/ll_aton_lib.c ****     errs = "Inconsistent or unexpected rank value(s)";
 191:../Middlewares/stedgeai-lib/Npu/ll_aton/ll_aton_lib.c ****     break;
 192:../Middlewares/stedgeai-lib/Npu/ll_aton/ll_aton_lib.c ****   case _ERR_MODE:
 193:../Middlewares/stedgeai-lib/Npu/ll_aton/ll_aton_lib.c ****     errs = "Unknown or not supported modality";
 194:../Middlewares/stedgeai-lib/Npu/ll_aton/ll_aton_lib.c ****     break;
 195:../Middlewares/stedgeai-lib/Npu/ll_aton/ll_aton_lib.c ****   case _ERR_UNKNOWN:
 196:../Middlewares/stedgeai-lib/Npu/ll_aton/ll_aton_lib.c ****   default:
 197:../Middlewares/stedgeai-lib/Npu/ll_aton/ll_aton_lib.c ****     errs = "Unknown";
 198:../Middlewares/stedgeai-lib/Npu/ll_aton/ll_aton_lib.c ****     break;
 199:../Middlewares/stedgeai-lib/Npu/ll_aton/ll_aton_lib.c ****   }
 200:../Middlewares/stedgeai-lib/Npu/ll_aton/ll_aton_lib.c ****   LL_ATON_PRINTF("%s line %d LL_LIB Error: %s\n", func, line, errs);
 201:../Middlewares/stedgeai-lib/Npu/ll_aton/ll_aton_lib.c **** #endif // !NDEBUG
 202:../Middlewares/stedgeai-lib/Npu/ll_aton/ll_aton_lib.c **** }
 203:../Middlewares/stedgeai-lib/Npu/ll_aton/ll_aton_lib.c **** #endif // _LL_LIB_DEBUG
 204:../Middlewares/stedgeai-lib/Npu/ll_aton/ll_aton_lib.c **** 
 205:../Middlewares/stedgeai-lib/Npu/ll_aton/ll_aton_lib.c **** static inline __ll_lib_params_t *__ll_lib_get_params(void)
 206:../Middlewares/stedgeai-lib/Npu/ll_aton/ll_aton_lib.c **** {
 207:../Middlewares/stedgeai-lib/Npu/ll_aton/ll_aton_lib.c **** #ifndef NDEBUG
 208:../Middlewares/stedgeai-lib/Npu/ll_aton/ll_aton_lib.c ****   extern const NN_Instance_TypeDef *volatile __ll_current_aton_ip_owner;
 209:../Middlewares/stedgeai-lib/Npu/ll_aton/ll_aton_lib.c ****   LL_ATON_ASSERT(__ll_current_aton_ip_owner != NULL);
 210:../Middlewares/stedgeai-lib/Npu/ll_aton/ll_aton_lib.c **** #endif // !NDEBUG
 211:../Middlewares/stedgeai-lib/Npu/ll_aton/ll_aton_lib.c **** 
 212:../Middlewares/stedgeai-lib/Npu/ll_aton/ll_aton_lib.c ****   return (__ll_lib_params_t *)__ll_lib_heap;
 213:../Middlewares/stedgeai-lib/Npu/ll_aton/ll_aton_lib.c **** }
 214:../Middlewares/stedgeai-lib/Npu/ll_aton/ll_aton_lib.c **** 
 215:../Middlewares/stedgeai-lib/Npu/ll_aton/ll_aton_lib.c **** static inline void *__ll_lib_get_lower_heap(void)
 216:../Middlewares/stedgeai-lib/Npu/ll_aton/ll_aton_lib.c **** {
ARM GAS  /tmp/ccTQcp07.s 			page 18


 217:../Middlewares/stedgeai-lib/Npu/ll_aton/ll_aton_lib.c ****   __ll_lib_params_t *params = __ll_lib_get_params();
 218:../Middlewares/stedgeai-lib/Npu/ll_aton/ll_aton_lib.c ****   params++;
 219:../Middlewares/stedgeai-lib/Npu/ll_aton/ll_aton_lib.c ****   return (void *)params;
 220:../Middlewares/stedgeai-lib/Npu/ll_aton/ll_aton_lib.c **** }
 221:../Middlewares/stedgeai-lib/Npu/ll_aton/ll_aton_lib.c **** 
 222:../Middlewares/stedgeai-lib/Npu/ll_aton/ll_aton_lib.c **** static inline void __ll_lib_dump_strswitch(int dma_in, int dma_out)
 223:../Middlewares/stedgeai-lib/Npu/ll_aton/ll_aton_lib.c **** {
 224:../Middlewares/stedgeai-lib/Npu/ll_aton/ll_aton_lib.c ****   LL_ATON_LIB_UNUSED(dma_in);
 225:../Middlewares/stedgeai-lib/Npu/ll_aton/ll_aton_lib.c ****   LL_ATON_LIB_UNUSED(dma_out);
 226:../Middlewares/stedgeai-lib/Npu/ll_aton/ll_aton_lib.c **** 
 227:../Middlewares/stedgeai-lib/Npu/ll_aton/ll_aton_lib.c **** #if defined(DUMP_DEBUG_SW_OPS)
 228:../Middlewares/stedgeai-lib/Npu/ll_aton/ll_aton_lib.c ****   LL_ATON_PRINTF("===\n");
 229:../Middlewares/stedgeai-lib/Npu/ll_aton/ll_aton_lib.c ****   LL_ATON_PRINTF("dma_in: %d, dma_out: %d\n", dma_in, dma_out);
 230:../Middlewares/stedgeai-lib/Npu/ll_aton/ll_aton_lib.c ****   LL_ATON_PRINTF("---\n");
 231:../Middlewares/stedgeai-lib/Npu/ll_aton/ll_aton_lib.c ****   LL_ATON_PRINTF("dest: %d\n", ATONN_DSTPORT_ID(__ll_switch_init[0].dest));
 232:../Middlewares/stedgeai-lib/Npu/ll_aton/ll_aton_lib.c ****   LL_ATON_PRINTF("---\n");
 233:../Middlewares/stedgeai-lib/Npu/ll_aton/ll_aton_lib.c ****   LL_ATON_PRINTF("source0: %d\n", ATONN_SRCPORT_ID(__ll_switch_init[0].source0));
 234:../Middlewares/stedgeai-lib/Npu/ll_aton/ll_aton_lib.c ****   LL_ATON_PRINTF("frames0: %d\n", __ll_switch_init[0].frames0);
 235:../Middlewares/stedgeai-lib/Npu/ll_aton/ll_aton_lib.c ****   LL_ATON_PRINTF("context0: %d\n", __ll_switch_init[0].context0);
 236:../Middlewares/stedgeai-lib/Npu/ll_aton/ll_aton_lib.c ****   LL_ATON_PRINTF("---\n");
 237:../Middlewares/stedgeai-lib/Npu/ll_aton/ll_aton_lib.c ****   LL_ATON_PRINTF("source1: %d\n", ATONN_SRCPORT_ID(__ll_switch_init[0].source1));
 238:../Middlewares/stedgeai-lib/Npu/ll_aton/ll_aton_lib.c ****   LL_ATON_PRINTF("frames1: %d\n", __ll_switch_init[0].frames1);
 239:../Middlewares/stedgeai-lib/Npu/ll_aton/ll_aton_lib.c ****   LL_ATON_PRINTF("context1: %d\n", __ll_switch_init[0].context1);
 240:../Middlewares/stedgeai-lib/Npu/ll_aton/ll_aton_lib.c ****   LL_ATON_PRINTF("===\n");
 241:../Middlewares/stedgeai-lib/Npu/ll_aton/ll_aton_lib.c **** 
 242:../Middlewares/stedgeai-lib/Npu/ll_aton/ll_aton_lib.c **** #if (ATON_PLAT_HAS_FFLUSH)
 243:../Middlewares/stedgeai-lib/Npu/ll_aton/ll_aton_lib.c ****   LL_ATON_FFLUSH(stdout);
 244:../Middlewares/stedgeai-lib/Npu/ll_aton/ll_aton_lib.c **** #endif
 245:../Middlewares/stedgeai-lib/Npu/ll_aton/ll_aton_lib.c **** #endif // DUMP_DEBUG_SW_OPS
 246:../Middlewares/stedgeai-lib/Npu/ll_aton/ll_aton_lib.c **** }
 247:../Middlewares/stedgeai-lib/Npu/ll_aton/ll_aton_lib.c **** 
 248:../Middlewares/stedgeai-lib/Npu/ll_aton/ll_aton_lib.c **** static void __ll_lib_strswitch_set_dmas(int dma_in, int dma_out, LL_ATON_RT_EpochBlockItem_t *epoch
 249:../Middlewares/stedgeai-lib/Npu/ll_aton/ll_aton_lib.c **** {
 250:../Middlewares/stedgeai-lib/Npu/ll_aton/ll_aton_lib.c ****   __ll_lib_dump_strswitch(dma_in, dma_out); // just for debug purposes
 251:../Middlewares/stedgeai-lib/Npu/ll_aton/ll_aton_lib.c **** 
 252:../Middlewares/stedgeai-lib/Npu/ll_aton/ll_aton_lib.c ****   __ll_lib_params_t *params = __ll_lib_get_params();
 253:../Middlewares/stedgeai-lib/Npu/ll_aton/ll_aton_lib.c **** 
 254:../Middlewares/stedgeai-lib/Npu/ll_aton/ll_aton_lib.c ****   __ll_switch_init[0].source0 = __atonn_getSrcPortID(STRSWITCH, 0, STRENG, dma_in, 0);
 255:../Middlewares/stedgeai-lib/Npu/ll_aton/ll_aton_lib.c ****   __ll_switch_init[0].dest = __atonn_getDstPortID(STRSWITCH, 0, STRENG, dma_out, 0);
 256:../Middlewares/stedgeai-lib/Npu/ll_aton/ll_aton_lib.c **** 
 257:../Middlewares/stedgeai-lib/Npu/ll_aton/ll_aton_lib.c ****   AccelUnits dma_in_streng = {STRENG, dma_in};
 258:../Middlewares/stedgeai-lib/Npu/ll_aton/ll_aton_lib.c ****   AccelUnits dma_out_streng = {STRENG, dma_out};
 259:../Middlewares/stedgeai-lib/Npu/ll_aton/ll_aton_lib.c **** 
 260:../Middlewares/stedgeai-lib/Npu/ll_aton/ll_aton_lib.c ****   __ll_lib_dma_units[1].unit = dma_in_streng;
 261:../Middlewares/stedgeai-lib/Npu/ll_aton/ll_aton_lib.c ****   __ll_lib_dma_unit_id[1] = dma_in;
 262:../Middlewares/stedgeai-lib/Npu/ll_aton/ll_aton_lib.c ****   __ll_lib_dma_units[0].unit = dma_out_streng;
 263:../Middlewares/stedgeai-lib/Npu/ll_aton/ll_aton_lib.c ****   __ll_lib_dma_unit_id[0] = dma_out;
 264:../Middlewares/stedgeai-lib/Npu/ll_aton/ll_aton_lib.c **** 
 265:../Middlewares/stedgeai-lib/Npu/ll_aton/ll_aton_lib.c ****   uint32_t wait_mask = (0x1 << dma_out);
 266:../Middlewares/stedgeai-lib/Npu/ll_aton/ll_aton_lib.c ****   params->g_wait_mask = wait_mask;
 267:../Middlewares/stedgeai-lib/Npu/ll_aton/ll_aton_lib.c ****   epoch_block_array->wait_mask = wait_mask;
 268:../Middlewares/stedgeai-lib/Npu/ll_aton/ll_aton_lib.c **** 
 269:../Middlewares/stedgeai-lib/Npu/ll_aton/ll_aton_lib.c ****   __ll_lib_dump_strswitch(dma_in, dma_out); // just for debug purposes
 270:../Middlewares/stedgeai-lib/Npu/ll_aton/ll_aton_lib.c **** }
 271:../Middlewares/stedgeai-lib/Npu/ll_aton/ll_aton_lib.c **** 
 272:../Middlewares/stedgeai-lib/Npu/ll_aton/ll_aton_lib.c **** static inline void __ll_lib_start_transfer(__ll_lib_params_t *params)
 273:../Middlewares/stedgeai-lib/Npu/ll_aton/ll_aton_lib.c **** {
ARM GAS  /tmp/ccTQcp07.s 			page 19


 274:../Middlewares/stedgeai-lib/Npu/ll_aton/ll_aton_lib.c ****   LL_Streng_TensorInit(__ll_lib_dma_unit_id[1], &params->g_dma_in, 1);
 275:../Middlewares/stedgeai-lib/Npu/ll_aton/ll_aton_lib.c ****   LL_Streng_TensorInit(__ll_lib_dma_unit_id[0], &params->g_dma_out, 1);
 276:../Middlewares/stedgeai-lib/Npu/ll_aton/ll_aton_lib.c ****   LL_Switch_Init(__ll_switch_init, 1);
 277:../Middlewares/stedgeai-lib/Npu/ll_aton/ll_aton_lib.c ****   LL_ATON_EnableUnits_Init(__ll_lib_dma_units, 2);
 278:../Middlewares/stedgeai-lib/Npu/ll_aton/ll_aton_lib.c **** }
 279:../Middlewares/stedgeai-lib/Npu/ll_aton/ll_aton_lib.c **** 
 280:../Middlewares/stedgeai-lib/Npu/ll_aton/ll_aton_lib.c **** static inline void __ll_lib_stop_transfer(void)
 281:../Middlewares/stedgeai-lib/Npu/ll_aton/ll_aton_lib.c **** {
 282:../Middlewares/stedgeai-lib/Npu/ll_aton/ll_aton_lib.c ****   LL_Switch_Deinit(__ll_switch_init, 1);
 283:../Middlewares/stedgeai-lib/Npu/ll_aton/ll_aton_lib.c ****   LL_ATON_DisableUnits_Init(__ll_lib_dma_units, 2);
 284:../Middlewares/stedgeai-lib/Npu/ll_aton/ll_aton_lib.c ****   __LL_ATON_RT_SetWaitMask(0);
 285:../Middlewares/stedgeai-lib/Npu/ll_aton/ll_aton_lib.c **** }
 286:../Middlewares/stedgeai-lib/Npu/ll_aton/ll_aton_lib.c **** 
 287:../Middlewares/stedgeai-lib/Npu/ll_aton/ll_aton_lib.c **** static inline uint32_t __ll_lib_set_wait_mask(LL_ATON_RT_EpochBlockItem_t *eb, uint32_t wait_mask)
 288:../Middlewares/stedgeai-lib/Npu/ll_aton/ll_aton_lib.c **** {
 289:../Middlewares/stedgeai-lib/Npu/ll_aton/ll_aton_lib.c ****   uint32_t previous_value;
 290:../Middlewares/stedgeai-lib/Npu/ll_aton/ll_aton_lib.c ****   previous_value = eb->wait_mask;
 291:../Middlewares/stedgeai-lib/Npu/ll_aton/ll_aton_lib.c ****   eb->wait_mask = wait_mask;
 292:../Middlewares/stedgeai-lib/Npu/ll_aton/ll_aton_lib.c **** 
 293:../Middlewares/stedgeai-lib/Npu/ll_aton/ll_aton_lib.c ****   __LL_ATON_RT_SetWaitMask(eb->wait_mask);
 294:../Middlewares/stedgeai-lib/Npu/ll_aton/ll_aton_lib.c **** 
 295:../Middlewares/stedgeai-lib/Npu/ll_aton/ll_aton_lib.c ****   return previous_value;
 296:../Middlewares/stedgeai-lib/Npu/ll_aton/ll_aton_lib.c **** }
 297:../Middlewares/stedgeai-lib/Npu/ll_aton/ll_aton_lib.c **** 
 298:../Middlewares/stedgeai-lib/Npu/ll_aton/ll_aton_lib.c **** static inline void __ll_lib_prepare_inputs_epoch(const LL_LIB_TensorInfo_TypeDef *inputs, unsigned 
 299:../Middlewares/stedgeai-lib/Npu/ll_aton/ll_aton_lib.c ****                                                  const LL_Streng_TensorInitTypeDef *dma_in,
 300:../Middlewares/stedgeai-lib/Npu/ll_aton/ll_aton_lib.c ****                                                  const LL_Streng_TensorInitTypeDef *dma_out, unsign
 301:../Middlewares/stedgeai-lib/Npu/ll_aton/ll_aton_lib.c ****                                                  int nbytes_or_line_size)
 302:../Middlewares/stedgeai-lib/Npu/ll_aton/ll_aton_lib.c **** {
 303:../Middlewares/stedgeai-lib/Npu/ll_aton/ll_aton_lib.c ****   /* get pointers to static structures */
 304:../Middlewares/stedgeai-lib/Npu/ll_aton/ll_aton_lib.c ****   __ll_lib_params_t *params = __ll_lib_get_params();
 305:../Middlewares/stedgeai-lib/Npu/ll_aton/ll_aton_lib.c ****   void *inputs_copy = __ll_lib_get_lower_heap();
 306:../Middlewares/stedgeai-lib/Npu/ll_aton/ll_aton_lib.c **** 
 307:../Middlewares/stedgeai-lib/Npu/ll_aton/ll_aton_lib.c ****   /* fill `inputs_copy` */
 308:../Middlewares/stedgeai-lib/Npu/ll_aton/ll_aton_lib.c ****   // NOTE: must treat the failing of the beyond `LL_ATON_ASSERT` statement as error!
 309:../Middlewares/stedgeai-lib/Npu/ll_aton/ll_aton_lib.c ****   // TODO: must be changed in a way that allows both a return from this function
 310:../Middlewares/stedgeai-lib/Npu/ll_aton/ll_aton_lib.c ****   //       and to return control back to the user's main loop
 311:../Middlewares/stedgeai-lib/Npu/ll_aton/ll_aton_lib.c ****   //       e.g. by using an internal flag/variable to signal the error,
 312:../Middlewares/stedgeai-lib/Npu/ll_aton/ll_aton_lib.c ****   //       then performing a `LL_ATON_RT_RuntimeDeInit()`,
 313:../Middlewares/stedgeai-lib/Npu/ll_aton/ll_aton_lib.c ****   //       and returning with a respective (new) return value (of type `LL_ATON_RT_RetValues_t`),
 314:../Middlewares/stedgeai-lib/Npu/ll_aton/ll_aton_lib.c ****   //       reporting about the error, from the latest call to `LL_ATON_RT_RunEpochBlock()`
 315:../Middlewares/stedgeai-lib/Npu/ll_aton/ll_aton_lib.c ****   LL_ATON_ASSERT(ninputs <= __LL_MAX_TENSORS);
 316:../Middlewares/stedgeai-lib/Npu/ll_aton/ll_aton_lib.c ****   memcpy(inputs_copy, inputs, sizeof(LL_LIB_TensorInfo_TypeDef) * ninputs);
 317:../Middlewares/stedgeai-lib/Npu/ll_aton/ll_aton_lib.c **** 
 318:../Middlewares/stedgeai-lib/Npu/ll_aton/ll_aton_lib.c ****   params->g_tensors = inputs_copy;
 319:../Middlewares/stedgeai-lib/Npu/ll_aton/ll_aton_lib.c ****   params->g_num_tensors = ninputs;
 320:../Middlewares/stedgeai-lib/Npu/ll_aton/ll_aton_lib.c **** 
 321:../Middlewares/stedgeai-lib/Npu/ll_aton/ll_aton_lib.c ****   params->g_dma_in = *dma_in;
 322:../Middlewares/stedgeai-lib/Npu/ll_aton/ll_aton_lib.c ****   params->g_dma_out = *dma_out;
 323:../Middlewares/stedgeai-lib/Npu/ll_aton/ll_aton_lib.c **** 
 324:../Middlewares/stedgeai-lib/Npu/ll_aton/ll_aton_lib.c ****   params->g_dst_o_src = out_start;
 325:../Middlewares/stedgeai-lib/Npu/ll_aton/ll_aton_lib.c ****   params->g_not_continuous = 0; // signals that destination is not written linearly
 326:../Middlewares/stedgeai-lib/Npu/ll_aton/ll_aton_lib.c **** 
 327:../Middlewares/stedgeai-lib/Npu/ll_aton/ll_aton_lib.c ****   params->g_size = nbytes_or_line_size;
 328:../Middlewares/stedgeai-lib/Npu/ll_aton/ll_aton_lib.c ****   params->g_idx = 0;
 329:../Middlewares/stedgeai-lib/Npu/ll_aton/ll_aton_lib.c **** 
 330:../Middlewares/stedgeai-lib/Npu/ll_aton/ll_aton_lib.c ****   params->g_offset_limit = 0;
ARM GAS  /tmp/ccTQcp07.s 			page 20


 331:../Middlewares/stedgeai-lib/Npu/ll_aton/ll_aton_lib.c **** }
 332:../Middlewares/stedgeai-lib/Npu/ll_aton/ll_aton_lib.c **** 
 333:../Middlewares/stedgeai-lib/Npu/ll_aton/ll_aton_lib.c **** static inline void __ll_lib_prepare_outputs_epoch(const LL_Buffer_InfoTypeDef *outputs, unsigned in
 334:../Middlewares/stedgeai-lib/Npu/ll_aton/ll_aton_lib.c ****                                                   const LL_Streng_TensorInitTypeDef *dma_in,
 335:../Middlewares/stedgeai-lib/Npu/ll_aton/ll_aton_lib.c ****                                                   const LL_Streng_TensorInitTypeDef *dma_out,
 336:../Middlewares/stedgeai-lib/Npu/ll_aton/ll_aton_lib.c ****                                                   const LL_Buffer_InfoTypeDef *input)
 337:../Middlewares/stedgeai-lib/Npu/ll_aton/ll_aton_lib.c **** {
 338:../Middlewares/stedgeai-lib/Npu/ll_aton/ll_aton_lib.c ****   /* get pointers to static structures */
 339:../Middlewares/stedgeai-lib/Npu/ll_aton/ll_aton_lib.c ****   __ll_lib_params_t *params = __ll_lib_get_params();
 340:../Middlewares/stedgeai-lib/Npu/ll_aton/ll_aton_lib.c ****   void *outputs_copy = __ll_lib_get_lower_heap();
 341:../Middlewares/stedgeai-lib/Npu/ll_aton/ll_aton_lib.c **** 
 342:../Middlewares/stedgeai-lib/Npu/ll_aton/ll_aton_lib.c ****   /* fill `outputs_copy` */
 343:../Middlewares/stedgeai-lib/Npu/ll_aton/ll_aton_lib.c ****   // NOTE: must treat the failing of the beyond `LL_ATON_ASSERT` statement as error!
 344:../Middlewares/stedgeai-lib/Npu/ll_aton/ll_aton_lib.c ****   // TODO: must be changed in a way that allows both a return from this function
 345:../Middlewares/stedgeai-lib/Npu/ll_aton/ll_aton_lib.c ****   //       and to return control back to the user's main loop
 346:../Middlewares/stedgeai-lib/Npu/ll_aton/ll_aton_lib.c ****   //       e.g. by using an internal flag/variable to signal the error,
 347:../Middlewares/stedgeai-lib/Npu/ll_aton/ll_aton_lib.c ****   //       then performing a `LL_ATON_RT_RuntimeDeInit()`,
 348:../Middlewares/stedgeai-lib/Npu/ll_aton/ll_aton_lib.c ****   //       and returning with a respective (new) return value (of type `LL_ATON_RT_RetValues_t`),
 349:../Middlewares/stedgeai-lib/Npu/ll_aton/ll_aton_lib.c ****   //       reporting about the error, from the latest call to `LL_ATON_RT_RunEpochBlock()`
 350:../Middlewares/stedgeai-lib/Npu/ll_aton/ll_aton_lib.c ****   LL_ATON_ASSERT(noutputs <= __LL_MAX_TENSORS);
 351:../Middlewares/stedgeai-lib/Npu/ll_aton/ll_aton_lib.c ****   memcpy(outputs_copy, outputs, sizeof(LL_Buffer_InfoTypeDef) * noutputs);
 352:../Middlewares/stedgeai-lib/Npu/ll_aton/ll_aton_lib.c **** 
 353:../Middlewares/stedgeai-lib/Npu/ll_aton/ll_aton_lib.c ****   params->g_tensors = outputs_copy;
 354:../Middlewares/stedgeai-lib/Npu/ll_aton/ll_aton_lib.c ****   params->g_num_tensors = noutputs;
 355:../Middlewares/stedgeai-lib/Npu/ll_aton/ll_aton_lib.c **** 
 356:../Middlewares/stedgeai-lib/Npu/ll_aton/ll_aton_lib.c ****   params->g_dma_in = *dma_in;
 357:../Middlewares/stedgeai-lib/Npu/ll_aton/ll_aton_lib.c ****   params->g_dma_out = *dma_out;
 358:../Middlewares/stedgeai-lib/Npu/ll_aton/ll_aton_lib.c **** 
 359:../Middlewares/stedgeai-lib/Npu/ll_aton/ll_aton_lib.c ****   params->g_dst_o_src = LL_Buffer_addr_start(input);
 360:../Middlewares/stedgeai-lib/Npu/ll_aton/ll_aton_lib.c ****   params->g_dst_o_src = LL_Buffer_addr_start(input);
 361:../Middlewares/stedgeai-lib/Npu/ll_aton/ll_aton_lib.c ****   params->g_not_continuous = 0; // signals that source is not read linearly
 362:../Middlewares/stedgeai-lib/Npu/ll_aton/ll_aton_lib.c **** 
 363:../Middlewares/stedgeai-lib/Npu/ll_aton/ll_aton_lib.c ****   params->g_size = -1;
 364:../Middlewares/stedgeai-lib/Npu/ll_aton/ll_aton_lib.c ****   params->g_idx = 0;
 365:../Middlewares/stedgeai-lib/Npu/ll_aton/ll_aton_lib.c **** 
 366:../Middlewares/stedgeai-lib/Npu/ll_aton/ll_aton_lib.c ****   params->g_offset_limit = input->offset_limit;
 367:../Middlewares/stedgeai-lib/Npu/ll_aton/ll_aton_lib.c **** }
 368:../Middlewares/stedgeai-lib/Npu/ll_aton/ll_aton_lib.c **** 
 369:../Middlewares/stedgeai-lib/Npu/ll_aton/ll_aton_lib.c **** /* `memcpy` generic epoch blocks */
 370:../Middlewares/stedgeai-lib/Npu/ll_aton/ll_aton_lib.c **** static inline size_t __ll_lib_memcpy_prolog(void **dst, void **src, size_t n)
 371:../Middlewares/stedgeai-lib/Npu/ll_aton/ll_aton_lib.c **** {
 226              		.loc 1 371 1 is_stmt 1 view -0
 227              		.cfi_startproc
 228              		@ args = 0, pretend = 0, frame = 0
 229              		@ frame_needed = 0, uses_anonymous_args = 0
 372:../Middlewares/stedgeai-lib/Npu/ll_aton/ll_aton_lib.c ****   uint8_t *_dst_orig = *dst;
 230              		.loc 1 372 3 view .LVU59
 373:../Middlewares/stedgeai-lib/Npu/ll_aton/ll_aton_lib.c **** 
 374:../Middlewares/stedgeai-lib/Npu/ll_aton/ll_aton_lib.c ****   int prolog_len = (n % 3);
 375:../Middlewares/stedgeai-lib/Npu/ll_aton/ll_aton_lib.c ****   int i;
 376:../Middlewares/stedgeai-lib/Npu/ll_aton/ll_aton_lib.c ****   uint8_t **_dst = (uint8_t **)dst;
 377:../Middlewares/stedgeai-lib/Npu/ll_aton/ll_aton_lib.c ****   uint8_t **_src = (uint8_t **)src;
 378:../Middlewares/stedgeai-lib/Npu/ll_aton/ll_aton_lib.c **** 
 379:../Middlewares/stedgeai-lib/Npu/ll_aton/ll_aton_lib.c ****   if (n < __LL_DMA_MIN_BUFF_LEN)
 231              		.loc 1 379 6 is_stmt 0 view .LVU60
 232 0000 272A     		cmp	r2, #39
 233 0002 1346     		mov	r3, r2
ARM GAS  /tmp/ccTQcp07.s 			page 21


 374:../Middlewares/stedgeai-lib/Npu/ll_aton/ll_aton_lib.c ****   int i;
 234              		.loc 1 374 23 view .LVU61
 235 0004 81BF     		itttt	hi
 236 0006 0323     		movhi	r3, #3
 237 0008 B2FBF3F3 		udivhi	r3, r2, r3
 238 000c 03EB4303 		addhi	r3, r3, r3, lsl #1
 239 0010 D31A     		subhi	r3, r2, r3
 240 0012 002B     		cmp	r3, #0
 371:../Middlewares/stedgeai-lib/Npu/ll_aton/ll_aton_lib.c ****   uint8_t *_dst_orig = *dst;
 241              		.loc 1 371 1 view .LVU62
 242 0014 70B5     		push	{r4, r5, r6, lr}
 243              		.cfi_def_cfa_offset 16
 244              		.cfi_offset 4, -16
 245              		.cfi_offset 5, -12
 246              		.cfi_offset 6, -8
 247              		.cfi_offset 14, -4
 380:../Middlewares/stedgeai-lib/Npu/ll_aton/ll_aton_lib.c ****     prolog_len = n; // not worth it ...
 381:../Middlewares/stedgeai-lib/Npu/ll_aton/ll_aton_lib.c **** 
 382:../Middlewares/stedgeai-lib/Npu/ll_aton/ll_aton_lib.c ****   for (i = 0; i < prolog_len; i++)
 248              		.loc 1 382 10 view .LVU63
 249 0016 03F1010E 		add	lr, r3, #1
 250 001a B8BF     		it	lt
 251 001c 4FF0010E 		movlt	lr, #1
 252 0020 4EF001E0 		dls	lr, lr
 371:../Middlewares/stedgeai-lib/Npu/ll_aton/ll_aton_lib.c ****   uint8_t *_dst_orig = *dst;
 253              		.loc 1 371 1 view .LVU64
 254 0024 0446     		mov	r4, r0
 372:../Middlewares/stedgeai-lib/Npu/ll_aton/ll_aton_lib.c **** 
 255              		.loc 1 372 12 view .LVU65
 256 0026 0068     		ldr	r0, [r0]
 257              	.LVL22:
 374:../Middlewares/stedgeai-lib/Npu/ll_aton/ll_aton_lib.c ****   int i;
 258              		.loc 1 374 3 is_stmt 1 view .LVU66
 375:../Middlewares/stedgeai-lib/Npu/ll_aton/ll_aton_lib.c ****   uint8_t **_dst = (uint8_t **)dst;
 259              		.loc 1 375 3 view .LVU67
 376:../Middlewares/stedgeai-lib/Npu/ll_aton/ll_aton_lib.c ****   uint8_t **_src = (uint8_t **)src;
 260              		.loc 1 376 3 view .LVU68
 377:../Middlewares/stedgeai-lib/Npu/ll_aton/ll_aton_lib.c **** 
 261              		.loc 1 377 3 view .LVU69
 379:../Middlewares/stedgeai-lib/Npu/ll_aton/ll_aton_lib.c ****     prolog_len = n; // not worth it ...
 262              		.loc 1 379 3 view .LVU70
 263              		.loc 1 382 3 view .LVU71
 264              	.L16:
 265              		.loc 1 382 17 discriminator 1 view .LVU72
 266 0028 BEF1010E 		subs	lr, #1;bne	.L17
 266      06D1
 383:../Middlewares/stedgeai-lib/Npu/ll_aton/ll_aton_lib.c ****   {
 384:../Middlewares/stedgeai-lib/Npu/ll_aton/ll_aton_lib.c ****     **_dst = **_src;
 385:../Middlewares/stedgeai-lib/Npu/ll_aton/ll_aton_lib.c ****     (*_dst)++;
 386:../Middlewares/stedgeai-lib/Npu/ll_aton/ll_aton_lib.c ****     (*_src)++;
 387:../Middlewares/stedgeai-lib/Npu/ll_aton/ll_aton_lib.c ****   }
 388:../Middlewares/stedgeai-lib/Npu/ll_aton/ll_aton_lib.c ****   n -= prolog_len;
 267              		.loc 1 388 3 view .LVU73
 268              		.loc 1 388 5 is_stmt 0 view .LVU74
 269 002e D41A     		subs	r4, r2, r3
 270              	.LVL23:
 389:../Middlewares/stedgeai-lib/Npu/ll_aton/ll_aton_lib.c **** 
ARM GAS  /tmp/ccTQcp07.s 			page 22


 390:../Middlewares/stedgeai-lib/Npu/ll_aton/ll_aton_lib.c ****   if (prolog_len > 0)
 271              		.loc 1 390 3 is_stmt 1 view .LVU75
 272              		.loc 1 390 6 is_stmt 0 view .LVU76
 273 0030 13B1     		cbz	r3, .L14
 391:../Middlewares/stedgeai-lib/Npu/ll_aton/ll_aton_lib.c ****   {
 392:../Middlewares/stedgeai-lib/Npu/ll_aton/ll_aton_lib.c ****     /* *** MCU cache clean & invalidate operation (SW) *** */
 393:../Middlewares/stedgeai-lib/Npu/ll_aton/ll_aton_lib.c ****     LL_ATON_Cache_MCU_Clean_Invalidate_Range(ATON_LIB_PHYSICAL_TO_VIRTUAL_ADDR((uintptr_t)_dst_orig
 274              		.loc 1 393 5 is_stmt 1 view .LVU77
 275              	.LVL24:
 276              	.LBB174:
 277              	.LBI174:
 278              		.file 3 "../Middlewares/stedgeai-lib/Npu/ll_aton/ll_aton_caches_interface.h"
   1:../Middlewares/stedgeai-lib/Npu/ll_aton/ll_aton_caches_interface.h **** /**
   2:../Middlewares/stedgeai-lib/Npu/ll_aton/ll_aton_caches_interface.h ****  ******************************************************************************
   3:../Middlewares/stedgeai-lib/Npu/ll_aton/ll_aton_caches_interface.h ****  * @file    ll_aton_caches_interface.h
   4:../Middlewares/stedgeai-lib/Npu/ll_aton/ll_aton_caches_interface.h ****  * @author  SRA Artificial Intelligence & Embedded Architectures
   5:../Middlewares/stedgeai-lib/Npu/ll_aton/ll_aton_caches_interface.h ****  * @brief   Header file for defining an implementing generic cache handling
   6:../Middlewares/stedgeai-lib/Npu/ll_aton/ll_aton_caches_interface.h ****  *          functions for the application writer
   7:../Middlewares/stedgeai-lib/Npu/ll_aton/ll_aton_caches_interface.h ****  ******************************************************************************
   8:../Middlewares/stedgeai-lib/Npu/ll_aton/ll_aton_caches_interface.h ****  * @attention
   9:../Middlewares/stedgeai-lib/Npu/ll_aton/ll_aton_caches_interface.h ****  *
  10:../Middlewares/stedgeai-lib/Npu/ll_aton/ll_aton_caches_interface.h ****  * Copyright (c) 2024 STMicroelectronics.
  11:../Middlewares/stedgeai-lib/Npu/ll_aton/ll_aton_caches_interface.h ****  * All rights reserved.
  12:../Middlewares/stedgeai-lib/Npu/ll_aton/ll_aton_caches_interface.h ****  *
  13:../Middlewares/stedgeai-lib/Npu/ll_aton/ll_aton_caches_interface.h ****  * This software is licensed under terms that can be found in the LICENSE file
  14:../Middlewares/stedgeai-lib/Npu/ll_aton/ll_aton_caches_interface.h ****  * in the root directory of this software component.
  15:../Middlewares/stedgeai-lib/Npu/ll_aton/ll_aton_caches_interface.h ****  * If no LICENSE file comes with this software, it is provided AS-IS.
  16:../Middlewares/stedgeai-lib/Npu/ll_aton/ll_aton_caches_interface.h ****  *
  17:../Middlewares/stedgeai-lib/Npu/ll_aton/ll_aton_caches_interface.h ****  ******************************************************************************
  18:../Middlewares/stedgeai-lib/Npu/ll_aton/ll_aton_caches_interface.h ****  */
  19:../Middlewares/stedgeai-lib/Npu/ll_aton/ll_aton_caches_interface.h **** 
  20:../Middlewares/stedgeai-lib/Npu/ll_aton/ll_aton_caches_interface.h **** #ifndef __LL_ATON_CACHES_H
  21:../Middlewares/stedgeai-lib/Npu/ll_aton/ll_aton_caches_interface.h **** #define __LL_ATON_CACHES_H
  22:../Middlewares/stedgeai-lib/Npu/ll_aton/ll_aton_caches_interface.h **** 
  23:../Middlewares/stedgeai-lib/Npu/ll_aton/ll_aton_caches_interface.h **** #include <stdint.h>
  24:../Middlewares/stedgeai-lib/Npu/ll_aton/ll_aton_caches_interface.h **** 
  25:../Middlewares/stedgeai-lib/Npu/ll_aton/ll_aton_caches_interface.h **** #ifdef __cplusplus
  26:../Middlewares/stedgeai-lib/Npu/ll_aton/ll_aton_caches_interface.h **** extern "C"
  27:../Middlewares/stedgeai-lib/Npu/ll_aton/ll_aton_caches_interface.h **** {
  28:../Middlewares/stedgeai-lib/Npu/ll_aton/ll_aton_caches_interface.h **** #endif
  29:../Middlewares/stedgeai-lib/Npu/ll_aton/ll_aton_caches_interface.h **** 
  30:../Middlewares/stedgeai-lib/Npu/ll_aton/ll_aton_caches_interface.h **** #include "ll_aton_attributes.h"
  31:../Middlewares/stedgeai-lib/Npu/ll_aton/ll_aton_caches_interface.h **** #include "ll_aton_osal.h"
  32:../Middlewares/stedgeai-lib/Npu/ll_aton/ll_aton_caches_interface.h **** #include "ll_aton_platform.h"
  33:../Middlewares/stedgeai-lib/Npu/ll_aton/ll_aton_caches_interface.h **** 
  34:../Middlewares/stedgeai-lib/Npu/ll_aton/ll_aton_caches_interface.h **** #if !defined(BUILD_AI_NETWORK_RELOC)
  35:../Middlewares/stedgeai-lib/Npu/ll_aton/ll_aton_caches_interface.h **** 
  36:../Middlewares/stedgeai-lib/Npu/ll_aton/ll_aton_caches_interface.h **** #if (LL_ATON_PLATFORM == LL_ATON_PLAT_STM32N6)
  37:../Middlewares/stedgeai-lib/Npu/ll_aton/ll_aton_caches_interface.h **** 
  38:../Middlewares/stedgeai-lib/Npu/ll_aton/ll_aton_caches_interface.h ****   /*** MCU cache maintenance functions ***/
  39:../Middlewares/stedgeai-lib/Npu/ll_aton/ll_aton_caches_interface.h **** 
  40:../Middlewares/stedgeai-lib/Npu/ll_aton/ll_aton_caches_interface.h **** #include "mcu_cache.h"
  41:../Middlewares/stedgeai-lib/Npu/ll_aton/ll_aton_caches_interface.h **** 
  42:../Middlewares/stedgeai-lib/Npu/ll_aton/ll_aton_caches_interface.h ****   /**
  43:../Middlewares/stedgeai-lib/Npu/ll_aton/ll_aton_caches_interface.h ****    * @brief perform MCU cache clean maintenance operation on an address range
  44:../Middlewares/stedgeai-lib/Npu/ll_aton/ll_aton_caches_interface.h ****    * @details whenever the content of a buffer is changed by the application (which is especially t
  45:../Middlewares/stedgeai-lib/Npu/ll_aton/ll_aton_caches_interface.h ****    *          buffers) cache maintenance MUST be taken into account before being able to run the ne
ARM GAS  /tmp/ccTQcp07.s 			page 23


  46:../Middlewares/stedgeai-lib/Npu/ll_aton/ll_aton_caches_interface.h ****    * @param[in] virtual_addr start address (host-side/virtual) of address range
  47:../Middlewares/stedgeai-lib/Npu/ll_aton/ll_aton_caches_interface.h ****    * @param[in] size size of address range
  48:../Middlewares/stedgeai-lib/Npu/ll_aton/ll_aton_caches_interface.h ****    *
  49:../Middlewares/stedgeai-lib/Npu/ll_aton/ll_aton_caches_interface.h ****    * @note the address range should fulfill alignment constraints with respect to the MCU cache lin
  50:../Middlewares/stedgeai-lib/Npu/ll_aton/ll_aton_caches_interface.h ****    *       for both its `address` & `size` (to better correspond to what this operation will actual
  51:../Middlewares/stedgeai-lib/Npu/ll_aton/ll_aton_caches_interface.h ****    * @note this function is intended to handle the case where a buffer has been filled by the MCU/p
  52:../Middlewares/stedgeai-lib/Npu/ll_aton/ll_aton_caches_interface.h ****    *       passing thru the MCU cache) and should be called AFTER that the buffer has been filled
  53:../Middlewares/stedgeai-lib/Npu/ll_aton/ll_aton_caches_interface.h ****    */
  54:../Middlewares/stedgeai-lib/Npu/ll_aton/ll_aton_caches_interface.h ****   static inline void LL_ATON_Cache_MCU_Clean_Range(uintptr_t virtual_addr, uint32_t size)
  55:../Middlewares/stedgeai-lib/Npu/ll_aton/ll_aton_caches_interface.h ****   {
  56:../Middlewares/stedgeai-lib/Npu/ll_aton/ll_aton_caches_interface.h ****     LL_ATON_OSAL_LOCK_MCU_CACHE();
  57:../Middlewares/stedgeai-lib/Npu/ll_aton/ll_aton_caches_interface.h ****     mcu_cache_clean_range(virtual_addr, virtual_addr + size);
  58:../Middlewares/stedgeai-lib/Npu/ll_aton/ll_aton_caches_interface.h ****     LL_ATON_OSAL_UNLOCK_MCU_CACHE();
  59:../Middlewares/stedgeai-lib/Npu/ll_aton/ll_aton_caches_interface.h ****   }
  60:../Middlewares/stedgeai-lib/Npu/ll_aton/ll_aton_caches_interface.h **** 
  61:../Middlewares/stedgeai-lib/Npu/ll_aton/ll_aton_caches_interface.h ****   /**
  62:../Middlewares/stedgeai-lib/Npu/ll_aton/ll_aton_caches_interface.h ****    * @brief perform MCU cache invalidate maintenance operation on an address range
  63:../Middlewares/stedgeai-lib/Npu/ll_aton/ll_aton_caches_interface.h ****    * @details whenever the content of a buffer is changed by the application (which is especially t
  64:../Middlewares/stedgeai-lib/Npu/ll_aton/ll_aton_caches_interface.h ****    *          buffers) cache maintenance MUST be taken into account before being able to run the ne
  65:../Middlewares/stedgeai-lib/Npu/ll_aton/ll_aton_caches_interface.h ****    * @param[in] virtual_addr start address (host-side/virtual) of address range
  66:../Middlewares/stedgeai-lib/Npu/ll_aton/ll_aton_caches_interface.h ****    * @param[in] size size of address range
  67:../Middlewares/stedgeai-lib/Npu/ll_aton/ll_aton_caches_interface.h ****    *
  68:../Middlewares/stedgeai-lib/Npu/ll_aton/ll_aton_caches_interface.h ****    * @note the address range should fulfill alignment constraints with respect to the MCU cache lin
  69:../Middlewares/stedgeai-lib/Npu/ll_aton/ll_aton_caches_interface.h ****    *       for both its `address` & `size` (to better correspond to what this operation will actual
  70:../Middlewares/stedgeai-lib/Npu/ll_aton/ll_aton_caches_interface.h ****    * @note this function is intended to handle the case where a buffer has been filled by-passing t
  71:../Middlewares/stedgeai-lib/Npu/ll_aton/ll_aton_caches_interface.h ****    *       cache (e.g. using a DMA) and should be called BEFORE the buffer gets filled
  72:../Middlewares/stedgeai-lib/Npu/ll_aton/ll_aton_caches_interface.h ****    */
  73:../Middlewares/stedgeai-lib/Npu/ll_aton/ll_aton_caches_interface.h ****   static inline void LL_ATON_Cache_MCU_Invalidate_Range(uintptr_t virtual_addr, uint32_t size)
  74:../Middlewares/stedgeai-lib/Npu/ll_aton/ll_aton_caches_interface.h ****   {
  75:../Middlewares/stedgeai-lib/Npu/ll_aton/ll_aton_caches_interface.h ****     LL_ATON_OSAL_LOCK_MCU_CACHE();
  76:../Middlewares/stedgeai-lib/Npu/ll_aton/ll_aton_caches_interface.h ****     mcu_cache_invalidate_range(virtual_addr, virtual_addr + size);
  77:../Middlewares/stedgeai-lib/Npu/ll_aton/ll_aton_caches_interface.h ****     LL_ATON_OSAL_UNLOCK_MCU_CACHE();
  78:../Middlewares/stedgeai-lib/Npu/ll_aton/ll_aton_caches_interface.h ****   }
  79:../Middlewares/stedgeai-lib/Npu/ll_aton/ll_aton_caches_interface.h **** 
  80:../Middlewares/stedgeai-lib/Npu/ll_aton/ll_aton_caches_interface.h ****   /**
  81:../Middlewares/stedgeai-lib/Npu/ll_aton/ll_aton_caches_interface.h ****    * @brief perform MCU cache clean & invalidate maintenance operation on an address range
  82:../Middlewares/stedgeai-lib/Npu/ll_aton/ll_aton_caches_interface.h ****    * @details whenever the content of a buffer is changed by the application (which is especially t
  83:../Middlewares/stedgeai-lib/Npu/ll_aton/ll_aton_caches_interface.h ****    *          buffers) cache maintenance MUST be taken into account before being able to run the ne
  84:../Middlewares/stedgeai-lib/Npu/ll_aton/ll_aton_caches_interface.h ****    * @param[in] virtual_addr start address (host-side/virtual) of address range
  85:../Middlewares/stedgeai-lib/Npu/ll_aton/ll_aton_caches_interface.h ****    * @param[in] size size of address range
  86:../Middlewares/stedgeai-lib/Npu/ll_aton/ll_aton_caches_interface.h ****    *
  87:../Middlewares/stedgeai-lib/Npu/ll_aton/ll_aton_caches_interface.h ****    * @note the address range should fulfill alignment constraints with respect to the MCU cache lin
  88:../Middlewares/stedgeai-lib/Npu/ll_aton/ll_aton_caches_interface.h ****    *       for both its `address` & `size` (to better correspond to what this operation will actual
  89:../Middlewares/stedgeai-lib/Npu/ll_aton/ll_aton_caches_interface.h ****    * @note this function is intended to handle the case where a buffer has been filled by the MCU/p
  90:../Middlewares/stedgeai-lib/Npu/ll_aton/ll_aton_caches_interface.h ****    *       (such passing thru the MCU cache) and is gonna to be modified immediately afterwards by-
  91:../Middlewares/stedgeai-lib/Npu/ll_aton/ll_aton_caches_interface.h ****    *       the MCU/processor cache (e.g. using a DMA). It should be called AFTER that the buffer ha
  92:../Middlewares/stedgeai-lib/Npu/ll_aton/ll_aton_caches_interface.h ****    *       filled
  93:../Middlewares/stedgeai-lib/Npu/ll_aton/ll_aton_caches_interface.h ****    */
  94:../Middlewares/stedgeai-lib/Npu/ll_aton/ll_aton_caches_interface.h ****   static inline void LL_ATON_Cache_MCU_Clean_Invalidate_Range(uintptr_t virtual_addr, uint32_t size
 279              		.loc 3 94 22 view .LVU78
 280              	.LBB175:
  95:../Middlewares/stedgeai-lib/Npu/ll_aton/ll_aton_caches_interface.h ****   {
  96:../Middlewares/stedgeai-lib/Npu/ll_aton/ll_aton_caches_interface.h ****     LL_ATON_OSAL_LOCK_MCU_CACHE();
 281              		.loc 3 96 34 view .LVU79
  97:../Middlewares/stedgeai-lib/Npu/ll_aton/ll_aton_caches_interface.h ****     mcu_cache_clean_invalidate_range(virtual_addr, virtual_addr + size);
 282              		.loc 3 97 5 view .LVU80
 283 0032 C118     		adds	r1, r0, r3
ARM GAS  /tmp/ccTQcp07.s 			page 24


 284              	.LVL25:
 285              		.loc 3 97 5 is_stmt 0 view .LVU81
 286 0034 FFF7FEFF 		bl	mcu_cache_clean_invalidate_range
 287              	.LVL26:
  98:../Middlewares/stedgeai-lib/Npu/ll_aton/ll_aton_caches_interface.h ****     LL_ATON_OSAL_UNLOCK_MCU_CACHE();
 288              		.loc 3 98 36 is_stmt 1 view .LVU82
 289              		.loc 3 98 36 is_stmt 0 view .LVU83
 290              	.LBE175:
 291              	.LBE174:
 394:../Middlewares/stedgeai-lib/Npu/ll_aton/ll_aton_lib.c ****   }
 395:../Middlewares/stedgeai-lib/Npu/ll_aton/ll_aton_lib.c **** 
 396:../Middlewares/stedgeai-lib/Npu/ll_aton/ll_aton_lib.c ****   return n;
 292              		.loc 1 396 3 is_stmt 1 view .LVU84
 293              	.L14:
 397:../Middlewares/stedgeai-lib/Npu/ll_aton/ll_aton_lib.c **** }
 294              		.loc 1 397 1 is_stmt 0 view .LVU85
 295 0038 2046     		mov	r0, r4
 296 003a 70BD     		pop	{r4, r5, r6, pc}
 297              	.LVL27:
 298              	.L17:
 384:../Middlewares/stedgeai-lib/Npu/ll_aton/ll_aton_lib.c ****     (*_dst)++;
 299              		.loc 1 384 5 is_stmt 1 view .LVU86
 384:../Middlewares/stedgeai-lib/Npu/ll_aton/ll_aton_lib.c ****     (*_dst)++;
 300              		.loc 1 384 14 is_stmt 0 view .LVU87
 301 003c 0E68     		ldr	r6, [r1]
 384:../Middlewares/stedgeai-lib/Npu/ll_aton/ll_aton_lib.c ****     (*_dst)++;
 302              		.loc 1 384 6 view .LVU88
 303 003e 2568     		ldr	r5, [r4]
 384:../Middlewares/stedgeai-lib/Npu/ll_aton/ll_aton_lib.c ****     (*_dst)++;
 304              		.loc 1 384 14 view .LVU89
 305 0040 3678     		ldrb	r6, [r6]	@ zero_extendqisi2
 384:../Middlewares/stedgeai-lib/Npu/ll_aton/ll_aton_lib.c ****     (*_dst)++;
 306              		.loc 1 384 12 view .LVU90
 307 0042 2E70     		strb	r6, [r5]
 385:../Middlewares/stedgeai-lib/Npu/ll_aton/ll_aton_lib.c ****     (*_src)++;
 308              		.loc 1 385 5 is_stmt 1 view .LVU91
 385:../Middlewares/stedgeai-lib/Npu/ll_aton/ll_aton_lib.c ****     (*_src)++;
 309              		.loc 1 385 12 is_stmt 0 view .LVU92
 310 0044 2568     		ldr	r5, [r4]
 311 0046 0135     		adds	r5, r5, #1
 312 0048 2560     		str	r5, [r4]
 386:../Middlewares/stedgeai-lib/Npu/ll_aton/ll_aton_lib.c ****   }
 313              		.loc 1 386 5 is_stmt 1 view .LVU93
 386:../Middlewares/stedgeai-lib/Npu/ll_aton/ll_aton_lib.c ****   }
 314              		.loc 1 386 12 is_stmt 0 view .LVU94
 315 004a 0D68     		ldr	r5, [r1]
 316 004c 0135     		adds	r5, r5, #1
 317 004e 0D60     		str	r5, [r1]
 382:../Middlewares/stedgeai-lib/Npu/ll_aton/ll_aton_lib.c ****   {
 318              		.loc 1 382 32 is_stmt 1 discriminator 3 view .LVU95
 319 0050 EAE7     		b	.L16
 320              		.cfi_endproc
 321              	.LFE368:
 323              		.section	.text.__ll_lib_start_transfer,"ax",%progbits
 324              		.align	1
 325              		.syntax unified
 326              		.thumb
ARM GAS  /tmp/ccTQcp07.s 			page 25


 327              		.thumb_func
 329              	__ll_lib_start_transfer:
 330              	.LVL28:
 331              	.LFB363:
 273:../Middlewares/stedgeai-lib/Npu/ll_aton/ll_aton_lib.c ****   LL_Streng_TensorInit(__ll_lib_dma_unit_id[1], &params->g_dma_in, 1);
 332              		.loc 1 273 1 view -0
 333              		.cfi_startproc
 334              		@ args = 0, pretend = 0, frame = 0
 335              		@ frame_needed = 0, uses_anonymous_args = 0
 274:../Middlewares/stedgeai-lib/Npu/ll_aton/ll_aton_lib.c ****   LL_Streng_TensorInit(__ll_lib_dma_unit_id[0], &params->g_dma_out, 1);
 336              		.loc 1 274 3 view .LVU97
 273:../Middlewares/stedgeai-lib/Npu/ll_aton/ll_aton_lib.c ****   LL_Streng_TensorInit(__ll_lib_dma_unit_id[1], &params->g_dma_in, 1);
 337              		.loc 1 273 1 is_stmt 0 view .LVU98
 338 0000 38B5     		push	{r3, r4, r5, lr}
 339              		.cfi_def_cfa_offset 16
 340              		.cfi_offset 3, -16
 341              		.cfi_offset 4, -12
 342              		.cfi_offset 5, -8
 343              		.cfi_offset 14, -4
 273:../Middlewares/stedgeai-lib/Npu/ll_aton/ll_aton_lib.c ****   LL_Streng_TensorInit(__ll_lib_dma_unit_id[1], &params->g_dma_in, 1);
 344              		.loc 1 273 1 view .LVU99
 345 0002 0446     		mov	r4, r0
 274:../Middlewares/stedgeai-lib/Npu/ll_aton/ll_aton_lib.c ****   LL_Streng_TensorInit(__ll_lib_dma_unit_id[0], &params->g_dma_out, 1);
 346              		.loc 1 274 3 view .LVU100
 347 0004 0A4D     		ldr	r5, .L25
 348 0006 0146     		mov	r1, r0
 349 0008 0122     		movs	r2, #1
 350 000a 6868     		ldr	r0, [r5, #4]
 351              	.LVL29:
 274:../Middlewares/stedgeai-lib/Npu/ll_aton/ll_aton_lib.c ****   LL_Streng_TensorInit(__ll_lib_dma_unit_id[0], &params->g_dma_out, 1);
 352              		.loc 1 274 3 view .LVU101
 353 000c FFF7FEFF 		bl	LL_Streng_TensorInit
 354              	.LVL30:
 275:../Middlewares/stedgeai-lib/Npu/ll_aton/ll_aton_lib.c ****   LL_Switch_Init(__ll_switch_init, 1);
 355              		.loc 1 275 3 is_stmt 1 view .LVU102
 356 0010 04F14801 		add	r1, r4, #72
 357 0014 0122     		movs	r2, #1
 358 0016 2868     		ldr	r0, [r5]
 359 0018 FFF7FEFF 		bl	LL_Streng_TensorInit
 360              	.LVL31:
 276:../Middlewares/stedgeai-lib/Npu/ll_aton/ll_aton_lib.c ****   LL_ATON_EnableUnits_Init(__ll_lib_dma_units, 2);
 361              		.loc 1 276 3 view .LVU103
 362 001c 0121     		movs	r1, #1
 363 001e 0548     		ldr	r0, .L25+4
 364 0020 FFF7FEFF 		bl	LL_Switch_Init
 365              	.LVL32:
 277:../Middlewares/stedgeai-lib/Npu/ll_aton/ll_aton_lib.c **** }
 366              		.loc 1 277 3 view .LVU104
 278:../Middlewares/stedgeai-lib/Npu/ll_aton/ll_aton_lib.c **** 
 367              		.loc 1 278 1 is_stmt 0 view .LVU105
 368 0024 BDE83840 		pop	{r3, r4, r5, lr}
 369              		.cfi_restore 14
 370              		.cfi_restore 5
 371              		.cfi_restore 4
 372              		.cfi_restore 3
 373              		.cfi_def_cfa_offset 0
 374              	.LVL33:
ARM GAS  /tmp/ccTQcp07.s 			page 26


 277:../Middlewares/stedgeai-lib/Npu/ll_aton/ll_aton_lib.c **** }
 375              		.loc 1 277 3 view .LVU106
 376 0028 0221     		movs	r1, #2
 377 002a 0348     		ldr	r0, .L25+8
 378 002c FFF7FEBF 		b	LL_ATON_EnableUnits_Init
 379              	.LVL34:
 380              	.L26:
 381              		.align	2
 382              	.L25:
 383 0030 00000000 		.word	__ll_lib_dma_unit_id
 384 0034 00000000 		.word	__ll_switch_init
 385 0038 00000000 		.word	__ll_lib_dma_units
 386              		.cfi_endproc
 387              	.LFE363:
 389              		.section	.rodata.__ll_aton_lib_pad_filling_sw.str1.1,"aMS",%progbits,1
 390              	.LC2:
 391 0000 63757272 		.ascii	"curr_axis <= common_params->consecutive_axis\000"
 391      5F617869 
 391      73203C3D 
 391      20636F6D 
 391      6D6F6E5F 
 392              	.LC3:
 393 002d 2E2E2F4D 		.ascii	"../Middlewares/stedgeai-lib/Npu/ll_aton/ll_aton_lib"
 393      6964646C 
 393      65776172 
 393      65732F73 
 393      74656467 
 394 0060 2E6300   		.ascii	".c\000"
 395              	.LC4:
 396 0063 636F6D6D 		.ascii	"common_params->out_target <= common_params->end_out"
 396      6F6E5F70 
 396      6172616D 
 396      732D3E6F 
 396      75745F74 
 397 0096 5F746172 		.ascii	"_target\000"
 397      67657400 
 398              		.section	.text.__ll_aton_lib_pad_filling_sw,"ax",%progbits
 399              		.align	1
 400              		.syntax unified
 401              		.thumb
 402              		.thumb_func
 404              	__ll_aton_lib_pad_filling_sw:
 405              	.LVL35:
 406              	.LFB425:
 398:../Middlewares/stedgeai-lib/Npu/ll_aton/ll_aton_lib.c **** 
 399:../Middlewares/stedgeai-lib/Npu/ll_aton/ll_aton_lib.c **** static void __ll_lib_inputs_memcpy_start(const LL_ATON_RT_EpochBlockItem_t *epoch_block, uint8_t *_
 400:../Middlewares/stedgeai-lib/Npu/ll_aton/ll_aton_lib.c **** {
 401:../Middlewares/stedgeai-lib/Npu/ll_aton/ll_aton_lib.c ****   __ll_lib_params_t *params = __ll_lib_get_params();
 402:../Middlewares/stedgeai-lib/Npu/ll_aton/ll_aton_lib.c **** 
 403:../Middlewares/stedgeai-lib/Npu/ll_aton/ll_aton_lib.c ****   uint8_t *_dst = (uint8_t *)params->g_dst_o_src;
 404:../Middlewares/stedgeai-lib/Npu/ll_aton/ll_aton_lib.c ****   size_t n;
 405:../Middlewares/stedgeai-lib/Npu/ll_aton/ll_aton_lib.c **** 
 406:../Middlewares/stedgeai-lib/Npu/ll_aton/ll_aton_lib.c ****   if (params->g_size < 0)
 407:../Middlewares/stedgeai-lib/Npu/ll_aton/ll_aton_lib.c ****   {
 408:../Middlewares/stedgeai-lib/Npu/ll_aton/ll_aton_lib.c ****     n = LL_Buffer_len(((LL_LIB_TensorInfo_TypeDef *)params->g_tensors) + params->g_idx);
 409:../Middlewares/stedgeai-lib/Npu/ll_aton/ll_aton_lib.c ****   }
 410:../Middlewares/stedgeai-lib/Npu/ll_aton/ll_aton_lib.c ****   else
ARM GAS  /tmp/ccTQcp07.s 			page 27


 411:../Middlewares/stedgeai-lib/Npu/ll_aton/ll_aton_lib.c ****   {
 412:../Middlewares/stedgeai-lib/Npu/ll_aton/ll_aton_lib.c ****     n = params->g_size;
 413:../Middlewares/stedgeai-lib/Npu/ll_aton/ll_aton_lib.c ****   }
 414:../Middlewares/stedgeai-lib/Npu/ll_aton/ll_aton_lib.c **** 
 415:../Middlewares/stedgeai-lib/Npu/ll_aton/ll_aton_lib.c ****   if (params->g_not_continuous == 0)
 416:../Middlewares/stedgeai-lib/Npu/ll_aton/ll_aton_lib.c ****     n = __ll_lib_memcpy_prolog((void **)&_dst, (void **)&_src, n);
 417:../Middlewares/stedgeai-lib/Npu/ll_aton/ll_aton_lib.c **** 
 418:../Middlewares/stedgeai-lib/Npu/ll_aton/ll_aton_lib.c ****   if (n > 0)
 419:../Middlewares/stedgeai-lib/Npu/ll_aton/ll_aton_lib.c ****   {
 420:../Middlewares/stedgeai-lib/Npu/ll_aton/ll_aton_lib.c ****     params->g_dma_in.addr_base.p = _src;
 421:../Middlewares/stedgeai-lib/Npu/ll_aton/ll_aton_lib.c ****     params->g_dma_in.offset_start = 0;
 422:../Middlewares/stedgeai-lib/Npu/ll_aton/ll_aton_lib.c ****     params->g_dma_in.offset_end = n; // not used for batched output version g_not_continuous == 1
 423:../Middlewares/stedgeai-lib/Npu/ll_aton/ll_aton_lib.c ****     params->g_dma_in.offset_limit = ((LL_LIB_TensorInfo_TypeDef *)params->g_tensors)[params->g_idx]
 424:../Middlewares/stedgeai-lib/Npu/ll_aton/ll_aton_lib.c **** 
 425:../Middlewares/stedgeai-lib/Npu/ll_aton/ll_aton_lib.c ****     params->g_dma_out.addr_base.p = _dst;
 426:../Middlewares/stedgeai-lib/Npu/ll_aton/ll_aton_lib.c ****     params->g_dma_out.offset_start = 0;
 427:../Middlewares/stedgeai-lib/Npu/ll_aton/ll_aton_lib.c ****     params->g_dma_out.offset_end = n; // not used for batched input version g_not_continuous == 1
 428:../Middlewares/stedgeai-lib/Npu/ll_aton/ll_aton_lib.c **** 
 429:../Middlewares/stedgeai-lib/Npu/ll_aton/ll_aton_lib.c ****     __ll_lib_set_wait_mask((LL_ATON_RT_EpochBlockItem_t *)epoch_block, params->g_wait_mask);
 430:../Middlewares/stedgeai-lib/Npu/ll_aton/ll_aton_lib.c **** 
 431:../Middlewares/stedgeai-lib/Npu/ll_aton/ll_aton_lib.c ****     __ll_lib_start_transfer(params);
 432:../Middlewares/stedgeai-lib/Npu/ll_aton/ll_aton_lib.c ****   }
 433:../Middlewares/stedgeai-lib/Npu/ll_aton/ll_aton_lib.c ****   else
 434:../Middlewares/stedgeai-lib/Npu/ll_aton/ll_aton_lib.c ****   {
 435:../Middlewares/stedgeai-lib/Npu/ll_aton/ll_aton_lib.c ****     /* do not start any transfer and wait, just proceed to end function */
 436:../Middlewares/stedgeai-lib/Npu/ll_aton/ll_aton_lib.c ****     __ll_lib_set_wait_mask((LL_ATON_RT_EpochBlockItem_t *)epoch_block, 0);
 437:../Middlewares/stedgeai-lib/Npu/ll_aton/ll_aton_lib.c ****   }
 438:../Middlewares/stedgeai-lib/Npu/ll_aton/ll_aton_lib.c **** }
 439:../Middlewares/stedgeai-lib/Npu/ll_aton/ll_aton_lib.c **** 
 440:../Middlewares/stedgeai-lib/Npu/ll_aton/ll_aton_lib.c **** static void __ll_lib_outputs_memcpy_start(const LL_ATON_RT_EpochBlockItem_t *epoch_block, uint8_t *
 441:../Middlewares/stedgeai-lib/Npu/ll_aton/ll_aton_lib.c **** {
 442:../Middlewares/stedgeai-lib/Npu/ll_aton/ll_aton_lib.c ****   __ll_lib_params_t *params = __ll_lib_get_params();
 443:../Middlewares/stedgeai-lib/Npu/ll_aton/ll_aton_lib.c **** 
 444:../Middlewares/stedgeai-lib/Npu/ll_aton/ll_aton_lib.c ****   uint8_t *_src = (uint8_t *)params->g_dst_o_src;
 445:../Middlewares/stedgeai-lib/Npu/ll_aton/ll_aton_lib.c ****   size_t n;
 446:../Middlewares/stedgeai-lib/Npu/ll_aton/ll_aton_lib.c **** 
 447:../Middlewares/stedgeai-lib/Npu/ll_aton/ll_aton_lib.c ****   if (params->g_size < 0)
 448:../Middlewares/stedgeai-lib/Npu/ll_aton/ll_aton_lib.c ****   {
 449:../Middlewares/stedgeai-lib/Npu/ll_aton/ll_aton_lib.c ****     n = LL_Buffer_len(((LL_Buffer_InfoTypeDef *)params->g_tensors) + params->g_idx);
 450:../Middlewares/stedgeai-lib/Npu/ll_aton/ll_aton_lib.c ****   }
 451:../Middlewares/stedgeai-lib/Npu/ll_aton/ll_aton_lib.c ****   else
 452:../Middlewares/stedgeai-lib/Npu/ll_aton/ll_aton_lib.c ****   {
 453:../Middlewares/stedgeai-lib/Npu/ll_aton/ll_aton_lib.c ****     n = params->g_size;
 454:../Middlewares/stedgeai-lib/Npu/ll_aton/ll_aton_lib.c ****   }
 455:../Middlewares/stedgeai-lib/Npu/ll_aton/ll_aton_lib.c **** 
 456:../Middlewares/stedgeai-lib/Npu/ll_aton/ll_aton_lib.c ****   if (params->g_not_continuous == 0)
 457:../Middlewares/stedgeai-lib/Npu/ll_aton/ll_aton_lib.c ****     n = __ll_lib_memcpy_prolog((void **)&_dst, (void **)&_src, n);
 458:../Middlewares/stedgeai-lib/Npu/ll_aton/ll_aton_lib.c **** 
 459:../Middlewares/stedgeai-lib/Npu/ll_aton/ll_aton_lib.c ****   if (n > 0)
 460:../Middlewares/stedgeai-lib/Npu/ll_aton/ll_aton_lib.c ****   {
 461:../Middlewares/stedgeai-lib/Npu/ll_aton/ll_aton_lib.c ****     params->g_dma_out.addr_base.p = _dst;
 462:../Middlewares/stedgeai-lib/Npu/ll_aton/ll_aton_lib.c ****     params->g_dma_out.offset_start = 0;
 463:../Middlewares/stedgeai-lib/Npu/ll_aton/ll_aton_lib.c ****     params->g_dma_out.offset_end = n;
 464:../Middlewares/stedgeai-lib/Npu/ll_aton/ll_aton_lib.c **** 
 465:../Middlewares/stedgeai-lib/Npu/ll_aton/ll_aton_lib.c ****     if (params->g_not_continuous == 0)
 466:../Middlewares/stedgeai-lib/Npu/ll_aton/ll_aton_lib.c ****     {
 467:../Middlewares/stedgeai-lib/Npu/ll_aton/ll_aton_lib.c ****       params->g_dma_in.addr_base.p = _src;
ARM GAS  /tmp/ccTQcp07.s 			page 28


 468:../Middlewares/stedgeai-lib/Npu/ll_aton/ll_aton_lib.c ****       params->g_dma_in.offset_start = 0;
 469:../Middlewares/stedgeai-lib/Npu/ll_aton/ll_aton_lib.c ****       params->g_dma_in.offset_end = n;
 470:../Middlewares/stedgeai-lib/Npu/ll_aton/ll_aton_lib.c ****     }
 471:../Middlewares/stedgeai-lib/Npu/ll_aton/ll_aton_lib.c ****     params->g_dma_in.offset_limit = params->g_offset_limit;
 472:../Middlewares/stedgeai-lib/Npu/ll_aton/ll_aton_lib.c **** 
 473:../Middlewares/stedgeai-lib/Npu/ll_aton/ll_aton_lib.c ****     __ll_lib_set_wait_mask((LL_ATON_RT_EpochBlockItem_t *)epoch_block, params->g_wait_mask);
 474:../Middlewares/stedgeai-lib/Npu/ll_aton/ll_aton_lib.c ****     __ll_lib_start_transfer(params);
 475:../Middlewares/stedgeai-lib/Npu/ll_aton/ll_aton_lib.c ****   }
 476:../Middlewares/stedgeai-lib/Npu/ll_aton/ll_aton_lib.c ****   else
 477:../Middlewares/stedgeai-lib/Npu/ll_aton/ll_aton_lib.c ****   {
 478:../Middlewares/stedgeai-lib/Npu/ll_aton/ll_aton_lib.c ****     /* do not start any transfer and wait, just proceed to end function */
 479:../Middlewares/stedgeai-lib/Npu/ll_aton/ll_aton_lib.c ****     __ll_lib_set_wait_mask((LL_ATON_RT_EpochBlockItem_t *)epoch_block, 0);
 480:../Middlewares/stedgeai-lib/Npu/ll_aton/ll_aton_lib.c ****   }
 481:../Middlewares/stedgeai-lib/Npu/ll_aton/ll_aton_lib.c **** }
 482:../Middlewares/stedgeai-lib/Npu/ll_aton/ll_aton_lib.c **** 
 483:../Middlewares/stedgeai-lib/Npu/ll_aton/ll_aton_lib.c **** /* `memset` helper functions */
 484:../Middlewares/stedgeai-lib/Npu/ll_aton/ll_aton_lib.c **** #define __LL_DMA_INTERNAL_BUSPORT_WIDTH 8 // MUST correspond to value of `BUSPORT_DATA_W` in Verilo
 485:../Middlewares/stedgeai-lib/Npu/ll_aton/ll_aton_lib.c **** 
 486:../Middlewares/stedgeai-lib/Npu/ll_aton/ll_aton_lib.c **** static inline uint32_t __ll_lib_match_preload_with_busport(size_t size, uint8_t nbytes, uint32_t *m
 487:../Middlewares/stedgeai-lib/Npu/ll_aton/ll_aton_lib.c **** {
 488:../Middlewares/stedgeai-lib/Npu/ll_aton/ll_aton_lib.c ****   uint32_t _min_bytes_to_preload = *min_bytes_to_preload;
 489:../Middlewares/stedgeai-lib/Npu/ll_aton/ll_aton_lib.c ****   uint32_t max_nr_preloads_in_busport = (__LL_DMA_INTERNAL_BUSPORT_WIDTH / _min_bytes_to_preload);
 490:../Middlewares/stedgeai-lib/Npu/ll_aton/ll_aton_lib.c **** 
 491:../Middlewares/stedgeai-lib/Npu/ll_aton/ll_aton_lib.c ****   unsigned int nr_of_samples = 2;
 492:../Middlewares/stedgeai-lib/Npu/ll_aton/ll_aton_lib.c ****   uint32_t last_aligned_size = size % _min_bytes_to_preload;
 493:../Middlewares/stedgeai-lib/Npu/ll_aton/ll_aton_lib.c ****   for (; nr_of_samples <= max_nr_preloads_in_busport; nr_of_samples++)
 494:../Middlewares/stedgeai-lib/Npu/ll_aton/ll_aton_lib.c ****   {
 495:../Middlewares/stedgeai-lib/Npu/ll_aton/ll_aton_lib.c ****     uint32_t copy_samples_in_bytes = (nr_of_samples * _min_bytes_to_preload);
 496:../Middlewares/stedgeai-lib/Npu/ll_aton/ll_aton_lib.c ****     uint32_t aligned_size = size % copy_samples_in_bytes;
 497:../Middlewares/stedgeai-lib/Npu/ll_aton/ll_aton_lib.c ****     LL_ATON_ASSERT((aligned_size % nbytes) == 0);
 498:../Middlewares/stedgeai-lib/Npu/ll_aton/ll_aton_lib.c **** 
 499:../Middlewares/stedgeai-lib/Npu/ll_aton/ll_aton_lib.c ****     if ((aligned_size + copy_samples_in_bytes) > __LL_DMA_INTERNAL_BUSPORT_WIDTH)
 500:../Middlewares/stedgeai-lib/Npu/ll_aton/ll_aton_lib.c ****     {
 501:../Middlewares/stedgeai-lib/Npu/ll_aton/ll_aton_lib.c ****       break;
 502:../Middlewares/stedgeai-lib/Npu/ll_aton/ll_aton_lib.c ****     }
 503:../Middlewares/stedgeai-lib/Npu/ll_aton/ll_aton_lib.c **** 
 504:../Middlewares/stedgeai-lib/Npu/ll_aton/ll_aton_lib.c ****     last_aligned_size = aligned_size;
 505:../Middlewares/stedgeai-lib/Npu/ll_aton/ll_aton_lib.c ****   }
 506:../Middlewares/stedgeai-lib/Npu/ll_aton/ll_aton_lib.c ****   nr_of_samples--;
 507:../Middlewares/stedgeai-lib/Npu/ll_aton/ll_aton_lib.c **** 
 508:../Middlewares/stedgeai-lib/Npu/ll_aton/ll_aton_lib.c ****   uint32_t samples_to_copy_from_in_bytes = (nr_of_samples * _min_bytes_to_preload);
 509:../Middlewares/stedgeai-lib/Npu/ll_aton/ll_aton_lib.c ****   uint32_t bytes_to_preload = (last_aligned_size + samples_to_copy_from_in_bytes);
 510:../Middlewares/stedgeai-lib/Npu/ll_aton/ll_aton_lib.c **** 
 511:../Middlewares/stedgeai-lib/Npu/ll_aton/ll_aton_lib.c ****   LL_ATON_ASSERT(bytes_to_preload <= __LL_DMA_INTERNAL_BUSPORT_WIDTH);
 512:../Middlewares/stedgeai-lib/Npu/ll_aton/ll_aton_lib.c ****   /* LL_ATON_ASSERT(bytes_to_preload <= size); */ // always guaranteed as `size >= __LL_DMA_INTERNA
 513:../Middlewares/stedgeai-lib/Npu/ll_aton/ll_aton_lib.c ****   LL_ATON_ASSERT((bytes_to_preload % nbytes) == 0);
 514:../Middlewares/stedgeai-lib/Npu/ll_aton/ll_aton_lib.c **** 
 515:../Middlewares/stedgeai-lib/Npu/ll_aton/ll_aton_lib.c ****   *min_bytes_to_preload = samples_to_copy_from_in_bytes;
 516:../Middlewares/stedgeai-lib/Npu/ll_aton/ll_aton_lib.c **** 
 517:../Middlewares/stedgeai-lib/Npu/ll_aton/ll_aton_lib.c ****   // return number of bytes to pre-load
 518:../Middlewares/stedgeai-lib/Npu/ll_aton/ll_aton_lib.c ****   return bytes_to_preload;
 519:../Middlewares/stedgeai-lib/Npu/ll_aton/ll_aton_lib.c **** }
 520:../Middlewares/stedgeai-lib/Npu/ll_aton/ll_aton_lib.c **** 
 521:../Middlewares/stedgeai-lib/Npu/ll_aton/ll_aton_lib.c **** static inline void __ll_lib_load_const_val(void **dst, int32_t constant_value, size_t size, uint8_t
 522:../Middlewares/stedgeai-lib/Npu/ll_aton/ll_aton_lib.c **** {
 523:../Middlewares/stedgeai-lib/Npu/ll_aton/ll_aton_lib.c ****   uint8_t *_dst_orig = *dst;
 524:../Middlewares/stedgeai-lib/Npu/ll_aton/ll_aton_lib.c **** 
ARM GAS  /tmp/ccTQcp07.s 			page 29


 525:../Middlewares/stedgeai-lib/Npu/ll_aton/ll_aton_lib.c ****   switch (nbytes)
 526:../Middlewares/stedgeai-lib/Npu/ll_aton/ll_aton_lib.c ****   {
 527:../Middlewares/stedgeai-lib/Npu/ll_aton/ll_aton_lib.c ****   case 1:
 528:../Middlewares/stedgeai-lib/Npu/ll_aton/ll_aton_lib.c ****   { // 8-bit
 529:../Middlewares/stedgeai-lib/Npu/ll_aton/ll_aton_lib.c ****     int8_t **_dst = (int8_t **)dst;
 530:../Middlewares/stedgeai-lib/Npu/ll_aton/ll_aton_lib.c ****     size_t i = 0;
 531:../Middlewares/stedgeai-lib/Npu/ll_aton/ll_aton_lib.c ****     for (; i < size; i++)
 532:../Middlewares/stedgeai-lib/Npu/ll_aton/ll_aton_lib.c ****     {
 533:../Middlewares/stedgeai-lib/Npu/ll_aton/ll_aton_lib.c ****       **_dst = (int8_t)constant_value;
 534:../Middlewares/stedgeai-lib/Npu/ll_aton/ll_aton_lib.c ****       (*_dst)++;
 535:../Middlewares/stedgeai-lib/Npu/ll_aton/ll_aton_lib.c ****     }
 536:../Middlewares/stedgeai-lib/Npu/ll_aton/ll_aton_lib.c ****   }
 537:../Middlewares/stedgeai-lib/Npu/ll_aton/ll_aton_lib.c ****   break;
 538:../Middlewares/stedgeai-lib/Npu/ll_aton/ll_aton_lib.c ****   case 2:
 539:../Middlewares/stedgeai-lib/Npu/ll_aton/ll_aton_lib.c ****   { // 16-bit
 540:../Middlewares/stedgeai-lib/Npu/ll_aton/ll_aton_lib.c ****     int16_t **_dst = (int16_t **)dst;
 541:../Middlewares/stedgeai-lib/Npu/ll_aton/ll_aton_lib.c ****     size_t i = 0;
 542:../Middlewares/stedgeai-lib/Npu/ll_aton/ll_aton_lib.c ****     for (; i < size; i += 2)
 543:../Middlewares/stedgeai-lib/Npu/ll_aton/ll_aton_lib.c ****     {
 544:../Middlewares/stedgeai-lib/Npu/ll_aton/ll_aton_lib.c ****       **_dst = (int16_t)constant_value;
 545:../Middlewares/stedgeai-lib/Npu/ll_aton/ll_aton_lib.c ****       (*_dst)++;
 546:../Middlewares/stedgeai-lib/Npu/ll_aton/ll_aton_lib.c ****     }
 547:../Middlewares/stedgeai-lib/Npu/ll_aton/ll_aton_lib.c ****   }
 548:../Middlewares/stedgeai-lib/Npu/ll_aton/ll_aton_lib.c ****   break;
 549:../Middlewares/stedgeai-lib/Npu/ll_aton/ll_aton_lib.c ****   case 3:
 550:../Middlewares/stedgeai-lib/Npu/ll_aton/ll_aton_lib.c ****   { // 24-bit
 551:../Middlewares/stedgeai-lib/Npu/ll_aton/ll_aton_lib.c ****     int8_t **_dst = (int8_t **)dst;
 552:../Middlewares/stedgeai-lib/Npu/ll_aton/ll_aton_lib.c ****     for (size_t i = 0; i < size; i += 3)
 553:../Middlewares/stedgeai-lib/Npu/ll_aton/ll_aton_lib.c ****     {
 554:../Middlewares/stedgeai-lib/Npu/ll_aton/ll_aton_lib.c ****       **_dst = constant_value & 0xFF;
 555:../Middlewares/stedgeai-lib/Npu/ll_aton/ll_aton_lib.c ****       (*_dst)++;
 556:../Middlewares/stedgeai-lib/Npu/ll_aton/ll_aton_lib.c ****       **_dst = (constant_value >> 8) & 0xFF;
 557:../Middlewares/stedgeai-lib/Npu/ll_aton/ll_aton_lib.c ****       (*_dst)++;
 558:../Middlewares/stedgeai-lib/Npu/ll_aton/ll_aton_lib.c ****       **_dst = (constant_value >> 16) & 0xFF;
 559:../Middlewares/stedgeai-lib/Npu/ll_aton/ll_aton_lib.c ****       (*_dst)++;
 560:../Middlewares/stedgeai-lib/Npu/ll_aton/ll_aton_lib.c ****     }
 561:../Middlewares/stedgeai-lib/Npu/ll_aton/ll_aton_lib.c ****   }
 562:../Middlewares/stedgeai-lib/Npu/ll_aton/ll_aton_lib.c ****   break;
 563:../Middlewares/stedgeai-lib/Npu/ll_aton/ll_aton_lib.c ****   case 4:
 564:../Middlewares/stedgeai-lib/Npu/ll_aton/ll_aton_lib.c ****   { // 32-bit
 565:../Middlewares/stedgeai-lib/Npu/ll_aton/ll_aton_lib.c ****     int32_t **_dst = (int32_t **)dst;
 566:../Middlewares/stedgeai-lib/Npu/ll_aton/ll_aton_lib.c ****     size_t i = 0;
 567:../Middlewares/stedgeai-lib/Npu/ll_aton/ll_aton_lib.c ****     for (; i < size; i += 4)
 568:../Middlewares/stedgeai-lib/Npu/ll_aton/ll_aton_lib.c ****     {
 569:../Middlewares/stedgeai-lib/Npu/ll_aton/ll_aton_lib.c ****       **_dst = (int32_t)constant_value;
 570:../Middlewares/stedgeai-lib/Npu/ll_aton/ll_aton_lib.c ****       (*_dst)++;
 571:../Middlewares/stedgeai-lib/Npu/ll_aton/ll_aton_lib.c ****     }
 572:../Middlewares/stedgeai-lib/Npu/ll_aton/ll_aton_lib.c ****   }
 573:../Middlewares/stedgeai-lib/Npu/ll_aton/ll_aton_lib.c ****   break;
 574:../Middlewares/stedgeai-lib/Npu/ll_aton/ll_aton_lib.c ****   default:
 575:../Middlewares/stedgeai-lib/Npu/ll_aton/ll_aton_lib.c ****     LL_ATON_ASSERT(0); // should never happen!!!
 576:../Middlewares/stedgeai-lib/Npu/ll_aton/ll_aton_lib.c ****     return;
 577:../Middlewares/stedgeai-lib/Npu/ll_aton/ll_aton_lib.c ****   }
 578:../Middlewares/stedgeai-lib/Npu/ll_aton/ll_aton_lib.c **** 
 579:../Middlewares/stedgeai-lib/Npu/ll_aton/ll_aton_lib.c ****   if (size > 0)
 580:../Middlewares/stedgeai-lib/Npu/ll_aton/ll_aton_lib.c ****   {
 581:../Middlewares/stedgeai-lib/Npu/ll_aton/ll_aton_lib.c ****     /* *** MCU cache clean & invalidate operation (SW) *** */
ARM GAS  /tmp/ccTQcp07.s 			page 30


 582:../Middlewares/stedgeai-lib/Npu/ll_aton/ll_aton_lib.c ****     LL_ATON_Cache_MCU_Clean_Invalidate_Range(ATON_LIB_PHYSICAL_TO_VIRTUAL_ADDR((uintptr_t)_dst_orig
 583:../Middlewares/stedgeai-lib/Npu/ll_aton/ll_aton_lib.c ****   }
 584:../Middlewares/stedgeai-lib/Npu/ll_aton/ll_aton_lib.c **** }
 585:../Middlewares/stedgeai-lib/Npu/ll_aton/ll_aton_lib.c **** 
 586:../Middlewares/stedgeai-lib/Npu/ll_aton/ll_aton_lib.c **** /* NOTE: function assumes that `size`, `*dst`, & `min_bytes_to_preload` are correctly aligned */
 587:../Middlewares/stedgeai-lib/Npu/ll_aton/ll_aton_lib.c **** static inline size_t __ll_lib_memset_prolog(void **dst, int32_t constant_value, size_t size, uint8_
 588:../Middlewares/stedgeai-lib/Npu/ll_aton/ll_aton_lib.c ****                                             uint32_t *min_bytes_to_preload)
 589:../Middlewares/stedgeai-lib/Npu/ll_aton/ll_aton_lib.c **** {
 590:../Middlewares/stedgeai-lib/Npu/ll_aton/ll_aton_lib.c **** #if (__LL_DMA_INTERNAL_BUSPORT_WIDTH < 6)
 591:../Middlewares/stedgeai-lib/Npu/ll_aton/ll_aton_lib.c ****   /* `6` comes from the worst case scenario of 16bits samples with minimum of 4 bytes preload (`4 b
 592:../Middlewares/stedgeai-lib/Npu/ll_aton/ll_aton_lib.c ****    * max rest) */
 593:../Middlewares/stedgeai-lib/Npu/ll_aton/ll_aton_lib.c **** #error "`__LL_DMA_INTERNAL_BUSPORT_WIDTH` is too small for current (slightly optimized) version of 
 594:../Middlewares/stedgeai-lib/Npu/ll_aton/ll_aton_lib.c **** #endif
 595:../Middlewares/stedgeai-lib/Npu/ll_aton/ll_aton_lib.c **** 
 596:../Middlewares/stedgeai-lib/Npu/ll_aton/ll_aton_lib.c ****   if (size < (__LL_DMA_MIN_BUFF_LEN + __LL_DMA_INTERNAL_BUSPORT_WIDTH))
 597:../Middlewares/stedgeai-lib/Npu/ll_aton/ll_aton_lib.c ****   {
 598:../Middlewares/stedgeai-lib/Npu/ll_aton/ll_aton_lib.c ****     /* it's not worth it ... */
 599:../Middlewares/stedgeai-lib/Npu/ll_aton/ll_aton_lib.c ****     __ll_lib_load_const_val(dst, constant_value, size, nbytes);
 600:../Middlewares/stedgeai-lib/Npu/ll_aton/ll_aton_lib.c **** 
 601:../Middlewares/stedgeai-lib/Npu/ll_aton/ll_aton_lib.c ****     return 0;
 602:../Middlewares/stedgeai-lib/Npu/ll_aton/ll_aton_lib.c ****   }
 603:../Middlewares/stedgeai-lib/Npu/ll_aton/ll_aton_lib.c ****   else
 604:../Middlewares/stedgeai-lib/Npu/ll_aton/ll_aton_lib.c ****   {
 605:../Middlewares/stedgeai-lib/Npu/ll_aton/ll_aton_lib.c ****     uint32_t nr_of_bytes_to_pre_load = __ll_lib_match_preload_with_busport(size, nbytes, min_bytes_
 606:../Middlewares/stedgeai-lib/Npu/ll_aton/ll_aton_lib.c ****     /* pre-load first samples */
 607:../Middlewares/stedgeai-lib/Npu/ll_aton/ll_aton_lib.c ****     __ll_lib_load_const_val(dst, constant_value, nr_of_bytes_to_pre_load, nbytes);
 608:../Middlewares/stedgeai-lib/Npu/ll_aton/ll_aton_lib.c ****     size -= nr_of_bytes_to_pre_load;
 609:../Middlewares/stedgeai-lib/Npu/ll_aton/ll_aton_lib.c **** 
 610:../Middlewares/stedgeai-lib/Npu/ll_aton/ll_aton_lib.c ****     return size;
 611:../Middlewares/stedgeai-lib/Npu/ll_aton/ll_aton_lib.c ****   }
 612:../Middlewares/stedgeai-lib/Npu/ll_aton/ll_aton_lib.c **** }
 613:../Middlewares/stedgeai-lib/Npu/ll_aton/ll_aton_lib.c **** 
 614:../Middlewares/stedgeai-lib/Npu/ll_aton/ll_aton_lib.c **** static bool __ll_lib_memset(void *dst, void *dst_limit, int32_t constant_value, uint8_t nbytes, siz
 615:../Middlewares/stedgeai-lib/Npu/ll_aton/ll_aton_lib.c **** {
 616:../Middlewares/stedgeai-lib/Npu/ll_aton/ll_aton_lib.c ****   unsigned char *dst_orig = (unsigned char *)dst;
 617:../Middlewares/stedgeai-lib/Npu/ll_aton/ll_aton_lib.c ****   uint32_t samples_in_bytes_preloaded = 0;
 618:../Middlewares/stedgeai-lib/Npu/ll_aton/ll_aton_lib.c ****   int nbits = 0;
 619:../Middlewares/stedgeai-lib/Npu/ll_aton/ll_aton_lib.c **** 
 620:../Middlewares/stedgeai-lib/Npu/ll_aton/ll_aton_lib.c ****   LL_ATON_ASSERT((size % nbytes) == 0);
 621:../Middlewares/stedgeai-lib/Npu/ll_aton/ll_aton_lib.c **** 
 622:../Middlewares/stedgeai-lib/Npu/ll_aton/ll_aton_lib.c ****   switch (nbytes)
 623:../Middlewares/stedgeai-lib/Npu/ll_aton/ll_aton_lib.c ****   {
 624:../Middlewares/stedgeai-lib/Npu/ll_aton/ll_aton_lib.c ****   case 1:
 625:../Middlewares/stedgeai-lib/Npu/ll_aton/ll_aton_lib.c ****   case 3:
 626:../Middlewares/stedgeai-lib/Npu/ll_aton/ll_aton_lib.c ****     samples_in_bytes_preloaded = 3; // max `nbytes` & equal to nr of channels used (`#channels_used
 627:../Middlewares/stedgeai-lib/Npu/ll_aton/ll_aton_lib.c ****     nbits = 24;                     // `#channels_used * 8`
 628:../Middlewares/stedgeai-lib/Npu/ll_aton/ll_aton_lib.c ****     break;
 629:../Middlewares/stedgeai-lib/Npu/ll_aton/ll_aton_lib.c ****   case 2:
 630:../Middlewares/stedgeai-lib/Npu/ll_aton/ll_aton_lib.c ****   case 4:
 631:../Middlewares/stedgeai-lib/Npu/ll_aton/ll_aton_lib.c ****     LL_ATON_ASSERT((((intptr_t)dst) % nbytes) == 0);
 632:../Middlewares/stedgeai-lib/Npu/ll_aton/ll_aton_lib.c ****     samples_in_bytes_preloaded = 4; // max `nbytes` & multiple of nr of channels used (`#channels_u
 633:../Middlewares/stedgeai-lib/Npu/ll_aton/ll_aton_lib.c ****     nbits = 16;                     // `#channels_used * 8`
 634:../Middlewares/stedgeai-lib/Npu/ll_aton/ll_aton_lib.c ****     break;
 635:../Middlewares/stedgeai-lib/Npu/ll_aton/ll_aton_lib.c ****   default:
 636:../Middlewares/stedgeai-lib/Npu/ll_aton/ll_aton_lib.c ****     LL_ATON_ASSERT(0); // should never happen!!!
 637:../Middlewares/stedgeai-lib/Npu/ll_aton/ll_aton_lib.c ****     return false;
 638:../Middlewares/stedgeai-lib/Npu/ll_aton/ll_aton_lib.c ****   }
ARM GAS  /tmp/ccTQcp07.s 			page 31


 639:../Middlewares/stedgeai-lib/Npu/ll_aton/ll_aton_lib.c **** 
 640:../Middlewares/stedgeai-lib/Npu/ll_aton/ll_aton_lib.c ****   /* pre-load destination & align `dst` to value of `samples_in_bytes_preloaded` */
 641:../Middlewares/stedgeai-lib/Npu/ll_aton/ll_aton_lib.c ****   size = __ll_lib_memset_prolog(&dst, constant_value, size, nbytes, &samples_in_bytes_preloaded);
 642:../Middlewares/stedgeai-lib/Npu/ll_aton/ll_aton_lib.c ****   if (size == 0)
 643:../Middlewares/stedgeai-lib/Npu/ll_aton/ll_aton_lib.c ****   {
 644:../Middlewares/stedgeai-lib/Npu/ll_aton/ll_aton_lib.c ****     return false; // we are done
 645:../Middlewares/stedgeai-lib/Npu/ll_aton/ll_aton_lib.c ****   }
 646:../Middlewares/stedgeai-lib/Npu/ll_aton/ll_aton_lib.c **** 
 647:../Middlewares/stedgeai-lib/Npu/ll_aton/ll_aton_lib.c ****   /* setup configuration for DMAs */
 648:../Middlewares/stedgeai-lib/Npu/ll_aton/ll_aton_lib.c ****   LL_ATON_ASSERT((size % samples_in_bytes_preloaded) == 0);
 649:../Middlewares/stedgeai-lib/Npu/ll_aton/ll_aton_lib.c ****   int frame_tot_cnt = (size / samples_in_bytes_preloaded);
 650:../Middlewares/stedgeai-lib/Npu/ll_aton/ll_aton_lib.c **** 
 651:../Middlewares/stedgeai-lib/Npu/ll_aton/ll_aton_lib.c ****   LL_Streng_TensorInitTypeDef _dma_in = {.dir = 0,
 652:../Middlewares/stedgeai-lib/Npu/ll_aton/ll_aton_lib.c ****                                          .addr_base = {dst_orig},
 653:../Middlewares/stedgeai-lib/Npu/ll_aton/ll_aton_lib.c ****                                          .offset_start = 0,
 654:../Middlewares/stedgeai-lib/Npu/ll_aton/ll_aton_lib.c ****                                          .offset_end = samples_in_bytes_preloaded,
 655:../Middlewares/stedgeai-lib/Npu/ll_aton/ll_aton_lib.c ****                                          .offset_limit = (unsigned char *)dst_limit - dst_orig,
 656:../Middlewares/stedgeai-lib/Npu/ll_aton/ll_aton_lib.c ****                                          .raw = 1,
 657:../Middlewares/stedgeai-lib/Npu/ll_aton/ll_aton_lib.c ****                                          .noinc = 1,
 658:../Middlewares/stedgeai-lib/Npu/ll_aton/ll_aton_lib.c ****                                          .frame_tot_cnt = frame_tot_cnt,
 659:../Middlewares/stedgeai-lib/Npu/ll_aton/ll_aton_lib.c ****                                          .nbits_in = nbits,
 660:../Middlewares/stedgeai-lib/Npu/ll_aton/ll_aton_lib.c ****                                          .nbits_out = nbits,
 661:../Middlewares/stedgeai-lib/Npu/ll_aton/ll_aton_lib.c ****                                          .nbits_unsigned = 0};
 662:../Middlewares/stedgeai-lib/Npu/ll_aton/ll_aton_lib.c **** 
 663:../Middlewares/stedgeai-lib/Npu/ll_aton/ll_aton_lib.c ****   LL_Streng_TensorInitTypeDef _dma_out = {.dir = 1,
 664:../Middlewares/stedgeai-lib/Npu/ll_aton/ll_aton_lib.c ****                                           .addr_base = {dst},
 665:../Middlewares/stedgeai-lib/Npu/ll_aton/ll_aton_lib.c ****                                           .offset_start = 0,
 666:../Middlewares/stedgeai-lib/Npu/ll_aton/ll_aton_lib.c ****                                           .offset_end = size,
 667:../Middlewares/stedgeai-lib/Npu/ll_aton/ll_aton_lib.c ****                                           .raw = 1,
 668:../Middlewares/stedgeai-lib/Npu/ll_aton/ll_aton_lib.c ****                                           .frame_tot_cnt = 1,
 669:../Middlewares/stedgeai-lib/Npu/ll_aton/ll_aton_lib.c ****                                           .nbits_in = nbits,
 670:../Middlewares/stedgeai-lib/Npu/ll_aton/ll_aton_lib.c ****                                           .nbits_out = nbits,
 671:../Middlewares/stedgeai-lib/Npu/ll_aton/ll_aton_lib.c ****                                           .nbits_unsigned = 0};
 672:../Middlewares/stedgeai-lib/Npu/ll_aton/ll_aton_lib.c **** 
 673:../Middlewares/stedgeai-lib/Npu/ll_aton/ll_aton_lib.c ****   /* save DMA configurations */
 674:../Middlewares/stedgeai-lib/Npu/ll_aton/ll_aton_lib.c ****   __ll_lib_params_t *params = __ll_lib_get_params();
 675:../Middlewares/stedgeai-lib/Npu/ll_aton/ll_aton_lib.c ****   params->g_dma_in = _dma_in;
 676:../Middlewares/stedgeai-lib/Npu/ll_aton/ll_aton_lib.c ****   params->g_dma_out = _dma_out;
 677:../Middlewares/stedgeai-lib/Npu/ll_aton/ll_aton_lib.c **** 
 678:../Middlewares/stedgeai-lib/Npu/ll_aton/ll_aton_lib.c ****   return true;
 679:../Middlewares/stedgeai-lib/Npu/ll_aton/ll_aton_lib.c **** }
 680:../Middlewares/stedgeai-lib/Npu/ll_aton/ll_aton_lib.c **** 
 681:../Middlewares/stedgeai-lib/Npu/ll_aton/ll_aton_lib.c **** static inline void __ll_lib_pad_save_params(__ll_pad_sw_params_t *common_params, bool deep_copy)
 682:../Middlewares/stedgeai-lib/Npu/ll_aton/ll_aton_lib.c **** {
 683:../Middlewares/stedgeai-lib/Npu/ll_aton/ll_aton_lib.c ****   __ll_lib_params_t *params = __ll_lib_get_params();
 684:../Middlewares/stedgeai-lib/Npu/ll_aton/ll_aton_lib.c ****   void *lower_heap = __ll_lib_get_lower_heap();
 685:../Middlewares/stedgeai-lib/Npu/ll_aton/ll_aton_lib.c **** 
 686:../Middlewares/stedgeai-lib/Npu/ll_aton/ll_aton_lib.c ****   /* flat copy of params */
 687:../Middlewares/stedgeai-lib/Npu/ll_aton/ll_aton_lib.c ****   params->special.pad = *common_params;
 688:../Middlewares/stedgeai-lib/Npu/ll_aton/ll_aton_lib.c **** 
 689:../Middlewares/stedgeai-lib/Npu/ll_aton/ll_aton_lib.c ****   if (deep_copy == false)
 690:../Middlewares/stedgeai-lib/Npu/ll_aton/ll_aton_lib.c ****   {
 691:../Middlewares/stedgeai-lib/Npu/ll_aton/ll_aton_lib.c ****     return;
 692:../Middlewares/stedgeai-lib/Npu/ll_aton/ll_aton_lib.c ****   }
 693:../Middlewares/stedgeai-lib/Npu/ll_aton/ll_aton_lib.c **** 
 694:../Middlewares/stedgeai-lib/Npu/ll_aton/ll_aton_lib.c ****   /* prepare for deep copy of vectors */
 695:../Middlewares/stedgeai-lib/Npu/ll_aton/ll_aton_lib.c ****   uint32_t *min_shape = (uint32_t *)lower_heap;
ARM GAS  /tmp/ccTQcp07.s 			page 32


 696:../Middlewares/stedgeai-lib/Npu/ll_aton/ll_aton_lib.c ****   int32_t *pad_in_offsets_start = (int32_t *)(min_shape + common_params->tensor_rank);
 697:../Middlewares/stedgeai-lib/Npu/ll_aton/ll_aton_lib.c ****   int32_t *pad_in_offsets_end = (int32_t *)(pad_in_offsets_start + common_params->tensor_rank);
 698:../Middlewares/stedgeai-lib/Npu/ll_aton/ll_aton_lib.c ****   int32_t *pad_out_offsets_start = (int32_t *)(pad_in_offsets_end + common_params->tensor_rank);
 699:../Middlewares/stedgeai-lib/Npu/ll_aton/ll_aton_lib.c ****   int32_t *pad_out_offsets_end = (int32_t *)(pad_out_offsets_start + common_params->tensor_rank);
 700:../Middlewares/stedgeai-lib/Npu/ll_aton/ll_aton_lib.c ****   int32_t *out_shape = (int32_t *)(pad_out_offsets_end + common_params->tensor_rank);
 701:../Middlewares/stedgeai-lib/Npu/ll_aton/ll_aton_lib.c ****   int32_t *out_offsets = (int32_t *)(out_shape + common_params->tensor_rank);
 702:../Middlewares/stedgeai-lib/Npu/ll_aton/ll_aton_lib.c ****   uint32_t *indexes = (uint32_t *)(out_offsets + common_params->tensor_rank);
 703:../Middlewares/stedgeai-lib/Npu/ll_aton/ll_aton_lib.c **** 
 704:../Middlewares/stedgeai-lib/Npu/ll_aton/ll_aton_lib.c ****   /* copy vectors to lower heap & overwrite pointers */
 705:../Middlewares/stedgeai-lib/Npu/ll_aton/ll_aton_lib.c ****   for (uint32_t i = 0; i < common_params->tensor_rank; i++)
 706:../Middlewares/stedgeai-lib/Npu/ll_aton/ll_aton_lib.c ****   {
 707:../Middlewares/stedgeai-lib/Npu/ll_aton/ll_aton_lib.c ****     min_shape[i] = common_params->min_shape[i];
 708:../Middlewares/stedgeai-lib/Npu/ll_aton/ll_aton_lib.c ****     pad_in_offsets_start[i] = common_params->pad_in_offsets_start[i];
 709:../Middlewares/stedgeai-lib/Npu/ll_aton/ll_aton_lib.c ****     pad_in_offsets_end[i] = common_params->pad_in_offsets_end[i];
 710:../Middlewares/stedgeai-lib/Npu/ll_aton/ll_aton_lib.c ****     pad_out_offsets_start[i] = common_params->pad_out_offsets_start[i];
 711:../Middlewares/stedgeai-lib/Npu/ll_aton/ll_aton_lib.c ****     pad_out_offsets_end[i] = common_params->pad_out_offsets_end[i];
 712:../Middlewares/stedgeai-lib/Npu/ll_aton/ll_aton_lib.c ****     out_shape[i] = common_params->out_shape[i];
 713:../Middlewares/stedgeai-lib/Npu/ll_aton/ll_aton_lib.c ****     out_offsets[i] = common_params->out_offsets[i];
 714:../Middlewares/stedgeai-lib/Npu/ll_aton/ll_aton_lib.c ****     indexes[i] = 0;
 715:../Middlewares/stedgeai-lib/Npu/ll_aton/ll_aton_lib.c ****   }
 716:../Middlewares/stedgeai-lib/Npu/ll_aton/ll_aton_lib.c ****   params->special.pad.min_shape = min_shape;
 717:../Middlewares/stedgeai-lib/Npu/ll_aton/ll_aton_lib.c ****   params->special.pad.pad_in_offsets_start = pad_in_offsets_start;
 718:../Middlewares/stedgeai-lib/Npu/ll_aton/ll_aton_lib.c ****   params->special.pad.pad_in_offsets_end = pad_in_offsets_end;
 719:../Middlewares/stedgeai-lib/Npu/ll_aton/ll_aton_lib.c ****   params->special.pad.pad_out_offsets_start = pad_out_offsets_start;
 720:../Middlewares/stedgeai-lib/Npu/ll_aton/ll_aton_lib.c ****   params->special.pad.pad_out_offsets_end = pad_out_offsets_end;
 721:../Middlewares/stedgeai-lib/Npu/ll_aton/ll_aton_lib.c ****   params->special.pad.out_shape = out_shape;
 722:../Middlewares/stedgeai-lib/Npu/ll_aton/ll_aton_lib.c ****   params->special.pad.out_offsets = out_offsets;
 723:../Middlewares/stedgeai-lib/Npu/ll_aton/ll_aton_lib.c ****   params->special.pad.indexes = indexes;
 724:../Middlewares/stedgeai-lib/Npu/ll_aton/ll_aton_lib.c **** }
 725:../Middlewares/stedgeai-lib/Npu/ll_aton/ll_aton_lib.c **** 
 726:../Middlewares/stedgeai-lib/Npu/ll_aton/ll_aton_lib.c **** /** Epoch start/end functions and epoch block arrays **/
 727:../Middlewares/stedgeai-lib/Npu/ll_aton/ll_aton_lib.c **** 
 728:../Middlewares/stedgeai-lib/Npu/ll_aton/ll_aton_lib.c **** #ifndef __LL_LIB_Concat_Cast_USE_ATON_HW
 729:../Middlewares/stedgeai-lib/Npu/ll_aton/ll_aton_lib.c **** #define __LL_LIB_Concat_Cast_USE_ATON_HW 1
 730:../Middlewares/stedgeai-lib/Npu/ll_aton/ll_aton_lib.c **** #endif
 731:../Middlewares/stedgeai-lib/Npu/ll_aton/ll_aton_lib.c **** 
 732:../Middlewares/stedgeai-lib/Npu/ll_aton/ll_aton_lib.c **** int __LL_LIB_TENSOR_ELEMENTS(const LL_LIB_TensorInfo_TypeDef *t)
 733:../Middlewares/stedgeai-lib/Npu/ll_aton/ll_aton_lib.c **** {
 734:../Middlewares/stedgeai-lib/Npu/ll_aton/ll_aton_lib.c ****   int cont = 1;
 735:../Middlewares/stedgeai-lib/Npu/ll_aton/ll_aton_lib.c ****   for (int i = 0; i < t->ndims; i++)
 736:../Middlewares/stedgeai-lib/Npu/ll_aton/ll_aton_lib.c ****     cont *= t->shape[i];
 737:../Middlewares/stedgeai-lib/Npu/ll_aton/ll_aton_lib.c ****   return cont;
 738:../Middlewares/stedgeai-lib/Npu/ll_aton/ll_aton_lib.c **** }
 739:../Middlewares/stedgeai-lib/Npu/ll_aton/ll_aton_lib.c **** 
 740:../Middlewares/stedgeai-lib/Npu/ll_aton/ll_aton_lib.c **** static void __LL_LIB_Concat_Case3_Start_EpochBlock(const LL_ATON_RT_EpochBlockItem_t *epoch_block,
 741:../Middlewares/stedgeai-lib/Npu/ll_aton/ll_aton_lib.c ****                                                    const NN_Instance_TypeDef *nn_instance)
 742:../Middlewares/stedgeai-lib/Npu/ll_aton/ll_aton_lib.c **** {
 743:../Middlewares/stedgeai-lib/Npu/ll_aton/ll_aton_lib.c ****   LL_ATON_LIB_UNUSED(nn_instance);
 744:../Middlewares/stedgeai-lib/Npu/ll_aton/ll_aton_lib.c **** 
 745:../Middlewares/stedgeai-lib/Npu/ll_aton/ll_aton_lib.c ****   __ll_lib_params_t *params = __ll_lib_get_params();
 746:../Middlewares/stedgeai-lib/Npu/ll_aton/ll_aton_lib.c ****   LL_ATON_ASSERT((params->special.concat_case3.outer_idx < params->g_num_tensors) &&
 747:../Middlewares/stedgeai-lib/Npu/ll_aton/ll_aton_lib.c ****                  (params->g_idx < params->special.concat_case3.in_fheight)); // must be checked bef
 748:../Middlewares/stedgeai-lib/Npu/ll_aton/ll_aton_lib.c **** 
 749:../Middlewares/stedgeai-lib/Npu/ll_aton/ll_aton_lib.c ****   __ll_lib_inputs_memcpy_start(epoch_block, (uint8_t *)params->special.concat_case3.in_curr);
 750:../Middlewares/stedgeai-lib/Npu/ll_aton/ll_aton_lib.c **** }
 751:../Middlewares/stedgeai-lib/Npu/ll_aton/ll_aton_lib.c **** 
 752:../Middlewares/stedgeai-lib/Npu/ll_aton/ll_aton_lib.c **** static void __LL_LIB_Concat_Case3_End_EpochBlock(const LL_ATON_RT_EpochBlockItem_t *epoch_block,
ARM GAS  /tmp/ccTQcp07.s 			page 33


 753:../Middlewares/stedgeai-lib/Npu/ll_aton/ll_aton_lib.c ****                                                  const NN_Instance_TypeDef *nn_instance)
 754:../Middlewares/stedgeai-lib/Npu/ll_aton/ll_aton_lib.c **** {
 755:../Middlewares/stedgeai-lib/Npu/ll_aton/ll_aton_lib.c ****   LL_ATON_LIB_UNUSED(nn_instance);
 756:../Middlewares/stedgeai-lib/Npu/ll_aton/ll_aton_lib.c **** 
 757:../Middlewares/stedgeai-lib/Npu/ll_aton/ll_aton_lib.c ****   __ll_lib_params_t *params = __ll_lib_get_params();
 758:../Middlewares/stedgeai-lib/Npu/ll_aton/ll_aton_lib.c **** 
 759:../Middlewares/stedgeai-lib/Npu/ll_aton/ll_aton_lib.c ****   if (__ll_lib_set_wait_mask((LL_ATON_RT_EpochBlockItem_t *)epoch_block, 0))
 760:../Middlewares/stedgeai-lib/Npu/ll_aton/ll_aton_lib.c ****   {
 761:../Middlewares/stedgeai-lib/Npu/ll_aton/ll_aton_lib.c ****     __ll_lib_stop_transfer();
 762:../Middlewares/stedgeai-lib/Npu/ll_aton/ll_aton_lib.c ****   }
 763:../Middlewares/stedgeai-lib/Npu/ll_aton/ll_aton_lib.c **** 
 764:../Middlewares/stedgeai-lib/Npu/ll_aton/ll_aton_lib.c ****   params->g_idx++;
 765:../Middlewares/stedgeai-lib/Npu/ll_aton/ll_aton_lib.c **** 
 766:../Middlewares/stedgeai-lib/Npu/ll_aton/ll_aton_lib.c ****   if (params->g_idx < params->special.concat_case3.in_fheight)
 767:../Middlewares/stedgeai-lib/Npu/ll_aton/ll_aton_lib.c ****   {
 768:../Middlewares/stedgeai-lib/Npu/ll_aton/ll_aton_lib.c ****     params->g_dst_o_src += params->special.concat_case3.out_line_size;
 769:../Middlewares/stedgeai-lib/Npu/ll_aton/ll_aton_lib.c ****     params->special.concat_case3.in_curr += params->g_size;
 770:../Middlewares/stedgeai-lib/Npu/ll_aton/ll_aton_lib.c **** 
 771:../Middlewares/stedgeai-lib/Npu/ll_aton/ll_aton_lib.c ****     /* loop back one epoch block */
 772:../Middlewares/stedgeai-lib/Npu/ll_aton/ll_aton_lib.c ****     LL_ATON_RT_DecCurrEpochBlock(1);
 773:../Middlewares/stedgeai-lib/Npu/ll_aton/ll_aton_lib.c ****   }
 774:../Middlewares/stedgeai-lib/Npu/ll_aton/ll_aton_lib.c ****   else
 775:../Middlewares/stedgeai-lib/Npu/ll_aton/ll_aton_lib.c ****   {
 776:../Middlewares/stedgeai-lib/Npu/ll_aton/ll_aton_lib.c ****     params->special.concat_case3.outer_idx++;
 777:../Middlewares/stedgeai-lib/Npu/ll_aton/ll_aton_lib.c **** 
 778:../Middlewares/stedgeai-lib/Npu/ll_aton/ll_aton_lib.c ****     if (params->special.concat_case3.outer_idx < params->g_num_tensors)
 779:../Middlewares/stedgeai-lib/Npu/ll_aton/ll_aton_lib.c ****     {
 780:../Middlewares/stedgeai-lib/Npu/ll_aton/ll_aton_lib.c ****       int in_ndims = ((LL_LIB_TensorInfo_TypeDef *)params->g_tensors)[params->special.concat_case3.
 781:../Middlewares/stedgeai-lib/Npu/ll_aton/ll_aton_lib.c ****       unsigned int pix_size = params->special.concat_case3.nbytes *
 782:../Middlewares/stedgeai-lib/Npu/ll_aton/ll_aton_lib.c ****                               ((LL_LIB_TensorInfo_TypeDef *)params->g_tensors)[params->special.conc
 783:../Middlewares/stedgeai-lib/Npu/ll_aton/ll_aton_lib.c ****                                   .shape[(in_ndims - 4) + TDIM_NCHANNELS];
 784:../Middlewares/stedgeai-lib/Npu/ll_aton/ll_aton_lib.c ****       params->g_size =
 785:../Middlewares/stedgeai-lib/Npu/ll_aton/ll_aton_lib.c ****           pix_size * ((LL_LIB_TensorInfo_TypeDef *)params->g_tensors)[params->special.concat_case3.
 786:../Middlewares/stedgeai-lib/Npu/ll_aton/ll_aton_lib.c ****                          .shape[(in_ndims - 4) + TDIM_FWIDTH];
 787:../Middlewares/stedgeai-lib/Npu/ll_aton/ll_aton_lib.c ****       params->g_dst_o_src += params->g_size;
 788:../Middlewares/stedgeai-lib/Npu/ll_aton/ll_aton_lib.c ****       params->special.concat_case3.in_curr = LL_Buffer_addr_start(((LL_LIB_TensorInfo_TypeDef *)par
 789:../Middlewares/stedgeai-lib/Npu/ll_aton/ll_aton_lib.c ****                                                                   params->special.concat_case3.oute
 790:../Middlewares/stedgeai-lib/Npu/ll_aton/ll_aton_lib.c ****       params->g_idx = 0;
 791:../Middlewares/stedgeai-lib/Npu/ll_aton/ll_aton_lib.c **** 
 792:../Middlewares/stedgeai-lib/Npu/ll_aton/ll_aton_lib.c ****       /* loop back one epoch block */
 793:../Middlewares/stedgeai-lib/Npu/ll_aton/ll_aton_lib.c ****       LL_ATON_RT_DecCurrEpochBlock(1);
 794:../Middlewares/stedgeai-lib/Npu/ll_aton/ll_aton_lib.c ****     }
 795:../Middlewares/stedgeai-lib/Npu/ll_aton/ll_aton_lib.c ****     else
 796:../Middlewares/stedgeai-lib/Npu/ll_aton/ll_aton_lib.c ****     {
 797:../Middlewares/stedgeai-lib/Npu/ll_aton/ll_aton_lib.c ****       /* Release ATON lock */
 798:../Middlewares/stedgeai-lib/Npu/ll_aton/ll_aton_lib.c ****       __ll_clear_aton_owner(nn_instance, false);
 799:../Middlewares/stedgeai-lib/Npu/ll_aton/ll_aton_lib.c **** 
 800:../Middlewares/stedgeai-lib/Npu/ll_aton/ll_aton_lib.c ****       /* proceed to next epoch block */
 801:../Middlewares/stedgeai-lib/Npu/ll_aton/ll_aton_lib.c ****     }
 802:../Middlewares/stedgeai-lib/Npu/ll_aton/ll_aton_lib.c ****   }
 803:../Middlewares/stedgeai-lib/Npu/ll_aton/ll_aton_lib.c **** }
 804:../Middlewares/stedgeai-lib/Npu/ll_aton/ll_aton_lib.c **** 
 805:../Middlewares/stedgeai-lib/Npu/ll_aton/ll_aton_lib.c **** static void __LL_LIB_Inputs_Memcpy_Start_EpochBlock(const LL_ATON_RT_EpochBlockItem_t *epoch_block,
 806:../Middlewares/stedgeai-lib/Npu/ll_aton/ll_aton_lib.c ****                                                     const NN_Instance_TypeDef *nn_instance)
 807:../Middlewares/stedgeai-lib/Npu/ll_aton/ll_aton_lib.c **** {
 808:../Middlewares/stedgeai-lib/Npu/ll_aton/ll_aton_lib.c ****   LL_ATON_LIB_UNUSED(nn_instance);
 809:../Middlewares/stedgeai-lib/Npu/ll_aton/ll_aton_lib.c **** 
ARM GAS  /tmp/ccTQcp07.s 			page 34


 810:../Middlewares/stedgeai-lib/Npu/ll_aton/ll_aton_lib.c ****   __ll_lib_params_t *params = __ll_lib_get_params();
 811:../Middlewares/stedgeai-lib/Npu/ll_aton/ll_aton_lib.c ****   LL_ATON_ASSERT(params->g_idx < params->g_num_tensors); // must be checked before
 812:../Middlewares/stedgeai-lib/Npu/ll_aton/ll_aton_lib.c **** 
 813:../Middlewares/stedgeai-lib/Npu/ll_aton/ll_aton_lib.c ****   uint8_t *src = (uint8_t *)LL_Buffer_addr_start(((LL_LIB_TensorInfo_TypeDef *)params->g_tensors) +
 814:../Middlewares/stedgeai-lib/Npu/ll_aton/ll_aton_lib.c ****   __ll_lib_inputs_memcpy_start(epoch_block, src);
 815:../Middlewares/stedgeai-lib/Npu/ll_aton/ll_aton_lib.c **** }
 816:../Middlewares/stedgeai-lib/Npu/ll_aton/ll_aton_lib.c **** 
 817:../Middlewares/stedgeai-lib/Npu/ll_aton/ll_aton_lib.c **** static void __LL_LIB_Inputs_Memcpy_End_EpochBlock(const LL_ATON_RT_EpochBlockItem_t *epoch_block,
 818:../Middlewares/stedgeai-lib/Npu/ll_aton/ll_aton_lib.c ****                                                   const NN_Instance_TypeDef *nn_instance)
 819:../Middlewares/stedgeai-lib/Npu/ll_aton/ll_aton_lib.c **** {
 820:../Middlewares/stedgeai-lib/Npu/ll_aton/ll_aton_lib.c ****   __ll_lib_params_t *params = __ll_lib_get_params();
 821:../Middlewares/stedgeai-lib/Npu/ll_aton/ll_aton_lib.c **** 
 822:../Middlewares/stedgeai-lib/Npu/ll_aton/ll_aton_lib.c ****   if (__ll_lib_set_wait_mask((LL_ATON_RT_EpochBlockItem_t *)epoch_block, 0))
 823:../Middlewares/stedgeai-lib/Npu/ll_aton/ll_aton_lib.c ****   {
 824:../Middlewares/stedgeai-lib/Npu/ll_aton/ll_aton_lib.c ****     __ll_lib_stop_transfer();
 825:../Middlewares/stedgeai-lib/Npu/ll_aton/ll_aton_lib.c ****   }
 826:../Middlewares/stedgeai-lib/Npu/ll_aton/ll_aton_lib.c **** 
 827:../Middlewares/stedgeai-lib/Npu/ll_aton/ll_aton_lib.c ****   if (params->g_size < 0)
 828:../Middlewares/stedgeai-lib/Npu/ll_aton/ll_aton_lib.c ****   {
 829:../Middlewares/stedgeai-lib/Npu/ll_aton/ll_aton_lib.c ****     params->g_dst_o_src += LL_Buffer_len(((LL_LIB_TensorInfo_TypeDef *)params->g_tensors) + params-
 830:../Middlewares/stedgeai-lib/Npu/ll_aton/ll_aton_lib.c ****   }
 831:../Middlewares/stedgeai-lib/Npu/ll_aton/ll_aton_lib.c ****   else
 832:../Middlewares/stedgeai-lib/Npu/ll_aton/ll_aton_lib.c ****   {
 833:../Middlewares/stedgeai-lib/Npu/ll_aton/ll_aton_lib.c ****     params->g_dst_o_src += (params->g_size);
 834:../Middlewares/stedgeai-lib/Npu/ll_aton/ll_aton_lib.c ****   }
 835:../Middlewares/stedgeai-lib/Npu/ll_aton/ll_aton_lib.c ****   params->g_idx++;
 836:../Middlewares/stedgeai-lib/Npu/ll_aton/ll_aton_lib.c **** 
 837:../Middlewares/stedgeai-lib/Npu/ll_aton/ll_aton_lib.c ****   if (params->g_idx < params->g_num_tensors)
 838:../Middlewares/stedgeai-lib/Npu/ll_aton/ll_aton_lib.c ****   {
 839:../Middlewares/stedgeai-lib/Npu/ll_aton/ll_aton_lib.c ****     /* loop back one epoch block */
 840:../Middlewares/stedgeai-lib/Npu/ll_aton/ll_aton_lib.c ****     LL_ATON_RT_DecCurrEpochBlock(1);
 841:../Middlewares/stedgeai-lib/Npu/ll_aton/ll_aton_lib.c ****   }
 842:../Middlewares/stedgeai-lib/Npu/ll_aton/ll_aton_lib.c ****   else
 843:../Middlewares/stedgeai-lib/Npu/ll_aton/ll_aton_lib.c ****   {
 844:../Middlewares/stedgeai-lib/Npu/ll_aton/ll_aton_lib.c ****     /* Release ATON lock */
 845:../Middlewares/stedgeai-lib/Npu/ll_aton/ll_aton_lib.c ****     __ll_clear_aton_owner(nn_instance, false);
 846:../Middlewares/stedgeai-lib/Npu/ll_aton/ll_aton_lib.c **** 
 847:../Middlewares/stedgeai-lib/Npu/ll_aton/ll_aton_lib.c ****     /* proceed to next epoch block */
 848:../Middlewares/stedgeai-lib/Npu/ll_aton/ll_aton_lib.c ****   }
 849:../Middlewares/stedgeai-lib/Npu/ll_aton/ll_aton_lib.c **** }
 850:../Middlewares/stedgeai-lib/Npu/ll_aton/ll_aton_lib.c **** 
 851:../Middlewares/stedgeai-lib/Npu/ll_aton/ll_aton_lib.c **** static void __LL_LIB_Inputs_Batched_Memcpy_Start_EpochBlock(const LL_ATON_RT_EpochBlockItem_t *epoc
 852:../Middlewares/stedgeai-lib/Npu/ll_aton/ll_aton_lib.c ****                                                             const NN_Instance_TypeDef *nn_instance)
 853:../Middlewares/stedgeai-lib/Npu/ll_aton/ll_aton_lib.c **** {
 854:../Middlewares/stedgeai-lib/Npu/ll_aton/ll_aton_lib.c ****   LL_ATON_LIB_UNUSED(nn_instance);
 855:../Middlewares/stedgeai-lib/Npu/ll_aton/ll_aton_lib.c **** 
 856:../Middlewares/stedgeai-lib/Npu/ll_aton/ll_aton_lib.c ****   __ll_lib_params_t *params = __ll_lib_get_params();
 857:../Middlewares/stedgeai-lib/Npu/ll_aton/ll_aton_lib.c ****   LL_ATON_ASSERT(params->g_idx < params->g_num_tensors); // must be checked before
 858:../Middlewares/stedgeai-lib/Npu/ll_aton/ll_aton_lib.c ****   params->g_not_continuous =
 859:../Middlewares/stedgeai-lib/Npu/ll_aton/ll_aton_lib.c ****       1; // disables code in __ll_lib_inputs_memcpy_start that assumes a flat copy operation e.g. p
 860:../Middlewares/stedgeai-lib/Npu/ll_aton/ll_aton_lib.c **** 
 861:../Middlewares/stedgeai-lib/Npu/ll_aton/ll_aton_lib.c ****   uint8_t *src = (uint8_t *)LL_Buffer_addr_start(((LL_LIB_TensorInfo_TypeDef *)params->g_tensors) +
 862:../Middlewares/stedgeai-lib/Npu/ll_aton/ll_aton_lib.c ****   __ll_lib_inputs_memcpy_start(epoch_block, src);
 863:../Middlewares/stedgeai-lib/Npu/ll_aton/ll_aton_lib.c **** }
 864:../Middlewares/stedgeai-lib/Npu/ll_aton/ll_aton_lib.c **** 
 865:../Middlewares/stedgeai-lib/Npu/ll_aton/ll_aton_lib.c **** static void __LL_LIB_Inputs_Batched_Memcpy_End_EpochBlock(const LL_ATON_RT_EpochBlockItem_t *epoch_
 866:../Middlewares/stedgeai-lib/Npu/ll_aton/ll_aton_lib.c ****                                                           const NN_Instance_TypeDef *nn_instance)
ARM GAS  /tmp/ccTQcp07.s 			page 35


 867:../Middlewares/stedgeai-lib/Npu/ll_aton/ll_aton_lib.c **** {
 868:../Middlewares/stedgeai-lib/Npu/ll_aton/ll_aton_lib.c ****   __ll_lib_params_t *params = __ll_lib_get_params();
 869:../Middlewares/stedgeai-lib/Npu/ll_aton/ll_aton_lib.c **** 
 870:../Middlewares/stedgeai-lib/Npu/ll_aton/ll_aton_lib.c ****   if (__ll_lib_set_wait_mask((LL_ATON_RT_EpochBlockItem_t *)epoch_block, 0))
 871:../Middlewares/stedgeai-lib/Npu/ll_aton/ll_aton_lib.c ****   {
 872:../Middlewares/stedgeai-lib/Npu/ll_aton/ll_aton_lib.c ****     __ll_lib_stop_transfer();
 873:../Middlewares/stedgeai-lib/Npu/ll_aton/ll_aton_lib.c ****   }
 874:../Middlewares/stedgeai-lib/Npu/ll_aton/ll_aton_lib.c **** 
 875:../Middlewares/stedgeai-lib/Npu/ll_aton/ll_aton_lib.c ****   LL_LIB_TensorInfo_TypeDef *in = ((LL_LIB_TensorInfo_TypeDef *)params->g_tensors) + params->g_idx;
 876:../Middlewares/stedgeai-lib/Npu/ll_aton/ll_aton_lib.c ****   int in_ndims = in->ndims;
 877:../Middlewares/stedgeai-lib/Npu/ll_aton/ll_aton_lib.c ****   int in_nchannels_old = in->shape[(in_ndims - 4) + TDIM_NCHANNELS];
 878:../Middlewares/stedgeai-lib/Npu/ll_aton/ll_aton_lib.c **** 
 879:../Middlewares/stedgeai-lib/Npu/ll_aton/ll_aton_lib.c ****   params->g_idx++;
 880:../Middlewares/stedgeai-lib/Npu/ll_aton/ll_aton_lib.c **** 
 881:../Middlewares/stedgeai-lib/Npu/ll_aton/ll_aton_lib.c ****   if (params->g_idx < params->g_num_tensors)
 882:../Middlewares/stedgeai-lib/Npu/ll_aton/ll_aton_lib.c ****   {
 883:../Middlewares/stedgeai-lib/Npu/ll_aton/ll_aton_lib.c ****     in = ((LL_LIB_TensorInfo_TypeDef *)params->g_tensors) + params->g_idx;
 884:../Middlewares/stedgeai-lib/Npu/ll_aton/ll_aton_lib.c **** 
 885:../Middlewares/stedgeai-lib/Npu/ll_aton/ll_aton_lib.c ****     int nbits = in->nbits;
 886:../Middlewares/stedgeai-lib/Npu/ll_aton/ll_aton_lib.c ****     int nbytes = (nbits + 7) >> 3;
 887:../Middlewares/stedgeai-lib/Npu/ll_aton/ll_aton_lib.c ****     int in_batch = in->batch;
 888:../Middlewares/stedgeai-lib/Npu/ll_aton/ll_aton_lib.c ****     int in_fheight = in->shape[(in_ndims - 4) + TDIM_FHEIGHT];
 889:../Middlewares/stedgeai-lib/Npu/ll_aton/ll_aton_lib.c ****     int in_fwidth = in->shape[(in_ndims - 4) + TDIM_FWIDTH];
 890:../Middlewares/stedgeai-lib/Npu/ll_aton/ll_aton_lib.c ****     int in_nchannels = in->shape[(in_ndims - 4) + TDIM_NCHANNELS];
 891:../Middlewares/stedgeai-lib/Npu/ll_aton/ll_aton_lib.c **** 
 892:../Middlewares/stedgeai-lib/Npu/ll_aton/ll_aton_lib.c ****     params->g_dst_o_src += in_nchannels_old * nbytes;
 893:../Middlewares/stedgeai-lib/Npu/ll_aton/ll_aton_lib.c **** 
 894:../Middlewares/stedgeai-lib/Npu/ll_aton/ll_aton_lib.c ****     // LL_ATON_PRINTF("nbytes=%d fw=%d fh=%d inb=%d inc=%d\n", nbytes, in_fwidth, in_fheight, in_ba
 895:../Middlewares/stedgeai-lib/Npu/ll_aton/ll_aton_lib.c **** 
 896:../Middlewares/stedgeai-lib/Npu/ll_aton/ll_aton_lib.c ****     params->g_dma_out.batch_depth = (nbytes == 4) ? (2 * in_batch) : in_batch;  // this must be upd
 897:../Middlewares/stedgeai-lib/Npu/ll_aton/ll_aton_lib.c ****     params->g_dma_out.frame_offset = in_batch * nbytes;                         // this must be upd
 898:../Middlewares/stedgeai-lib/Npu/ll_aton/ll_aton_lib.c ****     params->g_dma_out.frame_loop_cnt = in_nchannels / in_batch;                 // this must be upd
 899:../Middlewares/stedgeai-lib/Npu/ll_aton/ll_aton_lib.c ****     params->g_dma_out.frame_tot_cnt = in_nchannels / in_batch;                  // this must be upd
 900:../Middlewares/stedgeai-lib/Npu/ll_aton/ll_aton_lib.c ****     params->g_dma_out.loop_offset = in_fheight * in_fwidth * in_batch * nbytes; // this must be upd
 901:../Middlewares/stedgeai-lib/Npu/ll_aton/ll_aton_lib.c **** 
 902:../Middlewares/stedgeai-lib/Npu/ll_aton/ll_aton_lib.c ****     /* loop back one epoch block */
 903:../Middlewares/stedgeai-lib/Npu/ll_aton/ll_aton_lib.c ****     LL_ATON_RT_DecCurrEpochBlock(1);
 904:../Middlewares/stedgeai-lib/Npu/ll_aton/ll_aton_lib.c ****   }
 905:../Middlewares/stedgeai-lib/Npu/ll_aton/ll_aton_lib.c ****   else
 906:../Middlewares/stedgeai-lib/Npu/ll_aton/ll_aton_lib.c ****   {
 907:../Middlewares/stedgeai-lib/Npu/ll_aton/ll_aton_lib.c ****     /* Release ATON lock */
 908:../Middlewares/stedgeai-lib/Npu/ll_aton/ll_aton_lib.c ****     __ll_clear_aton_owner(nn_instance, false);
 909:../Middlewares/stedgeai-lib/Npu/ll_aton/ll_aton_lib.c **** 
 910:../Middlewares/stedgeai-lib/Npu/ll_aton/ll_aton_lib.c ****     /* proceed to next epoch block */
 911:../Middlewares/stedgeai-lib/Npu/ll_aton/ll_aton_lib.c ****   }
 912:../Middlewares/stedgeai-lib/Npu/ll_aton/ll_aton_lib.c **** }
 913:../Middlewares/stedgeai-lib/Npu/ll_aton/ll_aton_lib.c **** 
 914:../Middlewares/stedgeai-lib/Npu/ll_aton/ll_aton_lib.c **** static void __LL_LIB_Outputs_Channel_Split_Aton_Start_EpochBlock(const LL_ATON_RT_EpochBlockItem_t 
 915:../Middlewares/stedgeai-lib/Npu/ll_aton/ll_aton_lib.c ****                                                                  const NN_Instance_TypeDef *nn_inst
 916:../Middlewares/stedgeai-lib/Npu/ll_aton/ll_aton_lib.c **** {
 917:../Middlewares/stedgeai-lib/Npu/ll_aton/ll_aton_lib.c ****   LL_ATON_LIB_UNUSED(nn_instance);
 918:../Middlewares/stedgeai-lib/Npu/ll_aton/ll_aton_lib.c **** 
 919:../Middlewares/stedgeai-lib/Npu/ll_aton/ll_aton_lib.c ****   __ll_lib_params_t *params = __ll_lib_get_params();
 920:../Middlewares/stedgeai-lib/Npu/ll_aton/ll_aton_lib.c ****   LL_ATON_ASSERT(params->g_idx < params->g_num_tensors); // must be checked before
 921:../Middlewares/stedgeai-lib/Npu/ll_aton/ll_aton_lib.c ****   params->g_not_continuous =
 922:../Middlewares/stedgeai-lib/Npu/ll_aton/ll_aton_lib.c ****       1; // disables code in __ll_lib_outputs_memcpy_start that assumes a flat copy operation e.g. 
 923:../Middlewares/stedgeai-lib/Npu/ll_aton/ll_aton_lib.c **** 
ARM GAS  /tmp/ccTQcp07.s 			page 36


 924:../Middlewares/stedgeai-lib/Npu/ll_aton/ll_aton_lib.c ****   uint8_t *dst = (uint8_t *)LL_Buffer_addr_start(((LL_Buffer_InfoTypeDef *)params->g_tensors) + par
 925:../Middlewares/stedgeai-lib/Npu/ll_aton/ll_aton_lib.c ****   __ll_lib_outputs_memcpy_start(epoch_block, dst);
 926:../Middlewares/stedgeai-lib/Npu/ll_aton/ll_aton_lib.c **** }
 927:../Middlewares/stedgeai-lib/Npu/ll_aton/ll_aton_lib.c **** 
 928:../Middlewares/stedgeai-lib/Npu/ll_aton/ll_aton_lib.c **** static void __LL_LIB_Outputs_Channel_Split_Aton_End_EpochBlock(const LL_ATON_RT_EpochBlockItem_t *e
 929:../Middlewares/stedgeai-lib/Npu/ll_aton/ll_aton_lib.c ****                                                                const NN_Instance_TypeDef *nn_instan
 930:../Middlewares/stedgeai-lib/Npu/ll_aton/ll_aton_lib.c **** {
 931:../Middlewares/stedgeai-lib/Npu/ll_aton/ll_aton_lib.c ****   LL_ATON_LIB_UNUSED(nn_instance);
 932:../Middlewares/stedgeai-lib/Npu/ll_aton/ll_aton_lib.c **** 
 933:../Middlewares/stedgeai-lib/Npu/ll_aton/ll_aton_lib.c ****   __ll_lib_params_t *params = __ll_lib_get_params();
 934:../Middlewares/stedgeai-lib/Npu/ll_aton/ll_aton_lib.c **** 
 935:../Middlewares/stedgeai-lib/Npu/ll_aton/ll_aton_lib.c ****   if (__ll_lib_set_wait_mask((LL_ATON_RT_EpochBlockItem_t *)epoch_block, 0))
 936:../Middlewares/stedgeai-lib/Npu/ll_aton/ll_aton_lib.c ****   {
 937:../Middlewares/stedgeai-lib/Npu/ll_aton/ll_aton_lib.c ****     __ll_lib_stop_transfer();
 938:../Middlewares/stedgeai-lib/Npu/ll_aton/ll_aton_lib.c ****   }
 939:../Middlewares/stedgeai-lib/Npu/ll_aton/ll_aton_lib.c **** 
 940:../Middlewares/stedgeai-lib/Npu/ll_aton/ll_aton_lib.c ****   LL_Buffer_InfoTypeDef *out = ((LL_Buffer_InfoTypeDef *)params->g_tensors) + params->g_idx;
 941:../Middlewares/stedgeai-lib/Npu/ll_aton/ll_aton_lib.c ****   int out_rank_old = out->ndims;
 942:../Middlewares/stedgeai-lib/Npu/ll_aton/ll_aton_lib.c ****   int out_nchannels_old = out->shape[(out_rank_old - 4) + 1 /* ONNX_CHANNEL_OFFSET */];
 943:../Middlewares/stedgeai-lib/Npu/ll_aton/ll_aton_lib.c **** 
 944:../Middlewares/stedgeai-lib/Npu/ll_aton/ll_aton_lib.c ****   params->g_idx++;
 945:../Middlewares/stedgeai-lib/Npu/ll_aton/ll_aton_lib.c **** 
 946:../Middlewares/stedgeai-lib/Npu/ll_aton/ll_aton_lib.c ****   if (params->g_idx < params->g_num_tensors)
 947:../Middlewares/stedgeai-lib/Npu/ll_aton/ll_aton_lib.c ****   {
 948:../Middlewares/stedgeai-lib/Npu/ll_aton/ll_aton_lib.c ****     out = ((LL_Buffer_InfoTypeDef *)params->g_tensors) + params->g_idx;
 949:../Middlewares/stedgeai-lib/Npu/ll_aton/ll_aton_lib.c **** 
 950:../Middlewares/stedgeai-lib/Npu/ll_aton/ll_aton_lib.c ****     uint32_t out_ndims = out->ndims;
 951:../Middlewares/stedgeai-lib/Npu/ll_aton/ll_aton_lib.c ****     LL_ATON_ASSERT(out_ndims >= 3);
 952:../Middlewares/stedgeai-lib/Npu/ll_aton/ll_aton_lib.c ****     uint32_t nbytes = LL_LIB_NBYTES(out->nbits);
 953:../Middlewares/stedgeai-lib/Npu/ll_aton/ll_aton_lib.c ****     uint32_t out_fwidth = out->shape[(out_ndims - 4) + TDIM_ONNX_FWIDTH];
 954:../Middlewares/stedgeai-lib/Npu/ll_aton/ll_aton_lib.c ****     uint32_t out_fheight = out->shape[(out_ndims - 4) + TDIM_ONNX_FHEIGHT];
 955:../Middlewares/stedgeai-lib/Npu/ll_aton/ll_aton_lib.c ****     uint32_t out_nchannels = out->shape[(out_ndims - 4) + TDIM_ONNX_NCHANNELS];
 956:../Middlewares/stedgeai-lib/Npu/ll_aton/ll_aton_lib.c **** 
 957:../Middlewares/stedgeai-lib/Npu/ll_aton/ll_aton_lib.c ****     // program output DMA
 958:../Middlewares/stedgeai-lib/Npu/ll_aton/ll_aton_lib.c ****     params->g_dma_out.addr_base.p = out->addr_base.p;
 959:../Middlewares/stedgeai-lib/Npu/ll_aton/ll_aton_lib.c ****     params->g_dma_out.offset_start = out->offset_start;
 960:../Middlewares/stedgeai-lib/Npu/ll_aton/ll_aton_lib.c ****     params->g_dma_out.offset_end = out->offset_end;
 961:../Middlewares/stedgeai-lib/Npu/ll_aton/ll_aton_lib.c **** 
 962:../Middlewares/stedgeai-lib/Npu/ll_aton/ll_aton_lib.c ****     // LL_ATON_PRINTF("\ndma_out: addr_start=%p, addr_end=%p\n", LL_Streng_addr_start(&(params->g_d
 963:../Middlewares/stedgeai-lib/Npu/ll_aton/ll_aton_lib.c ****     // LL_Streng_addr_end(&(params->g_dma_out));
 964:../Middlewares/stedgeai-lib/Npu/ll_aton/ll_aton_lib.c **** 
 965:../Middlewares/stedgeai-lib/Npu/ll_aton/ll_aton_lib.c ****     unsigned int batch_depth = (nbytes == 4) ? (2 * out_nchannels) : out_nchannels;
 966:../Middlewares/stedgeai-lib/Npu/ll_aton/ll_aton_lib.c ****     unsigned int frame_size = out_fwidth * out_fheight * batch_depth;
 967:../Middlewares/stedgeai-lib/Npu/ll_aton/ll_aton_lib.c **** 
 968:../Middlewares/stedgeai-lib/Npu/ll_aton/ll_aton_lib.c ****     // program input DMA
 969:../Middlewares/stedgeai-lib/Npu/ll_aton/ll_aton_lib.c ****     if (frame_size != 1)
 970:../Middlewares/stedgeai-lib/Npu/ll_aton/ll_aton_lib.c ****     {
 971:../Middlewares/stedgeai-lib/Npu/ll_aton/ll_aton_lib.c ****       params->g_dma_in.raw = 0;                                    // this must be updated on all o
 972:../Middlewares/stedgeai-lib/Npu/ll_aton/ll_aton_lib.c ****       params->g_dma_in.offset_start += out_nchannels_old * nbytes; // this must be updated on all o
 973:../Middlewares/stedgeai-lib/Npu/ll_aton/ll_aton_lib.c ****       params->g_dma_in.batch_depth = batch_depth;                  // this must be updated on all o
 974:../Middlewares/stedgeai-lib/Npu/ll_aton/ll_aton_lib.c **** 
 975:../Middlewares/stedgeai-lib/Npu/ll_aton/ll_aton_lib.c ****       // LL_ATON_PRINTF("dma_in: frame_size=%d, nbytes=%u, out_nchannels_old=%d, out_nchannels=%u, 
 976:../Middlewares/stedgeai-lib/Npu/ll_aton/ll_aton_lib.c ****       // out_fwidth=%u, out_fheight=%u, batch_depth=%u, batch_offset=%u, line_offset=%u, frame_offs
 977:../Middlewares/stedgeai-lib/Npu/ll_aton/ll_aton_lib.c ****       // frame_tot_cnt=%u\n",
 978:../Middlewares/stedgeai-lib/Npu/ll_aton/ll_aton_lib.c ****       //      frame_size, nbytes, out_nchannels_old, out_nchannels, LL_Streng_addr_start(&(params->
 979:../Middlewares/stedgeai-lib/Npu/ll_aton/ll_aton_lib.c ****       //      params->g_dma_in.fwidth, params->g_dma_in.fheight, params->g_dma_in.batch_depth,
 980:../Middlewares/stedgeai-lib/Npu/ll_aton/ll_aton_lib.c ****       //      params->g_dma_in.batch_offset, params->g_dma_in.line_offset, params->g_dma_in.frame_o
ARM GAS  /tmp/ccTQcp07.s 			page 37


 981:../Middlewares/stedgeai-lib/Npu/ll_aton/ll_aton_lib.c ****       //      params->g_dma_in.frame_tot_cnt);
 982:../Middlewares/stedgeai-lib/Npu/ll_aton/ll_aton_lib.c ****       // LL_ATON_FFLUSH(stdout);
 983:../Middlewares/stedgeai-lib/Npu/ll_aton/ll_aton_lib.c ****     }
 984:../Middlewares/stedgeai-lib/Npu/ll_aton/ll_aton_lib.c ****     else
 985:../Middlewares/stedgeai-lib/Npu/ll_aton/ll_aton_lib.c ****     { // frame_size == 1
 986:../Middlewares/stedgeai-lib/Npu/ll_aton/ll_aton_lib.c **** #if 1
 987:../Middlewares/stedgeai-lib/Npu/ll_aton/ll_aton_lib.c ****       LL_ATON_ASSERT(0); // should never happen!!!
 988:../Middlewares/stedgeai-lib/Npu/ll_aton/ll_aton_lib.c **** #else
 989:../Middlewares/stedgeai-lib/Npu/ll_aton/ll_aton_lib.c ****       params->g_dma_in.raw = 1;                                    // this must be updated on all o
 990:../Middlewares/stedgeai-lib/Npu/ll_aton/ll_aton_lib.c ****       params->g_dma_in.offset_start += out_nchannels_old * nbytes; // this must be updated on all o
 991:../Middlewares/stedgeai-lib/Npu/ll_aton/ll_aton_lib.c ****       params->g_dma_in.offset_end +=
 992:../Middlewares/stedgeai-lib/Npu/ll_aton/ll_aton_lib.c ****           params->g_dma_in.offset_start +
 993:../Middlewares/stedgeai-lib/Npu/ll_aton/ll_aton_lib.c ****           nbytes; // this must be updated on all outputs FIXME Francesco incorrect calculation
 994:../Middlewares/stedgeai-lib/Npu/ll_aton/ll_aton_lib.c **** #endif
 995:../Middlewares/stedgeai-lib/Npu/ll_aton/ll_aton_lib.c ****     }
 996:../Middlewares/stedgeai-lib/Npu/ll_aton/ll_aton_lib.c ****     /* loop back one epoch block */
 997:../Middlewares/stedgeai-lib/Npu/ll_aton/ll_aton_lib.c ****     LL_ATON_RT_DecCurrEpochBlock(1);
 998:../Middlewares/stedgeai-lib/Npu/ll_aton/ll_aton_lib.c ****   }
 999:../Middlewares/stedgeai-lib/Npu/ll_aton/ll_aton_lib.c ****   else
1000:../Middlewares/stedgeai-lib/Npu/ll_aton/ll_aton_lib.c ****   {
1001:../Middlewares/stedgeai-lib/Npu/ll_aton/ll_aton_lib.c ****     /* Release ATON lock */
1002:../Middlewares/stedgeai-lib/Npu/ll_aton/ll_aton_lib.c ****     __ll_clear_aton_owner(nn_instance, false);
1003:../Middlewares/stedgeai-lib/Npu/ll_aton/ll_aton_lib.c **** 
1004:../Middlewares/stedgeai-lib/Npu/ll_aton/ll_aton_lib.c ****     /* proceed to next epoch block */
1005:../Middlewares/stedgeai-lib/Npu/ll_aton/ll_aton_lib.c ****   }
1006:../Middlewares/stedgeai-lib/Npu/ll_aton/ll_aton_lib.c **** }
1007:../Middlewares/stedgeai-lib/Npu/ll_aton/ll_aton_lib.c **** 
1008:../Middlewares/stedgeai-lib/Npu/ll_aton/ll_aton_lib.c **** static void __LL_LIB_Outputs_Channel_Split_Batched_Start_EpochBlock(const LL_ATON_RT_EpochBlockItem
1009:../Middlewares/stedgeai-lib/Npu/ll_aton/ll_aton_lib.c ****                                                                     const NN_Instance_TypeDef *nn_i
1010:../Middlewares/stedgeai-lib/Npu/ll_aton/ll_aton_lib.c **** {
1011:../Middlewares/stedgeai-lib/Npu/ll_aton/ll_aton_lib.c ****   LL_ATON_LIB_UNUSED(nn_instance);
1012:../Middlewares/stedgeai-lib/Npu/ll_aton/ll_aton_lib.c **** 
1013:../Middlewares/stedgeai-lib/Npu/ll_aton/ll_aton_lib.c ****   __ll_lib_params_t *params = __ll_lib_get_params();
1014:../Middlewares/stedgeai-lib/Npu/ll_aton/ll_aton_lib.c ****   LL_ATON_ASSERT(params->g_idx < params->g_num_tensors); // must be checked before
1015:../Middlewares/stedgeai-lib/Npu/ll_aton/ll_aton_lib.c ****   params->g_not_continuous =
1016:../Middlewares/stedgeai-lib/Npu/ll_aton/ll_aton_lib.c ****       1; // disables code in __ll_lib_outputs_memcpy_start that assumes a flat copy operation e.g. 
1017:../Middlewares/stedgeai-lib/Npu/ll_aton/ll_aton_lib.c **** 
1018:../Middlewares/stedgeai-lib/Npu/ll_aton/ll_aton_lib.c ****   uint8_t *dst = (uint8_t *)LL_Buffer_addr_start(((LL_Buffer_InfoTypeDef *)params->g_tensors) + par
1019:../Middlewares/stedgeai-lib/Npu/ll_aton/ll_aton_lib.c ****   __ll_lib_outputs_memcpy_start(epoch_block, dst);
1020:../Middlewares/stedgeai-lib/Npu/ll_aton/ll_aton_lib.c **** }
1021:../Middlewares/stedgeai-lib/Npu/ll_aton/ll_aton_lib.c **** 
1022:../Middlewares/stedgeai-lib/Npu/ll_aton/ll_aton_lib.c **** static void __LL_LIB_Outputs_Channel_Split_Batched_End_EpochBlock(const LL_ATON_RT_EpochBlockItem_t
1023:../Middlewares/stedgeai-lib/Npu/ll_aton/ll_aton_lib.c ****                                                                   const NN_Instance_TypeDef *nn_ins
1024:../Middlewares/stedgeai-lib/Npu/ll_aton/ll_aton_lib.c **** {
1025:../Middlewares/stedgeai-lib/Npu/ll_aton/ll_aton_lib.c ****   LL_ATON_LIB_UNUSED(nn_instance);
1026:../Middlewares/stedgeai-lib/Npu/ll_aton/ll_aton_lib.c **** 
1027:../Middlewares/stedgeai-lib/Npu/ll_aton/ll_aton_lib.c ****   __ll_lib_params_t *params = __ll_lib_get_params();
1028:../Middlewares/stedgeai-lib/Npu/ll_aton/ll_aton_lib.c **** 
1029:../Middlewares/stedgeai-lib/Npu/ll_aton/ll_aton_lib.c ****   if (__ll_lib_set_wait_mask((LL_ATON_RT_EpochBlockItem_t *)epoch_block, 0))
1030:../Middlewares/stedgeai-lib/Npu/ll_aton/ll_aton_lib.c ****   {
1031:../Middlewares/stedgeai-lib/Npu/ll_aton/ll_aton_lib.c ****     __ll_lib_stop_transfer();
1032:../Middlewares/stedgeai-lib/Npu/ll_aton/ll_aton_lib.c ****   }
1033:../Middlewares/stedgeai-lib/Npu/ll_aton/ll_aton_lib.c **** 
1034:../Middlewares/stedgeai-lib/Npu/ll_aton/ll_aton_lib.c ****   LL_Buffer_InfoTypeDef *out = ((LL_Buffer_InfoTypeDef *)params->g_tensors) + params->g_idx;
1035:../Middlewares/stedgeai-lib/Npu/ll_aton/ll_aton_lib.c ****   int out_rank_old = out->ndims;
1036:../Middlewares/stedgeai-lib/Npu/ll_aton/ll_aton_lib.c ****   int out_nchannels_old = out->shape[(out_rank_old - 4) + 1 /* ONNX_CHANNEL_OFFSET */];
1037:../Middlewares/stedgeai-lib/Npu/ll_aton/ll_aton_lib.c **** 
ARM GAS  /tmp/ccTQcp07.s 			page 38


1038:../Middlewares/stedgeai-lib/Npu/ll_aton/ll_aton_lib.c ****   params->g_idx++;
1039:../Middlewares/stedgeai-lib/Npu/ll_aton/ll_aton_lib.c **** 
1040:../Middlewares/stedgeai-lib/Npu/ll_aton/ll_aton_lib.c ****   if (params->g_idx < params->g_num_tensors)
1041:../Middlewares/stedgeai-lib/Npu/ll_aton/ll_aton_lib.c ****   {
1042:../Middlewares/stedgeai-lib/Npu/ll_aton/ll_aton_lib.c ****     out = ((LL_Buffer_InfoTypeDef *)params->g_tensors) + params->g_idx;
1043:../Middlewares/stedgeai-lib/Npu/ll_aton/ll_aton_lib.c **** 
1044:../Middlewares/stedgeai-lib/Npu/ll_aton/ll_aton_lib.c ****     uint32_t out_ndims = out->ndims;
1045:../Middlewares/stedgeai-lib/Npu/ll_aton/ll_aton_lib.c ****     LL_ATON_ASSERT(out_ndims >= 3);
1046:../Middlewares/stedgeai-lib/Npu/ll_aton/ll_aton_lib.c ****     uint32_t nbytes = LL_LIB_NBYTES(out->nbits);
1047:../Middlewares/stedgeai-lib/Npu/ll_aton/ll_aton_lib.c ****     uint32_t out_fwidth = out->shape[(out_ndims - 4) + TDIM_ONNX_FWIDTH];
1048:../Middlewares/stedgeai-lib/Npu/ll_aton/ll_aton_lib.c ****     uint32_t out_fheight = out->shape[(out_ndims - 4) + TDIM_ONNX_FHEIGHT];
1049:../Middlewares/stedgeai-lib/Npu/ll_aton/ll_aton_lib.c ****     uint32_t out_nchannels = out->shape[(out_ndims - 4) + TDIM_ONNX_NCHANNELS];
1050:../Middlewares/stedgeai-lib/Npu/ll_aton/ll_aton_lib.c ****     uint16_t out_batch = out->batch;
1051:../Middlewares/stedgeai-lib/Npu/ll_aton/ll_aton_lib.c ****     LL_ATON_ASSERT((out_nchannels % out_batch) == 0);
1052:../Middlewares/stedgeai-lib/Npu/ll_aton/ll_aton_lib.c **** 
1053:../Middlewares/stedgeai-lib/Npu/ll_aton/ll_aton_lib.c ****     // program output DMA
1054:../Middlewares/stedgeai-lib/Npu/ll_aton/ll_aton_lib.c ****     params->g_dma_out.addr_base.p = out->addr_base.p;
1055:../Middlewares/stedgeai-lib/Npu/ll_aton/ll_aton_lib.c ****     params->g_dma_out.offset_start = out->offset_start;
1056:../Middlewares/stedgeai-lib/Npu/ll_aton/ll_aton_lib.c ****     params->g_dma_out.offset_end = out->offset_end;
1057:../Middlewares/stedgeai-lib/Npu/ll_aton/ll_aton_lib.c **** 
1058:../Middlewares/stedgeai-lib/Npu/ll_aton/ll_aton_lib.c ****     // LL_ATON_PRINTF("\ndma_out: addr_start=%p, addr_end=%p\n", LL_Streng_addr_start(&(params->g_d
1059:../Middlewares/stedgeai-lib/Npu/ll_aton/ll_aton_lib.c ****     // LL_Streng_addr_end(&(params->g_dma_out)));
1060:../Middlewares/stedgeai-lib/Npu/ll_aton/ll_aton_lib.c **** 
1061:../Middlewares/stedgeai-lib/Npu/ll_aton/ll_aton_lib.c ****     unsigned int batch_depth = (nbytes == 4) ? (2 * out_batch) : out_batch;
1062:../Middlewares/stedgeai-lib/Npu/ll_aton/ll_aton_lib.c ****     unsigned int frame_size = out_fwidth * out_fheight * batch_depth;
1063:../Middlewares/stedgeai-lib/Npu/ll_aton/ll_aton_lib.c **** 
1064:../Middlewares/stedgeai-lib/Npu/ll_aton/ll_aton_lib.c ****     // program input DMA
1065:../Middlewares/stedgeai-lib/Npu/ll_aton/ll_aton_lib.c ****     if (frame_size != 1)
1066:../Middlewares/stedgeai-lib/Npu/ll_aton/ll_aton_lib.c ****     {
1067:../Middlewares/stedgeai-lib/Npu/ll_aton/ll_aton_lib.c ****       params->g_dma_in.raw = 0;                                    // this must be updated on all o
1068:../Middlewares/stedgeai-lib/Npu/ll_aton/ll_aton_lib.c ****       params->g_dma_in.offset_start += out_nchannels_old * nbytes; // this must be updated on all o
1069:../Middlewares/stedgeai-lib/Npu/ll_aton/ll_aton_lib.c ****       params->g_dma_in.batch_depth = batch_depth;                  // this must be updated on all o
1070:../Middlewares/stedgeai-lib/Npu/ll_aton/ll_aton_lib.c ****       params->g_dma_in.frame_tot_cnt = out_nchannels / out_batch;  // this must be updated on all o
1071:../Middlewares/stedgeai-lib/Npu/ll_aton/ll_aton_lib.c ****       params->g_dma_in.loop_offset = out_batch * nbytes;           // this must be updated on all o
1072:../Middlewares/stedgeai-lib/Npu/ll_aton/ll_aton_lib.c **** 
1073:../Middlewares/stedgeai-lib/Npu/ll_aton/ll_aton_lib.c ****       // LL_ATON_PRINTF("dma_in: frame_size=%d, nbytes=%u, out_nchannels_old=%d, out_nchannels=%u, 
1074:../Middlewares/stedgeai-lib/Npu/ll_aton/ll_aton_lib.c ****       // out_fwidth=%u, out_fheight=%u, batch_depth=%u, batch_offset=%u, line_offset=%u, frame_offs
1075:../Middlewares/stedgeai-lib/Npu/ll_aton/ll_aton_lib.c ****       // frame_tot_cnt=%u\n",
1076:../Middlewares/stedgeai-lib/Npu/ll_aton/ll_aton_lib.c ****       //      frame_size, nbytes, out_nchannels_old, out_nchannels, LL_Streng_addr_start(&(params->
1077:../Middlewares/stedgeai-lib/Npu/ll_aton/ll_aton_lib.c ****       //      params->g_dma_in.fwidth, params->g_dma_in.fheight, params->g_dma_in.batch_depth,
1078:../Middlewares/stedgeai-lib/Npu/ll_aton/ll_aton_lib.c ****       //      params->g_dma_in.batch_offset, params->g_dma_in.line_offset, params->g_dma_in.frame_o
1079:../Middlewares/stedgeai-lib/Npu/ll_aton/ll_aton_lib.c ****       //      params->g_dma_in.frame_tot_cnt);
1080:../Middlewares/stedgeai-lib/Npu/ll_aton/ll_aton_lib.c ****       // LL_ATON_FFLUSH(stdout);
1081:../Middlewares/stedgeai-lib/Npu/ll_aton/ll_aton_lib.c ****     }
1082:../Middlewares/stedgeai-lib/Npu/ll_aton/ll_aton_lib.c ****     else
1083:../Middlewares/stedgeai-lib/Npu/ll_aton/ll_aton_lib.c ****     { // frame_size == 1
1084:../Middlewares/stedgeai-lib/Npu/ll_aton/ll_aton_lib.c **** #if 1
1085:../Middlewares/stedgeai-lib/Npu/ll_aton/ll_aton_lib.c ****       LL_ATON_ASSERT(0); // should never happen!!!
1086:../Middlewares/stedgeai-lib/Npu/ll_aton/ll_aton_lib.c **** #else
1087:../Middlewares/stedgeai-lib/Npu/ll_aton/ll_aton_lib.c ****       // TODO (as not yet adapted for this case)
1088:../Middlewares/stedgeai-lib/Npu/ll_aton/ll_aton_lib.c ****       params->g_dma_in.raw = 1;                                    // this must be updated on all o
1089:../Middlewares/stedgeai-lib/Npu/ll_aton/ll_aton_lib.c ****       params->g_dma_in.offset_start += out_nchannels_old * nbytes; // this must be updated on all o
1090:../Middlewares/stedgeai-lib/Npu/ll_aton/ll_aton_lib.c ****       params->g_dma_in.offset_end +=
1091:../Middlewares/stedgeai-lib/Npu/ll_aton/ll_aton_lib.c ****           params->g_dma_in.offset_start +
1092:../Middlewares/stedgeai-lib/Npu/ll_aton/ll_aton_lib.c ****           nbytes; // this must be updated on all outputs  FIXME Francesco incorrect calculation
1093:../Middlewares/stedgeai-lib/Npu/ll_aton/ll_aton_lib.c **** #endif
1094:../Middlewares/stedgeai-lib/Npu/ll_aton/ll_aton_lib.c ****     }
ARM GAS  /tmp/ccTQcp07.s 			page 39


1095:../Middlewares/stedgeai-lib/Npu/ll_aton/ll_aton_lib.c ****     /* loop back one epoch block */
1096:../Middlewares/stedgeai-lib/Npu/ll_aton/ll_aton_lib.c ****     LL_ATON_RT_DecCurrEpochBlock(1);
1097:../Middlewares/stedgeai-lib/Npu/ll_aton/ll_aton_lib.c ****   }
1098:../Middlewares/stedgeai-lib/Npu/ll_aton/ll_aton_lib.c ****   else
1099:../Middlewares/stedgeai-lib/Npu/ll_aton/ll_aton_lib.c ****   {
1100:../Middlewares/stedgeai-lib/Npu/ll_aton/ll_aton_lib.c ****     /* Release ATON lock */
1101:../Middlewares/stedgeai-lib/Npu/ll_aton/ll_aton_lib.c ****     __ll_clear_aton_owner(nn_instance, false);
1102:../Middlewares/stedgeai-lib/Npu/ll_aton/ll_aton_lib.c **** 
1103:../Middlewares/stedgeai-lib/Npu/ll_aton/ll_aton_lib.c ****     /* proceed to next epoch block */
1104:../Middlewares/stedgeai-lib/Npu/ll_aton/ll_aton_lib.c ****   }
1105:../Middlewares/stedgeai-lib/Npu/ll_aton/ll_aton_lib.c **** }
1106:../Middlewares/stedgeai-lib/Npu/ll_aton/ll_aton_lib.c **** 
1107:../Middlewares/stedgeai-lib/Npu/ll_aton/ll_aton_lib.c **** static void __LL_LIB_Outputs_Memcpy_Start_EpochBlock(const LL_ATON_RT_EpochBlockItem_t *epoch_block
1108:../Middlewares/stedgeai-lib/Npu/ll_aton/ll_aton_lib.c ****                                                      const NN_Instance_TypeDef *nn_instance)
1109:../Middlewares/stedgeai-lib/Npu/ll_aton/ll_aton_lib.c **** {
1110:../Middlewares/stedgeai-lib/Npu/ll_aton/ll_aton_lib.c ****   LL_ATON_LIB_UNUSED(nn_instance);
1111:../Middlewares/stedgeai-lib/Npu/ll_aton/ll_aton_lib.c **** 
1112:../Middlewares/stedgeai-lib/Npu/ll_aton/ll_aton_lib.c ****   __ll_lib_params_t *params = __ll_lib_get_params();
1113:../Middlewares/stedgeai-lib/Npu/ll_aton/ll_aton_lib.c ****   LL_ATON_ASSERT(params->g_idx < params->g_num_tensors); // must be checked before
1114:../Middlewares/stedgeai-lib/Npu/ll_aton/ll_aton_lib.c **** 
1115:../Middlewares/stedgeai-lib/Npu/ll_aton/ll_aton_lib.c ****   uint8_t *dst = (uint8_t *)LL_Buffer_addr_start(((LL_Buffer_InfoTypeDef *)params->g_tensors) + par
1116:../Middlewares/stedgeai-lib/Npu/ll_aton/ll_aton_lib.c ****   __ll_lib_outputs_memcpy_start(epoch_block, dst);
1117:../Middlewares/stedgeai-lib/Npu/ll_aton/ll_aton_lib.c **** }
1118:../Middlewares/stedgeai-lib/Npu/ll_aton/ll_aton_lib.c **** 
1119:../Middlewares/stedgeai-lib/Npu/ll_aton/ll_aton_lib.c **** static void __LL_LIB_Outputs_Memcpy_End_EpochBlock(const LL_ATON_RT_EpochBlockItem_t *epoch_block,
1120:../Middlewares/stedgeai-lib/Npu/ll_aton/ll_aton_lib.c ****                                                    const NN_Instance_TypeDef *nn_instance)
1121:../Middlewares/stedgeai-lib/Npu/ll_aton/ll_aton_lib.c **** {
1122:../Middlewares/stedgeai-lib/Npu/ll_aton/ll_aton_lib.c ****   LL_ATON_LIB_UNUSED(nn_instance);
1123:../Middlewares/stedgeai-lib/Npu/ll_aton/ll_aton_lib.c **** 
1124:../Middlewares/stedgeai-lib/Npu/ll_aton/ll_aton_lib.c ****   __ll_lib_params_t *params = __ll_lib_get_params();
1125:../Middlewares/stedgeai-lib/Npu/ll_aton/ll_aton_lib.c **** 
1126:../Middlewares/stedgeai-lib/Npu/ll_aton/ll_aton_lib.c ****   if (__ll_lib_set_wait_mask((LL_ATON_RT_EpochBlockItem_t *)epoch_block, 0))
1127:../Middlewares/stedgeai-lib/Npu/ll_aton/ll_aton_lib.c ****   {
1128:../Middlewares/stedgeai-lib/Npu/ll_aton/ll_aton_lib.c ****     __ll_lib_stop_transfer();
1129:../Middlewares/stedgeai-lib/Npu/ll_aton/ll_aton_lib.c ****   }
1130:../Middlewares/stedgeai-lib/Npu/ll_aton/ll_aton_lib.c **** 
1131:../Middlewares/stedgeai-lib/Npu/ll_aton/ll_aton_lib.c ****   if (params->g_size < 0)
1132:../Middlewares/stedgeai-lib/Npu/ll_aton/ll_aton_lib.c ****   {
1133:../Middlewares/stedgeai-lib/Npu/ll_aton/ll_aton_lib.c ****     params->g_dst_o_src += LL_Buffer_len(((LL_Buffer_InfoTypeDef *)params->g_tensors) + params->g_i
1134:../Middlewares/stedgeai-lib/Npu/ll_aton/ll_aton_lib.c ****   }
1135:../Middlewares/stedgeai-lib/Npu/ll_aton/ll_aton_lib.c ****   else
1136:../Middlewares/stedgeai-lib/Npu/ll_aton/ll_aton_lib.c ****   {
1137:../Middlewares/stedgeai-lib/Npu/ll_aton/ll_aton_lib.c ****     params->g_dst_o_src += (params->g_size);
1138:../Middlewares/stedgeai-lib/Npu/ll_aton/ll_aton_lib.c ****   }
1139:../Middlewares/stedgeai-lib/Npu/ll_aton/ll_aton_lib.c ****   params->g_idx++;
1140:../Middlewares/stedgeai-lib/Npu/ll_aton/ll_aton_lib.c **** 
1141:../Middlewares/stedgeai-lib/Npu/ll_aton/ll_aton_lib.c ****   if (params->g_idx < params->g_num_tensors)
1142:../Middlewares/stedgeai-lib/Npu/ll_aton/ll_aton_lib.c ****   {
1143:../Middlewares/stedgeai-lib/Npu/ll_aton/ll_aton_lib.c ****     /* loop back one epoch block */
1144:../Middlewares/stedgeai-lib/Npu/ll_aton/ll_aton_lib.c ****     LL_ATON_RT_DecCurrEpochBlock(1);
1145:../Middlewares/stedgeai-lib/Npu/ll_aton/ll_aton_lib.c ****   }
1146:../Middlewares/stedgeai-lib/Npu/ll_aton/ll_aton_lib.c ****   else
1147:../Middlewares/stedgeai-lib/Npu/ll_aton/ll_aton_lib.c ****   {
1148:../Middlewares/stedgeai-lib/Npu/ll_aton/ll_aton_lib.c ****     /* Release ATON lock */
1149:../Middlewares/stedgeai-lib/Npu/ll_aton/ll_aton_lib.c ****     __ll_clear_aton_owner(nn_instance, false);
1150:../Middlewares/stedgeai-lib/Npu/ll_aton/ll_aton_lib.c **** 
1151:../Middlewares/stedgeai-lib/Npu/ll_aton/ll_aton_lib.c ****     /* proceed to next epoch block */
ARM GAS  /tmp/ccTQcp07.s 			page 40


1152:../Middlewares/stedgeai-lib/Npu/ll_aton/ll_aton_lib.c ****   }
1153:../Middlewares/stedgeai-lib/Npu/ll_aton/ll_aton_lib.c **** }
1154:../Middlewares/stedgeai-lib/Npu/ll_aton/ll_aton_lib.c **** 
1155:../Middlewares/stedgeai-lib/Npu/ll_aton/ll_aton_lib.c **** static void __LL_LIB_DMA_Pad_Memset_End_EpochBlock(const LL_ATON_RT_EpochBlockItem_t *epoch_block,
1156:../Middlewares/stedgeai-lib/Npu/ll_aton/ll_aton_lib.c ****                                                    const NN_Instance_TypeDef *nn_instance)
1157:../Middlewares/stedgeai-lib/Npu/ll_aton/ll_aton_lib.c **** {
1158:../Middlewares/stedgeai-lib/Npu/ll_aton/ll_aton_lib.c ****   LL_ATON_LIB_UNUSED(epoch_block);
1159:../Middlewares/stedgeai-lib/Npu/ll_aton/ll_aton_lib.c **** 
1160:../Middlewares/stedgeai-lib/Npu/ll_aton/ll_aton_lib.c ****   __ll_lib_params_t *params = __ll_lib_get_params();
1161:../Middlewares/stedgeai-lib/Npu/ll_aton/ll_aton_lib.c **** 
1162:../Middlewares/stedgeai-lib/Npu/ll_aton/ll_aton_lib.c ****   __ll_lib_stop_transfer();
1163:../Middlewares/stedgeai-lib/Npu/ll_aton/ll_aton_lib.c **** 
1164:../Middlewares/stedgeai-lib/Npu/ll_aton/ll_aton_lib.c ****   if (params->special.pad.callback_function != NULL)
1165:../Middlewares/stedgeai-lib/Npu/ll_aton/ll_aton_lib.c ****   {
1166:../Middlewares/stedgeai-lib/Npu/ll_aton/ll_aton_lib.c **** #ifndef NDEBUG
1167:../Middlewares/stedgeai-lib/Npu/ll_aton/ll_aton_lib.c ****     extern const NN_Instance_TypeDef *volatile __ll_current_aton_ip_owner;
1168:../Middlewares/stedgeai-lib/Npu/ll_aton/ll_aton_lib.c ****     LL_ATON_ASSERT(__ll_current_aton_ip_owner == nn_instance);
1169:../Middlewares/stedgeai-lib/Npu/ll_aton/ll_aton_lib.c **** #endif // !NDEBUG
1170:../Middlewares/stedgeai-lib/Npu/ll_aton/ll_aton_lib.c **** 
1171:../Middlewares/stedgeai-lib/Npu/ll_aton/ll_aton_lib.c ****     /* return from current epoch block */
1172:../Middlewares/stedgeai-lib/Npu/ll_aton/ll_aton_lib.c ****     __LL_ATON_RT_RetFromLibEpochBlockArray(nn_instance); // Note: we are still the ATON owner
1173:../Middlewares/stedgeai-lib/Npu/ll_aton/ll_aton_lib.c ****     /* call follow-up function */
1174:../Middlewares/stedgeai-lib/Npu/ll_aton/ll_aton_lib.c ****     (*params->special.pad.callback_function)(&params->special.pad, nn_instance);
1175:../Middlewares/stedgeai-lib/Npu/ll_aton/ll_aton_lib.c ****   }
1176:../Middlewares/stedgeai-lib/Npu/ll_aton/ll_aton_lib.c ****   else
1177:../Middlewares/stedgeai-lib/Npu/ll_aton/ll_aton_lib.c ****   {
1178:../Middlewares/stedgeai-lib/Npu/ll_aton/ll_aton_lib.c ****     /* Release ATON lock */
1179:../Middlewares/stedgeai-lib/Npu/ll_aton/ll_aton_lib.c ****     __ll_clear_aton_owner(nn_instance, false);
1180:../Middlewares/stedgeai-lib/Npu/ll_aton/ll_aton_lib.c **** 
1181:../Middlewares/stedgeai-lib/Npu/ll_aton/ll_aton_lib.c ****     /* proceed to next epoch block */
1182:../Middlewares/stedgeai-lib/Npu/ll_aton/ll_aton_lib.c ****   }
1183:../Middlewares/stedgeai-lib/Npu/ll_aton/ll_aton_lib.c **** }
1184:../Middlewares/stedgeai-lib/Npu/ll_aton/ll_aton_lib.c **** 
1185:../Middlewares/stedgeai-lib/Npu/ll_aton/ll_aton_lib.c **** static void __LL_LIB_DMA_Pad_Filling_Start_EpochBlock(const LL_ATON_RT_EpochBlockItem_t *epoch_bloc
1186:../Middlewares/stedgeai-lib/Npu/ll_aton/ll_aton_lib.c ****                                                       const NN_Instance_TypeDef *nn_instance)
1187:../Middlewares/stedgeai-lib/Npu/ll_aton/ll_aton_lib.c **** {
1188:../Middlewares/stedgeai-lib/Npu/ll_aton/ll_aton_lib.c ****   LL_ATON_LIB_UNUSED(nn_instance);
1189:../Middlewares/stedgeai-lib/Npu/ll_aton/ll_aton_lib.c **** 
1190:../Middlewares/stedgeai-lib/Npu/ll_aton/ll_aton_lib.c ****   __ll_lib_params_t *params = __ll_lib_get_params();
1191:../Middlewares/stedgeai-lib/Npu/ll_aton/ll_aton_lib.c ****   __ll_pad_sw_params_t *common_params = &params->special.pad;
1192:../Middlewares/stedgeai-lib/Npu/ll_aton/ll_aton_lib.c **** 
1193:../Middlewares/stedgeai-lib/Npu/ll_aton/ll_aton_lib.c ****   /* set destination address */
1194:../Middlewares/stedgeai-lib/Npu/ll_aton/ll_aton_lib.c ****   params->g_dst_o_src = (unsigned char *)common_params->out_target;
1195:../Middlewares/stedgeai-lib/Npu/ll_aton/ll_aton_lib.c **** 
1196:../Middlewares/stedgeai-lib/Npu/ll_aton/ll_aton_lib.c **** #if defined(DUMP_DEBUG_SW_OPS)
1197:../Middlewares/stedgeai-lib/Npu/ll_aton/ll_aton_lib.c ****   LL_ATON_PRINTF("%s(%d): ASSIGN in=%lx, out=%lx, bytes=%u\n", __func__, __LINE__, (uintptr_t)commo
1198:../Middlewares/stedgeai-lib/Npu/ll_aton/ll_aton_lib.c ****                  (uintptr_t)common_params->out_target, common_params->consecutive_bytes);
1199:../Middlewares/stedgeai-lib/Npu/ll_aton/ll_aton_lib.c **** #if (ATON_PLAT_HAS_FFLUSH)
1200:../Middlewares/stedgeai-lib/Npu/ll_aton/ll_aton_lib.c ****   LL_ATON_FFLUSH(stdout);
1201:../Middlewares/stedgeai-lib/Npu/ll_aton/ll_aton_lib.c **** #endif
1202:../Middlewares/stedgeai-lib/Npu/ll_aton/ll_aton_lib.c **** #endif
1203:../Middlewares/stedgeai-lib/Npu/ll_aton/ll_aton_lib.c **** 
1204:../Middlewares/stedgeai-lib/Npu/ll_aton/ll_aton_lib.c ****   /* start `memcpy` */
1205:../Middlewares/stedgeai-lib/Npu/ll_aton/ll_aton_lib.c ****   {
1206:../Middlewares/stedgeai-lib/Npu/ll_aton/ll_aton_lib.c ****     uint8_t *_dst = (uint8_t *)params->g_dst_o_src;
1207:../Middlewares/stedgeai-lib/Npu/ll_aton/ll_aton_lib.c ****     uint8_t *_src = (uint8_t *)common_params->in_target;
1208:../Middlewares/stedgeai-lib/Npu/ll_aton/ll_aton_lib.c ****     size_t n;
ARM GAS  /tmp/ccTQcp07.s 			page 41


1209:../Middlewares/stedgeai-lib/Npu/ll_aton/ll_aton_lib.c **** 
1210:../Middlewares/stedgeai-lib/Npu/ll_aton/ll_aton_lib.c ****     n = params->g_size;
1211:../Middlewares/stedgeai-lib/Npu/ll_aton/ll_aton_lib.c ****     n = __ll_lib_memcpy_prolog((void **)&_dst, (void **)&_src, n);
1212:../Middlewares/stedgeai-lib/Npu/ll_aton/ll_aton_lib.c **** 
1213:../Middlewares/stedgeai-lib/Npu/ll_aton/ll_aton_lib.c ****     if (n > 0)
1214:../Middlewares/stedgeai-lib/Npu/ll_aton/ll_aton_lib.c ****     {
1215:../Middlewares/stedgeai-lib/Npu/ll_aton/ll_aton_lib.c ****       params->g_dma_in.addr_base.p = (uint8_t *)_src;
1216:../Middlewares/stedgeai-lib/Npu/ll_aton/ll_aton_lib.c ****       params->g_dma_in.offset_start = 0;
1217:../Middlewares/stedgeai-lib/Npu/ll_aton/ll_aton_lib.c ****       params->g_dma_in.offset_end = n;
1218:../Middlewares/stedgeai-lib/Npu/ll_aton/ll_aton_lib.c ****       params->g_dma_in.offset_limit = (uint8_t *)common_params->in_limit - (uint8_t *)common_params
1219:../Middlewares/stedgeai-lib/Npu/ll_aton/ll_aton_lib.c **** 
1220:../Middlewares/stedgeai-lib/Npu/ll_aton/ll_aton_lib.c ****       params->g_dma_out.addr_base.p = _dst;
1221:../Middlewares/stedgeai-lib/Npu/ll_aton/ll_aton_lib.c ****       params->g_dma_out.offset_start = 0;
1222:../Middlewares/stedgeai-lib/Npu/ll_aton/ll_aton_lib.c ****       params->g_dma_out.offset_end = n;
1223:../Middlewares/stedgeai-lib/Npu/ll_aton/ll_aton_lib.c **** 
1224:../Middlewares/stedgeai-lib/Npu/ll_aton/ll_aton_lib.c ****       __ll_lib_set_wait_mask((LL_ATON_RT_EpochBlockItem_t *)epoch_block, params->g_wait_mask);
1225:../Middlewares/stedgeai-lib/Npu/ll_aton/ll_aton_lib.c **** 
1226:../Middlewares/stedgeai-lib/Npu/ll_aton/ll_aton_lib.c ****       __ll_lib_start_transfer(params);
1227:../Middlewares/stedgeai-lib/Npu/ll_aton/ll_aton_lib.c ****     }
1228:../Middlewares/stedgeai-lib/Npu/ll_aton/ll_aton_lib.c ****     else
1229:../Middlewares/stedgeai-lib/Npu/ll_aton/ll_aton_lib.c ****     {
1230:../Middlewares/stedgeai-lib/Npu/ll_aton/ll_aton_lib.c ****       /* do not start any transfer and wait, just proceed to end function */
1231:../Middlewares/stedgeai-lib/Npu/ll_aton/ll_aton_lib.c ****       __ll_lib_set_wait_mask((LL_ATON_RT_EpochBlockItem_t *)epoch_block, 0);
1232:../Middlewares/stedgeai-lib/Npu/ll_aton/ll_aton_lib.c ****     }
1233:../Middlewares/stedgeai-lib/Npu/ll_aton/ll_aton_lib.c ****   }
1234:../Middlewares/stedgeai-lib/Npu/ll_aton/ll_aton_lib.c **** }
1235:../Middlewares/stedgeai-lib/Npu/ll_aton/ll_aton_lib.c **** 
1236:../Middlewares/stedgeai-lib/Npu/ll_aton/ll_aton_lib.c **** static void __LL_LIB_DMA_Pad_Filling_End_EpochBlock(const LL_ATON_RT_EpochBlockItem_t *epoch_block,
1237:../Middlewares/stedgeai-lib/Npu/ll_aton/ll_aton_lib.c ****                                                     const NN_Instance_TypeDef *nn_instance)
1238:../Middlewares/stedgeai-lib/Npu/ll_aton/ll_aton_lib.c **** {
1239:../Middlewares/stedgeai-lib/Npu/ll_aton/ll_aton_lib.c ****   __ll_lib_params_t *params = __ll_lib_get_params();
1240:../Middlewares/stedgeai-lib/Npu/ll_aton/ll_aton_lib.c ****   __ll_pad_sw_params_t *common_params = &params->special.pad;
1241:../Middlewares/stedgeai-lib/Npu/ll_aton/ll_aton_lib.c **** 
1242:../Middlewares/stedgeai-lib/Npu/ll_aton/ll_aton_lib.c ****   if (__ll_lib_set_wait_mask((LL_ATON_RT_EpochBlockItem_t *)epoch_block, 0))
1243:../Middlewares/stedgeai-lib/Npu/ll_aton/ll_aton_lib.c ****   {
1244:../Middlewares/stedgeai-lib/Npu/ll_aton/ll_aton_lib.c ****     __ll_lib_stop_transfer();
1245:../Middlewares/stedgeai-lib/Npu/ll_aton/ll_aton_lib.c ****   }
1246:../Middlewares/stedgeai-lib/Npu/ll_aton/ll_aton_lib.c **** 
1247:../Middlewares/stedgeai-lib/Npu/ll_aton/ll_aton_lib.c ****   bool return_from_memcpy = true;
1248:../Middlewares/stedgeai-lib/Npu/ll_aton/ll_aton_lib.c **** 
1249:../Middlewares/stedgeai-lib/Npu/ll_aton/ll_aton_lib.c ****   do
1250:../Middlewares/stedgeai-lib/Npu/ll_aton/ll_aton_lib.c ****   {
1251:../Middlewares/stedgeai-lib/Npu/ll_aton/ll_aton_lib.c ****     if (common_params->pad_out_offsets_end[params->g_idx] > 0)
1252:../Middlewares/stedgeai-lib/Npu/ll_aton/ll_aton_lib.c ****     {
1253:../Middlewares/stedgeai-lib/Npu/ll_aton/ll_aton_lib.c ****       common_params->out_target += common_params->pad_out_offsets_end[params->g_idx];
1254:../Middlewares/stedgeai-lib/Npu/ll_aton/ll_aton_lib.c ****     }
1255:../Middlewares/stedgeai-lib/Npu/ll_aton/ll_aton_lib.c **** 
1256:../Middlewares/stedgeai-lib/Npu/ll_aton/ll_aton_lib.c ****     if (common_params->pad_in_offsets_end[params->g_idx] < 0)
1257:../Middlewares/stedgeai-lib/Npu/ll_aton/ll_aton_lib.c ****     {
1258:../Middlewares/stedgeai-lib/Npu/ll_aton/ll_aton_lib.c ****       common_params->in_target -= common_params->pad_in_offsets_end[params->g_idx];
1259:../Middlewares/stedgeai-lib/Npu/ll_aton/ll_aton_lib.c ****     }
1260:../Middlewares/stedgeai-lib/Npu/ll_aton/ll_aton_lib.c **** 
1261:../Middlewares/stedgeai-lib/Npu/ll_aton/ll_aton_lib.c **** #if defined(DUMP_DEBUG_SW_OPS)
1262:../Middlewares/stedgeai-lib/Npu/ll_aton/ll_aton_lib.c ****     LL_ATON_PRINTF("%s(%d) - end offsets for: curr_axis=%u, index=%u\n", __func__, __LINE__, params
1263:../Middlewares/stedgeai-lib/Npu/ll_aton/ll_aton_lib.c ****                    common_params->indexes[params->g_idx]);
1264:../Middlewares/stedgeai-lib/Npu/ll_aton/ll_aton_lib.c **** #endif
1265:../Middlewares/stedgeai-lib/Npu/ll_aton/ll_aton_lib.c **** 
ARM GAS  /tmp/ccTQcp07.s 			page 42


1266:../Middlewares/stedgeai-lib/Npu/ll_aton/ll_aton_lib.c ****     /* returning from `memcpy` or coming from `end of do-while-loop` */
1267:../Middlewares/stedgeai-lib/Npu/ll_aton/ll_aton_lib.c ****     if (return_from_memcpy)
1268:../Middlewares/stedgeai-lib/Npu/ll_aton/ll_aton_lib.c ****     { // returning from `memcpy`
1269:../Middlewares/stedgeai-lib/Npu/ll_aton/ll_aton_lib.c ****       LL_ATON_ASSERT(params->g_idx == common_params->consecutive_axis);
1270:../Middlewares/stedgeai-lib/Npu/ll_aton/ll_aton_lib.c **** #if defined(DUMP_DEBUG_SW_OPS)
1271:../Middlewares/stedgeai-lib/Npu/ll_aton/ll_aton_lib.c ****       LL_ATON_PRINTF("%s(%d) - return from memcpy: curr_axis=%u, index=%u\n", __func__, __LINE__, p
1272:../Middlewares/stedgeai-lib/Npu/ll_aton/ll_aton_lib.c ****                      common_params->indexes[params->g_idx]);
1273:../Middlewares/stedgeai-lib/Npu/ll_aton/ll_aton_lib.c **** #endif
1274:../Middlewares/stedgeai-lib/Npu/ll_aton/ll_aton_lib.c ****       common_params->in_target += common_params->consecutive_bytes;
1275:../Middlewares/stedgeai-lib/Npu/ll_aton/ll_aton_lib.c ****       common_params->out_target += common_params->consecutive_bytes;
1276:../Middlewares/stedgeai-lib/Npu/ll_aton/ll_aton_lib.c **** 
1277:../Middlewares/stedgeai-lib/Npu/ll_aton/ll_aton_lib.c ****       if (params->g_idx == 0)
1278:../Middlewares/stedgeai-lib/Npu/ll_aton/ll_aton_lib.c ****       {
1279:../Middlewares/stedgeai-lib/Npu/ll_aton/ll_aton_lib.c ****         break;
1280:../Middlewares/stedgeai-lib/Npu/ll_aton/ll_aton_lib.c ****       }
1281:../Middlewares/stedgeai-lib/Npu/ll_aton/ll_aton_lib.c ****     }
1282:../Middlewares/stedgeai-lib/Npu/ll_aton/ll_aton_lib.c **** 
1283:../Middlewares/stedgeai-lib/Npu/ll_aton/ll_aton_lib.c ****     LL_ATON_ASSERT(params->g_idx > 0);
1284:../Middlewares/stedgeai-lib/Npu/ll_aton/ll_aton_lib.c ****     params->g_idx--;
1285:../Middlewares/stedgeai-lib/Npu/ll_aton/ll_aton_lib.c **** #if defined(DUMP_DEBUG_SW_OPS)
1286:../Middlewares/stedgeai-lib/Npu/ll_aton/ll_aton_lib.c ****     LL_ATON_PRINTF("%s(%d) - return to previous axis: curr_axis=%u, index=%u\n", __func__, __LINE__
1287:../Middlewares/stedgeai-lib/Npu/ll_aton/ll_aton_lib.c ****                    common_params->indexes[params->g_idx]);
1288:../Middlewares/stedgeai-lib/Npu/ll_aton/ll_aton_lib.c **** #endif
1289:../Middlewares/stedgeai-lib/Npu/ll_aton/ll_aton_lib.c **** 
1290:../Middlewares/stedgeai-lib/Npu/ll_aton/ll_aton_lib.c ****     common_params->indexes[params->g_idx] += 1;
1291:../Middlewares/stedgeai-lib/Npu/ll_aton/ll_aton_lib.c **** #if defined(DUMP_DEBUG_SW_OPS)
1292:../Middlewares/stedgeai-lib/Npu/ll_aton/ll_aton_lib.c ****     LL_ATON_PRINTF("%s(%d) - inc axis index: curr_axis=%u, index=%u\n", __func__, __LINE__, params-
1293:../Middlewares/stedgeai-lib/Npu/ll_aton/ll_aton_lib.c ****                    common_params->indexes[params->g_idx]);
1294:../Middlewares/stedgeai-lib/Npu/ll_aton/ll_aton_lib.c **** #endif
1295:../Middlewares/stedgeai-lib/Npu/ll_aton/ll_aton_lib.c ****     if (common_params->indexes[params->g_idx] < common_params->min_shape[params->g_idx])
1296:../Middlewares/stedgeai-lib/Npu/ll_aton/ll_aton_lib.c ****     {
1297:../Middlewares/stedgeai-lib/Npu/ll_aton/ll_aton_lib.c ****     inner_loop:
1298:../Middlewares/stedgeai-lib/Npu/ll_aton/ll_aton_lib.c ****       params->g_idx++;
1299:../Middlewares/stedgeai-lib/Npu/ll_aton/ll_aton_lib.c **** #if defined(DUMP_DEBUG_SW_OPS)
1300:../Middlewares/stedgeai-lib/Npu/ll_aton/ll_aton_lib.c ****       LL_ATON_PRINTF(
1301:../Middlewares/stedgeai-lib/Npu/ll_aton/ll_aton_lib.c ****           "%s(%d) - valid axis value, proceeded to next axis & apply start offsets: curr_axis=%u, i
1302:../Middlewares/stedgeai-lib/Npu/ll_aton/ll_aton_lib.c ****           __LINE__, params->g_idx, common_params->indexes[params->g_idx]);
1303:../Middlewares/stedgeai-lib/Npu/ll_aton/ll_aton_lib.c **** #endif
1304:../Middlewares/stedgeai-lib/Npu/ll_aton/ll_aton_lib.c **** 
1305:../Middlewares/stedgeai-lib/Npu/ll_aton/ll_aton_lib.c ****       if (common_params->pad_out_offsets_start[params->g_idx] > 0)
1306:../Middlewares/stedgeai-lib/Npu/ll_aton/ll_aton_lib.c ****       {
1307:../Middlewares/stedgeai-lib/Npu/ll_aton/ll_aton_lib.c ****         common_params->out_target += common_params->pad_out_offsets_start[params->g_idx];
1308:../Middlewares/stedgeai-lib/Npu/ll_aton/ll_aton_lib.c ****       }
1309:../Middlewares/stedgeai-lib/Npu/ll_aton/ll_aton_lib.c **** 
1310:../Middlewares/stedgeai-lib/Npu/ll_aton/ll_aton_lib.c ****       if (common_params->pad_in_offsets_start[params->g_idx] < 0)
1311:../Middlewares/stedgeai-lib/Npu/ll_aton/ll_aton_lib.c ****       {
1312:../Middlewares/stedgeai-lib/Npu/ll_aton/ll_aton_lib.c ****         common_params->in_target -= common_params->pad_in_offsets_start[params->g_idx];
1313:../Middlewares/stedgeai-lib/Npu/ll_aton/ll_aton_lib.c ****       }
1314:../Middlewares/stedgeai-lib/Npu/ll_aton/ll_aton_lib.c **** 
1315:../Middlewares/stedgeai-lib/Npu/ll_aton/ll_aton_lib.c ****       if (params->g_idx == common_params->consecutive_axis)
1316:../Middlewares/stedgeai-lib/Npu/ll_aton/ll_aton_lib.c ****       {
1317:../Middlewares/stedgeai-lib/Npu/ll_aton/ll_aton_lib.c **** #if defined(DUMP_DEBUG_SW_OPS)
1318:../Middlewares/stedgeai-lib/Npu/ll_aton/ll_aton_lib.c ****         LL_ATON_PRINTF("%s(%d) - reached consecutive axis -> memcpy: curr_axis=%u, index=%u\n", __f
1319:../Middlewares/stedgeai-lib/Npu/ll_aton/ll_aton_lib.c ****                        params->g_idx, common_params->indexes[params->g_idx]);
1320:../Middlewares/stedgeai-lib/Npu/ll_aton/ll_aton_lib.c **** #endif
1321:../Middlewares/stedgeai-lib/Npu/ll_aton/ll_aton_lib.c ****         /* loop back one epoch block to start DMAs for filling next `consecutive bytes` */
1322:../Middlewares/stedgeai-lib/Npu/ll_aton/ll_aton_lib.c ****         LL_ATON_RT_DecCurrEpochBlock(1);
ARM GAS  /tmp/ccTQcp07.s 			page 43


1323:../Middlewares/stedgeai-lib/Npu/ll_aton/ll_aton_lib.c ****         return;
1324:../Middlewares/stedgeai-lib/Npu/ll_aton/ll_aton_lib.c ****       }
1325:../Middlewares/stedgeai-lib/Npu/ll_aton/ll_aton_lib.c ****       else
1326:../Middlewares/stedgeai-lib/Npu/ll_aton/ll_aton_lib.c ****       { // normal axis
1327:../Middlewares/stedgeai-lib/Npu/ll_aton/ll_aton_lib.c **** #if defined(DUMP_DEBUG_SW_OPS)
1328:../Middlewares/stedgeai-lib/Npu/ll_aton/ll_aton_lib.c ****         LL_ATON_PRINTF("%s(%d) - repeat inner loop: curr_axis=%u, index=%u\n", __func__, __LINE__, 
1329:../Middlewares/stedgeai-lib/Npu/ll_aton/ll_aton_lib.c ****                        common_params->indexes[params->g_idx]);
1330:../Middlewares/stedgeai-lib/Npu/ll_aton/ll_aton_lib.c **** #endif
1331:../Middlewares/stedgeai-lib/Npu/ll_aton/ll_aton_lib.c ****         goto inner_loop;
1332:../Middlewares/stedgeai-lib/Npu/ll_aton/ll_aton_lib.c ****       }
1333:../Middlewares/stedgeai-lib/Npu/ll_aton/ll_aton_lib.c ****     }
1334:../Middlewares/stedgeai-lib/Npu/ll_aton/ll_aton_lib.c ****     else
1335:../Middlewares/stedgeai-lib/Npu/ll_aton/ll_aton_lib.c ****     {
1336:../Middlewares/stedgeai-lib/Npu/ll_aton/ll_aton_lib.c ****       common_params->indexes[params->g_idx] = 0;
1337:../Middlewares/stedgeai-lib/Npu/ll_aton/ll_aton_lib.c **** #if defined(DUMP_DEBUG_SW_OPS)
1338:../Middlewares/stedgeai-lib/Npu/ll_aton/ll_aton_lib.c ****       LL_ATON_PRINTF("%s(%d) - axis overflow -> end loop & return to prev axis: curr_axis=%u, index
1339:../Middlewares/stedgeai-lib/Npu/ll_aton/ll_aton_lib.c ****                      __LINE__, params->g_idx, common_params->indexes[params->g_idx]);
1340:../Middlewares/stedgeai-lib/Npu/ll_aton/ll_aton_lib.c **** #endif
1341:../Middlewares/stedgeai-lib/Npu/ll_aton/ll_aton_lib.c ****     }
1342:../Middlewares/stedgeai-lib/Npu/ll_aton/ll_aton_lib.c ****     return_from_memcpy = false;
1343:../Middlewares/stedgeai-lib/Npu/ll_aton/ll_aton_lib.c ****   } while (params->g_idx > 0);
1344:../Middlewares/stedgeai-lib/Npu/ll_aton/ll_aton_lib.c **** 
1345:../Middlewares/stedgeai-lib/Npu/ll_aton/ll_aton_lib.c ****   if (params->special.pad.callback_function != NULL)
1346:../Middlewares/stedgeai-lib/Npu/ll_aton/ll_aton_lib.c ****   {
1347:../Middlewares/stedgeai-lib/Npu/ll_aton/ll_aton_lib.c **** #ifndef NDEBUG
1348:../Middlewares/stedgeai-lib/Npu/ll_aton/ll_aton_lib.c ****     extern const NN_Instance_TypeDef *volatile __ll_current_aton_ip_owner;
1349:../Middlewares/stedgeai-lib/Npu/ll_aton/ll_aton_lib.c ****     LL_ATON_ASSERT(__ll_current_aton_ip_owner == nn_instance);
1350:../Middlewares/stedgeai-lib/Npu/ll_aton/ll_aton_lib.c **** #endif // !NDEBUG
1351:../Middlewares/stedgeai-lib/Npu/ll_aton/ll_aton_lib.c **** 
1352:../Middlewares/stedgeai-lib/Npu/ll_aton/ll_aton_lib.c ****     /* return from current epoch block */
1353:../Middlewares/stedgeai-lib/Npu/ll_aton/ll_aton_lib.c ****     __LL_ATON_RT_RetFromLibEpochBlockArray(nn_instance); // Note: we are still the ATON owner
1354:../Middlewares/stedgeai-lib/Npu/ll_aton/ll_aton_lib.c ****     /* call follow-up function */
1355:../Middlewares/stedgeai-lib/Npu/ll_aton/ll_aton_lib.c ****     (*params->special.pad.callback_function)(&params->special.pad, nn_instance);
1356:../Middlewares/stedgeai-lib/Npu/ll_aton/ll_aton_lib.c ****     return;
1357:../Middlewares/stedgeai-lib/Npu/ll_aton/ll_aton_lib.c ****   }
1358:../Middlewares/stedgeai-lib/Npu/ll_aton/ll_aton_lib.c ****   else
1359:../Middlewares/stedgeai-lib/Npu/ll_aton/ll_aton_lib.c ****   {
1360:../Middlewares/stedgeai-lib/Npu/ll_aton/ll_aton_lib.c **** #if defined(DUMP_RESULTS_PAD_OP)
1361:../Middlewares/stedgeai-lib/Npu/ll_aton/ll_aton_lib.c ****     /* debug output print */
1362:../Middlewares/stedgeai-lib/Npu/ll_aton/ll_aton_lib.c ****     switch (common_params->nbytes)
1363:../Middlewares/stedgeai-lib/Npu/ll_aton/ll_aton_lib.c ****     {
1364:../Middlewares/stedgeai-lib/Npu/ll_aton/ll_aton_lib.c ****     case 1:
1365:../Middlewares/stedgeai-lib/Npu/ll_aton/ll_aton_lib.c ****     {
1366:../Middlewares/stedgeai-lib/Npu/ll_aton/ll_aton_lib.c ****       int8_t *ptr = (int8_t *)common_params->saved_out_target;
1367:../Middlewares/stedgeai-lib/Npu/ll_aton/ll_aton_lib.c ****       for (uint32_t i = 0; i < common_params->out_size; i++)
1368:../Middlewares/stedgeai-lib/Npu/ll_aton/ll_aton_lib.c ****       {
1369:../Middlewares/stedgeai-lib/Npu/ll_aton/ll_aton_lib.c ****         LL_ATON_PRINTF("%d\n", ptr[i]);
1370:../Middlewares/stedgeai-lib/Npu/ll_aton/ll_aton_lib.c ****       }
1371:../Middlewares/stedgeai-lib/Npu/ll_aton/ll_aton_lib.c ****     }
1372:../Middlewares/stedgeai-lib/Npu/ll_aton/ll_aton_lib.c ****     break;
1373:../Middlewares/stedgeai-lib/Npu/ll_aton/ll_aton_lib.c ****     case 2:
1374:../Middlewares/stedgeai-lib/Npu/ll_aton/ll_aton_lib.c ****     {
1375:../Middlewares/stedgeai-lib/Npu/ll_aton/ll_aton_lib.c ****       int16_t *ptr = (int16_t *)(int8_t *)common_params->saved_out_target;
1376:../Middlewares/stedgeai-lib/Npu/ll_aton/ll_aton_lib.c ****       for (uint32_t i = 0; i < common_params->out_size / 2; i++)
1377:../Middlewares/stedgeai-lib/Npu/ll_aton/ll_aton_lib.c ****       {
1378:../Middlewares/stedgeai-lib/Npu/ll_aton/ll_aton_lib.c ****         LL_ATON_PRINTF("%d\n", ptr[i]);
1379:../Middlewares/stedgeai-lib/Npu/ll_aton/ll_aton_lib.c ****       }
ARM GAS  /tmp/ccTQcp07.s 			page 44


1380:../Middlewares/stedgeai-lib/Npu/ll_aton/ll_aton_lib.c ****     }
1381:../Middlewares/stedgeai-lib/Npu/ll_aton/ll_aton_lib.c ****     break;
1382:../Middlewares/stedgeai-lib/Npu/ll_aton/ll_aton_lib.c ****     case 3: // NOTE: assuming no alignment
1383:../Middlewares/stedgeai-lib/Npu/ll_aton/ll_aton_lib.c ****     {
1384:../Middlewares/stedgeai-lib/Npu/ll_aton/ll_aton_lib.c ****       /* check endianness */
1385:../Middlewares/stedgeai-lib/Npu/ll_aton/ll_aton_lib.c ****       const int32_t _const_val = 0x01020304;
1386:../Middlewares/stedgeai-lib/Npu/ll_aton/ll_aton_lib.c ****       const int8_t *_const_val_ptr = (int8_t *)&_const_val;
1387:../Middlewares/stedgeai-lib/Npu/ll_aton/ll_aton_lib.c ****       bool is_little_endian = (_const_val_ptr[0] == 0x04);
1388:../Middlewares/stedgeai-lib/Npu/ll_aton/ll_aton_lib.c **** 
1389:../Middlewares/stedgeai-lib/Npu/ll_aton/ll_aton_lib.c ****       int8_t *ptr = (int8_t *)common_params->saved_out_target;
1390:../Middlewares/stedgeai-lib/Npu/ll_aton/ll_aton_lib.c ****       if (is_little_endian)
1391:../Middlewares/stedgeai-lib/Npu/ll_aton/ll_aton_lib.c ****       {
1392:../Middlewares/stedgeai-lib/Npu/ll_aton/ll_aton_lib.c ****         for (uint32_t i = 0; i < common_params->out_size / 3; i += 3)
1393:../Middlewares/stedgeai-lib/Npu/ll_aton/ll_aton_lib.c ****         {
1394:../Middlewares/stedgeai-lib/Npu/ll_aton/ll_aton_lib.c ****           int32_t value = 0;
1395:../Middlewares/stedgeai-lib/Npu/ll_aton/ll_aton_lib.c **** 
1396:../Middlewares/stedgeai-lib/Npu/ll_aton/ll_aton_lib.c ****           value |= ptr[i];
1397:../Middlewares/stedgeai-lib/Npu/ll_aton/ll_aton_lib.c ****           value |= ptr[i + 1] << 8;
1398:../Middlewares/stedgeai-lib/Npu/ll_aton/ll_aton_lib.c ****           value |= ptr[i + 2] << 16;
1399:../Middlewares/stedgeai-lib/Npu/ll_aton/ll_aton_lib.c **** 
1400:../Middlewares/stedgeai-lib/Npu/ll_aton/ll_aton_lib.c ****           LL_ATON_PRINTF("%d\n", value);
1401:../Middlewares/stedgeai-lib/Npu/ll_aton/ll_aton_lib.c ****         }
1402:../Middlewares/stedgeai-lib/Npu/ll_aton/ll_aton_lib.c ****       }
1403:../Middlewares/stedgeai-lib/Npu/ll_aton/ll_aton_lib.c ****       else
1404:../Middlewares/stedgeai-lib/Npu/ll_aton/ll_aton_lib.c ****       {
1405:../Middlewares/stedgeai-lib/Npu/ll_aton/ll_aton_lib.c ****         for (uint32_t i = 0; i < common_params->out_size / 3; i += 3)
1406:../Middlewares/stedgeai-lib/Npu/ll_aton/ll_aton_lib.c ****         {
1407:../Middlewares/stedgeai-lib/Npu/ll_aton/ll_aton_lib.c ****           int32_t value = 0;
1408:../Middlewares/stedgeai-lib/Npu/ll_aton/ll_aton_lib.c **** 
1409:../Middlewares/stedgeai-lib/Npu/ll_aton/ll_aton_lib.c ****           value |= ptr[i] << 16;
1410:../Middlewares/stedgeai-lib/Npu/ll_aton/ll_aton_lib.c ****           value |= ptr[i + 1] << 8;
1411:../Middlewares/stedgeai-lib/Npu/ll_aton/ll_aton_lib.c ****           value |= ptr[i + 2];
1412:../Middlewares/stedgeai-lib/Npu/ll_aton/ll_aton_lib.c **** 
1413:../Middlewares/stedgeai-lib/Npu/ll_aton/ll_aton_lib.c ****           LL_ATON_PRINTF("%d\n", value);
1414:../Middlewares/stedgeai-lib/Npu/ll_aton/ll_aton_lib.c ****         }
1415:../Middlewares/stedgeai-lib/Npu/ll_aton/ll_aton_lib.c ****       }
1416:../Middlewares/stedgeai-lib/Npu/ll_aton/ll_aton_lib.c ****     }
1417:../Middlewares/stedgeai-lib/Npu/ll_aton/ll_aton_lib.c ****     break;
1418:../Middlewares/stedgeai-lib/Npu/ll_aton/ll_aton_lib.c ****     case 4:
1419:../Middlewares/stedgeai-lib/Npu/ll_aton/ll_aton_lib.c ****     {
1420:../Middlewares/stedgeai-lib/Npu/ll_aton/ll_aton_lib.c ****       int32_t *ptr = (int32_t *)(int8_t *)common_params->saved_out_target;
1421:../Middlewares/stedgeai-lib/Npu/ll_aton/ll_aton_lib.c ****       for (uint32_t i = 0; i < common_params->out_size / 4; i++)
1422:../Middlewares/stedgeai-lib/Npu/ll_aton/ll_aton_lib.c ****       {
1423:../Middlewares/stedgeai-lib/Npu/ll_aton/ll_aton_lib.c ****         LL_ATON_PRINTF("%d\n", ptr[i]);
1424:../Middlewares/stedgeai-lib/Npu/ll_aton/ll_aton_lib.c ****       }
1425:../Middlewares/stedgeai-lib/Npu/ll_aton/ll_aton_lib.c ****     }
1426:../Middlewares/stedgeai-lib/Npu/ll_aton/ll_aton_lib.c ****     break;
1427:../Middlewares/stedgeai-lib/Npu/ll_aton/ll_aton_lib.c ****     default:
1428:../Middlewares/stedgeai-lib/Npu/ll_aton/ll_aton_lib.c ****       LL_ATON_ASSERT(false);
1429:../Middlewares/stedgeai-lib/Npu/ll_aton/ll_aton_lib.c ****       break;
1430:../Middlewares/stedgeai-lib/Npu/ll_aton/ll_aton_lib.c ****     }
1431:../Middlewares/stedgeai-lib/Npu/ll_aton/ll_aton_lib.c **** #endif // DUMP_RESULTS_PAD_OP
1432:../Middlewares/stedgeai-lib/Npu/ll_aton/ll_aton_lib.c **** 
1433:../Middlewares/stedgeai-lib/Npu/ll_aton/ll_aton_lib.c ****     /* Release ATON lock */
1434:../Middlewares/stedgeai-lib/Npu/ll_aton/ll_aton_lib.c ****     __ll_clear_aton_owner(nn_instance, false);
1435:../Middlewares/stedgeai-lib/Npu/ll_aton/ll_aton_lib.c **** 
1436:../Middlewares/stedgeai-lib/Npu/ll_aton/ll_aton_lib.c ****     /* proceed to next epoch block */
ARM GAS  /tmp/ccTQcp07.s 			page 45


1437:../Middlewares/stedgeai-lib/Npu/ll_aton/ll_aton_lib.c ****   }
1438:../Middlewares/stedgeai-lib/Npu/ll_aton/ll_aton_lib.c **** }
1439:../Middlewares/stedgeai-lib/Npu/ll_aton/ll_aton_lib.c **** 
1440:../Middlewares/stedgeai-lib/Npu/ll_aton/ll_aton_lib.c **** static void __LL_LIB_DMA_Transfer_Start_EpochBlock(const LL_ATON_RT_EpochBlockItem_t *epoch_block,
1441:../Middlewares/stedgeai-lib/Npu/ll_aton/ll_aton_lib.c ****                                                    const NN_Instance_TypeDef *nn_instance)
1442:../Middlewares/stedgeai-lib/Npu/ll_aton/ll_aton_lib.c **** {
1443:../Middlewares/stedgeai-lib/Npu/ll_aton/ll_aton_lib.c ****   LL_ATON_LIB_UNUSED(epoch_block);
1444:../Middlewares/stedgeai-lib/Npu/ll_aton/ll_aton_lib.c ****   LL_ATON_LIB_UNUSED(nn_instance);
1445:../Middlewares/stedgeai-lib/Npu/ll_aton/ll_aton_lib.c **** 
1446:../Middlewares/stedgeai-lib/Npu/ll_aton/ll_aton_lib.c ****   __ll_lib_params_t *params = __ll_lib_get_params();
1447:../Middlewares/stedgeai-lib/Npu/ll_aton/ll_aton_lib.c ****   __ll_lib_start_transfer(params);
1448:../Middlewares/stedgeai-lib/Npu/ll_aton/ll_aton_lib.c **** }
1449:../Middlewares/stedgeai-lib/Npu/ll_aton/ll_aton_lib.c **** 
1450:../Middlewares/stedgeai-lib/Npu/ll_aton/ll_aton_lib.c **** static void __LL_LIB_DMA_Transfer_End_EpochBlock(const LL_ATON_RT_EpochBlockItem_t *epoch_block,
1451:../Middlewares/stedgeai-lib/Npu/ll_aton/ll_aton_lib.c ****                                                  const NN_Instance_TypeDef *nn_instance)
1452:../Middlewares/stedgeai-lib/Npu/ll_aton/ll_aton_lib.c **** {
1453:../Middlewares/stedgeai-lib/Npu/ll_aton/ll_aton_lib.c ****   LL_ATON_LIB_UNUSED(epoch_block);
1454:../Middlewares/stedgeai-lib/Npu/ll_aton/ll_aton_lib.c ****   LL_ATON_LIB_UNUSED(nn_instance);
1455:../Middlewares/stedgeai-lib/Npu/ll_aton/ll_aton_lib.c **** 
1456:../Middlewares/stedgeai-lib/Npu/ll_aton/ll_aton_lib.c ****   __ll_lib_stop_transfer();
1457:../Middlewares/stedgeai-lib/Npu/ll_aton/ll_aton_lib.c **** 
1458:../Middlewares/stedgeai-lib/Npu/ll_aton/ll_aton_lib.c ****   /* Release ATON lock */
1459:../Middlewares/stedgeai-lib/Npu/ll_aton/ll_aton_lib.c ****   __ll_clear_aton_owner(nn_instance, false);
1460:../Middlewares/stedgeai-lib/Npu/ll_aton/ll_aton_lib.c **** 
1461:../Middlewares/stedgeai-lib/Npu/ll_aton/ll_aton_lib.c ****   /* proceed to next epoch block */
1462:../Middlewares/stedgeai-lib/Npu/ll_aton/ll_aton_lib.c **** }
1463:../Middlewares/stedgeai-lib/Npu/ll_aton/ll_aton_lib.c **** 
1464:../Middlewares/stedgeai-lib/Npu/ll_aton/ll_aton_lib.c **** static LL_ATON_RT_EpochBlockItem_t __ll_internal_concat_case3_epoch_block_array[] = {
1465:../Middlewares/stedgeai-lib/Npu/ll_aton/ll_aton_lib.c ****     // REMEMBER: static variables are not suited for multithreaded etc. environments
1466:../Middlewares/stedgeai-lib/Npu/ll_aton/ll_aton_lib.c ****     {
1467:../Middlewares/stedgeai-lib/Npu/ll_aton/ll_aton_lib.c ****         .start_epoch_block = __LL_LIB_Concat_Case3_Start_EpochBlock,
1468:../Middlewares/stedgeai-lib/Npu/ll_aton/ll_aton_lib.c ****         .end_epoch_block = __LL_LIB_Concat_Case3_End_EpochBlock,
1469:../Middlewares/stedgeai-lib/Npu/ll_aton/ll_aton_lib.c ****         .flags = EpochBlock_Flags_internal,
1470:../Middlewares/stedgeai-lib/Npu/ll_aton/ll_aton_lib.c **** #ifdef LL_ATON_EB_DBG_INFO
1471:../Middlewares/stedgeai-lib/Npu/ll_aton/ll_aton_lib.c ****         .epoch_num = -1,
1472:../Middlewares/stedgeai-lib/Npu/ll_aton/ll_aton_lib.c ****         .last_epoch_num = -1,
1473:../Middlewares/stedgeai-lib/Npu/ll_aton/ll_aton_lib.c **** #endif
1474:../Middlewares/stedgeai-lib/Npu/ll_aton/ll_aton_lib.c ****     },
1475:../Middlewares/stedgeai-lib/Npu/ll_aton/ll_aton_lib.c ****     {.flags = EpochBlock_Flags_last_eb | EpochBlock_Flags_internal},
1476:../Middlewares/stedgeai-lib/Npu/ll_aton/ll_aton_lib.c **** };
1477:../Middlewares/stedgeai-lib/Npu/ll_aton/ll_aton_lib.c **** 
1478:../Middlewares/stedgeai-lib/Npu/ll_aton/ll_aton_lib.c **** static LL_ATON_RT_EpochBlockItem_t __ll_internal_inputs_memcpy_epoch_block_array[] = {
1479:../Middlewares/stedgeai-lib/Npu/ll_aton/ll_aton_lib.c ****     // REMEMBER: static variables are not suited for multithreaded etc. environments
1480:../Middlewares/stedgeai-lib/Npu/ll_aton/ll_aton_lib.c ****     {
1481:../Middlewares/stedgeai-lib/Npu/ll_aton/ll_aton_lib.c ****         .start_epoch_block = __LL_LIB_Inputs_Memcpy_Start_EpochBlock,
1482:../Middlewares/stedgeai-lib/Npu/ll_aton/ll_aton_lib.c ****         .end_epoch_block = __LL_LIB_Inputs_Memcpy_End_EpochBlock,
1483:../Middlewares/stedgeai-lib/Npu/ll_aton/ll_aton_lib.c ****         .flags = EpochBlock_Flags_internal,
1484:../Middlewares/stedgeai-lib/Npu/ll_aton/ll_aton_lib.c **** #ifdef LL_ATON_EB_DBG_INFO
1485:../Middlewares/stedgeai-lib/Npu/ll_aton/ll_aton_lib.c ****         .epoch_num = -2,
1486:../Middlewares/stedgeai-lib/Npu/ll_aton/ll_aton_lib.c ****         .last_epoch_num = -2,
1487:../Middlewares/stedgeai-lib/Npu/ll_aton/ll_aton_lib.c **** #endif
1488:../Middlewares/stedgeai-lib/Npu/ll_aton/ll_aton_lib.c ****     },
1489:../Middlewares/stedgeai-lib/Npu/ll_aton/ll_aton_lib.c ****     {.flags = EpochBlock_Flags_last_eb | EpochBlock_Flags_internal},
1490:../Middlewares/stedgeai-lib/Npu/ll_aton/ll_aton_lib.c **** };
1491:../Middlewares/stedgeai-lib/Npu/ll_aton/ll_aton_lib.c **** 
1492:../Middlewares/stedgeai-lib/Npu/ll_aton/ll_aton_lib.c **** static LL_ATON_RT_EpochBlockItem_t __ll_internal_inputs_batched_memcpy_epoch_block_array[] = {
1493:../Middlewares/stedgeai-lib/Npu/ll_aton/ll_aton_lib.c ****     // REMEMBER: static variables are not suited for multithreaded etc. environments
ARM GAS  /tmp/ccTQcp07.s 			page 46


1494:../Middlewares/stedgeai-lib/Npu/ll_aton/ll_aton_lib.c ****     {
1495:../Middlewares/stedgeai-lib/Npu/ll_aton/ll_aton_lib.c ****         .start_epoch_block = __LL_LIB_Inputs_Batched_Memcpy_Start_EpochBlock,
1496:../Middlewares/stedgeai-lib/Npu/ll_aton/ll_aton_lib.c ****         .end_epoch_block = __LL_LIB_Inputs_Batched_Memcpy_End_EpochBlock,
1497:../Middlewares/stedgeai-lib/Npu/ll_aton/ll_aton_lib.c ****         .flags = EpochBlock_Flags_internal,
1498:../Middlewares/stedgeai-lib/Npu/ll_aton/ll_aton_lib.c **** #ifdef LL_ATON_EB_DBG_INFO
1499:../Middlewares/stedgeai-lib/Npu/ll_aton/ll_aton_lib.c ****         .epoch_num = -3,
1500:../Middlewares/stedgeai-lib/Npu/ll_aton/ll_aton_lib.c ****         .last_epoch_num = -3,
1501:../Middlewares/stedgeai-lib/Npu/ll_aton/ll_aton_lib.c **** #endif
1502:../Middlewares/stedgeai-lib/Npu/ll_aton/ll_aton_lib.c ****     },
1503:../Middlewares/stedgeai-lib/Npu/ll_aton/ll_aton_lib.c ****     {.flags = EpochBlock_Flags_last_eb | EpochBlock_Flags_internal},
1504:../Middlewares/stedgeai-lib/Npu/ll_aton/ll_aton_lib.c **** };
1505:../Middlewares/stedgeai-lib/Npu/ll_aton/ll_aton_lib.c **** 
1506:../Middlewares/stedgeai-lib/Npu/ll_aton/ll_aton_lib.c **** static LL_ATON_RT_EpochBlockItem_t __ll_internal_outputs_memcpy_epoch_block_array[] = {
1507:../Middlewares/stedgeai-lib/Npu/ll_aton/ll_aton_lib.c ****     // REMEMBER: static variables are not suited for multithreaded etc. environments
1508:../Middlewares/stedgeai-lib/Npu/ll_aton/ll_aton_lib.c ****     {
1509:../Middlewares/stedgeai-lib/Npu/ll_aton/ll_aton_lib.c ****         .start_epoch_block = __LL_LIB_Outputs_Memcpy_Start_EpochBlock,
1510:../Middlewares/stedgeai-lib/Npu/ll_aton/ll_aton_lib.c ****         .end_epoch_block = __LL_LIB_Outputs_Memcpy_End_EpochBlock,
1511:../Middlewares/stedgeai-lib/Npu/ll_aton/ll_aton_lib.c ****         .flags = EpochBlock_Flags_internal,
1512:../Middlewares/stedgeai-lib/Npu/ll_aton/ll_aton_lib.c **** #ifdef LL_ATON_EB_DBG_INFO
1513:../Middlewares/stedgeai-lib/Npu/ll_aton/ll_aton_lib.c ****         .epoch_num = -4,
1514:../Middlewares/stedgeai-lib/Npu/ll_aton/ll_aton_lib.c ****         .last_epoch_num = -4,
1515:../Middlewares/stedgeai-lib/Npu/ll_aton/ll_aton_lib.c **** #endif
1516:../Middlewares/stedgeai-lib/Npu/ll_aton/ll_aton_lib.c ****     },
1517:../Middlewares/stedgeai-lib/Npu/ll_aton/ll_aton_lib.c ****     {.flags = EpochBlock_Flags_last_eb | EpochBlock_Flags_internal},
1518:../Middlewares/stedgeai-lib/Npu/ll_aton/ll_aton_lib.c **** };
1519:../Middlewares/stedgeai-lib/Npu/ll_aton/ll_aton_lib.c **** 
1520:../Middlewares/stedgeai-lib/Npu/ll_aton/ll_aton_lib.c **** static LL_ATON_RT_EpochBlockItem_t __ll_internal_outputs_channel_split_aton_epoch_block_array[] = {
1521:../Middlewares/stedgeai-lib/Npu/ll_aton/ll_aton_lib.c ****     // REMEMBER: static variables are not suited for multithreaded etc. environments
1522:../Middlewares/stedgeai-lib/Npu/ll_aton/ll_aton_lib.c ****     {
1523:../Middlewares/stedgeai-lib/Npu/ll_aton/ll_aton_lib.c ****         .start_epoch_block = __LL_LIB_Outputs_Channel_Split_Aton_Start_EpochBlock,
1524:../Middlewares/stedgeai-lib/Npu/ll_aton/ll_aton_lib.c ****         .end_epoch_block = __LL_LIB_Outputs_Channel_Split_Aton_End_EpochBlock,
1525:../Middlewares/stedgeai-lib/Npu/ll_aton/ll_aton_lib.c ****         .flags = EpochBlock_Flags_internal,
1526:../Middlewares/stedgeai-lib/Npu/ll_aton/ll_aton_lib.c **** #ifdef LL_ATON_EB_DBG_INFO
1527:../Middlewares/stedgeai-lib/Npu/ll_aton/ll_aton_lib.c ****         .epoch_num = -5,
1528:../Middlewares/stedgeai-lib/Npu/ll_aton/ll_aton_lib.c ****         .last_epoch_num = -5,
1529:../Middlewares/stedgeai-lib/Npu/ll_aton/ll_aton_lib.c **** #endif
1530:../Middlewares/stedgeai-lib/Npu/ll_aton/ll_aton_lib.c ****     },
1531:../Middlewares/stedgeai-lib/Npu/ll_aton/ll_aton_lib.c ****     {.flags = EpochBlock_Flags_last_eb | EpochBlock_Flags_internal},
1532:../Middlewares/stedgeai-lib/Npu/ll_aton/ll_aton_lib.c **** };
1533:../Middlewares/stedgeai-lib/Npu/ll_aton/ll_aton_lib.c **** 
1534:../Middlewares/stedgeai-lib/Npu/ll_aton/ll_aton_lib.c **** static LL_ATON_RT_EpochBlockItem_t __ll_internal_outputs_channel_split_batched_epoch_block_array[] 
1535:../Middlewares/stedgeai-lib/Npu/ll_aton/ll_aton_lib.c ****     // REMEMBER: static variables are not suited for multithreaded etc. environments
1536:../Middlewares/stedgeai-lib/Npu/ll_aton/ll_aton_lib.c ****     {
1537:../Middlewares/stedgeai-lib/Npu/ll_aton/ll_aton_lib.c ****         .start_epoch_block = __LL_LIB_Outputs_Channel_Split_Batched_Start_EpochBlock,
1538:../Middlewares/stedgeai-lib/Npu/ll_aton/ll_aton_lib.c ****         .end_epoch_block = __LL_LIB_Outputs_Channel_Split_Batched_End_EpochBlock,
1539:../Middlewares/stedgeai-lib/Npu/ll_aton/ll_aton_lib.c ****         .flags = EpochBlock_Flags_internal,
1540:../Middlewares/stedgeai-lib/Npu/ll_aton/ll_aton_lib.c **** #ifdef LL_ATON_EB_DBG_INFO
1541:../Middlewares/stedgeai-lib/Npu/ll_aton/ll_aton_lib.c ****         .epoch_num = -6,
1542:../Middlewares/stedgeai-lib/Npu/ll_aton/ll_aton_lib.c ****         .last_epoch_num = -6,
1543:../Middlewares/stedgeai-lib/Npu/ll_aton/ll_aton_lib.c **** #endif
1544:../Middlewares/stedgeai-lib/Npu/ll_aton/ll_aton_lib.c ****     },
1545:../Middlewares/stedgeai-lib/Npu/ll_aton/ll_aton_lib.c ****     {.flags = EpochBlock_Flags_last_eb | EpochBlock_Flags_internal},
1546:../Middlewares/stedgeai-lib/Npu/ll_aton/ll_aton_lib.c **** };
1547:../Middlewares/stedgeai-lib/Npu/ll_aton/ll_aton_lib.c **** 
1548:../Middlewares/stedgeai-lib/Npu/ll_aton/ll_aton_lib.c **** static LL_ATON_RT_EpochBlockItem_t __ll_internal_simple_oneshot_transfer[] = {
1549:../Middlewares/stedgeai-lib/Npu/ll_aton/ll_aton_lib.c ****     // REMEMBER: static variables are not suited for multithreaded etc. environments
1550:../Middlewares/stedgeai-lib/Npu/ll_aton/ll_aton_lib.c ****     {
ARM GAS  /tmp/ccTQcp07.s 			page 47


1551:../Middlewares/stedgeai-lib/Npu/ll_aton/ll_aton_lib.c ****         .start_epoch_block = __LL_LIB_DMA_Transfer_Start_EpochBlock,
1552:../Middlewares/stedgeai-lib/Npu/ll_aton/ll_aton_lib.c ****         .end_epoch_block = __LL_LIB_DMA_Transfer_End_EpochBlock,
1553:../Middlewares/stedgeai-lib/Npu/ll_aton/ll_aton_lib.c ****         .flags = EpochBlock_Flags_internal,
1554:../Middlewares/stedgeai-lib/Npu/ll_aton/ll_aton_lib.c **** #ifdef LL_ATON_EB_DBG_INFO
1555:../Middlewares/stedgeai-lib/Npu/ll_aton/ll_aton_lib.c ****         .epoch_num = -7,
1556:../Middlewares/stedgeai-lib/Npu/ll_aton/ll_aton_lib.c ****         .last_epoch_num = -7,
1557:../Middlewares/stedgeai-lib/Npu/ll_aton/ll_aton_lib.c **** #endif
1558:../Middlewares/stedgeai-lib/Npu/ll_aton/ll_aton_lib.c ****     },
1559:../Middlewares/stedgeai-lib/Npu/ll_aton/ll_aton_lib.c ****     {.flags = EpochBlock_Flags_last_eb | EpochBlock_Flags_internal},
1560:../Middlewares/stedgeai-lib/Npu/ll_aton/ll_aton_lib.c **** };
1561:../Middlewares/stedgeai-lib/Npu/ll_aton/ll_aton_lib.c **** 
1562:../Middlewares/stedgeai-lib/Npu/ll_aton/ll_aton_lib.c **** static LL_ATON_RT_EpochBlockItem_t __ll_internal_dma_Pad_memset_epoch_block_array[] = {
1563:../Middlewares/stedgeai-lib/Npu/ll_aton/ll_aton_lib.c ****     // REMEMBER: static variables are not suited for multithreaded etc. environments
1564:../Middlewares/stedgeai-lib/Npu/ll_aton/ll_aton_lib.c ****     {
1565:../Middlewares/stedgeai-lib/Npu/ll_aton/ll_aton_lib.c ****         .start_epoch_block = __LL_LIB_DMA_Transfer_Start_EpochBlock,
1566:../Middlewares/stedgeai-lib/Npu/ll_aton/ll_aton_lib.c ****         .end_epoch_block = __LL_LIB_DMA_Pad_Memset_End_EpochBlock,
1567:../Middlewares/stedgeai-lib/Npu/ll_aton/ll_aton_lib.c ****         .flags = EpochBlock_Flags_internal,
1568:../Middlewares/stedgeai-lib/Npu/ll_aton/ll_aton_lib.c **** #ifdef LL_ATON_EB_DBG_INFO
1569:../Middlewares/stedgeai-lib/Npu/ll_aton/ll_aton_lib.c ****         .epoch_num = -8,
1570:../Middlewares/stedgeai-lib/Npu/ll_aton/ll_aton_lib.c ****         .last_epoch_num = -8,
1571:../Middlewares/stedgeai-lib/Npu/ll_aton/ll_aton_lib.c **** #endif
1572:../Middlewares/stedgeai-lib/Npu/ll_aton/ll_aton_lib.c ****     },
1573:../Middlewares/stedgeai-lib/Npu/ll_aton/ll_aton_lib.c ****     {.flags = EpochBlock_Flags_last_eb | EpochBlock_Flags_internal},
1574:../Middlewares/stedgeai-lib/Npu/ll_aton/ll_aton_lib.c **** };
1575:../Middlewares/stedgeai-lib/Npu/ll_aton/ll_aton_lib.c **** 
1576:../Middlewares/stedgeai-lib/Npu/ll_aton/ll_aton_lib.c **** static LL_ATON_RT_EpochBlockItem_t __ll_internal_dma_Pad_filling_epoch_block_array[] = {
1577:../Middlewares/stedgeai-lib/Npu/ll_aton/ll_aton_lib.c ****     // REMEMBER: static variables are not suited for multithreaded etc. environments
1578:../Middlewares/stedgeai-lib/Npu/ll_aton/ll_aton_lib.c ****     {
1579:../Middlewares/stedgeai-lib/Npu/ll_aton/ll_aton_lib.c ****         .start_epoch_block = __LL_LIB_DMA_Pad_Filling_Start_EpochBlock,
1580:../Middlewares/stedgeai-lib/Npu/ll_aton/ll_aton_lib.c ****         .end_epoch_block = __LL_LIB_DMA_Pad_Filling_End_EpochBlock,
1581:../Middlewares/stedgeai-lib/Npu/ll_aton/ll_aton_lib.c ****         .flags = EpochBlock_Flags_internal,
1582:../Middlewares/stedgeai-lib/Npu/ll_aton/ll_aton_lib.c **** #ifdef LL_ATON_EB_DBG_INFO
1583:../Middlewares/stedgeai-lib/Npu/ll_aton/ll_aton_lib.c ****         .epoch_num = -9,
1584:../Middlewares/stedgeai-lib/Npu/ll_aton/ll_aton_lib.c ****         .last_epoch_num = -9,
1585:../Middlewares/stedgeai-lib/Npu/ll_aton/ll_aton_lib.c **** #endif
1586:../Middlewares/stedgeai-lib/Npu/ll_aton/ll_aton_lib.c ****     },
1587:../Middlewares/stedgeai-lib/Npu/ll_aton/ll_aton_lib.c ****     {.flags = EpochBlock_Flags_last_eb | EpochBlock_Flags_internal},
1588:../Middlewares/stedgeai-lib/Npu/ll_aton/ll_aton_lib.c **** };
1589:../Middlewares/stedgeai-lib/Npu/ll_aton/ll_aton_lib.c **** 
1590:../Middlewares/stedgeai-lib/Npu/ll_aton/ll_aton_lib.c **** /**
1591:../Middlewares/stedgeai-lib/Npu/ll_aton/ll_aton_lib.c ****  * @brief Performs an asynchronous memory copy operation using DMAs
1592:../Middlewares/stedgeai-lib/Npu/ll_aton/ll_aton_lib.c ****  * @param  input_start Start address of input tensor
1593:../Middlewares/stedgeai-lib/Npu/ll_aton/ll_aton_lib.c ****  * @param  input_end End address of input tensor
1594:../Middlewares/stedgeai-lib/Npu/ll_aton/ll_aton_lib.c ****  * @param  input_limit Input tensor limit address
1595:../Middlewares/stedgeai-lib/Npu/ll_aton/ll_aton_lib.c ****  * @param  output_start Start address of output tensor
1596:../Middlewares/stedgeai-lib/Npu/ll_aton/ll_aton_lib.c ****  * @param  dma_in Input DMA / Streaming Engine to be used
1597:../Middlewares/stedgeai-lib/Npu/ll_aton/ll_aton_lib.c ****  * @param  dma_out Output DMA / Streaming Engine to be used
1598:../Middlewares/stedgeai-lib/Npu/ll_aton/ll_aton_lib.c ****  * @param  nn_instance pointer to network instance (may not be `NULL`)
1599:../Middlewares/stedgeai-lib/Npu/ll_aton/ll_aton_lib.c ****  * @return Error code
1600:../Middlewares/stedgeai-lib/Npu/ll_aton/ll_aton_lib.c ****  *
1601:../Middlewares/stedgeai-lib/Npu/ll_aton/ll_aton_lib.c ****  * @note   Must only be called by ATON owner
1602:../Middlewares/stedgeai-lib/Npu/ll_aton/ll_aton_lib.c ****  */
1603:../Middlewares/stedgeai-lib/Npu/ll_aton/ll_aton_lib.c **** static int __LL_ATON_LIB_Async_Memcpy(unsigned char *input_start, unsigned char *input_end, unsigne
