ARM GAS  /tmp/ccjN1hY0.s 			page 1


   1              		.arch armv8.1-m.main
   2              		.fpu fpv5-d16
   3              		.arch_extension dsp
   4              		.arch_extension fp
   5              		.arch_extension fp.dp
   6              		.arch_extension mve
   7              		.arch_extension mve.fp
   8              		.eabi_attribute 5, "cortex-m55"
   9              		.eabi_attribute 28, 1
  10              		.eabi_attribute 20, 1
  11              		.eabi_attribute 21, 1
  12              		.eabi_attribute 23, 3
  13              		.eabi_attribute 24, 1
  14              		.eabi_attribute 25, 1
  15              		.eabi_attribute 26, 1
  16              		.eabi_attribute 30, 4
  17              		.eabi_attribute 34, 1
  18              		.eabi_attribute 38, 1
  19              		.eabi_attribute 18, 4
  20              		.file	"ll_aton_rt_main.c"
  21              		.text
  22              	.Ltext0:
  23              		.cfi_sections	.debug_frame
  24              		.file 1 "../Middlewares/stedgeai-lib/Npu/ll_aton/ll_aton_rt_main.c"
  25              		.section	.rodata.LL_ATON_RT_Main.str1.1,"aMS",%progbits,1
  26              	.LC0:
  27 0000 6E657477 		.ascii	"network_instance != ((void *)0)\000"
  27      6F726B5F 
  27      696E7374 
  27      616E6365 
  27      20213D20 
  28              	.LC1:
  29 0020 2E2E2F4D 		.ascii	"../Middlewares/stedgeai-lib/Npu/ll_aton/ll_aton_rt_"
  29      6964646C 
  29      65776172 
  29      65732F73 
  29      74656467 
  30 0053 6D61696E 		.ascii	"main.c\000"
  30      2E6300
  31              	.LC2:
  32 005a 6E657477 		.ascii	"network_instance->network != ((void *)0)\000"
  32      6F726B5F 
  32      696E7374 
  32      616E6365 
  32      2D3E6E65 
  33              		.section	.text.LL_ATON_RT_Main,"ax",%progbits
  34              		.align	1
  35              		.global	LL_ATON_RT_Main
  36              		.syntax unified
  37              		.thumb
  38              		.thumb_func
  40              	LL_ATON_RT_Main:
  41              	.LVL0:
  42              	.LFB334:
   1:../Middlewares/stedgeai-lib/Npu/ll_aton/ll_aton_rt_main.c **** /**
   2:../Middlewares/stedgeai-lib/Npu/ll_aton/ll_aton_rt_main.c ****  ******************************************************************************
   3:../Middlewares/stedgeai-lib/Npu/ll_aton/ll_aton_rt_main.c ****  * @file    ll_aton_rt_main.c
ARM GAS  /tmp/ccjN1hY0.s 			page 2


   4:../Middlewares/stedgeai-lib/Npu/ll_aton/ll_aton_rt_main.c ****  * @author  SRA Artificial Intelligence & Embedded Architectures
   5:../Middlewares/stedgeai-lib/Npu/ll_aton/ll_aton_rt_main.c ****  * @brief   Template `main()` function (named `LL_ATON_RT_Main()`) for
   6:../Middlewares/stedgeai-lib/Npu/ll_aton/ll_aton_rt_main.c ****  *          Cube.AI/ATON integration in a RTOS-less application.
   7:../Middlewares/stedgeai-lib/Npu/ll_aton/ll_aton_rt_main.c ****  * @note    This file is intended to be just a template and is limited to run the
   8:../Middlewares/stedgeai-lib/Npu/ll_aton/ll_aton_rt_main.c ****  *          ATON LL runtime with a single network instance for a single inference!
   9:../Middlewares/stedgeai-lib/Npu/ll_aton/ll_aton_rt_main.c ****  *          Please, generate your own embodiment of this file and customize it
  10:../Middlewares/stedgeai-lib/Npu/ll_aton/ll_aton_rt_main.c ****  *          so to fit the needs of your application.
  11:../Middlewares/stedgeai-lib/Npu/ll_aton/ll_aton_rt_main.c ****  ******************************************************************************
  12:../Middlewares/stedgeai-lib/Npu/ll_aton/ll_aton_rt_main.c ****  * @attention
  13:../Middlewares/stedgeai-lib/Npu/ll_aton/ll_aton_rt_main.c ****  *
  14:../Middlewares/stedgeai-lib/Npu/ll_aton/ll_aton_rt_main.c ****  * Copyright (c) 2024 STMicroelectronics.
  15:../Middlewares/stedgeai-lib/Npu/ll_aton/ll_aton_rt_main.c ****  * All rights reserved.
  16:../Middlewares/stedgeai-lib/Npu/ll_aton/ll_aton_rt_main.c ****  *
  17:../Middlewares/stedgeai-lib/Npu/ll_aton/ll_aton_rt_main.c ****  * This software is licensed under terms that can be found in the LICENSE file
  18:../Middlewares/stedgeai-lib/Npu/ll_aton/ll_aton_rt_main.c ****  * in the root directory of this software component.
  19:../Middlewares/stedgeai-lib/Npu/ll_aton/ll_aton_rt_main.c ****  * If no LICENSE file comes with this software, it is provided AS-IS.
  20:../Middlewares/stedgeai-lib/Npu/ll_aton/ll_aton_rt_main.c ****  *
  21:../Middlewares/stedgeai-lib/Npu/ll_aton/ll_aton_rt_main.c ****  ******************************************************************************
  22:../Middlewares/stedgeai-lib/Npu/ll_aton/ll_aton_rt_main.c ****  */
  23:../Middlewares/stedgeai-lib/Npu/ll_aton/ll_aton_rt_main.c **** 
  24:../Middlewares/stedgeai-lib/Npu/ll_aton/ll_aton_rt_main.c **** #include "ll_aton_rt_user_api.h"
  25:../Middlewares/stedgeai-lib/Npu/ll_aton/ll_aton_rt_main.c **** 
  26:../Middlewares/stedgeai-lib/Npu/ll_aton/ll_aton_rt_main.c **** /*** Main Template ***/
  27:../Middlewares/stedgeai-lib/Npu/ll_aton/ll_aton_rt_main.c **** 
  28:../Middlewares/stedgeai-lib/Npu/ll_aton/ll_aton_rt_main.c **** /**
  29:../Middlewares/stedgeai-lib/Npu/ll_aton/ll_aton_rt_main.c ****  * @brief Template for synchronously executing a single inference of a single network instance one 
  30:../Middlewares/stedgeai-lib/Npu/ll_aton/ll_aton_rt_main.c ****  *        (e.g. regression tests)
  31:../Middlewares/stedgeai-lib/Npu/ll_aton/ll_aton_rt_main.c ****  * @param network_instance pointer to the network instance representing the network and execution i
  32:../Middlewares/stedgeai-lib/Npu/ll_aton/ll_aton_rt_main.c ****  *                         The instance object MUST have already set a valid link to a network inte
  33:../Middlewares/stedgeai-lib/Npu/ll_aton/ll_aton_rt_main.c ****  *                         The user may declare/instantiate such an object by using either macro
  34:../Middlewares/stedgeai-lib/Npu/ll_aton/ll_aton_rt_main.c ****  *                          `LL_ATON_DECLARE_NAMED_NN_INSTANCE_AND_INTERFACE()` to create both the 
  35:../Middlewares/stedgeai-lib/Npu/ll_aton/ll_aton_rt_main.c ****  *                         and the network interface, or macros
  36:../Middlewares/stedgeai-lib/Npu/ll_aton/ll_aton_rt_main.c ****  *                         `LL_ATON_DECLARE_NAMED_NN_INTERFACE()` & `LL_ATON_DECLARE_NAMED_NN_INSTA
  37:../Middlewares/stedgeai-lib/Npu/ll_aton/ll_aton_rt_main.c ****  *                         create/instantiate the objects separately.
  38:../Middlewares/stedgeai-lib/Npu/ll_aton/ll_aton_rt_main.c ****  * @note this function does NOT make part of the ATON Runtime User API
  39:../Middlewares/stedgeai-lib/Npu/ll_aton/ll_aton_rt_main.c ****  */
  40:../Middlewares/stedgeai-lib/Npu/ll_aton/ll_aton_rt_main.c **** void LL_ATON_RT_Main(NN_Instance_TypeDef *network_instance)
  41:../Middlewares/stedgeai-lib/Npu/ll_aton/ll_aton_rt_main.c **** {
  43              		.loc 1 41 1 view -0
  44              		.cfi_startproc
  45              		@ args = 0, pretend = 0, frame = 0
  46              		@ frame_needed = 0, uses_anonymous_args = 0
  42:../Middlewares/stedgeai-lib/Npu/ll_aton/ll_aton_rt_main.c ****   LL_ATON_RT_RetValues_t ll_aton_rt_ret;
  47              		.loc 1 42 3 view .LVU1
  43:../Middlewares/stedgeai-lib/Npu/ll_aton/ll_aton_rt_main.c **** 
  44:../Middlewares/stedgeai-lib/Npu/ll_aton/ll_aton_rt_main.c ****   /*** Start of user initialization code ***/
  45:../Middlewares/stedgeai-lib/Npu/ll_aton/ll_aton_rt_main.c **** 
  46:../Middlewares/stedgeai-lib/Npu/ll_aton/ll_aton_rt_main.c ****   /*** End of user initialization code ***/
  47:../Middlewares/stedgeai-lib/Npu/ll_aton/ll_aton_rt_main.c **** 
  48:../Middlewares/stedgeai-lib/Npu/ll_aton/ll_aton_rt_main.c ****   LL_ATON_ASSERT(network_instance != NULL);
  48              		.loc 1 48 3 view .LVU2
  41:../Middlewares/stedgeai-lib/Npu/ll_aton/ll_aton_rt_main.c ****   LL_ATON_RT_RetValues_t ll_aton_rt_ret;
  49              		.loc 1 41 1 is_stmt 0 view .LVU3
  50 0000 10B5     		push	{r4, lr}
  51              		.cfi_def_cfa_offset 8
  52              		.cfi_offset 4, -8
  53              		.cfi_offset 14, -4
ARM GAS  /tmp/ccjN1hY0.s 			page 3


  54              		.loc 1 48 3 view .LVU4
  55 0002 0446     		mov	r4, r0
  56 0004 28B9     		cbnz	r0, .L2
  57              		.loc 1 48 3 discriminator 1 view .LVU5
  58 0006 3021     		movs	r1, #48
  59 0008 104B     		ldr	r3, .L9
  60 000a 114A     		ldr	r2, .L9+4
  61              	.L8:
  49:../Middlewares/stedgeai-lib/Npu/ll_aton/ll_aton_rt_main.c ****   LL_ATON_ASSERT(network_instance->network != NULL);
  62              		.loc 1 49 3 discriminator 1 view .LVU6
  63 000c 1148     		ldr	r0, .L9+8
  64              	.LVL1:
  65              		.loc 1 49 3 discriminator 1 view .LVU7
  66 000e FFF7FEFF 		bl	__assert_func
  67              	.LVL2:
  68              	.L2:
  69              		.loc 1 49 3 is_stmt 1 view .LVU8
  70 0012 0368     		ldr	r3, [r0]
  71 0014 1BB9     		cbnz	r3, .L3
  72              		.loc 1 49 3 is_stmt 0 discriminator 1 view .LVU9
  73 0016 3121     		movs	r1, #49
  74 0018 0F4B     		ldr	r3, .L9+12
  75 001a 0D4A     		ldr	r2, .L9+4
  76 001c F6E7     		b	.L8
  77              	.L3:
  50:../Middlewares/stedgeai-lib/Npu/ll_aton/ll_aton_rt_main.c ****   LL_ATON_RT_RuntimeInit();                  // Initialize runtime
  78              		.loc 1 50 3 is_stmt 1 view .LVU10
  79 001e FFF7FEFF 		bl	LL_ATON_RT_RuntimeInit
  80              	.LVL3:
  51:../Middlewares/stedgeai-lib/Npu/ll_aton/ll_aton_rt_main.c ****   LL_ATON_RT_Init_Network(network_instance); // Initialize passed network instance object
  81              		.loc 1 51 3 view .LVU11
  82 0022 2046     		mov	r0, r4
  83 0024 FFF7FEFF 		bl	LL_ATON_RT_Init_Network
  84              	.LVL4:
  85              	.L7:
  52:../Middlewares/stedgeai-lib/Npu/ll_aton/ll_aton_rt_main.c **** 
  53:../Middlewares/stedgeai-lib/Npu/ll_aton/ll_aton_rt_main.c ****   do
  86              		.loc 1 53 3 view .LVU12
  54:../Middlewares/stedgeai-lib/Npu/ll_aton/ll_aton_rt_main.c ****   {
  55:../Middlewares/stedgeai-lib/Npu/ll_aton/ll_aton_rt_main.c ****     /* Execute first/next step of Cube.AI/ATON runtime */
  56:../Middlewares/stedgeai-lib/Npu/ll_aton/ll_aton_rt_main.c ****     ll_aton_rt_ret = LL_ATON_RT_RunEpochBlock(network_instance);
  87              		.loc 1 56 5 view .LVU13
  88              		.loc 1 56 22 is_stmt 0 view .LVU14
  89 0028 2046     		mov	r0, r4
  90 002a FFF7FEFF 		bl	LL_ATON_RT_RunEpochBlock
  91              	.LVL5:
  57:../Middlewares/stedgeai-lib/Npu/ll_aton/ll_aton_rt_main.c **** 
  58:../Middlewares/stedgeai-lib/Npu/ll_aton/ll_aton_rt_main.c ****     /*** Start of user event handling code ***/
  59:../Middlewares/stedgeai-lib/Npu/ll_aton/ll_aton_rt_main.c **** 
  60:../Middlewares/stedgeai-lib/Npu/ll_aton/ll_aton_rt_main.c ****     /*** End of user event handling code ***/
  61:../Middlewares/stedgeai-lib/Npu/ll_aton/ll_aton_rt_main.c **** 
  62:../Middlewares/stedgeai-lib/Npu/ll_aton/ll_aton_rt_main.c ****     /* Wait for next event */
  63:../Middlewares/stedgeai-lib/Npu/ll_aton/ll_aton_rt_main.c ****     if (ll_aton_rt_ret == LL_ATON_RT_WFE)
  92              		.loc 1 63 5 is_stmt 1 view .LVU15
  93              		.loc 1 63 8 is_stmt 0 view .LVU16
  94 002e 0128     		cmp	r0, #1
  95 0030 02D1     		bne	.L4
ARM GAS  /tmp/ccjN1hY0.s 			page 4


  64:../Middlewares/stedgeai-lib/Npu/ll_aton/ll_aton_rt_main.c ****     { /*** subject to change to fit also user code requirements ***/
  65:../Middlewares/stedgeai-lib/Npu/ll_aton/ll_aton_rt_main.c ****       LL_ATON_OSAL_WFE();
  96              		.loc 1 65 7 is_stmt 1 view .LVU17
  97 0032 FFF7FEFF 		bl	aton_osal_threadx_wfe
  98              	.LVL6:
  66:../Middlewares/stedgeai-lib/Npu/ll_aton/ll_aton_rt_main.c ****     }
  67:../Middlewares/stedgeai-lib/Npu/ll_aton/ll_aton_rt_main.c ****   } while (ll_aton_rt_ret != LL_ATON_RT_DONE); /*** subject to change to fit also user code require
  99              		.loc 1 67 27 view .LVU18
 100 0036 F7E7     		b	.L7
 101              	.LVL7:
 102              	.L4:
 103              		.loc 1 67 27 view .LVU19
 104 0038 0228     		cmp	r0, #2
 105 003a F5D1     		bne	.L7
  68:../Middlewares/stedgeai-lib/Npu/ll_aton/ll_aton_rt_main.c **** 
  69:../Middlewares/stedgeai-lib/Npu/ll_aton/ll_aton_rt_main.c ****   LL_ATON_RT_DeInit_Network(network_instance); // De-initialize the network instance object
 106              		.loc 1 69 3 view .LVU20
 107 003c 2046     		mov	r0, r4
 108              	.LVL8:
 109              		.loc 1 69 3 is_stmt 0 view .LVU21
 110 003e FFF7FEFF 		bl	LL_ATON_RT_DeInit_Network
 111              	.LVL9:
  70:../Middlewares/stedgeai-lib/Npu/ll_aton/ll_aton_rt_main.c ****   LL_ATON_RT_RuntimeDeInit();                  // De-initialize runtime
 112              		.loc 1 70 3 is_stmt 1 view .LVU22
  71:../Middlewares/stedgeai-lib/Npu/ll_aton/ll_aton_rt_main.c **** 
  72:../Middlewares/stedgeai-lib/Npu/ll_aton/ll_aton_rt_main.c ****   /*** Start of user de-initialization code ***/
  73:../Middlewares/stedgeai-lib/Npu/ll_aton/ll_aton_rt_main.c **** 
  74:../Middlewares/stedgeai-lib/Npu/ll_aton/ll_aton_rt_main.c ****   /*** End of user de-initialization code ***/
  75:../Middlewares/stedgeai-lib/Npu/ll_aton/ll_aton_rt_main.c **** }
 113              		.loc 1 75 1 is_stmt 0 view .LVU23
 114 0042 BDE81040 		pop	{r4, lr}
 115              		.cfi_restore 14
 116              		.cfi_restore 4
 117              		.cfi_def_cfa_offset 0
 118              	.LVL10:
  70:../Middlewares/stedgeai-lib/Npu/ll_aton/ll_aton_rt_main.c ****   LL_ATON_RT_RuntimeDeInit();                  // De-initialize runtime
 119              		.loc 1 70 3 view .LVU24
 120 0046 FFF7FEBF 		b	LL_ATON_RT_RuntimeDeInit
 121              	.LVL11:
 122              	.L10:
 123 004a 00BF     		.align	2
 124              	.L9:
 125 004c 00000000 		.word	.LC0
 126 0050 00000000 		.word	__func__.0
 127 0054 20000000 		.word	.LC1
 128 0058 5A000000 		.word	.LC2
 129              		.cfi_endproc
 130              	.LFE334:
 132              		.section	.rodata.__func__.0,"a"
 135              	__func__.0:
 136 0000 4C4C5F41 		.ascii	"LL_ATON_RT_Main\000"
 136      544F4E5F 
 136      52545F4D 
 136      61696E00 
 137              		.text
 138              	.Letext0:
 139              		.file 2 "/opt/st/stm32cubeclt_1.21.0/GNU-tools-for-STM32/arm-none-eabi/include/machine/_default_ty
ARM GAS  /tmp/ccjN1hY0.s 			page 5


 140              		.file 3 "/opt/st/stm32cubeclt_1.21.0/GNU-tools-for-STM32/arm-none-eabi/include/sys/_stdint.h"
 141              		.file 4 "../Middlewares/stedgeai-lib/Npu/ll_aton/ll_aton_cipher.h"
 142              		.file 5 "../Middlewares/stedgeai-lib/Npu/ll_aton/ll_aton_NN_interface.h"
 143              		.file 6 "../Middlewares/stedgeai-lib/Npu/ll_aton/ll_aton_rt_user_api.h"
 144              		.file 7 "../Middlewares/stedgeai-lib/Npu/ll_aton/ll_aton_osal_threadx.h"
 145              		.file 8 "/opt/st/stm32cubeclt_1.21.0/GNU-tools-for-STM32/arm-none-eabi/include/assert.h"
ARM GAS  /tmp/ccjN1hY0.s 			page 6

