ARM GAS  /tmp/ccPm72kM.s 			page 1


   1              		.arch armv8.1-m.main
   2              		.fpu fpv5-d16
   3              		.arch_extension dsp
   4              		.arch_extension fp
   5              		.arch_extension fp.dp
   6              		.arch_extension mve
   7              		.arch_extension mve.fp
   8              		.eabi_attribute 5, "cortex-m55"
   9              		.eabi_attribute 28, 1
  10              		.eabi_attribute 20, 1
  11              		.eabi_attribute 21, 1
  12              		.eabi_attribute 23, 3
  13              		.eabi_attribute 24, 1
  14              		.eabi_attribute 25, 1
  15              		.eabi_attribute 26, 1
  16              		.eabi_attribute 30, 4
  17              		.eabi_attribute 34, 1
  18              		.eabi_attribute 38, 1
  19              		.eabi_attribute 18, 4
  20              		.file	"ll_aton_stai_internal.c"
  21              		.text
  22              	.Ltext0:
  23              		.cfi_sections	.debug_frame
  24              		.file 1 "../Middlewares/stedgeai-lib/Npu/ll_aton/ll_aton_stai_internal.c"
  25              		.section	.text._stai_aton_internal_rt_callback,"ax",%progbits
  26              		.align	1
  27              		.syntax unified
  28              		.thumb
  29              		.thumb_func
  31              	_stai_aton_internal_rt_callback:
  32              	.LVL0:
  33              	.LFB347:
   1:../Middlewares/stedgeai-lib/Npu/ll_aton/ll_aton_stai_internal.c **** /**
   2:../Middlewares/stedgeai-lib/Npu/ll_aton/ll_aton_stai_internal.c ****  ******************************************************************************
   3:../Middlewares/stedgeai-lib/Npu/ll_aton/ll_aton_stai_internal.c ****  * @file    ll_aton_stai_internal.c
   4:../Middlewares/stedgeai-lib/Npu/ll_aton/ll_aton_stai_internal.c ****  * @author  SRA Artificial Intelligence & Embedded Architectures
   5:../Middlewares/stedgeai-lib/Npu/ll_aton/ll_aton_stai_internal.c ****  * @brief   Implementation of ST.AI public & internal APIs for ATON
   6:../Middlewares/stedgeai-lib/Npu/ll_aton/ll_aton_stai_internal.c ****  ******************************************************************************
   7:../Middlewares/stedgeai-lib/Npu/ll_aton/ll_aton_stai_internal.c ****  * @attention
   8:../Middlewares/stedgeai-lib/Npu/ll_aton/ll_aton_stai_internal.c ****  *
   9:../Middlewares/stedgeai-lib/Npu/ll_aton/ll_aton_stai_internal.c ****  * Copyright (c) 2024 STMicroelectronics.
  10:../Middlewares/stedgeai-lib/Npu/ll_aton/ll_aton_stai_internal.c ****  * All rights reserved.
  11:../Middlewares/stedgeai-lib/Npu/ll_aton/ll_aton_stai_internal.c ****  *
  12:../Middlewares/stedgeai-lib/Npu/ll_aton/ll_aton_stai_internal.c ****  * This software is licensed under terms that can be found in the LICENSE file
  13:../Middlewares/stedgeai-lib/Npu/ll_aton/ll_aton_stai_internal.c ****  * in the root directory of this software component.
  14:../Middlewares/stedgeai-lib/Npu/ll_aton/ll_aton_stai_internal.c ****  * If no LICENSE file comes with this software, it is provided AS-IS.
  15:../Middlewares/stedgeai-lib/Npu/ll_aton/ll_aton_stai_internal.c ****  *
  16:../Middlewares/stedgeai-lib/Npu/ll_aton/ll_aton_stai_internal.c ****  ******************************************************************************
  17:../Middlewares/stedgeai-lib/Npu/ll_aton/ll_aton_stai_internal.c ****  */
  18:../Middlewares/stedgeai-lib/Npu/ll_aton/ll_aton_stai_internal.c **** 
  19:../Middlewares/stedgeai-lib/Npu/ll_aton/ll_aton_stai_internal.c **** #include <stdint.h>
  20:../Middlewares/stedgeai-lib/Npu/ll_aton/ll_aton_stai_internal.c **** 
  21:../Middlewares/stedgeai-lib/Npu/ll_aton/ll_aton_stai_internal.c **** #include "stai_debug.h"
  22:../Middlewares/stedgeai-lib/Npu/ll_aton/ll_aton_stai_internal.c **** 
  23:../Middlewares/stedgeai-lib/Npu/ll_aton/ll_aton_stai_internal.c **** #include "ll_aton_caches_interface.h"
  24:../Middlewares/stedgeai-lib/Npu/ll_aton/ll_aton_stai_internal.c **** #include "ll_aton_rt_user_api.h"
  25:../Middlewares/stedgeai-lib/Npu/ll_aton/ll_aton_stai_internal.c **** #include "ll_aton_runtime.h"
ARM GAS  /tmp/ccPm72kM.s 			page 2


  26:../Middlewares/stedgeai-lib/Npu/ll_aton/ll_aton_stai_internal.c **** #include "ll_aton_stai_internal.h"
  27:../Middlewares/stedgeai-lib/Npu/ll_aton/ll_aton_stai_internal.c **** #include "ll_aton_version.h"
  28:../Middlewares/stedgeai-lib/Npu/ll_aton/ll_aton_stai_internal.c **** 
  29:../Middlewares/stedgeai-lib/Npu/ll_aton/ll_aton_stai_internal.c **** /* -----------------------------------------------------------------------------
  30:../Middlewares/stedgeai-lib/Npu/ll_aton/ll_aton_stai_internal.c ****  * MACRO - ARM tool chain definition
  31:../Middlewares/stedgeai-lib/Npu/ll_aton/ll_aton_stai_internal.c ****  * -----------------------------------------------------------------------------
  32:../Middlewares/stedgeai-lib/Npu/ll_aton/ll_aton_stai_internal.c ****  */
  33:../Middlewares/stedgeai-lib/Npu/ll_aton/ll_aton_stai_internal.c **** 
  34:../Middlewares/stedgeai-lib/Npu/ll_aton/ll_aton_stai_internal.c **** #undef _IS_AC5_COMPILER
  35:../Middlewares/stedgeai-lib/Npu/ll_aton/ll_aton_stai_internal.c **** #undef _IS_AC6_COMPILER
  36:../Middlewares/stedgeai-lib/Npu/ll_aton/ll_aton_stai_internal.c **** #undef _IS_GHS_COMPILER
  37:../Middlewares/stedgeai-lib/Npu/ll_aton/ll_aton_stai_internal.c **** #undef _IS_HTC_COMPILER
  38:../Middlewares/stedgeai-lib/Npu/ll_aton/ll_aton_stai_internal.c **** #undef _IS_GCC_COMPILER
  39:../Middlewares/stedgeai-lib/Npu/ll_aton/ll_aton_stai_internal.c **** #undef _IS_IAR_COMPILER
  40:../Middlewares/stedgeai-lib/Npu/ll_aton/ll_aton_stai_internal.c **** 
  41:../Middlewares/stedgeai-lib/Npu/ll_aton/ll_aton_stai_internal.c **** /* ARM Compiler 5 tool-chain */
  42:../Middlewares/stedgeai-lib/Npu/ll_aton/ll_aton_stai_internal.c **** #if defined(__CC_ARM)
  43:../Middlewares/stedgeai-lib/Npu/ll_aton/ll_aton_stai_internal.c **** // #if ((__ARMCC_VERSION >= 5000000) && (__ARMCC_VERSION < 6000000))
  44:../Middlewares/stedgeai-lib/Npu/ll_aton/ll_aton_stai_internal.c **** #define _IS_AC5_COMPILER 1
  45:../Middlewares/stedgeai-lib/Npu/ll_aton/ll_aton_stai_internal.c **** 
  46:../Middlewares/stedgeai-lib/Npu/ll_aton/ll_aton_stai_internal.c **** /* ARM Compiler 6 tool-chain */
  47:../Middlewares/stedgeai-lib/Npu/ll_aton/ll_aton_stai_internal.c **** #elif defined(__ARMCC_VERSION) && (__ARMCC_VERSION >= 6010050)
  48:../Middlewares/stedgeai-lib/Npu/ll_aton/ll_aton_stai_internal.c **** #define _IS_AC6_COMPILER 1
  49:../Middlewares/stedgeai-lib/Npu/ll_aton/ll_aton_stai_internal.c **** 
  50:../Middlewares/stedgeai-lib/Npu/ll_aton/ll_aton_stai_internal.c **** /* GHS tool-chain */
  51:../Middlewares/stedgeai-lib/Npu/ll_aton/ll_aton_stai_internal.c **** #elif defined(__ghs__)
  52:../Middlewares/stedgeai-lib/Npu/ll_aton/ll_aton_stai_internal.c **** #define _IS_GHS_COMPILER 1
  53:../Middlewares/stedgeai-lib/Npu/ll_aton/ll_aton_stai_internal.c **** 
  54:../Middlewares/stedgeai-lib/Npu/ll_aton/ll_aton_stai_internal.c **** /* HIGHTEC tool-chain */
  55:../Middlewares/stedgeai-lib/Npu/ll_aton/ll_aton_stai_internal.c **** #elif defined(__clang__)
  56:../Middlewares/stedgeai-lib/Npu/ll_aton/ll_aton_stai_internal.c **** #define _IS_HTC_COMPILER 1
  57:../Middlewares/stedgeai-lib/Npu/ll_aton/ll_aton_stai_internal.c **** 
  58:../Middlewares/stedgeai-lib/Npu/ll_aton/ll_aton_stai_internal.c **** /* GCC tool-chain */
  59:../Middlewares/stedgeai-lib/Npu/ll_aton/ll_aton_stai_internal.c **** #elif defined(__GNUC__)
  60:../Middlewares/stedgeai-lib/Npu/ll_aton/ll_aton_stai_internal.c **** #define _IS_GCC_COMPILER 1
  61:../Middlewares/stedgeai-lib/Npu/ll_aton/ll_aton_stai_internal.c **** 
  62:../Middlewares/stedgeai-lib/Npu/ll_aton/ll_aton_stai_internal.c **** /* IAR tool-chain */
  63:../Middlewares/stedgeai-lib/Npu/ll_aton/ll_aton_stai_internal.c **** #elif defined(__ICCARM__)
  64:../Middlewares/stedgeai-lib/Npu/ll_aton/ll_aton_stai_internal.c **** #define _IS_IAR_COMPILER 1
  65:../Middlewares/stedgeai-lib/Npu/ll_aton/ll_aton_stai_internal.c **** 
  66:../Middlewares/stedgeai-lib/Npu/ll_aton/ll_aton_stai_internal.c **** #else
  67:../Middlewares/stedgeai-lib/Npu/ll_aton/ll_aton_stai_internal.c **** #define _IS_UNDEFINED_COMPILER 1
  68:../Middlewares/stedgeai-lib/Npu/ll_aton/ll_aton_stai_internal.c **** #endif
  69:../Middlewares/stedgeai-lib/Npu/ll_aton/ll_aton_stai_internal.c **** 
  70:../Middlewares/stedgeai-lib/Npu/ll_aton/ll_aton_stai_internal.c **** #undef _IS_ACx_COMPILER
  71:../Middlewares/stedgeai-lib/Npu/ll_aton/ll_aton_stai_internal.c **** #if defined(_IS_AC5_COMPILER) && _IS_AC5_COMPILER || defined(_IS_AC6_COMPILER) && _IS_AC6_COMPILER
  72:../Middlewares/stedgeai-lib/Npu/ll_aton/ll_aton_stai_internal.c **** #define _IS_ACx_COMPILER 1
  73:../Middlewares/stedgeai-lib/Npu/ll_aton/ll_aton_stai_internal.c **** #endif
  74:../Middlewares/stedgeai-lib/Npu/ll_aton/ll_aton_stai_internal.c **** 
  75:../Middlewares/stedgeai-lib/Npu/ll_aton/ll_aton_stai_internal.c **** #define STRINGIFY_(x) #x
  76:../Middlewares/stedgeai-lib/Npu/ll_aton/ll_aton_stai_internal.c **** #define STRINGIFY(x)  STRINGIFY_(x)
  77:../Middlewares/stedgeai-lib/Npu/ll_aton/ll_aton_stai_internal.c **** 
  78:../Middlewares/stedgeai-lib/Npu/ll_aton/ll_aton_stai_internal.c **** #if defined(_IS_AC6_COMPILER) && _IS_AC6_COMPILER
  79:../Middlewares/stedgeai-lib/Npu/ll_aton/ll_aton_stai_internal.c **** #define _STAI_COMPILER_DESC "MDK-ARM Keil (Arm Compiler 6) " STRINGIFY(__ARMCC_VERSION)
  80:../Middlewares/stedgeai-lib/Npu/ll_aton/ll_aton_stai_internal.c **** #define _STAI_COMPILER_ID   STAI_COMPILER_ID_KEIL
  81:../Middlewares/stedgeai-lib/Npu/ll_aton/ll_aton_stai_internal.c **** #elif defined(_IS_GHS_COMPILER) && _IS_GHS_COMPILER
  82:../Middlewares/stedgeai-lib/Npu/ll_aton/ll_aton_stai_internal.c **** #define _STAI_COMPILER_DESC "GHS-ARM Compiler " STRINGIFY(__GHS_VERSION_NUMBER)
ARM GAS  /tmp/ccPm72kM.s 			page 3


  83:../Middlewares/stedgeai-lib/Npu/ll_aton/ll_aton_stai_internal.c **** #define _STAI_COMPILER_ID   STAI_COMPILER_ID_GHS
  84:../Middlewares/stedgeai-lib/Npu/ll_aton/ll_aton_stai_internal.c **** #elif defined(_IS_HTC_COMPILER) && _IS_HTC_COMPILER
  85:../Middlewares/stedgeai-lib/Npu/ll_aton/ll_aton_stai_internal.c **** #define _STAI_COMPILER_DESC                                                                        
  86:../Middlewares/stedgeai-lib/Npu/ll_aton/ll_aton_stai_internal.c ****   "HIGHTEC Clang " STRINGIFY(__clang_major__) "." STRINGIFY(__clang_minor__) "." STRINGIFY(__clang_
  87:../Middlewares/stedgeai-lib/Npu/ll_aton/ll_aton_stai_internal.c **** #define _STAI_COMPILER_ID STAI_COMPILER_ID_HIGHTECH
  88:../Middlewares/stedgeai-lib/Npu/ll_aton/ll_aton_stai_internal.c **** #elif defined(_IS_GCC_COMPILER) && _IS_GCC_COMPILER
  89:../Middlewares/stedgeai-lib/Npu/ll_aton/ll_aton_stai_internal.c **** #define _STAI_COMPILER_DESC "GCC " STRINGIFY(__GNUC__) "." STRINGIFY(__GNUC_MINOR__) "." STRINGIFY(
  90:../Middlewares/stedgeai-lib/Npu/ll_aton/ll_aton_stai_internal.c **** #define _STAI_COMPILER_ID   STAI_COMPILER_ID_GCC
  91:../Middlewares/stedgeai-lib/Npu/ll_aton/ll_aton_stai_internal.c **** #elif defined(_IS_IAR_COMPILER) && _IS_IAR_COMPILER
  92:../Middlewares/stedgeai-lib/Npu/ll_aton/ll_aton_stai_internal.c **** #define _STAI_COMPILER_DESC "IAR " STRINGIFY(__IAR_SYSTEMS_ICC__) " (build " STRINGIFY(__BUILD_NUMB
  93:../Middlewares/stedgeai-lib/Npu/ll_aton/ll_aton_stai_internal.c **** #define _STAI_COMPILER_ID   STAI_COMPILER_ID_IAR
  94:../Middlewares/stedgeai-lib/Npu/ll_aton/ll_aton_stai_internal.c **** #elif defined(_IS_AC5_COMPILER) && _IS_AC5_COMPILER
  95:../Middlewares/stedgeai-lib/Npu/ll_aton/ll_aton_stai_internal.c **** #define _STAI_COMPILER_DESC "MDK-ARM Keil " STRINGIFY(__ARMCC_VERSION)
  96:../Middlewares/stedgeai-lib/Npu/ll_aton/ll_aton_stai_internal.c **** #define _STAI_COMPILER_ID   STAI_COMPILER_ID_KEIL
  97:../Middlewares/stedgeai-lib/Npu/ll_aton/ll_aton_stai_internal.c **** #else
  98:../Middlewares/stedgeai-lib/Npu/ll_aton/ll_aton_stai_internal.c **** #define _STAI_COMPILER_DESC "Undefined"
  99:../Middlewares/stedgeai-lib/Npu/ll_aton/ll_aton_stai_internal.c **** #define _STAI_COMPILER_ID   STAI_COMPILER_ID_NONE
 100:../Middlewares/stedgeai-lib/Npu/ll_aton/ll_aton_stai_internal.c **** #endif
 101:../Middlewares/stedgeai-lib/Npu/ll_aton/ll_aton_stai_internal.c **** 
 102:../Middlewares/stedgeai-lib/Npu/ll_aton/ll_aton_stai_internal.c **** /* macro defining name of (platform specific) function called before ATON & RT initialization */
 103:../Middlewares/stedgeai-lib/Npu/ll_aton/ll_aton_stai_internal.c **** #ifndef LL_ATON_STAI_PRE_ATON_INIT_NAME
 104:../Middlewares/stedgeai-lib/Npu/ll_aton/ll_aton_stai_internal.c **** static inline int __ll_empty_stai_pre_aton_init(void)
 105:../Middlewares/stedgeai-lib/Npu/ll_aton/ll_aton_stai_internal.c **** {
 106:../Middlewares/stedgeai-lib/Npu/ll_aton/ll_aton_stai_internal.c ****   return 0;
 107:../Middlewares/stedgeai-lib/Npu/ll_aton/ll_aton_stai_internal.c **** }
 108:../Middlewares/stedgeai-lib/Npu/ll_aton/ll_aton_stai_internal.c **** #define __LL_ATON_STAI_PRE_ATON_INIT() __ll_empty_stai_pre_aton_init()
 109:../Middlewares/stedgeai-lib/Npu/ll_aton/ll_aton_stai_internal.c **** #else // LL_ATON_STAI_PRE_ATON_INIT_NAME
 110:../Middlewares/stedgeai-lib/Npu/ll_aton/ll_aton_stai_internal.c **** extern int LL_ATON_STAI_PRE_ATON_INIT_NAME(void);
 111:../Middlewares/stedgeai-lib/Npu/ll_aton/ll_aton_stai_internal.c **** #define __LL_ATON_STAI_PRE_ATON_INIT() LL_ATON_STAI_PRE_ATON_INIT_NAME()
 112:../Middlewares/stedgeai-lib/Npu/ll_aton/ll_aton_stai_internal.c **** #endif // LL_ATON_STAI_PRE_ATON_INIT_NAME
 113:../Middlewares/stedgeai-lib/Npu/ll_aton/ll_aton_stai_internal.c **** 
 114:../Middlewares/stedgeai-lib/Npu/ll_aton/ll_aton_stai_internal.c **** /* macro defining name of (platform specific) function called after ATON & RT de-initialization */
 115:../Middlewares/stedgeai-lib/Npu/ll_aton/ll_aton_stai_internal.c **** #ifndef LL_ATON_STAI_POST_ATON_DEINIT_NAME
 116:../Middlewares/stedgeai-lib/Npu/ll_aton/ll_aton_stai_internal.c **** static inline int __ll_empty_stai_post_aton_deinit(void)
 117:../Middlewares/stedgeai-lib/Npu/ll_aton/ll_aton_stai_internal.c **** {
 118:../Middlewares/stedgeai-lib/Npu/ll_aton/ll_aton_stai_internal.c ****   return 0;
 119:../Middlewares/stedgeai-lib/Npu/ll_aton/ll_aton_stai_internal.c **** }
 120:../Middlewares/stedgeai-lib/Npu/ll_aton/ll_aton_stai_internal.c **** #define __LL_ATON_STAI_POST_ATON_DEINIT() __ll_empty_stai_post_aton_deinit()
 121:../Middlewares/stedgeai-lib/Npu/ll_aton/ll_aton_stai_internal.c **** #else // LL_ATON_STAI_POST_ATON_DEINIT_NAME
 122:../Middlewares/stedgeai-lib/Npu/ll_aton/ll_aton_stai_internal.c **** extern int LL_ATON_STAI_POST_ATON_DEINIT_NAME(void);
 123:../Middlewares/stedgeai-lib/Npu/ll_aton/ll_aton_stai_internal.c **** #define __LL_ATON_STAI_POST_ATON_DEINIT() LL_ATON_STAI_POST_ATON_DEINIT_NAME()
 124:../Middlewares/stedgeai-lib/Npu/ll_aton/ll_aton_stai_internal.c **** #endif // LL_ATON_STAI_POST_ATON_DEINIT_NAME
 125:../Middlewares/stedgeai-lib/Npu/ll_aton/ll_aton_stai_internal.c **** 
 126:../Middlewares/stedgeai-lib/Npu/ll_aton/ll_aton_stai_internal.c **** /*****************************************************************************/
 127:../Middlewares/stedgeai-lib/Npu/ll_aton/ll_aton_stai_internal.c **** /** Runtime callback variables                                              **/
 128:../Middlewares/stedgeai-lib/Npu/ll_aton/ll_aton_stai_internal.c **** /*****************************************************************************/
 129:../Middlewares/stedgeai-lib/Npu/ll_aton/ll_aton_stai_internal.c **** static stai_event_cb _g_stai_aton_rt_callback = NULL;
 130:../Middlewares/stedgeai-lib/Npu/ll_aton/ll_aton_stai_internal.c **** static void *_g_stai_aton_rt_cb_cookie = NULL;
 131:../Middlewares/stedgeai-lib/Npu/ll_aton/ll_aton_stai_internal.c **** 
 132:../Middlewares/stedgeai-lib/Npu/ll_aton/ll_aton_stai_internal.c **** /*****************************************************************************/
 133:../Middlewares/stedgeai-lib/Npu/ll_aton/ll_aton_stai_internal.c **** /**  Helper function (for callbacks)                                        **/
 134:../Middlewares/stedgeai-lib/Npu/ll_aton/ll_aton_stai_internal.c **** /*****************************************************************************/
 135:../Middlewares/stedgeai-lib/Npu/ll_aton/ll_aton_stai_internal.c **** static void _stai_aton_internal_rt_callback(LL_ATON_RT_Callbacktype_t ctype)
 136:../Middlewares/stedgeai-lib/Npu/ll_aton/ll_aton_stai_internal.c **** {
  34              		.loc 1 136 1 view -0
  35              		.cfi_startproc
  36              		@ args = 0, pretend = 0, frame = 0
ARM GAS  /tmp/ccPm72kM.s 			page 4


  37              		@ frame_needed = 0, uses_anonymous_args = 0
  38              		@ link register save eliminated.
 137:../Middlewares/stedgeai-lib/Npu/ll_aton/ll_aton_stai_internal.c ****   if (_g_stai_aton_rt_callback != NULL)
  39              		.loc 1 137 3 view .LVU1
  40              		.loc 1 137 32 is_stmt 0 view .LVU2
  41 0000 044B     		ldr	r3, .L3
 136:../Middlewares/stedgeai-lib/Npu/ll_aton/ll_aton_stai_internal.c ****   if (_g_stai_aton_rt_callback != NULL)
  42              		.loc 1 136 1 view .LVU3
  43 0002 0146     		mov	r1, r0
  44              		.loc 1 137 32 view .LVU4
  45 0004 1B68     		ldr	r3, [r3]
  46              		.loc 1 137 6 view .LVU5
  47 0006 1BB1     		cbz	r3, .L1
 138:../Middlewares/stedgeai-lib/Npu/ll_aton/ll_aton_stai_internal.c ****   {
 139:../Middlewares/stedgeai-lib/Npu/ll_aton/ll_aton_stai_internal.c ****     _g_stai_aton_rt_callback(_g_stai_aton_rt_cb_cookie, ctype, NULL);
  48              		.loc 1 139 5 is_stmt 1 view .LVU6
  49 0008 0348     		ldr	r0, .L3+4
  50              	.LVL1:
  51              		.loc 1 139 5 is_stmt 0 view .LVU7
  52 000a 0022     		movs	r2, #0
  53 000c 0068     		ldr	r0, [r0]
  54 000e 1847     		bx	r3	@ indirect register sibling call
  55              	.LVL2:
  56              	.L1:
 140:../Middlewares/stedgeai-lib/Npu/ll_aton/ll_aton_stai_internal.c ****   }
 141:../Middlewares/stedgeai-lib/Npu/ll_aton/ll_aton_stai_internal.c **** }
  57              		.loc 1 141 1 view .LVU8
  58 0010 7047     		bx	lr
  59              	.L4:
  60 0012 00BF     		.align	2
  61              	.L3:
  62 0014 00000000 		.word	_g_stai_aton_rt_callback
  63 0018 00000000 		.word	_g_stai_aton_rt_cb_cookie
  64              		.cfi_endproc
  65              	.LFE347:
  67              		.section	.text._stai_aton_internal_epoch_block_callback,"ax",%progbits
  68              		.align	1
  69              		.global	_stai_aton_internal_epoch_block_callback
  70              		.syntax unified
  71              		.thumb
  72              		.thumb_func
  74              	_stai_aton_internal_epoch_block_callback:
  75              	.LVL3:
  76              	.LFB348:
 142:../Middlewares/stedgeai-lib/Npu/ll_aton/ll_aton_stai_internal.c **** 
 143:../Middlewares/stedgeai-lib/Npu/ll_aton/ll_aton_stai_internal.c **** STAI_INTERNAL_ENTRY
 144:../Middlewares/stedgeai-lib/Npu/ll_aton/ll_aton_stai_internal.c **** void _stai_aton_internal_epoch_block_callback(LL_ATON_RT_Callbacktype_t ctype, const NN_Instance_Ty
 145:../Middlewares/stedgeai-lib/Npu/ll_aton/ll_aton_stai_internal.c ****                                               const LL_ATON_RT_EpochBlockItem_t *epoch_block)
 146:../Middlewares/stedgeai-lib/Npu/ll_aton/ll_aton_stai_internal.c **** {
  77              		.loc 1 146 1 is_stmt 1 view -0
  78              		.cfi_startproc
  79              		@ args = 0, pretend = 0, frame = 0
  80              		@ frame_needed = 0, uses_anonymous_args = 0
  81              		@ link register save eliminated.
 147:../Middlewares/stedgeai-lib/Npu/ll_aton/ll_aton_stai_internal.c ****   STAI_ASSERT(nn_instance != NULL);
  82              		.loc 1 147 3 view .LVU10
  83              		.loc 1 147 3 view .LVU11
ARM GAS  /tmp/ccPm72kM.s 			page 5


  84              		.loc 1 147 3 view .LVU12
  85              		.loc 1 147 35 view .LVU13
 148:../Middlewares/stedgeai-lib/Npu/ll_aton/ll_aton_stai_internal.c ****   _stai_aton_context *stai_nn_ctx =
  86              		.loc 1 148 3 view .LVU14
 149:../Middlewares/stedgeai-lib/Npu/ll_aton/ll_aton_stai_internal.c ****       (_stai_aton_context *)((void *)nn_instance) - offsetof(_stai_aton_context, network_instance);
 150:../Middlewares/stedgeai-lib/Npu/ll_aton/ll_aton_stai_internal.c **** 
 151:../Middlewares/stedgeai-lib/Npu/ll_aton/ll_aton_stai_internal.c ****   if (stai_nn_ctx->callback != NULL)
  87              		.loc 1 151 3 view .LVU15
 146:../Middlewares/stedgeai-lib/Npu/ll_aton/ll_aton_stai_internal.c ****   STAI_ASSERT(nn_instance != NULL);
  88              		.loc 1 146 1 is_stmt 0 view .LVU16
  89 0000 10B4     		push	{r4}
  90              		.cfi_def_cfa_offset 4
  91              		.cfi_offset 4, -4
  92              		.loc 1 151 18 view .LVU17
  93 0002 8C6A     		ldr	r4, [r1, #40]
 146:../Middlewares/stedgeai-lib/Npu/ll_aton/ll_aton_stai_internal.c ****   STAI_ASSERT(nn_instance != NULL);
  94              		.loc 1 146 1 view .LVU18
  95 0004 0B46     		mov	r3, r1
  96              		.loc 1 151 6 view .LVU19
  97 0006 2CB1     		cbz	r4, .L5
 152:../Middlewares/stedgeai-lib/Npu/ll_aton/ll_aton_stai_internal.c ****   {
 153:../Middlewares/stedgeai-lib/Npu/ll_aton/ll_aton_stai_internal.c ****     stai_nn_ctx->callback(stai_nn_ctx->callback_cookie, ctype, (const void *)epoch_block);
  98              		.loc 1 153 5 is_stmt 1 view .LVU20
  99 0008 0146     		mov	r1, r0
 100              	.LVL4:
 101              		.loc 1 153 5 is_stmt 0 view .LVU21
 102 000a D86A     		ldr	r0, [r3, #44]
 103              	.LVL5:
 104              		.loc 1 153 5 view .LVU22
 105 000c 2346     		mov	r3, r4
 106              	.LVL6:
 154:../Middlewares/stedgeai-lib/Npu/ll_aton/ll_aton_stai_internal.c ****   }
 155:../Middlewares/stedgeai-lib/Npu/ll_aton/ll_aton_stai_internal.c **** }
 107              		.loc 1 155 1 view .LVU23
 108 000e 5DF8044B 		ldr	r4, [sp], #4
 153:../Middlewares/stedgeai-lib/Npu/ll_aton/ll_aton_stai_internal.c ****   }
 109              		.loc 1 153 5 view .LVU24
 110 0012 1847     		bx	r3	@ indirect register sibling call
 111              	.LVL7:
 112              	.L5:
 113              		.loc 1 155 1 view .LVU25
 114 0014 5DF8044B 		ldr	r4, [sp], #4
 115 0018 7047     		bx	lr
 116              		.cfi_endproc
 117              	.LFE348:
 119              		.section	.text.stai_runtime_set_callback,"ax",%progbits
 120              		.align	1
 121              		.global	stai_runtime_set_callback
 122              		.syntax unified
 123              		.thumb
 124              		.thumb_func
 126              	stai_runtime_set_callback:
 127              	.LVL8:
 128              	.LFB349:
 156:../Middlewares/stedgeai-lib/Npu/ll_aton/ll_aton_stai_internal.c **** 
 157:../Middlewares/stedgeai-lib/Npu/ll_aton/ll_aton_stai_internal.c **** /*****************************************************************************/
 158:../Middlewares/stedgeai-lib/Npu/ll_aton/ll_aton_stai_internal.c **** /**  Public ST.AI APIs                                                       **/
ARM GAS  /tmp/ccPm72kM.s 			page 6


 159:../Middlewares/stedgeai-lib/Npu/ll_aton/ll_aton_stai_internal.c **** /*****************************************************************************/
 160:../Middlewares/stedgeai-lib/Npu/ll_aton/ll_aton_stai_internal.c **** STAI_API_ENTRY
 161:../Middlewares/stedgeai-lib/Npu/ll_aton/ll_aton_stai_internal.c **** stai_return_code stai_runtime_set_callback(const stai_event_cb cb, void *cb_cookie)
 162:../Middlewares/stedgeai-lib/Npu/ll_aton/ll_aton_stai_internal.c **** {
 129              		.loc 1 162 1 is_stmt 1 view -0
 130              		.cfi_startproc
 131              		@ args = 0, pretend = 0, frame = 0
 132              		@ frame_needed = 0, uses_anonymous_args = 0
 163:../Middlewares/stedgeai-lib/Npu/ll_aton/ll_aton_stai_internal.c ****   _g_stai_aton_rt_callback = cb;
 133              		.loc 1 163 3 view .LVU27
 162:../Middlewares/stedgeai-lib/Npu/ll_aton/ll_aton_stai_internal.c ****   _g_stai_aton_rt_callback = cb;
 134              		.loc 1 162 1 is_stmt 0 view .LVU28
 135 0000 08B5     		push	{r3, lr}
 136              		.cfi_def_cfa_offset 8
 137              		.cfi_offset 3, -8
 138              		.cfi_offset 14, -4
 139              		.loc 1 163 28 view .LVU29
 140 0002 054B     		ldr	r3, .L12
 141 0004 1860     		str	r0, [r3]
 164:../Middlewares/stedgeai-lib/Npu/ll_aton/ll_aton_stai_internal.c ****   _g_stai_aton_rt_cb_cookie = cb_cookie;
 142              		.loc 1 164 3 is_stmt 1 view .LVU30
 143              		.loc 1 164 29 is_stmt 0 view .LVU31
 144 0006 054B     		ldr	r3, .L12+4
 145 0008 1960     		str	r1, [r3]
 165:../Middlewares/stedgeai-lib/Npu/ll_aton/ll_aton_stai_internal.c **** 
 166:../Middlewares/stedgeai-lib/Npu/ll_aton/ll_aton_stai_internal.c ****   LL_ATON_RT_SetRuntimeCallback((_g_stai_aton_rt_callback != NULL) ? _stai_aton_internal_rt_callbac
 146              		.loc 1 166 3 is_stmt 1 view .LVU32
 147 000a 00B1     		cbz	r0, .L8
 148              		.loc 1 166 3 is_stmt 0 discriminator 1 view .LVU33
 149 000c 0448     		ldr	r0, .L12+8
 150              	.LVL9:
 151              	.L8:
 152              		.loc 1 166 3 discriminator 4 view .LVU34
 153 000e FFF7FEFF 		bl	LL_ATON_RT_SetRuntimeCallback
 154              	.LVL10:
 167:../Middlewares/stedgeai-lib/Npu/ll_aton/ll_aton_stai_internal.c **** 
 168:../Middlewares/stedgeai-lib/Npu/ll_aton/ll_aton_stai_internal.c ****   return STAI_SUCCESS;
 155              		.loc 1 168 3 is_stmt 1 view .LVU35
 169:../Middlewares/stedgeai-lib/Npu/ll_aton/ll_aton_stai_internal.c **** }
 156              		.loc 1 169 1 is_stmt 0 view .LVU36
 157 0012 0020     		movs	r0, #0
 158 0014 08BD     		pop	{r3, pc}
 159              	.L13:
 160 0016 00BF     		.align	2
 161              	.L12:
 162 0018 00000000 		.word	_g_stai_aton_rt_callback
 163 001c 00000000 		.word	_g_stai_aton_rt_cb_cookie
 164 0020 00000000 		.word	_stai_aton_internal_rt_callback
 165              		.cfi_endproc
 166              	.LFE349:
 168              		.section	.text.stai_runtime_init,"ax",%progbits
 169              		.align	1
 170              		.global	stai_runtime_init
 171              		.syntax unified
 172              		.thumb
 173              		.thumb_func
 175              	stai_runtime_init:
ARM GAS  /tmp/ccPm72kM.s 			page 7


 176              	.LFB350:
 170:../Middlewares/stedgeai-lib/Npu/ll_aton/ll_aton_stai_internal.c **** 
 171:../Middlewares/stedgeai-lib/Npu/ll_aton/ll_aton_stai_internal.c **** STAI_API_ENTRY
 172:../Middlewares/stedgeai-lib/Npu/ll_aton/ll_aton_stai_internal.c **** stai_return_code stai_runtime_init(void)
 173:../Middlewares/stedgeai-lib/Npu/ll_aton/ll_aton_stai_internal.c **** {
 177              		.loc 1 173 1 is_stmt 1 view -0
 178              		.cfi_startproc
 179              		@ args = 0, pretend = 0, frame = 0
 180              		@ frame_needed = 0, uses_anonymous_args = 0
 174:../Middlewares/stedgeai-lib/Npu/ll_aton/ll_aton_stai_internal.c ****   /* Execute (eventual) pre init code */
 175:../Middlewares/stedgeai-lib/Npu/ll_aton/ll_aton_stai_internal.c ****   if (__LL_ATON_STAI_PRE_ATON_INIT() != 0)
 181              		.loc 1 175 3 view .LVU38
 176:../Middlewares/stedgeai-lib/Npu/ll_aton/ll_aton_stai_internal.c ****   {
 177:../Middlewares/stedgeai-lib/Npu/ll_aton/ll_aton_stai_internal.c ****     return STAI_ERROR_STAI_INIT_FAILED;
 178:../Middlewares/stedgeai-lib/Npu/ll_aton/ll_aton_stai_internal.c ****   }
 179:../Middlewares/stedgeai-lib/Npu/ll_aton/ll_aton_stai_internal.c **** 
 180:../Middlewares/stedgeai-lib/Npu/ll_aton/ll_aton_stai_internal.c ****   /* Initialize ATON/N6 runtime */
 181:../Middlewares/stedgeai-lib/Npu/ll_aton/ll_aton_stai_internal.c ****   LL_ATON_RT_RuntimeInit();
 182              		.loc 1 181 3 view .LVU39
 173:../Middlewares/stedgeai-lib/Npu/ll_aton/ll_aton_stai_internal.c ****   /* Execute (eventual) pre init code */
 183              		.loc 1 173 1 is_stmt 0 view .LVU40
 184 0000 08B5     		push	{r3, lr}
 185              		.cfi_def_cfa_offset 8
 186              		.cfi_offset 3, -8
 187              		.cfi_offset 14, -4
 188              		.loc 1 181 3 view .LVU41
 189 0002 FFF7FEFF 		bl	LL_ATON_RT_RuntimeInit
 190              	.LVL11:
 182:../Middlewares/stedgeai-lib/Npu/ll_aton/ll_aton_stai_internal.c ****   return STAI_SUCCESS;
 191              		.loc 1 182 3 is_stmt 1 view .LVU42
 183:../Middlewares/stedgeai-lib/Npu/ll_aton/ll_aton_stai_internal.c **** }
 192              		.loc 1 183 1 is_stmt 0 view .LVU43
 193 0006 0020     		movs	r0, #0
 194 0008 08BD     		pop	{r3, pc}
 195              		.cfi_endproc
 196              	.LFE350:
 198              		.section	.text.stai_runtime_deinit,"ax",%progbits
 199              		.align	1
 200              		.global	stai_runtime_deinit
 201              		.syntax unified
 202              		.thumb
 203              		.thumb_func
 205              	stai_runtime_deinit:
 206              	.LFB351:
 184:../Middlewares/stedgeai-lib/Npu/ll_aton/ll_aton_stai_internal.c **** 
 185:../Middlewares/stedgeai-lib/Npu/ll_aton/ll_aton_stai_internal.c **** STAI_API_ENTRY
 186:../Middlewares/stedgeai-lib/Npu/ll_aton/ll_aton_stai_internal.c **** stai_return_code stai_runtime_deinit(void)
 187:../Middlewares/stedgeai-lib/Npu/ll_aton/ll_aton_stai_internal.c **** {
 207              		.loc 1 187 1 is_stmt 1 view -0
 208              		.cfi_startproc
 209              		@ args = 0, pretend = 0, frame = 0
 210              		@ frame_needed = 0, uses_anonymous_args = 0
 188:../Middlewares/stedgeai-lib/Npu/ll_aton/ll_aton_stai_internal.c ****   /* De-init ATON/N6 runtime */
 189:../Middlewares/stedgeai-lib/Npu/ll_aton/ll_aton_stai_internal.c ****   LL_ATON_RT_RuntimeDeInit();
 211              		.loc 1 189 3 view .LVU45
 187:../Middlewares/stedgeai-lib/Npu/ll_aton/ll_aton_stai_internal.c ****   /* De-init ATON/N6 runtime */
 212              		.loc 1 187 1 is_stmt 0 view .LVU46
ARM GAS  /tmp/ccPm72kM.s 			page 8


 213 0000 10B5     		push	{r4, lr}
 214              		.cfi_def_cfa_offset 8
 215              		.cfi_offset 4, -8
 216              		.cfi_offset 14, -4
 190:../Middlewares/stedgeai-lib/Npu/ll_aton/ll_aton_stai_internal.c **** 
 191:../Middlewares/stedgeai-lib/Npu/ll_aton/ll_aton_stai_internal.c ****   /* Execute (eventual) post de-init code */
 192:../Middlewares/stedgeai-lib/Npu/ll_aton/ll_aton_stai_internal.c ****   int err = __LL_ATON_STAI_POST_ATON_DEINIT();
 193:../Middlewares/stedgeai-lib/Npu/ll_aton/ll_aton_stai_internal.c **** 
 194:../Middlewares/stedgeai-lib/Npu/ll_aton/ll_aton_stai_internal.c ****   /* Reset callbacks */
 195:../Middlewares/stedgeai-lib/Npu/ll_aton/ll_aton_stai_internal.c ****   _g_stai_aton_rt_callback = NULL;
 217              		.loc 1 195 28 view .LVU47
 218 0002 0024     		movs	r4, #0
 189:../Middlewares/stedgeai-lib/Npu/ll_aton/ll_aton_stai_internal.c **** 
 219              		.loc 1 189 3 view .LVU48
 220 0004 FFF7FEFF 		bl	LL_ATON_RT_RuntimeDeInit
 221              	.LVL12:
 192:../Middlewares/stedgeai-lib/Npu/ll_aton/ll_aton_stai_internal.c **** 
 222              		.loc 1 192 3 is_stmt 1 view .LVU49
 223              		.loc 1 195 3 view .LVU50
 224              		.loc 1 195 28 is_stmt 0 view .LVU51
 225 0008 044B     		ldr	r3, .L16
 196:../Middlewares/stedgeai-lib/Npu/ll_aton/ll_aton_stai_internal.c ****   _g_stai_aton_rt_cb_cookie = NULL;
 197:../Middlewares/stedgeai-lib/Npu/ll_aton/ll_aton_stai_internal.c ****   LL_ATON_RT_SetRuntimeCallback(NULL);
 226              		.loc 1 197 3 view .LVU52
 227 000a 2046     		mov	r0, r4
 195:../Middlewares/stedgeai-lib/Npu/ll_aton/ll_aton_stai_internal.c ****   _g_stai_aton_rt_cb_cookie = NULL;
 228              		.loc 1 195 28 view .LVU53
 229 000c 1C60     		str	r4, [r3]
 196:../Middlewares/stedgeai-lib/Npu/ll_aton/ll_aton_stai_internal.c ****   _g_stai_aton_rt_cb_cookie = NULL;
 230              		.loc 1 196 3 is_stmt 1 view .LVU54
 196:../Middlewares/stedgeai-lib/Npu/ll_aton/ll_aton_stai_internal.c ****   _g_stai_aton_rt_cb_cookie = NULL;
 231              		.loc 1 196 29 is_stmt 0 view .LVU55
 232 000e 044B     		ldr	r3, .L16+4
 233 0010 1C60     		str	r4, [r3]
 234              		.loc 1 197 3 is_stmt 1 view .LVU56
 235 0012 FFF7FEFF 		bl	LL_ATON_RT_SetRuntimeCallback
 236              	.LVL13:
 198:../Middlewares/stedgeai-lib/Npu/ll_aton/ll_aton_stai_internal.c **** 
 199:../Middlewares/stedgeai-lib/Npu/ll_aton/ll_aton_stai_internal.c **** #ifdef STAI_ATON_ZYNQ
 200:../Middlewares/stedgeai-lib/Npu/ll_aton/ll_aton_stai_internal.c ****   // assuming zynq-based platform test harness & `stai_app_*.cpp` based application
 201:../Middlewares/stedgeai-lib/Npu/ll_aton/ll_aton_stai_internal.c ****   exit(err); // force exit status to test results check return value
 202:../Middlewares/stedgeai-lib/Npu/ll_aton/ll_aton_stai_internal.c **** #endif       // STAI_ATON_ZYNQ
 203:../Middlewares/stedgeai-lib/Npu/ll_aton/ll_aton_stai_internal.c **** 
 204:../Middlewares/stedgeai-lib/Npu/ll_aton/ll_aton_stai_internal.c ****   if (err != 0)
 237              		.loc 1 204 3 view .LVU57
 205:../Middlewares/stedgeai-lib/Npu/ll_aton/ll_aton_stai_internal.c ****   {
 206:../Middlewares/stedgeai-lib/Npu/ll_aton/ll_aton_stai_internal.c ****     return STAI_ERROR_STAI_DEINIT_FAILED;
 207:../Middlewares/stedgeai-lib/Npu/ll_aton/ll_aton_stai_internal.c ****   }
 208:../Middlewares/stedgeai-lib/Npu/ll_aton/ll_aton_stai_internal.c ****   else
 209:../Middlewares/stedgeai-lib/Npu/ll_aton/ll_aton_stai_internal.c ****   {
 210:../Middlewares/stedgeai-lib/Npu/ll_aton/ll_aton_stai_internal.c ****     return STAI_SUCCESS;
 238              		.loc 1 210 5 view .LVU58
 211:../Middlewares/stedgeai-lib/Npu/ll_aton/ll_aton_stai_internal.c ****   }
 212:../Middlewares/stedgeai-lib/Npu/ll_aton/ll_aton_stai_internal.c **** }
 239              		.loc 1 212 1 is_stmt 0 view .LVU59
 240 0016 2046     		mov	r0, r4
 241 0018 10BD     		pop	{r4, pc}
ARM GAS  /tmp/ccPm72kM.s 			page 9


 242              	.L17:
 243 001a 00BF     		.align	2
 244              	.L16:
 245 001c 00000000 		.word	_g_stai_aton_rt_callback
 246 0020 00000000 		.word	_g_stai_aton_rt_cb_cookie
 247              		.cfi_endproc
 248              	.LFE351:
 250              		.section	.text.stai_runtime_get_info,"ax",%progbits
 251              		.align	1
 252              		.global	stai_runtime_get_info
 253              		.syntax unified
 254              		.thumb
 255              		.thumb_func
 257              	stai_runtime_get_info:
 258              	.LVL14:
 259              	.LFB352:
 213:../Middlewares/stedgeai-lib/Npu/ll_aton/ll_aton_stai_internal.c **** 
 214:../Middlewares/stedgeai-lib/Npu/ll_aton/ll_aton_stai_internal.c **** /* runtime build info bit shifts */
 215:../Middlewares/stedgeai-lib/Npu/ll_aton/ll_aton_stai_internal.c **** #define STAI_RT_PLAT_BSHIFT  0
 216:../Middlewares/stedgeai-lib/Npu/ll_aton/ll_aton_stai_internal.c **** #define STAI_RT_OSAL_BSHIFT  (STAI_RT_PLAT_BSHIFT + LL_ATON_CONFIG_PLAT_BSIZE)
 217:../Middlewares/stedgeai-lib/Npu/ll_aton/ll_aton_stai_internal.c **** #define STAI_RT_MODE_BSHIFT  (STAI_RT_OSAL_BSHIFT + LL_ATON_CONFIG_OSAL_BSIZE)
 218:../Middlewares/stedgeai-lib/Npu/ll_aton/ll_aton_stai_internal.c **** #define STAI_RT_BINFO_BSHIFT (STAI_RT_MODE_BSHIFT + LL_ATON_CONFIG_RT_MODE_BSIZE)
 219:../Middlewares/stedgeai-lib/Npu/ll_aton/ll_aton_stai_internal.c **** #define STAI_RT_CLKG_BSHIFT  (STAI_RT_BINFO_BSHIFT + LL_ATON_CONFIG_BINFO_BSIZE)
 220:../Middlewares/stedgeai-lib/Npu/ll_aton/ll_aton_stai_internal.c **** #define STAI_RT_SWF_BSHIFT   (STAI_RT_CLKG_BSHIFT + LL_ATON_CONFIG_CLKG_BSIZE)
 221:../Middlewares/stedgeai-lib/Npu/ll_aton/ll_aton_stai_internal.c **** #define STAI_RT_DD_BSHIFT    (STAI_RT_SWF_BSHIFT + LL_ATON_CONFIG_SWF_BSIZE)
 222:../Middlewares/stedgeai-lib/Npu/ll_aton/ll_aton_stai_internal.c **** #define STAI_RT_EBDBG_BSHIFT (STAI_RT_DD_BSHIFT + LL_ATON_CONFIG_DD_BSIZE)
 223:../Middlewares/stedgeai-lib/Npu/ll_aton/ll_aton_stai_internal.c **** 
 224:../Middlewares/stedgeai-lib/Npu/ll_aton/ll_aton_stai_internal.c **** /* runtime build info size masks */
 225:../Middlewares/stedgeai-lib/Npu/ll_aton/ll_aton_stai_internal.c **** #define STAI_RT_PLAT_MASK  ((1 << LL_ATON_CONFIG_PLAT_BSIZE) - 1)
 226:../Middlewares/stedgeai-lib/Npu/ll_aton/ll_aton_stai_internal.c **** #define STAI_RT_OSAL_MASK  ((1 << LL_ATON_CONFIG_OSAL_BSIZE) - 1)
 227:../Middlewares/stedgeai-lib/Npu/ll_aton/ll_aton_stai_internal.c **** #define STAI_RT_MODE_MASK  ((1 << LL_ATON_CONFIG_RT_MODE_BSIZE) - 1)
 228:../Middlewares/stedgeai-lib/Npu/ll_aton/ll_aton_stai_internal.c **** #define STAI_RT_BINFO_MASK ((1 << LL_ATON_CONFIG_BINFO_BSIZE) - 1)
 229:../Middlewares/stedgeai-lib/Npu/ll_aton/ll_aton_stai_internal.c **** #define STAI_RT_CLKG_MASK  ((1 << LL_ATON_CONFIG_CLKG_BSIZE) - 1)
 230:../Middlewares/stedgeai-lib/Npu/ll_aton/ll_aton_stai_internal.c **** #define STAI_RT_SWF_MASK   ((1 << LL_ATON_CONFIG_SWF_BSIZE) - 1)
 231:../Middlewares/stedgeai-lib/Npu/ll_aton/ll_aton_stai_internal.c **** #define STAI_RT_DD_MASK    ((1 << LL_ATON_CONFIG_DD_BSIZE) - 1)
 232:../Middlewares/stedgeai-lib/Npu/ll_aton/ll_aton_stai_internal.c **** #define STAI_RT_EBDBG_MASK ((1 << LL_ATON_CONFIG_EBDBG_BSIZE) - 1)
 233:../Middlewares/stedgeai-lib/Npu/ll_aton/ll_aton_stai_internal.c **** 
 234:../Middlewares/stedgeai-lib/Npu/ll_aton/ll_aton_stai_internal.c **** STAI_API_ENTRY
 235:../Middlewares/stedgeai-lib/Npu/ll_aton/ll_aton_stai_internal.c **** stai_return_code stai_runtime_get_info(stai_runtime_info *info)
 236:../Middlewares/stedgeai-lib/Npu/ll_aton/ll_aton_stai_internal.c **** {
 260              		.loc 1 236 1 is_stmt 1 view -0
 261              		.cfi_startproc
 262              		@ args = 0, pretend = 0, frame = 0
 263              		@ frame_needed = 0, uses_anonymous_args = 0
 237:../Middlewares/stedgeai-lib/Npu/ll_aton/ll_aton_stai_internal.c ****   if (info)
 264              		.loc 1 237 3 view .LVU61
 236:../Middlewares/stedgeai-lib/Npu/ll_aton/ll_aton_stai_internal.c ****   if (info)
 265              		.loc 1 236 1 is_stmt 0 view .LVU62
 266 0000 30B5     		push	{r4, r5, lr}
 267              		.cfi_def_cfa_offset 12
 268              		.cfi_offset 4, -12
 269              		.cfi_offset 5, -8
 270              		.cfi_offset 14, -4
 271              		.loc 1 237 6 view .LVU63
 272 0002 0446     		mov	r4, r0
 273 0004 40B1     		cbz	r0, .L20
 274              	.LBB10:
ARM GAS  /tmp/ccPm72kM.s 			page 10


 238:../Middlewares/stedgeai-lib/Npu/ll_aton/ll_aton_stai_internal.c ****   {
 239:../Middlewares/stedgeai-lib/Npu/ll_aton/ll_aton_stai_internal.c ****     static const stai_runtime_info _info = {
 275              		.loc 1 239 5 is_stmt 1 view .LVU64
 240:../Middlewares/stedgeai-lib/Npu/ll_aton/ll_aton_stai_internal.c ****       .runtime_version = STAI_INIT_VERSION(LL_ATON_VERSION_MAJOR, LL_ATON_VERSION_MINOR, LL_ATON_VE
 241:../Middlewares/stedgeai-lib/Npu/ll_aton/ll_aton_stai_internal.c ****       .tools_version = STAI_INIT_VERSION(STAI_TOOLS_VERSION_MAJOR, STAI_TOOLS_VERSION_MINOR, STAI_T
 242:../Middlewares/stedgeai-lib/Npu/ll_aton/ll_aton_stai_internal.c ****       .api_version = STAI_INIT_VERSION(STAI_API_VERSION_MAJOR, STAI_API_VERSION_MINOR, STAI_API_VER
 243:../Middlewares/stedgeai-lib/Npu/ll_aton/ll_aton_stai_internal.c **** 
 244:../Middlewares/stedgeai-lib/Npu/ll_aton/ll_aton_stai_internal.c ****       .runtime_build = (((LL_ATON_PLATFORM & STAI_RT_PLAT_MASK) << STAI_RT_PLAT_BSHIFT) |
 245:../Middlewares/stedgeai-lib/Npu/ll_aton/ll_aton_stai_internal.c ****                         ((LL_ATON_OSAL & STAI_RT_OSAL_MASK) << STAI_RT_OSAL_BSHIFT) |
 246:../Middlewares/stedgeai-lib/Npu/ll_aton/ll_aton_stai_internal.c ****                         ((LL_ATON_RT_MODE & STAI_RT_MODE_MASK) << STAI_RT_MODE_BSHIFT) |
 247:../Middlewares/stedgeai-lib/Npu/ll_aton/ll_aton_stai_internal.c ****                         ((LL_ATON_DBG_BUFFER_INFO_EXCLUDED & STAI_RT_BINFO_MASK) << STAI_RT_BINFO_B
 248:../Middlewares/stedgeai-lib/Npu/ll_aton/ll_aton_stai_internal.c ****                         ((LL_ATON_ENABLE_CLOCK_GATING & STAI_RT_CLKG_MASK) << STAI_RT_CLKG_BSHIFT)
 249:../Middlewares/stedgeai-lib/Npu/ll_aton/ll_aton_stai_internal.c **** #if LL_ATON_SW_FALLBACK == 1
 250:../Middlewares/stedgeai-lib/Npu/ll_aton/ll_aton_stai_internal.c ****                         | (1 << STAI_RT_SWF_BSHIFT)
 251:../Middlewares/stedgeai-lib/Npu/ll_aton/ll_aton_stai_internal.c **** #endif // LL_ATON_SW_FALLBACK == 1
 252:../Middlewares/stedgeai-lib/Npu/ll_aton/ll_aton_stai_internal.c **** #ifdef LL_ATON_DUMP_DEBUG_API
 253:../Middlewares/stedgeai-lib/Npu/ll_aton/ll_aton_stai_internal.c ****                         | (1 << STAI_RT_DD_BSHIFT)
 254:../Middlewares/stedgeai-lib/Npu/ll_aton/ll_aton_stai_internal.c **** #endif // LL_ATON_DUMP_DEBUG_API
 255:../Middlewares/stedgeai-lib/Npu/ll_aton/ll_aton_stai_internal.c **** #ifdef LL_ATON_EB_DBG_INFO
 256:../Middlewares/stedgeai-lib/Npu/ll_aton/ll_aton_stai_internal.c ****                         | (1 << STAI_RT_EBDBG_BSHIFT)
 257:../Middlewares/stedgeai-lib/Npu/ll_aton/ll_aton_stai_internal.c **** #endif // LL_ATON_EB_DBG_INFO
 258:../Middlewares/stedgeai-lib/Npu/ll_aton/ll_aton_stai_internal.c ****                             ),
 259:../Middlewares/stedgeai-lib/Npu/ll_aton/ll_aton_stai_internal.c **** 
 260:../Middlewares/stedgeai-lib/Npu/ll_aton/ll_aton_stai_internal.c ****       .compiler_id = _STAI_COMPILER_ID,
 261:../Middlewares/stedgeai-lib/Npu/ll_aton/ll_aton_stai_internal.c ****       .compiler_desc = _STAI_COMPILER_DESC,
 262:../Middlewares/stedgeai-lib/Npu/ll_aton/ll_aton_stai_internal.c ****     };
 263:../Middlewares/stedgeai-lib/Npu/ll_aton/ll_aton_stai_internal.c **** 
 264:../Middlewares/stedgeai-lib/Npu/ll_aton/ll_aton_stai_internal.c ****     *info = _info;
 276              		.loc 1 264 5 view .LVU65
 277              		.loc 1 264 11 is_stmt 0 view .LVU66
 278 0006 054D     		ldr	r5, .L21
 279 0008 0FCD     		ldmia	r5!, {r0, r1, r2, r3}
 280              	.LVL15:
 281              		.loc 1 264 11 view .LVU67
 282 000a 0FC4     		stmia	r4!, {r0, r1, r2, r3}
 283              	.LVL16:
 284              		.loc 1 264 11 view .LVU68
 285 000c 95E80300 		ldm	r5, {r0, r1}
 286 0010 84E80300 		stm	r4, {r0, r1}
 265:../Middlewares/stedgeai-lib/Npu/ll_aton/ll_aton_stai_internal.c ****     return STAI_SUCCESS;
 287              		.loc 1 265 5 is_stmt 1 view .LVU69
 288              		.loc 1 265 12 is_stmt 0 view .LVU70
 289 0014 0020     		movs	r0, #0
 290              	.LVL17:
 291              	.L18:
 292              		.loc 1 265 12 view .LVU71
 293              	.LBE10:
 266:../Middlewares/stedgeai-lib/Npu/ll_aton/ll_aton_stai_internal.c ****   }
 267:../Middlewares/stedgeai-lib/Npu/ll_aton/ll_aton_stai_internal.c **** 
 268:../Middlewares/stedgeai-lib/Npu/ll_aton/ll_aton_stai_internal.c ****   return STAI_ERROR_NETWORK_INVALID_API_ARGUMENTS;
 269:../Middlewares/stedgeai-lib/Npu/ll_aton/ll_aton_stai_internal.c **** }
 294              		.loc 1 269 1 view .LVU72
 295 0016 30BD     		pop	{r4, r5, pc}
 296              	.LVL18:
 297              	.L20:
 268:../Middlewares/stedgeai-lib/Npu/ll_aton/ll_aton_stai_internal.c **** }
 298              		.loc 1 268 10 view .LVU73
ARM GAS  /tmp/ccPm72kM.s 			page 11


 299 0018 0148     		ldr	r0, .L21+4
 300              	.LVL19:
 268:../Middlewares/stedgeai-lib/Npu/ll_aton/ll_aton_stai_internal.c **** }
 301              		.loc 1 268 10 view .LVU74
 302 001a FCE7     		b	.L18
 303              	.L22:
 304              		.align	2
 305              	.L21:
 306 001c 00000000 		.word	_info.1
 307 0020 01000200 		.word	131073
 308              		.cfi_endproc
 309              	.LFE352:
 311              		.section	.text.stai_cache_mcu_clean_range,"ax",%progbits
 312              		.align	1
 313              		.global	stai_cache_mcu_clean_range
 314              		.syntax unified
 315              		.thumb
 316              		.thumb_func
 318              	stai_cache_mcu_clean_range:
 319              	.LVL20:
 320              	.LFB353:
 270:../Middlewares/stedgeai-lib/Npu/ll_aton/ll_aton_stai_internal.c **** 
 271:../Middlewares/stedgeai-lib/Npu/ll_aton/ll_aton_stai_internal.c **** STAI_API_ENTRY
 272:../Middlewares/stedgeai-lib/Npu/ll_aton/ll_aton_stai_internal.c **** stai_return_code stai_cache_mcu_clean_range(uintptr_t virtual_addr, stai_size size)
 273:../Middlewares/stedgeai-lib/Npu/ll_aton/ll_aton_stai_internal.c **** {
 321              		.loc 1 273 1 is_stmt 1 view -0
 322              		.cfi_startproc
 323              		@ args = 0, pretend = 0, frame = 0
 324              		@ frame_needed = 0, uses_anonymous_args = 0
 274:../Middlewares/stedgeai-lib/Npu/ll_aton/ll_aton_stai_internal.c ****   LL_ATON_Cache_MCU_Clean_Range(virtual_addr, size);
 325              		.loc 1 274 3 view .LVU76
 326              	.LBB13:
 327              	.LBI13:
 328              		.file 2 "../Middlewares/stedgeai-lib/Npu/ll_aton/ll_aton_caches_interface.h"
   1:../Middlewares/stedgeai-lib/Npu/ll_aton/ll_aton_caches_interface.h **** /**
   2:../Middlewares/stedgeai-lib/Npu/ll_aton/ll_aton_caches_interface.h ****  ******************************************************************************
   3:../Middlewares/stedgeai-lib/Npu/ll_aton/ll_aton_caches_interface.h ****  * @file    ll_aton_caches_interface.h
   4:../Middlewares/stedgeai-lib/Npu/ll_aton/ll_aton_caches_interface.h ****  * @author  SRA Artificial Intelligence & Embedded Architectures
   5:../Middlewares/stedgeai-lib/Npu/ll_aton/ll_aton_caches_interface.h ****  * @brief   Header file for defining an implementing generic cache handling
   6:../Middlewares/stedgeai-lib/Npu/ll_aton/ll_aton_caches_interface.h ****  *          functions for the application writer
   7:../Middlewares/stedgeai-lib/Npu/ll_aton/ll_aton_caches_interface.h ****  ******************************************************************************
   8:../Middlewares/stedgeai-lib/Npu/ll_aton/ll_aton_caches_interface.h ****  * @attention
   9:../Middlewares/stedgeai-lib/Npu/ll_aton/ll_aton_caches_interface.h ****  *
  10:../Middlewares/stedgeai-lib/Npu/ll_aton/ll_aton_caches_interface.h ****  * Copyright (c) 2024 STMicroelectronics.
  11:../Middlewares/stedgeai-lib/Npu/ll_aton/ll_aton_caches_interface.h ****  * All rights reserved.
  12:../Middlewares/stedgeai-lib/Npu/ll_aton/ll_aton_caches_interface.h ****  *
  13:../Middlewares/stedgeai-lib/Npu/ll_aton/ll_aton_caches_interface.h ****  * This software is licensed under terms that can be found in the LICENSE file
  14:../Middlewares/stedgeai-lib/Npu/ll_aton/ll_aton_caches_interface.h ****  * in the root directory of this software component.
  15:../Middlewares/stedgeai-lib/Npu/ll_aton/ll_aton_caches_interface.h ****  * If no LICENSE file comes with this software, it is provided AS-IS.
  16:../Middlewares/stedgeai-lib/Npu/ll_aton/ll_aton_caches_interface.h ****  *
  17:../Middlewares/stedgeai-lib/Npu/ll_aton/ll_aton_caches_interface.h ****  ******************************************************************************
  18:../Middlewares/stedgeai-lib/Npu/ll_aton/ll_aton_caches_interface.h ****  */
  19:../Middlewares/stedgeai-lib/Npu/ll_aton/ll_aton_caches_interface.h **** 
  20:../Middlewares/stedgeai-lib/Npu/ll_aton/ll_aton_caches_interface.h **** #ifndef __LL_ATON_CACHES_H
  21:../Middlewares/stedgeai-lib/Npu/ll_aton/ll_aton_caches_interface.h **** #define __LL_ATON_CACHES_H
  22:../Middlewares/stedgeai-lib/Npu/ll_aton/ll_aton_caches_interface.h **** 
  23:../Middlewares/stedgeai-lib/Npu/ll_aton/ll_aton_caches_interface.h **** #include <stdint.h>
ARM GAS  /tmp/ccPm72kM.s 			page 12


  24:../Middlewares/stedgeai-lib/Npu/ll_aton/ll_aton_caches_interface.h **** 
  25:../Middlewares/stedgeai-lib/Npu/ll_aton/ll_aton_caches_interface.h **** #ifdef __cplusplus
  26:../Middlewares/stedgeai-lib/Npu/ll_aton/ll_aton_caches_interface.h **** extern "C"
  27:../Middlewares/stedgeai-lib/Npu/ll_aton/ll_aton_caches_interface.h **** {
  28:../Middlewares/stedgeai-lib/Npu/ll_aton/ll_aton_caches_interface.h **** #endif
  29:../Middlewares/stedgeai-lib/Npu/ll_aton/ll_aton_caches_interface.h **** 
  30:../Middlewares/stedgeai-lib/Npu/ll_aton/ll_aton_caches_interface.h **** #include "ll_aton_attributes.h"
  31:../Middlewares/stedgeai-lib/Npu/ll_aton/ll_aton_caches_interface.h **** #include "ll_aton_osal.h"
  32:../Middlewares/stedgeai-lib/Npu/ll_aton/ll_aton_caches_interface.h **** #include "ll_aton_platform.h"
  33:../Middlewares/stedgeai-lib/Npu/ll_aton/ll_aton_caches_interface.h **** 
  34:../Middlewares/stedgeai-lib/Npu/ll_aton/ll_aton_caches_interface.h **** #if !defined(BUILD_AI_NETWORK_RELOC)
  35:../Middlewares/stedgeai-lib/Npu/ll_aton/ll_aton_caches_interface.h **** 
  36:../Middlewares/stedgeai-lib/Npu/ll_aton/ll_aton_caches_interface.h **** #if (LL_ATON_PLATFORM == LL_ATON_PLAT_STM32N6)
  37:../Middlewares/stedgeai-lib/Npu/ll_aton/ll_aton_caches_interface.h **** 
  38:../Middlewares/stedgeai-lib/Npu/ll_aton/ll_aton_caches_interface.h ****   /*** MCU cache maintenance functions ***/
  39:../Middlewares/stedgeai-lib/Npu/ll_aton/ll_aton_caches_interface.h **** 
  40:../Middlewares/stedgeai-lib/Npu/ll_aton/ll_aton_caches_interface.h **** #include "mcu_cache.h"
  41:../Middlewares/stedgeai-lib/Npu/ll_aton/ll_aton_caches_interface.h **** 
  42:../Middlewares/stedgeai-lib/Npu/ll_aton/ll_aton_caches_interface.h ****   /**
  43:../Middlewares/stedgeai-lib/Npu/ll_aton/ll_aton_caches_interface.h ****    * @brief perform MCU cache clean maintenance operation on an address range
  44:../Middlewares/stedgeai-lib/Npu/ll_aton/ll_aton_caches_interface.h ****    * @details whenever the content of a buffer is changed by the application (which is especially t
  45:../Middlewares/stedgeai-lib/Npu/ll_aton/ll_aton_caches_interface.h ****    *          buffers) cache maintenance MUST be taken into account before being able to run the ne
  46:../Middlewares/stedgeai-lib/Npu/ll_aton/ll_aton_caches_interface.h ****    * @param[in] virtual_addr start address (host-side/virtual) of address range
  47:../Middlewares/stedgeai-lib/Npu/ll_aton/ll_aton_caches_interface.h ****    * @param[in] size size of address range
  48:../Middlewares/stedgeai-lib/Npu/ll_aton/ll_aton_caches_interface.h ****    *
  49:../Middlewares/stedgeai-lib/Npu/ll_aton/ll_aton_caches_interface.h ****    * @note the address range should fulfill alignment constraints with respect to the MCU cache lin
  50:../Middlewares/stedgeai-lib/Npu/ll_aton/ll_aton_caches_interface.h ****    *       for both its `address` & `size` (to better correspond to what this operation will actual
  51:../Middlewares/stedgeai-lib/Npu/ll_aton/ll_aton_caches_interface.h ****    * @note this function is intended to handle the case where a buffer has been filled by the MCU/p
  52:../Middlewares/stedgeai-lib/Npu/ll_aton/ll_aton_caches_interface.h ****    *       passing thru the MCU cache) and should be called AFTER that the buffer has been filled
  53:../Middlewares/stedgeai-lib/Npu/ll_aton/ll_aton_caches_interface.h ****    */
  54:../Middlewares/stedgeai-lib/Npu/ll_aton/ll_aton_caches_interface.h ****   static inline void LL_ATON_Cache_MCU_Clean_Range(uintptr_t virtual_addr, uint32_t size)
 329              		.loc 2 54 22 view .LVU77
 330              	.LBB14:
  55:../Middlewares/stedgeai-lib/Npu/ll_aton/ll_aton_caches_interface.h ****   {
  56:../Middlewares/stedgeai-lib/Npu/ll_aton/ll_aton_caches_interface.h ****     LL_ATON_OSAL_LOCK_MCU_CACHE();
 331              		.loc 2 56 34 view .LVU78
  57:../Middlewares/stedgeai-lib/Npu/ll_aton/ll_aton_caches_interface.h ****     mcu_cache_clean_range(virtual_addr, virtual_addr + size);
 332              		.loc 2 57 5 view .LVU79
 333              	.LBE14:
 334              	.LBE13:
 273:../Middlewares/stedgeai-lib/Npu/ll_aton/ll_aton_stai_internal.c ****   LL_ATON_Cache_MCU_Clean_Range(virtual_addr, size);
 335              		.loc 1 273 1 is_stmt 0 view .LVU80
 336 0000 08B5     		push	{r3, lr}
 337              		.cfi_def_cfa_offset 8
 338              		.cfi_offset 3, -8
 339              		.cfi_offset 14, -4
 340              	.LBB16:
 341              	.LBB15:
 342              		.loc 2 57 5 view .LVU81
 343 0002 0144     		add	r1, r1, r0
 344              	.LVL21:
 345              		.loc 2 57 5 view .LVU82
 346 0004 FFF7FEFF 		bl	mcu_cache_clean_range
 347              	.LVL22:
  58:../Middlewares/stedgeai-lib/Npu/ll_aton/ll_aton_caches_interface.h ****     LL_ATON_OSAL_UNLOCK_MCU_CACHE();
 348              		.loc 2 58 36 is_stmt 1 view .LVU83
 349              		.loc 2 58 36 is_stmt 0 view .LVU84
ARM GAS  /tmp/ccPm72kM.s 			page 13


 350              	.LBE15:
 351              	.LBE16:
 275:../Middlewares/stedgeai-lib/Npu/ll_aton/ll_aton_stai_internal.c ****   return STAI_SUCCESS;
 352              		.loc 1 275 3 is_stmt 1 view .LVU85
 276:../Middlewares/stedgeai-lib/Npu/ll_aton/ll_aton_stai_internal.c **** }
 353              		.loc 1 276 1 is_stmt 0 view .LVU86
 354 0008 0020     		movs	r0, #0
 355 000a 08BD     		pop	{r3, pc}
 356              		.cfi_endproc
 357              	.LFE353:
 359              		.section	.text.stai_cache_mcu_invalidate_range,"ax",%progbits
 360              		.align	1
 361              		.global	stai_cache_mcu_invalidate_range
 362              		.syntax unified
 363              		.thumb
 364              		.thumb_func
 366              	stai_cache_mcu_invalidate_range:
 367              	.LVL23:
 368              	.LFB354:
 277:../Middlewares/stedgeai-lib/Npu/ll_aton/ll_aton_stai_internal.c **** 
 278:../Middlewares/stedgeai-lib/Npu/ll_aton/ll_aton_stai_internal.c **** STAI_API_ENTRY
 279:../Middlewares/stedgeai-lib/Npu/ll_aton/ll_aton_stai_internal.c **** stai_return_code stai_cache_mcu_invalidate_range(uintptr_t virtual_addr, stai_size size)
 280:../Middlewares/stedgeai-lib/Npu/ll_aton/ll_aton_stai_internal.c **** {
 369              		.loc 1 280 1 is_stmt 1 view -0
 370              		.cfi_startproc
 371              		@ args = 0, pretend = 0, frame = 0
 372              		@ frame_needed = 0, uses_anonymous_args = 0
 281:../Middlewares/stedgeai-lib/Npu/ll_aton/ll_aton_stai_internal.c ****   LL_ATON_Cache_MCU_Invalidate_Range(virtual_addr, size);
 373              		.loc 1 281 3 view .LVU88
 374              	.LBB19:
 375              	.LBI19:
  59:../Middlewares/stedgeai-lib/Npu/ll_aton/ll_aton_caches_interface.h ****   }
  60:../Middlewares/stedgeai-lib/Npu/ll_aton/ll_aton_caches_interface.h **** 
  61:../Middlewares/stedgeai-lib/Npu/ll_aton/ll_aton_caches_interface.h ****   /**
  62:../Middlewares/stedgeai-lib/Npu/ll_aton/ll_aton_caches_interface.h ****    * @brief perform MCU cache invalidate maintenance operation on an address range
  63:../Middlewares/stedgeai-lib/Npu/ll_aton/ll_aton_caches_interface.h ****    * @details whenever the content of a buffer is changed by the application (which is especially t
  64:../Middlewares/stedgeai-lib/Npu/ll_aton/ll_aton_caches_interface.h ****    *          buffers) cache maintenance MUST be taken into account before being able to run the ne
  65:../Middlewares/stedgeai-lib/Npu/ll_aton/ll_aton_caches_interface.h ****    * @param[in] virtual_addr start address (host-side/virtual) of address range
  66:../Middlewares/stedgeai-lib/Npu/ll_aton/ll_aton_caches_interface.h ****    * @param[in] size size of address range
  67:../Middlewares/stedgeai-lib/Npu/ll_aton/ll_aton_caches_interface.h ****    *
  68:../Middlewares/stedgeai-lib/Npu/ll_aton/ll_aton_caches_interface.h ****    * @note the address range should fulfill alignment constraints with respect to the MCU cache lin
  69:../Middlewares/stedgeai-lib/Npu/ll_aton/ll_aton_caches_interface.h ****    *       for both its `address` & `size` (to better correspond to what this operation will actual
  70:../Middlewares/stedgeai-lib/Npu/ll_aton/ll_aton_caches_interface.h ****    * @note this function is intended to handle the case where a buffer has been filled by-passing t
  71:../Middlewares/stedgeai-lib/Npu/ll_aton/ll_aton_caches_interface.h ****    *       cache (e.g. using a DMA) and should be called BEFORE the buffer gets filled
  72:../Middlewares/stedgeai-lib/Npu/ll_aton/ll_aton_caches_interface.h ****    */
  73:../Middlewares/stedgeai-lib/Npu/ll_aton/ll_aton_caches_interface.h ****   static inline void LL_ATON_Cache_MCU_Invalidate_Range(uintptr_t virtual_addr, uint32_t size)
 376              		.loc 2 73 22 view .LVU89
 377              	.LBB20:
  74:../Middlewares/stedgeai-lib/Npu/ll_aton/ll_aton_caches_interface.h ****   {
  75:../Middlewares/stedgeai-lib/Npu/ll_aton/ll_aton_caches_interface.h ****     LL_ATON_OSAL_LOCK_MCU_CACHE();
 378              		.loc 2 75 34 view .LVU90
  76:../Middlewares/stedgeai-lib/Npu/ll_aton/ll_aton_caches_interface.h ****     mcu_cache_invalidate_range(virtual_addr, virtual_addr + size);
 379              		.loc 2 76 5 view .LVU91
 380              	.LBE20:
 381              	.LBE19:
 280:../Middlewares/stedgeai-lib/Npu/ll_aton/ll_aton_stai_internal.c ****   LL_ATON_Cache_MCU_Invalidate_Range(virtual_addr, size);
 382              		.loc 1 280 1 is_stmt 0 view .LVU92
ARM GAS  /tmp/ccPm72kM.s 			page 14


 383 0000 08B5     		push	{r3, lr}
 384              		.cfi_def_cfa_offset 8
 385              		.cfi_offset 3, -8
 386              		.cfi_offset 14, -4
 387              	.LBB22:
 388              	.LBB21:
 389              		.loc 2 76 5 view .LVU93
 390 0002 0144     		add	r1, r1, r0
 391              	.LVL24:
 392              		.loc 2 76 5 view .LVU94
 393 0004 FFF7FEFF 		bl	mcu_cache_invalidate_range
 394              	.LVL25:
  77:../Middlewares/stedgeai-lib/Npu/ll_aton/ll_aton_caches_interface.h ****     LL_ATON_OSAL_UNLOCK_MCU_CACHE();
 395              		.loc 2 77 36 is_stmt 1 view .LVU95
 396              		.loc 2 77 36 is_stmt 0 view .LVU96
 397              	.LBE21:
 398              	.LBE22:
 282:../Middlewares/stedgeai-lib/Npu/ll_aton/ll_aton_stai_internal.c ****   return STAI_SUCCESS;
 399              		.loc 1 282 3 is_stmt 1 view .LVU97
 283:../Middlewares/stedgeai-lib/Npu/ll_aton/ll_aton_stai_internal.c **** }
 400              		.loc 1 283 1 is_stmt 0 view .LVU98
 401 0008 0020     		movs	r0, #0
 402 000a 08BD     		pop	{r3, pc}
 403              		.cfi_endproc
 404              	.LFE354:
 406              		.section	.text.stai_ext_cache_npu_clean_range,"ax",%progbits
 407              		.align	1
 408              		.global	stai_ext_cache_npu_clean_range
 409              		.syntax unified
 410              		.thumb
 411              		.thumb_func
 413              	stai_ext_cache_npu_clean_range:
 414              	.LVL26:
 415              	.LFB355:
 284:../Middlewares/stedgeai-lib/Npu/ll_aton/ll_aton_stai_internal.c **** 
 285:../Middlewares/stedgeai-lib/Npu/ll_aton/ll_aton_stai_internal.c **** STAI_API_ENTRY
 286:../Middlewares/stedgeai-lib/Npu/ll_aton/ll_aton_stai_internal.c **** stai_return_code stai_ext_cache_npu_clean_range(uintptr_t virtual_addr, stai_size size)
 287:../Middlewares/stedgeai-lib/Npu/ll_aton/ll_aton_stai_internal.c **** {
 416              		.loc 1 287 1 is_stmt 1 view -0
 417              		.cfi_startproc
 418              		@ args = 0, pretend = 0, frame = 0
 419              		@ frame_needed = 0, uses_anonymous_args = 0
 288:../Middlewares/stedgeai-lib/Npu/ll_aton/ll_aton_stai_internal.c ****   LL_ATON_Cache_NPU_Clean_Range(virtual_addr, size);
 420              		.loc 1 288 3 view .LVU100
 287:../Middlewares/stedgeai-lib/Npu/ll_aton/ll_aton_stai_internal.c ****   LL_ATON_Cache_NPU_Clean_Range(virtual_addr, size);
 421              		.loc 1 287 1 is_stmt 0 view .LVU101
 422 0000 38B5     		push	{r3, r4, r5, lr}
 423              		.cfi_def_cfa_offset 16
 424              		.cfi_offset 3, -16
 425              		.cfi_offset 4, -12
 426              		.cfi_offset 5, -8
 427              		.cfi_offset 14, -4
 287:../Middlewares/stedgeai-lib/Npu/ll_aton/ll_aton_stai_internal.c ****   LL_ATON_Cache_NPU_Clean_Range(virtual_addr, size);
 428              		.loc 1 287 1 view .LVU102
 429 0002 0446     		mov	r4, r0
 430              	.LVL27:
 287:../Middlewares/stedgeai-lib/Npu/ll_aton/ll_aton_stai_internal.c ****   LL_ATON_Cache_NPU_Clean_Range(virtual_addr, size);
ARM GAS  /tmp/ccPm72kM.s 			page 15


 431              		.loc 1 287 1 view .LVU103
 432 0004 0D46     		mov	r5, r1
 433              	.LVL28:
 434              	.LBB25:
 435              	.LBI25:
  78:../Middlewares/stedgeai-lib/Npu/ll_aton/ll_aton_caches_interface.h ****   }
  79:../Middlewares/stedgeai-lib/Npu/ll_aton/ll_aton_caches_interface.h **** 
  80:../Middlewares/stedgeai-lib/Npu/ll_aton/ll_aton_caches_interface.h ****   /**
  81:../Middlewares/stedgeai-lib/Npu/ll_aton/ll_aton_caches_interface.h ****    * @brief perform MCU cache clean & invalidate maintenance operation on an address range
  82:../Middlewares/stedgeai-lib/Npu/ll_aton/ll_aton_caches_interface.h ****    * @details whenever the content of a buffer is changed by the application (which is especially t
  83:../Middlewares/stedgeai-lib/Npu/ll_aton/ll_aton_caches_interface.h ****    *          buffers) cache maintenance MUST be taken into account before being able to run the ne
  84:../Middlewares/stedgeai-lib/Npu/ll_aton/ll_aton_caches_interface.h ****    * @param[in] virtual_addr start address (host-side/virtual) of address range
  85:../Middlewares/stedgeai-lib/Npu/ll_aton/ll_aton_caches_interface.h ****    * @param[in] size size of address range
  86:../Middlewares/stedgeai-lib/Npu/ll_aton/ll_aton_caches_interface.h ****    *
  87:../Middlewares/stedgeai-lib/Npu/ll_aton/ll_aton_caches_interface.h ****    * @note the address range should fulfill alignment constraints with respect to the MCU cache lin
  88:../Middlewares/stedgeai-lib/Npu/ll_aton/ll_aton_caches_interface.h ****    *       for both its `address` & `size` (to better correspond to what this operation will actual
  89:../Middlewares/stedgeai-lib/Npu/ll_aton/ll_aton_caches_interface.h ****    * @note this function is intended to handle the case where a buffer has been filled by the MCU/p
  90:../Middlewares/stedgeai-lib/Npu/ll_aton/ll_aton_caches_interface.h ****    *       (such passing thru the MCU cache) and is gonna to be modified immediately afterwards by-
  91:../Middlewares/stedgeai-lib/Npu/ll_aton/ll_aton_caches_interface.h ****    *       the MCU/processor cache (e.g. using a DMA). It should be called AFTER that the buffer ha
  92:../Middlewares/stedgeai-lib/Npu/ll_aton/ll_aton_caches_interface.h ****    *       filled
  93:../Middlewares/stedgeai-lib/Npu/ll_aton/ll_aton_caches_interface.h ****    */
  94:../Middlewares/stedgeai-lib/Npu/ll_aton/ll_aton_caches_interface.h ****   static inline void LL_ATON_Cache_MCU_Clean_Invalidate_Range(uintptr_t virtual_addr, uint32_t size
  95:../Middlewares/stedgeai-lib/Npu/ll_aton/ll_aton_caches_interface.h ****   {
  96:../Middlewares/stedgeai-lib/Npu/ll_aton/ll_aton_caches_interface.h ****     LL_ATON_OSAL_LOCK_MCU_CACHE();
  97:../Middlewares/stedgeai-lib/Npu/ll_aton/ll_aton_caches_interface.h ****     mcu_cache_clean_invalidate_range(virtual_addr, virtual_addr + size);
  98:../Middlewares/stedgeai-lib/Npu/ll_aton/ll_aton_caches_interface.h ****     LL_ATON_OSAL_UNLOCK_MCU_CACHE();
  99:../Middlewares/stedgeai-lib/Npu/ll_aton/ll_aton_caches_interface.h ****   }
 100:../Middlewares/stedgeai-lib/Npu/ll_aton/ll_aton_caches_interface.h **** 
 101:../Middlewares/stedgeai-lib/Npu/ll_aton/ll_aton_caches_interface.h ****   /*** NPU cache maintenance functions ***/
 102:../Middlewares/stedgeai-lib/Npu/ll_aton/ll_aton_caches_interface.h **** 
 103:../Middlewares/stedgeai-lib/Npu/ll_aton/ll_aton_caches_interface.h **** #include "npu_cache.h"
 104:../Middlewares/stedgeai-lib/Npu/ll_aton/ll_aton_caches_interface.h **** 
 105:../Middlewares/stedgeai-lib/Npu/ll_aton/ll_aton_caches_interface.h ****   /**
 106:../Middlewares/stedgeai-lib/Npu/ll_aton/ll_aton_caches_interface.h ****    * @brief perform NPU cache clean maintenance operation on an address range
 107:../Middlewares/stedgeai-lib/Npu/ll_aton/ll_aton_caches_interface.h ****    * @details whenever the content of a buffer is changed by the application (which is especially t
 108:../Middlewares/stedgeai-lib/Npu/ll_aton/ll_aton_caches_interface.h ****    *          buffers) cache maintenance MUST be taken into account before being able to run the ne
 109:../Middlewares/stedgeai-lib/Npu/ll_aton/ll_aton_caches_interface.h ****    * @param[in] address start address (host-side/virtual) of address range
 110:../Middlewares/stedgeai-lib/Npu/ll_aton/ll_aton_caches_interface.h ****    * @param[in] size size of address range
 111:../Middlewares/stedgeai-lib/Npu/ll_aton/ll_aton_caches_interface.h ****    *
 112:../Middlewares/stedgeai-lib/Npu/ll_aton/ll_aton_caches_interface.h ****    * @note this cache maintenance function needs only be called for buffers which are NPU cacheable
 113:../Middlewares/stedgeai-lib/Npu/ll_aton/ll_aton_caches_interface.h ****    * @note the address range should fulfill alignment constraints with respect to the NPU cache lin
 114:../Middlewares/stedgeai-lib/Npu/ll_aton/ll_aton_caches_interface.h ****    *       for both its `address` & `size` (to better correspond to what this operation will actual
 115:../Middlewares/stedgeai-lib/Npu/ll_aton/ll_aton_caches_interface.h ****    * @note this function is intended to handle the case where a buffer has been filled passing thru
 116:../Middlewares/stedgeai-lib/Npu/ll_aton/ll_aton_caches_interface.h ****    *       and should be called AFTER that the buffer has been filled
 117:../Middlewares/stedgeai-lib/Npu/ll_aton/ll_aton_caches_interface.h ****    */
 118:../Middlewares/stedgeai-lib/Npu/ll_aton/ll_aton_caches_interface.h ****   static inline void LL_ATON_Cache_NPU_Clean_Range(uintptr_t virtual_addr, uint32_t size)
 436              		.loc 2 118 22 is_stmt 1 view .LVU104
 437              	.LBB26:
 119:../Middlewares/stedgeai-lib/Npu/ll_aton/ll_aton_caches_interface.h ****   {
 120:../Middlewares/stedgeai-lib/Npu/ll_aton/ll_aton_caches_interface.h ****     LL_ATON_OSAL_LOCK_NPU_CACHE();
 438              		.loc 2 120 5 view .LVU105
 439 0006 FFF7FEFF 		bl	aton_osal_threadx_lock
 440              	.LVL29:
 121:../Middlewares/stedgeai-lib/Npu/ll_aton/ll_aton_caches_interface.h ****     npu_cache_clean_range(ATON_LIB_VIRTUAL_TO_PHYSICAL_ADDR(virtual_addr),
 441              		.loc 2 121 5 view .LVU106
 442 000a 2046     		mov	r0, r4
 443 000c 6119     		adds	r1, r4, r5
ARM GAS  /tmp/ccPm72kM.s 			page 16


 444 000e FFF7FEFF 		bl	npu_cache_clean_range
 445              	.LVL30:
 122:../Middlewares/stedgeai-lib/Npu/ll_aton/ll_aton_caches_interface.h ****                           ATON_LIB_VIRTUAL_TO_PHYSICAL_ADDR(virtual_addr + size));
 123:../Middlewares/stedgeai-lib/Npu/ll_aton/ll_aton_caches_interface.h ****     LL_ATON_OSAL_UNLOCK_NPU_CACHE();
 446              		.loc 2 123 5 view .LVU107
 447 0012 FFF7FEFF 		bl	aton_osal_threadx_unlock
 448              	.LVL31:
 449              		.loc 2 123 5 is_stmt 0 view .LVU108
 450              	.LBE26:
 451              	.LBE25:
 289:../Middlewares/stedgeai-lib/Npu/ll_aton/ll_aton_stai_internal.c ****   return STAI_SUCCESS;
 452              		.loc 1 289 3 is_stmt 1 view .LVU109
 290:../Middlewares/stedgeai-lib/Npu/ll_aton/ll_aton_stai_internal.c **** }
 453              		.loc 1 290 1 is_stmt 0 view .LVU110
 454 0016 0020     		movs	r0, #0
 455 0018 38BD     		pop	{r3, r4, r5, pc}
 456              		.loc 1 290 1 view .LVU111
 457              		.cfi_endproc
 458              	.LFE355:
 460              		.section	.text.stai_ext_cache_npu_clean_invalidate_range,"ax",%progbits
 461              		.align	1
 462              		.global	stai_ext_cache_npu_clean_invalidate_range
 463              		.syntax unified
 464              		.thumb
 465              		.thumb_func
 467              	stai_ext_cache_npu_clean_invalidate_range:
 468              	.LVL32:
 469              	.LFB356:
 291:../Middlewares/stedgeai-lib/Npu/ll_aton/ll_aton_stai_internal.c **** 
 292:../Middlewares/stedgeai-lib/Npu/ll_aton/ll_aton_stai_internal.c **** STAI_API_ENTRY
 293:../Middlewares/stedgeai-lib/Npu/ll_aton/ll_aton_stai_internal.c **** stai_return_code stai_ext_cache_npu_clean_invalidate_range(uintptr_t virtual_addr, stai_size size)
 294:../Middlewares/stedgeai-lib/Npu/ll_aton/ll_aton_stai_internal.c **** {
 470              		.loc 1 294 1 is_stmt 1 view -0
 471              		.cfi_startproc
 472              		@ args = 0, pretend = 0, frame = 0
 473              		@ frame_needed = 0, uses_anonymous_args = 0
 295:../Middlewares/stedgeai-lib/Npu/ll_aton/ll_aton_stai_internal.c ****   /* NOTE: The ATON NPU cache does not provide a pure invalidate-range function, but only a clean-i
 296:../Middlewares/stedgeai-lib/Npu/ll_aton/ll_aton_stai_internal.c ****      function! One has to take this into account when using `stai_ext_cache_npu_clean_invalidate_ra
 297:../Middlewares/stedgeai-lib/Npu/ll_aton/ll_aton_stai_internal.c ****   LL_ATON_Cache_NPU_Clean_Invalidate_Range(virtual_addr, size);
 474              		.loc 1 297 3 view .LVU113
 294:../Middlewares/stedgeai-lib/Npu/ll_aton/ll_aton_stai_internal.c ****   /* NOTE: The ATON NPU cache does not provide a pure invalidate-range function, but only a clean-i
 475              		.loc 1 294 1 is_stmt 0 view .LVU114
 476 0000 38B5     		push	{r3, r4, r5, lr}
 477              		.cfi_def_cfa_offset 16
 478              		.cfi_offset 3, -16
 479              		.cfi_offset 4, -12
 480              		.cfi_offset 5, -8
 481              		.cfi_offset 14, -4
 294:../Middlewares/stedgeai-lib/Npu/ll_aton/ll_aton_stai_internal.c ****   /* NOTE: The ATON NPU cache does not provide a pure invalidate-range function, but only a clean-i
 482              		.loc 1 294 1 view .LVU115
 483 0002 0446     		mov	r4, r0
 484              	.LVL33:
 294:../Middlewares/stedgeai-lib/Npu/ll_aton/ll_aton_stai_internal.c ****   /* NOTE: The ATON NPU cache does not provide a pure invalidate-range function, but only a clean-i
 485              		.loc 1 294 1 view .LVU116
 486 0004 0D46     		mov	r5, r1
 487              	.LVL34:
 488              	.LBB29:
ARM GAS  /tmp/ccPm72kM.s 			page 17


 489              	.LBI29:
 124:../Middlewares/stedgeai-lib/Npu/ll_aton/ll_aton_caches_interface.h ****   }
 125:../Middlewares/stedgeai-lib/Npu/ll_aton/ll_aton_caches_interface.h **** 
 126:../Middlewares/stedgeai-lib/Npu/ll_aton/ll_aton_caches_interface.h ****   /**
 127:../Middlewares/stedgeai-lib/Npu/ll_aton/ll_aton_caches_interface.h ****    * @brief perform NPU cache clean & invalidate maintenance operation on an address range
 128:../Middlewares/stedgeai-lib/Npu/ll_aton/ll_aton_caches_interface.h ****    * @details whenever the content of a buffer is changed by the application (which is especially t
 129:../Middlewares/stedgeai-lib/Npu/ll_aton/ll_aton_caches_interface.h ****    *          buffers) cache maintenance MUST be taken into account before being able to run the ne
 130:../Middlewares/stedgeai-lib/Npu/ll_aton/ll_aton_caches_interface.h ****    * @param[in] address start address (host-side/virtual) of address range
 131:../Middlewares/stedgeai-lib/Npu/ll_aton/ll_aton_caches_interface.h ****    * @param[in] size size of address range
 132:../Middlewares/stedgeai-lib/Npu/ll_aton/ll_aton_caches_interface.h ****    *
 133:../Middlewares/stedgeai-lib/Npu/ll_aton/ll_aton_caches_interface.h ****    * @note this cache maintenance function needs only be called for buffers which are NPU cacheable
 134:../Middlewares/stedgeai-lib/Npu/ll_aton/ll_aton_caches_interface.h ****    * @note the address range should fulfill alignment constraints with respect to the NPU cache lin
 135:../Middlewares/stedgeai-lib/Npu/ll_aton/ll_aton_caches_interface.h ****    *       for both its `address` & `size` (to better correspond to what this operation will actual
 136:../Middlewares/stedgeai-lib/Npu/ll_aton/ll_aton_caches_interface.h ****    * @note this function is intended to handle the case where a buffer is NPU cacheable and has bee
 137:../Middlewares/stedgeai-lib/Npu/ll_aton/ll_aton_caches_interface.h ****    *       the NPU cache and should be called BEFORE the buffer gets filled
 138:../Middlewares/stedgeai-lib/Npu/ll_aton/ll_aton_caches_interface.h ****    * @note the NPU cache provides only a "clean & invalidate range" (and not a - pure - "invalidate
 139:../Middlewares/stedgeai-lib/Npu/ll_aton/ll_aton_caches_interface.h ****    *       maintenance function which will be called by "stai_ext_cache_npu_clean_invalidate_range(
 140:../Middlewares/stedgeai-lib/Npu/ll_aton/ll_aton_caches_interface.h ****    *       even more important to call it BEFORE the buffer gets filled
 141:../Middlewares/stedgeai-lib/Npu/ll_aton/ll_aton_caches_interface.h ****    */
 142:../Middlewares/stedgeai-lib/Npu/ll_aton/ll_aton_caches_interface.h ****   static inline void LL_ATON_Cache_NPU_Clean_Invalidate_Range(uintptr_t virtual_addr, uint32_t size
 490              		.loc 2 142 22 is_stmt 1 view .LVU117
 491              	.LBB30:
 143:../Middlewares/stedgeai-lib/Npu/ll_aton/ll_aton_caches_interface.h ****   {
 144:../Middlewares/stedgeai-lib/Npu/ll_aton/ll_aton_caches_interface.h ****     /* NOTE: The ATON NPU cache does not provide a pure invalidate-range function, but only a clean
 145:../Middlewares/stedgeai-lib/Npu/ll_aton/ll_aton_caches_interface.h ****        function! One has to take this into account when using `stai_ext_cache_npu_clean_invalidate_
 146:../Middlewares/stedgeai-lib/Npu/ll_aton/ll_aton_caches_interface.h ****     LL_ATON_OSAL_LOCK_NPU_CACHE();
 492              		.loc 2 146 5 view .LVU118
 493 0006 FFF7FEFF 		bl	aton_osal_threadx_lock
 494              	.LVL35:
 147:../Middlewares/stedgeai-lib/Npu/ll_aton/ll_aton_caches_interface.h ****     npu_cache_clean_invalidate_range(ATON_LIB_VIRTUAL_TO_PHYSICAL_ADDR(virtual_addr),
 495              		.loc 2 147 5 view .LVU119
 496 000a 2046     		mov	r0, r4
 497 000c 6119     		adds	r1, r4, r5
 498 000e FFF7FEFF 		bl	npu_cache_clean_invalidate_range
 499              	.LVL36:
 148:../Middlewares/stedgeai-lib/Npu/ll_aton/ll_aton_caches_interface.h ****                                      ATON_LIB_VIRTUAL_TO_PHYSICAL_ADDR(virtual_addr + size));
 149:../Middlewares/stedgeai-lib/Npu/ll_aton/ll_aton_caches_interface.h ****     LL_ATON_OSAL_UNLOCK_NPU_CACHE();
 500              		.loc 2 149 5 view .LVU120
 501 0012 FFF7FEFF 		bl	aton_osal_threadx_unlock
 502              	.LVL37:
 503              		.loc 2 149 5 is_stmt 0 view .LVU121
 504              	.LBE30:
 505              	.LBE29:
 298:../Middlewares/stedgeai-lib/Npu/ll_aton/ll_aton_stai_internal.c ****   return STAI_SUCCESS;
 506              		.loc 1 298 3 is_stmt 1 view .LVU122
 299:../Middlewares/stedgeai-lib/Npu/ll_aton/ll_aton_stai_internal.c **** }
 507              		.loc 1 299 1 is_stmt 0 view .LVU123
 508 0016 0020     		movs	r0, #0
 509 0018 38BD     		pop	{r3, r4, r5, pc}
 510              		.loc 1 299 1 view .LVU124
 511              		.cfi_endproc
 512              	.LFE356:
 514              		.section	.text.stai_ext_wfe,"ax",%progbits
 515              		.align	1
 516              		.global	stai_ext_wfe
 517              		.syntax unified
 518              		.thumb
ARM GAS  /tmp/ccPm72kM.s 			page 18


 519              		.thumb_func
 521              	stai_ext_wfe:
 522              	.LFB357:
 300:../Middlewares/stedgeai-lib/Npu/ll_aton/ll_aton_stai_internal.c **** 
 301:../Middlewares/stedgeai-lib/Npu/ll_aton/ll_aton_stai_internal.c **** STAI_API_ENTRY
 302:../Middlewares/stedgeai-lib/Npu/ll_aton/ll_aton_stai_internal.c **** stai_return_code stai_ext_wfe(void)
 303:../Middlewares/stedgeai-lib/Npu/ll_aton/ll_aton_stai_internal.c **** {
 523              		.loc 1 303 1 is_stmt 1 view -0
 524              		.cfi_startproc
 525              		@ args = 0, pretend = 0, frame = 0
 526              		@ frame_needed = 0, uses_anonymous_args = 0
 304:../Middlewares/stedgeai-lib/Npu/ll_aton/ll_aton_stai_internal.c ****   LL_ATON_OSAL_WFE();
 527              		.loc 1 304 3 view .LVU126
 303:../Middlewares/stedgeai-lib/Npu/ll_aton/ll_aton_stai_internal.c ****   LL_ATON_OSAL_WFE();
 528              		.loc 1 303 1 is_stmt 0 view .LVU127
 529 0000 08B5     		push	{r3, lr}
 530              		.cfi_def_cfa_offset 8
 531              		.cfi_offset 3, -8
 532              		.cfi_offset 14, -4
 533              		.loc 1 304 3 view .LVU128
 534 0002 FFF7FEFF 		bl	aton_osal_threadx_wfe
 535              	.LVL38:
 305:../Middlewares/stedgeai-lib/Npu/ll_aton/ll_aton_stai_internal.c ****   return STAI_SUCCESS;
 536              		.loc 1 305 3 is_stmt 1 view .LVU129
 306:../Middlewares/stedgeai-lib/Npu/ll_aton/ll_aton_stai_internal.c **** }
 537              		.loc 1 306 1 is_stmt 0 view .LVU130
 538 0006 0020     		movs	r0, #0
 539 0008 08BD     		pop	{r3, pc}
 540              		.cfi_endproc
 541              	.LFE357:
 543              		.section	.text.__ll_aton_stai_init_network_instance,"ax",%progbits
 544              		.align	1
 545              		.global	__ll_aton_stai_init_network_instance
 546              		.syntax unified
 547              		.thumb
 548              		.thumb_func
 550              	__ll_aton_stai_init_network_instance:
 551              	.LVL39:
 552              	.LFB358:
 307:../Middlewares/stedgeai-lib/Npu/ll_aton/ll_aton_stai_internal.c **** 
 308:../Middlewares/stedgeai-lib/Npu/ll_aton/ll_aton_stai_internal.c **** /*****************************************************************************/
 309:../Middlewares/stedgeai-lib/Npu/ll_aton/ll_aton_stai_internal.c **** /**  Internal stai APIs                                                     **/
 310:../Middlewares/stedgeai-lib/Npu/ll_aton/ll_aton_stai_internal.c **** /*****************************************************************************/
 311:../Middlewares/stedgeai-lib/Npu/ll_aton/ll_aton_stai_internal.c **** STAI_INTERNAL_ENTRY
 312:../Middlewares/stedgeai-lib/Npu/ll_aton/ll_aton_stai_internal.c **** void __ll_aton_stai_init_network_instance(_stai_aton_context *nn_context)
 313:../Middlewares/stedgeai-lib/Npu/ll_aton/ll_aton_stai_internal.c **** {
 553              		.loc 1 313 1 is_stmt 1 view -0
 554              		.cfi_startproc
 555              		@ args = 0, pretend = 0, frame = 0
 556              		@ frame_needed = 0, uses_anonymous_args = 0
 557              		@ link register save eliminated.
 314:../Middlewares/stedgeai-lib/Npu/ll_aton/ll_aton_stai_internal.c ****   STAI_ASSERT((nn_context != NULL) && (nn_context->network_instance.network != NULL)); // may never
 558              		.loc 1 314 3 view .LVU132
 559              		.loc 1 314 3 view .LVU133
 560              		.loc 1 314 3 view .LVU134
 561              		.loc 1 314 86 view .LVU135
 315:../Middlewares/stedgeai-lib/Npu/ll_aton/ll_aton_stai_internal.c **** 
ARM GAS  /tmp/ccPm72kM.s 			page 19


 316:../Middlewares/stedgeai-lib/Npu/ll_aton/ll_aton_stai_internal.c ****   NN_Instance_TypeDef *nn_instance_ptr = &nn_context->network_instance;
 562              		.loc 1 316 3 view .LVU136
 317:../Middlewares/stedgeai-lib/Npu/ll_aton/ll_aton_stai_internal.c ****   LL_ATON_RT_Init_Network(nn_instance_ptr);
 563              		.loc 1 317 3 view .LVU137
 564 0000 FFF7FEBF 		b	LL_ATON_RT_Init_Network
 565              	.LVL40:
 566              		.loc 1 317 3 is_stmt 0 view .LVU138
 567              		.cfi_endproc
 568              	.LFE358:
 570              		.section	.text.__ll_aton_stai_deinit_network_instance,"ax",%progbits
 571              		.align	1
 572              		.global	__ll_aton_stai_deinit_network_instance
 573              		.syntax unified
 574              		.thumb
 575              		.thumb_func
 577              	__ll_aton_stai_deinit_network_instance:
 578              	.LVL41:
 579              	.LFB359:
 318:../Middlewares/stedgeai-lib/Npu/ll_aton/ll_aton_stai_internal.c **** }
 319:../Middlewares/stedgeai-lib/Npu/ll_aton/ll_aton_stai_internal.c **** 
 320:../Middlewares/stedgeai-lib/Npu/ll_aton/ll_aton_stai_internal.c **** STAI_INTERNAL_ENTRY
 321:../Middlewares/stedgeai-lib/Npu/ll_aton/ll_aton_stai_internal.c **** void __ll_aton_stai_deinit_network_instance(_stai_aton_context *nn_context)
 322:../Middlewares/stedgeai-lib/Npu/ll_aton/ll_aton_stai_internal.c **** {
 580              		.loc 1 322 1 is_stmt 1 view -0
 581              		.cfi_startproc
 582              		@ args = 0, pretend = 0, frame = 0
 583              		@ frame_needed = 0, uses_anonymous_args = 0
 584              		@ link register save eliminated.
 323:../Middlewares/stedgeai-lib/Npu/ll_aton/ll_aton_stai_internal.c ****   STAI_ASSERT((nn_context != NULL) && (nn_context->network_instance.network != NULL)); // may never
 585              		.loc 1 323 3 view .LVU140
 586              		.loc 1 323 3 view .LVU141
 587              		.loc 1 323 3 view .LVU142
 588              		.loc 1 323 86 view .LVU143
 324:../Middlewares/stedgeai-lib/Npu/ll_aton/ll_aton_stai_internal.c **** 
 325:../Middlewares/stedgeai-lib/Npu/ll_aton/ll_aton_stai_internal.c ****   NN_Instance_TypeDef *nn_instance_ptr = &nn_context->network_instance;
 589              		.loc 1 325 3 view .LVU144
 326:../Middlewares/stedgeai-lib/Npu/ll_aton/ll_aton_stai_internal.c ****   LL_ATON_RT_DeInit_Network(nn_instance_ptr);
 590              		.loc 1 326 3 view .LVU145
 591 0000 FFF7FEBF 		b	LL_ATON_RT_DeInit_Network
 592              	.LVL42:
 593              		.loc 1 326 3 is_stmt 0 view .LVU146
 594              		.cfi_endproc
 595              	.LFE359:
 597              		.section	.text.__ll_aton_stai_set_execution_status,"ax",%progbits
 598              		.align	1
 599              		.global	__ll_aton_stai_set_execution_status
 600              		.syntax unified
 601              		.thumb
 602              		.thumb_func
 604              	__ll_aton_stai_set_execution_status:
 605              	.LVL43:
 606              	.LFB360:
 327:../Middlewares/stedgeai-lib/Npu/ll_aton/ll_aton_stai_internal.c **** }
 328:../Middlewares/stedgeai-lib/Npu/ll_aton/ll_aton_stai_internal.c **** 
 329:../Middlewares/stedgeai-lib/Npu/ll_aton/ll_aton_stai_internal.c **** STAI_INTERNAL_ENTRY
 330:../Middlewares/stedgeai-lib/Npu/ll_aton/ll_aton_stai_internal.c **** void __ll_aton_stai_set_execution_status(LL_ATON_RT_RetValues_t status, _stai_aton_context *nn_cont
 331:../Middlewares/stedgeai-lib/Npu/ll_aton/ll_aton_stai_internal.c **** {
ARM GAS  /tmp/ccPm72kM.s 			page 20


 607              		.loc 1 331 1 is_stmt 1 view -0
 608              		.cfi_startproc
 609              		@ args = 0, pretend = 0, frame = 0
 610              		@ frame_needed = 0, uses_anonymous_args = 0
 611              		@ link register save eliminated.
 332:../Middlewares/stedgeai-lib/Npu/ll_aton/ll_aton_stai_internal.c ****   STAI_ASSERT(nn_context != NULL);
 612              		.loc 1 332 3 view .LVU148
 613              		.loc 1 332 3 view .LVU149
 614              		.loc 1 332 3 view .LVU150
 615              		.loc 1 332 34 view .LVU151
 333:../Middlewares/stedgeai-lib/Npu/ll_aton/ll_aton_stai_internal.c **** 
 334:../Middlewares/stedgeai-lib/Npu/ll_aton/ll_aton_stai_internal.c ****   switch (status)
 616              		.loc 1 334 3 view .LVU152
 617 0000 0128     		cmp	r0, #1
 618 0002 05D0     		beq	.L31
 619 0004 0228     		cmp	r0, #2
 620 0006 05D0     		beq	.L32
 621 0008 08B9     		cbnz	r0, .L30
 335:../Middlewares/stedgeai-lib/Npu/ll_aton/ll_aton_stai_internal.c ****   {
 336:../Middlewares/stedgeai-lib/Npu/ll_aton/ll_aton_stai_internal.c ****   case LL_ATON_RT_NO_WFE:
 337:../Middlewares/stedgeai-lib/Npu/ll_aton/ll_aton_stai_internal.c ****     nn_context->exec_status = STAI_RUNNING_NO_WFE;
 622              		.loc 1 337 5 view .LVU153
 623              		.loc 1 337 29 is_stmt 0 view .LVU154
 624 000a 1023     		movs	r3, #16
 625              	.L34:
 338:../Middlewares/stedgeai-lib/Npu/ll_aton/ll_aton_stai_internal.c ****     break;
 339:../Middlewares/stedgeai-lib/Npu/ll_aton/ll_aton_stai_internal.c ****   case LL_ATON_RT_WFE:
 340:../Middlewares/stedgeai-lib/Npu/ll_aton/ll_aton_stai_internal.c ****     nn_context->exec_status = STAI_RUNNING_WFE;
 341:../Middlewares/stedgeai-lib/Npu/ll_aton/ll_aton_stai_internal.c ****     break;
 342:../Middlewares/stedgeai-lib/Npu/ll_aton/ll_aton_stai_internal.c ****   case LL_ATON_RT_DONE:
 343:../Middlewares/stedgeai-lib/Npu/ll_aton/ll_aton_stai_internal.c ****     nn_context->exec_status = STAI_DONE;
 626              		.loc 1 343 29 view .LVU155
 627 000c 0B63     		str	r3, [r1, #48]
 344:../Middlewares/stedgeai-lib/Npu/ll_aton/ll_aton_stai_internal.c ****     break;
 628              		.loc 1 344 5 is_stmt 1 view .LVU156
 629              	.L30:
 345:../Middlewares/stedgeai-lib/Npu/ll_aton/ll_aton_stai_internal.c ****   default:
 346:../Middlewares/stedgeai-lib/Npu/ll_aton/ll_aton_stai_internal.c ****     STAI_ASSERT(false);
 347:../Middlewares/stedgeai-lib/Npu/ll_aton/ll_aton_stai_internal.c ****     break;
 348:../Middlewares/stedgeai-lib/Npu/ll_aton/ll_aton_stai_internal.c ****   }
 349:../Middlewares/stedgeai-lib/Npu/ll_aton/ll_aton_stai_internal.c **** }
 630              		.loc 1 349 1 is_stmt 0 view .LVU157
 631 000e 7047     		bx	lr
 632              	.L31:
 340:../Middlewares/stedgeai-lib/Npu/ll_aton/ll_aton_stai_internal.c ****     break;
 633              		.loc 1 340 5 is_stmt 1 view .LVU158
 340:../Middlewares/stedgeai-lib/Npu/ll_aton/ll_aton_stai_internal.c ****     break;
 634              		.loc 1 340 29 is_stmt 0 view .LVU159
 635 0010 1123     		movs	r3, #17
 636 0012 FBE7     		b	.L34
 637              	.L32:
 343:../Middlewares/stedgeai-lib/Npu/ll_aton/ll_aton_stai_internal.c ****     break;
 638              		.loc 1 343 5 is_stmt 1 view .LVU160
 343:../Middlewares/stedgeai-lib/Npu/ll_aton/ll_aton_stai_internal.c ****     break;
 639              		.loc 1 343 29 is_stmt 0 view .LVU161
 640 0014 1223     		movs	r3, #18
 641 0016 F9E7     		b	.L34
ARM GAS  /tmp/ccPm72kM.s 			page 21


 642              		.cfi_endproc
 643              	.LFE360:
 645              		.section	.text.__ll_aton_stai_get_execution_status,"ax",%progbits
 646              		.align	1
 647              		.global	__ll_aton_stai_get_execution_status
 648              		.syntax unified
 649              		.thumb
 650              		.thumb_func
 652              	__ll_aton_stai_get_execution_status:
 653              	.LVL44:
 654              	.LFB361:
 350:../Middlewares/stedgeai-lib/Npu/ll_aton/ll_aton_stai_internal.c **** 
 351:../Middlewares/stedgeai-lib/Npu/ll_aton/ll_aton_stai_internal.c **** STAI_INTERNAL_ENTRY
 352:../Middlewares/stedgeai-lib/Npu/ll_aton/ll_aton_stai_internal.c **** stai_return_code __ll_aton_stai_get_execution_status(_stai_aton_context *nn_context)
 353:../Middlewares/stedgeai-lib/Npu/ll_aton/ll_aton_stai_internal.c **** {
 655              		.loc 1 353 1 is_stmt 1 view -0
 656              		.cfi_startproc
 657              		@ args = 0, pretend = 0, frame = 0
 658              		@ frame_needed = 0, uses_anonymous_args = 0
 659              		@ link register save eliminated.
 354:../Middlewares/stedgeai-lib/Npu/ll_aton/ll_aton_stai_internal.c ****   STAI_ASSERT(nn_context != NULL);
 660              		.loc 1 354 3 view .LVU163
 661              		.loc 1 354 3 view .LVU164
 662              		.loc 1 354 3 view .LVU165
 663              		.loc 1 354 34 view .LVU166
 355:../Middlewares/stedgeai-lib/Npu/ll_aton/ll_aton_stai_internal.c ****   return nn_context->exec_status;
 664              		.loc 1 355 3 view .LVU167
 356:../Middlewares/stedgeai-lib/Npu/ll_aton/ll_aton_stai_internal.c **** }
 665              		.loc 1 356 1 is_stmt 0 view .LVU168
 666 0000 006B     		ldr	r0, [r0, #48]
 667              	.LVL45:
 668              		.loc 1 356 1 view .LVU169
 669 0002 7047     		bx	lr
 670              		.cfi_endproc
 671              	.LFE361:
 673              		.section	.text.__ll_aton_stai_reset,"ax",%progbits
 674              		.align	1
 675              		.global	__ll_aton_stai_reset
 676              		.syntax unified
 677              		.thumb
 678              		.thumb_func
 680              	__ll_aton_stai_reset:
 681              	.LVL46:
 682              	.LFB363:
 357:../Middlewares/stedgeai-lib/Npu/ll_aton/ll_aton_stai_internal.c **** 
 358:../Middlewares/stedgeai-lib/Npu/ll_aton/ll_aton_stai_internal.c **** STAI_INTERNAL_ENTRY
 359:../Middlewares/stedgeai-lib/Npu/ll_aton/ll_aton_stai_internal.c **** static void __ll_aton_stai_run_synchonously(NN_Instance_TypeDef *nn_instance)
 360:../Middlewares/stedgeai-lib/Npu/ll_aton/ll_aton_stai_internal.c **** {
 361:../Middlewares/stedgeai-lib/Npu/ll_aton/ll_aton_stai_internal.c ****   STAI_ASSERT(nn_instance != NULL);
 362:../Middlewares/stedgeai-lib/Npu/ll_aton/ll_aton_stai_internal.c ****   STAI_ASSERT(nn_instance->exec_state.current_epoch_block != NULL);
 363:../Middlewares/stedgeai-lib/Npu/ll_aton/ll_aton_stai_internal.c ****   _stai_aton_context *stai_nn_ctx =
 364:../Middlewares/stedgeai-lib/Npu/ll_aton/ll_aton_stai_internal.c ****       (_stai_aton_context *)((void *)nn_instance) - offsetof(_stai_aton_context, network_instance);
 365:../Middlewares/stedgeai-lib/Npu/ll_aton/ll_aton_stai_internal.c **** 
 366:../Middlewares/stedgeai-lib/Npu/ll_aton/ll_aton_stai_internal.c ****   LL_ATON_RT_RetValues_t ll_aton_rt_ret;
 367:../Middlewares/stedgeai-lib/Npu/ll_aton/ll_aton_stai_internal.c **** 
 368:../Middlewares/stedgeai-lib/Npu/ll_aton/ll_aton_stai_internal.c ****   do
 369:../Middlewares/stedgeai-lib/Npu/ll_aton/ll_aton_stai_internal.c ****   {
ARM GAS  /tmp/ccPm72kM.s 			page 22


 370:../Middlewares/stedgeai-lib/Npu/ll_aton/ll_aton_stai_internal.c ****     /* Execute first/next step of ATON runtime */
 371:../Middlewares/stedgeai-lib/Npu/ll_aton/ll_aton_stai_internal.c ****     ll_aton_rt_ret = LL_ATON_RT_RunEpochBlock(nn_instance);
 372:../Middlewares/stedgeai-lib/Npu/ll_aton/ll_aton_stai_internal.c ****     __ll_aton_stai_set_execution_status(ll_aton_rt_ret, stai_nn_ctx);
 373:../Middlewares/stedgeai-lib/Npu/ll_aton/ll_aton_stai_internal.c **** 
 374:../Middlewares/stedgeai-lib/Npu/ll_aton/ll_aton_stai_internal.c ****     /* Wait for next event */
 375:../Middlewares/stedgeai-lib/Npu/ll_aton/ll_aton_stai_internal.c ****     if (ll_aton_rt_ret == LL_ATON_RT_WFE)
 376:../Middlewares/stedgeai-lib/Npu/ll_aton/ll_aton_stai_internal.c ****     {
 377:../Middlewares/stedgeai-lib/Npu/ll_aton/ll_aton_stai_internal.c ****       LL_ATON_OSAL_WFE();
 378:../Middlewares/stedgeai-lib/Npu/ll_aton/ll_aton_stai_internal.c ****     }
 379:../Middlewares/stedgeai-lib/Npu/ll_aton/ll_aton_stai_internal.c ****   } while (ll_aton_rt_ret != LL_ATON_RT_DONE);
 380:../Middlewares/stedgeai-lib/Npu/ll_aton/ll_aton_stai_internal.c **** }
 381:../Middlewares/stedgeai-lib/Npu/ll_aton/ll_aton_stai_internal.c **** 
 382:../Middlewares/stedgeai-lib/Npu/ll_aton/ll_aton_stai_internal.c **** STAI_INTERNAL_ENTRY
 383:../Middlewares/stedgeai-lib/Npu/ll_aton/ll_aton_stai_internal.c **** stai_return_code __ll_aton_stai_reset(stai_network *network)
 384:../Middlewares/stedgeai-lib/Npu/ll_aton/ll_aton_stai_internal.c **** {
 683              		.loc 1 384 1 is_stmt 1 view -0
 684              		.cfi_startproc
 685              		@ args = 0, pretend = 0, frame = 0
 686              		@ frame_needed = 0, uses_anonymous_args = 0
 385:../Middlewares/stedgeai-lib/Npu/ll_aton/ll_aton_stai_internal.c ****   /* de-init network */
 386:../Middlewares/stedgeai-lib/Npu/ll_aton/ll_aton_stai_internal.c ****   __LL_ATON_STAI_ACQUIRE_INTERFACE(nn_i_ptr, network);
 687              		.loc 1 386 3 view .LVU171
 688              		.loc 1 386 3 view .LVU172
 689              	.LBB35:
 690              	.LBI35:
 691              		.file 3 "../Middlewares/stedgeai-lib/Npu/ll_aton/ll_aton_stai_internal.h"
   1:../Middlewares/stedgeai-lib/Npu/ll_aton/ll_aton_stai_internal.h **** /**
   2:../Middlewares/stedgeai-lib/Npu/ll_aton/ll_aton_stai_internal.h ****  ******************************************************************************
   3:../Middlewares/stedgeai-lib/Npu/ll_aton/ll_aton_stai_internal.h ****  * @file    ll_aton_stai_internal.h
   4:../Middlewares/stedgeai-lib/Npu/ll_aton/ll_aton_stai_internal.h ****  * @author  SRA Artificial Intelligence & Embedded Architectures
   5:../Middlewares/stedgeai-lib/Npu/ll_aton/ll_aton_stai_internal.h ****  * @brief   Implementation of ST.AI public & internal APIs for ATON
   6:../Middlewares/stedgeai-lib/Npu/ll_aton/ll_aton_stai_internal.h ****  ******************************************************************************
   7:../Middlewares/stedgeai-lib/Npu/ll_aton/ll_aton_stai_internal.h ****  * @attention
   8:../Middlewares/stedgeai-lib/Npu/ll_aton/ll_aton_stai_internal.h ****  *
   9:../Middlewares/stedgeai-lib/Npu/ll_aton/ll_aton_stai_internal.h ****  * Copyright (c) 2024 STMicroelectronics.
  10:../Middlewares/stedgeai-lib/Npu/ll_aton/ll_aton_stai_internal.h ****  * All rights reserved.
  11:../Middlewares/stedgeai-lib/Npu/ll_aton/ll_aton_stai_internal.h ****  *
  12:../Middlewares/stedgeai-lib/Npu/ll_aton/ll_aton_stai_internal.h ****  * This software is licensed under terms that can be found in the LICENSE file
  13:../Middlewares/stedgeai-lib/Npu/ll_aton/ll_aton_stai_internal.h ****  * in the root directory of this software component.
  14:../Middlewares/stedgeai-lib/Npu/ll_aton/ll_aton_stai_internal.h ****  * If no LICENSE file comes with this software, it is provided AS-IS.
  15:../Middlewares/stedgeai-lib/Npu/ll_aton/ll_aton_stai_internal.h ****  *
  16:../Middlewares/stedgeai-lib/Npu/ll_aton/ll_aton_stai_internal.h ****  ******************************************************************************
  17:../Middlewares/stedgeai-lib/Npu/ll_aton/ll_aton_stai_internal.h ****  */
  18:../Middlewares/stedgeai-lib/Npu/ll_aton/ll_aton_stai_internal.h **** 
  19:../Middlewares/stedgeai-lib/Npu/ll_aton/ll_aton_stai_internal.h **** #ifndef __LL_ATON_STAI_INTERNAL_H
  20:../Middlewares/stedgeai-lib/Npu/ll_aton/ll_aton_stai_internal.h **** #define __LL_ATON_STAI_INTERNAL_H
  21:../Middlewares/stedgeai-lib/Npu/ll_aton/ll_aton_stai_internal.h **** 
  22:../Middlewares/stedgeai-lib/Npu/ll_aton/ll_aton_stai_internal.h **** // ATON headers
  23:../Middlewares/stedgeai-lib/Npu/ll_aton/ll_aton_stai_internal.h **** #include "ll_aton_rt_user_api.h"
  24:../Middlewares/stedgeai-lib/Npu/ll_aton/ll_aton_stai_internal.h **** #include "ll_aton_util.h"
  25:../Middlewares/stedgeai-lib/Npu/ll_aton/ll_aton_stai_internal.h **** 
  26:../Middlewares/stedgeai-lib/Npu/ll_aton/ll_aton_stai_internal.h **** // ST.AI headers
  27:../Middlewares/stedgeai-lib/Npu/ll_aton/ll_aton_stai_internal.h **** #include "stai_aton_common.h"
  28:../Middlewares/stedgeai-lib/Npu/ll_aton/ll_aton_stai_internal.h **** 
  29:../Middlewares/stedgeai-lib/Npu/ll_aton/ll_aton_stai_internal.h **** #ifdef __cplusplus
  30:../Middlewares/stedgeai-lib/Npu/ll_aton/ll_aton_stai_internal.h **** extern "C"
  31:../Middlewares/stedgeai-lib/Npu/ll_aton/ll_aton_stai_internal.h **** {
ARM GAS  /tmp/ccPm72kM.s 			page 23


  32:../Middlewares/stedgeai-lib/Npu/ll_aton/ll_aton_stai_internal.h **** #endif
  33:../Middlewares/stedgeai-lib/Npu/ll_aton/ll_aton_stai_internal.h **** 
  34:../Middlewares/stedgeai-lib/Npu/ll_aton/ll_aton_stai_internal.h **** /*****************************************************************************/
  35:../Middlewares/stedgeai-lib/Npu/ll_aton/ll_aton_stai_internal.h **** #define STAI_INTERNAL_ENTRY /* STAI_INTERNAL_ENTRY */
  36:../Middlewares/stedgeai-lib/Npu/ll_aton/ll_aton_stai_internal.h **** #define STAI_SIZE(_size)    ((stai_size)(_size))
  37:../Middlewares/stedgeai-lib/Npu/ll_aton/ll_aton_stai_internal.h **** 
  38:../Middlewares/stedgeai-lib/Npu/ll_aton/ll_aton_stai_internal.h **** /*****************************************************************************/
  39:../Middlewares/stedgeai-lib/Npu/ll_aton/ll_aton_stai_internal.h **** #define STAI_INIT_BUFFER(_flags, _size, _address)                                                  
  40:../Middlewares/stedgeai-lib/Npu/ll_aton/ll_aton_stai_internal.h ****   {                                                                                                
  41:../Middlewares/stedgeai-lib/Npu/ll_aton/ll_aton_stai_internal.h ****     .size = (_size), .address = (uintptr_t)(_address), .flags = (_flags),                          
  42:../Middlewares/stedgeai-lib/Npu/ll_aton/ll_aton_stai_internal.h ****   }
  43:../Middlewares/stedgeai-lib/Npu/ll_aton/ll_aton_stai_internal.h **** 
  44:../Middlewares/stedgeai-lib/Npu/ll_aton/ll_aton_stai_internal.h **** #define STAI_INIT_TENSOR(_name, _flags, _fmt, _size_bytes, _shape, _scale, _zeropoint)             
  45:../Middlewares/stedgeai-lib/Npu/ll_aton/ll_aton_stai_internal.h ****   {                                                                                                
  46:../Middlewares/stedgeai-lib/Npu/ll_aton/ll_aton_stai_internal.h ****     .size_bytes = (_size_bytes), .flags = (_flags), .format = (stai_format)(_fmt), .shape = STAI_PA
  47:../Middlewares/stedgeai-lib/Npu/ll_aton/ll_aton_stai_internal.h ****     .scale = STAI_PACK(_scale), .zeropoint = STAI_PACK(_zeropoint), .name = (_name)                
  48:../Middlewares/stedgeai-lib/Npu/ll_aton/ll_aton_stai_internal.h ****   }
  49:../Middlewares/stedgeai-lib/Npu/ll_aton/ll_aton_stai_internal.h **** 
  50:../Middlewares/stedgeai-lib/Npu/ll_aton/ll_aton_stai_internal.h **** #define STAI_INIT_ARRAY(_size, _ptr)                                                               
  51:../Middlewares/stedgeai-lib/Npu/ll_aton/ll_aton_stai_internal.h ****   {                                                                                                
  52:../Middlewares/stedgeai-lib/Npu/ll_aton/ll_aton_stai_internal.h ****     .size = STAI_SIZE(_size), .data = STAI_PACK(_ptr)                                              
  53:../Middlewares/stedgeai-lib/Npu/ll_aton/ll_aton_stai_internal.h ****   }
  54:../Middlewares/stedgeai-lib/Npu/ll_aton/ll_aton_stai_internal.h **** 
  55:../Middlewares/stedgeai-lib/Npu/ll_aton/ll_aton_stai_internal.h **** #define STAI_CAST_ARRAY(_type, _size, _ptr)                                                        
  56:../Middlewares/stedgeai-lib/Npu/ll_aton/ll_aton_stai_internal.h ****   {                                                                                                
  57:../Middlewares/stedgeai-lib/Npu/ll_aton/ll_aton_stai_internal.h ****     .size = STAI_SIZE(_size), .data = (_type)STAI_PACK(_ptr)                                       
  58:../Middlewares/stedgeai-lib/Npu/ll_aton/ll_aton_stai_internal.h ****   }
  59:../Middlewares/stedgeai-lib/Npu/ll_aton/ll_aton_stai_internal.h **** 
  60:../Middlewares/stedgeai-lib/Npu/ll_aton/ll_aton_stai_internal.h **** #define STAI_DECLARE_ARRAY(_type, _size, _array_initializer)                                       
  61:../Middlewares/stedgeai-lib/Npu/ll_aton/ll_aton_stai_internal.h ****   {                                                                                                
  62:../Middlewares/stedgeai-lib/Npu/ll_aton/ll_aton_stai_internal.h ****     .size = STAI_SIZE(_size), .data = (_type[_size])STAI_PACK(_array_initializer)                  
  63:../Middlewares/stedgeai-lib/Npu/ll_aton/ll_aton_stai_internal.h ****   }
  64:../Middlewares/stedgeai-lib/Npu/ll_aton/ll_aton_stai_internal.h **** 
  65:../Middlewares/stedgeai-lib/Npu/ll_aton/ll_aton_stai_internal.h **** #define STAI_EMPTY_ARRAY()                                                                         
  66:../Middlewares/stedgeai-lib/Npu/ll_aton/ll_aton_stai_internal.h ****   {                                                                                                
  67:../Middlewares/stedgeai-lib/Npu/ll_aton/ll_aton_stai_internal.h ****     .size = 0, .data = NULL                                                                        
  68:../Middlewares/stedgeai-lib/Npu/ll_aton/ll_aton_stai_internal.h ****   }
  69:../Middlewares/stedgeai-lib/Npu/ll_aton/ll_aton_stai_internal.h **** 
  70:../Middlewares/stedgeai-lib/Npu/ll_aton/ll_aton_stai_internal.h **** #define STAI_INIT_VERSION(_major, _minor, _micro)                                                  
  71:../Middlewares/stedgeai-lib/Npu/ll_aton/ll_aton_stai_internal.h ****   {                                                                                                
  72:../Middlewares/stedgeai-lib/Npu/ll_aton/ll_aton_stai_internal.h ****     .major = (_major), .minor = (_minor), .micro = (_micro), .reserved = 0x0                       
  73:../Middlewares/stedgeai-lib/Npu/ll_aton/ll_aton_stai_internal.h ****   }
  74:../Middlewares/stedgeai-lib/Npu/ll_aton/ll_aton_stai_internal.h **** 
  75:../Middlewares/stedgeai-lib/Npu/ll_aton/ll_aton_stai_internal.h **** /*****************************************************************************/
  76:../Middlewares/stedgeai-lib/Npu/ll_aton/ll_aton_stai_internal.h **** /**  Internal ATON ST.AI APIs                                               **/
  77:../Middlewares/stedgeai-lib/Npu/ll_aton/ll_aton_stai_internal.h **** /*****************************************************************************/
  78:../Middlewares/stedgeai-lib/Npu/ll_aton/ll_aton_stai_internal.h **** 
  79:../Middlewares/stedgeai-lib/Npu/ll_aton/ll_aton_stai_internal.h **** /*****************************************************************************/
  80:../Middlewares/stedgeai-lib/Npu/ll_aton/ll_aton_stai_internal.h **** /**Macros **/
  81:../Middlewares/stedgeai-lib/Npu/ll_aton/ll_aton_stai_internal.h **** /* Set context error */
  82:../Middlewares/stedgeai-lib/Npu/ll_aton/ll_aton_stai_internal.h **** #define __LL_ATON_STAI_SET_1ST_CTX_ERROR_AND_RETURN(ctx, err)                                      
  83:../Middlewares/stedgeai-lib/Npu/ll_aton/ll_aton_stai_internal.h ****   do                                                                                               
  84:../Middlewares/stedgeai-lib/Npu/ll_aton/ll_aton_stai_internal.h ****   {                                                                                                
  85:../Middlewares/stedgeai-lib/Npu/ll_aton/ll_aton_stai_internal.h ****     /* check context handle */                                                                     
  86:../Middlewares/stedgeai-lib/Npu/ll_aton/ll_aton_stai_internal.h ****     if (!(ctx))                                                                                    
  87:../Middlewares/stedgeai-lib/Npu/ll_aton/ll_aton_stai_internal.h ****       return STAI_ERROR_NETWORK_INVALID_CONTEXT_HANDLE;                                            
  88:../Middlewares/stedgeai-lib/Npu/ll_aton/ll_aton_stai_internal.h ****                                                                                                    
ARM GAS  /tmp/ccPm72kM.s 			page 24


  89:../Middlewares/stedgeai-lib/Npu/ll_aton/ll_aton_stai_internal.h ****     if (((ctx)->first_error) < STAI_ERROR_GENERIC)                                                 
  90:../Middlewares/stedgeai-lib/Npu/ll_aton/ll_aton_stai_internal.h ****       (ctx)->first_error = (err);                                                                  
  91:../Middlewares/stedgeai-lib/Npu/ll_aton/ll_aton_stai_internal.h ****     return (err);                                                                                  
  92:../Middlewares/stedgeai-lib/Npu/ll_aton/ll_aton_stai_internal.h ****   } while (0)
  93:../Middlewares/stedgeai-lib/Npu/ll_aton/ll_aton_stai_internal.h **** 
  94:../Middlewares/stedgeai-lib/Npu/ll_aton/ll_aton_stai_internal.h **** /* check context & network interface handle */
  95:../Middlewares/stedgeai-lib/Npu/ll_aton/ll_aton_stai_internal.h **** #define __LL_ATON_STAI_ACQUIRE_INTERFACE(_net_interface, _network)                                 
  96:../Middlewares/stedgeai-lib/Npu/ll_aton/ll_aton_stai_internal.h ****   const NN_Interface_TypeDef *_net_interface = NULL;                                               
  97:../Middlewares/stedgeai-lib/Npu/ll_aton/ll_aton_stai_internal.h ****   stai_return_code _ret = __ll_aton_stai_check_context_network_handle(_network, &_net_interface);  
  98:../Middlewares/stedgeai-lib/Npu/ll_aton/ll_aton_stai_internal.h ****   if (_ret >= STAI_ERROR_GENERIC)                                                                  
  99:../Middlewares/stedgeai-lib/Npu/ll_aton/ll_aton_stai_internal.h ****     return _ret;
 100:../Middlewares/stedgeai-lib/Npu/ll_aton/ll_aton_stai_internal.h **** 
 101:../Middlewares/stedgeai-lib/Npu/ll_aton/ll_aton_stai_internal.h **** #define __LL_ATON_START_CONT_EXEC(_nn_instance)                                                    
 102:../Middlewares/stedgeai-lib/Npu/ll_aton/ll_aton_stai_internal.h ****   do                                                                                               
 103:../Middlewares/stedgeai-lib/Npu/ll_aton/ll_aton_stai_internal.h ****   {                                                                                                
 104:../Middlewares/stedgeai-lib/Npu/ll_aton/ll_aton_stai_internal.h ****     STAI_ASSERT((_nn_instance) != NULL);                                                           
 105:../Middlewares/stedgeai-lib/Npu/ll_aton/ll_aton_stai_internal.h ****     _stai_aton_context *_stai_nn_ctx =                                                             
 106:../Middlewares/stedgeai-lib/Npu/ll_aton/ll_aton_stai_internal.h ****         (_stai_aton_context *)((void *)(_nn_instance)) - offsetof(_stai_aton_context, network_insta
 107:../Middlewares/stedgeai-lib/Npu/ll_aton/ll_aton_stai_internal.h ****                                                                                                    
 108:../Middlewares/stedgeai-lib/Npu/ll_aton/ll_aton_stai_internal.h ****     /* start/continue execution */                                                                 
 109:../Middlewares/stedgeai-lib/Npu/ll_aton/ll_aton_stai_internal.h ****     __ll_aton_stai_set_execution_status(LL_ATON_RT_RunEpochBlock((_nn_instance)), _stai_nn_ctx);   
 110:../Middlewares/stedgeai-lib/Npu/ll_aton/ll_aton_stai_internal.h ****                                                                                                    
 111:../Middlewares/stedgeai-lib/Npu/ll_aton/ll_aton_stai_internal.h ****     /* get current execution status */                                                             
 112:../Middlewares/stedgeai-lib/Npu/ll_aton/ll_aton_stai_internal.h ****     stai_return_code current_exec_status = __ll_aton_stai_get_execution_status(_stai_nn_ctx);      
 113:../Middlewares/stedgeai-lib/Npu/ll_aton/ll_aton_stai_internal.h ****     return current_exec_status;                                                                    
 114:../Middlewares/stedgeai-lib/Npu/ll_aton/ll_aton_stai_internal.h ****   } while (0)
 115:../Middlewares/stedgeai-lib/Npu/ll_aton/ll_aton_stai_internal.h **** 
 116:../Middlewares/stedgeai-lib/Npu/ll_aton/ll_aton_stai_internal.h ****   /** Functions **/
 117:../Middlewares/stedgeai-lib/Npu/ll_aton/ll_aton_stai_internal.h ****   STAI_API_DECLARE_BEGIN
 118:../Middlewares/stedgeai-lib/Npu/ll_aton/ll_aton_stai_internal.h **** 
 119:../Middlewares/stedgeai-lib/Npu/ll_aton/ll_aton_stai_internal.h ****   STAI_INTERNAL_ENTRY
 120:../Middlewares/stedgeai-lib/Npu/ll_aton/ll_aton_stai_internal.h ****   static inline stai_return_code __ll_aton_stai_check_context_network_handle(stai_network *network,
 692              		.loc 3 120 34 view .LVU173
 693              	.LBB36:
 121:../Middlewares/stedgeai-lib/Npu/ll_aton/ll_aton_stai_internal.h ****                                                                              const NN_Interface_Typ
 122:../Middlewares/stedgeai-lib/Npu/ll_aton/ll_aton_stai_internal.h ****   {
 123:../Middlewares/stedgeai-lib/Npu/ll_aton/ll_aton_stai_internal.h ****     /* check context handle */
 124:../Middlewares/stedgeai-lib/Npu/ll_aton/ll_aton_stai_internal.h ****     if (!network)
 694              		.loc 3 124 5 view .LVU174
 695              	.LBE36:
 696              	.LBE35:
 384:../Middlewares/stedgeai-lib/Npu/ll_aton/ll_aton_stai_internal.c ****   /* de-init network */
 697              		.loc 1 384 1 is_stmt 0 view .LVU175
 698 0000 10B5     		push	{r4, lr}
 699              		.cfi_def_cfa_offset 8
 700              		.cfi_offset 4, -8
 701              		.cfi_offset 14, -4
 702              	.LBB39:
 703              	.LBB37:
 704              		.loc 3 124 8 view .LVU176
 705 0002 28B1     		cbz	r0, .L37
 125:../Middlewares/stedgeai-lib/Npu/ll_aton/ll_aton_stai_internal.h ****       return STAI_ERROR_NETWORK_INVALID_CONTEXT_HANDLE;
 126:../Middlewares/stedgeai-lib/Npu/ll_aton/ll_aton_stai_internal.h **** 
 127:../Middlewares/stedgeai-lib/Npu/ll_aton/ll_aton_stai_internal.h ****     /* check network handle */
 128:../Middlewares/stedgeai-lib/Npu/ll_aton/ll_aton_stai_internal.h ****     _stai_aton_context *context_ptr = (_stai_aton_context *)network;
 706              		.loc 3 128 5 is_stmt 1 view .LVU177
 707              	.LVL47:
ARM GAS  /tmp/ccPm72kM.s 			page 25


 129:../Middlewares/stedgeai-lib/Npu/ll_aton/ll_aton_stai_internal.h ****     const NN_Interface_TypeDef *nn_i_ptr = context_ptr->network_instance.network;
 708              		.loc 3 129 5 view .LVU178
 130:../Middlewares/stedgeai-lib/Npu/ll_aton/ll_aton_stai_internal.h ****     if (!nn_i_ptr)
 709              		.loc 3 130 5 view .LVU179
 710              		.loc 3 130 8 is_stmt 0 view .LVU180
 711 0004 0268     		ldr	r2, [r0]
 712 0006 52B9     		cbnz	r2, .L38
 131:../Middlewares/stedgeai-lib/Npu/ll_aton/ll_aton_stai_internal.h ****     {
 132:../Middlewares/stedgeai-lib/Npu/ll_aton/ll_aton_stai_internal.h ****       __LL_ATON_STAI_SET_1ST_CTX_ERROR_AND_RETURN(context_ptr, STAI_ERROR_NETWORK_INVALID_CONTEXT_H
 713              		.loc 3 132 7 is_stmt 1 view .LVU181
 714              		.loc 3 132 7 view .LVU182
 715              		.loc 3 132 7 discriminator 2 view .LVU183
 716 0008 426B     		ldr	r2, [r0, #52]
 717 000a B2F5003F 		cmp	r2, #131072
 718 000e 02D3     		bcc	.L39
 719              	.LVL48:
 720              	.L37:
 721              		.loc 3 132 7 is_stmt 0 discriminator 2 view .LVU184
 722              	.LBE37:
 723              	.LBE39:
 724              		.loc 1 386 3 discriminator 1 view .LVU185
 725 0010 4FF44030 		mov	r0, #196608
 726              	.LVL49:
 727              	.L36:
 387:../Middlewares/stedgeai-lib/Npu/ll_aton/ll_aton_stai_internal.c ****   LL_ATON_LIB_UNUSED(nn_i_ptr);
 388:../Middlewares/stedgeai-lib/Npu/ll_aton/ll_aton_stai_internal.c ****   _stai_aton_context *ctx = (_stai_aton_context *)network;
 389:../Middlewares/stedgeai-lib/Npu/ll_aton/ll_aton_stai_internal.c **** 
 390:../Middlewares/stedgeai-lib/Npu/ll_aton/ll_aton_stai_internal.c ****   if ((ctx->exec_status != STAI_DONE) && (ctx->exec_status != STAI_RUNNING_NO_WFE))
 391:../Middlewares/stedgeai-lib/Npu/ll_aton/ll_aton_stai_internal.c ****   {
 392:../Middlewares/stedgeai-lib/Npu/ll_aton/ll_aton_stai_internal.c ****     __LL_ATON_STAI_SET_1ST_CTX_ERROR_AND_RETURN(ctx, STAI_ERROR_NETWORK_STILL_RUNNING);
 393:../Middlewares/stedgeai-lib/Npu/ll_aton/ll_aton_stai_internal.c ****   }
 394:../Middlewares/stedgeai-lib/Npu/ll_aton/ll_aton_stai_internal.c **** 
 395:../Middlewares/stedgeai-lib/Npu/ll_aton/ll_aton_stai_internal.c ****   /* reset network */
 396:../Middlewares/stedgeai-lib/Npu/ll_aton/ll_aton_stai_internal.c ****   ctx->exec_status = STAI_SUCCESS;
 397:../Middlewares/stedgeai-lib/Npu/ll_aton/ll_aton_stai_internal.c ****   LL_ATON_RT_Reset_Network(&ctx->network_instance);
 398:../Middlewares/stedgeai-lib/Npu/ll_aton/ll_aton_stai_internal.c **** 
 399:../Middlewares/stedgeai-lib/Npu/ll_aton/ll_aton_stai_internal.c ****   return STAI_SUCCESS;
 400:../Middlewares/stedgeai-lib/Npu/ll_aton/ll_aton_stai_internal.c **** }
 728              		.loc 1 400 1 view .LVU186
 729 0014 10BD     		pop	{r4, pc}
 730              	.LVL50:
 731              	.L39:
 732              	.LBB40:
 733              	.LBB38:
 734              		.loc 3 132 7 is_stmt 1 discriminator 3 view .LVU187
 735 0016 4FF44032 		mov	r2, #196608
 736 001a 4263     		str	r2, [r0, #52]
 737              	.LVL51:
 738              		.loc 3 132 7 is_stmt 0 discriminator 3 view .LVU188
 739              	.LBE38:
 740              	.LBE40:
 386:../Middlewares/stedgeai-lib/Npu/ll_aton/ll_aton_stai_internal.c ****   LL_ATON_LIB_UNUSED(nn_i_ptr);
 741              		.loc 1 386 3 is_stmt 1 discriminator 1 view .LVU189
 742 001c F8E7     		b	.L37
 743              	.LVL52:
 744              	.L38:
 386:../Middlewares/stedgeai-lib/Npu/ll_aton/ll_aton_stai_internal.c ****   LL_ATON_LIB_UNUSED(nn_i_ptr);
ARM GAS  /tmp/ccPm72kM.s 			page 26


 745              		.loc 1 386 3 discriminator 1 view .LVU190
 386:../Middlewares/stedgeai-lib/Npu/ll_aton/ll_aton_stai_internal.c ****   LL_ATON_LIB_UNUSED(nn_i_ptr);
 746              		.loc 1 386 54 view .LVU191
 387:../Middlewares/stedgeai-lib/Npu/ll_aton/ll_aton_stai_internal.c ****   LL_ATON_LIB_UNUSED(nn_i_ptr);
 747              		.loc 1 387 3 view .LVU192
 388:../Middlewares/stedgeai-lib/Npu/ll_aton/ll_aton_stai_internal.c **** 
 748              		.loc 1 388 3 view .LVU193
 390:../Middlewares/stedgeai-lib/Npu/ll_aton/ll_aton_stai_internal.c ****   {
 749              		.loc 1 390 3 view .LVU194
 390:../Middlewares/stedgeai-lib/Npu/ll_aton/ll_aton_stai_internal.c ****   {
 750              		.loc 1 390 6 is_stmt 0 view .LVU195
 751 001e 026B     		ldr	r2, [r0, #48]
 752 0020 22F00202 		bic	r2, r2, #2
 753 0024 102A     		cmp	r2, #16
 754 0026 09D0     		beq	.L41
 755              	.LVL53:
 756              	.LBB41:
 757              	.LBI41:
 383:../Middlewares/stedgeai-lib/Npu/ll_aton/ll_aton_stai_internal.c **** {
 758              		.loc 1 383 18 is_stmt 1 view .LVU196
 759              	.LBB42:
 392:../Middlewares/stedgeai-lib/Npu/ll_aton/ll_aton_stai_internal.c ****   }
 760              		.loc 1 392 5 view .LVU197
 392:../Middlewares/stedgeai-lib/Npu/ll_aton/ll_aton_stai_internal.c ****   }
 761              		.loc 1 392 5 view .LVU198
 392:../Middlewares/stedgeai-lib/Npu/ll_aton/ll_aton_stai_internal.c ****   }
 762              		.loc 1 392 5 discriminator 2 view .LVU199
 763 0028 426B     		ldr	r2, [r0, #52]
 764 002a B2F5003F 		cmp	r2, #131072
 392:../Middlewares/stedgeai-lib/Npu/ll_aton/ll_aton_stai_internal.c ****   }
 765              		.loc 1 392 5 discriminator 3 view .LVU200
 766 002e 3CBF     		itt	cc
 767 0030 4FF4A022 		movcc	r2, #327680
 768 0034 4263     		strcc	r2, [r0, #52]
 769              	.LBE42:
 770              	.LBE41:
 399:../Middlewares/stedgeai-lib/Npu/ll_aton/ll_aton_stai_internal.c **** }
 771              		.loc 1 399 10 is_stmt 0 view .LVU201
 772 0036 4FF4A020 		mov	r0, #327680
 773              	.LVL54:
 399:../Middlewares/stedgeai-lib/Npu/ll_aton/ll_aton_stai_internal.c **** }
 774              		.loc 1 399 10 view .LVU202
 775 003a EBE7     		b	.L36
 776              	.LVL55:
 777              	.L41:
 392:../Middlewares/stedgeai-lib/Npu/ll_aton/ll_aton_stai_internal.c ****   }
 778              		.loc 1 392 5 is_stmt 1 view .LVU203
 396:../Middlewares/stedgeai-lib/Npu/ll_aton/ll_aton_stai_internal.c ****   LL_ATON_RT_Reset_Network(&ctx->network_instance);
 779              		.loc 1 396 3 view .LVU204
 396:../Middlewares/stedgeai-lib/Npu/ll_aton/ll_aton_stai_internal.c ****   LL_ATON_RT_Reset_Network(&ctx->network_instance);
 780              		.loc 1 396 20 is_stmt 0 view .LVU205
 781 003c 0024     		movs	r4, #0
 782 003e 0463     		str	r4, [r0, #48]
 397:../Middlewares/stedgeai-lib/Npu/ll_aton/ll_aton_stai_internal.c **** 
 783              		.loc 1 397 3 is_stmt 1 view .LVU206
 784 0040 FFF7FEFF 		bl	LL_ATON_RT_Reset_Network
 785              	.LVL56:
ARM GAS  /tmp/ccPm72kM.s 			page 27


 399:../Middlewares/stedgeai-lib/Npu/ll_aton/ll_aton_stai_internal.c **** }
 786              		.loc 1 399 3 view .LVU207
 399:../Middlewares/stedgeai-lib/Npu/ll_aton/ll_aton_stai_internal.c **** }
 787              		.loc 1 399 10 is_stmt 0 view .LVU208
 788 0044 2046     		mov	r0, r4
 789              	.LVL57:
 399:../Middlewares/stedgeai-lib/Npu/ll_aton/ll_aton_stai_internal.c **** }
 790              		.loc 1 399 10 view .LVU209
 791 0046 E5E7     		b	.L36
 792              		.cfi_endproc
 793              	.LFE363:
 795              		.section	.rodata.__ll_aton_stai_run.str1.1,"aMS",%progbits,1
 796              	.LC0:
 797 0000 6E6E5F63 		.ascii	"nn_context->exec_status == STAI_DONE\000"
 797      6F6E7465 
 797      78742D3E 
 797      65786563 
 797      5F737461 
 798              	.LC1:
 799 0025 2E2E2F4D 		.ascii	"../Middlewares/stedgeai-lib/Npu/ll_aton/ll_aton_sta"
 799      6964646C 
 799      65776172 
 799      65732F73 
 799      74656467 
 800 0058 695F696E 		.ascii	"i_internal.c\000"
 800      7465726E 
 800      616C2E63 
 800      00
 801              	.LC2:
 802 0065 72657420 		.ascii	"ret == STAI_SUCCESS\000"
 802      3D3D2053 
 802      5441495F 
 802      53554343 
 802      45535300 
 803              		.section	.text.__ll_aton_stai_run,"ax",%progbits
 804              		.align	1
 805              		.global	__ll_aton_stai_run
 806              		.syntax unified
 807              		.thumb
 808              		.thumb_func
 810              	__ll_aton_stai_run:
 811              	.LVL58:
 812              	.LFB364:
 401:../Middlewares/stedgeai-lib/Npu/ll_aton/ll_aton_stai_internal.c **** 
 402:../Middlewares/stedgeai-lib/Npu/ll_aton/ll_aton_stai_internal.c **** STAI_INTERNAL_ENTRY
 403:../Middlewares/stedgeai-lib/Npu/ll_aton/ll_aton_stai_internal.c **** stai_return_code __ll_aton_stai_run(stai_network *network, const stai_run_mode mode)
 404:../Middlewares/stedgeai-lib/Npu/ll_aton/ll_aton_stai_internal.c **** {
 813              		.loc 1 404 1 is_stmt 1 view -0
 814              		.cfi_startproc
 815              		@ args = 0, pretend = 0, frame = 0
 816              		@ frame_needed = 0, uses_anonymous_args = 0
 405:../Middlewares/stedgeai-lib/Npu/ll_aton/ll_aton_stai_internal.c ****   /* check current network */
 406:../Middlewares/stedgeai-lib/Npu/ll_aton/ll_aton_stai_internal.c ****   STAI_ASSERT(network != NULL);
 817              		.loc 1 406 3 view .LVU211
 818              		.loc 1 406 3 view .LVU212
 819              		.loc 1 406 3 view .LVU213
 820              		.loc 1 406 31 view .LVU214
ARM GAS  /tmp/ccPm72kM.s 			page 28


 407:../Middlewares/stedgeai-lib/Npu/ll_aton/ll_aton_stai_internal.c ****   _stai_aton_context *nn_context = (_stai_aton_context *)network;
 821              		.loc 1 407 3 view .LVU215
 408:../Middlewares/stedgeai-lib/Npu/ll_aton/ll_aton_stai_internal.c **** 
 409:../Middlewares/stedgeai-lib/Npu/ll_aton/ll_aton_stai_internal.c ****   if (nn_context->network_instance.exec_state.current_epoch_block == NULL)
 822              		.loc 1 409 3 view .LVU216
 404:../Middlewares/stedgeai-lib/Npu/ll_aton/ll_aton_stai_internal.c ****   /* check current network */
 823              		.loc 1 404 1 is_stmt 0 view .LVU217
 824 0000 38B5     		push	{r3, r4, r5, lr}
 825              		.cfi_def_cfa_offset 16
 826              		.cfi_offset 3, -16
 827              		.cfi_offset 4, -12
 828              		.cfi_offset 5, -8
 829              		.cfi_offset 14, -4
 830              		.loc 1 409 46 view .LVU218
 831 0002 4368     		ldr	r3, [r0, #4]
 404:../Middlewares/stedgeai-lib/Npu/ll_aton/ll_aton_stai_internal.c ****   /* check current network */
 832              		.loc 1 404 1 view .LVU219
 833 0004 0446     		mov	r4, r0
 834 0006 0D46     		mov	r5, r1
 835              		.loc 1 409 6 view .LVU220
 836 0008 3BB9     		cbnz	r3, .L47
 837              	.LVL59:
 838              	.L67:
 410:../Middlewares/stedgeai-lib/Npu/ll_aton/ll_aton_stai_internal.c ****   {
 411:../Middlewares/stedgeai-lib/Npu/ll_aton/ll_aton_stai_internal.c ****     __LL_ATON_STAI_SET_1ST_CTX_ERROR_AND_RETURN(nn_context, STAI_ERROR_NETWORK_INVALID_API_ARGUMENT
 839              		.loc 1 411 5 is_stmt 1 view .LVU221
 840              		.loc 1 411 5 view .LVU222
 841              		.loc 1 411 5 discriminator 2 view .LVU223
 842 000a 636B     		ldr	r3, [r4, #52]
 843 000c B3F5003F 		cmp	r3, #131072
 844 0010 01D2     		bcs	.L49
 845              		.loc 1 411 5 discriminator 3 view .LVU224
 846 0012 1C4B     		ldr	r3, .L69
 847 0014 6363     		str	r3, [r4, #52]
 848              	.L49:
 412:../Middlewares/stedgeai-lib/Npu/ll_aton/ll_aton_stai_internal.c ****   }
 413:../Middlewares/stedgeai-lib/Npu/ll_aton/ll_aton_stai_internal.c **** 
 414:../Middlewares/stedgeai-lib/Npu/ll_aton/ll_aton_stai_internal.c ****   /* reset first error */
 415:../Middlewares/stedgeai-lib/Npu/ll_aton/ll_aton_stai_internal.c ****   nn_context->first_error = STAI_SUCCESS;
 416:../Middlewares/stedgeai-lib/Npu/ll_aton/ll_aton_stai_internal.c **** 
 417:../Middlewares/stedgeai-lib/Npu/ll_aton/ll_aton_stai_internal.c ****   /* enable/disable tracing */
 418:../Middlewares/stedgeai-lib/Npu/ll_aton/ll_aton_stai_internal.c ****   if (nn_context->callback != NULL)
 419:../Middlewares/stedgeai-lib/Npu/ll_aton/ll_aton_stai_internal.c ****   {
 420:../Middlewares/stedgeai-lib/Npu/ll_aton/ll_aton_stai_internal.c ****     LL_ATON_RT_SetNetworkCallback(&nn_context->network_instance, _stai_aton_internal_epoch_block_ca
 421:../Middlewares/stedgeai-lib/Npu/ll_aton/ll_aton_stai_internal.c ****   }
 422:../Middlewares/stedgeai-lib/Npu/ll_aton/ll_aton_stai_internal.c ****   else
 423:../Middlewares/stedgeai-lib/Npu/ll_aton/ll_aton_stai_internal.c ****   {
 424:../Middlewares/stedgeai-lib/Npu/ll_aton/ll_aton_stai_internal.c ****     LL_ATON_RT_SetNetworkCallback(&nn_context->network_instance, NULL);
 425:../Middlewares/stedgeai-lib/Npu/ll_aton/ll_aton_stai_internal.c ****   }
 426:../Middlewares/stedgeai-lib/Npu/ll_aton/ll_aton_stai_internal.c **** 
 427:../Middlewares/stedgeai-lib/Npu/ll_aton/ll_aton_stai_internal.c ****   /* run/start network execution */
 428:../Middlewares/stedgeai-lib/Npu/ll_aton/ll_aton_stai_internal.c ****   switch (mode)
 429:../Middlewares/stedgeai-lib/Npu/ll_aton/ll_aton_stai_internal.c ****   {
 430:../Middlewares/stedgeai-lib/Npu/ll_aton/ll_aton_stai_internal.c ****   case STAI_MODE_SYNC:
 431:../Middlewares/stedgeai-lib/Npu/ll_aton/ll_aton_stai_internal.c ****     __ll_aton_stai_run_synchonously(&nn_context->network_instance); // run current network
 432:../Middlewares/stedgeai-lib/Npu/ll_aton/ll_aton_stai_internal.c **** 
 433:../Middlewares/stedgeai-lib/Npu/ll_aton/ll_aton_stai_internal.c ****     /* reset network for new inference */
ARM GAS  /tmp/ccPm72kM.s 			page 29


 434:../Middlewares/stedgeai-lib/Npu/ll_aton/ll_aton_stai_internal.c ****     {
 435:../Middlewares/stedgeai-lib/Npu/ll_aton/ll_aton_stai_internal.c ****       LL_ATON_ASSERT(nn_context->exec_status == STAI_DONE);
 436:../Middlewares/stedgeai-lib/Npu/ll_aton/ll_aton_stai_internal.c ****       stai_return_code ret = __ll_aton_stai_reset(network);
 437:../Middlewares/stedgeai-lib/Npu/ll_aton/ll_aton_stai_internal.c ****       LL_ATON_ASSERT(ret == STAI_SUCCESS);
 438:../Middlewares/stedgeai-lib/Npu/ll_aton/ll_aton_stai_internal.c ****       return ret;
 439:../Middlewares/stedgeai-lib/Npu/ll_aton/ll_aton_stai_internal.c ****     }
 440:../Middlewares/stedgeai-lib/Npu/ll_aton/ll_aton_stai_internal.c ****     break;
 441:../Middlewares/stedgeai-lib/Npu/ll_aton/ll_aton_stai_internal.c ****   case STAI_MODE_ASYNC:
 442:../Middlewares/stedgeai-lib/Npu/ll_aton/ll_aton_stai_internal.c ****     __LL_ATON_START_CONT_EXEC(&nn_context->network_instance); // kick-off execution
 443:../Middlewares/stedgeai-lib/Npu/ll_aton/ll_aton_stai_internal.c ****     break;
 444:../Middlewares/stedgeai-lib/Npu/ll_aton/ll_aton_stai_internal.c ****   default:
 445:../Middlewares/stedgeai-lib/Npu/ll_aton/ll_aton_stai_internal.c ****     __LL_ATON_STAI_SET_1ST_CTX_ERROR_AND_RETURN(nn_context, STAI_ERROR_NETWORK_INVALID_API_ARGUMENT
 849              		.loc 1 445 5 is_stmt 0 discriminator 5 view .LVU225
 850 0016 1B48     		ldr	r0, .L69
 851 0018 11E0     		b	.L46
 852              	.LVL60:
 853              	.L47:
 411:../Middlewares/stedgeai-lib/Npu/ll_aton/ll_aton_stai_internal.c ****   }
 854              		.loc 1 411 5 is_stmt 1 view .LVU226
 415:../Middlewares/stedgeai-lib/Npu/ll_aton/ll_aton_stai_internal.c **** 
 855              		.loc 1 415 3 view .LVU227
 415:../Middlewares/stedgeai-lib/Npu/ll_aton/ll_aton_stai_internal.c **** 
 856              		.loc 1 415 27 is_stmt 0 view .LVU228
 857 001a 0023     		movs	r3, #0
 418:../Middlewares/stedgeai-lib/Npu/ll_aton/ll_aton_stai_internal.c ****   {
 858              		.loc 1 418 6 view .LVU229
 859 001c 816A     		ldr	r1, [r0, #40]
 860              	.LVL61:
 415:../Middlewares/stedgeai-lib/Npu/ll_aton/ll_aton_stai_internal.c **** 
 861              		.loc 1 415 27 view .LVU230
 862 001e 4363     		str	r3, [r0, #52]
 418:../Middlewares/stedgeai-lib/Npu/ll_aton/ll_aton_stai_internal.c ****   {
 863              		.loc 1 418 3 is_stmt 1 view .LVU231
 418:../Middlewares/stedgeai-lib/Npu/ll_aton/ll_aton_stai_internal.c ****   {
 864              		.loc 1 418 6 is_stmt 0 view .LVU232
 865 0020 01B1     		cbz	r1, .L50
 420:../Middlewares/stedgeai-lib/Npu/ll_aton/ll_aton_stai_internal.c ****   }
 866              		.loc 1 420 5 is_stmt 1 view .LVU233
 867 0022 1949     		ldr	r1, .L69+4
 868              	.L50:
 424:../Middlewares/stedgeai-lib/Npu/ll_aton/ll_aton_stai_internal.c ****   }
 869              		.loc 1 424 5 view .LVU234
 870 0024 FFF7FEFF 		bl	LL_ATON_RT_SetNetworkCallback
 871              	.LVL62:
 428:../Middlewares/stedgeai-lib/Npu/ll_aton/ll_aton_stai_internal.c ****   {
 872              		.loc 1 428 3 view .LVU235
 873 0028 012D     		cmp	r5, #1
 874 002a 09D0     		beq	.L58
 875 002c 022D     		cmp	r5, #2
 876 002e ECD1     		bne	.L67
 440:../Middlewares/stedgeai-lib/Npu/ll_aton/ll_aton_stai_internal.c ****   case STAI_MODE_ASYNC:
 877              		.loc 1 440 5 view .LVU236
 442:../Middlewares/stedgeai-lib/Npu/ll_aton/ll_aton_stai_internal.c ****     break;
 878              		.loc 1 442 5 view .LVU237
 879              	.LBB49:
 442:../Middlewares/stedgeai-lib/Npu/ll_aton/ll_aton_stai_internal.c ****     break;
 880              		.loc 1 442 5 view .LVU238
ARM GAS  /tmp/ccPm72kM.s 			page 30


 442:../Middlewares/stedgeai-lib/Npu/ll_aton/ll_aton_stai_internal.c ****     break;
 881              		.loc 1 442 5 view .LVU239
 442:../Middlewares/stedgeai-lib/Npu/ll_aton/ll_aton_stai_internal.c ****     break;
 882              		.loc 1 442 5 view .LVU240
 442:../Middlewares/stedgeai-lib/Npu/ll_aton/ll_aton_stai_internal.c ****     break;
 883              		.loc 1 442 5 view .LVU241
 442:../Middlewares/stedgeai-lib/Npu/ll_aton/ll_aton_stai_internal.c ****     break;
 884              		.loc 1 442 5 view .LVU242
 885              	.LVL63:
 442:../Middlewares/stedgeai-lib/Npu/ll_aton/ll_aton_stai_internal.c ****     break;
 886              		.loc 1 442 5 view .LVU243
 887 0030 2046     		mov	r0, r4
 888 0032 FFF7FEFF 		bl	LL_ATON_RT_RunEpochBlock
 889              	.LVL64:
 442:../Middlewares/stedgeai-lib/Npu/ll_aton/ll_aton_stai_internal.c ****     break;
 890              		.loc 1 442 5 is_stmt 0 discriminator 1 view .LVU244
 891 0036 2146     		mov	r1, r4
 892 0038 FFF7FEFF 		bl	__ll_aton_stai_set_execution_status
 893              	.LVL65:
 442:../Middlewares/stedgeai-lib/Npu/ll_aton/ll_aton_stai_internal.c ****     break;
 894              		.loc 1 442 5 is_stmt 1 discriminator 2 view .LVU245
 895              	.LBB50:
 896              	.LBI50:
 352:../Middlewares/stedgeai-lib/Npu/ll_aton/ll_aton_stai_internal.c **** {
 897              		.loc 1 352 18 view .LVU246
 898              	.LBB51:
 354:../Middlewares/stedgeai-lib/Npu/ll_aton/ll_aton_stai_internal.c ****   return nn_context->exec_status;
 899              		.loc 1 354 3 view .LVU247
 354:../Middlewares/stedgeai-lib/Npu/ll_aton/ll_aton_stai_internal.c ****   return nn_context->exec_status;
 900              		.loc 1 354 3 view .LVU248
 354:../Middlewares/stedgeai-lib/Npu/ll_aton/ll_aton_stai_internal.c ****   return nn_context->exec_status;
 901              		.loc 1 354 3 view .LVU249
 354:../Middlewares/stedgeai-lib/Npu/ll_aton/ll_aton_stai_internal.c ****   return nn_context->exec_status;
 902              		.loc 1 354 34 view .LVU250
 355:../Middlewares/stedgeai-lib/Npu/ll_aton/ll_aton_stai_internal.c **** }
 903              		.loc 1 355 3 view .LVU251
 355:../Middlewares/stedgeai-lib/Npu/ll_aton/ll_aton_stai_internal.c **** }
 904              		.loc 1 355 20 is_stmt 0 view .LVU252
 905 003c 206B     		ldr	r0, [r4, #48]
 906              	.LVL66:
 355:../Middlewares/stedgeai-lib/Npu/ll_aton/ll_aton_stai_internal.c **** }
 907              		.loc 1 355 20 view .LVU253
 908              	.LBE51:
 909              	.LBE50:
 442:../Middlewares/stedgeai-lib/Npu/ll_aton/ll_aton_stai_internal.c ****     break;
 910              		.loc 1 442 5 is_stmt 1 discriminator 3 view .LVU254
 911              	.L46:
 442:../Middlewares/stedgeai-lib/Npu/ll_aton/ll_aton_stai_internal.c ****     break;
 912              		.loc 1 442 5 is_stmt 0 discriminator 3 view .LVU255
 913              	.LBE49:
 446:../Middlewares/stedgeai-lib/Npu/ll_aton/ll_aton_stai_internal.c ****   }
 447:../Middlewares/stedgeai-lib/Npu/ll_aton/ll_aton_stai_internal.c **** }
 914              		.loc 1 447 1 view .LVU256
 915 003e 38BD     		pop	{r3, r4, r5, pc}
 916              	.LVL67:
 917              	.L58:
 918              	.LBB52:
ARM GAS  /tmp/ccPm72kM.s 			page 31


 919              	.LBB53:
 366:../Middlewares/stedgeai-lib/Npu/ll_aton/ll_aton_stai_internal.c **** 
 920              		.loc 1 366 3 is_stmt 1 view .LVU257
 368:../Middlewares/stedgeai-lib/Npu/ll_aton/ll_aton_stai_internal.c ****   {
 921              		.loc 1 368 3 view .LVU258
 371:../Middlewares/stedgeai-lib/Npu/ll_aton/ll_aton_stai_internal.c ****     __ll_aton_stai_set_execution_status(ll_aton_rt_ret, stai_nn_ctx);
 922              		.loc 1 371 5 view .LVU259
 371:../Middlewares/stedgeai-lib/Npu/ll_aton/ll_aton_stai_internal.c ****     __ll_aton_stai_set_execution_status(ll_aton_rt_ret, stai_nn_ctx);
 923              		.loc 1 371 22 is_stmt 0 view .LVU260
 924 0040 2046     		mov	r0, r4
 925 0042 FFF7FEFF 		bl	LL_ATON_RT_RunEpochBlock
 926              	.LVL68:
 372:../Middlewares/stedgeai-lib/Npu/ll_aton/ll_aton_stai_internal.c **** 
 927              		.loc 1 372 5 is_stmt 1 view .LVU261
 928 0046 2146     		mov	r1, r4
 929 0048 FFF7FEFF 		bl	__ll_aton_stai_set_execution_status
 930              	.LVL69:
 375:../Middlewares/stedgeai-lib/Npu/ll_aton/ll_aton_stai_internal.c ****     {
 931              		.loc 1 375 5 view .LVU262
 375:../Middlewares/stedgeai-lib/Npu/ll_aton/ll_aton_stai_internal.c ****     {
 932              		.loc 1 375 8 is_stmt 0 view .LVU263
 933 004c 0128     		cmp	r0, #1
 934 004e 02D1     		bne	.L55
 935              	.LVL70:
 377:../Middlewares/stedgeai-lib/Npu/ll_aton/ll_aton_stai_internal.c ****     }
 936              		.loc 1 377 7 is_stmt 1 view .LVU264
 937 0050 FFF7FEFF 		bl	aton_osal_threadx_wfe
 938              	.LVL71:
 379:../Middlewares/stedgeai-lib/Npu/ll_aton/ll_aton_stai_internal.c **** }
 939              		.loc 1 379 27 view .LVU265
 940 0054 F4E7     		b	.L58
 941              	.LVL72:
 942              	.L55:
 379:../Middlewares/stedgeai-lib/Npu/ll_aton/ll_aton_stai_internal.c **** }
 943              		.loc 1 379 27 view .LVU266
 944 0056 0228     		cmp	r0, #2
 945 0058 F2D1     		bne	.L58
 946              	.LVL73:
 379:../Middlewares/stedgeai-lib/Npu/ll_aton/ll_aton_stai_internal.c **** }
 947              		.loc 1 379 27 is_stmt 0 view .LVU267
 948              	.LBE53:
 949              	.LBE52:
 950              	.LBB54:
 435:../Middlewares/stedgeai-lib/Npu/ll_aton/ll_aton_stai_internal.c ****       stai_return_code ret = __ll_aton_stai_reset(network);
 951              		.loc 1 435 7 is_stmt 1 view .LVU268
 952 005a 236B     		ldr	r3, [r4, #48]
 953 005c 122B     		cmp	r3, #18
 954 005e 06D0     		beq	.L59
 435:../Middlewares/stedgeai-lib/Npu/ll_aton/ll_aton_stai_internal.c ****       stai_return_code ret = __ll_aton_stai_reset(network);
 955              		.loc 1 435 7 is_stmt 0 discriminator 1 view .LVU269
 956 0060 40F2B311 		movw	r1, #435
 957              	.LVL74:
 435:../Middlewares/stedgeai-lib/Npu/ll_aton/ll_aton_stai_internal.c ****       stai_return_code ret = __ll_aton_stai_reset(network);
 958              		.loc 1 435 7 discriminator 1 view .LVU270
 959 0064 094B     		ldr	r3, .L69+8
 960 0066 0A4A     		ldr	r2, .L69+12
 961              	.L68:
ARM GAS  /tmp/ccPm72kM.s 			page 32


 437:../Middlewares/stedgeai-lib/Npu/ll_aton/ll_aton_stai_internal.c ****       return ret;
 962              		.loc 1 437 7 discriminator 1 view .LVU271
 963 0068 0A48     		ldr	r0, .L69+16
 964 006a FFF7FEFF 		bl	__assert_func
 965              	.LVL75:
 966              	.L59:
 436:../Middlewares/stedgeai-lib/Npu/ll_aton/ll_aton_stai_internal.c ****       LL_ATON_ASSERT(ret == STAI_SUCCESS);
 967              		.loc 1 436 7 is_stmt 1 view .LVU272
 436:../Middlewares/stedgeai-lib/Npu/ll_aton/ll_aton_stai_internal.c ****       LL_ATON_ASSERT(ret == STAI_SUCCESS);
 968              		.loc 1 436 30 is_stmt 0 view .LVU273
 969 006e 2046     		mov	r0, r4
 970 0070 FFF7FEFF 		bl	__ll_aton_stai_reset
 971              	.LVL76:
 437:../Middlewares/stedgeai-lib/Npu/ll_aton/ll_aton_stai_internal.c ****       return ret;
 972              		.loc 1 437 7 is_stmt 1 view .LVU274
 973 0074 0028     		cmp	r0, #0
 974 0076 E2D0     		beq	.L46
 437:../Middlewares/stedgeai-lib/Npu/ll_aton/ll_aton_stai_internal.c ****       return ret;
 975              		.loc 1 437 7 is_stmt 0 discriminator 1 view .LVU275
 976 0078 40F2B511 		movw	r1, #437
 977 007c 064B     		ldr	r3, .L69+20
 978 007e 044A     		ldr	r2, .L69+12
 979 0080 F2E7     		b	.L68
 980              	.L70:
 981 0082 00BF     		.align	2
 982              	.L69:
 983 0084 01000200 		.word	131073
 984 0088 00000000 		.word	_stai_aton_internal_epoch_block_callback
 985 008c 00000000 		.word	.LC0
 986 0090 00000000 		.word	__func__.0
 987 0094 25000000 		.word	.LC1
 988 0098 65000000 		.word	.LC2
 989              	.LBE54:
 990              		.cfi_endproc
 991              	.LFE364:
 993              		.section	.rodata.__func__.0,"a"
 996              	__func__.0:
 997 0000 5F5F6C6C 		.ascii	"__ll_aton_stai_run\000"
 997      5F61746F 
 997      6E5F7374 
 997      61695F72 
 997      756E00
 998              		.section	.rodata.str1.1,"aMS",%progbits,1
 999              	.LC3:
 1000 0000 47434320 		.ascii	"GCC 14.3.1\000"
 1000      31342E33 
 1000      2E3100
 1001              		.section	.rodata._info.1,"a"
 1002              		.align	2
 1005              	_info.1:
 1006 0000 01       		.byte	1
 1007 0001 00       		.byte	0
 1008 0002 00       		.byte	0
 1009 0003 00       		.byte	0
 1010 0004 01       		.byte	1
 1011 0005 01       		.byte	1
 1012 0006 03       		.byte	3
ARM GAS  /tmp/ccPm72kM.s 			page 33


 1013 0007 00       		.byte	0
 1014 0008 04       		.byte	4
 1015 0009 00       		.byte	0
 1016 000a 00       		.byte	0
 1017 000b 00       		.byte	0
 1018 000c 09041131 		.word	823198729
 1019 0010 01       		.byte	1
 1020 0011 000000   		.space	3
 1021 0014 00000000 		.word	.LC3
 1022              		.section	.bss._g_stai_aton_rt_cb_cookie,"aw",%nobits
 1023              		.align	2
 1026              	_g_stai_aton_rt_cb_cookie:
 1027 0000 00000000 		.space	4
 1028              		.section	.bss._g_stai_aton_rt_callback,"aw",%nobits
 1029              		.align	2
 1032              	_g_stai_aton_rt_callback:
 1033 0000 00000000 		.space	4
 1034              		.text
 1035              	.Letext0:
 1036              		.file 4 "/opt/st/stm32cubeclt_1.21.0/GNU-tools-for-STM32/arm-none-eabi/include/machine/_default_ty
 1037              		.file 5 "/opt/st/stm32cubeclt_1.21.0/GNU-tools-for-STM32/arm-none-eabi/include/sys/_stdint.h"
 1038              		.file 6 "../Middlewares/stedgeai-lib/Inc/stai.h"
 1039              		.file 7 "../Middlewares/stedgeai-lib/Npu/ll_aton/ll_aton_cipher.h"
 1040              		.file 8 "../Middlewares/stedgeai-lib/Npu/ll_aton/ll_aton_NN_interface.h"
 1041              		.file 9 "../Middlewares/stedgeai-lib/Npu/ll_aton/ll_aton_rt_user_api.h"
 1042              		.file 10 "../Middlewares/stedgeai-lib/Npu/ll_aton/stai_aton_common.h"
 1043              		.file 11 "/opt/st/stm32cubeclt_1.21.0/GNU-tools-for-STM32/arm-none-eabi/include/assert.h"
 1044              		.file 12 "../Middlewares/stedgeai-lib/Npu/Devices/STM32N6xx/npu_cache.h"
 1045              		.file 13 "../Middlewares/stedgeai-lib/Npu/ll_aton/ll_aton_osal_threadx.h"
 1046              		.file 14 "../Middlewares/stedgeai-lib/Npu/Devices/STM32N6xx/mcu_cache.h"
ARM GAS  /tmp/ccPm72kM.s 			page 34

