ARM GAS  /tmp/ccjN1hY0.s 			page 1


   1              		.arch armv8.1-m.main
   2              		.fpu fpv5-d16
   3              		.arch_extension dsp
   4              		.arch_extension fp
   5              		.arch_extension fp.dp
   6              		.arch_extension mve
   7              		.arch_extension mve.fp
   8              		.eabi_attribute 5, "cortex-m55"
   9              		.eabi_attribute 28, 1
  10              		.eabi_attribute 20, 1
  11              		.eabi_attribute 21, 1
  12              		.eabi_attribute 23, 3
  13              		.eabi_attribute 24, 1
  14              		.eabi_attribute 25, 1
  15              		.eabi_attribute 26, 1
  16              		.eabi_attribute 30, 4
  17              		.eabi_attribute 34, 1
  18              		.eabi_attribute 38, 1
  19              		.eabi_attribute 18, 4
  20              		.file	"ll_aton_rt_main.c"
  21              		.text
  22              	.Ltext0:
  23              		.cfi_sections	.debug_frame
  24              		.file 1 "../Middlewares/stedgeai-lib/Npu/ll_aton/ll_aton_rt_main.c"
  25              		.section	.rodata.LL_ATON_RT_Main.str1.1,"aMS",%progbits,1
  26              	.LC0:
  27 0000 6E657477 		.ascii	"network_instance != ((void *)0)\000"
  27      6F726B5F 
  27      696E7374 
  27      616E6365 
  27      20213D20 
  28              	.LC1:
  29 0020 2E2E2F4D 		.ascii	"../Middlewares/stedgeai-lib/Npu/ll_aton/ll_aton_rt_"
  29      6964646C 
  29      65776172 
  29      65732F73 
  29      74656467 
  30 0053 6D61696E 		.ascii	"main.c\000"
  30      2E6300
  31              	.LC2:
  32 005a 6E657477 		.ascii	"network_instance->network != ((void *)0)\000"
  32      6F726B5F 
  32      696E7374 
  32      616E6365 
  32      2D3E6E65 
  33              		.section	.text.LL_ATON_RT_Main,"ax",%progbits
  34              		.align	1
  35              		.global	LL_ATON_RT_Main
  36              		.syntax unified
  37              		.thumb
  38              		.thumb_func
  40              	LL_ATON_RT_Main:
  41              	.LVL0:
  42              	.LFB334:
   1:../Middlewares/stedgeai-lib/Npu/ll_aton/ll_aton_rt_main.c **** /**
   2:../Middlewares/stedgeai-lib/Npu/ll_aton/ll_aton_rt_main.c ****  ******************************************************************************
   3:../Middlewares/stedgeai-lib/Npu/ll_aton/ll_aton_rt_main.c ****  * @file    ll_aton_rt_main.c
ARM GAS  /tmp/ccjN1hY0.s 			page 2


   4:../Middlewares/stedgeai-lib/Npu/ll_aton/ll_aton_rt_main.c ****  * @author  SRA Artificial Intelligence & Embedded Architectures
   5:../Middlewares/stedgeai-lib/Npu/ll_aton/ll_aton_rt_main.c ****  * @brief   Template `main()` function (named `LL_ATON_RT_Main()`) for
   6:../Middlewares/stedgeai-lib/Npu/ll_aton/ll_aton_rt_main.c ****  *          Cube.AI/ATON integration in a RTOS-less application.
   7:../Middlewares/stedgeai-lib/Npu/ll_aton/ll_aton_rt_main.c ****  * @note    This file is intended to be just a template and is limited to run the
   8:../Middlewares/stedgeai-lib/Npu/ll_aton/ll_aton_rt_main.c ****  *          ATON LL runtime with a single network instance for a single inference!
   9:../Middlewares/stedgeai-lib/Npu/ll_aton/ll_aton_rt_main.c ****  *          Please, generate your own embodiment of this file and customize it
  10:../Middlewares/stedgeai-lib/Npu/ll_aton/ll_aton_rt_main.c ****  *          so to fit the needs of your application.
  11:../Middlewares/stedgeai-lib/Npu/ll_aton/ll_aton_rt_main.c ****  ******************************************************************************
  12:../Middlewares/stedgeai-lib/Npu/ll_aton/ll_aton_rt_main.c ****  * @attention
  13:../Middlewares/stedgeai-lib/Npu/ll_aton/ll_aton_rt_main.c ****  *
  14:../Middlewares/stedgeai-lib/Npu/ll_aton/ll_aton_rt_main.c ****  * Copyright (c) 2024 STMicroelectronics.
  15:../Middlewares/stedgeai-lib/Npu/ll_aton/ll_aton_rt_main.c ****  * All rights reserved.
  16:../Middlewares/stedgeai-lib/Npu/ll_aton/ll_aton_rt_main.c ****  *
  17:../Middlewares/stedgeai-lib/Npu/ll_aton/ll_aton_rt_main.c ****  * This software is licensed under terms that can be found in the LICENSE file
  18:../Middlewares/stedgeai-lib/Npu/ll_aton/ll_aton_rt_main.c ****  * in the root directory of this software component.
  19:../Middlewares/stedgeai-lib/Npu/ll_aton/ll_aton_rt_main.c ****  * If no LICENSE file comes with this software, it is provided AS-IS.
  20:../Middlewares/stedgeai-lib/Npu/ll_aton/ll_aton_rt_main.c ****  *
  21:../Middlewares/stedgeai-lib/Npu/ll_aton/ll_aton_rt_main.c ****  ******************************************************************************
  22:../Middlewares/stedgeai-lib/Npu/ll_aton/ll_aton_rt_main.c ****  */
  23:../Middlewares/stedgeai-lib/Npu/ll_aton/ll_aton_rt_main.c **** 
  24:../Middlewares/stedgeai-lib/Npu/ll_aton/ll_aton_rt_main.c **** #include "ll_aton_rt_user_api.h"
  25:../Middlewares/stedgeai-lib/Npu/ll_aton/ll_aton_rt_main.c **** 
  26:../Middlewares/stedgeai-lib/Npu/ll_aton/ll_aton_rt_main.c **** /*** Main Template ***/
  27:../Middlewares/stedgeai-lib/Npu/ll_aton/ll_aton_rt_main.c **** 
  28:../Middlewares/stedgeai-lib/Npu/ll_aton/ll_aton_rt_main.c **** /**
  29:../Middlewares/stedgeai-lib/Npu/ll_aton/ll_aton_rt_main.c ****  * @brief Template for synchronously executing a single inference of a single network instance one 
  30:../Middlewares/stedgeai-lib/Npu/ll_aton/ll_aton_rt_main.c ****  *        (e.g. regression tests)
  31:../Middlewares/stedgeai-lib/Npu/ll_aton/ll_aton_rt_main.c ****  * @param network_instance pointer to the network instance representing the network and execution i
  32:../Middlewares/stedgeai-lib/Npu/ll_aton/ll_aton_rt_main.c ****  *                         The instance object MUST have already set a valid link to a network inte
  33:../Middlewares/stedgeai-lib/Npu/ll_aton/ll_aton_rt_main.c ****  *                         The user may declare/instantiate such an object by using either macro
  34:../Middlewares/stedgeai-lib/Npu/ll_aton/ll_aton_rt_main.c ****  *                          `LL_ATON_DECLARE_NAMED_NN_INSTANCE_AND_INTERFACE()` to create both the 
  35:../Middlewares/stedgeai-lib/Npu/ll_aton/ll_aton_rt_main.c ****  *                         and the network interface, or macros
  36:../Middlewares/stedgeai-lib/Npu/ll_aton/ll_aton_rt_main.c ****  *                         `LL_ATON_DECLARE_NAMED_NN_INTERFACE()` & `LL_ATON_DECLARE_NAMED_NN_INSTA
  37:../Middlewares/stedgeai-lib/Npu/ll_aton/ll_aton_rt_main.c ****  *                         create/instantiate the objects separately.
  38:../Middlewares/stedgeai-lib/Npu/ll_aton/ll_aton_rt_main.c ****  * @note this function does NOT make part of the ATON Runtime User API
  39:../Middlewares/stedgeai-lib/Npu/ll_aton/ll_aton_rt_main.c ****  */
  40:../Middlewares/stedgeai-lib/Npu/ll_aton/ll_aton_rt_main.c **** void LL_ATON_RT_Main(NN_Instance_TypeDef *network_instance)
  41:../Middlewares/stedgeai-lib/Npu/ll_aton/ll_aton_rt_main.c **** {
  43              		.loc 1 41 1 view -0
  44              		.cfi_startproc
  45              		@ args = 0, pretend = 0, frame = 0
  46              		@ frame_needed = 0, uses_anonymous_args = 0
  42:../Middlewares/stedgeai-lib/Npu/ll_aton/ll_aton_rt_main.c ****   LL_ATON_RT_RetValues_t ll_aton_rt_ret;
  47              		.loc 1 42 3 view .LVU1
  43:../Middlewares/stedgeai-lib/Npu/ll_aton/ll_aton_rt_main.c **** 
  44:../Middlewares/stedgeai-lib/Npu/ll_aton/ll_aton_rt_main.c ****   /*** Start of user initialization code ***/
  45:../Middlewares/stedgeai-lib/Npu/ll_aton/ll_aton_rt_main.c **** 
  46:../Middlewares/stedgeai-lib/Npu/ll_aton/ll_aton_rt_main.c ****   /*** End of user initialization code ***/
  47:../Middlewares/stedgeai-lib/Npu/ll_aton/ll_aton_rt_main.c **** 
  48:../Middlewares/stedgeai-lib/Npu/ll_aton/ll_aton_rt_main.c ****   LL_ATON_ASSERT(network_instance != NULL);
  48              		.loc 1 48 3 view .LVU2
  41:../Middlewares/stedgeai-lib/Npu/ll_aton/ll_aton_rt_main.c ****   LL_ATON_RT_RetValues_t ll_aton_rt_ret;
  49              		.loc 1 41 1 is_stmt 0 view .LVU3
  50 0000 10B5     		push	{r4, lr}
  51              		.cfi_def_cfa_offset 8
  52              		.cfi_offset 4, -8
  53              		.cfi_offset 14, -4
ARM GAS  /tmp/ccjN1hY0.s 			page 3


  54              		.loc 1 48 3 view .LVU4
  55 0002 0446     		mov	r4, r0
  56 0004 28B9     		cbnz	r0, .L2
  57              		.loc 1 48 3 discriminator 1 view .LVU5
  58 0006 3021     		movs	r1, #48
  59 0008 104B     		ldr	r3, .L9
  60 000a 114A     		ldr	r2, .L9+4
  61              	.L8:
  49:../Middlewares/stedgeai-lib/Npu/ll_aton/ll_aton_rt_main.c ****   LL_ATON_ASSERT(network_instance->network != NULL);
  62              		.loc 1 49 3 discriminator 1 view .LVU6
  63 000c 1148     		ldr	r0, .L9+8
  64              	.LVL1:
  65              		.loc 1 49 3 discriminator 1 view .LVU7
  66 000e FFF7FEFF 		bl	__assert_func
  67              	.LVL2:
  68              	.L2:
  69              		.loc 1 49 3 is_stmt 1 view .LVU8
  70 0012 0368     		ldr	r3, [r0]
  71 0014 1BB9     		cbnz	r3, .L3
  72              		.loc 1 49 3 is_stmt 0 discriminator 1 view .LVU9
  73 0016 3121     		movs	r1, #49
  74 0018 0F4B     		ldr	r3, .L9+12
  75 001a 0D4A     		ldr	r2, .L9+4
  76 001c F6E7     		b	.L8
  77              	.L3:
  50:../Middlewares/stedgeai-lib/Npu/ll_aton/ll_aton_rt_main.c ****   LL_ATON_RT_RuntimeInit();                  // Initialize runtime
  78              		.loc 1 50 3 is_stmt 1 view .LVU10
  79 001e FFF7FEFF 		bl	LL_ATON_RT_RuntimeInit
  80              	.LVL3:
  51:../Middlewares/stedgeai-lib/Npu/ll_aton/ll_aton_rt_main.c ****   LL_ATON_RT_Init_Network(network_instance); // Initialize passed network instance object
  81              		.loc 1 51 3 view .LVU11
  82 0022 2046     		mov	r0, r4
  83 0024 FFF7FEFF 		bl	LL_ATON_RT_Init_Network
  84              	.LVL4:
  85              	.L7:
  52:../Middlewares/stedgeai-lib/Npu/ll_aton/ll_aton_rt_main.c **** 
  53:../Middlewares/stedgeai-lib/Npu/ll_aton/ll_aton_rt_main.c ****   do
  86              		.loc 1 53 3 view .LVU12
  54:../Middlewares/stedgeai-lib/Npu/ll_aton/ll_aton_rt_main.c ****   {
  55:../Middlewares/stedgeai-lib/Npu/ll_aton/ll_aton_rt_main.c ****     /* Execute first/next step of Cube.AI/ATON runtime */
  56:../Middlewares/stedgeai-lib/Npu/ll_aton/ll_aton_rt_main.c ****     ll_aton_rt_ret = LL_ATON_RT_RunEpochBlock(network_instance);
  87              		.loc 1 56 5 view .LVU13
  88              		.loc 1 56 22 is_stmt 0 view .LVU14
  89 0028 2046     		mov	r0, r4
  90 002a FFF7FEFF 		bl	LL_ATON_RT_RunEpochBlock
  91              	.LVL5:
  57:../Middlewares/stedgeai-lib/Npu/ll_aton/ll_aton_rt_main.c **** 
  58:../Middlewares/stedgeai-lib/Npu/ll_aton/ll_aton_rt_main.c ****     /*** Start of user event handling code ***/
  59:../Middlewares/stedgeai-lib/Npu/ll_aton/ll_aton_rt_main.c **** 
  60:../Middlewares/stedgeai-lib/Npu/ll_aton/ll_aton_rt_main.c ****     /*** End of user event handling code ***/
  61:../Middlewares/stedgeai-lib/Npu/ll_aton/ll_aton_rt_main.c **** 
  62:../Middlewares/stedgeai-lib/Npu/ll_aton/ll_aton_rt_main.c ****     /* Wait for next event */
  63:../Middlewares/stedgeai-lib/Npu/ll_aton/ll_aton_rt_main.c ****     if (ll_aton_rt_ret == LL_ATON_RT_WFE)
  92              		.loc 1 63 5 is_stmt 1 view .LVU15
  93              		.loc 1 63 8 is_stmt 0 view .LVU16
  94 002e 0128     		cmp	r0, #1
  95 0030 02D1     		bne	.L4
ARM GAS  /tmp/ccjN1hY0.s 			page 4


  64:../Middlewares/stedgeai-lib/Npu/ll_aton/ll_aton_rt_main.c ****     { /*** subject to change to fit also user code requirements ***/
  65:../Middlewares/stedgeai-lib/Npu/ll_aton/ll_aton_rt_main.c ****       LL_ATON_OSAL_WFE();
  96              		.loc 1 65 7 is_stmt 1 view .LVU17
  97 0032 FFF7FEFF 		bl	aton_osal_threadx_wfe
  98              	.LVL6:
  66:../Middlewares/stedgeai-lib/Npu/ll_aton/ll_aton_rt_main.c ****     }
  67:../Middlewares/stedgeai-lib/Npu/ll_aton/ll_aton_rt_main.c ****   } while (ll_aton_rt_ret != LL_ATON_RT_DONE); /*** subject to change to fit also user code require
  99              		.loc 1 67 27 view .LVU18
 100 0036 F7E7     		b	.L7
 101              	.LVL7:
 102              	.L4:
 103              		.loc 1 67 27 view .LVU19
 104 0038 0228     		cmp	r0, #2
 105 003a F5D1     		bne	.L7
  68:../Middlewares/stedgeai-lib/Npu/ll_aton/ll_aton_rt_main.c **** 
  69:../Middlewares/stedgeai-lib/Npu/ll_aton/ll_aton_rt_main.c ****   LL_ATON_RT_DeInit_Network(network_instance); // De-initialize the network instance object
 106              		.loc 1 69 3 view .LVU20
 107 003c 2046     		mov	r0, r4
 108              	.LVL8:
 109              		.loc 1 69 3 is_stmt 0 view .LVU21
 110 003e FFF7FEFF 		bl	LL_ATON_RT_DeInit_Network
 111              	.LVL9:
  70:../Middlewares/stedgeai-lib/Npu/ll_aton/ll_aton_rt_main.c ****   LL_ATON_RT_RuntimeDeInit();                  // De-initialize runtime
 112              		.loc 1 70 3 is_stmt 1 view .LVU22
  71:../Middlewares/stedgeai-lib/Npu/ll_aton/ll_aton_rt_main.c **** 
  72:../Middlewares/stedgeai-lib/Npu/ll_aton/ll_aton_rt_main.c ****   /*** Start of user de-initialization code ***/
  73:../Middlewares/stedgeai-lib/Npu/ll_aton/ll_aton_rt_main.c **** 
  74:../Middlewares/stedgeai-lib/Npu/ll_aton/ll_aton_rt_main.c ****   /*** End of user de-initialization code ***/
  75:../Middlewares/stedgeai-lib/Npu/ll_aton/ll_aton_rt_main.c **** }
 113              		.loc 1 75 1 is_stmt 0 view .LVU23
 114 0042 BDE81040 		pop	{r4, lr}
 115              		.cfi_restore 14
 116              		.cfi_restore 4
 117              		.cfi_def_cfa_offset 0
 118              	.LVL10:
  70:../Middlewares/stedgeai-lib/Npu/ll_aton/ll_aton_rt_main.c ****   LL_ATON_RT_RuntimeDeInit();                  // De-initialize runtime
 119              		.loc 1 70 3 view .LVU24
 120 0046 FFF7FEBF 		b	LL_ATON_RT_RuntimeDeInit
 121              	.LVL11:
 122              	.L10:
 123 004a 00BF     		.align	2
 124              	.L9:
 125 004c 00000000 		.word	.LC0
 126 0050 00000000 		.word	__func__.0
 127 0054 20000000 		.word	.LC1
 128 0058 5A000000 		.word	.LC2
 129              		.cfi_endproc
 130              	.LFE334:
 132              		.section	.rodata.__func__.0,"a"
 135              	__func__.0:
 136 0000 4C4C5F41 		.ascii	"LL_ATON_RT_Main\000"
 136      544F4E5F 
 136      52545F4D 
 136      61696E00 
 137              		.text
 138              	.Letext0:
 139              		.file 2 "/opt/st/stm32cubeclt_1.21.0/GNU-tools-for-STM32/arm-none-eabi/include/machine/_default_ty
ARM GAS  /tmp/ccjN1hY0.s 			page 5


 140              		.file 3 "/opt/st/stm32cubeclt_1.21.0/GNU-tools-for-STM32/arm-none-eabi/include/sys/_stdint.h"
 141              		.file 4 "../Middlewares/stedgeai-lib/Npu/ll_aton/ll_aton_cipher.h"
 142              		.file 5 "../Middlewares/stedgeai-lib/Npu/ll_aton/ll_aton_NN_interface.h"
 143              		.file 6 "../Middlewares/stedgeai-lib/Npu/ll_aton/ll_aton_rt_user_api.h"
 144              		.file 7 "../Middlewares/stedgeai-lib/Npu/ll_aton/ll_aton_osal_threadx.h"
 145              		.file 8 "/opt/st/stm32cubeclt_1.21.0/GNU-tools-for-STM32/arm-none-eabi/include/assert.h"
ARM GAS  /tmp/ccjN1hY0.s 			page 6


DEFINED SYMBOLS
                            *ABS*:00000000 ll_aton_rt_main.c
     /tmp/ccjN1hY0.s:34     .text.LL_ATON_RT_Main:00000000 $t
     /tmp/ccjN1hY0.s:40     .text.LL_ATON_RT_Main:00000000 LL_ATON_RT_Main
     /tmp/ccjN1hY0.s:125    .text.LL_ATON_RT_Main:0000004c $d
     /tmp/ccjN1hY0.s:135    .rodata.__func__.0:00000000 __func__.0
                           .group:00000000 wm4.0.43608cab4da50df6ba2dfee95636a2b5
                           .group:00000000 wm4.stdbool.h.29.c08aa3eec75cf5b9b5003883f43253f0
                           .group:00000000 wm4.stddef.h.39.811583f327f35b0df7808fda70b062a0
                           .group:00000000 wm4._newlib_version.h.4.0eb654b64686e2bd29646258853f6c22
                           .group:00000000 wm4.features.h.33.d554620bb17bd3b714c3fb5c268772bc
                           .group:00000000 wm4._default_types.h.15.247e5cd201eca3442cbf5404108c4935
                           .group:00000000 wm4._intsup.h.10.48bafbb683905c4daa4565a85aeeb264
                           .group:00000000 wm4._stdint.h.10.c24fa3af3bc1706662bb5593a907e841
                           .group:00000000 wm4.stdint.h.23.d53047a68f4a85177f80b422d52785ed
                           .group:00000000 wm4.ll_aton_config.h.20.6c93c36cdcfd4d0d33ea92e3d64119d1
                           .group:00000000 wm4.ll_aton_attributes.h.20.26d469460cb32db5740effdc8cc403f3
                           .group:00000000 wm4.ll_aton_cipher.h.20.e98fdae11c912f4036a83cedb835e14e
                           .group:00000000 wm4.newlib.h.7.decd5b9657e2c5df625d9eac6e10520c
                           .group:00000000 wm4.ieeefp.h.77.99029d7b8220a2cd73dd257e2bbe825d
                           .group:00000000 wm4.config.h.224.10ee1ad185d877c6e334e6581faab44d
                           .group:00000000 wm4._ansi.h.31.de524f58584151836e90d8620a16f8e8
                           .group:00000000 wm4.assert.h.11.db24e541f16414db224bf986d21017e2
                           .group:00000000 wm4.errno.h.2.ba016d646105af6cad23be83630b6a3f
                           .group:00000000 wm4.cdefs.h.49.56fd742369e655e7e8a7e365e706e208
                           .group:00000000 wm4._types.h.20.dd0d04dca3800a0d2a6129b87f3adbb2
                           .group:00000000 wm4.stddef.h.173.4903093a50a8482cb062b176ea61fac3
                           .group:00000000 wm4._types.h.127.3bdfe3ff8ea2d0985b03d9cbe93480e3
                           .group:00000000 wm4.reent.h.18.25503cdc8b7e55dd0d6ea7b3e5af7a03
                           .group:00000000 wm4.lock.h.2.1461d1fff82dffe8bfddc23307f6484f
                           .group:00000000 wm4.reent.h.78.6d702f69a6d6435d2dbe915b10150b1a
                           .group:00000000 wm4.errno.h.18.87873c1c5b242e8a4fdc43daa9aad824
                           .group:00000000 wm4.stdio.h.27.3fc80220048df77954e38daec3bb9670
                           .group:00000000 wm4.stddef.h.173.1cea4f16a943c8e875db6791959c3141
                           .group:00000000 wm4.stdarg.h.34.3a23a216c0c293b3d2ea2e89281481e6
                           .group:00000000 wm4.stdio.h.47.dc31ec4674d7bcb103c9f08809549f45
                           .group:00000000 wm4.stdio.h.2.4aa87247282eca6c8f36f9de33d8df1a
                           .group:00000000 wm4.stdio.h.87.a1e20d2651f9bfb66e51bfbe849db00a
                           .group:00000000 wm4.ll_aton_util.h.34.9098eaa90d3d72b819973556e3e5fe44
                           .group:00000000 wm4.ll_aton_platform.h.20.8f1d4e7781c282794886ffdd00ccd30b
                           .group:00000000 wm4.stm32n6xx.h.34.c523a1ffdf274a69e8802892c6776332
                           .group:00000000 wm4.stm32n657xx.h.26.acd272cb67318cc1a4791ce2f0720ca6
                           .group:00000000 wm4.cmsis_version.h.30.d128735bf87720f7436b74fefeb5043c
                           .group:00000000 wm4.core_cm55.h.67.25006a3ce7048d64bcddd2996d5fac93
                           .group:00000000 wm4.arm_acle.h.28.a0697f530ff2dbf8c463bef049b82760
                           .group:00000000 wm4.cmsis_gcc.h.39.eba7438bc45fd1a6e6376b63ffe44436
                           .group:00000000 wm4.cmsis_gcc_m.h.24.e590ec51aeda3a1242400351d73f5dce
                           .group:00000000 wm4.core_cm55.h.213.0528f46a674315ef8d35c4477e230358
                           .group:00000000 wm4.armv8m_mpu.h.24.bf28cc25bee30a7ff9d2f7a44a5e2230
                           .group:00000000 wm4.armv8m_pmu.h.24.6ded195d2625055391fd378c0e1d2519
                           .group:00000000 wm4.core_cm55.h.4477.396e822ef855bcfb932819ad48de1c4c
                           .group:00000000 wm4.armv7m_cachel1.h.24.936dd92d6e204a8d0b17d5e4ea4a356e
                           .group:00000000 wm4.stm32n657xx.h.575.78d331c417ec710388ced647138f735f
                           .group:00000000 wm4.stm32n6xx.h.116.b4247d9785590e7c5ec9234ffb2153bf
                           .group:00000000 wm4.ll_aton_platform.h.193.839c738dd3656499eb04a1554c9718a7
                           .group:00000000 wm4.inttypes.h.14.b28deb26920e51e0da310220ef0f9003
                           .group:00000000 wm4.inttypes.h.28.684aa7736e7ecc9a6ffc44acc61c7a90
ARM GAS  /tmp/ccjN1hY0.s 			page 7


                           .group:00000000 wm4.syslimits.h.34.de5cbd310098bc5895998b6bde577ed2
                           .group:00000000 wm4.limits.h.9.70fb0ada6f71b16202a66baaa6d8ea70
                           .group:00000000 wm4.limits.h.60.56a1ae353e2028a24298ec6463b8b593
                           .group:00000000 wm4.string.h.8.c4b8571ce60dff2817f43fec8b86aecd
                           .group:00000000 wm4.string.h.177.59a005921fa78485abc80a0267de5752
                           .group:00000000 wm4.ATONidxs.h.26.0509aab23d8759e302dd89a3f1c4c4e6
                           .group:00000000 wm4.ATON.h.31.92b067719450db0ca8cb669a46fd6466
                           .group:00000000 wm4.ll_aton_rcompat.h.22.1cafe33611009fe26ae71004f793a6f2
                           .group:00000000 wm4.ll_aton_platform.h.273.0ce458c1e5cf9cedb0d657312536362c
                           .group:00000000 wm4.tx_api.h.111.1e40bacadb0edb5b6b36282830ee23a5
                           .group:00000000 wm4.stdlib.h.13.4ed386f5c1a80d71e72172885d946ef2
                           .group:00000000 wm4.alloca.h.8.dfc0c703c47ec3e69746825b17d9e66d
                           .group:00000000 wm4.stdlib.h.56.f4862cfbf4363a1db01842d5bdf72c18
                           .group:00000000 wm4.tx_port.h.115.8e956eb46460c8c3c519d728cbd87812
                           .group:00000000 wm4.tx_api.h.143.79257ef837605c4fece165ef0da36ec0
                           .group:00000000 wm4.tx_thread.h.58.aca505065ec84c0c978a4a3ba538ff60
                           .group:00000000 wm4.ll_aton_osal_threadx.h.63.5e92e46aac65de1abf5fe43cf61d6a12
                           .group:00000000 wm4.ll_aton_osal.h.90.b63c7ec873581c66be5cec7afb8eb9d5
                           .group:00000000 wm4.ll_aton_rt_user_api.h.71.52957347efa02883c6e8b1a7f756d297

UNDEFINED SYMBOLS
__assert_func
LL_ATON_RT_RuntimeInit
LL_ATON_RT_Init_Network
LL_ATON_RT_RunEpochBlock
aton_osal_threadx_wfe
LL_ATON_RT_DeInit_Network
LL_ATON_RT_RuntimeDeInit
