ARM GAS  /tmp/ccZ60fyp.s 			page 1


   1              		.arch armv8.1-m.main
   2              		.fpu fpv5-d16
   3              		.arch_extension dsp
   4              		.arch_extension fp
   5              		.arch_extension fp.dp
   6              		.arch_extension mve
   7              		.arch_extension mve.fp
   8              		.eabi_attribute 5, "cortex-m55"
   9              		.eabi_attribute 28, 1
  10              		.eabi_attribute 20, 1
  11              		.eabi_attribute 21, 1
  12              		.eabi_attribute 23, 3
  13              		.eabi_attribute 24, 1
  14              		.eabi_attribute 25, 1
  15              		.eabi_attribute 26, 1
  16              		.eabi_attribute 30, 4
  17              		.eabi_attribute 34, 1
  18              		.eabi_attribute 38, 1
  19              		.eabi_attribute 18, 4
  20              		.file	"ll_aton_util.c"
  21              		.text
  22              	.Ltext0:
  23              		.cfi_sections	.debug_frame
  24              		.file 1 "../Middlewares/stedgeai-lib/Npu/ll_aton/ll_aton_util.c"
  25              		.section	.text.LL_ATON_getbits,"ax",%progbits
  26              		.align	1
  27              		.global	LL_ATON_getbits
  28              		.syntax unified
  29              		.thumb
  30              		.thumb_func
  32              	LL_ATON_getbits:
  33              	.LVL0:
  34              	.LFB3:
   1:../Middlewares/stedgeai-lib/Npu/ll_aton/ll_aton_util.c **** /**
   2:../Middlewares/stedgeai-lib/Npu/ll_aton/ll_aton_util.c ****  ******************************************************************************
   3:../Middlewares/stedgeai-lib/Npu/ll_aton/ll_aton_util.c ****  * @file    ll_aton_util.c
   4:../Middlewares/stedgeai-lib/Npu/ll_aton/ll_aton_util.c ****  * @author  SRA Artificial Intelligence & Embedded Architectures
   5:../Middlewares/stedgeai-lib/Npu/ll_aton/ll_aton_util.c ****  * @brief   ATON LL utility functions
   6:../Middlewares/stedgeai-lib/Npu/ll_aton/ll_aton_util.c ****  ******************************************************************************
   7:../Middlewares/stedgeai-lib/Npu/ll_aton/ll_aton_util.c ****  * @attention
   8:../Middlewares/stedgeai-lib/Npu/ll_aton/ll_aton_util.c ****  *
   9:../Middlewares/stedgeai-lib/Npu/ll_aton/ll_aton_util.c ****  * Copyright (c) 2024 STMicroelectronics.
  10:../Middlewares/stedgeai-lib/Npu/ll_aton/ll_aton_util.c ****  * All rights reserved.
  11:../Middlewares/stedgeai-lib/Npu/ll_aton/ll_aton_util.c ****  *
  12:../Middlewares/stedgeai-lib/Npu/ll_aton/ll_aton_util.c ****  * This software is licensed under terms that can be found in the LICENSE file
  13:../Middlewares/stedgeai-lib/Npu/ll_aton/ll_aton_util.c ****  * in the root directory of this software component.
  14:../Middlewares/stedgeai-lib/Npu/ll_aton/ll_aton_util.c ****  * If no LICENSE file comes with this software, it is provided AS-IS.
  15:../Middlewares/stedgeai-lib/Npu/ll_aton/ll_aton_util.c ****  *
  16:../Middlewares/stedgeai-lib/Npu/ll_aton/ll_aton_util.c ****  ******************************************************************************
  17:../Middlewares/stedgeai-lib/Npu/ll_aton/ll_aton_util.c ****  */
  18:../Middlewares/stedgeai-lib/Npu/ll_aton/ll_aton_util.c **** 
  19:../Middlewares/stedgeai-lib/Npu/ll_aton/ll_aton_util.c **** #include <stddef.h>
  20:../Middlewares/stedgeai-lib/Npu/ll_aton/ll_aton_util.c **** #include <stdint.h>
  21:../Middlewares/stedgeai-lib/Npu/ll_aton/ll_aton_util.c **** #include <stdio.h>
  22:../Middlewares/stedgeai-lib/Npu/ll_aton/ll_aton_util.c **** 
  23:../Middlewares/stedgeai-lib/Npu/ll_aton/ll_aton_util.c **** #include "ll_aton_util.h"
  24:../Middlewares/stedgeai-lib/Npu/ll_aton/ll_aton_util.c **** 
ARM GAS  /tmp/ccZ60fyp.s 			page 2


  25:../Middlewares/stedgeai-lib/Npu/ll_aton/ll_aton_util.c **** /**
  26:../Middlewares/stedgeai-lib/Npu/ll_aton/ll_aton_util.c ****  * @brief  Helper function. Extracts bitfield from a buffer
  27:../Middlewares/stedgeai-lib/Npu/ll_aton/ll_aton_util.c ****  * @param  bits Pointer of the buffer to extract bits from
  28:../Middlewares/stedgeai-lib/Npu/ll_aton/ll_aton_util.c ****  * @param  pos Global bit position of the bitfield to extract
  29:../Middlewares/stedgeai-lib/Npu/ll_aton/ll_aton_util.c ****  * @param  nbits Number of bits to extract
  30:../Middlewares/stedgeai-lib/Npu/ll_aton/ll_aton_util.c ****  * @retval extracted bitfield
  31:../Middlewares/stedgeai-lib/Npu/ll_aton/ll_aton_util.c ****  */
  32:../Middlewares/stedgeai-lib/Npu/ll_aton/ll_aton_util.c **** uint32_t LL_ATON_getbits(uint32_t *bits, unsigned int pos, int nbits)
  33:../Middlewares/stedgeai-lib/Npu/ll_aton/ll_aton_util.c **** {
  35              		.loc 1 33 1 view -0
  36              		.cfi_startproc
  37              		@ args = 0, pretend = 0, frame = 0
  38              		@ frame_needed = 0, uses_anonymous_args = 0
  34:../Middlewares/stedgeai-lib/Npu/ll_aton/ll_aton_util.c ****   // Find the word and bit offset
  35:../Middlewares/stedgeai-lib/Npu/ll_aton/ll_aton_util.c ****   unsigned int word_idx = pos >> 5;
  39              		.loc 1 35 3 view .LVU1
  36:../Middlewares/stedgeai-lib/Npu/ll_aton/ll_aton_util.c ****   unsigned int bit_idx = pos & 0x1f;
  40              		.loc 1 36 3 view .LVU2
  33:../Middlewares/stedgeai-lib/Npu/ll_aton/ll_aton_util.c ****   // Find the word and bit offset
  41              		.loc 1 33 1 is_stmt 0 view .LVU3
  42 0000 F0B5     		push	{r4, r5, r6, r7, lr}
  43              		.cfi_def_cfa_offset 20
  44              		.cfi_offset 4, -20
  45              		.cfi_offset 5, -16
  46              		.cfi_offset 6, -12
  47              		.cfi_offset 7, -8
  48              		.cfi_offset 14, -4
  49              		.loc 1 36 16 view .LVU4
  50 0002 01F01F04 		and	r4, r1, #31
  51              	.LVL1:
  37:../Middlewares/stedgeai-lib/Npu/ll_aton/ll_aton_util.c **** 
  38:../Middlewares/stedgeai-lib/Npu/ll_aton/ll_aton_util.c ****   uint32_t value;
  52              		.loc 1 38 3 is_stmt 1 view .LVU5
  39:../Middlewares/stedgeai-lib/Npu/ll_aton/ll_aton_util.c ****   if (bit_idx + nbits <= 32)
  53              		.loc 1 39 3 view .LVU6
  35:../Middlewares/stedgeai-lib/Npu/ll_aton/ll_aton_util.c ****   unsigned int bit_idx = pos & 0x1f;
  54              		.loc 1 35 16 is_stmt 0 view .LVU7
  55 0006 4909     		lsrs	r1, r1, #5
  56              	.LVL2:
  57              	.LBB2:
  40:../Middlewares/stedgeai-lib/Npu/ll_aton/ll_aton_util.c ****   {
  41:../Middlewares/stedgeai-lib/Npu/ll_aton/ll_aton_util.c ****     uint32_t word = bits[word_idx];
  42:../Middlewares/stedgeai-lib/Npu/ll_aton/ll_aton_util.c ****     value = (word >> bit_idx) & ((1ULL << nbits) - 1);
  58              		.loc 1 42 19 view .LVU8
  59 0008 50F82130 		ldr	r3, [r0, r1, lsl #2]
  60              	.LBE2:
  39:../Middlewares/stedgeai-lib/Npu/ll_aton/ll_aton_util.c ****   {
  61              		.loc 1 39 15 view .LVU9
  62 000c 1519     		adds	r5, r2, r4
  39:../Middlewares/stedgeai-lib/Npu/ll_aton/ll_aton_util.c ****   {
  63              		.loc 1 39 6 view .LVU10
  64 000e 202D     		cmp	r5, #32
  65              	.LBB3:
  41:../Middlewares/stedgeai-lib/Npu/ll_aton/ll_aton_util.c ****     value = (word >> bit_idx) & ((1ULL << nbits) - 1);
  66              		.loc 1 41 25 view .LVU11
  67 0010 4FEA8106 		lsl	r6, r1, #2
  68              		.loc 1 42 19 view .LVU12
ARM GAS  /tmp/ccZ60fyp.s 			page 3


  69 0014 23FA04F3 		lsr	r3, r3, r4
  70              	.LBE3:
  39:../Middlewares/stedgeai-lib/Npu/ll_aton/ll_aton_util.c ****   {
  71              		.loc 1 39 6 view .LVU13
  72 0018 15D8     		bhi	.L2
  73              	.LBB4:
  41:../Middlewares/stedgeai-lib/Npu/ll_aton/ll_aton_util.c ****     value = (word >> bit_idx) & ((1ULL << nbits) - 1);
  74              		.loc 1 41 5 is_stmt 1 view .LVU14
  75              	.LVL3:
  76              		.loc 1 42 5 view .LVU15
  77              		.loc 1 42 31 is_stmt 0 view .LVU16
  78 001a 4FF0FF30 		mov	r0, #-1
  79              	.LVL4:
  80              		.loc 1 42 31 view .LVU17
  81 001e 4FF0FF31 		mov	r1, #-1
  82              	.LVL5:
  83              		.loc 1 42 31 view .LVU18
  84 0022 50EA0D21 		lsll	r0, r1, r2
  85              		.loc 1 42 11 view .LVU19
  86 0026 23EA0000 		bic	r0, r3, r0
  87              	.LVL6:
  88              	.L3:
  89              		.loc 1 42 11 view .LVU20
  90              	.LBE4:
  43:../Middlewares/stedgeai-lib/Npu/ll_aton/ll_aton_util.c ****   }
  44:../Middlewares/stedgeai-lib/Npu/ll_aton/ll_aton_util.c ****   else
  45:../Middlewares/stedgeai-lib/Npu/ll_aton/ll_aton_util.c ****   {
  46:../Middlewares/stedgeai-lib/Npu/ll_aton/ll_aton_util.c ****     uint32_t low = bits[word_idx] >> bit_idx;
  47:../Middlewares/stedgeai-lib/Npu/ll_aton/ll_aton_util.c ****     uint32_t high = bits[word_idx + 1] & ((1ULL << (nbits - (32 - bit_idx))) - 1);
  48:../Middlewares/stedgeai-lib/Npu/ll_aton/ll_aton_util.c ****     value = low | (high << (32 - bit_idx));
  49:../Middlewares/stedgeai-lib/Npu/ll_aton/ll_aton_util.c ****   }
  50:../Middlewares/stedgeai-lib/Npu/ll_aton/ll_aton_util.c **** 
  51:../Middlewares/stedgeai-lib/Npu/ll_aton/ll_aton_util.c ****   // Sign extension if needed
  52:../Middlewares/stedgeai-lib/Npu/ll_aton/ll_aton_util.c ****   if (nbits < 32 && (value & (1ULL << (nbits - 1))))
  91              		.loc 1 52 3 is_stmt 1 view .LVU21
  92              		.loc 1 52 6 is_stmt 0 view .LVU22
  93 002a 1F2A     		cmp	r2, #31
  94 002c 0ADC     		bgt	.L1
  95              		.loc 1 52 46 discriminator 1 view .LVU23
  96 002e 531E     		subs	r3, r2, #1
  97              		.loc 1 52 18 discriminator 1 view .LVU24
  98 0030 20FA03F3 		lsr	r3, r0, r3
  99 0034 DB07     		lsls	r3, r3, #31
 100 0036 05D5     		bpl	.L1
  53:../Middlewares/stedgeai-lib/Npu/ll_aton/ll_aton_util.c ****   {
  54:../Middlewares/stedgeai-lib/Npu/ll_aton/ll_aton_util.c ****     // If sign bit is set, extend the sign
  55:../Middlewares/stedgeai-lib/Npu/ll_aton/ll_aton_util.c ****     value |= ~((1ULL << nbits) - 1);
 101              		.loc 1 55 5 is_stmt 1 view .LVU25
 102              		.loc 1 55 22 is_stmt 0 view .LVU26
 103 0038 0124     		movs	r4, #1
 104 003a 0025     		movs	r5, #0
 105 003c 54EA0D25 		lsll	r4, r5, r2
 106              		.loc 1 55 11 view .LVU27
 107 0040 6442     		rsbs	r4, r4, #0
 108 0042 2043     		orrs	r0, r0, r4
 109              	.LVL7:
  56:../Middlewares/stedgeai-lib/Npu/ll_aton/ll_aton_util.c ****   }
ARM GAS  /tmp/ccZ60fyp.s 			page 4


  57:../Middlewares/stedgeai-lib/Npu/ll_aton/ll_aton_util.c **** 
  58:../Middlewares/stedgeai-lib/Npu/ll_aton/ll_aton_util.c ****   return value;
 110              		.loc 1 58 3 is_stmt 1 view .LVU28
 111              	.L1:
  59:../Middlewares/stedgeai-lib/Npu/ll_aton/ll_aton_util.c **** }
 112              		.loc 1 59 1 is_stmt 0 view .LVU29
 113 0044 F0BD     		pop	{r4, r5, r6, r7, pc}
 114              	.LVL8:
 115              	.L2:
 116              	.LBB5:
  46:../Middlewares/stedgeai-lib/Npu/ll_aton/ll_aton_util.c ****     uint32_t high = bits[word_idx + 1] & ((1ULL << (nbits - (32 - bit_idx))) - 1);
 117              		.loc 1 46 5 is_stmt 1 view .LVU30
  47:../Middlewares/stedgeai-lib/Npu/ll_aton/ll_aton_util.c ****     value = low | (high << (32 - bit_idx));
 118              		.loc 1 47 5 view .LVU31
  48:../Middlewares/stedgeai-lib/Npu/ll_aton/ll_aton_util.c ****   }
 119              		.loc 1 48 5 view .LVU32
  47:../Middlewares/stedgeai-lib/Npu/ll_aton/ll_aton_util.c ****     value = low | (high << (32 - bit_idx));
 120              		.loc 1 47 25 is_stmt 0 view .LVU33
 121 0046 3044     		add	r0, r0, r6
 122              	.LVL9:
  47:../Middlewares/stedgeai-lib/Npu/ll_aton/ll_aton_util.c ****     value = low | (high << (32 - bit_idx));
 123              		.loc 1 47 40 view .LVU34
 124 0048 4FF0FF37 		mov	r7, #-1
 125 004c 4FF0FF36 		mov	r6, #-1
 126              	.LVL10:
  47:../Middlewares/stedgeai-lib/Npu/ll_aton/ll_aton_util.c ****     value = low | (high << (32 - bit_idx));
 127              		.loc 1 47 59 view .LVU35
 128 0050 203D     		subs	r5, r5, #32
 129              	.LVL11:
  47:../Middlewares/stedgeai-lib/Npu/ll_aton/ll_aton_util.c ****     value = low | (high << (32 - bit_idx));
 130              		.loc 1 47 40 view .LVU36
 131 0052 56EA0D57 		lsll	r6, r7, r5
  47:../Middlewares/stedgeai-lib/Npu/ll_aton/ll_aton_util.c ****     value = low | (high << (32 - bit_idx));
 132              		.loc 1 47 14 view .LVU37
 133 0056 4168     		ldr	r1, [r0, #4]
 134              	.LVL12:
  48:../Middlewares/stedgeai-lib/Npu/ll_aton/ll_aton_util.c ****   }
 135              		.loc 1 48 32 view .LVU38
 136 0058 C4F12004 		rsb	r4, r4, #32
 137              	.LVL13:
  47:../Middlewares/stedgeai-lib/Npu/ll_aton/ll_aton_util.c ****     value = low | (high << (32 - bit_idx));
 138              		.loc 1 47 14 view .LVU39
 139 005c 21EA0601 		bic	r1, r1, r6
  48:../Middlewares/stedgeai-lib/Npu/ll_aton/ll_aton_util.c ****   }
 140              		.loc 1 48 25 view .LVU40
 141 0060 A140     		lsls	r1, r1, r4
  48:../Middlewares/stedgeai-lib/Npu/ll_aton/ll_aton_util.c ****   }
 142              		.loc 1 48 11 view .LVU41
 143 0062 41EA0300 		orr	r0, r1, r3
 144 0066 E0E7     		b	.L3
 145              	.LBE5:
 146              		.cfi_endproc
 147              	.LFE3:
 149              		.section	.text.LL_ATON_setbits,"ax",%progbits
 150              		.align	1
 151              		.global	LL_ATON_setbits
 152              		.syntax unified
ARM GAS  /tmp/ccZ60fyp.s 			page 5


 153              		.thumb
 154              		.thumb_func
 156              	LL_ATON_setbits:
 157              	.LVL14:
 158              	.LFB4:
  60:../Middlewares/stedgeai-lib/Npu/ll_aton/ll_aton_util.c **** 
  61:../Middlewares/stedgeai-lib/Npu/ll_aton/ll_aton_util.c **** /**
  62:../Middlewares/stedgeai-lib/Npu/ll_aton/ll_aton_util.c ****  * @brief  Helper function. Packs bitfield into a buffer
  63:../Middlewares/stedgeai-lib/Npu/ll_aton/ll_aton_util.c ****  * @param  bits Pointer of the buffer to pack bits into
  64:../Middlewares/stedgeai-lib/Npu/ll_aton/ll_aton_util.c ****  * @param  pos Global position of the bitfield to pack
  65:../Middlewares/stedgeai-lib/Npu/ll_aton/ll_aton_util.c ****  * @retval nbits Number of bits to extract
  66:../Middlewares/stedgeai-lib/Npu/ll_aton/ll_aton_util.c ****  */
  67:../Middlewares/stedgeai-lib/Npu/ll_aton/ll_aton_util.c **** void LL_ATON_setbits(uint32_t *bits, unsigned int pos, int nbits, unsigned int val)
  68:../Middlewares/stedgeai-lib/Npu/ll_aton/ll_aton_util.c **** {
 159              		.loc 1 68 1 is_stmt 1 view -0
 160              		.cfi_startproc
 161              		@ args = 0, pretend = 0, frame = 8
 162              		@ frame_needed = 0, uses_anonymous_args = 0
  69:../Middlewares/stedgeai-lib/Npu/ll_aton/ll_aton_util.c ****   const int bitsperint = sizeof(unsigned int) * 8;
 163              		.loc 1 69 3 view .LVU43
  70:../Middlewares/stedgeai-lib/Npu/ll_aton/ll_aton_util.c ****   unsigned int smask = ((1ULL << nbits) - 1) << (pos % bitsperint);
 164              		.loc 1 70 3 view .LVU44
  68:../Middlewares/stedgeai-lib/Npu/ll_aton/ll_aton_util.c ****   const int bitsperint = sizeof(unsigned int) * 8;
 165              		.loc 1 68 1 is_stmt 0 view .LVU45
 166 0000 2DE9F347 		push	{r0, r1, r4, r5, r6, r7, r8, r9, r10, lr}
 167              		.cfi_def_cfa_offset 40
 168              		.cfi_offset 4, -32
 169              		.cfi_offset 5, -28
 170              		.cfi_offset 6, -24
 171              		.cfi_offset 7, -20
 172              		.cfi_offset 8, -16
 173              		.cfi_offset 9, -12
 174              		.cfi_offset 10, -8
 175              		.cfi_offset 14, -4
 176              		.loc 1 70 31 view .LVU46
 177 0004 0124     		movs	r4, #1
 178 0006 0025     		movs	r5, #0
 179 0008 54EA0D25 		lsll	r4, r5, r2
 180 000c CDE90045 		strd	r4, [sp]
  71:../Middlewares/stedgeai-lib/Npu/ll_aton/ll_aton_util.c ****   unsigned int mask = ((1ULL << nbits) - 1);
 181              		.loc 1 71 16 view .LVU47
 182 0010 009C     		ldr	r4, [sp]
  70:../Middlewares/stedgeai-lib/Npu/ll_aton/ll_aton_util.c ****   unsigned int smask = ((1ULL << nbits) - 1) << (pos % bitsperint);
 183              		.loc 1 70 54 view .LVU48
 184 0012 01F01F0E 		and	lr, r1, #31
 185              	.LVL15:
 186              		.loc 1 71 3 is_stmt 1 view .LVU49
  72:../Middlewares/stedgeai-lib/Npu/ll_aton/ll_aton_util.c ****   int index0 = pos / bitsperint;
 187              		.loc 1 72 3 view .LVU50
  71:../Middlewares/stedgeai-lib/Npu/ll_aton/ll_aton_util.c ****   unsigned int mask = ((1ULL << nbits) - 1);
 188              		.loc 1 71 16 is_stmt 0 view .LVU51
 189 0016 04F1FF3A 		add	r10, r4, #-1
 190              	.LVL16:
  70:../Middlewares/stedgeai-lib/Npu/ll_aton/ll_aton_util.c ****   unsigned int mask = ((1ULL << nbits) - 1);
 191              		.loc 1 70 46 view .LVU52
 192 001a D046     		mov	r8, r10
  70:../Middlewares/stedgeai-lib/Npu/ll_aton/ll_aton_util.c ****   unsigned int mask = ((1ULL << nbits) - 1);
ARM GAS  /tmp/ccZ60fyp.s 			page 6


 193              		.loc 1 70 41 view .LVU53
 194 001c 013C     		subs	r4, r4, #1
  70:../Middlewares/stedgeai-lib/Npu/ll_aton/ll_aton_util.c ****   unsigned int mask = ((1ULL << nbits) - 1);
 195              		.loc 1 70 46 view .LVU54
 196 001e 019C     		ldr	r4, [sp, #4]
 197              		.loc 1 72 20 view .LVU55
 198 0020 4FEA5117 		lsr	r7, r1, #5
 199              	.LVL17:
  73:../Middlewares/stedgeai-lib/Npu/ll_aton/ll_aton_util.c ****   int index1 = (pos + nbits - 1) / bitsperint;
 200              		.loc 1 73 3 is_stmt 1 view .LVU56
  70:../Middlewares/stedgeai-lib/Npu/ll_aton/ll_aton_util.c ****   unsigned int mask = ((1ULL << nbits) - 1);
 201              		.loc 1 70 46 is_stmt 0 view .LVU57
 202 0024 64F10009 		sbc	r9, r4, #0
 203 0028 58EA0DE9 		lsll	r8, r9, lr
 204              	.LBB6:
  74:../Middlewares/stedgeai-lib/Npu/ll_aton/ll_aton_util.c ****   if (index0 == index1)
  75:../Middlewares/stedgeai-lib/Npu/ll_aton/ll_aton_util.c ****   {
  76:../Middlewares/stedgeai-lib/Npu/ll_aton/ll_aton_util.c ****     uint32_t tmp = (bits[index0] & ~smask) | ((val & mask) << (pos % bitsperint));
 205              		.loc 1 76 34 view .LVU58
 206 002c 50F82740 		ldr	r4, [r0, r7, lsl #2]
 207              	.LBE6:
  73:../Middlewares/stedgeai-lib/Npu/ll_aton/ll_aton_util.c ****   int index1 = (pos + nbits - 1) / bitsperint;
 208              		.loc 1 73 21 view .LVU59
 209 0030 1144     		add	r1, r1, r2
 210              	.LVL18:
  73:../Middlewares/stedgeai-lib/Npu/ll_aton/ll_aton_util.c ****   int index1 = (pos + nbits - 1) / bitsperint;
 211              		.loc 1 73 29 view .LVU60
 212 0032 01F1FF3C 		add	ip, r1, #-1
 213              	.LBB7:
 214              		.loc 1 76 52 view .LVU61
 215 0036 0AEA0303 		and	r3, r10, r3
 216              	.LVL19:
 217              		.loc 1 76 34 view .LVU62
 218 003a 24EA0804 		bic	r4, r4, r8
 219              		.loc 1 76 60 view .LVU63
 220 003e 03FA0EFE 		lsl	lr, r3, lr
 221              	.LVL20:
 222              		.loc 1 76 60 view .LVU64
 223              	.LBE7:
  74:../Middlewares/stedgeai-lib/Npu/ll_aton/ll_aton_util.c ****   if (index0 == index1)
 224              		.loc 1 74 6 view .LVU65
 225 0042 B7EB5C1F 		cmp	r7, ip, lsr #5
  73:../Middlewares/stedgeai-lib/Npu/ll_aton/ll_aton_util.c ****   int index1 = (pos + nbits - 1) / bitsperint;
 226              		.loc 1 73 34 view .LVU66
 227 0046 4FEA5C16 		lsr	r6, ip, #5
 228              	.LVL21:
  74:../Middlewares/stedgeai-lib/Npu/ll_aton/ll_aton_util.c ****   if (index0 == index1)
 229              		.loc 1 74 3 is_stmt 1 view .LVU67
 230              	.LBB8:
 231              		.loc 1 76 14 is_stmt 0 view .LVU68
 232 004a 44EA0E04 		orr	r4, r4, lr
 233              	.LBE8:
  74:../Middlewares/stedgeai-lib/Npu/ll_aton/ll_aton_util.c ****   if (index0 == index1)
 234              		.loc 1 74 6 view .LVU69
 235 004e 04D1     		bne	.L6
 236              	.LBB9:
 237              		.loc 1 76 5 is_stmt 1 view .LVU70
ARM GAS  /tmp/ccZ60fyp.s 			page 7


 238              	.LVL22:
  77:../Middlewares/stedgeai-lib/Npu/ll_aton/ll_aton_util.c ****     bits[index0] = tmp;
 239              		.loc 1 77 5 view .LVU71
 240              		.loc 1 77 18 is_stmt 0 view .LVU72
 241 0050 40F82740 		str	r4, [r0, r7, lsl #2]
 242              	.LVL23:
 243              	.L5:
 244              		.loc 1 77 18 view .LVU73
 245              	.LBE9:
  78:../Middlewares/stedgeai-lib/Npu/ll_aton/ll_aton_util.c ****   }
  79:../Middlewares/stedgeai-lib/Npu/ll_aton/ll_aton_util.c ****   else
  80:../Middlewares/stedgeai-lib/Npu/ll_aton/ll_aton_util.c ****   {
  81:../Middlewares/stedgeai-lib/Npu/ll_aton/ll_aton_util.c ****     unsigned int lshift = ((pos + nbits) % bitsperint);
  82:../Middlewares/stedgeai-lib/Npu/ll_aton/ll_aton_util.c ****     uint32_t tmp = (bits[index0] & ~smask) | ((val & mask) << (pos % bitsperint));
  83:../Middlewares/stedgeai-lib/Npu/ll_aton/ll_aton_util.c ****     bits[index0] = tmp;
  84:../Middlewares/stedgeai-lib/Npu/ll_aton/ll_aton_util.c ****     tmp = (bits[index1] & ((1ULL << lshift) - 1)) | ((val & mask) >> (nbits - lshift));
  85:../Middlewares/stedgeai-lib/Npu/ll_aton/ll_aton_util.c ****     bits[index1] = tmp;
  86:../Middlewares/stedgeai-lib/Npu/ll_aton/ll_aton_util.c ****   }
  87:../Middlewares/stedgeai-lib/Npu/ll_aton/ll_aton_util.c **** }
 246              		.loc 1 87 1 view .LVU74
 247 0054 02B0     		add	sp, sp, #8
 248              		.cfi_remember_state
 249              		.cfi_def_cfa_offset 32
 250              	.LVL24:
 251              		.loc 1 87 1 view .LVU75
 252              		@ sp needed
 253 0056 BDE8F087 		pop	{r4, r5, r6, r7, r8, r9, r10, pc}
 254              	.LVL25:
 255              	.L6:
 256              		.cfi_restore_state
 257              	.LBB10:
  81:../Middlewares/stedgeai-lib/Npu/ll_aton/ll_aton_util.c ****     uint32_t tmp = (bits[index0] & ~smask) | ((val & mask) << (pos % bitsperint));
 258              		.loc 1 81 5 is_stmt 1 view .LVU76
  84:../Middlewares/stedgeai-lib/Npu/ll_aton/ll_aton_util.c ****     bits[index1] = tmp;
 259              		.loc 1 84 25 is_stmt 0 view .LVU77
 260 005a 4FF0FF38 		mov	r8, #-1
 261 005e 4FF0FF39 		mov	r9, #-1
  81:../Middlewares/stedgeai-lib/Npu/ll_aton/ll_aton_util.c ****     uint32_t tmp = (bits[index0] & ~smask) | ((val & mask) << (pos % bitsperint));
 262              		.loc 1 81 18 view .LVU78
 263 0062 01F01F05 		and	r5, r1, #31
 264              	.LVL26:
  82:../Middlewares/stedgeai-lib/Npu/ll_aton/ll_aton_util.c ****     bits[index0] = tmp;
 265              		.loc 1 82 5 is_stmt 1 view .LVU79
  83:../Middlewares/stedgeai-lib/Npu/ll_aton/ll_aton_util.c ****     tmp = (bits[index1] & ((1ULL << lshift) - 1)) | ((val & mask) >> (nbits - lshift));
 266              		.loc 1 83 5 view .LVU80
  84:../Middlewares/stedgeai-lib/Npu/ll_aton/ll_aton_util.c ****     bits[index1] = tmp;
 267              		.loc 1 84 25 is_stmt 0 view .LVU81
 268 0066 58EA0D59 		lsll	r8, r9, r5
  83:../Middlewares/stedgeai-lib/Npu/ll_aton/ll_aton_util.c ****     tmp = (bits[index1] & ((1ULL << lshift) - 1)) | ((val & mask) >> (nbits - lshift));
 269              		.loc 1 83 18 view .LVU82
 270 006a 40F82740 		str	r4, [r0, r7, lsl #2]
 271              	.LVL27:
  84:../Middlewares/stedgeai-lib/Npu/ll_aton/ll_aton_util.c ****     bits[index1] = tmp;
 272              		.loc 1 84 5 is_stmt 1 view .LVU83
  85:../Middlewares/stedgeai-lib/Npu/ll_aton/ll_aton_util.c ****   }
 273              		.loc 1 85 5 view .LVU84
  84:../Middlewares/stedgeai-lib/Npu/ll_aton/ll_aton_util.c ****     bits[index1] = tmp;
ARM GAS  /tmp/ccZ60fyp.s 			page 8


 274              		.loc 1 84 25 is_stmt 0 view .LVU85
 275 006e 50F82610 		ldr	r1, [r0, r6, lsl #2]
  84:../Middlewares/stedgeai-lib/Npu/ll_aton/ll_aton_util.c ****     bits[index1] = tmp;
 276              		.loc 1 84 77 view .LVU86
 277 0072 521B     		subs	r2, r2, r5
 278              	.LVL28:
  84:../Middlewares/stedgeai-lib/Npu/ll_aton/ll_aton_util.c ****     bits[index1] = tmp;
 279              		.loc 1 84 25 view .LVU87
 280 0074 21EA0801 		bic	r1, r1, r8
  84:../Middlewares/stedgeai-lib/Npu/ll_aton/ll_aton_util.c ****     bits[index1] = tmp;
 281              		.loc 1 84 67 view .LVU88
 282 0078 D340     		lsrs	r3, r3, r2
 283              	.LVL29:
  84:../Middlewares/stedgeai-lib/Npu/ll_aton/ll_aton_util.c ****     bits[index1] = tmp;
 284              		.loc 1 84 9 view .LVU89
 285 007a 1943     		orrs	r1, r1, r3
  85:../Middlewares/stedgeai-lib/Npu/ll_aton/ll_aton_util.c ****   }
 286              		.loc 1 85 18 view .LVU90
 287 007c 40F82610 		str	r1, [r0, r6, lsl #2]
 288              	.LVL30:
  85:../Middlewares/stedgeai-lib/Npu/ll_aton/ll_aton_util.c ****   }
 289              		.loc 1 85 18 view .LVU91
 290              	.LBE10:
 291              		.loc 1 87 1 view .LVU92
 292 0080 E8E7     		b	.L5
 293              		.cfi_endproc
 294              	.LFE4:
 296              		.text
 297              	.Letext0:
 298              		.file 2 "/opt/st/stm32cubeclt_1.21.0/GNU-tools-for-STM32/arm-none-eabi/include/machine/_default_ty
 299              		.file 3 "/opt/st/stm32cubeclt_1.21.0/GNU-tools-for-STM32/arm-none-eabi/include/sys/_stdint.h"
ARM GAS  /tmp/ccZ60fyp.s 			page 9

