ARM GAS  /tmp/ccZCp2co.s 			page 1


   1              		.arch armv8.1-m.main
   2              		.fpu fpv5-d16
   3              		.arch_extension dsp
   4              		.arch_extension fp
   5              		.arch_extension fp.dp
   6              		.arch_extension mve
   7              		.arch_extension mve.fp
   8              		.eabi_attribute 5, "cortex-m55"
   9              		.eabi_attribute 28, 1
  10              		.eabi_attribute 20, 1
  11              		.eabi_attribute 21, 1
  12              		.eabi_attribute 23, 3
  13              		.eabi_attribute 24, 1
  14              		.eabi_attribute 25, 1
  15              		.eabi_attribute 26, 1
  16              		.eabi_attribute 30, 4
  17              		.eabi_attribute 34, 1
  18              		.eabi_attribute 38, 1
  19              		.eabi_attribute 18, 4
  20              		.file	"ll_sw_integer.c"
  21              		.text
  22              	.Ltext0:
  23              		.cfi_sections	.debug_frame
  24              		.file 1 "../Middlewares/stedgeai-lib/Npu/ll_aton/ll_sw_integer.c"
  25              		.section	.text.ll_sw_forward_qlinearmatmul,"ax",%progbits
  26              		.align	1
  27              		.global	ll_sw_forward_qlinearmatmul
  28              		.syntax unified
  29              		.thumb
  30              		.thumb_func
  32              	ll_sw_forward_qlinearmatmul:
  33              	.LVL0:
  34              	.LFB15:
   1:../Middlewares/stedgeai-lib/Npu/ll_aton/ll_sw_integer.c **** /**
   2:../Middlewares/stedgeai-lib/Npu/ll_aton/ll_sw_integer.c ****  ******************************************************************************
   3:../Middlewares/stedgeai-lib/Npu/ll_aton/ll_sw_integer.c ****  * @file    ll_sw_integer.c
   4:../Middlewares/stedgeai-lib/Npu/ll_aton/ll_sw_integer.c ****  * @author  SRA Artificial Intelligence & Embedded Architectures
   5:../Middlewares/stedgeai-lib/Npu/ll_aton/ll_sw_integer.c ****  * @brief   Low Level Software library for Scale-Offset Integer Format inference interfacing with E
   6:../Middlewares/stedgeai-lib/Npu/ll_aton/ll_sw_integer.c ****  ******************************************************************************
   7:../Middlewares/stedgeai-lib/Npu/ll_aton/ll_sw_integer.c ****  * @attention
   8:../Middlewares/stedgeai-lib/Npu/ll_aton/ll_sw_integer.c ****  *
   9:../Middlewares/stedgeai-lib/Npu/ll_aton/ll_sw_integer.c ****  * Copyright (c) 2024 STMicroelectronics.
  10:../Middlewares/stedgeai-lib/Npu/ll_aton/ll_sw_integer.c ****  * All rights reserved.
  11:../Middlewares/stedgeai-lib/Npu/ll_aton/ll_sw_integer.c ****  *
  12:../Middlewares/stedgeai-lib/Npu/ll_aton/ll_sw_integer.c ****  * This software is licensed under terms that can be found in the LICENSE file
  13:../Middlewares/stedgeai-lib/Npu/ll_aton/ll_sw_integer.c ****  * in the root directory of this software component.
  14:../Middlewares/stedgeai-lib/Npu/ll_aton/ll_sw_integer.c ****  * If no LICENSE file comes with this software, it is provided AS-IS.
  15:../Middlewares/stedgeai-lib/Npu/ll_aton/ll_sw_integer.c ****  *
  16:../Middlewares/stedgeai-lib/Npu/ll_aton/ll_sw_integer.c ****  ******************************************************************************
  17:../Middlewares/stedgeai-lib/Npu/ll_aton/ll_sw_integer.c ****  */
  18:../Middlewares/stedgeai-lib/Npu/ll_aton/ll_sw_integer.c **** 
  19:../Middlewares/stedgeai-lib/Npu/ll_aton/ll_sw_integer.c **** #include "ll_aton_config.h"
  20:../Middlewares/stedgeai-lib/Npu/ll_aton/ll_sw_integer.c **** 
  21:../Middlewares/stedgeai-lib/Npu/ll_aton/ll_sw_integer.c **** #if LL_ATON_SW_FALLBACK == 1
  22:../Middlewares/stedgeai-lib/Npu/ll_aton/ll_sw_integer.c **** 
  23:../Middlewares/stedgeai-lib/Npu/ll_aton/ll_sw_integer.c **** #include <stdint.h>
  24:../Middlewares/stedgeai-lib/Npu/ll_aton/ll_sw_integer.c **** #include <stdio.h>
ARM GAS  /tmp/ccZCp2co.s 			page 2


  25:../Middlewares/stedgeai-lib/Npu/ll_aton/ll_sw_integer.c **** 
  26:../Middlewares/stedgeai-lib/Npu/ll_aton/ll_sw_integer.c **** #include "ll_sw.h"
  27:../Middlewares/stedgeai-lib/Npu/ll_aton/ll_sw_integer.c **** 
  28:../Middlewares/stedgeai-lib/Npu/ll_aton/ll_sw_integer.c **** #include "ai_datatypes_internal.h"
  29:../Middlewares/stedgeai-lib/Npu/ll_aton/ll_sw_integer.c **** #include "ai_math_helpers.h"
  30:../Middlewares/stedgeai-lib/Npu/ll_aton/ll_sw_integer.c **** #include "core_convert.h"
  31:../Middlewares/stedgeai-lib/Npu/ll_aton/ll_sw_integer.c **** #include "core_private.h"
  32:../Middlewares/stedgeai-lib/Npu/ll_aton/ll_sw_integer.c **** #include "layers.h"
  33:../Middlewares/stedgeai-lib/Npu/ll_aton/ll_sw_integer.c **** #include "ll_aton_util.h"
  34:../Middlewares/stedgeai-lib/Npu/ll_aton/ll_sw_integer.c **** 
  35:../Middlewares/stedgeai-lib/Npu/ll_aton/ll_sw_integer.c **** #define FORMAT AI_ARRAY_FORMAT_FLOAT
  36:../Middlewares/stedgeai-lib/Npu/ll_aton/ll_sw_integer.c **** 
  37:../Middlewares/stedgeai-lib/Npu/ll_aton/ll_sw_integer.c **** #define SHAPE_INIT(a_, b_, c_, d_) AI_SHAPE_INIT(4, (d_), (c_), (b_), (a_))
  38:../Middlewares/stedgeai-lib/Npu/ll_aton/ll_sw_integer.c **** 
  39:../Middlewares/stedgeai-lib/Npu/ll_aton/ll_sw_integer.c **** #define SHAPE_2D_INIT(h_, w_) AI_SHAPE_2D_INIT((w_), (h_))
  40:../Middlewares/stedgeai-lib/Npu/ll_aton/ll_sw_integer.c **** 
  41:../Middlewares/stedgeai-lib/Npu/ll_aton/ll_sw_integer.c **** #define STRIDE_INIT(a_, b_, c_, d_) AI_STRIDE_INIT(4, (d_), (c_), (b_), (a_))
  42:../Middlewares/stedgeai-lib/Npu/ll_aton/ll_sw_integer.c **** 
  43:../Middlewares/stedgeai-lib/Npu/ll_aton/ll_sw_integer.c **** #define TENSORS(...) __VA_ARGS__
  44:../Middlewares/stedgeai-lib/Npu/ll_aton/ll_sw_integer.c **** 
  45:../Middlewares/stedgeai-lib/Npu/ll_aton/ll_sw_integer.c **** static int helper_emit_shape_index_axis(int onnx_axis)
  46:../Middlewares/stedgeai-lib/Npu/ll_aton/ll_sw_integer.c **** {
  47:../Middlewares/stedgeai-lib/Npu/ll_aton/ll_sw_integer.c ****   switch (onnx_axis)
  48:../Middlewares/stedgeai-lib/Npu/ll_aton/ll_sw_integer.c ****   {
  49:../Middlewares/stedgeai-lib/Npu/ll_aton/ll_sw_integer.c ****   case 0:
  50:../Middlewares/stedgeai-lib/Npu/ll_aton/ll_sw_integer.c ****     return AI_SHAPE_IN_CHANNEL;
  51:../Middlewares/stedgeai-lib/Npu/ll_aton/ll_sw_integer.c ****   case 1:
  52:../Middlewares/stedgeai-lib/Npu/ll_aton/ll_sw_integer.c ****     return AI_SHAPE_CHANNEL;
  53:../Middlewares/stedgeai-lib/Npu/ll_aton/ll_sw_integer.c ****   case 2:
  54:../Middlewares/stedgeai-lib/Npu/ll_aton/ll_sw_integer.c ****     return AI_SHAPE_HEIGHT; // note the switch required with case 3
  55:../Middlewares/stedgeai-lib/Npu/ll_aton/ll_sw_integer.c ****   case 3:
  56:../Middlewares/stedgeai-lib/Npu/ll_aton/ll_sw_integer.c ****     return AI_SHAPE_WIDTH; // note the switch required with case 2
  57:../Middlewares/stedgeai-lib/Npu/ll_aton/ll_sw_integer.c ****   default:
  58:../Middlewares/stedgeai-lib/Npu/ll_aton/ll_sw_integer.c **** #ifdef LL_SW_ENABLE_ASSERTS
  59:../Middlewares/stedgeai-lib/Npu/ll_aton/ll_sw_integer.c ****     LL_ATON_ASSERT(0 && "axis index not supported");
  60:../Middlewares/stedgeai-lib/Npu/ll_aton/ll_sw_integer.c **** #endif
  61:../Middlewares/stedgeai-lib/Npu/ll_aton/ll_sw_integer.c ****     return -1;
  62:../Middlewares/stedgeai-lib/Npu/ll_aton/ll_sw_integer.c ****   }
  63:../Middlewares/stedgeai-lib/Npu/ll_aton/ll_sw_integer.c **** }
  64:../Middlewares/stedgeai-lib/Npu/ll_aton/ll_sw_integer.c **** 
  65:../Middlewares/stedgeai-lib/Npu/ll_aton/ll_sw_integer.c **** /** QLinearMatMul forward function */
  66:../Middlewares/stedgeai-lib/Npu/ll_aton/ll_sw_integer.c **** void ll_sw_forward_qlinearmatmul(Qlinearmatmul_sw_info *sw_info)
  67:../Middlewares/stedgeai-lib/Npu/ll_aton/ll_sw_integer.c **** {
  35              		.loc 1 67 1 view -0
  36              		.cfi_startproc
  37              		@ args = 0, pretend = 0, frame = 552
  38              		@ frame_needed = 0, uses_anonymous_args = 0
  68:../Middlewares/stedgeai-lib/Npu/ll_aton/ll_sw_integer.c ****   /*
  69:../Middlewares/stedgeai-lib/Npu/ll_aton/ll_sw_integer.c ****   1. reshape of the weights from weights tensor -> weights_perm tensor
  70:../Middlewares/stedgeai-lib/Npu/ll_aton/ll_sw_integer.c ****   2. map the matmul operation on the library dense_forward function.
  71:../Middlewares/stedgeai-lib/Npu/ll_aton/ll_sw_integer.c ****           this requires 1d input (on ch) and 2d weights (ch e chin). in particular:
  72:../Middlewares/stedgeai-lib/Npu/ll_aton/ll_sw_integer.c ****           - input: 1,1,NIN,1
  73:../Middlewares/stedgeai-lib/Npu/ll_aton/ll_sw_integer.c ****           - weights already permuted: 1,1,NOUT,NIN
  74:../Middlewares/stedgeai-lib/Npu/ll_aton/ll_sw_integer.c ****           - bias 1,1,NOUT,1
  75:../Middlewares/stedgeai-lib/Npu/ll_aton/ll_sw_integer.c ****           - scratch 1,1,NIN*2+NOUT*10
  76:../Middlewares/stedgeai-lib/Npu/ll_aton/ll_sw_integer.c ****           - output 1,1,NOUT,1
  77:../Middlewares/stedgeai-lib/Npu/ll_aton/ll_sw_integer.c ****   */
ARM GAS  /tmp/ccZCp2co.s 			page 3


  78:../Middlewares/stedgeai-lib/Npu/ll_aton/ll_sw_integer.c **** 
  79:../Middlewares/stedgeai-lib/Npu/ll_aton/ll_sw_integer.c ****   int32_t format;
  39              		.loc 1 79 3 view .LVU1
  80:../Middlewares/stedgeai-lib/Npu/ll_aton/ll_sw_integer.c ****   // array init
  81:../Middlewares/stedgeai-lib/Npu/ll_aton/ll_sw_integer.c ****   format = sw_info->general.input.format.is_signed ? (AI_ARRAY_FORMAT_S8 | AI_FMT_FLAG_IS_IO)
  40              		.loc 1 81 3 view .LVU2
  67:../Middlewares/stedgeai-lib/Npu/ll_aton/ll_sw_integer.c ****   /*
  41              		.loc 1 67 1 is_stmt 0 view .LVU3
  42 0000 2DE9F04F 		push	{r4, r5, r6, r7, r8, r9, r10, fp, lr}
  43              		.cfi_def_cfa_offset 36
  44              		.cfi_offset 4, -36
  45              		.cfi_offset 5, -32
  46              		.cfi_offset 6, -28
  47              		.cfi_offset 7, -24
  48              		.cfi_offset 8, -20
  49              		.cfi_offset 9, -16
  50              		.cfi_offset 10, -12
  51              		.cfi_offset 11, -8
  52              		.cfi_offset 14, -4
  82:../Middlewares/stedgeai-lib/Npu/ll_aton/ll_sw_integer.c ****                                                    : (AI_ARRAY_FORMAT_U8 | AI_FMT_FLAG_IS_IO);
  53              		.loc 1 82 52 view .LVU4
  54 0004 90F82C20 		ldrb	r2, [r0, #44]	@ zero_extendqisi2
  67:../Middlewares/stedgeai-lib/Npu/ll_aton/ll_sw_integer.c ****   /*
  55              		.loc 1 67 1 view .LVU5
  56 0008 0346     		mov	r3, r0
  57 000a ADF50B7D 		sub	sp, sp, #556
  58              		.cfi_def_cfa_offset 592
  59              		.loc 1 82 52 view .LVU6
  60 000e 002A     		cmp	r2, #0
  61 0010 00F06D81 		beq	.L9
  62              		.loc 1 82 52 discriminator 1 view .LVU7
  63 0014 B84A     		ldr	r2, .L16
  64              	.L2:
  65              	.LVL1:
  83:../Middlewares/stedgeai-lib/Npu/ll_aton/ll_sw_integer.c ****   AI_ARRAY_OBJ_DECLARE(input_output_array, format, sw_info->general.input.mem.start_offset,
  66              		.loc 1 83 3 is_stmt 1 view .LVU8
  67 0016 1792     		str	r2, [sp, #92]
  68 0018 5A69     		ldr	r2, [r3, #20]
  69              	.LVL2:
  70              		.loc 1 83 3 is_stmt 0 view .LVU9
  71 001a 17AE     		add	r6, sp, #92
  72              	.LVL3:
  73              		.loc 1 83 3 view .LVU10
  74 001c 7260     		str	r2, [r6, #4]
  75 001e 9A6A     		ldr	r2, [r3, #40]
  76 0020 C6E90222 		strd	r2, r2, [r6, #8]
  84:../Middlewares/stedgeai-lib/Npu/ll_aton/ll_sw_integer.c ****                        sw_info->general.input.mem.start_offset, sw_info->general.input.dim.num_elem
  85:../Middlewares/stedgeai-lib/Npu/ll_aton/ll_sw_integer.c ****   format = sw_info->weights.format.is_signed ? (AI_ARRAY_FORMAT_S8) : (AI_ARRAY_FORMAT_U8);
  77              		.loc 1 85 3 is_stmt 1 view .LVU11
  78              		.loc 1 85 69 is_stmt 0 view .LVU12
  79 0024 93F88420 		ldrb	r2, [r3, #132]	@ zero_extendqisi2
  80 0028 002A     		cmp	r2, #0
  81 002a 00F06281 		beq	.L10
  82              		.loc 1 85 69 discriminator 1 view .LVU13
  83 002e B34A     		ldr	r2, .L16+4
  84              	.L3:
  85              	.LVL4:
ARM GAS  /tmp/ccZCp2co.s 			page 4


  86:../Middlewares/stedgeai-lib/Npu/ll_aton/ll_sw_integer.c ****   AI_ARRAY_OBJ_DECLARE(dense_weights_array, format, sw_info->weights.mem.start_offset,
  86              		.loc 1 86 3 is_stmt 1 view .LVU14
  87 0030 1B92     		str	r2, [sp, #108]
  88 0032 DA6E     		ldr	r2, [r3, #108]
  89              	.LVL5:
  90              		.loc 1 86 3 is_stmt 0 view .LVU15
  91 0034 1BA9     		add	r1, sp, #108
  92              	.LVL6:
  93              		.loc 1 86 3 view .LVU16
  94 0036 4A60     		str	r2, [r1, #4]
  95 0038 D3F88020 		ldr	r2, [r3, #128]
  96 003c C1E90222 		strd	r2, r2, [r1, #8]
  87:../Middlewares/stedgeai-lib/Npu/ll_aton/ll_sw_integer.c ****                        sw_info->weights.mem.start_offset, sw_info->weights.dim.num_elem, )
  88:../Middlewares/stedgeai-lib/Npu/ll_aton/ll_sw_integer.c ****   format = sw_info->scratch.format.is_signed ? (AI_ARRAY_FORMAT_S8) : (AI_ARRAY_FORMAT_U8);
  97              		.loc 1 88 3 is_stmt 1 view .LVU17
  98              		.loc 1 88 69 is_stmt 0 view .LVU18
  99 0040 93F8B020 		ldrb	r2, [r3, #176]	@ zero_extendqisi2
 100 0044 002A     		cmp	r2, #0
 101 0046 00F06581 		beq	.L11
 102              		.loc 1 88 69 discriminator 1 view .LVU19
 103 004a AC4A     		ldr	r2, .L16+4
 104              	.L4:
 105              	.LVL7:
  89:../Middlewares/stedgeai-lib/Npu/ll_aton/ll_sw_integer.c ****   AI_ARRAY_OBJ_DECLARE(dense_scratch0_array, format, sw_info->scratch.mem.start_offset,
 106              		.loc 1 89 3 is_stmt 1 view .LVU20
 107 004c 1F92     		str	r2, [sp, #124]
 108 004e D3F89820 		ldr	r2, [r3, #152]
 109              	.LVL8:
 110              		.loc 1 89 3 is_stmt 0 view .LVU21
 111 0052 1FAF     		add	r7, sp, #124
 112              	.LVL9:
 113              		.loc 1 89 3 view .LVU22
 114 0054 7A60     		str	r2, [r7, #4]
 115 0056 D3F8AC20 		ldr	r2, [r3, #172]
  90:../Middlewares/stedgeai-lib/Npu/ll_aton/ll_sw_integer.c ****                        sw_info->scratch.mem.start_offset, sw_info->scratch.dim.num_elem, )
  91:../Middlewares/stedgeai-lib/Npu/ll_aton/ll_sw_integer.c **** 
  92:../Middlewares/stedgeai-lib/Npu/ll_aton/ll_sw_integer.c ****   AI_ARRAY_OBJ_DECLARE(dense_bias_array, AI_ARRAY_FORMAT_S32, sw_info->bias.mem.start_offset,
 116              		.loc 1 92 3 view .LVU23
 117 005a 23AD     		add	r5, sp, #140
  89:../Middlewares/stedgeai-lib/Npu/ll_aton/ll_sw_integer.c ****   AI_ARRAY_OBJ_DECLARE(dense_scratch0_array, format, sw_info->scratch.mem.start_offset,
 118              		.loc 1 89 3 view .LVU24
 119 005c C7E90222 		strd	r2, r2, [r7, #8]
 120              		.loc 1 92 3 is_stmt 1 view .LVU25
 121 0060 A74A     		ldr	r2, .L16+8
 122 0062 D3F8D800 		ldr	r0, [r3, #216]
 123              	.LVL10:
 124              		.loc 1 92 3 is_stmt 0 view .LVU26
 125 0066 2A60     		str	r2, [r5]
  93:../Middlewares/stedgeai-lib/Npu/ll_aton/ll_sw_integer.c ****                        sw_info->bias.mem.start_offset, sw_info->bias.dim.num_elem, )
  94:../Middlewares/stedgeai-lib/Npu/ll_aton/ll_sw_integer.c ****   format = sw_info->general.output.format.is_signed ? (AI_ARRAY_FORMAT_S8 | AI_FMT_FLAG_IS_IO)
  95:../Middlewares/stedgeai-lib/Npu/ll_aton/ll_sw_integer.c ****                                                     : (AI_ARRAY_FORMAT_U8 | AI_FMT_FLAG_IS_IO);
 126              		.loc 1 95 53 view .LVU27
 127 0068 93F85840 		ldrb	r4, [r3, #88]	@ zero_extendqisi2
  92:../Middlewares/stedgeai-lib/Npu/ll_aton/ll_sw_integer.c ****                        sw_info->bias.mem.start_offset, sw_info->bias.dim.num_elem, )
 128              		.loc 1 92 3 view .LVU28
 129 006c D3F8C420 		ldr	r2, [r3, #196]
 130 0070 C5E90200 		strd	r0, r0, [r5, #8]
ARM GAS  /tmp/ccZCp2co.s 			page 5


  94:../Middlewares/stedgeai-lib/Npu/ll_aton/ll_sw_integer.c ****                                                     : (AI_ARRAY_FORMAT_U8 | AI_FMT_FLAG_IS_IO);
 131              		.loc 1 94 3 is_stmt 1 view .LVU29
  92:../Middlewares/stedgeai-lib/Npu/ll_aton/ll_sw_integer.c ****                        sw_info->bias.mem.start_offset, sw_info->bias.dim.num_elem, )
 132              		.loc 1 92 3 is_stmt 0 view .LVU30
 133 0074 0192     		str	r2, [sp, #4]
 134 0076 6A60     		str	r2, [r5, #4]
 135              		.loc 1 95 53 view .LVU31
 136 0078 002C     		cmp	r4, #0
 137 007a 00F04D81 		beq	.L12
 138              		.loc 1 95 53 discriminator 1 view .LVU32
 139 007e DFF878C2 		ldr	ip, .L16
 140              	.L5:
 141              	.LVL11:
  96:../Middlewares/stedgeai-lib/Npu/ll_aton/ll_sw_integer.c ****   AI_ARRAY_OBJ_DECLARE(dense_output_array, format, sw_info->general.output.mem.start_offset,
 142              		.loc 1 96 3 is_stmt 1 view .LVU33
 143 0082 CDF89CC0 		str	ip, [sp, #156]
 144 0086 D3F854C0 		ldr	ip, [r3, #84]
 145              	.LVL12:
 146              		.loc 1 96 3 is_stmt 0 view .LVU34
 147 008a 1A6C     		ldr	r2, [r3, #64]
 148 008c CDE929CC 		strd	ip, ip, [sp, #164]
  97:../Middlewares/stedgeai-lib/Npu/ll_aton/ll_sw_integer.c ****                        sw_info->general.output.mem.start_offset, sw_info->general.output.dim.num_el
  98:../Middlewares/stedgeai-lib/Npu/ll_aton/ll_sw_integer.c **** 
  99:../Middlewares/stedgeai-lib/Npu/ll_aton/ll_sw_integer.c ****   uint16_t offset_format;
 149              		.loc 1 99 3 is_stmt 1 view .LVU35
 100:../Middlewares/stedgeai-lib/Npu/ll_aton/ll_sw_integer.c ****   uint16_t scale_format;
 150              		.loc 1 100 3 view .LVU36
 101:../Middlewares/stedgeai-lib/Npu/ll_aton/ll_sw_integer.c **** 
 102:../Middlewares/stedgeai-lib/Npu/ll_aton/ll_sw_integer.c ****   scale_format = AI_BUFFER_META_FLAG_SCALE_FLOAT;
 151              		.loc 1 102 3 view .LVU37
 152              	.LVL13:
 103:../Middlewares/stedgeai-lib/Npu/ll_aton/ll_sw_integer.c ****   offset_format =
 153              		.loc 1 103 3 view .LVU38
 154              		.loc 1 103 17 is_stmt 0 view .LVU39
 155 0090 93F88CC1 		ldrb	ip, [r3, #396]	@ zero_extendqisi2
  96:../Middlewares/stedgeai-lib/Npu/ll_aton/ll_sw_integer.c ****                        sw_info->general.output.mem.start_offset, sw_info->general.output.dim.num_el
 156              		.loc 1 96 3 view .LVU40
 157 0094 2892     		str	r2, [sp, #160]
 158              		.loc 1 103 17 discriminator 1 view .LVU41
 159 0096 BCF1000F 		cmp	ip, #0
 160 009a 0CBF     		ite	eq
 161 009c 4FF0020E 		moveq	lr, #2
 162 00a0 4FF0040E 		movne	lr, #4
 163              	.LVL14:
 104:../Middlewares/stedgeai-lib/Npu/ll_aton/ll_sw_integer.c ****       sw_info->izp.format.is_signed ? (AI_BUFFER_META_FLAG_ZEROPOINT_S8) : (AI_BUFFER_META_FLAG_ZER
 105:../Middlewares/stedgeai-lib/Npu/ll_aton/ll_sw_integer.c ****   ai_intq_info_list input_intq = {.flags = (scale_format | offset_format),
 164              		.loc 1 105 3 is_stmt 1 view .LVU42
 165              		.loc 1 105 21 is_stmt 0 view .LVU43
 166 00a4 4EF0010E 		orr	lr, lr, #1
 167              	.LVL15:
 168              		.loc 1 105 21 view .LVU44
 169 00a8 ADF818E0 		strh	lr, [sp, #24]	@ movhi
 106:../Middlewares/stedgeai-lib/Npu/ll_aton/ll_sw_integer.c ****                                   .size = sw_info->is.dim.num_elem,
 107:../Middlewares/stedgeai-lib/Npu/ll_aton/ll_sw_integer.c ****                                   .info = (const ai_intq_info[1]){{
 170              		.loc 1 107 66 view .LVU45
 171 00ac 0DF1200E 		add	lr, sp, #32
 105:../Middlewares/stedgeai-lib/Npu/ll_aton/ll_sw_integer.c ****                                   .size = sw_info->is.dim.num_elem,
ARM GAS  /tmp/ccZCp2co.s 			page 6


 172              		.loc 1 105 21 view .LVU46
 173 00b0 CDF81CE0 		str	lr, [sp, #28]
 108:../Middlewares/stedgeai-lib/Npu/ll_aton/ll_sw_integer.c ****                                       .scale = ((float *)sw_info->is.mem.start_offset),
 109:../Middlewares/stedgeai-lib/Npu/ll_aton/ll_sw_integer.c ****                                       .zeropoint = ((void *)sw_info->izp.mem.start_offset),
 110:../Middlewares/stedgeai-lib/Npu/ll_aton/ll_sw_integer.c ****                                   }}};
 111:../Middlewares/stedgeai-lib/Npu/ll_aton/ll_sw_integer.c ****   scale_format = AI_BUFFER_META_FLAG_SCALE_FLOAT;
 174              		.loc 1 111 3 is_stmt 1 view .LVU47
 112:../Middlewares/stedgeai-lib/Npu/ll_aton/ll_sw_integer.c ****   offset_format =
 175              		.loc 1 112 3 view .LVU48
 176              		.loc 1 112 17 is_stmt 0 view .LVU49
 177 00b4 93F834E1 		ldrb	lr, [r3, #308]	@ zero_extendqisi2
 105:../Middlewares/stedgeai-lib/Npu/ll_aton/ll_sw_integer.c ****                                   .size = sw_info->is.dim.num_elem,
 178              		.loc 1 105 21 view .LVU50
 179 00b8 D3F84821 		ldr	r2, [r3, #328]
 180              		.loc 1 112 17 discriminator 1 view .LVU51
 181 00bc BEF1000F 		cmp	lr, #0
 182              		.loc 1 112 17 discriminator 1 view .LVU52
 183 00c0 0CBF     		ite	eq
 184 00c2 4FF00208 		moveq	r8, #2
 185 00c6 4FF00408 		movne	r8, #4
 186              	.LVL16:
 113:../Middlewares/stedgeai-lib/Npu/ll_aton/ll_sw_integer.c ****       sw_info->wzp.format.is_signed ? (AI_BUFFER_META_FLAG_ZEROPOINT_S8) : (AI_BUFFER_META_FLAG_ZER
 114:../Middlewares/stedgeai-lib/Npu/ll_aton/ll_sw_integer.c ****   ai_intq_info_list weights_intq = {.flags = (scale_format | offset_format),
 187              		.loc 1 114 3 is_stmt 1 view .LVU53
 188              		.loc 1 114 21 is_stmt 0 view .LVU54
 189 00ca 48F00108 		orr	r8, r8, #1
 190              	.LVL17:
 191              		.loc 1 114 21 view .LVU55
 192 00ce ADF82880 		strh	r8, [sp, #40]	@ movhi
 115:../Middlewares/stedgeai-lib/Npu/ll_aton/ll_sw_integer.c ****                                     .size = sw_info->ws.dim.num_elem,
 116:../Middlewares/stedgeai-lib/Npu/ll_aton/ll_sw_integer.c ****                                     .info = (const ai_intq_info[1]){{
 193              		.loc 1 116 68 view .LVU56
 194 00d2 0DF13008 		add	r8, sp, #48
 114:../Middlewares/stedgeai-lib/Npu/ll_aton/ll_sw_integer.c ****                                     .size = sw_info->ws.dim.num_elem,
 195              		.loc 1 114 21 view .LVU57
 196 00d6 CDF82C80 		str	r8, [sp, #44]
 117:../Middlewares/stedgeai-lib/Npu/ll_aton/ll_sw_integer.c ****                                         .scale = ((float *)sw_info->ws.mem.start_offset),
 118:../Middlewares/stedgeai-lib/Npu/ll_aton/ll_sw_integer.c ****                                         .zeropoint = ((void *)sw_info->wzp.mem.start_offset),
 119:../Middlewares/stedgeai-lib/Npu/ll_aton/ll_sw_integer.c ****                                     }}};
 120:../Middlewares/stedgeai-lib/Npu/ll_aton/ll_sw_integer.c ****   scale_format = AI_BUFFER_META_FLAG_SCALE_FLOAT;
 197              		.loc 1 120 3 is_stmt 1 view .LVU58
 121:../Middlewares/stedgeai-lib/Npu/ll_aton/ll_sw_integer.c ****   offset_format =
 198              		.loc 1 121 3 view .LVU59
 199              		.loc 1 121 17 is_stmt 0 view .LVU60
 200 00da 93F8E481 		ldrb	r8, [r3, #484]	@ zero_extendqisi2
 105:../Middlewares/stedgeai-lib/Npu/ll_aton/ll_sw_integer.c ****                                   .size = sw_info->is.dim.num_elem,
 201              		.loc 1 105 21 view .LVU61
 202 00de ADF81A20 		strh	r2, [sp, #26]	@ movhi
 203              		.loc 1 121 17 discriminator 1 view .LVU62
 204 00e2 B8F1000F 		cmp	r8, #0
 205              		.loc 1 121 17 discriminator 1 view .LVU63
 206 00e6 0CBF     		ite	eq
 207 00e8 4FF00209 		moveq	r9, #2
 208 00ec 4FF00409 		movne	r9, #4
 209              	.LVL18:
 122:../Middlewares/stedgeai-lib/Npu/ll_aton/ll_sw_integer.c ****       sw_info->ozp.format.is_signed ? (AI_BUFFER_META_FLAG_ZEROPOINT_S8) : (AI_BUFFER_META_FLAG_ZER
 123:../Middlewares/stedgeai-lib/Npu/ll_aton/ll_sw_integer.c ****   ai_intq_info_list output_intq = {.flags = (scale_format | offset_format),
ARM GAS  /tmp/ccZCp2co.s 			page 7


 210              		.loc 1 123 3 is_stmt 1 view .LVU64
 107:../Middlewares/stedgeai-lib/Npu/ll_aton/ll_sw_integer.c ****                                       .scale = ((float *)sw_info->is.mem.start_offset),
 211              		.loc 1 107 66 is_stmt 0 view .LVU65
 212 00f0 D3F85C21 		ldr	r2, [r3, #348]
 213              		.loc 1 123 21 view .LVU66
 214 00f4 49F00109 		orr	r9, r9, #1
 215              	.LVL19:
 107:../Middlewares/stedgeai-lib/Npu/ll_aton/ll_sw_integer.c ****                                       .scale = ((float *)sw_info->is.mem.start_offset),
 216              		.loc 1 107 66 view .LVU67
 217 00f8 0892     		str	r2, [sp, #32]
 218 00fa D3F88821 		ldr	r2, [r3, #392]
 114:../Middlewares/stedgeai-lib/Npu/ll_aton/ll_sw_integer.c ****                                     .size = sw_info->ws.dim.num_elem,
 219              		.loc 1 114 21 view .LVU68
 220 00fe 0DF1280E 		add	lr, sp, #40
 107:../Middlewares/stedgeai-lib/Npu/ll_aton/ll_sw_integer.c ****                                       .scale = ((float *)sw_info->is.mem.start_offset),
 221              		.loc 1 107 66 view .LVU69
 222 0102 0992     		str	r2, [sp, #36]
 114:../Middlewares/stedgeai-lib/Npu/ll_aton/ll_sw_integer.c ****                                     .size = sw_info->ws.dim.num_elem,
 223              		.loc 1 114 21 view .LVU70
 224 0104 D3F8F020 		ldr	r2, [r3, #240]
 225              		.loc 1 123 21 view .LVU71
 226 0108 ADF83890 		strh	r9, [sp, #56]	@ movhi
 114:../Middlewares/stedgeai-lib/Npu/ll_aton/ll_sw_integer.c ****                                     .size = sw_info->ws.dim.num_elem,
 227              		.loc 1 114 21 view .LVU72
 228 010c ADF82A20 		strh	r2, [sp, #42]	@ movhi
 116:../Middlewares/stedgeai-lib/Npu/ll_aton/ll_sw_integer.c ****                                         .scale = ((float *)sw_info->ws.mem.start_offset),
 229              		.loc 1 116 68 view .LVU73
 230 0110 D3F80421 		ldr	r2, [r3, #260]
 124:../Middlewares/stedgeai-lib/Npu/ll_aton/ll_sw_integer.c ****                                    .size = sw_info->os.dim.num_elem,
 125:../Middlewares/stedgeai-lib/Npu/ll_aton/ll_sw_integer.c ****                                    .info = (const ai_intq_info[1]){{
 231              		.loc 1 125 67 view .LVU74
 232 0114 0DF14009 		add	r9, sp, #64
 116:../Middlewares/stedgeai-lib/Npu/ll_aton/ll_sw_integer.c ****                                         .scale = ((float *)sw_info->ws.mem.start_offset),
 233              		.loc 1 116 68 view .LVU75
 234 0118 0C92     		str	r2, [sp, #48]
 235 011a D3F83021 		ldr	r2, [r3, #304]
 126:../Middlewares/stedgeai-lib/Npu/ll_aton/ll_sw_integer.c ****                                        .scale = ((float *)sw_info->os.mem.start_offset),
 127:../Middlewares/stedgeai-lib/Npu/ll_aton/ll_sw_integer.c ****                                        .zeropoint = ((void *)sw_info->ozp.mem.start_offset),
 128:../Middlewares/stedgeai-lib/Npu/ll_aton/ll_sw_integer.c ****                                    }}};
 129:../Middlewares/stedgeai-lib/Npu/ll_aton/ll_sw_integer.c **** 
 130:../Middlewares/stedgeai-lib/Npu/ll_aton/ll_sw_integer.c ****   AI_TENSOR_OBJ_DECLARE(dense_weights, , 0x0, 4,
 236              		.loc 1 130 3 view .LVU76
 237 011e 0DF1AC0A 		add	r10, sp, #172
 116:../Middlewares/stedgeai-lib/Npu/ll_aton/ll_sw_integer.c ****                                         .scale = ((float *)sw_info->ws.mem.start_offset),
 238              		.loc 1 116 68 view .LVU77
 239 0122 0D92     		str	r2, [sp, #52]
 123:../Middlewares/stedgeai-lib/Npu/ll_aton/ll_sw_integer.c ****                                    .size = sw_info->os.dim.num_elem,
 240              		.loc 1 123 21 view .LVU78
 241 0124 D3F8A021 		ldr	r2, [r3, #416]
 242              		.loc 1 130 3 view .LVU79
 243 0128 0DF1BC0B 		add	fp, sp, #188
 123:../Middlewares/stedgeai-lib/Npu/ll_aton/ll_sw_integer.c ****                                    .size = sw_info->os.dim.num_elem,
 244              		.loc 1 123 21 view .LVU80
 245 012c ADF83A20 		strh	r2, [sp, #58]	@ movhi
 125:../Middlewares/stedgeai-lib/Npu/ll_aton/ll_sw_integer.c ****                                        .scale = ((float *)sw_info->os.mem.start_offset),
 246              		.loc 1 125 67 view .LVU81
 247 0130 D3F8B421 		ldr	r2, [r3, #436]
ARM GAS  /tmp/ccZCp2co.s 			page 8


 105:../Middlewares/stedgeai-lib/Npu/ll_aton/ll_sw_integer.c ****                                   .size = sw_info->is.dim.num_elem,
 248              		.loc 1 105 21 view .LVU82
 249 0134 0DF1180C 		add	ip, sp, #24
 125:../Middlewares/stedgeai-lib/Npu/ll_aton/ll_sw_integer.c ****                                        .scale = ((float *)sw_info->os.mem.start_offset),
 250              		.loc 1 125 67 view .LVU83
 251 0138 1092     		str	r2, [sp, #64]
 252 013a D3F8E021 		ldr	r2, [r3, #480]
 123:../Middlewares/stedgeai-lib/Npu/ll_aton/ll_sw_integer.c ****                                    .size = sw_info->os.dim.num_elem,
 253              		.loc 1 123 21 view .LVU84
 254 013e 0DF13808 		add	r8, sp, #56
 125:../Middlewares/stedgeai-lib/Npu/ll_aton/ll_sw_integer.c ****                                        .scale = ((float *)sw_info->os.mem.start_offset),
 255              		.loc 1 125 67 view .LVU85
 256 0142 1192     		str	r2, [sp, #68]
 123:../Middlewares/stedgeai-lib/Npu/ll_aton/ll_sw_integer.c ****                                    .size = sw_info->os.dim.num_elem,
 257              		.loc 1 123 21 view .LVU86
 258 0144 CDF83C90 		str	r9, [sp, #60]
 259              		.loc 1 130 3 is_stmt 1 view .LVU87
 260 0148 4FF08279 		mov	r9, #17039360
 261 014c CDE958B1 		strd	fp, r1, [sp, #352]
 131:../Middlewares/stedgeai-lib/Npu/ll_aton/ll_sw_integer.c ****                         SHAPE_INIT(sw_info->weights.dim.tensor_h, sw_info->weights.dim.tensor_w,
 132:../Middlewares/stedgeai-lib/Npu/ll_aton/ll_sw_integer.c ****                                    sw_info->weights.dim.tensor_c, sw_info->weights.dim.tensor_b),
 133:../Middlewares/stedgeai-lib/Npu/ll_aton/ll_sw_integer.c ****                         // ,0x0, 4, SHAPE_INIT(sw_info->weights.dim.tensor_b, sw_info->weights.dim.
 134:../Middlewares/stedgeai-lib/Npu/ll_aton/ll_sw_integer.c ****                         // sw_info->weights.dim.tensor_h, sw_info->weights.dim.tensor_w),
 135:../Middlewares/stedgeai-lib/Npu/ll_aton/ll_sw_integer.c ****                         STRIDE_INIT(sw_info->weights.stride.h, sw_info->weights.stride.w, sw_info->
 136:../Middlewares/stedgeai-lib/Npu/ll_aton/ll_sw_integer.c ****                                     sw_info->weights.stride.b),
 137:../Middlewares/stedgeai-lib/Npu/ll_aton/ll_sw_integer.c ****                         1, &dense_weights_array, &weights_intq);
 262              		.loc 1 137 64 view .LVU88
 138:../Middlewares/stedgeai-lib/Npu/ll_aton/ll_sw_integer.c ****   AI_TENSOR_OBJ_DECLARE(dense_scratch0, , 0x0, 4,
 263              		.loc 1 138 3 view .LVU89
 130:../Middlewares/stedgeai-lib/Npu/ll_aton/ll_sw_integer.c ****                         SHAPE_INIT(sw_info->weights.dim.tensor_h, sw_info->weights.dim.tensor_w,
 264              		.loc 1 130 3 is_stmt 0 view .LVU90
 265 0150 CDF84CE1 		str	lr, [sp, #332]
 266              		.loc 1 138 3 view .LVU91
 267 0154 0021     		movs	r1, #0
 130:../Middlewares/stedgeai-lib/Npu/ll_aton/ll_sw_integer.c ****                         SHAPE_INIT(sw_info->weights.dim.tensor_h, sw_info->weights.dim.tensor_w,
 268              		.loc 1 130 3 view .LVU92
 269 0156 40F2014E 		movw	lr, #1025
 270 015a CDF858A1 		str	r10, [sp, #344]
 271 015e 40F2024A 		movw	r10, #1026
 272 0162 9A6E     		ldr	r2, [r3, #104]
 273 0164 CDE9549E 		strd	r9, lr, [sp, #336]
 274 0168 2B92     		str	r2, [sp, #172]
 275 016a 5A6E     		ldr	r2, [r3, #100]
 276              		.loc 1 138 3 view .LVU93
 277 016c CDF870E1 		str	lr, [sp, #368]
 130:../Middlewares/stedgeai-lib/Npu/ll_aton/ll_sw_integer.c ****                         SHAPE_INIT(sw_info->weights.dim.tensor_h, sw_info->weights.dim.tensor_w,
 278              		.loc 1 130 3 view .LVU94
 279 0170 2C92     		str	r2, [sp, #176]
 280 0172 1A6E     		ldr	r2, [r3, #96]
 281              		.loc 1 138 3 view .LVU95
 282 0174 CDE95A19 		strd	r1, r9, [sp, #360]
 130:../Middlewares/stedgeai-lib/Npu/ll_aton/ll_sw_integer.c ****                         SHAPE_INIT(sw_info->weights.dim.tensor_h, sw_info->weights.dim.tensor_w,
 283              		.loc 1 130 3 view .LVU96
 284 0178 2D92     		str	r2, [sp, #180]
 285 017a DA6D     		ldr	r2, [r3, #92]
 286 017c CDF85CA1 		str	r10, [sp, #348]
 287 0180 2E92     		str	r2, [sp, #184]
ARM GAS  /tmp/ccZCp2co.s 			page 9


 288 0182 DA6F     		ldr	r2, [r3, #124]
 289              		.loc 1 138 3 view .LVU97
 290 0184 0DF1CC0B 		add	fp, sp, #204
 130:../Middlewares/stedgeai-lib/Npu/ll_aton/ll_sw_integer.c ****                         SHAPE_INIT(sw_info->weights.dim.tensor_h, sw_info->weights.dim.tensor_w,
 291              		.loc 1 130 3 view .LVU98
 292 0188 2F92     		str	r2, [sp, #188]
 293 018a 9A6F     		ldr	r2, [r3, #120]
  96:../Middlewares/stedgeai-lib/Npu/ll_aton/ll_sw_integer.c ****                        sw_info->general.output.mem.start_offset, sw_info->general.output.dim.num_el
 294              		.loc 1 96 3 view .LVU99
 295 018c 27AC     		add	r4, sp, #156
 296              	.LVL20:
 130:../Middlewares/stedgeai-lib/Npu/ll_aton/ll_sw_integer.c ****                         SHAPE_INIT(sw_info->weights.dim.tensor_h, sw_info->weights.dim.tensor_w,
 297              		.loc 1 130 3 view .LVU100
 298 018e 3092     		str	r2, [sp, #192]
 299 0190 5A6F     		ldr	r2, [r3, #116]
 300 0192 3192     		str	r2, [sp, #196]
 301 0194 1A6F     		ldr	r2, [r3, #112]
 302 0196 3292     		str	r2, [sp, #200]
 303              		.loc 1 138 3 view .LVU101
 304 0198 D3F89420 		ldr	r2, [r3, #148]
 305 019c 3392     		str	r2, [sp, #204]
 306 019e D3F89020 		ldr	r2, [r3, #144]
 307 01a2 3492     		str	r2, [sp, #208]
 308 01a4 D3F88C20 		ldr	r2, [r3, #140]
 309 01a8 3592     		str	r2, [sp, #212]
 310 01aa D3F88820 		ldr	r2, [r3, #136]
 311 01ae CDE95DBA 		strd	fp, r10, [sp, #372]
 312 01b2 3692     		str	r2, [sp, #216]
 313 01b4 D3F8A820 		ldr	r2, [r3, #168]
 314 01b8 0DF1DC0B 		add	fp, sp, #220
 315 01bc 3792     		str	r2, [sp, #220]
 316 01be D3F8A420 		ldr	r2, [r3, #164]
 317 01c2 CDE95FB7 		strd	fp, r7, [sp, #380]
 139:../Middlewares/stedgeai-lib/Npu/ll_aton/ll_sw_integer.c ****                         SHAPE_INIT(sw_info->scratch.dim.tensor_h, sw_info->scratch.dim.tensor_w,
 140:../Middlewares/stedgeai-lib/Npu/ll_aton/ll_sw_integer.c ****                                    sw_info->scratch.dim.tensor_c, sw_info->scratch.dim.tensor_b),
 141:../Middlewares/stedgeai-lib/Npu/ll_aton/ll_sw_integer.c ****                         STRIDE_INIT(sw_info->scratch.stride.h, sw_info->scratch.stride.w, sw_info->
 142:../Middlewares/stedgeai-lib/Npu/ll_aton/ll_sw_integer.c ****                                     sw_info->scratch.stride.b),
 143:../Middlewares/stedgeai-lib/Npu/ll_aton/ll_sw_integer.c ****                         1, &dense_scratch0_array, NULL);
 318              		.loc 1 143 56 is_stmt 1 view .LVU102
 144:../Middlewares/stedgeai-lib/Npu/ll_aton/ll_sw_integer.c ****   AI_TENSOR_OBJ_DECLARE(input_output, , 0x0, 4,
 319              		.loc 1 144 3 view .LVU103
 138:../Middlewares/stedgeai-lib/Npu/ll_aton/ll_sw_integer.c ****                         SHAPE_INIT(sw_info->scratch.dim.tensor_h, sw_info->scratch.dim.tensor_w,
 320              		.loc 1 138 3 is_stmt 0 view .LVU104
 321 01c6 3892     		str	r2, [sp, #224]
 322 01c8 D3F8A020 		ldr	r2, [r3, #160]
 323              		.loc 1 144 3 view .LVU105
 324 01cc 3BAF     		add	r7, sp, #236
 138:../Middlewares/stedgeai-lib/Npu/ll_aton/ll_sw_integer.c ****                         SHAPE_INIT(sw_info->scratch.dim.tensor_h, sw_info->scratch.dim.tensor_w,
 325              		.loc 1 138 3 view .LVU106
 326 01ce 3992     		str	r2, [sp, #228]
 327 01d0 D3F89C20 		ldr	r2, [r3, #156]
 328              		.loc 1 144 3 view .LVU107
 329 01d4 CDE9647A 		strd	r7, r10, [sp, #400]
 138:../Middlewares/stedgeai-lib/Npu/ll_aton/ll_sw_integer.c ****                         SHAPE_INIT(sw_info->scratch.dim.tensor_h, sw_info->scratch.dim.tensor_w,
 330              		.loc 1 138 3 view .LVU108
 331 01d8 3A92     		str	r2, [sp, #232]
 332              		.loc 1 144 3 view .LVU109
ARM GAS  /tmp/ccZCp2co.s 			page 10


 333 01da 1A69     		ldr	r2, [r3, #16]
 334 01dc 3FAF     		add	r7, sp, #252
 335 01de 3B92     		str	r2, [sp, #236]
 336 01e0 DA68     		ldr	r2, [r3, #12]
 337 01e2 CDE961C9 		strd	ip, r9, [sp, #388]
 338 01e6 3C92     		str	r2, [sp, #240]
 339 01e8 9A68     		ldr	r2, [r3, #8]
 340 01ea CDF88CE1 		str	lr, [sp, #396]
 341 01ee 3D92     		str	r2, [sp, #244]
 342 01f0 5A68     		ldr	r2, [r3, #4]
 343 01f2 3E92     		str	r2, [sp, #248]
 344 01f4 5A6A     		ldr	r2, [r3, #36]
 345 01f6 3F92     		str	r2, [sp, #252]
 346 01f8 1A6A     		ldr	r2, [r3, #32]
 347 01fa 4092     		str	r2, [sp, #256]
 348 01fc DA69     		ldr	r2, [r3, #28]
 349 01fe 4192     		str	r2, [sp, #260]
 350 0200 CDE96676 		strd	r7, r6, [sp, #408]
 145:../Middlewares/stedgeai-lib/Npu/ll_aton/ll_sw_integer.c ****                         SHAPE_INIT(sw_info->general.input.dim.tensor_h, sw_info->general.input.dim.
 146:../Middlewares/stedgeai-lib/Npu/ll_aton/ll_sw_integer.c ****                                    sw_info->general.input.dim.tensor_c, sw_info->general.input.dim.
 147:../Middlewares/stedgeai-lib/Npu/ll_aton/ll_sw_integer.c ****                         STRIDE_INIT(sw_info->general.input.stride.h, sw_info->general.input.stride.
 148:../Middlewares/stedgeai-lib/Npu/ll_aton/ll_sw_integer.c ****                                     sw_info->general.input.stride.c, sw_info->general.input.stride.
 149:../Middlewares/stedgeai-lib/Npu/ll_aton/ll_sw_integer.c ****                         1, &input_output_array, &input_intq);
 351              		.loc 1 149 61 is_stmt 1 view .LVU110
 150:../Middlewares/stedgeai-lib/Npu/ll_aton/ll_sw_integer.c ****   AI_TENSOR_OBJ_DECLARE(
 352              		.loc 1 150 3 view .LVU111
 353 0204 D3F8C060 		ldr	r6, [r3, #192]
 354 0208 43AF     		add	r7, sp, #268
 355 020a 4396     		str	r6, [sp, #268]
 356 020c D3F8B860 		ldr	r6, [r3, #184]
 357 0210 CDE96B7A 		strd	r7, r10, [sp, #428]
 358 0214 4496     		str	r6, [sp, #272]
 359 0216 D3F8BC60 		ldr	r6, [r3, #188]
 360 021a 47AF     		add	r7, sp, #284
 361 021c 4596     		str	r6, [sp, #276]
 362 021e D3F8B460 		ldr	r6, [r3, #180]
 144:../Middlewares/stedgeai-lib/Npu/ll_aton/ll_sw_integer.c ****                         SHAPE_INIT(sw_info->general.input.dim.tensor_h, sw_info->general.input.dim.
 363              		.loc 1 144 3 is_stmt 0 view .LVU112
 364 0222 9A69     		ldr	r2, [r3, #24]
 365              		.loc 1 150 3 view .LVU113
 366 0224 4696     		str	r6, [sp, #280]
 367 0226 D3F8D460 		ldr	r6, [r3, #212]
 368 022a CDE96D75 		strd	r7, r5, [sp, #436]
 151:../Middlewares/stedgeai-lib/Npu/ll_aton/ll_sw_integer.c ****       dense_bias, , 0x0, 4,
 152:../Middlewares/stedgeai-lib/Npu/ll_aton/ll_sw_integer.c ****       SHAPE_INIT(sw_info->bias.dim.tensor_h, sw_info->bias.dim.tensor_c, sw_info->bias.dim.tensor_w
 153:../Middlewares/stedgeai-lib/Npu/ll_aton/ll_sw_integer.c ****                  sw_info->bias.dim.tensor_b),
 154:../Middlewares/stedgeai-lib/Npu/ll_aton/ll_sw_integer.c ****       STRIDE_INIT(sw_info->bias.stride.h, sw_info->bias.stride.w, sw_info->bias.stride.c, sw_info->
 155:../Middlewares/stedgeai-lib/Npu/ll_aton/ll_sw_integer.c ****       &dense_bias_array, NULL);
 369              		.loc 1 155 31 is_stmt 1 view .LVU114
 156:../Middlewares/stedgeai-lib/Npu/ll_aton/ll_sw_integer.c ****   AI_TENSOR_OBJ_DECLARE(dense_output, , 0x0, 4,
 370              		.loc 1 156 3 view .LVU115
 150:../Middlewares/stedgeai-lib/Npu/ll_aton/ll_sw_integer.c ****       dense_bias, , 0x0, 4,
 371              		.loc 1 150 3 is_stmt 0 view .LVU116
 372 022e 4796     		str	r6, [sp, #284]
 373 0230 D3F8D060 		ldr	r6, [r3, #208]
 374              		.loc 1 156 3 view .LVU117
 375 0234 DD6B     		ldr	r5, [r3, #60]
ARM GAS  /tmp/ccZCp2co.s 			page 11


 150:../Middlewares/stedgeai-lib/Npu/ll_aton/ll_sw_integer.c ****       dense_bias, , 0x0, 4,
 376              		.loc 1 150 3 view .LVU118
 377 0236 4896     		str	r6, [sp, #288]
 378 0238 D3F8CC60 		ldr	r6, [r3, #204]
 379 023c CDF8A8E1 		str	lr, [sp, #424]
 380 0240 4996     		str	r6, [sp, #292]
 381 0242 D3F8C860 		ldr	r6, [r3, #200]
 382              		.loc 1 156 3 view .LVU119
 383 0246 CDF8C4E1 		str	lr, [sp, #452]
 150:../Middlewares/stedgeai-lib/Npu/ll_aton/ll_sw_integer.c ****       dense_bias, , 0x0, 4,
 384              		.loc 1 150 3 view .LVU120
 385 024a CDE96819 		strd	r1, r9, [sp, #416]
 144:../Middlewares/stedgeai-lib/Npu/ll_aton/ll_sw_integer.c ****                         SHAPE_INIT(sw_info->general.input.dim.tensor_h, sw_info->general.input.dim.
 386              		.loc 1 144 3 view .LVU121
 387 024e 4292     		str	r2, [sp, #264]
 150:../Middlewares/stedgeai-lib/Npu/ll_aton/ll_sw_integer.c ****       dense_bias, , 0x0, 4,
 388              		.loc 1 150 3 view .LVU122
 389 0250 4A96     		str	r6, [sp, #296]
 390              		.loc 1 156 3 view .LVU123
 391 0252 CDE96F89 		strd	r8, r9, [sp, #444]
 392 0256 4B95     		str	r5, [sp, #300]
 393 0258 9D6B     		ldr	r5, [r3, #56]
 157:../Middlewares/stedgeai-lib/Npu/ll_aton/ll_sw_integer.c ****                         SHAPE_INIT(sw_info->general.output.dim.tensor_h, sw_info->general.output.di
 158:../Middlewares/stedgeai-lib/Npu/ll_aton/ll_sw_integer.c ****                                    sw_info->general.output.dim.tensor_c, sw_info->general.output.di
 159:../Middlewares/stedgeai-lib/Npu/ll_aton/ll_sw_integer.c ****                         STRIDE_INIT(sw_info->general.output.stride.h, sw_info->general.output.strid
 160:../Middlewares/stedgeai-lib/Npu/ll_aton/ll_sw_integer.c ****                                     sw_info->general.output.stride.c, sw_info->general.output.strid
 161:../Middlewares/stedgeai-lib/Npu/ll_aton/ll_sw_integer.c ****                         1, &dense_output_array, &output_intq);
 162:../Middlewares/stedgeai-lib/Npu/ll_aton/ll_sw_integer.c ****   // tensor chain initialization
 163:../Middlewares/stedgeai-lib/Npu/ll_aton/ll_sw_integer.c ****   AI_TENSOR_CHAIN_OBJ_DECLARE(dense_chain, , 4, AI_TENSOR_LIST_OBJ_INIT(AI_FLAG_NONE, 1, TENSORS(&i
 394              		.loc 1 163 3 view .LVU124
 395 025a 61AE     		add	r6, sp, #388
 156:../Middlewares/stedgeai-lib/Npu/ll_aton/ll_sw_integer.c ****                         SHAPE_INIT(sw_info->general.output.dim.tensor_h, sw_info->general.output.di
 396              		.loc 1 156 3 view .LVU125
 397 025c 4C95     		str	r5, [sp, #304]
 398 025e 5D6B     		ldr	r5, [r3, #52]
 399              		.loc 1 163 3 view .LVU126
 400 0260 0396     		str	r6, [sp, #12]
 156:../Middlewares/stedgeai-lib/Npu/ll_aton/ll_sw_integer.c ****                         SHAPE_INIT(sw_info->general.output.dim.tensor_h, sw_info->general.output.di
 401              		.loc 1 156 3 view .LVU127
 402 0262 4D95     		str	r5, [sp, #308]
 403 0264 1D6B     		ldr	r5, [r3, #48]
 404              		.loc 1 163 3 view .LVU128
 405 0266 6FAE     		add	r6, sp, #444
 156:../Middlewares/stedgeai-lib/Npu/ll_aton/ll_sw_integer.c ****                         SHAPE_INIT(sw_info->general.output.dim.tensor_h, sw_info->general.output.di
 406              		.loc 1 156 3 view .LVU129
 407 0268 4E95     		str	r5, [sp, #312]
 408 026a 4BAD     		add	r5, sp, #300
 409 026c CDE9725A 		strd	r5, r10, [sp, #456]
 410 0270 1D6D     		ldr	r5, [r3, #80]
 411              		.loc 1 163 3 view .LVU130
 412 0272 0496     		str	r6, [sp, #16]
 156:../Middlewares/stedgeai-lib/Npu/ll_aton/ll_sw_integer.c ****                         SHAPE_INIT(sw_info->general.output.dim.tensor_h, sw_info->general.output.di
 413              		.loc 1 156 3 view .LVU131
 414 0274 4F95     		str	r5, [sp, #316]
 415 0276 DD6C     		ldr	r5, [r3, #76]
 416              		.loc 1 163 3 view .LVU132
 417 0278 53AE     		add	r6, sp, #332
ARM GAS  /tmp/ccZCp2co.s 			page 12


 156:../Middlewares/stedgeai-lib/Npu/ll_aton/ll_sw_integer.c ****                         SHAPE_INIT(sw_info->general.output.dim.tensor_h, sw_info->general.output.di
 418              		.loc 1 156 3 view .LVU133
 419 027a 5095     		str	r5, [sp, #320]
 420 027c 9D6C     		ldr	r5, [r3, #72]
 421 027e 5B6C     		ldr	r3, [r3, #68]
 422              	.LVL21:
 156:../Middlewares/stedgeai-lib/Npu/ll_aton/ll_sw_integer.c ****                         SHAPE_INIT(sw_info->general.output.dim.tensor_h, sw_info->general.output.di
 423              		.loc 1 156 3 view .LVU134
 424 0280 5195     		str	r5, [sp, #324]
 425 0282 5293     		str	r3, [sp, #328]
 426 0284 4FAB     		add	r3, sp, #316
 427 0286 CDE97434 		strd	r3, r4, [sp, #464]
 161:../Middlewares/stedgeai-lib/Npu/ll_aton/ll_sw_integer.c ****   // tensor chain initialization
 428              		.loc 1 161 62 is_stmt 1 view .LVU135
 429              		.loc 1 163 3 view .LVU136
 430 028a 0423     		movs	r3, #4
 431 028c 1293     		str	r3, [sp, #72]
 432 028e 03AB     		add	r3, sp, #12
 433 0290 CDE97F31 		strd	r3, r1, [sp, #508]
 434 0294 04AB     		add	r3, sp, #16
 435 0296 CDE98231 		strd	r3, r1, [sp, #520]
 436 029a 0323     		movs	r3, #3
 437 029c 0125     		movs	r5, #1
 438 029e 8493     		str	r3, [sp, #528]
 439 02a0 1496     		str	r6, [sp, #80]
 440 02a2 14AB     		add	r3, sp, #80
 441 02a4 68AE     		add	r6, sp, #416
 442 02a6 CDE91561 		strd	r6, r1, [sp, #84]
 443 02aa 7E95     		str	r5, [sp, #504]
 444 02ac 8195     		str	r5, [sp, #516]
 445 02ae CDE98531 		strd	r3, r1, [sp, #532]
 446 02b2 05AB     		add	r3, sp, #20
 447 02b4 CDE98831 		strd	r3, r1, [sp, #544]
 448 02b8 7EAB     		add	r3, sp, #504
 449 02ba 1393     		str	r3, [sp, #76]
 164:../Middlewares/stedgeai-lib/Npu/ll_aton/ll_sw_integer.c ****                               AI_TENSOR_LIST_OBJ_INIT(AI_FLAG_NONE, 1, TENSORS(&dense_output)),
 165:../Middlewares/stedgeai-lib/Npu/ll_aton/ll_sw_integer.c ****                               AI_TENSOR_LIST_OBJ_INIT(AI_FLAG_NONE, 3, TENSORS(&dense_weights, &den
 166:../Middlewares/stedgeai-lib/Npu/ll_aton/ll_sw_integer.c ****                               AI_TENSOR_LIST_OBJ_INIT(AI_FLAG_NONE, 1, TENSORS(&dense_scratch0)))
 167:../Middlewares/stedgeai-lib/Npu/ll_aton/ll_sw_integer.c **** 
 168:../Middlewares/stedgeai-lib/Npu/ll_aton/ll_sw_integer.c ****   memset(sw_info->bias.mem.start_offset, 0x0, sw_info->bias.dim.num_elem * 4);
 450              		.loc 1 168 3 view .LVU137
 451 02bc 019B     		ldr	r3, [sp, #4]
 163:../Middlewares/stedgeai-lib/Npu/ll_aton/ll_sw_integer.c ****                               AI_TENSOR_LIST_OBJ_INIT(AI_FLAG_NONE, 1, TENSORS(&dense_output)),
 452              		.loc 1 163 3 is_stmt 0 view .LVU138
 453 02be 8795     		str	r5, [sp, #540]
 454              		.loc 1 168 3 view .LVU139
 455 02c0 9A00     		lsls	r2, r3, #2
 163:../Middlewares/stedgeai-lib/Npu/ll_aton/ll_sw_integer.c ****                               AI_TENSOR_LIST_OBJ_INIT(AI_FLAG_NONE, 1, TENSORS(&dense_output)),
 456              		.loc 1 163 3 view .LVU140
 457 02c2 5AAD     		add	r5, sp, #360
 458 02c4 0595     		str	r5, [sp, #20]
 459              		.loc 1 168 3 view .LVU141
 460 02c6 FFF7FEFF 		bl	memset
 461              	.LVL22:
 169:../Middlewares/stedgeai-lib/Npu/ll_aton/ll_sw_integer.c **** 
 170:../Middlewares/stedgeai-lib/Npu/ll_aton/ll_sw_integer.c ****   // layer initialization
 171:../Middlewares/stedgeai-lib/Npu/ll_aton/ll_sw_integer.c ****   AI_LAYER_OBJ_DECLARE(dense_layer, 1, DENSE_TYPE, 0x0, NULL, dense, forward_dense_integer /*_fixed
ARM GAS  /tmp/ccZCp2co.s 			page 13


 462              		.loc 1 171 3 is_stmt 1 view .LVU142
 463 02ca 0E4B     		ldr	r3, .L16+12
 464 02cc 1C22     		movs	r2, #28
 465 02ce 0021     		movs	r1, #0
 466 02d0 77A8     		add	r0, sp, #476
 467 02d2 7693     		str	r3, [sp, #472]
 468 02d4 FFF7FEFF 		bl	memset
 469              	.LVL23:
 470 02d8 0B4B     		ldr	r3, .L16+16
 163:../Middlewares/stedgeai-lib/Npu/ll_aton/ll_sw_integer.c ****                               AI_TENSOR_LIST_OBJ_INIT(AI_FLAG_NONE, 1, TENSORS(&dense_output)),
 471              		.loc 1 163 3 is_stmt 0 view .LVU143
 472 02da 12AC     		add	r4, sp, #72
 172:../Middlewares/stedgeai-lib/Npu/ll_aton/ll_sw_integer.c ****                        NULL, NULL, , )
 173:../Middlewares/stedgeai-lib/Npu/ll_aton/ll_sw_integer.c **** 
 174:../Middlewares/stedgeai-lib/Npu/ll_aton/ll_sw_integer.c ****   dense_layer.forward(AI_LAYER_OBJ(&dense_layer));
 473              		.loc 1 174 3 view .LVU144
 474 02dc 76A8     		add	r0, sp, #472
 171:../Middlewares/stedgeai-lib/Npu/ll_aton/ll_sw_integer.c ****                        NULL, NULL, , )
 475              		.loc 1 171 3 view .LVU145
 476 02de CDE97B34 		strd	r3, r4, [sp, #492]
 477              		.loc 1 174 3 is_stmt 1 view .LVU146
 478 02e2 FFF7FEFF 		bl	forward_dense_integer
 479              	.LVL24:
 175:../Middlewares/stedgeai-lib/Npu/ll_aton/ll_sw_integer.c **** }
 480              		.loc 1 175 1 is_stmt 0 view .LVU147
 481 02e6 0DF50B7D 		add	sp, sp, #556
 482              		.cfi_remember_state
 483              		.cfi_def_cfa_offset 36
 484              		@ sp needed
 485 02ea BDE8F08F 		pop	{r4, r5, r6, r7, r8, r9, r10, fp, pc}
 486              	.LVL25:
 487              	.L9:
 488              		.cfi_restore_state
  82:../Middlewares/stedgeai-lib/Npu/ll_aton/ll_sw_integer.c ****   AI_ARRAY_OBJ_DECLARE(input_output_array, format, sw_info->general.input.mem.start_offset,
 489              		.loc 1 82 52 discriminator 2 view .LVU148
 490 02ee 074A     		ldr	r2, .L16+20
 491 02f0 91E6     		b	.L2
 492              	.LVL26:
 493              	.L10:
  85:../Middlewares/stedgeai-lib/Npu/ll_aton/ll_sw_integer.c ****   AI_ARRAY_OBJ_DECLARE(dense_weights_array, format, sw_info->weights.mem.start_offset,
 494              		.loc 1 85 69 discriminator 2 view .LVU149
 495 02f2 074A     		ldr	r2, .L16+24
 496 02f4 9CE6     		b	.L3
 497              	.L17:
 498 02f6 00BF     		.align	2
 499              	.L16:
 500 02f8 40048408 		.word	142869568
 501 02fc 40048400 		.word	8651840
 502 0300 40108400 		.word	8654912
 503 0304 04010100 		.word	65796
 504 0308 00000000 		.word	forward_dense_integer
 505 030c 40040408 		.word	134480960
 506 0310 40040400 		.word	263232
 507              	.LVL27:
 508              	.L11:
  88:../Middlewares/stedgeai-lib/Npu/ll_aton/ll_sw_integer.c ****   AI_ARRAY_OBJ_DECLARE(dense_scratch0_array, format, sw_info->scratch.mem.start_offset,
 509              		.loc 1 88 69 discriminator 2 view .LVU150
ARM GAS  /tmp/ccZCp2co.s 			page 14


 510 0314 024A     		ldr	r2, .L18
 511 0316 99E6     		b	.L4
 512              	.LVL28:
 513              	.L12:
  95:../Middlewares/stedgeai-lib/Npu/ll_aton/ll_sw_integer.c ****   AI_ARRAY_OBJ_DECLARE(dense_output_array, format, sw_info->general.output.mem.start_offset,
 514              		.loc 1 95 53 discriminator 2 view .LVU151
 515 0318 DFF808C0 		ldr	ip, .L18+4
 516 031c B1E6     		b	.L5
 517              	.L19:
 518 031e 00BF     		.align	2
 519              	.L18:
 520 0320 40040400 		.word	263232
 521 0324 40040408 		.word	134480960
 522              		.cfi_endproc
 523              	.LFE15:
 525              		.section	.text.ll_sw_forward_gemm_integer,"ax",%progbits
 526              		.align	1
 527              		.global	ll_sw_forward_gemm_integer
 528              		.syntax unified
 529              		.thumb
 530              		.thumb_func
 532              	ll_sw_forward_gemm_integer:
 533              	.LVL29:
 534              	.LFB16:
 176:../Middlewares/stedgeai-lib/Npu/ll_aton/ll_sw_integer.c **** 
 177:../Middlewares/stedgeai-lib/Npu/ll_aton/ll_sw_integer.c **** //##########################################################################################
 178:../Middlewares/stedgeai-lib/Npu/ll_aton/ll_sw_integer.c **** /** QLinearMatMul forward function */
 179:../Middlewares/stedgeai-lib/Npu/ll_aton/ll_sw_integer.c **** void ll_sw_forward_gemm_integer(Gemm_integer_sw_info *sw_info)
 180:../Middlewares/stedgeai-lib/Npu/ll_aton/ll_sw_integer.c **** {
 535              		.loc 1 180 1 is_stmt 1 view -0
 536              		.cfi_startproc
 537              		@ args = 0, pretend = 0, frame = 544
 538              		@ frame_needed = 0, uses_anonymous_args = 0
 181:../Middlewares/stedgeai-lib/Npu/ll_aton/ll_sw_integer.c ****   /*
 182:../Middlewares/stedgeai-lib/Npu/ll_aton/ll_sw_integer.c ****   1. reshape of the weights from weights tensor -> weights_perm tensor
 183:../Middlewares/stedgeai-lib/Npu/ll_aton/ll_sw_integer.c ****   2. map the matmul operation on the library dense_forward function.
 184:../Middlewares/stedgeai-lib/Npu/ll_aton/ll_sw_integer.c ****           this requires 1d input (on ch) and 2d weights (ch e chin). in particular:
 185:../Middlewares/stedgeai-lib/Npu/ll_aton/ll_sw_integer.c ****           - input: 1,1,NIN,1
 186:../Middlewares/stedgeai-lib/Npu/ll_aton/ll_sw_integer.c ****           - weights already permuted: 1,1,NOUT,NIN
 187:../Middlewares/stedgeai-lib/Npu/ll_aton/ll_sw_integer.c ****           - bias 1,1,NOUT,1
 188:../Middlewares/stedgeai-lib/Npu/ll_aton/ll_sw_integer.c ****           - scratch 1,1,NIN*2+NOUT*10
 189:../Middlewares/stedgeai-lib/Npu/ll_aton/ll_sw_integer.c ****           - output 1,1,NOUT,1
 190:../Middlewares/stedgeai-lib/Npu/ll_aton/ll_sw_integer.c ****   */
 191:../Middlewares/stedgeai-lib/Npu/ll_aton/ll_sw_integer.c **** 
 192:../Middlewares/stedgeai-lib/Npu/ll_aton/ll_sw_integer.c ****   int32_t format;
 539              		.loc 1 192 3 view .LVU153
 193:../Middlewares/stedgeai-lib/Npu/ll_aton/ll_sw_integer.c ****   // array init
 194:../Middlewares/stedgeai-lib/Npu/ll_aton/ll_sw_integer.c ****   format = sw_info->general.input.format.is_signed ? (AI_ARRAY_FORMAT_S8 | AI_FMT_FLAG_IS_IO)
 540              		.loc 1 194 3 view .LVU154
 180:../Middlewares/stedgeai-lib/Npu/ll_aton/ll_sw_integer.c ****   /*
 541              		.loc 1 180 1 is_stmt 0 view .LVU155
 542 0000 2DE9F047 		push	{r4, r5, r6, r7, r8, r9, r10, lr}
 543              		.cfi_def_cfa_offset 32
 544              		.cfi_offset 4, -32
 545              		.cfi_offset 5, -28
 546              		.cfi_offset 6, -24
 547              		.cfi_offset 7, -20
ARM GAS  /tmp/ccZCp2co.s 			page 15


 548              		.cfi_offset 8, -16
 549              		.cfi_offset 9, -12
 550              		.cfi_offset 10, -8
 551              		.cfi_offset 14, -4
 195:../Middlewares/stedgeai-lib/Npu/ll_aton/ll_sw_integer.c ****                                                    : (AI_ARRAY_FORMAT_U8 | AI_FMT_FLAG_IS_IO);
 552              		.loc 1 195 52 view .LVU156
 553 0004 90F82C30 		ldrb	r3, [r0, #44]	@ zero_extendqisi2
 180:../Middlewares/stedgeai-lib/Npu/ll_aton/ll_sw_integer.c ****   /*
 554              		.loc 1 180 1 view .LVU157
 555 0008 ADF5087D 		sub	sp, sp, #544
 556              		.cfi_def_cfa_offset 576
 557              		.loc 1 195 52 view .LVU158
 558 000c 002B     		cmp	r3, #0
 559 000e 00F05281 		beq	.L28
 560              		.loc 1 195 52 discriminator 1 view .LVU159
 561 0012 AD4B     		ldr	r3, .L35
 562              	.L21:
 563              	.LVL30:
 196:../Middlewares/stedgeai-lib/Npu/ll_aton/ll_sw_integer.c ****   AI_ARRAY_OBJ_DECLARE(input_output_array, format, sw_info->general.input.mem.start_offset,
 564              		.loc 1 196 3 is_stmt 1 view .LVU160
 565 0014 1593     		str	r3, [sp, #84]
 566 0016 4369     		ldr	r3, [r0, #20]
 567              	.LVL31:
 568              		.loc 1 196 3 is_stmt 0 view .LVU161
 569 0018 15AC     		add	r4, sp, #84
 570              	.LVL32:
 571              		.loc 1 196 3 view .LVU162
 572 001a 6360     		str	r3, [r4, #4]
 573 001c 836A     		ldr	r3, [r0, #40]
 574 001e C4E90233 		strd	r3, r3, [r4, #8]
 197:../Middlewares/stedgeai-lib/Npu/ll_aton/ll_sw_integer.c ****                        sw_info->general.input.mem.start_offset, sw_info->general.input.dim.num_elem
 198:../Middlewares/stedgeai-lib/Npu/ll_aton/ll_sw_integer.c ****   format = sw_info->weights.format.is_signed ? (AI_ARRAY_FORMAT_S8) : (AI_ARRAY_FORMAT_U8);
 575              		.loc 1 198 3 is_stmt 1 view .LVU163
 576              		.loc 1 198 69 is_stmt 0 view .LVU164
 577 0022 90F88430 		ldrb	r3, [r0, #132]	@ zero_extendqisi2
 578 0026 002B     		cmp	r3, #0
 579 0028 00F04781 		beq	.L29
 580              		.loc 1 198 69 discriminator 1 view .LVU165
 581 002c A74B     		ldr	r3, .L35+4
 582              	.L22:
 583              	.LVL33:
 199:../Middlewares/stedgeai-lib/Npu/ll_aton/ll_sw_integer.c ****   AI_ARRAY_OBJ_DECLARE(dense_weights_array, format, sw_info->weights.mem.start_offset,
 584              		.loc 1 199 3 is_stmt 1 view .LVU166
 585 002e 1993     		str	r3, [sp, #100]
 586 0030 C36E     		ldr	r3, [r0, #108]
 587              	.LVL34:
 588              		.loc 1 199 3 is_stmt 0 view .LVU167
 589 0032 19A9     		add	r1, sp, #100
 590              	.LVL35:
 591              		.loc 1 199 3 view .LVU168
 592 0034 4B60     		str	r3, [r1, #4]
 593 0036 D0F88030 		ldr	r3, [r0, #128]
 594 003a C1E90233 		strd	r3, r3, [r1, #8]
 200:../Middlewares/stedgeai-lib/Npu/ll_aton/ll_sw_integer.c ****                        sw_info->weights.mem.start_offset, sw_info->weights.dim.num_elem, )
 201:../Middlewares/stedgeai-lib/Npu/ll_aton/ll_sw_integer.c ****   format = sw_info->scratch.format.is_signed ? (AI_ARRAY_FORMAT_S8) : (AI_ARRAY_FORMAT_U8);
 595              		.loc 1 201 3 is_stmt 1 view .LVU169
 596              		.loc 1 201 69 is_stmt 0 view .LVU170
ARM GAS  /tmp/ccZCp2co.s 			page 16


 597 003e 90F8B030 		ldrb	r3, [r0, #176]	@ zero_extendqisi2
 598 0042 002B     		cmp	r3, #0
 599 0044 00F03B81 		beq	.L30
 600              		.loc 1 201 69 discriminator 1 view .LVU171
 601 0048 A04B     		ldr	r3, .L35+4
 602              	.L23:
 603              	.LVL36:
 202:../Middlewares/stedgeai-lib/Npu/ll_aton/ll_sw_integer.c ****   AI_ARRAY_OBJ_DECLARE(dense_scratch0_array, format, sw_info->scratch.mem.start_offset,
 604              		.loc 1 202 3 is_stmt 1 view .LVU172
 605 004a 1D93     		str	r3, [sp, #116]
 606 004c D0F89830 		ldr	r3, [r0, #152]
 607              	.LVL37:
 608              		.loc 1 202 3 is_stmt 0 view .LVU173
 609 0050 1DAD     		add	r5, sp, #116
 610              	.LVL38:
 611              		.loc 1 202 3 view .LVU174
 612 0052 6B60     		str	r3, [r5, #4]
 613 0054 D0F8AC30 		ldr	r3, [r0, #172]
 203:../Middlewares/stedgeai-lib/Npu/ll_aton/ll_sw_integer.c ****                        sw_info->scratch.mem.start_offset, sw_info->scratch.dim.num_elem, )
 204:../Middlewares/stedgeai-lib/Npu/ll_aton/ll_sw_integer.c **** 
 205:../Middlewares/stedgeai-lib/Npu/ll_aton/ll_sw_integer.c ****   AI_ARRAY_OBJ_DECLARE(dense_bias_array, AI_ARRAY_FORMAT_S32, sw_info->bias.mem.start_offset,
 614              		.loc 1 205 3 view .LVU175
 615 0058 21AA     		add	r2, sp, #132
 202:../Middlewares/stedgeai-lib/Npu/ll_aton/ll_sw_integer.c ****   AI_ARRAY_OBJ_DECLARE(dense_scratch0_array, format, sw_info->scratch.mem.start_offset,
 616              		.loc 1 202 3 view .LVU176
 617 005a C5E90233 		strd	r3, r3, [r5, #8]
 618              		.loc 1 205 3 is_stmt 1 view .LVU177
 619 005e 9C4B     		ldr	r3, .L35+8
 620 0060 1360     		str	r3, [r2]
 621 0062 D0F8C430 		ldr	r3, [r0, #196]
 622 0066 5360     		str	r3, [r2, #4]
 623 0068 D0F8D830 		ldr	r3, [r0, #216]
 624 006c C2E90233 		strd	r3, r3, [r2, #8]
 206:../Middlewares/stedgeai-lib/Npu/ll_aton/ll_sw_integer.c ****                        sw_info->bias.mem.start_offset, sw_info->bias.dim.num_elem, )
 207:../Middlewares/stedgeai-lib/Npu/ll_aton/ll_sw_integer.c ****   format = sw_info->general.output.format.is_signed ? (AI_ARRAY_FORMAT_S8 | AI_FMT_FLAG_IS_IO)
 625              		.loc 1 207 3 view .LVU178
 208:../Middlewares/stedgeai-lib/Npu/ll_aton/ll_sw_integer.c ****                                                     : (AI_ARRAY_FORMAT_U8 | AI_FMT_FLAG_IS_IO);
 626              		.loc 1 208 53 is_stmt 0 view .LVU179
 627 0070 90F85830 		ldrb	r3, [r0, #88]	@ zero_extendqisi2
 628 0074 002B     		cmp	r3, #0
 629 0076 00F02481 		beq	.L31
 630              		.loc 1 208 53 discriminator 1 view .LVU180
 631 007a 934E     		ldr	r6, .L35
 632              	.L24:
 633              	.LVL39:
 209:../Middlewares/stedgeai-lib/Npu/ll_aton/ll_sw_integer.c ****   AI_ARRAY_OBJ_DECLARE(dense_output_array, format, sw_info->general.output.mem.start_offset,
 634              		.loc 1 209 3 is_stmt 1 view .LVU181
 635 007c 2596     		str	r6, [sp, #148]
 636 007e 066C     		ldr	r6, [r0, #64]
 637              	.LVL40:
 210:../Middlewares/stedgeai-lib/Npu/ll_aton/ll_sw_integer.c ****                        sw_info->general.output.mem.start_offset, sw_info->general.output.dim.num_el
 211:../Middlewares/stedgeai-lib/Npu/ll_aton/ll_sw_integer.c **** 
 212:../Middlewares/stedgeai-lib/Npu/ll_aton/ll_sw_integer.c ****   uint16_t offset_format;
 213:../Middlewares/stedgeai-lib/Npu/ll_aton/ll_sw_integer.c ****   uint16_t scale_format;
 214:../Middlewares/stedgeai-lib/Npu/ll_aton/ll_sw_integer.c **** 
 215:../Middlewares/stedgeai-lib/Npu/ll_aton/ll_sw_integer.c ****   scale_format = AI_BUFFER_META_FLAG_SCALE_FLOAT;
 216:../Middlewares/stedgeai-lib/Npu/ll_aton/ll_sw_integer.c ****   offset_format =
ARM GAS  /tmp/ccZCp2co.s 			page 17


 217:../Middlewares/stedgeai-lib/Npu/ll_aton/ll_sw_integer.c ****       sw_info->izp.format.is_signed ? (AI_BUFFER_META_FLAG_ZEROPOINT_S8) : (AI_BUFFER_META_FLAG_ZER
 218:../Middlewares/stedgeai-lib/Npu/ll_aton/ll_sw_integer.c ****   ai_intq_info_list input_intq = {.flags = (scale_format | offset_format),
 219:../Middlewares/stedgeai-lib/Npu/ll_aton/ll_sw_integer.c ****                                   .size = sw_info->is.dim.num_elem,
 220:../Middlewares/stedgeai-lib/Npu/ll_aton/ll_sw_integer.c ****                                   .info = (const ai_intq_info[1]){{
 221:../Middlewares/stedgeai-lib/Npu/ll_aton/ll_sw_integer.c ****                                       .scale = ((float *)sw_info->is.mem.start_offset),
 222:../Middlewares/stedgeai-lib/Npu/ll_aton/ll_sw_integer.c ****                                       .zeropoint = ((void *)sw_info->izp.mem.start_offset),
 223:../Middlewares/stedgeai-lib/Npu/ll_aton/ll_sw_integer.c ****                                   }}};
 224:../Middlewares/stedgeai-lib/Npu/ll_aton/ll_sw_integer.c ****   scale_format = AI_BUFFER_META_FLAG_SCALE_FLOAT;
 225:../Middlewares/stedgeai-lib/Npu/ll_aton/ll_sw_integer.c ****   offset_format =
 226:../Middlewares/stedgeai-lib/Npu/ll_aton/ll_sw_integer.c ****       sw_info->wzp.format.is_signed ? (AI_BUFFER_META_FLAG_ZEROPOINT_S8) : (AI_BUFFER_META_FLAG_ZER
 227:../Middlewares/stedgeai-lib/Npu/ll_aton/ll_sw_integer.c ****   ai_intq_info_list weights_intq = {.flags = (scale_format | offset_format),
 638              		.loc 1 227 21 is_stmt 0 view .LVU182
 639 0080 0DF1200C 		add	ip, sp, #32
 209:../Middlewares/stedgeai-lib/Npu/ll_aton/ll_sw_integer.c ****   AI_ARRAY_OBJ_DECLARE(dense_output_array, format, sw_info->general.output.mem.start_offset,
 640              		.loc 1 209 3 view .LVU183
 641 0084 2696     		str	r6, [sp, #152]
 642 0086 466D     		ldr	r6, [r0, #84]
 228:../Middlewares/stedgeai-lib/Npu/ll_aton/ll_sw_integer.c ****                                     .size = sw_info->ws.dim.num_elem,
 229:../Middlewares/stedgeai-lib/Npu/ll_aton/ll_sw_integer.c ****                                     .info = (const ai_intq_info[1]){{
 230:../Middlewares/stedgeai-lib/Npu/ll_aton/ll_sw_integer.c ****                                         .scale = ((float *)sw_info->ws.mem.start_offset),
 231:../Middlewares/stedgeai-lib/Npu/ll_aton/ll_sw_integer.c ****                                         .zeropoint = ((void *)sw_info->wzp.mem.start_offset),
 232:../Middlewares/stedgeai-lib/Npu/ll_aton/ll_sw_integer.c ****                                     }}};
 233:../Middlewares/stedgeai-lib/Npu/ll_aton/ll_sw_integer.c ****   scale_format = AI_BUFFER_META_FLAG_SCALE_FLOAT;
 234:../Middlewares/stedgeai-lib/Npu/ll_aton/ll_sw_integer.c ****   offset_format =
 235:../Middlewares/stedgeai-lib/Npu/ll_aton/ll_sw_integer.c ****       sw_info->ozp.format.is_signed ? (AI_BUFFER_META_FLAG_ZEROPOINT_S8) : (AI_BUFFER_META_FLAG_ZER
 236:../Middlewares/stedgeai-lib/Npu/ll_aton/ll_sw_integer.c ****   ai_intq_info_list output_intq = {.flags = (scale_format | offset_format),
 237:../Middlewares/stedgeai-lib/Npu/ll_aton/ll_sw_integer.c ****                                    .size = sw_info->os.dim.num_elem,
 238:../Middlewares/stedgeai-lib/Npu/ll_aton/ll_sw_integer.c ****                                    .info = (const ai_intq_info[1]){{
 239:../Middlewares/stedgeai-lib/Npu/ll_aton/ll_sw_integer.c ****                                        .scale = ((float *)sw_info->os.mem.start_offset),
 240:../Middlewares/stedgeai-lib/Npu/ll_aton/ll_sw_integer.c ****                                        .zeropoint = ((void *)sw_info->ozp.mem.start_offset),
 241:../Middlewares/stedgeai-lib/Npu/ll_aton/ll_sw_integer.c ****                                    }}};
 242:../Middlewares/stedgeai-lib/Npu/ll_aton/ll_sw_integer.c **** 
 243:../Middlewares/stedgeai-lib/Npu/ll_aton/ll_sw_integer.c ****   AI_TENSOR_OBJ_DECLARE(dense_weights, , 0x0, 4,
 643              		.loc 1 243 3 view .LVU184
 644 0088 0DF1B40A 		add	r10, sp, #180
 209:../Middlewares/stedgeai-lib/Npu/ll_aton/ll_sw_integer.c ****                        sw_info->general.output.mem.start_offset, sw_info->general.output.dim.num_el
 645              		.loc 1 209 3 view .LVU185
 646 008c CDE92766 		strd	r6, r6, [sp, #156]
 212:../Middlewares/stedgeai-lib/Npu/ll_aton/ll_sw_integer.c ****   uint16_t scale_format;
 647              		.loc 1 212 3 is_stmt 1 view .LVU186
 213:../Middlewares/stedgeai-lib/Npu/ll_aton/ll_sw_integer.c **** 
 648              		.loc 1 213 3 view .LVU187
 215:../Middlewares/stedgeai-lib/Npu/ll_aton/ll_sw_integer.c ****   offset_format =
 649              		.loc 1 215 3 view .LVU188
 650              	.LVL41:
 216:../Middlewares/stedgeai-lib/Npu/ll_aton/ll_sw_integer.c ****       sw_info->izp.format.is_signed ? (AI_BUFFER_META_FLAG_ZEROPOINT_S8) : (AI_BUFFER_META_FLAG_ZER
 651              		.loc 1 216 3 view .LVU189
 216:../Middlewares/stedgeai-lib/Npu/ll_aton/ll_sw_integer.c ****       sw_info->izp.format.is_signed ? (AI_BUFFER_META_FLAG_ZEROPOINT_S8) : (AI_BUFFER_META_FLAG_ZER
 652              		.loc 1 216 17 is_stmt 0 view .LVU190
 653 0090 90F88C61 		ldrb	r6, [r0, #396]	@ zero_extendqisi2
 654              		.loc 1 243 3 view .LVU191
 655 0094 4FF08278 		mov	r8, #17039360
 216:../Middlewares/stedgeai-lib/Npu/ll_aton/ll_sw_integer.c ****       sw_info->izp.format.is_signed ? (AI_BUFFER_META_FLAG_ZEROPOINT_S8) : (AI_BUFFER_META_FLAG_ZER
 656              		.loc 1 216 17 discriminator 1 view .LVU192
 657 0098 002E     		cmp	r6, #0
 658 009a 0CBF     		ite	eq
 659 009c 0227     		moveq	r7, #2
ARM GAS  /tmp/ccZCp2co.s 			page 18


 660 009e 0427     		movne	r7, #4
 661              	.LVL42:
 218:../Middlewares/stedgeai-lib/Npu/ll_aton/ll_sw_integer.c ****                                   .size = sw_info->is.dim.num_elem,
 662              		.loc 1 218 3 is_stmt 1 view .LVU193
 218:../Middlewares/stedgeai-lib/Npu/ll_aton/ll_sw_integer.c ****                                   .size = sw_info->is.dim.num_elem,
 663              		.loc 1 218 21 is_stmt 0 view .LVU194
 664 00a0 47F00107 		orr	r7, r7, #1
 665              	.LVL43:
 218:../Middlewares/stedgeai-lib/Npu/ll_aton/ll_sw_integer.c ****                                   .size = sw_info->is.dim.num_elem,
 666              		.loc 1 218 21 view .LVU195
 667 00a4 ADF81070 		strh	r7, [sp, #16]	@ movhi
 668 00a8 D0F84871 		ldr	r7, [r0, #328]
 220:../Middlewares/stedgeai-lib/Npu/ll_aton/ll_sw_integer.c ****                                       .scale = ((float *)sw_info->is.mem.start_offset),
 669              		.loc 1 220 66 view .LVU196
 670 00ac D0F85C61 		ldr	r6, [r0, #348]
 218:../Middlewares/stedgeai-lib/Npu/ll_aton/ll_sw_integer.c ****                                   .size = sw_info->is.dim.num_elem,
 671              		.loc 1 218 21 view .LVU197
 672 00b0 ADF81270 		strh	r7, [sp, #18]	@ movhi
 220:../Middlewares/stedgeai-lib/Npu/ll_aton/ll_sw_integer.c ****                                       .scale = ((float *)sw_info->is.mem.start_offset),
 673              		.loc 1 220 66 view .LVU198
 674 00b4 06AF     		add	r7, sp, #24
 218:../Middlewares/stedgeai-lib/Npu/ll_aton/ll_sw_integer.c ****                                   .size = sw_info->is.dim.num_elem,
 675              		.loc 1 218 21 view .LVU199
 676 00b6 0597     		str	r7, [sp, #20]
 224:../Middlewares/stedgeai-lib/Npu/ll_aton/ll_sw_integer.c ****   offset_format =
 677              		.loc 1 224 3 is_stmt 1 view .LVU200
 225:../Middlewares/stedgeai-lib/Npu/ll_aton/ll_sw_integer.c ****       sw_info->wzp.format.is_signed ? (AI_BUFFER_META_FLAG_ZEROPOINT_S8) : (AI_BUFFER_META_FLAG_ZER
 678              		.loc 1 225 3 view .LVU201
 225:../Middlewares/stedgeai-lib/Npu/ll_aton/ll_sw_integer.c ****       sw_info->wzp.format.is_signed ? (AI_BUFFER_META_FLAG_ZEROPOINT_S8) : (AI_BUFFER_META_FLAG_ZER
 679              		.loc 1 225 17 is_stmt 0 view .LVU202
 680 00b8 90F83471 		ldrb	r7, [r0, #308]	@ zero_extendqisi2
 220:../Middlewares/stedgeai-lib/Npu/ll_aton/ll_sw_integer.c ****                                       .scale = ((float *)sw_info->is.mem.start_offset),
 681              		.loc 1 220 66 view .LVU203
 682 00bc 0696     		str	r6, [sp, #24]
 225:../Middlewares/stedgeai-lib/Npu/ll_aton/ll_sw_integer.c ****       sw_info->wzp.format.is_signed ? (AI_BUFFER_META_FLAG_ZEROPOINT_S8) : (AI_BUFFER_META_FLAG_ZER
 683              		.loc 1 225 17 discriminator 1 view .LVU204
 684 00be 002F     		cmp	r7, #0
 225:../Middlewares/stedgeai-lib/Npu/ll_aton/ll_sw_integer.c ****       sw_info->wzp.format.is_signed ? (AI_BUFFER_META_FLAG_ZEROPOINT_S8) : (AI_BUFFER_META_FLAG_ZER
 685              		.loc 1 225 17 discriminator 1 view .LVU205
 686 00c0 0CBF     		ite	eq
 687 00c2 0227     		moveq	r7, #2
 688 00c4 0427     		movne	r7, #4
 689              	.LVL44:
 227:../Middlewares/stedgeai-lib/Npu/ll_aton/ll_sw_integer.c ****                                     .size = sw_info->ws.dim.num_elem,
 690              		.loc 1 227 3 is_stmt 1 view .LVU206
 227:../Middlewares/stedgeai-lib/Npu/ll_aton/ll_sw_integer.c ****                                     .size = sw_info->ws.dim.num_elem,
 691              		.loc 1 227 21 is_stmt 0 view .LVU207
 692 00c6 47F00107 		orr	r7, r7, #1
 693              	.LVL45:
 227:../Middlewares/stedgeai-lib/Npu/ll_aton/ll_sw_integer.c ****                                     .size = sw_info->ws.dim.num_elem,
 694              		.loc 1 227 21 view .LVU208
 695 00ca ADF82070 		strh	r7, [sp, #32]	@ movhi
 696 00ce D0F8F070 		ldr	r7, [r0, #240]
 220:../Middlewares/stedgeai-lib/Npu/ll_aton/ll_sw_integer.c ****                                       .scale = ((float *)sw_info->is.mem.start_offset),
 697              		.loc 1 220 66 view .LVU209
 698 00d2 D0F88861 		ldr	r6, [r0, #392]
 227:../Middlewares/stedgeai-lib/Npu/ll_aton/ll_sw_integer.c ****                                     .size = sw_info->ws.dim.num_elem,
ARM GAS  /tmp/ccZCp2co.s 			page 19


 699              		.loc 1 227 21 view .LVU210
 700 00d6 ADF82270 		strh	r7, [sp, #34]	@ movhi
 229:../Middlewares/stedgeai-lib/Npu/ll_aton/ll_sw_integer.c ****                                         .scale = ((float *)sw_info->ws.mem.start_offset),
 701              		.loc 1 229 68 view .LVU211
 702 00da 0AAF     		add	r7, sp, #40
 227:../Middlewares/stedgeai-lib/Npu/ll_aton/ll_sw_integer.c ****                                     .size = sw_info->ws.dim.num_elem,
 703              		.loc 1 227 21 view .LVU212
 704 00dc 0997     		str	r7, [sp, #36]
 233:../Middlewares/stedgeai-lib/Npu/ll_aton/ll_sw_integer.c ****   offset_format =
 705              		.loc 1 233 3 is_stmt 1 view .LVU213
 234:../Middlewares/stedgeai-lib/Npu/ll_aton/ll_sw_integer.c ****       sw_info->ozp.format.is_signed ? (AI_BUFFER_META_FLAG_ZEROPOINT_S8) : (AI_BUFFER_META_FLAG_ZER
 706              		.loc 1 234 3 view .LVU214
 234:../Middlewares/stedgeai-lib/Npu/ll_aton/ll_sw_integer.c ****       sw_info->ozp.format.is_signed ? (AI_BUFFER_META_FLAG_ZEROPOINT_S8) : (AI_BUFFER_META_FLAG_ZER
 707              		.loc 1 234 17 is_stmt 0 view .LVU215
 708 00de 90F8E471 		ldrb	r7, [r0, #484]	@ zero_extendqisi2
 220:../Middlewares/stedgeai-lib/Npu/ll_aton/ll_sw_integer.c ****                                       .scale = ((float *)sw_info->is.mem.start_offset),
 709              		.loc 1 220 66 view .LVU216
 710 00e2 0796     		str	r6, [sp, #28]
 234:../Middlewares/stedgeai-lib/Npu/ll_aton/ll_sw_integer.c ****       sw_info->ozp.format.is_signed ? (AI_BUFFER_META_FLAG_ZEROPOINT_S8) : (AI_BUFFER_META_FLAG_ZER
 711              		.loc 1 234 17 discriminator 1 view .LVU217
 712 00e4 002F     		cmp	r7, #0
 713              	.LVL46:
 234:../Middlewares/stedgeai-lib/Npu/ll_aton/ll_sw_integer.c ****       sw_info->ozp.format.is_signed ? (AI_BUFFER_META_FLAG_ZEROPOINT_S8) : (AI_BUFFER_META_FLAG_ZER
 714              		.loc 1 234 17 discriminator 1 view .LVU218
 715 00e6 0CBF     		ite	eq
 716 00e8 0227     		moveq	r7, #2
 717 00ea 0427     		movne	r7, #4
 718              	.LVL47:
 236:../Middlewares/stedgeai-lib/Npu/ll_aton/ll_sw_integer.c ****                                    .size = sw_info->os.dim.num_elem,
 719              		.loc 1 236 3 is_stmt 1 view .LVU219
 229:../Middlewares/stedgeai-lib/Npu/ll_aton/ll_sw_integer.c ****                                         .scale = ((float *)sw_info->ws.mem.start_offset),
 720              		.loc 1 229 68 is_stmt 0 view .LVU220
 721 00ec D0F80461 		ldr	r6, [r0, #260]
 236:../Middlewares/stedgeai-lib/Npu/ll_aton/ll_sw_integer.c ****                                    .size = sw_info->os.dim.num_elem,
 722              		.loc 1 236 21 view .LVU221
 723 00f0 47F00107 		orr	r7, r7, #1
 724              	.LVL48:
 229:../Middlewares/stedgeai-lib/Npu/ll_aton/ll_sw_integer.c ****                                         .scale = ((float *)sw_info->ws.mem.start_offset),
 725              		.loc 1 229 68 view .LVU222
 726 00f4 0A96     		str	r6, [sp, #40]
 727 00f6 D0F83061 		ldr	r6, [r0, #304]
 236:../Middlewares/stedgeai-lib/Npu/ll_aton/ll_sw_integer.c ****                                    .size = sw_info->os.dim.num_elem,
 728              		.loc 1 236 21 view .LVU223
 729 00fa ADF83070 		strh	r7, [sp, #48]	@ movhi
 229:../Middlewares/stedgeai-lib/Npu/ll_aton/ll_sw_integer.c ****                                         .scale = ((float *)sw_info->ws.mem.start_offset),
 730              		.loc 1 229 68 view .LVU224
 731 00fe 0B96     		str	r6, [sp, #44]
 238:../Middlewares/stedgeai-lib/Npu/ll_aton/ll_sw_integer.c ****                                        .scale = ((float *)sw_info->os.mem.start_offset),
 732              		.loc 1 238 67 view .LVU225
 733 0100 D0F8B461 		ldr	r6, [r0, #436]
 236:../Middlewares/stedgeai-lib/Npu/ll_aton/ll_sw_integer.c ****                                    .size = sw_info->os.dim.num_elem,
 734              		.loc 1 236 21 view .LVU226
 735 0104 D0F8A071 		ldr	r7, [r0, #416]
 238:../Middlewares/stedgeai-lib/Npu/ll_aton/ll_sw_integer.c ****                                        .scale = ((float *)sw_info->os.mem.start_offset),
 736              		.loc 1 238 67 view .LVU227
 737 0108 0E96     		str	r6, [sp, #56]
 738 010a D0F8E061 		ldr	r6, [r0, #480]
ARM GAS  /tmp/ccZCp2co.s 			page 20


 236:../Middlewares/stedgeai-lib/Npu/ll_aton/ll_sw_integer.c ****                                    .size = sw_info->os.dim.num_elem,
 739              		.loc 1 236 21 view .LVU228
 740 010e ADF83270 		strh	r7, [sp, #50]	@ movhi
 238:../Middlewares/stedgeai-lib/Npu/ll_aton/ll_sw_integer.c ****                                        .scale = ((float *)sw_info->os.mem.start_offset),
 741              		.loc 1 238 67 view .LVU229
 742 0112 0EAF     		add	r7, sp, #56
 743 0114 0F96     		str	r6, [sp, #60]
 236:../Middlewares/stedgeai-lib/Npu/ll_aton/ll_sw_integer.c ****                                    .size = sw_info->os.dim.num_elem,
 744              		.loc 1 236 21 view .LVU230
 745 0116 0D97     		str	r7, [sp, #52]
 746              		.loc 1 243 3 is_stmt 1 view .LVU231
 747 0118 29AF     		add	r7, sp, #164
 748 011a CDE956A1 		strd	r10, r1, [sp, #344]
 244:../Middlewares/stedgeai-lib/Npu/ll_aton/ll_sw_integer.c ****                         SHAPE_INIT(sw_info->weights.dim.tensor_h, sw_info->weights.dim.tensor_w,
 245:../Middlewares/stedgeai-lib/Npu/ll_aton/ll_sw_integer.c ****                                    sw_info->weights.dim.tensor_c, sw_info->weights.dim.tensor_b),
 246:../Middlewares/stedgeai-lib/Npu/ll_aton/ll_sw_integer.c ****                         STRIDE_INIT(sw_info->weights.stride.h, sw_info->weights.stride.w, sw_info->
 247:../Middlewares/stedgeai-lib/Npu/ll_aton/ll_sw_integer.c ****                                     sw_info->weights.stride.b),
 248:../Middlewares/stedgeai-lib/Npu/ll_aton/ll_sw_integer.c ****                         1, &dense_weights_array, &weights_intq);
 749              		.loc 1 248 64 view .LVU232
 249:../Middlewares/stedgeai-lib/Npu/ll_aton/ll_sw_integer.c ****   AI_TENSOR_OBJ_DECLARE(dense_scratch0, , 0x0, 4,
 750              		.loc 1 249 3 view .LVU233
 243:../Middlewares/stedgeai-lib/Npu/ll_aton/ll_sw_integer.c ****                         SHAPE_INIT(sw_info->weights.dim.tensor_h, sw_info->weights.dim.tensor_w,
 751              		.loc 1 243 3 is_stmt 0 view .LVU234
 752 011e CDF844C1 		str	ip, [sp, #324]
 753              		.loc 1 249 3 view .LVU235
 754 0122 0021     		movs	r1, #0
 243:../Middlewares/stedgeai-lib/Npu/ll_aton/ll_sw_integer.c ****                         SHAPE_INIT(sw_info->weights.dim.tensor_h, sw_info->weights.dim.tensor_w,
 755              		.loc 1 243 3 view .LVU236
 756 0124 40F2014C 		movw	ip, #1025
 757 0128 5497     		str	r7, [sp, #336]
 758 012a 40F20247 		movw	r7, #1026
 759 012e 866E     		ldr	r6, [r0, #104]
 760              		.loc 1 249 3 view .LVU237
 761 0130 0DF1C40A 		add	r10, sp, #196
 243:../Middlewares/stedgeai-lib/Npu/ll_aton/ll_sw_integer.c ****                         SHAPE_INIT(sw_info->weights.dim.tensor_h, sw_info->weights.dim.tensor_w,
 762              		.loc 1 243 3 view .LVU238
 763 0134 2996     		str	r6, [sp, #164]
 764 0136 466E     		ldr	r6, [r0, #100]
 765 0138 CDE9528C 		strd	r8, ip, [sp, #328]
 766 013c 2A96     		str	r6, [sp, #168]
 767 013e 066E     		ldr	r6, [r0, #96]
 768              		.loc 1 249 3 view .LVU239
 769 0140 CDE95818 		strd	r1, r8, [sp, #352]
 243:../Middlewares/stedgeai-lib/Npu/ll_aton/ll_sw_integer.c ****                         SHAPE_INIT(sw_info->weights.dim.tensor_h, sw_info->weights.dim.tensor_w,
 770              		.loc 1 243 3 view .LVU240
 771 0144 2B96     		str	r6, [sp, #172]
 772 0146 C66D     		ldr	r6, [r0, #92]
 773              		.loc 1 249 3 view .LVU241
 774 0148 CDF868C1 		str	ip, [sp, #360]
 243:../Middlewares/stedgeai-lib/Npu/ll_aton/ll_sw_integer.c ****                         SHAPE_INIT(sw_info->weights.dim.tensor_h, sw_info->weights.dim.tensor_w,
 775              		.loc 1 243 3 view .LVU242
 776 014c 2C96     		str	r6, [sp, #176]
 777 014e C66F     		ldr	r6, [r0, #124]
 778 0150 5597     		str	r7, [sp, #340]
 779 0152 2D96     		str	r6, [sp, #180]
 780 0154 866F     		ldr	r6, [r0, #120]
 218:../Middlewares/stedgeai-lib/Npu/ll_aton/ll_sw_integer.c ****                                   .size = sw_info->is.dim.num_elem,
ARM GAS  /tmp/ccZCp2co.s 			page 21


 781              		.loc 1 218 21 view .LVU243
 782 0156 0DF11009 		add	r9, sp, #16
 243:../Middlewares/stedgeai-lib/Npu/ll_aton/ll_sw_integer.c ****                         SHAPE_INIT(sw_info->weights.dim.tensor_h, sw_info->weights.dim.tensor_w,
 783              		.loc 1 243 3 view .LVU244
 784 015a 2E96     		str	r6, [sp, #184]
 785 015c 466F     		ldr	r6, [r0, #116]
 236:../Middlewares/stedgeai-lib/Npu/ll_aton/ll_sw_integer.c ****                                    .size = sw_info->os.dim.num_elem,
 786              		.loc 1 236 21 view .LVU245
 787 015e 0DF1300E 		add	lr, sp, #48
 243:../Middlewares/stedgeai-lib/Npu/ll_aton/ll_sw_integer.c ****                         SHAPE_INIT(sw_info->weights.dim.tensor_h, sw_info->weights.dim.tensor_w,
 788              		.loc 1 243 3 view .LVU246
 789 0162 2F96     		str	r6, [sp, #188]
 790 0164 066F     		ldr	r6, [r0, #112]
 209:../Middlewares/stedgeai-lib/Npu/ll_aton/ll_sw_integer.c ****                        sw_info->general.output.mem.start_offset, sw_info->general.output.dim.num_el
 791              		.loc 1 209 3 view .LVU247
 792 0166 25AB     		add	r3, sp, #148
 793              	.LVL49:
 243:../Middlewares/stedgeai-lib/Npu/ll_aton/ll_sw_integer.c ****                         SHAPE_INIT(sw_info->weights.dim.tensor_h, sw_info->weights.dim.tensor_w,
 794              		.loc 1 243 3 view .LVU248
 795 0168 3096     		str	r6, [sp, #192]
 796              		.loc 1 249 3 view .LVU249
 797 016a D0F89460 		ldr	r6, [r0, #148]
 798 016e 3196     		str	r6, [sp, #196]
 799 0170 D0F89060 		ldr	r6, [r0, #144]
 800 0174 3296     		str	r6, [sp, #200]
 801 0176 D0F88C60 		ldr	r6, [r0, #140]
 802 017a 3396     		str	r6, [sp, #204]
 803 017c D0F88860 		ldr	r6, [r0, #136]
 804 0180 CDE95BA7 		strd	r10, r7, [sp, #364]
 805 0184 0DF1D40A 		add	r10, sp, #212
 806 0188 CDE95DA5 		strd	r10, r5, [sp, #372]
 250:../Middlewares/stedgeai-lib/Npu/ll_aton/ll_sw_integer.c ****                         SHAPE_INIT(sw_info->scratch.dim.tensor_h, sw_info->scratch.dim.tensor_w,
 251:../Middlewares/stedgeai-lib/Npu/ll_aton/ll_sw_integer.c ****                                    sw_info->scratch.dim.tensor_c, sw_info->scratch.dim.tensor_b),
 252:../Middlewares/stedgeai-lib/Npu/ll_aton/ll_sw_integer.c ****                         STRIDE_INIT(sw_info->scratch.stride.h, sw_info->scratch.stride.w, sw_info->
 253:../Middlewares/stedgeai-lib/Npu/ll_aton/ll_sw_integer.c ****                                     sw_info->scratch.stride.b),
 254:../Middlewares/stedgeai-lib/Npu/ll_aton/ll_sw_integer.c ****                         1, &dense_scratch0_array, NULL);
 807              		.loc 1 254 56 is_stmt 1 view .LVU250
 255:../Middlewares/stedgeai-lib/Npu/ll_aton/ll_sw_integer.c ****   AI_TENSOR_OBJ_DECLARE(input_output, , 0x0, 4,
 808              		.loc 1 255 3 view .LVU251
 809 018c 0569     		ldr	r5, [r0, #16]
 249:../Middlewares/stedgeai-lib/Npu/ll_aton/ll_sw_integer.c ****                         SHAPE_INIT(sw_info->scratch.dim.tensor_h, sw_info->scratch.dim.tensor_w,
 810              		.loc 1 249 3 is_stmt 0 view .LVU252
 811 018e 3496     		str	r6, [sp, #208]
 812              		.loc 1 255 3 view .LVU253
 813 0190 3995     		str	r5, [sp, #228]
 814 0192 C568     		ldr	r5, [r0, #12]
 249:../Middlewares/stedgeai-lib/Npu/ll_aton/ll_sw_integer.c ****                         SHAPE_INIT(sw_info->scratch.dim.tensor_h, sw_info->scratch.dim.tensor_w,
 815              		.loc 1 249 3 view .LVU254
 816 0194 D0F8A860 		ldr	r6, [r0, #168]
 817              		.loc 1 255 3 view .LVU255
 818 0198 3A95     		str	r5, [sp, #232]
 819 019a 8568     		ldr	r5, [r0, #8]
 249:../Middlewares/stedgeai-lib/Npu/ll_aton/ll_sw_integer.c ****                         SHAPE_INIT(sw_info->scratch.dim.tensor_h, sw_info->scratch.dim.tensor_w,
 820              		.loc 1 249 3 view .LVU256
 821 019c 3596     		str	r6, [sp, #212]
 822              		.loc 1 255 3 view .LVU257
 823 019e 3B95     		str	r5, [sp, #236]
ARM GAS  /tmp/ccZCp2co.s 			page 22


 249:../Middlewares/stedgeai-lib/Npu/ll_aton/ll_sw_integer.c ****                         SHAPE_INIT(sw_info->scratch.dim.tensor_h, sw_info->scratch.dim.tensor_w,
 824              		.loc 1 249 3 view .LVU258
 825 01a0 D0F8A460 		ldr	r6, [r0, #164]
 826              		.loc 1 255 3 view .LVU259
 827 01a4 4568     		ldr	r5, [r0, #4]
 249:../Middlewares/stedgeai-lib/Npu/ll_aton/ll_sw_integer.c ****                         SHAPE_INIT(sw_info->scratch.dim.tensor_h, sw_info->scratch.dim.tensor_w,
 828              		.loc 1 249 3 view .LVU260
 829 01a6 3696     		str	r6, [sp, #216]
 830              		.loc 1 255 3 view .LVU261
 831 01a8 3C95     		str	r5, [sp, #240]
 249:../Middlewares/stedgeai-lib/Npu/ll_aton/ll_sw_integer.c ****                         SHAPE_INIT(sw_info->scratch.dim.tensor_h, sw_info->scratch.dim.tensor_w,
 832              		.loc 1 249 3 view .LVU262
 833 01aa D0F8A060 		ldr	r6, [r0, #160]
 834              		.loc 1 255 3 view .LVU263
 835 01ae 456A     		ldr	r5, [r0, #36]
 249:../Middlewares/stedgeai-lib/Npu/ll_aton/ll_sw_integer.c ****                         SHAPE_INIT(sw_info->scratch.dim.tensor_h, sw_info->scratch.dim.tensor_w,
 836              		.loc 1 249 3 view .LVU264
 837 01b0 3796     		str	r6, [sp, #220]
 838              		.loc 1 255 3 view .LVU265
 839 01b2 3D95     		str	r5, [sp, #244]
 249:../Middlewares/stedgeai-lib/Npu/ll_aton/ll_sw_integer.c ****                         SHAPE_INIT(sw_info->scratch.dim.tensor_h, sw_info->scratch.dim.tensor_w,
 840              		.loc 1 249 3 view .LVU266
 841 01b4 D0F89C60 		ldr	r6, [r0, #156]
 842              		.loc 1 255 3 view .LVU267
 843 01b8 056A     		ldr	r5, [r0, #32]
 249:../Middlewares/stedgeai-lib/Npu/ll_aton/ll_sw_integer.c ****                         SHAPE_INIT(sw_info->scratch.dim.tensor_h, sw_info->scratch.dim.tensor_w,
 844              		.loc 1 249 3 view .LVU268
 845 01ba 3896     		str	r6, [sp, #224]
 846              		.loc 1 255 3 view .LVU269
 847 01bc 3E95     		str	r5, [sp, #248]
 848 01be 39AE     		add	r6, sp, #228
 849 01c0 C569     		ldr	r5, [r0, #28]
 850 01c2 CDE96267 		strd	r6, r7, [sp, #392]
 851 01c6 3DAE     		add	r6, sp, #244
 852 01c8 CDF884C1 		str	ip, [sp, #388]
 853 01cc CDE95F98 		strd	r9, r8, [sp, #380]
 854 01d0 3F95     		str	r5, [sp, #252]
 855 01d2 CDE96464 		strd	r6, r4, [sp, #400]
 256:../Middlewares/stedgeai-lib/Npu/ll_aton/ll_sw_integer.c ****                         SHAPE_INIT(sw_info->general.input.dim.tensor_h, sw_info->general.input.dim.
 257:../Middlewares/stedgeai-lib/Npu/ll_aton/ll_sw_integer.c ****                                    sw_info->general.input.dim.tensor_c, sw_info->general.input.dim.
 258:../Middlewares/stedgeai-lib/Npu/ll_aton/ll_sw_integer.c ****                         STRIDE_INIT(sw_info->general.input.stride.h, sw_info->general.input.stride.
 259:../Middlewares/stedgeai-lib/Npu/ll_aton/ll_sw_integer.c ****                                     sw_info->general.input.stride.c, sw_info->general.input.stride.
 260:../Middlewares/stedgeai-lib/Npu/ll_aton/ll_sw_integer.c ****                         1, &input_output_array, &input_intq);
 856              		.loc 1 260 61 is_stmt 1 view .LVU270
 261:../Middlewares/stedgeai-lib/Npu/ll_aton/ll_sw_integer.c ****   AI_TENSOR_OBJ_DECLARE(
 857              		.loc 1 261 3 view .LVU271
 858 01d6 D0F8C040 		ldr	r4, [r0, #192]
 255:../Middlewares/stedgeai-lib/Npu/ll_aton/ll_sw_integer.c ****                         SHAPE_INIT(sw_info->general.input.dim.tensor_h, sw_info->general.input.dim.
 859              		.loc 1 255 3 is_stmt 0 view .LVU272
 860 01da 8569     		ldr	r5, [r0, #24]
 861              		.loc 1 261 3 view .LVU273
 862 01dc 4194     		str	r4, [sp, #260]
 863 01de D0F8B840 		ldr	r4, [r0, #184]
 255:../Middlewares/stedgeai-lib/Npu/ll_aton/ll_sw_integer.c ****                         SHAPE_INIT(sw_info->general.input.dim.tensor_h, sw_info->general.input.dim.
 864              		.loc 1 255 3 view .LVU274
 865 01e2 4095     		str	r5, [sp, #256]
 866              		.loc 1 261 3 view .LVU275
ARM GAS  /tmp/ccZCp2co.s 			page 23


 867 01e4 4294     		str	r4, [sp, #264]
 868 01e6 D0F8BC40 		ldr	r4, [r0, #188]
 869 01ea 41AD     		add	r5, sp, #260
 870 01ec 4394     		str	r4, [sp, #268]
 871 01ee D0F8B440 		ldr	r4, [r0, #180]
 872 01f2 CDE96957 		strd	r5, r7, [sp, #420]
 873 01f6 4494     		str	r4, [sp, #272]
 874 01f8 D0F8D440 		ldr	r4, [r0, #212]
 875 01fc 45AD     		add	r5, sp, #276
 876 01fe 4594     		str	r4, [sp, #276]
 877 0200 D0F8D040 		ldr	r4, [r0, #208]
 878 0204 CDE96B52 		strd	r5, r2, [sp, #428]
 262:../Middlewares/stedgeai-lib/Npu/ll_aton/ll_sw_integer.c ****       dense_bias, , 0x0, 4,
 263:../Middlewares/stedgeai-lib/Npu/ll_aton/ll_sw_integer.c ****       SHAPE_INIT(sw_info->bias.dim.tensor_h, sw_info->bias.dim.tensor_c, sw_info->bias.dim.tensor_w
 264:../Middlewares/stedgeai-lib/Npu/ll_aton/ll_sw_integer.c ****                  sw_info->bias.dim.tensor_b),
 265:../Middlewares/stedgeai-lib/Npu/ll_aton/ll_sw_integer.c ****       STRIDE_INIT(sw_info->bias.stride.h, sw_info->bias.stride.w, sw_info->bias.stride.c, sw_info->
 266:../Middlewares/stedgeai-lib/Npu/ll_aton/ll_sw_integer.c ****       &dense_bias_array, NULL);
 879              		.loc 1 266 31 is_stmt 1 view .LVU276
 267:../Middlewares/stedgeai-lib/Npu/ll_aton/ll_sw_integer.c ****   AI_TENSOR_OBJ_DECLARE(dense_output, , 0x0, 4,
 880              		.loc 1 267 3 view .LVU277
 261:../Middlewares/stedgeai-lib/Npu/ll_aton/ll_sw_integer.c ****       dense_bias, , 0x0, 4,
 881              		.loc 1 261 3 is_stmt 0 view .LVU278
 882 0208 4694     		str	r4, [sp, #280]
 883 020a D0F8CC40 		ldr	r4, [r0, #204]
 884              		.loc 1 267 3 view .LVU279
 885 020e C26B     		ldr	r2, [r0, #60]
 261:../Middlewares/stedgeai-lib/Npu/ll_aton/ll_sw_integer.c ****       dense_bias, , 0x0, 4,
 886              		.loc 1 261 3 view .LVU280
 887 0210 4794     		str	r4, [sp, #284]
 888 0212 D0F8C840 		ldr	r4, [r0, #200]
 889 0216 CDE96618 		strd	r1, r8, [sp, #408]
 890              		.loc 1 267 3 view .LVU281
 891 021a CDE96DE8 		strd	lr, r8, [sp, #436]
 261:../Middlewares/stedgeai-lib/Npu/ll_aton/ll_sw_integer.c ****       dense_bias, , 0x0, 4,
 892              		.loc 1 261 3 view .LVU282
 893 021e CDF8A0C1 		str	ip, [sp, #416]
 894              		.loc 1 267 3 view .LVU283
 895 0222 CDF8BCC1 		str	ip, [sp, #444]
 261:../Middlewares/stedgeai-lib/Npu/ll_aton/ll_sw_integer.c ****       dense_bias, , 0x0, 4,
 896              		.loc 1 261 3 view .LVU284
 897 0226 4894     		str	r4, [sp, #288]
 898              		.loc 1 267 3 view .LVU285
 899 0228 4992     		str	r2, [sp, #292]
 900 022a 826B     		ldr	r2, [r0, #56]
 268:../Middlewares/stedgeai-lib/Npu/ll_aton/ll_sw_integer.c ****                         SHAPE_INIT(sw_info->general.output.dim.tensor_h, sw_info->general.output.di
 269:../Middlewares/stedgeai-lib/Npu/ll_aton/ll_sw_integer.c ****                                    sw_info->general.output.dim.tensor_c, sw_info->general.output.di
 270:../Middlewares/stedgeai-lib/Npu/ll_aton/ll_sw_integer.c ****                         STRIDE_INIT(sw_info->general.output.stride.h, sw_info->general.output.strid
 271:../Middlewares/stedgeai-lib/Npu/ll_aton/ll_sw_integer.c ****                                     sw_info->general.output.stride.c, sw_info->general.output.strid
 272:../Middlewares/stedgeai-lib/Npu/ll_aton/ll_sw_integer.c ****                         1, &dense_output_array, &output_intq);
 273:../Middlewares/stedgeai-lib/Npu/ll_aton/ll_sw_integer.c ****   // tensor chain initialization
 274:../Middlewares/stedgeai-lib/Npu/ll_aton/ll_sw_integer.c ****   AI_TENSOR_CHAIN_OBJ_DECLARE(dense_chain, , 4, AI_TENSOR_LIST_OBJ_INIT(AI_FLAG_NONE, 1, TENSORS(&i
 901              		.loc 1 274 3 view .LVU286
 902 022c 10AC     		add	r4, sp, #64
 267:../Middlewares/stedgeai-lib/Npu/ll_aton/ll_sw_integer.c ****                         SHAPE_INIT(sw_info->general.output.dim.tensor_h, sw_info->general.output.di
 903              		.loc 1 267 3 view .LVU287
 904 022e 4A92     		str	r2, [sp, #296]
 905 0230 426B     		ldr	r2, [r0, #52]
ARM GAS  /tmp/ccZCp2co.s 			page 24


 906 0232 4B92     		str	r2, [sp, #300]
 907 0234 026B     		ldr	r2, [r0, #48]
 908 0236 4C92     		str	r2, [sp, #304]
 909 0238 49AA     		add	r2, sp, #292
 910 023a CDE97027 		strd	r2, r7, [sp, #448]
 911 023e 026D     		ldr	r2, [r0, #80]
 912 0240 4D92     		str	r2, [sp, #308]
 913 0242 C26C     		ldr	r2, [r0, #76]
 914 0244 4E92     		str	r2, [sp, #312]
 915 0246 826C     		ldr	r2, [r0, #72]
 916 0248 4F92     		str	r2, [sp, #316]
 917 024a 426C     		ldr	r2, [r0, #68]
 918              		.loc 1 274 3 view .LVU288
 919 024c 5FA8     		add	r0, sp, #380
 920              	.LVL50:
 267:../Middlewares/stedgeai-lib/Npu/ll_aton/ll_sw_integer.c ****                         SHAPE_INIT(sw_info->general.output.dim.tensor_h, sw_info->general.output.di
 921              		.loc 1 267 3 view .LVU289
 922 024e 5092     		str	r2, [sp, #320]
 923 0250 4DAA     		add	r2, sp, #308
 924 0252 CDE97223 		strd	r2, r3, [sp, #456]
 272:../Middlewares/stedgeai-lib/Npu/ll_aton/ll_sw_integer.c ****   // tensor chain initialization
 925              		.loc 1 272 62 is_stmt 1 view .LVU290
 926              		.loc 1 274 3 view .LVU291
 927 0256 0423     		movs	r3, #4
 928              	.LVL51:
 929              		.loc 1 274 3 is_stmt 0 view .LVU292
 930 0258 1093     		str	r3, [sp, #64]
 931 025a 6B44     		add	r3, sp, r3
 932 025c CDE97D31 		strd	r3, r1, [sp, #500]
 933 0260 1860     		str	r0, [r3]
 934 0262 02AB     		add	r3, sp, #8
 935 0264 CDE98031 		strd	r3, r1, [sp, #512]
 936 0268 0323     		movs	r3, #3
 937 026a 0122     		movs	r2, #1
 938 026c 6DA8     		add	r0, sp, #436
 939 026e 0290     		str	r0, [sp, #8]
 940 0270 51A8     		add	r0, sp, #324
 941 0272 8293     		str	r3, [sp, #520]
 942 0274 1290     		str	r0, [sp, #72]
 943 0276 12AB     		add	r3, sp, #72
 944 0278 66A8     		add	r0, sp, #408
 945 027a CDE91301 		strd	r0, r1, [sp, #76]
 946 027e 7C92     		str	r2, [sp, #496]
 947 0280 7F92     		str	r2, [sp, #508]
 948 0282 CDE98331 		strd	r3, r1, [sp, #524]
 949 0286 03AB     		add	r3, sp, #12
 950 0288 CDE98631 		strd	r3, r1, [sp, #536]
 951 028c 7CAB     		add	r3, sp, #496
 952 028e 8592     		str	r2, [sp, #532]
 953 0290 1193     		str	r3, [sp, #68]
 275:../Middlewares/stedgeai-lib/Npu/ll_aton/ll_sw_integer.c ****                               AI_TENSOR_LIST_OBJ_INIT(AI_FLAG_NONE, 1, TENSORS(&dense_output)),
 276:../Middlewares/stedgeai-lib/Npu/ll_aton/ll_sw_integer.c ****                               AI_TENSOR_LIST_OBJ_INIT(AI_FLAG_NONE, 3, TENSORS(&dense_weights, &den
 277:../Middlewares/stedgeai-lib/Npu/ll_aton/ll_sw_integer.c ****                               AI_TENSOR_LIST_OBJ_INIT(AI_FLAG_NONE, 1, TENSORS(&dense_scratch0)))
 278:../Middlewares/stedgeai-lib/Npu/ll_aton/ll_sw_integer.c **** 
 279:../Middlewares/stedgeai-lib/Npu/ll_aton/ll_sw_integer.c ****   // layer initialization
 280:../Middlewares/stedgeai-lib/Npu/ll_aton/ll_sw_integer.c ****   AI_LAYER_OBJ_DECLARE(dense_layer, 1, DENSE_TYPE, 0x0, NULL, dense, forward_dense_integer /*_fixed
 954              		.loc 1 280 3 is_stmt 1 view .LVU293
ARM GAS  /tmp/ccZCp2co.s 			page 25


 274:../Middlewares/stedgeai-lib/Npu/ll_aton/ll_sw_integer.c ****                               AI_TENSOR_LIST_OBJ_INIT(AI_FLAG_NONE, 1, TENSORS(&dense_output)),
 955              		.loc 1 274 3 is_stmt 0 view .LVU294
 956 0292 58AA     		add	r2, sp, #352
 957              		.loc 1 280 3 view .LVU295
 958 0294 0F4B     		ldr	r3, .L35+12
 274:../Middlewares/stedgeai-lib/Npu/ll_aton/ll_sw_integer.c ****                               AI_TENSOR_LIST_OBJ_INIT(AI_FLAG_NONE, 1, TENSORS(&dense_output)),
 959              		.loc 1 274 3 view .LVU296
 960 0296 0392     		str	r2, [sp, #12]
 961              		.loc 1 280 3 view .LVU297
 962 0298 75A8     		add	r0, sp, #468
 963 029a 1C22     		movs	r2, #28
 964 029c 7493     		str	r3, [sp, #464]
 965 029e FFF7FEFF 		bl	memset
 966              	.LVL52:
 967              		.loc 1 280 3 view .LVU298
 968 02a2 0D4B     		ldr	r3, .L35+16
 281:../Middlewares/stedgeai-lib/Npu/ll_aton/ll_sw_integer.c ****                        NULL, NULL, , )
 282:../Middlewares/stedgeai-lib/Npu/ll_aton/ll_sw_integer.c **** 
 283:../Middlewares/stedgeai-lib/Npu/ll_aton/ll_sw_integer.c ****   dense_layer.forward(AI_LAYER_OBJ(&dense_layer));
 969              		.loc 1 283 3 view .LVU299
 970 02a4 74A8     		add	r0, sp, #464
 280:../Middlewares/stedgeai-lib/Npu/ll_aton/ll_sw_integer.c ****                        NULL, NULL, , )
 971              		.loc 1 280 3 view .LVU300
 972 02a6 CDE97934 		strd	r3, r4, [sp, #484]
 973              		.loc 1 283 3 is_stmt 1 view .LVU301
 974 02aa FFF7FEFF 		bl	forward_dense_integer
 975              	.LVL53:
 284:../Middlewares/stedgeai-lib/Npu/ll_aton/ll_sw_integer.c **** }
 976              		.loc 1 284 1 is_stmt 0 view .LVU302
 977 02ae 0DF5087D 		add	sp, sp, #544
 978              		.cfi_remember_state
 979              		.cfi_def_cfa_offset 32
 980              		@ sp needed
 981 02b2 BDE8F087 		pop	{r4, r5, r6, r7, r8, r9, r10, pc}
 982              	.LVL54:
 983              	.L28:
 984              		.cfi_restore_state
 195:../Middlewares/stedgeai-lib/Npu/ll_aton/ll_sw_integer.c ****   AI_ARRAY_OBJ_DECLARE(input_output_array, format, sw_info->general.input.mem.start_offset,
 985              		.loc 1 195 52 discriminator 2 view .LVU303
 986 02b6 094B     		ldr	r3, .L35+20
 987 02b8 ACE6     		b	.L21
 988              	.LVL55:
 989              	.L29:
 198:../Middlewares/stedgeai-lib/Npu/ll_aton/ll_sw_integer.c ****   AI_ARRAY_OBJ_DECLARE(dense_weights_array, format, sw_info->weights.mem.start_offset,
 990              		.loc 1 198 69 discriminator 2 view .LVU304
 991 02ba 094B     		ldr	r3, .L35+24
 992 02bc B7E6     		b	.L22
 993              	.LVL56:
 994              	.L30:
 201:../Middlewares/stedgeai-lib/Npu/ll_aton/ll_sw_integer.c ****   AI_ARRAY_OBJ_DECLARE(dense_scratch0_array, format, sw_info->scratch.mem.start_offset,
 995              		.loc 1 201 69 discriminator 2 view .LVU305
 996 02be 084B     		ldr	r3, .L35+24
 997 02c0 C3E6     		b	.L23
 998              	.LVL57:
 999              	.L31:
 208:../Middlewares/stedgeai-lib/Npu/ll_aton/ll_sw_integer.c ****   AI_ARRAY_OBJ_DECLARE(dense_output_array, format, sw_info->general.output.mem.start_offset,
 1000              		.loc 1 208 53 discriminator 2 view .LVU306
ARM GAS  /tmp/ccZCp2co.s 			page 26


 1001 02c2 064E     		ldr	r6, .L35+20
 1002 02c4 DAE6     		b	.L24
 1003              	.L36:
 1004 02c6 00BF     		.align	2
 1005              	.L35:
 1006 02c8 40048408 		.word	142869568
 1007 02cc 40048400 		.word	8651840
 1008 02d0 40108400 		.word	8654912
 1009 02d4 04010100 		.word	65796
 1010 02d8 00000000 		.word	forward_dense_integer
 1011 02dc 40040408 		.word	134480960
 1012 02e0 40040400 		.word	263232
 1013              		.cfi_endproc
 1014              	.LFE16:
 1016              		.section	.text.ll_sw_forward_quantizelinear,"ax",%progbits
 1017              		.align	1
 1018              		.global	ll_sw_forward_quantizelinear
 1019              		.syntax unified
 1020              		.thumb
 1021              		.thumb_func
 1023              	ll_sw_forward_quantizelinear:
 1024              	.LVL58:
 1025              	.LFB17:
 285:../Middlewares/stedgeai-lib/Npu/ll_aton/ll_sw_integer.c **** 
 286:../Middlewares/stedgeai-lib/Npu/ll_aton/ll_sw_integer.c **** //##########################################################################################
 287:../Middlewares/stedgeai-lib/Npu/ll_aton/ll_sw_integer.c **** /** QuantizeLinear forward function */
 288:../Middlewares/stedgeai-lib/Npu/ll_aton/ll_sw_integer.c **** void ll_sw_forward_quantizelinear(Quantizelinear_sw_info *sw_info)
 289:../Middlewares/stedgeai-lib/Npu/ll_aton/ll_sw_integer.c **** {
 1026              		.loc 1 289 1 is_stmt 1 view -0
 1027              		.cfi_startproc
 1028              		@ args = 0, pretend = 0, frame = 272
 1029              		@ frame_needed = 0, uses_anonymous_args = 0
 290:../Middlewares/stedgeai-lib/Npu/ll_aton/ll_sw_integer.c ****   // array init
 291:../Middlewares/stedgeai-lib/Npu/ll_aton/ll_sw_integer.c ****   AI_ARRAY_OBJ_DECLARE(input_output_array, AI_ARRAY_FORMAT_FLOAT, sw_info->general.input.mem.start_
 1030              		.loc 1 291 3 view .LVU308
 289:../Middlewares/stedgeai-lib/Npu/ll_aton/ll_sw_integer.c ****   // array init
 1031              		.loc 1 289 1 is_stmt 0 view .LVU309
 1032 0000 70B5     		push	{r4, r5, r6, lr}
 1033              		.cfi_def_cfa_offset 16
 1034              		.cfi_offset 4, -16
 1035              		.cfi_offset 5, -12
 1036              		.cfi_offset 6, -8
 1037              		.cfi_offset 14, -4
 1038              		.loc 1 291 3 view .LVU310
 1039 0002 484B     		ldr	r3, .L42
 289:../Middlewares/stedgeai-lib/Npu/ll_aton/ll_sw_integer.c ****   // array init
 1040              		.loc 1 289 1 view .LVU311
 1041 0004 C4B0     		sub	sp, sp, #272
 1042              		.cfi_def_cfa_offset 288
 1043              		.loc 1 291 3 view .LVU312
 1044 0006 0A93     		str	r3, [sp, #40]
 1045 0008 4369     		ldr	r3, [r0, #20]
 1046 000a 0B93     		str	r3, [sp, #44]
 1047 000c 836A     		ldr	r3, [r0, #40]
 1048 000e CDE90C33 		strd	r3, r3, [sp, #48]
 292:../Middlewares/stedgeai-lib/Npu/ll_aton/ll_sw_integer.c ****                        sw_info->general.input.mem.start_offset, sw_info->general.input.dim.num_elem
 293:../Middlewares/stedgeai-lib/Npu/ll_aton/ll_sw_integer.c ****   int32_t format = sw_info->general.output.format.is_signed ? (AI_ARRAY_FORMAT_S8 | AI_FMT_FLAG_IS_
ARM GAS  /tmp/ccZCp2co.s 			page 27


 1049              		.loc 1 293 3 is_stmt 1 view .LVU313
 294:../Middlewares/stedgeai-lib/Npu/ll_aton/ll_sw_integer.c ****                                                             : (AI_ARRAY_FORMAT_U8 | AI_FMT_FLAG_IS_
 1050              		.loc 1 294 61 is_stmt 0 view .LVU314
 1051 0012 90F85830 		ldrb	r3, [r0, #88]	@ zero_extendqisi2
 1052 0016 002B     		cmp	r3, #0
 1053 0018 00F08280 		beq	.L40
 1054              		.loc 1 294 61 discriminator 1 view .LVU315
 1055 001c 424B     		ldr	r3, .L42+4
 1056              	.L38:
 1057              	.LVL59:
 295:../Middlewares/stedgeai-lib/Npu/ll_aton/ll_sw_integer.c ****   AI_ARRAY_OBJ_DECLARE(quantize_output_array, format, sw_info->general.output.mem.start_offset,
 1058              		.loc 1 295 3 is_stmt 1 view .LVU316
 1059 001e 0E93     		str	r3, [sp, #56]
 1060 0020 036C     		ldr	r3, [r0, #64]
 1061              	.LVL60:
 296:../Middlewares/stedgeai-lib/Npu/ll_aton/ll_sw_integer.c ****                        sw_info->general.output.mem.start_offset, sw_info->general.output.dim.num_el
 297:../Middlewares/stedgeai-lib/Npu/ll_aton/ll_sw_integer.c **** 
 298:../Middlewares/stedgeai-lib/Npu/ll_aton/ll_sw_integer.c ****   uint16_t offset_format =
 299:../Middlewares/stedgeai-lib/Npu/ll_aton/ll_sw_integer.c ****       sw_info->os.format.is_signed ? (AI_BUFFER_META_FLAG_ZEROPOINT_S8) : (AI_BUFFER_META_FLAG_ZERO
 300:../Middlewares/stedgeai-lib/Npu/ll_aton/ll_sw_integer.c ****   uint16_t scale_format = AI_BUFFER_META_FLAG_SCALE_FLOAT;
 301:../Middlewares/stedgeai-lib/Npu/ll_aton/ll_sw_integer.c ****   ai_intq_info_list output_intq = {.flags = (offset_format | scale_format),
 302:../Middlewares/stedgeai-lib/Npu/ll_aton/ll_sw_integer.c ****                                    .size = sw_info->os.dim.num_elem,
 303:../Middlewares/stedgeai-lib/Npu/ll_aton/ll_sw_integer.c ****                                    .info = (const ai_intq_info[1]){{
 304:../Middlewares/stedgeai-lib/Npu/ll_aton/ll_sw_integer.c ****                                        .scale = ((float *)sw_info->os.mem.start_offset),
 305:../Middlewares/stedgeai-lib/Npu/ll_aton/ll_sw_integer.c ****                                        .zeropoint = ((void *)sw_info->ozp.mem.start_offset),
 306:../Middlewares/stedgeai-lib/Npu/ll_aton/ll_sw_integer.c ****                                    }}};
 307:../Middlewares/stedgeai-lib/Npu/ll_aton/ll_sw_integer.c **** 
 308:../Middlewares/stedgeai-lib/Npu/ll_aton/ll_sw_integer.c ****   AI_TENSOR_OBJ_DECLARE(input_output, , 0x0, 4,
 1062              		.loc 1 308 3 is_stmt 0 view .LVU317
 1063 0022 0021     		movs	r1, #0
 295:../Middlewares/stedgeai-lib/Npu/ll_aton/ll_sw_integer.c ****   AI_ARRAY_OBJ_DECLARE(quantize_output_array, format, sw_info->general.output.mem.start_offset,
 1064              		.loc 1 295 3 view .LVU318
 1065 0024 0F93     		str	r3, [sp, #60]
 1066 0026 436D     		ldr	r3, [r0, #84]
 1067              		.loc 1 308 3 view .LVU319
 1068 0028 4FF08275 		mov	r5, #17039360
 295:../Middlewares/stedgeai-lib/Npu/ll_aton/ll_sw_integer.c ****   AI_ARRAY_OBJ_DECLARE(quantize_output_array, format, sw_info->general.output.mem.start_offset,
 1069              		.loc 1 295 3 view .LVU320
 1070 002c CDE91033 		strd	r3, r3, [sp, #64]
 298:../Middlewares/stedgeai-lib/Npu/ll_aton/ll_sw_integer.c ****       sw_info->os.format.is_signed ? (AI_BUFFER_META_FLAG_ZEROPOINT_S8) : (AI_BUFFER_META_FLAG_ZERO
 1071              		.loc 1 298 3 is_stmt 1 view .LVU321
 298:../Middlewares/stedgeai-lib/Npu/ll_aton/ll_sw_integer.c ****       sw_info->os.format.is_signed ? (AI_BUFFER_META_FLAG_ZEROPOINT_S8) : (AI_BUFFER_META_FLAG_ZERO
 1072              		.loc 1 298 12 is_stmt 0 view .LVU322
 1073 0030 90F88430 		ldrb	r3, [r0, #132]	@ zero_extendqisi2
 1074              		.loc 1 308 3 view .LVU323
 1075 0034 40F20144 		movw	r4, #1025
 298:../Middlewares/stedgeai-lib/Npu/ll_aton/ll_sw_integer.c ****       sw_info->os.format.is_signed ? (AI_BUFFER_META_FLAG_ZEROPOINT_S8) : (AI_BUFFER_META_FLAG_ZERO
 1076              		.loc 1 298 12 discriminator 1 view .LVU324
 1077 0038 002B     		cmp	r3, #0
 1078 003a 0CBF     		ite	eq
 1079 003c 0222     		moveq	r2, #2
 1080 003e 0422     		movne	r2, #4
 1081              	.LVL61:
 300:../Middlewares/stedgeai-lib/Npu/ll_aton/ll_sw_integer.c ****   ai_intq_info_list output_intq = {.flags = (offset_format | scale_format),
 1082              		.loc 1 300 3 is_stmt 1 view .LVU325
 301:../Middlewares/stedgeai-lib/Npu/ll_aton/ll_sw_integer.c ****                                    .size = sw_info->os.dim.num_elem,
 1083              		.loc 1 301 3 view .LVU326
ARM GAS  /tmp/ccZCp2co.s 			page 28


 301:../Middlewares/stedgeai-lib/Npu/ll_aton/ll_sw_integer.c ****                                    .size = sw_info->os.dim.num_elem,
 1084              		.loc 1 301 21 is_stmt 0 view .LVU327
 1085 0040 42F00102 		orr	r2, r2, #1
 1086              	.LVL62:
 301:../Middlewares/stedgeai-lib/Npu/ll_aton/ll_sw_integer.c ****                                    .size = sw_info->os.dim.num_elem,
 1087              		.loc 1 301 21 view .LVU328
 1088 0044 ADF81020 		strh	r2, [sp, #16]	@ movhi
 1089 0048 C26E     		ldr	r2, [r0, #108]
 1090              		.loc 1 308 3 view .LVU329
 1091 004a 466A     		ldr	r6, [r0, #36]
 301:../Middlewares/stedgeai-lib/Npu/ll_aton/ll_sw_integer.c ****                                    .size = sw_info->os.dim.num_elem,
 1092              		.loc 1 301 21 view .LVU330
 1093 004c ADF81220 		strh	r2, [sp, #18]	@ movhi
 303:../Middlewares/stedgeai-lib/Npu/ll_aton/ll_sw_integer.c ****                                        .scale = ((float *)sw_info->os.mem.start_offset),
 1094              		.loc 1 303 67 view .LVU331
 1095 0050 D0F88020 		ldr	r2, [r0, #128]
 1096              		.loc 1 308 3 view .LVU332
 1097 0054 1696     		str	r6, [sp, #88]
 303:../Middlewares/stedgeai-lib/Npu/ll_aton/ll_sw_integer.c ****                                        .scale = ((float *)sw_info->os.mem.start_offset),
 1098              		.loc 1 303 67 view .LVU333
 1099 0056 0692     		str	r2, [sp, #24]
 1100 0058 D0F8AC20 		ldr	r2, [r0, #172]
 1101              		.loc 1 308 3 view .LVU334
 1102 005c 066A     		ldr	r6, [r0, #32]
 303:../Middlewares/stedgeai-lib/Npu/ll_aton/ll_sw_integer.c ****                                        .scale = ((float *)sw_info->os.mem.start_offset),
 1103              		.loc 1 303 67 view .LVU335
 1104 005e 0792     		str	r2, [sp, #28]
 301:../Middlewares/stedgeai-lib/Npu/ll_aton/ll_sw_integer.c ****                                    .size = sw_info->os.dim.num_elem,
 1105              		.loc 1 301 21 view .LVU336
 1106 0060 06AA     		add	r2, sp, #24
 1107 0062 0592     		str	r2, [sp, #20]
 1108              		.loc 1 308 3 is_stmt 1 view .LVU337
 1109 0064 0269     		ldr	r2, [r0, #16]
 1110 0066 CDE92215 		strd	r1, r5, [sp, #136]
 1111 006a 1292     		str	r2, [sp, #72]
 1112 006c C268     		ldr	r2, [r0, #12]
 1113 006e 2494     		str	r4, [sp, #144]
 1114 0070 1392     		str	r2, [sp, #76]
 1115 0072 8268     		ldr	r2, [r0, #8]
 1116 0074 1796     		str	r6, [sp, #92]
 1117 0076 1492     		str	r2, [sp, #80]
 1118 0078 4268     		ldr	r2, [r0, #4]
 301:../Middlewares/stedgeai-lib/Npu/ll_aton/ll_sw_integer.c ****                                    .size = sw_info->os.dim.num_elem,
 1119              		.loc 1 301 21 is_stmt 0 view .LVU338
 1120 007a 04AB     		add	r3, sp, #16
 1121              		.loc 1 308 3 view .LVU339
 1122 007c 1592     		str	r2, [sp, #84]
 1123 007e 12AA     		add	r2, sp, #72
 1124 0080 2592     		str	r2, [sp, #148]
 1125 0082 40F20242 		movw	r2, #1026
 1126 0086 2692     		str	r2, [sp, #152]
 1127 0088 C669     		ldr	r6, [r0, #28]
 309:../Middlewares/stedgeai-lib/Npu/ll_aton/ll_sw_integer.c ****                         SHAPE_INIT(sw_info->general.input.dim.tensor_h, sw_info->general.input.dim.
 310:../Middlewares/stedgeai-lib/Npu/ll_aton/ll_sw_integer.c ****                                    sw_info->general.input.dim.tensor_c, sw_info->general.input.dim.
 311:../Middlewares/stedgeai-lib/Npu/ll_aton/ll_sw_integer.c ****                         STRIDE_INIT(sw_info->general.input.stride.h, sw_info->general.input.stride.
 312:../Middlewares/stedgeai-lib/Npu/ll_aton/ll_sw_integer.c ****                                     sw_info->general.input.stride.c, sw_info->general.input.stride.
 313:../Middlewares/stedgeai-lib/Npu/ll_aton/ll_sw_integer.c ****                         1, &input_output_array, NULL);
ARM GAS  /tmp/ccZCp2co.s 			page 29


 314:../Middlewares/stedgeai-lib/Npu/ll_aton/ll_sw_integer.c ****   AI_TENSOR_OBJ_DECLARE(quantize_output, , 0x0, 4,
 1128              		.loc 1 314 3 view .LVU340
 1129 008a CDE92A54 		strd	r5, r4, [sp, #168]
 308:../Middlewares/stedgeai-lib/Npu/ll_aton/ll_sw_integer.c ****                         SHAPE_INIT(sw_info->general.input.dim.tensor_h, sw_info->general.input.dim.
 1130              		.loc 1 308 3 view .LVU341
 1131 008e 1896     		str	r6, [sp, #96]
 1132 0090 8669     		ldr	r6, [r0, #24]
 1133 0092 1996     		str	r6, [sp, #100]
 1134 0094 16AE     		add	r6, sp, #88
 1135 0096 2796     		str	r6, [sp, #156]
 1136 0098 0AAE     		add	r6, sp, #40
 1137              		.loc 1 314 3 view .LVU342
 1138 009a CDE92863 		strd	r6, r3, [sp, #160]
 1139 009e C36B     		ldr	r3, [r0, #60]
 1140 00a0 1A93     		str	r3, [sp, #104]
 1141 00a2 836B     		ldr	r3, [r0, #56]
 1142 00a4 1B93     		str	r3, [sp, #108]
 1143 00a6 436B     		ldr	r3, [r0, #52]
 1144 00a8 1C93     		str	r3, [sp, #112]
 1145 00aa 036B     		ldr	r3, [r0, #48]
 1146 00ac 1D93     		str	r3, [sp, #116]
 1147 00ae 1AAB     		add	r3, sp, #104
 1148 00b0 CDE92C32 		strd	r3, r2, [sp, #176]
 1149 00b4 036D     		ldr	r3, [r0, #80]
 315:../Middlewares/stedgeai-lib/Npu/ll_aton/ll_sw_integer.c ****                         SHAPE_INIT(sw_info->general.output.dim.tensor_h, sw_info->general.output.di
 316:../Middlewares/stedgeai-lib/Npu/ll_aton/ll_sw_integer.c ****                                    sw_info->general.output.dim.tensor_c, sw_info->general.output.di
 317:../Middlewares/stedgeai-lib/Npu/ll_aton/ll_sw_integer.c ****                         STRIDE_INIT(sw_info->general.output.stride.h, sw_info->general.output.strid
 318:../Middlewares/stedgeai-lib/Npu/ll_aton/ll_sw_integer.c ****                                     sw_info->general.output.stride.c, sw_info->general.output.strid
 319:../Middlewares/stedgeai-lib/Npu/ll_aton/ll_sw_integer.c ****                         1, &quantize_output_array, &output_intq);
 320:../Middlewares/stedgeai-lib/Npu/ll_aton/ll_sw_integer.c ****   // tensor chain initialization
 321:../Middlewares/stedgeai-lib/Npu/ll_aton/ll_sw_integer.c ****   AI_TENSOR_CHAIN_OBJ_DECLARE(quantize_chain, , 4, AI_TENSOR_LIST_OBJ_INIT(AI_FLAG_NONE, 1, TENSORS
 1150              		.loc 1 321 3 view .LVU343
 1151 00b6 6A46     		mov	r2, sp
 314:../Middlewares/stedgeai-lib/Npu/ll_aton/ll_sw_integer.c ****                         SHAPE_INIT(sw_info->general.output.dim.tensor_h, sw_info->general.output.di
 1152              		.loc 1 314 3 view .LVU344
 1153 00b8 1E93     		str	r3, [sp, #120]
 1154 00ba C36C     		ldr	r3, [r0, #76]
 1155 00bc 1F93     		str	r3, [sp, #124]
 1156 00be 836C     		ldr	r3, [r0, #72]
 1157 00c0 2093     		str	r3, [sp, #128]
 1158 00c2 436C     		ldr	r3, [r0, #68]
 1159              		.loc 1 321 3 view .LVU345
 1160 00c4 22A8     		add	r0, sp, #136
 1161              	.LVL63:
 314:../Middlewares/stedgeai-lib/Npu/ll_aton/ll_sw_integer.c ****                         SHAPE_INIT(sw_info->general.output.dim.tensor_h, sw_info->general.output.di
 1162              		.loc 1 314 3 view .LVU346
 1163 00c6 2193     		str	r3, [sp, #132]
 1164 00c8 1EAB     		add	r3, sp, #120
 1165 00ca 2E93     		str	r3, [sp, #184]
 1166 00cc 0EAB     		add	r3, sp, #56
 1167              	.LVL64:
 314:../Middlewares/stedgeai-lib/Npu/ll_aton/ll_sw_integer.c ****                         SHAPE_INIT(sw_info->general.output.dim.tensor_h, sw_info->general.output.di
 1168              		.loc 1 314 3 view .LVU347
 1169 00ce 2F93     		str	r3, [sp, #188]
 319:../Middlewares/stedgeai-lib/Npu/ll_aton/ll_sw_integer.c ****   // tensor chain initialization
 1170              		.loc 1 319 65 is_stmt 1 view .LVU348
 1171              		.loc 1 321 3 view .LVU349
ARM GAS  /tmp/ccZCp2co.s 			page 30


 1172 00d0 0423     		movs	r3, #4
 1173              	.LVL65:
 1174              		.loc 1 321 3 is_stmt 0 view .LVU350
 1175 00d2 0893     		str	r3, [sp, #32]
 1176 00d4 0123     		movs	r3, #1
 1177 00d6 0090     		str	r0, [sp]
 1178 00d8 3893     		str	r3, [sp, #224]
 1179 00da CDE93921 		strd	r2, r1, [sp, #228]
 1180 00de 3B93     		str	r3, [sp, #236]
 1181 00e0 01AB     		add	r3, sp, #4
 1182 00e2 CDE93C31 		strd	r3, r1, [sp, #240]
 1183 00e6 02AB     		add	r3, sp, #8
 1184 00e8 CDE93F31 		strd	r3, r1, [sp, #252]
 1185 00ec 03AB     		add	r3, sp, #12
 1186 00ee CDE94231 		strd	r3, r1, [sp, #264]
 1187 00f2 38AB     		add	r3, sp, #224
 1188 00f4 29AA     		add	r2, sp, #164
 1189 00f6 0993     		str	r3, [sp, #36]
 322:../Middlewares/stedgeai-lib/Npu/ll_aton/ll_sw_integer.c ****                               AI_TENSOR_LIST_OBJ_INIT(AI_FLAG_NONE, 1, TENSORS(&quantize_output)),
 323:../Middlewares/stedgeai-lib/Npu/ll_aton/ll_sw_integer.c ****                               AI_TENSOR_LIST_OBJ_EMPTY, AI_TENSOR_LIST_OBJ_EMPTY)
 324:../Middlewares/stedgeai-lib/Npu/ll_aton/ll_sw_integer.c **** 
 325:../Middlewares/stedgeai-lib/Npu/ll_aton/ll_sw_integer.c ****   // layer initialization
 326:../Middlewares/stedgeai-lib/Npu/ll_aton/ll_sw_integer.c ****   AI_LAYER_OBJ_DECLARE(quantize_layer, 1, NL_TYPE, 0x0, NULL, nl, node_convert /*_fixed*/, &quantiz
 1190              		.loc 1 326 3 is_stmt 1 view .LVU351
 1191 00f8 0C4B     		ldr	r3, .L42+8
 321:../Middlewares/stedgeai-lib/Npu/ll_aton/ll_sw_integer.c ****                               AI_TENSOR_LIST_OBJ_INIT(AI_FLAG_NONE, 1, TENSORS(&quantize_output)),
 1192              		.loc 1 321 3 is_stmt 0 view .LVU352
 1193 00fa 0192     		str	r2, [sp, #4]
 1194              		.loc 1 326 3 view .LVU353
 1195 00fc 31A8     		add	r0, sp, #196
 1196 00fe 1C22     		movs	r2, #28
 321:../Middlewares/stedgeai-lib/Npu/ll_aton/ll_sw_integer.c ****                               AI_TENSOR_LIST_OBJ_INIT(AI_FLAG_NONE, 1, TENSORS(&quantize_output)),
 1197              		.loc 1 321 3 view .LVU354
 1198 0100 3E91     		str	r1, [sp, #248]
 1199 0102 0291     		str	r1, [sp, #8]
 1200 0104 4191     		str	r1, [sp, #260]
 1201 0106 0391     		str	r1, [sp, #12]
 1202              		.loc 1 326 3 view .LVU355
 1203 0108 3093     		str	r3, [sp, #192]
 1204 010a FFF7FEFF 		bl	memset
 1205              	.LVL66:
 1206              		.loc 1 326 3 view .LVU356
 1207 010e 084B     		ldr	r3, .L42+12
 327:../Middlewares/stedgeai-lib/Npu/ll_aton/ll_sw_integer.c ****                        NULL, )
 328:../Middlewares/stedgeai-lib/Npu/ll_aton/ll_sw_integer.c ****   quantize_layer.forward(AI_LAYER_OBJ(&quantize_layer));
 1208              		.loc 1 328 3 view .LVU357
 1209 0110 30A8     		add	r0, sp, #192
 326:../Middlewares/stedgeai-lib/Npu/ll_aton/ll_sw_integer.c ****                        NULL, )
 1210              		.loc 1 326 3 view .LVU358
 1211 0112 3593     		str	r3, [sp, #212]
 1212 0114 08AB     		add	r3, sp, #32
 1213 0116 3693     		str	r3, [sp, #216]
 1214              		.loc 1 328 3 is_stmt 1 view .LVU359
 1215 0118 FFF7FEFF 		bl	node_convert
 1216              	.LVL67:
 329:../Middlewares/stedgeai-lib/Npu/ll_aton/ll_sw_integer.c **** }
 1217              		.loc 1 329 1 is_stmt 0 view .LVU360
ARM GAS  /tmp/ccZCp2co.s 			page 31


 1218 011c 44B0     		add	sp, sp, #272
 1219              		.cfi_remember_state
 1220              		.cfi_def_cfa_offset 16
 1221              		@ sp needed
 1222 011e 70BD     		pop	{r4, r5, r6, pc}
 1223              	.LVL68:
 1224              	.L40:
 1225              		.cfi_restore_state
 294:../Middlewares/stedgeai-lib/Npu/ll_aton/ll_sw_integer.c ****   AI_ARRAY_OBJ_DECLARE(quantize_output_array, format, sw_info->general.output.mem.start_offset,
 1226              		.loc 1 294 61 discriminator 2 view .LVU361
 1227 0120 044B     		ldr	r3, .L42+16
 1228 0122 7CE7     		b	.L38
 1229              	.L43:
 1230              		.align	2
 1231              	.L42:
 1232 0124 40108200 		.word	8523840
 1233 0128 40048408 		.word	142869568
 1234 012c 07010100 		.word	65799
 1235 0130 00000000 		.word	node_convert
 1236 0134 40040408 		.word	134480960
 1237              		.cfi_endproc
 1238              	.LFE17:
 1240              		.section	.text.ll_sw_forward_dequantizelinear,"ax",%progbits
 1241              		.align	1
 1242              		.global	ll_sw_forward_dequantizelinear
 1243              		.syntax unified
 1244              		.thumb
 1245              		.thumb_func
 1247              	ll_sw_forward_dequantizelinear:
 1248              	.LVL69:
 1249              	.LFB18:
 330:../Middlewares/stedgeai-lib/Npu/ll_aton/ll_sw_integer.c **** 
 331:../Middlewares/stedgeai-lib/Npu/ll_aton/ll_sw_integer.c **** //##########################################################################################
 332:../Middlewares/stedgeai-lib/Npu/ll_aton/ll_sw_integer.c **** /** Dequantizelinear forward function */
 333:../Middlewares/stedgeai-lib/Npu/ll_aton/ll_sw_integer.c **** void ll_sw_forward_dequantizelinear(Dequantizelinear_sw_info *sw_info)
 334:../Middlewares/stedgeai-lib/Npu/ll_aton/ll_sw_integer.c **** {
 1250              		.loc 1 334 1 is_stmt 1 view -0
 1251              		.cfi_startproc
 1252              		@ args = 0, pretend = 0, frame = 272
 1253              		@ frame_needed = 0, uses_anonymous_args = 0
 335:../Middlewares/stedgeai-lib/Npu/ll_aton/ll_sw_integer.c ****   // array init
 336:../Middlewares/stedgeai-lib/Npu/ll_aton/ll_sw_integer.c ****   int32_t format = sw_info->general.input.format.is_signed ? (AI_ARRAY_FORMAT_S8 | AI_FMT_FLAG_IS_I
 1254              		.loc 1 336 3 view .LVU363
 334:../Middlewares/stedgeai-lib/Npu/ll_aton/ll_sw_integer.c ****   // array init
 1255              		.loc 1 334 1 is_stmt 0 view .LVU364
 1256 0000 10B5     		push	{r4, lr}
 1257              		.cfi_def_cfa_offset 8
 1258              		.cfi_offset 4, -8
 1259              		.cfi_offset 14, -4
 337:../Middlewares/stedgeai-lib/Npu/ll_aton/ll_sw_integer.c ****                                                            : (AI_ARRAY_FORMAT_U8 | AI_FMT_FLAG_IS_I
 1260              		.loc 1 337 60 view .LVU365
 1261 0002 90F82C30 		ldrb	r3, [r0, #44]	@ zero_extendqisi2
 334:../Middlewares/stedgeai-lib/Npu/ll_aton/ll_sw_integer.c ****   // array init
 1262              		.loc 1 334 1 view .LVU366
 1263 0006 C4B0     		sub	sp, sp, #272
 1264              		.cfi_def_cfa_offset 280
 1265              		.loc 1 337 60 view .LVU367
ARM GAS  /tmp/ccZCp2co.s 			page 32


 1266 0008 002B     		cmp	r3, #0
 1267 000a 00F08980 		beq	.L47
 1268              		.loc 1 337 60 discriminator 1 view .LVU368
 1269 000e 454B     		ldr	r3, .L49
 1270              	.L45:
 1271              	.LVL70:
 338:../Middlewares/stedgeai-lib/Npu/ll_aton/ll_sw_integer.c ****   AI_ARRAY_OBJ_DECLARE(input_output_array, format, sw_info->general.input.mem.start_offset,
 1272              		.loc 1 338 3 is_stmt 1 view .LVU369
 1273 0010 0A93     		str	r3, [sp, #40]
 1274 0012 4369     		ldr	r3, [r0, #20]
 1275              	.LVL71:
 339:../Middlewares/stedgeai-lib/Npu/ll_aton/ll_sw_integer.c ****                        sw_info->general.input.mem.start_offset, sw_info->general.input.dim.num_elem
 340:../Middlewares/stedgeai-lib/Npu/ll_aton/ll_sw_integer.c ****   AI_ARRAY_OBJ_DECLARE(dequantize_output_array, FORMAT, sw_info->general.output.mem.start_offset,
 341:../Middlewares/stedgeai-lib/Npu/ll_aton/ll_sw_integer.c ****                        sw_info->general.output.mem.start_offset, sw_info->general.output.dim.num_el
 342:../Middlewares/stedgeai-lib/Npu/ll_aton/ll_sw_integer.c **** 
 343:../Middlewares/stedgeai-lib/Npu/ll_aton/ll_sw_integer.c ****   uint16_t offset_format =
 344:../Middlewares/stedgeai-lib/Npu/ll_aton/ll_sw_integer.c ****       sw_info->is.format.is_signed ? (AI_BUFFER_META_FLAG_ZEROPOINT_S8) : (AI_BUFFER_META_FLAG_ZERO
 345:../Middlewares/stedgeai-lib/Npu/ll_aton/ll_sw_integer.c ****   uint16_t scale_format = AI_BUFFER_META_FLAG_SCALE_FLOAT;
 346:../Middlewares/stedgeai-lib/Npu/ll_aton/ll_sw_integer.c ****   ai_intq_info_list input_intq = {.flags = (offset_format | scale_format),
 347:../Middlewares/stedgeai-lib/Npu/ll_aton/ll_sw_integer.c ****                                   .size = sw_info->is.dim.num_elem,
 348:../Middlewares/stedgeai-lib/Npu/ll_aton/ll_sw_integer.c ****                                   .info = (const ai_intq_info[1]){{
 349:../Middlewares/stedgeai-lib/Npu/ll_aton/ll_sw_integer.c ****                                       .scale = ((float *)sw_info->is.mem.start_offset),
 350:../Middlewares/stedgeai-lib/Npu/ll_aton/ll_sw_integer.c ****                                       .zeropoint = ((void *)sw_info->izp.mem.start_offset),
 351:../Middlewares/stedgeai-lib/Npu/ll_aton/ll_sw_integer.c ****                                   }}};
 352:../Middlewares/stedgeai-lib/Npu/ll_aton/ll_sw_integer.c **** 
 353:../Middlewares/stedgeai-lib/Npu/ll_aton/ll_sw_integer.c ****   AI_TENSOR_OBJ_DECLARE(input_output, , 0x0, 4,
 1276              		.loc 1 353 3 is_stmt 0 view .LVU370
 1277 0014 4FF08274 		mov	r4, #17039360
 338:../Middlewares/stedgeai-lib/Npu/ll_aton/ll_sw_integer.c ****   AI_ARRAY_OBJ_DECLARE(input_output_array, format, sw_info->general.input.mem.start_offset,
 1278              		.loc 1 338 3 view .LVU371
 1279 0018 0B93     		str	r3, [sp, #44]
 1280 001a 836A     		ldr	r3, [r0, #40]
 1281 001c CDE90C33 		strd	r3, r3, [sp, #48]
 340:../Middlewares/stedgeai-lib/Npu/ll_aton/ll_sw_integer.c ****                        sw_info->general.output.mem.start_offset, sw_info->general.output.dim.num_el
 1282              		.loc 1 340 3 is_stmt 1 view .LVU372
 1283 0020 414B     		ldr	r3, .L49+4
 1284 0022 0E93     		str	r3, [sp, #56]
 1285 0024 036C     		ldr	r3, [r0, #64]
 1286 0026 0F93     		str	r3, [sp, #60]
 1287 0028 436D     		ldr	r3, [r0, #84]
 1288 002a CDE91033 		strd	r3, r3, [sp, #64]
 343:../Middlewares/stedgeai-lib/Npu/ll_aton/ll_sw_integer.c ****       sw_info->is.format.is_signed ? (AI_BUFFER_META_FLAG_ZEROPOINT_S8) : (AI_BUFFER_META_FLAG_ZERO
 1289              		.loc 1 343 3 view .LVU373
 343:../Middlewares/stedgeai-lib/Npu/ll_aton/ll_sw_integer.c ****       sw_info->is.format.is_signed ? (AI_BUFFER_META_FLAG_ZEROPOINT_S8) : (AI_BUFFER_META_FLAG_ZERO
 1290              		.loc 1 343 12 is_stmt 0 view .LVU374
 1291 002e 90F88430 		ldrb	r3, [r0, #132]	@ zero_extendqisi2
 343:../Middlewares/stedgeai-lib/Npu/ll_aton/ll_sw_integer.c ****       sw_info->is.format.is_signed ? (AI_BUFFER_META_FLAG_ZEROPOINT_S8) : (AI_BUFFER_META_FLAG_ZERO
 1292              		.loc 1 343 12 discriminator 1 view .LVU375
 1293 0032 002B     		cmp	r3, #0
 1294 0034 0CBF     		ite	eq
 1295 0036 0222     		moveq	r2, #2
 1296 0038 0422     		movne	r2, #4
 1297              	.LVL72:
 345:../Middlewares/stedgeai-lib/Npu/ll_aton/ll_sw_integer.c ****   ai_intq_info_list input_intq = {.flags = (offset_format | scale_format),
 1298              		.loc 1 345 3 is_stmt 1 view .LVU376
 346:../Middlewares/stedgeai-lib/Npu/ll_aton/ll_sw_integer.c ****                                   .size = sw_info->is.dim.num_elem,
 1299              		.loc 1 346 3 view .LVU377
ARM GAS  /tmp/ccZCp2co.s 			page 33


 346:../Middlewares/stedgeai-lib/Npu/ll_aton/ll_sw_integer.c ****                                   .size = sw_info->is.dim.num_elem,
 1300              		.loc 1 346 21 is_stmt 0 view .LVU378
 1301 003a 42F00102 		orr	r2, r2, #1
 1302              	.LVL73:
 346:../Middlewares/stedgeai-lib/Npu/ll_aton/ll_sw_integer.c ****                                   .size = sw_info->is.dim.num_elem,
 1303              		.loc 1 346 21 view .LVU379
 1304 003e ADF81020 		strh	r2, [sp, #16]	@ movhi
 1305 0042 C26E     		ldr	r2, [r0, #108]
 1306 0044 04AB     		add	r3, sp, #16
 1307 0046 ADF81220 		strh	r2, [sp, #18]	@ movhi
 348:../Middlewares/stedgeai-lib/Npu/ll_aton/ll_sw_integer.c ****                                       .scale = ((float *)sw_info->is.mem.start_offset),
 1308              		.loc 1 348 66 view .LVU380
 1309 004a D0F88020 		ldr	r2, [r0, #128]
 1310              		.loc 1 353 3 view .LVU381
 1311 004e 2293     		str	r3, [sp, #136]
 348:../Middlewares/stedgeai-lib/Npu/ll_aton/ll_sw_integer.c ****                                       .scale = ((float *)sw_info->is.mem.start_offset),
 1312              		.loc 1 348 66 view .LVU382
 1313 0050 0692     		str	r2, [sp, #24]
 1314 0052 D0F8AC20 		ldr	r2, [r0, #172]
 1315              		.loc 1 353 3 view .LVU383
 1316 0056 0369     		ldr	r3, [r0, #16]
 348:../Middlewares/stedgeai-lib/Npu/ll_aton/ll_sw_integer.c ****                                       .scale = ((float *)sw_info->is.mem.start_offset),
 1317              		.loc 1 348 66 view .LVU384
 1318 0058 0792     		str	r2, [sp, #28]
 346:../Middlewares/stedgeai-lib/Npu/ll_aton/ll_sw_integer.c ****                                   .size = sw_info->is.dim.num_elem,
 1319              		.loc 1 346 21 view .LVU385
 1320 005a 06AA     		add	r2, sp, #24
 1321 005c 0592     		str	r2, [sp, #20]
 1322              		.loc 1 353 3 is_stmt 1 view .LVU386
 1323 005e 40F20142 		movw	r2, #1025
 1324 0062 1293     		str	r3, [sp, #72]
 1325 0064 C368     		ldr	r3, [r0, #12]
 1326 0066 CDE92342 		strd	r4, r2, [sp, #140]
 1327 006a 1393     		str	r3, [sp, #76]
 1328 006c 8368     		ldr	r3, [r0, #8]
 1329 006e 1493     		str	r3, [sp, #80]
 1330 0070 4368     		ldr	r3, [r0, #4]
 1331 0072 1593     		str	r3, [sp, #84]
 1332 0074 12AB     		add	r3, sp, #72
 1333 0076 2593     		str	r3, [sp, #148]
 1334 0078 416A     		ldr	r1, [r0, #36]
 1335 007a 40F20243 		movw	r3, #1026
 1336 007e 1691     		str	r1, [sp, #88]
 1337 0080 016A     		ldr	r1, [r0, #32]
 354:../Middlewares/stedgeai-lib/Npu/ll_aton/ll_sw_integer.c ****                         SHAPE_INIT(sw_info->general.input.dim.tensor_h, sw_info->general.input.dim.
 355:../Middlewares/stedgeai-lib/Npu/ll_aton/ll_sw_integer.c ****                                    sw_info->general.input.dim.tensor_c, sw_info->general.input.dim.
 356:../Middlewares/stedgeai-lib/Npu/ll_aton/ll_sw_integer.c ****                         STRIDE_INIT(sw_info->general.input.stride.h, sw_info->general.input.stride.
 357:../Middlewares/stedgeai-lib/Npu/ll_aton/ll_sw_integer.c ****                                     sw_info->general.input.stride.c, sw_info->general.input.stride.
 358:../Middlewares/stedgeai-lib/Npu/ll_aton/ll_sw_integer.c ****                         1, &input_output_array, &input_intq);
 359:../Middlewares/stedgeai-lib/Npu/ll_aton/ll_sw_integer.c **** 
 360:../Middlewares/stedgeai-lib/Npu/ll_aton/ll_sw_integer.c ****   AI_TENSOR_OBJ_DECLARE(dequantize_output, , 0x0, 4,
 1338              		.loc 1 360 3 is_stmt 0 view .LVU387
 1339 0082 2B92     		str	r2, [sp, #172]
 353:../Middlewares/stedgeai-lib/Npu/ll_aton/ll_sw_integer.c ****                         SHAPE_INIT(sw_info->general.input.dim.tensor_h, sw_info->general.input.dim.
 1340              		.loc 1 353 3 view .LVU388
 1341 0084 1791     		str	r1, [sp, #92]
 1342 0086 C169     		ldr	r1, [r0, #28]
ARM GAS  /tmp/ccZCp2co.s 			page 34


 1343              		.loc 1 360 3 view .LVU389
 1344 0088 C26B     		ldr	r2, [r0, #60]
 353:../Middlewares/stedgeai-lib/Npu/ll_aton/ll_sw_integer.c ****                         SHAPE_INIT(sw_info->general.input.dim.tensor_h, sw_info->general.input.dim.
 1345              		.loc 1 353 3 view .LVU390
 1346 008a 1891     		str	r1, [sp, #96]
 1347 008c 8169     		ldr	r1, [r0, #24]
 1348              		.loc 1 360 3 view .LVU391
 1349 008e 1A92     		str	r2, [sp, #104]
 353:../Middlewares/stedgeai-lib/Npu/ll_aton/ll_sw_integer.c ****                         SHAPE_INIT(sw_info->general.input.dim.tensor_h, sw_info->general.input.dim.
 1350              		.loc 1 353 3 view .LVU392
 1351 0090 1991     		str	r1, [sp, #100]
 1352 0092 16A9     		add	r1, sp, #88
 1353 0094 2791     		str	r1, [sp, #156]
 1354 0096 0AA9     		add	r1, sp, #40
 1355              	.LVL74:
 353:../Middlewares/stedgeai-lib/Npu/ll_aton/ll_sw_integer.c ****                         SHAPE_INIT(sw_info->general.input.dim.tensor_h, sw_info->general.input.dim.
 1356              		.loc 1 353 3 view .LVU393
 1357 0098 2891     		str	r1, [sp, #160]
 358:../Middlewares/stedgeai-lib/Npu/ll_aton/ll_sw_integer.c **** 
 1358              		.loc 1 358 61 is_stmt 1 view .LVU394
 1359              		.loc 1 360 3 view .LVU395
 1360 009a 0021     		movs	r1, #0
 1361              	.LVL75:
 1362              		.loc 1 360 3 is_stmt 0 view .LVU396
 1363 009c 826B     		ldr	r2, [r0, #56]
 353:../Middlewares/stedgeai-lib/Npu/ll_aton/ll_sw_integer.c ****                         SHAPE_INIT(sw_info->general.input.dim.tensor_h, sw_info->general.input.dim.
 1364              		.loc 1 353 3 view .LVU397
 1365 009e 2693     		str	r3, [sp, #152]
 1366              		.loc 1 360 3 view .LVU398
 1367 00a0 1B92     		str	r2, [sp, #108]
 1368 00a2 426B     		ldr	r2, [r0, #52]
 1369 00a4 CDE92914 		strd	r1, r4, [sp, #164]
 1370 00a8 1C92     		str	r2, [sp, #112]
 1371 00aa 026B     		ldr	r2, [r0, #48]
 1372 00ac 1D92     		str	r2, [sp, #116]
 1373 00ae 1AAA     		add	r2, sp, #104
 1374 00b0 CDE92C23 		strd	r2, r3, [sp, #176]
 1375 00b4 036D     		ldr	r3, [r0, #80]
 361:../Middlewares/stedgeai-lib/Npu/ll_aton/ll_sw_integer.c ****                         SHAPE_INIT(sw_info->general.output.dim.tensor_h, sw_info->general.output.di
 362:../Middlewares/stedgeai-lib/Npu/ll_aton/ll_sw_integer.c ****                                    sw_info->general.output.dim.tensor_c, sw_info->general.output.di
 363:../Middlewares/stedgeai-lib/Npu/ll_aton/ll_sw_integer.c ****                         STRIDE_INIT(sw_info->general.output.stride.h, sw_info->general.output.strid
 364:../Middlewares/stedgeai-lib/Npu/ll_aton/ll_sw_integer.c ****                                     sw_info->general.output.stride.c, sw_info->general.output.strid
 365:../Middlewares/stedgeai-lib/Npu/ll_aton/ll_sw_integer.c ****                         1, &dequantize_output_array, NULL);
 366:../Middlewares/stedgeai-lib/Npu/ll_aton/ll_sw_integer.c **** 
 367:../Middlewares/stedgeai-lib/Npu/ll_aton/ll_sw_integer.c ****   // tensor chain initialization
 368:../Middlewares/stedgeai-lib/Npu/ll_aton/ll_sw_integer.c ****   AI_TENSOR_CHAIN_OBJ_DECLARE(dequantize_chain, , 4, AI_TENSOR_LIST_OBJ_INIT(AI_FLAG_NONE, 1, TENSO
 1376              		.loc 1 368 3 view .LVU399
 1377 00b6 6A46     		mov	r2, sp
 360:../Middlewares/stedgeai-lib/Npu/ll_aton/ll_sw_integer.c ****                         SHAPE_INIT(sw_info->general.output.dim.tensor_h, sw_info->general.output.di
 1378              		.loc 1 360 3 view .LVU400
 1379 00b8 1E93     		str	r3, [sp, #120]
 1380 00ba C36C     		ldr	r3, [r0, #76]
 1381 00bc 1F93     		str	r3, [sp, #124]
 1382 00be 836C     		ldr	r3, [r0, #72]
 1383 00c0 2093     		str	r3, [sp, #128]
 1384 00c2 436C     		ldr	r3, [r0, #68]
 1385              		.loc 1 368 3 view .LVU401
ARM GAS  /tmp/ccZCp2co.s 			page 35


 1386 00c4 22A8     		add	r0, sp, #136
 1387              	.LVL76:
 360:../Middlewares/stedgeai-lib/Npu/ll_aton/ll_sw_integer.c ****                         SHAPE_INIT(sw_info->general.output.dim.tensor_h, sw_info->general.output.di
 1388              		.loc 1 360 3 view .LVU402
 1389 00c6 2193     		str	r3, [sp, #132]
 1390 00c8 1EAB     		add	r3, sp, #120
 1391 00ca 2E93     		str	r3, [sp, #184]
 1392 00cc 0EAB     		add	r3, sp, #56
 1393 00ce 2F93     		str	r3, [sp, #188]
 365:../Middlewares/stedgeai-lib/Npu/ll_aton/ll_sw_integer.c **** 
 1394              		.loc 1 365 59 is_stmt 1 view .LVU403
 1395              		.loc 1 368 3 view .LVU404
 1396 00d0 0423     		movs	r3, #4
 1397 00d2 0893     		str	r3, [sp, #32]
 1398 00d4 0123     		movs	r3, #1
 1399 00d6 3893     		str	r3, [sp, #224]
 1400 00d8 3B93     		str	r3, [sp, #236]
 1401 00da 01AB     		add	r3, sp, #4
 1402 00dc CDE93C31 		strd	r3, r1, [sp, #240]
 1403 00e0 02AB     		add	r3, sp, #8
 1404 00e2 CDE93F31 		strd	r3, r1, [sp, #252]
 1405 00e6 03AB     		add	r3, sp, #12
 1406 00e8 CDE94231 		strd	r3, r1, [sp, #264]
 1407 00ec 38AB     		add	r3, sp, #224
 1408 00ee CDE93921 		strd	r2, r1, [sp, #228]
 1409 00f2 0993     		str	r3, [sp, #36]
 369:../Middlewares/stedgeai-lib/Npu/ll_aton/ll_sw_integer.c ****                               AI_TENSOR_LIST_OBJ_INIT(AI_FLAG_NONE, 1, TENSORS(&dequantize_output))
 370:../Middlewares/stedgeai-lib/Npu/ll_aton/ll_sw_integer.c ****                               AI_TENSOR_LIST_OBJ_EMPTY, AI_TENSOR_LIST_OBJ_EMPTY)
 371:../Middlewares/stedgeai-lib/Npu/ll_aton/ll_sw_integer.c **** 
 372:../Middlewares/stedgeai-lib/Npu/ll_aton/ll_sw_integer.c ****   // layer initialization
 373:../Middlewares/stedgeai-lib/Npu/ll_aton/ll_sw_integer.c ****   AI_LAYER_OBJ_DECLARE(dequantize_layer, 1, NL_TYPE, 0x0, NULL, nl, node_convert /*_fixed*/, &dequa
 1410              		.loc 1 373 3 view .LVU405
 368:../Middlewares/stedgeai-lib/Npu/ll_aton/ll_sw_integer.c ****                               AI_TENSOR_LIST_OBJ_INIT(AI_FLAG_NONE, 1, TENSORS(&dequantize_output))
 1411              		.loc 1 368 3 is_stmt 0 view .LVU406
 1412 00f4 29AA     		add	r2, sp, #164
 1413              		.loc 1 373 3 view .LVU407
 1414 00f6 0D4B     		ldr	r3, .L49+8
 368:../Middlewares/stedgeai-lib/Npu/ll_aton/ll_sw_integer.c ****                               AI_TENSOR_LIST_OBJ_INIT(AI_FLAG_NONE, 1, TENSORS(&dequantize_output))
 1415              		.loc 1 368 3 view .LVU408
 1416 00f8 0090     		str	r0, [sp]
 1417 00fa 0192     		str	r2, [sp, #4]
 1418              		.loc 1 373 3 view .LVU409
 1419 00fc 31A8     		add	r0, sp, #196
 1420 00fe 1C22     		movs	r2, #28
 368:../Middlewares/stedgeai-lib/Npu/ll_aton/ll_sw_integer.c ****                               AI_TENSOR_LIST_OBJ_INIT(AI_FLAG_NONE, 1, TENSORS(&dequantize_output))
 1421              		.loc 1 368 3 view .LVU410
 1422 0100 3E91     		str	r1, [sp, #248]
 1423 0102 0291     		str	r1, [sp, #8]
 1424 0104 4191     		str	r1, [sp, #260]
 1425 0106 0391     		str	r1, [sp, #12]
 1426              		.loc 1 373 3 view .LVU411
 1427 0108 3093     		str	r3, [sp, #192]
 1428 010a FFF7FEFF 		bl	memset
 1429              	.LVL77:
 1430              		.loc 1 373 3 view .LVU412
 1431 010e 084B     		ldr	r3, .L49+12
 374:../Middlewares/stedgeai-lib/Npu/ll_aton/ll_sw_integer.c ****                        NULL, )
ARM GAS  /tmp/ccZCp2co.s 			page 36


 375:../Middlewares/stedgeai-lib/Npu/ll_aton/ll_sw_integer.c ****   dequantize_layer.forward(AI_LAYER_OBJ(&dequantize_layer));
 1432              		.loc 1 375 3 view .LVU413
 1433 0110 30A8     		add	r0, sp, #192
 373:../Middlewares/stedgeai-lib/Npu/ll_aton/ll_sw_integer.c ****                        NULL, )
 1434              		.loc 1 373 3 view .LVU414
 1435 0112 3593     		str	r3, [sp, #212]
 1436 0114 08AB     		add	r3, sp, #32
 1437 0116 3693     		str	r3, [sp, #216]
 1438              		.loc 1 375 3 is_stmt 1 view .LVU415
 1439 0118 FFF7FEFF 		bl	node_convert
 1440              	.LVL78:
 376:../Middlewares/stedgeai-lib/Npu/ll_aton/ll_sw_integer.c **** }
 1441              		.loc 1 376 1 is_stmt 0 view .LVU416
 1442 011c 44B0     		add	sp, sp, #272
 1443              		.cfi_remember_state
 1444              		.cfi_def_cfa_offset 8
 1445              		@ sp needed
 1446 011e 10BD     		pop	{r4, pc}
 1447              	.LVL79:
 1448              	.L47:
 1449              		.cfi_restore_state
 337:../Middlewares/stedgeai-lib/Npu/ll_aton/ll_sw_integer.c ****   AI_ARRAY_OBJ_DECLARE(input_output_array, format, sw_info->general.input.mem.start_offset,
 1450              		.loc 1 337 60 discriminator 2 view .LVU417
 1451 0120 044B     		ldr	r3, .L49+16
 1452 0122 75E7     		b	.L45
 1453              	.L50:
 1454              		.align	2
 1455              	.L49:
 1456 0124 40048408 		.word	142869568
 1457 0128 40108200 		.word	8523840
 1458 012c 07010100 		.word	65799
 1459 0130 00000000 		.word	node_convert
 1460 0134 40040408 		.word	134480960
 1461              		.cfi_endproc
 1462              	.LFE18:
 1464              		.section	.text.ll_sw_forward_requantizelinear,"ax",%progbits
 1465              		.align	1
 1466              		.global	ll_sw_forward_requantizelinear
 1467              		.syntax unified
 1468              		.thumb
 1469              		.thumb_func
 1471              	ll_sw_forward_requantizelinear:
 1472              	.LVL80:
 1473              	.LFB19:
 377:../Middlewares/stedgeai-lib/Npu/ll_aton/ll_sw_integer.c **** 
 378:../Middlewares/stedgeai-lib/Npu/ll_aton/ll_sw_integer.c **** //##########################################################################################
 379:../Middlewares/stedgeai-lib/Npu/ll_aton/ll_sw_integer.c **** /** QuantizeLinear forward function */
 380:../Middlewares/stedgeai-lib/Npu/ll_aton/ll_sw_integer.c **** void ll_sw_forward_requantizelinear(Requantizelinear_sw_info *sw_info)
 381:../Middlewares/stedgeai-lib/Npu/ll_aton/ll_sw_integer.c **** {
 1474              		.loc 1 381 1 is_stmt 1 view -0
 1475              		.cfi_startproc
 1476              		@ args = 0, pretend = 0, frame = 288
 1477              		@ frame_needed = 0, uses_anonymous_args = 0
 382:../Middlewares/stedgeai-lib/Npu/ll_aton/ll_sw_integer.c ****   // array init
 383:../Middlewares/stedgeai-lib/Npu/ll_aton/ll_sw_integer.c ****   int32_t format = sw_info->general.input.format.is_signed ? (AI_ARRAY_FORMAT_S8 | AI_FMT_FLAG_IS_I
 1478              		.loc 1 383 3 view .LVU419
 381:../Middlewares/stedgeai-lib/Npu/ll_aton/ll_sw_integer.c ****   // array init
ARM GAS  /tmp/ccZCp2co.s 			page 37


 1479              		.loc 1 381 1 is_stmt 0 view .LVU420
 1480 0000 30B5     		push	{r4, r5, lr}
 1481              		.cfi_def_cfa_offset 12
 1482              		.cfi_offset 4, -12
 1483              		.cfi_offset 5, -8
 1484              		.cfi_offset 14, -4
 384:../Middlewares/stedgeai-lib/Npu/ll_aton/ll_sw_integer.c ****                                                            : (AI_ARRAY_FORMAT_U8 | AI_FMT_FLAG_IS_I
 1485              		.loc 1 384 60 view .LVU421
 1486 0002 90F82C30 		ldrb	r3, [r0, #44]	@ zero_extendqisi2
 381:../Middlewares/stedgeai-lib/Npu/ll_aton/ll_sw_integer.c ****   // array init
 1487              		.loc 1 381 1 view .LVU422
 1488 0006 C9B0     		sub	sp, sp, #292
 1489              		.cfi_def_cfa_offset 304
 1490              		.loc 1 384 60 view .LVU423
 1491 0008 002B     		cmp	r3, #0
 1492 000a 00F0A580 		beq	.L56
 1493              		.loc 1 384 60 discriminator 1 view .LVU424
 1494 000e 544B     		ldr	r3, .L60
 1495              	.L52:
 1496              	.LVL81:
 385:../Middlewares/stedgeai-lib/Npu/ll_aton/ll_sw_integer.c ****   AI_ARRAY_OBJ_DECLARE(input_output_array, format, sw_info->general.input.mem.start_offset,
 1497              		.loc 1 385 3 is_stmt 1 view .LVU425
 1498 0010 0E93     		str	r3, [sp, #56]
 1499 0012 4369     		ldr	r3, [r0, #20]
 1500              	.LVL82:
 1501              		.loc 1 385 3 is_stmt 0 view .LVU426
 1502 0014 0F93     		str	r3, [sp, #60]
 1503 0016 836A     		ldr	r3, [r0, #40]
 1504 0018 CDE91033 		strd	r3, r3, [sp, #64]
 386:../Middlewares/stedgeai-lib/Npu/ll_aton/ll_sw_integer.c ****                        sw_info->general.input.mem.start_offset, sw_info->general.input.dim.num_elem
 387:../Middlewares/stedgeai-lib/Npu/ll_aton/ll_sw_integer.c **** 
 388:../Middlewares/stedgeai-lib/Npu/ll_aton/ll_sw_integer.c ****   format = sw_info->general.output.format.is_signed ? (AI_ARRAY_FORMAT_S8 | AI_FMT_FLAG_IS_IO)
 1505              		.loc 1 388 3 is_stmt 1 view .LVU427
 389:../Middlewares/stedgeai-lib/Npu/ll_aton/ll_sw_integer.c ****                                                     : (AI_ARRAY_FORMAT_U8 | AI_FMT_FLAG_IS_IO);
 1506              		.loc 1 389 53 is_stmt 0 view .LVU428
 1507 001c 90F85830 		ldrb	r3, [r0, #88]	@ zero_extendqisi2
 1508 0020 002B     		cmp	r3, #0
 1509 0022 00F09B80 		beq	.L57
 1510              		.loc 1 389 53 discriminator 1 view .LVU429
 1511 0026 4E4B     		ldr	r3, .L60
 1512              	.L53:
 1513              	.LVL83:
 390:../Middlewares/stedgeai-lib/Npu/ll_aton/ll_sw_integer.c ****   AI_ARRAY_OBJ_DECLARE(requantize_output_array, format, sw_info->general.output.mem.start_offset,
 1514              		.loc 1 390 3 is_stmt 1 view .LVU430
 1515 0028 1293     		str	r3, [sp, #72]
 1516 002a 036C     		ldr	r3, [r0, #64]
 1517              	.LVL84:
 391:../Middlewares/stedgeai-lib/Npu/ll_aton/ll_sw_integer.c ****                        sw_info->general.output.mem.start_offset, sw_info->general.output.dim.num_el
 392:../Middlewares/stedgeai-lib/Npu/ll_aton/ll_sw_integer.c **** 
 393:../Middlewares/stedgeai-lib/Npu/ll_aton/ll_sw_integer.c ****   uint16_t offset_format =
 394:../Middlewares/stedgeai-lib/Npu/ll_aton/ll_sw_integer.c ****       sw_info->is.format.is_signed ? (AI_BUFFER_META_FLAG_ZEROPOINT_S8) : (AI_BUFFER_META_FLAG_ZERO
 395:../Middlewares/stedgeai-lib/Npu/ll_aton/ll_sw_integer.c ****   uint16_t scale_format = AI_BUFFER_META_FLAG_SCALE_FLOAT;
 396:../Middlewares/stedgeai-lib/Npu/ll_aton/ll_sw_integer.c ****   ai_intq_info_list input_intq = {.flags = (offset_format | scale_format),
 397:../Middlewares/stedgeai-lib/Npu/ll_aton/ll_sw_integer.c ****                                   .size = sw_info->is.dim.num_elem,
 398:../Middlewares/stedgeai-lib/Npu/ll_aton/ll_sw_integer.c ****                                   .info = (const ai_intq_info[1]){{
 1518              		.loc 1 398 66 is_stmt 0 view .LVU431
 1519 002c D0F88010 		ldr	r1, [r0, #128]
ARM GAS  /tmp/ccZCp2co.s 			page 38


 390:../Middlewares/stedgeai-lib/Npu/ll_aton/ll_sw_integer.c ****   AI_ARRAY_OBJ_DECLARE(requantize_output_array, format, sw_info->general.output.mem.start_offset,
 1520              		.loc 1 390 3 view .LVU432
 1521 0030 1393     		str	r3, [sp, #76]
 1522 0032 436D     		ldr	r3, [r0, #84]
 1523              		.loc 1 398 66 view .LVU433
 1524 0034 0691     		str	r1, [sp, #24]
 390:../Middlewares/stedgeai-lib/Npu/ll_aton/ll_sw_integer.c ****   AI_ARRAY_OBJ_DECLARE(requantize_output_array, format, sw_info->general.output.mem.start_offset,
 1525              		.loc 1 390 3 view .LVU434
 1526 0036 CDE91433 		strd	r3, r3, [sp, #80]
 393:../Middlewares/stedgeai-lib/Npu/ll_aton/ll_sw_integer.c ****       sw_info->is.format.is_signed ? (AI_BUFFER_META_FLAG_ZEROPOINT_S8) : (AI_BUFFER_META_FLAG_ZERO
 1527              		.loc 1 393 3 is_stmt 1 view .LVU435
 393:../Middlewares/stedgeai-lib/Npu/ll_aton/ll_sw_integer.c ****       sw_info->is.format.is_signed ? (AI_BUFFER_META_FLAG_ZEROPOINT_S8) : (AI_BUFFER_META_FLAG_ZERO
 1528              		.loc 1 393 12 is_stmt 0 view .LVU436
 1529 003a 90F88430 		ldrb	r3, [r0, #132]	@ zero_extendqisi2
 1530              		.loc 1 398 66 view .LVU437
 1531 003e D0F8AC10 		ldr	r1, [r0, #172]
 393:../Middlewares/stedgeai-lib/Npu/ll_aton/ll_sw_integer.c ****       sw_info->is.format.is_signed ? (AI_BUFFER_META_FLAG_ZEROPOINT_S8) : (AI_BUFFER_META_FLAG_ZERO
 1532              		.loc 1 393 12 discriminator 1 view .LVU438
 1533 0042 002B     		cmp	r3, #0
 1534 0044 0CBF     		ite	eq
 1535 0046 0223     		moveq	r3, #2
 1536 0048 0423     		movne	r3, #4
 1537              	.LVL85:
 395:../Middlewares/stedgeai-lib/Npu/ll_aton/ll_sw_integer.c ****   ai_intq_info_list input_intq = {.flags = (offset_format | scale_format),
 1538              		.loc 1 395 3 is_stmt 1 view .LVU439
 396:../Middlewares/stedgeai-lib/Npu/ll_aton/ll_sw_integer.c ****                                   .size = sw_info->is.dim.num_elem,
 1539              		.loc 1 396 3 view .LVU440
 396:../Middlewares/stedgeai-lib/Npu/ll_aton/ll_sw_integer.c ****                                   .size = sw_info->is.dim.num_elem,
 1540              		.loc 1 396 21 is_stmt 0 view .LVU441
 1541 004a 43F00103 		orr	r3, r3, #1
 1542              	.LVL86:
 396:../Middlewares/stedgeai-lib/Npu/ll_aton/ll_sw_integer.c ****                                   .size = sw_info->is.dim.num_elem,
 1543              		.loc 1 396 21 view .LVU442
 1544 004e ADF81030 		strh	r3, [sp, #16]	@ movhi
 1545 0052 C36E     		ldr	r3, [r0, #108]
 1546              		.loc 1 398 66 view .LVU443
 1547 0054 0791     		str	r1, [sp, #28]
 396:../Middlewares/stedgeai-lib/Npu/ll_aton/ll_sw_integer.c ****                                   .size = sw_info->is.dim.num_elem,
 1548              		.loc 1 396 21 view .LVU444
 1549 0056 ADF81230 		strh	r3, [sp, #18]	@ movhi
 1550              		.loc 1 398 66 view .LVU445
 1551 005a 06AB     		add	r3, sp, #24
 396:../Middlewares/stedgeai-lib/Npu/ll_aton/ll_sw_integer.c ****                                   .size = sw_info->is.dim.num_elem,
 1552              		.loc 1 396 21 view .LVU446
 1553 005c 0593     		str	r3, [sp, #20]
 399:../Middlewares/stedgeai-lib/Npu/ll_aton/ll_sw_integer.c ****                                       .scale = ((float *)sw_info->is.mem.start_offset),
 400:../Middlewares/stedgeai-lib/Npu/ll_aton/ll_sw_integer.c ****                                       .zeropoint = ((void *)sw_info->izp.mem.start_offset),
 401:../Middlewares/stedgeai-lib/Npu/ll_aton/ll_sw_integer.c ****                                   }}};
 402:../Middlewares/stedgeai-lib/Npu/ll_aton/ll_sw_integer.c **** 
 403:../Middlewares/stedgeai-lib/Npu/ll_aton/ll_sw_integer.c ****   offset_format =
 1554              		.loc 1 403 3 is_stmt 1 view .LVU447
 1555              		.loc 1 403 17 is_stmt 0 view .LVU448
 1556 005e 90F8DC30 		ldrb	r3, [r0, #220]	@ zero_extendqisi2
 404:../Middlewares/stedgeai-lib/Npu/ll_aton/ll_sw_integer.c ****       sw_info->os.format.is_signed ? (AI_BUFFER_META_FLAG_ZEROPOINT_S8) : (AI_BUFFER_META_FLAG_ZERO
 405:../Middlewares/stedgeai-lib/Npu/ll_aton/ll_sw_integer.c ****   scale_format = AI_BUFFER_META_FLAG_SCALE_FLOAT;
 406:../Middlewares/stedgeai-lib/Npu/ll_aton/ll_sw_integer.c ****   ai_intq_info_list output_intq = {.flags = (offset_format | scale_format),
 407:../Middlewares/stedgeai-lib/Npu/ll_aton/ll_sw_integer.c ****                                    .size = sw_info->os.dim.num_elem,
ARM GAS  /tmp/ccZCp2co.s 			page 39


 408:../Middlewares/stedgeai-lib/Npu/ll_aton/ll_sw_integer.c ****                                    .info = (const ai_intq_info[1]){{
 409:../Middlewares/stedgeai-lib/Npu/ll_aton/ll_sw_integer.c ****                                        .scale = ((float *)sw_info->os.mem.start_offset),
 410:../Middlewares/stedgeai-lib/Npu/ll_aton/ll_sw_integer.c ****                                        .zeropoint = ((void *)sw_info->ozp.mem.start_offset),
 411:../Middlewares/stedgeai-lib/Npu/ll_aton/ll_sw_integer.c ****                                    }}};
 412:../Middlewares/stedgeai-lib/Npu/ll_aton/ll_sw_integer.c **** 
 413:../Middlewares/stedgeai-lib/Npu/ll_aton/ll_sw_integer.c ****   AI_TENSOR_OBJ_DECLARE(input_output, , 0x0, 4,
 1557              		.loc 1 413 3 view .LVU449
 1558 0062 4FF08274 		mov	r4, #17039360
 403:../Middlewares/stedgeai-lib/Npu/ll_aton/ll_sw_integer.c ****       sw_info->os.format.is_signed ? (AI_BUFFER_META_FLAG_ZEROPOINT_S8) : (AI_BUFFER_META_FLAG_ZERO
 1559              		.loc 1 403 17 discriminator 1 view .LVU450
 1560 0066 002B     		cmp	r3, #0
 1561              	.LVL87:
 403:../Middlewares/stedgeai-lib/Npu/ll_aton/ll_sw_integer.c ****       sw_info->os.format.is_signed ? (AI_BUFFER_META_FLAG_ZEROPOINT_S8) : (AI_BUFFER_META_FLAG_ZERO
 1562              		.loc 1 403 17 discriminator 1 view .LVU451
 1563 0068 0CBF     		ite	eq
 1564 006a 0221     		moveq	r1, #2
 1565 006c 0421     		movne	r1, #4
 1566              	.LVL88:
 405:../Middlewares/stedgeai-lib/Npu/ll_aton/ll_sw_integer.c ****   ai_intq_info_list output_intq = {.flags = (offset_format | scale_format),
 1567              		.loc 1 405 3 is_stmt 1 view .LVU452
 406:../Middlewares/stedgeai-lib/Npu/ll_aton/ll_sw_integer.c ****                                    .size = sw_info->os.dim.num_elem,
 1568              		.loc 1 406 3 view .LVU453
 406:../Middlewares/stedgeai-lib/Npu/ll_aton/ll_sw_integer.c ****                                    .size = sw_info->os.dim.num_elem,
 1569              		.loc 1 406 21 is_stmt 0 view .LVU454
 1570 006e 41F00101 		orr	r1, r1, #1
 1571              	.LVL89:
 406:../Middlewares/stedgeai-lib/Npu/ll_aton/ll_sw_integer.c ****                                    .size = sw_info->os.dim.num_elem,
 1572              		.loc 1 406 21 view .LVU455
 1573 0072 ADF82010 		strh	r1, [sp, #32]	@ movhi
 1574 0076 D0F8C410 		ldr	r1, [r0, #196]
 396:../Middlewares/stedgeai-lib/Npu/ll_aton/ll_sw_integer.c ****                                   .size = sw_info->is.dim.num_elem,
 1575              		.loc 1 396 21 view .LVU456
 1576 007a 04AA     		add	r2, sp, #16
 406:../Middlewares/stedgeai-lib/Npu/ll_aton/ll_sw_integer.c ****                                    .size = sw_info->os.dim.num_elem,
 1577              		.loc 1 406 21 view .LVU457
 1578 007c ADF82210 		strh	r1, [sp, #34]	@ movhi
 408:../Middlewares/stedgeai-lib/Npu/ll_aton/ll_sw_integer.c ****                                        .scale = ((float *)sw_info->os.mem.start_offset),
 1579              		.loc 1 408 67 view .LVU458
 1580 0080 D0F8D810 		ldr	r1, [r0, #216]
 1581              		.loc 1 413 3 view .LVU459
 1582 0084 2692     		str	r2, [sp, #152]
 408:../Middlewares/stedgeai-lib/Npu/ll_aton/ll_sw_integer.c ****                                        .scale = ((float *)sw_info->os.mem.start_offset),
 1583              		.loc 1 408 67 view .LVU460
 1584 0086 0A91     		str	r1, [sp, #40]
 1585 0088 D0F80411 		ldr	r1, [r0, #260]
 1586              		.loc 1 413 3 view .LVU461
 1587 008c 0269     		ldr	r2, [r0, #16]
 408:../Middlewares/stedgeai-lib/Npu/ll_aton/ll_sw_integer.c ****                                        .scale = ((float *)sw_info->os.mem.start_offset),
 1588              		.loc 1 408 67 view .LVU462
 1589 008e 0B91     		str	r1, [sp, #44]
 406:../Middlewares/stedgeai-lib/Npu/ll_aton/ll_sw_integer.c ****                                    .size = sw_info->os.dim.num_elem,
 1590              		.loc 1 406 21 view .LVU463
 1591 0090 0AA9     		add	r1, sp, #40
 1592 0092 0991     		str	r1, [sp, #36]
 1593              		.loc 1 413 3 is_stmt 1 view .LVU464
 1594 0094 40F20141 		movw	r1, #1025
 1595 0098 1692     		str	r2, [sp, #88]
ARM GAS  /tmp/ccZCp2co.s 			page 40


 1596 009a C268     		ldr	r2, [r0, #12]
 1597 009c CDE92741 		strd	r4, r1, [sp, #156]
 1598 00a0 1792     		str	r2, [sp, #92]
 1599 00a2 8268     		ldr	r2, [r0, #8]
 406:../Middlewares/stedgeai-lib/Npu/ll_aton/ll_sw_integer.c ****                                    .size = sw_info->os.dim.num_elem,
 1600              		.loc 1 406 21 is_stmt 0 view .LVU465
 1601 00a4 08AB     		add	r3, sp, #32
 1602              		.loc 1 413 3 view .LVU466
 1603 00a6 1892     		str	r2, [sp, #96]
 1604 00a8 4268     		ldr	r2, [r0, #4]
 1605 00aa 456A     		ldr	r5, [r0, #36]
 1606 00ac 1992     		str	r2, [sp, #100]
 1607 00ae 16AA     		add	r2, sp, #88
 1608 00b0 2992     		str	r2, [sp, #164]
 1609 00b2 40F20242 		movw	r2, #1026
 1610 00b6 1A95     		str	r5, [sp, #104]
 1611 00b8 056A     		ldr	r5, [r0, #32]
 414:../Middlewares/stedgeai-lib/Npu/ll_aton/ll_sw_integer.c ****                         SHAPE_INIT(sw_info->general.input.dim.tensor_h, sw_info->general.input.dim.
 415:../Middlewares/stedgeai-lib/Npu/ll_aton/ll_sw_integer.c ****                                    sw_info->general.input.dim.tensor_c, sw_info->general.input.dim.
 416:../Middlewares/stedgeai-lib/Npu/ll_aton/ll_sw_integer.c ****                         STRIDE_INIT(sw_info->general.input.stride.h, sw_info->general.input.stride.
 417:../Middlewares/stedgeai-lib/Npu/ll_aton/ll_sw_integer.c ****                                     sw_info->general.input.stride.c, sw_info->general.input.stride.
 418:../Middlewares/stedgeai-lib/Npu/ll_aton/ll_sw_integer.c ****                         1, &input_output_array, &input_intq);
 419:../Middlewares/stedgeai-lib/Npu/ll_aton/ll_sw_integer.c **** 
 420:../Middlewares/stedgeai-lib/Npu/ll_aton/ll_sw_integer.c ****   AI_TENSOR_OBJ_DECLARE(requantize_output, , 0x0, 4,
 1612              		.loc 1 420 3 view .LVU467
 1613 00ba CDE92E41 		strd	r4, r1, [sp, #184]
 413:../Middlewares/stedgeai-lib/Npu/ll_aton/ll_sw_integer.c ****                         SHAPE_INIT(sw_info->general.input.dim.tensor_h, sw_info->general.input.dim.
 1614              		.loc 1 413 3 view .LVU468
 1615 00be 1B95     		str	r5, [sp, #108]
 1616 00c0 C569     		ldr	r5, [r0, #28]
 1617 00c2 2A92     		str	r2, [sp, #168]
 1618 00c4 1C95     		str	r5, [sp, #112]
 1619 00c6 8569     		ldr	r5, [r0, #24]
 421:../Middlewares/stedgeai-lib/Npu/ll_aton/ll_sw_integer.c ****                         SHAPE_INIT(sw_info->general.output.dim.tensor_h, sw_info->general.output.di
 422:../Middlewares/stedgeai-lib/Npu/ll_aton/ll_sw_integer.c ****                                    sw_info->general.output.dim.tensor_c, sw_info->general.output.di
 423:../Middlewares/stedgeai-lib/Npu/ll_aton/ll_sw_integer.c ****                         STRIDE_INIT(sw_info->general.output.stride.h, sw_info->general.output.strid
 424:../Middlewares/stedgeai-lib/Npu/ll_aton/ll_sw_integer.c ****                                     sw_info->general.output.stride.c, sw_info->general.output.strid
 425:../Middlewares/stedgeai-lib/Npu/ll_aton/ll_sw_integer.c ****                         1, &requantize_output_array, &output_intq);
 426:../Middlewares/stedgeai-lib/Npu/ll_aton/ll_sw_integer.c ****   // tensor chain initialization
 427:../Middlewares/stedgeai-lib/Npu/ll_aton/ll_sw_integer.c ****   AI_TENSOR_CHAIN_OBJ_DECLARE(requantize_chain, , 4, AI_TENSOR_LIST_OBJ_INIT(AI_FLAG_NONE, 1, TENSO
 1620              		.loc 1 427 3 view .LVU469
 1621 00c8 26A9     		add	r1, sp, #152
 413:../Middlewares/stedgeai-lib/Npu/ll_aton/ll_sw_integer.c ****                         SHAPE_INIT(sw_info->general.input.dim.tensor_h, sw_info->general.input.dim.
 1622              		.loc 1 413 3 view .LVU470
 1623 00ca 1D95     		str	r5, [sp, #116]
 1624 00cc 1AAD     		add	r5, sp, #104
 1625 00ce 2B95     		str	r5, [sp, #172]
 1626 00d0 0EAD     		add	r5, sp, #56
 420:../Middlewares/stedgeai-lib/Npu/ll_aton/ll_sw_integer.c ****                         SHAPE_INIT(sw_info->general.output.dim.tensor_h, sw_info->general.output.di
 1627              		.loc 1 420 3 view .LVU471
 1628 00d2 CDE92C53 		strd	r5, r3, [sp, #176]
 1629 00d6 C36B     		ldr	r3, [r0, #60]
 1630 00d8 1E93     		str	r3, [sp, #120]
 1631 00da 836B     		ldr	r3, [r0, #56]
 1632 00dc 1F93     		str	r3, [sp, #124]
 1633 00de 436B     		ldr	r3, [r0, #52]
 1634 00e0 2093     		str	r3, [sp, #128]
ARM GAS  /tmp/ccZCp2co.s 			page 41


 1635 00e2 036B     		ldr	r3, [r0, #48]
 1636 00e4 2193     		str	r3, [sp, #132]
 1637 00e6 1EAB     		add	r3, sp, #120
 1638 00e8 CDE93032 		strd	r3, r2, [sp, #192]
 1639 00ec 036D     		ldr	r3, [r0, #80]
 1640              		.loc 1 427 3 view .LVU472
 1641 00ee 2DAA     		add	r2, sp, #180
 420:../Middlewares/stedgeai-lib/Npu/ll_aton/ll_sw_integer.c ****                         SHAPE_INIT(sw_info->general.output.dim.tensor_h, sw_info->general.output.di
 1642              		.loc 1 420 3 view .LVU473
 1643 00f0 2293     		str	r3, [sp, #136]
 1644 00f2 C36C     		ldr	r3, [r0, #76]
 1645 00f4 2393     		str	r3, [sp, #140]
 1646 00f6 836C     		ldr	r3, [r0, #72]
 1647 00f8 2493     		str	r3, [sp, #144]
 1648 00fa 436C     		ldr	r3, [r0, #68]
 1649              		.loc 1 427 3 view .LVU474
 1650 00fc 0091     		str	r1, [sp]
 420:../Middlewares/stedgeai-lib/Npu/ll_aton/ll_sw_integer.c ****                         SHAPE_INIT(sw_info->general.output.dim.tensor_h, sw_info->general.output.di
 1651              		.loc 1 420 3 view .LVU475
 1652 00fe 2593     		str	r3, [sp, #148]
 1653 0100 22AB     		add	r3, sp, #136
 1654 0102 3293     		str	r3, [sp, #200]
 1655 0104 12AB     		add	r3, sp, #72
 1656              	.LVL90:
 420:../Middlewares/stedgeai-lib/Npu/ll_aton/ll_sw_integer.c ****                         SHAPE_INIT(sw_info->general.output.dim.tensor_h, sw_info->general.output.di
 1657              		.loc 1 420 3 view .LVU476
 1658 0106 3393     		str	r3, [sp, #204]
 425:../Middlewares/stedgeai-lib/Npu/ll_aton/ll_sw_integer.c ****   // tensor chain initialization
 1659              		.loc 1 425 67 is_stmt 1 view .LVU477
 1660              		.loc 1 427 3 view .LVU478
 1661 0108 0423     		movs	r3, #4
 1662              	.LVL91:
 1663              		.loc 1 427 3 is_stmt 0 view .LVU479
 1664 010a 0021     		movs	r1, #0
 1665 010c 0C93     		str	r3, [sp, #48]
 1666 010e 0123     		movs	r3, #1
 1667 0110 CDE93E13 		strd	r1, r3, [sp, #248]
 1668 0114 3C93     		str	r3, [sp, #240]
 1669 0116 01AB     		add	r3, sp, #4
 1670 0118 CDE94031 		strd	r3, r1, [sp, #256]
 1671 011c 02AB     		add	r3, sp, #8
 1672 011e CDE94331 		strd	r3, r1, [sp, #268]
 1673 0122 03AB     		add	r3, sp, #12
 1674 0124 CDE94631 		strd	r3, r1, [sp, #280]
 1675 0128 3CAB     		add	r3, sp, #240
 1676 012a 0D93     		str	r3, [sp, #52]
 428:../Middlewares/stedgeai-lib/Npu/ll_aton/ll_sw_integer.c ****                               AI_TENSOR_LIST_OBJ_INIT(AI_FLAG_NONE, 1, TENSORS(&requantize_output))
 429:../Middlewares/stedgeai-lib/Npu/ll_aton/ll_sw_integer.c ****                               AI_TENSOR_LIST_OBJ_EMPTY, AI_TENSOR_LIST_OBJ_EMPTY)
 430:../Middlewares/stedgeai-lib/Npu/ll_aton/ll_sw_integer.c **** 
 431:../Middlewares/stedgeai-lib/Npu/ll_aton/ll_sw_integer.c ****   // layer initialization
 432:../Middlewares/stedgeai-lib/Npu/ll_aton/ll_sw_integer.c ****   AI_LAYER_OBJ_DECLARE(requantize_layer, 1, NL_TYPE, 0x0, NULL, nl, node_convert_integer /*_fixed*/
 1677              		.loc 1 432 3 is_stmt 1 view .LVU480
 1678 012c 0D4B     		ldr	r3, .L60+4
 427:../Middlewares/stedgeai-lib/Npu/ll_aton/ll_sw_integer.c ****                               AI_TENSOR_LIST_OBJ_INIT(AI_FLAG_NONE, 1, TENSORS(&requantize_output))
 1679              		.loc 1 427 3 is_stmt 0 view .LVU481
 1680 012e 0192     		str	r2, [sp, #4]
 1681              		.loc 1 432 3 view .LVU482
ARM GAS  /tmp/ccZCp2co.s 			page 42


 1682 0130 35A8     		add	r0, sp, #212
 1683              	.LVL92:
 1684              		.loc 1 432 3 view .LVU483
 1685 0132 1C22     		movs	r2, #28
 427:../Middlewares/stedgeai-lib/Npu/ll_aton/ll_sw_integer.c ****                               AI_TENSOR_LIST_OBJ_INIT(AI_FLAG_NONE, 1, TENSORS(&requantize_output))
 1686              		.loc 1 427 3 view .LVU484
 1687 0134 4291     		str	r1, [sp, #264]
 1688 0136 0291     		str	r1, [sp, #8]
 1689 0138 4591     		str	r1, [sp, #276]
 1690 013a 0391     		str	r1, [sp, #12]
 1691              		.loc 1 432 3 view .LVU485
 1692 013c 3493     		str	r3, [sp, #208]
 427:../Middlewares/stedgeai-lib/Npu/ll_aton/ll_sw_integer.c ****                               AI_TENSOR_LIST_OBJ_INIT(AI_FLAG_NONE, 1, TENSORS(&requantize_output))
 1693              		.loc 1 427 3 view .LVU486
 1694 013e CDF8F4D0 		str	sp, [sp, #244]
 1695              		.loc 1 432 3 view .LVU487
 1696 0142 FFF7FEFF 		bl	memset
 1697              	.LVL93:
 1698              		.loc 1 432 3 view .LVU488
 1699 0146 084B     		ldr	r3, .L60+8
 433:../Middlewares/stedgeai-lib/Npu/ll_aton/ll_sw_integer.c ****                        NULL, NULL, )
 434:../Middlewares/stedgeai-lib/Npu/ll_aton/ll_sw_integer.c ****   requantize_layer.forward(AI_LAYER_OBJ(&requantize_layer));
 1700              		.loc 1 434 3 view .LVU489
 1701 0148 34A8     		add	r0, sp, #208
 432:../Middlewares/stedgeai-lib/Npu/ll_aton/ll_sw_integer.c ****                        NULL, NULL, )
 1702              		.loc 1 432 3 view .LVU490
 1703 014a 3993     		str	r3, [sp, #228]
 1704 014c 0CAB     		add	r3, sp, #48
 1705 014e 3A93     		str	r3, [sp, #232]
 1706              		.loc 1 434 3 is_stmt 1 view .LVU491
 1707 0150 FFF7FEFF 		bl	node_convert_integer
 1708              	.LVL94:
 435:../Middlewares/stedgeai-lib/Npu/ll_aton/ll_sw_integer.c **** }
 1709              		.loc 1 435 1 is_stmt 0 view .LVU492
 1710 0154 49B0     		add	sp, sp, #292
 1711              		.cfi_remember_state
 1712              		.cfi_def_cfa_offset 12
 1713              		@ sp needed
 1714 0156 30BD     		pop	{r4, r5, pc}
 1715              	.LVL95:
 1716              	.L56:
 1717              		.cfi_restore_state
 384:../Middlewares/stedgeai-lib/Npu/ll_aton/ll_sw_integer.c ****   AI_ARRAY_OBJ_DECLARE(input_output_array, format, sw_info->general.input.mem.start_offset,
 1718              		.loc 1 384 60 discriminator 2 view .LVU493
 1719 0158 044B     		ldr	r3, .L60+12
 1720 015a 59E7     		b	.L52
 1721              	.LVL96:
 1722              	.L57:
 389:../Middlewares/stedgeai-lib/Npu/ll_aton/ll_sw_integer.c ****   AI_ARRAY_OBJ_DECLARE(requantize_output_array, format, sw_info->general.output.mem.start_offset,
 1723              		.loc 1 389 53 discriminator 2 view .LVU494
 1724 015c 034B     		ldr	r3, .L60+12
 1725 015e 63E7     		b	.L53
 1726              	.L61:
 1727              		.align	2
 1728              	.L60:
 1729 0160 40048408 		.word	142869568
 1730 0164 07010100 		.word	65799
ARM GAS  /tmp/ccZCp2co.s 			page 43


 1731 0168 00000000 		.word	node_convert_integer
 1732 016c 40040408 		.word	134480960
 1733              		.cfi_endproc
 1734              	.LFE19:
 1736              		.section	.text.ll_sw_forward_conv_integer,"ax",%progbits
 1737              		.align	1
 1738              		.global	ll_sw_forward_conv_integer
 1739              		.syntax unified
 1740              		.thumb
 1741              		.thumb_func
 1743              	ll_sw_forward_conv_integer:
 1744              	.LVL97:
 1745              	.LFB20:
 436:../Middlewares/stedgeai-lib/Npu/ll_aton/ll_sw_integer.c **** 
 437:../Middlewares/stedgeai-lib/Npu/ll_aton/ll_sw_integer.c **** //##########################################################################################
 438:../Middlewares/stedgeai-lib/Npu/ll_aton/ll_sw_integer.c **** /** Conv integer forward function */
 439:../Middlewares/stedgeai-lib/Npu/ll_aton/ll_sw_integer.c **** void ll_sw_forward_conv_integer(Conv_integer_sw_info *sw_info)
 440:../Middlewares/stedgeai-lib/Npu/ll_aton/ll_sw_integer.c **** {
 1746              		.loc 1 440 1 is_stmt 1 view -0
 1747              		.cfi_startproc
 1748              		@ args = 0, pretend = 0, frame = 592
 1749              		@ frame_needed = 0, uses_anonymous_args = 0
 441:../Middlewares/stedgeai-lib/Npu/ll_aton/ll_sw_integer.c ****   int32_t format;
 1750              		.loc 1 441 3 view .LVU496
 442:../Middlewares/stedgeai-lib/Npu/ll_aton/ll_sw_integer.c ****   // array init
 443:../Middlewares/stedgeai-lib/Npu/ll_aton/ll_sw_integer.c ****   format = sw_info->general.input.format.is_signed ? (AI_ARRAY_FORMAT_S8 | AI_FMT_FLAG_IS_IO)
 1751              		.loc 1 443 3 view .LVU497
 440:../Middlewares/stedgeai-lib/Npu/ll_aton/ll_sw_integer.c ****   int32_t format;
 1752              		.loc 1 440 1 is_stmt 0 view .LVU498
 1753 0000 2DE9F04F 		push	{r4, r5, r6, r7, r8, r9, r10, fp, lr}
 1754              		.cfi_def_cfa_offset 36
 1755              		.cfi_offset 4, -36
 1756              		.cfi_offset 5, -32
 1757              		.cfi_offset 6, -28
 1758              		.cfi_offset 7, -24
 1759              		.cfi_offset 8, -20
 1760              		.cfi_offset 9, -16
 1761              		.cfi_offset 10, -12
 1762              		.cfi_offset 11, -8
 1763              		.cfi_offset 14, -4
 444:../Middlewares/stedgeai-lib/Npu/ll_aton/ll_sw_integer.c ****                                                    : (AI_ARRAY_FORMAT_U8 | AI_FMT_FLAG_IS_IO);
 1764              		.loc 1 444 52 view .LVU499
 1765 0004 90F82C30 		ldrb	r3, [r0, #44]	@ zero_extendqisi2
 440:../Middlewares/stedgeai-lib/Npu/ll_aton/ll_sw_integer.c ****   int32_t format;
 1766              		.loc 1 440 1 view .LVU500
 1767 0008 0446     		mov	r4, r0
 1768 000a ADF5157D 		sub	sp, sp, #596
 1769              		.cfi_def_cfa_offset 632
 1770              		.loc 1 444 52 view .LVU501
 1771 000e 002B     		cmp	r3, #0
 1772 0010 00F04D81 		beq	.L78
 1773              		.loc 1 444 52 discriminator 1 view .LVU502
 1774 0014 AA4B     		ldr	r3, .L86
 1775              	.L63:
 1776              	.LVL98:
 445:../Middlewares/stedgeai-lib/Npu/ll_aton/ll_sw_integer.c ****   AI_ARRAY_OBJ_DECLARE(input_output_array, format, sw_info->general.input.mem.start_offset,
 1777              		.loc 1 445 3 is_stmt 1 view .LVU503
ARM GAS  /tmp/ccZCp2co.s 			page 44


 1778 0016 1493     		str	r3, [sp, #80]
 1779 0018 6369     		ldr	r3, [r4, #20]
 1780              	.LVL99:
 1781              		.loc 1 445 3 is_stmt 0 view .LVU504
 1782 001a 14A9     		add	r1, sp, #80
 1783              	.LVL100:
 1784              		.loc 1 445 3 view .LVU505
 1785 001c 4B60     		str	r3, [r1, #4]
 1786 001e A36A     		ldr	r3, [r4, #40]
 1787 0020 C1E90233 		strd	r3, r3, [r1, #8]
 446:../Middlewares/stedgeai-lib/Npu/ll_aton/ll_sw_integer.c ****                        sw_info->general.input.mem.start_offset, sw_info->general.input.dim.num_elem
 447:../Middlewares/stedgeai-lib/Npu/ll_aton/ll_sw_integer.c ****   format = sw_info->weights.format.is_signed ? (AI_ARRAY_FORMAT_S8) : (AI_ARRAY_FORMAT_U8);
 1788              		.loc 1 447 3 is_stmt 1 view .LVU506
 1789              		.loc 1 447 69 is_stmt 0 view .LVU507
 1790 0024 94F88430 		ldrb	r3, [r4, #132]	@ zero_extendqisi2
 1791 0028 002B     		cmp	r3, #0
 1792 002a 00F04281 		beq	.L79
 1793              		.loc 1 447 69 discriminator 1 view .LVU508
 1794 002e A54B     		ldr	r3, .L86+4
 1795              	.L64:
 1796              	.LVL101:
 448:../Middlewares/stedgeai-lib/Npu/ll_aton/ll_sw_integer.c ****   AI_ARRAY_OBJ_DECLARE(conv_weights_array, format, sw_info->weights.mem.start_offset, sw_info->weig
 1797              		.loc 1 448 3 is_stmt 1 view .LVU509
 1798 0030 1893     		str	r3, [sp, #96]
 1799 0032 E36E     		ldr	r3, [r4, #108]
 1800              	.LVL102:
 1801              		.loc 1 448 3 is_stmt 0 view .LVU510
 1802 0034 18AD     		add	r5, sp, #96
 1803              	.LVL103:
 1804              		.loc 1 448 3 view .LVU511
 1805 0036 6B60     		str	r3, [r5, #4]
 1806 0038 D4F88030 		ldr	r3, [r4, #128]
 1807 003c C5E90233 		strd	r3, r3, [r5, #8]
 449:../Middlewares/stedgeai-lib/Npu/ll_aton/ll_sw_integer.c ****                        sw_info->weights.dim.num_elem, )
 450:../Middlewares/stedgeai-lib/Npu/ll_aton/ll_sw_integer.c ****   format = sw_info->scratch.format.is_signed ? (AI_ARRAY_FORMAT_S8) : (AI_ARRAY_FORMAT_U8);
 1808              		.loc 1 450 3 is_stmt 1 view .LVU512
 1809              		.loc 1 450 69 is_stmt 0 view .LVU513
 1810 0040 94F8B030 		ldrb	r3, [r4, #176]	@ zero_extendqisi2
 1811 0044 002B     		cmp	r3, #0
 1812 0046 00F03681 		beq	.L80
 1813              		.loc 1 450 69 discriminator 1 view .LVU514
 1814 004a 9E4B     		ldr	r3, .L86+4
 1815              	.L65:
 1816              	.LVL104:
 451:../Middlewares/stedgeai-lib/Npu/ll_aton/ll_sw_integer.c ****   AI_ARRAY_OBJ_DECLARE(conv_scratch0_array, format, sw_info->scratch.mem.start_offset,
 1817              		.loc 1 451 3 is_stmt 1 view .LVU515
 1818 004c 1C93     		str	r3, [sp, #112]
 1819 004e D4F89830 		ldr	r3, [r4, #152]
 1820              	.LVL105:
 1821              		.loc 1 451 3 is_stmt 0 view .LVU516
 1822 0052 1CA8     		add	r0, sp, #112
 1823              	.LVL106:
 1824              		.loc 1 451 3 view .LVU517
 1825 0054 4360     		str	r3, [r0, #4]
 1826 0056 D4F8AC30 		ldr	r3, [r4, #172]
 452:../Middlewares/stedgeai-lib/Npu/ll_aton/ll_sw_integer.c ****                        sw_info->scratch.mem.start_offset, sw_info->scratch.dim.num_elem, )
 453:../Middlewares/stedgeai-lib/Npu/ll_aton/ll_sw_integer.c ****   AI_ARRAY_OBJ_DECLARE(conv_bias_array, AI_ARRAY_FORMAT_S32, sw_info->bias.mem.start_offset,
ARM GAS  /tmp/ccZCp2co.s 			page 45


 1827              		.loc 1 453 3 view .LVU518
 1828 005a 20AA     		add	r2, sp, #128
 451:../Middlewares/stedgeai-lib/Npu/ll_aton/ll_sw_integer.c ****   AI_ARRAY_OBJ_DECLARE(conv_scratch0_array, format, sw_info->scratch.mem.start_offset,
 1829              		.loc 1 451 3 view .LVU519
 1830 005c C0E90233 		strd	r3, r3, [r0, #8]
 1831              		.loc 1 453 3 is_stmt 1 view .LVU520
 1832 0060 994B     		ldr	r3, .L86+8
 1833 0062 1360     		str	r3, [r2]
 1834 0064 D4F8C430 		ldr	r3, [r4, #196]
 1835 0068 5360     		str	r3, [r2, #4]
 1836 006a D4F8D830 		ldr	r3, [r4, #216]
 1837 006e C2E90233 		strd	r3, r3, [r2, #8]
 454:../Middlewares/stedgeai-lib/Npu/ll_aton/ll_sw_integer.c ****                        sw_info->bias.mem.start_offset, sw_info->bias.dim.num_elem, )
 455:../Middlewares/stedgeai-lib/Npu/ll_aton/ll_sw_integer.c ****   format = sw_info->general.output.format.is_signed ? (AI_ARRAY_FORMAT_S8 | AI_FMT_FLAG_IS_IO)
 1838              		.loc 1 455 3 view .LVU521
 456:../Middlewares/stedgeai-lib/Npu/ll_aton/ll_sw_integer.c ****                                                     : (AI_ARRAY_FORMAT_U8 | AI_FMT_FLAG_IS_IO);
 1839              		.loc 1 456 53 is_stmt 0 view .LVU522
 1840 0072 94F85830 		ldrb	r3, [r4, #88]	@ zero_extendqisi2
 1841 0076 002B     		cmp	r3, #0
 1842 0078 00F01F81 		beq	.L81
 1843              		.loc 1 456 53 discriminator 1 view .LVU523
 1844 007c 904E     		ldr	r6, .L86
 1845              	.L66:
 1846              	.LVL107:
 457:../Middlewares/stedgeai-lib/Npu/ll_aton/ll_sw_integer.c ****   AI_ARRAY_OBJ_DECLARE(conv_output_array, format, sw_info->general.output.mem.start_offset,
 1847              		.loc 1 457 3 is_stmt 1 view .LVU524
 1848 007e 2496     		str	r6, [sp, #144]
 1849 0080 266C     		ldr	r6, [r4, #64]
 1850              	.LVL108:
 458:../Middlewares/stedgeai-lib/Npu/ll_aton/ll_sw_integer.c ****                        sw_info->general.output.mem.start_offset, sw_info->general.output.dim.num_el
 459:../Middlewares/stedgeai-lib/Npu/ll_aton/ll_sw_integer.c **** 
 460:../Middlewares/stedgeai-lib/Npu/ll_aton/ll_sw_integer.c ****   uint16_t offset_format;
 461:../Middlewares/stedgeai-lib/Npu/ll_aton/ll_sw_integer.c ****   uint16_t scale_format;
 462:../Middlewares/stedgeai-lib/Npu/ll_aton/ll_sw_integer.c **** 
 463:../Middlewares/stedgeai-lib/Npu/ll_aton/ll_sw_integer.c ****   scale_format = AI_BUFFER_META_FLAG_SCALE_FLOAT;
 464:../Middlewares/stedgeai-lib/Npu/ll_aton/ll_sw_integer.c ****   offset_format =
 465:../Middlewares/stedgeai-lib/Npu/ll_aton/ll_sw_integer.c ****       sw_info->izp.format.is_signed ? (AI_BUFFER_META_FLAG_ZEROPOINT_S8) : (AI_BUFFER_META_FLAG_ZER
 466:../Middlewares/stedgeai-lib/Npu/ll_aton/ll_sw_integer.c ****   ai_intq_info_list input_intq = {.flags = (scale_format | offset_format),
 467:../Middlewares/stedgeai-lib/Npu/ll_aton/ll_sw_integer.c ****                                   .size = sw_info->is.dim.num_elem,
 468:../Middlewares/stedgeai-lib/Npu/ll_aton/ll_sw_integer.c ****                                   .info = (const ai_intq_info[1]){{
 469:../Middlewares/stedgeai-lib/Npu/ll_aton/ll_sw_integer.c ****                                       .scale = ((float *)sw_info->is.mem.start_offset),
 470:../Middlewares/stedgeai-lib/Npu/ll_aton/ll_sw_integer.c ****                                       .zeropoint = ((void *)sw_info->izp.mem.start_offset),
 471:../Middlewares/stedgeai-lib/Npu/ll_aton/ll_sw_integer.c ****                                   }}};
 472:../Middlewares/stedgeai-lib/Npu/ll_aton/ll_sw_integer.c ****   scale_format = AI_BUFFER_META_FLAG_SCALE_FLOAT;
 473:../Middlewares/stedgeai-lib/Npu/ll_aton/ll_sw_integer.c ****   offset_format =
 474:../Middlewares/stedgeai-lib/Npu/ll_aton/ll_sw_integer.c ****       sw_info->wzp.format.is_signed ? (AI_BUFFER_META_FLAG_ZEROPOINT_S8) : (AI_BUFFER_META_FLAG_ZER
 475:../Middlewares/stedgeai-lib/Npu/ll_aton/ll_sw_integer.c ****   ai_intq_info_list weights_intq = {.flags = (scale_format | offset_format),
 1851              		.loc 1 475 21 is_stmt 0 view .LVU525
 1852 0082 0DF11C0C 		add	ip, sp, #28
 457:../Middlewares/stedgeai-lib/Npu/ll_aton/ll_sw_integer.c ****   AI_ARRAY_OBJ_DECLARE(conv_output_array, format, sw_info->general.output.mem.start_offset,
 1853              		.loc 1 457 3 view .LVU526
 1854 0086 2596     		str	r6, [sp, #148]
 1855 0088 666D     		ldr	r6, [r4, #84]
 476:../Middlewares/stedgeai-lib/Npu/ll_aton/ll_sw_integer.c ****                                     .size = sw_info->ws.dim.num_elem,
 477:../Middlewares/stedgeai-lib/Npu/ll_aton/ll_sw_integer.c ****                                     .info = (const ai_intq_info[1]){{
 478:../Middlewares/stedgeai-lib/Npu/ll_aton/ll_sw_integer.c ****                                         .scale = ((float *)sw_info->ws.mem.start_offset),
 479:../Middlewares/stedgeai-lib/Npu/ll_aton/ll_sw_integer.c ****                                         .zeropoint = ((void *)sw_info->wzp.mem.start_offset),
ARM GAS  /tmp/ccZCp2co.s 			page 46


 480:../Middlewares/stedgeai-lib/Npu/ll_aton/ll_sw_integer.c ****                                     }}};
 481:../Middlewares/stedgeai-lib/Npu/ll_aton/ll_sw_integer.c ****   scale_format = AI_BUFFER_META_FLAG_SCALE_FLOAT;
 482:../Middlewares/stedgeai-lib/Npu/ll_aton/ll_sw_integer.c ****   offset_format =
 483:../Middlewares/stedgeai-lib/Npu/ll_aton/ll_sw_integer.c ****       sw_info->ozp.format.is_signed ? (AI_BUFFER_META_FLAG_ZEROPOINT_S8) : (AI_BUFFER_META_FLAG_ZER
 484:../Middlewares/stedgeai-lib/Npu/ll_aton/ll_sw_integer.c ****   ai_intq_info_list output_intq = {.flags = (scale_format | offset_format),
 485:../Middlewares/stedgeai-lib/Npu/ll_aton/ll_sw_integer.c ****                                    .size = sw_info->os.dim.num_elem,
 486:../Middlewares/stedgeai-lib/Npu/ll_aton/ll_sw_integer.c ****                                    .info = (const ai_intq_info[1]){{
 487:../Middlewares/stedgeai-lib/Npu/ll_aton/ll_sw_integer.c ****                                        .scale = ((float *)sw_info->os.mem.start_offset),
 488:../Middlewares/stedgeai-lib/Npu/ll_aton/ll_sw_integer.c ****                                        .zeropoint = ((void *)sw_info->ozp.mem.start_offset),
 489:../Middlewares/stedgeai-lib/Npu/ll_aton/ll_sw_integer.c ****                                    }}};
 490:../Middlewares/stedgeai-lib/Npu/ll_aton/ll_sw_integer.c **** 
 491:../Middlewares/stedgeai-lib/Npu/ll_aton/ll_sw_integer.c ****   AI_TENSOR_OBJ_DECLARE(conv_weights, , 0x0, 4,
 1856              		.loc 1 491 3 view .LVU527
 1857 008a 4FF08279 		mov	r9, #17039360
 457:../Middlewares/stedgeai-lib/Npu/ll_aton/ll_sw_integer.c ****                        sw_info->general.output.mem.start_offset, sw_info->general.output.dim.num_el
 1858              		.loc 1 457 3 view .LVU528
 1859 008e CDE92666 		strd	r6, r6, [sp, #152]
 460:../Middlewares/stedgeai-lib/Npu/ll_aton/ll_sw_integer.c ****   uint16_t scale_format;
 1860              		.loc 1 460 3 is_stmt 1 view .LVU529
 461:../Middlewares/stedgeai-lib/Npu/ll_aton/ll_sw_integer.c **** 
 1861              		.loc 1 461 3 view .LVU530
 463:../Middlewares/stedgeai-lib/Npu/ll_aton/ll_sw_integer.c ****   offset_format =
 1862              		.loc 1 463 3 view .LVU531
 1863              	.LVL109:
 464:../Middlewares/stedgeai-lib/Npu/ll_aton/ll_sw_integer.c ****       sw_info->izp.format.is_signed ? (AI_BUFFER_META_FLAG_ZEROPOINT_S8) : (AI_BUFFER_META_FLAG_ZER
 1864              		.loc 1 464 3 view .LVU532
 464:../Middlewares/stedgeai-lib/Npu/ll_aton/ll_sw_integer.c ****       sw_info->izp.format.is_signed ? (AI_BUFFER_META_FLAG_ZEROPOINT_S8) : (AI_BUFFER_META_FLAG_ZER
 1865              		.loc 1 464 17 is_stmt 0 view .LVU533
 1866 0092 94F88C61 		ldrb	r6, [r4, #396]	@ zero_extendqisi2
 1867              		.loc 1 491 3 view .LVU534
 1868 0096 40F2024A 		movw	r10, #1026
 464:../Middlewares/stedgeai-lib/Npu/ll_aton/ll_sw_integer.c ****       sw_info->izp.format.is_signed ? (AI_BUFFER_META_FLAG_ZEROPOINT_S8) : (AI_BUFFER_META_FLAG_ZER
 1869              		.loc 1 464 17 discriminator 1 view .LVU535
 1870 009a 002E     		cmp	r6, #0
 1871 009c 0CBF     		ite	eq
 1872 009e 0227     		moveq	r7, #2
 1873 00a0 0427     		movne	r7, #4
 1874              	.LVL110:
 466:../Middlewares/stedgeai-lib/Npu/ll_aton/ll_sw_integer.c ****                                   .size = sw_info->is.dim.num_elem,
 1875              		.loc 1 466 3 is_stmt 1 view .LVU536
 466:../Middlewares/stedgeai-lib/Npu/ll_aton/ll_sw_integer.c ****                                   .size = sw_info->is.dim.num_elem,
 1876              		.loc 1 466 21 is_stmt 0 view .LVU537
 1877 00a2 47F00107 		orr	r7, r7, #1
 1878              	.LVL111:
 466:../Middlewares/stedgeai-lib/Npu/ll_aton/ll_sw_integer.c ****                                   .size = sw_info->is.dim.num_elem,
 1879              		.loc 1 466 21 view .LVU538
 1880 00a6 ADF80C70 		strh	r7, [sp, #12]	@ movhi
 1881 00aa D4F84871 		ldr	r7, [r4, #328]
 468:../Middlewares/stedgeai-lib/Npu/ll_aton/ll_sw_integer.c ****                                       .scale = ((float *)sw_info->is.mem.start_offset),
 1882              		.loc 1 468 66 view .LVU539
 1883 00ae D4F85C61 		ldr	r6, [r4, #348]
 466:../Middlewares/stedgeai-lib/Npu/ll_aton/ll_sw_integer.c ****                                   .size = sw_info->is.dim.num_elem,
 1884              		.loc 1 466 21 view .LVU540
 1885 00b2 ADF80E70 		strh	r7, [sp, #14]	@ movhi
 468:../Middlewares/stedgeai-lib/Npu/ll_aton/ll_sw_integer.c ****                                       .scale = ((float *)sw_info->is.mem.start_offset),
 1886              		.loc 1 468 66 view .LVU541
 1887 00b6 05AF     		add	r7, sp, #20
ARM GAS  /tmp/ccZCp2co.s 			page 47


 466:../Middlewares/stedgeai-lib/Npu/ll_aton/ll_sw_integer.c ****                                   .size = sw_info->is.dim.num_elem,
 1888              		.loc 1 466 21 view .LVU542
 1889 00b8 0497     		str	r7, [sp, #16]
 472:../Middlewares/stedgeai-lib/Npu/ll_aton/ll_sw_integer.c ****   offset_format =
 1890              		.loc 1 472 3 is_stmt 1 view .LVU543
 473:../Middlewares/stedgeai-lib/Npu/ll_aton/ll_sw_integer.c ****       sw_info->wzp.format.is_signed ? (AI_BUFFER_META_FLAG_ZEROPOINT_S8) : (AI_BUFFER_META_FLAG_ZER
 1891              		.loc 1 473 3 view .LVU544
 473:../Middlewares/stedgeai-lib/Npu/ll_aton/ll_sw_integer.c ****       sw_info->wzp.format.is_signed ? (AI_BUFFER_META_FLAG_ZEROPOINT_S8) : (AI_BUFFER_META_FLAG_ZER
 1892              		.loc 1 473 17 is_stmt 0 view .LVU545
 1893 00ba 94F83471 		ldrb	r7, [r4, #308]	@ zero_extendqisi2
 468:../Middlewares/stedgeai-lib/Npu/ll_aton/ll_sw_integer.c ****                                       .scale = ((float *)sw_info->is.mem.start_offset),
 1894              		.loc 1 468 66 view .LVU546
 1895 00be 0596     		str	r6, [sp, #20]
 473:../Middlewares/stedgeai-lib/Npu/ll_aton/ll_sw_integer.c ****       sw_info->wzp.format.is_signed ? (AI_BUFFER_META_FLAG_ZEROPOINT_S8) : (AI_BUFFER_META_FLAG_ZER
 1896              		.loc 1 473 17 discriminator 1 view .LVU547
 1897 00c0 002F     		cmp	r7, #0
 473:../Middlewares/stedgeai-lib/Npu/ll_aton/ll_sw_integer.c ****       sw_info->wzp.format.is_signed ? (AI_BUFFER_META_FLAG_ZEROPOINT_S8) : (AI_BUFFER_META_FLAG_ZER
 1898              		.loc 1 473 17 discriminator 1 view .LVU548
 1899 00c2 0CBF     		ite	eq
 1900 00c4 0227     		moveq	r7, #2
 1901 00c6 0427     		movne	r7, #4
 1902              	.LVL112:
 475:../Middlewares/stedgeai-lib/Npu/ll_aton/ll_sw_integer.c ****                                     .size = sw_info->ws.dim.num_elem,
 1903              		.loc 1 475 3 is_stmt 1 view .LVU549
 475:../Middlewares/stedgeai-lib/Npu/ll_aton/ll_sw_integer.c ****                                     .size = sw_info->ws.dim.num_elem,
 1904              		.loc 1 475 21 is_stmt 0 view .LVU550
 1905 00c8 47F00107 		orr	r7, r7, #1
 1906              	.LVL113:
 475:../Middlewares/stedgeai-lib/Npu/ll_aton/ll_sw_integer.c ****                                     .size = sw_info->ws.dim.num_elem,
 1907              		.loc 1 475 21 view .LVU551
 1908 00cc ADF81C70 		strh	r7, [sp, #28]	@ movhi
 1909 00d0 D4F8F070 		ldr	r7, [r4, #240]
 468:../Middlewares/stedgeai-lib/Npu/ll_aton/ll_sw_integer.c ****                                       .scale = ((float *)sw_info->is.mem.start_offset),
 1910              		.loc 1 468 66 view .LVU552
 1911 00d4 D4F88861 		ldr	r6, [r4, #392]
 475:../Middlewares/stedgeai-lib/Npu/ll_aton/ll_sw_integer.c ****                                     .size = sw_info->ws.dim.num_elem,
 1912              		.loc 1 475 21 view .LVU553
 1913 00d8 ADF81E70 		strh	r7, [sp, #30]	@ movhi
 477:../Middlewares/stedgeai-lib/Npu/ll_aton/ll_sw_integer.c ****                                         .scale = ((float *)sw_info->ws.mem.start_offset),
 1914              		.loc 1 477 68 view .LVU554
 1915 00dc 09AF     		add	r7, sp, #36
 475:../Middlewares/stedgeai-lib/Npu/ll_aton/ll_sw_integer.c ****                                     .size = sw_info->ws.dim.num_elem,
 1916              		.loc 1 475 21 view .LVU555
 1917 00de 0897     		str	r7, [sp, #32]
 481:../Middlewares/stedgeai-lib/Npu/ll_aton/ll_sw_integer.c ****   offset_format =
 1918              		.loc 1 481 3 is_stmt 1 view .LVU556
 482:../Middlewares/stedgeai-lib/Npu/ll_aton/ll_sw_integer.c ****       sw_info->ozp.format.is_signed ? (AI_BUFFER_META_FLAG_ZEROPOINT_S8) : (AI_BUFFER_META_FLAG_ZER
 1919              		.loc 1 482 3 view .LVU557
 482:../Middlewares/stedgeai-lib/Npu/ll_aton/ll_sw_integer.c ****       sw_info->ozp.format.is_signed ? (AI_BUFFER_META_FLAG_ZEROPOINT_S8) : (AI_BUFFER_META_FLAG_ZER
 1920              		.loc 1 482 17 is_stmt 0 view .LVU558
 1921 00e0 94F8E471 		ldrb	r7, [r4, #484]	@ zero_extendqisi2
 468:../Middlewares/stedgeai-lib/Npu/ll_aton/ll_sw_integer.c ****                                       .scale = ((float *)sw_info->is.mem.start_offset),
 1922              		.loc 1 468 66 view .LVU559
 1923 00e4 0696     		str	r6, [sp, #24]
 482:../Middlewares/stedgeai-lib/Npu/ll_aton/ll_sw_integer.c ****       sw_info->ozp.format.is_signed ? (AI_BUFFER_META_FLAG_ZEROPOINT_S8) : (AI_BUFFER_META_FLAG_ZER
 1924              		.loc 1 482 17 discriminator 1 view .LVU560
 1925 00e6 002F     		cmp	r7, #0
ARM GAS  /tmp/ccZCp2co.s 			page 48


 1926              	.LVL114:
 482:../Middlewares/stedgeai-lib/Npu/ll_aton/ll_sw_integer.c ****       sw_info->ozp.format.is_signed ? (AI_BUFFER_META_FLAG_ZEROPOINT_S8) : (AI_BUFFER_META_FLAG_ZER
 1927              		.loc 1 482 17 discriminator 1 view .LVU561
 1928 00e8 0CBF     		ite	eq
 1929 00ea 0227     		moveq	r7, #2
 1930 00ec 0427     		movne	r7, #4
 1931              	.LVL115:
 484:../Middlewares/stedgeai-lib/Npu/ll_aton/ll_sw_integer.c ****                                    .size = sw_info->os.dim.num_elem,
 1932              		.loc 1 484 3 is_stmt 1 view .LVU562
 477:../Middlewares/stedgeai-lib/Npu/ll_aton/ll_sw_integer.c ****                                         .scale = ((float *)sw_info->ws.mem.start_offset),
 1933              		.loc 1 477 68 is_stmt 0 view .LVU563
 1934 00ee D4F80461 		ldr	r6, [r4, #260]
 484:../Middlewares/stedgeai-lib/Npu/ll_aton/ll_sw_integer.c ****                                    .size = sw_info->os.dim.num_elem,
 1935              		.loc 1 484 21 view .LVU564
 1936 00f2 47F00107 		orr	r7, r7, #1
 1937              	.LVL116:
 477:../Middlewares/stedgeai-lib/Npu/ll_aton/ll_sw_integer.c ****                                         .scale = ((float *)sw_info->ws.mem.start_offset),
 1938              		.loc 1 477 68 view .LVU565
 1939 00f6 0996     		str	r6, [sp, #36]
 1940 00f8 D4F83061 		ldr	r6, [r4, #304]
 484:../Middlewares/stedgeai-lib/Npu/ll_aton/ll_sw_integer.c ****                                    .size = sw_info->os.dim.num_elem,
 1941              		.loc 1 484 21 view .LVU566
 1942 00fc ADF82C70 		strh	r7, [sp, #44]	@ movhi
 477:../Middlewares/stedgeai-lib/Npu/ll_aton/ll_sw_integer.c ****                                         .scale = ((float *)sw_info->ws.mem.start_offset),
 1943              		.loc 1 477 68 view .LVU567
 1944 0100 0A96     		str	r6, [sp, #40]
 486:../Middlewares/stedgeai-lib/Npu/ll_aton/ll_sw_integer.c ****                                        .scale = ((float *)sw_info->os.mem.start_offset),
 1945              		.loc 1 486 67 view .LVU568
 1946 0102 D4F8B461 		ldr	r6, [r4, #436]
 484:../Middlewares/stedgeai-lib/Npu/ll_aton/ll_sw_integer.c ****                                    .size = sw_info->os.dim.num_elem,
 1947              		.loc 1 484 21 view .LVU569
 1948 0106 D4F8A071 		ldr	r7, [r4, #416]
 486:../Middlewares/stedgeai-lib/Npu/ll_aton/ll_sw_integer.c ****                                        .scale = ((float *)sw_info->os.mem.start_offset),
 1949              		.loc 1 486 67 view .LVU570
 1950 010a 0D96     		str	r6, [sp, #52]
 1951 010c D4F8E061 		ldr	r6, [r4, #480]
 484:../Middlewares/stedgeai-lib/Npu/ll_aton/ll_sw_integer.c ****                                    .size = sw_info->os.dim.num_elem,
 1952              		.loc 1 484 21 view .LVU571
 1953 0110 ADF82E70 		strh	r7, [sp, #46]	@ movhi
 486:../Middlewares/stedgeai-lib/Npu/ll_aton/ll_sw_integer.c ****                                        .scale = ((float *)sw_info->os.mem.start_offset),
 1954              		.loc 1 486 67 view .LVU572
 1955 0114 0DAF     		add	r7, sp, #52
 1956 0116 0E96     		str	r6, [sp, #56]
 484:../Middlewares/stedgeai-lib/Npu/ll_aton/ll_sw_integer.c ****                                    .size = sw_info->os.dim.num_elem,
 1957              		.loc 1 484 21 view .LVU573
 1958 0118 0C97     		str	r7, [sp, #48]
 1959              		.loc 1 491 3 is_stmt 1 view .LVU574
 1960 011a 28AF     		add	r7, sp, #160
 1961 011c 5797     		str	r7, [sp, #348]
 1962 011e E76F     		ldr	r7, [r4, #124]
 1963 0120 CDF850C1 		str	ip, [sp, #336]
 1964 0124 CDE92C77 		strd	r7, r7, [sp, #176]
 1965 0128 676F     		ldr	r7, [r4, #116]
 1966 012a 40F2014C 		movw	ip, #1025
 1967 012e 2E97     		str	r7, [sp, #184]
 1968 0130 276F     		ldr	r7, [r4, #112]
 1969 0132 666E     		ldr	r6, [r4, #100]
ARM GAS  /tmp/ccZCp2co.s 			page 49


 1970 0134 2F97     		str	r7, [sp, #188]
 492:../Middlewares/stedgeai-lib/Npu/ll_aton/ll_sw_integer.c ****                         SHAPE_INIT(sw_info->weights.dim.tensor_b, sw_info->weights.dim.tensor_h,
 493:../Middlewares/stedgeai-lib/Npu/ll_aton/ll_sw_integer.c ****                                    sw_info->weights.dim.tensor_w, sw_info->weights.dim.tensor_c),
 494:../Middlewares/stedgeai-lib/Npu/ll_aton/ll_sw_integer.c ****                         STRIDE_INIT(sw_info->weights.stride.h, sw_info->weights.stride.w, sw_info->
 495:../Middlewares/stedgeai-lib/Npu/ll_aton/ll_sw_integer.c ****                                     sw_info->weights.stride.b),
 496:../Middlewares/stedgeai-lib/Npu/ll_aton/ll_sw_integer.c ****                         1, &conv_weights_array, &weights_intq);
 497:../Middlewares/stedgeai-lib/Npu/ll_aton/ll_sw_integer.c ****   AI_TENSOR_OBJ_DECLARE(conv_scratch0, , 0x0, 4,
 1971              		.loc 1 497 3 is_stmt 0 view .LVU575
 1972 0136 0027     		movs	r7, #0
 491:../Middlewares/stedgeai-lib/Npu/ll_aton/ll_sw_integer.c ****                         SHAPE_INIT(sw_info->weights.dim.tensor_b, sw_info->weights.dim.tensor_h,
 1973              		.loc 1 491 3 view .LVU576
 1974 0138 2896     		str	r6, [sp, #160]
 1975 013a 266E     		ldr	r6, [r4, #96]
 1976 013c 0DF1B00B 		add	fp, sp, #176
 1977 0140 2996     		str	r6, [sp, #164]
 1978 0142 E66D     		ldr	r6, [r4, #92]
 1979 0144 CDE959B5 		strd	fp, r5, [sp, #356]
 496:../Middlewares/stedgeai-lib/Npu/ll_aton/ll_sw_integer.c ****   AI_TENSOR_OBJ_DECLARE(conv_scratch0, , 0x0, 4,
 1980              		.loc 1 496 63 is_stmt 1 view .LVU577
 1981              		.loc 1 497 3 view .LVU578
 491:../Middlewares/stedgeai-lib/Npu/ll_aton/ll_sw_integer.c ****                         SHAPE_INIT(sw_info->weights.dim.tensor_b, sw_info->weights.dim.tensor_h,
 1982              		.loc 1 491 3 is_stmt 0 view .LVU579
 1983 0148 2A96     		str	r6, [sp, #168]
 1984 014a A66E     		ldr	r6, [r4, #104]
 1985              		.loc 1 497 3 view .LVU580
 1986 014c 30AD     		add	r5, sp, #192
 491:../Middlewares/stedgeai-lib/Npu/ll_aton/ll_sw_integer.c ****                         SHAPE_INIT(sw_info->weights.dim.tensor_b, sw_info->weights.dim.tensor_h,
 1987              		.loc 1 491 3 view .LVU581
 1988 014e 2B96     		str	r6, [sp, #172]
 1989              		.loc 1 497 3 view .LVU582
 1990 0150 D4F89460 		ldr	r6, [r4, #148]
 491:../Middlewares/stedgeai-lib/Npu/ll_aton/ll_sw_integer.c ****                         SHAPE_INIT(sw_info->weights.dim.tensor_b, sw_info->weights.dim.tensor_h,
 1991              		.loc 1 491 3 view .LVU583
 1992 0154 CDE9559C 		strd	r9, ip, [sp, #340]
 1993              		.loc 1 497 3 view .LVU584
 1994 0158 3096     		str	r6, [sp, #192]
 1995 015a D4F89060 		ldr	r6, [r4, #144]
 1996 015e CDE95B79 		strd	r7, r9, [sp, #364]
 1997 0162 3196     		str	r6, [sp, #196]
 1998 0164 D4F88C60 		ldr	r6, [r4, #140]
 491:../Middlewares/stedgeai-lib/Npu/ll_aton/ll_sw_integer.c ****                         SHAPE_INIT(sw_info->weights.dim.tensor_b, sw_info->weights.dim.tensor_h,
 1999              		.loc 1 491 3 view .LVU585
 2000 0168 CDF860A1 		str	r10, [sp, #352]
 2001              		.loc 1 497 3 view .LVU586
 2002 016c 3296     		str	r6, [sp, #200]
 2003 016e D4F88860 		ldr	r6, [r4, #136]
 2004 0172 CDF874C1 		str	ip, [sp, #372]
 2005 0176 3396     		str	r6, [sp, #204]
 2006 0178 CDE95E5A 		strd	r5, r10, [sp, #376]
 2007 017c 34AD     		add	r5, sp, #208
 2008 017e CDE96050 		strd	r5, r0, [sp, #384]
 498:../Middlewares/stedgeai-lib/Npu/ll_aton/ll_sw_integer.c ****                         SHAPE_INIT(sw_info->scratch.dim.tensor_h, sw_info->scratch.dim.tensor_w,
 499:../Middlewares/stedgeai-lib/Npu/ll_aton/ll_sw_integer.c ****                                    sw_info->scratch.dim.tensor_c, sw_info->scratch.dim.tensor_b),
 500:../Middlewares/stedgeai-lib/Npu/ll_aton/ll_sw_integer.c ****                         STRIDE_INIT(sw_info->scratch.stride.h, sw_info->scratch.stride.w, sw_info->
 501:../Middlewares/stedgeai-lib/Npu/ll_aton/ll_sw_integer.c ****                                     sw_info->scratch.stride.b),
 502:../Middlewares/stedgeai-lib/Npu/ll_aton/ll_sw_integer.c ****                         1, &conv_scratch0_array, NULL);
 2009              		.loc 1 502 55 is_stmt 1 view .LVU587
ARM GAS  /tmp/ccZCp2co.s 			page 50


 503:../Middlewares/stedgeai-lib/Npu/ll_aton/ll_sw_integer.c ****   AI_TENSOR_OBJ_DECLARE(input_output, , 0x0, 4,
 2010              		.loc 1 503 3 view .LVU588
 2011 0182 03A8     		add	r0, sp, #12
 2012 0184 CDE96209 		strd	r0, r9, [sp, #392]
 2013 0188 2069     		ldr	r0, [r4, #16]
 497:../Middlewares/stedgeai-lib/Npu/ll_aton/ll_sw_integer.c ****                         SHAPE_INIT(sw_info->scratch.dim.tensor_h, sw_info->scratch.dim.tensor_w,
 2014              		.loc 1 497 3 is_stmt 0 view .LVU589
 2015 018a D4F8A860 		ldr	r6, [r4, #168]
 2016              		.loc 1 503 3 view .LVU590
 2017 018e 3890     		str	r0, [sp, #224]
 2018 0190 E068     		ldr	r0, [r4, #12]
 497:../Middlewares/stedgeai-lib/Npu/ll_aton/ll_sw_integer.c ****                         SHAPE_INIT(sw_info->scratch.dim.tensor_h, sw_info->scratch.dim.tensor_w,
 2019              		.loc 1 497 3 view .LVU591
 2020 0192 3496     		str	r6, [sp, #208]
 2021              		.loc 1 503 3 view .LVU592
 2022 0194 3990     		str	r0, [sp, #228]
 2023 0196 A068     		ldr	r0, [r4, #8]
 497:../Middlewares/stedgeai-lib/Npu/ll_aton/ll_sw_integer.c ****                         SHAPE_INIT(sw_info->scratch.dim.tensor_h, sw_info->scratch.dim.tensor_w,
 2024              		.loc 1 497 3 view .LVU593
 2025 0198 D4F8A460 		ldr	r6, [r4, #164]
 2026              		.loc 1 503 3 view .LVU594
 2027 019c 3A90     		str	r0, [sp, #232]
 2028 019e 6068     		ldr	r0, [r4, #4]
 497:../Middlewares/stedgeai-lib/Npu/ll_aton/ll_sw_integer.c ****                         SHAPE_INIT(sw_info->scratch.dim.tensor_h, sw_info->scratch.dim.tensor_w,
 2029              		.loc 1 497 3 view .LVU595
 2030 01a0 3596     		str	r6, [sp, #212]
 2031              		.loc 1 503 3 view .LVU596
 2032 01a2 3B90     		str	r0, [sp, #236]
 2033 01a4 606A     		ldr	r0, [r4, #36]
 497:../Middlewares/stedgeai-lib/Npu/ll_aton/ll_sw_integer.c ****                         SHAPE_INIT(sw_info->scratch.dim.tensor_h, sw_info->scratch.dim.tensor_w,
 2034              		.loc 1 497 3 view .LVU597
 2035 01a6 D4F8A060 		ldr	r6, [r4, #160]
 2036              		.loc 1 503 3 view .LVU598
 2037 01aa 3C90     		str	r0, [sp, #240]
 2038 01ac 206A     		ldr	r0, [r4, #32]
 497:../Middlewares/stedgeai-lib/Npu/ll_aton/ll_sw_integer.c ****                         SHAPE_INIT(sw_info->scratch.dim.tensor_h, sw_info->scratch.dim.tensor_w,
 2039              		.loc 1 497 3 view .LVU599
 2040 01ae 3696     		str	r6, [sp, #216]
 2041              		.loc 1 503 3 view .LVU600
 2042 01b0 3D90     		str	r0, [sp, #244]
 2043 01b2 E069     		ldr	r0, [r4, #28]
 497:../Middlewares/stedgeai-lib/Npu/ll_aton/ll_sw_integer.c ****                         SHAPE_INIT(sw_info->scratch.dim.tensor_h, sw_info->scratch.dim.tensor_w,
 2044              		.loc 1 497 3 view .LVU601
 2045 01b4 D4F89C60 		ldr	r6, [r4, #156]
 2046              		.loc 1 503 3 view .LVU602
 2047 01b8 38AD     		add	r5, sp, #224
 2048 01ba 3E90     		str	r0, [sp, #248]
 2049 01bc A069     		ldr	r0, [r4, #24]
 2050 01be CDE9655A 		strd	r5, r10, [sp, #404]
 2051 01c2 3CAD     		add	r5, sp, #240
 497:../Middlewares/stedgeai-lib/Npu/ll_aton/ll_sw_integer.c ****                         SHAPE_INIT(sw_info->scratch.dim.tensor_h, sw_info->scratch.dim.tensor_w,
 2052              		.loc 1 497 3 view .LVU603
 2053 01c4 3796     		str	r6, [sp, #220]
 2054              		.loc 1 503 3 view .LVU604
 2055 01c6 CDF890C1 		str	ip, [sp, #400]
 2056 01ca 3F90     		str	r0, [sp, #252]
 2057 01cc CDE96751 		strd	r5, r1, [sp, #412]
ARM GAS  /tmp/ccZCp2co.s 			page 51


 504:../Middlewares/stedgeai-lib/Npu/ll_aton/ll_sw_integer.c ****                         SHAPE_INIT(sw_info->general.input.dim.tensor_h, sw_info->general.input.dim.
 505:../Middlewares/stedgeai-lib/Npu/ll_aton/ll_sw_integer.c ****                                    sw_info->general.input.dim.tensor_c, sw_info->general.input.dim.
 506:../Middlewares/stedgeai-lib/Npu/ll_aton/ll_sw_integer.c ****                         STRIDE_INIT(sw_info->general.input.stride.h, sw_info->general.input.stride.
 507:../Middlewares/stedgeai-lib/Npu/ll_aton/ll_sw_integer.c ****                                     sw_info->general.input.stride.c, sw_info->general.input.stride.
 508:../Middlewares/stedgeai-lib/Npu/ll_aton/ll_sw_integer.c ****                         1, &input_output_array, &input_intq);
 2058              		.loc 1 508 61 is_stmt 1 view .LVU605
 509:../Middlewares/stedgeai-lib/Npu/ll_aton/ll_sw_integer.c ****   AI_TENSOR_OBJ_DECLARE(
 2059              		.loc 1 509 3 view .LVU606
 2060 01d0 D4F8C010 		ldr	r1, [r4, #192]
 2061 01d4 40A8     		add	r0, sp, #256
 2062 01d6 4091     		str	r1, [sp, #256]
 2063 01d8 D4F8BC10 		ldr	r1, [r4, #188]
 2064 01dc CDE96C0A 		strd	r0, r10, [sp, #432]
 2065 01e0 4191     		str	r1, [sp, #260]
 2066 01e2 D4F8B810 		ldr	r1, [r4, #184]
 2067 01e6 44A8     		add	r0, sp, #272
 2068 01e8 4291     		str	r1, [sp, #264]
 2069 01ea D4F8B410 		ldr	r1, [r4, #180]
 2070 01ee CDE96E02 		strd	r0, r2, [sp, #440]
 510:../Middlewares/stedgeai-lib/Npu/ll_aton/ll_sw_integer.c ****       conv_bias, , 0x0, 4,
 511:../Middlewares/stedgeai-lib/Npu/ll_aton/ll_sw_integer.c ****       SHAPE_INIT(sw_info->bias.dim.tensor_h, sw_info->bias.dim.tensor_w, sw_info->bias.dim.tensor_c
 512:../Middlewares/stedgeai-lib/Npu/ll_aton/ll_sw_integer.c ****                  sw_info->bias.dim.tensor_b),
 513:../Middlewares/stedgeai-lib/Npu/ll_aton/ll_sw_integer.c ****       STRIDE_INIT(sw_info->bias.stride.h, sw_info->bias.stride.w, sw_info->bias.stride.c, sw_info->
 514:../Middlewares/stedgeai-lib/Npu/ll_aton/ll_sw_integer.c ****       &conv_bias_array, NULL);
 2071              		.loc 1 514 30 view .LVU607
 515:../Middlewares/stedgeai-lib/Npu/ll_aton/ll_sw_integer.c ****   AI_TENSOR_OBJ_DECLARE(conv_output, , 0x0, 4,
 2072              		.loc 1 515 3 view .LVU608
 509:../Middlewares/stedgeai-lib/Npu/ll_aton/ll_sw_integer.c ****   AI_TENSOR_OBJ_DECLARE(
 2073              		.loc 1 509 3 is_stmt 0 view .LVU609
 2074 01f2 4391     		str	r1, [sp, #268]
 2075 01f4 D4F8D410 		ldr	r1, [r4, #212]
 2076              		.loc 1 515 3 view .LVU610
 2077 01f8 48AA     		add	r2, sp, #288
 509:../Middlewares/stedgeai-lib/Npu/ll_aton/ll_sw_integer.c ****   AI_TENSOR_OBJ_DECLARE(
 2078              		.loc 1 509 3 view .LVU611
 2079 01fa 0160     		str	r1, [r0]
 2080 01fc D4F8D010 		ldr	r1, [r4, #208]
 484:../Middlewares/stedgeai-lib/Npu/ll_aton/ll_sw_integer.c ****                                    .size = sw_info->os.dim.num_elem,
 2081              		.loc 1 484 21 view .LVU612
 2082 0200 0DF12C0E 		add	lr, sp, #44
 509:../Middlewares/stedgeai-lib/Npu/ll_aton/ll_sw_integer.c ****       conv_bias, , 0x0, 4,
 2083              		.loc 1 509 3 view .LVU613
 2084 0204 4160     		str	r1, [r0, #4]
 2085 0206 D4F8CC10 		ldr	r1, [r4, #204]
 457:../Middlewares/stedgeai-lib/Npu/ll_aton/ll_sw_integer.c ****                        sw_info->general.output.mem.start_offset, sw_info->general.output.dim.num_el
 2086              		.loc 1 457 3 view .LVU614
 2087 020a 24AB     		add	r3, sp, #144
 2088              	.LVL117:
 509:../Middlewares/stedgeai-lib/Npu/ll_aton/ll_sw_integer.c ****       conv_bias, , 0x0, 4,
 2089              		.loc 1 509 3 view .LVU615
 2090 020c 8160     		str	r1, [r0, #8]
 2091 020e D4F8C810 		ldr	r1, [r4, #200]
 2092 0212 CDE96979 		strd	r7, r9, [sp, #420]
 2093 0216 C160     		str	r1, [r0, #12]
 2094              		.loc 1 515 3 view .LVU616
 2095 0218 E16B     		ldr	r1, [r4, #60]
 2096 021a CDE970E9 		strd	lr, r9, [sp, #448]
ARM GAS  /tmp/ccZCp2co.s 			page 52


 2097 021e 4891     		str	r1, [sp, #288]
 2098 0220 A16B     		ldr	r1, [r4, #56]
 509:../Middlewares/stedgeai-lib/Npu/ll_aton/ll_sw_integer.c ****       conv_bias, , 0x0, 4,
 2099              		.loc 1 509 3 view .LVU617
 2100 0222 CDF8ACC1 		str	ip, [sp, #428]
 2101              		.loc 1 515 3 view .LVU618
 2102 0226 CDF8C8C1 		str	ip, [sp, #456]
 2103 022a 4991     		str	r1, [sp, #292]
 2104 022c 616B     		ldr	r1, [r4, #52]
 2105 022e CDE9732A 		strd	r2, r10, [sp, #460]
 2106 0232 4CAA     		add	r2, sp, #304
 2107 0234 CDE97523 		strd	r2, r3, [sp, #468]
 516:../Middlewares/stedgeai-lib/Npu/ll_aton/ll_sw_integer.c ****                         SHAPE_INIT(sw_info->general.output.dim.tensor_h, sw_info->general.output.di
 517:../Middlewares/stedgeai-lib/Npu/ll_aton/ll_sw_integer.c ****                                    sw_info->general.output.dim.tensor_c, sw_info->general.output.di
 518:../Middlewares/stedgeai-lib/Npu/ll_aton/ll_sw_integer.c ****                         STRIDE_INIT(sw_info->general.output.stride.h, sw_info->general.output.strid
 519:../Middlewares/stedgeai-lib/Npu/ll_aton/ll_sw_integer.c ****                                     sw_info->general.output.stride.c, sw_info->general.output.strid
 520:../Middlewares/stedgeai-lib/Npu/ll_aton/ll_sw_integer.c ****                         1, &conv_output_array, &output_intq);
 2108              		.loc 1 520 61 is_stmt 1 view .LVU619
 521:../Middlewares/stedgeai-lib/Npu/ll_aton/ll_sw_integer.c ****   // tensor chain initialization
 522:../Middlewares/stedgeai-lib/Npu/ll_aton/ll_sw_integer.c ****   AI_TENSOR_CHAIN_OBJ_DECLARE(conv_chain, , 4, AI_TENSOR_LIST_OBJ_INIT(AI_FLAG_NONE, 1, TENSORS(&in
 2109              		.loc 1 522 3 view .LVU620
 2110 0238 0423     		movs	r3, #4
 2111              	.LVL118:
 2112              		.loc 1 522 3 is_stmt 0 view .LVU621
 2113 023a 0F93     		str	r3, [sp, #60]
 2114 023c 6B46     		mov	r3, sp
 2115 023e CDE97837 		strd	r3, r7, [sp, #480]
 2116 0242 01AB     		add	r3, sp, #4
 2117 0244 CDE97B37 		strd	r3, r7, [sp, #492]
 2118 0248 0323     		movs	r3, #3
 2119 024a 0122     		movs	r2, #1
 515:../Middlewares/stedgeai-lib/Npu/ll_aton/ll_sw_integer.c ****                         SHAPE_INIT(sw_info->general.output.dim.tensor_h, sw_info->general.output.di
 2120              		.loc 1 515 3 view .LVU622
 2121 024c 4A91     		str	r1, [sp, #296]
 2122 024e 216B     		ldr	r1, [r4, #48]
 2123              		.loc 1 522 3 view .LVU623
 2124 0250 7D93     		str	r3, [sp, #500]
 515:../Middlewares/stedgeai-lib/Npu/ll_aton/ll_sw_integer.c ****                         SHAPE_INIT(sw_info->general.output.dim.tensor_h, sw_info->general.output.di
 2125              		.loc 1 515 3 view .LVU624
 2126 0252 4B91     		str	r1, [sp, #300]
 2127 0254 216D     		ldr	r1, [r4, #80]
 2128              		.loc 1 522 3 view .LVU625
 2129 0256 11AB     		add	r3, sp, #68
 515:../Middlewares/stedgeai-lib/Npu/ll_aton/ll_sw_integer.c ****                         SHAPE_INIT(sw_info->general.output.dim.tensor_h, sw_info->general.output.di
 2130              		.loc 1 515 3 view .LVU626
 2131 0258 4C91     		str	r1, [sp, #304]
 2132 025a E16C     		ldr	r1, [r4, #76]
 2133              		.loc 1 522 3 view .LVU627
 2134 025c CDE97E37 		strd	r3, r7, [sp, #504]
 515:../Middlewares/stedgeai-lib/Npu/ll_aton/ll_sw_integer.c ****                         SHAPE_INIT(sw_info->general.output.dim.tensor_h, sw_info->general.output.di
 2135              		.loc 1 515 3 view .LVU628
 2136 0260 4D91     		str	r1, [sp, #308]
 2137 0262 A16C     		ldr	r1, [r4, #72]
 2138              		.loc 1 522 3 view .LVU629
 2139 0264 7792     		str	r2, [sp, #476]
 515:../Middlewares/stedgeai-lib/Npu/ll_aton/ll_sw_integer.c ****                         SHAPE_INIT(sw_info->general.output.dim.tensor_h, sw_info->general.output.di
 2140              		.loc 1 515 3 view .LVU630
ARM GAS  /tmp/ccZCp2co.s 			page 53


 2141 0266 4E91     		str	r1, [sp, #312]
 2142 0268 616C     		ldr	r1, [r4, #68]
 2143              		.loc 1 522 3 view .LVU631
 2144 026a 7A92     		str	r2, [sp, #488]
 515:../Middlewares/stedgeai-lib/Npu/ll_aton/ll_sw_integer.c ****                         SHAPE_INIT(sw_info->general.output.dim.tensor_h, sw_info->general.output.di
 2145              		.loc 1 515 3 view .LVU632
 2146 026c 4F91     		str	r1, [sp, #316]
 2147              		.loc 1 522 3 view .LVU633
 2148 026e 62A9     		add	r1, sp, #392
 2149 0270 0091     		str	r1, [sp]
 2150 0272 70A9     		add	r1, sp, #448
 2151 0274 0191     		str	r1, [sp, #4]
 2152 0276 8092     		str	r2, [sp, #512]
 2153 0278 02AB     		add	r3, sp, #8
 491:../Middlewares/stedgeai-lib/Npu/ll_aton/ll_sw_integer.c ****                         SHAPE_INIT(sw_info->weights.dim.tensor_b, sw_info->weights.dim.tensor_h,
 2154              		.loc 1 491 3 view .LVU634
 2155 027a 0DF5A878 		add	r8, sp, #336
 2156              		.loc 1 522 3 view .LVU635
 2157 027e 69A9     		add	r1, sp, #420
 2158 0280 5BAA     		add	r2, sp, #364
 2159 0282 CDE91217 		strd	r1, r7, [sp, #72]
 2160 0286 CDF84480 		str	r8, [sp, #68]
 2161 028a 0292     		str	r2, [sp, #8]
 2162 028c CDE98137 		strd	r3, r7, [sp, #516]
 2163 0290 77AB     		add	r3, sp, #476
 2164 0292 1093     		str	r3, [sp, #64]
 523:../Middlewares/stedgeai-lib/Npu/ll_aton/ll_sw_integer.c ****                               AI_TENSOR_LIST_OBJ_INIT(AI_FLAG_NONE, 1, TENSORS(&conv_output)),
 524:../Middlewares/stedgeai-lib/Npu/ll_aton/ll_sw_integer.c ****                               AI_TENSOR_LIST_OBJ_INIT(AI_FLAG_NONE, 3, TENSORS(&conv_weights, &conv
 525:../Middlewares/stedgeai-lib/Npu/ll_aton/ll_sw_integer.c ****                               AI_TENSOR_LIST_OBJ_INIT(AI_FLAG_NONE, 1, TENSORS(&conv_scratch0)))
 526:../Middlewares/stedgeai-lib/Npu/ll_aton/ll_sw_integer.c **** 
 527:../Middlewares/stedgeai-lib/Npu/ll_aton/ll_sw_integer.c ****   switch (sw_info->fwd_func)
 2165              		.loc 1 527 3 is_stmt 1 view .LVU636
 2166 0294 94F81432 		ldrb	r3, [r4, #532]	@ zero_extendqisi2
 522:../Middlewares/stedgeai-lib/Npu/ll_aton/ll_sw_integer.c ****                               AI_TENSOR_LIST_OBJ_INIT(AI_FLAG_NONE, 1, TENSORS(&conv_output)),
 2167              		.loc 1 522 3 is_stmt 0 view .LVU637
 2168 0298 0FAD     		add	r5, sp, #60
 2169              		.loc 1 527 3 view .LVU638
 2170 029a 052B     		cmp	r3, #5
 2171 029c 47D8     		bhi	.L62
 2172 029e DFE813F0 		tbh	[pc, r3, lsl #1]
 2173              	.LVL119:
 2174              	.L72:
 2175 02a2 1900     		.2byte	(.L77-.L72)/2
 2176 02a4 4A00     		.2byte	(.L76-.L72)/2
 2177 02a6 7800     		.2byte	(.L75-.L72)/2
 2178 02a8 A600     		.2byte	(.L74-.L72)/2
 2179 02aa D400     		.2byte	(.L73-.L72)/2
 2180 02ac 0201     		.2byte	(.L71-.L72)/2
 2181              		.p2align 1
 2182              	.L78:
 444:../Middlewares/stedgeai-lib/Npu/ll_aton/ll_sw_integer.c ****   AI_ARRAY_OBJ_DECLARE(input_output_array, format, sw_info->general.input.mem.start_offset,
 2183              		.loc 1 444 52 discriminator 2 view .LVU639
 2184 02ae 074B     		ldr	r3, .L86+12
 2185 02b0 B1E6     		b	.L63
 2186              	.LVL120:
 2187              	.L79:
 447:../Middlewares/stedgeai-lib/Npu/ll_aton/ll_sw_integer.c ****   AI_ARRAY_OBJ_DECLARE(conv_weights_array, format, sw_info->weights.mem.start_offset, sw_info->weig
ARM GAS  /tmp/ccZCp2co.s 			page 54


 2188              		.loc 1 447 69 discriminator 2 view .LVU640
 2189 02b2 074B     		ldr	r3, .L86+16
 2190 02b4 BCE6     		b	.L64
 2191              	.LVL121:
 2192              	.L80:
 450:../Middlewares/stedgeai-lib/Npu/ll_aton/ll_sw_integer.c ****   AI_ARRAY_OBJ_DECLARE(conv_scratch0_array, format, sw_info->scratch.mem.start_offset,
 2193              		.loc 1 450 69 discriminator 2 view .LVU641
 2194 02b6 064B     		ldr	r3, .L86+16
 2195 02b8 C8E6     		b	.L65
 2196              	.LVL122:
 2197              	.L81:
 456:../Middlewares/stedgeai-lib/Npu/ll_aton/ll_sw_integer.c ****   AI_ARRAY_OBJ_DECLARE(conv_output_array, format, sw_info->general.output.mem.start_offset,
 2198              		.loc 1 456 53 discriminator 2 view .LVU642
 2199 02ba 044E     		ldr	r6, .L86+12
 2200 02bc DFE6     		b	.L66
 2201              	.L87:
 2202 02be 00BF     		.align	2
 2203              	.L86:
 2204 02c0 40048408 		.word	142869568
 2205 02c4 40048400 		.word	8651840
 2206 02c8 40108400 		.word	8654912
 2207 02cc 40040408 		.word	134480960
 2208 02d0 40040400 		.word	263232
 2209              	.LVL123:
 2210              	.L77:
 2211              	.LBB2:
 528:../Middlewares/stedgeai-lib/Npu/ll_aton/ll_sw_integer.c ****   {
 529:../Middlewares/stedgeai-lib/Npu/ll_aton/ll_sw_integer.c ****   case LL_SW_SSSA_PW_CONV:
 530:../Middlewares/stedgeai-lib/Npu/ll_aton/ll_sw_integer.c ****   {
 531:../Middlewares/stedgeai-lib/Npu/ll_aton/ll_sw_integer.c **** #ifdef LL_SW_DUMP_DEBUG
 532:../Middlewares/stedgeai-lib/Npu/ll_aton/ll_sw_integer.c ****     LL_ATON_PRINTF("POINTWISE");
 533:../Middlewares/stedgeai-lib/Npu/ll_aton/ll_sw_integer.c **** #endif
 534:../Middlewares/stedgeai-lib/Npu/ll_aton/ll_sw_integer.c ****     AI_LAYER_OBJ_DECLARE(
 2212              		.loc 1 534 5 is_stmt 1 view .LVU643
 2213 02d4 8B4B     		ldr	r3, .L88
 2214 02d6 4022     		movs	r2, #64
 2215 02d8 0021     		movs	r1, #0
 2216 02da 84A8     		add	r0, sp, #528
 2217 02dc 8393     		str	r3, [sp, #524]
 2218 02de FFF7FEFF 		bl	memset
 2219              	.LVL124:
 2220              		.loc 1 534 5 is_stmt 0 view .LVU644
 2221 02e2 894B     		ldr	r3, .L88+4
 2222 02e4 D4F8EC21 		ldr	r2, [r4, #492]
 2223 02e8 CDE98835 		strd	r3, r5, [sp, #544]
 2224 02ec D4F8E831 		ldr	r3, [r4, #488]
 2225 02f0 5092     		str	r2, [sp, #320]
 2226 02f2 8A93     		str	r3, [sp, #552]
 2227 02f4 D4F80032 		ldr	r3, [r4, #512]
 2228 02f8 D4F8F021 		ldr	r2, [r4, #496]
 2229 02fc 8D93     		str	r3, [sp, #564]
 2230 02fe D4F8FC31 		ldr	r3, [r4, #508]
 2231 0302 5192     		str	r2, [sp, #324]
 2232 0304 8E93     		str	r3, [sp, #568]
 2233 0306 D4F81032 		ldr	r3, [r4, #528]
 2234 030a D4F8F421 		ldr	r2, [r4, #500]
 2235 030e 8F93     		str	r3, [sp, #572]
ARM GAS  /tmp/ccZCp2co.s 			page 55


 2236 0310 D4F80C32 		ldr	r3, [r4, #524]
 2237 0314 5292     		str	r2, [sp, #328]
 2238 0316 9093     		str	r3, [sp, #576]
 2239 0318 40F20143 		movw	r3, #1025
 2240 031c D4F8F821 		ldr	r2, [r4, #504]
 2241 0320 9193     		str	r3, [sp, #580]
 535:../Middlewares/stedgeai-lib/Npu/ll_aton/ll_sw_integer.c ****         conv_layer, 1, CONV2D_TYPE, 0x0, NULL, conv2d, forward_pw_sssa8_ch /*_fixed*/, &conv_chain,
 536:../Middlewares/stedgeai-lib/Npu/ll_aton/ll_sw_integer.c ****         .groups = sw_info->ngroup, .nl_params = NULL, .nl_func = NULL,
 537:../Middlewares/stedgeai-lib/Npu/ll_aton/ll_sw_integer.c ****         .filter_stride = SHAPE_2D_INIT(sw_info->strides[0], sw_info->strides[1]), // controlla perc
 538:../Middlewares/stedgeai-lib/Npu/ll_aton/ll_sw_integer.c ****         .filter_pad = SHAPE_INIT(sw_info->pads[3], sw_info->pads[2], sw_info->pads[1], sw_info->pad
 539:../Middlewares/stedgeai-lib/Npu/ll_aton/ll_sw_integer.c ****         .dilation = SHAPE_2D_INIT(sw_info->dilations[0], sw_info->dilations[1]), )
 540:../Middlewares/stedgeai-lib/Npu/ll_aton/ll_sw_integer.c ****     conv_layer.forward(AI_LAYER_OBJ(&conv_layer));
 2242              		.loc 1 540 5 view .LVU645
 2243 0322 83A8     		add	r0, sp, #524
 534:../Middlewares/stedgeai-lib/Npu/ll_aton/ll_sw_integer.c ****         conv_layer, 1, CONV2D_TYPE, 0x0, NULL, conv2d, forward_pw_sssa8_ch /*_fixed*/, &conv_chain,
 2244              		.loc 1 534 5 view .LVU646
 2245 0324 50AB     		add	r3, sp, #320
 2246 0326 5392     		str	r2, [sp, #332]
 2247 0328 9293     		str	r3, [sp, #584]
 2248              		.loc 1 540 5 is_stmt 1 view .LVU647
 2249 032a FFF7FEFF 		bl	forward_pw_sssa8_ch
 2250              	.LVL125:
 2251              	.LBE2:
 541:../Middlewares/stedgeai-lib/Npu/ll_aton/ll_sw_integer.c ****   }
 542:../Middlewares/stedgeai-lib/Npu/ll_aton/ll_sw_integer.c ****   break;
 2252              		.loc 1 542 3 view .LVU648
 2253              	.L62:
 543:../Middlewares/stedgeai-lib/Npu/ll_aton/ll_sw_integer.c ****   case LL_SW_SSSA_RGB_CONV:
 544:../Middlewares/stedgeai-lib/Npu/ll_aton/ll_sw_integer.c ****   {
 545:../Middlewares/stedgeai-lib/Npu/ll_aton/ll_sw_integer.c **** #ifdef LL_SW_DUMP_DEBUG
 546:../Middlewares/stedgeai-lib/Npu/ll_aton/ll_sw_integer.c ****     LL_ATON_PRINTF("RGB");
 547:../Middlewares/stedgeai-lib/Npu/ll_aton/ll_sw_integer.c **** #endif
 548:../Middlewares/stedgeai-lib/Npu/ll_aton/ll_sw_integer.c ****     AI_LAYER_OBJ_DECLARE(
 549:../Middlewares/stedgeai-lib/Npu/ll_aton/ll_sw_integer.c ****         conv_layer, 1, CONV2D_TYPE, 0x0, NULL, conv2d, forward_conv2d_rgb_sssa8_ch /*_fixed*/, &con
 550:../Middlewares/stedgeai-lib/Npu/ll_aton/ll_sw_integer.c ****         , .groups = sw_info->ngroup, .nl_params = NULL, .nl_func = NULL,
 551:../Middlewares/stedgeai-lib/Npu/ll_aton/ll_sw_integer.c ****         .filter_stride = SHAPE_2D_INIT(sw_info->strides[0], sw_info->strides[1]), // controlla perc
 552:../Middlewares/stedgeai-lib/Npu/ll_aton/ll_sw_integer.c ****         .filter_pad = SHAPE_INIT(sw_info->pads[3], sw_info->pads[2], sw_info->pads[1], sw_info->pad
 553:../Middlewares/stedgeai-lib/Npu/ll_aton/ll_sw_integer.c ****         .dilation = SHAPE_2D_INIT(sw_info->dilations[0], sw_info->dilations[1]), )
 554:../Middlewares/stedgeai-lib/Npu/ll_aton/ll_sw_integer.c ****     conv_layer.forward(AI_LAYER_OBJ(&conv_layer));
 555:../Middlewares/stedgeai-lib/Npu/ll_aton/ll_sw_integer.c ****   }
 556:../Middlewares/stedgeai-lib/Npu/ll_aton/ll_sw_integer.c ****   break;
 557:../Middlewares/stedgeai-lib/Npu/ll_aton/ll_sw_integer.c ****   case LL_SW_SSSA_DW_CONV:
 558:../Middlewares/stedgeai-lib/Npu/ll_aton/ll_sw_integer.c ****   {
 559:../Middlewares/stedgeai-lib/Npu/ll_aton/ll_sw_integer.c **** #ifdef LL_SW_DUMP_DEBUG
 560:../Middlewares/stedgeai-lib/Npu/ll_aton/ll_sw_integer.c ****     LL_ATON_PRINTF("GROUP");
 561:../Middlewares/stedgeai-lib/Npu/ll_aton/ll_sw_integer.c **** #endif
 562:../Middlewares/stedgeai-lib/Npu/ll_aton/ll_sw_integer.c ****     AI_LAYER_OBJ_DECLARE(
 563:../Middlewares/stedgeai-lib/Npu/ll_aton/ll_sw_integer.c ****         conv_layer, 1, CONV2D_TYPE, 0x0, NULL, conv2d, forward_dw_dm_sssa8_ch /*_fixed*/, &conv_cha
 564:../Middlewares/stedgeai-lib/Npu/ll_aton/ll_sw_integer.c ****         .groups = sw_info->ngroup, .nl_params = NULL, .nl_func = NULL,
 565:../Middlewares/stedgeai-lib/Npu/ll_aton/ll_sw_integer.c ****         .filter_stride = SHAPE_2D_INIT(sw_info->strides[0], sw_info->strides[1]), // controlla perc
 566:../Middlewares/stedgeai-lib/Npu/ll_aton/ll_sw_integer.c ****         .filter_pad = SHAPE_INIT(sw_info->pads[3], sw_info->pads[2], sw_info->pads[1], sw_info->pad
 567:../Middlewares/stedgeai-lib/Npu/ll_aton/ll_sw_integer.c ****         .dilation = SHAPE_2D_INIT(sw_info->dilations[0], sw_info->dilations[1]), )
 568:../Middlewares/stedgeai-lib/Npu/ll_aton/ll_sw_integer.c ****     conv_layer.forward(AI_LAYER_OBJ(&conv_layer));
 569:../Middlewares/stedgeai-lib/Npu/ll_aton/ll_sw_integer.c ****   }
 570:../Middlewares/stedgeai-lib/Npu/ll_aton/ll_sw_integer.c ****   break;
 571:../Middlewares/stedgeai-lib/Npu/ll_aton/ll_sw_integer.c ****   case LL_SW_SSSA_DILATED_CONV:
 572:../Middlewares/stedgeai-lib/Npu/ll_aton/ll_sw_integer.c ****   {
ARM GAS  /tmp/ccZCp2co.s 			page 56


 573:../Middlewares/stedgeai-lib/Npu/ll_aton/ll_sw_integer.c **** #ifdef LL_SW_DUMP_DEBUG
 574:../Middlewares/stedgeai-lib/Npu/ll_aton/ll_sw_integer.c ****     LL_ATON_PRINTF("DILATION");
 575:../Middlewares/stedgeai-lib/Npu/ll_aton/ll_sw_integer.c **** #endif
 576:../Middlewares/stedgeai-lib/Npu/ll_aton/ll_sw_integer.c ****     AI_LAYER_OBJ_DECLARE(
 577:../Middlewares/stedgeai-lib/Npu/ll_aton/ll_sw_integer.c ****         conv_layer, 1, CONV2D_TYPE, 0x0, NULL, conv2d, forward_conv2d_dilated_sssa8_ch /*_fixed*/, 
 578:../Middlewares/stedgeai-lib/Npu/ll_aton/ll_sw_integer.c ****         NULL, , .groups = sw_info->ngroup, .nl_params = NULL, .nl_func = NULL,
 579:../Middlewares/stedgeai-lib/Npu/ll_aton/ll_sw_integer.c ****         .filter_stride = SHAPE_2D_INIT(sw_info->strides[0], sw_info->strides[1]), // controlla perc
 580:../Middlewares/stedgeai-lib/Npu/ll_aton/ll_sw_integer.c ****         .filter_pad = SHAPE_INIT(sw_info->pads[3], sw_info->pads[2], sw_info->pads[1], sw_info->pad
 581:../Middlewares/stedgeai-lib/Npu/ll_aton/ll_sw_integer.c ****         .dilation = SHAPE_2D_INIT(sw_info->dilations[0], sw_info->dilations[1]), )
 582:../Middlewares/stedgeai-lib/Npu/ll_aton/ll_sw_integer.c ****     conv_layer.forward(AI_LAYER_OBJ(&conv_layer));
 583:../Middlewares/stedgeai-lib/Npu/ll_aton/ll_sw_integer.c ****   }
 584:../Middlewares/stedgeai-lib/Npu/ll_aton/ll_sw_integer.c ****   break;
 585:../Middlewares/stedgeai-lib/Npu/ll_aton/ll_sw_integer.c ****   case LL_SW_SSSA_GENERIC_CONV:
 586:../Middlewares/stedgeai-lib/Npu/ll_aton/ll_sw_integer.c ****   {
 587:../Middlewares/stedgeai-lib/Npu/ll_aton/ll_sw_integer.c **** #ifdef LL_SW_DUMP_DEBUG
 588:../Middlewares/stedgeai-lib/Npu/ll_aton/ll_sw_integer.c ****     LL_ATON_PRINTF("GENERAL CH");
 589:../Middlewares/stedgeai-lib/Npu/ll_aton/ll_sw_integer.c **** #endif
 590:../Middlewares/stedgeai-lib/Npu/ll_aton/ll_sw_integer.c ****     AI_LAYER_OBJ_DECLARE(
 591:../Middlewares/stedgeai-lib/Npu/ll_aton/ll_sw_integer.c ****         conv_layer, 1, CONV2D_TYPE, 0x0, NULL, conv2d, forward_conv2d_sssa8_ch /*_fixed*/, &conv_ch
 592:../Middlewares/stedgeai-lib/Npu/ll_aton/ll_sw_integer.c ****         .groups = sw_info->ngroup, .nl_params = NULL, .nl_func = NULL,
 593:../Middlewares/stedgeai-lib/Npu/ll_aton/ll_sw_integer.c ****         .filter_stride = SHAPE_2D_INIT(sw_info->strides[0], sw_info->strides[1]), // controlla perc
 594:../Middlewares/stedgeai-lib/Npu/ll_aton/ll_sw_integer.c ****         .filter_pad = SHAPE_INIT(sw_info->pads[3], sw_info->pads[2], sw_info->pads[1], sw_info->pad
 595:../Middlewares/stedgeai-lib/Npu/ll_aton/ll_sw_integer.c ****         .dilation = SHAPE_2D_INIT(sw_info->dilations[0], sw_info->dilations[1]), )
 596:../Middlewares/stedgeai-lib/Npu/ll_aton/ll_sw_integer.c ****     conv_layer.forward(AI_LAYER_OBJ(&conv_layer));
 597:../Middlewares/stedgeai-lib/Npu/ll_aton/ll_sw_integer.c ****   }
 598:../Middlewares/stedgeai-lib/Npu/ll_aton/ll_sw_integer.c ****   break;
 599:../Middlewares/stedgeai-lib/Npu/ll_aton/ll_sw_integer.c ****   case LL_SW_GENERIC_CONV:
 600:../Middlewares/stedgeai-lib/Npu/ll_aton/ll_sw_integer.c ****   {
 601:../Middlewares/stedgeai-lib/Npu/ll_aton/ll_sw_integer.c **** #ifdef LL_SW_DUMP_DEBUG
 602:../Middlewares/stedgeai-lib/Npu/ll_aton/ll_sw_integer.c ****     LL_ATON_PRINTF("GENERAL UNSIGEND per CHANNEL");
 603:../Middlewares/stedgeai-lib/Npu/ll_aton/ll_sw_integer.c **** #endif
 604:../Middlewares/stedgeai-lib/Npu/ll_aton/ll_sw_integer.c ****     AI_LAYER_OBJ_DECLARE(
 605:../Middlewares/stedgeai-lib/Npu/ll_aton/ll_sw_integer.c ****         conv_layer, 1, CONV2D_TYPE, 0x0, NULL, conv2d, forward_conv2d_integer /*_fixed*/, &conv_cha
 606:../Middlewares/stedgeai-lib/Npu/ll_aton/ll_sw_integer.c ****         .groups = sw_info->ngroup, .nl_params = NULL, .nl_func = NULL,
 607:../Middlewares/stedgeai-lib/Npu/ll_aton/ll_sw_integer.c ****         .filter_stride = SHAPE_2D_INIT(sw_info->strides[0], sw_info->strides[1]), // controlla perc
 608:../Middlewares/stedgeai-lib/Npu/ll_aton/ll_sw_integer.c ****         .filter_pad = SHAPE_INIT(sw_info->pads[3], sw_info->pads[2], sw_info->pads[1], sw_info->pad
 609:../Middlewares/stedgeai-lib/Npu/ll_aton/ll_sw_integer.c ****         .dilation = SHAPE_2D_INIT(sw_info->dilations[0], sw_info->dilations[1]), )
 610:../Middlewares/stedgeai-lib/Npu/ll_aton/ll_sw_integer.c ****     conv_layer.forward(AI_LAYER_OBJ(&conv_layer));
 611:../Middlewares/stedgeai-lib/Npu/ll_aton/ll_sw_integer.c ****   }
 612:../Middlewares/stedgeai-lib/Npu/ll_aton/ll_sw_integer.c ****   break;
 613:../Middlewares/stedgeai-lib/Npu/ll_aton/ll_sw_integer.c ****   default:
 614:../Middlewares/stedgeai-lib/Npu/ll_aton/ll_sw_integer.c ****     break;
 615:../Middlewares/stedgeai-lib/Npu/ll_aton/ll_sw_integer.c ****   }
 616:../Middlewares/stedgeai-lib/Npu/ll_aton/ll_sw_integer.c **** }
 2254              		.loc 1 616 1 is_stmt 0 view .LVU649
 2255 032e 0DF5157D 		add	sp, sp, #596
 2256              		.cfi_remember_state
 2257              		.cfi_def_cfa_offset 36
 2258              		@ sp needed
 2259 0332 BDE8F08F 		pop	{r4, r5, r6, r7, r8, r9, r10, fp, pc}
 2260              	.LVL126:
 2261              	.L76:
 2262              		.cfi_restore_state
 2263              	.LBB3:
 548:../Middlewares/stedgeai-lib/Npu/ll_aton/ll_sw_integer.c ****         conv_layer, 1, CONV2D_TYPE, 0x0, NULL, conv2d, forward_conv2d_rgb_sssa8_ch /*_fixed*/, &con
 2264              		.loc 1 548 5 is_stmt 1 view .LVU650
 2265 0336 734B     		ldr	r3, .L88
ARM GAS  /tmp/ccZCp2co.s 			page 57


 2266 0338 4022     		movs	r2, #64
 2267 033a 0021     		movs	r1, #0
 2268 033c 84A8     		add	r0, sp, #528
 2269 033e 8393     		str	r3, [sp, #524]
 2270 0340 FFF7FEFF 		bl	memset
 2271              	.LVL127:
 548:../Middlewares/stedgeai-lib/Npu/ll_aton/ll_sw_integer.c ****         conv_layer, 1, CONV2D_TYPE, 0x0, NULL, conv2d, forward_conv2d_rgb_sssa8_ch /*_fixed*/, &con
 2272              		.loc 1 548 5 is_stmt 0 view .LVU651
 2273 0344 714B     		ldr	r3, .L88+8
 2274 0346 D4F8EC21 		ldr	r2, [r4, #492]
 2275 034a CDE98835 		strd	r3, r5, [sp, #544]
 2276 034e D4F8E831 		ldr	r3, [r4, #488]
 2277 0352 5092     		str	r2, [sp, #320]
 2278 0354 8A93     		str	r3, [sp, #552]
 2279 0356 D4F80032 		ldr	r3, [r4, #512]
 2280 035a D4F8F021 		ldr	r2, [r4, #496]
 2281 035e 8D93     		str	r3, [sp, #564]
 2282 0360 D4F8FC31 		ldr	r3, [r4, #508]
 2283 0364 5192     		str	r2, [sp, #324]
 2284 0366 8E93     		str	r3, [sp, #568]
 2285 0368 D4F81032 		ldr	r3, [r4, #528]
 2286 036c D4F8F421 		ldr	r2, [r4, #500]
 2287 0370 8F93     		str	r3, [sp, #572]
 2288 0372 D4F80C32 		ldr	r3, [r4, #524]
 2289 0376 5292     		str	r2, [sp, #328]
 2290 0378 9093     		str	r3, [sp, #576]
 2291 037a 40F20143 		movw	r3, #1025
 2292 037e D4F8F821 		ldr	r2, [r4, #504]
 2293 0382 9193     		str	r3, [sp, #580]
 554:../Middlewares/stedgeai-lib/Npu/ll_aton/ll_sw_integer.c ****   }
 2294              		.loc 1 554 5 view .LVU652
 2295 0384 83A8     		add	r0, sp, #524
 548:../Middlewares/stedgeai-lib/Npu/ll_aton/ll_sw_integer.c ****         conv_layer, 1, CONV2D_TYPE, 0x0, NULL, conv2d, forward_conv2d_rgb_sssa8_ch /*_fixed*/, &con
 2296              		.loc 1 548 5 view .LVU653
 2297 0386 50AB     		add	r3, sp, #320
 2298 0388 5392     		str	r2, [sp, #332]
 2299 038a 9293     		str	r3, [sp, #584]
 554:../Middlewares/stedgeai-lib/Npu/ll_aton/ll_sw_integer.c ****   }
 2300              		.loc 1 554 5 is_stmt 1 view .LVU654
 2301 038c FFF7FEFF 		bl	forward_conv2d_rgb_sssa8_ch
 2302              	.LVL128:
 2303              	.LBE3:
 556:../Middlewares/stedgeai-lib/Npu/ll_aton/ll_sw_integer.c ****   case LL_SW_SSSA_DW_CONV:
 2304              		.loc 1 556 3 view .LVU655
 2305 0390 CDE7     		b	.L62
 2306              	.LVL129:
 2307              	.L75:
 2308              	.LBB4:
 562:../Middlewares/stedgeai-lib/Npu/ll_aton/ll_sw_integer.c ****         conv_layer, 1, CONV2D_TYPE, 0x0, NULL, conv2d, forward_dw_dm_sssa8_ch /*_fixed*/, &conv_cha
 2309              		.loc 1 562 5 view .LVU656
 2310 0392 5C4B     		ldr	r3, .L88
 2311 0394 4022     		movs	r2, #64
 2312 0396 0021     		movs	r1, #0
 2313 0398 84A8     		add	r0, sp, #528
 2314 039a 8393     		str	r3, [sp, #524]
 2315 039c FFF7FEFF 		bl	memset
 2316              	.LVL130:
ARM GAS  /tmp/ccZCp2co.s 			page 58


 562:../Middlewares/stedgeai-lib/Npu/ll_aton/ll_sw_integer.c ****         conv_layer, 1, CONV2D_TYPE, 0x0, NULL, conv2d, forward_dw_dm_sssa8_ch /*_fixed*/, &conv_cha
 2317              		.loc 1 562 5 is_stmt 0 view .LVU657
 2318 03a0 5B4B     		ldr	r3, .L88+12
 2319 03a2 D4F8EC21 		ldr	r2, [r4, #492]
 2320 03a6 CDE98835 		strd	r3, r5, [sp, #544]
 2321 03aa D4F8E831 		ldr	r3, [r4, #488]
 2322 03ae 5092     		str	r2, [sp, #320]
 2323 03b0 8A93     		str	r3, [sp, #552]
 2324 03b2 D4F80032 		ldr	r3, [r4, #512]
 2325 03b6 D4F8F021 		ldr	r2, [r4, #496]
 2326 03ba 8D93     		str	r3, [sp, #564]
 2327 03bc D4F8FC31 		ldr	r3, [r4, #508]
 2328 03c0 5192     		str	r2, [sp, #324]
 2329 03c2 8E93     		str	r3, [sp, #568]
 2330 03c4 D4F81032 		ldr	r3, [r4, #528]
 2331 03c8 D4F8F421 		ldr	r2, [r4, #500]
 2332 03cc 8F93     		str	r3, [sp, #572]
 2333 03ce D4F80C32 		ldr	r3, [r4, #524]
 2334 03d2 5292     		str	r2, [sp, #328]
 2335 03d4 9093     		str	r3, [sp, #576]
 2336 03d6 40F20143 		movw	r3, #1025
 2337 03da D4F8F821 		ldr	r2, [r4, #504]
 2338 03de 9193     		str	r3, [sp, #580]
 568:../Middlewares/stedgeai-lib/Npu/ll_aton/ll_sw_integer.c ****   }
 2339              		.loc 1 568 5 view .LVU658
 2340 03e0 83A8     		add	r0, sp, #524
 562:../Middlewares/stedgeai-lib/Npu/ll_aton/ll_sw_integer.c ****         conv_layer, 1, CONV2D_TYPE, 0x0, NULL, conv2d, forward_dw_dm_sssa8_ch /*_fixed*/, &conv_cha
 2341              		.loc 1 562 5 view .LVU659
 2342 03e2 50AB     		add	r3, sp, #320
 2343 03e4 5392     		str	r2, [sp, #332]
 2344 03e6 9293     		str	r3, [sp, #584]
 568:../Middlewares/stedgeai-lib/Npu/ll_aton/ll_sw_integer.c ****   }
 2345              		.loc 1 568 5 is_stmt 1 view .LVU660
 2346 03e8 FFF7FEFF 		bl	forward_dw_dm_sssa8_ch
 2347              	.LVL131:
 2348              	.LBE4:
 570:../Middlewares/stedgeai-lib/Npu/ll_aton/ll_sw_integer.c ****   case LL_SW_SSSA_DILATED_CONV:
 2349              		.loc 1 570 3 view .LVU661
 2350 03ec 9FE7     		b	.L62
 2351              	.LVL132:
 2352              	.L74:
 2353              	.LBB5:
 576:../Middlewares/stedgeai-lib/Npu/ll_aton/ll_sw_integer.c ****         conv_layer, 1, CONV2D_TYPE, 0x0, NULL, conv2d, forward_conv2d_dilated_sssa8_ch /*_fixed*/, 
 2354              		.loc 1 576 5 view .LVU662
 2355 03ee 454B     		ldr	r3, .L88
 2356 03f0 4022     		movs	r2, #64
 2357 03f2 0021     		movs	r1, #0
 2358 03f4 84A8     		add	r0, sp, #528
 2359 03f6 8393     		str	r3, [sp, #524]
 2360 03f8 FFF7FEFF 		bl	memset
 2361              	.LVL133:
 576:../Middlewares/stedgeai-lib/Npu/ll_aton/ll_sw_integer.c ****         conv_layer, 1, CONV2D_TYPE, 0x0, NULL, conv2d, forward_conv2d_dilated_sssa8_ch /*_fixed*/, 
 2362              		.loc 1 576 5 is_stmt 0 view .LVU663
 2363 03fc 454B     		ldr	r3, .L88+16
 2364 03fe D4F8EC21 		ldr	r2, [r4, #492]
 2365 0402 CDE98835 		strd	r3, r5, [sp, #544]
 2366 0406 D4F8E831 		ldr	r3, [r4, #488]
ARM GAS  /tmp/ccZCp2co.s 			page 59


 2367 040a 5092     		str	r2, [sp, #320]
 2368 040c 8A93     		str	r3, [sp, #552]
 2369 040e D4F80032 		ldr	r3, [r4, #512]
 2370 0412 D4F8F021 		ldr	r2, [r4, #496]
 2371 0416 8D93     		str	r3, [sp, #564]
 2372 0418 D4F8FC31 		ldr	r3, [r4, #508]
 2373 041c 5192     		str	r2, [sp, #324]
 2374 041e 8E93     		str	r3, [sp, #568]
 2375 0420 D4F81032 		ldr	r3, [r4, #528]
 2376 0424 D4F8F421 		ldr	r2, [r4, #500]
 2377 0428 8F93     		str	r3, [sp, #572]
 2378 042a D4F80C32 		ldr	r3, [r4, #524]
 2379 042e 5292     		str	r2, [sp, #328]
 2380 0430 9093     		str	r3, [sp, #576]
 2381 0432 40F20143 		movw	r3, #1025
 2382 0436 D4F8F821 		ldr	r2, [r4, #504]
 2383 043a 9193     		str	r3, [sp, #580]
 582:../Middlewares/stedgeai-lib/Npu/ll_aton/ll_sw_integer.c ****   }
 2384              		.loc 1 582 5 view .LVU664
 2385 043c 83A8     		add	r0, sp, #524
 576:../Middlewares/stedgeai-lib/Npu/ll_aton/ll_sw_integer.c ****         conv_layer, 1, CONV2D_TYPE, 0x0, NULL, conv2d, forward_conv2d_dilated_sssa8_ch /*_fixed*/, 
 2386              		.loc 1 576 5 view .LVU665
 2387 043e 50AB     		add	r3, sp, #320
 2388 0440 5392     		str	r2, [sp, #332]
 2389 0442 9293     		str	r3, [sp, #584]
 582:../Middlewares/stedgeai-lib/Npu/ll_aton/ll_sw_integer.c ****   }
 2390              		.loc 1 582 5 is_stmt 1 view .LVU666
 2391 0444 FFF7FEFF 		bl	forward_conv2d_dilated_sssa8_ch
 2392              	.LVL134:
 2393              	.LBE5:
 584:../Middlewares/stedgeai-lib/Npu/ll_aton/ll_sw_integer.c ****   case LL_SW_SSSA_GENERIC_CONV:
 2394              		.loc 1 584 3 view .LVU667
 2395 0448 71E7     		b	.L62
 2396              	.LVL135:
 2397              	.L73:
 2398              	.LBB6:
 590:../Middlewares/stedgeai-lib/Npu/ll_aton/ll_sw_integer.c ****         conv_layer, 1, CONV2D_TYPE, 0x0, NULL, conv2d, forward_conv2d_sssa8_ch /*_fixed*/, &conv_ch
 2399              		.loc 1 590 5 view .LVU668
 2400 044a 2E4B     		ldr	r3, .L88
 2401 044c 4022     		movs	r2, #64
 2402 044e 0021     		movs	r1, #0
 2403 0450 84A8     		add	r0, sp, #528
 2404 0452 8393     		str	r3, [sp, #524]
 2405 0454 FFF7FEFF 		bl	memset
 2406              	.LVL136:
 590:../Middlewares/stedgeai-lib/Npu/ll_aton/ll_sw_integer.c ****         conv_layer, 1, CONV2D_TYPE, 0x0, NULL, conv2d, forward_conv2d_sssa8_ch /*_fixed*/, &conv_ch
 2407              		.loc 1 590 5 is_stmt 0 view .LVU669
 2408 0458 2F4B     		ldr	r3, .L88+20
 2409 045a D4F8EC21 		ldr	r2, [r4, #492]
 2410 045e CDE98835 		strd	r3, r5, [sp, #544]
 2411 0462 D4F8E831 		ldr	r3, [r4, #488]
 2412 0466 5092     		str	r2, [sp, #320]
 2413 0468 8A93     		str	r3, [sp, #552]
 2414 046a D4F80032 		ldr	r3, [r4, #512]
 2415 046e D4F8F021 		ldr	r2, [r4, #496]
 2416 0472 8D93     		str	r3, [sp, #564]
 2417 0474 D4F8FC31 		ldr	r3, [r4, #508]
ARM GAS  /tmp/ccZCp2co.s 			page 60


 2418 0478 5192     		str	r2, [sp, #324]
 2419 047a 8E93     		str	r3, [sp, #568]
 2420 047c D4F81032 		ldr	r3, [r4, #528]
 2421 0480 D4F8F421 		ldr	r2, [r4, #500]
 2422 0484 8F93     		str	r3, [sp, #572]
 2423 0486 D4F80C32 		ldr	r3, [r4, #524]
 2424 048a 5292     		str	r2, [sp, #328]
 2425 048c 9093     		str	r3, [sp, #576]
 2426 048e 40F20143 		movw	r3, #1025
 2427 0492 D4F8F821 		ldr	r2, [r4, #504]
 2428 0496 9193     		str	r3, [sp, #580]
 596:../Middlewares/stedgeai-lib/Npu/ll_aton/ll_sw_integer.c ****   }
 2429              		.loc 1 596 5 view .LVU670
 2430 0498 83A8     		add	r0, sp, #524
 590:../Middlewares/stedgeai-lib/Npu/ll_aton/ll_sw_integer.c ****         conv_layer, 1, CONV2D_TYPE, 0x0, NULL, conv2d, forward_conv2d_sssa8_ch /*_fixed*/, &conv_ch
 2431              		.loc 1 590 5 view .LVU671
 2432 049a 50AB     		add	r3, sp, #320
 2433 049c 5392     		str	r2, [sp, #332]
 2434 049e 9293     		str	r3, [sp, #584]
 596:../Middlewares/stedgeai-lib/Npu/ll_aton/ll_sw_integer.c ****   }
 2435              		.loc 1 596 5 is_stmt 1 view .LVU672
 2436 04a0 FFF7FEFF 		bl	forward_conv2d_sssa8_ch
 2437              	.LVL137:
 2438              	.LBE6:
 598:../Middlewares/stedgeai-lib/Npu/ll_aton/ll_sw_integer.c ****   case LL_SW_GENERIC_CONV:
 2439              		.loc 1 598 3 view .LVU673
 2440 04a4 43E7     		b	.L62
 2441              	.LVL138:
 2442              	.L71:
 2443              	.LBB7:
 604:../Middlewares/stedgeai-lib/Npu/ll_aton/ll_sw_integer.c ****         conv_layer, 1, CONV2D_TYPE, 0x0, NULL, conv2d, forward_conv2d_integer /*_fixed*/, &conv_cha
 2444              		.loc 1 604 5 view .LVU674
 2445 04a6 174B     		ldr	r3, .L88
 2446 04a8 4022     		movs	r2, #64
 2447 04aa 0021     		movs	r1, #0
 2448 04ac 84A8     		add	r0, sp, #528
 2449 04ae 8393     		str	r3, [sp, #524]
 2450 04b0 FFF7FEFF 		bl	memset
 2451              	.LVL139:
 604:../Middlewares/stedgeai-lib/Npu/ll_aton/ll_sw_integer.c ****         conv_layer, 1, CONV2D_TYPE, 0x0, NULL, conv2d, forward_conv2d_integer /*_fixed*/, &conv_cha
 2452              		.loc 1 604 5 is_stmt 0 view .LVU675
 2453 04b4 194B     		ldr	r3, .L88+24
 2454 04b6 D4F8EC21 		ldr	r2, [r4, #492]
 2455 04ba CDE98835 		strd	r3, r5, [sp, #544]
 2456 04be D4F8E831 		ldr	r3, [r4, #488]
 2457 04c2 5092     		str	r2, [sp, #320]
 2458 04c4 8A93     		str	r3, [sp, #552]
 2459 04c6 D4F80032 		ldr	r3, [r4, #512]
 2460 04ca D4F8F021 		ldr	r2, [r4, #496]
 2461 04ce 8D93     		str	r3, [sp, #564]
 2462 04d0 D4F8FC31 		ldr	r3, [r4, #508]
 2463 04d4 5192     		str	r2, [sp, #324]
 2464 04d6 8E93     		str	r3, [sp, #568]
 2465 04d8 D4F81032 		ldr	r3, [r4, #528]
 2466 04dc D4F8F421 		ldr	r2, [r4, #500]
 2467 04e0 8F93     		str	r3, [sp, #572]
 2468 04e2 D4F80C32 		ldr	r3, [r4, #524]
ARM GAS  /tmp/ccZCp2co.s 			page 61


 2469 04e6 5292     		str	r2, [sp, #328]
 2470 04e8 9093     		str	r3, [sp, #576]
 2471 04ea 40F20143 		movw	r3, #1025
 2472 04ee D4F8F821 		ldr	r2, [r4, #504]
 2473 04f2 9193     		str	r3, [sp, #580]
 610:../Middlewares/stedgeai-lib/Npu/ll_aton/ll_sw_integer.c ****   }
 2474              		.loc 1 610 5 view .LVU676
 2475 04f4 83A8     		add	r0, sp, #524
 604:../Middlewares/stedgeai-lib/Npu/ll_aton/ll_sw_integer.c ****         conv_layer, 1, CONV2D_TYPE, 0x0, NULL, conv2d, forward_conv2d_integer /*_fixed*/, &conv_cha
 2476              		.loc 1 604 5 view .LVU677
 2477 04f6 50AB     		add	r3, sp, #320
 2478 04f8 5392     		str	r2, [sp, #332]
 2479 04fa 9293     		str	r3, [sp, #584]
 610:../Middlewares/stedgeai-lib/Npu/ll_aton/ll_sw_integer.c ****   }
 2480              		.loc 1 610 5 is_stmt 1 view .LVU678
 2481 04fc FFF7FEFF 		bl	forward_conv2d_integer
 2482              	.LVL140:
 2483              	.LBE7:
 612:../Middlewares/stedgeai-lib/Npu/ll_aton/ll_sw_integer.c ****   default:
 2484              		.loc 1 612 3 view .LVU679
 2485              		.loc 1 616 1 is_stmt 0 view .LVU680
 2486 0500 15E7     		b	.L62
 2487              	.L89:
 2488 0502 00BF     		.align	2
 2489              	.L88:
 2490 0504 03010100 		.word	65795
 2491 0508 00000000 		.word	forward_pw_sssa8_ch
 2492 050c 00000000 		.word	forward_conv2d_rgb_sssa8_ch
 2493 0510 00000000 		.word	forward_dw_dm_sssa8_ch
 2494 0514 00000000 		.word	forward_conv2d_dilated_sssa8_ch
 2495 0518 00000000 		.word	forward_conv2d_sssa8_ch
 2496 051c 00000000 		.word	forward_conv2d_integer
 2497              		.cfi_endproc
 2498              	.LFE20:
 2500              		.section	.text.ll_sw_forward_eltwise_integer,"ax",%progbits
 2501              		.align	1
 2502              		.global	ll_sw_forward_eltwise_integer
 2503              		.syntax unified
 2504              		.thumb
 2505              		.thumb_func
 2507              	ll_sw_forward_eltwise_integer:
 2508              	.LVL141:
 2509              	.LFB21:
 617:../Middlewares/stedgeai-lib/Npu/ll_aton/ll_sw_integer.c **** 
 618:../Middlewares/stedgeai-lib/Npu/ll_aton/ll_sw_integer.c **** //##########################################################################################
 619:../Middlewares/stedgeai-lib/Npu/ll_aton/ll_sw_integer.c **** /** Element Wise forward function */
 620:../Middlewares/stedgeai-lib/Npu/ll_aton/ll_sw_integer.c **** void ll_sw_forward_eltwise_integer(Eltwise_integer_sw_info *sw_info)
 621:../Middlewares/stedgeai-lib/Npu/ll_aton/ll_sw_integer.c **** {
 2510              		.loc 1 621 1 is_stmt 1 view -0
 2511              		.cfi_startproc
 2512              		@ args = 0, pretend = 0, frame = 392
 2513              		@ frame_needed = 0, uses_anonymous_args = 0
 622:../Middlewares/stedgeai-lib/Npu/ll_aton/ll_sw_integer.c ****   // array init
 623:../Middlewares/stedgeai-lib/Npu/ll_aton/ll_sw_integer.c ****   int32_t format = sw_info->general.input.format.is_signed ? (AI_ARRAY_FORMAT_S8 | AI_FMT_FLAG_IS_I
 2514              		.loc 1 623 3 view .LVU682
 621:../Middlewares/stedgeai-lib/Npu/ll_aton/ll_sw_integer.c ****   // array init
 2515              		.loc 1 621 1 is_stmt 0 view .LVU683
ARM GAS  /tmp/ccZCp2co.s 			page 62


 2516 0000 2DE9F043 		push	{r4, r5, r6, r7, r8, r9, lr}
 2517              		.cfi_def_cfa_offset 28
 2518              		.cfi_offset 4, -28
 2519              		.cfi_offset 5, -24
 2520              		.cfi_offset 6, -20
 2521              		.cfi_offset 7, -16
 2522              		.cfi_offset 8, -12
 2523              		.cfi_offset 9, -8
 2524              		.cfi_offset 14, -4
 2525              		.loc 1 623 49 view .LVU684
 2526 0004 90F82C30 		ldrb	r3, [r0, #44]	@ zero_extendqisi2
 621:../Middlewares/stedgeai-lib/Npu/ll_aton/ll_sw_integer.c ****   // array init
 2527              		.loc 1 621 1 view .LVU685
 2528 0008 E3B0     		sub	sp, sp, #396
 2529              		.cfi_def_cfa_offset 424
 624:../Middlewares/stedgeai-lib/Npu/ll_aton/ll_sw_integer.c ****                                                            : (AI_ARRAY_FORMAT_U8 | AI_FMT_FLAG_IS_I
 2530              		.loc 1 624 60 view .LVU686
 2531 000a 002B     		cmp	r3, #0
 2532 000c 00F0E780 		beq	.L107
 2533              		.loc 1 624 60 discriminator 1 view .LVU687
 2534 0010 994A     		ldr	r2, .L118
 2535              	.L91:
 2536              	.LVL142:
 625:../Middlewares/stedgeai-lib/Npu/ll_aton/ll_sw_integer.c ****   AI_ARRAY_OBJ_DECLARE(input_output_array, format, sw_info->general.input.mem.start_offset,
 2537              		.loc 1 625 3 is_stmt 1 view .LVU688
 2538 0012 1492     		str	r2, [sp, #80]
 2539 0014 4269     		ldr	r2, [r0, #20]
 2540              	.LVL143:
 2541              		.loc 1 625 3 is_stmt 0 view .LVU689
 2542 0016 14AC     		add	r4, sp, #80
 2543              	.LVL144:
 2544              		.loc 1 625 3 view .LVU690
 2545 0018 6260     		str	r2, [r4, #4]
 2546 001a 826A     		ldr	r2, [r0, #40]
 2547 001c C4E90222 		strd	r2, r2, [r4, #8]
 626:../Middlewares/stedgeai-lib/Npu/ll_aton/ll_sw_integer.c ****                        sw_info->general.input.mem.start_offset, sw_info->general.input.dim.num_elem
 627:../Middlewares/stedgeai-lib/Npu/ll_aton/ll_sw_integer.c ****   format = sw_info->operand.format.is_signed ? (AI_ARRAY_FORMAT_S8 | AI_FMT_FLAG_IS_IO)
 2548              		.loc 1 627 3 is_stmt 1 view .LVU691
 628:../Middlewares/stedgeai-lib/Npu/ll_aton/ll_sw_integer.c ****                                              : (AI_ARRAY_FORMAT_U8 | AI_FMT_FLAG_IS_IO);
 2549              		.loc 1 628 46 is_stmt 0 view .LVU692
 2550 0020 90F88420 		ldrb	r2, [r0, #132]	@ zero_extendqisi2
 2551 0024 002A     		cmp	r2, #0
 2552 0026 00F0DC80 		beq	.L108
 2553              		.loc 1 628 46 discriminator 1 view .LVU693
 2554 002a 934A     		ldr	r2, .L118
 2555              	.L92:
 2556              	.LVL145:
 629:../Middlewares/stedgeai-lib/Npu/ll_aton/ll_sw_integer.c ****   AI_ARRAY_OBJ_DECLARE(eltwise_operand_array, format, sw_info->operand.mem.start_offset,
 2557              		.loc 1 629 3 is_stmt 1 view .LVU694
 2558 002c 1892     		str	r2, [sp, #96]
 2559 002e C26E     		ldr	r2, [r0, #108]
 2560              	.LVL146:
 2561              		.loc 1 629 3 is_stmt 0 view .LVU695
 2562 0030 18A9     		add	r1, sp, #96
 2563              	.LVL147:
 2564              		.loc 1 629 3 view .LVU696
 2565 0032 4A60     		str	r2, [r1, #4]
ARM GAS  /tmp/ccZCp2co.s 			page 63


 2566 0034 D0F88020 		ldr	r2, [r0, #128]
 2567 0038 C1E90222 		strd	r2, r2, [r1, #8]
 630:../Middlewares/stedgeai-lib/Npu/ll_aton/ll_sw_integer.c ****                        sw_info->operand.mem.start_offset, sw_info->operand.dim.num_elem, )
 631:../Middlewares/stedgeai-lib/Npu/ll_aton/ll_sw_integer.c ****   format = sw_info->general.output.format.is_signed ? (AI_ARRAY_FORMAT_S8 | AI_FMT_FLAG_IS_IO)
 2568              		.loc 1 631 3 is_stmt 1 view .LVU697
 632:../Middlewares/stedgeai-lib/Npu/ll_aton/ll_sw_integer.c ****                                                     : (AI_ARRAY_FORMAT_U8 | AI_FMT_FLAG_IS_IO);
 2569              		.loc 1 632 53 is_stmt 0 view .LVU698
 2570 003c 90F85820 		ldrb	r2, [r0, #88]	@ zero_extendqisi2
 2571 0040 002A     		cmp	r2, #0
 2572 0042 00F0D080 		beq	.L109
 2573              		.loc 1 632 53 discriminator 1 view .LVU699
 2574 0046 8C4D     		ldr	r5, .L118
 2575              	.L93:
 2576              	.LVL148:
 633:../Middlewares/stedgeai-lib/Npu/ll_aton/ll_sw_integer.c ****   AI_ARRAY_OBJ_DECLARE(eltwise_output_array, format, sw_info->general.output.mem.start_offset,
 2577              		.loc 1 633 3 is_stmt 1 view .LVU700
 2578 0048 1C95     		str	r5, [sp, #112]
 2579 004a 056C     		ldr	r5, [r0, #64]
 2580              	.LVL149:
 634:../Middlewares/stedgeai-lib/Npu/ll_aton/ll_sw_integer.c ****                        sw_info->general.output.mem.start_offset, sw_info->general.output.dim.num_el
 635:../Middlewares/stedgeai-lib/Npu/ll_aton/ll_sw_integer.c **** 
 636:../Middlewares/stedgeai-lib/Npu/ll_aton/ll_sw_integer.c ****   uint16_t offset_format =
 637:../Middlewares/stedgeai-lib/Npu/ll_aton/ll_sw_integer.c ****       sw_info->is.format.is_signed ? (AI_BUFFER_META_FLAG_ZEROPOINT_S8) : (AI_BUFFER_META_FLAG_ZERO
 638:../Middlewares/stedgeai-lib/Npu/ll_aton/ll_sw_integer.c ****   uint16_t scale_format = AI_BUFFER_META_FLAG_SCALE_FLOAT;
 639:../Middlewares/stedgeai-lib/Npu/ll_aton/ll_sw_integer.c ****   ai_intq_info_list input_intq = {.flags = (offset_format | scale_format),
 640:../Middlewares/stedgeai-lib/Npu/ll_aton/ll_sw_integer.c ****                                   .size = sw_info->is.dim.num_elem,
 641:../Middlewares/stedgeai-lib/Npu/ll_aton/ll_sw_integer.c ****                                   .info = (const ai_intq_info[1]){{
 2581              		.loc 1 641 66 is_stmt 0 view .LVU701
 2582 004c D0F80461 		ldr	r6, [r0, #260]
 633:../Middlewares/stedgeai-lib/Npu/ll_aton/ll_sw_integer.c ****   AI_ARRAY_OBJ_DECLARE(eltwise_output_array, format, sw_info->general.output.mem.start_offset,
 2583              		.loc 1 633 3 view .LVU702
 2584 0050 1D95     		str	r5, [sp, #116]
 2585 0052 456D     		ldr	r5, [r0, #84]
 2586              		.loc 1 641 66 view .LVU703
 2587 0054 0696     		str	r6, [sp, #24]
 633:../Middlewares/stedgeai-lib/Npu/ll_aton/ll_sw_integer.c ****   AI_ARRAY_OBJ_DECLARE(eltwise_output_array, format, sw_info->general.output.mem.start_offset,
 2588              		.loc 1 633 3 view .LVU704
 2589 0056 CDE91E55 		strd	r5, r5, [sp, #120]
 636:../Middlewares/stedgeai-lib/Npu/ll_aton/ll_sw_integer.c ****       sw_info->is.format.is_signed ? (AI_BUFFER_META_FLAG_ZEROPOINT_S8) : (AI_BUFFER_META_FLAG_ZERO
 2590              		.loc 1 636 3 is_stmt 1 view .LVU705
 636:../Middlewares/stedgeai-lib/Npu/ll_aton/ll_sw_integer.c ****       sw_info->is.format.is_signed ? (AI_BUFFER_META_FLAG_ZEROPOINT_S8) : (AI_BUFFER_META_FLAG_ZERO
 2591              		.loc 1 636 12 is_stmt 0 view .LVU706
 2592 005a 90F80851 		ldrb	r5, [r0, #264]	@ zero_extendqisi2
 2593              		.loc 1 641 66 view .LVU707
 2594 005e D0F83061 		ldr	r6, [r0, #304]
 636:../Middlewares/stedgeai-lib/Npu/ll_aton/ll_sw_integer.c ****       sw_info->is.format.is_signed ? (AI_BUFFER_META_FLAG_ZEROPOINT_S8) : (AI_BUFFER_META_FLAG_ZERO
 2595              		.loc 1 636 12 discriminator 1 view .LVU708
 2596 0062 002D     		cmp	r5, #0
 2597 0064 0CBF     		ite	eq
 2598 0066 0225     		moveq	r5, #2
 2599 0068 0425     		movne	r5, #4
 2600              	.LVL150:
 638:../Middlewares/stedgeai-lib/Npu/ll_aton/ll_sw_integer.c ****   ai_intq_info_list input_intq = {.flags = (offset_format | scale_format),
 2601              		.loc 1 638 3 is_stmt 1 view .LVU709
 639:../Middlewares/stedgeai-lib/Npu/ll_aton/ll_sw_integer.c ****                                   .size = sw_info->is.dim.num_elem,
 2602              		.loc 1 639 3 view .LVU710
 639:../Middlewares/stedgeai-lib/Npu/ll_aton/ll_sw_integer.c ****                                   .size = sw_info->is.dim.num_elem,
ARM GAS  /tmp/ccZCp2co.s 			page 64


 2603              		.loc 1 639 21 is_stmt 0 view .LVU711
 2604 006a 45F00105 		orr	r5, r5, #1
 2605              	.LVL151:
 639:../Middlewares/stedgeai-lib/Npu/ll_aton/ll_sw_integer.c ****                                   .size = sw_info->is.dim.num_elem,
 2606              		.loc 1 639 21 view .LVU712
 2607 006e ADF81050 		strh	r5, [sp, #16]	@ movhi
 2608 0072 D0F8F050 		ldr	r5, [r0, #240]
 2609              		.loc 1 641 66 view .LVU713
 2610 0076 0796     		str	r6, [sp, #28]
 639:../Middlewares/stedgeai-lib/Npu/ll_aton/ll_sw_integer.c ****                                   .size = sw_info->is.dim.num_elem,
 2611              		.loc 1 639 21 view .LVU714
 2612 0078 ADF81250 		strh	r5, [sp, #18]	@ movhi
 2613              		.loc 1 641 66 view .LVU715
 2614 007c 06AD     		add	r5, sp, #24
 639:../Middlewares/stedgeai-lib/Npu/ll_aton/ll_sw_integer.c ****                                   .size = sw_info->is.dim.num_elem,
 2615              		.loc 1 639 21 view .LVU716
 2616 007e 0595     		str	r5, [sp, #20]
 642:../Middlewares/stedgeai-lib/Npu/ll_aton/ll_sw_integer.c ****                                       .scale = ((float *)sw_info->is.mem.start_offset),
 643:../Middlewares/stedgeai-lib/Npu/ll_aton/ll_sw_integer.c ****                                       .zeropoint = ((void *)sw_info->izp.mem.start_offset),
 644:../Middlewares/stedgeai-lib/Npu/ll_aton/ll_sw_integer.c ****                                   }}};
 645:../Middlewares/stedgeai-lib/Npu/ll_aton/ll_sw_integer.c **** 
 646:../Middlewares/stedgeai-lib/Npu/ll_aton/ll_sw_integer.c ****   offset_format =
 2617              		.loc 1 646 3 is_stmt 1 view .LVU717
 2618              		.loc 1 646 17 is_stmt 0 view .LVU718
 2619 0080 90F86051 		ldrb	r5, [r0, #352]	@ zero_extendqisi2
 647:../Middlewares/stedgeai-lib/Npu/ll_aton/ll_sw_integer.c ****       sw_info->os.format.is_signed ? (AI_BUFFER_META_FLAG_ZEROPOINT_S8) : (AI_BUFFER_META_FLAG_ZERO
 648:../Middlewares/stedgeai-lib/Npu/ll_aton/ll_sw_integer.c ****   scale_format = AI_BUFFER_META_FLAG_SCALE_FLOAT;
 649:../Middlewares/stedgeai-lib/Npu/ll_aton/ll_sw_integer.c ****   ai_intq_info_list output_intq = {.flags = (offset_format | scale_format),
 650:../Middlewares/stedgeai-lib/Npu/ll_aton/ll_sw_integer.c ****                                    .size = sw_info->os.dim.num_elem,
 651:../Middlewares/stedgeai-lib/Npu/ll_aton/ll_sw_integer.c ****                                    .info = (const ai_intq_info[1]){{
 2620              		.loc 1 651 67 view .LVU719
 2621 0084 0AAF     		add	r7, sp, #40
 646:../Middlewares/stedgeai-lib/Npu/ll_aton/ll_sw_integer.c ****       sw_info->os.format.is_signed ? (AI_BUFFER_META_FLAG_ZEROPOINT_S8) : (AI_BUFFER_META_FLAG_ZERO
 2622              		.loc 1 646 17 discriminator 1 view .LVU720
 2623 0086 002D     		cmp	r5, #0
 2624              	.LVL152:
 646:../Middlewares/stedgeai-lib/Npu/ll_aton/ll_sw_integer.c ****       sw_info->os.format.is_signed ? (AI_BUFFER_META_FLAG_ZEROPOINT_S8) : (AI_BUFFER_META_FLAG_ZERO
 2625              		.loc 1 646 17 discriminator 1 view .LVU721
 2626 0088 0CBF     		ite	eq
 2627 008a 0226     		moveq	r6, #2
 2628 008c 0426     		movne	r6, #4
 2629              	.LVL153:
 648:../Middlewares/stedgeai-lib/Npu/ll_aton/ll_sw_integer.c ****   ai_intq_info_list output_intq = {.flags = (offset_format | scale_format),
 2630              		.loc 1 648 3 is_stmt 1 view .LVU722
 649:../Middlewares/stedgeai-lib/Npu/ll_aton/ll_sw_integer.c ****                                    .size = sw_info->os.dim.num_elem,
 2631              		.loc 1 649 3 view .LVU723
 649:../Middlewares/stedgeai-lib/Npu/ll_aton/ll_sw_integer.c ****                                    .size = sw_info->os.dim.num_elem,
 2632              		.loc 1 649 21 is_stmt 0 view .LVU724
 2633 008e 46F00106 		orr	r6, r6, #1
 2634              	.LVL154:
 649:../Middlewares/stedgeai-lib/Npu/ll_aton/ll_sw_integer.c ****                                    .size = sw_info->os.dim.num_elem,
 2635              		.loc 1 649 21 view .LVU725
 2636 0092 ADF82060 		strh	r6, [sp, #32]	@ movhi
 2637 0096 D0F84861 		ldr	r6, [r0, #328]
 2638 009a 0997     		str	r7, [sp, #36]
 652:../Middlewares/stedgeai-lib/Npu/ll_aton/ll_sw_integer.c ****                                        .scale = ((float *)sw_info->os.mem.start_offset),
 653:../Middlewares/stedgeai-lib/Npu/ll_aton/ll_sw_integer.c ****                                        .zeropoint = ((void *)sw_info->ozp.mem.start_offset),
ARM GAS  /tmp/ccZCp2co.s 			page 65


 654:../Middlewares/stedgeai-lib/Npu/ll_aton/ll_sw_integer.c ****                                    }}};
 655:../Middlewares/stedgeai-lib/Npu/ll_aton/ll_sw_integer.c **** 
 656:../Middlewares/stedgeai-lib/Npu/ll_aton/ll_sw_integer.c ****   offset_format =
 2639              		.loc 1 656 3 is_stmt 1 view .LVU726
 649:../Middlewares/stedgeai-lib/Npu/ll_aton/ll_sw_integer.c ****                                    .size = sw_info->os.dim.num_elem,
 2640              		.loc 1 649 21 is_stmt 0 view .LVU727
 2641 009c ADF82260 		strh	r6, [sp, #34]	@ movhi
 651:../Middlewares/stedgeai-lib/Npu/ll_aton/ll_sw_integer.c ****                                        .scale = ((float *)sw_info->os.mem.start_offset),
 2642              		.loc 1 651 67 view .LVU728
 2643 00a0 D0F85C61 		ldr	r6, [r0, #348]
 657:../Middlewares/stedgeai-lib/Npu/ll_aton/ll_sw_integer.c ****       sw_info->operand_s.format.is_signed ? (AI_BUFFER_META_FLAG_ZEROPOINT_S8) : (AI_BUFFER_META_FL
 658:../Middlewares/stedgeai-lib/Npu/ll_aton/ll_sw_integer.c ****   scale_format = AI_BUFFER_META_FLAG_SCALE_FLOAT;
 659:../Middlewares/stedgeai-lib/Npu/ll_aton/ll_sw_integer.c ****   ai_intq_info_list operand_intq = {.flags = (offset_format | scale_format),
 660:../Middlewares/stedgeai-lib/Npu/ll_aton/ll_sw_integer.c ****                                     .size = sw_info->operand_s.dim.num_elem,
 661:../Middlewares/stedgeai-lib/Npu/ll_aton/ll_sw_integer.c ****                                     .info = (const ai_intq_info[1]){{
 2644              		.loc 1 661 68 view .LVU729
 2645 00a4 D0F8AC50 		ldr	r5, [r0, #172]
 651:../Middlewares/stedgeai-lib/Npu/ll_aton/ll_sw_integer.c ****                                        .scale = ((float *)sw_info->os.mem.start_offset),
 2646              		.loc 1 651 67 view .LVU730
 2647 00a8 0A96     		str	r6, [sp, #40]
 2648 00aa D0F88861 		ldr	r6, [r0, #392]
 2649              		.loc 1 661 68 view .LVU731
 2650 00ae 0E95     		str	r5, [sp, #56]
 651:../Middlewares/stedgeai-lib/Npu/ll_aton/ll_sw_integer.c ****                                        .scale = ((float *)sw_info->os.mem.start_offset),
 2651              		.loc 1 651 67 view .LVU732
 2652 00b0 0B96     		str	r6, [sp, #44]
 656:../Middlewares/stedgeai-lib/Npu/ll_aton/ll_sw_integer.c ****       sw_info->operand_s.format.is_signed ? (AI_BUFFER_META_FLAG_ZEROPOINT_S8) : (AI_BUFFER_META_FL
 2653              		.loc 1 656 17 view .LVU733
 2654 00b2 90F8B060 		ldrb	r6, [r0, #176]	@ zero_extendqisi2
 2655              		.loc 1 661 68 view .LVU734
 2656 00b6 D0F8D850 		ldr	r5, [r0, #216]
 656:../Middlewares/stedgeai-lib/Npu/ll_aton/ll_sw_integer.c ****       sw_info->operand_s.format.is_signed ? (AI_BUFFER_META_FLAG_ZEROPOINT_S8) : (AI_BUFFER_META_FL
 2657              		.loc 1 656 17 discriminator 1 view .LVU735
 2658 00ba 002E     		cmp	r6, #0
 2659              	.LVL155:
