ARM GAS  /tmp/ccZCp2co.s 			page 1


   1              		.arch armv8.1-m.main
   2              		.fpu fpv5-d16
   3              		.arch_extension dsp
   4              		.arch_extension fp
   5              		.arch_extension fp.dp
   6              		.arch_extension mve
   7              		.arch_extension mve.fp
   8              		.eabi_attribute 5, "cortex-m55"
   9              		.eabi_attribute 28, 1
  10              		.eabi_attribute 20, 1
  11              		.eabi_attribute 21, 1
  12              		.eabi_attribute 23, 3
  13              		.eabi_attribute 24, 1
  14              		.eabi_attribute 25, 1
  15              		.eabi_attribute 26, 1
  16              		.eabi_attribute 30, 4
  17              		.eabi_attribute 34, 1
  18              		.eabi_attribute 38, 1
  19              		.eabi_attribute 18, 4
  20              		.file	"ll_sw_integer.c"
  21              		.text
  22              	.Ltext0:
  23              		.cfi_sections	.debug_frame
  24              		.file 1 "../Middlewares/stedgeai-lib/Npu/ll_aton/ll_sw_integer.c"
  25              		.section	.text.ll_sw_forward_qlinearmatmul,"ax",%progbits
  26              		.align	1
  27              		.global	ll_sw_forward_qlinearmatmul
  28              		.syntax unified
  29              		.thumb
  30              		.thumb_func
  32              	ll_sw_forward_qlinearmatmul:
  33              	.LVL0:
  34              	.LFB15:
   1:../Middlewares/stedgeai-lib/Npu/ll_aton/ll_sw_integer.c **** /**
   2:../Middlewares/stedgeai-lib/Npu/ll_aton/ll_sw_integer.c ****  ******************************************************************************
   3:../Middlewares/stedgeai-lib/Npu/ll_aton/ll_sw_integer.c ****  * @file    ll_sw_integer.c
   4:../Middlewares/stedgeai-lib/Npu/ll_aton/ll_sw_integer.c ****  * @author  SRA Artificial Intelligence & Embedded Architectures
   5:../Middlewares/stedgeai-lib/Npu/ll_aton/ll_sw_integer.c ****  * @brief   Low Level Software library for Scale-Offset Integer Format inference interfacing with E
   6:../Middlewares/stedgeai-lib/Npu/ll_aton/ll_sw_integer.c ****  ******************************************************************************
   7:../Middlewares/stedgeai-lib/Npu/ll_aton/ll_sw_integer.c ****  * @attention
   8:../Middlewares/stedgeai-lib/Npu/ll_aton/ll_sw_integer.c ****  *
   9:../Middlewares/stedgeai-lib/Npu/ll_aton/ll_sw_integer.c ****  * Copyright (c) 2024 STMicroelectronics.
  10:../Middlewares/stedgeai-lib/Npu/ll_aton/ll_sw_integer.c ****  * All rights reserved.
  11:../Middlewares/stedgeai-lib/Npu/ll_aton/ll_sw_integer.c ****  *
  12:../Middlewares/stedgeai-lib/Npu/ll_aton/ll_sw_integer.c ****  * This software is licensed under terms that can be found in the LICENSE file
  13:../Middlewares/stedgeai-lib/Npu/ll_aton/ll_sw_integer.c ****  * in the root directory of this software component.
  14:../Middlewares/stedgeai-lib/Npu/ll_aton/ll_sw_integer.c ****  * If no LICENSE file comes with this software, it is provided AS-IS.
  15:../Middlewares/stedgeai-lib/Npu/ll_aton/ll_sw_integer.c ****  *
  16:../Middlewares/stedgeai-lib/Npu/ll_aton/ll_sw_integer.c ****  ******************************************************************************
  17:../Middlewares/stedgeai-lib/Npu/ll_aton/ll_sw_integer.c ****  */
  18:../Middlewares/stedgeai-lib/Npu/ll_aton/ll_sw_integer.c **** 
  19:../Middlewares/stedgeai-lib/Npu/ll_aton/ll_sw_integer.c **** #include "ll_aton_config.h"
  20:../Middlewares/stedgeai-lib/Npu/ll_aton/ll_sw_integer.c **** 
  21:../Middlewares/stedgeai-lib/Npu/ll_aton/ll_sw_integer.c **** #if LL_ATON_SW_FALLBACK == 1
  22:../Middlewares/stedgeai-lib/Npu/ll_aton/ll_sw_integer.c **** 
  23:../Middlewares/stedgeai-lib/Npu/ll_aton/ll_sw_integer.c **** #include <stdint.h>
  24:../Middlewares/stedgeai-lib/Npu/ll_aton/ll_sw_integer.c **** #include <stdio.h>
ARM GAS  /tmp/ccZCp2co.s 			page 2


  25:../Middlewares/stedgeai-lib/Npu/ll_aton/ll_sw_integer.c **** 
  26:../Middlewares/stedgeai-lib/Npu/ll_aton/ll_sw_integer.c **** #include "ll_sw.h"
  27:../Middlewares/stedgeai-lib/Npu/ll_aton/ll_sw_integer.c **** 
  28:../Middlewares/stedgeai-lib/Npu/ll_aton/ll_sw_integer.c **** #include "ai_datatypes_internal.h"
  29:../Middlewares/stedgeai-lib/Npu/ll_aton/ll_sw_integer.c **** #include "ai_math_helpers.h"
  30:../Middlewares/stedgeai-lib/Npu/ll_aton/ll_sw_integer.c **** #include "core_convert.h"
  31:../Middlewares/stedgeai-lib/Npu/ll_aton/ll_sw_integer.c **** #include "core_private.h"
  32:../Middlewares/stedgeai-lib/Npu/ll_aton/ll_sw_integer.c **** #include "layers.h"
  33:../Middlewares/stedgeai-lib/Npu/ll_aton/ll_sw_integer.c **** #include "ll_aton_util.h"
  34:../Middlewares/stedgeai-lib/Npu/ll_aton/ll_sw_integer.c **** 
  35:../Middlewares/stedgeai-lib/Npu/ll_aton/ll_sw_integer.c **** #define FORMAT AI_ARRAY_FORMAT_FLOAT
  36:../Middlewares/stedgeai-lib/Npu/ll_aton/ll_sw_integer.c **** 
  37:../Middlewares/stedgeai-lib/Npu/ll_aton/ll_sw_integer.c **** #define SHAPE_INIT(a_, b_, c_, d_) AI_SHAPE_INIT(4, (d_), (c_), (b_), (a_))
  38:../Middlewares/stedgeai-lib/Npu/ll_aton/ll_sw_integer.c **** 
  39:../Middlewares/stedgeai-lib/Npu/ll_aton/ll_sw_integer.c **** #define SHAPE_2D_INIT(h_, w_) AI_SHAPE_2D_INIT((w_), (h_))
  40:../Middlewares/stedgeai-lib/Npu/ll_aton/ll_sw_integer.c **** 
  41:../Middlewares/stedgeai-lib/Npu/ll_aton/ll_sw_integer.c **** #define STRIDE_INIT(a_, b_, c_, d_) AI_STRIDE_INIT(4, (d_), (c_), (b_), (a_))
  42:../Middlewares/stedgeai-lib/Npu/ll_aton/ll_sw_integer.c **** 
  43:../Middlewares/stedgeai-lib/Npu/ll_aton/ll_sw_integer.c **** #define TENSORS(...) __VA_ARGS__
  44:../Middlewares/stedgeai-lib/Npu/ll_aton/ll_sw_integer.c **** 
  45:../Middlewares/stedgeai-lib/Npu/ll_aton/ll_sw_integer.c **** static int helper_emit_shape_index_axis(int onnx_axis)
  46:../Middlewares/stedgeai-lib/Npu/ll_aton/ll_sw_integer.c **** {
  47:../Middlewares/stedgeai-lib/Npu/ll_aton/ll_sw_integer.c ****   switch (onnx_axis)
  48:../Middlewares/stedgeai-lib/Npu/ll_aton/ll_sw_integer.c ****   {
  49:../Middlewares/stedgeai-lib/Npu/ll_aton/ll_sw_integer.c ****   case 0:
  50:../Middlewares/stedgeai-lib/Npu/ll_aton/ll_sw_integer.c ****     return AI_SHAPE_IN_CHANNEL;
  51:../Middlewares/stedgeai-lib/Npu/ll_aton/ll_sw_integer.c ****   case 1:
  52:../Middlewares/stedgeai-lib/Npu/ll_aton/ll_sw_integer.c ****     return AI_SHAPE_CHANNEL;
  53:../Middlewares/stedgeai-lib/Npu/ll_aton/ll_sw_integer.c ****   case 2:
  54:../Middlewares/stedgeai-lib/Npu/ll_aton/ll_sw_integer.c ****     return AI_SHAPE_HEIGHT; // note the switch required with case 3
  55:../Middlewares/stedgeai-lib/Npu/ll_aton/ll_sw_integer.c ****   case 3:
  56:../Middlewares/stedgeai-lib/Npu/ll_aton/ll_sw_integer.c ****     return AI_SHAPE_WIDTH; // note the switch required with case 2
  57:../Middlewares/stedgeai-lib/Npu/ll_aton/ll_sw_integer.c ****   default:
  58:../Middlewares/stedgeai-lib/Npu/ll_aton/ll_sw_integer.c **** #ifdef LL_SW_ENABLE_ASSERTS
  59:../Middlewares/stedgeai-lib/Npu/ll_aton/ll_sw_integer.c ****     LL_ATON_ASSERT(0 && "axis index not supported");
  60:../Middlewares/stedgeai-lib/Npu/ll_aton/ll_sw_integer.c **** #endif
  61:../Middlewares/stedgeai-lib/Npu/ll_aton/ll_sw_integer.c ****     return -1;
  62:../Middlewares/stedgeai-lib/Npu/ll_aton/ll_sw_integer.c ****   }
  63:../Middlewares/stedgeai-lib/Npu/ll_aton/ll_sw_integer.c **** }
  64:../Middlewares/stedgeai-lib/Npu/ll_aton/ll_sw_integer.c **** 
  65:../Middlewares/stedgeai-lib/Npu/ll_aton/ll_sw_integer.c **** /** QLinearMatMul forward function */
  66:../Middlewares/stedgeai-lib/Npu/ll_aton/ll_sw_integer.c **** void ll_sw_forward_qlinearmatmul(Qlinearmatmul_sw_info *sw_info)
  67:../Middlewares/stedgeai-lib/Npu/ll_aton/ll_sw_integer.c **** {
  35              		.loc 1 67 1 view -0
  36              		.cfi_startproc
  37              		@ args = 0, pretend = 0, frame = 552
  38              		@ frame_needed = 0, uses_anonymous_args = 0
  68:../Middlewares/stedgeai-lib/Npu/ll_aton/ll_sw_integer.c ****   /*
  69:../Middlewares/stedgeai-lib/Npu/ll_aton/ll_sw_integer.c ****   1. reshape of the weights from weights tensor -> weights_perm tensor
  70:../Middlewares/stedgeai-lib/Npu/ll_aton/ll_sw_integer.c ****   2. map the matmul operation on the library dense_forward function.
  71:../Middlewares/stedgeai-lib/Npu/ll_aton/ll_sw_integer.c ****           this requires 1d input (on ch) and 2d weights (ch e chin). in particular:
  72:../Middlewares/stedgeai-lib/Npu/ll_aton/ll_sw_integer.c ****           - input: 1,1,NIN,1
  73:../Middlewares/stedgeai-lib/Npu/ll_aton/ll_sw_integer.c ****           - weights already permuted: 1,1,NOUT,NIN
  74:../Middlewares/stedgeai-lib/Npu/ll_aton/ll_sw_integer.c ****           - bias 1,1,NOUT,1
  75:../Middlewares/stedgeai-lib/Npu/ll_aton/ll_sw_integer.c ****           - scratch 1,1,NIN*2+NOUT*10
  76:../Middlewares/stedgeai-lib/Npu/ll_aton/ll_sw_integer.c ****           - output 1,1,NOUT,1
  77:../Middlewares/stedgeai-lib/Npu/ll_aton/ll_sw_integer.c ****   */
ARM GAS  /tmp/ccZCp2co.s 			page 3


  78:../Middlewares/stedgeai-lib/Npu/ll_aton/ll_sw_integer.c **** 
  79:../Middlewares/stedgeai-lib/Npu/ll_aton/ll_sw_integer.c ****   int32_t format;
  39              		.loc 1 79 3 view .LVU1
  80:../Middlewares/stedgeai-lib/Npu/ll_aton/ll_sw_integer.c ****   // array init
  81:../Middlewares/stedgeai-lib/Npu/ll_aton/ll_sw_integer.c ****   format = sw_info->general.input.format.is_signed ? (AI_ARRAY_FORMAT_S8 | AI_FMT_FLAG_IS_IO)
  40              		.loc 1 81 3 view .LVU2
  67:../Middlewares/stedgeai-lib/Npu/ll_aton/ll_sw_integer.c ****   /*
  41              		.loc 1 67 1 is_stmt 0 view .LVU3
  42 0000 2DE9F04F 		push	{r4, r5, r6, r7, r8, r9, r10, fp, lr}
  43              		.cfi_def_cfa_offset 36
  44              		.cfi_offset 4, -36
  45              		.cfi_offset 5, -32
  46              		.cfi_offset 6, -28
  47              		.cfi_offset 7, -24
  48              		.cfi_offset 8, -20
  49              		.cfi_offset 9, -16
  50              		.cfi_offset 10, -12
  51              		.cfi_offset 11, -8
  52              		.cfi_offset 14, -4
  82:../Middlewares/stedgeai-lib/Npu/ll_aton/ll_sw_integer.c ****                                                    : (AI_ARRAY_FORMAT_U8 | AI_FMT_FLAG_IS_IO);
  53              		.loc 1 82 52 view .LVU4
  54 0004 90F82C20 		ldrb	r2, [r0, #44]	@ zero_extendqisi2
  67:../Middlewares/stedgeai-lib/Npu/ll_aton/ll_sw_integer.c ****   /*
  55              		.loc 1 67 1 view .LVU5
  56 0008 0346     		mov	r3, r0
  57 000a ADF50B7D 		sub	sp, sp, #556
  58              		.cfi_def_cfa_offset 592
  59              		.loc 1 82 52 view .LVU6
  60 000e 002A     		cmp	r2, #0
  61 0010 00F06D81 		beq	.L9
  62              		.loc 1 82 52 discriminator 1 view .LVU7
  63 0014 B84A     		ldr	r2, .L16
  64              	.L2:
  65              	.LVL1:
  83:../Middlewares/stedgeai-lib/Npu/ll_aton/ll_sw_integer.c ****   AI_ARRAY_OBJ_DECLARE(input_output_array, format, sw_info->general.input.mem.start_offset,
  66              		.loc 1 83 3 is_stmt 1 view .LVU8
  67 0016 1792     		str	r2, [sp, #92]
  68 0018 5A69     		ldr	r2, [r3, #20]
  69              	.LVL2:
  70              		.loc 1 83 3 is_stmt 0 view .LVU9
  71 001a 17AE     		add	r6, sp, #92
  72              	.LVL3:
  73              		.loc 1 83 3 view .LVU10
  74 001c 7260     		str	r2, [r6, #4]
  75 001e 9A6A     		ldr	r2, [r3, #40]
  76 0020 C6E90222 		strd	r2, r2, [r6, #8]
  84:../Middlewares/stedgeai-lib/Npu/ll_aton/ll_sw_integer.c ****                        sw_info->general.input.mem.start_offset, sw_info->general.input.dim.num_elem
  85:../Middlewares/stedgeai-lib/Npu/ll_aton/ll_sw_integer.c ****   format = sw_info->weights.format.is_signed ? (AI_ARRAY_FORMAT_S8) : (AI_ARRAY_FORMAT_U8);
  77              		.loc 1 85 3 is_stmt 1 view .LVU11
  78              		.loc 1 85 69 is_stmt 0 view .LVU12
  79 0024 93F88420 		ldrb	r2, [r3, #132]	@ zero_extendqisi2
  80 0028 002A     		cmp	r2, #0
  81 002a 00F06281 		beq	.L10
  82              		.loc 1 85 69 discriminator 1 view .LVU13
  83 002e B34A     		ldr	r2, .L16+4
  84              	.L3:
  85              	.LVL4:
ARM GAS  /tmp/ccZCp2co.s 			page 4


  86:../Middlewares/stedgeai-lib/Npu/ll_aton/ll_sw_integer.c ****   AI_ARRAY_OBJ_DECLARE(dense_weights_array, format, sw_info->weights.mem.start_offset,
  86              		.loc 1 86 3 is_stmt 1 view .LVU14
  87 0030 1B92     		str	r2, [sp, #108]
  88 0032 DA6E     		ldr	r2, [r3, #108]
  89              	.LVL5:
  90              		.loc 1 86 3 is_stmt 0 view .LVU15
  91 0034 1BA9     		add	r1, sp, #108
  92              	.LVL6:
  93              		.loc 1 86 3 view .LVU16
  94 0036 4A60     		str	r2, [r1, #4]
  95 0038 D3F88020 		ldr	r2, [r3, #128]
  96 003c C1E90222 		strd	r2, r2, [r1, #8]
  87:../Middlewares/stedgeai-lib/Npu/ll_aton/ll_sw_integer.c ****                        sw_info->weights.mem.start_offset, sw_info->weights.dim.num_elem, )
  88:../Middlewares/stedgeai-lib/Npu/ll_aton/ll_sw_integer.c ****   format = sw_info->scratch.format.is_signed ? (AI_ARRAY_FORMAT_S8) : (AI_ARRAY_FORMAT_U8);
  97              		.loc 1 88 3 is_stmt 1 view .LVU17
  98              		.loc 1 88 69 is_stmt 0 view .LVU18
  99 0040 93F8B020 		ldrb	r2, [r3, #176]	@ zero_extendqisi2
 100 0044 002A     		cmp	r2, #0
 101 0046 00F06581 		beq	.L11
 102              		.loc 1 88 69 discriminator 1 view .LVU19
 103 004a AC4A     		ldr	r2, .L16+4
 104              	.L4:
 105              	.LVL7:
  89:../Middlewares/stedgeai-lib/Npu/ll_aton/ll_sw_integer.c ****   AI_ARRAY_OBJ_DECLARE(dense_scratch0_array, format, sw_info->scratch.mem.start_offset,
 106              		.loc 1 89 3 is_stmt 1 view .LVU20
 107 004c 1F92     		str	r2, [sp, #124]
 108 004e D3F89820 		ldr	r2, [r3, #152]
 109              	.LVL8:
 110              		.loc 1 89 3 is_stmt 0 view .LVU21
 111 0052 1FAF     		add	r7, sp, #124
 112              	.LVL9:
 113              		.loc 1 89 3 view .LVU22
 114 0054 7A60     		str	r2, [r7, #4]
 115 0056 D3F8AC20 		ldr	r2, [r3, #172]
  90:../Middlewares/stedgeai-lib/Npu/ll_aton/ll_sw_integer.c ****                        sw_info->scratch.mem.start_offset, sw_info->scratch.dim.num_elem, )
  91:../Middlewares/stedgeai-lib/Npu/ll_aton/ll_sw_integer.c **** 
  92:../Middlewares/stedgeai-lib/Npu/ll_aton/ll_sw_integer.c ****   AI_ARRAY_OBJ_DECLARE(dense_bias_array, AI_ARRAY_FORMAT_S32, sw_info->bias.mem.start_offset,
 116              		.loc 1 92 3 view .LVU23
 117 005a 23AD     		add	r5, sp, #140
  89:../Middlewares/stedgeai-lib/Npu/ll_aton/ll_sw_integer.c ****   AI_ARRAY_OBJ_DECLARE(dense_scratch0_array, format, sw_info->scratch.mem.start_offset,
 118              		.loc 1 89 3 view .LVU24
 119 005c C7E90222 		strd	r2, r2, [r7, #8]
 120              		.loc 1 92 3 is_stmt 1 view .LVU25
 121 0060 A74A     		ldr	r2, .L16+8
 122 0062 D3F8D800 		ldr	r0, [r3, #216]
 123              	.LVL10:
 124              		.loc 1 92 3 is_stmt 0 view .LVU26
 125 0066 2A60     		str	r2, [r5]
  93:../Middlewares/stedgeai-lib/Npu/ll_aton/ll_sw_integer.c ****                        sw_info->bias.mem.start_offset, sw_info->bias.dim.num_elem, )
  94:../Middlewares/stedgeai-lib/Npu/ll_aton/ll_sw_integer.c ****   format = sw_info->general.output.format.is_signed ? (AI_ARRAY_FORMAT_S8 | AI_FMT_FLAG_IS_IO)
  95:../Middlewares/stedgeai-lib/Npu/ll_aton/ll_sw_integer.c ****                                                     : (AI_ARRAY_FORMAT_U8 | AI_FMT_FLAG_IS_IO);
 126              		.loc 1 95 53 view .LVU27
 127 0068 93F85840 		ldrb	r4, [r3, #88]	@ zero_extendqisi2
  92:../Middlewares/stedgeai-lib/Npu/ll_aton/ll_sw_integer.c ****                        sw_info->bias.mem.start_offset, sw_info->bias.dim.num_elem, )
 128              		.loc 1 92 3 view .LVU28
 129 006c D3F8C420 		ldr	r2, [r3, #196]
 130 0070 C5E90200 		strd	r0, r0, [r5, #8]
ARM GAS  /tmp/ccZCp2co.s 			page 5


  94:../Middlewares/stedgeai-lib/Npu/ll_aton/ll_sw_integer.c ****                                                     : (AI_ARRAY_FORMAT_U8 | AI_FMT_FLAG_IS_IO);
 131              		.loc 1 94 3 is_stmt 1 view .LVU29
  92:../Middlewares/stedgeai-lib/Npu/ll_aton/ll_sw_integer.c ****                        sw_info->bias.mem.start_offset, sw_info->bias.dim.num_elem, )
 132              		.loc 1 92 3 is_stmt 0 view .LVU30
 133 0074 0192     		str	r2, [sp, #4]
 134 0076 6A60     		str	r2, [r5, #4]
 135              		.loc 1 95 53 view .LVU31
 136 0078 002C     		cmp	r4, #0
 137 007a 00F04D81 		beq	.L12
 138              		.loc 1 95 53 discriminator 1 view .LVU32
 139 007e DFF878C2 		ldr	ip, .L16
 140              	.L5:
 141              	.LVL11:
  96:../Middlewares/stedgeai-lib/Npu/ll_aton/ll_sw_integer.c ****   AI_ARRAY_OBJ_DECLARE(dense_output_array, format, sw_info->general.output.mem.start_offset,
 142              		.loc 1 96 3 is_stmt 1 view .LVU33
 143 0082 CDF89CC0 		str	ip, [sp, #156]
 144 0086 D3F854C0 		ldr	ip, [r3, #84]
 145              	.LVL12:
 146              		.loc 1 96 3 is_stmt 0 view .LVU34
 147 008a 1A6C     		ldr	r2, [r3, #64]
 148 008c CDE929CC 		strd	ip, ip, [sp, #164]
  97:../Middlewares/stedgeai-lib/Npu/ll_aton/ll_sw_integer.c ****                        sw_info->general.output.mem.start_offset, sw_info->general.output.dim.num_el
  98:../Middlewares/stedgeai-lib/Npu/ll_aton/ll_sw_integer.c **** 
  99:../Middlewares/stedgeai-lib/Npu/ll_aton/ll_sw_integer.c ****   uint16_t offset_format;
 149              		.loc 1 99 3 is_stmt 1 view .LVU35
 100:../Middlewares/stedgeai-lib/Npu/ll_aton/ll_sw_integer.c ****   uint16_t scale_format;
 150              		.loc 1 100 3 view .LVU36
 101:../Middlewares/stedgeai-lib/Npu/ll_aton/ll_sw_integer.c **** 
 102:../Middlewares/stedgeai-lib/Npu/ll_aton/ll_sw_integer.c ****   scale_format = AI_BUFFER_META_FLAG_SCALE_FLOAT;
 151              		.loc 1 102 3 view .LVU37
 152              	.LVL13:
 103:../Middlewares/stedgeai-lib/Npu/ll_aton/ll_sw_integer.c ****   offset_format =
 153              		.loc 1 103 3 view .LVU38
 154              		.loc 1 103 17 is_stmt 0 view .LVU39
 155 0090 93F88CC1 		ldrb	ip, [r3, #396]	@ zero_extendqisi2
  96:../Middlewares/stedgeai-lib/Npu/ll_aton/ll_sw_integer.c ****                        sw_info->general.output.mem.start_offset, sw_info->general.output.dim.num_el
 156              		.loc 1 96 3 view .LVU40
 157 0094 2892     		str	r2, [sp, #160]
 158              		.loc 1 103 17 discriminator 1 view .LVU41
 159 0096 BCF1000F 		cmp	ip, #0
 160 009a 0CBF     		ite	eq
 161 009c 4FF0020E 		moveq	lr, #2
 162 00a0 4FF0040E 		movne	lr, #4
 163              	.LVL14:
 104:../Middlewares/stedgeai-lib/Npu/ll_aton/ll_sw_integer.c ****       sw_info->izp.format.is_signed ? (AI_BUFFER_META_FLAG_ZEROPOINT_S8) : (AI_BUFFER_META_FLAG_ZER
 105:../Middlewares/stedgeai-lib/Npu/ll_aton/ll_sw_integer.c ****   ai_intq_info_list input_intq = {.flags = (scale_format | offset_format),
 164              		.loc 1 105 3 is_stmt 1 view .LVU42
 165              		.loc 1 105 21 is_stmt 0 view .LVU43
 166 00a4 4EF0010E 		orr	lr, lr, #1
 167              	.LVL15:
 168              		.loc 1 105 21 view .LVU44
 169 00a8 ADF818E0 		strh	lr, [sp, #24]	@ movhi
 106:../Middlewares/stedgeai-lib/Npu/ll_aton/ll_sw_integer.c ****                                   .size = sw_info->is.dim.num_elem,
 107:../Middlewares/stedgeai-lib/Npu/ll_aton/ll_sw_integer.c ****                                   .info = (const ai_intq_info[1]){{
 170              		.loc 1 107 66 view .LVU45
 171 00ac 0DF1200E 		add	lr, sp, #32
 105:../Middlewares/stedgeai-lib/Npu/ll_aton/ll_sw_integer.c ****                                   .size = sw_info->is.dim.num_elem,
ARM GAS  /tmp/ccZCp2co.s 			page 6


 172              		.loc 1 105 21 view .LVU46
 173 00b0 CDF81CE0 		str	lr, [sp, #28]
 108:../Middlewares/stedgeai-lib/Npu/ll_aton/ll_sw_integer.c ****                                       .scale = ((float *)sw_info->is.mem.start_offset),
 109:../Middlewares/stedgeai-lib/Npu/ll_aton/ll_sw_integer.c ****                                       .zeropoint = ((void *)sw_info->izp.mem.start_offset),
 110:../Middlewares/stedgeai-lib/Npu/ll_aton/ll_sw_integer.c ****                                   }}};
 111:../Middlewares/stedgeai-lib/Npu/ll_aton/ll_sw_integer.c ****   scale_format = AI_BUFFER_META_FLAG_SCALE_FLOAT;
 174              		.loc 1 111 3 is_stmt 1 view .LVU47
 112:../Middlewares/stedgeai-lib/Npu/ll_aton/ll_sw_integer.c ****   offset_format =
 175              		.loc 1 112 3 view .LVU48
 176              		.loc 1 112 17 is_stmt 0 view .LVU49
 177 00b4 93F834E1 		ldrb	lr, [r3, #308]	@ zero_extendqisi2
 105:../Middlewares/stedgeai-lib/Npu/ll_aton/ll_sw_integer.c ****                                   .size = sw_info->is.dim.num_elem,
 178              		.loc 1 105 21 view .LVU50
 179 00b8 D3F84821 		ldr	r2, [r3, #328]
 180              		.loc 1 112 17 discriminator 1 view .LVU51
 181 00bc BEF1000F 		cmp	lr, #0
 182              		.loc 1 112 17 discriminator 1 view .LVU52
 183 00c0 0CBF     		ite	eq
 184 00c2 4FF00208 		moveq	r8, #2
 185 00c6 4FF00408 		movne	r8, #4
 186              	.LVL16:
 113:../Middlewares/stedgeai-lib/Npu/ll_aton/ll_sw_integer.c ****       sw_info->wzp.format.is_signed ? (AI_BUFFER_META_FLAG_ZEROPOINT_S8) : (AI_BUFFER_META_FLAG_ZER
 114:../Middlewares/stedgeai-lib/Npu/ll_aton/ll_sw_integer.c ****   ai_intq_info_list weights_intq = {.flags = (scale_format | offset_format),
 187              		.loc 1 114 3 is_stmt 1 view .LVU53
 188              		.loc 1 114 21 is_stmt 0 view .LVU54
 189 00ca 48F00108 		orr	r8, r8, #1
 190              	.LVL17:
 191              		.loc 1 114 21 view .LVU55
 192 00ce ADF82880 		strh	r8, [sp, #40]	@ movhi
 115:../Middlewares/stedgeai-lib/Npu/ll_aton/ll_sw_integer.c ****                                     .size = sw_info->ws.dim.num_elem,
 116:../Middlewares/stedgeai-lib/Npu/ll_aton/ll_sw_integer.c ****                                     .info = (const ai_intq_info[1]){{
 193              		.loc 1 116 68 view .LVU56
 194 00d2 0DF13008 		add	r8, sp, #48
 114:../Middlewares/stedgeai-lib/Npu/ll_aton/ll_sw_integer.c ****                                     .size = sw_info->ws.dim.num_elem,
 195              		.loc 1 114 21 view .LVU57
 196 00d6 CDF82C80 		str	r8, [sp, #44]
 117:../Middlewares/stedgeai-lib/Npu/ll_aton/ll_sw_integer.c ****                                         .scale = ((float *)sw_info->ws.mem.start_offset),
 118:../Middlewares/stedgeai-lib/Npu/ll_aton/ll_sw_integer.c ****                                         .zeropoint = ((void *)sw_info->wzp.mem.start_offset),
 119:../Middlewares/stedgeai-lib/Npu/ll_aton/ll_sw_integer.c ****                                     }}};
 120:../Middlewares/stedgeai-lib/Npu/ll_aton/ll_sw_integer.c ****   scale_format = AI_BUFFER_META_FLAG_SCALE_FLOAT;
 197              		.loc 1 120 3 is_stmt 1 view .LVU58
 121:../Middlewares/stedgeai-lib/Npu/ll_aton/ll_sw_integer.c ****   offset_format =
 198              		.loc 1 121 3 view .LVU59
 199              		.loc 1 121 17 is_stmt 0 view .LVU60
 200 00da 93F8E481 		ldrb	r8, [r3, #484]	@ zero_extendqisi2
 105:../Middlewares/stedgeai-lib/Npu/ll_aton/ll_sw_integer.c ****                                   .size = sw_info->is.dim.num_elem,
 201              		.loc 1 105 21 view .LVU61
 202 00de ADF81A20 		strh	r2, [sp, #26]	@ movhi
 203              		.loc 1 121 17 discriminator 1 view .LVU62
 204 00e2 B8F1000F 		cmp	r8, #0
 205              		.loc 1 121 17 discriminator 1 view .LVU63
 206 00e6 0CBF     		ite	eq
 207 00e8 4FF00209 		moveq	r9, #2
 208 00ec 4FF00409 		movne	r9, #4
 209              	.LVL18:
 122:../Middlewares/stedgeai-lib/Npu/ll_aton/ll_sw_integer.c ****       sw_info->ozp.format.is_signed ? (AI_BUFFER_META_FLAG_ZEROPOINT_S8) : (AI_BUFFER_META_FLAG_ZER
 123:../Middlewares/stedgeai-lib/Npu/ll_aton/ll_sw_integer.c ****   ai_intq_info_list output_intq = {.flags = (scale_format | offset_format),
ARM GAS  /tmp/ccZCp2co.s 			page 7


 210              		.loc 1 123 3 is_stmt 1 view .LVU64
 107:../Middlewares/stedgeai-lib/Npu/ll_aton/ll_sw_integer.c ****                                       .scale = ((float *)sw_info->is.mem.start_offset),
 211              		.loc 1 107 66 is_stmt 0 view .LVU65
 212 00f0 D3F85C21 		ldr	r2, [r3, #348]
 213              		.loc 1 123 21 view .LVU66
 214 00f4 49F00109 		orr	r9, r9, #1
 215              	.LVL19:
 107:../Middlewares/stedgeai-lib/Npu/ll_aton/ll_sw_integer.c ****                                       .scale = ((float *)sw_info->is.mem.start_offset),
 216              		.loc 1 107 66 view .LVU67
 217 00f8 0892     		str	r2, [sp, #32]
 218 00fa D3F88821 		ldr	r2, [r3, #392]
 114:../Middlewares/stedgeai-lib/Npu/ll_aton/ll_sw_integer.c ****                                     .size = sw_info->ws.dim.num_elem,
 219              		.loc 1 114 21 view .LVU68
 220 00fe 0DF1280E 		add	lr, sp, #40
 107:../Middlewares/stedgeai-lib/Npu/ll_aton/ll_sw_integer.c ****                                       .scale = ((float *)sw_info->is.mem.start_offset),
 221              		.loc 1 107 66 view .LVU69
 222 0102 0992     		str	r2, [sp, #36]
 114:../Middlewares/stedgeai-lib/Npu/ll_aton/ll_sw_integer.c ****                                     .size = sw_info->ws.dim.num_elem,
 223              		.loc 1 114 21 view .LVU70
 224 0104 D3F8F020 		ldr	r2, [r3, #240]
 225              		.loc 1 123 21 view .LVU71
 226 0108 ADF83890 		strh	r9, [sp, #56]	@ movhi
 114:../Middlewares/stedgeai-lib/Npu/ll_aton/ll_sw_integer.c ****                                     .size = sw_info->ws.dim.num_elem,
 227              		.loc 1 114 21 view .LVU72
 228 010c ADF82A20 		strh	r2, [sp, #42]	@ movhi
 116:../Middlewares/stedgeai-lib/Npu/ll_aton/ll_sw_integer.c ****                                         .scale = ((float *)sw_info->ws.mem.start_offset),
 229              		.loc 1 116 68 view .LVU73
 230 0110 D3F80421 		ldr	r2, [r3, #260]
 124:../Middlewares/stedgeai-lib/Npu/ll_aton/ll_sw_integer.c ****                                    .size = sw_info->os.dim.num_elem,
 125:../Middlewares/stedgeai-lib/Npu/ll_aton/ll_sw_integer.c ****                                    .info = (const ai_intq_info[1]){{
 231              		.loc 1 125 67 view .LVU74
 232 0114 0DF14009 		add	r9, sp, #64
 116:../Middlewares/stedgeai-lib/Npu/ll_aton/ll_sw_integer.c ****                                         .scale = ((float *)sw_info->ws.mem.start_offset),
 233              		.loc 1 116 68 view .LVU75
 234 0118 0C92     		str	r2, [sp, #48]
 235 011a D3F83021 		ldr	r2, [r3, #304]
 126:../Middlewares/stedgeai-lib/Npu/ll_aton/ll_sw_integer.c ****                                        .scale = ((float *)sw_info->os.mem.start_offset),
 127:../Middlewares/stedgeai-lib/Npu/ll_aton/ll_sw_integer.c ****                                        .zeropoint = ((void *)sw_info->ozp.mem.start_offset),
 128:../Middlewares/stedgeai-lib/Npu/ll_aton/ll_sw_integer.c ****                                    }}};
 129:../Middlewares/stedgeai-lib/Npu/ll_aton/ll_sw_integer.c **** 
 130:../Middlewares/stedgeai-lib/Npu/ll_aton/ll_sw_integer.c ****   AI_TENSOR_OBJ_DECLARE(dense_weights, , 0x0, 4,
 236              		.loc 1 130 3 view .LVU76
 237 011e 0DF1AC0A 		add	r10, sp, #172
 116:../Middlewares/stedgeai-lib/Npu/ll_aton/ll_sw_integer.c ****                                         .scale = ((float *)sw_info->ws.mem.start_offset),
 238              		.loc 1 116 68 view .LVU77
 239 0122 0D92     		str	r2, [sp, #52]
 123:../Middlewares/stedgeai-lib/Npu/ll_aton/ll_sw_integer.c ****                                    .size = sw_info->os.dim.num_elem,
 240              		.loc 1 123 21 view .LVU78
 241 0124 D3F8A021 		ldr	r2, [r3, #416]
 242              		.loc 1 130 3 view .LVU79
 243 0128 0DF1BC0B 		add	fp, sp, #188
 123:../Middlewares/stedgeai-lib/Npu/ll_aton/ll_sw_integer.c ****                                    .size = sw_info->os.dim.num_elem,
 244              		.loc 1 123 21 view .LVU80
 245 012c ADF83A20 		strh	r2, [sp, #58]	@ movhi
 125:../Middlewares/stedgeai-lib/Npu/ll_aton/ll_sw_integer.c ****                                        .scale = ((float *)sw_info->os.mem.start_offset),
 246              		.loc 1 125 67 view .LVU81
 247 0130 D3F8B421 		ldr	r2, [r3, #436]
ARM GAS  /tmp/ccZCp2co.s 			page 8


 105:../Middlewares/stedgeai-lib/Npu/ll_aton/ll_sw_integer.c ****                                   .size = sw_info->is.dim.num_elem,
 248              		.loc 1 105 21 view .LVU82
 249 0134 0DF1180C 		add	ip, sp, #24
 125:../Middlewares/stedgeai-lib/Npu/ll_aton/ll_sw_integer.c ****                                        .scale = ((float *)sw_info->os.mem.start_offset),
 250              		.loc 1 125 67 view .LVU83
 251 0138 1092     		str	r2, [sp, #64]
 252 013a D3F8E021 		ldr	r2, [r3, #480]
 123:../Middlewares/stedgeai-lib/Npu/ll_aton/ll_sw_integer.c ****                                    .size = sw_info->os.dim.num_elem,
 253              		.loc 1 123 21 view .LVU84
 254 013e 0DF13808 		add	r8, sp, #56
 125:../Middlewares/stedgeai-lib/Npu/ll_aton/ll_sw_integer.c ****                                        .scale = ((float *)sw_info->os.mem.start_offset),
 255              		.loc 1 125 67 view .LVU85
 256 0142 1192     		str	r2, [sp, #68]
 123:../Middlewares/stedgeai-lib/Npu/ll_aton/ll_sw_integer.c ****                                    .size = sw_info->os.dim.num_elem,
 257              		.loc 1 123 21 view .LVU86
 258 0144 CDF83C90 		str	r9, [sp, #60]
 259              		.loc 1 130 3 is_stmt 1 view .LVU87
 260 0148 4FF08279 		mov	r9, #17039360
 261 014c CDE958B1 		strd	fp, r1, [sp, #352]
 131:../Middlewares/stedgeai-lib/Npu/ll_aton/ll_sw_integer.c ****                         SHAPE_INIT(sw_info->weights.dim.tensor_h, sw_info->weights.dim.tensor_w,
 132:../Middlewares/stedgeai-lib/Npu/ll_aton/ll_sw_integer.c ****                                    sw_info->weights.dim.tensor_c, sw_info->weights.dim.tensor_b),
 133:../Middlewares/stedgeai-lib/Npu/ll_aton/ll_sw_integer.c ****                         // ,0x0, 4, SHAPE_INIT(sw_info->weights.dim.tensor_b, sw_info->weights.dim.
 134:../Middlewares/stedgeai-lib/Npu/ll_aton/ll_sw_integer.c ****                         // sw_info->weights.dim.tensor_h, sw_info->weights.dim.tensor_w),
 135:../Middlewares/stedgeai-lib/Npu/ll_aton/ll_sw_integer.c ****                         STRIDE_INIT(sw_info->weights.stride.h, sw_info->weights.stride.w, sw_info->
 136:../Middlewares/stedgeai-lib/Npu/ll_aton/ll_sw_integer.c ****                                     sw_info->weights.stride.b),
 137:../Middlewares/stedgeai-lib/Npu/ll_aton/ll_sw_integer.c ****                         1, &dense_weights_array, &weights_intq);
 262              		.loc 1 137 64 view .LVU88
 138:../Middlewares/stedgeai-lib/Npu/ll_aton/ll_sw_integer.c ****   AI_TENSOR_OBJ_DECLARE(dense_scratch0, , 0x0, 4,
 263              		.loc 1 138 3 view .LVU89
 130:../Middlewares/stedgeai-lib/Npu/ll_aton/ll_sw_integer.c ****                         SHAPE_INIT(sw_info->weights.dim.tensor_h, sw_info->weights.dim.tensor_w,
 264              		.loc 1 130 3 is_stmt 0 view .LVU90
 265 0150 CDF84CE1 		str	lr, [sp, #332]
 266              		.loc 1 138 3 view .LVU91
 267 0154 0021     		movs	r1, #0
 130:../Middlewares/stedgeai-lib/Npu/ll_aton/ll_sw_integer.c ****                         SHAPE_INIT(sw_info->weights.dim.tensor_h, sw_info->weights.dim.tensor_w,
 268              		.loc 1 130 3 view .LVU92
 269 0156 40F2014E 		movw	lr, #1025
 270 015a CDF858A1 		str	r10, [sp, #344]
 271 015e 40F2024A 		movw	r10, #1026
 272 0162 9A6E     		ldr	r2, [r3, #104]
 273 0164 CDE9549E 		strd	r9, lr, [sp, #336]
 274 0168 2B92     		str	r2, [sp, #172]
 275 016a 5A6E     		ldr	r2, [r3, #100]
 276              		.loc 1 138 3 view .LVU93
 277 016c CDF870E1 		str	lr, [sp, #368]
 130:../Middlewares/stedgeai-lib/Npu/ll_aton/ll_sw_integer.c ****                         SHAPE_INIT(sw_info->weights.dim.tensor_h, sw_info->weights.dim.tensor_w,
 278              		.loc 1 130 3 view .LVU94
 279 0170 2C92     		str	r2, [sp, #176]
 280 0172 1A6E     		ldr	r2, [r3, #96]
 281              		.loc 1 138 3 view .LVU95
 282 0174 CDE95A19 		strd	r1, r9, [sp, #360]
 130:../Middlewares/stedgeai-lib/Npu/ll_aton/ll_sw_integer.c ****                         SHAPE_INIT(sw_info->weights.dim.tensor_h, sw_info->weights.dim.tensor_w,
 283              		.loc 1 130 3 view .LVU96
 284 0178 2D92     		str	r2, [sp, #180]
 285 017a DA6D     		ldr	r2, [r3, #92]
 286 017c CDF85CA1 		str	r10, [sp, #348]
 287 0180 2E92     		str	r2, [sp, #184]
ARM GAS  /tmp/ccZCp2co.s 			page 9


 288 0182 DA6F     		ldr	r2, [r3, #124]
 289              		.loc 1 138 3 view .LVU97
 290 0184 0DF1CC0B 		add	fp, sp, #204
 130:../Middlewares/stedgeai-lib/Npu/ll_aton/ll_sw_integer.c ****                         SHAPE_INIT(sw_info->weights.dim.tensor_h, sw_info->weights.dim.tensor_w,
 291              		.loc 1 130 3 view .LVU98
 292 0188 2F92     		str	r2, [sp, #188]
 293 018a 9A6F     		ldr	r2, [r3, #120]
  96:../Middlewares/stedgeai-lib/Npu/ll_aton/ll_sw_integer.c ****                        sw_info->general.output.mem.start_offset, sw_info->general.output.dim.num_el
 294              		.loc 1 96 3 view .LVU99
 295 018c 27AC     		add	r4, sp, #156
 296              	.LVL20:
 130:../Middlewares/stedgeai-lib/Npu/ll_aton/ll_sw_integer.c ****                         SHAPE_INIT(sw_info->weights.dim.tensor_h, sw_info->weights.dim.tensor_w,
 297              		.loc 1 130 3 view .LVU100
 298 018e 3092     		str	r2, [sp, #192]
 299 0190 5A6F     		ldr	r2, [r3, #116]
 300 0192 3192     		str	r2, [sp, #196]
 301 0194 1A6F     		ldr	r2, [r3, #112]
 302 0196 3292     		str	r2, [sp, #200]
 303              		.loc 1 138 3 view .LVU101
 304 0198 D3F89420 		ldr	r2, [r3, #148]
 305 019c 3392     		str	r2, [sp, #204]
 306 019e D3F89020 		ldr	r2, [r3, #144]
 307 01a2 3492     		str	r2, [sp, #208]
 308 01a4 D3F88C20 		ldr	r2, [r3, #140]
 309 01a8 3592     		str	r2, [sp, #212]
 310 01aa D3F88820 		ldr	r2, [r3, #136]
 311 01ae CDE95DBA 		strd	fp, r10, [sp, #372]
 312 01b2 3692     		str	r2, [sp, #216]
 313 01b4 D3F8A820 		ldr	r2, [r3, #168]
 314 01b8 0DF1DC0B 		add	fp, sp, #220
 315 01bc 3792     		str	r2, [sp, #220]
 316 01be D3F8A420 		ldr	r2, [r3, #164]
 317 01c2 CDE95FB7 		strd	fp, r7, [sp, #380]
 139:../Middlewares/stedgeai-lib/Npu/ll_aton/ll_sw_integer.c ****                         SHAPE_INIT(sw_info->scratch.dim.tensor_h, sw_info->scratch.dim.tensor_w,
 140:../Middlewares/stedgeai-lib/Npu/ll_aton/ll_sw_integer.c ****                                    sw_info->scratch.dim.tensor_c, sw_info->scratch.dim.tensor_b),
 141:../Middlewares/stedgeai-lib/Npu/ll_aton/ll_sw_integer.c ****                         STRIDE_INIT(sw_info->scratch.stride.h, sw_info->scratch.stride.w, sw_info->
 142:../Middlewares/stedgeai-lib/Npu/ll_aton/ll_sw_integer.c ****                                     sw_info->scratch.stride.b),
 143:../Middlewares/stedgeai-lib/Npu/ll_aton/ll_sw_integer.c ****                         1, &dense_scratch0_array, NULL);
 318              		.loc 1 143 56 is_stmt 1 view .LVU102
 144:../Middlewares/stedgeai-lib/Npu/ll_aton/ll_sw_integer.c ****   AI_TENSOR_OBJ_DECLARE(input_output, , 0x0, 4,
 319              		.loc 1 144 3 view .LVU103
 138:../Middlewares/stedgeai-lib/Npu/ll_aton/ll_sw_integer.c ****                         SHAPE_INIT(sw_info->scratch.dim.tensor_h, sw_info->scratch.dim.tensor_w,
 320              		.loc 1 138 3 is_stmt 0 view .LVU104
 321 01c6 3892     		str	r2, [sp, #224]
 322 01c8 D3F8A020 		ldr	r2, [r3, #160]
 323              		.loc 1 144 3 view .LVU105
 324 01cc 3BAF     		add	r7, sp, #236
 138:../Middlewares/stedgeai-lib/Npu/ll_aton/ll_sw_integer.c ****                         SHAPE_INIT(sw_info->scratch.dim.tensor_h, sw_info->scratch.dim.tensor_w,
 325              		.loc 1 138 3 view .LVU106
 326 01ce 3992     		str	r2, [sp, #228]
 327 01d0 D3F89C20 		ldr	r2, [r3, #156]
 328              		.loc 1 144 3 view .LVU107
 329 01d4 CDE9647A 		strd	r7, r10, [sp, #400]
 138:../Middlewares/stedgeai-lib/Npu/ll_aton/ll_sw_integer.c ****                         SHAPE_INIT(sw_info->scratch.dim.tensor_h, sw_info->scratch.dim.tensor_w,
 330              		.loc 1 138 3 view .LVU108
 331 01d8 3A92     		str	r2, [sp, #232]
 332              		.loc 1 144 3 view .LVU109
ARM GAS  /tmp/ccZCp2co.s 			page 10


 333 01da 1A69     		ldr	r2, [r3, #16]
 334 01dc 3FAF     		add	r7, sp, #252
 335 01de 3B92     		str	r2, [sp, #236]
 336 01e0 DA68     		ldr	r2, [r3, #12]
 337 01e2 CDE961C9 		strd	ip, r9, [sp, #388]
 338 01e6 3C92     		str	r2, [sp, #240]
 339 01e8 9A68     		ldr	r2, [r3, #8]
 340 01ea CDF88CE1 		str	lr, [sp, #396]
 341 01ee 3D92     		str	r2, [sp, #244]
 342 01f0 5A68     		ldr	r2, [r3, #4]
 343 01f2 3E92     		str	r2, [sp, #248]
 344 01f4 5A6A     		ldr	r2, [r3, #36]
 345 01f6 3F92     		str	r2, [sp, #252]
 346 01f8 1A6A     		ldr	r2, [r3, #32]
 347 01fa 4092     		str	r2, [sp, #256]
 348 01fc DA69     		ldr	r2, [r3, #28]
 349 01fe 4192     		str	r2, [sp, #260]
 350 0200 CDE96676 		strd	r7, r6, [sp, #408]
 145:../Middlewares/stedgeai-lib/Npu/ll_aton/ll_sw_integer.c ****                         SHAPE_INIT(sw_info->general.input.dim.tensor_h, sw_info->general.input.dim.
 146:../Middlewares/stedgeai-lib/Npu/ll_aton/ll_sw_integer.c ****                                    sw_info->general.input.dim.tensor_c, sw_info->general.input.dim.
 147:../Middlewares/stedgeai-lib/Npu/ll_aton/ll_sw_integer.c ****                         STRIDE_INIT(sw_info->general.input.stride.h, sw_info->general.input.stride.
 148:../Middlewares/stedgeai-lib/Npu/ll_aton/ll_sw_integer.c ****                                     sw_info->general.input.stride.c, sw_info->general.input.stride.
 149:../Middlewares/stedgeai-lib/Npu/ll_aton/ll_sw_integer.c ****                         1, &input_output_array, &input_intq);
 351              		.loc 1 149 61 is_stmt 1 view .LVU110
 150:../Middlewares/stedgeai-lib/Npu/ll_aton/ll_sw_integer.c ****   AI_TENSOR_OBJ_DECLARE(
 352              		.loc 1 150 3 view .LVU111
 353 0204 D3F8C060 		ldr	r6, [r3, #192]
 354 0208 43AF     		add	r7, sp, #268
 355 020a 4396     		str	r6, [sp, #268]
 356 020c D3F8B860 		ldr	r6, [r3, #184]
 357 0210 CDE96B7A 		strd	r7, r10, [sp, #428]
 358 0214 4496     		str	r6, [sp, #272]
 359 0216 D3F8BC60 		ldr	r6, [r3, #188]
 360 021a 47AF     		add	r7, sp, #284
 361 021c 4596     		str	r6, [sp, #276]
 362 021e D3F8B460 		ldr	r6, [r3, #180]
 144:../Middlewares/stedgeai-lib/Npu/ll_aton/ll_sw_integer.c ****                         SHAPE_INIT(sw_info->general.input.dim.tensor_h, sw_info->general.input.dim.
 363              		.loc 1 144 3 is_stmt 0 view .LVU112
 364 0222 9A69     		ldr	r2, [r3, #24]
 365              		.loc 1 150 3 view .LVU113
 366 0224 4696     		str	r6, [sp, #280]
 367 0226 D3F8D460 		ldr	r6, [r3, #212]
 368 022a CDE96D75 		strd	r7, r5, [sp, #436]
 151:../Middlewares/stedgeai-lib/Npu/ll_aton/ll_sw_integer.c ****       dense_bias, , 0x0, 4,
 152:../Middlewares/stedgeai-lib/Npu/ll_aton/ll_sw_integer.c ****       SHAPE_INIT(sw_info->bias.dim.tensor_h, sw_info->bias.dim.tensor_c, sw_info->bias.dim.tensor_w
 153:../Middlewares/stedgeai-lib/Npu/ll_aton/ll_sw_integer.c ****                  sw_info->bias.dim.tensor_b),
 154:../Middlewares/stedgeai-lib/Npu/ll_aton/ll_sw_integer.c ****       STRIDE_INIT(sw_info->bias.stride.h, sw_info->bias.stride.w, sw_info->bias.stride.c, sw_info->
 155:../Middlewares/stedgeai-lib/Npu/ll_aton/ll_sw_integer.c ****       &dense_bias_array, NULL);
 369              		.loc 1 155 31 is_stmt 1 view .LVU114
 156:../Middlewares/stedgeai-lib/Npu/ll_aton/ll_sw_integer.c ****   AI_TENSOR_OBJ_DECLARE(dense_output, , 0x0, 4,
 370              		.loc 1 156 3 view .LVU115
 150:../Middlewares/stedgeai-lib/Npu/ll_aton/ll_sw_integer.c ****       dense_bias, , 0x0, 4,
 371              		.loc 1 150 3 is_stmt 0 view .LVU116
 372 022e 4796     		str	r6, [sp, #284]
 373 0230 D3F8D060 		ldr	r6, [r3, #208]
 374              		.loc 1 156 3 view .LVU117
 375 0234 DD6B     		ldr	r5, [r3, #60]
ARM GAS  /tmp/ccZCp2co.s 			page 11


 150:../Middlewares/stedgeai-lib/Npu/ll_aton/ll_sw_integer.c ****       dense_bias, , 0x0, 4,
 376              		.loc 1 150 3 view .LVU118
 377 0236 4896     		str	r6, [sp, #288]
 378 0238 D3F8CC60 		ldr	r6, [r3, #204]
 379 023c CDF8A8E1 		str	lr, [sp, #424]
 380 0240 4996     		str	r6, [sp, #292]
 381 0242 D3F8C860 		ldr	r6, [r3, #200]
 382              		.loc 1 156 3 view .LVU119
 383 0246 CDF8C4E1 		str	lr, [sp, #452]
 150:../Middlewares/stedgeai-lib/Npu/ll_aton/ll_sw_integer.c ****       dense_bias, , 0x0, 4,
 384              		.loc 1 150 3 view .LVU120
 385 024a CDE96819 		strd	r1, r9, [sp, #416]
 144:../Middlewares/stedgeai-lib/Npu/ll_aton/ll_sw_integer.c ****                         SHAPE_INIT(sw_info->general.input.dim.tensor_h, sw_info->general.input.dim.
 386              		.loc 1 144 3 view .LVU121
 387 024e 4292     		str	r2, [sp, #264]
 150:../Middlewares/stedgeai-lib/Npu/ll_aton/ll_sw_integer.c ****       dense_bias, , 0x0, 4,
 388              		.loc 1 150 3 view .LVU122
 389 0250 4A96     		str	r6, [sp, #296]
 390              		.loc 1 156 3 view .LVU123
 391 0252 CDE96F89 		strd	r8, r9, [sp, #444]
 392 0256 4B95     		str	r5, [sp, #300]
 393 0258 9D6B     		ldr	r5, [r3, #56]
 157:../Middlewares/stedgeai-lib/Npu/ll_aton/ll_sw_integer.c ****                         SHAPE_INIT(sw_info->general.output.dim.tensor_h, sw_info->general.output.di
 158:../Middlewares/stedgeai-lib/Npu/ll_aton/ll_sw_integer.c ****                                    sw_info->general.output.dim.tensor_c, sw_info->general.output.di
 159:../Middlewares/stedgeai-lib/Npu/ll_aton/ll_sw_integer.c ****                         STRIDE_INIT(sw_info->general.output.stride.h, sw_info->general.output.strid
 160:../Middlewares/stedgeai-lib/Npu/ll_aton/ll_sw_integer.c ****                                     sw_info->general.output.stride.c, sw_info->general.output.strid
 161:../Middlewares/stedgeai-lib/Npu/ll_aton/ll_sw_integer.c ****                         1, &dense_output_array, &output_intq);
 162:../Middlewares/stedgeai-lib/Npu/ll_aton/ll_sw_integer.c ****   // tensor chain initialization
 163:../Middlewares/stedgeai-lib/Npu/ll_aton/ll_sw_integer.c ****   AI_TENSOR_CHAIN_OBJ_DECLARE(dense_chain, , 4, AI_TENSOR_LIST_OBJ_INIT(AI_FLAG_NONE, 1, TENSORS(&i
 394              		.loc 1 163 3 view .LVU124
 395 025a 61AE     		add	r6, sp, #388
 156:../Middlewares/stedgeai-lib/Npu/ll_aton/ll_sw_integer.c ****                         SHAPE_INIT(sw_info->general.output.dim.tensor_h, sw_info->general.output.di
 396              		.loc 1 156 3 view .LVU125
 397 025c 4C95     		str	r5, [sp, #304]
 398 025e 5D6B     		ldr	r5, [r3, #52]
 399              		.loc 1 163 3 view .LVU126
 400 0260 0396     		str	r6, [sp, #12]
 156:../Middlewares/stedgeai-lib/Npu/ll_aton/ll_sw_integer.c ****                         SHAPE_INIT(sw_info->general.output.dim.tensor_h, sw_info->general.output.di
 401              		.loc 1 156 3 view .LVU127
 402 0262 4D95     		str	r5, [sp, #308]
 403 0264 1D6B     		ldr	r5, [r3, #48]
 404              		.loc 1 163 3 view .LVU128
 405 0266 6FAE     		add	r6, sp, #444
 156:../Middlewares/stedgeai-lib/Npu/ll_aton/ll_sw_integer.c ****                         SHAPE_INIT(sw_info->general.output.dim.tensor_h, sw_info->general.output.di
 406              		.loc 1 156 3 view .LVU129
 407 0268 4E95     		str	r5, [sp, #312]
 408 026a 4BAD     		add	r5, sp, #300
 409 026c CDE9725A 		strd	r5, r10, [sp, #456]
 410 0270 1D6D     		ldr	r5, [r3, #80]
 411              		.loc 1 163 3 view .LVU130
 412 0272 0496     		str	r6, [sp, #16]
 156:../Middlewares/stedgeai-lib/Npu/ll_aton/ll_sw_integer.c ****                         SHAPE_INIT(sw_info->general.output.dim.tensor_h, sw_info->general.output.di
 413              		.loc 1 156 3 view .LVU131
 414 0274 4F95     		str	r5, [sp, #316]
 415 0276 DD6C     		ldr	r5, [r3, #76]
 416              		.loc 1 163 3 view .LVU132
 417 0278 53AE     		add	r6, sp, #332
ARM GAS  /tmp/ccZCp2co.s 			page 12


 156:../Middlewares/stedgeai-lib/Npu/ll_aton/ll_sw_integer.c ****                         SHAPE_INIT(sw_info->general.output.dim.tensor_h, sw_info->general.output.di
 418              		.loc 1 156 3 view .LVU133
 419 027a 5095     		str	r5, [sp, #320]
 420 027c 9D6C     		ldr	r5, [r3, #72]
 421 027e 5B6C     		ldr	r3, [r3, #68]
 422              	.LVL21:
 156:../Middlewares/stedgeai-lib/Npu/ll_aton/ll_sw_integer.c ****                         SHAPE_INIT(sw_info->general.output.dim.tensor_h, sw_info->general.output.di
 423              		.loc 1 156 3 view .LVU134
 424 0280 5195     		str	r5, [sp, #324]
 425 0282 5293     		str	r3, [sp, #328]
 426 0284 4FAB     		add	r3, sp, #316
 427 0286 CDE97434 		strd	r3, r4, [sp, #464]
 161:../Middlewares/stedgeai-lib/Npu/ll_aton/ll_sw_integer.c ****   // tensor chain initialization
 428              		.loc 1 161 62 is_stmt 1 view .LVU135
 429              		.loc 1 163 3 view .LVU136
 430 028a 0423     		movs	r3, #4
 431 028c 1293     		str	r3, [sp, #72]
 432 028e 03AB     		add	r3, sp, #12
 433 0290 CDE97F31 		strd	r3, r1, [sp, #508]
 434 0294 04AB     		add	r3, sp, #16
 435 0296 CDE98231 		strd	r3, r1, [sp, #520]
 436 029a 0323     		movs	r3, #3
 437 029c 0125     		movs	r5, #1
 438 029e 8493     		str	r3, [sp, #528]
 439 02a0 1496     		str	r6, [sp, #80]
 440 02a2 14AB     		add	r3, sp, #80
 441 02a4 68AE     		add	r6, sp, #416
 442 02a6 CDE91561 		strd	r6, r1, [sp, #84]
 443 02aa 7E95     		str	r5, [sp, #504]
 444 02ac 8195     		str	r5, [sp, #516]
 445 02ae CDE98531 		strd	r3, r1, [sp, #532]
 446 02b2 05AB     		add	r3, sp, #20
 447 02b4 CDE98831 		strd	r3, r1, [sp, #544]
 448 02b8 7EAB     		add	r3, sp, #504
 449 02ba 1393     		str	r3, [sp, #76]
 164:../Middlewares/stedgeai-lib/Npu/ll_aton/ll_sw_integer.c ****                               AI_TENSOR_LIST_OBJ_INIT(AI_FLAG_NONE, 1, TENSORS(&dense_output)),
 165:../Middlewares/stedgeai-lib/Npu/ll_aton/ll_sw_integer.c ****                               AI_TENSOR_LIST_OBJ_INIT(AI_FLAG_NONE, 3, TENSORS(&dense_weights, &den
 166:../Middlewares/stedgeai-lib/Npu/ll_aton/ll_sw_integer.c ****                               AI_TENSOR_LIST_OBJ_INIT(AI_FLAG_NONE, 1, TENSORS(&dense_scratch0)))
 167:../Middlewares/stedgeai-lib/Npu/ll_aton/ll_sw_integer.c **** 
 168:../Middlewares/stedgeai-lib/Npu/ll_aton/ll_sw_integer.c ****   memset(sw_info->bias.mem.start_offset, 0x0, sw_info->bias.dim.num_elem * 4);
 450              		.loc 1 168 3 view .LVU137
 451 02bc 019B     		ldr	r3, [sp, #4]
 163:../Middlewares/stedgeai-lib/Npu/ll_aton/ll_sw_integer.c ****                               AI_TENSOR_LIST_OBJ_INIT(AI_FLAG_NONE, 1, TENSORS(&dense_output)),
 452              		.loc 1 163 3 is_stmt 0 view .LVU138
 453 02be 8795     		str	r5, [sp, #540]
 454              		.loc 1 168 3 view .LVU139
 455 02c0 9A00     		lsls	r2, r3, #2
 163:../Middlewares/stedgeai-lib/Npu/ll_aton/ll_sw_integer.c ****                               AI_TENSOR_LIST_OBJ_INIT(AI_FLAG_NONE, 1, TENSORS(&dense_output)),
 456              		.loc 1 163 3 view .LVU140
 457 02c2 5AAD     		add	r5, sp, #360
 458 02c4 0595     		str	r5, [sp, #20]
 459              		.loc 1 168 3 view .LVU141
 460 02c6 FFF7FEFF 		bl	memset
 461              	.LVL22:
 169:../Middlewares/stedgeai-lib/Npu/ll_aton/ll_sw_integer.c **** 
 170:../Middlewares/stedgeai-lib/Npu/ll_aton/ll_sw_integer.c ****   // layer initialization
 171:../Middlewares/stedgeai-lib/Npu/ll_aton/ll_sw_integer.c ****   AI_LAYER_OBJ_DECLARE(dense_layer, 1, DENSE_TYPE, 0x0, NULL, dense, forward_dense_integer /*_fixed
ARM GAS  /tmp/ccZCp2co.s 			page 13


 462              		.loc 1 171 3 is_stmt 1 view .LVU142
 463 02ca 0E4B     		ldr	r3, .L16+12
 464 02cc 1C22     		movs	r2, #28
 465 02ce 0021     		movs	r1, #0
 466 02d0 77A8     		add	r0, sp, #476
 467 02d2 7693     		str	r3, [sp, #472]
 468 02d4 FFF7FEFF 		bl	memset
 469              	.LVL23:
 470 02d8 0B4B     		ldr	r3, .L16+16
 163:../Middlewares/stedgeai-lib/Npu/ll_aton/ll_sw_integer.c ****                               AI_TENSOR_LIST_OBJ_INIT(AI_FLAG_NONE, 1, TENSORS(&dense_output)),
 471              		.loc 1 163 3 is_stmt 0 view .LVU143
 472 02da 12AC     		add	r4, sp, #72
 172:../Middlewares/stedgeai-lib/Npu/ll_aton/ll_sw_integer.c ****                        NULL, NULL, , )
 173:../Middlewares/stedgeai-lib/Npu/ll_aton/ll_sw_integer.c **** 
 174:../Middlewares/stedgeai-lib/Npu/ll_aton/ll_sw_integer.c ****   dense_layer.forward(AI_LAYER_OBJ(&dense_layer));
 473              		.loc 1 174 3 view .LVU144
 474 02dc 76A8     		add	r0, sp, #472
 171:../Middlewares/stedgeai-lib/Npu/ll_aton/ll_sw_integer.c ****                        NULL, NULL, , )
 475              		.loc 1 171 3 view .LVU145
 476 02de CDE97B34 		strd	r3, r4, [sp, #492]
 477              		.loc 1 174 3 is_stmt 1 view .LVU146
 478 02e2 FFF7FEFF 		bl	forward_dense_integer
 479              	.LVL24:
 175:../Middlewares/stedgeai-lib/Npu/ll_aton/ll_sw_integer.c **** }
 480              		.loc 1 175 1 is_stmt 0 view .LVU147
 481 02e6 0DF50B7D 		add	sp, sp, #556
 482              		.cfi_remember_state
 483              		.cfi_def_cfa_offset 36
 484              		@ sp needed
 485 02ea BDE8F08F 		pop	{r4, r5, r6, r7, r8, r9, r10, fp, pc}
 486              	.LVL25:
 487              	.L9:
 488              		.cfi_restore_state
  82:../Middlewares/stedgeai-lib/Npu/ll_aton/ll_sw_integer.c ****   AI_ARRAY_OBJ_DECLARE(input_output_array, format, sw_info->general.input.mem.start_offset,
 489              		.loc 1 82 52 discriminator 2 view .LVU148
 490 02ee 074A     		ldr	r2, .L16+20
 491 02f0 91E6     		b	.L2
 492              	.LVL26:
 493              	.L10:
  85:../Middlewares/stedgeai-lib/Npu/ll_aton/ll_sw_integer.c ****   AI_ARRAY_OBJ_DECLARE(dense_weights_array, format, sw_info->weights.mem.start_offset,
 494              		.loc 1 85 69 discriminator 2 view .LVU149
 495 02f2 074A     		ldr	r2, .L16+24
 496 02f4 9CE6     		b	.L3
 497              	.L17:
 498 02f6 00BF     		.align	2
 499              	.L16:
 500 02f8 40048408 		.word	142869568
 501 02fc 40048400 		.word	8651840
 502 0300 40108400 		.word	8654912
 503 0304 04010100 		.word	65796
 504 0308 00000000 		.word	forward_dense_integer
 505 030c 40040408 		.word	134480960
 506 0310 40040400 		.word	263232
 507              	.LVL27:
 508              	.L11:
  88:../Middlewares/stedgeai-lib/Npu/ll_aton/ll_sw_integer.c ****   AI_ARRAY_OBJ_DECLARE(dense_scratch0_array, format, sw_info->scratch.mem.start_offset,
 509              		.loc 1 88 69 discriminator 2 view .LVU150
ARM GAS  /tmp/ccZCp2co.s 			page 14


 510 0314 024A     		ldr	r2, .L18
 511 0316 99E6     		b	.L4
 512              	.LVL28:
 513              	.L12:
  95:../Middlewares/stedgeai-lib/Npu/ll_aton/ll_sw_integer.c ****   AI_ARRAY_OBJ_DECLARE(dense_output_array, format, sw_info->general.output.mem.start_offset,
 514              		.loc 1 95 53 discriminator 2 view .LVU151
 515 0318 DFF808C0 		ldr	ip, .L18+4
 516 031c B1E6     		b	.L5
 517              	.L19:
 518 031e 00BF     		.align	2
 519              	.L18:
 520 0320 40040400 		.word	263232
 521 0324 40040408 		.word	134480960
 522              		.cfi_endproc
 523              	.LFE15:
 525              		.section	.text.ll_sw_forward_gemm_integer,"ax",%progbits
 526              		.align	1
 527              		.global	ll_sw_forward_gemm_integer
 528              		.syntax unified
 529              		.thumb
 530              		.thumb_func
 532              	ll_sw_forward_gemm_integer:
 533              	.LVL29:
 534              	.LFB16:
 176:../Middlewares/stedgeai-lib/Npu/ll_aton/ll_sw_integer.c **** 
 177:../Middlewares/stedgeai-lib/Npu/ll_aton/ll_sw_integer.c **** //##########################################################################################
 178:../Middlewares/stedgeai-lib/Npu/ll_aton/ll_sw_integer.c **** /** QLinearMatMul forward function */
 179:../Middlewares/stedgeai-lib/Npu/ll_aton/ll_sw_integer.c **** void ll_sw_forward_gemm_integer(Gemm_integer_sw_info *sw_info)
 180:../Middlewares/stedgeai-lib/Npu/ll_aton/ll_sw_integer.c **** {
 535              		.loc 1 180 1 is_stmt 1 view -0
 536              		.cfi_startproc
 537              		@ args = 0, pretend = 0, frame = 544
 538              		@ frame_needed = 0, uses_anonymous_args = 0
 181:../Middlewares/stedgeai-lib/Npu/ll_aton/ll_sw_integer.c ****   /*
 182:../Middlewares/stedgeai-lib/Npu/ll_aton/ll_sw_integer.c ****   1. reshape of the weights from weights tensor -> weights_perm tensor
 183:../Middlewares/stedgeai-lib/Npu/ll_aton/ll_sw_integer.c ****   2. map the matmul operation on the library dense_forward function.
 184:../Middlewares/stedgeai-lib/Npu/ll_aton/ll_sw_integer.c ****           this requires 1d input (on ch) and 2d weights (ch e chin). in particular:
 185:../Middlewares/stedgeai-lib/Npu/ll_aton/ll_sw_integer.c ****           - input: 1,1,NIN,1
 186:../Middlewares/stedgeai-lib/Npu/ll_aton/ll_sw_integer.c ****           - weights already permuted: 1,1,NOUT,NIN
 187:../Middlewares/stedgeai-lib/Npu/ll_aton/ll_sw_integer.c ****           - bias 1,1,NOUT,1
 188:../Middlewares/stedgeai-lib/Npu/ll_aton/ll_sw_integer.c ****           - scratch 1,1,NIN*2+NOUT*10
 189:../Middlewares/stedgeai-lib/Npu/ll_aton/ll_sw_integer.c ****           - output 1,1,NOUT,1
 190:../Middlewares/stedgeai-lib/Npu/ll_aton/ll_sw_integer.c ****   */
 191:../Middlewares/stedgeai-lib/Npu/ll_aton/ll_sw_integer.c **** 
 192:../Middlewares/stedgeai-lib/Npu/ll_aton/ll_sw_integer.c ****   int32_t format;
 539              		.loc 1 192 3 view .LVU153
 193:../Middlewares/stedgeai-lib/Npu/ll_aton/ll_sw_integer.c ****   // array init
 194:../Middlewares/stedgeai-lib/Npu/ll_aton/ll_sw_integer.c ****   format = sw_info->general.input.format.is_signed ? (AI_ARRAY_FORMAT_S8 | AI_FMT_FLAG_IS_IO)
 540              		.loc 1 194 3 view .LVU154
 180:../Middlewares/stedgeai-lib/Npu/ll_aton/ll_sw_integer.c ****   /*
 541              		.loc 1 180 1 is_stmt 0 view .LVU155
 542 0000 2DE9F047 		push	{r4, r5, r6, r7, r8, r9, r10, lr}
 543              		.cfi_def_cfa_offset 32
 544              		.cfi_offset 4, -32
 545              		.cfi_offset 5, -28
 546              		.cfi_offset 6, -24
 547              		.cfi_offset 7, -20
ARM GAS  /tmp/ccZCp2co.s 			page 15


 548              		.cfi_offset 8, -16
 549              		.cfi_offset 9, -12
 550              		.cfi_offset 10, -8
 551              		.cfi_offset 14, -4
 195:../Middlewares/stedgeai-lib/Npu/ll_aton/ll_sw_integer.c ****                                                    : (AI_ARRAY_FORMAT_U8 | AI_FMT_FLAG_IS_IO);
 552              		.loc 1 195 52 view .LVU156
 553 0004 90F82C30 		ldrb	r3, [r0, #44]	@ zero_extendqisi2
 180:../Middlewares/stedgeai-lib/Npu/ll_aton/ll_sw_integer.c ****   /*
 554              		.loc 1 180 1 view .LVU157
 555 0008 ADF5087D 		sub	sp, sp, #544
 556              		.cfi_def_cfa_offset 576
 557              		.loc 1 195 52 view .LVU158
 558 000c 002B     		cmp	r3, #0
 559 000e 00F05281 		beq	.L28
 560              		.loc 1 195 52 discriminator 1 view .LVU159
 561 0012 AD4B     		ldr	r3, .L35
 562              	.L21:
 563              	.LVL30:
 196:../Middlewares/stedgeai-lib/Npu/ll_aton/ll_sw_integer.c ****   AI_ARRAY_OBJ_DECLARE(input_output_array, format, sw_info->general.input.mem.start_offset,
 564              		.loc 1 196 3 is_stmt 1 view .LVU160
 565 0014 1593     		str	r3, [sp, #84]
 566 0016 4369     		ldr	r3, [r0, #20]
 567              	.LVL31:
 568              		.loc 1 196 3 is_stmt 0 view .LVU161
 569 0018 15AC     		add	r4, sp, #84
 570              	.LVL32:
 571              		.loc 1 196 3 view .LVU162
 572 001a 6360     		str	r3, [r4, #4]
 573 001c 836A     		ldr	r3, [r0, #40]
 574 001e C4E90233 		strd	r3, r3, [r4, #8]
 197:../Middlewares/stedgeai-lib/Npu/ll_aton/ll_sw_integer.c ****                        sw_info->general.input.mem.start_offset, sw_info->general.input.dim.num_elem
 198:../Middlewares/stedgeai-lib/Npu/ll_aton/ll_sw_integer.c ****   format = sw_info->weights.format.is_signed ? (AI_ARRAY_FORMAT_S8) : (AI_ARRAY_FORMAT_U8);
 575              		.loc 1 198 3 is_stmt 1 view .LVU163
 576              		.loc 1 198 69 is_stmt 0 view .LVU164
 577 0022 90F88430 		ldrb	r3, [r0, #132]	@ zero_extendqisi2
 578 0026 002B     		cmp	r3, #0
 579 0028 00F04781 		beq	.L29
 580              		.loc 1 198 69 discriminator 1 view .LVU165
 581 002c A74B     		ldr	r3, .L35+4
 582              	.L22:
 583              	.LVL33:
 199:../Middlewares/stedgeai-lib/Npu/ll_aton/ll_sw_integer.c ****   AI_ARRAY_OBJ_DECLARE(dense_weights_array, format, sw_info->weights.mem.start_offset,
 584              		.loc 1 199 3 is_stmt 1 view .LVU166
 585 002e 1993     		str	r3, [sp, #100]
 586 0030 C36E     		ldr	r3, [r0, #108]
 587              	.LVL34:
 588              		.loc 1 199 3 is_stmt 0 view .LVU167
 589 0032 19A9     		add	r1, sp, #100
 590              	.LVL35:
 591              		.loc 1 199 3 view .LVU168
 592 0034 4B60     		str	r3, [r1, #4]
 593 0036 D0F88030 		ldr	r3, [r0, #128]
 594 003a C1E90233 		strd	r3, r3, [r1, #8]
 200:../Middlewares/stedgeai-lib/Npu/ll_aton/ll_sw_integer.c ****                        sw_info->weights.mem.start_offset, sw_info->weights.dim.num_elem, )
 201:../Middlewares/stedgeai-lib/Npu/ll_aton/ll_sw_integer.c ****   format = sw_info->scratch.format.is_signed ? (AI_ARRAY_FORMAT_S8) : (AI_ARRAY_FORMAT_U8);
 595              		.loc 1 201 3 is_stmt 1 view .LVU169
 596              		.loc 1 201 69 is_stmt 0 view .LVU170
ARM GAS  /tmp/ccZCp2co.s 			page 16


 597 003e 90F8B030 		ldrb	r3, [r0, #176]	@ zero_extendqisi2
 598 0042 002B     		cmp	r3, #0
 599 0044 00F03B81 		beq	.L30
 600              		.loc 1 201 69 discriminator 1 view .LVU171
 601 0048 A04B     		ldr	r3, .L35+4
 602              	.L23:
 603              	.LVL36:
 202:../Middlewares/stedgeai-lib/Npu/ll_aton/ll_sw_integer.c ****   AI_ARRAY_OBJ_DECLARE(dense_scratch0_array, format, sw_info->scratch.mem.start_offset,
 604              		.loc 1 202 3 is_stmt 1 view .LVU172
 605 004a 1D93     		str	r3, [sp, #116]
 606 004c D0F89830 		ldr	r3, [r0, #152]
 607              	.LVL37:
 608              		.loc 1 202 3 is_stmt 0 view .LVU173
 609 0050 1DAD     		add	r5, sp, #116
 610              	.LVL38:
 611              		.loc 1 202 3 view .LVU174
 612 0052 6B60     		str	r3, [r5, #4]
 613 0054 D0F8AC30 		ldr	r3, [r0, #172]
 203:../Middlewares/stedgeai-lib/Npu/ll_aton/ll_sw_integer.c ****                        sw_info->scratch.mem.start_offset, sw_info->scratch.dim.num_elem, )
 204:../Middlewares/stedgeai-lib/Npu/ll_aton/ll_sw_integer.c **** 
 205:../Middlewares/stedgeai-lib/Npu/ll_aton/ll_sw_integer.c ****   AI_ARRAY_OBJ_DECLARE(dense_bias_array, AI_ARRAY_FORMAT_S32, sw_info->bias.mem.start_offset,
 614              		.loc 1 205 3 view .LVU175
 615 0058 21AA     		add	r2, sp, #132
 202:../Middlewares/stedgeai-lib/Npu/ll_aton/ll_sw_integer.c ****   AI_ARRAY_OBJ_DECLARE(dense_scratch0_array, format, sw_info->scratch.mem.start_offset,
 616              		.loc 1 202 3 view .LVU176
 617 005a C5E90233 		strd	r3, r3, [r5, #8]
 618              		.loc 1 205 3 is_stmt 1 view .LVU177
 619 005e 9C4B     		ldr	r3, .L35+8
 620 0060 1360     		str	r3, [r2]
 621 0062 D0F8C430 		ldr	r3, [r0, #196]
 622 0066 5360     		str	r3, [r2, #4]
 623 0068 D0F8D830 		ldr	r3, [r0, #216]
 624 006c C2E90233 		strd	r3, r3, [r2, #8]
 206:../Middlewares/stedgeai-lib/Npu/ll_aton/ll_sw_integer.c ****                        sw_info->bias.mem.start_offset, sw_info->bias.dim.num_elem, )
 207:../Middlewares/stedgeai-lib/Npu/ll_aton/ll_sw_integer.c ****   format = sw_info->general.output.format.is_signed ? (AI_ARRAY_FORMAT_S8 | AI_FMT_FLAG_IS_IO)
 625              		.loc 1 207 3 view .LVU178
 208:../Middlewares/stedgeai-lib/Npu/ll_aton/ll_sw_integer.c ****                                                     : (AI_ARRAY_FORMAT_U8 | AI_FMT_FLAG_IS_IO);
 626              		.loc 1 208 53 is_stmt 0 view .LVU179
 627 0070 90F85830 		ldrb	r3, [r0, #88]	@ zero_extendqisi2
 628 0074 002B     		cmp	r3, #0
 629 0076 00F02481 		beq	.L31
 630              		.loc 1 208 53 discriminator 1 view .LVU180
 631 007a 934E     		ldr	r6, .L35
 632              	.L24:
 633              	.LVL39:
 209:../Middlewares/stedgeai-lib/Npu/ll_aton/ll_sw_integer.c ****   AI_ARRAY_OBJ_DECLARE(dense_output_array, format, sw_info->general.output.mem.start_offset,
 634              		.loc 1 209 3 is_stmt 1 view .LVU181
 635 007c 2596     		str	r6, [sp, #148]
 636 007e 066C     		ldr	r6, [r0, #64]
 637              	.LVL40:
 210:../Middlewares/stedgeai-lib/Npu/ll_aton/ll_sw_integer.c ****                        sw_info->general.output.mem.start_offset, sw_info->general.output.dim.num_el
 211:../Middlewares/stedgeai-lib/Npu/ll_aton/ll_sw_integer.c **** 
 212:../Middlewares/stedgeai-lib/Npu/ll_aton/ll_sw_integer.c ****   uint16_t offset_format;
 213:../Middlewares/stedgeai-lib/Npu/ll_aton/ll_sw_integer.c ****   uint16_t scale_format;
 214:../Middlewares/stedgeai-lib/Npu/ll_aton/ll_sw_integer.c **** 
 215:../Middlewares/stedgeai-lib/Npu/ll_aton/ll_sw_integer.c ****   scale_format = AI_BUFFER_META_FLAG_SCALE_FLOAT;
 216:../Middlewares/stedgeai-lib/Npu/ll_aton/ll_sw_integer.c ****   offset_format =
ARM GAS  /tmp/ccZCp2co.s 			page 17


 217:../Middlewares/stedgeai-lib/Npu/ll_aton/ll_sw_integer.c ****       sw_info->izp.format.is_signed ? (AI_BUFFER_META_FLAG_ZEROPOINT_S8) : (AI_BUFFER_META_FLAG_ZER
 218:../Middlewares/stedgeai-lib/Npu/ll_aton/ll_sw_integer.c ****   ai_intq_info_list input_intq = {.flags = (scale_format | offset_format),
 219:../Middlewares/stedgeai-lib/Npu/ll_aton/ll_sw_integer.c ****                                   .size = sw_info->is.dim.num_elem,
 220:../Middlewares/stedgeai-lib/Npu/ll_aton/ll_sw_integer.c ****                                   .info = (const ai_intq_info[1]){{
 221:../Middlewares/stedgeai-lib/Npu/ll_aton/ll_sw_integer.c ****                                       .scale = ((float *)sw_info->is.mem.start_offset),
 222:../Middlewares/stedgeai-lib/Npu/ll_aton/ll_sw_integer.c ****                                       .zeropoint = ((void *)sw_info->izp.mem.start_offset),
 223:../Middlewares/stedgeai-lib/Npu/ll_aton/ll_sw_integer.c ****                                   }}};
 224:../Middlewares/stedgeai-lib/Npu/ll_aton/ll_sw_integer.c ****   scale_format = AI_BUFFER_META_FLAG_SCALE_FLOAT;
 225:../Middlewares/stedgeai-lib/Npu/ll_aton/ll_sw_integer.c ****   offset_format =
 226:../Middlewares/stedgeai-lib/Npu/ll_aton/ll_sw_integer.c ****       sw_info->wzp.format.is_signed ? (AI_BUFFER_META_FLAG_ZEROPOINT_S8) : (AI_BUFFER_META_FLAG_ZER
 227:../Middlewares/stedgeai-lib/Npu/ll_aton/ll_sw_integer.c ****   ai_intq_info_list weights_intq = {.flags = (scale_format | offset_format),
 638              		.loc 1 227 21 is_stmt 0 view .LVU182
 639 0080 0DF1200C 		add	ip, sp, #32
 209:../Middlewares/stedgeai-lib/Npu/ll_aton/ll_sw_integer.c ****   AI_ARRAY_OBJ_DECLARE(dense_output_array, format, sw_info->general.output.mem.start_offset,
 640              		.loc 1 209 3 view .LVU183
 641 0084 2696     		str	r6, [sp, #152]
 642 0086 466D     		ldr	r6, [r0, #84]
 228:../Middlewares/stedgeai-lib/Npu/ll_aton/ll_sw_integer.c ****                                     .size = sw_info->ws.dim.num_elem,
 229:../Middlewares/stedgeai-lib/Npu/ll_aton/ll_sw_integer.c ****                                     .info = (const ai_intq_info[1]){{
 230:../Middlewares/stedgeai-lib/Npu/ll_aton/ll_sw_integer.c ****                                         .scale = ((float *)sw_info->ws.mem.start_offset),
 231:../Middlewares/stedgeai-lib/Npu/ll_aton/ll_sw_integer.c ****                                         .zeropoint = ((void *)sw_info->wzp.mem.start_offset),
 232:../Middlewares/stedgeai-lib/Npu/ll_aton/ll_sw_integer.c ****                                     }}};
 233:../Middlewares/stedgeai-lib/Npu/ll_aton/ll_sw_integer.c ****   scale_format = AI_BUFFER_META_FLAG_SCALE_FLOAT;
 234:../Middlewares/stedgeai-lib/Npu/ll_aton/ll_sw_integer.c ****   offset_format =
 235:../Middlewares/stedgeai-lib/Npu/ll_aton/ll_sw_integer.c ****       sw_info->ozp.format.is_signed ? (AI_BUFFER_META_FLAG_ZEROPOINT_S8) : (AI_BUFFER_META_FLAG_ZER
 236:../Middlewares/stedgeai-lib/Npu/ll_aton/ll_sw_integer.c ****   ai_intq_info_list output_intq = {.flags = (scale_format | offset_format),
 237:../Middlewares/stedgeai-lib/Npu/ll_aton/ll_sw_integer.c ****                                    .size = sw_info->os.dim.num_elem,
 238:../Middlewares/stedgeai-lib/Npu/ll_aton/ll_sw_integer.c ****                                    .info = (const ai_intq_info[1]){{
 239:../Middlewares/stedgeai-lib/Npu/ll_aton/ll_sw_integer.c ****                                        .scale = ((float *)sw_info->os.mem.start_offset),
 240:../Middlewares/stedgeai-lib/Npu/ll_aton/ll_sw_integer.c ****                                        .zeropoint = ((void *)sw_info->ozp.mem.start_offset),
 241:../Middlewares/stedgeai-lib/Npu/ll_aton/ll_sw_integer.c ****                                    }}};
 242:../Middlewares/stedgeai-lib/Npu/ll_aton/ll_sw_integer.c **** 
 243:../Middlewares/stedgeai-lib/Npu/ll_aton/ll_sw_integer.c ****   AI_TENSOR_OBJ_DECLARE(dense_weights, , 0x0, 4,
 643              		.loc 1 243 3 view .LVU184
 644 0088 0DF1B40A 		add	r10, sp, #180
 209:../Middlewares/stedgeai-lib/Npu/ll_aton/ll_sw_integer.c ****                        sw_info->general.output.mem.start_offset, sw_info->general.output.dim.num_el
 645              		.loc 1 209 3 view .LVU185
 646 008c CDE92766 		strd	r6, r6, [sp, #156]
 212:../Middlewares/stedgeai-lib/Npu/ll_aton/ll_sw_integer.c ****   uint16_t scale_format;
 647              		.loc 1 212 3 is_stmt 1 view .LVU186
 213:../Middlewares/stedgeai-lib/Npu/ll_aton/ll_sw_integer.c **** 
 648              		.loc 1 213 3 view .LVU187
 215:../Middlewares/stedgeai-lib/Npu/ll_aton/ll_sw_integer.c ****   offset_format =
 649              		.loc 1 215 3 view .LVU188
 650              	.LVL41:
 216:../Middlewares/stedgeai-lib/Npu/ll_aton/ll_sw_integer.c ****       sw_info->izp.format.is_signed ? (AI_BUFFER_META_FLAG_ZEROPOINT_S8) : (AI_BUFFER_META_FLAG_ZER
 651              		.loc 1 216 3 view .LVU189
 216:../Middlewares/stedgeai-lib/Npu/ll_aton/ll_sw_integer.c ****       sw_info->izp.format.is_signed ? (AI_BUFFER_META_FLAG_ZEROPOINT_S8) : (AI_BUFFER_META_FLAG_ZER
 652              		.loc 1 216 17 is_stmt 0 view .LVU190
 653 0090 90F88C61 		ldrb	r6, [r0, #396]	@ zero_extendqisi2
 654              		.loc 1 243 3 view .LVU191
 655 0094 4FF08278 		mov	r8, #17039360
 216:../Middlewares/stedgeai-lib/Npu/ll_aton/ll_sw_integer.c ****       sw_info->izp.format.is_signed ? (AI_BUFFER_META_FLAG_ZEROPOINT_S8) : (AI_BUFFER_META_FLAG_ZER
 656              		.loc 1 216 17 discriminator 1 view .LVU192
 657 0098 002E     		cmp	r6, #0
 658 009a 0CBF     		ite	eq
 659 009c 0227     		moveq	r7, #2
ARM GAS  /tmp/ccZCp2co.s 			page 18


 660 009e 0427     		movne	r7, #4
 661              	.LVL42:
 218:../Middlewares/stedgeai-lib/Npu/ll_aton/ll_sw_integer.c ****                                   .size = sw_info->is.dim.num_elem,
 662              		.loc 1 218 3 is_stmt 1 view .LVU193
 218:../Middlewares/stedgeai-lib/Npu/ll_aton/ll_sw_integer.c ****                                   .size = sw_info->is.dim.num_elem,
 663              		.loc 1 218 21 is_stmt 0 view .LVU194
 664 00a0 47F00107 		orr	r7, r7, #1
 665              	.LVL43:
 218:../Middlewares/stedgeai-lib/Npu/ll_aton/ll_sw_integer.c ****                                   .size = sw_info->is.dim.num_elem,
 666              		.loc 1 218 21 view .LVU195
 667 00a4 ADF81070 		strh	r7, [sp, #16]	@ movhi
 668 00a8 D0F84871 		ldr	r7, [r0, #328]
 220:../Middlewares/stedgeai-lib/Npu/ll_aton/ll_sw_integer.c ****                                       .scale = ((float *)sw_info->is.mem.start_offset),
 669              		.loc 1 220 66 view .LVU196
 670 00ac D0F85C61 		ldr	r6, [r0, #348]
 218:../Middlewares/stedgeai-lib/Npu/ll_aton/ll_sw_integer.c ****                                   .size = sw_info->is.dim.num_elem,
 671              		.loc 1 218 21 view .LVU197
 672 00b0 ADF81270 		strh	r7, [sp, #18]	@ movhi
 220:../Middlewares/stedgeai-lib/Npu/ll_aton/ll_sw_integer.c ****                                       .scale = ((float *)sw_info->is.mem.start_offset),
 673              		.loc 1 220 66 view .LVU198
 674 00b4 06AF     		add	r7, sp, #24
 218:../Middlewares/stedgeai-lib/Npu/ll_aton/ll_sw_integer.c ****                                   .size = sw_info->is.dim.num_elem,
 675              		.loc 1 218 21 view .LVU199
 676 00b6 0597     		str	r7, [sp, #20]
 224:../Middlewares/stedgeai-lib/Npu/ll_aton/ll_sw_integer.c ****   offset_format =
 677              		.loc 1 224 3 is_stmt 1 view .LVU200
 225:../Middlewares/stedgeai-lib/Npu/ll_aton/ll_sw_integer.c ****       sw_info->wzp.format.is_signed ? (AI_BUFFER_META_FLAG_ZEROPOINT_S8) : (AI_BUFFER_META_FLAG_ZER
 678              		.loc 1 225 3 view .LVU201
 225:../Middlewares/stedgeai-lib/Npu/ll_aton/ll_sw_integer.c ****       sw_info->wzp.format.is_signed ? (AI_BUFFER_META_FLAG_ZEROPOINT_S8) : (AI_BUFFER_META_FLAG_ZER
 679              		.loc 1 225 17 is_stmt 0 view .LVU202
 680 00b8 90F83471 		ldrb	r7, [r0, #308]	@ zero_extendqisi2
 220:../Middlewares/stedgeai-lib/Npu/ll_aton/ll_sw_integer.c ****                                       .scale = ((float *)sw_info->is.mem.start_offset),
 681              		.loc 1 220 66 view .LVU203
 682 00bc 0696     		str	r6, [sp, #24]
 225:../Middlewares/stedgeai-lib/Npu/ll_aton/ll_sw_integer.c ****       sw_info->wzp.format.is_signed ? (AI_BUFFER_META_FLAG_ZEROPOINT_S8) : (AI_BUFFER_META_FLAG_ZER
 683              		.loc 1 225 17 discriminator 1 view .LVU204
 684 00be 002F     		cmp	r7, #0
 225:../Middlewares/stedgeai-lib/Npu/ll_aton/ll_sw_integer.c ****       sw_info->wzp.format.is_signed ? (AI_BUFFER_META_FLAG_ZEROPOINT_S8) : (AI_BUFFER_META_FLAG_ZER
 685              		.loc 1 225 17 discriminator 1 view .LVU205
 686 00c0 0CBF     		ite	eq
 687 00c2 0227     		moveq	r7, #2
 688 00c4 0427     		movne	r7, #4
 689              	.LVL44:
 227:../Middlewares/stedgeai-lib/Npu/ll_aton/ll_sw_integer.c ****                                     .size = sw_info->ws.dim.num_elem,
 690              		.loc 1 227 3 is_stmt 1 view .LVU206
 227:../Middlewares/stedgeai-lib/Npu/ll_aton/ll_sw_integer.c ****                                     .size = sw_info->ws.dim.num_elem,
 691              		.loc 1 227 21 is_stmt 0 view .LVU207
 692 00c6 47F00107 		orr	r7, r7, #1
 693              	.LVL45:
 227:../Middlewares/stedgeai-lib/Npu/ll_aton/ll_sw_integer.c ****                                     .size = sw_info->ws.dim.num_elem,
 694              		.loc 1 227 21 view .LVU208
 695 00ca ADF82070 		strh	r7, [sp, #32]	@ movhi
 696 00ce D0F8F070 		ldr	r7, [r0, #240]
 220:../Middlewares/stedgeai-lib/Npu/ll_aton/ll_sw_integer.c ****                                       .scale = ((float *)sw_info->is.mem.start_offset),
 697              		.loc 1 220 66 view .LVU209
 698 00d2 D0F88861 		ldr	r6, [r0, #392]
 227:../Middlewares/stedgeai-lib/Npu/ll_aton/ll_sw_integer.c ****                                     .size = sw_info->ws.dim.num_elem,
ARM GAS  /tmp/ccZCp2co.s 			page 19


 699              		.loc 1 227 21 view .LVU210
 700 00d6 ADF82270 		strh	r7, [sp, #34]	@ movhi
 229:../Middlewares/stedgeai-lib/Npu/ll_aton/ll_sw_integer.c ****                                         .scale = ((float *)sw_info->ws.mem.start_offset),
 701              		.loc 1 229 68 view .LVU211
 702 00da 0AAF     		add	r7, sp, #40
 227:../Middlewares/stedgeai-lib/Npu/ll_aton/ll_sw_integer.c ****                                     .size = sw_info->ws.dim.num_elem,
 703              		.loc 1 227 21 view .LVU212
 704 00dc 0997     		str	r7, [sp, #36]
 233:../Middlewares/stedgeai-lib/Npu/ll_aton/ll_sw_integer.c ****   offset_format =
 705              		.loc 1 233 3 is_stmt 1 view .LVU213
 234:../Middlewares/stedgeai-lib/Npu/ll_aton/ll_sw_integer.c ****       sw_info->ozp.format.is_signed ? (AI_BUFFER_META_FLAG_ZEROPOINT_S8) : (AI_BUFFER_META_FLAG_ZER
 706              		.loc 1 234 3 view .LVU214
 234:../Middlewares/stedgeai-lib/Npu/ll_aton/ll_sw_integer.c ****       sw_info->ozp.format.is_signed ? (AI_BUFFER_META_FLAG_ZEROPOINT_S8) : (AI_BUFFER_META_FLAG_ZER
 707              		.loc 1 234 17 is_stmt 0 view .LVU215
 708 00de 90F8E471 		ldrb	r7, [r0, #484]	@ zero_extendqisi2
 220:../Middlewares/stedgeai-lib/Npu/ll_aton/ll_sw_integer.c ****                                       .scale = ((float *)sw_info->is.mem.start_offset),
 709              		.loc 1 220 66 view .LVU216
 710 00e2 0796     		str	r6, [sp, #28]
 234:../Middlewares/stedgeai-lib/Npu/ll_aton/ll_sw_integer.c ****       sw_info->ozp.format.is_signed ? (AI_BUFFER_META_FLAG_ZEROPOINT_S8) : (AI_BUFFER_META_FLAG_ZER
 711              		.loc 1 234 17 discriminator 1 view .LVU217
 712 00e4 002F     		cmp	r7, #0
 713              	.LVL46:
 234:../Middlewares/stedgeai-lib/Npu/ll_aton/ll_sw_integer.c ****       sw_info->ozp.format.is_signed ? (AI_BUFFER_META_FLAG_ZEROPOINT_S8) : (AI_BUFFER_META_FLAG_ZER
 714              		.loc 1 234 17 discriminator 1 view .LVU218
 715 00e6 0CBF     		ite	eq
 716 00e8 0227     		moveq	r7, #2
 717 00ea 0427     		movne	r7, #4
 718              	.LVL47:
 236:../Middlewares/stedgeai-lib/Npu/ll_aton/ll_sw_integer.c ****                                    .size = sw_info->os.dim.num_elem,
 719              		.loc 1 236 3 is_stmt 1 view .LVU219
 229:../Middlewares/stedgeai-lib/Npu/ll_aton/ll_sw_integer.c ****                                         .scale = ((float *)sw_info->ws.mem.start_offset),
 720              		.loc 1 229 68 is_stmt 0 view .LVU220
 721 00ec D0F80461 		ldr	r6, [r0, #260]
 236:../Middlewares/stedgeai-lib/Npu/ll_aton/ll_sw_integer.c ****                                    .size = sw_info->os.dim.num_elem,
 722              		.loc 1 236 21 view .LVU221
 723 00f0 47F00107 		orr	r7, r7, #1
 724              	.LVL48:
 229:../Middlewares/stedgeai-lib/Npu/ll_aton/ll_sw_integer.c ****                                         .scale = ((float *)sw_info->ws.mem.start_offset),
 725              		.loc 1 229 68 view .LVU222
 726 00f4 0A96     		str	r6, [sp, #40]
 727 00f6 D0F83061 		ldr	r6, [r0, #304]
 236:../Middlewares/stedgeai-lib/Npu/ll_aton/ll_sw_integer.c ****                                    .size = sw_info->os.dim.num_elem,
 728              		.loc 1 236 21 view .LVU223
 729 00fa ADF83070 		strh	r7, [sp, #48]	@ movhi
 229:../Middlewares/stedgeai-lib/Npu/ll_aton/ll_sw_integer.c ****                                         .scale = ((float *)sw_info->ws.mem.start_offset),
 730              		.loc 1 229 68 view .LVU224
 731 00fe 0B96     		str	r6, [sp, #44]
 238:../Middlewares/stedgeai-lib/Npu/ll_aton/ll_sw_integer.c ****                                        .scale = ((float *)sw_info->os.mem.start_offset),
 732              		.loc 1 238 67 view .LVU225
 733 0100 D0F8B461 		ldr	r6, [r0, #436]
 236:../Middlewares/stedgeai-lib/Npu/ll_aton/ll_sw_integer.c ****                                    .size = sw_info->os.dim.num_elem,
 734              		.loc 1 236 21 view .LVU226
 735 0104 D0F8A071 		ldr	r7, [r0, #416]
 238:../Middlewares/stedgeai-lib/Npu/ll_aton/ll_sw_integer.c ****                                        .scale = ((float *)sw_info->os.mem.start_offset),
 736              		.loc 1 238 67 view .LVU227
 737 0108 0E96     		str	r6, [sp, #56]
 738 010a D0F8E061 		ldr	r6, [r0, #480]
ARM GAS  /tmp/ccZCp2co.s 			page 20


 236:../Middlewares/stedgeai-lib/Npu/ll_aton/ll_sw_integer.c ****                                    .size = sw_info->os.dim.num_elem,
 739              		.loc 1 236 21 view .LVU228
 740 010e ADF83270 		strh	r7, [sp, #50]	@ movhi
 238:../Middlewares/stedgeai-lib/Npu/ll_aton/ll_sw_integer.c ****                                        .scale = ((float *)sw_info->os.mem.start_offset),
 741              		.loc 1 238 67 view .LVU229
 742 0112 0EAF     		add	r7, sp, #56
 743 0114 0F96     		str	r6, [sp, #60]
 236:../Middlewares/stedgeai-lib/Npu/ll_aton/ll_sw_integer.c ****                                    .size = sw_info->os.dim.num_elem,
 744              		.loc 1 236 21 view .LVU230
 745 0116 0D97     		str	r7, [sp, #52]
 746              		.loc 1 243 3 is_stmt 1 view .LVU231
 747 0118 29AF     		add	r7, sp, #164
 748 011a CDE956A1 		strd	r10, r1, [sp, #344]
 244:../Middlewares/stedgeai-lib/Npu/ll_aton/ll_sw_integer.c ****                         SHAPE_INIT(sw_info->weights.dim.tensor_h, sw_info->weights.dim.tensor_w,
 245:../Middlewares/stedgeai-lib/Npu/ll_aton/ll_sw_integer.c ****                                    sw_info->weights.dim.tensor_c, sw_info->weights.dim.tensor_b),
 246:../Middlewares/stedgeai-lib/Npu/ll_aton/ll_sw_integer.c ****                         STRIDE_INIT(sw_info->weights.stride.h, sw_info->weights.stride.w, sw_info->
 247:../Middlewares/stedgeai-lib/Npu/ll_aton/ll_sw_integer.c ****                                     sw_info->weights.stride.b),
 248:../Middlewares/stedgeai-lib/Npu/ll_aton/ll_sw_integer.c ****                         1, &dense_weights_array, &weights_intq);
 749              		.loc 1 248 64 view .LVU232
 249:../Middlewares/stedgeai-lib/Npu/ll_aton/ll_sw_integer.c ****   AI_TENSOR_OBJ_DECLARE(dense_scratch0, , 0x0, 4,
 750              		.loc 1 249 3 view .LVU233
 243:../Middlewares/stedgeai-lib/Npu/ll_aton/ll_sw_integer.c ****                         SHAPE_INIT(sw_info->weights.dim.tensor_h, sw_info->weights.dim.tensor_w,
 751              		.loc 1 243 3 is_stmt 0 view .LVU234
 752 011e CDF844C1 		str	ip, [sp, #324]
 753              		.loc 1 249 3 view .LVU235
 754 0122 0021     		movs	r1, #0
 243:../Middlewares/stedgeai-lib/Npu/ll_aton/ll_sw_integer.c ****                         SHAPE_INIT(sw_info->weights.dim.tensor_h, sw_info->weights.dim.tensor_w,
 755              		.loc 1 243 3 view .LVU236
 756 0124 40F2014C 		movw	ip, #1025
 757 0128 5497     		str	r7, [sp, #336]
 758 012a 40F20247 		movw	r7, #1026
 759 012e 866E     		ldr	r6, [r0, #104]
 760              		.loc 1 249 3 view .LVU237
 761 0130 0DF1C40A 		add	r10, sp, #196
 243:../Middlewares/stedgeai-lib/Npu/ll_aton/ll_sw_integer.c ****                         SHAPE_INIT(sw_info->weights.dim.tensor_h, sw_info->weights.dim.tensor_w,
 762              		.loc 1 243 3 view .LVU238
 763 0134 2996     		str	r6, [sp, #164]
 764 0136 466E     		ldr	r6, [r0, #100]
 765 0138 CDE9528C 		strd	r8, ip, [sp, #328]
 766 013c 2A96     		str	r6, [sp, #168]
 767 013e 066E     		ldr	r6, [r0, #96]
 768              		.loc 1 249 3 view .LVU239
 769 0140 CDE95818 		strd	r1, r8, [sp, #352]
 243:../Middlewares/stedgeai-lib/Npu/ll_aton/ll_sw_integer.c ****                         SHAPE_INIT(sw_info->weights.dim.tensor_h, sw_info->weights.dim.tensor_w,
 770              		.loc 1 243 3 view .LVU240
 771 0144 2B96     		str	r6, [sp, #172]
 772 0146 C66D     		ldr	r6, [r0, #92]
 773              		.loc 1 249 3 view .LVU241
 774 0148 CDF868C1 		str	ip, [sp, #360]
 243:../Middlewares/stedgeai-lib/Npu/ll_aton/ll_sw_integer.c ****                         SHAPE_INIT(sw_info->weights.dim.tensor_h, sw_info->weights.dim.tensor_w,
 775              		.loc 1 243 3 view .LVU242
 776 014c 2C96     		str	r6, [sp, #176]
 777 014e C66F     		ldr	r6, [r0, #124]
 778 0150 5597     		str	r7, [sp, #340]
 779 0152 2D96     		str	r6, [sp, #180]
 780 0154 866F     		ldr	r6, [r0, #120]
 218:../Middlewares/stedgeai-lib/Npu/ll_aton/ll_sw_integer.c ****                                   .size = sw_info->is.dim.num_elem,
ARM GAS  /tmp/ccZCp2co.s 			page 21


 781              		.loc 1 218 21 view .LVU243
 782 0156 0DF11009 		add	r9, sp, #16
 243:../Middlewares/stedgeai-lib/Npu/ll_aton/ll_sw_integer.c ****                         SHAPE_INIT(sw_info->weights.dim.tensor_h, sw_info->weights.dim.tensor_w,
 783              		.loc 1 243 3 view .LVU244
 784 015a 2E96     		str	r6, [sp, #184]
 785 015c 466F     		ldr	r6, [r0, #116]
 236:../Middlewares/stedgeai-lib/Npu/ll_aton/ll_sw_integer.c ****                                    .size = sw_info->os.dim.num_elem,
 786              		.loc 1 236 21 view .LVU245
 787 015e 0DF1300E 		add	lr, sp, #48
 243:../Middlewares/stedgeai-lib/Npu/ll_aton/ll_sw_integer.c ****                         SHAPE_INIT(sw_info->weights.dim.tensor_h, sw_info->weights.dim.tensor_w,
 788              		.loc 1 243 3 view .LVU246
 789 0162 2F96     		str	r6, [sp, #188]
 790 0164 066F     		ldr	r6, [r0, #112]
 209:../Middlewares/stedgeai-lib/Npu/ll_aton/ll_sw_integer.c ****                        sw_info->general.output.mem.start_offset, sw_info->general.output.dim.num_el
 791              		.loc 1 209 3 view .LVU247
 792 0166 25AB     		add	r3, sp, #148
 793              	.LVL49:
 243:../Middlewares/stedgeai-lib/Npu/ll_aton/ll_sw_integer.c ****                         SHAPE_INIT(sw_info->weights.dim.tensor_h, sw_info->weights.dim.tensor_w,
 794              		.loc 1 243 3 view .LVU248
 795 0168 3096     		str	r6, [sp, #192]
 796              		.loc 1 249 3 view .LVU249
 797 016a D0F89460 		ldr	r6, [r0, #148]
 798 016e 3196     		str	r6, [sp, #196]
 799 0170 D0F89060 		ldr	r6, [r0, #144]
 800 0174 3296     		str	r6, [sp, #200]
 801 0176 D0F88C60 		ldr	r6, [r0, #140]
 802 017a 3396     		str	r6, [sp, #204]
 803 017c D0F88860 		ldr	r6, [r0, #136]
 804 0180 CDE95BA7 		strd	r10, r7, [sp, #364]
 805 0184 0DF1D40A 		add	r10, sp, #212
 806 0188 CDE95DA5 		strd	r10, r5, [sp, #372]
 250:../Middlewares/stedgeai-lib/Npu/ll_aton/ll_sw_integer.c ****                         SHAPE_INIT(sw_info->scratch.dim.tensor_h, sw_info->scratch.dim.tensor_w,
 251:../Middlewares/stedgeai-lib/Npu/ll_aton/ll_sw_integer.c ****                                    sw_info->scratch.dim.tensor_c, sw_info->scratch.dim.tensor_b),
 252:../Middlewares/stedgeai-lib/Npu/ll_aton/ll_sw_integer.c ****                         STRIDE_INIT(sw_info->scratch.stride.h, sw_info->scratch.stride.w, sw_info->
 253:../Middlewares/stedgeai-lib/Npu/ll_aton/ll_sw_integer.c ****                                     sw_info->scratch.stride.b),
 254:../Middlewares/stedgeai-lib/Npu/ll_aton/ll_sw_integer.c ****                         1, &dense_scratch0_array, NULL);
 807              		.loc 1 254 56 is_stmt 1 view .LVU250
 255:../Middlewares/stedgeai-lib/Npu/ll_aton/ll_sw_integer.c ****   AI_TENSOR_OBJ_DECLARE(input_output, , 0x0, 4,
 808              		.loc 1 255 3 view .LVU251
 809 018c 0569     		ldr	r5, [r0, #16]
 249:../Middlewares/stedgeai-lib/Npu/ll_aton/ll_sw_integer.c ****                         SHAPE_INIT(sw_info->scratch.dim.tensor_h, sw_info->scratch.dim.tensor_w,
 810              		.loc 1 249 3 is_stmt 0 view .LVU252
 811 018e 3496     		str	r6, [sp, #208]
 812              		.loc 1 255 3 view .LVU253
 813 0190 3995     		str	r5, [sp, #228]
 814 0192 C568     		ldr	r5, [r0, #12]
 249:../Middlewares/stedgeai-lib/Npu/ll_aton/ll_sw_integer.c ****                         SHAPE_INIT(sw_info->scratch.dim.tensor_h, sw_info->scratch.dim.tensor_w,
 815              		.loc 1 249 3 view .LVU254
 816 0194 D0F8A860 		ldr	r6, [r0, #168]
 817              		.loc 1 255 3 view .LVU255
 818 0198 3A95     		str	r5, [sp, #232]
 819 019a 8568     		ldr	r5, [r0, #8]
 249:../Middlewares/stedgeai-lib/Npu/ll_aton/ll_sw_integer.c ****                         SHAPE_INIT(sw_info->scratch.dim.tensor_h, sw_info->scratch.dim.tensor_w,
 820              		.loc 1 249 3 view .LVU256
 821 019c 3596     		str	r6, [sp, #212]
 822              		.loc 1 255 3 view .LVU257
 823 019e 3B95     		str	r5, [sp, #236]
ARM GAS  /tmp/ccZCp2co.s 			page 22


 249:../Middlewares/stedgeai-lib/Npu/ll_aton/ll_sw_integer.c ****                         SHAPE_INIT(sw_info->scratch.dim.tensor_h, sw_info->scratch.dim.tensor_w,
 824              		.loc 1 249 3 view .LVU258
 825 01a0 D0F8A460 		ldr	r6, [r0, #164]
 826              		.loc 1 255 3 view .LVU259
 827 01a4 4568     		ldr	r5, [r0, #4]
 249:../Middlewares/stedgeai-lib/Npu/ll_aton/ll_sw_integer.c ****                         SHAPE_INIT(sw_info->scratch.dim.tensor_h, sw_info->scratch.dim.tensor_w,
 828              		.loc 1 249 3 view .LVU260
 829 01a6 3696     		str	r6, [sp, #216]
 830              		.loc 1 255 3 view .LVU261
 831 01a8 3C95     		str	r5, [sp, #240]
 249:../Middlewares/stedgeai-lib/Npu/ll_aton/ll_sw_integer.c ****                         SHAPE_INIT(sw_info->scratch.dim.tensor_h, sw_info->scratch.dim.tensor_w,
 832              		.loc 1 249 3 view .LVU262
 833 01aa D0F8A060 		ldr	r6, [r0, #160]
 834              		.loc 1 255 3 view .LVU263
 835 01ae 456A     		ldr	r5, [r0, #36]
 249:../Middlewares/stedgeai-lib/Npu/ll_aton/ll_sw_integer.c ****                         SHAPE_INIT(sw_info->scratch.dim.tensor_h, sw_info->scratch.dim.tensor_w,
 836              		.loc 1 249 3 view .LVU264
 837 01b0 3796     		str	r6, [sp, #220]
 838              		.loc 1 255 3 view .LVU265
 839 01b2 3D95     		str	r5, [sp, #244]
 249:../Middlewares/stedgeai-lib/Npu/ll_aton/ll_sw_integer.c ****                         SHAPE_INIT(sw_info->scratch.dim.tensor_h, sw_info->scratch.dim.tensor_w,
 840              		.loc 1 249 3 view .LVU266
 841 01b4 D0F89C60 		ldr	r6, [r0, #156]
 842              		.loc 1 255 3 view .LVU267
 843 01b8 056A     		ldr	r5, [r0, #32]
 249:../Middlewares/stedgeai-lib/Npu/ll_aton/ll_sw_integer.c ****                         SHAPE_INIT(sw_info->scratch.dim.tensor_h, sw_info->scratch.dim.tensor_w,
 844              		.loc 1 249 3 view .LVU268
 845 01ba 3896     		str	r6, [sp, #224]
 846              		.loc 1 255 3 view .LVU269
 847 01bc 3E95     		str	r5, [sp, #248]
 848 01be 39AE     		add	r6, sp, #228
 849 01c0 C569     		ldr	r5, [r0, #28]
 850 01c2 CDE96267 		strd	r6, r7, [sp, #392]
 851 01c6 3DAE     		add	r6, sp, #244
 852 01c8 CDF884C1 		str	ip, [sp, #388]
 853 01cc CDE95F98 		strd	r9, r8, [sp, #380]
 854 01d0 3F95     		str	r5, [sp, #252]
 855 01d2 CDE96464 		strd	r6, r4, [sp, #400]
 256:../Middlewares/stedgeai-lib/Npu/ll_aton/ll_sw_integer.c ****                         SHAPE_INIT(sw_info->general.input.dim.tensor_h, sw_info->general.input.dim.
 257:../Middlewares/stedgeai-lib/Npu/ll_aton/ll_sw_integer.c ****                                    sw_info->general.input.dim.tensor_c, sw_info->general.input.dim.
 258:../Middlewares/stedgeai-lib/Npu/ll_aton/ll_sw_integer.c ****                         STRIDE_INIT(sw_info->general.input.stride.h, sw_info->general.input.stride.
 259:../Middlewares/stedgeai-lib/Npu/ll_aton/ll_sw_integer.c ****                                     sw_info->general.input.stride.c, sw_info->general.input.stride.
 260:../Middlewares/stedgeai-lib/Npu/ll_aton/ll_sw_integer.c ****                         1, &input_output_array, &input_intq);
 856              		.loc 1 260 61 is_stmt 1 view .LVU270
 261:../Middlewares/stedgeai-lib/Npu/ll_aton/ll_sw_integer.c ****   AI_TENSOR_OBJ_DECLARE(
 857              		.loc 1 261 3 view .LVU271
 858 01d6 D0F8C040 		ldr	r4, [r0, #192]
 255:../Middlewares/stedgeai-lib/Npu/ll_aton/ll_sw_integer.c ****                         SHAPE_INIT(sw_info->general.input.dim.tensor_h, sw_info->general.input.dim.
 859              		.loc 1 255 3 is_stmt 0 view .LVU272
 860 01da 8569     		ldr	r5, [r0, #24]
 861              		.loc 1 261 3 view .LVU273
 862 01dc 4194     		str	r4, [sp, #260]
 863 01de D0F8B840 		ldr	r4, [r0, #184]
 255:../Middlewares/stedgeai-lib/Npu/ll_aton/ll_sw_integer.c ****                         SHAPE_INIT(sw_info->general.input.dim.tensor_h, sw_info->general.input.dim.
 864              		.loc 1 255 3 view .LVU274
 865 01e2 4095     		str	r5, [sp, #256]
 866              		.loc 1 261 3 view .LVU275
ARM GAS  /tmp/ccZCp2co.s 			page 23


 867 01e4 4294     		str	r4, [sp, #264]
 868 01e6 D0F8BC40 		ldr	r4, [r0, #188]
 869 01ea 41AD     		add	r5, sp, #260
 870 01ec 4394     		str	r4, [sp, #268]
 871 01ee D0F8B440 		ldr	r4, [r0, #180]
 872 01f2 CDE96957 		strd	r5, r7, [sp, #420]
 873 01f6 4494     		str	r4, [sp, #272]
 874 01f8 D0F8D440 		ldr	r4, [r0, #212]
 875 01fc 45AD     		add	r5, sp, #276
 876 01fe 4594     		str	r4, [sp, #276]
 877 0200 D0F8D040 		ldr	r4, [r0, #208]
 878 0204 CDE96B52 		strd	r5, r2, [sp, #428]
 262:../Middlewares/stedgeai-lib/Npu/ll_aton/ll_sw_integer.c ****       dense_bias, , 0x0, 4,
 263:../Middlewares/stedgeai-lib/Npu/ll_aton/ll_sw_integer.c ****       SHAPE_INIT(sw_info->bias.dim.tensor_h, sw_info->bias.dim.tensor_c, sw_info->bias.dim.tensor_w
 264:../Middlewares/stedgeai-lib/Npu/ll_aton/ll_sw_integer.c ****                  sw_info->bias.dim.tensor_b),
 265:../Middlewares/stedgeai-lib/Npu/ll_aton/ll_sw_integer.c ****       STRIDE_INIT(sw_info->bias.stride.h, sw_info->bias.stride.w, sw_info->bias.stride.c, sw_info->
 266:../Middlewares/stedgeai-lib/Npu/ll_aton/ll_sw_integer.c ****       &dense_bias_array, NULL);
 879              		.loc 1 266 31 is_stmt 1 view .LVU276
 267:../Middlewares/stedgeai-lib/Npu/ll_aton/ll_sw_integer.c ****   AI_TENSOR_OBJ_DECLARE(dense_output, , 0x0, 4,
 880              		.loc 1 267 3 view .LVU277
 261:../Middlewares/stedgeai-lib/Npu/ll_aton/ll_sw_integer.c ****       dense_bias, , 0x0, 4,
 881              		.loc 1 261 3 is_stmt 0 view .LVU278
 882 0208 4694     		str	r4, [sp, #280]
 883 020a D0F8CC40 		ldr	r4, [r0, #204]
 884              		.loc 1 267 3 view .LVU279
 885 020e C26B     		ldr	r2, [r0, #60]
 261:../Middlewares/stedgeai-lib/Npu/ll_aton/ll_sw_integer.c ****       dense_bias, , 0x0, 4,
 886              		.loc 1 261 3 view .LVU280
 887 0210 4794     		str	r4, [sp, #284]
 888 0212 D0F8C840 		ldr	r4, [r0, #200]
 889 0216 CDE96618 		strd	r1, r8, [sp, #408]
 890              		.loc 1 267 3 view .LVU281
 891 021a CDE96DE8 		strd	lr, r8, [sp, #436]
 261:../Middlewares/stedgeai-lib/Npu/ll_aton/ll_sw_integer.c ****       dense_bias, , 0x0, 4,
 892              		.loc 1 261 3 view .LVU282
 893 021e CDF8A0C1 		str	ip, [sp, #416]
 894              		.loc 1 267 3 view .LVU283
 895 0222 CDF8BCC1 		str	ip, [sp, #444]
 261:../Middlewares/stedgeai-lib/Npu/ll_aton/ll_sw_integer.c ****       dense_bias, , 0x0, 4,
 896              		.loc 1 261 3 view .LVU284
 897 0226 4894     		str	r4, [sp, #288]
 898              		.loc 1 267 3 view .LVU285
 899 0228 4992     		str	r2, [sp, #292]
 900 022a 826B     		ldr	r2, [r0, #56]
 268:../Middlewares/stedgeai-lib/Npu/ll_aton/ll_sw_integer.c ****                         SHAPE_INIT(sw_info->general.output.dim.tensor_h, sw_info->general.output.di
 269:../Middlewares/stedgeai-lib/Npu/ll_aton/ll_sw_integer.c ****                                    sw_info->general.output.dim.tensor_c, sw_info->general.output.di
 270:../Middlewares/stedgeai-lib/Npu/ll_aton/ll_sw_integer.c ****                         STRIDE_INIT(sw_info->general.output.stride.h, sw_info->general.output.strid
 271:../Middlewares/stedgeai-lib/Npu/ll_aton/ll_sw_integer.c ****                                     sw_info->general.output.stride.c, sw_info->general.output.strid
 272:../Middlewares/stedgeai-lib/Npu/ll_aton/ll_sw_integer.c ****                         1, &dense_output_array, &output_intq);
 273:../Middlewares/stedgeai-lib/Npu/ll_aton/ll_sw_integer.c ****   // tensor chain initialization
 274:../Middlewares/stedgeai-lib/Npu/ll_aton/ll_sw_integer.c ****   AI_TENSOR_CHAIN_OBJ_DECLARE(dense_chain, , 4, AI_TENSOR_LIST_OBJ_INIT(AI_FLAG_NONE, 1, TENSORS(&i
 901              		.loc 1 274 3 view .LVU286
 902 022c 10AC     		add	r4, sp, #64
 267:../Middlewares/stedgeai-lib/Npu/ll_aton/ll_sw_integer.c ****                         SHAPE_INIT(sw_info->general.output.dim.tensor_h, sw_info->general.output.di
 903              		.loc 1 267 3 view .LVU287
 904 022e 4A92     		str	r2, [sp, #296]
 905 0230 426B     		ldr	r2, [r0, #52]
ARM GAS  /tmp/ccZCp2co.s 			page 24


 906 0232 4B92     		str	r2, [sp, #300]
 907 0234 026B     		ldr	r2, [r0, #48]
 908 0236 4C92     		str	r2, [sp, #304]
 909 0238 49AA     		add	r2, sp, #292
 910 023a CDE97027 		strd	r2, r7, [sp, #448]
 911 023e 026D     		ldr	r2, [r0, #80]
 912 0240 4D92     		str	r2, [sp, #308]
 913 0242 C26C     		ldr	r2, [r0, #76]
 914 0244 4E92     		str	r2, [sp, #312]
 915 0246 826C     		ldr	r2, [r0, #72]
 916 0248 4F92     		str	r2, [sp, #316]
 917 024a 426C     		ldr	r2, [r0, #68]
 918              		.loc 1 274 3 view .LVU288
 919 024c 5FA8     		add	r0, sp, #380
 920              	.LVL50:
 267:../Middlewares/stedgeai-lib/Npu/ll_aton/ll_sw_integer.c ****                         SHAPE_INIT(sw_info->general.output.dim.tensor_h, sw_info->general.output.di
 921              		.loc 1 267 3 view .LVU289
 922 024e 5092     		str	r2, [sp, #320]
 923 0250 4DAA     		add	r2, sp, #308
 924 0252 CDE97223 		strd	r2, r3, [sp, #456]
 272:../Middlewares/stedgeai-lib/Npu/ll_aton/ll_sw_integer.c ****   // tensor chain initialization
 925              		.loc 1 272 62 is_stmt 1 view .LVU290
 926              		.loc 1 274 3 view .LVU291
 927 0256 0423     		movs	r3, #4
 928              	.LVL51:
 929              		.loc 1 274 3 is_stmt 0 view .LVU292
 930 0258 1093     		str	r3, [sp, #64]
 931 025a 6B44     		add	r3, sp, r3
 932 025c CDE97D31 		strd	r3, r1, [sp, #500]
 933 0260 1860     		str	r0, [r3]
 934 0262 02AB     		add	r3, sp, #8
 935 0264 CDE98031 		strd	r3, r1, [sp, #512]
 936 0268 0323     		movs	r3, #3
 937 026a 0122     		movs	r2, #1
 938 026c 6DA8     		add	r0, sp, #436
 939 026e 0290     		str	r0, [sp, #8]
 940 0270 51A8     		add	r0, sp, #324
 941 0272 8293     		str	r3, [sp, #520]
 942 0274 1290     		str	r0, [sp, #72]
 943 0276 12AB     		add	r3, sp, #72
 944 0278 66A8     		add	r0, sp, #408
 945 027a CDE91301 		strd	r0, r1, [sp, #76]
 946 027e 7C92     		str	r2, [sp, #496]
 947 0280 7F92     		str	r2, [sp, #508]
 948 0282 CDE98331 		strd	r3, r1, [sp, #524]
 949 0286 03AB     		add	r3, sp, #12
 950 0288 CDE98631 		strd	r3, r1, [sp, #536]
 951 028c 7CAB     		add	r3, sp, #496
 952 028e 8592     		str	r2, [sp, #532]
 953 0290 1193     		str	r3, [sp, #68]
 275:../Middlewares/stedgeai-lib/Npu/ll_aton/ll_sw_integer.c ****                               AI_TENSOR_LIST_OBJ_INIT(AI_FLAG_NONE, 1, TENSORS(&dense_output)),
 276:../Middlewares/stedgeai-lib/Npu/ll_aton/ll_sw_integer.c ****                               AI_TENSOR_LIST_OBJ_INIT(AI_FLAG_NONE, 3, TENSORS(&dense_weights, &den
 277:../Middlewares/stedgeai-lib/Npu/ll_aton/ll_sw_integer.c ****                               AI_TENSOR_LIST_OBJ_INIT(AI_FLAG_NONE, 1, TENSORS(&dense_scratch0)))
 278:../Middlewares/stedgeai-lib/Npu/ll_aton/ll_sw_integer.c **** 
 279:../Middlewares/stedgeai-lib/Npu/ll_aton/ll_sw_integer.c ****   // layer initialization
 280:../Middlewares/stedgeai-lib/Npu/ll_aton/ll_sw_integer.c ****   AI_LAYER_OBJ_DECLARE(dense_layer, 1, DENSE_TYPE, 0x0, NULL, dense, forward_dense_integer /*_fixed
 954              		.loc 1 280 3 is_stmt 1 view .LVU293
ARM GAS  /tmp/ccZCp2co.s 			page 25


 274:../Middlewares/stedgeai-lib/Npu/ll_aton/ll_sw_integer.c ****                               AI_TENSOR_LIST_OBJ_INIT(AI_FLAG_NONE, 1, TENSORS(&dense_output)),
 955              		.loc 1 274 3 is_stmt 0 view .LVU294
 956 0292 58AA     		add	r2, sp, #352
 957              		.loc 1 280 3 view .LVU295
 958 0294 0F4B     		ldr	r3, .L35+12
 274:../Middlewares/stedgeai-lib/Npu/ll_aton/ll_sw_integer.c ****                               AI_TENSOR_LIST_OBJ_INIT(AI_FLAG_NONE, 1, TENSORS(&dense_output)),
 959              		.loc 1 274 3 view .LVU296
 960 0296 0392     		str	r2, [sp, #12]
 961              		.loc 1 280 3 view .LVU297
 962 0298 75A8     		add	r0, sp, #468
 963 029a 1C22     		movs	r2, #28
 964 029c 7493     		str	r3, [sp, #464]
 965 029e FFF7FEFF 		bl	memset
 966              	.LVL52:
 967              		.loc 1 280 3 view .LVU298
 968 02a2 0D4B     		ldr	r3, .L35+16
 281:../Middlewares/stedgeai-lib/Npu/ll_aton/ll_sw_integer.c ****                        NULL, NULL, , )
 282:../Middlewares/stedgeai-lib/Npu/ll_aton/ll_sw_integer.c **** 
 283:../Middlewares/stedgeai-lib/Npu/ll_aton/ll_sw_integer.c ****   dense_layer.forward(AI_LAYER_OBJ(&dense_layer));
 969              		.loc 1 283 3 view .LVU299
 970 02a4 74A8     		add	r0, sp, #464
 280:../Middlewares/stedgeai-lib/Npu/ll_aton/ll_sw_integer.c ****                        NULL, NULL, , )
 971              		.loc 1 280 3 view .LVU300
 972 02a6 CDE97934 		strd	r3, r4, [sp, #484]
 973              		.loc 1 283 3 is_stmt 1 view .LVU301
 974 02aa FFF7FEFF 		bl	forward_dense_integer
 975              	.LVL53:
 284:../Middlewares/stedgeai-lib/Npu/ll_aton/ll_sw_integer.c **** }
 976              		.loc 1 284 1 is_stmt 0 view .LVU302
 977 02ae 0DF5087D 		add	sp, sp, #544
 978              		.cfi_remember_state
 979              		.cfi_def_cfa_offset 32
 980              		@ sp needed
 981 02b2 BDE8F087 		pop	{r4, r5, r6, r7, r8, r9, r10, pc}
 982              	.LVL54:
 983              	.L28:
 984              		.cfi_restore_state
 195:../Middlewares/stedgeai-lib/Npu/ll_aton/ll_sw_integer.c ****   AI_ARRAY_OBJ_DECLARE(input_output_array, format, sw_info->general.input.mem.start_offset,
 985              		.loc 1 195 52 discriminator 2 view .LVU303
 986 02b6 094B     		ldr	r3, .L35+20
 987 02b8 ACE6     		b	.L21
 988              	.LVL55:
 989              	.L29:
 198:../Middlewares/stedgeai-lib/Npu/ll_aton/ll_sw_integer.c ****   AI_ARRAY_OBJ_DECLARE(dense_weights_array, format, sw_info->weights.mem.start_offset,
 990              		.loc 1 198 69 discriminator 2 view .LVU304
 991 02ba 094B     		ldr	r3, .L35+24
 992 02bc B7E6     		b	.L22
 993              	.LVL56:
 994              	.L30:
 201:../Middlewares/stedgeai-lib/Npu/ll_aton/ll_sw_integer.c ****   AI_ARRAY_OBJ_DECLARE(dense_scratch0_array, format, sw_info->scratch.mem.start_offset,
 995              		.loc 1 201 69 discriminator 2 view .LVU305
 996 02be 084B     		ldr	r3, .L35+24
 997 02c0 C3E6     		b	.L23
 998              	.LVL57:
 999              	.L31:
 208:../Middlewares/stedgeai-lib/Npu/ll_aton/ll_sw_integer.c ****   AI_ARRAY_OBJ_DECLARE(dense_output_array, format, sw_info->general.output.mem.start_offset,
 1000              		.loc 1 208 53 discriminator 2 view .LVU306
ARM GAS  /tmp/ccZCp2co.s 			page 26


 1001 02c2 064E     		ldr	r6, .L35+20
 1002 02c4 DAE6     		b	.L24
 1003              	.L36:
 1004 02c6 00BF     		.align	2
 1005              	.L35:
 1006 02c8 40048408 		.word	142869568
 1007 02cc 40048400 		.word	8651840
 1008 02d0 40108400 		.word	8654912
 1009 02d4 04010100 		.word	65796
 1010 02d8 00000000 		.word	forward_dense_integer
 1011 02dc 40040408 		.word	134480960
 1012 02e0 40040400 		.word	263232
 1013              		.cfi_endproc
 1014              	.LFE16:
 1016              		.section	.text.ll_sw_forward_quantizelinear,"ax",%progbits
 1017              		.align	1
 1018              		.global	ll_sw_forward_quantizelinear
 1019              		.syntax unified
 1020              		.thumb
 1021              		.thumb_func
 1023              	ll_sw_forward_quantizelinear:
 1024              	.LVL58:
 1025              	.LFB17:
 285:../Middlewares/stedgeai-lib/Npu/ll_aton/ll_sw_integer.c **** 
 286:../Middlewares/stedgeai-lib/Npu/ll_aton/ll_sw_integer.c **** //##########################################################################################
 287:../Middlewares/stedgeai-lib/Npu/ll_aton/ll_sw_integer.c **** /** QuantizeLinear forward function */
 288:../Middlewares/stedgeai-lib/Npu/ll_aton/ll_sw_integer.c **** void ll_sw_forward_quantizelinear(Quantizelinear_sw_info *sw_info)
 289:../Middlewares/stedgeai-lib/Npu/ll_aton/ll_sw_integer.c **** {
 1026              		.loc 1 289 1 is_stmt 1 view -0
 1027              		.cfi_startproc
 1028              		@ args = 0, pretend = 0, frame = 272
 1029              		@ frame_needed = 0, uses_anonymous_args = 0
 290:../Middlewares/stedgeai-lib/Npu/ll_aton/ll_sw_integer.c ****   // array init
 291:../Middlewares/stedgeai-lib/Npu/ll_aton/ll_sw_integer.c ****   AI_ARRAY_OBJ_DECLARE(input_output_array, AI_ARRAY_FORMAT_FLOAT, sw_info->general.input.mem.start_
 1030              		.loc 1 291 3 view .LVU308
 289:../Middlewares/stedgeai-lib/Npu/ll_aton/ll_sw_integer.c ****   // array init
 1031              		.loc 1 289 1 is_stmt 0 view .LVU309
 1032 0000 70B5     		push	{r4, r5, r6, lr}
 1033              		.cfi_def_cfa_offset 16
 1034              		.cfi_offset 4, -16
 1035              		.cfi_offset 5, -12
 1036              		.cfi_offset 6, -8
 1037              		.cfi_offset 14, -4
 1038              		.loc 1 291 3 view .LVU310
 1039 0002 484B     		ldr	r3, .L42
 289:../Middlewares/stedgeai-lib/Npu/ll_aton/ll_sw_integer.c ****   // array init
 1040              		.loc 1 289 1 view .LVU311
 1041 0004 C4B0     		sub	sp, sp, #272
 1042              		.cfi_def_cfa_offset 288
 1043              		.loc 1 291 3 view .LVU312
 1044 0006 0A93     		str	r3, [sp, #40]
 1045 0008 4369     		ldr	r3, [r0, #20]
 1046 000a 0B93     		str	r3, [sp, #44]
 1047 000c 836A     		ldr	r3, [r0, #40]
 1048 000e CDE90C33 		strd	r3, r3, [sp, #48]
 292:../Middlewares/stedgeai-lib/Npu/ll_aton/ll_sw_integer.c ****                        sw_info->general.input.mem.start_offset, sw_info->general.input.dim.num_elem
 293:../Middlewares/stedgeai-lib/Npu/ll_aton/ll_sw_integer.c ****   int32_t format = sw_info->general.output.format.is_signed ? (AI_ARRAY_FORMAT_S8 | AI_FMT_FLAG_IS_
ARM GAS  /tmp/ccZCp2co.s 			page 27


 1049              		.loc 1 293 3 is_stmt 1 view .LVU313
 294:../Middlewares/stedgeai-lib/Npu/ll_aton/ll_sw_integer.c ****                                                             : (AI_ARRAY_FORMAT_U8 | AI_FMT_FLAG_IS_
 1050              		.loc 1 294 61 is_stmt 0 view .LVU314
 1051 0012 90F85830 		ldrb	r3, [r0, #88]	@ zero_extendqisi2
 1052 0016 002B     		cmp	r3, #0
 1053 0018 00F08280 		beq	.L40
 1054              		.loc 1 294 61 discriminator 1 view .LVU315
 1055 001c 424B     		ldr	r3, .L42+4
 1056              	.L38:
 1057              	.LVL59:
 295:../Middlewares/stedgeai-lib/Npu/ll_aton/ll_sw_integer.c ****   AI_ARRAY_OBJ_DECLARE(quantize_output_array, format, sw_info->general.output.mem.start_offset,
 1058              		.loc 1 295 3 is_stmt 1 view .LVU316
 1059 001e 0E93     		str	r3, [sp, #56]
 1060 0020 036C     		ldr	r3, [r0, #64]
 1061              	.LVL60:
 296:../Middlewares/stedgeai-lib/Npu/ll_aton/ll_sw_integer.c ****                        sw_info->general.output.mem.start_offset, sw_info->general.output.dim.num_el
 297:../Middlewares/stedgeai-lib/Npu/ll_aton/ll_sw_integer.c **** 
 298:../Middlewares/stedgeai-lib/Npu/ll_aton/ll_sw_integer.c ****   uint16_t offset_format =
 299:../Middlewares/stedgeai-lib/Npu/ll_aton/ll_sw_integer.c ****       sw_info->os.format.is_signed ? (AI_BUFFER_META_FLAG_ZEROPOINT_S8) : (AI_BUFFER_META_FLAG_ZERO
 300:../Middlewares/stedgeai-lib/Npu/ll_aton/ll_sw_integer.c ****   uint16_t scale_format = AI_BUFFER_META_FLAG_SCALE_FLOAT;
 301:../Middlewares/stedgeai-lib/Npu/ll_aton/ll_sw_integer.c ****   ai_intq_info_list output_intq = {.flags = (offset_format | scale_format),
 302:../Middlewares/stedgeai-lib/Npu/ll_aton/ll_sw_integer.c ****                                    .size = sw_info->os.dim.num_elem,
 303:../Middlewares/stedgeai-lib/Npu/ll_aton/ll_sw_integer.c ****                                    .info = (const ai_intq_info[1]){{
 304:../Middlewares/stedgeai-lib/Npu/ll_aton/ll_sw_integer.c ****                                        .scale = ((float *)sw_info->os.mem.start_offset),
 305:../Middlewares/stedgeai-lib/Npu/ll_aton/ll_sw_integer.c ****                                        .zeropoint = ((void *)sw_info->ozp.mem.start_offset),
 306:../Middlewares/stedgeai-lib/Npu/ll_aton/ll_sw_integer.c ****                                    }}};
 307:../Middlewares/stedgeai-lib/Npu/ll_aton/ll_sw_integer.c **** 
 308:../Middlewares/stedgeai-lib/Npu/ll_aton/ll_sw_integer.c ****   AI_TENSOR_OBJ_DECLARE(input_output, , 0x0, 4,
 1062              		.loc 1 308 3 is_stmt 0 view .LVU317
 1063 0022 0021     		movs	r1, #0
 295:../Middlewares/stedgeai-lib/Npu/ll_aton/ll_sw_integer.c ****   AI_ARRAY_OBJ_DECLARE(quantize_output_array, format, sw_info->general.output.mem.start_offset,
 1064              		.loc 1 295 3 view .LVU318
 1065 0024 0F93     		str	r3, [sp, #60]
 1066 0026 436D     		ldr	r3, [r0, #84]
 1067              		.loc 1 308 3 view .LVU319
 1068 0028 4FF08275 		mov	r5, #17039360
 295:../Middlewares/stedgeai-lib/Npu/ll_aton/ll_sw_integer.c ****   AI_ARRAY_OBJ_DECLARE(quantize_output_array, format, sw_info->general.output.mem.start_offset,
 1069              		.loc 1 295 3 view .LVU320
 1070 002c CDE91033 		strd	r3, r3, [sp, #64]
 298:../Middlewares/stedgeai-lib/Npu/ll_aton/ll_sw_integer.c ****       sw_info->os.format.is_signed ? (AI_BUFFER_META_FLAG_ZEROPOINT_S8) : (AI_BUFFER_META_FLAG_ZERO
 1071              		.loc 1 298 3 is_stmt 1 view .LVU321
 298:../Middlewares/stedgeai-lib/Npu/ll_aton/ll_sw_integer.c ****       sw_info->os.format.is_signed ? (AI_BUFFER_META_FLAG_ZEROPOINT_S8) : (AI_BUFFER_META_FLAG_ZERO
 1072              		.loc 1 298 12 is_stmt 0 view .LVU322
 1073 0030 90F88430 		ldrb	r3, [r0, #132]	@ zero_extendqisi2
 1074              		.loc 1 308 3 view .LVU323
 1075 0034 40F20144 		movw	r4, #1025
 298:../Middlewares/stedgeai-lib/Npu/ll_aton/ll_sw_integer.c ****       sw_info->os.format.is_signed ? (AI_BUFFER_META_FLAG_ZEROPOINT_S8) : (AI_BUFFER_META_FLAG_ZERO
 1076              		.loc 1 298 12 discriminator 1 view .LVU324
 1077 0038 002B     		cmp	r3, #0
 1078 003a 0CBF     		ite	eq
 1079 003c 0222     		moveq	r2, #2
 1080 003e 0422     		movne	r2, #4
 1081              	.LVL61:
 300:../Middlewares/stedgeai-lib/Npu/ll_aton/ll_sw_integer.c ****   ai_intq_info_list output_intq = {.flags = (offset_format | scale_format),
 1082              		.loc 1 300 3 is_stmt 1 view .LVU325
 301:../Middlewares/stedgeai-lib/Npu/ll_aton/ll_sw_integer.c ****                                    .size = sw_info->os.dim.num_elem,
 1083              		.loc 1 301 3 view .LVU326
ARM GAS  /tmp/ccZCp2co.s 			page 28


 301:../Middlewares/stedgeai-lib/Npu/ll_aton/ll_sw_integer.c ****                                    .size = sw_info->os.dim.num_elem,
 1084              		.loc 1 301 21 is_stmt 0 view .LVU327
 1085 0040 42F00102 		orr	r2, r2, #1
 1086              	.LVL62:
 301:../Middlewares/stedgeai-lib/Npu/ll_aton/ll_sw_integer.c ****                                    .size = sw_info->os.dim.num_elem,
 1087              		.loc 1 301 21 view .LVU328
 1088 0044 ADF81020 		strh	r2, [sp, #16]	@ movhi
 1089 0048 C26E     		ldr	r2, [r0, #108]
 1090              		.loc 1 308 3 view .LVU329
 1091 004a 466A     		ldr	r6, [r0, #36]
 301:../Middlewares/stedgeai-lib/Npu/ll_aton/ll_sw_integer.c ****                                    .size = sw_info->os.dim.num_elem,
 1092              		.loc 1 301 21 view .LVU330
 1093 004c ADF81220 		strh	r2, [sp, #18]	@ movhi
 303:../Middlewares/stedgeai-lib/Npu/ll_aton/ll_sw_integer.c ****                                        .scale = ((float *)sw_info->os.mem.start_offset),
 1094              		.loc 1 303 67 view .LVU331
 1095 0050 D0F88020 		ldr	r2, [r0, #128]
 1096              		.loc 1 308 3 view .LVU332
 1097 0054 1696     		str	r6, [sp, #88]
 303:../Middlewares/stedgeai-lib/Npu/ll_aton/ll_sw_integer.c ****                                        .scale = ((float *)sw_info->os.mem.start_offset),
 1098              		.loc 1 303 67 view .LVU333
 1099 0056 0692     		str	r2, [sp, #24]
 1100 0058 D0F8AC20 		ldr	r2, [r0, #172]
 1101              		.loc 1 308 3 view .LVU334
 1102 005c 066A     		ldr	r6, [r0, #32]
 303:../Middlewares/stedgeai-lib/Npu/ll_aton/ll_sw_integer.c ****                                        .scale = ((float *)sw_info->os.mem.start_offset),
 1103              		.loc 1 303 67 view .LVU335
 1104 005e 0792     		str	r2, [sp, #28]
 301:../Middlewares/stedgeai-lib/Npu/ll_aton/ll_sw_integer.c ****                                    .size = sw_info->os.dim.num_elem,
 1105              		.loc 1 301 21 view .LVU336
 1106 0060 06AA     		add	r2, sp, #24
 1107 0062 0592     		str	r2, [sp, #20]
 1108              		.loc 1 308 3 is_stmt 1 view .LVU337
 1109 0064 0269     		ldr	r2, [r0, #16]
 1110 0066 CDE92215 		strd	r1, r5, [sp, #136]
 1111 006a 1292     		str	r2, [sp, #72]
 1112 006c C268     		ldr	r2, [r0, #12]
 1113 006e 2494     		str	r4, [sp, #144]
 1114 0070 1392     		str	r2, [sp, #76]
 1115 0072 8268     		ldr	r2, [r0, #8]
 1116 0074 1796     		str	r6, [sp, #92]
 1117 0076 1492     		str	r2, [sp, #80]
 1118 0078 4268     		ldr	r2, [r0, #4]
 301:../Middlewares/stedgeai-lib/Npu/ll_aton/ll_sw_integer.c ****                                    .size = sw_info->os.dim.num_elem,
 1119              		.loc 1 301 21 is_stmt 0 view .LVU338
 1120 007a 04AB     		add	r3, sp, #16
 1121              		.loc 1 308 3 view .LVU339
 1122 007c 1592     		str	r2, [sp, #84]
 1123 007e 12AA     		add	r2, sp, #72
 1124 0080 2592     		str	r2, [sp, #148]
 1125 0082 40F20242 		movw	r2, #1026
 1126 0086 2692     		str	r2, [sp, #152]
 1127 0088 C669     		ldr	r6, [r0, #28]
 309:../Middlewares/stedgeai-lib/Npu/ll_aton/ll_sw_integer.c ****                         SHAPE_INIT(sw_info->general.input.dim.tensor_h, sw_info->general.input.dim.
 310:../Middlewares/stedgeai-lib/Npu/ll_aton/ll_sw_integer.c ****                                    sw_info->general.input.dim.tensor_c, sw_info->general.input.dim.
 311:../Middlewares/stedgeai-lib/Npu/ll_aton/ll_sw_integer.c ****                         STRIDE_INIT(sw_info->general.input.stride.h, sw_info->general.input.stride.
 312:../Middlewares/stedgeai-lib/Npu/ll_aton/ll_sw_integer.c ****                                     sw_info->general.input.stride.c, sw_info->general.input.stride.
 313:../Middlewares/stedgeai-lib/Npu/ll_aton/ll_sw_integer.c ****                         1, &input_output_array, NULL);
ARM GAS  /tmp/ccZCp2co.s 			page 29


 314:../Middlewares/stedgeai-lib/Npu/ll_aton/ll_sw_integer.c ****   AI_TENSOR_OBJ_DECLARE(quantize_output, , 0x0, 4,
 1128              		.loc 1 314 3 view .LVU340
 1129 008a CDE92A54 		strd	r5, r4, [sp, #168]
 308:../Middlewares/stedgeai-lib/Npu/ll_aton/ll_sw_integer.c ****                         SHAPE_INIT(sw_info->general.input.dim.tensor_h, sw_info->general.input.dim.
 1130              		.loc 1 308 3 view .LVU341
 1131 008e 1896     		str	r6, [sp, #96]
 1132 0090 8669     		ldr	r6, [r0, #24]
 1133 0092 1996     		str	r6, [sp, #100]
 1134 0094 16AE     		add	r6, sp, #88
 1135 0096 2796     		str	r6, [sp, #156]
 1136 0098 0AAE     		add	r6, sp, #40
 1137              		.loc 1 314 3 view .LVU342
 1138 009a CDE92863 		strd	r6, r3, [sp, #160]
 1139 009e C36B     		ldr	r3, [r0, #60]
 1140 00a0 1A93     		str	r3, [sp, #104]
 1141 00a2 836B     		ldr	r3, [r0, #56]
 1142 00a4 1B93     		str	r3, [sp, #108]
 1143 00a6 436B     		ldr	r3, [r0, #52]
 1144 00a8 1C93     		str	r3, [sp, #112]
 1145 00aa 036B     		ldr	r3, [r0, #48]
 1146 00ac 1D93     		str	r3, [sp, #116]
 1147 00ae 1AAB     		add	r3, sp, #104
 1148 00b0 CDE92C32 		strd	r3, r2, [sp, #176]
 1149 00b4 036D     		ldr	r3, [r0, #80]
 315:../Middlewares/stedgeai-lib/Npu/ll_aton/ll_sw_integer.c ****                         SHAPE_INIT(sw_info->general.output.dim.tensor_h, sw_info->general.output.di
 316:../Middlewares/stedgeai-lib/Npu/ll_aton/ll_sw_integer.c ****                                    sw_info->general.output.dim.tensor_c, sw_info->general.output.di
 317:../Middlewares/stedgeai-lib/Npu/ll_aton/ll_sw_integer.c ****                         STRIDE_INIT(sw_info->general.output.stride.h, sw_info->general.output.strid
 318:../Middlewares/stedgeai-lib/Npu/ll_aton/ll_sw_integer.c ****                                     sw_info->general.output.stride.c, sw_info->general.output.strid
 319:../Middlewares/stedgeai-lib/Npu/ll_aton/ll_sw_integer.c ****                         1, &quantize_output_array, &output_intq);
 320:../Middlewares/stedgeai-lib/Npu/ll_aton/ll_sw_integer.c ****   // tensor chain initialization
 321:../Middlewares/stedgeai-lib/Npu/ll_aton/ll_sw_integer.c ****   AI_TENSOR_CHAIN_OBJ_DECLARE(quantize_chain, , 4, AI_TENSOR_LIST_OBJ_INIT(AI_FLAG_NONE, 1, TENSORS
 1150              		.loc 1 321 3 view .LVU343
 1151 00b6 6A46     		mov	r2, sp
 314:../Middlewares/stedgeai-lib/Npu/ll_aton/ll_sw_integer.c ****                         SHAPE_INIT(sw_info->general.output.dim.tensor_h, sw_info->general.output.di
 1152              		.loc 1 314 3 view .LVU344
 1153 00b8 1E93     		str	r3, [sp, #120]
 1154 00ba C36C     		ldr	r3, [r0, #76]
 1155 00bc 1F93     		str	r3, [sp, #124]
 1156 00be 836C     		ldr	r3, [r0, #72]
 1157 00c0 2093     		str	r3, [sp, #128]
 1158 00c2 436C     		ldr	r3, [r0, #68]
 1159              		.loc 1 321 3 view .LVU345
 1160 00c4 22A8     		add	r0, sp, #136
 1161              	.LVL63:
 314:../Middlewares/stedgeai-lib/Npu/ll_aton/ll_sw_integer.c ****                         SHAPE_INIT(sw_info->general.output.dim.tensor_h, sw_info->general.output.di
 1162              		.loc 1 314 3 view .LVU346
 1163 00c6 2193     		str	r3, [sp, #132]
 1164 00c8 1EAB     		add	r3, sp, #120
 1165 00ca 2E93     		str	r3, [sp, #184]
 1166 00cc 0EAB     		add	r3, sp, #56
 1167              	.LVL64:
 314:../Middlewares/stedgeai-lib/Npu/ll_aton/ll_sw_integer.c ****                         SHAPE_INIT(sw_info->general.output.dim.tensor_h, sw_info->general.output.di
 1168              		.loc 1 314 3 view .LVU347
 1169 00ce 2F93     		str	r3, [sp, #188]
 319:../Middlewares/stedgeai-lib/Npu/ll_aton/ll_sw_integer.c ****   // tensor chain initialization
 1170              		.loc 1 319 65 is_stmt 1 view .LVU348
 1171              		.loc 1 321 3 view .LVU349
ARM GAS  /tmp/ccZCp2co.s 			page 30


 1172 00d0 0423     		movs	r3, #4
 1173              	.LVL65:
 1174              		.loc 1 321 3 is_stmt 0 view .LVU350
 1175 00d2 0893     		str	r3, [sp, #32]
 1176 00d4 0123     		movs	r3, #1
 1177 00d6 0090     		str	r0, [sp]
 1178 00d8 3893     		str	r3, [sp, #224]
 1179 00da CDE93921 		strd	r2, r1, [sp, #228]
 1180 00de 3B93     		str	r3, [sp, #236]
 1181 00e0 01AB     		add	r3, sp, #4
 1182 00e2 CDE93C31 		strd	r3, r1, [sp, #240]
 1183 00e6 02AB     		add	r3, sp, #8
 1184 00e8 CDE93F31 		strd	r3, r1, [sp, #252]
 1185 00ec 03AB     		add	r3, sp, #12
 1186 00ee CDE94231 		strd	r3, r1, [sp, #264]
 1187 00f2 38AB     		add	r3, sp, #224
 1188 00f4 29AA     		add	r2, sp, #164
 1189 00f6 0993     		str	r3, [sp, #36]
 322:../Middlewares/stedgeai-lib/Npu/ll_aton/ll_sw_integer.c ****                               AI_TENSOR_LIST_OBJ_INIT(AI_FLAG_NONE, 1, TENSORS(&quantize_output)),
 323:../Middlewares/stedgeai-lib/Npu/ll_aton/ll_sw_integer.c ****                               AI_TENSOR_LIST_OBJ_EMPTY, AI_TENSOR_LIST_OBJ_EMPTY)
 324:../Middlewares/stedgeai-lib/Npu/ll_aton/ll_sw_integer.c **** 
 325:../Middlewares/stedgeai-lib/Npu/ll_aton/ll_sw_integer.c ****   // layer initialization
 326:../Middlewares/stedgeai-lib/Npu/ll_aton/ll_sw_integer.c ****   AI_LAYER_OBJ_DECLARE(quantize_layer, 1, NL_TYPE, 0x0, NULL, nl, node_convert /*_fixed*/, &quantiz
 1190              		.loc 1 326 3 is_stmt 1 view .LVU351
 1191 00f8 0C4B     		ldr	r3, .L42+8
 321:../Middlewares/stedgeai-lib/Npu/ll_aton/ll_sw_integer.c ****                               AI_TENSOR_LIST_OBJ_INIT(AI_FLAG_NONE, 1, TENSORS(&quantize_output)),
 1192              		.loc 1 321 3 is_stmt 0 view .LVU352
 1193 00fa 0192     		str	r2, [sp, #4]
 1194              		.loc 1 326 3 view .LVU353
 1195 00fc 31A8     		add	r0, sp, #196
 1196 00fe 1C22     		movs	r2, #28
 321:../Middlewares/stedgeai-lib/Npu/ll_aton/ll_sw_integer.c ****                               AI_TENSOR_LIST_OBJ_INIT(AI_FLAG_NONE, 1, TENSORS(&quantize_output)),
 1197              		.loc 1 321 3 view .LVU354
 1198 0100 3E91     		str	r1, [sp, #248]
 1199 0102 0291     		str	r1, [sp, #8]
 1200 0104 4191     		str	r1, [sp, #260]
 1201 0106 0391     		str	r1, [sp, #12]
 1202              		.loc 1 326 3 view .LVU355
 1203 0108 3093     		str	r3, [sp, #192]
 1204 010a FFF7FEFF 		bl	memset
 1205              	.LVL66:
 1206              		.loc 1 326 3 view .LVU356
 1207 010e 084B     		ldr	r3, .L42+12
 327:../Middlewares/stedgeai-lib/Npu/ll_aton/ll_sw_integer.c ****                        NULL, )
 328:../Middlewares/stedgeai-lib/Npu/ll_aton/ll_sw_integer.c ****   quantize_layer.forward(AI_LAYER_OBJ(&quantize_layer));
 1208              		.loc 1 328 3 view .LVU357
 1209 0110 30A8     		add	r0, sp, #192
 326:../Middlewares/stedgeai-lib/Npu/ll_aton/ll_sw_integer.c ****                        NULL, )
 1210              		.loc 1 326 3 view .LVU358
 1211 0112 3593     		str	r3, [sp, #212]
 1212 0114 08AB     		add	r3, sp, #32
 1213 0116 3693     		str	r3, [sp, #216]
 1214              		.loc 1 328 3 is_stmt 1 view .LVU359
 1215 0118 FFF7FEFF 		bl	node_convert
 1216              	.LVL67:
 329:../Middlewares/stedgeai-lib/Npu/ll_aton/ll_sw_integer.c **** }
 1217              		.loc 1 329 1 is_stmt 0 view .LVU360
ARM GAS  /tmp/ccZCp2co.s 			page 31


 1218 011c 44B0     		add	sp, sp, #272
 1219              		.cfi_remember_state
 1220              		.cfi_def_cfa_offset 16
 1221              		@ sp needed
 1222 011e 70BD     		pop	{r4, r5, r6, pc}
 1223              	.LVL68:
 1224              	.L40:
 1225              		.cfi_restore_state
 294:../Middlewares/stedgeai-lib/Npu/ll_aton/ll_sw_integer.c ****   AI_ARRAY_OBJ_DECLARE(quantize_output_array, format, sw_info->general.output.mem.start_offset,
 1226              		.loc 1 294 61 discriminator 2 view .LVU361
 1227 0120 044B     		ldr	r3, .L42+16
 1228 0122 7CE7     		b	.L38
 1229              	.L43:
 1230              		.align	2
 1231              	.L42:
 1232 0124 40108200 		.word	8523840
 1233 0128 40048408 		.word	142869568
 1234 012c 07010100 		.word	65799
 1235 0130 00000000 		.word	node_convert
 1236 0134 40040408 		.word	134480960
 1237              		.cfi_endproc
 1238              	.LFE17:
 1240              		.section	.text.ll_sw_forward_dequantizelinear,"ax",%progbits
 1241              		.align	1
 1242              		.global	ll_sw_forward_dequantizelinear
 1243              		.syntax unified
 1244              		.thumb
 1245              		.thumb_func
 1247              	ll_sw_forward_dequantizelinear:
 1248              	.LVL69:
 1249              	.LFB18:
 330:../Middlewares/stedgeai-lib/Npu/ll_aton/ll_sw_integer.c **** 
 331:../Middlewares/stedgeai-lib/Npu/ll_aton/ll_sw_integer.c **** //##########################################################################################
 332:../Middlewares/stedgeai-lib/Npu/ll_aton/ll_sw_integer.c **** /** Dequantizelinear forward function */
 333:../Middlewares/stedgeai-lib/Npu/ll_aton/ll_sw_integer.c **** void ll_sw_forward_dequantizelinear(Dequantizelinear_sw_info *sw_info)
 334:../Middlewares/stedgeai-lib/Npu/ll_aton/ll_sw_integer.c **** {
 1250              		.loc 1 334 1 is_stmt 1 view -0
 1251              		.cfi_startproc
 1252              		@ args = 0, pretend = 0, frame = 272
 1253              		@ frame_needed = 0, uses_anonymous_args = 0
 335:../Middlewares/stedgeai-lib/Npu/ll_aton/ll_sw_integer.c ****   // array init
 336:../Middlewares/stedgeai-lib/Npu/ll_aton/ll_sw_integer.c ****   int32_t format = sw_info->general.input.format.is_signed ? (AI_ARRAY_FORMAT_S8 | AI_FMT_FLAG_IS_I
 1254              		.loc 1 336 3 view .LVU363
 334:../Middlewares/stedgeai-lib/Npu/ll_aton/ll_sw_integer.c ****   // array init
 1255              		.loc 1 334 1 is_stmt 0 view .LVU364
 1256 0000 10B5     		push	{r4, lr}
 1257              		.cfi_def_cfa_offset 8
 1258              		.cfi_offset 4, -8
 1259              		.cfi_offset 14, -4
 337:../Middlewares/stedgeai-lib/Npu/ll_aton/ll_sw_integer.c ****                                                            : (AI_ARRAY_FORMAT_U8 | AI_FMT_FLAG_IS_I
 1260              		.loc 1 337 60 view .LVU365
 1261 0002 90F82C30 		ldrb	r3, [r0, #44]	@ zero_extendqisi2
 334:../Middlewares/stedgeai-lib/Npu/ll_aton/ll_sw_integer.c ****   // array init
 1262              		.loc 1 334 1 view .LVU366
 1263 0006 C4B0     		sub	sp, sp, #272
 1264              		.cfi_def_cfa_offset 280
 1265              		.loc 1 337 60 view .LVU367
ARM GAS  /tmp/ccZCp2co.s 			page 32


 1266 0008 002B     		cmp	r3, #0
 1267 000a 00F08980 		beq	.L47
 1268              		.loc 1 337 60 discriminator 1 view .LVU368
 1269 000e 454B     		ldr	r3, .L49
 1270              	.L45:
 1271              	.LVL70:
 338:../Middlewares/stedgeai-lib/Npu/ll_aton/ll_sw_integer.c ****   AI_ARRAY_OBJ_DECLARE(input_output_array, format, sw_info->general.input.mem.start_offset,
 1272              		.loc 1 338 3 is_stmt 1 view .LVU369
 1273 0010 0A93     		str	r3, [sp, #40]
 1274 0012 4369     		ldr	r3, [r0, #20]
 1275              	.LVL71:
 339:../Middlewares/stedgeai-lib/Npu/ll_aton/ll_sw_integer.c ****                        sw_info->general.input.mem.start_offset, sw_info->general.input.dim.num_elem
 340:../Middlewares/stedgeai-lib/Npu/ll_aton/ll_sw_integer.c ****   AI_ARRAY_OBJ_DECLARE(dequantize_output_array, FORMAT, sw_info->general.output.mem.start_offset,
 341:../Middlewares/stedgeai-lib/Npu/ll_aton/ll_sw_integer.c ****                        sw_info->general.output.mem.start_offset, sw_info->general.output.dim.num_el
 342:../Middlewares/stedgeai-lib/Npu/ll_aton/ll_sw_integer.c **** 
 343:../Middlewares/stedgeai-lib/Npu/ll_aton/ll_sw_integer.c ****   uint16_t offset_format =
 344:../Middlewares/stedgeai-lib/Npu/ll_aton/ll_sw_integer.c ****       sw_info->is.format.is_signed ? (AI_BUFFER_META_FLAG_ZEROPOINT_S8) : (AI_BUFFER_META_FLAG_ZERO
 345:../Middlewares/stedgeai-lib/Npu/ll_aton/ll_sw_integer.c ****   uint16_t scale_format = AI_BUFFER_META_FLAG_SCALE_FLOAT;
 346:../Middlewares/stedgeai-lib/Npu/ll_aton/ll_sw_integer.c ****   ai_intq_info_list input_intq = {.flags = (offset_format | scale_format),
 347:../Middlewares/stedgeai-lib/Npu/ll_aton/ll_sw_integer.c ****                                   .size = sw_info->is.dim.num_elem,
 348:../Middlewares/stedgeai-lib/Npu/ll_aton/ll_sw_integer.c ****                                   .info = (const ai_intq_info[1]){{
 349:../Middlewares/stedgeai-lib/Npu/ll_aton/ll_sw_integer.c ****                                       .scale = ((float *)sw_info->is.mem.start_offset),
 350:../Middlewares/stedgeai-lib/Npu/ll_aton/ll_sw_integer.c ****                                       .zeropoint = ((void *)sw_info->izp.mem.start_offset),
 351:../Middlewares/stedgeai-lib/Npu/ll_aton/ll_sw_integer.c ****                                   }}};
 352:../Middlewares/stedgeai-lib/Npu/ll_aton/ll_sw_integer.c **** 
 353:../Middlewares/stedgeai-lib/Npu/ll_aton/ll_sw_integer.c ****   AI_TENSOR_OBJ_DECLARE(input_output, , 0x0, 4,
 1276              		.loc 1 353 3 is_stmt 0 view .LVU370
 1277 0014 4FF08274 		mov	r4, #17039360
 338:../Middlewares/stedgeai-lib/Npu/ll_aton/ll_sw_integer.c ****   AI_ARRAY_OBJ_DECLARE(input_output_array, format, sw_info->general.input.mem.start_offset,
 1278              		.loc 1 338 3 view .LVU371
 1279 0018 0B93     		str	r3, [sp, #44]
 1280 001a 836A     		ldr	r3, [r0, #40]
 1281 001c CDE90C33 		strd	r3, r3, [sp, #48]
 340:../Middlewares/stedgeai-lib/Npu/ll_aton/ll_sw_integer.c ****                        sw_info->general.output.mem.start_offset, sw_info->general.output.dim.num_el
 1282              		.loc 1 340 3 is_stmt 1 view .LVU372
 1283 0020 414B     		ldr	r3, .L49+4
 1284 0022 0E93     		str	r3, [sp, #56]
 1285 0024 036C     		ldr	r3, [r0, #64]
 1286 0026 0F93     		str	r3, [sp, #60]
 1287 0028 436D     		ldr	r3, [r0, #84]
 1288 002a CDE91033 		strd	r3, r3, [sp, #64]
 343:../Middlewares/stedgeai-lib/Npu/ll_aton/ll_sw_integer.c ****       sw_info->is.format.is_signed ? (AI_BUFFER_META_FLAG_ZEROPOINT_S8) : (AI_BUFFER_META_FLAG_ZERO
 1289              		.loc 1 343 3 view .LVU373
 343:../Middlewares/stedgeai-lib/Npu/ll_aton/ll_sw_integer.c ****       sw_info->is.format.is_signed ? (AI_BUFFER_META_FLAG_ZEROPOINT_S8) : (AI_BUFFER_META_FLAG_ZERO
 1290              		.loc 1 343 12 is_stmt 0 view .LVU374
 1291 002e 90F88430 		ldrb	r3, [r0, #132]	@ zero_extendqisi2
 343:../Middlewares/stedgeai-lib/Npu/ll_aton/ll_sw_integer.c ****       sw_info->is.format.is_signed ? (AI_BUFFER_META_FLAG_ZEROPOINT_S8) : (AI_BUFFER_META_FLAG_ZERO
 1292              		.loc 1 343 12 discriminator 1 view .LVU375
 1293 0032 002B     		cmp	r3, #0
 1294 0034 0CBF     		ite	eq
 1295 0036 0222     		moveq	r2, #2
 1296 0038 0422     		movne	r2, #4
 1297              	.LVL72:
 345:../Middlewares/stedgeai-lib/Npu/ll_aton/ll_sw_integer.c ****   ai_intq_info_list input_intq = {.flags = (offset_format | scale_format),
 1298              		.loc 1 345 3 is_stmt 1 view .LVU376
 346:../Middlewares/stedgeai-lib/Npu/ll_aton/ll_sw_integer.c ****                                   .size = sw_info->is.dim.num_elem,
 1299              		.loc 1 346 3 view .LVU377
ARM GAS  /tmp/ccZCp2co.s 			page 33


 346:../Middlewares/stedgeai-lib/Npu/ll_aton/ll_sw_integer.c ****                                   .size = sw_info->is.dim.num_elem,
 1300              		.loc 1 346 21 is_stmt 0 view .LVU378
 1301 003a 42F00102 		orr	r2, r2, #1
 1302              	.LVL73:
 346:../Middlewares/stedgeai-lib/Npu/ll_aton/ll_sw_integer.c ****                                   .size = sw_info->is.dim.num_elem,
 1303              		.loc 1 346 21 view .LVU379
 1304 003e ADF81020 		strh	r2, [sp, #16]	@ movhi
 1305 0042 C26E     		ldr	r2, [r0, #108]
 1306 0044 04AB     		add	r3, sp, #16
 1307 0046 ADF81220 		strh	r2, [sp, #18]	@ movhi
 348:../Middlewares/stedgeai-lib/Npu/ll_aton/ll_sw_integer.c ****                                       .scale = ((float *)sw_info->is.mem.start_offset),
 1308              		.loc 1 348 66 view .LVU380
 1309 004a D0F88020 		ldr	r2, [r0, #128]
 1310              		.loc 1 353 3 view .LVU381
 1311 004e 2293     		str	r3, [sp, #136]
 348:../Middlewares/stedgeai-lib/Npu/ll_aton/ll_sw_integer.c ****                                       .scale = ((float *)sw_info->is.mem.start_offset),
 1312              		.loc 1 348 66 view .LVU382
 1313 0050 0692     		str	r2, [sp, #24]
 1314 0052 D0F8AC20 		ldr	r2, [r0, #172]
 1315              		.loc 1 353 3 view .LVU383
 1316 0056 0369     		ldr	r3, [r0, #16]
 348:../Middlewares/stedgeai-lib/Npu/ll_aton/ll_sw_integer.c ****                                       .scale = ((float *)sw_info->is.mem.start_offset),
 1317              		.loc 1 348 66 view .LVU384
 1318 0058 0792     		str	r2, [sp, #28]
 346:../Middlewares/stedgeai-lib/Npu/ll_aton/ll_sw_integer.c ****                                   .size = sw_info->is.dim.num_elem,
 1319              		.loc 1 346 21 view .LVU385
 1320 005a 06AA     		add	r2, sp, #24
 1321 005c 0592     		str	r2, [sp, #20]
 1322              		.loc 1 353 3 is_stmt 1 view .LVU386
 1323 005e 40F20142 		movw	r2, #1025
 1324 0062 1293     		str	r3, [sp, #72]
 1325 0064 C368     		ldr	r3, [r0, #12]
 1326 0066 CDE92342 		strd	r4, r2, [sp, #140]
 1327 006a 1393     		str	r3, [sp, #76]
 1328 006c 8368     		ldr	r3, [r0, #8]
 1329 006e 1493     		str	r3, [sp, #80]
 1330 0070 4368     		ldr	r3, [r0, #4]
 1331 0072 1593     		str	r3, [sp, #84]
 1332 0074 12AB     		add	r3, sp, #72
 1333 0076 2593     		str	r3, [sp, #148]
 1334 0078 416A     		ldr	r1, [r0, #36]
 1335 007a 40F20243 		movw	r3, #1026
 1336 007e 1691     		str	r1, [sp, #88]
 1337 0080 016A     		ldr	r1, [r0, #32]
 354:../Middlewares/stedgeai-lib/Npu/ll_aton/ll_sw_integer.c ****                         SHAPE_INIT(sw_info->general.input.dim.tensor_h, sw_info->general.input.dim.
 355:../Middlewares/stedgeai-lib/Npu/ll_aton/ll_sw_integer.c ****                                    sw_info->general.input.dim.tensor_c, sw_info->general.input.dim.
 356:../Middlewares/stedgeai-lib/Npu/ll_aton/ll_sw_integer.c ****                         STRIDE_INIT(sw_info->general.input.stride.h, sw_info->general.input.stride.
 357:../Middlewares/stedgeai-lib/Npu/ll_aton/ll_sw_integer.c ****                                     sw_info->general.input.stride.c, sw_info->general.input.stride.
 358:../Middlewares/stedgeai-lib/Npu/ll_aton/ll_sw_integer.c ****                         1, &input_output_array, &input_intq);
 359:../Middlewares/stedgeai-lib/Npu/ll_aton/ll_sw_integer.c **** 
 360:../Middlewares/stedgeai-lib/Npu/ll_aton/ll_sw_integer.c ****   AI_TENSOR_OBJ_DECLARE(dequantize_output, , 0x0, 4,
 1338              		.loc 1 360 3 is_stmt 0 view .LVU387
 1339 0082 2B92     		str	r2, [sp, #172]
 353:../Middlewares/stedgeai-lib/Npu/ll_aton/ll_sw_integer.c ****                         SHAPE_INIT(sw_info->general.input.dim.tensor_h, sw_info->general.input.dim.
 1340              		.loc 1 353 3 view .LVU388
 1341 0084 1791     		str	r1, [sp, #92]
 1342 0086 C169     		ldr	r1, [r0, #28]
ARM GAS  /tmp/ccZCp2co.s 			page 34


 1343              		.loc 1 360 3 view .LVU389
 1344 0088 C26B     		ldr	r2, [r0, #60]
 353:../Middlewares/stedgeai-lib/Npu/ll_aton/ll_sw_integer.c ****                         SHAPE_INIT(sw_info->general.input.dim.tensor_h, sw_info->general.input.dim.
 1345              		.loc 1 353 3 view .LVU390
 1346 008a 1891     		str	r1, [sp, #96]
 1347 008c 8169     		ldr	r1, [r0, #24]
 1348              		.loc 1 360 3 view .LVU391
 1349 008e 1A92     		str	r2, [sp, #104]
 353:../Middlewares/stedgeai-lib/Npu/ll_aton/ll_sw_integer.c ****                         SHAPE_INIT(sw_info->general.input.dim.tensor_h, sw_info->general.input.dim.
 1350              		.loc 1 353 3 view .LVU392
 1351 0090 1991     		str	r1, [sp, #100]
 1352 0092 16A9     		add	r1, sp, #88
 1353 0094 2791     		str	r1, [sp, #156]
 1354 0096 0AA9     		add	r1, sp, #40
 1355              	.LVL74:
 353:../Middlewares/stedgeai-lib/Npu/ll_aton/ll_sw_integer.c ****                         SHAPE_INIT(sw_info->general.input.dim.tensor_h, sw_info->general.input.dim.
 1356              		.loc 1 353 3 view .LVU393
 1357 0098 2891     		str	r1, [sp, #160]
 358:../Middlewares/stedgeai-lib/Npu/ll_aton/ll_sw_integer.c **** 
 1358              		.loc 1 358 61 is_stmt 1 view .LVU394
 1359              		.loc 1 360 3 view .LVU395
 1360 009a 0021     		movs	r1, #0
 1361              	.LVL75:
 1362              		.loc 1 360 3 is_stmt 0 view .LVU396
 1363 009c 826B     		ldr	r2, [r0, #56]
 353:../Middlewares/stedgeai-lib/Npu/ll_aton/ll_sw_integer.c ****                         SHAPE_INIT(sw_info->general.input.dim.tensor_h, sw_info->general.input.dim.
 1364              		.loc 1 353 3 view .LVU397
 1365 009e 2693     		str	r3, [sp, #152]
 1366              		.loc 1 360 3 view .LVU398
 1367 00a0 1B92     		str	r2, [sp, #108]
 1368 00a2 426B     		ldr	r2, [r0, #52]
 1369 00a4 CDE92914 		strd	r1, r4, [sp, #164]
 1370 00a8 1C92     		str	r2, [sp, #112]
 1371 00aa 026B     		ldr	r2, [r0, #48]
 1372 00ac 1D92     		str	r2, [sp, #116]
 1373 00ae 1AAA     		add	r2, sp, #104
 1374 00b0 CDE92C23 		strd	r2, r3, [sp, #176]
 1375 00b4 036D     		ldr	r3, [r0, #80]
 361:../Middlewares/stedgeai-lib/Npu/ll_aton/ll_sw_integer.c ****                         SHAPE_INIT(sw_info->general.output.dim.tensor_h, sw_info->general.output.di
 362:../Middlewares/stedgeai-lib/Npu/ll_aton/ll_sw_integer.c ****                                    sw_info->general.output.dim.tensor_c, sw_info->general.output.di
 363:../Middlewares/stedgeai-lib/Npu/ll_aton/ll_sw_integer.c ****                         STRIDE_INIT(sw_info->general.output.stride.h, sw_info->general.output.strid
 364:../Middlewares/stedgeai-lib/Npu/ll_aton/ll_sw_integer.c ****                                     sw_info->general.output.stride.c, sw_info->general.output.strid
 365:../Middlewares/stedgeai-lib/Npu/ll_aton/ll_sw_integer.c ****                         1, &dequantize_output_array, NULL);
 366:../Middlewares/stedgeai-lib/Npu/ll_aton/ll_sw_integer.c **** 
 367:../Middlewares/stedgeai-lib/Npu/ll_aton/ll_sw_integer.c ****   // tensor chain initialization
 368:../Middlewares/stedgeai-lib/Npu/ll_aton/ll_sw_integer.c ****   AI_TENSOR_CHAIN_OBJ_DECLARE(dequantize_chain, , 4, AI_TENSOR_LIST_OBJ_INIT(AI_FLAG_NONE, 1, TENSO
 1376              		.loc 1 368 3 view .LVU399
 1377 00b6 6A46     		mov	r2, sp
 360:../Middlewares/stedgeai-lib/Npu/ll_aton/ll_sw_integer.c ****                         SHAPE_INIT(sw_info->general.output.dim.tensor_h, sw_info->general.output.di
 1378              		.loc 1 360 3 view .LVU400
 1379 00b8 1E93     		str	r3, [sp, #120]
 1380 00ba C36C     		ldr	r3, [r0, #76]
 1381 00bc 1F93     		str	r3, [sp, #124]
 1382 00be 836C     		ldr	r3, [r0, #72]
 1383 00c0 2093     		str	r3, [sp, #128]
 1384 00c2 436C     		ldr	r3, [r0, #68]
 1385              		.loc 1 368 3 view .LVU401
ARM GAS  /tmp/ccZCp2co.s 			page 35


 1386 00c4 22A8     		add	r0, sp, #136
 1387              	.LVL76:
 360:../Middlewares/stedgeai-lib/Npu/ll_aton/ll_sw_integer.c ****                         SHAPE_INIT(sw_info->general.output.dim.tensor_h, sw_info->general.output.di
 1388              		.loc 1 360 3 view .LVU402
 1389 00c6 2193     		str	r3, [sp, #132]
 1390 00c8 1EAB     		add	r3, sp, #120
 1391 00ca 2E93     		str	r3, [sp, #184]
 1392 00cc 0EAB     		add	r3, sp, #56
 1393 00ce 2F93     		str	r3, [sp, #188]
 365:../Middlewares/stedgeai-lib/Npu/ll_aton/ll_sw_integer.c **** 
 1394              		.loc 1 365 59 is_stmt 1 view .LVU403
 1395              		.loc 1 368 3 view .LVU404
 1396 00d0 0423     		movs	r3, #4
 1397 00d2 0893     		str	r3, [sp, #32]
 1398 00d4 0123     		movs	r3, #1
 1399 00d6 3893     		str	r3, [sp, #224]
 1400 00d8 3B93     		str	r3, [sp, #236]
 1401 00da 01AB     		add	r3, sp, #4
 1402 00dc CDE93C31 		strd	r3, r1, [sp, #240]
 1403 00e0 02AB     		add	r3, sp, #8
 1404 00e2 CDE93F31 		strd	r3, r1, [sp, #252]
 1405 00e6 03AB     		add	r3, sp, #12
 1406 00e8 CDE94231 		strd	r3, r1, [sp, #264]
 1407 00ec 38AB     		add	r3, sp, #224
 1408 00ee CDE93921 		strd	r2, r1, [sp, #228]
 1409 00f2 0993     		str	r3, [sp, #36]
 369:../Middlewares/stedgeai-lib/Npu/ll_aton/ll_sw_integer.c ****                               AI_TENSOR_LIST_OBJ_INIT(AI_FLAG_NONE, 1, TENSORS(&dequantize_output))
 370:../Middlewares/stedgeai-lib/Npu/ll_aton/ll_sw_integer.c ****                               AI_TENSOR_LIST_OBJ_EMPTY, AI_TENSOR_LIST_OBJ_EMPTY)
 371:../Middlewares/stedgeai-lib/Npu/ll_aton/ll_sw_integer.c **** 
 372:../Middlewares/stedgeai-lib/Npu/ll_aton/ll_sw_integer.c ****   // layer initialization
 373:../Middlewares/stedgeai-lib/Npu/ll_aton/ll_sw_integer.c ****   AI_LAYER_OBJ_DECLARE(dequantize_layer, 1, NL_TYPE, 0x0, NULL, nl, node_convert /*_fixed*/, &dequa
 1410              		.loc 1 373 3 view .LVU405
 368:../Middlewares/stedgeai-lib/Npu/ll_aton/ll_sw_integer.c ****                               AI_TENSOR_LIST_OBJ_INIT(AI_FLAG_NONE, 1, TENSORS(&dequantize_output))
 1411              		.loc 1 368 3 is_stmt 0 view .LVU406
 1412 00f4 29AA     		add	r2, sp, #164
 1413              		.loc 1 373 3 view .LVU407
 1414 00f6 0D4B     		ldr	r3, .L49+8
 368:../Middlewares/stedgeai-lib/Npu/ll_aton/ll_sw_integer.c ****                               AI_TENSOR_LIST_OBJ_INIT(AI_FLAG_NONE, 1, TENSORS(&dequantize_output))
 1415              		.loc 1 368 3 view .LVU408
 1416 00f8 0090     		str	r0, [sp]
 1417 00fa 0192     		str	r2, [sp, #4]
 1418              		.loc 1 373 3 view .LVU409
 1419 00fc 31A8     		add	r0, sp, #196
 1420 00fe 1C22     		movs	r2, #28
 368:../Middlewares/stedgeai-lib/Npu/ll_aton/ll_sw_integer.c ****                               AI_TENSOR_LIST_OBJ_INIT(AI_FLAG_NONE, 1, TENSORS(&dequantize_output))
 1421              		.loc 1 368 3 view .LVU410
 1422 0100 3E91     		str	r1, [sp, #248]
 1423 0102 0291     		str	r1, [sp, #8]
 1424 0104 4191     		str	r1, [sp, #260]
 1425 0106 0391     		str	r1, [sp, #12]
 1426              		.loc 1 373 3 view .LVU411
 1427 0108 3093     		str	r3, [sp, #192]
 1428 010a FFF7FEFF 		bl	memset
 1429              	.LVL77:
 1430              		.loc 1 373 3 view .LVU412
 1431 010e 084B     		ldr	r3, .L49+12
 374:../Middlewares/stedgeai-lib/Npu/ll_aton/ll_sw_integer.c ****                        NULL, )
ARM GAS  /tmp/ccZCp2co.s 			page 36


 375:../Middlewares/stedgeai-lib/Npu/ll_aton/ll_sw_integer.c ****   dequantize_layer.forward(AI_LAYER_OBJ(&dequantize_layer));
 1432              		.loc 1 375 3 view .LVU413
 1433 0110 30A8     		add	r0, sp, #192
 373:../Middlewares/stedgeai-lib/Npu/ll_aton/ll_sw_integer.c ****                        NULL, )
 1434              		.loc 1 373 3 view .LVU414
 1435 0112 3593     		str	r3, [sp, #212]
 1436 0114 08AB     		add	r3, sp, #32
 1437 0116 3693     		str	r3, [sp, #216]
 1438              		.loc 1 375 3 is_stmt 1 view .LVU415
 1439 0118 FFF7FEFF 		bl	node_convert
 1440              	.LVL78:
 376:../Middlewares/stedgeai-lib/Npu/ll_aton/ll_sw_integer.c **** }
 1441              		.loc 1 376 1 is_stmt 0 view .LVU416
 1442 011c 44B0     		add	sp, sp, #272
 1443              		.cfi_remember_state
 1444              		.cfi_def_cfa_offset 8
 1445              		@ sp needed
 1446 011e 10BD     		pop	{r4, pc}
 1447              	.LVL79:
 1448              	.L47:
 1449              		.cfi_restore_state
 337:../Middlewares/stedgeai-lib/Npu/ll_aton/ll_sw_integer.c ****   AI_ARRAY_OBJ_DECLARE(input_output_array, format, sw_info->general.input.mem.start_offset,
 1450              		.loc 1 337 60 discriminator 2 view .LVU417
 1451 0120 044B     		ldr	r3, .L49+16
 1452 0122 75E7     		b	.L45
 1453              	.L50:
 1454              		.align	2
 1455              	.L49:
 1456 0124 40048408 		.word	142869568
 1457 0128 40108200 		.word	8523840
 1458 012c 07010100 		.word	65799
 1459 0130 00000000 		.word	node_convert
 1460 0134 40040408 		.word	134480960
 1461              		.cfi_endproc
 1462              	.LFE18:
 1464              		.section	.text.ll_sw_forward_requantizelinear,"ax",%progbits
 1465              		.align	1
 1466              		.global	ll_sw_forward_requantizelinear
 1467              		.syntax unified
 1468              		.thumb
 1469              		.thumb_func
 1471              	ll_sw_forward_requantizelinear:
 1472              	.LVL80:
 1473              	.LFB19:
 377:../Middlewares/stedgeai-lib/Npu/ll_aton/ll_sw_integer.c **** 
 378:../Middlewares/stedgeai-lib/Npu/ll_aton/ll_sw_integer.c **** //##########################################################################################
 379:../Middlewares/stedgeai-lib/Npu/ll_aton/ll_sw_integer.c **** /** QuantizeLinear forward function */
 380:../Middlewares/stedgeai-lib/Npu/ll_aton/ll_sw_integer.c **** void ll_sw_forward_requantizelinear(Requantizelinear_sw_info *sw_info)
 381:../Middlewares/stedgeai-lib/Npu/ll_aton/ll_sw_integer.c **** {
 1474              		.loc 1 381 1 is_stmt 1 view -0
 1475              		.cfi_startproc
 1476              		@ args = 0, pretend = 0, frame = 288
 1477              		@ frame_needed = 0, uses_anonymous_args = 0
 382:../Middlewares/stedgeai-lib/Npu/ll_aton/ll_sw_integer.c ****   // array init
 383:../Middlewares/stedgeai-lib/Npu/ll_aton/ll_sw_integer.c ****   int32_t format = sw_info->general.input.format.is_signed ? (AI_ARRAY_FORMAT_S8 | AI_FMT_FLAG_IS_I
 1478              		.loc 1 383 3 view .LVU419
 381:../Middlewares/stedgeai-lib/Npu/ll_aton/ll_sw_integer.c ****   // array init
ARM GAS  /tmp/ccZCp2co.s 			page 37


 1479              		.loc 1 381 1 is_stmt 0 view .LVU420
 1480 0000 30B5     		push	{r4, r5, lr}
 1481              		.cfi_def_cfa_offset 12
 1482              		.cfi_offset 4, -12
 1483              		.cfi_offset 5, -8
 1484              		.cfi_offset 14, -4
 384:../Middlewares/stedgeai-lib/Npu/ll_aton/ll_sw_integer.c ****                                                            : (AI_ARRAY_FORMAT_U8 | AI_FMT_FLAG_IS_I
 1485              		.loc 1 384 60 view .LVU421
 1486 0002 90F82C30 		ldrb	r3, [r0, #44]	@ zero_extendqisi2
 381:../Middlewares/stedgeai-lib/Npu/ll_aton/ll_sw_integer.c ****   // array init
 1487              		.loc 1 381 1 view .LVU422
 1488 0006 C9B0     		sub	sp, sp, #292
 1489              		.cfi_def_cfa_offset 304
 1490              		.loc 1 384 60 view .LVU423
 1491 0008 002B     		cmp	r3, #0
 1492 000a 00F0A580 		beq	.L56
 1493              		.loc 1 384 60 discriminator 1 view .LVU424
 1494 000e 544B     		ldr	r3, .L60
 1495              	.L52:
 1496              	.LVL81:
 385:../Middlewares/stedgeai-lib/Npu/ll_aton/ll_sw_integer.c ****   AI_ARRAY_OBJ_DECLARE(input_output_array, format, sw_info->general.input.mem.start_offset,
 1497              		.loc 1 385 3 is_stmt 1 view .LVU425
 1498 0010 0E93     		str	r3, [sp, #56]
 1499 0012 4369     		ldr	r3, [r0, #20]
 1500              	.LVL82:
 1501              		.loc 1 385 3 is_stmt 0 view .LVU426
 1502 0014 0F93     		str	r3, [sp, #60]
 1503 0016 836A     		ldr	r3, [r0, #40]
 1504 0018 CDE91033 		strd	r3, r3, [sp, #64]
 386:../Middlewares/stedgeai-lib/Npu/ll_aton/ll_sw_integer.c ****                        sw_info->general.input.mem.start_offset, sw_info->general.input.dim.num_elem
 387:../Middlewares/stedgeai-lib/Npu/ll_aton/ll_sw_integer.c **** 
 388:../Middlewares/stedgeai-lib/Npu/ll_aton/ll_sw_integer.c ****   format = sw_info->general.output.format.is_signed ? (AI_ARRAY_FORMAT_S8 | AI_FMT_FLAG_IS_IO)
 1505              		.loc 1 388 3 is_stmt 1 view .LVU427
 389:../Middlewares/stedgeai-lib/Npu/ll_aton/ll_sw_integer.c ****                                                     : (AI_ARRAY_FORMAT_U8 | AI_FMT_FLAG_IS_IO);
 1506              		.loc 1 389 53 is_stmt 0 view .LVU428
 1507 001c 90F85830 		ldrb	r3, [r0, #88]	@ zero_extendqisi2
 1508 0020 002B     		cmp	r3, #0
 1509 0022 00F09B80 		beq	.L57
 1510              		.loc 1 389 53 discriminator 1 view .LVU429
 1511 0026 4E4B     		ldr	r3, .L60
 1512              	.L53:
 1513              	.LVL83:
 390:../Middlewares/stedgeai-lib/Npu/ll_aton/ll_sw_integer.c ****   AI_ARRAY_OBJ_DECLARE(requantize_output_array, format, sw_info->general.output.mem.start_offset,
 1514              		.loc 1 390 3 is_stmt 1 view .LVU430
 1515 0028 1293     		str	r3, [sp, #72]
 1516 002a 036C     		ldr	r3, [r0, #64]
 1517              	.LVL84:
 391:../Middlewares/stedgeai-lib/Npu/ll_aton/ll_sw_integer.c ****                        sw_info->general.output.mem.start_offset, sw_info->general.output.dim.num_el
 392:../Middlewares/stedgeai-lib/Npu/ll_aton/ll_sw_integer.c **** 
 393:../Middlewares/stedgeai-lib/Npu/ll_aton/ll_sw_integer.c ****   uint16_t offset_format =
 394:../Middlewares/stedgeai-lib/Npu/ll_aton/ll_sw_integer.c ****       sw_info->is.format.is_signed ? (AI_BUFFER_META_FLAG_ZEROPOINT_S8) : (AI_BUFFER_META_FLAG_ZERO
 395:../Middlewares/stedgeai-lib/Npu/ll_aton/ll_sw_integer.c ****   uint16_t scale_format = AI_BUFFER_META_FLAG_SCALE_FLOAT;
 396:../Middlewares/stedgeai-lib/Npu/ll_aton/ll_sw_integer.c ****   ai_intq_info_list input_intq = {.flags = (offset_format | scale_format),
 397:../Middlewares/stedgeai-lib/Npu/ll_aton/ll_sw_integer.c ****                                   .size = sw_info->is.dim.num_elem,
 398:../Middlewares/stedgeai-lib/Npu/ll_aton/ll_sw_integer.c ****                                   .info = (const ai_intq_info[1]){{
 1518              		.loc 1 398 66 is_stmt 0 view .LVU431
 1519 002c D0F88010 		ldr	r1, [r0, #128]
ARM GAS  /tmp/ccZCp2co.s 			page 38


 390:../Middlewares/stedgeai-lib/Npu/ll_aton/ll_sw_integer.c ****   AI_ARRAY_OBJ_DECLARE(requantize_output_array, format, sw_info->general.output.mem.start_offset,
 1520              		.loc 1 390 3 view .LVU432
 1521 0030 1393     		str	r3, [sp, #76]
 1522 0032 436D     		ldr	r3, [r0, #84]
 1523              		.loc 1 398 66 view .LVU433
 1524 0034 0691     		str	r1, [sp, #24]
 390:../Middlewares/stedgeai-lib/Npu/ll_aton/ll_sw_integer.c ****   AI_ARRAY_OBJ_DECLARE(requantize_output_array, format, sw_info->general.output.mem.start_offset,
 1525              		.loc 1 390 3 view .LVU434
 1526 0036 CDE91433 		strd	r3, r3, [sp, #80]
 393:../Middlewares/stedgeai-lib/Npu/ll_aton/ll_sw_integer.c ****       sw_info->is.format.is_signed ? (AI_BUFFER_META_FLAG_ZEROPOINT_S8) : (AI_BUFFER_META_FLAG_ZERO
 1527              		.loc 1 393 3 is_stmt 1 view .LVU435
 393:../Middlewares/stedgeai-lib/Npu/ll_aton/ll_sw_integer.c ****       sw_info->is.format.is_signed ? (AI_BUFFER_META_FLAG_ZEROPOINT_S8) : (AI_BUFFER_META_FLAG_ZERO
 1528              		.loc 1 393 12 is_stmt 0 view .LVU436
 1529 003a 90F88430 		ldrb	r3, [r0, #132]	@ zero_extendqisi2
 1530              		.loc 1 398 66 view .LVU437
 1531 003e D0F8AC10 		ldr	r1, [r0, #172]
 393:../Middlewares/stedgeai-lib/Npu/ll_aton/ll_sw_integer.c ****       sw_info->is.format.is_signed ? (AI_BUFFER_META_FLAG_ZEROPOINT_S8) : (AI_BUFFER_META_FLAG_ZERO
 1532              		.loc 1 393 12 discriminator 1 view .LVU438
 1533 0042 002B     		cmp	r3, #0
 1534 0044 0CBF     		ite	eq
 1535 0046 0223     		moveq	r3, #2
 1536 0048 0423     		movne	r3, #4
 1537              	.LVL85:
 395:../Middlewares/stedgeai-lib/Npu/ll_aton/ll_sw_integer.c ****   ai_intq_info_list input_intq = {.flags = (offset_format | scale_format),
 1538              		.loc 1 395 3 is_stmt 1 view .LVU439
 396:../Middlewares/stedgeai-lib/Npu/ll_aton/ll_sw_integer.c ****                                   .size = sw_info->is.dim.num_elem,
 1539              		.loc 1 396 3 view .LVU440
 396:../Middlewares/stedgeai-lib/Npu/ll_aton/ll_sw_integer.c ****                                   .size = sw_info->is.dim.num_elem,
 1540              		.loc 1 396 21 is_stmt 0 view .LVU441
 1541 004a 43F00103 		orr	r3, r3, #1
 1542              	.LVL86:
 396:../Middlewares/stedgeai-lib/Npu/ll_aton/ll_sw_integer.c ****                                   .size = sw_info->is.dim.num_elem,
 1543              		.loc 1 396 21 view .LVU442
 1544 004e ADF81030 		strh	r3, [sp, #16]	@ movhi
 1545 0052 C36E     		ldr	r3, [r0, #108]
 1546              		.loc 1 398 66 view .LVU443
 1547 0054 0791     		str	r1, [sp, #28]
 396:../Middlewares/stedgeai-lib/Npu/ll_aton/ll_sw_integer.c ****                                   .size = sw_info->is.dim.num_elem,
 1548              		.loc 1 396 21 view .LVU444
 1549 0056 ADF81230 		strh	r3, [sp, #18]	@ movhi
 1550              		.loc 1 398 66 view .LVU445
 1551 005a 06AB     		add	r3, sp, #24
 396:../Middlewares/stedgeai-lib/Npu/ll_aton/ll_sw_integer.c ****                                   .size = sw_info->is.dim.num_elem,
 1552              		.loc 1 396 21 view .LVU446
 1553 005c 0593     		str	r3, [sp, #20]
 399:../Middlewares/stedgeai-lib/Npu/ll_aton/ll_sw_integer.c ****                                       .scale = ((float *)sw_info->is.mem.start_offset),
 400:../Middlewares/stedgeai-lib/Npu/ll_aton/ll_sw_integer.c ****                                       .zeropoint = ((void *)sw_info->izp.mem.start_offset),
 401:../Middlewares/stedgeai-lib/Npu/ll_aton/ll_sw_integer.c ****                                   }}};
 402:../Middlewares/stedgeai-lib/Npu/ll_aton/ll_sw_integer.c **** 
 403:../Middlewares/stedgeai-lib/Npu/ll_aton/ll_sw_integer.c ****   offset_format =
 1554              		.loc 1 403 3 is_stmt 1 view .LVU447
 1555              		.loc 1 403 17 is_stmt 0 view .LVU448
 1556 005e 90F8DC30 		ldrb	r3, [r0, #220]	@ zero_extendqisi2
 404:../Middlewares/stedgeai-lib/Npu/ll_aton/ll_sw_integer.c ****       sw_info->os.format.is_signed ? (AI_BUFFER_META_FLAG_ZEROPOINT_S8) : (AI_BUFFER_META_FLAG_ZERO
 405:../Middlewares/stedgeai-lib/Npu/ll_aton/ll_sw_integer.c ****   scale_format = AI_BUFFER_META_FLAG_SCALE_FLOAT;
 406:../Middlewares/stedgeai-lib/Npu/ll_aton/ll_sw_integer.c ****   ai_intq_info_list output_intq = {.flags = (offset_format | scale_format),
 407:../Middlewares/stedgeai-lib/Npu/ll_aton/ll_sw_integer.c ****                                    .size = sw_info->os.dim.num_elem,
ARM GAS  /tmp/ccZCp2co.s 			page 39


 408:../Middlewares/stedgeai-lib/Npu/ll_aton/ll_sw_integer.c ****                                    .info = (const ai_intq_info[1]){{
 409:../Middlewares/stedgeai-lib/Npu/ll_aton/ll_sw_integer.c ****                                        .scale = ((float *)sw_info->os.mem.start_offset),
 410:../Middlewares/stedgeai-lib/Npu/ll_aton/ll_sw_integer.c ****                                        .zeropoint = ((void *)sw_info->ozp.mem.start_offset),
 411:../Middlewares/stedgeai-lib/Npu/ll_aton/ll_sw_integer.c ****                                    }}};
 412:../Middlewares/stedgeai-lib/Npu/ll_aton/ll_sw_integer.c **** 
 413:../Middlewares/stedgeai-lib/Npu/ll_aton/ll_sw_integer.c ****   AI_TENSOR_OBJ_DECLARE(input_output, , 0x0, 4,
 1557              		.loc 1 413 3 view .LVU449
 1558 0062 4FF08274 		mov	r4, #17039360
 403:../Middlewares/stedgeai-lib/Npu/ll_aton/ll_sw_integer.c ****       sw_info->os.format.is_signed ? (AI_BUFFER_META_FLAG_ZEROPOINT_S8) : (AI_BUFFER_META_FLAG_ZERO
 1559              		.loc 1 403 17 discriminator 1 view .LVU450
 1560 0066 002B     		cmp	r3, #0
 1561              	.LVL87:
 403:../Middlewares/stedgeai-lib/Npu/ll_aton/ll_sw_integer.c ****       sw_info->os.format.is_signed ? (AI_BUFFER_META_FLAG_ZEROPOINT_S8) : (AI_BUFFER_META_FLAG_ZERO
 1562              		.loc 1 403 17 discriminator 1 view .LVU451
 1563 0068 0CBF     		ite	eq
 1564 006a 0221     		moveq	r1, #2
 1565 006c 0421     		movne	r1, #4
 1566              	.LVL88:
 405:../Middlewares/stedgeai-lib/Npu/ll_aton/ll_sw_integer.c ****   ai_intq_info_list output_intq = {.flags = (offset_format | scale_format),
 1567              		.loc 1 405 3 is_stmt 1 view .LVU452
 406:../Middlewares/stedgeai-lib/Npu/ll_aton/ll_sw_integer.c ****                                    .size = sw_info->os.dim.num_elem,
 1568              		.loc 1 406 3 view .LVU453
 406:../Middlewares/stedgeai-lib/Npu/ll_aton/ll_sw_integer.c ****                                    .size = sw_info->os.dim.num_elem,
 1569              		.loc 1 406 21 is_stmt 0 view .LVU454
 1570 006e 41F00101 		orr	r1, r1, #1
 1571              	.LVL89:
 406:../Middlewares/stedgeai-lib/Npu/ll_aton/ll_sw_integer.c ****                                    .size = sw_info->os.dim.num_elem,
 1572              		.loc 1 406 21 view .LVU455
 1573 0072 ADF82010 		strh	r1, [sp, #32]	@ movhi
 1574 0076 D0F8C410 		ldr	r1, [r0, #196]
 396:../Middlewares/stedgeai-lib/Npu/ll_aton/ll_sw_integer.c ****                                   .size = sw_info->is.dim.num_elem,
 1575              		.loc 1 396 21 view .LVU456
 1576 007a 04AA     		add	r2, sp, #16
 406:../Middlewares/stedgeai-lib/Npu/ll_aton/ll_sw_integer.c ****                                    .size = sw_info->os.dim.num_elem,
 1577              		.loc 1 406 21 view .LVU457
 1578 007c ADF82210 		strh	r1, [sp, #34]	@ movhi
 408:../Middlewares/stedgeai-lib/Npu/ll_aton/ll_sw_integer.c ****                                        .scale = ((float *)sw_info->os.mem.start_offset),
 1579              		.loc 1 408 67 view .LVU458
 1580 0080 D0F8D810 		ldr	r1, [r0, #216]
 1581              		.loc 1 413 3 view .LVU459
 1582 0084 2692     		str	r2, [sp, #152]
 408:../Middlewares/stedgeai-lib/Npu/ll_aton/ll_sw_integer.c ****                                        .scale = ((float *)sw_info->os.mem.start_offset),
 1583              		.loc 1 408 67 view .LVU460
 1584 0086 0A91     		str	r1, [sp, #40]
 1585 0088 D0F80411 		ldr	r1, [r0, #260]
 1586              		.loc 1 413 3 view .LVU461
 1587 008c 0269     		ldr	r2, [r0, #16]
 408:../Middlewares/stedgeai-lib/Npu/ll_aton/ll_sw_integer.c ****                                        .scale = ((float *)sw_info->os.mem.start_offset),
 1588              		.loc 1 408 67 view .LVU462
 1589 008e 0B91     		str	r1, [sp, #44]
 406:../Middlewares/stedgeai-lib/Npu/ll_aton/ll_sw_integer.c ****                                    .size = sw_info->os.dim.num_elem,
 1590              		.loc 1 406 21 view .LVU463
 1591 0090 0AA9     		add	r1, sp, #40
 1592 0092 0991     		str	r1, [sp, #36]
 1593              		.loc 1 413 3 is_stmt 1 view .LVU464
 1594 0094 40F20141 		movw	r1, #1025
 1595 0098 1692     		str	r2, [sp, #88]
ARM GAS  /tmp/ccZCp2co.s 			page 40


 1596 009a C268     		ldr	r2, [r0, #12]
 1597 009c CDE92741 		strd	r4, r1, [sp, #156]
 1598 00a0 1792     		str	r2, [sp, #92]
 1599 00a2 8268     		ldr	r2, [r0, #8]
 406:../Middlewares/stedgeai-lib/Npu/ll_aton/ll_sw_integer.c ****                                    .size = sw_info->os.dim.num_elem,
 1600              		.loc 1 406 21 is_stmt 0 view .LVU465
 1601 00a4 08AB     		add	r3, sp, #32
 1602              		.loc 1 413 3 view .LVU466
 1603 00a6 1892     		str	r2, [sp, #96]
 1604 00a8 4268     		ldr	r2, [r0, #4]
 1605 00aa 456A     		ldr	r5, [r0, #36]
 1606 00ac 1992     		str	r2, [sp, #100]
 1607 00ae 16AA     		add	r2, sp, #88
 1608 00b0 2992     		str	r2, [sp, #164]
 1609 00b2 40F20242 		movw	r2, #1026
 1610 00b6 1A95     		str	r5, [sp, #104]
 1611 00b8 056A     		ldr	r5, [r0, #32]
 414:../Middlewares/stedgeai-lib/Npu/ll_aton/ll_sw_integer.c ****                         SHAPE_INIT(sw_info->general.input.dim.tensor_h, sw_info->general.input.dim.
 415:../Middlewares/stedgeai-lib/Npu/ll_aton/ll_sw_integer.c ****                                    sw_info->general.input.dim.tensor_c, sw_info->general.input.dim.
 416:../Middlewares/stedgeai-lib/Npu/ll_aton/ll_sw_integer.c ****                         STRIDE_INIT(sw_info->general.input.stride.h, sw_info->general.input.stride.
 417:../Middlewares/stedgeai-lib/Npu/ll_aton/ll_sw_integer.c ****                                     sw_info->general.input.stride.c, sw_info->general.input.stride.
 418:../Middlewares/stedgeai-lib/Npu/ll_aton/ll_sw_integer.c ****                         1, &input_output_array, &input_intq);
 419:../Middlewares/stedgeai-lib/Npu/ll_aton/ll_sw_integer.c **** 
 420:../Middlewares/stedgeai-lib/Npu/ll_aton/ll_sw_integer.c ****   AI_TENSOR_OBJ_DECLARE(requantize_output, , 0x0, 4,
 1612              		.loc 1 420 3 view .LVU467
 1613 00ba CDE92E41 		strd	r4, r1, [sp, #184]
 413:../Middlewares/stedgeai-lib/Npu/ll_aton/ll_sw_integer.c ****                         SHAPE_INIT(sw_info->general.input.dim.tensor_h, sw_info->general.input.dim.
 1614              		.loc 1 413 3 view .LVU468
 1615 00be 1B95     		str	r5, [sp, #108]
 1616 00c0 C569     		ldr	r5, [r0, #28]
 1617 00c2 2A92     		str	r2, [sp, #168]
 1618 00c4 1C95     		str	r5, [sp, #112]
 1619 00c6 8569     		ldr	r5, [r0, #24]
 421:../Middlewares/stedgeai-lib/Npu/ll_aton/ll_sw_integer.c ****                         SHAPE_INIT(sw_info->general.output.dim.tensor_h, sw_info->general.output.di
 422:../Middlewares/stedgeai-lib/Npu/ll_aton/ll_sw_integer.c ****                                    sw_info->general.output.dim.tensor_c, sw_info->general.output.di
 423:../Middlewares/stedgeai-lib/Npu/ll_aton/ll_sw_integer.c ****                         STRIDE_INIT(sw_info->general.output.stride.h, sw_info->general.output.strid
 424:../Middlewares/stedgeai-lib/Npu/ll_aton/ll_sw_integer.c ****                                     sw_info->general.output.stride.c, sw_info->general.output.strid
 425:../Middlewares/stedgeai-lib/Npu/ll_aton/ll_sw_integer.c ****                         1, &requantize_output_array, &output_intq);
 426:../Middlewares/stedgeai-lib/Npu/ll_aton/ll_sw_integer.c ****   // tensor chain initialization
 427:../Middlewares/stedgeai-lib/Npu/ll_aton/ll_sw_integer.c ****   AI_TENSOR_CHAIN_OBJ_DECLARE(requantize_chain, , 4, AI_TENSOR_LIST_OBJ_INIT(AI_FLAG_NONE, 1, TENSO
 1620              		.loc 1 427 3 view .LVU469
 1621 00c8 26A9     		add	r1, sp, #152
 413:../Middlewares/stedgeai-lib/Npu/ll_aton/ll_sw_integer.c ****                         SHAPE_INIT(sw_info->general.input.dim.tensor_h, sw_info->general.input.dim.
 1622              		.loc 1 413 3 view .LVU470
 1623 00ca 1D95     		str	r5, [sp, #116]
 1624 00cc 1AAD     		add	r5, sp, #104
 1625 00ce 2B95     		str	r5, [sp, #172]
 1626 00d0 0EAD     		add	r5, sp, #56
 420:../Middlewares/stedgeai-lib/Npu/ll_aton/ll_sw_integer.c ****                         SHAPE_INIT(sw_info->general.output.dim.tensor_h, sw_info->general.output.di
 1627              		.loc 1 420 3 view .LVU471
 1628 00d2 CDE92C53 		strd	r5, r3, [sp, #176]
 1629 00d6 C36B     		ldr	r3, [r0, #60]
 1630 00d8 1E93     		str	r3, [sp, #120]
 1631 00da 836B     		ldr	r3, [r0, #56]
 1632 00dc 1F93     		str	r3, [sp, #124]
 1633 00de 436B     		ldr	r3, [r0, #52]
 1634 00e0 2093     		str	r3, [sp, #128]
ARM GAS  /tmp/ccZCp2co.s 			page 41


 1635 00e2 036B     		ldr	r3, [r0, #48]
 1636 00e4 2193     		str	r3, [sp, #132]
 1637 00e6 1EAB     		add	r3, sp, #120
 1638 00e8 CDE93032 		strd	r3, r2, [sp, #192]
 1639 00ec 036D     		ldr	r3, [r0, #80]
 1640              		.loc 1 427 3 view .LVU472
 1641 00ee 2DAA     		add	r2, sp, #180
 420:../Middlewares/stedgeai-lib/Npu/ll_aton/ll_sw_integer.c ****                         SHAPE_INIT(sw_info->general.output.dim.tensor_h, sw_info->general.output.di
 1642              		.loc 1 420 3 view .LVU473
 1643 00f0 2293     		str	r3, [sp, #136]
 1644 00f2 C36C     		ldr	r3, [r0, #76]
 1645 00f4 2393     		str	r3, [sp, #140]
 1646 00f6 836C     		ldr	r3, [r0, #72]
 1647 00f8 2493     		str	r3, [sp, #144]
 1648 00fa 436C     		ldr	r3, [r0, #68]
 1649              		.loc 1 427 3 view .LVU474
 1650 00fc 0091     		str	r1, [sp]
 420:../Middlewares/stedgeai-lib/Npu/ll_aton/ll_sw_integer.c ****                         SHAPE_INIT(sw_info->general.output.dim.tensor_h, sw_info->general.output.di
 1651              		.loc 1 420 3 view .LVU475
 1652 00fe 2593     		str	r3, [sp, #148]
 1653 0100 22AB     		add	r3, sp, #136
 1654 0102 3293     		str	r3, [sp, #200]
 1655 0104 12AB     		add	r3, sp, #72
 1656              	.LVL90:
 420:../Middlewares/stedgeai-lib/Npu/ll_aton/ll_sw_integer.c ****                         SHAPE_INIT(sw_info->general.output.dim.tensor_h, sw_info->general.output.di
 1657              		.loc 1 420 3 view .LVU476
 1658 0106 3393     		str	r3, [sp, #204]
 425:../Middlewares/stedgeai-lib/Npu/ll_aton/ll_sw_integer.c ****   // tensor chain initialization
 1659              		.loc 1 425 67 is_stmt 1 view .LVU477
 1660              		.loc 1 427 3 view .LVU478
 1661 0108 0423     		movs	r3, #4
 1662              	.LVL91:
 1663              		.loc 1 427 3 is_stmt 0 view .LVU479
 1664 010a 0021     		movs	r1, #0
 1665 010c 0C93     		str	r3, [sp, #48]
 1666 010e 0123     		movs	r3, #1
 1667 0110 CDE93E13 		strd	r1, r3, [sp, #248]
 1668 0114 3C93     		str	r3, [sp, #240]
 1669 0116 01AB     		add	r3, sp, #4
 1670 0118 CDE94031 		strd	r3, r1, [sp, #256]
 1671 011c 02AB     		add	r3, sp, #8
 1672 011e CDE94331 		strd	r3, r1, [sp, #268]
 1673 0122 03AB     		add	r3, sp, #12
 1674 0124 CDE94631 		strd	r3, r1, [sp, #280]
 1675 0128 3CAB     		add	r3, sp, #240
 1676 012a 0D93     		str	r3, [sp, #52]
 428:../Middlewares/stedgeai-lib/Npu/ll_aton/ll_sw_integer.c ****                               AI_TENSOR_LIST_OBJ_INIT(AI_FLAG_NONE, 1, TENSORS(&requantize_output))
 429:../Middlewares/stedgeai-lib/Npu/ll_aton/ll_sw_integer.c ****                               AI_TENSOR_LIST_OBJ_EMPTY, AI_TENSOR_LIST_OBJ_EMPTY)
 430:../Middlewares/stedgeai-lib/Npu/ll_aton/ll_sw_integer.c **** 
 431:../Middlewares/stedgeai-lib/Npu/ll_aton/ll_sw_integer.c ****   // layer initialization
 432:../Middlewares/stedgeai-lib/Npu/ll_aton/ll_sw_integer.c ****   AI_LAYER_OBJ_DECLARE(requantize_layer, 1, NL_TYPE, 0x0, NULL, nl, node_convert_integer /*_fixed*/
 1677              		.loc 1 432 3 is_stmt 1 view .LVU480
 1678 012c 0D4B     		ldr	r3, .L60+4
 427:../Middlewares/stedgeai-lib/Npu/ll_aton/ll_sw_integer.c ****                               AI_TENSOR_LIST_OBJ_INIT(AI_FLAG_NONE, 1, TENSORS(&requantize_output))
 1679              		.loc 1 427 3 is_stmt 0 view .LVU481
 1680 012e 0192     		str	r2, [sp, #4]
 1681              		.loc 1 432 3 view .LVU482
ARM GAS  /tmp/ccZCp2co.s 			page 42


 1682 0130 35A8     		add	r0, sp, #212
 1683              	.LVL92:
 1684              		.loc 1 432 3 view .LVU483
 1685 0132 1C22     		movs	r2, #28
 427:../Middlewares/stedgeai-lib/Npu/ll_aton/ll_sw_integer.c ****                               AI_TENSOR_LIST_OBJ_INIT(AI_FLAG_NONE, 1, TENSORS(&requantize_output))
 1686              		.loc 1 427 3 view .LVU484
 1687 0134 4291     		str	r1, [sp, #264]
 1688 0136 0291     		str	r1, [sp, #8]
 1689 0138 4591     		str	r1, [sp, #276]
 1690 013a 0391     		str	r1, [sp, #12]
 1691              		.loc 1 432 3 view .LVU485
 1692 013c 3493     		str	r3, [sp, #208]
 427:../Middlewares/stedgeai-lib/Npu/ll_aton/ll_sw_integer.c ****                               AI_TENSOR_LIST_OBJ_INIT(AI_FLAG_NONE, 1, TENSORS(&requantize_output))
 1693              		.loc 1 427 3 view .LVU486
 1694 013e CDF8F4D0 		str	sp, [sp, #244]
 1695              		.loc 1 432 3 view .LVU487
 1696 0142 FFF7FEFF 		bl	memset
 1697              	.LVL93:
 1698              		.loc 1 432 3 view .LVU488
 1699 0146 084B     		ldr	r3, .L60+8
 433:../Middlewares/stedgeai-lib/Npu/ll_aton/ll_sw_integer.c ****                        NULL, NULL, )
 434:../Middlewares/stedgeai-lib/Npu/ll_aton/ll_sw_integer.c ****   requantize_layer.forward(AI_LAYER_OBJ(&requantize_layer));
 1700              		.loc 1 434 3 view .LVU489
 1701 0148 34A8     		add	r0, sp, #208
 432:../Middlewares/stedgeai-lib/Npu/ll_aton/ll_sw_integer.c ****                        NULL, NULL, )
 1702              		.loc 1 432 3 view .LVU490
 1703 014a 3993     		str	r3, [sp, #228]
 1704 014c 0CAB     		add	r3, sp, #48
 1705 014e 3A93     		str	r3, [sp, #232]
 1706              		.loc 1 434 3 is_stmt 1 view .LVU491
 1707 0150 FFF7FEFF 		bl	node_convert_integer
 1708              	.LVL94:
 435:../Middlewares/stedgeai-lib/Npu/ll_aton/ll_sw_integer.c **** }
 1709              		.loc 1 435 1 is_stmt 0 view .LVU492
 1710 0154 49B0     		add	sp, sp, #292
 1711              		.cfi_remember_state
 1712              		.cfi_def_cfa_offset 12
 1713              		@ sp needed
 1714 0156 30BD     		pop	{r4, r5, pc}
 1715              	.LVL95:
 1716              	.L56:
 1717              		.cfi_restore_state
 384:../Middlewares/stedgeai-lib/Npu/ll_aton/ll_sw_integer.c ****   AI_ARRAY_OBJ_DECLARE(input_output_array, format, sw_info->general.input.mem.start_offset,
 1718              		.loc 1 384 60 discriminator 2 view .LVU493
 1719 0158 044B     		ldr	r3, .L60+12
 1720 015a 59E7     		b	.L52
 1721              	.LVL96:
 1722              	.L57:
 389:../Middlewares/stedgeai-lib/Npu/ll_aton/ll_sw_integer.c ****   AI_ARRAY_OBJ_DECLARE(requantize_output_array, format, sw_info->general.output.mem.start_offset,
 1723              		.loc 1 389 53 discriminator 2 view .LVU494
 1724 015c 034B     		ldr	r3, .L60+12
 1725 015e 63E7     		b	.L53
 1726              	.L61:
 1727              		.align	2
 1728              	.L60:
 1729 0160 40048408 		.word	142869568
 1730 0164 07010100 		.word	65799
ARM GAS  /tmp/ccZCp2co.s 			page 43


 1731 0168 00000000 		.word	node_convert_integer
 1732 016c 40040408 		.word	134480960
 1733              		.cfi_endproc
 1734              	.LFE19:
 1736              		.section	.text.ll_sw_forward_conv_integer,"ax",%progbits
 1737              		.align	1
 1738              		.global	ll_sw_forward_conv_integer
 1739              		.syntax unified
 1740              		.thumb
 1741              		.thumb_func
 1743              	ll_sw_forward_conv_integer:
 1744              	.LVL97:
 1745              	.LFB20:
 436:../Middlewares/stedgeai-lib/Npu/ll_aton/ll_sw_integer.c **** 
 437:../Middlewares/stedgeai-lib/Npu/ll_aton/ll_sw_integer.c **** //##########################################################################################
 438:../Middlewares/stedgeai-lib/Npu/ll_aton/ll_sw_integer.c **** /** Conv integer forward function */
 439:../Middlewares/stedgeai-lib/Npu/ll_aton/ll_sw_integer.c **** void ll_sw_forward_conv_integer(Conv_integer_sw_info *sw_info)
 440:../Middlewares/stedgeai-lib/Npu/ll_aton/ll_sw_integer.c **** {
 1746              		.loc 1 440 1 is_stmt 1 view -0
 1747              		.cfi_startproc
 1748              		@ args = 0, pretend = 0, frame = 592
 1749              		@ frame_needed = 0, uses_anonymous_args = 0
 441:../Middlewares/stedgeai-lib/Npu/ll_aton/ll_sw_integer.c ****   int32_t format;
 1750              		.loc 1 441 3 view .LVU496
 442:../Middlewares/stedgeai-lib/Npu/ll_aton/ll_sw_integer.c ****   // array init
 443:../Middlewares/stedgeai-lib/Npu/ll_aton/ll_sw_integer.c ****   format = sw_info->general.input.format.is_signed ? (AI_ARRAY_FORMAT_S8 | AI_FMT_FLAG_IS_IO)
 1751              		.loc 1 443 3 view .LVU497
 440:../Middlewares/stedgeai-lib/Npu/ll_aton/ll_sw_integer.c ****   int32_t format;
 1752              		.loc 1 440 1 is_stmt 0 view .LVU498
 1753 0000 2DE9F04F 		push	{r4, r5, r6, r7, r8, r9, r10, fp, lr}
 1754              		.cfi_def_cfa_offset 36
 1755              		.cfi_offset 4, -36
 1756              		.cfi_offset 5, -32
 1757              		.cfi_offset 6, -28
 1758              		.cfi_offset 7, -24
 1759              		.cfi_offset 8, -20
 1760              		.cfi_offset 9, -16
 1761              		.cfi_offset 10, -12
 1762              		.cfi_offset 11, -8
 1763              		.cfi_offset 14, -4
 444:../Middlewares/stedgeai-lib/Npu/ll_aton/ll_sw_integer.c ****                                                    : (AI_ARRAY_FORMAT_U8 | AI_FMT_FLAG_IS_IO);
 1764              		.loc 1 444 52 view .LVU499
 1765 0004 90F82C30 		ldrb	r3, [r0, #44]	@ zero_extendqisi2
 440:../Middlewares/stedgeai-lib/Npu/ll_aton/ll_sw_integer.c ****   int32_t format;
 1766              		.loc 1 440 1 view .LVU500
 1767 0008 0446     		mov	r4, r0
 1768 000a ADF5157D 		sub	sp, sp, #596
 1769              		.cfi_def_cfa_offset 632
 1770              		.loc 1 444 52 view .LVU501
 1771 000e 002B     		cmp	r3, #0
 1772 0010 00F04D81 		beq	.L78
 1773              		.loc 1 444 52 discriminator 1 view .LVU502
 1774 0014 AA4B     		ldr	r3, .L86
 1775              	.L63:
 1776              	.LVL98:
 445:../Middlewares/stedgeai-lib/Npu/ll_aton/ll_sw_integer.c ****   AI_ARRAY_OBJ_DECLARE(input_output_array, format, sw_info->general.input.mem.start_offset,
 1777              		.loc 1 445 3 is_stmt 1 view .LVU503
ARM GAS  /tmp/ccZCp2co.s 			page 44


 1778 0016 1493     		str	r3, [sp, #80]
 1779 0018 6369     		ldr	r3, [r4, #20]
 1780              	.LVL99:
 1781              		.loc 1 445 3 is_stmt 0 view .LVU504
 1782 001a 14A9     		add	r1, sp, #80
 1783              	.LVL100:
 1784              		.loc 1 445 3 view .LVU505
 1785 001c 4B60     		str	r3, [r1, #4]
 1786 001e A36A     		ldr	r3, [r4, #40]
 1787 0020 C1E90233 		strd	r3, r3, [r1, #8]
 446:../Middlewares/stedgeai-lib/Npu/ll_aton/ll_sw_integer.c ****                        sw_info->general.input.mem.start_offset, sw_info->general.input.dim.num_elem
 447:../Middlewares/stedgeai-lib/Npu/ll_aton/ll_sw_integer.c ****   format = sw_info->weights.format.is_signed ? (AI_ARRAY_FORMAT_S8) : (AI_ARRAY_FORMAT_U8);
 1788              		.loc 1 447 3 is_stmt 1 view .LVU506
 1789              		.loc 1 447 69 is_stmt 0 view .LVU507
 1790 0024 94F88430 		ldrb	r3, [r4, #132]	@ zero_extendqisi2
 1791 0028 002B     		cmp	r3, #0
 1792 002a 00F04281 		beq	.L79
 1793              		.loc 1 447 69 discriminator 1 view .LVU508
 1794 002e A54B     		ldr	r3, .L86+4
 1795              	.L64:
 1796              	.LVL101:
 448:../Middlewares/stedgeai-lib/Npu/ll_aton/ll_sw_integer.c ****   AI_ARRAY_OBJ_DECLARE(conv_weights_array, format, sw_info->weights.mem.start_offset, sw_info->weig
 1797              		.loc 1 448 3 is_stmt 1 view .LVU509
 1798 0030 1893     		str	r3, [sp, #96]
 1799 0032 E36E     		ldr	r3, [r4, #108]
 1800              	.LVL102:
 1801              		.loc 1 448 3 is_stmt 0 view .LVU510
 1802 0034 18AD     		add	r5, sp, #96
 1803              	.LVL103:
 1804              		.loc 1 448 3 view .LVU511
 1805 0036 6B60     		str	r3, [r5, #4]
 1806 0038 D4F88030 		ldr	r3, [r4, #128]
 1807 003c C5E90233 		strd	r3, r3, [r5, #8]
 449:../Middlewares/stedgeai-lib/Npu/ll_aton/ll_sw_integer.c ****                        sw_info->weights.dim.num_elem, )
 450:../Middlewares/stedgeai-lib/Npu/ll_aton/ll_sw_integer.c ****   format = sw_info->scratch.format.is_signed ? (AI_ARRAY_FORMAT_S8) : (AI_ARRAY_FORMAT_U8);
 1808              		.loc 1 450 3 is_stmt 1 view .LVU512
 1809              		.loc 1 450 69 is_stmt 0 view .LVU513
 1810 0040 94F8B030 		ldrb	r3, [r4, #176]	@ zero_extendqisi2
 1811 0044 002B     		cmp	r3, #0
 1812 0046 00F03681 		beq	.L80
 1813              		.loc 1 450 69 discriminator 1 view .LVU514
 1814 004a 9E4B     		ldr	r3, .L86+4
 1815              	.L65:
 1816              	.LVL104:
 451:../Middlewares/stedgeai-lib/Npu/ll_aton/ll_sw_integer.c ****   AI_ARRAY_OBJ_DECLARE(conv_scratch0_array, format, sw_info->scratch.mem.start_offset,
 1817              		.loc 1 451 3 is_stmt 1 view .LVU515
 1818 004c 1C93     		str	r3, [sp, #112]
 1819 004e D4F89830 		ldr	r3, [r4, #152]
 1820              	.LVL105:
 1821              		.loc 1 451 3 is_stmt 0 view .LVU516
 1822 0052 1CA8     		add	r0, sp, #112
 1823              	.LVL106:
 1824              		.loc 1 451 3 view .LVU517
 1825 0054 4360     		str	r3, [r0, #4]
 1826 0056 D4F8AC30 		ldr	r3, [r4, #172]
 452:../Middlewares/stedgeai-lib/Npu/ll_aton/ll_sw_integer.c ****                        sw_info->scratch.mem.start_offset, sw_info->scratch.dim.num_elem, )
 453:../Middlewares/stedgeai-lib/Npu/ll_aton/ll_sw_integer.c ****   AI_ARRAY_OBJ_DECLARE(conv_bias_array, AI_ARRAY_FORMAT_S32, sw_info->bias.mem.start_offset,
ARM GAS  /tmp/ccZCp2co.s 			page 45


 1827              		.loc 1 453 3 view .LVU518
 1828 005a 20AA     		add	r2, sp, #128
 451:../Middlewares/stedgeai-lib/Npu/ll_aton/ll_sw_integer.c ****   AI_ARRAY_OBJ_DECLARE(conv_scratch0_array, format, sw_info->scratch.mem.start_offset,
 1829              		.loc 1 451 3 view .LVU519
 1830 005c C0E90233 		strd	r3, r3, [r0, #8]
 1831              		.loc 1 453 3 is_stmt 1 view .LVU520
 1832 0060 994B     		ldr	r3, .L86+8
 1833 0062 1360     		str	r3, [r2]
 1834 0064 D4F8C430 		ldr	r3, [r4, #196]
 1835 0068 5360     		str	r3, [r2, #4]
 1836 006a D4F8D830 		ldr	r3, [r4, #216]
 1837 006e C2E90233 		strd	r3, r3, [r2, #8]
 454:../Middlewares/stedgeai-lib/Npu/ll_aton/ll_sw_integer.c ****                        sw_info->bias.mem.start_offset, sw_info->bias.dim.num_elem, )
 455:../Middlewares/stedgeai-lib/Npu/ll_aton/ll_sw_integer.c ****   format = sw_info->general.output.format.is_signed ? (AI_ARRAY_FORMAT_S8 | AI_FMT_FLAG_IS_IO)
 1838              		.loc 1 455 3 view .LVU521
 456:../Middlewares/stedgeai-lib/Npu/ll_aton/ll_sw_integer.c ****                                                     : (AI_ARRAY_FORMAT_U8 | AI_FMT_FLAG_IS_IO);
 1839              		.loc 1 456 53 is_stmt 0 view .LVU522
 1840 0072 94F85830 		ldrb	r3, [r4, #88]	@ zero_extendqisi2
 1841 0076 002B     		cmp	r3, #0
 1842 0078 00F01F81 		beq	.L81
 1843              		.loc 1 456 53 discriminator 1 view .LVU523
 1844 007c 904E     		ldr	r6, .L86
 1845              	.L66:
 1846              	.LVL107:
 457:../Middlewares/stedgeai-lib/Npu/ll_aton/ll_sw_integer.c ****   AI_ARRAY_OBJ_DECLARE(conv_output_array, format, sw_info->general.output.mem.start_offset,
 1847              		.loc 1 457 3 is_stmt 1 view .LVU524
 1848 007e 2496     		str	r6, [sp, #144]
 1849 0080 266C     		ldr	r6, [r4, #64]
 1850              	.LVL108:
 458:../Middlewares/stedgeai-lib/Npu/ll_aton/ll_sw_integer.c ****                        sw_info->general.output.mem.start_offset, sw_info->general.output.dim.num_el
 459:../Middlewares/stedgeai-lib/Npu/ll_aton/ll_sw_integer.c **** 
 460:../Middlewares/stedgeai-lib/Npu/ll_aton/ll_sw_integer.c ****   uint16_t offset_format;
 461:../Middlewares/stedgeai-lib/Npu/ll_aton/ll_sw_integer.c ****   uint16_t scale_format;
 462:../Middlewares/stedgeai-lib/Npu/ll_aton/ll_sw_integer.c **** 
 463:../Middlewares/stedgeai-lib/Npu/ll_aton/ll_sw_integer.c ****   scale_format = AI_BUFFER_META_FLAG_SCALE_FLOAT;
 464:../Middlewares/stedgeai-lib/Npu/ll_aton/ll_sw_integer.c ****   offset_format =
 465:../Middlewares/stedgeai-lib/Npu/ll_aton/ll_sw_integer.c ****       sw_info->izp.format.is_signed ? (AI_BUFFER_META_FLAG_ZEROPOINT_S8) : (AI_BUFFER_META_FLAG_ZER
 466:../Middlewares/stedgeai-lib/Npu/ll_aton/ll_sw_integer.c ****   ai_intq_info_list input_intq = {.flags = (scale_format | offset_format),
 467:../Middlewares/stedgeai-lib/Npu/ll_aton/ll_sw_integer.c ****                                   .size = sw_info->is.dim.num_elem,
 468:../Middlewares/stedgeai-lib/Npu/ll_aton/ll_sw_integer.c ****                                   .info = (const ai_intq_info[1]){{
 469:../Middlewares/stedgeai-lib/Npu/ll_aton/ll_sw_integer.c ****                                       .scale = ((float *)sw_info->is.mem.start_offset),
 470:../Middlewares/stedgeai-lib/Npu/ll_aton/ll_sw_integer.c ****                                       .zeropoint = ((void *)sw_info->izp.mem.start_offset),
 471:../Middlewares/stedgeai-lib/Npu/ll_aton/ll_sw_integer.c ****                                   }}};
 472:../Middlewares/stedgeai-lib/Npu/ll_aton/ll_sw_integer.c ****   scale_format = AI_BUFFER_META_FLAG_SCALE_FLOAT;
 473:../Middlewares/stedgeai-lib/Npu/ll_aton/ll_sw_integer.c ****   offset_format =
 474:../Middlewares/stedgeai-lib/Npu/ll_aton/ll_sw_integer.c ****       sw_info->wzp.format.is_signed ? (AI_BUFFER_META_FLAG_ZEROPOINT_S8) : (AI_BUFFER_META_FLAG_ZER
 475:../Middlewares/stedgeai-lib/Npu/ll_aton/ll_sw_integer.c ****   ai_intq_info_list weights_intq = {.flags = (scale_format | offset_format),
 1851              		.loc 1 475 21 is_stmt 0 view .LVU525
 1852 0082 0DF11C0C 		add	ip, sp, #28
 457:../Middlewares/stedgeai-lib/Npu/ll_aton/ll_sw_integer.c ****   AI_ARRAY_OBJ_DECLARE(conv_output_array, format, sw_info->general.output.mem.start_offset,
 1853              		.loc 1 457 3 view .LVU526
 1854 0086 2596     		str	r6, [sp, #148]
 1855 0088 666D     		ldr	r6, [r4, #84]
 476:../Middlewares/stedgeai-lib/Npu/ll_aton/ll_sw_integer.c ****                                     .size = sw_info->ws.dim.num_elem,
 477:../Middlewares/stedgeai-lib/Npu/ll_aton/ll_sw_integer.c ****                                     .info = (const ai_intq_info[1]){{
 478:../Middlewares/stedgeai-lib/Npu/ll_aton/ll_sw_integer.c ****                                         .scale = ((float *)sw_info->ws.mem.start_offset),
 479:../Middlewares/stedgeai-lib/Npu/ll_aton/ll_sw_integer.c ****                                         .zeropoint = ((void *)sw_info->wzp.mem.start_offset),
ARM GAS  /tmp/ccZCp2co.s 			page 46


 480:../Middlewares/stedgeai-lib/Npu/ll_aton/ll_sw_integer.c ****                                     }}};
 481:../Middlewares/stedgeai-lib/Npu/ll_aton/ll_sw_integer.c ****   scale_format = AI_BUFFER_META_FLAG_SCALE_FLOAT;
 482:../Middlewares/stedgeai-lib/Npu/ll_aton/ll_sw_integer.c ****   offset_format =
 483:../Middlewares/stedgeai-lib/Npu/ll_aton/ll_sw_integer.c ****       sw_info->ozp.format.is_signed ? (AI_BUFFER_META_FLAG_ZEROPOINT_S8) : (AI_BUFFER_META_FLAG_ZER
 484:../Middlewares/stedgeai-lib/Npu/ll_aton/ll_sw_integer.c ****   ai_intq_info_list output_intq = {.flags = (scale_format | offset_format),
 485:../Middlewares/stedgeai-lib/Npu/ll_aton/ll_sw_integer.c ****                                    .size = sw_info->os.dim.num_elem,
 486:../Middlewares/stedgeai-lib/Npu/ll_aton/ll_sw_integer.c ****                                    .info = (const ai_intq_info[1]){{
 487:../Middlewares/stedgeai-lib/Npu/ll_aton/ll_sw_integer.c ****                                        .scale = ((float *)sw_info->os.mem.start_offset),
 488:../Middlewares/stedgeai-lib/Npu/ll_aton/ll_sw_integer.c ****                                        .zeropoint = ((void *)sw_info->ozp.mem.start_offset),
 489:../Middlewares/stedgeai-lib/Npu/ll_aton/ll_sw_integer.c ****                                    }}};
 490:../Middlewares/stedgeai-lib/Npu/ll_aton/ll_sw_integer.c **** 
 491:../Middlewares/stedgeai-lib/Npu/ll_aton/ll_sw_integer.c ****   AI_TENSOR_OBJ_DECLARE(conv_weights, , 0x0, 4,
 1856              		.loc 1 491 3 view .LVU527
 1857 008a 4FF08279 		mov	r9, #17039360
 457:../Middlewares/stedgeai-lib/Npu/ll_aton/ll_sw_integer.c ****                        sw_info->general.output.mem.start_offset, sw_info->general.output.dim.num_el
 1858              		.loc 1 457 3 view .LVU528
 1859 008e CDE92666 		strd	r6, r6, [sp, #152]
 460:../Middlewares/stedgeai-lib/Npu/ll_aton/ll_sw_integer.c ****   uint16_t scale_format;
 1860              		.loc 1 460 3 is_stmt 1 view .LVU529
 461:../Middlewares/stedgeai-lib/Npu/ll_aton/ll_sw_integer.c **** 
 1861              		.loc 1 461 3 view .LVU530
 463:../Middlewares/stedgeai-lib/Npu/ll_aton/ll_sw_integer.c ****   offset_format =
 1862              		.loc 1 463 3 view .LVU531
 1863              	.LVL109:
 464:../Middlewares/stedgeai-lib/Npu/ll_aton/ll_sw_integer.c ****       sw_info->izp.format.is_signed ? (AI_BUFFER_META_FLAG_ZEROPOINT_S8) : (AI_BUFFER_META_FLAG_ZER
 1864              		.loc 1 464 3 view .LVU532
 464:../Middlewares/stedgeai-lib/Npu/ll_aton/ll_sw_integer.c ****       sw_info->izp.format.is_signed ? (AI_BUFFER_META_FLAG_ZEROPOINT_S8) : (AI_BUFFER_META_FLAG_ZER
 1865              		.loc 1 464 17 is_stmt 0 view .LVU533
 1866 0092 94F88C61 		ldrb	r6, [r4, #396]	@ zero_extendqisi2
 1867              		.loc 1 491 3 view .LVU534
 1868 0096 40F2024A 		movw	r10, #1026
 464:../Middlewares/stedgeai-lib/Npu/ll_aton/ll_sw_integer.c ****       sw_info->izp.format.is_signed ? (AI_BUFFER_META_FLAG_ZEROPOINT_S8) : (AI_BUFFER_META_FLAG_ZER
 1869              		.loc 1 464 17 discriminator 1 view .LVU535
 1870 009a 002E     		cmp	r6, #0
 1871 009c 0CBF     		ite	eq
 1872 009e 0227     		moveq	r7, #2
 1873 00a0 0427     		movne	r7, #4
 1874              	.LVL110:
 466:../Middlewares/stedgeai-lib/Npu/ll_aton/ll_sw_integer.c ****                                   .size = sw_info->is.dim.num_elem,
 1875              		.loc 1 466 3 is_stmt 1 view .LVU536
 466:../Middlewares/stedgeai-lib/Npu/ll_aton/ll_sw_integer.c ****                                   .size = sw_info->is.dim.num_elem,
 1876              		.loc 1 466 21 is_stmt 0 view .LVU537
 1877 00a2 47F00107 		orr	r7, r7, #1
 1878              	.LVL111:
 466:../Middlewares/stedgeai-lib/Npu/ll_aton/ll_sw_integer.c ****                                   .size = sw_info->is.dim.num_elem,
 1879              		.loc 1 466 21 view .LVU538
 1880 00a6 ADF80C70 		strh	r7, [sp, #12]	@ movhi
 1881 00aa D4F84871 		ldr	r7, [r4, #328]
 468:../Middlewares/stedgeai-lib/Npu/ll_aton/ll_sw_integer.c ****                                       .scale = ((float *)sw_info->is.mem.start_offset),
 1882              		.loc 1 468 66 view .LVU539
 1883 00ae D4F85C61 		ldr	r6, [r4, #348]
 466:../Middlewares/stedgeai-lib/Npu/ll_aton/ll_sw_integer.c ****                                   .size = sw_info->is.dim.num_elem,
 1884              		.loc 1 466 21 view .LVU540
 1885 00b2 ADF80E70 		strh	r7, [sp, #14]	@ movhi
 468:../Middlewares/stedgeai-lib/Npu/ll_aton/ll_sw_integer.c ****                                       .scale = ((float *)sw_info->is.mem.start_offset),
 1886              		.loc 1 468 66 view .LVU541
 1887 00b6 05AF     		add	r7, sp, #20
ARM GAS  /tmp/ccZCp2co.s 			page 47


 466:../Middlewares/stedgeai-lib/Npu/ll_aton/ll_sw_integer.c ****                                   .size = sw_info->is.dim.num_elem,
 1888              		.loc 1 466 21 view .LVU542
 1889 00b8 0497     		str	r7, [sp, #16]
 472:../Middlewares/stedgeai-lib/Npu/ll_aton/ll_sw_integer.c ****   offset_format =
 1890              		.loc 1 472 3 is_stmt 1 view .LVU543
 473:../Middlewares/stedgeai-lib/Npu/ll_aton/ll_sw_integer.c ****       sw_info->wzp.format.is_signed ? (AI_BUFFER_META_FLAG_ZEROPOINT_S8) : (AI_BUFFER_META_FLAG_ZER
 1891              		.loc 1 473 3 view .LVU544
 473:../Middlewares/stedgeai-lib/Npu/ll_aton/ll_sw_integer.c ****       sw_info->wzp.format.is_signed ? (AI_BUFFER_META_FLAG_ZEROPOINT_S8) : (AI_BUFFER_META_FLAG_ZER
 1892              		.loc 1 473 17 is_stmt 0 view .LVU545
 1893 00ba 94F83471 		ldrb	r7, [r4, #308]	@ zero_extendqisi2
 468:../Middlewares/stedgeai-lib/Npu/ll_aton/ll_sw_integer.c ****                                       .scale = ((float *)sw_info->is.mem.start_offset),
 1894              		.loc 1 468 66 view .LVU546
 1895 00be 0596     		str	r6, [sp, #20]
 473:../Middlewares/stedgeai-lib/Npu/ll_aton/ll_sw_integer.c ****       sw_info->wzp.format.is_signed ? (AI_BUFFER_META_FLAG_ZEROPOINT_S8) : (AI_BUFFER_META_FLAG_ZER
 1896              		.loc 1 473 17 discriminator 1 view .LVU547
 1897 00c0 002F     		cmp	r7, #0
 473:../Middlewares/stedgeai-lib/Npu/ll_aton/ll_sw_integer.c ****       sw_info->wzp.format.is_signed ? (AI_BUFFER_META_FLAG_ZEROPOINT_S8) : (AI_BUFFER_META_FLAG_ZER
 1898              		.loc 1 473 17 discriminator 1 view .LVU548
 1899 00c2 0CBF     		ite	eq
 1900 00c4 0227     		moveq	r7, #2
 1901 00c6 0427     		movne	r7, #4
 1902              	.LVL112:
 475:../Middlewares/stedgeai-lib/Npu/ll_aton/ll_sw_integer.c ****                                     .size = sw_info->ws.dim.num_elem,
 1903              		.loc 1 475 3 is_stmt 1 view .LVU549
 475:../Middlewares/stedgeai-lib/Npu/ll_aton/ll_sw_integer.c ****                                     .size = sw_info->ws.dim.num_elem,
 1904              		.loc 1 475 21 is_stmt 0 view .LVU550
 1905 00c8 47F00107 		orr	r7, r7, #1
 1906              	.LVL113:
 475:../Middlewares/stedgeai-lib/Npu/ll_aton/ll_sw_integer.c ****                                     .size = sw_info->ws.dim.num_elem,
 1907              		.loc 1 475 21 view .LVU551
 1908 00cc ADF81C70 		strh	r7, [sp, #28]	@ movhi
 1909 00d0 D4F8F070 		ldr	r7, [r4, #240]
 468:../Middlewares/stedgeai-lib/Npu/ll_aton/ll_sw_integer.c ****                                       .scale = ((float *)sw_info->is.mem.start_offset),
 1910              		.loc 1 468 66 view .LVU552
 1911 00d4 D4F88861 		ldr	r6, [r4, #392]
 475:../Middlewares/stedgeai-lib/Npu/ll_aton/ll_sw_integer.c ****                                     .size = sw_info->ws.dim.num_elem,
 1912              		.loc 1 475 21 view .LVU553
 1913 00d8 ADF81E70 		strh	r7, [sp, #30]	@ movhi
 477:../Middlewares/stedgeai-lib/Npu/ll_aton/ll_sw_integer.c ****                                         .scale = ((float *)sw_info->ws.mem.start_offset),
 1914              		.loc 1 477 68 view .LVU554
 1915 00dc 09AF     		add	r7, sp, #36
 475:../Middlewares/stedgeai-lib/Npu/ll_aton/ll_sw_integer.c ****                                     .size = sw_info->ws.dim.num_elem,
 1916              		.loc 1 475 21 view .LVU555
 1917 00de 0897     		str	r7, [sp, #32]
 481:../Middlewares/stedgeai-lib/Npu/ll_aton/ll_sw_integer.c ****   offset_format =
 1918              		.loc 1 481 3 is_stmt 1 view .LVU556
 482:../Middlewares/stedgeai-lib/Npu/ll_aton/ll_sw_integer.c ****       sw_info->ozp.format.is_signed ? (AI_BUFFER_META_FLAG_ZEROPOINT_S8) : (AI_BUFFER_META_FLAG_ZER
 1919              		.loc 1 482 3 view .LVU557
 482:../Middlewares/stedgeai-lib/Npu/ll_aton/ll_sw_integer.c ****       sw_info->ozp.format.is_signed ? (AI_BUFFER_META_FLAG_ZEROPOINT_S8) : (AI_BUFFER_META_FLAG_ZER
 1920              		.loc 1 482 17 is_stmt 0 view .LVU558
 1921 00e0 94F8E471 		ldrb	r7, [r4, #484]	@ zero_extendqisi2
 468:../Middlewares/stedgeai-lib/Npu/ll_aton/ll_sw_integer.c ****                                       .scale = ((float *)sw_info->is.mem.start_offset),
 1922              		.loc 1 468 66 view .LVU559
 1923 00e4 0696     		str	r6, [sp, #24]
 482:../Middlewares/stedgeai-lib/Npu/ll_aton/ll_sw_integer.c ****       sw_info->ozp.format.is_signed ? (AI_BUFFER_META_FLAG_ZEROPOINT_S8) : (AI_BUFFER_META_FLAG_ZER
 1924              		.loc 1 482 17 discriminator 1 view .LVU560
 1925 00e6 002F     		cmp	r7, #0
ARM GAS  /tmp/ccZCp2co.s 			page 48


 1926              	.LVL114:
 482:../Middlewares/stedgeai-lib/Npu/ll_aton/ll_sw_integer.c ****       sw_info->ozp.format.is_signed ? (AI_BUFFER_META_FLAG_ZEROPOINT_S8) : (AI_BUFFER_META_FLAG_ZER
 1927              		.loc 1 482 17 discriminator 1 view .LVU561
 1928 00e8 0CBF     		ite	eq
 1929 00ea 0227     		moveq	r7, #2
 1930 00ec 0427     		movne	r7, #4
 1931              	.LVL115:
 484:../Middlewares/stedgeai-lib/Npu/ll_aton/ll_sw_integer.c ****                                    .size = sw_info->os.dim.num_elem,
 1932              		.loc 1 484 3 is_stmt 1 view .LVU562
 477:../Middlewares/stedgeai-lib/Npu/ll_aton/ll_sw_integer.c ****                                         .scale = ((float *)sw_info->ws.mem.start_offset),
 1933              		.loc 1 477 68 is_stmt 0 view .LVU563
 1934 00ee D4F80461 		ldr	r6, [r4, #260]
 484:../Middlewares/stedgeai-lib/Npu/ll_aton/ll_sw_integer.c ****                                    .size = sw_info->os.dim.num_elem,
 1935              		.loc 1 484 21 view .LVU564
 1936 00f2 47F00107 		orr	r7, r7, #1
 1937              	.LVL116:
 477:../Middlewares/stedgeai-lib/Npu/ll_aton/ll_sw_integer.c ****                                         .scale = ((float *)sw_info->ws.mem.start_offset),
 1938              		.loc 1 477 68 view .LVU565
 1939 00f6 0996     		str	r6, [sp, #36]
 1940 00f8 D4F83061 		ldr	r6, [r4, #304]
 484:../Middlewares/stedgeai-lib/Npu/ll_aton/ll_sw_integer.c ****                                    .size = sw_info->os.dim.num_elem,
 1941              		.loc 1 484 21 view .LVU566
 1942 00fc ADF82C70 		strh	r7, [sp, #44]	@ movhi
 477:../Middlewares/stedgeai-lib/Npu/ll_aton/ll_sw_integer.c ****                                         .scale = ((float *)sw_info->ws.mem.start_offset),
 1943              		.loc 1 477 68 view .LVU567
 1944 0100 0A96     		str	r6, [sp, #40]
 486:../Middlewares/stedgeai-lib/Npu/ll_aton/ll_sw_integer.c ****                                        .scale = ((float *)sw_info->os.mem.start_offset),
 1945              		.loc 1 486 67 view .LVU568
 1946 0102 D4F8B461 		ldr	r6, [r4, #436]
 484:../Middlewares/stedgeai-lib/Npu/ll_aton/ll_sw_integer.c ****                                    .size = sw_info->os.dim.num_elem,
 1947              		.loc 1 484 21 view .LVU569
 1948 0106 D4F8A071 		ldr	r7, [r4, #416]
 486:../Middlewares/stedgeai-lib/Npu/ll_aton/ll_sw_integer.c ****                                        .scale = ((float *)sw_info->os.mem.start_offset),
 1949              		.loc 1 486 67 view .LVU570
 1950 010a 0D96     		str	r6, [sp, #52]
 1951 010c D4F8E061 		ldr	r6, [r4, #480]
 484:../Middlewares/stedgeai-lib/Npu/ll_aton/ll_sw_integer.c ****                                    .size = sw_info->os.dim.num_elem,
 1952              		.loc 1 484 21 view .LVU571
 1953 0110 ADF82E70 		strh	r7, [sp, #46]	@ movhi
 486:../Middlewares/stedgeai-lib/Npu/ll_aton/ll_sw_integer.c ****                                        .scale = ((float *)sw_info->os.mem.start_offset),
 1954              		.loc 1 486 67 view .LVU572
 1955 0114 0DAF     		add	r7, sp, #52
 1956 0116 0E96     		str	r6, [sp, #56]
 484:../Middlewares/stedgeai-lib/Npu/ll_aton/ll_sw_integer.c ****                                    .size = sw_info->os.dim.num_elem,
 1957              		.loc 1 484 21 view .LVU573
 1958 0118 0C97     		str	r7, [sp, #48]
 1959              		.loc 1 491 3 is_stmt 1 view .LVU574
 1960 011a 28AF     		add	r7, sp, #160
 1961 011c 5797     		str	r7, [sp, #348]
 1962 011e E76F     		ldr	r7, [r4, #124]
 1963 0120 CDF850C1 		str	ip, [sp, #336]
 1964 0124 CDE92C77 		strd	r7, r7, [sp, #176]
 1965 0128 676F     		ldr	r7, [r4, #116]
 1966 012a 40F2014C 		movw	ip, #1025
 1967 012e 2E97     		str	r7, [sp, #184]
 1968 0130 276F     		ldr	r7, [r4, #112]
 1969 0132 666E     		ldr	r6, [r4, #100]
ARM GAS  /tmp/ccZCp2co.s 			page 49


 1970 0134 2F97     		str	r7, [sp, #188]
 492:../Middlewares/stedgeai-lib/Npu/ll_aton/ll_sw_integer.c ****                         SHAPE_INIT(sw_info->weights.dim.tensor_b, sw_info->weights.dim.tensor_h,
 493:../Middlewares/stedgeai-lib/Npu/ll_aton/ll_sw_integer.c ****                                    sw_info->weights.dim.tensor_w, sw_info->weights.dim.tensor_c),
 494:../Middlewares/stedgeai-lib/Npu/ll_aton/ll_sw_integer.c ****                         STRIDE_INIT(sw_info->weights.stride.h, sw_info->weights.stride.w, sw_info->
 495:../Middlewares/stedgeai-lib/Npu/ll_aton/ll_sw_integer.c ****                                     sw_info->weights.stride.b),
 496:../Middlewares/stedgeai-lib/Npu/ll_aton/ll_sw_integer.c ****                         1, &conv_weights_array, &weights_intq);
 497:../Middlewares/stedgeai-lib/Npu/ll_aton/ll_sw_integer.c ****   AI_TENSOR_OBJ_DECLARE(conv_scratch0, , 0x0, 4,
 1971              		.loc 1 497 3 is_stmt 0 view .LVU575
 1972 0136 0027     		movs	r7, #0
 491:../Middlewares/stedgeai-lib/Npu/ll_aton/ll_sw_integer.c ****                         SHAPE_INIT(sw_info->weights.dim.tensor_b, sw_info->weights.dim.tensor_h,
 1973              		.loc 1 491 3 view .LVU576
 1974 0138 2896     		str	r6, [sp, #160]
 1975 013a 266E     		ldr	r6, [r4, #96]
 1976 013c 0DF1B00B 		add	fp, sp, #176
 1977 0140 2996     		str	r6, [sp, #164]
 1978 0142 E66D     		ldr	r6, [r4, #92]
 1979 0144 CDE959B5 		strd	fp, r5, [sp, #356]
 496:../Middlewares/stedgeai-lib/Npu/ll_aton/ll_sw_integer.c ****   AI_TENSOR_OBJ_DECLARE(conv_scratch0, , 0x0, 4,
 1980              		.loc 1 496 63 is_stmt 1 view .LVU577
 1981              		.loc 1 497 3 view .LVU578
 491:../Middlewares/stedgeai-lib/Npu/ll_aton/ll_sw_integer.c ****                         SHAPE_INIT(sw_info->weights.dim.tensor_b, sw_info->weights.dim.tensor_h,
 1982              		.loc 1 491 3 is_stmt 0 view .LVU579
 1983 0148 2A96     		str	r6, [sp, #168]
 1984 014a A66E     		ldr	r6, [r4, #104]
 1985              		.loc 1 497 3 view .LVU580
 1986 014c 30AD     		add	r5, sp, #192
 491:../Middlewares/stedgeai-lib/Npu/ll_aton/ll_sw_integer.c ****                         SHAPE_INIT(sw_info->weights.dim.tensor_b, sw_info->weights.dim.tensor_h,
 1987              		.loc 1 491 3 view .LVU581
 1988 014e 2B96     		str	r6, [sp, #172]
 1989              		.loc 1 497 3 view .LVU582
 1990 0150 D4F89460 		ldr	r6, [r4, #148]
 491:../Middlewares/stedgeai-lib/Npu/ll_aton/ll_sw_integer.c ****                         SHAPE_INIT(sw_info->weights.dim.tensor_b, sw_info->weights.dim.tensor_h,
 1991              		.loc 1 491 3 view .LVU583
 1992 0154 CDE9559C 		strd	r9, ip, [sp, #340]
 1993              		.loc 1 497 3 view .LVU584
 1994 0158 3096     		str	r6, [sp, #192]
 1995 015a D4F89060 		ldr	r6, [r4, #144]
 1996 015e CDE95B79 		strd	r7, r9, [sp, #364]
 1997 0162 3196     		str	r6, [sp, #196]
 1998 0164 D4F88C60 		ldr	r6, [r4, #140]
 491:../Middlewares/stedgeai-lib/Npu/ll_aton/ll_sw_integer.c ****                         SHAPE_INIT(sw_info->weights.dim.tensor_b, sw_info->weights.dim.tensor_h,
 1999              		.loc 1 491 3 view .LVU585
 2000 0168 CDF860A1 		str	r10, [sp, #352]
 2001              		.loc 1 497 3 view .LVU586
 2002 016c 3296     		str	r6, [sp, #200]
 2003 016e D4F88860 		ldr	r6, [r4, #136]
 2004 0172 CDF874C1 		str	ip, [sp, #372]
 2005 0176 3396     		str	r6, [sp, #204]
 2006 0178 CDE95E5A 		strd	r5, r10, [sp, #376]
 2007 017c 34AD     		add	r5, sp, #208
 2008 017e CDE96050 		strd	r5, r0, [sp, #384]
 498:../Middlewares/stedgeai-lib/Npu/ll_aton/ll_sw_integer.c ****                         SHAPE_INIT(sw_info->scratch.dim.tensor_h, sw_info->scratch.dim.tensor_w,
 499:../Middlewares/stedgeai-lib/Npu/ll_aton/ll_sw_integer.c ****                                    sw_info->scratch.dim.tensor_c, sw_info->scratch.dim.tensor_b),
 500:../Middlewares/stedgeai-lib/Npu/ll_aton/ll_sw_integer.c ****                         STRIDE_INIT(sw_info->scratch.stride.h, sw_info->scratch.stride.w, sw_info->
 501:../Middlewares/stedgeai-lib/Npu/ll_aton/ll_sw_integer.c ****                                     sw_info->scratch.stride.b),
 502:../Middlewares/stedgeai-lib/Npu/ll_aton/ll_sw_integer.c ****                         1, &conv_scratch0_array, NULL);
 2009              		.loc 1 502 55 is_stmt 1 view .LVU587
ARM GAS  /tmp/ccZCp2co.s 			page 50


 503:../Middlewares/stedgeai-lib/Npu/ll_aton/ll_sw_integer.c ****   AI_TENSOR_OBJ_DECLARE(input_output, , 0x0, 4,
 2010              		.loc 1 503 3 view .LVU588
 2011 0182 03A8     		add	r0, sp, #12
 2012 0184 CDE96209 		strd	r0, r9, [sp, #392]
 2013 0188 2069     		ldr	r0, [r4, #16]
 497:../Middlewares/stedgeai-lib/Npu/ll_aton/ll_sw_integer.c ****                         SHAPE_INIT(sw_info->scratch.dim.tensor_h, sw_info->scratch.dim.tensor_w,
 2014              		.loc 1 497 3 is_stmt 0 view .LVU589
 2015 018a D4F8A860 		ldr	r6, [r4, #168]
 2016              		.loc 1 503 3 view .LVU590
 2017 018e 3890     		str	r0, [sp, #224]
 2018 0190 E068     		ldr	r0, [r4, #12]
 497:../Middlewares/stedgeai-lib/Npu/ll_aton/ll_sw_integer.c ****                         SHAPE_INIT(sw_info->scratch.dim.tensor_h, sw_info->scratch.dim.tensor_w,
 2019              		.loc 1 497 3 view .LVU591
 2020 0192 3496     		str	r6, [sp, #208]
 2021              		.loc 1 503 3 view .LVU592
 2022 0194 3990     		str	r0, [sp, #228]
 2023 0196 A068     		ldr	r0, [r4, #8]
 497:../Middlewares/stedgeai-lib/Npu/ll_aton/ll_sw_integer.c ****                         SHAPE_INIT(sw_info->scratch.dim.tensor_h, sw_info->scratch.dim.tensor_w,
 2024              		.loc 1 497 3 view .LVU593
 2025 0198 D4F8A460 		ldr	r6, [r4, #164]
 2026              		.loc 1 503 3 view .LVU594
 2027 019c 3A90     		str	r0, [sp, #232]
 2028 019e 6068     		ldr	r0, [r4, #4]
 497:../Middlewares/stedgeai-lib/Npu/ll_aton/ll_sw_integer.c ****                         SHAPE_INIT(sw_info->scratch.dim.tensor_h, sw_info->scratch.dim.tensor_w,
 2029              		.loc 1 497 3 view .LVU595
 2030 01a0 3596     		str	r6, [sp, #212]
 2031              		.loc 1 503 3 view .LVU596
 2032 01a2 3B90     		str	r0, [sp, #236]
 2033 01a4 606A     		ldr	r0, [r4, #36]
 497:../Middlewares/stedgeai-lib/Npu/ll_aton/ll_sw_integer.c ****                         SHAPE_INIT(sw_info->scratch.dim.tensor_h, sw_info->scratch.dim.tensor_w,
 2034              		.loc 1 497 3 view .LVU597
 2035 01a6 D4F8A060 		ldr	r6, [r4, #160]
 2036              		.loc 1 503 3 view .LVU598
 2037 01aa 3C90     		str	r0, [sp, #240]
 2038 01ac 206A     		ldr	r0, [r4, #32]
 497:../Middlewares/stedgeai-lib/Npu/ll_aton/ll_sw_integer.c ****                         SHAPE_INIT(sw_info->scratch.dim.tensor_h, sw_info->scratch.dim.tensor_w,
 2039              		.loc 1 497 3 view .LVU599
 2040 01ae 3696     		str	r6, [sp, #216]
 2041              		.loc 1 503 3 view .LVU600
 2042 01b0 3D90     		str	r0, [sp, #244]
 2043 01b2 E069     		ldr	r0, [r4, #28]
 497:../Middlewares/stedgeai-lib/Npu/ll_aton/ll_sw_integer.c ****                         SHAPE_INIT(sw_info->scratch.dim.tensor_h, sw_info->scratch.dim.tensor_w,
 2044              		.loc 1 497 3 view .LVU601
 2045 01b4 D4F89C60 		ldr	r6, [r4, #156]
 2046              		.loc 1 503 3 view .LVU602
 2047 01b8 38AD     		add	r5, sp, #224
 2048 01ba 3E90     		str	r0, [sp, #248]
 2049 01bc A069     		ldr	r0, [r4, #24]
 2050 01be CDE9655A 		strd	r5, r10, [sp, #404]
 2051 01c2 3CAD     		add	r5, sp, #240
 497:../Middlewares/stedgeai-lib/Npu/ll_aton/ll_sw_integer.c ****                         SHAPE_INIT(sw_info->scratch.dim.tensor_h, sw_info->scratch.dim.tensor_w,
 2052              		.loc 1 497 3 view .LVU603
 2053 01c4 3796     		str	r6, [sp, #220]
 2054              		.loc 1 503 3 view .LVU604
 2055 01c6 CDF890C1 		str	ip, [sp, #400]
 2056 01ca 3F90     		str	r0, [sp, #252]
 2057 01cc CDE96751 		strd	r5, r1, [sp, #412]
ARM GAS  /tmp/ccZCp2co.s 			page 51


 504:../Middlewares/stedgeai-lib/Npu/ll_aton/ll_sw_integer.c ****                         SHAPE_INIT(sw_info->general.input.dim.tensor_h, sw_info->general.input.dim.
 505:../Middlewares/stedgeai-lib/Npu/ll_aton/ll_sw_integer.c ****                                    sw_info->general.input.dim.tensor_c, sw_info->general.input.dim.
 506:../Middlewares/stedgeai-lib/Npu/ll_aton/ll_sw_integer.c ****                         STRIDE_INIT(sw_info->general.input.stride.h, sw_info->general.input.stride.
 507:../Middlewares/stedgeai-lib/Npu/ll_aton/ll_sw_integer.c ****                                     sw_info->general.input.stride.c, sw_info->general.input.stride.
 508:../Middlewares/stedgeai-lib/Npu/ll_aton/ll_sw_integer.c ****                         1, &input_output_array, &input_intq);
 2058              		.loc 1 508 61 is_stmt 1 view .LVU605
 509:../Middlewares/stedgeai-lib/Npu/ll_aton/ll_sw_integer.c ****   AI_TENSOR_OBJ_DECLARE(
 2059              		.loc 1 509 3 view .LVU606
 2060 01d0 D4F8C010 		ldr	r1, [r4, #192]
 2061 01d4 40A8     		add	r0, sp, #256
 2062 01d6 4091     		str	r1, [sp, #256]
 2063 01d8 D4F8BC10 		ldr	r1, [r4, #188]
 2064 01dc CDE96C0A 		strd	r0, r10, [sp, #432]
 2065 01e0 4191     		str	r1, [sp, #260]
 2066 01e2 D4F8B810 		ldr	r1, [r4, #184]
 2067 01e6 44A8     		add	r0, sp, #272
 2068 01e8 4291     		str	r1, [sp, #264]
 2069 01ea D4F8B410 		ldr	r1, [r4, #180]
 2070 01ee CDE96E02 		strd	r0, r2, [sp, #440]
 510:../Middlewares/stedgeai-lib/Npu/ll_aton/ll_sw_integer.c ****       conv_bias, , 0x0, 4,
 511:../Middlewares/stedgeai-lib/Npu/ll_aton/ll_sw_integer.c ****       SHAPE_INIT(sw_info->bias.dim.tensor_h, sw_info->bias.dim.tensor_w, sw_info->bias.dim.tensor_c
 512:../Middlewares/stedgeai-lib/Npu/ll_aton/ll_sw_integer.c ****                  sw_info->bias.dim.tensor_b),
 513:../Middlewares/stedgeai-lib/Npu/ll_aton/ll_sw_integer.c ****       STRIDE_INIT(sw_info->bias.stride.h, sw_info->bias.stride.w, sw_info->bias.stride.c, sw_info->
 514:../Middlewares/stedgeai-lib/Npu/ll_aton/ll_sw_integer.c ****       &conv_bias_array, NULL);
 2071              		.loc 1 514 30 view .LVU607
 515:../Middlewares/stedgeai-lib/Npu/ll_aton/ll_sw_integer.c ****   AI_TENSOR_OBJ_DECLARE(conv_output, , 0x0, 4,
 2072              		.loc 1 515 3 view .LVU608
 509:../Middlewares/stedgeai-lib/Npu/ll_aton/ll_sw_integer.c ****   AI_TENSOR_OBJ_DECLARE(
 2073              		.loc 1 509 3 is_stmt 0 view .LVU609
 2074 01f2 4391     		str	r1, [sp, #268]
 2075 01f4 D4F8D410 		ldr	r1, [r4, #212]
 2076              		.loc 1 515 3 view .LVU610
 2077 01f8 48AA     		add	r2, sp, #288
 509:../Middlewares/stedgeai-lib/Npu/ll_aton/ll_sw_integer.c ****   AI_TENSOR_OBJ_DECLARE(
 2078              		.loc 1 509 3 view .LVU611
 2079 01fa 0160     		str	r1, [r0]
 2080 01fc D4F8D010 		ldr	r1, [r4, #208]
 484:../Middlewares/stedgeai-lib/Npu/ll_aton/ll_sw_integer.c ****                                    .size = sw_info->os.dim.num_elem,
 2081              		.loc 1 484 21 view .LVU612
 2082 0200 0DF12C0E 		add	lr, sp, #44
 509:../Middlewares/stedgeai-lib/Npu/ll_aton/ll_sw_integer.c ****       conv_bias, , 0x0, 4,
 2083              		.loc 1 509 3 view .LVU613
 2084 0204 4160     		str	r1, [r0, #4]
 2085 0206 D4F8CC10 		ldr	r1, [r4, #204]
 457:../Middlewares/stedgeai-lib/Npu/ll_aton/ll_sw_integer.c ****                        sw_info->general.output.mem.start_offset, sw_info->general.output.dim.num_el
 2086              		.loc 1 457 3 view .LVU614
 2087 020a 24AB     		add	r3, sp, #144
 2088              	.LVL117:
 509:../Middlewares/stedgeai-lib/Npu/ll_aton/ll_sw_integer.c ****       conv_bias, , 0x0, 4,
 2089              		.loc 1 509 3 view .LVU615
 2090 020c 8160     		str	r1, [r0, #8]
 2091 020e D4F8C810 		ldr	r1, [r4, #200]
 2092 0212 CDE96979 		strd	r7, r9, [sp, #420]
 2093 0216 C160     		str	r1, [r0, #12]
 2094              		.loc 1 515 3 view .LVU616
 2095 0218 E16B     		ldr	r1, [r4, #60]
 2096 021a CDE970E9 		strd	lr, r9, [sp, #448]
ARM GAS  /tmp/ccZCp2co.s 			page 52


 2097 021e 4891     		str	r1, [sp, #288]
 2098 0220 A16B     		ldr	r1, [r4, #56]
 509:../Middlewares/stedgeai-lib/Npu/ll_aton/ll_sw_integer.c ****       conv_bias, , 0x0, 4,
 2099              		.loc 1 509 3 view .LVU617
 2100 0222 CDF8ACC1 		str	ip, [sp, #428]
 2101              		.loc 1 515 3 view .LVU618
 2102 0226 CDF8C8C1 		str	ip, [sp, #456]
 2103 022a 4991     		str	r1, [sp, #292]
 2104 022c 616B     		ldr	r1, [r4, #52]
 2105 022e CDE9732A 		strd	r2, r10, [sp, #460]
 2106 0232 4CAA     		add	r2, sp, #304
 2107 0234 CDE97523 		strd	r2, r3, [sp, #468]
 516:../Middlewares/stedgeai-lib/Npu/ll_aton/ll_sw_integer.c ****                         SHAPE_INIT(sw_info->general.output.dim.tensor_h, sw_info->general.output.di
 517:../Middlewares/stedgeai-lib/Npu/ll_aton/ll_sw_integer.c ****                                    sw_info->general.output.dim.tensor_c, sw_info->general.output.di
 518:../Middlewares/stedgeai-lib/Npu/ll_aton/ll_sw_integer.c ****                         STRIDE_INIT(sw_info->general.output.stride.h, sw_info->general.output.strid
 519:../Middlewares/stedgeai-lib/Npu/ll_aton/ll_sw_integer.c ****                                     sw_info->general.output.stride.c, sw_info->general.output.strid
 520:../Middlewares/stedgeai-lib/Npu/ll_aton/ll_sw_integer.c ****                         1, &conv_output_array, &output_intq);
 2108              		.loc 1 520 61 is_stmt 1 view .LVU619
 521:../Middlewares/stedgeai-lib/Npu/ll_aton/ll_sw_integer.c ****   // tensor chain initialization
 522:../Middlewares/stedgeai-lib/Npu/ll_aton/ll_sw_integer.c ****   AI_TENSOR_CHAIN_OBJ_DECLARE(conv_chain, , 4, AI_TENSOR_LIST_OBJ_INIT(AI_FLAG_NONE, 1, TENSORS(&in
 2109              		.loc 1 522 3 view .LVU620
 2110 0238 0423     		movs	r3, #4
 2111              	.LVL118:
 2112              		.loc 1 522 3 is_stmt 0 view .LVU621
 2113 023a 0F93     		str	r3, [sp, #60]
 2114 023c 6B46     		mov	r3, sp
 2115 023e CDE97837 		strd	r3, r7, [sp, #480]
 2116 0242 01AB     		add	r3, sp, #4
 2117 0244 CDE97B37 		strd	r3, r7, [sp, #492]
 2118 0248 0323     		movs	r3, #3
 2119 024a 0122     		movs	r2, #1
 515:../Middlewares/stedgeai-lib/Npu/ll_aton/ll_sw_integer.c ****                         SHAPE_INIT(sw_info->general.output.dim.tensor_h, sw_info->general.output.di
 2120              		.loc 1 515 3 view .LVU622
 2121 024c 4A91     		str	r1, [sp, #296]
 2122 024e 216B     		ldr	r1, [r4, #48]
 2123              		.loc 1 522 3 view .LVU623
 2124 0250 7D93     		str	r3, [sp, #500]
 515:../Middlewares/stedgeai-lib/Npu/ll_aton/ll_sw_integer.c ****                         SHAPE_INIT(sw_info->general.output.dim.tensor_h, sw_info->general.output.di
 2125              		.loc 1 515 3 view .LVU624
 2126 0252 4B91     		str	r1, [sp, #300]
 2127 0254 216D     		ldr	r1, [r4, #80]
 2128              		.loc 1 522 3 view .LVU625
 2129 0256 11AB     		add	r3, sp, #68
 515:../Middlewares/stedgeai-lib/Npu/ll_aton/ll_sw_integer.c ****                         SHAPE_INIT(sw_info->general.output.dim.tensor_h, sw_info->general.output.di
 2130              		.loc 1 515 3 view .LVU626
 2131 0258 4C91     		str	r1, [sp, #304]
 2132 025a E16C     		ldr	r1, [r4, #76]
 2133              		.loc 1 522 3 view .LVU627
 2134 025c CDE97E37 		strd	r3, r7, [sp, #504]
 515:../Middlewares/stedgeai-lib/Npu/ll_aton/ll_sw_integer.c ****                         SHAPE_INIT(sw_info->general.output.dim.tensor_h, sw_info->general.output.di
 2135              		.loc 1 515 3 view .LVU628
 2136 0260 4D91     		str	r1, [sp, #308]
 2137 0262 A16C     		ldr	r1, [r4, #72]
 2138              		.loc 1 522 3 view .LVU629
 2139 0264 7792     		str	r2, [sp, #476]
 515:../Middlewares/stedgeai-lib/Npu/ll_aton/ll_sw_integer.c ****                         SHAPE_INIT(sw_info->general.output.dim.tensor_h, sw_info->general.output.di
 2140              		.loc 1 515 3 view .LVU630
ARM GAS  /tmp/ccZCp2co.s 			page 53


 2141 0266 4E91     		str	r1, [sp, #312]
 2142 0268 616C     		ldr	r1, [r4, #68]
 2143              		.loc 1 522 3 view .LVU631
 2144 026a 7A92     		str	r2, [sp, #488]
 515:../Middlewares/stedgeai-lib/Npu/ll_aton/ll_sw_integer.c ****                         SHAPE_INIT(sw_info->general.output.dim.tensor_h, sw_info->general.output.di
 2145              		.loc 1 515 3 view .LVU632
 2146 026c 4F91     		str	r1, [sp, #316]
 2147              		.loc 1 522 3 view .LVU633
 2148 026e 62A9     		add	r1, sp, #392
 2149 0270 0091     		str	r1, [sp]
 2150 0272 70A9     		add	r1, sp, #448
 2151 0274 0191     		str	r1, [sp, #4]
 2152 0276 8092     		str	r2, [sp, #512]
 2153 0278 02AB     		add	r3, sp, #8
 491:../Middlewares/stedgeai-lib/Npu/ll_aton/ll_sw_integer.c ****                         SHAPE_INIT(sw_info->weights.dim.tensor_b, sw_info->weights.dim.tensor_h,
 2154              		.loc 1 491 3 view .LVU634
 2155 027a 0DF5A878 		add	r8, sp, #336
 2156              		.loc 1 522 3 view .LVU635
 2157 027e 69A9     		add	r1, sp, #420
 2158 0280 5BAA     		add	r2, sp, #364
 2159 0282 CDE91217 		strd	r1, r7, [sp, #72]
 2160 0286 CDF84480 		str	r8, [sp, #68]
 2161 028a 0292     		str	r2, [sp, #8]
 2162 028c CDE98137 		strd	r3, r7, [sp, #516]
 2163 0290 77AB     		add	r3, sp, #476
 2164 0292 1093     		str	r3, [sp, #64]
 523:../Middlewares/stedgeai-lib/Npu/ll_aton/ll_sw_integer.c ****                               AI_TENSOR_LIST_OBJ_INIT(AI_FLAG_NONE, 1, TENSORS(&conv_output)),
 524:../Middlewares/stedgeai-lib/Npu/ll_aton/ll_sw_integer.c ****                               AI_TENSOR_LIST_OBJ_INIT(AI_FLAG_NONE, 3, TENSORS(&conv_weights, &conv
 525:../Middlewares/stedgeai-lib/Npu/ll_aton/ll_sw_integer.c ****                               AI_TENSOR_LIST_OBJ_INIT(AI_FLAG_NONE, 1, TENSORS(&conv_scratch0)))
 526:../Middlewares/stedgeai-lib/Npu/ll_aton/ll_sw_integer.c **** 
 527:../Middlewares/stedgeai-lib/Npu/ll_aton/ll_sw_integer.c ****   switch (sw_info->fwd_func)
 2165              		.loc 1 527 3 is_stmt 1 view .LVU636
 2166 0294 94F81432 		ldrb	r3, [r4, #532]	@ zero_extendqisi2
 522:../Middlewares/stedgeai-lib/Npu/ll_aton/ll_sw_integer.c ****                               AI_TENSOR_LIST_OBJ_INIT(AI_FLAG_NONE, 1, TENSORS(&conv_output)),
 2167              		.loc 1 522 3 is_stmt 0 view .LVU637
 2168 0298 0FAD     		add	r5, sp, #60
 2169              		.loc 1 527 3 view .LVU638
 2170 029a 052B     		cmp	r3, #5
 2171 029c 47D8     		bhi	.L62
 2172 029e DFE813F0 		tbh	[pc, r3, lsl #1]
 2173              	.LVL119:
 2174              	.L72:
 2175 02a2 1900     		.2byte	(.L77-.L72)/2
 2176 02a4 4A00     		.2byte	(.L76-.L72)/2
 2177 02a6 7800     		.2byte	(.L75-.L72)/2
 2178 02a8 A600     		.2byte	(.L74-.L72)/2
 2179 02aa D400     		.2byte	(.L73-.L72)/2
 2180 02ac 0201     		.2byte	(.L71-.L72)/2
 2181              		.p2align 1
 2182              	.L78:
 444:../Middlewares/stedgeai-lib/Npu/ll_aton/ll_sw_integer.c ****   AI_ARRAY_OBJ_DECLARE(input_output_array, format, sw_info->general.input.mem.start_offset,
 2183              		.loc 1 444 52 discriminator 2 view .LVU639
 2184 02ae 074B     		ldr	r3, .L86+12
 2185 02b0 B1E6     		b	.L63
 2186              	.LVL120:
 2187              	.L79:
 447:../Middlewares/stedgeai-lib/Npu/ll_aton/ll_sw_integer.c ****   AI_ARRAY_OBJ_DECLARE(conv_weights_array, format, sw_info->weights.mem.start_offset, sw_info->weig
ARM GAS  /tmp/ccZCp2co.s 			page 54


 2188              		.loc 1 447 69 discriminator 2 view .LVU640
 2189 02b2 074B     		ldr	r3, .L86+16
 2190 02b4 BCE6     		b	.L64
 2191              	.LVL121:
 2192              	.L80:
 450:../Middlewares/stedgeai-lib/Npu/ll_aton/ll_sw_integer.c ****   AI_ARRAY_OBJ_DECLARE(conv_scratch0_array, format, sw_info->scratch.mem.start_offset,
 2193              		.loc 1 450 69 discriminator 2 view .LVU641
 2194 02b6 064B     		ldr	r3, .L86+16
 2195 02b8 C8E6     		b	.L65
 2196              	.LVL122:
 2197              	.L81:
 456:../Middlewares/stedgeai-lib/Npu/ll_aton/ll_sw_integer.c ****   AI_ARRAY_OBJ_DECLARE(conv_output_array, format, sw_info->general.output.mem.start_offset,
 2198              		.loc 1 456 53 discriminator 2 view .LVU642
 2199 02ba 044E     		ldr	r6, .L86+12
 2200 02bc DFE6     		b	.L66
 2201              	.L87:
 2202 02be 00BF     		.align	2
 2203              	.L86:
 2204 02c0 40048408 		.word	142869568
 2205 02c4 40048400 		.word	8651840
 2206 02c8 40108400 		.word	8654912
 2207 02cc 40040408 		.word	134480960
 2208 02d0 40040400 		.word	263232
 2209              	.LVL123:
 2210              	.L77:
 2211              	.LBB2:
 528:../Middlewares/stedgeai-lib/Npu/ll_aton/ll_sw_integer.c ****   {
 529:../Middlewares/stedgeai-lib/Npu/ll_aton/ll_sw_integer.c ****   case LL_SW_SSSA_PW_CONV:
 530:../Middlewares/stedgeai-lib/Npu/ll_aton/ll_sw_integer.c ****   {
 531:../Middlewares/stedgeai-lib/Npu/ll_aton/ll_sw_integer.c **** #ifdef LL_SW_DUMP_DEBUG
 532:../Middlewares/stedgeai-lib/Npu/ll_aton/ll_sw_integer.c ****     LL_ATON_PRINTF("POINTWISE");
 533:../Middlewares/stedgeai-lib/Npu/ll_aton/ll_sw_integer.c **** #endif
 534:../Middlewares/stedgeai-lib/Npu/ll_aton/ll_sw_integer.c ****     AI_LAYER_OBJ_DECLARE(
 2212              		.loc 1 534 5 is_stmt 1 view .LVU643
 2213 02d4 8B4B     		ldr	r3, .L88
 2214 02d6 4022     		movs	r2, #64
 2215 02d8 0021     		movs	r1, #0
 2216 02da 84A8     		add	r0, sp, #528
 2217 02dc 8393     		str	r3, [sp, #524]
 2218 02de FFF7FEFF 		bl	memset
 2219              	.LVL124:
 2220              		.loc 1 534 5 is_stmt 0 view .LVU644
 2221 02e2 894B     		ldr	r3, .L88+4
 2222 02e4 D4F8EC21 		ldr	r2, [r4, #492]
 2223 02e8 CDE98835 		strd	r3, r5, [sp, #544]
 2224 02ec D4F8E831 		ldr	r3, [r4, #488]
 2225 02f0 5092     		str	r2, [sp, #320]
 2226 02f2 8A93     		str	r3, [sp, #552]
 2227 02f4 D4F80032 		ldr	r3, [r4, #512]
 2228 02f8 D4F8F021 		ldr	r2, [r4, #496]
 2229 02fc 8D93     		str	r3, [sp, #564]
 2230 02fe D4F8FC31 		ldr	r3, [r4, #508]
 2231 0302 5192     		str	r2, [sp, #324]
 2232 0304 8E93     		str	r3, [sp, #568]
 2233 0306 D4F81032 		ldr	r3, [r4, #528]
 2234 030a D4F8F421 		ldr	r2, [r4, #500]
 2235 030e 8F93     		str	r3, [sp, #572]
ARM GAS  /tmp/ccZCp2co.s 			page 55


 2236 0310 D4F80C32 		ldr	r3, [r4, #524]
 2237 0314 5292     		str	r2, [sp, #328]
 2238 0316 9093     		str	r3, [sp, #576]
 2239 0318 40F20143 		movw	r3, #1025
 2240 031c D4F8F821 		ldr	r2, [r4, #504]
 2241 0320 9193     		str	r3, [sp, #580]
 535:../Middlewares/stedgeai-lib/Npu/ll_aton/ll_sw_integer.c ****         conv_layer, 1, CONV2D_TYPE, 0x0, NULL, conv2d, forward_pw_sssa8_ch /*_fixed*/, &conv_chain,
 536:../Middlewares/stedgeai-lib/Npu/ll_aton/ll_sw_integer.c ****         .groups = sw_info->ngroup, .nl_params = NULL, .nl_func = NULL,
 537:../Middlewares/stedgeai-lib/Npu/ll_aton/ll_sw_integer.c ****         .filter_stride = SHAPE_2D_INIT(sw_info->strides[0], sw_info->strides[1]), // controlla perc
 538:../Middlewares/stedgeai-lib/Npu/ll_aton/ll_sw_integer.c ****         .filter_pad = SHAPE_INIT(sw_info->pads[3], sw_info->pads[2], sw_info->pads[1], sw_info->pad
 539:../Middlewares/stedgeai-lib/Npu/ll_aton/ll_sw_integer.c ****         .dilation = SHAPE_2D_INIT(sw_info->dilations[0], sw_info->dilations[1]), )
 540:../Middlewares/stedgeai-lib/Npu/ll_aton/ll_sw_integer.c ****     conv_layer.forward(AI_LAYER_OBJ(&conv_layer));
 2242              		.loc 1 540 5 view .LVU645
 2243 0322 83A8     		add	r0, sp, #524
 534:../Middlewares/stedgeai-lib/Npu/ll_aton/ll_sw_integer.c ****         conv_layer, 1, CONV2D_TYPE, 0x0, NULL, conv2d, forward_pw_sssa8_ch /*_fixed*/, &conv_chain,
 2244              		.loc 1 534 5 view .LVU646
 2245 0324 50AB     		add	r3, sp, #320
 2246 0326 5392     		str	r2, [sp, #332]
 2247 0328 9293     		str	r3, [sp, #584]
 2248              		.loc 1 540 5 is_stmt 1 view .LVU647
 2249 032a FFF7FEFF 		bl	forward_pw_sssa8_ch
 2250              	.LVL125:
 2251              	.LBE2:
 541:../Middlewares/stedgeai-lib/Npu/ll_aton/ll_sw_integer.c ****   }
 542:../Middlewares/stedgeai-lib/Npu/ll_aton/ll_sw_integer.c ****   break;
 2252              		.loc 1 542 3 view .LVU648
 2253              	.L62:
 543:../Middlewares/stedgeai-lib/Npu/ll_aton/ll_sw_integer.c ****   case LL_SW_SSSA_RGB_CONV:
 544:../Middlewares/stedgeai-lib/Npu/ll_aton/ll_sw_integer.c ****   {
 545:../Middlewares/stedgeai-lib/Npu/ll_aton/ll_sw_integer.c **** #ifdef LL_SW_DUMP_DEBUG
 546:../Middlewares/stedgeai-lib/Npu/ll_aton/ll_sw_integer.c ****     LL_ATON_PRINTF("RGB");
 547:../Middlewares/stedgeai-lib/Npu/ll_aton/ll_sw_integer.c **** #endif
 548:../Middlewares/stedgeai-lib/Npu/ll_aton/ll_sw_integer.c ****     AI_LAYER_OBJ_DECLARE(
 549:../Middlewares/stedgeai-lib/Npu/ll_aton/ll_sw_integer.c ****         conv_layer, 1, CONV2D_TYPE, 0x0, NULL, conv2d, forward_conv2d_rgb_sssa8_ch /*_fixed*/, &con
 550:../Middlewares/stedgeai-lib/Npu/ll_aton/ll_sw_integer.c ****         , .groups = sw_info->ngroup, .nl_params = NULL, .nl_func = NULL,
 551:../Middlewares/stedgeai-lib/Npu/ll_aton/ll_sw_integer.c ****         .filter_stride = SHAPE_2D_INIT(sw_info->strides[0], sw_info->strides[1]), // controlla perc
 552:../Middlewares/stedgeai-lib/Npu/ll_aton/ll_sw_integer.c ****         .filter_pad = SHAPE_INIT(sw_info->pads[3], sw_info->pads[2], sw_info->pads[1], sw_info->pad
 553:../Middlewares/stedgeai-lib/Npu/ll_aton/ll_sw_integer.c ****         .dilation = SHAPE_2D_INIT(sw_info->dilations[0], sw_info->dilations[1]), )
 554:../Middlewares/stedgeai-lib/Npu/ll_aton/ll_sw_integer.c ****     conv_layer.forward(AI_LAYER_OBJ(&conv_layer));
 555:../Middlewares/stedgeai-lib/Npu/ll_aton/ll_sw_integer.c ****   }
 556:../Middlewares/stedgeai-lib/Npu/ll_aton/ll_sw_integer.c ****   break;
 557:../Middlewares/stedgeai-lib/Npu/ll_aton/ll_sw_integer.c ****   case LL_SW_SSSA_DW_CONV:
 558:../Middlewares/stedgeai-lib/Npu/ll_aton/ll_sw_integer.c ****   {
 559:../Middlewares/stedgeai-lib/Npu/ll_aton/ll_sw_integer.c **** #ifdef LL_SW_DUMP_DEBUG
 560:../Middlewares/stedgeai-lib/Npu/ll_aton/ll_sw_integer.c ****     LL_ATON_PRINTF("GROUP");
 561:../Middlewares/stedgeai-lib/Npu/ll_aton/ll_sw_integer.c **** #endif
 562:../Middlewares/stedgeai-lib/Npu/ll_aton/ll_sw_integer.c ****     AI_LAYER_OBJ_DECLARE(
 563:../Middlewares/stedgeai-lib/Npu/ll_aton/ll_sw_integer.c ****         conv_layer, 1, CONV2D_TYPE, 0x0, NULL, conv2d, forward_dw_dm_sssa8_ch /*_fixed*/, &conv_cha
 564:../Middlewares/stedgeai-lib/Npu/ll_aton/ll_sw_integer.c ****         .groups = sw_info->ngroup, .nl_params = NULL, .nl_func = NULL,
 565:../Middlewares/stedgeai-lib/Npu/ll_aton/ll_sw_integer.c ****         .filter_stride = SHAPE_2D_INIT(sw_info->strides[0], sw_info->strides[1]), // controlla perc
 566:../Middlewares/stedgeai-lib/Npu/ll_aton/ll_sw_integer.c ****         .filter_pad = SHAPE_INIT(sw_info->pads[3], sw_info->pads[2], sw_info->pads[1], sw_info->pad
 567:../Middlewares/stedgeai-lib/Npu/ll_aton/ll_sw_integer.c ****         .dilation = SHAPE_2D_INIT(sw_info->dilations[0], sw_info->dilations[1]), )
 568:../Middlewares/stedgeai-lib/Npu/ll_aton/ll_sw_integer.c ****     conv_layer.forward(AI_LAYER_OBJ(&conv_layer));
 569:../Middlewares/stedgeai-lib/Npu/ll_aton/ll_sw_integer.c ****   }
 570:../Middlewares/stedgeai-lib/Npu/ll_aton/ll_sw_integer.c ****   break;
 571:../Middlewares/stedgeai-lib/Npu/ll_aton/ll_sw_integer.c ****   case LL_SW_SSSA_DILATED_CONV:
 572:../Middlewares/stedgeai-lib/Npu/ll_aton/ll_sw_integer.c ****   {
ARM GAS  /tmp/ccZCp2co.s 			page 56


 573:../Middlewares/stedgeai-lib/Npu/ll_aton/ll_sw_integer.c **** #ifdef LL_SW_DUMP_DEBUG
 574:../Middlewares/stedgeai-lib/Npu/ll_aton/ll_sw_integer.c ****     LL_ATON_PRINTF("DILATION");
 575:../Middlewares/stedgeai-lib/Npu/ll_aton/ll_sw_integer.c **** #endif
 576:../Middlewares/stedgeai-lib/Npu/ll_aton/ll_sw_integer.c ****     AI_LAYER_OBJ_DECLARE(
 577:../Middlewares/stedgeai-lib/Npu/ll_aton/ll_sw_integer.c ****         conv_layer, 1, CONV2D_TYPE, 0x0, NULL, conv2d, forward_conv2d_dilated_sssa8_ch /*_fixed*/, 
 578:../Middlewares/stedgeai-lib/Npu/ll_aton/ll_sw_integer.c ****         NULL, , .groups = sw_info->ngroup, .nl_params = NULL, .nl_func = NULL,
 579:../Middlewares/stedgeai-lib/Npu/ll_aton/ll_sw_integer.c ****         .filter_stride = SHAPE_2D_INIT(sw_info->strides[0], sw_info->strides[1]), // controlla perc
 580:../Middlewares/stedgeai-lib/Npu/ll_aton/ll_sw_integer.c ****         .filter_pad = SHAPE_INIT(sw_info->pads[3], sw_info->pads[2], sw_info->pads[1], sw_info->pad
 581:../Middlewares/stedgeai-lib/Npu/ll_aton/ll_sw_integer.c ****         .dilation = SHAPE_2D_INIT(sw_info->dilations[0], sw_info->dilations[1]), )
 582:../Middlewares/stedgeai-lib/Npu/ll_aton/ll_sw_integer.c ****     conv_layer.forward(AI_LAYER_OBJ(&conv_layer));
 583:../Middlewares/stedgeai-lib/Npu/ll_aton/ll_sw_integer.c ****   }
 584:../Middlewares/stedgeai-lib/Npu/ll_aton/ll_sw_integer.c ****   break;
 585:../Middlewares/stedgeai-lib/Npu/ll_aton/ll_sw_integer.c ****   case LL_SW_SSSA_GENERIC_CONV:
 586:../Middlewares/stedgeai-lib/Npu/ll_aton/ll_sw_integer.c ****   {
 587:../Middlewares/stedgeai-lib/Npu/ll_aton/ll_sw_integer.c **** #ifdef LL_SW_DUMP_DEBUG
 588:../Middlewares/stedgeai-lib/Npu/ll_aton/ll_sw_integer.c ****     LL_ATON_PRINTF("GENERAL CH");
 589:../Middlewares/stedgeai-lib/Npu/ll_aton/ll_sw_integer.c **** #endif
 590:../Middlewares/stedgeai-lib/Npu/ll_aton/ll_sw_integer.c ****     AI_LAYER_OBJ_DECLARE(
 591:../Middlewares/stedgeai-lib/Npu/ll_aton/ll_sw_integer.c ****         conv_layer, 1, CONV2D_TYPE, 0x0, NULL, conv2d, forward_conv2d_sssa8_ch /*_fixed*/, &conv_ch
 592:../Middlewares/stedgeai-lib/Npu/ll_aton/ll_sw_integer.c ****         .groups = sw_info->ngroup, .nl_params = NULL, .nl_func = NULL,
 593:../Middlewares/stedgeai-lib/Npu/ll_aton/ll_sw_integer.c ****         .filter_stride = SHAPE_2D_INIT(sw_info->strides[0], sw_info->strides[1]), // controlla perc
 594:../Middlewares/stedgeai-lib/Npu/ll_aton/ll_sw_integer.c ****         .filter_pad = SHAPE_INIT(sw_info->pads[3], sw_info->pads[2], sw_info->pads[1], sw_info->pad
 595:../Middlewares/stedgeai-lib/Npu/ll_aton/ll_sw_integer.c ****         .dilation = SHAPE_2D_INIT(sw_info->dilations[0], sw_info->dilations[1]), )
 596:../Middlewares/stedgeai-lib/Npu/ll_aton/ll_sw_integer.c ****     conv_layer.forward(AI_LAYER_OBJ(&conv_layer));
 597:../Middlewares/stedgeai-lib/Npu/ll_aton/ll_sw_integer.c ****   }
 598:../Middlewares/stedgeai-lib/Npu/ll_aton/ll_sw_integer.c ****   break;
 599:../Middlewares/stedgeai-lib/Npu/ll_aton/ll_sw_integer.c ****   case LL_SW_GENERIC_CONV:
 600:../Middlewares/stedgeai-lib/Npu/ll_aton/ll_sw_integer.c ****   {
 601:../Middlewares/stedgeai-lib/Npu/ll_aton/ll_sw_integer.c **** #ifdef LL_SW_DUMP_DEBUG
 602:../Middlewares/stedgeai-lib/Npu/ll_aton/ll_sw_integer.c ****     LL_ATON_PRINTF("GENERAL UNSIGEND per CHANNEL");
 603:../Middlewares/stedgeai-lib/Npu/ll_aton/ll_sw_integer.c **** #endif
 604:../Middlewares/stedgeai-lib/Npu/ll_aton/ll_sw_integer.c ****     AI_LAYER_OBJ_DECLARE(
 605:../Middlewares/stedgeai-lib/Npu/ll_aton/ll_sw_integer.c ****         conv_layer, 1, CONV2D_TYPE, 0x0, NULL, conv2d, forward_conv2d_integer /*_fixed*/, &conv_cha
 606:../Middlewares/stedgeai-lib/Npu/ll_aton/ll_sw_integer.c ****         .groups = sw_info->ngroup, .nl_params = NULL, .nl_func = NULL,
 607:../Middlewares/stedgeai-lib/Npu/ll_aton/ll_sw_integer.c ****         .filter_stride = SHAPE_2D_INIT(sw_info->strides[0], sw_info->strides[1]), // controlla perc
 608:../Middlewares/stedgeai-lib/Npu/ll_aton/ll_sw_integer.c ****         .filter_pad = SHAPE_INIT(sw_info->pads[3], sw_info->pads[2], sw_info->pads[1], sw_info->pad
 609:../Middlewares/stedgeai-lib/Npu/ll_aton/ll_sw_integer.c ****         .dilation = SHAPE_2D_INIT(sw_info->dilations[0], sw_info->dilations[1]), )
 610:../Middlewares/stedgeai-lib/Npu/ll_aton/ll_sw_integer.c ****     conv_layer.forward(AI_LAYER_OBJ(&conv_layer));
 611:../Middlewares/stedgeai-lib/Npu/ll_aton/ll_sw_integer.c ****   }
 612:../Middlewares/stedgeai-lib/Npu/ll_aton/ll_sw_integer.c ****   break;
 613:../Middlewares/stedgeai-lib/Npu/ll_aton/ll_sw_integer.c ****   default:
 614:../Middlewares/stedgeai-lib/Npu/ll_aton/ll_sw_integer.c ****     break;
 615:../Middlewares/stedgeai-lib/Npu/ll_aton/ll_sw_integer.c ****   }
 616:../Middlewares/stedgeai-lib/Npu/ll_aton/ll_sw_integer.c **** }
 2254              		.loc 1 616 1 is_stmt 0 view .LVU649
 2255 032e 0DF5157D 		add	sp, sp, #596
 2256              		.cfi_remember_state
 2257              		.cfi_def_cfa_offset 36
 2258              		@ sp needed
 2259 0332 BDE8F08F 		pop	{r4, r5, r6, r7, r8, r9, r10, fp, pc}
 2260              	.LVL126:
 2261              	.L76:
 2262              		.cfi_restore_state
 2263              	.LBB3:
 548:../Middlewares/stedgeai-lib/Npu/ll_aton/ll_sw_integer.c ****         conv_layer, 1, CONV2D_TYPE, 0x0, NULL, conv2d, forward_conv2d_rgb_sssa8_ch /*_fixed*/, &con
 2264              		.loc 1 548 5 is_stmt 1 view .LVU650
 2265 0336 734B     		ldr	r3, .L88
ARM GAS  /tmp/ccZCp2co.s 			page 57


 2266 0338 4022     		movs	r2, #64
 2267 033a 0021     		movs	r1, #0
 2268 033c 84A8     		add	r0, sp, #528
 2269 033e 8393     		str	r3, [sp, #524]
 2270 0340 FFF7FEFF 		bl	memset
 2271              	.LVL127:
 548:../Middlewares/stedgeai-lib/Npu/ll_aton/ll_sw_integer.c ****         conv_layer, 1, CONV2D_TYPE, 0x0, NULL, conv2d, forward_conv2d_rgb_sssa8_ch /*_fixed*/, &con
 2272              		.loc 1 548 5 is_stmt 0 view .LVU651
 2273 0344 714B     		ldr	r3, .L88+8
 2274 0346 D4F8EC21 		ldr	r2, [r4, #492]
 2275 034a CDE98835 		strd	r3, r5, [sp, #544]
 2276 034e D4F8E831 		ldr	r3, [r4, #488]
 2277 0352 5092     		str	r2, [sp, #320]
 2278 0354 8A93     		str	r3, [sp, #552]
 2279 0356 D4F80032 		ldr	r3, [r4, #512]
 2280 035a D4F8F021 		ldr	r2, [r4, #496]
 2281 035e 8D93     		str	r3, [sp, #564]
 2282 0360 D4F8FC31 		ldr	r3, [r4, #508]
 2283 0364 5192     		str	r2, [sp, #324]
 2284 0366 8E93     		str	r3, [sp, #568]
 2285 0368 D4F81032 		ldr	r3, [r4, #528]
 2286 036c D4F8F421 		ldr	r2, [r4, #500]
 2287 0370 8F93     		str	r3, [sp, #572]
 2288 0372 D4F80C32 		ldr	r3, [r4, #524]
 2289 0376 5292     		str	r2, [sp, #328]
 2290 0378 9093     		str	r3, [sp, #576]
 2291 037a 40F20143 		movw	r3, #1025
 2292 037e D4F8F821 		ldr	r2, [r4, #504]
 2293 0382 9193     		str	r3, [sp, #580]
 554:../Middlewares/stedgeai-lib/Npu/ll_aton/ll_sw_integer.c ****   }
 2294              		.loc 1 554 5 view .LVU652
 2295 0384 83A8     		add	r0, sp, #524
 548:../Middlewares/stedgeai-lib/Npu/ll_aton/ll_sw_integer.c ****         conv_layer, 1, CONV2D_TYPE, 0x0, NULL, conv2d, forward_conv2d_rgb_sssa8_ch /*_fixed*/, &con
 2296              		.loc 1 548 5 view .LVU653
 2297 0386 50AB     		add	r3, sp, #320
 2298 0388 5392     		str	r2, [sp, #332]
 2299 038a 9293     		str	r3, [sp, #584]
 554:../Middlewares/stedgeai-lib/Npu/ll_aton/ll_sw_integer.c ****   }
 2300              		.loc 1 554 5 is_stmt 1 view .LVU654
 2301 038c FFF7FEFF 		bl	forward_conv2d_rgb_sssa8_ch
 2302              	.LVL128:
 2303              	.LBE3:
 556:../Middlewares/stedgeai-lib/Npu/ll_aton/ll_sw_integer.c ****   case LL_SW_SSSA_DW_CONV:
 2304              		.loc 1 556 3 view .LVU655
 2305 0390 CDE7     		b	.L62
 2306              	.LVL129:
 2307              	.L75:
 2308              	.LBB4:
 562:../Middlewares/stedgeai-lib/Npu/ll_aton/ll_sw_integer.c ****         conv_layer, 1, CONV2D_TYPE, 0x0, NULL, conv2d, forward_dw_dm_sssa8_ch /*_fixed*/, &conv_cha
 2309              		.loc 1 562 5 view .LVU656
 2310 0392 5C4B     		ldr	r3, .L88
 2311 0394 4022     		movs	r2, #64
 2312 0396 0021     		movs	r1, #0
 2313 0398 84A8     		add	r0, sp, #528
 2314 039a 8393     		str	r3, [sp, #524]
 2315 039c FFF7FEFF 		bl	memset
 2316              	.LVL130:
ARM GAS  /tmp/ccZCp2co.s 			page 58


 562:../Middlewares/stedgeai-lib/Npu/ll_aton/ll_sw_integer.c ****         conv_layer, 1, CONV2D_TYPE, 0x0, NULL, conv2d, forward_dw_dm_sssa8_ch /*_fixed*/, &conv_cha
 2317              		.loc 1 562 5 is_stmt 0 view .LVU657
 2318 03a0 5B4B     		ldr	r3, .L88+12
 2319 03a2 D4F8EC21 		ldr	r2, [r4, #492]
 2320 03a6 CDE98835 		strd	r3, r5, [sp, #544]
 2321 03aa D4F8E831 		ldr	r3, [r4, #488]
 2322 03ae 5092     		str	r2, [sp, #320]
 2323 03b0 8A93     		str	r3, [sp, #552]
 2324 03b2 D4F80032 		ldr	r3, [r4, #512]
 2325 03b6 D4F8F021 		ldr	r2, [r4, #496]
 2326 03ba 8D93     		str	r3, [sp, #564]
 2327 03bc D4F8FC31 		ldr	r3, [r4, #508]
 2328 03c0 5192     		str	r2, [sp, #324]
 2329 03c2 8E93     		str	r3, [sp, #568]
 2330 03c4 D4F81032 		ldr	r3, [r4, #528]
 2331 03c8 D4F8F421 		ldr	r2, [r4, #500]
 2332 03cc 8F93     		str	r3, [sp, #572]
 2333 03ce D4F80C32 		ldr	r3, [r4, #524]
 2334 03d2 5292     		str	r2, [sp, #328]
 2335 03d4 9093     		str	r3, [sp, #576]
 2336 03d6 40F20143 		movw	r3, #1025
 2337 03da D4F8F821 		ldr	r2, [r4, #504]
 2338 03de 9193     		str	r3, [sp, #580]
 568:../Middlewares/stedgeai-lib/Npu/ll_aton/ll_sw_integer.c ****   }
 2339              		.loc 1 568 5 view .LVU658
 2340 03e0 83A8     		add	r0, sp, #524
 562:../Middlewares/stedgeai-lib/Npu/ll_aton/ll_sw_integer.c ****         conv_layer, 1, CONV2D_TYPE, 0x0, NULL, conv2d, forward_dw_dm_sssa8_ch /*_fixed*/, &conv_cha
 2341              		.loc 1 562 5 view .LVU659
 2342 03e2 50AB     		add	r3, sp, #320
 2343 03e4 5392     		str	r2, [sp, #332]
 2344 03e6 9293     		str	r3, [sp, #584]
 568:../Middlewares/stedgeai-lib/Npu/ll_aton/ll_sw_integer.c ****   }
 2345              		.loc 1 568 5 is_stmt 1 view .LVU660
 2346 03e8 FFF7FEFF 		bl	forward_dw_dm_sssa8_ch
 2347              	.LVL131:
 2348              	.LBE4:
 570:../Middlewares/stedgeai-lib/Npu/ll_aton/ll_sw_integer.c ****   case LL_SW_SSSA_DILATED_CONV:
 2349              		.loc 1 570 3 view .LVU661
 2350 03ec 9FE7     		b	.L62
 2351              	.LVL132:
 2352              	.L74:
 2353              	.LBB5:
 576:../Middlewares/stedgeai-lib/Npu/ll_aton/ll_sw_integer.c ****         conv_layer, 1, CONV2D_TYPE, 0x0, NULL, conv2d, forward_conv2d_dilated_sssa8_ch /*_fixed*/, 
 2354              		.loc 1 576 5 view .LVU662
 2355 03ee 454B     		ldr	r3, .L88
 2356 03f0 4022     		movs	r2, #64
 2357 03f2 0021     		movs	r1, #0
 2358 03f4 84A8     		add	r0, sp, #528
 2359 03f6 8393     		str	r3, [sp, #524]
 2360 03f8 FFF7FEFF 		bl	memset
 2361              	.LVL133:
 576:../Middlewares/stedgeai-lib/Npu/ll_aton/ll_sw_integer.c ****         conv_layer, 1, CONV2D_TYPE, 0x0, NULL, conv2d, forward_conv2d_dilated_sssa8_ch /*_fixed*/, 
 2362              		.loc 1 576 5 is_stmt 0 view .LVU663
 2363 03fc 454B     		ldr	r3, .L88+16
 2364 03fe D4F8EC21 		ldr	r2, [r4, #492]
 2365 0402 CDE98835 		strd	r3, r5, [sp, #544]
 2366 0406 D4F8E831 		ldr	r3, [r4, #488]
ARM GAS  /tmp/ccZCp2co.s 			page 59


 2367 040a 5092     		str	r2, [sp, #320]
 2368 040c 8A93     		str	r3, [sp, #552]
 2369 040e D4F80032 		ldr	r3, [r4, #512]
 2370 0412 D4F8F021 		ldr	r2, [r4, #496]
 2371 0416 8D93     		str	r3, [sp, #564]
 2372 0418 D4F8FC31 		ldr	r3, [r4, #508]
 2373 041c 5192     		str	r2, [sp, #324]
 2374 041e 8E93     		str	r3, [sp, #568]
 2375 0420 D4F81032 		ldr	r3, [r4, #528]
 2376 0424 D4F8F421 		ldr	r2, [r4, #500]
 2377 0428 8F93     		str	r3, [sp, #572]
 2378 042a D4F80C32 		ldr	r3, [r4, #524]
 2379 042e 5292     		str	r2, [sp, #328]
 2380 0430 9093     		str	r3, [sp, #576]
 2381 0432 40F20143 		movw	r3, #1025
 2382 0436 D4F8F821 		ldr	r2, [r4, #504]
 2383 043a 9193     		str	r3, [sp, #580]
 582:../Middlewares/stedgeai-lib/Npu/ll_aton/ll_sw_integer.c ****   }
 2384              		.loc 1 582 5 view .LVU664
 2385 043c 83A8     		add	r0, sp, #524
 576:../Middlewares/stedgeai-lib/Npu/ll_aton/ll_sw_integer.c ****         conv_layer, 1, CONV2D_TYPE, 0x0, NULL, conv2d, forward_conv2d_dilated_sssa8_ch /*_fixed*/, 
 2386              		.loc 1 576 5 view .LVU665
 2387 043e 50AB     		add	r3, sp, #320
 2388 0440 5392     		str	r2, [sp, #332]
 2389 0442 9293     		str	r3, [sp, #584]
 582:../Middlewares/stedgeai-lib/Npu/ll_aton/ll_sw_integer.c ****   }
 2390              		.loc 1 582 5 is_stmt 1 view .LVU666
 2391 0444 FFF7FEFF 		bl	forward_conv2d_dilated_sssa8_ch
 2392              	.LVL134:
 2393              	.LBE5:
 584:../Middlewares/stedgeai-lib/Npu/ll_aton/ll_sw_integer.c ****   case LL_SW_SSSA_GENERIC_CONV:
 2394              		.loc 1 584 3 view .LVU667
 2395 0448 71E7     		b	.L62
 2396              	.LVL135:
 2397              	.L73:
 2398              	.LBB6:
 590:../Middlewares/stedgeai-lib/Npu/ll_aton/ll_sw_integer.c ****         conv_layer, 1, CONV2D_TYPE, 0x0, NULL, conv2d, forward_conv2d_sssa8_ch /*_fixed*/, &conv_ch
 2399              		.loc 1 590 5 view .LVU668
 2400 044a 2E4B     		ldr	r3, .L88
 2401 044c 4022     		movs	r2, #64
 2402 044e 0021     		movs	r1, #0
 2403 0450 84A8     		add	r0, sp, #528
 2404 0452 8393     		str	r3, [sp, #524]
 2405 0454 FFF7FEFF 		bl	memset
 2406              	.LVL136:
 590:../Middlewares/stedgeai-lib/Npu/ll_aton/ll_sw_integer.c ****         conv_layer, 1, CONV2D_TYPE, 0x0, NULL, conv2d, forward_conv2d_sssa8_ch /*_fixed*/, &conv_ch
 2407              		.loc 1 590 5 is_stmt 0 view .LVU669
 2408 0458 2F4B     		ldr	r3, .L88+20
 2409 045a D4F8EC21 		ldr	r2, [r4, #492]
 2410 045e CDE98835 		strd	r3, r5, [sp, #544]
 2411 0462 D4F8E831 		ldr	r3, [r4, #488]
 2412 0466 5092     		str	r2, [sp, #320]
 2413 0468 8A93     		str	r3, [sp, #552]
 2414 046a D4F80032 		ldr	r3, [r4, #512]
 2415 046e D4F8F021 		ldr	r2, [r4, #496]
 2416 0472 8D93     		str	r3, [sp, #564]
 2417 0474 D4F8FC31 		ldr	r3, [r4, #508]
ARM GAS  /tmp/ccZCp2co.s 			page 60


 2418 0478 5192     		str	r2, [sp, #324]
 2419 047a 8E93     		str	r3, [sp, #568]
 2420 047c D4F81032 		ldr	r3, [r4, #528]
 2421 0480 D4F8F421 		ldr	r2, [r4, #500]
 2422 0484 8F93     		str	r3, [sp, #572]
 2423 0486 D4F80C32 		ldr	r3, [r4, #524]
 2424 048a 5292     		str	r2, [sp, #328]
 2425 048c 9093     		str	r3, [sp, #576]
 2426 048e 40F20143 		movw	r3, #1025
 2427 0492 D4F8F821 		ldr	r2, [r4, #504]
 2428 0496 9193     		str	r3, [sp, #580]
 596:../Middlewares/stedgeai-lib/Npu/ll_aton/ll_sw_integer.c ****   }
 2429              		.loc 1 596 5 view .LVU670
 2430 0498 83A8     		add	r0, sp, #524
 590:../Middlewares/stedgeai-lib/Npu/ll_aton/ll_sw_integer.c ****         conv_layer, 1, CONV2D_TYPE, 0x0, NULL, conv2d, forward_conv2d_sssa8_ch /*_fixed*/, &conv_ch
 2431              		.loc 1 590 5 view .LVU671
 2432 049a 50AB     		add	r3, sp, #320
 2433 049c 5392     		str	r2, [sp, #332]
 2434 049e 9293     		str	r3, [sp, #584]
 596:../Middlewares/stedgeai-lib/Npu/ll_aton/ll_sw_integer.c ****   }
 2435              		.loc 1 596 5 is_stmt 1 view .LVU672
 2436 04a0 FFF7FEFF 		bl	forward_conv2d_sssa8_ch
 2437              	.LVL137:
 2438              	.LBE6:
 598:../Middlewares/stedgeai-lib/Npu/ll_aton/ll_sw_integer.c ****   case LL_SW_GENERIC_CONV:
 2439              		.loc 1 598 3 view .LVU673
 2440 04a4 43E7     		b	.L62
 2441              	.LVL138:
 2442              	.L71:
 2443              	.LBB7:
 604:../Middlewares/stedgeai-lib/Npu/ll_aton/ll_sw_integer.c ****         conv_layer, 1, CONV2D_TYPE, 0x0, NULL, conv2d, forward_conv2d_integer /*_fixed*/, &conv_cha
 2444              		.loc 1 604 5 view .LVU674
 2445 04a6 174B     		ldr	r3, .L88
 2446 04a8 4022     		movs	r2, #64
 2447 04aa 0021     		movs	r1, #0
 2448 04ac 84A8     		add	r0, sp, #528
 2449 04ae 8393     		str	r3, [sp, #524]
 2450 04b0 FFF7FEFF 		bl	memset
 2451              	.LVL139:
 604:../Middlewares/stedgeai-lib/Npu/ll_aton/ll_sw_integer.c ****         conv_layer, 1, CONV2D_TYPE, 0x0, NULL, conv2d, forward_conv2d_integer /*_fixed*/, &conv_cha
 2452              		.loc 1 604 5 is_stmt 0 view .LVU675
 2453 04b4 194B     		ldr	r3, .L88+24
 2454 04b6 D4F8EC21 		ldr	r2, [r4, #492]
 2455 04ba CDE98835 		strd	r3, r5, [sp, #544]
 2456 04be D4F8E831 		ldr	r3, [r4, #488]
 2457 04c2 5092     		str	r2, [sp, #320]
 2458 04c4 8A93     		str	r3, [sp, #552]
 2459 04c6 D4F80032 		ldr	r3, [r4, #512]
 2460 04ca D4F8F021 		ldr	r2, [r4, #496]
 2461 04ce 8D93     		str	r3, [sp, #564]
 2462 04d0 D4F8FC31 		ldr	r3, [r4, #508]
 2463 04d4 5192     		str	r2, [sp, #324]
 2464 04d6 8E93     		str	r3, [sp, #568]
 2465 04d8 D4F81032 		ldr	r3, [r4, #528]
 2466 04dc D4F8F421 		ldr	r2, [r4, #500]
 2467 04e0 8F93     		str	r3, [sp, #572]
 2468 04e2 D4F80C32 		ldr	r3, [r4, #524]
ARM GAS  /tmp/ccZCp2co.s 			page 61


 2469 04e6 5292     		str	r2, [sp, #328]
 2470 04e8 9093     		str	r3, [sp, #576]
 2471 04ea 40F20143 		movw	r3, #1025
 2472 04ee D4F8F821 		ldr	r2, [r4, #504]
 2473 04f2 9193     		str	r3, [sp, #580]
 610:../Middlewares/stedgeai-lib/Npu/ll_aton/ll_sw_integer.c ****   }
 2474              		.loc 1 610 5 view .LVU676
 2475 04f4 83A8     		add	r0, sp, #524
 604:../Middlewares/stedgeai-lib/Npu/ll_aton/ll_sw_integer.c ****         conv_layer, 1, CONV2D_TYPE, 0x0, NULL, conv2d, forward_conv2d_integer /*_fixed*/, &conv_cha
 2476              		.loc 1 604 5 view .LVU677
 2477 04f6 50AB     		add	r3, sp, #320
 2478 04f8 5392     		str	r2, [sp, #332]
 2479 04fa 9293     		str	r3, [sp, #584]
 610:../Middlewares/stedgeai-lib/Npu/ll_aton/ll_sw_integer.c ****   }
 2480              		.loc 1 610 5 is_stmt 1 view .LVU678
 2481 04fc FFF7FEFF 		bl	forward_conv2d_integer
 2482              	.LVL140:
 2483              	.LBE7:
 612:../Middlewares/stedgeai-lib/Npu/ll_aton/ll_sw_integer.c ****   default:
 2484              		.loc 1 612 3 view .LVU679
 2485              		.loc 1 616 1 is_stmt 0 view .LVU680
 2486 0500 15E7     		b	.L62
 2487              	.L89:
 2488 0502 00BF     		.align	2
 2489              	.L88:
 2490 0504 03010100 		.word	65795
 2491 0508 00000000 		.word	forward_pw_sssa8_ch
 2492 050c 00000000 		.word	forward_conv2d_rgb_sssa8_ch
 2493 0510 00000000 		.word	forward_dw_dm_sssa8_ch
 2494 0514 00000000 		.word	forward_conv2d_dilated_sssa8_ch
 2495 0518 00000000 		.word	forward_conv2d_sssa8_ch
 2496 051c 00000000 		.word	forward_conv2d_integer
 2497              		.cfi_endproc
 2498              	.LFE20:
 2500              		.section	.text.ll_sw_forward_eltwise_integer,"ax",%progbits
 2501              		.align	1
 2502              		.global	ll_sw_forward_eltwise_integer
 2503              		.syntax unified
 2504              		.thumb
 2505              		.thumb_func
 2507              	ll_sw_forward_eltwise_integer:
 2508              	.LVL141:
 2509              	.LFB21:
 617:../Middlewares/stedgeai-lib/Npu/ll_aton/ll_sw_integer.c **** 
 618:../Middlewares/stedgeai-lib/Npu/ll_aton/ll_sw_integer.c **** //##########################################################################################
 619:../Middlewares/stedgeai-lib/Npu/ll_aton/ll_sw_integer.c **** /** Element Wise forward function */
 620:../Middlewares/stedgeai-lib/Npu/ll_aton/ll_sw_integer.c **** void ll_sw_forward_eltwise_integer(Eltwise_integer_sw_info *sw_info)
 621:../Middlewares/stedgeai-lib/Npu/ll_aton/ll_sw_integer.c **** {
 2510              		.loc 1 621 1 is_stmt 1 view -0
 2511              		.cfi_startproc
 2512              		@ args = 0, pretend = 0, frame = 392
 2513              		@ frame_needed = 0, uses_anonymous_args = 0
 622:../Middlewares/stedgeai-lib/Npu/ll_aton/ll_sw_integer.c ****   // array init
 623:../Middlewares/stedgeai-lib/Npu/ll_aton/ll_sw_integer.c ****   int32_t format = sw_info->general.input.format.is_signed ? (AI_ARRAY_FORMAT_S8 | AI_FMT_FLAG_IS_I
 2514              		.loc 1 623 3 view .LVU682
 621:../Middlewares/stedgeai-lib/Npu/ll_aton/ll_sw_integer.c ****   // array init
 2515              		.loc 1 621 1 is_stmt 0 view .LVU683
ARM GAS  /tmp/ccZCp2co.s 			page 62


 2516 0000 2DE9F043 		push	{r4, r5, r6, r7, r8, r9, lr}
 2517              		.cfi_def_cfa_offset 28
 2518              		.cfi_offset 4, -28
 2519              		.cfi_offset 5, -24
 2520              		.cfi_offset 6, -20
 2521              		.cfi_offset 7, -16
 2522              		.cfi_offset 8, -12
 2523              		.cfi_offset 9, -8
 2524              		.cfi_offset 14, -4
 2525              		.loc 1 623 49 view .LVU684
 2526 0004 90F82C30 		ldrb	r3, [r0, #44]	@ zero_extendqisi2
 621:../Middlewares/stedgeai-lib/Npu/ll_aton/ll_sw_integer.c ****   // array init
 2527              		.loc 1 621 1 view .LVU685
 2528 0008 E3B0     		sub	sp, sp, #396
 2529              		.cfi_def_cfa_offset 424
 624:../Middlewares/stedgeai-lib/Npu/ll_aton/ll_sw_integer.c ****                                                            : (AI_ARRAY_FORMAT_U8 | AI_FMT_FLAG_IS_I
 2530              		.loc 1 624 60 view .LVU686
 2531 000a 002B     		cmp	r3, #0
 2532 000c 00F0E780 		beq	.L107
 2533              		.loc 1 624 60 discriminator 1 view .LVU687
 2534 0010 994A     		ldr	r2, .L118
 2535              	.L91:
 2536              	.LVL142:
 625:../Middlewares/stedgeai-lib/Npu/ll_aton/ll_sw_integer.c ****   AI_ARRAY_OBJ_DECLARE(input_output_array, format, sw_info->general.input.mem.start_offset,
 2537              		.loc 1 625 3 is_stmt 1 view .LVU688
 2538 0012 1492     		str	r2, [sp, #80]
 2539 0014 4269     		ldr	r2, [r0, #20]
 2540              	.LVL143:
 2541              		.loc 1 625 3 is_stmt 0 view .LVU689
 2542 0016 14AC     		add	r4, sp, #80
 2543              	.LVL144:
 2544              		.loc 1 625 3 view .LVU690
 2545 0018 6260     		str	r2, [r4, #4]
 2546 001a 826A     		ldr	r2, [r0, #40]
 2547 001c C4E90222 		strd	r2, r2, [r4, #8]
 626:../Middlewares/stedgeai-lib/Npu/ll_aton/ll_sw_integer.c ****                        sw_info->general.input.mem.start_offset, sw_info->general.input.dim.num_elem
 627:../Middlewares/stedgeai-lib/Npu/ll_aton/ll_sw_integer.c ****   format = sw_info->operand.format.is_signed ? (AI_ARRAY_FORMAT_S8 | AI_FMT_FLAG_IS_IO)
 2548              		.loc 1 627 3 is_stmt 1 view .LVU691
 628:../Middlewares/stedgeai-lib/Npu/ll_aton/ll_sw_integer.c ****                                              : (AI_ARRAY_FORMAT_U8 | AI_FMT_FLAG_IS_IO);
 2549              		.loc 1 628 46 is_stmt 0 view .LVU692
 2550 0020 90F88420 		ldrb	r2, [r0, #132]	@ zero_extendqisi2
 2551 0024 002A     		cmp	r2, #0
 2552 0026 00F0DC80 		beq	.L108
 2553              		.loc 1 628 46 discriminator 1 view .LVU693
 2554 002a 934A     		ldr	r2, .L118
 2555              	.L92:
 2556              	.LVL145:
 629:../Middlewares/stedgeai-lib/Npu/ll_aton/ll_sw_integer.c ****   AI_ARRAY_OBJ_DECLARE(eltwise_operand_array, format, sw_info->operand.mem.start_offset,
 2557              		.loc 1 629 3 is_stmt 1 view .LVU694
 2558 002c 1892     		str	r2, [sp, #96]
 2559 002e C26E     		ldr	r2, [r0, #108]
 2560              	.LVL146:
 2561              		.loc 1 629 3 is_stmt 0 view .LVU695
 2562 0030 18A9     		add	r1, sp, #96
 2563              	.LVL147:
 2564              		.loc 1 629 3 view .LVU696
 2565 0032 4A60     		str	r2, [r1, #4]
ARM GAS  /tmp/ccZCp2co.s 			page 63


 2566 0034 D0F88020 		ldr	r2, [r0, #128]
 2567 0038 C1E90222 		strd	r2, r2, [r1, #8]
 630:../Middlewares/stedgeai-lib/Npu/ll_aton/ll_sw_integer.c ****                        sw_info->operand.mem.start_offset, sw_info->operand.dim.num_elem, )
 631:../Middlewares/stedgeai-lib/Npu/ll_aton/ll_sw_integer.c ****   format = sw_info->general.output.format.is_signed ? (AI_ARRAY_FORMAT_S8 | AI_FMT_FLAG_IS_IO)
 2568              		.loc 1 631 3 is_stmt 1 view .LVU697
 632:../Middlewares/stedgeai-lib/Npu/ll_aton/ll_sw_integer.c ****                                                     : (AI_ARRAY_FORMAT_U8 | AI_FMT_FLAG_IS_IO);
 2569              		.loc 1 632 53 is_stmt 0 view .LVU698
 2570 003c 90F85820 		ldrb	r2, [r0, #88]	@ zero_extendqisi2
 2571 0040 002A     		cmp	r2, #0
 2572 0042 00F0D080 		beq	.L109
 2573              		.loc 1 632 53 discriminator 1 view .LVU699
 2574 0046 8C4D     		ldr	r5, .L118
 2575              	.L93:
 2576              	.LVL148:
 633:../Middlewares/stedgeai-lib/Npu/ll_aton/ll_sw_integer.c ****   AI_ARRAY_OBJ_DECLARE(eltwise_output_array, format, sw_info->general.output.mem.start_offset,
 2577              		.loc 1 633 3 is_stmt 1 view .LVU700
 2578 0048 1C95     		str	r5, [sp, #112]
 2579 004a 056C     		ldr	r5, [r0, #64]
 2580              	.LVL149:
 634:../Middlewares/stedgeai-lib/Npu/ll_aton/ll_sw_integer.c ****                        sw_info->general.output.mem.start_offset, sw_info->general.output.dim.num_el
 635:../Middlewares/stedgeai-lib/Npu/ll_aton/ll_sw_integer.c **** 
 636:../Middlewares/stedgeai-lib/Npu/ll_aton/ll_sw_integer.c ****   uint16_t offset_format =
 637:../Middlewares/stedgeai-lib/Npu/ll_aton/ll_sw_integer.c ****       sw_info->is.format.is_signed ? (AI_BUFFER_META_FLAG_ZEROPOINT_S8) : (AI_BUFFER_META_FLAG_ZERO
 638:../Middlewares/stedgeai-lib/Npu/ll_aton/ll_sw_integer.c ****   uint16_t scale_format = AI_BUFFER_META_FLAG_SCALE_FLOAT;
 639:../Middlewares/stedgeai-lib/Npu/ll_aton/ll_sw_integer.c ****   ai_intq_info_list input_intq = {.flags = (offset_format | scale_format),
 640:../Middlewares/stedgeai-lib/Npu/ll_aton/ll_sw_integer.c ****                                   .size = sw_info->is.dim.num_elem,
 641:../Middlewares/stedgeai-lib/Npu/ll_aton/ll_sw_integer.c ****                                   .info = (const ai_intq_info[1]){{
 2581              		.loc 1 641 66 is_stmt 0 view .LVU701
 2582 004c D0F80461 		ldr	r6, [r0, #260]
 633:../Middlewares/stedgeai-lib/Npu/ll_aton/ll_sw_integer.c ****   AI_ARRAY_OBJ_DECLARE(eltwise_output_array, format, sw_info->general.output.mem.start_offset,
 2583              		.loc 1 633 3 view .LVU702
 2584 0050 1D95     		str	r5, [sp, #116]
 2585 0052 456D     		ldr	r5, [r0, #84]
 2586              		.loc 1 641 66 view .LVU703
 2587 0054 0696     		str	r6, [sp, #24]
 633:../Middlewares/stedgeai-lib/Npu/ll_aton/ll_sw_integer.c ****   AI_ARRAY_OBJ_DECLARE(eltwise_output_array, format, sw_info->general.output.mem.start_offset,
 2588              		.loc 1 633 3 view .LVU704
 2589 0056 CDE91E55 		strd	r5, r5, [sp, #120]
 636:../Middlewares/stedgeai-lib/Npu/ll_aton/ll_sw_integer.c ****       sw_info->is.format.is_signed ? (AI_BUFFER_META_FLAG_ZEROPOINT_S8) : (AI_BUFFER_META_FLAG_ZERO
 2590              		.loc 1 636 3 is_stmt 1 view .LVU705
 636:../Middlewares/stedgeai-lib/Npu/ll_aton/ll_sw_integer.c ****       sw_info->is.format.is_signed ? (AI_BUFFER_META_FLAG_ZEROPOINT_S8) : (AI_BUFFER_META_FLAG_ZERO
 2591              		.loc 1 636 12 is_stmt 0 view .LVU706
 2592 005a 90F80851 		ldrb	r5, [r0, #264]	@ zero_extendqisi2
 2593              		.loc 1 641 66 view .LVU707
 2594 005e D0F83061 		ldr	r6, [r0, #304]
 636:../Middlewares/stedgeai-lib/Npu/ll_aton/ll_sw_integer.c ****       sw_info->is.format.is_signed ? (AI_BUFFER_META_FLAG_ZEROPOINT_S8) : (AI_BUFFER_META_FLAG_ZERO
 2595              		.loc 1 636 12 discriminator 1 view .LVU708
 2596 0062 002D     		cmp	r5, #0
 2597 0064 0CBF     		ite	eq
 2598 0066 0225     		moveq	r5, #2
 2599 0068 0425     		movne	r5, #4
 2600              	.LVL150:
 638:../Middlewares/stedgeai-lib/Npu/ll_aton/ll_sw_integer.c ****   ai_intq_info_list input_intq = {.flags = (offset_format | scale_format),
 2601              		.loc 1 638 3 is_stmt 1 view .LVU709
 639:../Middlewares/stedgeai-lib/Npu/ll_aton/ll_sw_integer.c ****                                   .size = sw_info->is.dim.num_elem,
 2602              		.loc 1 639 3 view .LVU710
 639:../Middlewares/stedgeai-lib/Npu/ll_aton/ll_sw_integer.c ****                                   .size = sw_info->is.dim.num_elem,
ARM GAS  /tmp/ccZCp2co.s 			page 64


 2603              		.loc 1 639 21 is_stmt 0 view .LVU711
 2604 006a 45F00105 		orr	r5, r5, #1
 2605              	.LVL151:
 639:../Middlewares/stedgeai-lib/Npu/ll_aton/ll_sw_integer.c ****                                   .size = sw_info->is.dim.num_elem,
 2606              		.loc 1 639 21 view .LVU712
 2607 006e ADF81050 		strh	r5, [sp, #16]	@ movhi
 2608 0072 D0F8F050 		ldr	r5, [r0, #240]
 2609              		.loc 1 641 66 view .LVU713
 2610 0076 0796     		str	r6, [sp, #28]
 639:../Middlewares/stedgeai-lib/Npu/ll_aton/ll_sw_integer.c ****                                   .size = sw_info->is.dim.num_elem,
 2611              		.loc 1 639 21 view .LVU714
 2612 0078 ADF81250 		strh	r5, [sp, #18]	@ movhi
 2613              		.loc 1 641 66 view .LVU715
 2614 007c 06AD     		add	r5, sp, #24
 639:../Middlewares/stedgeai-lib/Npu/ll_aton/ll_sw_integer.c ****                                   .size = sw_info->is.dim.num_elem,
 2615              		.loc 1 639 21 view .LVU716
 2616 007e 0595     		str	r5, [sp, #20]
 642:../Middlewares/stedgeai-lib/Npu/ll_aton/ll_sw_integer.c ****                                       .scale = ((float *)sw_info->is.mem.start_offset),
 643:../Middlewares/stedgeai-lib/Npu/ll_aton/ll_sw_integer.c ****                                       .zeropoint = ((void *)sw_info->izp.mem.start_offset),
 644:../Middlewares/stedgeai-lib/Npu/ll_aton/ll_sw_integer.c ****                                   }}};
 645:../Middlewares/stedgeai-lib/Npu/ll_aton/ll_sw_integer.c **** 
 646:../Middlewares/stedgeai-lib/Npu/ll_aton/ll_sw_integer.c ****   offset_format =
 2617              		.loc 1 646 3 is_stmt 1 view .LVU717
 2618              		.loc 1 646 17 is_stmt 0 view .LVU718
 2619 0080 90F86051 		ldrb	r5, [r0, #352]	@ zero_extendqisi2
 647:../Middlewares/stedgeai-lib/Npu/ll_aton/ll_sw_integer.c ****       sw_info->os.format.is_signed ? (AI_BUFFER_META_FLAG_ZEROPOINT_S8) : (AI_BUFFER_META_FLAG_ZERO
 648:../Middlewares/stedgeai-lib/Npu/ll_aton/ll_sw_integer.c ****   scale_format = AI_BUFFER_META_FLAG_SCALE_FLOAT;
 649:../Middlewares/stedgeai-lib/Npu/ll_aton/ll_sw_integer.c ****   ai_intq_info_list output_intq = {.flags = (offset_format | scale_format),
 650:../Middlewares/stedgeai-lib/Npu/ll_aton/ll_sw_integer.c ****                                    .size = sw_info->os.dim.num_elem,
 651:../Middlewares/stedgeai-lib/Npu/ll_aton/ll_sw_integer.c ****                                    .info = (const ai_intq_info[1]){{
 2620              		.loc 1 651 67 view .LVU719
 2621 0084 0AAF     		add	r7, sp, #40
 646:../Middlewares/stedgeai-lib/Npu/ll_aton/ll_sw_integer.c ****       sw_info->os.format.is_signed ? (AI_BUFFER_META_FLAG_ZEROPOINT_S8) : (AI_BUFFER_META_FLAG_ZERO
 2622              		.loc 1 646 17 discriminator 1 view .LVU720
 2623 0086 002D     		cmp	r5, #0
 2624              	.LVL152:
 646:../Middlewares/stedgeai-lib/Npu/ll_aton/ll_sw_integer.c ****       sw_info->os.format.is_signed ? (AI_BUFFER_META_FLAG_ZEROPOINT_S8) : (AI_BUFFER_META_FLAG_ZERO
 2625              		.loc 1 646 17 discriminator 1 view .LVU721
 2626 0088 0CBF     		ite	eq
 2627 008a 0226     		moveq	r6, #2
 2628 008c 0426     		movne	r6, #4
 2629              	.LVL153:
 648:../Middlewares/stedgeai-lib/Npu/ll_aton/ll_sw_integer.c ****   ai_intq_info_list output_intq = {.flags = (offset_format | scale_format),
 2630              		.loc 1 648 3 is_stmt 1 view .LVU722
 649:../Middlewares/stedgeai-lib/Npu/ll_aton/ll_sw_integer.c ****                                    .size = sw_info->os.dim.num_elem,
 2631              		.loc 1 649 3 view .LVU723
 649:../Middlewares/stedgeai-lib/Npu/ll_aton/ll_sw_integer.c ****                                    .size = sw_info->os.dim.num_elem,
 2632              		.loc 1 649 21 is_stmt 0 view .LVU724
 2633 008e 46F00106 		orr	r6, r6, #1
 2634              	.LVL154:
 649:../Middlewares/stedgeai-lib/Npu/ll_aton/ll_sw_integer.c ****                                    .size = sw_info->os.dim.num_elem,
 2635              		.loc 1 649 21 view .LVU725
 2636 0092 ADF82060 		strh	r6, [sp, #32]	@ movhi
 2637 0096 D0F84861 		ldr	r6, [r0, #328]
 2638 009a 0997     		str	r7, [sp, #36]
 652:../Middlewares/stedgeai-lib/Npu/ll_aton/ll_sw_integer.c ****                                        .scale = ((float *)sw_info->os.mem.start_offset),
 653:../Middlewares/stedgeai-lib/Npu/ll_aton/ll_sw_integer.c ****                                        .zeropoint = ((void *)sw_info->ozp.mem.start_offset),
ARM GAS  /tmp/ccZCp2co.s 			page 65


 654:../Middlewares/stedgeai-lib/Npu/ll_aton/ll_sw_integer.c ****                                    }}};
 655:../Middlewares/stedgeai-lib/Npu/ll_aton/ll_sw_integer.c **** 
 656:../Middlewares/stedgeai-lib/Npu/ll_aton/ll_sw_integer.c ****   offset_format =
 2639              		.loc 1 656 3 is_stmt 1 view .LVU726
 649:../Middlewares/stedgeai-lib/Npu/ll_aton/ll_sw_integer.c ****                                    .size = sw_info->os.dim.num_elem,
 2640              		.loc 1 649 21 is_stmt 0 view .LVU727
 2641 009c ADF82260 		strh	r6, [sp, #34]	@ movhi
 651:../Middlewares/stedgeai-lib/Npu/ll_aton/ll_sw_integer.c ****                                        .scale = ((float *)sw_info->os.mem.start_offset),
 2642              		.loc 1 651 67 view .LVU728
 2643 00a0 D0F85C61 		ldr	r6, [r0, #348]
 657:../Middlewares/stedgeai-lib/Npu/ll_aton/ll_sw_integer.c ****       sw_info->operand_s.format.is_signed ? (AI_BUFFER_META_FLAG_ZEROPOINT_S8) : (AI_BUFFER_META_FL
 658:../Middlewares/stedgeai-lib/Npu/ll_aton/ll_sw_integer.c ****   scale_format = AI_BUFFER_META_FLAG_SCALE_FLOAT;
 659:../Middlewares/stedgeai-lib/Npu/ll_aton/ll_sw_integer.c ****   ai_intq_info_list operand_intq = {.flags = (offset_format | scale_format),
 660:../Middlewares/stedgeai-lib/Npu/ll_aton/ll_sw_integer.c ****                                     .size = sw_info->operand_s.dim.num_elem,
 661:../Middlewares/stedgeai-lib/Npu/ll_aton/ll_sw_integer.c ****                                     .info = (const ai_intq_info[1]){{
 2644              		.loc 1 661 68 view .LVU729
 2645 00a4 D0F8AC50 		ldr	r5, [r0, #172]
 651:../Middlewares/stedgeai-lib/Npu/ll_aton/ll_sw_integer.c ****                                        .scale = ((float *)sw_info->os.mem.start_offset),
 2646              		.loc 1 651 67 view .LVU730
 2647 00a8 0A96     		str	r6, [sp, #40]
 2648 00aa D0F88861 		ldr	r6, [r0, #392]
 2649              		.loc 1 661 68 view .LVU731
 2650 00ae 0E95     		str	r5, [sp, #56]
 651:../Middlewares/stedgeai-lib/Npu/ll_aton/ll_sw_integer.c ****                                        .scale = ((float *)sw_info->os.mem.start_offset),
 2651              		.loc 1 651 67 view .LVU732
 2652 00b0 0B96     		str	r6, [sp, #44]
 656:../Middlewares/stedgeai-lib/Npu/ll_aton/ll_sw_integer.c ****       sw_info->operand_s.format.is_signed ? (AI_BUFFER_META_FLAG_ZEROPOINT_S8) : (AI_BUFFER_META_FL
 2653              		.loc 1 656 17 view .LVU733
 2654 00b2 90F8B060 		ldrb	r6, [r0, #176]	@ zero_extendqisi2
 2655              		.loc 1 661 68 view .LVU734
 2656 00b6 D0F8D850 		ldr	r5, [r0, #216]
 656:../Middlewares/stedgeai-lib/Npu/ll_aton/ll_sw_integer.c ****       sw_info->operand_s.format.is_signed ? (AI_BUFFER_META_FLAG_ZEROPOINT_S8) : (AI_BUFFER_META_FL
 2657              		.loc 1 656 17 discriminator 1 view .LVU735
 2658 00ba 002E     		cmp	r6, #0
 2659              	.LVL155:
 656:../Middlewares/stedgeai-lib/Npu/ll_aton/ll_sw_integer.c ****       sw_info->operand_s.format.is_signed ? (AI_BUFFER_META_FLAG_ZEROPOINT_S8) : (AI_BUFFER_META_FL
 2660              		.loc 1 656 17 discriminator 1 view .LVU736
 2661 00bc 0CBF     		ite	eq
 2662 00be 0227     		moveq	r7, #2
 2663 00c0 0427     		movne	r7, #4
 2664              	.LVL156:
 658:../Middlewares/stedgeai-lib/Npu/ll_aton/ll_sw_integer.c ****   ai_intq_info_list operand_intq = {.flags = (offset_format | scale_format),
 2665              		.loc 1 658 3 is_stmt 1 view .LVU737
 659:../Middlewares/stedgeai-lib/Npu/ll_aton/ll_sw_integer.c ****                                     .size = sw_info->operand_s.dim.num_elem,
 2666              		.loc 1 659 3 view .LVU738
 659:../Middlewares/stedgeai-lib/Npu/ll_aton/ll_sw_integer.c ****                                     .size = sw_info->operand_s.dim.num_elem,
 2667              		.loc 1 659 21 is_stmt 0 view .LVU739
 2668 00c2 47F00107 		orr	r7, r7, #1
 2669              	.LVL157:
 659:../Middlewares/stedgeai-lib/Npu/ll_aton/ll_sw_integer.c ****                                     .size = sw_info->operand_s.dim.num_elem,
 2670              		.loc 1 659 21 view .LVU740
 2671 00c6 ADF83070 		strh	r7, [sp, #48]	@ movhi
 2672 00ca D0F89870 		ldr	r7, [r0, #152]
 639:../Middlewares/stedgeai-lib/Npu/ll_aton/ll_sw_integer.c ****                                   .size = sw_info->is.dim.num_elem,
 2673              		.loc 1 639 21 view .LVU741
 2674 00ce 0DF1100C 		add	ip, sp, #16
 659:../Middlewares/stedgeai-lib/Npu/ll_aton/ll_sw_integer.c ****                                     .size = sw_info->operand_s.dim.num_elem,
ARM GAS  /tmp/ccZCp2co.s 			page 66


 2675              		.loc 1 659 21 view .LVU742
 2676 00d2 ADF83270 		strh	r7, [sp, #50]	@ movhi
 2677              		.loc 1 661 68 view .LVU743
 2678 00d6 0EAF     		add	r7, sp, #56
 662:../Middlewares/stedgeai-lib/Npu/ll_aton/ll_sw_integer.c ****                                         .scale = ((float *)sw_info->operand_s.mem.start_offset),
 663:../Middlewares/stedgeai-lib/Npu/ll_aton/ll_sw_integer.c ****                                         .zeropoint = ((void *)sw_info->operand_zp.mem.start_offset)
 664:../Middlewares/stedgeai-lib/Npu/ll_aton/ll_sw_integer.c ****                                     }}};
 665:../Middlewares/stedgeai-lib/Npu/ll_aton/ll_sw_integer.c **** 
 666:../Middlewares/stedgeai-lib/Npu/ll_aton/ll_sw_integer.c ****   AI_TENSOR_OBJ_DECLARE(input_output, , 0x0, 4,
 2679              		.loc 1 666 3 view .LVU744
 2680 00d8 4FF0827E 		mov	lr, #17039360
 2681 00dc 40F20248 		movw	r8, #1026
 661:../Middlewares/stedgeai-lib/Npu/ll_aton/ll_sw_integer.c ****                                         .scale = ((float *)sw_info->operand_s.mem.start_offset),
 2682              		.loc 1 661 68 view .LVU745
 2683 00e0 0F95     		str	r5, [sp, #60]
 659:../Middlewares/stedgeai-lib/Npu/ll_aton/ll_sw_integer.c ****                                     .size = sw_info->operand_s.dim.num_elem,
 2684              		.loc 1 659 21 view .LVU746
 2685 00e2 0D97     		str	r7, [sp, #52]
 2686              		.loc 1 666 3 is_stmt 1 view .LVU747
 2687 00e4 CDF8E0C0 		str	ip, [sp, #224]
 2688 00e8 40F2014C 		movw	ip, #1025
 2689 00ec 20AF     		add	r7, sp, #128
 2690 00ee 3B97     		str	r7, [sp, #236]
 2691 00f0 476A     		ldr	r7, [r0, #36]
 2692 00f2 0569     		ldr	r5, [r0, #16]
 2693 00f4 2497     		str	r7, [sp, #144]
 2694 00f6 076A     		ldr	r7, [r0, #32]
 2695 00f8 2095     		str	r5, [sp, #128]
 2696 00fa 2597     		str	r7, [sp, #148]
 2697 00fc C769     		ldr	r7, [r0, #28]
 2698 00fe C568     		ldr	r5, [r0, #12]
 2699 0100 2697     		str	r7, [sp, #152]
 2700 0102 8769     		ldr	r7, [r0, #24]
 2701 0104 2195     		str	r5, [sp, #132]
 2702 0106 2797     		str	r7, [sp, #156]
 2703 0108 24AF     		add	r7, sp, #144
 2704 010a CDE93D74 		strd	r7, r4, [sp, #244]
 667:../Middlewares/stedgeai-lib/Npu/ll_aton/ll_sw_integer.c ****                         SHAPE_INIT(sw_info->general.input.dim.tensor_h, sw_info->general.input.dim.
 668:../Middlewares/stedgeai-lib/Npu/ll_aton/ll_sw_integer.c ****                                    sw_info->general.input.dim.tensor_c, sw_info->general.input.dim.
 669:../Middlewares/stedgeai-lib/Npu/ll_aton/ll_sw_integer.c ****                         STRIDE_INIT(sw_info->general.input.stride.h, sw_info->general.input.stride.
 670:../Middlewares/stedgeai-lib/Npu/ll_aton/ll_sw_integer.c ****                                     sw_info->general.input.stride.c, sw_info->general.input.stride.
 671:../Middlewares/stedgeai-lib/Npu/ll_aton/ll_sw_integer.c ****                         1, &input_output_array, &input_intq);
 2705              		.loc 1 671 61 view .LVU748
 672:../Middlewares/stedgeai-lib/Npu/ll_aton/ll_sw_integer.c **** 
 673:../Middlewares/stedgeai-lib/Npu/ll_aton/ll_sw_integer.c ****   AI_TENSOR_OBJ_DECLARE(eltwise_operand, , 0x0, 4,
 2706              		.loc 1 673 3 view .LVU749
 2707 010e 846E     		ldr	r4, [r0, #104]
 666:../Middlewares/stedgeai-lib/Npu/ll_aton/ll_sw_integer.c ****                         SHAPE_INIT(sw_info->general.input.dim.tensor_h, sw_info->general.input.dim.
 2708              		.loc 1 666 3 is_stmt 0 view .LVU750
 2709 0110 8568     		ldr	r5, [r0, #8]
 2710              		.loc 1 673 3 view .LVU751
 2711 0112 2894     		str	r4, [sp, #160]
 2712 0114 446E     		ldr	r4, [r0, #100]
 666:../Middlewares/stedgeai-lib/Npu/ll_aton/ll_sw_integer.c ****                         SHAPE_INIT(sw_info->general.input.dim.tensor_h, sw_info->general.input.dim.
 2713              		.loc 1 666 3 view .LVU752
 2714 0116 2295     		str	r5, [sp, #136]
 2715              		.loc 1 673 3 view .LVU753
ARM GAS  /tmp/ccZCp2co.s 			page 67


 2716 0118 2994     		str	r4, [sp, #164]
 666:../Middlewares/stedgeai-lib/Npu/ll_aton/ll_sw_integer.c ****                         SHAPE_INIT(sw_info->general.input.dim.tensor_h, sw_info->general.input.dim.
 2717              		.loc 1 666 3 view .LVU754
 2718 011a 4568     		ldr	r5, [r0, #4]
 2719              		.loc 1 673 3 view .LVU755
 2720 011c 046E     		ldr	r4, [r0, #96]
 659:../Middlewares/stedgeai-lib/Npu/ll_aton/ll_sw_integer.c ****                                     .size = sw_info->operand_s.dim.num_elem,
 2721              		.loc 1 659 21 view .LVU756
 2722 011e 0CAE     		add	r6, sp, #48
 666:../Middlewares/stedgeai-lib/Npu/ll_aton/ll_sw_integer.c ****                         SHAPE_INIT(sw_info->general.input.dim.tensor_h, sw_info->general.input.dim.
 2723              		.loc 1 666 3 view .LVU757
 2724 0120 2395     		str	r5, [sp, #140]
 2725 0122 CDE939EC 		strd	lr, ip, [sp, #228]
 2726              		.loc 1 673 3 view .LVU758
 2727 0126 CDE93F6E 		strd	r6, lr, [sp, #252]
 666:../Middlewares/stedgeai-lib/Npu/ll_aton/ll_sw_integer.c ****                         SHAPE_INIT(sw_info->general.input.dim.tensor_h, sw_info->general.input.dim.
 2728              		.loc 1 666 3 view .LVU759
 2729 012a CDF8F080 		str	r8, [sp, #240]
 2730              		.loc 1 673 3 view .LVU760
 2731 012e CDF804C1 		str	ip, [sp, #260]
 2732 0132 2A94     		str	r4, [sp, #168]
 2733 0134 C46D     		ldr	r4, [r0, #92]
 649:../Middlewares/stedgeai-lib/Npu/ll_aton/ll_sw_integer.c ****                                    .size = sw_info->os.dim.num_elem,
 2734              		.loc 1 649 21 view .LVU761
 2735 0136 0DF12009 		add	r9, sp, #32
 2736              		.loc 1 673 3 view .LVU762
 2737 013a 2B94     		str	r4, [sp, #172]
 2738 013c 28AC     		add	r4, sp, #160
 2739 013e CDE94248 		strd	r4, r8, [sp, #264]
 2740 0142 C46F     		ldr	r4, [r0, #124]
 674:../Middlewares/stedgeai-lib/Npu/ll_aton/ll_sw_integer.c ****                         SHAPE_INIT(sw_info->operand.dim.tensor_h, sw_info->operand.dim.tensor_w,
 675:../Middlewares/stedgeai-lib/Npu/ll_aton/ll_sw_integer.c ****                                    sw_info->operand.dim.tensor_c, sw_info->operand.dim.tensor_b),
 676:../Middlewares/stedgeai-lib/Npu/ll_aton/ll_sw_integer.c ****                         STRIDE_INIT(sw_info->operand.stride.h, sw_info->operand.stride.w, sw_info->
 677:../Middlewares/stedgeai-lib/Npu/ll_aton/ll_sw_integer.c ****                                     sw_info->operand.stride.b),
 678:../Middlewares/stedgeai-lib/Npu/ll_aton/ll_sw_integer.c ****                         1, &eltwise_operand_array, &operand_intq);
 679:../Middlewares/stedgeai-lib/Npu/ll_aton/ll_sw_integer.c **** 
 680:../Middlewares/stedgeai-lib/Npu/ll_aton/ll_sw_integer.c ****   AI_TENSOR_OBJ_DECLARE(eltwise_output, , 0x0, 4,
 2741              		.loc 1 680 3 view .LVU763
 2742 0144 CDE9469E 		strd	r9, lr, [sp, #280]
 673:../Middlewares/stedgeai-lib/Npu/ll_aton/ll_sw_integer.c ****                         SHAPE_INIT(sw_info->operand.dim.tensor_h, sw_info->operand.dim.tensor_w,
 2743              		.loc 1 673 3 view .LVU764
 2744 0148 2C94     		str	r4, [sp, #176]
 2745 014a 846F     		ldr	r4, [r0, #120]
 2746              		.loc 1 680 3 view .LVU765
 2747 014c CDF820C1 		str	ip, [sp, #288]
 673:../Middlewares/stedgeai-lib/Npu/ll_aton/ll_sw_integer.c ****                         SHAPE_INIT(sw_info->operand.dim.tensor_h, sw_info->operand.dim.tensor_w,
 2748              		.loc 1 673 3 view .LVU766
 2749 0150 2D94     		str	r4, [sp, #180]
 2750 0152 446F     		ldr	r4, [r0, #116]
 633:../Middlewares/stedgeai-lib/Npu/ll_aton/ll_sw_integer.c ****                        sw_info->general.output.mem.start_offset, sw_info->general.output.dim.num_el
 2751              		.loc 1 633 3 view .LVU767
 2752 0154 1CAA     		add	r2, sp, #112
 2753              	.LVL158:
 673:../Middlewares/stedgeai-lib/Npu/ll_aton/ll_sw_integer.c ****                         SHAPE_INIT(sw_info->operand.dim.tensor_h, sw_info->operand.dim.tensor_w,
 2754              		.loc 1 673 3 view .LVU768
 2755 0156 2E94     		str	r4, [sp, #184]
 2756 0158 046F     		ldr	r4, [r0, #112]
ARM GAS  /tmp/ccZCp2co.s 			page 68


 681:../Middlewares/stedgeai-lib/Npu/ll_aton/ll_sw_integer.c ****                         SHAPE_INIT(sw_info->general.output.dim.tensor_h, sw_info->general.output.di
 682:../Middlewares/stedgeai-lib/Npu/ll_aton/ll_sw_integer.c ****                                    sw_info->general.output.dim.tensor_c, sw_info->general.output.di
 683:../Middlewares/stedgeai-lib/Npu/ll_aton/ll_sw_integer.c ****                         STRIDE_INIT(sw_info->general.output.stride.h, sw_info->general.output.strid
 684:../Middlewares/stedgeai-lib/Npu/ll_aton/ll_sw_integer.c ****                                     sw_info->general.output.stride.c, sw_info->general.output.strid
 685:../Middlewares/stedgeai-lib/Npu/ll_aton/ll_sw_integer.c ****                         1, &eltwise_output_array, &output_intq);
 686:../Middlewares/stedgeai-lib/Npu/ll_aton/ll_sw_integer.c **** 
 687:../Middlewares/stedgeai-lib/Npu/ll_aton/ll_sw_integer.c ****   // tensor chain initialization
 688:../Middlewares/stedgeai-lib/Npu/ll_aton/ll_sw_integer.c ****   AI_TENSOR_CHAIN_OBJ_DECLARE(
 2757              		.loc 1 688 3 view .LVU769
 2758 015a 46AD     		add	r5, sp, #280
 673:../Middlewares/stedgeai-lib/Npu/ll_aton/ll_sw_integer.c ****                         SHAPE_INIT(sw_info->operand.dim.tensor_h, sw_info->operand.dim.tensor_w,
 2759              		.loc 1 673 3 view .LVU770
 2760 015c 2F94     		str	r4, [sp, #188]
 2761 015e 2CAC     		add	r4, sp, #176
 2762 0160 CDE94441 		strd	r4, r1, [sp, #272]
 678:../Middlewares/stedgeai-lib/Npu/ll_aton/ll_sw_integer.c **** 
 2763              		.loc 1 678 66 is_stmt 1 view .LVU771
 680:../Middlewares/stedgeai-lib/Npu/ll_aton/ll_sw_integer.c ****                         SHAPE_INIT(sw_info->general.output.dim.tensor_h, sw_info->general.output.di
 2764              		.loc 1 680 3 view .LVU772
 2765 0164 C16B     		ldr	r1, [r0, #60]
 2766              		.loc 1 688 3 is_stmt 0 view .LVU773
 2767 0166 38AC     		add	r4, sp, #224
 680:../Middlewares/stedgeai-lib/Npu/ll_aton/ll_sw_integer.c ****                         SHAPE_INIT(sw_info->general.output.dim.tensor_h, sw_info->general.output.di
 2768              		.loc 1 680 3 view .LVU774
 2769 0168 3091     		str	r1, [sp, #192]
 2770 016a 816B     		ldr	r1, [r0, #56]
 2771 016c 3191     		str	r1, [sp, #196]
 2772 016e 416B     		ldr	r1, [r0, #52]
 2773 0170 3291     		str	r1, [sp, #200]
 2774 0172 016B     		ldr	r1, [r0, #48]
 2775 0174 3391     		str	r1, [sp, #204]
 2776 0176 30A9     		add	r1, sp, #192
 2777 0178 CDE94918 		strd	r1, r8, [sp, #292]
 2778 017c 016D     		ldr	r1, [r0, #80]
 2779 017e 3491     		str	r1, [sp, #208]
 2780 0180 C16C     		ldr	r1, [r0, #76]
 2781 0182 3591     		str	r1, [sp, #212]
 2782 0184 816C     		ldr	r1, [r0, #72]
 2783 0186 3691     		str	r1, [sp, #216]
 2784 0188 416C     		ldr	r1, [r0, #68]
 2785              		.loc 1 688 3 view .LVU775
 2786 018a 1294     		str	r4, [sp, #72]
 680:../Middlewares/stedgeai-lib/Npu/ll_aton/ll_sw_integer.c ****                         SHAPE_INIT(sw_info->general.output.dim.tensor_h, sw_info->general.output.di
 2787              		.loc 1 680 3 view .LVU776
 2788 018c 3791     		str	r1, [sp, #220]
 2789 018e 34A9     		add	r1, sp, #208
 2790 0190 CDE94B12 		strd	r1, r2, [sp, #300]
 685:../Middlewares/stedgeai-lib/Npu/ll_aton/ll_sw_integer.c **** 
 2791              		.loc 1 685 64 is_stmt 1 view .LVU777
 2792              		.loc 1 688 3 view .LVU778
 2793 0194 0422     		movs	r2, #4
 2794              	.LVL159:
 2795              		.loc 1 688 3 is_stmt 0 view .LVU779
 2796 0196 1092     		str	r2, [sp, #64]
 2797 0198 0222     		movs	r2, #2
 2798 019a 3FAC     		add	r4, sp, #252
 2799 019c 5692     		str	r2, [sp, #344]
ARM GAS  /tmp/ccZCp2co.s 			page 69


 2800 019e 12AA     		add	r2, sp, #72
 2801 01a0 1394     		str	r4, [sp, #76]
 2802 01a2 5792     		str	r2, [sp, #348]
 2803 01a4 0124     		movs	r4, #1
 2804 01a6 0022     		movs	r2, #0
 2805 01a8 CDE95824 		strd	r2, r4, [sp, #352]
 2806 01ac 01AC     		add	r4, sp, #4
 2807 01ae CDE95A42 		strd	r4, r2, [sp, #360]
 689:../Middlewares/stedgeai-lib/Npu/ll_aton/ll_sw_integer.c ****       eltwise_chain, , 4, AI_TENSOR_LIST_OBJ_INIT(AI_FLAG_NONE, 2, TENSORS(&input_output), TENSORS(
 690:../Middlewares/stedgeai-lib/Npu/ll_aton/ll_sw_integer.c ****       AI_TENSOR_LIST_OBJ_INIT(AI_FLAG_NONE, 1, TENSORS(&eltwise_output)), AI_TENSOR_LIST_OBJ_EMPTY,
 691:../Middlewares/stedgeai-lib/Npu/ll_aton/ll_sw_integer.c ****       AI_TENSOR_LIST_OBJ_EMPTY)
 692:../Middlewares/stedgeai-lib/Npu/ll_aton/ll_sw_integer.c **** 
 693:../Middlewares/stedgeai-lib/Npu/ll_aton/ll_sw_integer.c ****   // layer initialization
 694:../Middlewares/stedgeai-lib/Npu/ll_aton/ll_sw_integer.c ****   switch (sw_info->general.type)
 2808              		.loc 1 694 3 view .LVU780
 2809 01b2 0078     		ldrb	r0, [r0]	@ zero_extendqisi2
 2810              	.LVL160:
 688:../Middlewares/stedgeai-lib/Npu/ll_aton/ll_sw_integer.c ****       eltwise_chain, , 4, AI_TENSOR_LIST_OBJ_INIT(AI_FLAG_NONE, 2, TENSORS(&input_output), TENSORS(
 2811              		.loc 1 688 3 view .LVU781
 2812 01b4 02AC     		add	r4, sp, #8
 2813 01b6 CDE95D42 		strd	r4, r2, [sp, #372]
 2814 01ba 03AC     		add	r4, sp, #12
 2815 01bc CDE96042 		strd	r4, r2, [sp, #384]
 2816              		.loc 1 694 3 view .LVU782
 2817 01c0 0D38     		subs	r0, r0, #13
 688:../Middlewares/stedgeai-lib/Npu/ll_aton/ll_sw_integer.c ****       eltwise_chain, , 4, AI_TENSOR_LIST_OBJ_INIT(AI_FLAG_NONE, 2, TENSORS(&input_output), TENSORS(
 2818              		.loc 1 688 3 view .LVU783
 2819 01c2 56AC     		add	r4, sp, #344
 2820 01c4 10A9     		add	r1, sp, #64
 2821 01c6 0195     		str	r5, [sp, #4]
 2822 01c8 5C92     		str	r2, [sp, #368]
 2823 01ca 0292     		str	r2, [sp, #8]
 2824 01cc 5F92     		str	r2, [sp, #380]
 2825 01ce 0392     		str	r2, [sp, #12]
 2826 01d0 4C60     		str	r4, [r1, #4]
 2827              		.loc 1 694 3 is_stmt 1 view .LVU784
 2828 01d2 0328     		cmp	r0, #3
 2829 01d4 1AD8     		bhi	.L90
 2830 01d6 DFE800F0 		tbb	[pc, r0]
 2831              	.LVL161:
 2832              	.L99:
 2833 01da 08       		.byte	(.L102-.L99)/2
 2834 01db 3E       		.byte	(.L101-.L99)/2
 2835 01dc 1E       		.byte	(.L100-.L99)/2
 2836 01dd 2E       		.byte	(.L98-.L99)/2
 2837              		.p2align 1
 2838              	.L107:
 624:../Middlewares/stedgeai-lib/Npu/ll_aton/ll_sw_integer.c ****   AI_ARRAY_OBJ_DECLARE(input_output_array, format, sw_info->general.input.mem.start_offset,
 2839              		.loc 1 624 60 is_stmt 0 discriminator 2 view .LVU785
 2840 01de 274A     		ldr	r2, .L118+4
 2841 01e0 17E7     		b	.L91
 2842              	.LVL162:
 2843              	.L108:
 628:../Middlewares/stedgeai-lib/Npu/ll_aton/ll_sw_integer.c ****   AI_ARRAY_OBJ_DECLARE(eltwise_operand_array, format, sw_info->operand.mem.start_offset,
 2844              		.loc 1 628 46 discriminator 2 view .LVU786
 2845 01e2 264A     		ldr	r2, .L118+4
 2846 01e4 22E7     		b	.L92
ARM GAS  /tmp/ccZCp2co.s 			page 70


 2847              	.LVL163:
 2848              	.L109:
 632:../Middlewares/stedgeai-lib/Npu/ll_aton/ll_sw_integer.c ****   AI_ARRAY_OBJ_DECLARE(eltwise_output_array, format, sw_info->general.output.mem.start_offset,
 2849              		.loc 1 632 53 discriminator 2 view .LVU787
 2850 01e6 254D     		ldr	r5, .L118+4
 2851 01e8 2EE7     		b	.L93
 2852              	.LVL164:
 2853              	.L102:
 2854              	.LBB8:
 695:../Middlewares/stedgeai-lib/Npu/ll_aton/ll_sw_integer.c ****   {
 696:../Middlewares/stedgeai-lib/Npu/ll_aton/ll_sw_integer.c ****   case LL_SW_ARITHSUM:
 697:../Middlewares/stedgeai-lib/Npu/ll_aton/ll_sw_integer.c ****   {
 698:../Middlewares/stedgeai-lib/Npu/ll_aton/ll_sw_integer.c ****     AI_LAYER_OBJ_DECLARE(eltwise_layer, 2, ELTWISE_INTEGER_TYPE, 0x0, NULL, eltwise_integer, forwar
 2855              		.loc 1 698 5 is_stmt 1 view .LVU788
 2856 01ea 2548     		ldr	r0, .L118+8
 2857 01ec CDE94F22 		strd	r2, r2, [sp, #316]
 2858 01f0 CDE94D02 		strd	r0, r2, [sp, #308]
 2859 01f4 5192     		str	r2, [sp, #324]
 2860 01f6 234A     		ldr	r2, .L118+12
 2861 01f8 CDE95221 		strd	r2, r1, [sp, #328]
 2862 01fc 224A     		ldr	r2, .L118+16
 2863 01fe 5492     		str	r2, [sp, #336]
 2864 0200 3BB1     		cbz	r3, .L113
 2865              		.loc 1 698 5 is_stmt 0 discriminator 1 view .LVU789
 2866 0202 224B     		ldr	r3, .L118+20
 2867              	.L106:
 2868              	.LBE8:
 2869              	.LBB9:
 699:../Middlewares/stedgeai-lib/Npu/ll_aton/ll_sw_integer.c ****                          &eltwise_chain, NULL, NULL, , .operation = ai_sum,
 700:../Middlewares/stedgeai-lib/Npu/ll_aton/ll_sw_integer.c ****                          .buffer_operation =
 701:../Middlewares/stedgeai-lib/Npu/ll_aton/ll_sw_integer.c ****                              ((sw_info->general.input.format.is_signed) ? ai_sum_buffer_INT8 : ai_s
 702:../Middlewares/stedgeai-lib/Npu/ll_aton/ll_sw_integer.c ****     eltwise_layer.forward(AI_LAYER_OBJ(&eltwise_layer));
 703:../Middlewares/stedgeai-lib/Npu/ll_aton/ll_sw_integer.c ****   }
 704:../Middlewares/stedgeai-lib/Npu/ll_aton/ll_sw_integer.c ****   break;
 705:../Middlewares/stedgeai-lib/Npu/ll_aton/ll_sw_integer.c ****   case LL_SW_ARITHMUL:
 706:../Middlewares/stedgeai-lib/Npu/ll_aton/ll_sw_integer.c ****   {
 707:../Middlewares/stedgeai-lib/Npu/ll_aton/ll_sw_integer.c ****     AI_LAYER_OBJ_DECLARE(eltwise_layer, 2, ELTWISE_INTEGER_TYPE, 0x0, NULL, eltwise_integer, forwar
 708:../Middlewares/stedgeai-lib/Npu/ll_aton/ll_sw_integer.c ****                          &eltwise_chain, NULL, NULL, , .operation = ai_mul,
 709:../Middlewares/stedgeai-lib/Npu/ll_aton/ll_sw_integer.c ****                          .buffer_operation =
 710:../Middlewares/stedgeai-lib/Npu/ll_aton/ll_sw_integer.c ****                              ((sw_info->general.input.format.is_signed) ? ai_mul_buffer_INT8 : ai_m
 711:../Middlewares/stedgeai-lib/Npu/ll_aton/ll_sw_integer.c ****     eltwise_layer.forward(AI_LAYER_OBJ(&eltwise_layer));
 712:../Middlewares/stedgeai-lib/Npu/ll_aton/ll_sw_integer.c ****     break;
 713:../Middlewares/stedgeai-lib/Npu/ll_aton/ll_sw_integer.c ****   }
 714:../Middlewares/stedgeai-lib/Npu/ll_aton/ll_sw_integer.c ****   case LL_SW_ARITHDIV:
 715:../Middlewares/stedgeai-lib/Npu/ll_aton/ll_sw_integer.c ****   {
 716:../Middlewares/stedgeai-lib/Npu/ll_aton/ll_sw_integer.c ****     AI_LAYER_OBJ_DECLARE(eltwise_layer, 2, ELTWISE_INTEGER_TYPE, 0x0, NULL, eltwise_integer, forwar
 717:../Middlewares/stedgeai-lib/Npu/ll_aton/ll_sw_integer.c ****                          &eltwise_chain, NULL, NULL, , .operation = ai_div,
 718:../Middlewares/stedgeai-lib/Npu/ll_aton/ll_sw_integer.c ****                          .buffer_operation =
 719:../Middlewares/stedgeai-lib/Npu/ll_aton/ll_sw_integer.c ****                              ((sw_info->general.input.format.is_signed) ? ai_div_buffer_INT8 : ai_d
 720:../Middlewares/stedgeai-lib/Npu/ll_aton/ll_sw_integer.c ****     eltwise_layer.forward(AI_LAYER_OBJ(&eltwise_layer));
 721:../Middlewares/stedgeai-lib/Npu/ll_aton/ll_sw_integer.c ****   }
 722:../Middlewares/stedgeai-lib/Npu/ll_aton/ll_sw_integer.c ****   break;
 723:../Middlewares/stedgeai-lib/Npu/ll_aton/ll_sw_integer.c ****   case LL_SW_ARITHSUB:
 724:../Middlewares/stedgeai-lib/Npu/ll_aton/ll_sw_integer.c ****   {
 725:../Middlewares/stedgeai-lib/Npu/ll_aton/ll_sw_integer.c ****     AI_LAYER_OBJ_DECLARE(eltwise_layer, 2, ELTWISE_INTEGER_TYPE, 0x0, NULL, eltwise_integer, forwar
 726:../Middlewares/stedgeai-lib/Npu/ll_aton/ll_sw_integer.c ****                          &eltwise_chain, NULL, NULL, , .operation = ai_sub,
 727:../Middlewares/stedgeai-lib/Npu/ll_aton/ll_sw_integer.c ****                          .buffer_operation =
ARM GAS  /tmp/ccZCp2co.s 			page 71


 728:../Middlewares/stedgeai-lib/Npu/ll_aton/ll_sw_integer.c ****                              ((sw_info->general.input.format.is_signed) ? ai_sub_buffer_INT8 : ai_s
 729:../Middlewares/stedgeai-lib/Npu/ll_aton/ll_sw_integer.c ****     eltwise_layer.forward(AI_LAYER_OBJ(&eltwise_layer));
 2870              		.loc 1 729 5 view .LVU790
 2871 0204 4DA8     		add	r0, sp, #308
 725:../Middlewares/stedgeai-lib/Npu/ll_aton/ll_sw_integer.c ****                          &eltwise_chain, NULL, NULL, , .operation = ai_sub,
 2872              		.loc 1 725 5 discriminator 4 view .LVU791
 2873 0206 5593     		str	r3, [sp, #340]
 2874              		.loc 1 729 5 is_stmt 1 view .LVU792
 2875 0208 FFF7FEFF 		bl	forward_eltwise_integer
 2876              	.LVL165:
 2877              		.loc 1 729 5 is_stmt 0 view .LVU793
 2878              	.LBE9:
 730:../Middlewares/stedgeai-lib/Npu/ll_aton/ll_sw_integer.c ****   }
 731:../Middlewares/stedgeai-lib/Npu/ll_aton/ll_sw_integer.c ****   break;
 2879              		.loc 1 731 3 is_stmt 1 view .LVU794
 2880              	.L90:
 732:../Middlewares/stedgeai-lib/Npu/ll_aton/ll_sw_integer.c ****   default:
 733:../Middlewares/stedgeai-lib/Npu/ll_aton/ll_sw_integer.c ****     break;
 734:../Middlewares/stedgeai-lib/Npu/ll_aton/ll_sw_integer.c ****   }
 735:../Middlewares/stedgeai-lib/Npu/ll_aton/ll_sw_integer.c **** }
 2881              		.loc 1 735 1 is_stmt 0 view .LVU795
 2882 020c 63B0     		add	sp, sp, #396
 2883              		.cfi_remember_state
 2884              		.cfi_def_cfa_offset 28
 2885              		@ sp needed
 2886 020e BDE8F083 		pop	{r4, r5, r6, r7, r8, r9, pc}
 2887              	.LVL166:
 2888              	.L113:
 2889              		.cfi_restore_state
 2890              	.LBB10:
 698:../Middlewares/stedgeai-lib/Npu/ll_aton/ll_sw_integer.c ****                          &eltwise_chain, NULL, NULL, , .operation = ai_sum,
 2891              		.loc 1 698 5 discriminator 2 view .LVU796
 2892 0212 1F4B     		ldr	r3, .L118+24
 2893 0214 F6E7     		b	.L106
 2894              	.L100:
 2895              	.LBE10:
 2896              	.LBB11:
 707:../Middlewares/stedgeai-lib/Npu/ll_aton/ll_sw_integer.c ****                          &eltwise_chain, NULL, NULL, , .operation = ai_mul,
 2897              		.loc 1 707 5 is_stmt 1 view .LVU797
 2898 0216 1A48     		ldr	r0, .L118+8
 2899 0218 CDE94F22 		strd	r2, r2, [sp, #316]
 2900 021c CDE94D02 		strd	r0, r2, [sp, #308]
 2901 0220 5192     		str	r2, [sp, #324]
 2902 0222 184A     		ldr	r2, .L118+12
 2903 0224 CDE95221 		strd	r2, r1, [sp, #328]
 2904 0228 1A4A     		ldr	r2, .L118+28
 2905 022a 5492     		str	r2, [sp, #336]
 2906 022c 0BB1     		cbz	r3, .L114
 707:../Middlewares/stedgeai-lib/Npu/ll_aton/ll_sw_integer.c ****                          &eltwise_chain, NULL, NULL, , .operation = ai_mul,
 2907              		.loc 1 707 5 is_stmt 0 discriminator 1 view .LVU798
 2908 022e 1A4B     		ldr	r3, .L118+32
 2909 0230 E8E7     		b	.L106
 2910              	.L114:
 707:../Middlewares/stedgeai-lib/Npu/ll_aton/ll_sw_integer.c ****                          &eltwise_chain, NULL, NULL, , .operation = ai_mul,
 2911              		.loc 1 707 5 discriminator 2 view .LVU799
 2912 0232 1A4B     		ldr	r3, .L118+36
 2913 0234 E6E7     		b	.L106
ARM GAS  /tmp/ccZCp2co.s 			page 72


 2914              	.L98:
 2915              	.LBE11:
 2916              	.LBB12:
 716:../Middlewares/stedgeai-lib/Npu/ll_aton/ll_sw_integer.c ****                          &eltwise_chain, NULL, NULL, , .operation = ai_div,
 2917              		.loc 1 716 5 is_stmt 1 view .LVU800
 2918 0236 1248     		ldr	r0, .L118+8
 2919 0238 CDE94F22 		strd	r2, r2, [sp, #316]
 2920 023c CDE94D02 		strd	r0, r2, [sp, #308]
 2921 0240 5192     		str	r2, [sp, #324]
 2922 0242 104A     		ldr	r2, .L118+12
 2923 0244 CDE95221 		strd	r2, r1, [sp, #328]
 2924 0248 154A     		ldr	r2, .L118+40
 2925 024a 5492     		str	r2, [sp, #336]
 2926 024c 0BB1     		cbz	r3, .L115
 716:../Middlewares/stedgeai-lib/Npu/ll_aton/ll_sw_integer.c ****                          &eltwise_chain, NULL, NULL, , .operation = ai_div,
 2927              		.loc 1 716 5 is_stmt 0 discriminator 1 view .LVU801
 2928 024e 154B     		ldr	r3, .L118+44
 2929 0250 D8E7     		b	.L106
 2930              	.L115:
 716:../Middlewares/stedgeai-lib/Npu/ll_aton/ll_sw_integer.c ****                          &eltwise_chain, NULL, NULL, , .operation = ai_div,
 2931              		.loc 1 716 5 discriminator 2 view .LVU802
 2932 0252 154B     		ldr	r3, .L118+48
 2933 0254 D6E7     		b	.L106
 2934              	.L101:
 2935              	.LBE12:
 2936              	.LBB13:
 725:../Middlewares/stedgeai-lib/Npu/ll_aton/ll_sw_integer.c ****                          &eltwise_chain, NULL, NULL, , .operation = ai_sub,
 2937              		.loc 1 725 5 is_stmt 1 view .LVU803
 2938 0256 0A48     		ldr	r0, .L118+8
 2939 0258 CDE94F22 		strd	r2, r2, [sp, #316]
 2940 025c CDE94D02 		strd	r0, r2, [sp, #308]
 2941 0260 5192     		str	r2, [sp, #324]
 2942 0262 084A     		ldr	r2, .L118+12
 2943 0264 CDE95221 		strd	r2, r1, [sp, #328]
 2944 0268 104A     		ldr	r2, .L118+52
 2945 026a 5492     		str	r2, [sp, #336]
 2946 026c 0BB1     		cbz	r3, .L116
 725:../Middlewares/stedgeai-lib/Npu/ll_aton/ll_sw_integer.c ****                          &eltwise_chain, NULL, NULL, , .operation = ai_sub,
 2947              		.loc 1 725 5 is_stmt 0 discriminator 1 view .LVU804
 2948 026e 104B     		ldr	r3, .L118+56
 2949 0270 C8E7     		b	.L106
 2950              	.L116:
 725:../Middlewares/stedgeai-lib/Npu/ll_aton/ll_sw_integer.c ****                          &eltwise_chain, NULL, NULL, , .operation = ai_sub,
 2951              		.loc 1 725 5 discriminator 2 view .LVU805
 2952 0272 104B     		ldr	r3, .L118+60
 2953 0274 C6E7     		b	.L106
 2954              	.L119:
 2955 0276 00BF     		.align	2
 2956              	.L118:
 2957 0278 40048408 		.word	142869568
 2958 027c 40040408 		.word	134480960
 2959 0280 14010200 		.word	131348
 2960 0284 00000000 		.word	forward_eltwise_integer
 2961 0288 00000000 		.word	ai_sum
 2962 028c 00000000 		.word	ai_sum_buffer_INT8
 2963 0290 00000000 		.word	ai_sum_buffer_UINT8
 2964 0294 00000000 		.word	ai_mul
ARM GAS  /tmp/ccZCp2co.s 			page 73


 2965 0298 00000000 		.word	ai_mul_buffer_INT8
 2966 029c 00000000 		.word	ai_mul_buffer_UINT8
 2967 02a0 00000000 		.word	ai_div
 2968 02a4 00000000 		.word	ai_div_buffer_INT8
 2969 02a8 00000000 		.word	ai_div_buffer_UINT8
 2970 02ac 00000000 		.word	ai_sub
 2971 02b0 00000000 		.word	ai_sub_buffer_INT8
 2972 02b4 00000000 		.word	ai_sub_buffer_UINT8
 2973              	.LBE13:
 2974              		.cfi_endproc
 2975              	.LFE21:
 2977              		.section	.text.ll_sw_forward_pool_integer,"ax",%progbits
 2978              		.align	1
 2979              		.global	ll_sw_forward_pool_integer
 2980              		.syntax unified
 2981              		.thumb
 2982              		.thumb_func
 2984              	ll_sw_forward_pool_integer:
 2985              	.LVL167:
 2986              	.LFB22:
 736:../Middlewares/stedgeai-lib/Npu/ll_aton/ll_sw_integer.c **** 
 737:../Middlewares/stedgeai-lib/Npu/ll_aton/ll_sw_integer.c **** //##########################################################################################
 738:../Middlewares/stedgeai-lib/Npu/ll_aton/ll_sw_integer.c **** /** Pool forward function */
 739:../Middlewares/stedgeai-lib/Npu/ll_aton/ll_sw_integer.c **** void ll_sw_forward_pool_integer(Pool_integer_sw_info *sw_info)
 740:../Middlewares/stedgeai-lib/Npu/ll_aton/ll_sw_integer.c **** {
 2987              		.loc 1 740 1 is_stmt 1 view -0
 2988              		.cfi_startproc
 2989              		@ args = 0, pretend = 0, frame = 328
 2990              		@ frame_needed = 0, uses_anonymous_args = 0
 741:../Middlewares/stedgeai-lib/Npu/ll_aton/ll_sw_integer.c ****   // array init
 742:../Middlewares/stedgeai-lib/Npu/ll_aton/ll_sw_integer.c ****   int32_t format = sw_info->general.input.format.is_signed ? (AI_ARRAY_FORMAT_S8 | AI_FMT_FLAG_IS_I
 2991              		.loc 1 742 3 view .LVU807
 740:../Middlewares/stedgeai-lib/Npu/ll_aton/ll_sw_integer.c ****   // array init
 2992              		.loc 1 740 1 is_stmt 0 view .LVU808
 2993 0000 F0B5     		push	{r4, r5, r6, r7, lr}
 2994              		.cfi_def_cfa_offset 20
 2995              		.cfi_offset 4, -20
 2996              		.cfi_offset 5, -16
 2997              		.cfi_offset 6, -12
 2998              		.cfi_offset 7, -8
 2999              		.cfi_offset 14, -4
 743:../Middlewares/stedgeai-lib/Npu/ll_aton/ll_sw_integer.c ****                                                            : (AI_ARRAY_FORMAT_U8 | AI_FMT_FLAG_IS_I
 3000              		.loc 1 743 60 view .LVU809
 3001 0002 90F82C30 		ldrb	r3, [r0, #44]	@ zero_extendqisi2
 740:../Middlewares/stedgeai-lib/Npu/ll_aton/ll_sw_integer.c ****   // array init
 3002              		.loc 1 740 1 view .LVU810
 3003 0006 0446     		mov	r4, r0
 3004 0008 D3B0     		sub	sp, sp, #332
 3005              		.cfi_def_cfa_offset 352
 3006              		.loc 1 743 60 view .LVU811
 3007 000a 002B     		cmp	r3, #0
 3008 000c 00F0C980 		beq	.L127
 3009              		.loc 1 743 60 discriminator 1 view .LVU812
 3010 0010 7A4B     		ldr	r3, .L131
 3011              	.L121:
 3012              	.LVL168:
 744:../Middlewares/stedgeai-lib/Npu/ll_aton/ll_sw_integer.c ****   AI_ARRAY_OBJ_DECLARE(input_output_array, format, sw_info->general.input.mem.start_offset,
ARM GAS  /tmp/ccZCp2co.s 			page 74


 3013              		.loc 1 744 3 is_stmt 1 view .LVU813
 3014 0012 0E93     		str	r3, [sp, #56]
 3015 0014 6369     		ldr	r3, [r4, #20]
 3016              	.LVL169:
 3017              		.loc 1 744 3 is_stmt 0 view .LVU814
 3018 0016 0EAA     		add	r2, sp, #56
 3019              	.LVL170:
 3020              		.loc 1 744 3 view .LVU815
 3021 0018 5360     		str	r3, [r2, #4]
 3022 001a A36A     		ldr	r3, [r4, #40]
 3023 001c C2E90233 		strd	r3, r3, [r2, #8]
 745:../Middlewares/stedgeai-lib/Npu/ll_aton/ll_sw_integer.c ****                        sw_info->general.input.mem.start_offset, sw_info->general.input.dim.num_elem
 746:../Middlewares/stedgeai-lib/Npu/ll_aton/ll_sw_integer.c **** 
 747:../Middlewares/stedgeai-lib/Npu/ll_aton/ll_sw_integer.c ****   format = sw_info->general.output.format.is_signed ? (AI_ARRAY_FORMAT_S8 | AI_FMT_FLAG_IS_IO)
 3024              		.loc 1 747 3 is_stmt 1 view .LVU816
 748:../Middlewares/stedgeai-lib/Npu/ll_aton/ll_sw_integer.c ****                                                     : (AI_ARRAY_FORMAT_U8 | AI_FMT_FLAG_IS_IO);
 3025              		.loc 1 748 53 is_stmt 0 view .LVU817
 3026 0020 94F85830 		ldrb	r3, [r4, #88]	@ zero_extendqisi2
 3027 0024 002B     		cmp	r3, #0
 3028 0026 00F0BE80 		beq	.L128
 3029              		.loc 1 748 53 discriminator 1 view .LVU818
 3030 002a 7449     		ldr	r1, .L131
 3031              	.L122:
 3032              	.LVL171:
 749:../Middlewares/stedgeai-lib/Npu/ll_aton/ll_sw_integer.c ****   AI_ARRAY_OBJ_DECLARE(pool_output_array, format, sw_info->general.output.mem.start_offset,
 3033              		.loc 1 749 3 is_stmt 1 view .LVU819
 3034 002c 1291     		str	r1, [sp, #72]
 3035 002e 216C     		ldr	r1, [r4, #64]
 3036              	.LVL172:
 750:../Middlewares/stedgeai-lib/Npu/ll_aton/ll_sw_integer.c ****                        sw_info->general.output.mem.start_offset, sw_info->general.output.dim.num_el
 751:../Middlewares/stedgeai-lib/Npu/ll_aton/ll_sw_integer.c **** 
 752:../Middlewares/stedgeai-lib/Npu/ll_aton/ll_sw_integer.c ****   uint16_t offset_format =
 753:../Middlewares/stedgeai-lib/Npu/ll_aton/ll_sw_integer.c ****       sw_info->is.format.is_signed ? (AI_BUFFER_META_FLAG_ZEROPOINT_S8) : (AI_BUFFER_META_FLAG_ZERO
 754:../Middlewares/stedgeai-lib/Npu/ll_aton/ll_sw_integer.c ****   uint16_t scale_format = AI_BUFFER_META_FLAG_SCALE_FLOAT;
 755:../Middlewares/stedgeai-lib/Npu/ll_aton/ll_sw_integer.c ****   ai_intq_info_list input_intq = {.flags = (offset_format | scale_format),
 756:../Middlewares/stedgeai-lib/Npu/ll_aton/ll_sw_integer.c ****                                   .size = sw_info->is.dim.num_elem,
 757:../Middlewares/stedgeai-lib/Npu/ll_aton/ll_sw_integer.c ****                                   .info = (const ai_intq_info[1]){{
 3037              		.loc 1 757 66 is_stmt 0 view .LVU820
 3038 0030 D4F88050 		ldr	r5, [r4, #128]
 749:../Middlewares/stedgeai-lib/Npu/ll_aton/ll_sw_integer.c ****   AI_ARRAY_OBJ_DECLARE(pool_output_array, format, sw_info->general.output.mem.start_offset,
 3039              		.loc 1 749 3 view .LVU821
 3040 0034 1391     		str	r1, [sp, #76]
 3041 0036 616D     		ldr	r1, [r4, #84]
 3042              		.loc 1 757 66 view .LVU822
 3043 0038 0695     		str	r5, [sp, #24]
 749:../Middlewares/stedgeai-lib/Npu/ll_aton/ll_sw_integer.c ****   AI_ARRAY_OBJ_DECLARE(pool_output_array, format, sw_info->general.output.mem.start_offset,
 3044              		.loc 1 749 3 view .LVU823
 3045 003a CDE91411 		strd	r1, r1, [sp, #80]
 752:../Middlewares/stedgeai-lib/Npu/ll_aton/ll_sw_integer.c ****       sw_info->is.format.is_signed ? (AI_BUFFER_META_FLAG_ZEROPOINT_S8) : (AI_BUFFER_META_FLAG_ZERO
 3046              		.loc 1 752 3 is_stmt 1 view .LVU824
 752:../Middlewares/stedgeai-lib/Npu/ll_aton/ll_sw_integer.c ****       sw_info->is.format.is_signed ? (AI_BUFFER_META_FLAG_ZEROPOINT_S8) : (AI_BUFFER_META_FLAG_ZERO
 3047              		.loc 1 752 12 is_stmt 0 view .LVU825
 3048 003e 94F88410 		ldrb	r1, [r4, #132]	@ zero_extendqisi2
 3049              		.loc 1 757 66 view .LVU826
 3050 0042 D4F8AC50 		ldr	r5, [r4, #172]
 752:../Middlewares/stedgeai-lib/Npu/ll_aton/ll_sw_integer.c ****       sw_info->is.format.is_signed ? (AI_BUFFER_META_FLAG_ZEROPOINT_S8) : (AI_BUFFER_META_FLAG_ZERO
 3051              		.loc 1 752 12 discriminator 1 view .LVU827
ARM GAS  /tmp/ccZCp2co.s 			page 75


 3052 0046 0029     		cmp	r1, #0
 3053 0048 0CBF     		ite	eq
 3054 004a 0221     		moveq	r1, #2
 3055 004c 0421     		movne	r1, #4
 3056              	.LVL173:
 754:../Middlewares/stedgeai-lib/Npu/ll_aton/ll_sw_integer.c ****   ai_intq_info_list input_intq = {.flags = (offset_format | scale_format),
 3057              		.loc 1 754 3 is_stmt 1 view .LVU828
 755:../Middlewares/stedgeai-lib/Npu/ll_aton/ll_sw_integer.c ****                                   .size = sw_info->is.dim.num_elem,
 3058              		.loc 1 755 3 view .LVU829
 755:../Middlewares/stedgeai-lib/Npu/ll_aton/ll_sw_integer.c ****                                   .size = sw_info->is.dim.num_elem,
 3059              		.loc 1 755 21 is_stmt 0 view .LVU830
 3060 004e 41F00101 		orr	r1, r1, #1
 3061              	.LVL174:
 755:../Middlewares/stedgeai-lib/Npu/ll_aton/ll_sw_integer.c ****                                   .size = sw_info->is.dim.num_elem,
 3062              		.loc 1 755 21 view .LVU831
 3063 0052 ADF81010 		strh	r1, [sp, #16]	@ movhi
 3064 0056 E16E     		ldr	r1, [r4, #108]
 3065              		.loc 1 757 66 view .LVU832
 3066 0058 0795     		str	r5, [sp, #28]
 755:../Middlewares/stedgeai-lib/Npu/ll_aton/ll_sw_integer.c ****                                   .size = sw_info->is.dim.num_elem,
 3067              		.loc 1 755 21 view .LVU833
 3068 005a ADF81210 		strh	r1, [sp, #18]	@ movhi
 3069              		.loc 1 757 66 view .LVU834
 3070 005e 06A9     		add	r1, sp, #24
 755:../Middlewares/stedgeai-lib/Npu/ll_aton/ll_sw_integer.c ****                                   .size = sw_info->is.dim.num_elem,
 3071              		.loc 1 755 21 view .LVU835
 3072 0060 0591     		str	r1, [sp, #20]
 758:../Middlewares/stedgeai-lib/Npu/ll_aton/ll_sw_integer.c ****                                       .scale = ((float *)sw_info->is.mem.start_offset),
 759:../Middlewares/stedgeai-lib/Npu/ll_aton/ll_sw_integer.c ****                                       .zeropoint = ((void *)sw_info->izp.mem.start_offset),
 760:../Middlewares/stedgeai-lib/Npu/ll_aton/ll_sw_integer.c ****                                   }}};
 761:../Middlewares/stedgeai-lib/Npu/ll_aton/ll_sw_integer.c **** 
 762:../Middlewares/stedgeai-lib/Npu/ll_aton/ll_sw_integer.c ****   offset_format =
 3073              		.loc 1 762 3 is_stmt 1 view .LVU836
 3074              		.loc 1 762 17 is_stmt 0 view .LVU837
 3075 0062 94F8DC10 		ldrb	r1, [r4, #220]	@ zero_extendqisi2
 763:../Middlewares/stedgeai-lib/Npu/ll_aton/ll_sw_integer.c ****       sw_info->os.format.is_signed ? (AI_BUFFER_META_FLAG_ZEROPOINT_S8) : (AI_BUFFER_META_FLAG_ZERO
 764:../Middlewares/stedgeai-lib/Npu/ll_aton/ll_sw_integer.c ****   scale_format = AI_BUFFER_META_FLAG_SCALE_FLOAT;
 765:../Middlewares/stedgeai-lib/Npu/ll_aton/ll_sw_integer.c ****   ai_intq_info_list output_intq = {.flags = (offset_format | scale_format),
 766:../Middlewares/stedgeai-lib/Npu/ll_aton/ll_sw_integer.c ****                                    .size = sw_info->os.dim.num_elem,
 767:../Middlewares/stedgeai-lib/Npu/ll_aton/ll_sw_integer.c ****                                    .info = (const ai_intq_info[1]){{
 3076              		.loc 1 767 67 view .LVU838
 3077 0066 D4F8D860 		ldr	r6, [r4, #216]
 762:../Middlewares/stedgeai-lib/Npu/ll_aton/ll_sw_integer.c ****       sw_info->os.format.is_signed ? (AI_BUFFER_META_FLAG_ZEROPOINT_S8) : (AI_BUFFER_META_FLAG_ZERO
 3078              		.loc 1 762 17 discriminator 1 view .LVU839
 3079 006a 0029     		cmp	r1, #0
 3080              	.LVL175:
 762:../Middlewares/stedgeai-lib/Npu/ll_aton/ll_sw_integer.c ****       sw_info->os.format.is_signed ? (AI_BUFFER_META_FLAG_ZEROPOINT_S8) : (AI_BUFFER_META_FLAG_ZERO
 3081              		.loc 1 762 17 discriminator 1 view .LVU840
 3082 006c 0CBF     		ite	eq
 3083 006e 0225     		moveq	r5, #2
 3084 0070 0425     		movne	r5, #4
 3085              	.LVL176:
 764:../Middlewares/stedgeai-lib/Npu/ll_aton/ll_sw_integer.c ****   ai_intq_info_list output_intq = {.flags = (offset_format | scale_format),
 3086              		.loc 1 764 3 is_stmt 1 view .LVU841
 765:../Middlewares/stedgeai-lib/Npu/ll_aton/ll_sw_integer.c ****                                    .size = sw_info->os.dim.num_elem,
 3087              		.loc 1 765 3 view .LVU842
 765:../Middlewares/stedgeai-lib/Npu/ll_aton/ll_sw_integer.c ****                                    .size = sw_info->os.dim.num_elem,
ARM GAS  /tmp/ccZCp2co.s 			page 76


 3088              		.loc 1 765 21 is_stmt 0 view .LVU843
 3089 0072 45F00105 		orr	r5, r5, #1
 3090              	.LVL177:
 765:../Middlewares/stedgeai-lib/Npu/ll_aton/ll_sw_integer.c ****                                    .size = sw_info->os.dim.num_elem,
 3091              		.loc 1 765 21 view .LVU844
 3092 0076 ADF82050 		strh	r5, [sp, #32]	@ movhi
 3093 007a D4F8C450 		ldr	r5, [r4, #196]
 3094              		.loc 1 767 67 view .LVU845
 3095 007e 0A96     		str	r6, [sp, #40]
 3096 0080 D4F80461 		ldr	r6, [r4, #260]
 765:../Middlewares/stedgeai-lib/Npu/ll_aton/ll_sw_integer.c ****                                    .size = sw_info->os.dim.num_elem,
 3097              		.loc 1 765 21 view .LVU846
 3098 0084 ADF82250 		strh	r5, [sp, #34]	@ movhi
 3099              		.loc 1 767 67 view .LVU847
 3100 0088 0AAD     		add	r5, sp, #40
 3101 008a 0B96     		str	r6, [sp, #44]
 765:../Middlewares/stedgeai-lib/Npu/ll_aton/ll_sw_integer.c ****                                    .size = sw_info->os.dim.num_elem,
 3102              		.loc 1 765 21 view .LVU848
 3103 008c 0995     		str	r5, [sp, #36]
 768:../Middlewares/stedgeai-lib/Npu/ll_aton/ll_sw_integer.c ****                                        .scale = ((float *)sw_info->os.mem.start_offset),
 769:../Middlewares/stedgeai-lib/Npu/ll_aton/ll_sw_integer.c ****                                        .zeropoint = ((void *)sw_info->ozp.mem.start_offset),
 770:../Middlewares/stedgeai-lib/Npu/ll_aton/ll_sw_integer.c ****                                    }}};
 771:../Middlewares/stedgeai-lib/Npu/ll_aton/ll_sw_integer.c **** 
 772:../Middlewares/stedgeai-lib/Npu/ll_aton/ll_sw_integer.c ****   AI_TENSOR_OBJ_DECLARE(input_output, , 0x0, 4,
 3104              		.loc 1 772 3 is_stmt 1 view .LVU849
 3105 008e 4FF08276 		mov	r6, #17039360
 3106 0092 40F20145 		movw	r5, #1025
 755:../Middlewares/stedgeai-lib/Npu/ll_aton/ll_sw_integer.c ****                                   .size = sw_info->is.dim.num_elem,
 3107              		.loc 1 755 21 is_stmt 0 view .LVU850
 3108 0096 04A8     		add	r0, sp, #16
 3109              	.LVL178:
 3110              		.loc 1 772 3 view .LVU851
 3111 0098 2A90     		str	r0, [sp, #168]
 3112 009a 2069     		ldr	r0, [r4, #16]
 3113 009c CDE92B65 		strd	r6, r5, [sp, #172]
 3114 00a0 1690     		str	r0, [sp, #88]
 3115 00a2 E068     		ldr	r0, [r4, #12]
 765:../Middlewares/stedgeai-lib/Npu/ll_aton/ll_sw_integer.c ****                                    .size = sw_info->os.dim.num_elem,
 3116              		.loc 1 765 21 view .LVU852
 3117 00a4 08A9     		add	r1, sp, #32
 3118              		.loc 1 772 3 view .LVU853
 3119 00a6 1790     		str	r0, [sp, #92]
 3120 00a8 A068     		ldr	r0, [r4, #8]
 749:../Middlewares/stedgeai-lib/Npu/ll_aton/ll_sw_integer.c ****                        sw_info->general.output.mem.start_offset, sw_info->general.output.dim.num_el
 3121              		.loc 1 749 3 view .LVU854
 3122 00aa 12AB     		add	r3, sp, #72
 3123              	.LVL179:
 3124              		.loc 1 772 3 view .LVU855
 3125 00ac 1890     		str	r0, [sp, #96]
 3126 00ae 6068     		ldr	r0, [r4, #4]
 3127 00b0 676A     		ldr	r7, [r4, #36]
 3128 00b2 1990     		str	r0, [sp, #100]
 3129 00b4 16A8     		add	r0, sp, #88
 3130 00b6 2D90     		str	r0, [sp, #180]
 3131 00b8 40F20240 		movw	r0, #1026
 3132 00bc 1A97     		str	r7, [sp, #104]
 3133 00be 276A     		ldr	r7, [r4, #32]
ARM GAS  /tmp/ccZCp2co.s 			page 77


 773:../Middlewares/stedgeai-lib/Npu/ll_aton/ll_sw_integer.c ****                         SHAPE_INIT(sw_info->general.input.dim.tensor_h, sw_info->general.input.dim.
 774:../Middlewares/stedgeai-lib/Npu/ll_aton/ll_sw_integer.c ****                                    sw_info->general.input.dim.tensor_c, sw_info->general.input.dim.
 775:../Middlewares/stedgeai-lib/Npu/ll_aton/ll_sw_integer.c ****                         STRIDE_INIT(sw_info->general.input.stride.h, sw_info->general.input.stride.
 776:../Middlewares/stedgeai-lib/Npu/ll_aton/ll_sw_integer.c ****                                     sw_info->general.input.stride.c, sw_info->general.input.stride.
 777:../Middlewares/stedgeai-lib/Npu/ll_aton/ll_sw_integer.c ****                         1, &input_output_array, &input_intq);
 778:../Middlewares/stedgeai-lib/Npu/ll_aton/ll_sw_integer.c **** 
 779:../Middlewares/stedgeai-lib/Npu/ll_aton/ll_sw_integer.c ****   AI_TENSOR_OBJ_DECLARE(pool_output, , 0x0, 4,
 3134              		.loc 1 779 3 view .LVU856
 3135 00c0 CDE93116 		strd	r1, r6, [sp, #196]
 772:../Middlewares/stedgeai-lib/Npu/ll_aton/ll_sw_integer.c ****                         SHAPE_INIT(sw_info->general.input.dim.tensor_h, sw_info->general.input.dim.
 3136              		.loc 1 772 3 view .LVU857
 3137 00c4 1B97     		str	r7, [sp, #108]
 3138 00c6 E769     		ldr	r7, [r4, #28]
 3139 00c8 2E90     		str	r0, [sp, #184]
 3140 00ca 1C97     		str	r7, [sp, #112]
 3141 00cc A769     		ldr	r7, [r4, #24]
 3142              		.loc 1 779 3 view .LVU858
 3143 00ce 3395     		str	r5, [sp, #204]
 772:../Middlewares/stedgeai-lib/Npu/ll_aton/ll_sw_integer.c ****                         SHAPE_INIT(sw_info->general.input.dim.tensor_h, sw_info->general.input.dim.
 3144              		.loc 1 772 3 view .LVU859
 3145 00d0 1D97     		str	r7, [sp, #116]
 3146 00d2 1AAF     		add	r7, sp, #104
 3147 00d4 CDE92F72 		strd	r7, r2, [sp, #188]
 777:../Middlewares/stedgeai-lib/Npu/ll_aton/ll_sw_integer.c **** 
 3148              		.loc 1 777 61 is_stmt 1 view .LVU860
 3149              		.loc 1 779 3 view .LVU861
 3150 00d8 E26B     		ldr	r2, [r4, #60]
 780:../Middlewares/stedgeai-lib/Npu/ll_aton/ll_sw_integer.c ****                         SHAPE_INIT(sw_info->general.output.dim.tensor_h, sw_info->general.output.di
 781:../Middlewares/stedgeai-lib/Npu/ll_aton/ll_sw_integer.c ****                                    sw_info->general.output.dim.tensor_c, sw_info->general.output.di
 782:../Middlewares/stedgeai-lib/Npu/ll_aton/ll_sw_integer.c ****                         STRIDE_INIT(sw_info->general.output.stride.h, sw_info->general.output.strid
 783:../Middlewares/stedgeai-lib/Npu/ll_aton/ll_sw_integer.c ****                                     sw_info->general.output.stride.c, sw_info->general.output.strid
 784:../Middlewares/stedgeai-lib/Npu/ll_aton/ll_sw_integer.c ****                         1, &pool_output_array, &output_intq);
 785:../Middlewares/stedgeai-lib/Npu/ll_aton/ll_sw_integer.c **** 
 786:../Middlewares/stedgeai-lib/Npu/ll_aton/ll_sw_integer.c ****   // tensor chain initialization
 787:../Middlewares/stedgeai-lib/Npu/ll_aton/ll_sw_integer.c ****   AI_TENSOR_CHAIN_OBJ_DECLARE(pool_chain, , 4, AI_TENSOR_LIST_OBJ_INIT(AI_FLAG_NONE, 1, TENSORS(&in
 3151              		.loc 1 787 3 is_stmt 0 view .LVU862
 3152 00da 0CAE     		add	r6, sp, #48
 779:../Middlewares/stedgeai-lib/Npu/ll_aton/ll_sw_integer.c ****                         SHAPE_INIT(sw_info->general.output.dim.tensor_h, sw_info->general.output.di
 3153              		.loc 1 779 3 view .LVU863
 3154 00dc 1E92     		str	r2, [sp, #120]
 3155 00de A26B     		ldr	r2, [r4, #56]
 3156              		.loc 1 787 3 view .LVU864
 3157 00e0 2AA9     		add	r1, sp, #168
 779:../Middlewares/stedgeai-lib/Npu/ll_aton/ll_sw_integer.c ****                         SHAPE_INIT(sw_info->general.output.dim.tensor_h, sw_info->general.output.di
 3158              		.loc 1 779 3 view .LVU865
 3159 00e2 1F92     		str	r2, [sp, #124]
 3160 00e4 626B     		ldr	r2, [r4, #52]
 3161 00e6 2092     		str	r2, [sp, #128]
 3162 00e8 226B     		ldr	r2, [r4, #48]
 3163 00ea 2192     		str	r2, [sp, #132]
 3164 00ec 1EAA     		add	r2, sp, #120
 3165 00ee CDE93420 		strd	r2, r0, [sp, #208]
 3166 00f2 226D     		ldr	r2, [r4, #80]
 3167 00f4 2292     		str	r2, [sp, #136]
 3168 00f6 E26C     		ldr	r2, [r4, #76]
 3169 00f8 2392     		str	r2, [sp, #140]
 3170 00fa A26C     		ldr	r2, [r4, #72]
ARM GAS  /tmp/ccZCp2co.s 			page 78


 3171 00fc 2492     		str	r2, [sp, #144]
 3172 00fe 626C     		ldr	r2, [r4, #68]
 3173              		.loc 1 787 3 view .LVU866
 3174 0100 0091     		str	r1, [sp]
 779:../Middlewares/stedgeai-lib/Npu/ll_aton/ll_sw_integer.c ****                         SHAPE_INIT(sw_info->general.output.dim.tensor_h, sw_info->general.output.di
 3175              		.loc 1 779 3 view .LVU867
 3176 0102 2592     		str	r2, [sp, #148]
 3177 0104 22AA     		add	r2, sp, #136
 3178 0106 CDE93623 		strd	r2, r3, [sp, #216]
 784:../Middlewares/stedgeai-lib/Npu/ll_aton/ll_sw_integer.c **** 
 3179              		.loc 1 784 61 is_stmt 1 view .LVU868
 3180              		.loc 1 787 3 view .LVU869
 3181 010a 0423     		movs	r3, #4
 3182              	.LVL180:
 3183              		.loc 1 787 3 is_stmt 0 view .LVU870
 3184 010c 0021     		movs	r1, #0
 3185 010e 3360     		str	r3, [r6]
 3186 0110 0123     		movs	r3, #1
 3187 0112 CDE93A13 		strd	r1, r3, [sp, #232]
 3188 0116 3893     		str	r3, [sp, #224]
 3189 0118 01AB     		add	r3, sp, #4
 3190 011a CDE93C31 		strd	r3, r1, [sp, #240]
 3191 011e 02AB     		add	r3, sp, #8
 3192 0120 CDE93F31 		strd	r3, r1, [sp, #252]
 3193 0124 03AB     		add	r3, sp, #12
 3194 0126 CDE94231 		strd	r3, r1, [sp, #264]
 3195 012a 38AB     		add	r3, sp, #224
 3196 012c 7360     		str	r3, [r6, #4]
 788:../Middlewares/stedgeai-lib/Npu/ll_aton/ll_sw_integer.c ****                               AI_TENSOR_LIST_OBJ_INIT(AI_FLAG_NONE, 1, TENSORS(&pool_output)), AI_T
 789:../Middlewares/stedgeai-lib/Npu/ll_aton/ll_sw_integer.c ****                               AI_TENSOR_LIST_OBJ_EMPTY)
 790:../Middlewares/stedgeai-lib/Npu/ll_aton/ll_sw_integer.c **** 
 791:../Middlewares/stedgeai-lib/Npu/ll_aton/ll_sw_integer.c ****   // layer initialization
 792:../Middlewares/stedgeai-lib/Npu/ll_aton/ll_sw_integer.c ****   switch (sw_info->general.type)
 3197              		.loc 1 792 3 is_stmt 1 view .LVU871
 3198              		.loc 1 792 27 is_stmt 0 view .LVU872
 3199 012e 2378     		ldrb	r3, [r4]	@ zero_extendqisi2
 787:../Middlewares/stedgeai-lib/Npu/ll_aton/ll_sw_integer.c ****                               AI_TENSOR_LIST_OBJ_INIT(AI_FLAG_NONE, 1, TENSORS(&pool_output)), AI_T
 3200              		.loc 1 787 3 view .LVU873
 3201 0130 31AA     		add	r2, sp, #196
 3202              		.loc 1 792 3 view .LVU874
 3203 0132 062B     		cmp	r3, #6
 3204              	.LVL181:
 787:../Middlewares/stedgeai-lib/Npu/ll_aton/ll_sw_integer.c ****                               AI_TENSOR_LIST_OBJ_INIT(AI_FLAG_NONE, 1, TENSORS(&pool_output)), AI_T
 3205              		.loc 1 787 3 view .LVU875
 3206 0134 CDF8E4D0 		str	sp, [sp, #228]
 3207 0138 0192     		str	r2, [sp, #4]
 3208 013a 3E91     		str	r1, [sp, #248]
 3209 013c 0291     		str	r1, [sp, #8]
 3210 013e 4191     		str	r1, [sp, #260]
 3211 0140 0391     		str	r1, [sp, #12]
 3212              		.loc 1 792 3 view .LVU876
 3213 0142 32D0     		beq	.L125
 3214 0144 082B     		cmp	r3, #8
 3215 0146 2AD1     		bne	.L120
 3216              	.LBB14:
 793:../Middlewares/stedgeai-lib/Npu/ll_aton/ll_sw_integer.c ****   {
 794:../Middlewares/stedgeai-lib/Npu/ll_aton/ll_sw_integer.c ****   case LL_SW_AVGPOOL:
ARM GAS  /tmp/ccZCp2co.s 			page 79


 795:../Middlewares/stedgeai-lib/Npu/ll_aton/ll_sw_integer.c ****   {
 796:../Middlewares/stedgeai-lib/Npu/ll_aton/ll_sw_integer.c ****     AI_LAYER_OBJ_DECLARE(pool_layer, 1, POOL_TYPE, 0x0, NULL, pool, forward_ap_integer, &pool_chain
 3217              		.loc 1 796 5 is_stmt 1 view .LVU877
 3218 0148 2D4B     		ldr	r3, .L131+4
 3219 014a 3422     		movs	r2, #52
 3220 014c 45A8     		add	r0, sp, #276
 3221 014e 4493     		str	r3, [sp, #272]
 3222 0150 FFF7FEFF 		bl	memset
 3223              	.LVL182:
 3224              		.loc 1 796 5 is_stmt 0 view .LVU878
 3225 0154 2B4B     		ldr	r3, .L131+8
 797:../Middlewares/stedgeai-lib/Npu/ll_aton/ll_sw_integer.c ****                          .pool_size = SHAPE_2D_INIT(sw_info->k_shape[0], sw_info->k_shape[1]),
 798:../Middlewares/stedgeai-lib/Npu/ll_aton/ll_sw_integer.c ****                          .pool_stride = SHAPE_2D_INIT(sw_info->strides[0], sw_info->strides[1]),
 799:../Middlewares/stedgeai-lib/Npu/ll_aton/ll_sw_integer.c ****                          .pool_pad = SHAPE_INIT(sw_info->pads[0], sw_info->pads[1], sw_info->pads[2
 800:../Middlewares/stedgeai-lib/Npu/ll_aton/ll_sw_integer.c ****                          .count_include_pad = sw_info->count_include_pad, )
 801:../Middlewares/stedgeai-lib/Npu/ll_aton/ll_sw_integer.c ****     pool_layer.forward(AI_LAYER_OBJ(&pool_layer));
 3226              		.loc 1 801 5 view .LVU879
 3227 0156 44A8     		add	r0, sp, #272
 796:../Middlewares/stedgeai-lib/Npu/ll_aton/ll_sw_integer.c ****                          .pool_size = SHAPE_2D_INIT(sw_info->k_shape[0], sw_info->k_shape[1]),
 3228              		.loc 1 796 5 view .LVU880
 3229 0158 CDE94936 		strd	r3, r6, [sp, #292]
 3230 015c D4F83431 		ldr	r3, [r4, #308]
 3231 0160 4B93     		str	r3, [sp, #300]
 3232 0162 D4F83031 		ldr	r3, [r4, #304]
 3233 0166 4C93     		str	r3, [sp, #304]
 3234 0168 D4F82431 		ldr	r3, [r4, #292]
 3235 016c 4D93     		str	r3, [sp, #308]
 3236 016e D4F82031 		ldr	r3, [r4, #288]
 3237 0172 CDE94E35 		strd	r3, r5, [sp, #312]
 3238 0176 D4F81C31 		ldr	r3, [r4, #284]
 3239 017a 2693     		str	r3, [sp, #152]
 3240 017c D4F81831 		ldr	r3, [r4, #280]
 3241 0180 2793     		str	r3, [sp, #156]
 3242 0182 D4F81431 		ldr	r3, [r4, #276]
 3243 0186 2893     		str	r3, [sp, #160]
 3244 0188 D4F81031 		ldr	r3, [r4, #272]
 3245 018c 2993     		str	r3, [sp, #164]
 3246 018e 26AB     		add	r3, sp, #152
 3247 0190 5093     		str	r3, [sp, #320]
 3248 0192 94F83831 		ldrb	r3, [r4, #312]	@ zero_extendqisi2
 3249 0196 8DF84431 		strb	r3, [sp, #324]
 3250              		.loc 1 801 5 is_stmt 1 view .LVU881
 3251 019a FFF7FEFF 		bl	forward_ap_integer
 3252              	.LVL183:
 3253              	.LBE14:
 802:../Middlewares/stedgeai-lib/Npu/ll_aton/ll_sw_integer.c ****   }
 803:../Middlewares/stedgeai-lib/Npu/ll_aton/ll_sw_integer.c ****   break;
 3254              		.loc 1 803 3 view .LVU882
 3255              	.L120:
 804:../Middlewares/stedgeai-lib/Npu/ll_aton/ll_sw_integer.c ****   case LL_SW_MAXPOOL:
 805:../Middlewares/stedgeai-lib/Npu/ll_aton/ll_sw_integer.c ****   {
 806:../Middlewares/stedgeai-lib/Npu/ll_aton/ll_sw_integer.c ****     AI_LAYER_OBJ_DECLARE(pool_layer, 1, POOL_TYPE, 0x0, NULL, pool, forward_mp_integer, &pool_chain
 807:../Middlewares/stedgeai-lib/Npu/ll_aton/ll_sw_integer.c ****                          .pool_size = SHAPE_2D_INIT(sw_info->k_shape[0], sw_info->k_shape[1]),
 808:../Middlewares/stedgeai-lib/Npu/ll_aton/ll_sw_integer.c ****                          .pool_stride = SHAPE_2D_INIT(sw_info->strides[0], sw_info->strides[1]),
 809:../Middlewares/stedgeai-lib/Npu/ll_aton/ll_sw_integer.c ****                          .pool_pad = SHAPE_INIT(sw_info->pads[3], sw_info->pads[2], sw_info->pads[1
 810:../Middlewares/stedgeai-lib/Npu/ll_aton/ll_sw_integer.c ****                          .count_include_pad = 0, )
 811:../Middlewares/stedgeai-lib/Npu/ll_aton/ll_sw_integer.c ****     pool_layer.forward(AI_LAYER_OBJ(&pool_layer));
ARM GAS  /tmp/ccZCp2co.s 			page 80


 812:../Middlewares/stedgeai-lib/Npu/ll_aton/ll_sw_integer.c ****   }
 813:../Middlewares/stedgeai-lib/Npu/ll_aton/ll_sw_integer.c ****   break;
 814:../Middlewares/stedgeai-lib/Npu/ll_aton/ll_sw_integer.c ****   default:
 815:../Middlewares/stedgeai-lib/Npu/ll_aton/ll_sw_integer.c ****     break;
 816:../Middlewares/stedgeai-lib/Npu/ll_aton/ll_sw_integer.c ****   }
 817:../Middlewares/stedgeai-lib/Npu/ll_aton/ll_sw_integer.c **** }
 3256              		.loc 1 817 1 is_stmt 0 view .LVU883
 3257 019e 53B0     		add	sp, sp, #332
 3258              		.cfi_remember_state
 3259              		.cfi_def_cfa_offset 20
 3260              		@ sp needed
 3261 01a0 F0BD     		pop	{r4, r5, r6, r7, pc}
 3262              	.LVL184:
 3263              	.L127:
 3264              		.cfi_restore_state
 743:../Middlewares/stedgeai-lib/Npu/ll_aton/ll_sw_integer.c ****   AI_ARRAY_OBJ_DECLARE(input_output_array, format, sw_info->general.input.mem.start_offset,
 3265              		.loc 1 743 60 discriminator 2 view .LVU884
 3266 01a2 194B     		ldr	r3, .L131+12
 3267 01a4 35E7     		b	.L121
 3268              	.LVL185:
 3269              	.L128:
 748:../Middlewares/stedgeai-lib/Npu/ll_aton/ll_sw_integer.c ****   AI_ARRAY_OBJ_DECLARE(pool_output_array, format, sw_info->general.output.mem.start_offset,
 3270              		.loc 1 748 53 discriminator 2 view .LVU885
 3271 01a6 1849     		ldr	r1, .L131+12
 3272 01a8 40E7     		b	.L122
 3273              	.LVL186:
 3274              	.L125:
 3275              	.LBB15:
 806:../Middlewares/stedgeai-lib/Npu/ll_aton/ll_sw_integer.c ****                          .pool_size = SHAPE_2D_INIT(sw_info->k_shape[0], sw_info->k_shape[1]),
 3276              		.loc 1 806 5 is_stmt 1 view .LVU886
 3277 01aa 154B     		ldr	r3, .L131+4
 3278 01ac 3422     		movs	r2, #52
 3279 01ae 45A8     		add	r0, sp, #276
 3280 01b0 4493     		str	r3, [sp, #272]
 3281 01b2 FFF7FEFF 		bl	memset
 3282              	.LVL187:
 806:../Middlewares/stedgeai-lib/Npu/ll_aton/ll_sw_integer.c ****                          .pool_size = SHAPE_2D_INIT(sw_info->k_shape[0], sw_info->k_shape[1]),
 3283              		.loc 1 806 5 is_stmt 0 view .LVU887
 3284 01b6 154B     		ldr	r3, .L131+16
 811:../Middlewares/stedgeai-lib/Npu/ll_aton/ll_sw_integer.c ****   }
 3285              		.loc 1 811 5 view .LVU888
 3286 01b8 44A8     		add	r0, sp, #272
 806:../Middlewares/stedgeai-lib/Npu/ll_aton/ll_sw_integer.c ****                          .pool_size = SHAPE_2D_INIT(sw_info->k_shape[0], sw_info->k_shape[1]),
 3287              		.loc 1 806 5 view .LVU889
 3288 01ba CDE94936 		strd	r3, r6, [sp, #292]
 3289 01be D4F83431 		ldr	r3, [r4, #308]
 3290 01c2 4B93     		str	r3, [sp, #300]
 3291 01c4 D4F83031 		ldr	r3, [r4, #304]
 3292 01c8 4C93     		str	r3, [sp, #304]
 3293 01ca D4F82431 		ldr	r3, [r4, #292]
 3294 01ce 4D93     		str	r3, [sp, #308]
 3295 01d0 D4F82031 		ldr	r3, [r4, #288]
 3296 01d4 CDE94E35 		strd	r3, r5, [sp, #312]
 3297 01d8 D4F81031 		ldr	r3, [r4, #272]
 3298 01dc 2693     		str	r3, [sp, #152]
 3299 01de D4F81431 		ldr	r3, [r4, #276]
 3300 01e2 2793     		str	r3, [sp, #156]
ARM GAS  /tmp/ccZCp2co.s 			page 81


 3301 01e4 D4F81831 		ldr	r3, [r4, #280]
 3302 01e8 2893     		str	r3, [sp, #160]
 3303 01ea D4F81C31 		ldr	r3, [r4, #284]
 3304 01ee 2993     		str	r3, [sp, #164]
 3305 01f0 26AB     		add	r3, sp, #152
 3306 01f2 5093     		str	r3, [sp, #320]
 811:../Middlewares/stedgeai-lib/Npu/ll_aton/ll_sw_integer.c ****   }
 3307              		.loc 1 811 5 is_stmt 1 view .LVU890
 3308 01f4 FFF7FEFF 		bl	forward_mp_integer
 3309              	.LVL188:
 3310              	.LBE15:
 813:../Middlewares/stedgeai-lib/Npu/ll_aton/ll_sw_integer.c ****   default:
 3311              		.loc 1 813 3 view .LVU891
 3312              		.loc 1 817 1 is_stmt 0 view .LVU892
 3313 01f8 D1E7     		b	.L120
 3314              	.L132:
 3315 01fa 00BF     		.align	2
 3316              	.L131:
 3317 01fc 40048408 		.word	142869568
 3318 0200 0B010100 		.word	65803
 3319 0204 00000000 		.word	forward_ap_integer
 3320 0208 40040408 		.word	134480960
 3321 020c 00000000 		.word	forward_mp_integer
 3322              		.cfi_endproc
 3323              	.LFE22:
 3325              		.section	.text.ll_sw_forward_global_pool_integer,"ax",%progbits
 3326              		.align	1
 3327              		.global	ll_sw_forward_global_pool_integer
 3328              		.syntax unified
 3329              		.thumb
 3330              		.thumb_func
 3332              	ll_sw_forward_global_pool_integer:
 3333              	.LVL189:
 3334              	.LFB23:
 818:../Middlewares/stedgeai-lib/Npu/ll_aton/ll_sw_integer.c **** 
 819:../Middlewares/stedgeai-lib/Npu/ll_aton/ll_sw_integer.c **** //##########################################################################################
 820:../Middlewares/stedgeai-lib/Npu/ll_aton/ll_sw_integer.c **** /** Pool forward function */
 821:../Middlewares/stedgeai-lib/Npu/ll_aton/ll_sw_integer.c **** void ll_sw_forward_global_pool_integer(Global_pool_integer_sw_info *sw_info)
 822:../Middlewares/stedgeai-lib/Npu/ll_aton/ll_sw_integer.c **** {
 3335              		.loc 1 822 1 is_stmt 1 view -0
 3336              		.cfi_startproc
 3337              		@ args = 0, pretend = 0, frame = 328
 3338              		@ frame_needed = 0, uses_anonymous_args = 0
 823:../Middlewares/stedgeai-lib/Npu/ll_aton/ll_sw_integer.c ****   // array init
 824:../Middlewares/stedgeai-lib/Npu/ll_aton/ll_sw_integer.c ****   int32_t format = sw_info->general.input.format.is_signed ? (AI_ARRAY_FORMAT_S8 | AI_FMT_FLAG_IS_I
 3339              		.loc 1 824 3 view .LVU894
 822:../Middlewares/stedgeai-lib/Npu/ll_aton/ll_sw_integer.c ****   // array init
 3340              		.loc 1 822 1 is_stmt 0 view .LVU895
 3341 0000 2DE9F043 		push	{r4, r5, r6, r7, r8, r9, lr}
 3342              		.cfi_def_cfa_offset 28
 3343              		.cfi_offset 4, -28
 3344              		.cfi_offset 5, -24
 3345              		.cfi_offset 6, -20
 3346              		.cfi_offset 7, -16
 3347              		.cfi_offset 8, -12
 3348              		.cfi_offset 9, -8
 3349              		.cfi_offset 14, -4
ARM GAS  /tmp/ccZCp2co.s 			page 82


 825:../Middlewares/stedgeai-lib/Npu/ll_aton/ll_sw_integer.c ****                                                            : (AI_ARRAY_FORMAT_U8 | AI_FMT_FLAG_IS_I
 3350              		.loc 1 825 60 view .LVU896
 3351 0004 90F82C30 		ldrb	r3, [r0, #44]	@ zero_extendqisi2
 822:../Middlewares/stedgeai-lib/Npu/ll_aton/ll_sw_integer.c ****   // array init
 3352              		.loc 1 822 1 view .LVU897
 3353 0008 D3B0     		sub	sp, sp, #332
 3354              		.cfi_def_cfa_offset 360
 3355              		.loc 1 825 60 view .LVU898
 3356 000a 002B     		cmp	r3, #0
 3357 000c 00F0BC80 		beq	.L140
 3358              		.loc 1 825 60 discriminator 1 view .LVU899
 3359 0010 6C4B     		ldr	r3, .L144
 3360              	.L134:
 3361              	.LVL190:
 826:../Middlewares/stedgeai-lib/Npu/ll_aton/ll_sw_integer.c ****   AI_ARRAY_OBJ_DECLARE(input_output_array, format, sw_info->general.input.mem.start_offset,
 3362              		.loc 1 826 3 is_stmt 1 view .LVU900
 3363 0012 0E93     		str	r3, [sp, #56]
 3364 0014 4369     		ldr	r3, [r0, #20]
 3365              	.LVL191:
 3366              		.loc 1 826 3 is_stmt 0 view .LVU901
 3367 0016 0EAA     		add	r2, sp, #56
 3368              	.LVL192:
 3369              		.loc 1 826 3 view .LVU902
 3370 0018 5360     		str	r3, [r2, #4]
 3371 001a 836A     		ldr	r3, [r0, #40]
 3372 001c C2E90233 		strd	r3, r3, [r2, #8]
 827:../Middlewares/stedgeai-lib/Npu/ll_aton/ll_sw_integer.c ****                        sw_info->general.input.mem.start_offset, sw_info->general.input.dim.num_elem
 828:../Middlewares/stedgeai-lib/Npu/ll_aton/ll_sw_integer.c **** 
 829:../Middlewares/stedgeai-lib/Npu/ll_aton/ll_sw_integer.c ****   format = sw_info->general.output.format.is_signed ? (AI_ARRAY_FORMAT_S8 | AI_FMT_FLAG_IS_IO)
 3373              		.loc 1 829 3 is_stmt 1 view .LVU903
 830:../Middlewares/stedgeai-lib/Npu/ll_aton/ll_sw_integer.c ****                                                     : (AI_ARRAY_FORMAT_U8 | AI_FMT_FLAG_IS_IO);
 3374              		.loc 1 830 53 is_stmt 0 view .LVU904
 3375 0020 90F85830 		ldrb	r3, [r0, #88]	@ zero_extendqisi2
 3376 0024 002B     		cmp	r3, #0
 3377 0026 00F0B180 		beq	.L141
 3378              		.loc 1 830 53 discriminator 1 view .LVU905
 3379 002a 6649     		ldr	r1, .L144
 3380              	.L135:
 3381              	.LVL193:
 831:../Middlewares/stedgeai-lib/Npu/ll_aton/ll_sw_integer.c ****   AI_ARRAY_OBJ_DECLARE(pool_output_array, format, sw_info->general.output.mem.start_offset,
 3382              		.loc 1 831 3 is_stmt 1 view .LVU906
 3383 002c 1291     		str	r1, [sp, #72]
 3384 002e 016C     		ldr	r1, [r0, #64]
 3385              	.LVL194:
 832:../Middlewares/stedgeai-lib/Npu/ll_aton/ll_sw_integer.c ****                        sw_info->general.output.mem.start_offset, sw_info->general.output.dim.num_el
 833:../Middlewares/stedgeai-lib/Npu/ll_aton/ll_sw_integer.c **** 
 834:../Middlewares/stedgeai-lib/Npu/ll_aton/ll_sw_integer.c ****   uint16_t offset_format =
 835:../Middlewares/stedgeai-lib/Npu/ll_aton/ll_sw_integer.c ****       sw_info->is.format.is_signed ? (AI_BUFFER_META_FLAG_ZEROPOINT_S8) : (AI_BUFFER_META_FLAG_ZERO
 836:../Middlewares/stedgeai-lib/Npu/ll_aton/ll_sw_integer.c ****   uint16_t scale_format = AI_BUFFER_META_FLAG_SCALE_FLOAT;
 837:../Middlewares/stedgeai-lib/Npu/ll_aton/ll_sw_integer.c ****   ai_intq_info_list input_intq = {.flags = (offset_format | scale_format),
 838:../Middlewares/stedgeai-lib/Npu/ll_aton/ll_sw_integer.c ****                                   .size = sw_info->is.dim.num_elem,
 839:../Middlewares/stedgeai-lib/Npu/ll_aton/ll_sw_integer.c ****                                   .info = (const ai_intq_info[1]){{
 3386              		.loc 1 839 66 is_stmt 0 view .LVU907
 3387 0030 D0F88050 		ldr	r5, [r0, #128]
 831:../Middlewares/stedgeai-lib/Npu/ll_aton/ll_sw_integer.c ****   AI_ARRAY_OBJ_DECLARE(pool_output_array, format, sw_info->general.output.mem.start_offset,
 3388              		.loc 1 831 3 view .LVU908
 3389 0034 1391     		str	r1, [sp, #76]
ARM GAS  /tmp/ccZCp2co.s 			page 83


 3390 0036 416D     		ldr	r1, [r0, #84]
 3391              		.loc 1 839 66 view .LVU909
 3392 0038 0695     		str	r5, [sp, #24]
 831:../Middlewares/stedgeai-lib/Npu/ll_aton/ll_sw_integer.c ****   AI_ARRAY_OBJ_DECLARE(pool_output_array, format, sw_info->general.output.mem.start_offset,
 3393              		.loc 1 831 3 view .LVU910
 3394 003a CDE91411 		strd	r1, r1, [sp, #80]
 834:../Middlewares/stedgeai-lib/Npu/ll_aton/ll_sw_integer.c ****       sw_info->is.format.is_signed ? (AI_BUFFER_META_FLAG_ZEROPOINT_S8) : (AI_BUFFER_META_FLAG_ZERO
 3395              		.loc 1 834 3 is_stmt 1 view .LVU911
 834:../Middlewares/stedgeai-lib/Npu/ll_aton/ll_sw_integer.c ****       sw_info->is.format.is_signed ? (AI_BUFFER_META_FLAG_ZEROPOINT_S8) : (AI_BUFFER_META_FLAG_ZERO
 3396              		.loc 1 834 12 is_stmt 0 view .LVU912
 3397 003e 90F88410 		ldrb	r1, [r0, #132]	@ zero_extendqisi2
 3398              		.loc 1 839 66 view .LVU913
 3399 0042 D0F8AC50 		ldr	r5, [r0, #172]
 834:../Middlewares/stedgeai-lib/Npu/ll_aton/ll_sw_integer.c ****       sw_info->is.format.is_signed ? (AI_BUFFER_META_FLAG_ZEROPOINT_S8) : (AI_BUFFER_META_FLAG_ZERO
 3400              		.loc 1 834 12 discriminator 1 view .LVU914
 3401 0046 0029     		cmp	r1, #0
 3402 0048 0CBF     		ite	eq
 3403 004a 0221     		moveq	r1, #2
 3404 004c 0421     		movne	r1, #4
 3405              	.LVL195:
 836:../Middlewares/stedgeai-lib/Npu/ll_aton/ll_sw_integer.c ****   ai_intq_info_list input_intq = {.flags = (offset_format | scale_format),
 3406              		.loc 1 836 3 is_stmt 1 view .LVU915
 837:../Middlewares/stedgeai-lib/Npu/ll_aton/ll_sw_integer.c ****                                   .size = sw_info->is.dim.num_elem,
 3407              		.loc 1 837 3 view .LVU916
 837:../Middlewares/stedgeai-lib/Npu/ll_aton/ll_sw_integer.c ****                                   .size = sw_info->is.dim.num_elem,
 3408              		.loc 1 837 21 is_stmt 0 view .LVU917
 3409 004e 41F00101 		orr	r1, r1, #1
 3410              	.LVL196:
 837:../Middlewares/stedgeai-lib/Npu/ll_aton/ll_sw_integer.c ****                                   .size = sw_info->is.dim.num_elem,
 3411              		.loc 1 837 21 view .LVU918
 3412 0052 ADF81010 		strh	r1, [sp, #16]	@ movhi
 3413 0056 C16E     		ldr	r1, [r0, #108]
 3414              		.loc 1 839 66 view .LVU919
 3415 0058 0795     		str	r5, [sp, #28]
 837:../Middlewares/stedgeai-lib/Npu/ll_aton/ll_sw_integer.c ****                                   .size = sw_info->is.dim.num_elem,
 3416              		.loc 1 837 21 view .LVU920
 3417 005a ADF81210 		strh	r1, [sp, #18]	@ movhi
 3418              		.loc 1 839 66 view .LVU921
 3419 005e 06A9     		add	r1, sp, #24
 837:../Middlewares/stedgeai-lib/Npu/ll_aton/ll_sw_integer.c ****                                   .size = sw_info->is.dim.num_elem,
 3420              		.loc 1 837 21 view .LVU922
 3421 0060 0591     		str	r1, [sp, #20]
 840:../Middlewares/stedgeai-lib/Npu/ll_aton/ll_sw_integer.c ****                                       .scale = ((float *)sw_info->is.mem.start_offset),
 841:../Middlewares/stedgeai-lib/Npu/ll_aton/ll_sw_integer.c ****                                       .zeropoint = ((void *)sw_info->izp.mem.start_offset),
 842:../Middlewares/stedgeai-lib/Npu/ll_aton/ll_sw_integer.c ****                                   }}};
 843:../Middlewares/stedgeai-lib/Npu/ll_aton/ll_sw_integer.c **** 
 844:../Middlewares/stedgeai-lib/Npu/ll_aton/ll_sw_integer.c ****   offset_format =
 3422              		.loc 1 844 3 is_stmt 1 view .LVU923
 3423              		.loc 1 844 17 is_stmt 0 view .LVU924
 3424 0062 90F8DC10 		ldrb	r1, [r0, #220]	@ zero_extendqisi2
 845:../Middlewares/stedgeai-lib/Npu/ll_aton/ll_sw_integer.c ****       sw_info->os.format.is_signed ? (AI_BUFFER_META_FLAG_ZEROPOINT_S8) : (AI_BUFFER_META_FLAG_ZERO
 846:../Middlewares/stedgeai-lib/Npu/ll_aton/ll_sw_integer.c ****   scale_format = AI_BUFFER_META_FLAG_SCALE_FLOAT;
 847:../Middlewares/stedgeai-lib/Npu/ll_aton/ll_sw_integer.c ****   ai_intq_info_list output_intq = {.flags = (offset_format | scale_format),
 848:../Middlewares/stedgeai-lib/Npu/ll_aton/ll_sw_integer.c ****                                    .size = sw_info->os.dim.num_elem,
 849:../Middlewares/stedgeai-lib/Npu/ll_aton/ll_sw_integer.c ****                                    .info = (const ai_intq_info[1]){{
 3425              		.loc 1 849 67 view .LVU925
 3426 0066 D0F8D860 		ldr	r6, [r0, #216]
ARM GAS  /tmp/ccZCp2co.s 			page 84


 844:../Middlewares/stedgeai-lib/Npu/ll_aton/ll_sw_integer.c ****       sw_info->os.format.is_signed ? (AI_BUFFER_META_FLAG_ZEROPOINT_S8) : (AI_BUFFER_META_FLAG_ZERO
 3427              		.loc 1 844 17 discriminator 1 view .LVU926
 3428 006a 0029     		cmp	r1, #0
 3429              	.LVL197:
 844:../Middlewares/stedgeai-lib/Npu/ll_aton/ll_sw_integer.c ****       sw_info->os.format.is_signed ? (AI_BUFFER_META_FLAG_ZEROPOINT_S8) : (AI_BUFFER_META_FLAG_ZERO
 3430              		.loc 1 844 17 discriminator 1 view .LVU927
 3431 006c 0CBF     		ite	eq
 3432 006e 0225     		moveq	r5, #2
 3433 0070 0425     		movne	r5, #4
 3434              	.LVL198:
 846:../Middlewares/stedgeai-lib/Npu/ll_aton/ll_sw_integer.c ****   ai_intq_info_list output_intq = {.flags = (offset_format | scale_format),
 3435              		.loc 1 846 3 is_stmt 1 view .LVU928
 847:../Middlewares/stedgeai-lib/Npu/ll_aton/ll_sw_integer.c ****                                    .size = sw_info->os.dim.num_elem,
 3436              		.loc 1 847 3 view .LVU929
 3437              		.loc 1 849 67 is_stmt 0 view .LVU930
 3438 0072 0A96     		str	r6, [sp, #40]
 3439 0074 D0F80461 		ldr	r6, [r0, #260]
 850:../Middlewares/stedgeai-lib/Npu/ll_aton/ll_sw_integer.c ****                                        .scale = ((float *)sw_info->os.mem.start_offset),
 851:../Middlewares/stedgeai-lib/Npu/ll_aton/ll_sw_integer.c ****                                        .zeropoint = ((void *)sw_info->ozp.mem.start_offset),
 852:../Middlewares/stedgeai-lib/Npu/ll_aton/ll_sw_integer.c ****                                    }}};
 853:../Middlewares/stedgeai-lib/Npu/ll_aton/ll_sw_integer.c **** 
 854:../Middlewares/stedgeai-lib/Npu/ll_aton/ll_sw_integer.c ****   AI_TENSOR_OBJ_DECLARE(input_output, , 0x0, 4,
 3440              		.loc 1 854 3 view .LVU931
 3441 0078 4FF08277 		mov	r7, #17039360
 849:../Middlewares/stedgeai-lib/Npu/ll_aton/ll_sw_integer.c ****                                        .scale = ((float *)sw_info->os.mem.start_offset),
 3442              		.loc 1 849 67 view .LVU932
 3443 007c 0B96     		str	r6, [sp, #44]
 3444              		.loc 1 854 3 view .LVU933
 3445 007e 40F20146 		movw	r6, #1025
 847:../Middlewares/stedgeai-lib/Npu/ll_aton/ll_sw_integer.c ****                                    .size = sw_info->os.dim.num_elem,
 3446              		.loc 1 847 21 view .LVU934
 3447 0082 45F00105 		orr	r5, r5, #1
 3448              	.LVL199:
 847:../Middlewares/stedgeai-lib/Npu/ll_aton/ll_sw_integer.c ****                                    .size = sw_info->os.dim.num_elem,
 3449              		.loc 1 847 21 view .LVU935
 3450 0086 ADF82050 		strh	r5, [sp, #32]	@ movhi
 3451 008a D0F8C450 		ldr	r5, [r0, #196]
 837:../Middlewares/stedgeai-lib/Npu/ll_aton/ll_sw_integer.c ****                                   .size = sw_info->is.dim.num_elem,
 3452              		.loc 1 837 21 view .LVU936
 3453 008e 04AC     		add	r4, sp, #16
 847:../Middlewares/stedgeai-lib/Npu/ll_aton/ll_sw_integer.c ****                                    .size = sw_info->os.dim.num_elem,
 3454              		.loc 1 847 21 view .LVU937
 3455 0090 ADF82250 		strh	r5, [sp, #34]	@ movhi
 849:../Middlewares/stedgeai-lib/Npu/ll_aton/ll_sw_integer.c ****                                        .scale = ((float *)sw_info->os.mem.start_offset),
 3456              		.loc 1 849 67 view .LVU938
 3457 0094 0AAD     		add	r5, sp, #40
 847:../Middlewares/stedgeai-lib/Npu/ll_aton/ll_sw_integer.c ****                                    .size = sw_info->os.dim.num_elem,
 3458              		.loc 1 847 21 view .LVU939
 3459 0096 0995     		str	r5, [sp, #36]
 3460              		.loc 1 854 3 is_stmt 1 view .LVU940
 3461 0098 40F20245 		movw	r5, #1026
 3462 009c 2A94     		str	r4, [sp, #168]
 3463 009e 0469     		ldr	r4, [r0, #16]
 3464 00a0 D0F80890 		ldr	r9, [r0, #8]
 3465 00a4 1694     		str	r4, [sp, #88]
 3466 00a6 C468     		ldr	r4, [r0, #12]
 3467 00a8 CDE92B76 		strd	r7, r6, [sp, #172]
ARM GAS  /tmp/ccZCp2co.s 			page 85


 3468 00ac 1794     		str	r4, [sp, #92]
 3469 00ae 16AC     		add	r4, sp, #88
 3470 00b0 CDF86090 		str	r9, [sp, #96]
 3471 00b4 2D94     		str	r4, [sp, #180]
 3472 00b6 446A     		ldr	r4, [r0, #36]
 3473 00b8 D0F80480 		ldr	r8, [r0, #4]
 3474 00bc 1A94     		str	r4, [sp, #104]
 3475 00be 046A     		ldr	r4, [r0, #32]
 847:../Middlewares/stedgeai-lib/Npu/ll_aton/ll_sw_integer.c ****                                    .size = sw_info->os.dim.num_elem,
 3476              		.loc 1 847 21 is_stmt 0 view .LVU941
 3477 00c0 08A9     		add	r1, sp, #32
 3478              		.loc 1 854 3 view .LVU942
 3479 00c2 1B94     		str	r4, [sp, #108]
 3480 00c4 C469     		ldr	r4, [r0, #28]
 855:../Middlewares/stedgeai-lib/Npu/ll_aton/ll_sw_integer.c ****                         SHAPE_INIT(sw_info->general.input.dim.tensor_h, sw_info->general.input.dim.
 856:../Middlewares/stedgeai-lib/Npu/ll_aton/ll_sw_integer.c ****                                    sw_info->general.input.dim.tensor_c, sw_info->general.input.dim.
 857:../Middlewares/stedgeai-lib/Npu/ll_aton/ll_sw_integer.c ****                         STRIDE_INIT(sw_info->general.input.stride.h, sw_info->general.input.stride.
 858:../Middlewares/stedgeai-lib/Npu/ll_aton/ll_sw_integer.c ****                                     sw_info->general.input.stride.c, sw_info->general.input.stride.
 859:../Middlewares/stedgeai-lib/Npu/ll_aton/ll_sw_integer.c ****                         1, &input_output_array, &input_intq);
 860:../Middlewares/stedgeai-lib/Npu/ll_aton/ll_sw_integer.c **** 
 861:../Middlewares/stedgeai-lib/Npu/ll_aton/ll_sw_integer.c ****   AI_TENSOR_OBJ_DECLARE(pool_output, , 0x0, 4,
 3481              		.loc 1 861 3 view .LVU943
 3482 00c6 CDE93117 		strd	r1, r7, [sp, #196]
 854:../Middlewares/stedgeai-lib/Npu/ll_aton/ll_sw_integer.c ****                         SHAPE_INIT(sw_info->general.input.dim.tensor_h, sw_info->general.input.dim.
 3483              		.loc 1 854 3 view .LVU944
 3484 00ca 1C94     		str	r4, [sp, #112]
 3485 00cc 8469     		ldr	r4, [r0, #24]
 3486 00ce 2E95     		str	r5, [sp, #184]
 3487 00d0 1D94     		str	r4, [sp, #116]
 3488 00d2 1AAC     		add	r4, sp, #104
 3489 00d4 CDE92F42 		strd	r4, r2, [sp, #188]
 859:../Middlewares/stedgeai-lib/Npu/ll_aton/ll_sw_integer.c **** 
 3490              		.loc 1 859 61 is_stmt 1 view .LVU945
 3491              		.loc 1 861 3 view .LVU946
 3492 00d8 C26B     		ldr	r2, [r0, #60]
 854:../Middlewares/stedgeai-lib/Npu/ll_aton/ll_sw_integer.c ****                         SHAPE_INIT(sw_info->general.input.dim.tensor_h, sw_info->general.input.dim.
 3493              		.loc 1 854 3 is_stmt 0 view .LVU947
 3494 00da CDF86480 		str	r8, [sp, #100]
 3495              		.loc 1 861 3 view .LVU948
 3496 00de 1E92     		str	r2, [sp, #120]
 3497 00e0 826B     		ldr	r2, [r0, #56]
 3498 00e2 3396     		str	r6, [sp, #204]
 3499 00e4 1F92     		str	r2, [sp, #124]
 3500 00e6 426B     		ldr	r2, [r0, #52]
 831:../Middlewares/stedgeai-lib/Npu/ll_aton/ll_sw_integer.c ****                        sw_info->general.output.mem.start_offset, sw_info->general.output.dim.num_el
 3501              		.loc 1 831 3 view .LVU949
 3502 00e8 12AB     		add	r3, sp, #72
 3503              	.LVL200:
 3504              		.loc 1 861 3 view .LVU950
 3505 00ea 2092     		str	r2, [sp, #128]
 3506 00ec 026B     		ldr	r2, [r0, #48]
 862:../Middlewares/stedgeai-lib/Npu/ll_aton/ll_sw_integer.c ****                         SHAPE_INIT(sw_info->general.output.dim.tensor_h, sw_info->general.output.di
 863:../Middlewares/stedgeai-lib/Npu/ll_aton/ll_sw_integer.c ****                                    sw_info->general.output.dim.tensor_c, sw_info->general.output.di
 864:../Middlewares/stedgeai-lib/Npu/ll_aton/ll_sw_integer.c ****                         STRIDE_INIT(sw_info->general.output.stride.h, sw_info->general.output.strid
 865:../Middlewares/stedgeai-lib/Npu/ll_aton/ll_sw_integer.c ****                                     sw_info->general.output.stride.c, sw_info->general.output.strid
 866:../Middlewares/stedgeai-lib/Npu/ll_aton/ll_sw_integer.c ****                         1, &pool_output_array, &output_intq);
 867:../Middlewares/stedgeai-lib/Npu/ll_aton/ll_sw_integer.c **** 
ARM GAS  /tmp/ccZCp2co.s 			page 86


 868:../Middlewares/stedgeai-lib/Npu/ll_aton/ll_sw_integer.c ****   // tensor chain initialization
 869:../Middlewares/stedgeai-lib/Npu/ll_aton/ll_sw_integer.c ****   AI_TENSOR_CHAIN_OBJ_DECLARE(pool_chain, , 4, AI_TENSOR_LIST_OBJ_INIT(AI_FLAG_NONE, 1, TENSORS(&in
 3507              		.loc 1 869 3 view .LVU951
 3508 00ee 0024     		movs	r4, #0
 861:../Middlewares/stedgeai-lib/Npu/ll_aton/ll_sw_integer.c ****                         SHAPE_INIT(sw_info->general.output.dim.tensor_h, sw_info->general.output.di
 3509              		.loc 1 861 3 view .LVU952
 3510 00f0 2192     		str	r2, [sp, #132]
 3511 00f2 1EAA     		add	r2, sp, #120
 3512 00f4 CDE93425 		strd	r2, r5, [sp, #208]
 3513 00f8 026D     		ldr	r2, [r0, #80]
 3514              		.loc 1 869 3 view .LVU953
 3515 00fa 0125     		movs	r5, #1
 861:../Middlewares/stedgeai-lib/Npu/ll_aton/ll_sw_integer.c ****                         SHAPE_INIT(sw_info->general.output.dim.tensor_h, sw_info->general.output.di
 3516              		.loc 1 861 3 view .LVU954
 3517 00fc 2292     		str	r2, [sp, #136]
 3518 00fe C26C     		ldr	r2, [r0, #76]
 3519              		.loc 1 869 3 view .LVU955
 3520 0100 0CAF     		add	r7, sp, #48
 861:../Middlewares/stedgeai-lib/Npu/ll_aton/ll_sw_integer.c ****                         SHAPE_INIT(sw_info->general.output.dim.tensor_h, sw_info->general.output.di
 3521              		.loc 1 861 3 view .LVU956
 3522 0102 2392     		str	r2, [sp, #140]
 3523 0104 826C     		ldr	r2, [r0, #72]
 3524 0106 2492     		str	r2, [sp, #144]
 3525 0108 426C     		ldr	r2, [r0, #68]
 3526              		.loc 1 869 3 view .LVU957
 3527 010a CDE93A45 		strd	r4, r5, [sp, #232]
 861:../Middlewares/stedgeai-lib/Npu/ll_aton/ll_sw_integer.c ****                         SHAPE_INIT(sw_info->general.output.dim.tensor_h, sw_info->general.output.di
 3528              		.loc 1 861 3 view .LVU958
 3529 010e 2592     		str	r2, [sp, #148]
 3530 0110 22AA     		add	r2, sp, #136
 3531 0112 CDE93623 		strd	r2, r3, [sp, #216]
 866:../Middlewares/stedgeai-lib/Npu/ll_aton/ll_sw_integer.c **** 
 3532              		.loc 1 866 61 is_stmt 1 view .LVU959
 3533              		.loc 1 869 3 view .LVU960
 3534 0116 0423     		movs	r3, #4
 3535              	.LVL201:
 3536              		.loc 1 869 3 is_stmt 0 view .LVU961
 3537 0118 3B60     		str	r3, [r7]
 3538 011a 01AB     		add	r3, sp, #4
 3539 011c CDE93C34 		strd	r3, r4, [sp, #240]
 3540 0120 02AB     		add	r3, sp, #8
 3541 0122 CDE93F34 		strd	r3, r4, [sp, #252]
 3542 0126 03AB     		add	r3, sp, #12
 3543 0128 CDE94234 		strd	r3, r4, [sp, #264]
 3544 012c 38AB     		add	r3, sp, #224
 3545 012e 7B60     		str	r3, [r7, #4]
 870:../Middlewares/stedgeai-lib/Npu/ll_aton/ll_sw_integer.c ****                               AI_TENSOR_LIST_OBJ_INIT(AI_FLAG_NONE, 1, TENSORS(&pool_output)), AI_T
 871:../Middlewares/stedgeai-lib/Npu/ll_aton/ll_sw_integer.c ****                               AI_TENSOR_LIST_OBJ_EMPTY)
 872:../Middlewares/stedgeai-lib/Npu/ll_aton/ll_sw_integer.c **** 
 873:../Middlewares/stedgeai-lib/Npu/ll_aton/ll_sw_integer.c ****   // layer initialization
 874:../Middlewares/stedgeai-lib/Npu/ll_aton/ll_sw_integer.c ****   switch (sw_info->general.type)
 3546              		.loc 1 874 3 is_stmt 1 view .LVU962
 3547              		.loc 1 874 27 is_stmt 0 view .LVU963
 3548 0130 0378     		ldrb	r3, [r0]	@ zero_extendqisi2
 869:../Middlewares/stedgeai-lib/Npu/ll_aton/ll_sw_integer.c ****                               AI_TENSOR_LIST_OBJ_INIT(AI_FLAG_NONE, 1, TENSORS(&pool_output)), AI_T
 3549              		.loc 1 869 3 view .LVU964
 3550 0132 2AAA     		add	r2, sp, #168
ARM GAS  /tmp/ccZCp2co.s 			page 87


 3551 0134 0092     		str	r2, [sp]
 3552              		.loc 1 874 3 view .LVU965
 3553 0136 062B     		cmp	r3, #6
 3554              	.LVL202:
 869:../Middlewares/stedgeai-lib/Npu/ll_aton/ll_sw_integer.c ****                               AI_TENSOR_LIST_OBJ_INIT(AI_FLAG_NONE, 1, TENSORS(&pool_output)), AI_T
 3555              		.loc 1 869 3 view .LVU966
 3556 0138 31AA     		add	r2, sp, #196
 3557 013a 3895     		str	r5, [sp, #224]
 3558 013c CDF8E4D0 		str	sp, [sp, #228]
 3559 0140 0192     		str	r2, [sp, #4]
 3560 0142 3E94     		str	r4, [sp, #248]
 3561 0144 0294     		str	r4, [sp, #8]
 3562 0146 4194     		str	r4, [sp, #260]
 3563 0148 0394     		str	r4, [sp, #12]
 3564              		.loc 1 874 3 view .LVU967
 3565 014a 21D0     		beq	.L138
 3566 014c 082B     		cmp	r3, #8
 3567 014e 18D1     		bne	.L133
 3568              	.LBB16:
 875:../Middlewares/stedgeai-lib/Npu/ll_aton/ll_sw_integer.c ****   {
 876:../Middlewares/stedgeai-lib/Npu/ll_aton/ll_sw_integer.c ****   case LL_SW_AVGPOOL:
 877:../Middlewares/stedgeai-lib/Npu/ll_aton/ll_sw_integer.c ****   {
 878:../Middlewares/stedgeai-lib/Npu/ll_aton/ll_sw_integer.c ****     AI_LAYER_OBJ_DECLARE(pool_layer, 1, POOL_TYPE, 0x0, NULL, pool, forward_ap_integer, &pool_chain
 3569              		.loc 1 878 5 is_stmt 1 view .LVU968
 3570 0150 1D4B     		ldr	r3, .L144+4
 3571 0152 3422     		movs	r2, #52
 3572 0154 2146     		mov	r1, r4
 3573 0156 45A8     		add	r0, sp, #276
 3574              	.LVL203:
 3575              		.loc 1 878 5 is_stmt 0 view .LVU969
 3576 0158 4493     		str	r3, [sp, #272]
 3577 015a FFF7FEFF 		bl	memset
 3578              	.LVL204:
 3579              		.loc 1 878 5 view .LVU970
 3580 015e 1B4B     		ldr	r3, .L144+8
 3581 0160 1022     		movs	r2, #16
 3582 0162 CDE94937 		strd	r3, r7, [sp, #292]
 3583 0166 26AB     		add	r3, sp, #152
 3584 0168 2146     		mov	r1, r4
 3585 016a 1846     		mov	r0, r3
 3586 016c CDE94B98 		strd	r9, r8, [sp, #300]
 3587 0170 CDE94D55 		strd	r5, r5, [sp, #308]
 3588 0174 4F96     		str	r6, [sp, #316]
 3589 0176 FFF7FEFF 		bl	memset
 3590              	.LVL205:
 3591 017a 5090     		str	r0, [sp, #320]
 879:../Middlewares/stedgeai-lib/Npu/ll_aton/ll_sw_integer.c ****                          .pool_size =
 880:../Middlewares/stedgeai-lib/Npu/ll_aton/ll_sw_integer.c ****                              SHAPE_2D_INIT(sw_info->general.input.dim.tensor_h, sw_info->general.in
 881:../Middlewares/stedgeai-lib/Npu/ll_aton/ll_sw_integer.c ****                          .pool_stride = SHAPE_2D_INIT(1, 1), .pool_pad = SHAPE_INIT(0, 0, 0, 0), )
 882:../Middlewares/stedgeai-lib/Npu/ll_aton/ll_sw_integer.c ****     pool_layer.forward(AI_LAYER_OBJ(&pool_layer));
 3592              		.loc 1 882 5 is_stmt 1 view .LVU971
 3593 017c 44A8     		add	r0, sp, #272
 3594 017e FFF7FEFF 		bl	forward_ap_integer
 3595              	.LVL206:
 3596              	.LBE16:
 883:../Middlewares/stedgeai-lib/Npu/ll_aton/ll_sw_integer.c ****   }
 884:../Middlewares/stedgeai-lib/Npu/ll_aton/ll_sw_integer.c ****   break;
ARM GAS  /tmp/ccZCp2co.s 			page 88


 3597              		.loc 1 884 3 view .LVU972
 3598              	.L133:
 885:../Middlewares/stedgeai-lib/Npu/ll_aton/ll_sw_integer.c ****   case LL_SW_MAXPOOL:
 886:../Middlewares/stedgeai-lib/Npu/ll_aton/ll_sw_integer.c ****   {
 887:../Middlewares/stedgeai-lib/Npu/ll_aton/ll_sw_integer.c ****     AI_LAYER_OBJ_DECLARE(pool_layer, 1, POOL_TYPE, 0x0, NULL, pool, forward_mp_integer, &pool_chain
 888:../Middlewares/stedgeai-lib/Npu/ll_aton/ll_sw_integer.c ****                          .pool_size =
 889:../Middlewares/stedgeai-lib/Npu/ll_aton/ll_sw_integer.c ****                              SHAPE_2D_INIT(sw_info->general.input.dim.tensor_h, sw_info->general.in
 890:../Middlewares/stedgeai-lib/Npu/ll_aton/ll_sw_integer.c ****                          .pool_stride = SHAPE_2D_INIT(1, 1), .pool_pad = SHAPE_INIT(0, 0, 0, 0), )
 891:../Middlewares/stedgeai-lib/Npu/ll_aton/ll_sw_integer.c ****     pool_layer.forward(AI_LAYER_OBJ(&pool_layer));
 892:../Middlewares/stedgeai-lib/Npu/ll_aton/ll_sw_integer.c ****   }
 893:../Middlewares/stedgeai-lib/Npu/ll_aton/ll_sw_integer.c ****   break;
 894:../Middlewares/stedgeai-lib/Npu/ll_aton/ll_sw_integer.c ****   default:
 895:../Middlewares/stedgeai-lib/Npu/ll_aton/ll_sw_integer.c ****     break;
 896:../Middlewares/stedgeai-lib/Npu/ll_aton/ll_sw_integer.c ****   }
 897:../Middlewares/stedgeai-lib/Npu/ll_aton/ll_sw_integer.c **** }
 3599              		.loc 1 897 1 is_stmt 0 view .LVU973
 3600 0182 53B0     		add	sp, sp, #332
 3601              		.cfi_remember_state
 3602              		.cfi_def_cfa_offset 28
 3603              		@ sp needed
 3604 0184 BDE8F083 		pop	{r4, r5, r6, r7, r8, r9, pc}
 3605              	.LVL207:
 3606              	.L140:
 3607              		.cfi_restore_state
 825:../Middlewares/stedgeai-lib/Npu/ll_aton/ll_sw_integer.c ****   AI_ARRAY_OBJ_DECLARE(input_output_array, format, sw_info->general.input.mem.start_offset,
 3608              		.loc 1 825 60 discriminator 2 view .LVU974
 3609 0188 114B     		ldr	r3, .L144+12
 3610 018a 42E7     		b	.L134
 3611              	.LVL208:
 3612              	.L141:
 830:../Middlewares/stedgeai-lib/Npu/ll_aton/ll_sw_integer.c ****   AI_ARRAY_OBJ_DECLARE(pool_output_array, format, sw_info->general.output.mem.start_offset,
 3613              		.loc 1 830 53 discriminator 2 view .LVU975
 3614 018c 1049     		ldr	r1, .L144+12
 3615 018e 4DE7     		b	.L135
 3616              	.LVL209:
 3617              	.L138:
 3618              	.LBB17:
 887:../Middlewares/stedgeai-lib/Npu/ll_aton/ll_sw_integer.c ****                          .pool_size =
 3619              		.loc 1 887 5 is_stmt 1 view .LVU976
 3620 0190 0D4B     		ldr	r3, .L144+4
 3621 0192 2146     		mov	r1, r4
 3622 0194 3422     		movs	r2, #52
 3623 0196 45A8     		add	r0, sp, #276
 3624              	.LVL210:
 887:../Middlewares/stedgeai-lib/Npu/ll_aton/ll_sw_integer.c ****                          .pool_size =
 3625              		.loc 1 887 5 is_stmt 0 view .LVU977
 3626 0198 4493     		str	r3, [sp, #272]
 3627 019a FFF7FEFF 		bl	memset
 3628              	.LVL211:
 887:../Middlewares/stedgeai-lib/Npu/ll_aton/ll_sw_integer.c ****                          .pool_size =
 3629              		.loc 1 887 5 view .LVU978
 3630 019e 0D4B     		ldr	r3, .L144+16
 3631 01a0 1022     		movs	r2, #16
 3632 01a2 CDE94937 		strd	r3, r7, [sp, #292]
 3633 01a6 26AB     		add	r3, sp, #152
 3634 01a8 2146     		mov	r1, r4
 3635 01aa 1846     		mov	r0, r3
ARM GAS  /tmp/ccZCp2co.s 			page 89


 3636 01ac CDE94B98 		strd	r9, r8, [sp, #300]
 3637 01b0 CDE94D55 		strd	r5, r5, [sp, #308]
 3638 01b4 4F96     		str	r6, [sp, #316]
 3639 01b6 FFF7FEFF 		bl	memset
 3640              	.LVL212:
 3641 01ba 5090     		str	r0, [sp, #320]
 891:../Middlewares/stedgeai-lib/Npu/ll_aton/ll_sw_integer.c ****   }
 3642              		.loc 1 891 5 is_stmt 1 view .LVU979
 3643 01bc 44A8     		add	r0, sp, #272
 3644 01be FFF7FEFF 		bl	forward_mp_integer
 3645              	.LVL213:
 3646              	.LBE17:
 893:../Middlewares/stedgeai-lib/Npu/ll_aton/ll_sw_integer.c ****   default:
 3647              		.loc 1 893 3 view .LVU980
 3648              		.loc 1 897 1 is_stmt 0 view .LVU981
 3649 01c2 DEE7     		b	.L133
 3650              	.L145:
 3651              		.align	2
 3652              	.L144:
 3653 01c4 40048408 		.word	142869568
 3654 01c8 0B010100 		.word	65803
 3655 01cc 00000000 		.word	forward_ap_integer
 3656 01d0 40040408 		.word	134480960
 3657 01d4 00000000 		.word	forward_mp_integer
 3658              		.cfi_endproc
 3659              	.LFE23:
 3661              		.section	.text.ll_sw_forward_softmax_integer,"ax",%progbits
 3662              		.align	1
 3663              		.global	ll_sw_forward_softmax_integer
 3664              		.syntax unified
 3665              		.thumb
 3666              		.thumb_func
 3668              	ll_sw_forward_softmax_integer:
 3669              	.LVL214:
 3670              	.LFB24:
 898:../Middlewares/stedgeai-lib/Npu/ll_aton/ll_sw_integer.c **** 
 899:../Middlewares/stedgeai-lib/Npu/ll_aton/ll_sw_integer.c **** //##########################################################################################
 900:../Middlewares/stedgeai-lib/Npu/ll_aton/ll_sw_integer.c **** /** Softmax forward function */
 901:../Middlewares/stedgeai-lib/Npu/ll_aton/ll_sw_integer.c **** void ll_sw_forward_softmax_integer(Softmax_integer_sw_info *sw_info)
 902:../Middlewares/stedgeai-lib/Npu/ll_aton/ll_sw_integer.c **** {
 3671              		.loc 1 902 1 is_stmt 1 view -0
 3672              		.cfi_startproc
 3673              		@ args = 0, pretend = 0, frame = 400
 3674              		@ frame_needed = 0, uses_anonymous_args = 0
 903:../Middlewares/stedgeai-lib/Npu/ll_aton/ll_sw_integer.c ****   // array init
 904:../Middlewares/stedgeai-lib/Npu/ll_aton/ll_sw_integer.c ****   int32_t format = sw_info->general.input.format.is_signed ? (AI_ARRAY_FORMAT_S8 | AI_FMT_FLAG_IS_I
 3675              		.loc 1 904 3 view .LVU983
 902:../Middlewares/stedgeai-lib/Npu/ll_aton/ll_sw_integer.c ****   // array init
 3676              		.loc 1 902 1 is_stmt 0 view .LVU984
 3677 0000 2DE9F041 		push	{r4, r5, r6, r7, r8, lr}
 3678              		.cfi_def_cfa_offset 24
 3679              		.cfi_offset 4, -24
 3680              		.cfi_offset 5, -20
 3681              		.cfi_offset 6, -16
 3682              		.cfi_offset 7, -12
 3683              		.cfi_offset 8, -8
 3684              		.cfi_offset 14, -4
ARM GAS  /tmp/ccZCp2co.s 			page 90


 905:../Middlewares/stedgeai-lib/Npu/ll_aton/ll_sw_integer.c ****                                                            : (AI_ARRAY_FORMAT_U8 | AI_FMT_FLAG_IS_I
 3685              		.loc 1 905 60 view .LVU985
 3686 0004 90F82C30 		ldrb	r3, [r0, #44]	@ zero_extendqisi2
 902:../Middlewares/stedgeai-lib/Npu/ll_aton/ll_sw_integer.c ****   // array init
 3687              		.loc 1 902 1 view .LVU986
 3688 0008 E4B0     		sub	sp, sp, #400
 3689              		.cfi_def_cfa_offset 424
 3690              		.loc 1 905 60 view .LVU987
 3691 000a 002B     		cmp	r3, #0
 3692 000c 00F0EB80 		beq	.L152
 3693              		.loc 1 905 60 discriminator 1 view .LVU988
 3694 0010 774B     		ldr	r3, .L157
 3695              	.L147:
 3696              	.LVL215:
 906:../Middlewares/stedgeai-lib/Npu/ll_aton/ll_sw_integer.c ****   AI_ARRAY_OBJ_DECLARE(input_output_array, format, sw_info->general.input.mem.start_offset,
 3697              		.loc 1 906 3 is_stmt 1 view .LVU989
 3698 0012 1293     		str	r3, [sp, #72]
 3699 0014 4369     		ldr	r3, [r0, #20]
 3700              	.LVL216:
 3701              		.loc 1 906 3 is_stmt 0 view .LVU990
 3702 0016 12A9     		add	r1, sp, #72
 3703              	.LVL217:
 3704              		.loc 1 906 3 view .LVU991
 3705 0018 4B60     		str	r3, [r1, #4]
 3706 001a 836A     		ldr	r3, [r0, #40]
 3707 001c C1E90233 		strd	r3, r3, [r1, #8]
 907:../Middlewares/stedgeai-lib/Npu/ll_aton/ll_sw_integer.c ****                        sw_info->general.input.mem.start_offset, sw_info->general.input.dim.num_elem
 908:../Middlewares/stedgeai-lib/Npu/ll_aton/ll_sw_integer.c **** 
 909:../Middlewares/stedgeai-lib/Npu/ll_aton/ll_sw_integer.c ****   format = sw_info->general.output.format.is_signed ? (AI_ARRAY_FORMAT_S8 | AI_FMT_FLAG_IS_IO)
 3708              		.loc 1 909 3 is_stmt 1 view .LVU992
 910:../Middlewares/stedgeai-lib/Npu/ll_aton/ll_sw_integer.c ****                                                     : (AI_ARRAY_FORMAT_U8 | AI_FMT_FLAG_IS_IO);
 3709              		.loc 1 910 53 is_stmt 0 view .LVU993
 3710 0020 90F85830 		ldrb	r3, [r0, #88]	@ zero_extendqisi2
 3711 0024 002B     		cmp	r3, #0
 3712 0026 00F0E080 		beq	.L153
 3713              		.loc 1 910 53 discriminator 1 view .LVU994
 3714 002a 714B     		ldr	r3, .L157
 3715              	.L148:
 3716              	.LVL218:
 911:../Middlewares/stedgeai-lib/Npu/ll_aton/ll_sw_integer.c ****   AI_ARRAY_OBJ_DECLARE(softmax_output_array, format, sw_info->general.output.mem.start_offset,
 3717              		.loc 1 911 3 is_stmt 1 view .LVU995
 912:../Middlewares/stedgeai-lib/Npu/ll_aton/ll_sw_integer.c ****                        sw_info->general.output.mem.start_offset, sw_info->general.output.dim.num_el
 913:../Middlewares/stedgeai-lib/Npu/ll_aton/ll_sw_integer.c **** 
 914:../Middlewares/stedgeai-lib/Npu/ll_aton/ll_sw_integer.c ****   AI_ARRAY_OBJ_DECLARE(sm_scratch0_array, AI_ARRAY_FORMAT_S32, sw_info->scratch.mem.start_offset,
 3718              		.loc 1 914 3 is_stmt 0 view .LVU996
 3719 002c C46E     		ldr	r4, [r0, #108]
 915:../Middlewares/stedgeai-lib/Npu/ll_aton/ll_sw_integer.c ****                        sw_info->scratch.mem.start_offset, sw_info->scratch.dim.num_elem, )
 916:../Middlewares/stedgeai-lib/Npu/ll_aton/ll_sw_integer.c **** 
 917:../Middlewares/stedgeai-lib/Npu/ll_aton/ll_sw_integer.c ****   uint16_t offset_format =
 918:../Middlewares/stedgeai-lib/Npu/ll_aton/ll_sw_integer.c ****       sw_info->izp.format.is_signed ? (AI_BUFFER_META_FLAG_ZEROPOINT_S8) : (AI_BUFFER_META_FLAG_ZER
 919:../Middlewares/stedgeai-lib/Npu/ll_aton/ll_sw_integer.c ****   uint16_t scale_format = AI_BUFFER_META_FLAG_SCALE_FLOAT;
 920:../Middlewares/stedgeai-lib/Npu/ll_aton/ll_sw_integer.c ****   ai_intq_info_list input_intq = {.flags = (offset_format | scale_format),
 921:../Middlewares/stedgeai-lib/Npu/ll_aton/ll_sw_integer.c ****                                   .size = sw_info->is.dim.num_elem,
 922:../Middlewares/stedgeai-lib/Npu/ll_aton/ll_sw_integer.c ****                                   .info = (const ai_intq_info[1]){{
 3720              		.loc 1 922 66 view .LVU997
 3721 002e D0F8AC60 		ldr	r6, [r0, #172]
 914:../Middlewares/stedgeai-lib/Npu/ll_aton/ll_sw_integer.c ****                        sw_info->scratch.mem.start_offset, sw_info->scratch.dim.num_elem, )
ARM GAS  /tmp/ccZCp2co.s 			page 91


 3722              		.loc 1 914 3 view .LVU998
 3723 0032 1B94     		str	r4, [sp, #108]
 3724 0034 D0F88040 		ldr	r4, [r0, #128]
 3725              		.loc 1 922 66 view .LVU999
 3726 0038 0796     		str	r6, [sp, #28]
 914:../Middlewares/stedgeai-lib/Npu/ll_aton/ll_sw_integer.c ****                        sw_info->scratch.mem.start_offset, sw_info->scratch.dim.num_elem, )
 3727              		.loc 1 914 3 view .LVU1000
 3728 003a CDE91C44 		strd	r4, r4, [sp, #112]
 917:../Middlewares/stedgeai-lib/Npu/ll_aton/ll_sw_integer.c ****       sw_info->izp.format.is_signed ? (AI_BUFFER_META_FLAG_ZEROPOINT_S8) : (AI_BUFFER_META_FLAG_ZER
 3729              		.loc 1 917 12 view .LVU1001
 3730 003e 90F8DC40 		ldrb	r4, [r0, #220]	@ zero_extendqisi2
 3731              		.loc 1 922 66 view .LVU1002
 3732 0042 D0F8D860 		ldr	r6, [r0, #216]
 917:../Middlewares/stedgeai-lib/Npu/ll_aton/ll_sw_integer.c ****       sw_info->izp.format.is_signed ? (AI_BUFFER_META_FLAG_ZEROPOINT_S8) : (AI_BUFFER_META_FLAG_ZER
 3733              		.loc 1 917 12 discriminator 1 view .LVU1003
 3734 0046 002C     		cmp	r4, #0
 3735 0048 0CBF     		ite	eq
 3736 004a 0224     		moveq	r4, #2
 3737 004c 0424     		movne	r4, #4
 920:../Middlewares/stedgeai-lib/Npu/ll_aton/ll_sw_integer.c ****                                   .size = sw_info->is.dim.num_elem,
 3738              		.loc 1 920 21 view .LVU1004
 3739 004e 44F00104 		orr	r4, r4, #1
 3740 0052 ADF81440 		strh	r4, [sp, #20]	@ movhi
 3741 0056 D0F89840 		ldr	r4, [r0, #152]
 3742              		.loc 1 922 66 view .LVU1005
 3743 005a 0896     		str	r6, [sp, #32]
 920:../Middlewares/stedgeai-lib/Npu/ll_aton/ll_sw_integer.c ****                                   .size = sw_info->is.dim.num_elem,
 3744              		.loc 1 920 21 view .LVU1006
 3745 005c ADF81640 		strh	r4, [sp, #22]	@ movhi
 3746              		.loc 1 922 66 view .LVU1007
 3747 0060 07AC     		add	r4, sp, #28
 920:../Middlewares/stedgeai-lib/Npu/ll_aton/ll_sw_integer.c ****                                   .size = sw_info->is.dim.num_elem,
 3748              		.loc 1 920 21 view .LVU1008
 3749 0062 0694     		str	r4, [sp, #24]
 923:../Middlewares/stedgeai-lib/Npu/ll_aton/ll_sw_integer.c ****                                       .scale = ((float *)sw_info->is.mem.start_offset),
 924:../Middlewares/stedgeai-lib/Npu/ll_aton/ll_sw_integer.c ****                                       .zeropoint = ((void *)sw_info->izp.mem.start_offset),
 925:../Middlewares/stedgeai-lib/Npu/ll_aton/ll_sw_integer.c ****                                   }}};
 926:../Middlewares/stedgeai-lib/Npu/ll_aton/ll_sw_integer.c **** 
 927:../Middlewares/stedgeai-lib/Npu/ll_aton/ll_sw_integer.c ****   offset_format =
 3750              		.loc 1 927 17 view .LVU1009
 3751 0064 90F83441 		ldrb	r4, [r0, #308]	@ zero_extendqisi2
 928:../Middlewares/stedgeai-lib/Npu/ll_aton/ll_sw_integer.c ****       sw_info->ozp.format.is_signed ? (AI_BUFFER_META_FLAG_ZEROPOINT_S8) : (AI_BUFFER_META_FLAG_ZER
 929:../Middlewares/stedgeai-lib/Npu/ll_aton/ll_sw_integer.c ****   scale_format = AI_BUFFER_META_FLAG_SCALE_FLOAT;
 930:../Middlewares/stedgeai-lib/Npu/ll_aton/ll_sw_integer.c ****   ai_intq_info_list output_intq = {.flags = (offset_format | scale_format),
 931:../Middlewares/stedgeai-lib/Npu/ll_aton/ll_sw_integer.c ****                                    .size = sw_info->os.dim.num_elem,
 932:../Middlewares/stedgeai-lib/Npu/ll_aton/ll_sw_integer.c ****                                    .info = (const ai_intq_info[1]){{
 933:../Middlewares/stedgeai-lib/Npu/ll_aton/ll_sw_integer.c ****                                        .scale = ((float *)sw_info->os.mem.start_offset),
 934:../Middlewares/stedgeai-lib/Npu/ll_aton/ll_sw_integer.c ****                                        .zeropoint = ((void *)sw_info->ozp.mem.start_offset),
 935:../Middlewares/stedgeai-lib/Npu/ll_aton/ll_sw_integer.c ****                                    }}};
 936:../Middlewares/stedgeai-lib/Npu/ll_aton/ll_sw_integer.c **** 
 937:../Middlewares/stedgeai-lib/Npu/ll_aton/ll_sw_integer.c ****   AI_TENSOR_OBJ_DECLARE(input_output, , 0x0, 4,
 3752              		.loc 1 937 3 view .LVU1010
 3753 0068 40F2014E 		movw	lr, #1025
 927:../Middlewares/stedgeai-lib/Npu/ll_aton/ll_sw_integer.c ****       sw_info->ozp.format.is_signed ? (AI_BUFFER_META_FLAG_ZEROPOINT_S8) : (AI_BUFFER_META_FLAG_ZER
 3754              		.loc 1 927 17 discriminator 1 view .LVU1011
 3755 006c 002C     		cmp	r4, #0
 3756 006e 0CBF     		ite	eq
ARM GAS  /tmp/ccZCp2co.s 			page 92


 3757 0070 0226     		moveq	r6, #2
 3758 0072 0426     		movne	r6, #4
 930:../Middlewares/stedgeai-lib/Npu/ll_aton/ll_sw_integer.c ****                                    .size = sw_info->os.dim.num_elem,
 3759              		.loc 1 930 21 view .LVU1012
 3760 0074 46F00106 		orr	r6, r6, #1
 3761 0078 ADF82460 		strh	r6, [sp, #36]	@ movhi
 3762 007c D0F8F060 		ldr	r6, [r0, #240]
 911:../Middlewares/stedgeai-lib/Npu/ll_aton/ll_sw_integer.c ****                        sw_info->general.output.mem.start_offset, sw_info->general.output.dim.num_el
 3763              		.loc 1 911 3 view .LVU1013
 3764 0080 1693     		str	r3, [sp, #88]
 930:../Middlewares/stedgeai-lib/Npu/ll_aton/ll_sw_integer.c ****                                    .size = sw_info->os.dim.num_elem,
 3765              		.loc 1 930 21 view .LVU1014
 3766 0082 ADF82660 		strh	r6, [sp, #38]	@ movhi
 932:../Middlewares/stedgeai-lib/Npu/ll_aton/ll_sw_integer.c ****                                        .scale = ((float *)sw_info->os.mem.start_offset),
 3767              		.loc 1 932 67 view .LVU1015
 3768 0086 D0F80461 		ldr	r6, [r0, #260]
 911:../Middlewares/stedgeai-lib/Npu/ll_aton/ll_sw_integer.c ****                        sw_info->general.output.mem.start_offset, sw_info->general.output.dim.num_el
 3769              		.loc 1 911 3 view .LVU1016
 3770 008a 036C     		ldr	r3, [r0, #64]
 3771              	.LVL219:
 932:../Middlewares/stedgeai-lib/Npu/ll_aton/ll_sw_integer.c ****                                        .scale = ((float *)sw_info->os.mem.start_offset),
 3772              		.loc 1 932 67 view .LVU1017
 3773 008c 0B96     		str	r6, [sp, #44]
 3774 008e D0F83061 		ldr	r6, [r0, #304]
 914:../Middlewares/stedgeai-lib/Npu/ll_aton/ll_sw_integer.c ****                        sw_info->scratch.mem.start_offset, sw_info->scratch.dim.num_elem, )
 3775              		.loc 1 914 3 view .LVU1018
 3776 0092 DFF870C1 		ldr	ip, .L157+20
 932:../Middlewares/stedgeai-lib/Npu/ll_aton/ll_sw_integer.c ****                                        .scale = ((float *)sw_info->os.mem.start_offset),
 3777              		.loc 1 932 67 view .LVU1019
 3778 0096 0C96     		str	r6, [sp, #48]
 3779              		.loc 1 937 3 view .LVU1020
 3780 0098 4FF08276 		mov	r6, #17039360
 911:../Middlewares/stedgeai-lib/Npu/ll_aton/ll_sw_integer.c ****                        sw_info->general.output.mem.start_offset, sw_info->general.output.dim.num_el
 3781              		.loc 1 911 3 view .LVU1021
 3782 009c 1793     		str	r3, [sp, #92]
 932:../Middlewares/stedgeai-lib/Npu/ll_aton/ll_sw_integer.c ****                                        .scale = ((float *)sw_info->os.mem.start_offset),
 3783              		.loc 1 932 67 view .LVU1022
 3784 009e 0BAF     		add	r7, sp, #44
 911:../Middlewares/stedgeai-lib/Npu/ll_aton/ll_sw_integer.c ****                        sw_info->general.output.mem.start_offset, sw_info->general.output.dim.num_el
 3785              		.loc 1 911 3 view .LVU1023
 3786 00a0 436D     		ldr	r3, [r0, #84]
 920:../Middlewares/stedgeai-lib/Npu/ll_aton/ll_sw_integer.c ****                                   .size = sw_info->is.dim.num_elem,
 3787              		.loc 1 920 21 view .LVU1024
 3788 00a2 05AD     		add	r5, sp, #20
 930:../Middlewares/stedgeai-lib/Npu/ll_aton/ll_sw_integer.c ****                                    .size = sw_info->os.dim.num_elem,
 3789              		.loc 1 930 21 view .LVU1025
 3790 00a4 0A97     		str	r7, [sp, #40]
 3791              		.loc 1 937 3 view .LVU1026
 3792 00a6 1EAF     		add	r7, sp, #120
 911:../Middlewares/stedgeai-lib/Npu/ll_aton/ll_sw_integer.c ****                        sw_info->general.output.mem.start_offset, sw_info->general.output.dim.num_el
 3793              		.loc 1 911 3 view .LVU1027
 3794 00a8 CDE91833 		strd	r3, r3, [sp, #96]
 914:../Middlewares/stedgeai-lib/Npu/ll_aton/ll_sw_integer.c ****                        sw_info->scratch.mem.start_offset, sw_info->scratch.dim.num_elem, )
 3795              		.loc 1 914 3 is_stmt 1 view .LVU1028
 917:../Middlewares/stedgeai-lib/Npu/ll_aton/ll_sw_integer.c ****       sw_info->izp.format.is_signed ? (AI_BUFFER_META_FLAG_ZEROPOINT_S8) : (AI_BUFFER_META_FLAG_ZER
 3796              		.loc 1 917 3 view .LVU1029
 919:../Middlewares/stedgeai-lib/Npu/ll_aton/ll_sw_integer.c ****   ai_intq_info_list input_intq = {.flags = (offset_format | scale_format),
ARM GAS  /tmp/ccZCp2co.s 			page 93


 3797              		.loc 1 919 3 view .LVU1030
 3798              	.LVL220:
 920:../Middlewares/stedgeai-lib/Npu/ll_aton/ll_sw_integer.c ****                                   .size = sw_info->is.dim.num_elem,
 3799              		.loc 1 920 3 view .LVU1031
 927:../Middlewares/stedgeai-lib/Npu/ll_aton/ll_sw_integer.c ****       sw_info->ozp.format.is_signed ? (AI_BUFFER_META_FLAG_ZEROPOINT_S8) : (AI_BUFFER_META_FLAG_ZER
 3800              		.loc 1 927 3 view .LVU1032
 929:../Middlewares/stedgeai-lib/Npu/ll_aton/ll_sw_integer.c ****   ai_intq_info_list output_intq = {.flags = (offset_format | scale_format),
 3801              		.loc 1 929 3 view .LVU1033
 930:../Middlewares/stedgeai-lib/Npu/ll_aton/ll_sw_integer.c ****                                    .size = sw_info->os.dim.num_elem,
 3802              		.loc 1 930 3 view .LVU1034
 3803              		.loc 1 937 3 view .LVU1035
 914:../Middlewares/stedgeai-lib/Npu/ll_aton/ll_sw_integer.c ****                        sw_info->scratch.mem.start_offset, sw_info->scratch.dim.num_elem, )
 3804              		.loc 1 914 3 is_stmt 0 view .LVU1036
 3805 00ac CDF868C0 		str	ip, [sp, #104]
 3806              		.loc 1 937 3 view .LVU1037
 3807 00b0 3A95     		str	r5, [sp, #232]
 3808 00b2 CDE93B6E 		strd	r6, lr, [sp, #236]
 3809 00b6 3D97     		str	r7, [sp, #244]
 3810 00b8 40F20247 		movw	r7, #1026
 3811 00bc 0569     		ldr	r5, [r0, #16]
 3812 00be 0DF18808 		add	r8, sp, #136
 3813 00c2 1E95     		str	r5, [sp, #120]
 3814 00c4 C568     		ldr	r5, [r0, #12]
 3815 00c6 CDE93F81 		strd	r8, r1, [sp, #252]
 938:../Middlewares/stedgeai-lib/Npu/ll_aton/ll_sw_integer.c ****                         SHAPE_INIT(sw_info->general.input.dim.tensor_h, sw_info->general.input.dim.
 939:../Middlewares/stedgeai-lib/Npu/ll_aton/ll_sw_integer.c ****                                    sw_info->general.input.dim.tensor_c, sw_info->general.input.dim.
 940:../Middlewares/stedgeai-lib/Npu/ll_aton/ll_sw_integer.c ****                         STRIDE_INIT(sw_info->general.input.stride.h, sw_info->general.input.stride.
 941:../Middlewares/stedgeai-lib/Npu/ll_aton/ll_sw_integer.c ****                                     sw_info->general.input.stride.c, sw_info->general.input.stride.
 942:../Middlewares/stedgeai-lib/Npu/ll_aton/ll_sw_integer.c ****                         1, &input_output_array, &input_intq);
 3816              		.loc 1 942 61 is_stmt 1 view .LVU1038
 943:../Middlewares/stedgeai-lib/Npu/ll_aton/ll_sw_integer.c **** 
 944:../Middlewares/stedgeai-lib/Npu/ll_aton/ll_sw_integer.c ****   AI_TENSOR_OBJ_DECLARE(softmax_output, , 0x0, 4,
 3817              		.loc 1 944 3 view .LVU1039
 937:../Middlewares/stedgeai-lib/Npu/ll_aton/ll_sw_integer.c ****                         SHAPE_INIT(sw_info->general.input.dim.tensor_h, sw_info->general.input.dim.
 3818              		.loc 1 937 3 is_stmt 0 view .LVU1040
 3819 00ca 1F95     		str	r5, [sp, #124]
 3820 00cc 8568     		ldr	r5, [r0, #8]
 3821              		.loc 1 944 3 view .LVU1041
 3822 00ce C16B     		ldr	r1, [r0, #60]
 937:../Middlewares/stedgeai-lib/Npu/ll_aton/ll_sw_integer.c ****                         SHAPE_INIT(sw_info->general.input.dim.tensor_h, sw_info->general.input.dim.
 3823              		.loc 1 937 3 view .LVU1042
 3824 00d0 2095     		str	r5, [sp, #128]
 3825 00d2 4568     		ldr	r5, [r0, #4]
 3826              		.loc 1 944 3 view .LVU1043
 3827 00d4 2691     		str	r1, [sp, #152]
 937:../Middlewares/stedgeai-lib/Npu/ll_aton/ll_sw_integer.c ****                         SHAPE_INIT(sw_info->general.input.dim.tensor_h, sw_info->general.input.dim.
 3828              		.loc 1 937 3 view .LVU1044
 3829 00d6 2195     		str	r5, [sp, #132]
 3830 00d8 456A     		ldr	r5, [r0, #36]
 3831              		.loc 1 944 3 view .LVU1045
 3832 00da 816B     		ldr	r1, [r0, #56]
 937:../Middlewares/stedgeai-lib/Npu/ll_aton/ll_sw_integer.c ****                         SHAPE_INIT(sw_info->general.input.dim.tensor_h, sw_info->general.input.dim.
 3833              		.loc 1 937 3 view .LVU1046
 3834 00dc 2295     		str	r5, [sp, #136]
 3835 00de 056A     		ldr	r5, [r0, #32]
 3836              		.loc 1 944 3 view .LVU1047
 3837 00e0 2791     		str	r1, [sp, #156]
ARM GAS  /tmp/ccZCp2co.s 			page 94


 3838 00e2 416B     		ldr	r1, [r0, #52]
 937:../Middlewares/stedgeai-lib/Npu/ll_aton/ll_sw_integer.c ****                         SHAPE_INIT(sw_info->general.input.dim.tensor_h, sw_info->general.input.dim.
 3839              		.loc 1 937 3 view .LVU1048
 3840 00e4 2395     		str	r5, [sp, #140]
 3841 00e6 C569     		ldr	r5, [r0, #28]
 3842              		.loc 1 944 3 view .LVU1049
 3843 00e8 2891     		str	r1, [sp, #160]
 3844 00ea 016B     		ldr	r1, [r0, #48]
 937:../Middlewares/stedgeai-lib/Npu/ll_aton/ll_sw_integer.c ****                         SHAPE_INIT(sw_info->general.input.dim.tensor_h, sw_info->general.input.dim.
 3845              		.loc 1 937 3 view .LVU1050
 3846 00ec 2495     		str	r5, [sp, #144]
 3847 00ee 8569     		ldr	r5, [r0, #24]
 930:../Middlewares/stedgeai-lib/Npu/ll_aton/ll_sw_integer.c ****                                    .size = sw_info->os.dim.num_elem,
 3848              		.loc 1 930 21 view .LVU1051
 3849 00f0 09AC     		add	r4, sp, #36
 3850              		.loc 1 944 3 view .LVU1052
 3851 00f2 2991     		str	r1, [sp, #164]
 3852 00f4 26A9     		add	r1, sp, #152
 3853 00f6 CDE94146 		strd	r4, r6, [sp, #260]
 937:../Middlewares/stedgeai-lib/Npu/ll_aton/ll_sw_integer.c ****                         SHAPE_INIT(sw_info->general.input.dim.tensor_h, sw_info->general.input.dim.
 3854              		.loc 1 937 3 view .LVU1053
 3855 00fa 2595     		str	r5, [sp, #148]
 3856              		.loc 1 944 3 view .LVU1054
 3857 00fc CDF80CE1 		str	lr, [sp, #268]
 937:../Middlewares/stedgeai-lib/Npu/ll_aton/ll_sw_integer.c ****                         SHAPE_INIT(sw_info->general.input.dim.tensor_h, sw_info->general.input.dim.
 3858              		.loc 1 937 3 view .LVU1055
 3859 0100 3E97     		str	r7, [sp, #248]
 3860              		.loc 1 944 3 view .LVU1056
 3861 0102 CDE94417 		strd	r1, r7, [sp, #272]
 3862 0106 016D     		ldr	r1, [r0, #80]
 911:../Middlewares/stedgeai-lib/Npu/ll_aton/ll_sw_integer.c ****                        sw_info->general.output.mem.start_offset, sw_info->general.output.dim.num_el
 3863              		.loc 1 911 3 view .LVU1057
 3864 0108 16AA     		add	r2, sp, #88
 3865              	.LVL221:
 3866              		.loc 1 944 3 view .LVU1058
 3867 010a 2A91     		str	r1, [sp, #168]
 3868 010c C16C     		ldr	r1, [r0, #76]
 914:../Middlewares/stedgeai-lib/Npu/ll_aton/ll_sw_integer.c ****                        sw_info->scratch.mem.start_offset, sw_info->scratch.dim.num_elem, )
 3869              		.loc 1 914 3 view .LVU1059
 3870 010e 1AAB     		add	r3, sp, #104
 3871              		.loc 1 944 3 view .LVU1060
 3872 0110 2B91     		str	r1, [sp, #172]
 3873 0112 816C     		ldr	r1, [r0, #72]
 945:../Middlewares/stedgeai-lib/Npu/ll_aton/ll_sw_integer.c ****                         SHAPE_INIT(sw_info->general.output.dim.tensor_h, sw_info->general.output.di
 946:../Middlewares/stedgeai-lib/Npu/ll_aton/ll_sw_integer.c ****                                    sw_info->general.output.dim.tensor_c, sw_info->general.output.di
 947:../Middlewares/stedgeai-lib/Npu/ll_aton/ll_sw_integer.c ****                         STRIDE_INIT(sw_info->general.output.stride.h, sw_info->general.output.strid
 948:../Middlewares/stedgeai-lib/Npu/ll_aton/ll_sw_integer.c ****                                     sw_info->general.output.stride.c, sw_info->general.output.strid
 949:../Middlewares/stedgeai-lib/Npu/ll_aton/ll_sw_integer.c ****                         1, &softmax_output_array, &output_intq);
 950:../Middlewares/stedgeai-lib/Npu/ll_aton/ll_sw_integer.c **** 
 951:../Middlewares/stedgeai-lib/Npu/ll_aton/ll_sw_integer.c ****   AI_TENSOR_OBJ_DECLARE(sm_scratch0, , 0x0, 4,
 3874              		.loc 1 951 3 view .LVU1061
 3875 0114 CDF828E1 		str	lr, [sp, #296]
 944:../Middlewares/stedgeai-lib/Npu/ll_aton/ll_sw_integer.c ****                         SHAPE_INIT(sw_info->general.output.dim.tensor_h, sw_info->general.output.di
 3876              		.loc 1 944 3 view .LVU1062
 3877 0118 2C91     		str	r1, [sp, #176]
 3878 011a 416C     		ldr	r1, [r0, #68]
 952:../Middlewares/stedgeai-lib/Npu/ll_aton/ll_sw_integer.c ****                         SHAPE_INIT(sw_info->scratch.dim.tensor_h, sw_info->scratch.dim.tensor_w,
ARM GAS  /tmp/ccZCp2co.s 			page 95


 953:../Middlewares/stedgeai-lib/Npu/ll_aton/ll_sw_integer.c ****                                    sw_info->scratch.dim.tensor_c, sw_info->scratch.dim.tensor_b),
 954:../Middlewares/stedgeai-lib/Npu/ll_aton/ll_sw_integer.c ****                         STRIDE_INIT(sw_info->scratch.stride.h, sw_info->scratch.stride.w, sw_info->
 955:../Middlewares/stedgeai-lib/Npu/ll_aton/ll_sw_integer.c ****                                     sw_info->scratch.stride.b),
 956:../Middlewares/stedgeai-lib/Npu/ll_aton/ll_sw_integer.c ****                         1, &sm_scratch0_array, NULL);
 957:../Middlewares/stedgeai-lib/Npu/ll_aton/ll_sw_integer.c **** 
 958:../Middlewares/stedgeai-lib/Npu/ll_aton/ll_sw_integer.c ****   // tensor chain initialization
 959:../Middlewares/stedgeai-lib/Npu/ll_aton/ll_sw_integer.c ****   AI_TENSOR_CHAIN_OBJ_DECLARE(softmax_chain, , 4, AI_TENSOR_LIST_OBJ_INIT(AI_FLAG_NONE, 1, TENSORS(
 3879              		.loc 1 959 3 view .LVU1063
 3880 011c 01AC     		add	r4, sp, #4
 944:../Middlewares/stedgeai-lib/Npu/ll_aton/ll_sw_integer.c ****                         SHAPE_INIT(sw_info->general.output.dim.tensor_h, sw_info->general.output.di
 3881              		.loc 1 944 3 view .LVU1064
 3882 011e 2D91     		str	r1, [sp, #180]
 3883 0120 2AA9     		add	r1, sp, #168
 3884 0122 CDE94612 		strd	r1, r2, [sp, #280]
 949:../Middlewares/stedgeai-lib/Npu/ll_aton/ll_sw_integer.c **** 
 3885              		.loc 1 949 64 is_stmt 1 view .LVU1065
 951:../Middlewares/stedgeai-lib/Npu/ll_aton/ll_sw_integer.c ****                         SHAPE_INIT(sw_info->scratch.dim.tensor_h, sw_info->scratch.dim.tensor_w,
 3886              		.loc 1 951 3 view .LVU1066
 3887 0126 0022     		movs	r2, #0
 3888              	.LVL222:
 951:../Middlewares/stedgeai-lib/Npu/ll_aton/ll_sw_integer.c ****                         SHAPE_INIT(sw_info->scratch.dim.tensor_h, sw_info->scratch.dim.tensor_w,
 3889              		.loc 1 951 3 is_stmt 0 view .LVU1067
 3890 0128 816E     		ldr	r1, [r0, #104]
 3891 012a CDE94826 		strd	r2, r6, [sp, #288]
 3892 012e 2E91     		str	r1, [sp, #184]
 3893 0130 416E     		ldr	r1, [r0, #100]
 3894              		.loc 1 959 3 view .LVU1068
 3895 0132 3AAD     		add	r5, sp, #232
 951:../Middlewares/stedgeai-lib/Npu/ll_aton/ll_sw_integer.c ****                         SHAPE_INIT(sw_info->scratch.dim.tensor_h, sw_info->scratch.dim.tensor_w,
 3896              		.loc 1 951 3 view .LVU1069
 3897 0134 2F91     		str	r1, [sp, #188]
 3898 0136 016E     		ldr	r1, [r0, #96]
 3899 0138 3091     		str	r1, [sp, #192]
 3900 013a C16D     		ldr	r1, [r0, #92]
 3901 013c 3191     		str	r1, [sp, #196]
 3902 013e 2EA9     		add	r1, sp, #184
 3903 0140 CDE94B17 		strd	r1, r7, [sp, #300]
 3904 0144 C16F     		ldr	r1, [r0, #124]
 3905 0146 3291     		str	r1, [sp, #200]
 3906 0148 816F     		ldr	r1, [r0, #120]
 3907 014a 3391     		str	r1, [sp, #204]
 3908 014c 416F     		ldr	r1, [r0, #116]
 3909 014e 3491     		str	r1, [sp, #208]
 3910 0150 016F     		ldr	r1, [r0, #112]
 3911 0152 3591     		str	r1, [sp, #212]
 3912 0154 32A9     		add	r1, sp, #200
 3913 0156 CDE94D13 		strd	r1, r3, [sp, #308]
 956:../Middlewares/stedgeai-lib/Npu/ll_aton/ll_sw_integer.c **** 
 3914              		.loc 1 956 53 is_stmt 1 view .LVU1070
 3915              		.loc 1 959 3 view .LVU1071
 3916 015a 0423     		movs	r3, #4
 3917 015c 0D93     		str	r3, [sp, #52]
 3918 015e 0123     		movs	r3, #1
 3919 0160 5893     		str	r3, [sp, #352]
 3920 0162 5B93     		str	r3, [sp, #364]
 3921 0164 6193     		str	r3, [sp, #388]
 3922 0166 04AB     		add	r3, sp, #16
ARM GAS  /tmp/ccZCp2co.s 			page 96


 3923 0168 CDE96232 		strd	r3, r2, [sp, #392]
 3924 016c 58AB     		add	r3, sp, #352
 3925 016e 0E93     		str	r3, [sp, #56]
 960:../Middlewares/stedgeai-lib/Npu/ll_aton/ll_sw_integer.c ****                               AI_TENSOR_LIST_OBJ_INIT(AI_FLAG_NONE, 1, TENSORS(&softmax_output)),
 961:../Middlewares/stedgeai-lib/Npu/ll_aton/ll_sw_integer.c ****                               AI_TENSOR_LIST_OBJ_EMPTY, AI_TENSOR_LIST_OBJ_INIT(AI_FLAG_NONE, 1, TE
 962:../Middlewares/stedgeai-lib/Npu/ll_aton/ll_sw_integer.c **** 
 963:../Middlewares/stedgeai-lib/Npu/ll_aton/ll_sw_integer.c ****   AI_ARRAY_OBJ_DECLARE_STATIC(sm_integer_params, ai_i32, AI_ARRAY_FORMAT_S32, AI_CONST, 3,
 3926              		.loc 1 963 3 view .LVU1072
 3927 0170 0323     		movs	r3, #3
 959:../Middlewares/stedgeai-lib/Npu/ll_aton/ll_sw_integer.c ****                               AI_TENSOR_LIST_OBJ_INIT(AI_FLAG_NONE, 1, TENSORS(&softmax_output)),
 3928              		.loc 1 959 3 is_stmt 0 view .LVU1073
 3929 0172 CDE95942 		strd	r4, r2, [sp, #356]
 3930 0176 02AC     		add	r4, sp, #8
 3931 0178 CDE95C42 		strd	r4, r2, [sp, #368]
 3932 017c 03AC     		add	r4, sp, #12
 3933 017e CDE95F42 		strd	r4, r2, [sp, #380]
 3934 0182 48AC     		add	r4, sp, #288
 3935 0184 0494     		str	r4, [sp, #16]
 3936              		.loc 1 963 3 view .LVU1074
 3937 0186 D0F83841 		ldr	r4, [r0, #312]
 3938 018a 3793     		str	r3, [sp, #220]
 3939 018c 0FAB     		add	r3, sp, #60
 3940 018e CDE93832 		strd	r3, r2, [sp, #224]
 964:../Middlewares/stedgeai-lib/Npu/ll_aton/ll_sw_integer.c ****                               sw_info->quantized_multiplier, sw_info->left_shift, sw_info->diff_min
 965:../Middlewares/stedgeai-lib/Npu/ll_aton/ll_sw_integer.c **** 
 966:../Middlewares/stedgeai-lib/Npu/ll_aton/ll_sw_integer.c ****   AI_LAYER_OBJ_DECLARE(sm_integer_layer, 1, SM_TYPE, 0x0, NULL, sm, forward_sm_integer, &softmax_ch
 3941              		.loc 1 966 3 is_stmt 1 view .LVU1075
 963:../Middlewares/stedgeai-lib/Npu/ll_aton/ll_sw_integer.c ****                               sw_info->quantized_multiplier, sw_info->left_shift, sw_info->diff_min
 3942              		.loc 1 963 3 is_stmt 0 view .LVU1076
 3943 0192 0F94     		str	r4, [sp, #60]
 3944              		.loc 1 966 3 view .LVU1077
 3945 0194 174B     		ldr	r3, .L157+4
 963:../Middlewares/stedgeai-lib/Npu/ll_aton/ll_sw_integer.c ****                               sw_info->quantized_multiplier, sw_info->left_shift, sw_info->diff_min
 3946              		.loc 1 963 3 view .LVU1078
 3947 0196 D0F83C41 		ldr	r4, [r0, #316]
 3948              		.loc 1 966 3 view .LVU1079
 3949 019a CDE94F32 		strd	r3, r2, [sp, #316]
 963:../Middlewares/stedgeai-lib/Npu/ll_aton/ll_sw_integer.c ****                               sw_info->quantized_multiplier, sw_info->left_shift, sw_info->diff_min
 3950              		.loc 1 963 3 view .LVU1080
 3951 019e 1094     		str	r4, [sp, #64]
 3952              		.loc 1 966 3 view .LVU1081
 3953 01a0 154B     		ldr	r3, .L157+8
 963:../Middlewares/stedgeai-lib/Npu/ll_aton/ll_sw_integer.c ****                               sw_info->quantized_multiplier, sw_info->left_shift, sw_info->diff_min
 3954              		.loc 1 963 3 view .LVU1082
 3955 01a2 D0F84041 		ldr	r4, [r0, #320]
 959:../Middlewares/stedgeai-lib/Npu/ll_aton/ll_sw_integer.c ****                               AI_TENSOR_LIST_OBJ_INIT(AI_FLAG_NONE, 1, TENSORS(&softmax_output)),
 3956              		.loc 1 959 3 view .LVU1083
 3957 01a6 0DA9     		add	r1, sp, #52
 3958 01a8 0195     		str	r5, [sp, #4]
 3959 01aa 41AD     		add	r5, sp, #260
 3960              		.loc 1 966 3 view .LVU1084
 3961 01ac CDE95122 		strd	r2, r2, [sp, #324]
 959:../Middlewares/stedgeai-lib/Npu/ll_aton/ll_sw_integer.c ****                               AI_TENSOR_LIST_OBJ_INIT(AI_FLAG_NONE, 1, TENSORS(&softmax_output)),
 3962              		.loc 1 959 3 view .LVU1085
 3963 01b0 5E92     		str	r2, [sp, #376]
 3964 01b2 0392     		str	r2, [sp, #12]
 963:../Middlewares/stedgeai-lib/Npu/ll_aton/ll_sw_integer.c ****                               sw_info->quantized_multiplier, sw_info->left_shift, sw_info->diff_min
ARM GAS  /tmp/ccZCp2co.s 			page 97


 3965              		.loc 1 963 3 view .LVU1086
 3966 01b4 CDF8D8C0 		str	ip, [sp, #216]
 959:../Middlewares/stedgeai-lib/Npu/ll_aton/ll_sw_integer.c ****                               AI_TENSOR_LIST_OBJ_INIT(AI_FLAG_NONE, 1, TENSORS(&softmax_output)),
 3967              		.loc 1 959 3 view .LVU1087
 3968 01b8 0295     		str	r5, [sp, #8]
 963:../Middlewares/stedgeai-lib/Npu/ll_aton/ll_sw_integer.c ****                               sw_info->quantized_multiplier, sw_info->left_shift, sw_info->diff_min
 3969              		.loc 1 963 3 view .LVU1088
 3970 01ba 1194     		str	r4, [sp, #68]
 3971              		.loc 1 966 3 view .LVU1089
 3972 01bc 5392     		str	r2, [sp, #332]
 3973 01be CDE95431 		strd	r3, r1, [sp, #336]
 3974 01c2 36AB     		add	r3, sp, #216
 3975 01c4 5693     		str	r3, [sp, #344]
 3976              	.LVL223:
 3977              	.LBB20:
 3978              	.LBI20:
  45:../Middlewares/stedgeai-lib/Npu/ll_aton/ll_sw_integer.c **** {
 3979              		.loc 1 45 12 is_stmt 1 view .LVU1090
  47:../Middlewares/stedgeai-lib/Npu/ll_aton/ll_sw_integer.c ****   {
 3980              		.loc 1 47 3 view .LVU1091
 3981 01c6 D0F84431 		ldr	r3, [r0, #324]
 3982              	.LBE20:
 967:../Middlewares/stedgeai-lib/Npu/ll_aton/ll_sw_integer.c ****                        .nl_params = &sm_integer_params, .axis = helper_emit_shape_index_axis(sw_inf
 968:../Middlewares/stedgeai-lib/Npu/ll_aton/ll_sw_integer.c ****   sm_integer_layer.forward(AI_LAYER_OBJ(&sm_integer_layer));
 3983              		.loc 1 968 3 is_stmt 0 view .LVU1092
 3984 01ca 4FA8     		add	r0, sp, #316
 3985              	.LVL224:
 3986              		.loc 1 968 3 view .LVU1093
 3987 01cc 032B     		cmp	r3, #3
 966:../Middlewares/stedgeai-lib/Npu/ll_aton/ll_sw_integer.c ****                        .nl_params = &sm_integer_params, .axis = helper_emit_shape_index_axis(sw_inf
 3988              		.loc 1 966 3 view .LVU1094
 3989 01ce 8EBF     		itee	hi
 3990 01d0 4FF0FF33 		movhi	r3, #-1
 3991              	.LVL225:
 966:../Middlewares/stedgeai-lib/Npu/ll_aton/ll_sw_integer.c ****                        .nl_params = &sm_integer_params, .axis = helper_emit_shape_index_axis(sw_inf
 3992              		.loc 1 966 3 view .LVU1095
 3993 01d4 094A     		ldrls	r2, .L157+12
 3994 01d6 D356     		ldrsbls	r3, [r2, r3]
 966:../Middlewares/stedgeai-lib/Npu/ll_aton/ll_sw_integer.c ****                        .nl_params = &sm_integer_params, .axis = helper_emit_shape_index_axis(sw_inf
 3995              		.loc 1 966 3 discriminator 1 view .LVU1096
 3996 01d8 ADF85C31 		strh	r3, [sp, #348]	@ movhi
 3997              		.loc 1 968 3 is_stmt 1 view .LVU1097
 3998 01dc FFF7FEFF 		bl	forward_sm_integer
 3999              	.LVL226:
 969:../Middlewares/stedgeai-lib/Npu/ll_aton/ll_sw_integer.c **** }
 4000              		.loc 1 969 1 is_stmt 0 view .LVU1098
 4001 01e0 64B0     		add	sp, sp, #400
 4002              		.cfi_remember_state
 4003              		.cfi_def_cfa_offset 24
 4004              		@ sp needed
 4005 01e2 BDE8F081 		pop	{r4, r5, r6, r7, r8, pc}
 4006              	.LVL227:
 4007              	.L152:
 4008              		.cfi_restore_state
 905:../Middlewares/stedgeai-lib/Npu/ll_aton/ll_sw_integer.c ****   AI_ARRAY_OBJ_DECLARE(input_output_array, format, sw_info->general.input.mem.start_offset,
 4009              		.loc 1 905 60 discriminator 2 view .LVU1099
 4010 01e6 064B     		ldr	r3, .L157+16
ARM GAS  /tmp/ccZCp2co.s 			page 98


 4011 01e8 13E7     		b	.L147
 4012              	.LVL228:
 4013              	.L153:
 910:../Middlewares/stedgeai-lib/Npu/ll_aton/ll_sw_integer.c ****   AI_ARRAY_OBJ_DECLARE(softmax_output_array, format, sw_info->general.output.mem.start_offset,
 4014              		.loc 1 910 53 discriminator 2 view .LVU1100
 4015 01ea 054B     		ldr	r3, .L157+16
 4016 01ec 1EE7     		b	.L148
 4017              	.L158:
 4018 01ee 00BF     		.align	2
 4019              	.L157:
 4020 01f0 40048408 		.word	142869568
 4021 01f4 0C010100 		.word	65804
 4022 01f8 00000000 		.word	forward_sm_integer
 4023 01fc 00000000 		.word	CSWTCH.61
 4024 0200 40040408 		.word	134480960
 4025 0204 40108400 		.word	8654912
 4026              		.cfi_endproc
 4027              	.LFE24:
 4029              		.section	.text.ll_sw_forward_activ_integer,"ax",%progbits
 4030              		.align	1
 4031              		.global	ll_sw_forward_activ_integer
 4032              		.syntax unified
 4033              		.thumb
 4034              		.thumb_func
 4036              	ll_sw_forward_activ_integer:
 4037              	.LVL229:
 4038              	.LFB25:
 970:../Middlewares/stedgeai-lib/Npu/ll_aton/ll_sw_integer.c **** 
 971:../Middlewares/stedgeai-lib/Npu/ll_aton/ll_sw_integer.c **** //##########################################################################################
 972:../Middlewares/stedgeai-lib/Npu/ll_aton/ll_sw_integer.c **** /** Activ forward function */
 973:../Middlewares/stedgeai-lib/Npu/ll_aton/ll_sw_integer.c **** void ll_sw_forward_activ_integer(Activ_integer_sw_info *sw_info)
 974:../Middlewares/stedgeai-lib/Npu/ll_aton/ll_sw_integer.c **** {
 4039              		.loc 1 974 1 is_stmt 1 view -0
 4040              		.cfi_startproc
 4041              		@ args = 0, pretend = 0, frame = 416
 4042              		@ frame_needed = 0, uses_anonymous_args = 0
 975:../Middlewares/stedgeai-lib/Npu/ll_aton/ll_sw_integer.c ****   // array init
 976:../Middlewares/stedgeai-lib/Npu/ll_aton/ll_sw_integer.c ****   int32_t format = sw_info->general.input.format.is_signed ? (AI_ARRAY_FORMAT_S8 | AI_FMT_FLAG_IS_I
 4043              		.loc 1 976 3 view .LVU1102
 974:../Middlewares/stedgeai-lib/Npu/ll_aton/ll_sw_integer.c ****   // array init
 4044              		.loc 1 974 1 is_stmt 0 view .LVU1103
 4045 0000 2DE9F04F 		push	{r4, r5, r6, r7, r8, r9, r10, fp, lr}
 4046              		.cfi_def_cfa_offset 36
 4047              		.cfi_offset 4, -36
 4048              		.cfi_offset 5, -32
 4049              		.cfi_offset 6, -28
 4050              		.cfi_offset 7, -24
 4051              		.cfi_offset 8, -20
 4052              		.cfi_offset 9, -16
 4053              		.cfi_offset 10, -12
 4054              		.cfi_offset 11, -8
 4055              		.cfi_offset 14, -4
 977:../Middlewares/stedgeai-lib/Npu/ll_aton/ll_sw_integer.c ****                                                            : (AI_ARRAY_FORMAT_U8 | AI_FMT_FLAG_IS_I
 4056              		.loc 1 977 60 view .LVU1104
 4057 0004 90F82C30 		ldrb	r3, [r0, #44]	@ zero_extendqisi2
 974:../Middlewares/stedgeai-lib/Npu/ll_aton/ll_sw_integer.c ****   // array init
 4058              		.loc 1 974 1 view .LVU1105
ARM GAS  /tmp/ccZCp2co.s 			page 99


 4059 0008 E9B0     		sub	sp, sp, #420
 4060              		.cfi_def_cfa_offset 456
 4061              		.loc 1 977 60 view .LVU1106
 4062 000a 002B     		cmp	r3, #0
 4063 000c 00F0BE80 		beq	.L169
 4064              		.loc 1 977 60 discriminator 1 view .LVU1107
 4065 0010 9D4B     		ldr	r3, .L175
 4066              	.L160:
 4067              	.LVL230:
 978:../Middlewares/stedgeai-lib/Npu/ll_aton/ll_sw_integer.c ****   AI_ARRAY_OBJ_DECLARE(input_output_array, format, sw_info->general.input.mem.start_offset,
 4068              		.loc 1 978 3 is_stmt 1 view .LVU1108
 4069 0012 1793     		str	r3, [sp, #92]
 4070 0014 4369     		ldr	r3, [r0, #20]
 4071              	.LVL231:
 4072              		.loc 1 978 3 is_stmt 0 view .LVU1109
 4073 0016 0DF15C0C 		add	ip, sp, #92
 4074              	.LVL232:
 4075              		.loc 1 978 3 view .LVU1110
 4076 001a CCF80430 		str	r3, [ip, #4]
 4077 001e 836A     		ldr	r3, [r0, #40]
 4078 0020 CCE90233 		strd	r3, r3, [ip, #8]
 979:../Middlewares/stedgeai-lib/Npu/ll_aton/ll_sw_integer.c ****                        sw_info->general.input.mem.start_offset, sw_info->general.input.dim.num_elem
 980:../Middlewares/stedgeai-lib/Npu/ll_aton/ll_sw_integer.c **** 
 981:../Middlewares/stedgeai-lib/Npu/ll_aton/ll_sw_integer.c ****   format = sw_info->general.output.format.is_signed ? (AI_ARRAY_FORMAT_S8 | AI_FMT_FLAG_IS_IO)
 4079              		.loc 1 981 3 is_stmt 1 view .LVU1111
 982:../Middlewares/stedgeai-lib/Npu/ll_aton/ll_sw_integer.c ****                                                     : (AI_ARRAY_FORMAT_U8 | AI_FMT_FLAG_IS_IO);
 4080              		.loc 1 982 53 is_stmt 0 view .LVU1112
 4081 0024 90F85830 		ldrb	r3, [r0, #88]	@ zero_extendqisi2
 4082 0028 002B     		cmp	r3, #0
 4083 002a 00F0B180 		beq	.L170
 4084              		.loc 1 982 53 discriminator 1 view .LVU1113
 4085 002e 964F     		ldr	r7, .L175
 4086              	.L161:
 4087              	.LVL233:
 983:../Middlewares/stedgeai-lib/Npu/ll_aton/ll_sw_integer.c ****   AI_ARRAY_OBJ_DECLARE(activ_output_array, format, sw_info->general.output.mem.start_offset,
 4088              		.loc 1 983 3 is_stmt 1 view .LVU1114
 4089 0030 026C     		ldr	r2, [r0, #64]
 984:../Middlewares/stedgeai-lib/Npu/ll_aton/ll_sw_integer.c ****                        sw_info->general.output.mem.start_offset, sw_info->general.output.dim.num_el
 985:../Middlewares/stedgeai-lib/Npu/ll_aton/ll_sw_integer.c **** 
 986:../Middlewares/stedgeai-lib/Npu/ll_aton/ll_sw_integer.c ****   uint16_t offset_format =
 987:../Middlewares/stedgeai-lib/Npu/ll_aton/ll_sw_integer.c ****       sw_info->izp.format.is_signed ? (AI_BUFFER_META_FLAG_ZEROPOINT_S8) : (AI_BUFFER_META_FLAG_ZER
 988:../Middlewares/stedgeai-lib/Npu/ll_aton/ll_sw_integer.c ****   uint16_t scale_format = AI_BUFFER_META_FLAG_SCALE_FLOAT;
 989:../Middlewares/stedgeai-lib/Npu/ll_aton/ll_sw_integer.c ****   ai_intq_info_list input_intq = {.flags = (offset_format | scale_format),
 990:../Middlewares/stedgeai-lib/Npu/ll_aton/ll_sw_integer.c ****                                   .size = sw_info->is.dim.num_elem,
 991:../Middlewares/stedgeai-lib/Npu/ll_aton/ll_sw_integer.c ****                                   .info = (const ai_intq_info[1]){{
 4090              		.loc 1 991 66 is_stmt 0 view .LVU1115
 4091 0032 D0F80441 		ldr	r4, [r0, #260]
 983:../Middlewares/stedgeai-lib/Npu/ll_aton/ll_sw_integer.c ****   AI_ARRAY_OBJ_DECLARE(activ_output_array, format, sw_info->general.output.mem.start_offset,
 4092              		.loc 1 983 3 view .LVU1116
 4093 0036 1C92     		str	r2, [sp, #112]
 4094 0038 426D     		ldr	r2, [r0, #84]
 4095              		.loc 1 991 66 view .LVU1117
 4096 003a 0B94     		str	r4, [sp, #44]
 983:../Middlewares/stedgeai-lib/Npu/ll_aton/ll_sw_integer.c ****   AI_ARRAY_OBJ_DECLARE(activ_output_array, format, sw_info->general.output.mem.start_offset,
 4097              		.loc 1 983 3 view .LVU1118
 4098 003c CDE91D22 		strd	r2, r2, [sp, #116]
 986:../Middlewares/stedgeai-lib/Npu/ll_aton/ll_sw_integer.c ****       sw_info->izp.format.is_signed ? (AI_BUFFER_META_FLAG_ZEROPOINT_S8) : (AI_BUFFER_META_FLAG_ZER
ARM GAS  /tmp/ccZCp2co.s 			page 100


 4099              		.loc 1 986 3 is_stmt 1 view .LVU1119
 986:../Middlewares/stedgeai-lib/Npu/ll_aton/ll_sw_integer.c ****       sw_info->izp.format.is_signed ? (AI_BUFFER_META_FLAG_ZEROPOINT_S8) : (AI_BUFFER_META_FLAG_ZER
 4100              		.loc 1 986 12 is_stmt 0 view .LVU1120
 4101 0040 90F83421 		ldrb	r2, [r0, #308]	@ zero_extendqisi2
 4102              		.loc 1 991 66 view .LVU1121
 4103 0044 D0F83041 		ldr	r4, [r0, #304]
 986:../Middlewares/stedgeai-lib/Npu/ll_aton/ll_sw_integer.c ****       sw_info->izp.format.is_signed ? (AI_BUFFER_META_FLAG_ZEROPOINT_S8) : (AI_BUFFER_META_FLAG_ZER
 4104              		.loc 1 986 12 discriminator 1 view .LVU1122
 4105 0048 002A     		cmp	r2, #0
 4106 004a 0CBF     		ite	eq
 4107 004c 0222     		moveq	r2, #2
 4108 004e 0422     		movne	r2, #4
 4109              	.LVL234:
 988:../Middlewares/stedgeai-lib/Npu/ll_aton/ll_sw_integer.c ****   ai_intq_info_list input_intq = {.flags = (offset_format | scale_format),
 4110              		.loc 1 988 3 is_stmt 1 view .LVU1123
 989:../Middlewares/stedgeai-lib/Npu/ll_aton/ll_sw_integer.c ****                                   .size = sw_info->is.dim.num_elem,
 4111              		.loc 1 989 3 view .LVU1124
 989:../Middlewares/stedgeai-lib/Npu/ll_aton/ll_sw_integer.c ****                                   .size = sw_info->is.dim.num_elem,
 4112              		.loc 1 989 21 is_stmt 0 view .LVU1125
 4113 0050 42F00102 		orr	r2, r2, #1
 4114              	.LVL235:
 989:../Middlewares/stedgeai-lib/Npu/ll_aton/ll_sw_integer.c ****                                   .size = sw_info->is.dim.num_elem,
 4115              		.loc 1 989 21 view .LVU1126
 4116 0054 ADF82420 		strh	r2, [sp, #36]	@ movhi
 4117 0058 D0F8F020 		ldr	r2, [r0, #240]
 4118              		.loc 1 991 66 view .LVU1127
 4119 005c 0C94     		str	r4, [sp, #48]
 989:../Middlewares/stedgeai-lib/Npu/ll_aton/ll_sw_integer.c ****                                   .size = sw_info->is.dim.num_elem,
 4120              		.loc 1 989 21 view .LVU1128
 4121 005e ADF82620 		strh	r2, [sp, #38]	@ movhi
 4122              		.loc 1 991 66 view .LVU1129
 4123 0062 0BAA     		add	r2, sp, #44
 989:../Middlewares/stedgeai-lib/Npu/ll_aton/ll_sw_integer.c ****                                   .size = sw_info->is.dim.num_elem,
 4124              		.loc 1 989 21 view .LVU1130
 4125 0064 0A92     		str	r2, [sp, #40]
 992:../Middlewares/stedgeai-lib/Npu/ll_aton/ll_sw_integer.c ****                                       .scale = ((float *)sw_info->is.mem.start_offset),
 993:../Middlewares/stedgeai-lib/Npu/ll_aton/ll_sw_integer.c ****                                       .zeropoint = ((void *)sw_info->izp.mem.start_offset),
 994:../Middlewares/stedgeai-lib/Npu/ll_aton/ll_sw_integer.c ****                                   }}};
 995:../Middlewares/stedgeai-lib/Npu/ll_aton/ll_sw_integer.c **** 
 996:../Middlewares/stedgeai-lib/Npu/ll_aton/ll_sw_integer.c ****   offset_format =
 4126              		.loc 1 996 3 is_stmt 1 view .LVU1131
 4127              		.loc 1 996 17 is_stmt 0 view .LVU1132
 4128 0066 90F88C21 		ldrb	r2, [r0, #396]	@ zero_extendqisi2
 997:../Middlewares/stedgeai-lib/Npu/ll_aton/ll_sw_integer.c ****       sw_info->ozp.format.is_signed ? (AI_BUFFER_META_FLAG_ZEROPOINT_S8) : (AI_BUFFER_META_FLAG_ZER
 998:../Middlewares/stedgeai-lib/Npu/ll_aton/ll_sw_integer.c ****   scale_format = AI_BUFFER_META_FLAG_SCALE_FLOAT;
 999:../Middlewares/stedgeai-lib/Npu/ll_aton/ll_sw_integer.c ****   ai_intq_info_list output_intq = {.flags = (offset_format | scale_format),
1000:../Middlewares/stedgeai-lib/Npu/ll_aton/ll_sw_integer.c ****                                    .size = sw_info->os.dim.num_elem,
1001:../Middlewares/stedgeai-lib/Npu/ll_aton/ll_sw_integer.c ****                                    .info = (const ai_intq_info[1]){{
 4129              		.loc 1 1001 67 view .LVU1133
 4130 006a 0FAC     		add	r4, sp, #60
 996:../Middlewares/stedgeai-lib/Npu/ll_aton/ll_sw_integer.c ****       sw_info->ozp.format.is_signed ? (AI_BUFFER_META_FLAG_ZEROPOINT_S8) : (AI_BUFFER_META_FLAG_ZER
 4131              		.loc 1 996 17 discriminator 1 view .LVU1134
 4132 006c 002A     		cmp	r2, #0
 4133              	.LVL236:
 996:../Middlewares/stedgeai-lib/Npu/ll_aton/ll_sw_integer.c ****       sw_info->ozp.format.is_signed ? (AI_BUFFER_META_FLAG_ZEROPOINT_S8) : (AI_BUFFER_META_FLAG_ZER
 4134              		.loc 1 996 17 discriminator 1 view .LVU1135
 4135 006e 0CBF     		ite	eq
ARM GAS  /tmp/ccZCp2co.s 			page 101


 4136 0070 0222     		moveq	r2, #2
 4137 0072 0422     		movne	r2, #4
 4138              	.LVL237:
 998:../Middlewares/stedgeai-lib/Npu/ll_aton/ll_sw_integer.c ****   ai_intq_info_list output_intq = {.flags = (offset_format | scale_format),
 4139              		.loc 1 998 3 is_stmt 1 view .LVU1136
 999:../Middlewares/stedgeai-lib/Npu/ll_aton/ll_sw_integer.c ****                                    .size = sw_info->os.dim.num_elem,
 4140              		.loc 1 999 3 view .LVU1137
1002:../Middlewares/stedgeai-lib/Npu/ll_aton/ll_sw_integer.c ****                                        .scale = ((float *)sw_info->os.mem.start_offset),
1003:../Middlewares/stedgeai-lib/Npu/ll_aton/ll_sw_integer.c ****                                        .zeropoint = ((void *)sw_info->ozp.mem.start_offset),
1004:../Middlewares/stedgeai-lib/Npu/ll_aton/ll_sw_integer.c ****                                    }}};
1005:../Middlewares/stedgeai-lib/Npu/ll_aton/ll_sw_integer.c **** 
1006:../Middlewares/stedgeai-lib/Npu/ll_aton/ll_sw_integer.c ****   AI_TENSOR_OBJ_DECLARE(input_output, , 0x0, 4,
 4141              		.loc 1 1006 3 is_stmt 0 view .LVU1138
 4142 0074 4FF08275 		mov	r5, #17039360
 999:../Middlewares/stedgeai-lib/Npu/ll_aton/ll_sw_integer.c ****                                    .size = sw_info->os.dim.num_elem,
 4143              		.loc 1 999 21 view .LVU1139
 4144 0078 0E94     		str	r4, [sp, #56]
 4145              		.loc 1 1006 3 is_stmt 1 view .LVU1140
 4146 007a 40F20144 		movw	r4, #1025
 989:../Middlewares/stedgeai-lib/Npu/ll_aton/ll_sw_integer.c ****                                   .size = sw_info->is.dim.num_elem,
 4147              		.loc 1 989 21 is_stmt 0 view .LVU1141
 4148 007e 09A9     		add	r1, sp, #36
 999:../Middlewares/stedgeai-lib/Npu/ll_aton/ll_sw_integer.c ****                                    .size = sw_info->os.dim.num_elem,
 4149              		.loc 1 999 21 view .LVU1142
 4150 0080 42F00102 		orr	r2, r2, #1
 4151              	.LVL238:
 999:../Middlewares/stedgeai-lib/Npu/ll_aton/ll_sw_integer.c ****                                    .size = sw_info->os.dim.num_elem,
 4152              		.loc 1 999 21 view .LVU1143
 4153 0084 ADF83420 		strh	r2, [sp, #52]	@ movhi
 4154              		.loc 1 1006 3 view .LVU1144
 4155 0088 3F91     		str	r1, [sp, #252]
 999:../Middlewares/stedgeai-lib/Npu/ll_aton/ll_sw_integer.c ****                                    .size = sw_info->os.dim.num_elem,
 4156              		.loc 1 999 21 view .LVU1145
 4157 008a D0F84821 		ldr	r2, [r0, #328]
 4158              		.loc 1 1006 3 view .LVU1146
 4159 008e 0169     		ldr	r1, [r0, #16]
 999:../Middlewares/stedgeai-lib/Npu/ll_aton/ll_sw_integer.c ****                                    .size = sw_info->os.dim.num_elem,
 4160              		.loc 1 999 21 view .LVU1147
 4161 0090 ADF83620 		strh	r2, [sp, #54]	@ movhi
 4162              		.loc 1 1006 3 view .LVU1148
 4163 0094 1F91     		str	r1, [sp, #124]
1001:../Middlewares/stedgeai-lib/Npu/ll_aton/ll_sw_integer.c ****                                        .scale = ((float *)sw_info->os.mem.start_offset),
 4164              		.loc 1 1001 67 view .LVU1149
 4165 0096 D0F85C21 		ldr	r2, [r0, #348]
 4166              		.loc 1 1006 3 view .LVU1150
 4167 009a C168     		ldr	r1, [r0, #12]
1001:../Middlewares/stedgeai-lib/Npu/ll_aton/ll_sw_integer.c ****                                        .scale = ((float *)sw_info->os.mem.start_offset),
 4168              		.loc 1 1001 67 view .LVU1151
 4169 009c 0F92     		str	r2, [sp, #60]
 4170              		.loc 1 1006 3 view .LVU1152
 4171 009e 2091     		str	r1, [sp, #128]
1003:../Middlewares/stedgeai-lib/Npu/ll_aton/ll_sw_integer.c ****                                    }}};
 4172              		.loc 1 1003 78 view .LVU1153
 4173 00a0 D0F88821 		ldr	r2, [r0, #392]
 4174              		.loc 1 1006 3 view .LVU1154
 4175 00a4 8168     		ldr	r1, [r0, #8]
 4176 00a6 CDE94054 		strd	r5, r4, [sp, #256]
ARM GAS  /tmp/ccZCp2co.s 			page 102


 983:../Middlewares/stedgeai-lib/Npu/ll_aton/ll_sw_integer.c ****                        sw_info->general.output.mem.start_offset, sw_info->general.output.dim.num_el
 4177              		.loc 1 983 3 view .LVU1155
 4178 00aa 1B97     		str	r7, [sp, #108]
1001:../Middlewares/stedgeai-lib/Npu/ll_aton/ll_sw_integer.c ****                                        .scale = ((float *)sw_info->os.mem.start_offset),
 4179              		.loc 1 1001 67 view .LVU1156
 4180 00ac 1092     		str	r2, [sp, #64]
 4181              		.loc 1 1006 3 view .LVU1157
 4182 00ae 2191     		str	r1, [sp, #132]
 4183 00b0 4168     		ldr	r1, [r0, #4]
 4184 00b2 1FAE     		add	r6, sp, #124
 4185 00b4 2291     		str	r1, [sp, #136]
 4186 00b6 40F20241 		movw	r1, #1026
 4187 00ba 4391     		str	r1, [sp, #268]
 4188 00bc 416A     		ldr	r1, [r0, #36]
 4189 00be 4296     		str	r6, [sp, #264]
 4190 00c0 2391     		str	r1, [sp, #140]
 4191 00c2 016A     		ldr	r1, [r0, #32]
 4192 00c4 23AE     		add	r6, sp, #140
 4193 00c6 2491     		str	r1, [sp, #144]
 4194 00c8 C169     		ldr	r1, [r0, #28]
 4195 00ca CDE9446C 		strd	r6, ip, [sp, #272]
1007:../Middlewares/stedgeai-lib/Npu/ll_aton/ll_sw_integer.c ****                         SHAPE_INIT(sw_info->general.input.dim.tensor_h, sw_info->general.input.dim.
1008:../Middlewares/stedgeai-lib/Npu/ll_aton/ll_sw_integer.c ****                                    sw_info->general.input.dim.tensor_c, sw_info->general.input.dim.
1009:../Middlewares/stedgeai-lib/Npu/ll_aton/ll_sw_integer.c ****                         STRIDE_INIT(sw_info->general.input.stride.h, sw_info->general.input.stride.
1010:../Middlewares/stedgeai-lib/Npu/ll_aton/ll_sw_integer.c ****                                     sw_info->general.input.stride.c, sw_info->general.input.stride.
1011:../Middlewares/stedgeai-lib/Npu/ll_aton/ll_sw_integer.c ****                         1, &input_output_array, &input_intq);
 4196              		.loc 1 1011 61 is_stmt 1 view .LVU1158
1012:../Middlewares/stedgeai-lib/Npu/ll_aton/ll_sw_integer.c **** 
1013:../Middlewares/stedgeai-lib/Npu/ll_aton/ll_sw_integer.c ****   AI_TENSOR_OBJ_DECLARE(activ_output, , 0x0, 4,
 4197              		.loc 1 1013 3 view .LVU1159
1006:../Middlewares/stedgeai-lib/Npu/ll_aton/ll_sw_integer.c ****                         SHAPE_INIT(sw_info->general.input.dim.tensor_h, sw_info->general.input.dim.
 4198              		.loc 1 1006 3 is_stmt 0 view .LVU1160
 4199 00ce 2591     		str	r1, [sp, #148]
 4200 00d0 8169     		ldr	r1, [r0, #24]
 4201              		.loc 1 1013 3 view .LVU1161
 4202 00d2 27AE     		add	r6, sp, #156
1006:../Middlewares/stedgeai-lib/Npu/ll_aton/ll_sw_integer.c ****                         SHAPE_INIT(sw_info->general.input.dim.tensor_h, sw_info->general.input.dim.
 4203              		.loc 1 1006 3 view .LVU1162
 4204 00d4 2691     		str	r1, [sp, #152]
 4205              		.loc 1 1013 3 view .LVU1163
 4206 00d6 C16B     		ldr	r1, [r0, #60]
 4207 00d8 4996     		str	r6, [sp, #292]
 4208 00da 2791     		str	r1, [sp, #156]
 4209 00dc 816B     		ldr	r1, [r0, #56]
 4210 00de 066D     		ldr	r6, [r0, #80]
 4211 00e0 2891     		str	r1, [sp, #160]
 4212 00e2 416B     		ldr	r1, [r0, #52]
 4213 00e4 2B96     		str	r6, [sp, #172]
 4214 00e6 2991     		str	r1, [sp, #164]
 4215 00e8 016B     		ldr	r1, [r0, #48]
 4216 00ea C66C     		ldr	r6, [r0, #76]
 4217 00ec 2A91     		str	r1, [sp, #168]
 4218 00ee 40F20241 		movw	r1, #1026
 4219 00f2 2C96     		str	r6, [sp, #176]
 4220 00f4 866C     		ldr	r6, [r0, #72]
 999:../Middlewares/stedgeai-lib/Npu/ll_aton/ll_sw_integer.c ****                                    .size = sw_info->os.dim.num_elem,
 4221              		.loc 1 999 21 view .LVU1164
ARM GAS  /tmp/ccZCp2co.s 			page 103


 4222 00f6 0DF1340E 		add	lr, sp, #52
 4223              		.loc 1 1013 3 view .LVU1165
 4224 00fa CDE946E5 		strd	lr, r5, [sp, #280]
 4225 00fe 4894     		str	r4, [sp, #288]
 4226 0100 4A91     		str	r1, [sp, #296]
 4227 0102 2D96     		str	r6, [sp, #180]
 4228 0104 466C     		ldr	r6, [r0, #68]
 983:../Middlewares/stedgeai-lib/Npu/ll_aton/ll_sw_integer.c ****                        sw_info->general.output.mem.start_offset, sw_info->general.output.dim.num_el
 4229              		.loc 1 983 3 view .LVU1166
 4230 0106 1BAB     		add	r3, sp, #108
 4231              		.loc 1 1013 3 view .LVU1167
 4232 0108 2E96     		str	r6, [sp, #184]
 4233 010a 2BAE     		add	r6, sp, #172
 4234 010c CDE94B63 		strd	r6, r3, [sp, #300]
1014:../Middlewares/stedgeai-lib/Npu/ll_aton/ll_sw_integer.c ****                         SHAPE_INIT(sw_info->general.output.dim.tensor_h, sw_info->general.output.di
1015:../Middlewares/stedgeai-lib/Npu/ll_aton/ll_sw_integer.c ****                                    sw_info->general.output.dim.tensor_c, sw_info->general.output.di
1016:../Middlewares/stedgeai-lib/Npu/ll_aton/ll_sw_integer.c ****                         STRIDE_INIT(sw_info->general.output.stride.h, sw_info->general.output.strid
1017:../Middlewares/stedgeai-lib/Npu/ll_aton/ll_sw_integer.c ****                                     sw_info->general.output.stride.c, sw_info->general.output.strid
1018:../Middlewares/stedgeai-lib/Npu/ll_aton/ll_sw_integer.c ****                         1, &activ_output_array, &output_intq);
 4235              		.loc 1 1018 62 is_stmt 1 view .LVU1168
1019:../Middlewares/stedgeai-lib/Npu/ll_aton/ll_sw_integer.c **** 
1020:../Middlewares/stedgeai-lib/Npu/ll_aton/ll_sw_integer.c ****   // layer initialization
1021:../Middlewares/stedgeai-lib/Npu/ll_aton/ll_sw_integer.c ****   switch (sw_info->general.type)
 4236              		.loc 1 1021 3 view .LVU1169
 4237              		.loc 1 1021 27 is_stmt 0 view .LVU1170
 4238 0110 0678     		ldrb	r6, [r0]	@ zero_extendqisi2
 4239              		.loc 1 1021 3 view .LVU1171
 4240 0112 022E     		cmp	r6, #2
 4241              	.LVL239:
 4242              		.loc 1 1021 3 view .LVU1172
 4243 0114 3ED0     		beq	.L164
 4244 0116 382E     		cmp	r6, #56
 4245 0118 00F00381 		beq	.L165
 4246 011c 012E     		cmp	r6, #1
 4247 011e 32D1     		bne	.L159
 4248              	.LBB21:
1022:../Middlewares/stedgeai-lib/Npu/ll_aton/ll_sw_integer.c ****   {
1023:../Middlewares/stedgeai-lib/Npu/ll_aton/ll_sw_integer.c ****   case LL_SW_RELU:
1024:../Middlewares/stedgeai-lib/Npu/ll_aton/ll_sw_integer.c ****   {
1025:../Middlewares/stedgeai-lib/Npu/ll_aton/ll_sw_integer.c ****     // tensor chain initialization
1026:../Middlewares/stedgeai-lib/Npu/ll_aton/ll_sw_integer.c ****     AI_TENSOR_CHAIN_OBJ_DECLARE(activ_chain, , 4, AI_TENSOR_LIST_OBJ_INIT(AI_FLAG_NONE, 1, TENSORS(
 4249              		.loc 1 1026 5 is_stmt 1 view .LVU1173
 4250 0120 0423     		movs	r3, #4
 4251 0122 3B93     		str	r3, [sp, #236]
 4252 0124 15AB     		add	r3, sp, #84
 4253 0126 5D93     		str	r3, [sp, #372]
 4254 0128 0023     		movs	r3, #0
 4255 012a 3FA9     		add	r1, sp, #252
 4256 012c 1591     		str	r1, [sp, #84]
 4257 012e 46A9     		add	r1, sp, #280
 4258 0130 2F91     		str	r1, [sp, #188]
 4259 0132 2FA9     		add	r1, sp, #188
 4260 0134 CDE96013 		strd	r1, r3, [sp, #384]
 4261 0138 33A9     		add	r1, sp, #204
 4262 013a CDE96313 		strd	r1, r3, [sp, #396]
 4263 013e 37A9     		add	r1, sp, #220
 4264 0140 CDE96613 		strd	r1, r3, [sp, #408]
ARM GAS  /tmp/ccZCp2co.s 			page 104


 4265 0144 5CA9     		add	r1, sp, #368
 4266 0146 3C91     		str	r1, [sp, #240]
1027:../Middlewares/stedgeai-lib/Npu/ll_aton/ll_sw_integer.c ****                                 AI_TENSOR_LIST_OBJ_INIT(AI_FLAG_NONE, 1, TENSORS(&activ_output)),
1028:../Middlewares/stedgeai-lib/Npu/ll_aton/ll_sw_integer.c ****                                 AI_TENSOR_LIST_OBJ_EMPTY, AI_TENSOR_LIST_OBJ_EMPTY)
1029:../Middlewares/stedgeai-lib/Npu/ll_aton/ll_sw_integer.c ****     AI_ARRAY_OBJ_DECLARE_STATIC(relu_params, ai_u8, AI_ARRAY_FORMAT_U8, AI_CONST, 1, sw_info->ozp.m
 4267              		.loc 1 1029 5 view .LVU1174
 4268 0148 5049     		ldr	r1, .L175+4
1026:../Middlewares/stedgeai-lib/Npu/ll_aton/ll_sw_integer.c ****                                 AI_TENSOR_LIST_OBJ_INIT(AI_FLAG_NONE, 1, TENSORS(&activ_output)),
 4269              		.loc 1 1026 5 is_stmt 0 view .LVU1175
 4270 014a CDE95E36 		strd	r3, r6, [sp, #376]
 4271              		.loc 1 1029 5 view .LVU1176
 4272 014e CDE94D16 		strd	r1, r6, [sp, #308]
1026:../Middlewares/stedgeai-lib/Npu/ll_aton/ll_sw_integer.c ****                                 AI_TENSOR_LIST_OBJ_INIT(AI_FLAG_NONE, 1, TENSORS(&activ_output)),
 4273              		.loc 1 1026 5 view .LVU1177
 4274 0152 6293     		str	r3, [sp, #392]
 4275 0154 3393     		str	r3, [sp, #204]
 4276 0156 6593     		str	r3, [sp, #404]
 4277 0158 3793     		str	r3, [sp, #220]
 4278 015a 5C96     		str	r6, [sp, #368]
 4279              		.loc 1 1029 5 view .LVU1178
 4280 015c 1178     		ldrb	r1, [r2]	@ zero_extendqisi2
 4281 015e 13AA     		add	r2, sp, #76
 4282 0160 CDE94F23 		strd	r2, r3, [sp, #316]
1030:../Middlewares/stedgeai-lib/Npu/ll_aton/ll_sw_integer.c ****     AI_LAYER_OBJ_DECLARE(activ_layer, 1, NL_TYPE, 0x0, NULL, nl, forward_relu_integer, &activ_chain
 4283              		.loc 1 1030 5 is_stmt 1 view .LVU1179
 4284 0164 4A4A     		ldr	r2, .L175+8
 4285 0166 CDE95633 		strd	r3, r3, [sp, #344]
 4286 016a CDE95423 		strd	r2, r3, [sp, #336]
 4287 016e 5893     		str	r3, [sp, #352]
 4288 0170 484B     		ldr	r3, .L175+12
1031:../Middlewares/stedgeai-lib/Npu/ll_aton/ll_sw_integer.c ****                          .nl_params = AI_ARRAY_OBJ(&relu_params), )
1032:../Middlewares/stedgeai-lib/Npu/ll_aton/ll_sw_integer.c ****     activ_layer.forward(AI_LAYER_OBJ(&activ_layer));
 4289              		.loc 1 1032 5 is_stmt 0 view .LVU1180
 4290 0172 54A8     		add	r0, sp, #336
 4291              	.LVL240:
1030:../Middlewares/stedgeai-lib/Npu/ll_aton/ll_sw_integer.c ****     AI_LAYER_OBJ_DECLARE(activ_layer, 1, NL_TYPE, 0x0, NULL, nl, forward_relu_integer, &activ_chain
 4292              		.loc 1 1030 5 view .LVU1181
 4293 0174 5993     		str	r3, [sp, #356]
 4294 0176 3BAB     		add	r3, sp, #236
 4295 0178 5A93     		str	r3, [sp, #360]
 4296 017a 4DAB     		add	r3, sp, #308
1029:../Middlewares/stedgeai-lib/Npu/ll_aton/ll_sw_integer.c ****     AI_LAYER_OBJ_DECLARE(activ_layer, 1, NL_TYPE, 0x0, NULL, nl, forward_relu_integer, &activ_chain
 4297              		.loc 1 1029 5 view .LVU1182
 4298 017c 8DF84C10 		strb	r1, [sp, #76]
1030:../Middlewares/stedgeai-lib/Npu/ll_aton/ll_sw_integer.c ****     AI_LAYER_OBJ_DECLARE(activ_layer, 1, NL_TYPE, 0x0, NULL, nl, forward_relu_integer, &activ_chain
 4299              		.loc 1 1030 5 view .LVU1183
 4300 0180 5B93     		str	r3, [sp, #364]
 4301              		.loc 1 1032 5 is_stmt 1 view .LVU1184
 4302 0182 FFF7FEFF 		bl	forward_relu_integer
 4303              	.LVL241:
 4304              		.loc 1 1032 5 is_stmt 0 view .LVU1185
 4305              	.LBE21:
1033:../Middlewares/stedgeai-lib/Npu/ll_aton/ll_sw_integer.c ****   }
1034:../Middlewares/stedgeai-lib/Npu/ll_aton/ll_sw_integer.c ****   break;
 4306              		.loc 1 1034 3 is_stmt 1 view .LVU1186
 4307              	.L159:
1035:../Middlewares/stedgeai-lib/Npu/ll_aton/ll_sw_integer.c ****   case LL_SW_PRELU:
ARM GAS  /tmp/ccZCp2co.s 			page 105


1036:../Middlewares/stedgeai-lib/Npu/ll_aton/ll_sw_integer.c ****   {
1037:../Middlewares/stedgeai-lib/Npu/ll_aton/ll_sw_integer.c ****     if (sw_info->operand_s.mem.start_offset != NULL)
1038:../Middlewares/stedgeai-lib/Npu/ll_aton/ll_sw_integer.c ****     {
1039:../Middlewares/stedgeai-lib/Npu/ll_aton/ll_sw_integer.c ****       AI_ARRAY_OBJ_DECLARE(slope_tensor_array, format, sw_info->operand.mem.start_offset,
1040:../Middlewares/stedgeai-lib/Npu/ll_aton/ll_sw_integer.c ****                            sw_info->operand.mem.start_offset, sw_info->operand.dim.num_elem, )
1041:../Middlewares/stedgeai-lib/Npu/ll_aton/ll_sw_integer.c ****       offset_format =
1042:../Middlewares/stedgeai-lib/Npu/ll_aton/ll_sw_integer.c ****           sw_info->operand.format.is_signed ? (AI_BUFFER_META_FLAG_ZEROPOINT_S8) : (AI_BUFFER_META_
1043:../Middlewares/stedgeai-lib/Npu/ll_aton/ll_sw_integer.c ****       scale_format = AI_BUFFER_META_FLAG_SCALE_FLOAT;
1044:../Middlewares/stedgeai-lib/Npu/ll_aton/ll_sw_integer.c ****       ai_intq_info_list slope_intq = {.flags = (offset_format | scale_format),
1045:../Middlewares/stedgeai-lib/Npu/ll_aton/ll_sw_integer.c ****                                       .size = sw_info->operand_s.dim.num_elem,
1046:../Middlewares/stedgeai-lib/Npu/ll_aton/ll_sw_integer.c ****                                       .info = (const ai_intq_info[1]){{
1047:../Middlewares/stedgeai-lib/Npu/ll_aton/ll_sw_integer.c ****                                           .scale = ((float *)sw_info->operand_s.mem.start_offset),
1048:../Middlewares/stedgeai-lib/Npu/ll_aton/ll_sw_integer.c ****                                           .zeropoint = ((void *)sw_info->operand_zp.mem.start_offse
1049:../Middlewares/stedgeai-lib/Npu/ll_aton/ll_sw_integer.c ****                                       }}};
1050:../Middlewares/stedgeai-lib/Npu/ll_aton/ll_sw_integer.c **** 
1051:../Middlewares/stedgeai-lib/Npu/ll_aton/ll_sw_integer.c ****       AI_TENSOR_OBJ_DECLARE(slope_tensor, , 0x0, 4,
1052:../Middlewares/stedgeai-lib/Npu/ll_aton/ll_sw_integer.c ****                             SHAPE_INIT(sw_info->operand.dim.tensor_h, sw_info->operand.dim.tensor_w
1053:../Middlewares/stedgeai-lib/Npu/ll_aton/ll_sw_integer.c ****                                        sw_info->operand.dim.tensor_c, sw_info->operand.dim.tensor_b
1054:../Middlewares/stedgeai-lib/Npu/ll_aton/ll_sw_integer.c ****                             STRIDE_INIT(sw_info->operand.stride.h, sw_info->operand.stride.w, sw_in
1055:../Middlewares/stedgeai-lib/Npu/ll_aton/ll_sw_integer.c ****                                         sw_info->operand.stride.b),
1056:../Middlewares/stedgeai-lib/Npu/ll_aton/ll_sw_integer.c ****                             1, &slope_tensor_array, &slope_intq);
1057:../Middlewares/stedgeai-lib/Npu/ll_aton/ll_sw_integer.c ****       // tensor chain initialization
1058:../Middlewares/stedgeai-lib/Npu/ll_aton/ll_sw_integer.c ****       AI_TENSOR_CHAIN_OBJ_DECLARE(activ_chain, , 4, AI_TENSOR_LIST_OBJ_INIT(AI_FLAG_NONE, 1, TENSOR
1059:../Middlewares/stedgeai-lib/Npu/ll_aton/ll_sw_integer.c ****                                   AI_TENSOR_LIST_OBJ_INIT(AI_FLAG_NONE, 1, TENSORS(&activ_output)),
1060:../Middlewares/stedgeai-lib/Npu/ll_aton/ll_sw_integer.c ****                                   AI_TENSOR_LIST_OBJ_INIT(AI_FLAG_NONE, 1, TENSORS(&slope_tensor)),
1061:../Middlewares/stedgeai-lib/Npu/ll_aton/ll_sw_integer.c ****                                   AI_TENSOR_LIST_OBJ_EMPTY)
1062:../Middlewares/stedgeai-lib/Npu/ll_aton/ll_sw_integer.c ****       AI_ARRAY_OBJ_DECLARE_STATIC(relu_params, ai_u8, AI_ARRAY_FORMAT_U8, AI_CONST, 1, sw_info->ozp
1063:../Middlewares/stedgeai-lib/Npu/ll_aton/ll_sw_integer.c ****       AI_LAYER_OBJ_DECLARE(activ_layer, 1, NL_TYPE, 0x0, NULL, nl, forward_prelu_integer, &activ_ch
1064:../Middlewares/stedgeai-lib/Npu/ll_aton/ll_sw_integer.c ****                            .nl_params = AI_ARRAY_OBJ(&relu_params), )
1065:../Middlewares/stedgeai-lib/Npu/ll_aton/ll_sw_integer.c ****       activ_layer.forward(AI_LAYER_OBJ(&activ_layer));
1066:../Middlewares/stedgeai-lib/Npu/ll_aton/ll_sw_integer.c ****     }
1067:../Middlewares/stedgeai-lib/Npu/ll_aton/ll_sw_integer.c ****     else
1068:../Middlewares/stedgeai-lib/Npu/ll_aton/ll_sw_integer.c ****     {
1069:../Middlewares/stedgeai-lib/Npu/ll_aton/ll_sw_integer.c ****       AI_ARRAY_OBJ_DECLARE(slope_tensor_array, FORMAT, sw_info->operand.mem.start_offset,
1070:../Middlewares/stedgeai-lib/Npu/ll_aton/ll_sw_integer.c ****                            sw_info->operand.mem.start_offset, sw_info->operand.dim.num_elem, )
1071:../Middlewares/stedgeai-lib/Npu/ll_aton/ll_sw_integer.c ****       AI_TENSOR_OBJ_DECLARE(slope_tensor, , 0x0, 4,
1072:../Middlewares/stedgeai-lib/Npu/ll_aton/ll_sw_integer.c ****                             SHAPE_INIT(sw_info->operand.dim.tensor_h, sw_info->operand.dim.tensor_w
1073:../Middlewares/stedgeai-lib/Npu/ll_aton/ll_sw_integer.c ****                                        sw_info->operand.dim.tensor_c, sw_info->operand.dim.tensor_b
1074:../Middlewares/stedgeai-lib/Npu/ll_aton/ll_sw_integer.c ****                             STRIDE_INIT(sw_info->operand.stride.h, sw_info->operand.stride.w, sw_in
1075:../Middlewares/stedgeai-lib/Npu/ll_aton/ll_sw_integer.c ****                                         sw_info->operand.stride.b),
1076:../Middlewares/stedgeai-lib/Npu/ll_aton/ll_sw_integer.c ****                             1, &slope_tensor_array, NULL);
1077:../Middlewares/stedgeai-lib/Npu/ll_aton/ll_sw_integer.c ****       // tensor chain initialization
1078:../Middlewares/stedgeai-lib/Npu/ll_aton/ll_sw_integer.c ****       AI_TENSOR_CHAIN_OBJ_DECLARE(activ_chain, , 4, AI_TENSOR_LIST_OBJ_INIT(AI_FLAG_NONE, 1, TENSOR
1079:../Middlewares/stedgeai-lib/Npu/ll_aton/ll_sw_integer.c ****                                   AI_TENSOR_LIST_OBJ_INIT(AI_FLAG_NONE, 1, TENSORS(&activ_output)),
1080:../Middlewares/stedgeai-lib/Npu/ll_aton/ll_sw_integer.c ****                                   AI_TENSOR_LIST_OBJ_INIT(AI_FLAG_NONE, 1, TENSORS(&slope_tensor)),
1081:../Middlewares/stedgeai-lib/Npu/ll_aton/ll_sw_integer.c ****                                   AI_TENSOR_LIST_OBJ_EMPTY)
1082:../Middlewares/stedgeai-lib/Npu/ll_aton/ll_sw_integer.c ****       AI_ARRAY_OBJ_DECLARE_STATIC(relu_params, ai_u8, AI_ARRAY_FORMAT_U8, AI_CONST, 1, sw_info->ozp
1083:../Middlewares/stedgeai-lib/Npu/ll_aton/ll_sw_integer.c ****       AI_LAYER_OBJ_DECLARE(activ_layer, 1, NL_TYPE, 0x0, NULL, nl, forward_prelu_integer, &activ_ch
1084:../Middlewares/stedgeai-lib/Npu/ll_aton/ll_sw_integer.c ****                            .nl_params = AI_ARRAY_OBJ(&relu_params), )
1085:../Middlewares/stedgeai-lib/Npu/ll_aton/ll_sw_integer.c ****       activ_layer.forward(AI_LAYER_OBJ(&activ_layer));
1086:../Middlewares/stedgeai-lib/Npu/ll_aton/ll_sw_integer.c ****     }
1087:../Middlewares/stedgeai-lib/Npu/ll_aton/ll_sw_integer.c ****   }
1088:../Middlewares/stedgeai-lib/Npu/ll_aton/ll_sw_integer.c ****   break;
1089:../Middlewares/stedgeai-lib/Npu/ll_aton/ll_sw_integer.c ****   case LL_SW_CLIP:
1090:../Middlewares/stedgeai-lib/Npu/ll_aton/ll_sw_integer.c ****   {
1091:../Middlewares/stedgeai-lib/Npu/ll_aton/ll_sw_integer.c ****     // tensor chain initialization
1092:../Middlewares/stedgeai-lib/Npu/ll_aton/ll_sw_integer.c ****     AI_TENSOR_CHAIN_OBJ_DECLARE(activ_chain, , 4, AI_TENSOR_LIST_OBJ_INIT(AI_FLAG_NONE, 1, TENSORS(
ARM GAS  /tmp/ccZCp2co.s 			page 106


1093:../Middlewares/stedgeai-lib/Npu/ll_aton/ll_sw_integer.c ****                                 AI_TENSOR_LIST_OBJ_INIT(AI_FLAG_NONE, 1, TENSORS(&activ_output)),
1094:../Middlewares/stedgeai-lib/Npu/ll_aton/ll_sw_integer.c ****                                 AI_TENSOR_LIST_OBJ_EMPTY, AI_TENSOR_LIST_OBJ_EMPTY)
1095:../Middlewares/stedgeai-lib/Npu/ll_aton/ll_sw_integer.c ****     AI_ARRAY_OBJ_DECLARE_STATIC(clip_layer_params, ai_float, AI_ARRAY_FORMAT_FLOAT, AI_CONST, 2, sw
1096:../Middlewares/stedgeai-lib/Npu/ll_aton/ll_sw_integer.c ****                                 sw_info->max)
1097:../Middlewares/stedgeai-lib/Npu/ll_aton/ll_sw_integer.c ****     AI_LAYER_OBJ_DECLARE(nonlinearity_layer, 2, NL_TYPE, 0x0, NULL, nl, forward_clip, &activ_chain,
1098:../Middlewares/stedgeai-lib/Npu/ll_aton/ll_sw_integer.c ****                          .nl_params = AI_ARRAY_OBJ(&clip_layer_params))
1099:../Middlewares/stedgeai-lib/Npu/ll_aton/ll_sw_integer.c ****     nonlinearity_layer.forward(AI_LAYER_OBJ(&nonlinearity_layer));
1100:../Middlewares/stedgeai-lib/Npu/ll_aton/ll_sw_integer.c ****   }
1101:../Middlewares/stedgeai-lib/Npu/ll_aton/ll_sw_integer.c ****   break;
1102:../Middlewares/stedgeai-lib/Npu/ll_aton/ll_sw_integer.c ****   default:
1103:../Middlewares/stedgeai-lib/Npu/ll_aton/ll_sw_integer.c ****     break;
1104:../Middlewares/stedgeai-lib/Npu/ll_aton/ll_sw_integer.c ****   }
1105:../Middlewares/stedgeai-lib/Npu/ll_aton/ll_sw_integer.c **** }
 4308              		.loc 1 1105 1 is_stmt 0 view .LVU1187
 4309 0186 69B0     		add	sp, sp, #420
 4310              		.cfi_remember_state
 4311              		.cfi_def_cfa_offset 36
 4312              		@ sp needed
 4313 0188 BDE8F08F 		pop	{r4, r5, r6, r7, r8, r9, r10, fp, pc}
 4314              	.LVL242:
 4315              	.L169:
 4316              		.cfi_restore_state
 977:../Middlewares/stedgeai-lib/Npu/ll_aton/ll_sw_integer.c ****   AI_ARRAY_OBJ_DECLARE(input_output_array, format, sw_info->general.input.mem.start_offset,
 4317              		.loc 1 977 60 discriminator 2 view .LVU1188
 4318 018c 424B     		ldr	r3, .L175+16
 4319 018e 40E7     		b	.L160
 4320              	.LVL243:
 4321              	.L170:
 982:../Middlewares/stedgeai-lib/Npu/ll_aton/ll_sw_integer.c ****   AI_ARRAY_OBJ_DECLARE(activ_output_array, format, sw_info->general.output.mem.start_offset,
 4322              		.loc 1 982 53 discriminator 2 view .LVU1189
 4323 0190 414F     		ldr	r7, .L175+16
 4324 0192 4DE7     		b	.L161
 4325              	.LVL244:
 4326              	.L164:
1037:../Middlewares/stedgeai-lib/Npu/ll_aton/ll_sw_integer.c ****     {
 4327              		.loc 1 1037 5 is_stmt 1 view .LVU1190
 4328              	.LBB22:
1071:../Middlewares/stedgeai-lib/Npu/ll_aton/ll_sw_integer.c ****                             SHAPE_INIT(sw_info->operand.dim.tensor_h, sw_info->operand.dim.tensor_w
 4329              		.loc 1 1071 7 is_stmt 0 view .LVU1191
 4330 0194 C16F     		ldr	r1, [r0, #124]
 4331              	.LBE22:
1037:../Middlewares/stedgeai-lib/Npu/ll_aton/ll_sw_integer.c ****     {
 4332              		.loc 1 1037 31 view .LVU1192
 4333 0196 D0F8AC30 		ldr	r3, [r0, #172]
 4334              	.LBB23:
1071:../Middlewares/stedgeai-lib/Npu/ll_aton/ll_sw_integer.c ****                             SHAPE_INIT(sw_info->operand.dim.tensor_h, sw_info->operand.dim.tensor_w
 4335              		.loc 1 1071 7 view .LVU1193
 4336 019a 0191     		str	r1, [sp, #4]
 4337 019c 816F     		ldr	r1, [r0, #120]
 4338              	.LBE23:
 4339              	.LBB24:
1039:../Middlewares/stedgeai-lib/Npu/ll_aton/ll_sw_integer.c ****                            sw_info->operand.mem.start_offset, sw_info->operand.dim.num_elem, )
 4340              		.loc 1 1039 7 view .LVU1194
 4341 019e D0F86CB0 		ldr	fp, [r0, #108]
 4342              	.LBE24:
 4343              	.LBB25:
1071:../Middlewares/stedgeai-lib/Npu/ll_aton/ll_sw_integer.c ****                             SHAPE_INIT(sw_info->operand.dim.tensor_h, sw_info->operand.dim.tensor_w
ARM GAS  /tmp/ccZCp2co.s 			page 107


 4344              		.loc 1 1071 7 view .LVU1195
 4345 01a2 0291     		str	r1, [sp, #8]
 4346 01a4 416F     		ldr	r1, [r0, #116]
 4347              	.LBE25:
 4348              	.LBB26:
1039:../Middlewares/stedgeai-lib/Npu/ll_aton/ll_sw_integer.c ****                            sw_info->operand.mem.start_offset, sw_info->operand.dim.num_elem, )
 4349              		.loc 1 1039 7 view .LVU1196
 4350 01a6 D0F88060 		ldr	r6, [r0, #128]
 4351              	.LBE26:
 4352              	.LBB27:
1071:../Middlewares/stedgeai-lib/Npu/ll_aton/ll_sw_integer.c ****                             SHAPE_INIT(sw_info->operand.dim.tensor_h, sw_info->operand.dim.tensor_w
 4353              		.loc 1 1071 7 view .LVU1197
 4354 01aa D0F870C0 		ldr	ip, [r0, #112]
 4355 01ae 0391     		str	r1, [sp, #12]
 4356              	.LBE27:
 4357              	.LBB28:
1051:../Middlewares/stedgeai-lib/Npu/ll_aton/ll_sw_integer.c ****                             SHAPE_INIT(sw_info->operand.dim.tensor_h, sw_info->operand.dim.tensor_w
 4358              		.loc 1 1051 7 view .LVU1198
 4359 01b0 D0E9199A 		ldrd	r9, r10, [r0, #100]
 4360 01b4 D0E917E8 		ldrd	lr, r8, [r0, #92]
 4361              	.LBE28:
1037:../Middlewares/stedgeai-lib/Npu/ll_aton/ll_sw_integer.c ****     {
 4362              		.loc 1 1037 8 view .LVU1199
 4363 01b8 002B     		cmp	r3, #0
 4364 01ba 71D0     		beq	.L167
 4365              	.LBB29:
1039:../Middlewares/stedgeai-lib/Npu/ll_aton/ll_sw_integer.c ****                            sw_info->operand.mem.start_offset, sw_info->operand.dim.num_elem, )
 4366              		.loc 1 1039 7 is_stmt 1 view .LVU1200
1046:../Middlewares/stedgeai-lib/Npu/ll_aton/ll_sw_integer.c ****                                           .scale = ((float *)sw_info->operand_s.mem.start_offset),
 4367              		.loc 1 1046 70 is_stmt 0 view .LVU1201
 4368 01bc 1393     		str	r3, [sp, #76]
 4369 01be D0F8D830 		ldr	r3, [r0, #216]
1039:../Middlewares/stedgeai-lib/Npu/ll_aton/ll_sw_integer.c ****                            sw_info->operand.mem.start_offset, sw_info->operand.dim.num_elem, )
 4370              		.loc 1 1039 7 view .LVU1202
 4371 01c2 CDE93166 		strd	r6, r6, [sp, #196]
1041:../Middlewares/stedgeai-lib/Npu/ll_aton/ll_sw_integer.c ****           sw_info->operand.format.is_signed ? (AI_BUFFER_META_FLAG_ZEROPOINT_S8) : (AI_BUFFER_META_
 4372              		.loc 1 1041 7 is_stmt 1 view .LVU1203
1046:../Middlewares/stedgeai-lib/Npu/ll_aton/ll_sw_integer.c ****                                           .scale = ((float *)sw_info->operand_s.mem.start_offset),
 4373              		.loc 1 1046 70 is_stmt 0 view .LVU1204
 4374 01c6 1493     		str	r3, [sp, #80]
1051:../Middlewares/stedgeai-lib/Npu/ll_aton/ll_sw_integer.c ****                             SHAPE_INIT(sw_info->operand.dim.tensor_h, sw_info->operand.dim.tensor_w
 4375              		.loc 1 1051 7 view .LVU1205
 4376 01c8 33AB     		add	r3, sp, #204
 4377 01ca 5093     		str	r3, [sp, #320]
 4378 01cc 40F20243 		movw	r3, #1026
1041:../Middlewares/stedgeai-lib/Npu/ll_aton/ll_sw_integer.c ****           sw_info->operand.format.is_signed ? (AI_BUFFER_META_FLAG_ZEROPOINT_S8) : (AI_BUFFER_META_
 4379              		.loc 1 1041 21 view .LVU1206
 4380 01d0 90F88460 		ldrb	r6, [r0, #132]	@ zero_extendqisi2
1051:../Middlewares/stedgeai-lib/Npu/ll_aton/ll_sw_integer.c ****                             SHAPE_INIT(sw_info->operand.dim.tensor_h, sw_info->operand.dim.tensor_w
 4381              		.loc 1 1051 7 view .LVU1207
 4382 01d4 5193     		str	r3, [sp, #324]
 4383 01d6 019B     		ldr	r3, [sp, #4]
1041:../Middlewares/stedgeai-lib/Npu/ll_aton/ll_sw_integer.c ****           sw_info->operand.format.is_signed ? (AI_BUFFER_META_FLAG_ZEROPOINT_S8) : (AI_BUFFER_META_
 4384              		.loc 1 1041 21 discriminator 1 view .LVU1208
 4385 01d8 002E     		cmp	r6, #0
1051:../Middlewares/stedgeai-lib/Npu/ll_aton/ll_sw_integer.c ****                             SHAPE_INIT(sw_info->operand.dim.tensor_h, sw_info->operand.dim.tensor_w
 4386              		.loc 1 1051 7 view .LVU1209
ARM GAS  /tmp/ccZCp2co.s 			page 108


 4387 01da 3793     		str	r3, [sp, #220]
 4388 01dc 029B     		ldr	r3, [sp, #8]
1039:../Middlewares/stedgeai-lib/Npu/ll_aton/ll_sw_integer.c ****                            sw_info->operand.mem.start_offset, sw_info->operand.dim.num_elem, )
 4389              		.loc 1 1039 7 view .LVU1210
 4390 01de CDE92F7B 		strd	r7, fp, [sp, #188]
1041:../Middlewares/stedgeai-lib/Npu/ll_aton/ll_sw_integer.c ****           sw_info->operand.format.is_signed ? (AI_BUFFER_META_FLAG_ZEROPOINT_S8) : (AI_BUFFER_META_
 4391              		.loc 1 1041 21 discriminator 1 view .LVU1211
 4392 01e2 0CBF     		ite	eq
 4393 01e4 0227     		moveq	r7, #2
 4394              	.LVL245:
1041:../Middlewares/stedgeai-lib/Npu/ll_aton/ll_sw_integer.c ****           sw_info->operand.format.is_signed ? (AI_BUFFER_META_FLAG_ZEROPOINT_S8) : (AI_BUFFER_META_
 4395              		.loc 1 1041 21 discriminator 1 view .LVU1212
 4396 01e6 0427     		movne	r7, #4
 4397              	.LVL246:
1043:../Middlewares/stedgeai-lib/Npu/ll_aton/ll_sw_integer.c ****       ai_intq_info_list slope_intq = {.flags = (offset_format | scale_format),
 4398              		.loc 1 1043 7 is_stmt 1 view .LVU1213
1044:../Middlewares/stedgeai-lib/Npu/ll_aton/ll_sw_integer.c ****                                       .size = sw_info->operand_s.dim.num_elem,
 4399              		.loc 1 1044 7 view .LVU1214
1051:../Middlewares/stedgeai-lib/Npu/ll_aton/ll_sw_integer.c ****                             SHAPE_INIT(sw_info->operand.dim.tensor_h, sw_info->operand.dim.tensor_w
 4400              		.loc 1 1051 7 is_stmt 0 view .LVU1215
 4401 01e8 3893     		str	r3, [sp, #224]
 4402 01ea 37AB     		add	r3, sp, #220
 4403 01ec 5293     		str	r3, [sp, #328]
 4404 01ee 2FAB     		add	r3, sp, #188
 4405 01f0 5393     		str	r3, [sp, #332]
1058:../Middlewares/stedgeai-lib/Npu/ll_aton/ll_sw_integer.c ****                                   AI_TENSOR_LIST_OBJ_INIT(AI_FLAG_NONE, 1, TENSORS(&activ_output)),
 4406              		.loc 1 1058 7 view .LVU1216
 4407 01f2 0423     		movs	r3, #4
1051:../Middlewares/stedgeai-lib/Npu/ll_aton/ll_sw_integer.c ****                             SHAPE_INIT(sw_info->operand.dim.tensor_h, sw_info->operand.dim.tensor_w
 4408              		.loc 1 1051 7 view .LVU1217
 4409 01f4 CDE9391C 		strd	r1, ip, [sp, #228]
1058:../Middlewares/stedgeai-lib/Npu/ll_aton/ll_sw_integer.c ****                                   AI_TENSOR_LIST_OBJ_INIT(AI_FLAG_NONE, 1, TENSORS(&activ_output)),
 4410              		.loc 1 1058 7 view .LVU1218
 4411 01f8 0121     		movs	r1, #1
1044:../Middlewares/stedgeai-lib/Npu/ll_aton/ll_sw_integer.c ****                                       .size = sw_info->operand_s.dim.num_elem,
 4412              		.loc 1 1044 25 view .LVU1219
 4413 01fa 47F00107 		orr	r7, r7, #1
 4414              	.LVL247:
1044:../Middlewares/stedgeai-lib/Npu/ll_aton/ll_sw_integer.c ****                                       .size = sw_info->operand_s.dim.num_elem,
 4415              		.loc 1 1044 25 view .LVU1220
 4416 01fe ADF84470 		strh	r7, [sp, #68]	@ movhi
 4417 0202 D0F89870 		ldr	r7, [r0, #152]
1051:../Middlewares/stedgeai-lib/Npu/ll_aton/ll_sw_integer.c ****                             SHAPE_INIT(sw_info->operand.dim.tensor_h, sw_info->operand.dim.tensor_w
 4418              		.loc 1 1051 7 view .LVU1221
 4419 0206 4F94     		str	r4, [sp, #316]
1044:../Middlewares/stedgeai-lib/Npu/ll_aton/ll_sw_integer.c ****                                       .size = sw_info->operand_s.dim.num_elem,
 4420              		.loc 1 1044 25 view .LVU1222
 4421 0208 ADF84670 		strh	r7, [sp, #70]	@ movhi
1058:../Middlewares/stedgeai-lib/Npu/ll_aton/ll_sw_integer.c ****                                   AI_TENSOR_LIST_OBJ_INIT(AI_FLAG_NONE, 1, TENSORS(&activ_output)),
 4422              		.loc 1 1058 7 view .LVU1223
 4423 020c 1593     		str	r3, [sp, #84]
 4424 020e 3FAC     		add	r4, sp, #252
 4425 0210 05AB     		add	r3, sp, #20
1044:../Middlewares/stedgeai-lib/Npu/ll_aton/ll_sw_integer.c ****                                       .size = sw_info->operand_s.dim.num_elem,
 4426              		.loc 1 1044 25 view .LVU1224
 4427 0212 11AE     		add	r6, sp, #68
1046:../Middlewares/stedgeai-lib/Npu/ll_aton/ll_sw_integer.c ****                                           .scale = ((float *)sw_info->operand_s.mem.start_offset),
ARM GAS  /tmp/ccZCp2co.s 			page 109


 4428              		.loc 1 1046 70 view .LVU1225
 4429 0214 13AF     		add	r7, sp, #76
1051:../Middlewares/stedgeai-lib/Npu/ll_aton/ll_sw_integer.c ****                             SHAPE_INIT(sw_info->operand.dim.tensor_h, sw_info->operand.dim.tensor_w
 4430              		.loc 1 1051 7 view .LVU1226
 4431 0216 CDE94D65 		strd	r6, r5, [sp, #308]
1058:../Middlewares/stedgeai-lib/Npu/ll_aton/ll_sw_integer.c ****                                   AI_TENSOR_LIST_OBJ_INIT(AI_FLAG_NONE, 1, TENSORS(&activ_output)),
 4432              		.loc 1 1058 7 view .LVU1227
 4433 021a 5C91     		str	r1, [sp, #368]
 4434 021c 0594     		str	r4, [sp, #20]
1051:../Middlewares/stedgeai-lib/Npu/ll_aton/ll_sw_integer.c ****                             SHAPE_INIT(sw_info->operand.dim.tensor_h, sw_info->operand.dim.tensor_w
 4435              		.loc 1 1051 7 view .LVU1228
 4436 021e CDE933A9 		strd	r10, r9, [sp, #204]
 4437 0222 CDE9358E 		strd	r8, lr, [sp, #212]
1044:../Middlewares/stedgeai-lib/Npu/ll_aton/ll_sw_integer.c ****                                       .size = sw_info->operand_s.dim.num_elem,
 4438              		.loc 1 1044 25 view .LVU1229
 4439 0226 1297     		str	r7, [sp, #72]
1051:../Middlewares/stedgeai-lib/Npu/ll_aton/ll_sw_integer.c ****                             SHAPE_INIT(sw_info->operand.dim.tensor_h, sw_info->operand.dim.tensor_w
 4440              		.loc 1 1051 7 is_stmt 1 view .LVU1230
1056:../Middlewares/stedgeai-lib/Npu/ll_aton/ll_sw_integer.c ****       // tensor chain initialization
 4441              		.loc 1 1056 65 view .LVU1231
1058:../Middlewares/stedgeai-lib/Npu/ll_aton/ll_sw_integer.c ****                                   AI_TENSOR_LIST_OBJ_INIT(AI_FLAG_NONE, 1, TENSORS(&activ_output)),
 4442              		.loc 1 1058 7 view .LVU1232
 4443 0228 5D93     		str	r3, [sp, #372]
 4444 022a 0023     		movs	r3, #0
 4445 022c 06AC     		add	r4, sp, #24
 4446 022e CDE96043 		strd	r4, r3, [sp, #384]
 4447 0232 07AC     		add	r4, sp, #28
 4448 0234 CDE96343 		strd	r4, r3, [sp, #396]
 4449 0238 08AC     		add	r4, sp, #32
 4450 023a CDE96643 		strd	r4, r3, [sp, #408]
 4451 023e 5CAC     		add	r4, sp, #368
 4452 0240 1694     		str	r4, [sp, #88]
1062:../Middlewares/stedgeai-lib/Npu/ll_aton/ll_sw_integer.c ****       AI_LAYER_OBJ_DECLARE(activ_layer, 1, NL_TYPE, 0x0, NULL, nl, forward_prelu_integer, &activ_ch
 4453              		.loc 1 1062 7 view .LVU1233
 4454 0242 124C     		ldr	r4, .L175+4
1058:../Middlewares/stedgeai-lib/Npu/ll_aton/ll_sw_integer.c ****                                   AI_TENSOR_LIST_OBJ_INIT(AI_FLAG_NONE, 1, TENSORS(&activ_output)),
 4455              		.loc 1 1058 7 is_stmt 0 view .LVU1234
 4456 0244 46AD     		add	r5, sp, #280
 4457 0246 CDE95E31 		strd	r3, r1, [sp, #376]
1062:../Middlewares/stedgeai-lib/Npu/ll_aton/ll_sw_integer.c ****       AI_LAYER_OBJ_DECLARE(activ_layer, 1, NL_TYPE, 0x0, NULL, nl, forward_prelu_integer, &activ_ch
 4458              		.loc 1 1062 7 view .LVU1235
 4459 024a CDE93B41 		strd	r4, r1, [sp, #236]
1058:../Middlewares/stedgeai-lib/Npu/ll_aton/ll_sw_integer.c ****                                   AI_TENSOR_LIST_OBJ_INIT(AI_FLAG_NONE, 1, TENSORS(&activ_output)),
 4460              		.loc 1 1058 7 view .LVU1236
 4461 024e 0695     		str	r5, [sp, #24]
 4462 0250 4DAD     		add	r5, sp, #308
 4463 0252 6291     		str	r1, [sp, #392]
 4464 0254 0795     		str	r5, [sp, #28]
 4465 0256 6593     		str	r3, [sp, #404]
 4466 0258 0893     		str	r3, [sp, #32]
1062:../Middlewares/stedgeai-lib/Npu/ll_aton/ll_sw_integer.c ****       AI_LAYER_OBJ_DECLARE(activ_layer, 1, NL_TYPE, 0x0, NULL, nl, forward_prelu_integer, &activ_ch
 4467              		.loc 1 1062 7 view .LVU1237
 4468 025a 1178     		ldrb	r1, [r2]	@ zero_extendqisi2
1058:../Middlewares/stedgeai-lib/Npu/ll_aton/ll_sw_integer.c ****                                   AI_TENSOR_LIST_OBJ_INIT(AI_FLAG_NONE, 1, TENSORS(&activ_output)),
 4469              		.loc 1 1058 7 view .LVU1238
 4470 025c 15A8     		add	r0, sp, #84
 4471              	.LVL248:
ARM GAS  /tmp/ccZCp2co.s 			page 110


1062:../Middlewares/stedgeai-lib/Npu/ll_aton/ll_sw_integer.c ****       AI_LAYER_OBJ_DECLARE(activ_layer, 1, NL_TYPE, 0x0, NULL, nl, forward_prelu_integer, &activ_ch
 4472              		.loc 1 1062 7 view .LVU1239
 4473 025e 04AA     		add	r2, sp, #16
 4474 0260 8DF81010 		strb	r1, [sp, #16]
 4475              	.LVL249:
 4476              	.L174:
1062:../Middlewares/stedgeai-lib/Npu/ll_aton/ll_sw_integer.c ****       AI_LAYER_OBJ_DECLARE(activ_layer, 1, NL_TYPE, 0x0, NULL, nl, forward_prelu_integer, &activ_ch
 4477              		.loc 1 1062 7 view .LVU1240
 4478              	.LBE29:
 4479              	.LBB30:
1082:../Middlewares/stedgeai-lib/Npu/ll_aton/ll_sw_integer.c ****       AI_LAYER_OBJ_DECLARE(activ_layer, 1, NL_TYPE, 0x0, NULL, nl, forward_prelu_integer, &activ_ch
 4480              		.loc 1 1082 7 view .LVU1241
 4481 0264 CDE93D23 		strd	r2, r3, [sp, #244]
1083:../Middlewares/stedgeai-lib/Npu/ll_aton/ll_sw_integer.c ****                            .nl_params = AI_ARRAY_OBJ(&relu_params), )
 4482              		.loc 1 1083 7 is_stmt 1 view .LVU1242
 4483 0268 094A     		ldr	r2, .L175+8
 4484 026a CDE95633 		strd	r3, r3, [sp, #344]
 4485 026e CDE95423 		strd	r2, r3, [sp, #336]
 4486 0272 5893     		str	r3, [sp, #352]
 4487 0274 094B     		ldr	r3, .L175+20
 4488 0276 CDE95930 		strd	r3, r0, [sp, #356]
 4489 027a 3BAB     		add	r3, sp, #236
1085:../Middlewares/stedgeai-lib/Npu/ll_aton/ll_sw_integer.c ****     }
 4490              		.loc 1 1085 7 is_stmt 0 view .LVU1243
 4491 027c 54A8     		add	r0, sp, #336
1083:../Middlewares/stedgeai-lib/Npu/ll_aton/ll_sw_integer.c ****                            .nl_params = AI_ARRAY_OBJ(&relu_params), )
 4492              		.loc 1 1083 7 view .LVU1244
 4493 027e 5B93     		str	r3, [sp, #364]
1085:../Middlewares/stedgeai-lib/Npu/ll_aton/ll_sw_integer.c ****     }
 4494              		.loc 1 1085 7 is_stmt 1 view .LVU1245
 4495 0280 FFF7FEFF 		bl	forward_prelu_integer
 4496              	.LVL250:
1085:../Middlewares/stedgeai-lib/Npu/ll_aton/ll_sw_integer.c ****     }
 4497              		.loc 1 1085 7 is_stmt 0 view .LVU1246
 4498 0284 7FE7     		b	.L159
 4499              	.L176:
 4500 0286 00BF     		.align	2
 4501              	.L175:
 4502 0288 40048408 		.word	142869568
 4503 028c 40040400 		.word	263232
 4504 0290 07010100 		.word	65799
 4505 0294 00000000 		.word	forward_relu_integer
 4506 0298 40040408 		.word	134480960
 4507 029c 00000000 		.word	forward_prelu_integer
 4508              	.LVL251:
 4509              	.L167:
1069:../Middlewares/stedgeai-lib/Npu/ll_aton/ll_sw_integer.c ****                            sw_info->operand.mem.start_offset, sw_info->operand.dim.num_elem, )
 4510              		.loc 1 1069 7 is_stmt 1 view .LVU1247
1071:../Middlewares/stedgeai-lib/Npu/ll_aton/ll_sw_integer.c ****                             SHAPE_INIT(sw_info->operand.dim.tensor_h, sw_info->operand.dim.tensor_w
 4511              		.loc 1 1071 7 is_stmt 0 view .LVU1248
 4512 02a0 40F20241 		movw	r1, #1026
 4513 02a4 5191     		str	r1, [sp, #324]
 4514 02a6 0199     		ldr	r1, [sp, #4]
 4515 02a8 CDE94D35 		strd	r3, r5, [sp, #308]
 4516 02ac 3791     		str	r1, [sp, #220]
 4517 02ae 0299     		ldr	r1, [sp, #8]
1069:../Middlewares/stedgeai-lib/Npu/ll_aton/ll_sw_integer.c ****                            sw_info->operand.mem.start_offset, sw_info->operand.dim.num_elem, )
ARM GAS  /tmp/ccZCp2co.s 			page 111


 4518              		.loc 1 1069 7 view .LVU1249
 4519 02b0 3848     		ldr	r0, .L177
 4520              	.LVL252:
1071:../Middlewares/stedgeai-lib/Npu/ll_aton/ll_sw_integer.c ****                             SHAPE_INIT(sw_info->operand.dim.tensor_h, sw_info->operand.dim.tensor_w
 4521              		.loc 1 1071 7 view .LVU1250
 4522 02b2 3891     		str	r1, [sp, #224]
 4523 02b4 0399     		ldr	r1, [sp, #12]
 4524 02b6 4F94     		str	r4, [sp, #316]
 4525 02b8 CDE9391C 		strd	r1, ip, [sp, #228]
 4526 02bc 37A9     		add	r1, sp, #220
 4527 02be 5291     		str	r1, [sp, #328]
 4528 02c0 2FA9     		add	r1, sp, #188
 4529 02c2 5391     		str	r1, [sp, #332]
1078:../Middlewares/stedgeai-lib/Npu/ll_aton/ll_sw_integer.c ****                                   AI_TENSOR_LIST_OBJ_INIT(AI_FLAG_NONE, 1, TENSORS(&activ_output)),
 4530              		.loc 1 1078 7 view .LVU1251
 4531 02c4 0421     		movs	r1, #4
 4532 02c6 1591     		str	r1, [sp, #84]
 4533 02c8 0121     		movs	r1, #1
 4534 02ca 07AC     		add	r4, sp, #28
 4535 02cc 3FAD     		add	r5, sp, #252
 4536 02ce CDE95D43 		strd	r4, r3, [sp, #372]
 4537 02d2 0795     		str	r5, [sp, #28]
 4538 02d4 08AC     		add	r4, sp, #32
 4539 02d6 46AD     		add	r5, sp, #280
1069:../Middlewares/stedgeai-lib/Npu/ll_aton/ll_sw_integer.c ****                            sw_info->operand.mem.start_offset, sw_info->operand.dim.num_elem, )
 4540              		.loc 1 1069 7 view .LVU1252
 4541 02d8 CDE92F0B 		strd	r0, fp, [sp, #188]
1078:../Middlewares/stedgeai-lib/Npu/ll_aton/ll_sw_integer.c ****                                   AI_TENSOR_LIST_OBJ_INIT(AI_FLAG_NONE, 1, TENSORS(&activ_output)),
 4542              		.loc 1 1078 7 view .LVU1253
 4543 02dc CDE96043 		strd	r4, r3, [sp, #384]
1071:../Middlewares/stedgeai-lib/Npu/ll_aton/ll_sw_integer.c ****                             SHAPE_INIT(sw_info->operand.dim.tensor_h, sw_info->operand.dim.tensor_w
 4544              		.loc 1 1071 7 view .LVU1254
 4545 02e0 33A8     		add	r0, sp, #204
1078:../Middlewares/stedgeai-lib/Npu/ll_aton/ll_sw_integer.c ****                                   AI_TENSOR_LIST_OBJ_INIT(AI_FLAG_NONE, 1, TENSORS(&activ_output)),
 4546              		.loc 1 1078 7 view .LVU1255
 4547 02e2 0895     		str	r5, [sp, #32]
 4548 02e4 11AC     		add	r4, sp, #68
 4549 02e6 4DAD     		add	r5, sp, #308
1071:../Middlewares/stedgeai-lib/Npu/ll_aton/ll_sw_integer.c ****                             SHAPE_INIT(sw_info->operand.dim.tensor_h, sw_info->operand.dim.tensor_w
 4550              		.loc 1 1071 7 view .LVU1256
 4551 02e8 5090     		str	r0, [sp, #320]
1078:../Middlewares/stedgeai-lib/Npu/ll_aton/ll_sw_integer.c ****                                   AI_TENSOR_LIST_OBJ_INIT(AI_FLAG_NONE, 1, TENSORS(&activ_output)),
 4552              		.loc 1 1078 7 view .LVU1257
 4553 02ea 5C91     		str	r1, [sp, #368]
 4554 02ec 5F91     		str	r1, [sp, #380]
 4555 02ee 6291     		str	r1, [sp, #392]
1069:../Middlewares/stedgeai-lib/Npu/ll_aton/ll_sw_integer.c ****                            sw_info->operand.mem.start_offset, sw_info->operand.dim.num_elem, )
 4556              		.loc 1 1069 7 view .LVU1258
 4557 02f0 CDE93166 		strd	r6, r6, [sp, #196]
1071:../Middlewares/stedgeai-lib/Npu/ll_aton/ll_sw_integer.c ****                             SHAPE_INIT(sw_info->operand.dim.tensor_h, sw_info->operand.dim.tensor_w
 4558              		.loc 1 1071 7 is_stmt 1 view .LVU1259
1076:../Middlewares/stedgeai-lib/Npu/ll_aton/ll_sw_integer.c ****       // tensor chain initialization
 4559              		.loc 1 1076 58 view .LVU1260
1078:../Middlewares/stedgeai-lib/Npu/ll_aton/ll_sw_integer.c ****                                   AI_TENSOR_LIST_OBJ_INIT(AI_FLAG_NONE, 1, TENSORS(&activ_output)),
 4560              		.loc 1 1078 7 view .LVU1261
1071:../Middlewares/stedgeai-lib/Npu/ll_aton/ll_sw_integer.c ****                             SHAPE_INIT(sw_info->operand.dim.tensor_h, sw_info->operand.dim.tensor_w
 4561              		.loc 1 1071 7 is_stmt 0 view .LVU1262
ARM GAS  /tmp/ccZCp2co.s 			page 112


 4562 02f4 CDE933A9 		strd	r10, r9, [sp, #204]
 4563 02f8 CDE9358E 		strd	r8, lr, [sp, #212]
1078:../Middlewares/stedgeai-lib/Npu/ll_aton/ll_sw_integer.c ****                                   AI_TENSOR_LIST_OBJ_INIT(AI_FLAG_NONE, 1, TENSORS(&activ_output)),
 4564              		.loc 1 1078 7 view .LVU1263
 4565 02fc 1195     		str	r5, [sp, #68]
 4566 02fe CDE96343 		strd	r4, r3, [sp, #396]
 4567 0302 13AC     		add	r4, sp, #76
 4568 0304 CDE96643 		strd	r4, r3, [sp, #408]
 4569 0308 5CAC     		add	r4, sp, #368
 4570 030a 1694     		str	r4, [sp, #88]
1082:../Middlewares/stedgeai-lib/Npu/ll_aton/ll_sw_integer.c ****       AI_LAYER_OBJ_DECLARE(activ_layer, 1, NL_TYPE, 0x0, NULL, nl, forward_prelu_integer, &activ_ch
 4571              		.loc 1 1082 7 is_stmt 1 view .LVU1264
 4572 030c 224C     		ldr	r4, .L177+4
1078:../Middlewares/stedgeai-lib/Npu/ll_aton/ll_sw_integer.c ****                                   AI_TENSOR_LIST_OBJ_INIT(AI_FLAG_NONE, 1, TENSORS(&activ_output)),
 4573              		.loc 1 1078 7 is_stmt 0 view .LVU1265
 4574 030e 6593     		str	r3, [sp, #404]
1082:../Middlewares/stedgeai-lib/Npu/ll_aton/ll_sw_integer.c ****       AI_LAYER_OBJ_DECLARE(activ_layer, 1, NL_TYPE, 0x0, NULL, nl, forward_prelu_integer, &activ_ch
 4575              		.loc 1 1082 7 view .LVU1266
 4576 0310 CDE93B41 		strd	r4, r1, [sp, #236]
1078:../Middlewares/stedgeai-lib/Npu/ll_aton/ll_sw_integer.c ****                                   AI_TENSOR_LIST_OBJ_INIT(AI_FLAG_NONE, 1, TENSORS(&activ_output)),
 4577              		.loc 1 1078 7 view .LVU1267
 4578 0314 1393     		str	r3, [sp, #76]
1082:../Middlewares/stedgeai-lib/Npu/ll_aton/ll_sw_integer.c ****       AI_LAYER_OBJ_DECLARE(activ_layer, 1, NL_TYPE, 0x0, NULL, nl, forward_prelu_integer, &activ_ch
 4579              		.loc 1 1082 7 view .LVU1268
 4580 0316 1178     		ldrb	r1, [r2]	@ zero_extendqisi2
1078:../Middlewares/stedgeai-lib/Npu/ll_aton/ll_sw_integer.c ****                                   AI_TENSOR_LIST_OBJ_INIT(AI_FLAG_NONE, 1, TENSORS(&activ_output)),
 4581              		.loc 1 1078 7 view .LVU1269
 4582 0318 15A8     		add	r0, sp, #84
1082:../Middlewares/stedgeai-lib/Npu/ll_aton/ll_sw_integer.c ****       AI_LAYER_OBJ_DECLARE(activ_layer, 1, NL_TYPE, 0x0, NULL, nl, forward_prelu_integer, &activ_ch
 4583              		.loc 1 1082 7 view .LVU1270
 4584 031a 06AA     		add	r2, sp, #24
 4585 031c 8DF81810 		strb	r1, [sp, #24]
 4586 0320 A0E7     		b	.L174
 4587              	.LVL253:
 4588              	.L165:
1082:../Middlewares/stedgeai-lib/Npu/ll_aton/ll_sw_integer.c ****       AI_LAYER_OBJ_DECLARE(activ_layer, 1, NL_TYPE, 0x0, NULL, nl, forward_prelu_integer, &activ_ch
 4589              		.loc 1 1082 7 view .LVU1271
 4590              	.LBE30:
 4591              	.LBB31:
1092:../Middlewares/stedgeai-lib/Npu/ll_aton/ll_sw_integer.c ****                                 AI_TENSOR_LIST_OBJ_INIT(AI_FLAG_NONE, 1, TENSORS(&activ_output)),
 4592              		.loc 1 1092 5 is_stmt 1 view .LVU1272
 4593 0322 0423     		movs	r3, #4
 4594 0324 3793     		str	r3, [sp, #220]
 4595 0326 13AB     		add	r3, sp, #76
 4596 0328 0122     		movs	r2, #1
 4597 032a 5D93     		str	r3, [sp, #372]
 4598 032c 0023     		movs	r3, #0
 4599 032e 5C92     		str	r2, [sp, #368]
 4600 0330 CDE95E32 		strd	r3, r2, [sp, #376]
 4601 0334 15AA     		add	r2, sp, #84
 4602 0336 CDE96023 		strd	r2, r3, [sp, #384]
 4603 033a 2FAA     		add	r2, sp, #188
 4604 033c CDE96323 		strd	r2, r3, [sp, #396]
 4605 0340 33AA     		add	r2, sp, #204
 4606 0342 CDE96623 		strd	r2, r3, [sp, #408]
 4607 0346 5CAA     		add	r2, sp, #368
 4608 0348 3892     		str	r2, [sp, #224]
ARM GAS  /tmp/ccZCp2co.s 			page 113


1095:../Middlewares/stedgeai-lib/Npu/ll_aton/ll_sw_integer.c ****                                 sw_info->max)
 4609              		.loc 1 1095 5 view .LVU1273
 4610 034a 0222     		movs	r2, #2
1092:../Middlewares/stedgeai-lib/Npu/ll_aton/ll_sw_integer.c ****                                 AI_TENSOR_LIST_OBJ_INIT(AI_FLAG_NONE, 1, TENSORS(&activ_output)),
 4611              		.loc 1 1092 5 is_stmt 0 view .LVU1274
 4612 034c 3FA9     		add	r1, sp, #252
 4613 034e 1391     		str	r1, [sp, #76]
 4614 0350 46A9     		add	r1, sp, #280
 4615 0352 1591     		str	r1, [sp, #84]
1095:../Middlewares/stedgeai-lib/Npu/ll_aton/ll_sw_integer.c ****                                 sw_info->max)
 4616              		.loc 1 1095 5 view .LVU1275
 4617 0354 0F49     		ldr	r1, .L177
1097:../Middlewares/stedgeai-lib/Npu/ll_aton/ll_sw_integer.c ****                          .nl_params = AI_ARRAY_OBJ(&clip_layer_params))
 4618              		.loc 1 1097 5 view .LVU1276
 4619 0356 CDE95633 		strd	r3, r3, [sp, #344]
1095:../Middlewares/stedgeai-lib/Npu/ll_aton/ll_sw_integer.c ****                                 sw_info->max)
 4620              		.loc 1 1095 5 view .LVU1277
 4621 035a CDE94D12 		strd	r1, r2, [sp, #308]
 4622 035e D0F89821 		ldr	r2, [r0, #408]	@ float
1092:../Middlewares/stedgeai-lib/Npu/ll_aton/ll_sw_integer.c ****                                 AI_TENSOR_LIST_OBJ_INIT(AI_FLAG_NONE, 1, TENSORS(&activ_output)),
 4623              		.loc 1 1092 5 view .LVU1278
 4624 0362 6293     		str	r3, [sp, #392]
1095:../Middlewares/stedgeai-lib/Npu/ll_aton/ll_sw_integer.c ****                                 sw_info->max)
 4625              		.loc 1 1095 5 view .LVU1279
 4626 0364 3B92     		str	r2, [sp, #236]	@ float
 4627 0366 D0F89C21 		ldr	r2, [r0, #412]	@ float
1092:../Middlewares/stedgeai-lib/Npu/ll_aton/ll_sw_integer.c ****                                 AI_TENSOR_LIST_OBJ_INIT(AI_FLAG_NONE, 1, TENSORS(&activ_output)),
 4628              		.loc 1 1092 5 view .LVU1280
 4629 036a 2F93     		str	r3, [sp, #188]
1095:../Middlewares/stedgeai-lib/Npu/ll_aton/ll_sw_integer.c ****                                 sw_info->max)
 4630              		.loc 1 1095 5 view .LVU1281
 4631 036c 3C92     		str	r2, [sp, #240]	@ float
 4632 036e 3BAA     		add	r2, sp, #236
 4633 0370 CDE94F23 		strd	r2, r3, [sp, #316]
1097:../Middlewares/stedgeai-lib/Npu/ll_aton/ll_sw_integer.c ****                          .nl_params = AI_ARRAY_OBJ(&clip_layer_params))
 4634              		.loc 1 1097 5 is_stmt 1 view .LVU1282
 4635 0374 094A     		ldr	r2, .L177+8
1092:../Middlewares/stedgeai-lib/Npu/ll_aton/ll_sw_integer.c ****                                 AI_TENSOR_LIST_OBJ_INIT(AI_FLAG_NONE, 1, TENSORS(&activ_output)),
 4636              		.loc 1 1092 5 is_stmt 0 view .LVU1283
 4637 0376 6593     		str	r3, [sp, #404]
1097:../Middlewares/stedgeai-lib/Npu/ll_aton/ll_sw_integer.c ****                          .nl_params = AI_ARRAY_OBJ(&clip_layer_params))
 4638              		.loc 1 1097 5 view .LVU1284
 4639 0378 CDE95423 		strd	r2, r3, [sp, #336]
1092:../Middlewares/stedgeai-lib/Npu/ll_aton/ll_sw_integer.c ****                                 AI_TENSOR_LIST_OBJ_INIT(AI_FLAG_NONE, 1, TENSORS(&activ_output)),
 4640              		.loc 1 1092 5 view .LVU1285
 4641 037c 3393     		str	r3, [sp, #204]
1097:../Middlewares/stedgeai-lib/Npu/ll_aton/ll_sw_integer.c ****                          .nl_params = AI_ARRAY_OBJ(&clip_layer_params))
 4642              		.loc 1 1097 5 view .LVU1286
 4643 037e 5893     		str	r3, [sp, #352]
 4644 0380 074B     		ldr	r3, .L177+12
1099:../Middlewares/stedgeai-lib/Npu/ll_aton/ll_sw_integer.c ****   }
 4645              		.loc 1 1099 5 view .LVU1287
 4646 0382 54A8     		add	r0, sp, #336
 4647              	.LVL254:
1097:../Middlewares/stedgeai-lib/Npu/ll_aton/ll_sw_integer.c ****                          .nl_params = AI_ARRAY_OBJ(&clip_layer_params))
 4648              		.loc 1 1097 5 view .LVU1288
 4649 0384 5993     		str	r3, [sp, #356]
ARM GAS  /tmp/ccZCp2co.s 			page 114


 4650 0386 37AB     		add	r3, sp, #220
 4651 0388 5A93     		str	r3, [sp, #360]
 4652 038a 4DAB     		add	r3, sp, #308
 4653 038c 5B93     		str	r3, [sp, #364]
1099:../Middlewares/stedgeai-lib/Npu/ll_aton/ll_sw_integer.c ****   }
 4654              		.loc 1 1099 5 is_stmt 1 view .LVU1289
 4655 038e FFF7FEFF 		bl	forward_clip
 4656              	.LVL255:
1099:../Middlewares/stedgeai-lib/Npu/ll_aton/ll_sw_integer.c ****   }
 4657              		.loc 1 1099 5 is_stmt 0 view .LVU1290
 4658              	.LBE31:
1101:../Middlewares/stedgeai-lib/Npu/ll_aton/ll_sw_integer.c ****   default:
 4659              		.loc 1 1101 3 is_stmt 1 view .LVU1291
 4660              		.loc 1 1105 1 is_stmt 0 view .LVU1292
 4661 0392 F8E6     		b	.L159
 4662              	.L178:
 4663              		.align	2
 4664              	.L177:
 4665 0394 40108200 		.word	8523840
 4666 0398 40040400 		.word	263232
 4667 039c 07010200 		.word	131335
 4668 03a0 00000000 		.word	forward_clip
 4669              		.cfi_endproc
 4670              	.LFE25:
 4672              		.section	.text.ll_sw_forward_resize_integer,"ax",%progbits
 4673              		.align	1
 4674              		.global	ll_sw_forward_resize_integer
 4675              		.syntax unified
 4676              		.thumb
 4677              		.thumb_func
 4679              	ll_sw_forward_resize_integer:
 4680              	.LVL256:
 4681              	.LFB26:
1106:../Middlewares/stedgeai-lib/Npu/ll_aton/ll_sw_integer.c **** 
1107:../Middlewares/stedgeai-lib/Npu/ll_aton/ll_sw_integer.c **** //##########################################################################################
1108:../Middlewares/stedgeai-lib/Npu/ll_aton/ll_sw_integer.c **** /** Resize forward function */
1109:../Middlewares/stedgeai-lib/Npu/ll_aton/ll_sw_integer.c **** void ll_sw_forward_resize_integer(Resize_integer_sw_info *sw_info)
1110:../Middlewares/stedgeai-lib/Npu/ll_aton/ll_sw_integer.c **** {
 4682              		.loc 1 1110 1 is_stmt 1 view -0
 4683              		.cfi_startproc
 4684              		@ args = 0, pretend = 0, frame = 352
 4685              		@ frame_needed = 0, uses_anonymous_args = 0
1111:../Middlewares/stedgeai-lib/Npu/ll_aton/ll_sw_integer.c ****   // array init
1112:../Middlewares/stedgeai-lib/Npu/ll_aton/ll_sw_integer.c **** 
1113:../Middlewares/stedgeai-lib/Npu/ll_aton/ll_sw_integer.c ****   int32_t format = sw_info->general.input.format.is_signed ? (AI_ARRAY_FORMAT_S8 | AI_FMT_FLAG_IS_I
 4686              		.loc 1 1113 3 view .LVU1294
1110:../Middlewares/stedgeai-lib/Npu/ll_aton/ll_sw_integer.c ****   // array init
 4687              		.loc 1 1110 1 is_stmt 0 view .LVU1295
 4688 0000 2DE9F041 		push	{r4, r5, r6, r7, r8, lr}
 4689              		.cfi_def_cfa_offset 24
 4690              		.cfi_offset 4, -24
 4691              		.cfi_offset 5, -20
 4692              		.cfi_offset 6, -16
 4693              		.cfi_offset 7, -12
 4694              		.cfi_offset 8, -8
 4695              		.cfi_offset 14, -4
1114:../Middlewares/stedgeai-lib/Npu/ll_aton/ll_sw_integer.c ****                                                            : (AI_ARRAY_FORMAT_U8 | AI_FMT_FLAG_IS_I
ARM GAS  /tmp/ccZCp2co.s 			page 115


 4696              		.loc 1 1114 60 view .LVU1296
 4697 0004 90F82C30 		ldrb	r3, [r0, #44]	@ zero_extendqisi2
1110:../Middlewares/stedgeai-lib/Npu/ll_aton/ll_sw_integer.c ****   // array init
 4698              		.loc 1 1110 1 view .LVU1297
 4699 0008 D8B0     		sub	sp, sp, #352
 4700              		.cfi_def_cfa_offset 376
 4701              		.loc 1 1114 60 view .LVU1298
 4702 000a 002B     		cmp	r3, #0
 4703 000c 00F0DD80 		beq	.L188
 4704              		.loc 1 1114 60 discriminator 1 view .LVU1299
 4705 0010 8D4B     		ldr	r3, .L195
 4706              	.L180:
 4707              	.LVL257:
1115:../Middlewares/stedgeai-lib/Npu/ll_aton/ll_sw_integer.c **** 
1116:../Middlewares/stedgeai-lib/Npu/ll_aton/ll_sw_integer.c ****   AI_ARRAY_OBJ_DECLARE(input_output_array, format, sw_info->general.input.mem.start_offset,
 4708              		.loc 1 1116 3 is_stmt 1 view .LVU1300
 4709 0012 1093     		str	r3, [sp, #64]
 4710 0014 4369     		ldr	r3, [r0, #20]
 4711              	.LVL258:
 4712              		.loc 1 1116 3 is_stmt 0 view .LVU1301
 4713 0016 10A9     		add	r1, sp, #64
 4714              	.LVL259:
 4715              		.loc 1 1116 3 view .LVU1302
 4716 0018 4B60     		str	r3, [r1, #4]
 4717 001a 836A     		ldr	r3, [r0, #40]
 4718 001c C1E90233 		strd	r3, r3, [r1, #8]
1117:../Middlewares/stedgeai-lib/Npu/ll_aton/ll_sw_integer.c ****                        sw_info->general.input.mem.start_offset, sw_info->general.input.dim.num_elem
1118:../Middlewares/stedgeai-lib/Npu/ll_aton/ll_sw_integer.c **** 
1119:../Middlewares/stedgeai-lib/Npu/ll_aton/ll_sw_integer.c ****   format = sw_info->general.output.format.is_signed ? (AI_ARRAY_FORMAT_S8 | AI_FMT_FLAG_IS_IO)
 4719              		.loc 1 1119 3 is_stmt 1 view .LVU1303
1120:../Middlewares/stedgeai-lib/Npu/ll_aton/ll_sw_integer.c ****                                                     : (AI_ARRAY_FORMAT_U8 | AI_FMT_FLAG_IS_IO);
 4720              		.loc 1 1120 53 is_stmt 0 view .LVU1304
 4721 0020 90F85830 		ldrb	r3, [r0, #88]	@ zero_extendqisi2
 4722 0024 002B     		cmp	r3, #0
 4723 0026 00F0D280 		beq	.L189
 4724              		.loc 1 1120 53 discriminator 1 view .LVU1305
 4725 002a 874B     		ldr	r3, .L195
 4726              	.L181:
 4727              	.LVL260:
1121:../Middlewares/stedgeai-lib/Npu/ll_aton/ll_sw_integer.c ****   AI_ARRAY_OBJ_DECLARE(resize_output_array, format, sw_info->general.output.mem.start_offset,
 4728              		.loc 1 1121 3 is_stmt 1 view .LVU1306
 4729 002c 1493     		str	r3, [sp, #80]
 4730 002e 036C     		ldr	r3, [r0, #64]
 4731              	.LVL261:
 4732              		.loc 1 1121 3 is_stmt 0 view .LVU1307
 4733 0030 14AA     		add	r2, sp, #80
 4734              	.LVL262:
 4735              		.loc 1 1121 3 view .LVU1308
 4736 0032 5360     		str	r3, [r2, #4]
 4737 0034 436D     		ldr	r3, [r0, #84]
1122:../Middlewares/stedgeai-lib/Npu/ll_aton/ll_sw_integer.c ****                        sw_info->general.output.mem.start_offset, sw_info->general.output.dim.num_el
1123:../Middlewares/stedgeai-lib/Npu/ll_aton/ll_sw_integer.c **** 
1124:../Middlewares/stedgeai-lib/Npu/ll_aton/ll_sw_integer.c ****   uint16_t offset_format =
1125:../Middlewares/stedgeai-lib/Npu/ll_aton/ll_sw_integer.c ****       sw_info->izp.format.is_signed ? (AI_BUFFER_META_FLAG_ZEROPOINT_S8) : (AI_BUFFER_META_FLAG_ZER
1126:../Middlewares/stedgeai-lib/Npu/ll_aton/ll_sw_integer.c ****   uint16_t scale_format = AI_BUFFER_META_FLAG_SCALE_FLOAT;
1127:../Middlewares/stedgeai-lib/Npu/ll_aton/ll_sw_integer.c ****   ai_intq_info_list input_intq = {.flags = (offset_format | scale_format),
 4738              		.loc 1 1127 21 view .LVU1309
ARM GAS  /tmp/ccZCp2co.s 			page 116


 4739 0036 04AF     		add	r7, sp, #16
1121:../Middlewares/stedgeai-lib/Npu/ll_aton/ll_sw_integer.c ****   AI_ARRAY_OBJ_DECLARE(resize_output_array, format, sw_info->general.output.mem.start_offset,
 4740              		.loc 1 1121 3 view .LVU1310
 4741 0038 C2E90233 		strd	r3, r3, [r2, #8]
1124:../Middlewares/stedgeai-lib/Npu/ll_aton/ll_sw_integer.c ****       sw_info->izp.format.is_signed ? (AI_BUFFER_META_FLAG_ZEROPOINT_S8) : (AI_BUFFER_META_FLAG_ZER
 4742              		.loc 1 1124 3 is_stmt 1 view .LVU1311
1124:../Middlewares/stedgeai-lib/Npu/ll_aton/ll_sw_integer.c ****       sw_info->izp.format.is_signed ? (AI_BUFFER_META_FLAG_ZEROPOINT_S8) : (AI_BUFFER_META_FLAG_ZER
 4743              		.loc 1 1124 12 is_stmt 0 view .LVU1312
 4744 003c 90F8B030 		ldrb	r3, [r0, #176]	@ zero_extendqisi2
1128:../Middlewares/stedgeai-lib/Npu/ll_aton/ll_sw_integer.c ****                                   .size = sw_info->is.dim.num_elem,
1129:../Middlewares/stedgeai-lib/Npu/ll_aton/ll_sw_integer.c ****                                   .info = (const ai_intq_info[1]){{
 4745              		.loc 1 1129 66 view .LVU1313
 4746 0040 D0F88040 		ldr	r4, [r0, #128]
1124:../Middlewares/stedgeai-lib/Npu/ll_aton/ll_sw_integer.c ****       sw_info->izp.format.is_signed ? (AI_BUFFER_META_FLAG_ZEROPOINT_S8) : (AI_BUFFER_META_FLAG_ZER
 4747              		.loc 1 1124 12 discriminator 1 view .LVU1314
 4748 0044 002B     		cmp	r3, #0
 4749 0046 0CBF     		ite	eq
 4750 0048 0223     		moveq	r3, #2
 4751 004a 0423     		movne	r3, #4
 4752              	.LVL263:
1126:../Middlewares/stedgeai-lib/Npu/ll_aton/ll_sw_integer.c ****   ai_intq_info_list input_intq = {.flags = (offset_format | scale_format),
 4753              		.loc 1 1126 3 is_stmt 1 view .LVU1315
1127:../Middlewares/stedgeai-lib/Npu/ll_aton/ll_sw_integer.c ****                                   .size = sw_info->is.dim.num_elem,
 4754              		.loc 1 1127 3 view .LVU1316
1127:../Middlewares/stedgeai-lib/Npu/ll_aton/ll_sw_integer.c ****                                   .size = sw_info->is.dim.num_elem,
 4755              		.loc 1 1127 21 is_stmt 0 view .LVU1317
 4756 004c 43F00103 		orr	r3, r3, #1
 4757              	.LVL264:
1127:../Middlewares/stedgeai-lib/Npu/ll_aton/ll_sw_integer.c ****                                   .size = sw_info->is.dim.num_elem,
 4758              		.loc 1 1127 21 view .LVU1318
 4759 0050 3B80     		strh	r3, [r7]	@ movhi
 4760 0052 C36E     		ldr	r3, [r0, #108]
 4761              		.loc 1 1129 66 view .LVU1319
 4762 0054 0694     		str	r4, [sp, #24]
1127:../Middlewares/stedgeai-lib/Npu/ll_aton/ll_sw_integer.c ****                                   .size = sw_info->is.dim.num_elem,
 4763              		.loc 1 1127 21 view .LVU1320
 4764 0056 7B80     		strh	r3, [r7, #2]	@ movhi
 4765              		.loc 1 1129 66 view .LVU1321
 4766 0058 06AB     		add	r3, sp, #24
1127:../Middlewares/stedgeai-lib/Npu/ll_aton/ll_sw_integer.c ****                                   .size = sw_info->is.dim.num_elem,
 4767              		.loc 1 1127 21 view .LVU1322
 4768 005a 7B60     		str	r3, [r7, #4]
1130:../Middlewares/stedgeai-lib/Npu/ll_aton/ll_sw_integer.c ****                                       .scale = ((float *)sw_info->is.mem.start_offset),
1131:../Middlewares/stedgeai-lib/Npu/ll_aton/ll_sw_integer.c ****                                       .zeropoint = ((void *)sw_info->izp.mem.start_offset),
1132:../Middlewares/stedgeai-lib/Npu/ll_aton/ll_sw_integer.c ****                                   }}};
1133:../Middlewares/stedgeai-lib/Npu/ll_aton/ll_sw_integer.c **** 
1134:../Middlewares/stedgeai-lib/Npu/ll_aton/ll_sw_integer.c ****   offset_format =
 4769              		.loc 1 1134 3 is_stmt 1 view .LVU1323
 4770              		.loc 1 1134 17 is_stmt 0 view .LVU1324
 4771 005c 90F80831 		ldrb	r3, [r0, #264]	@ zero_extendqisi2
1129:../Middlewares/stedgeai-lib/Npu/ll_aton/ll_sw_integer.c ****                                       .scale = ((float *)sw_info->is.mem.start_offset),
 4772              		.loc 1 1129 66 view .LVU1325
 4773 0060 D0F8AC40 		ldr	r4, [r0, #172]
 4774              		.loc 1 1134 17 discriminator 1 view .LVU1326
 4775 0064 002B     		cmp	r3, #0
 4776              	.LVL265:
 4777              		.loc 1 1134 17 discriminator 1 view .LVU1327
ARM GAS  /tmp/ccZCp2co.s 			page 117


 4778 0066 0CBF     		ite	eq
 4779 0068 0223     		moveq	r3, #2
 4780 006a 0423     		movne	r3, #4
 4781              	.LVL266:
1135:../Middlewares/stedgeai-lib/Npu/ll_aton/ll_sw_integer.c ****       sw_info->ozp.format.is_signed ? (AI_BUFFER_META_FLAG_ZEROPOINT_S8) : (AI_BUFFER_META_FLAG_ZER
1136:../Middlewares/stedgeai-lib/Npu/ll_aton/ll_sw_integer.c ****   scale_format = AI_BUFFER_META_FLAG_SCALE_FLOAT;
 4782              		.loc 1 1136 3 is_stmt 1 view .LVU1328
1137:../Middlewares/stedgeai-lib/Npu/ll_aton/ll_sw_integer.c ****   ai_intq_info_list output_intq = {.flags = (offset_format | scale_format),
 4783              		.loc 1 1137 3 view .LVU1329
1129:../Middlewares/stedgeai-lib/Npu/ll_aton/ll_sw_integer.c ****                                       .scale = ((float *)sw_info->is.mem.start_offset),
 4784              		.loc 1 1129 66 is_stmt 0 view .LVU1330
 4785 006c 0794     		str	r4, [sp, #28]
 4786              		.loc 1 1137 21 view .LVU1331
 4787 006e 43F00103 		orr	r3, r3, #1
 4788              	.LVL267:
 4789              		.loc 1 1137 21 view .LVU1332
 4790 0072 ADF82030 		strh	r3, [sp, #32]	@ movhi
 4791 0076 D0F8C430 		ldr	r3, [r0, #196]
1138:../Middlewares/stedgeai-lib/Npu/ll_aton/ll_sw_integer.c ****                                    .size = sw_info->os.dim.num_elem,
1139:../Middlewares/stedgeai-lib/Npu/ll_aton/ll_sw_integer.c ****                                    .info = (const ai_intq_info[1]){{
 4792              		.loc 1 1139 67 view .LVU1333
 4793 007a D0F8D850 		ldr	r5, [r0, #216]
1137:../Middlewares/stedgeai-lib/Npu/ll_aton/ll_sw_integer.c ****   ai_intq_info_list output_intq = {.flags = (offset_format | scale_format),
 4794              		.loc 1 1137 21 view .LVU1334
 4795 007e ADF82230 		strh	r3, [sp, #34]	@ movhi
 4796              		.loc 1 1139 67 view .LVU1335
 4797 0082 0AAB     		add	r3, sp, #40
 4798 0084 0A95     		str	r5, [sp, #40]
1137:../Middlewares/stedgeai-lib/Npu/ll_aton/ll_sw_integer.c ****   ai_intq_info_list output_intq = {.flags = (offset_format | scale_format),
 4799              		.loc 1 1137 21 view .LVU1336
 4800 0086 0993     		str	r3, [sp, #36]
1140:../Middlewares/stedgeai-lib/Npu/ll_aton/ll_sw_integer.c ****                                        .scale = ((float *)sw_info->os.mem.start_offset),
1141:../Middlewares/stedgeai-lib/Npu/ll_aton/ll_sw_integer.c ****                                        .zeropoint = ((void *)sw_info->ozp.mem.start_offset),
1142:../Middlewares/stedgeai-lib/Npu/ll_aton/ll_sw_integer.c ****                                    }}};
1143:../Middlewares/stedgeai-lib/Npu/ll_aton/ll_sw_integer.c **** 
1144:../Middlewares/stedgeai-lib/Npu/ll_aton/ll_sw_integer.c ****   AI_ARRAY_OBJ_DECLARE(resize_scales_array, FORMAT, sw_info->scales.mem.start_offset, sw_info->scal
 4801              		.loc 1 1144 3 is_stmt 1 view .LVU1337
1139:../Middlewares/stedgeai-lib/Npu/ll_aton/ll_sw_integer.c ****                                        .scale = ((float *)sw_info->os.mem.start_offset),
 4802              		.loc 1 1139 67 is_stmt 0 view .LVU1338
 4803 0088 D0F80451 		ldr	r5, [r0, #260]
1145:../Middlewares/stedgeai-lib/Npu/ll_aton/ll_sw_integer.c ****                        sw_info->scales.dim.num_elem, )
1146:../Middlewares/stedgeai-lib/Npu/ll_aton/ll_sw_integer.c **** 
1147:../Middlewares/stedgeai-lib/Npu/ll_aton/ll_sw_integer.c ****   ai_array *resize_roi_array_ptr = NULL;
1148:../Middlewares/stedgeai-lib/Npu/ll_aton/ll_sw_integer.c ****   ai_array resize_roi_array;
1149:../Middlewares/stedgeai-lib/Npu/ll_aton/ll_sw_integer.c ****   if (sw_info->roi.mem.start_offset != NULL)
 4804              		.loc 1 1149 23 view .LVU1339
 4805 008c D0F85C31 		ldr	r3, [r0, #348]
1137:../Middlewares/stedgeai-lib/Npu/ll_aton/ll_sw_integer.c ****                                    .size = sw_info->os.dim.num_elem,
 4806              		.loc 1 1137 21 view .LVU1340
 4807 0090 08AC     		add	r4, sp, #32
1144:../Middlewares/stedgeai-lib/Npu/ll_aton/ll_sw_integer.c ****                        sw_info->scales.dim.num_elem, )
 4808              		.loc 1 1144 3 view .LVU1341
 4809 0092 D0F83081 		ldr	r8, [r0, #304]
1147:../Middlewares/stedgeai-lib/Npu/ll_aton/ll_sw_integer.c ****   ai_array resize_roi_array;
 4810              		.loc 1 1147 3 is_stmt 1 view .LVU1342
 4811              	.LVL268:
1148:../Middlewares/stedgeai-lib/Npu/ll_aton/ll_sw_integer.c ****   if (sw_info->roi.mem.start_offset != NULL)
ARM GAS  /tmp/ccZCp2co.s 			page 118


 4812              		.loc 1 1148 3 view .LVU1343
 4813              		.loc 1 1149 3 view .LVU1344
1139:../Middlewares/stedgeai-lib/Npu/ll_aton/ll_sw_integer.c ****                                        .scale = ((float *)sw_info->os.mem.start_offset),
 4814              		.loc 1 1139 67 is_stmt 0 view .LVU1345
 4815 0096 0B95     		str	r5, [sp, #44]
 4816              		.loc 1 1149 6 view .LVU1346
 4817 0098 53B1     		cbz	r3, .L184
 4818              	.LVL269:
 4819              	.LBB32:
1150:../Middlewares/stedgeai-lib/Npu/ll_aton/ll_sw_integer.c ****   {
1151:../Middlewares/stedgeai-lib/Npu/ll_aton/ll_sw_integer.c ****     resize_roi_array = (ai_array)AI_ARRAY_OBJ_INIT(FORMAT, sw_info->roi.mem.start_offset, sw_info->
 4820              		.loc 1 1151 5 is_stmt 1 view .LVU1347
 4821              		.loc 1 1151 22 is_stmt 0 view .LVU1348
 4822 009a D0F84851 		ldr	r5, [r0, #328]
 4823 009e 18AE     		add	r6, sp, #96
 4824 00a0 CDE91953 		strd	r5, r3, [sp, #100]
 4825 00a4 1B93     		str	r3, [sp, #108]
1152:../Middlewares/stedgeai-lib/Npu/ll_aton/ll_sw_integer.c ****                                                    sw_info->roi.dim.num_elem);
1153:../Middlewares/stedgeai-lib/Npu/ll_aton/ll_sw_integer.c ****     resize_roi_array_ptr = &resize_roi_array;
 4826              		.loc 1 1153 5 is_stmt 1 view .LVU1349
 4827              	.LVL270:
 4828              		.loc 1 1153 26 is_stmt 0 view .LVU1350
 4829 00a6 3346     		mov	r3, r6
1151:../Middlewares/stedgeai-lib/Npu/ll_aton/ll_sw_integer.c ****                                                    sw_info->roi.dim.num_elem);
 4830              		.loc 1 1151 22 view .LVU1351
 4831 00a8 DFF8A0E1 		ldr	lr, .L195+4
 4832 00ac CDF860E0 		str	lr, [sp, #96]
 4833              	.LVL271:
 4834              	.L184:
1151:../Middlewares/stedgeai-lib/Npu/ll_aton/ll_sw_integer.c ****                                                    sw_info->roi.dim.num_elem);
 4835              		.loc 1 1151 22 view .LVU1352
 4836              	.LBE32:
1154:../Middlewares/stedgeai-lib/Npu/ll_aton/ll_sw_integer.c ****   }
1155:../Middlewares/stedgeai-lib/Npu/ll_aton/ll_sw_integer.c **** 
1156:../Middlewares/stedgeai-lib/Npu/ll_aton/ll_sw_integer.c ****   AI_TENSOR_OBJ_DECLARE(input_output, , 0x0, 4,
 4837              		.loc 1 1156 3 is_stmt 1 view .LVU1353
 4838 00b0 40F20146 		movw	r6, #1025
 4839 00b4 4FF0827C 		mov	ip, #17039360
 4840 00b8 40F2024E 		movw	lr, #1026
 4841 00bc 3097     		str	r7, [sp, #192]
 4842 00be 0769     		ldr	r7, [r0, #16]
1157:../Middlewares/stedgeai-lib/Npu/ll_aton/ll_sw_integer.c ****                         SHAPE_INIT(sw_info->general.input.dim.tensor_h, sw_info->general.input.dim.
1158:../Middlewares/stedgeai-lib/Npu/ll_aton/ll_sw_integer.c ****                                    sw_info->general.input.dim.tensor_c, sw_info->general.input.dim.
1159:../Middlewares/stedgeai-lib/Npu/ll_aton/ll_sw_integer.c ****                         STRIDE_INIT(sw_info->general.input.stride.h, sw_info->general.input.stride.
1160:../Middlewares/stedgeai-lib/Npu/ll_aton/ll_sw_integer.c ****                                     sw_info->general.input.stride.c, sw_info->general.input.stride.
1161:../Middlewares/stedgeai-lib/Npu/ll_aton/ll_sw_integer.c ****                         1, &input_output_array, &input_intq);
1162:../Middlewares/stedgeai-lib/Npu/ll_aton/ll_sw_integer.c **** 
1163:../Middlewares/stedgeai-lib/Npu/ll_aton/ll_sw_integer.c ****   AI_TENSOR_OBJ_DECLARE(resize_output, , 0x0, 4,
 4843              		.loc 1 1163 3 is_stmt 0 view .LVU1354
 4844 00c0 CDE9374C 		strd	r4, ip, [sp, #220]
1156:../Middlewares/stedgeai-lib/Npu/ll_aton/ll_sw_integer.c ****                         SHAPE_INIT(sw_info->general.input.dim.tensor_h, sw_info->general.input.dim.
 4845              		.loc 1 1156 3 view .LVU1355
 4846 00c4 1C97     		str	r7, [sp, #112]
 4847 00c6 C768     		ldr	r7, [r0, #12]
 4848 00c8 CDE931C6 		strd	ip, r6, [sp, #196]
 4849 00cc 1D97     		str	r7, [sp, #116]
 4850 00ce 8768     		ldr	r7, [r0, #8]
ARM GAS  /tmp/ccZCp2co.s 			page 119


 4851              		.loc 1 1163 3 view .LVU1356
 4852 00d0 3996     		str	r6, [sp, #228]
1156:../Middlewares/stedgeai-lib/Npu/ll_aton/ll_sw_integer.c ****                         SHAPE_INIT(sw_info->general.input.dim.tensor_h, sw_info->general.input.dim.
 4853              		.loc 1 1156 3 view .LVU1357
 4854 00d2 1E97     		str	r7, [sp, #120]
 4855 00d4 4768     		ldr	r7, [r0, #4]
 4856 00d6 CDF8D0E0 		str	lr, [sp, #208]
 4857 00da 1F97     		str	r7, [sp, #124]
 4858 00dc 1CAF     		add	r7, sp, #112
 4859 00de 3397     		str	r7, [sp, #204]
 4860 00e0 476A     		ldr	r7, [r0, #36]
1164:../Middlewares/stedgeai-lib/Npu/ll_aton/ll_sw_integer.c ****                         SHAPE_INIT(sw_info->general.output.dim.tensor_h, sw_info->general.output.di
1165:../Middlewares/stedgeai-lib/Npu/ll_aton/ll_sw_integer.c ****                                    sw_info->general.output.dim.tensor_c, sw_info->general.output.di
1166:../Middlewares/stedgeai-lib/Npu/ll_aton/ll_sw_integer.c ****                         STRIDE_INIT(sw_info->general.output.stride.h, sw_info->general.output.strid
1167:../Middlewares/stedgeai-lib/Npu/ll_aton/ll_sw_integer.c ****                                     sw_info->general.output.stride.c, sw_info->general.output.strid
1168:../Middlewares/stedgeai-lib/Npu/ll_aton/ll_sw_integer.c ****                         1, &resize_output_array, &output_intq);
1169:../Middlewares/stedgeai-lib/Npu/ll_aton/ll_sw_integer.c **** 
1170:../Middlewares/stedgeai-lib/Npu/ll_aton/ll_sw_integer.c ****   AI_TENSOR_OBJ_DECLARE(resize_scales, , 0x0, 4,
1171:../Middlewares/stedgeai-lib/Npu/ll_aton/ll_sw_integer.c ****                         SHAPE_INIT(sw_info->scales.dim.tensor_h, sw_info->scales.dim.tensor_w,
1172:../Middlewares/stedgeai-lib/Npu/ll_aton/ll_sw_integer.c ****                                    sw_info->scales.dim.tensor_c, sw_info->scales.dim.tensor_b),
1173:../Middlewares/stedgeai-lib/Npu/ll_aton/ll_sw_integer.c ****                         STRIDE_INIT(sw_info->scales.stride.h, sw_info->scales.stride.w, sw_info->sc
1174:../Middlewares/stedgeai-lib/Npu/ll_aton/ll_sw_integer.c ****                                     sw_info->scales.stride.b),
1175:../Middlewares/stedgeai-lib/Npu/ll_aton/ll_sw_integer.c ****                         1, &resize_scales_array, NULL);
1176:../Middlewares/stedgeai-lib/Npu/ll_aton/ll_sw_integer.c **** 
1177:../Middlewares/stedgeai-lib/Npu/ll_aton/ll_sw_integer.c ****   // tensor chain initialization
1178:../Middlewares/stedgeai-lib/Npu/ll_aton/ll_sw_integer.c ****   AI_TENSOR_CHAIN_OBJ_DECLARE(resize_chain, , 4, AI_TENSOR_LIST_OBJ_INIT(AI_FLAG_NONE, 1, TENSORS(&
 4861              		.loc 1 1178 3 view .LVU1358
 4862 00e2 0CAC     		add	r4, sp, #48
1156:../Middlewares/stedgeai-lib/Npu/ll_aton/ll_sw_integer.c ****                         SHAPE_INIT(sw_info->general.input.dim.tensor_h, sw_info->general.input.dim.
 4863              		.loc 1 1156 3 view .LVU1359
 4864 00e4 2097     		str	r7, [sp, #128]
 4865 00e6 076A     		ldr	r7, [r0, #32]
1179:../Middlewares/stedgeai-lib/Npu/ll_aton/ll_sw_integer.c ****                               AI_TENSOR_LIST_OBJ_INIT(AI_FLAG_NONE, 1, TENSORS(&resize_output)),
1180:../Middlewares/stedgeai-lib/Npu/ll_aton/ll_sw_integer.c ****                               AI_TENSOR_LIST_OBJ_EMPTY, AI_TENSOR_LIST_OBJ_EMPTY)
1181:../Middlewares/stedgeai-lib/Npu/ll_aton/ll_sw_integer.c **** 
1182:../Middlewares/stedgeai-lib/Npu/ll_aton/ll_sw_integer.c ****   // extrapolating the scales values needed
1183:../Middlewares/stedgeai-lib/Npu/ll_aton/ll_sw_integer.c ****   const ai_tensor *p = &resize_scales;
1184:../Middlewares/stedgeai-lib/Npu/ll_aton/ll_sw_integer.c ****   const ai_float *s = AI_ARRAY_OBJ_DATA(p->data, ai_float);
1185:../Middlewares/stedgeai-lib/Npu/ll_aton/ll_sw_integer.c ****   AI_ARRAY_OBJ_DECLARE_STATIC(rs, ai_float, AI_ARRAY_FORMAT_FLOAT, AI_CONST, 2, s[2], s[3])
 4866              		.loc 1 1185 3 view .LVU1360
 4867 00e8 584D     		ldr	r5, .L195+4
1156:../Middlewares/stedgeai-lib/Npu/ll_aton/ll_sw_integer.c ****                         SHAPE_INIT(sw_info->general.input.dim.tensor_h, sw_info->general.input.dim.
 4868              		.loc 1 1156 3 view .LVU1361
 4869 00ea 2197     		str	r7, [sp, #132]
 4870 00ec C769     		ldr	r7, [r0, #28]
1178:../Middlewares/stedgeai-lib/Npu/ll_aton/ll_sw_integer.c ****                               AI_TENSOR_LIST_OBJ_INIT(AI_FLAG_NONE, 1, TENSORS(&resize_output)),
 4871              		.loc 1 1178 3 view .LVU1362
 4872 00ee 30AE     		add	r6, sp, #192
1156:../Middlewares/stedgeai-lib/Npu/ll_aton/ll_sw_integer.c ****                         SHAPE_INIT(sw_info->general.input.dim.tensor_h, sw_info->general.input.dim.
 4873              		.loc 1 1156 3 view .LVU1363
 4874 00f0 2297     		str	r7, [sp, #136]
 4875 00f2 8769     		ldr	r7, [r0, #24]
 4876 00f4 2397     		str	r7, [sp, #140]
 4877 00f6 20AF     		add	r7, sp, #128
 4878 00f8 CDE93571 		strd	r7, r1, [sp, #212]
1161:../Middlewares/stedgeai-lib/Npu/ll_aton/ll_sw_integer.c **** 
 4879              		.loc 1 1161 61 is_stmt 1 view .LVU1364
ARM GAS  /tmp/ccZCp2co.s 			page 120


1163:../Middlewares/stedgeai-lib/Npu/ll_aton/ll_sw_integer.c ****                         SHAPE_INIT(sw_info->general.output.dim.tensor_h, sw_info->general.output.di
 4880              		.loc 1 1163 3 view .LVU1365
 4881 00fc C16B     		ldr	r1, [r0, #60]
 4882 00fe 2491     		str	r1, [sp, #144]
 4883 0100 816B     		ldr	r1, [r0, #56]
 4884 0102 2591     		str	r1, [sp, #148]
 4885 0104 416B     		ldr	r1, [r0, #52]
 4886 0106 2691     		str	r1, [sp, #152]
 4887 0108 016B     		ldr	r1, [r0, #48]
1178:../Middlewares/stedgeai-lib/Npu/ll_aton/ll_sw_integer.c ****                               AI_TENSOR_LIST_OBJ_INIT(AI_FLAG_NONE, 1, TENSORS(&resize_output)),
 4888              		.loc 1 1178 3 is_stmt 0 view .LVU1366
 4889 010a 0096     		str	r6, [sp]
1163:../Middlewares/stedgeai-lib/Npu/ll_aton/ll_sw_integer.c ****                         SHAPE_INIT(sw_info->general.output.dim.tensor_h, sw_info->general.output.di
 4890              		.loc 1 1163 3 view .LVU1367
 4891 010c 2791     		str	r1, [sp, #156]
 4892 010e 24A9     		add	r1, sp, #144
 4893 0110 CDE93A1E 		strd	r1, lr, [sp, #232]
 4894 0114 016D     		ldr	r1, [r0, #80]
1178:../Middlewares/stedgeai-lib/Npu/ll_aton/ll_sw_integer.c ****                               AI_TENSOR_LIST_OBJ_INIT(AI_FLAG_NONE, 1, TENSORS(&resize_output)),
 4895              		.loc 1 1178 3 view .LVU1368
 4896 0116 37AE     		add	r6, sp, #220
1163:../Middlewares/stedgeai-lib/Npu/ll_aton/ll_sw_integer.c ****                         SHAPE_INIT(sw_info->general.output.dim.tensor_h, sw_info->general.output.di
 4897              		.loc 1 1163 3 view .LVU1369
 4898 0118 2891     		str	r1, [sp, #160]
 4899 011a C16C     		ldr	r1, [r0, #76]
1178:../Middlewares/stedgeai-lib/Npu/ll_aton/ll_sw_integer.c ****                               AI_TENSOR_LIST_OBJ_INIT(AI_FLAG_NONE, 1, TENSORS(&resize_output)),
 4900              		.loc 1 1178 3 view .LVU1370
 4901 011c 0196     		str	r6, [sp, #4]
1163:../Middlewares/stedgeai-lib/Npu/ll_aton/ll_sw_integer.c ****                         SHAPE_INIT(sw_info->general.output.dim.tensor_h, sw_info->general.output.di
 4902              		.loc 1 1163 3 view .LVU1371
 4903 011e 2991     		str	r1, [sp, #164]
 4904 0120 816C     		ldr	r1, [r0, #72]
1178:../Middlewares/stedgeai-lib/Npu/ll_aton/ll_sw_integer.c ****                               AI_TENSOR_LIST_OBJ_INIT(AI_FLAG_NONE, 1, TENSORS(&resize_output)),
 4905              		.loc 1 1178 3 view .LVU1372
 4906 0122 CDF8FCD0 		str	sp, [sp, #252]
1163:../Middlewares/stedgeai-lib/Npu/ll_aton/ll_sw_integer.c ****                         SHAPE_INIT(sw_info->general.output.dim.tensor_h, sw_info->general.output.di
 4907              		.loc 1 1163 3 view .LVU1373
 4908 0126 2A91     		str	r1, [sp, #168]
 4909 0128 416C     		ldr	r1, [r0, #68]
 4910 012a 2B91     		str	r1, [sp, #172]
 4911 012c 28A9     		add	r1, sp, #160
 4912 012e CDE93C12 		strd	r1, r2, [sp, #240]
1168:../Middlewares/stedgeai-lib/Npu/ll_aton/ll_sw_integer.c **** 
 4913              		.loc 1 1168 63 is_stmt 1 view .LVU1374
1170:../Middlewares/stedgeai-lib/Npu/ll_aton/ll_sw_integer.c ****                         SHAPE_INIT(sw_info->scales.dim.tensor_h, sw_info->scales.dim.tensor_w,
 4914              		.loc 1 1170 3 view .LVU1375
 4915              	.LVL272:
1175:../Middlewares/stedgeai-lib/Npu/ll_aton/ll_sw_integer.c **** 
 4916              		.loc 1 1175 55 view .LVU1376
1178:../Middlewares/stedgeai-lib/Npu/ll_aton/ll_sw_integer.c ****                               AI_TENSOR_LIST_OBJ_INIT(AI_FLAG_NONE, 1, TENSORS(&resize_output)),
 4917              		.loc 1 1178 3 view .LVU1377
 4918 0132 0422     		movs	r2, #4
 4919              	.LVL273:
1178:../Middlewares/stedgeai-lib/Npu/ll_aton/ll_sw_integer.c ****                               AI_TENSOR_LIST_OBJ_INIT(AI_FLAG_NONE, 1, TENSORS(&resize_output)),
 4920              		.loc 1 1178 3 is_stmt 0 view .LVU1378
 4921 0134 0121     		movs	r1, #1
 4922 0136 2260     		str	r2, [r4]
ARM GAS  /tmp/ccZCp2co.s 			page 121


 4923 0138 0022     		movs	r2, #0
 4924 013a 3E91     		str	r1, [sp, #248]
 4925 013c CDE94021 		strd	r2, r1, [sp, #256]
 4926 0140 01A9     		add	r1, sp, #4
 4927 0142 CDE94212 		strd	r1, r2, [sp, #264]
 4928 0146 02A9     		add	r1, sp, #8
 4929 0148 CDE94512 		strd	r1, r2, [sp, #276]
 4930 014c 03A9     		add	r1, sp, #12
 4931 014e CDE94812 		strd	r1, r2, [sp, #288]
 4932 0152 3EA9     		add	r1, sp, #248
 4933 0154 6160     		str	r1, [r4, #4]
1183:../Middlewares/stedgeai-lib/Npu/ll_aton/ll_sw_integer.c ****   const ai_float *s = AI_ARRAY_OBJ_DATA(p->data, ai_float);
 4934              		.loc 1 1183 3 is_stmt 1 view .LVU1379
 4935              	.LVL274:
1184:../Middlewares/stedgeai-lib/Npu/ll_aton/ll_sw_integer.c ****   AI_ARRAY_OBJ_DECLARE_STATIC(rs, ai_float, AI_ARRAY_FORMAT_FLOAT, AI_CONST, 2, s[2], s[3])
 4936              		.loc 1 1184 3 view .LVU1380
 4937              		.loc 1 1185 3 view .LVU1381
 4938 0156 0221     		movs	r1, #2
1178:../Middlewares/stedgeai-lib/Npu/ll_aton/ll_sw_integer.c ****                               AI_TENSOR_LIST_OBJ_INIT(AI_FLAG_NONE, 1, TENSORS(&resize_output)),
 4939              		.loc 1 1178 3 is_stmt 0 view .LVU1382
 4940 0158 4492     		str	r2, [sp, #272]
 4941 015a 0292     		str	r2, [sp, #8]
 4942 015c 4792     		str	r2, [sp, #284]
 4943 015e 0392     		str	r2, [sp, #12]
 4944              		.loc 1 1185 3 view .LVU1383
 4945 0160 CDE92C51 		strd	r5, r1, [sp, #176]
 4946 0164 0EA9     		add	r1, sp, #56
 4947 0166 D8F80860 		ldr	r6, [r8, #8]	@ float
 4948 016a D8F80C50 		ldr	r5, [r8, #12]	@ float
 4949 016e CDE92E12 		strd	r1, r2, [sp, #184]
1186:../Middlewares/stedgeai-lib/Npu/ll_aton/ll_sw_integer.c **** 
1187:../Middlewares/stedgeai-lib/Npu/ll_aton/ll_sw_integer.c ****   // layer initialization
1188:../Middlewares/stedgeai-lib/Npu/ll_aton/ll_sw_integer.c ****   if ((ai_resize_mode)sw_info->mode == AI_RESIZE_NEAREST)
 4950              		.loc 1 1188 3 is_stmt 1 view .LVU1384
 4951              		.loc 1 1188 30 is_stmt 0 view .LVU1385
 4952 0172 90F89C11 		ldrb	r1, [r0, #412]	@ zero_extendqisi2
1185:../Middlewares/stedgeai-lib/Npu/ll_aton/ll_sw_integer.c **** 
 4953              		.loc 1 1185 3 view .LVU1386
 4954 0176 0E96     		str	r6, [sp, #56]	@ float
 4955              		.loc 1 1188 6 view .LVU1387
 4956 0178 0129     		cmp	r1, #1
1185:../Middlewares/stedgeai-lib/Npu/ll_aton/ll_sw_integer.c **** 
 4957              		.loc 1 1185 3 view .LVU1388
 4958 017a 0F95     		str	r5, [sp, #60]	@ float
 4959              		.loc 1 1188 6 view .LVU1389
 4960 017c 29D1     		bne	.L185
 4961              	.LBB33:
1189:../Middlewares/stedgeai-lib/Npu/ll_aton/ll_sw_integer.c ****   {
1190:../Middlewares/stedgeai-lib/Npu/ll_aton/ll_sw_integer.c ****     AI_LAYER_OBJ_DECLARE(resize_layer, 1, RESIZE_TYPE, 0x0, NULL, resize, forward_resize_nearest_is
 4962              		.loc 1 1190 5 is_stmt 1 view .LVU1390
 4963 017e 344D     		ldr	r5, .L195+8
 4964 0180 CDE94C22 		strd	r2, r2, [sp, #304]
 4965 0184 CDE94A52 		strd	r5, r2, [sp, #296]
 4966 0188 4E92     		str	r2, [sp, #312]
 4967 018a 324A     		ldr	r2, .L195+12
 4968 018c 8DF85411 		strb	r1, [sp, #340]
 4969 0190 CDE94F24 		strd	r2, r4, [sp, #316]
ARM GAS  /tmp/ccZCp2co.s 			page 122


 4970 0194 90F89E21 		ldrb	r2, [r0, #414]	@ zero_extendqisi2
 4971 0198 8DF84421 		strb	r2, [sp, #324]
 4972 019c D0F89021 		ldr	r2, [r0, #400]	@ float
 4973 01a0 5292     		str	r2, [sp, #328]	@ float
 4974 01a2 90F89421 		ldrb	r2, [r0, #404]	@ zero_extendqisi2
 4975 01a6 8DF84C21 		strb	r2, [sp, #332]
 4976 01aa D0F89821 		ldr	r2, [r0, #408]	@ float
 4977 01ae 5492     		str	r2, [sp, #336]	@ float
 4978 01b0 90F89D21 		ldrb	r2, [r0, #413]	@ zero_extendqisi2
1191:../Middlewares/stedgeai-lib/Npu/ll_aton/ll_sw_integer.c ****                          NULL, NULL, , .cubic_coeff_a = sw_info->cubic_coeff_a,
1192:../Middlewares/stedgeai-lib/Npu/ll_aton/ll_sw_integer.c ****                          .exclude_outside = sw_info->exclude_outside, .extrapol_val = sw_info->extr
1193:../Middlewares/stedgeai-lib/Npu/ll_aton/ll_sw_integer.c ****                          .mode = (ai_resize_mode)sw_info->mode, .nearest_mode = (ai_nearest_mode)sw
1194:../Middlewares/stedgeai-lib/Npu/ll_aton/ll_sw_integer.c ****                          .coord_transf_mode = (ai_coord_transf_mode)sw_info->coord_transf_mode,
1195:../Middlewares/stedgeai-lib/Npu/ll_aton/ll_sw_integer.c ****                          .scales = AI_ARRAY_OBJ(&rs), .roi = resize_roi_array_ptr)
1196:../Middlewares/stedgeai-lib/Npu/ll_aton/ll_sw_integer.c ****     resize_layer.forward(AI_LAYER_OBJ(&resize_layer));
 4979              		.loc 1 1196 5 is_stmt 0 view .LVU1391
 4980 01b4 4AA8     		add	r0, sp, #296
 4981              	.LVL275:
1190:../Middlewares/stedgeai-lib/Npu/ll_aton/ll_sw_integer.c ****                          NULL, NULL, , .cubic_coeff_a = sw_info->cubic_coeff_a,
 4982              		.loc 1 1190 5 view .LVU1392
 4983 01b6 8DF85521 		strb	r2, [sp, #341]
 4984 01ba 2CAA     		add	r2, sp, #176
 4985 01bc CDE95623 		strd	r2, r3, [sp, #344]
 4986              		.loc 1 1196 5 is_stmt 1 view .LVU1393
 4987 01c0 FFF7FEFF 		bl	forward_resize_nearest_is8os8
 4988              	.LVL276:
 4989              	.L179:
 4990              		.loc 1 1196 5 is_stmt 0 view .LVU1394
 4991              	.LBE33:
1197:../Middlewares/stedgeai-lib/Npu/ll_aton/ll_sw_integer.c ****   }
1198:../Middlewares/stedgeai-lib/Npu/ll_aton/ll_sw_integer.c ****   else if ((ai_resize_mode)sw_info->mode == AI_RESIZE_LINEAR)
1199:../Middlewares/stedgeai-lib/Npu/ll_aton/ll_sw_integer.c ****   {
1200:../Middlewares/stedgeai-lib/Npu/ll_aton/ll_sw_integer.c ****     AI_LAYER_OBJ_DECLARE(resize_layer, 1, RESIZE_TYPE, 0x0, NULL, resize, forward_resize_bilinear_i
1201:../Middlewares/stedgeai-lib/Npu/ll_aton/ll_sw_integer.c ****                          NULL, NULL, , .cubic_coeff_a = sw_info->cubic_coeff_a,
1202:../Middlewares/stedgeai-lib/Npu/ll_aton/ll_sw_integer.c ****                          .exclude_outside = sw_info->exclude_outside, .extrapol_val = sw_info->extr
1203:../Middlewares/stedgeai-lib/Npu/ll_aton/ll_sw_integer.c ****                          .mode = (ai_resize_mode)sw_info->mode, .nearest_mode = (ai_nearest_mode)sw
1204:../Middlewares/stedgeai-lib/Npu/ll_aton/ll_sw_integer.c ****                          .coord_transf_mode = (ai_coord_transf_mode)sw_info->coord_transf_mode,
1205:../Middlewares/stedgeai-lib/Npu/ll_aton/ll_sw_integer.c ****                          .scales = AI_ARRAY_OBJ(&rs), .roi = resize_roi_array_ptr)
1206:../Middlewares/stedgeai-lib/Npu/ll_aton/ll_sw_integer.c ****     resize_layer.forward(AI_LAYER_OBJ(&resize_layer));
1207:../Middlewares/stedgeai-lib/Npu/ll_aton/ll_sw_integer.c ****   }
1208:../Middlewares/stedgeai-lib/Npu/ll_aton/ll_sw_integer.c ****   else if ((ai_resize_mode)sw_info->mode == AI_RESIZE_ZEROS)
1209:../Middlewares/stedgeai-lib/Npu/ll_aton/ll_sw_integer.c ****   {
1210:../Middlewares/stedgeai-lib/Npu/ll_aton/ll_sw_integer.c ****     AI_LAYER_OBJ_DECLARE(resize_layer, 1, UPSAMPLE_TYPE, 0x0, NULL, upsample, forward_upsample_zero
1211:../Middlewares/stedgeai-lib/Npu/ll_aton/ll_sw_integer.c ****                          NULL, NULL, , .mode = AI_UPSAMPLE_ZEROS, .center = false, .scales = AI_ARR
1212:../Middlewares/stedgeai-lib/Npu/ll_aton/ll_sw_integer.c ****                          .nearest_mode = AI_ROUND_PREFER_FLOOR)
1213:../Middlewares/stedgeai-lib/Npu/ll_aton/ll_sw_integer.c ****     resize_layer.forward(AI_LAYER_OBJ(&resize_layer));
1214:../Middlewares/stedgeai-lib/Npu/ll_aton/ll_sw_integer.c ****   }
1215:../Middlewares/stedgeai-lib/Npu/ll_aton/ll_sw_integer.c **** }
 4992              		.loc 1 1215 1 view .LVU1395
 4993 01c4 58B0     		add	sp, sp, #352
 4994              		.cfi_remember_state
 4995              		.cfi_def_cfa_offset 24
 4996              		@ sp needed
 4997 01c6 BDE8F081 		pop	{r4, r5, r6, r7, r8, pc}
 4998              	.LVL277:
 4999              	.L188:
 5000              		.cfi_restore_state
ARM GAS  /tmp/ccZCp2co.s 			page 123


1114:../Middlewares/stedgeai-lib/Npu/ll_aton/ll_sw_integer.c **** 
 5001              		.loc 1 1114 60 discriminator 2 view .LVU1396
 5002 01ca 234B     		ldr	r3, .L195+16
 5003 01cc 21E7     		b	.L180
 5004              	.LVL278:
 5005              	.L189:
1120:../Middlewares/stedgeai-lib/Npu/ll_aton/ll_sw_integer.c ****   AI_ARRAY_OBJ_DECLARE(resize_output_array, format, sw_info->general.output.mem.start_offset,
 5006              		.loc 1 1120 53 discriminator 2 view .LVU1397
 5007 01ce 224B     		ldr	r3, .L195+16
 5008 01d0 2CE7     		b	.L181
 5009              	.LVL279:
 5010              	.L185:
1198:../Middlewares/stedgeai-lib/Npu/ll_aton/ll_sw_integer.c ****   {
 5011              		.loc 1 1198 8 is_stmt 1 view .LVU1398
1198:../Middlewares/stedgeai-lib/Npu/ll_aton/ll_sw_integer.c ****   {
 5012              		.loc 1 1198 11 is_stmt 0 view .LVU1399
 5013 01d2 0229     		cmp	r1, #2
 5014 01d4 23D1     		bne	.L187
 5015              	.LBB34:
1200:../Middlewares/stedgeai-lib/Npu/ll_aton/ll_sw_integer.c ****                          NULL, NULL, , .cubic_coeff_a = sw_info->cubic_coeff_a,
 5016              		.loc 1 1200 5 is_stmt 1 view .LVU1400
 5017 01d6 1E4D     		ldr	r5, .L195+8
 5018 01d8 CDE94C22 		strd	r2, r2, [sp, #304]
 5019 01dc CDE94A52 		strd	r5, r2, [sp, #296]
 5020 01e0 4E92     		str	r2, [sp, #312]
 5021 01e2 1E4A     		ldr	r2, .L195+20
 5022 01e4 8DF85411 		strb	r1, [sp, #340]
 5023 01e8 CDE94F24 		strd	r2, r4, [sp, #316]
 5024 01ec 90F89E21 		ldrb	r2, [r0, #414]	@ zero_extendqisi2
 5025 01f0 8DF84421 		strb	r2, [sp, #324]
 5026 01f4 D0F89021 		ldr	r2, [r0, #400]	@ float
 5027 01f8 5292     		str	r2, [sp, #328]	@ float
 5028 01fa 90F89421 		ldrb	r2, [r0, #404]	@ zero_extendqisi2
 5029 01fe 8DF84C21 		strb	r2, [sp, #332]
 5030 0202 D0F89821 		ldr	r2, [r0, #408]	@ float
 5031 0206 5492     		str	r2, [sp, #336]	@ float
 5032 0208 90F89D21 		ldrb	r2, [r0, #413]	@ zero_extendqisi2
1206:../Middlewares/stedgeai-lib/Npu/ll_aton/ll_sw_integer.c ****   }
 5033              		.loc 1 1206 5 is_stmt 0 view .LVU1401
 5034 020c 4AA8     		add	r0, sp, #296
 5035              	.LVL280:
1200:../Middlewares/stedgeai-lib/Npu/ll_aton/ll_sw_integer.c ****                          NULL, NULL, , .cubic_coeff_a = sw_info->cubic_coeff_a,
 5036              		.loc 1 1200 5 view .LVU1402
 5037 020e 8DF85521 		strb	r2, [sp, #341]
 5038 0212 2CAA     		add	r2, sp, #176
 5039 0214 CDE95623 		strd	r2, r3, [sp, #344]
1206:../Middlewares/stedgeai-lib/Npu/ll_aton/ll_sw_integer.c ****   }
 5040              		.loc 1 1206 5 is_stmt 1 view .LVU1403
 5041 0218 FFF7FEFF 		bl	forward_resize_bilinear_is8os8
 5042              	.LVL281:
1206:../Middlewares/stedgeai-lib/Npu/ll_aton/ll_sw_integer.c ****   }
 5043              		.loc 1 1206 5 is_stmt 0 view .LVU1404
 5044              	.LBE34:
 5045 021c D2E7     		b	.L179
 5046              	.LVL282:
 5047              	.L187:
1208:../Middlewares/stedgeai-lib/Npu/ll_aton/ll_sw_integer.c ****   {
ARM GAS  /tmp/ccZCp2co.s 			page 124


 5048              		.loc 1 1208 8 is_stmt 1 view .LVU1405
1208:../Middlewares/stedgeai-lib/Npu/ll_aton/ll_sw_integer.c ****   {
 5049              		.loc 1 1208 11 is_stmt 0 view .LVU1406
 5050 021e 0029     		cmp	r1, #0
 5051 0220 D0D1     		bne	.L179
 5052              	.LBB35:
1210:../Middlewares/stedgeai-lib/Npu/ll_aton/ll_sw_integer.c ****                          NULL, NULL, , .mode = AI_UPSAMPLE_ZEROS, .center = false, .scales = AI_ARR
 5053              		.loc 1 1210 5 is_stmt 1 view .LVU1407
 5054 0222 0F4B     		ldr	r3, .L195+24
 5055              	.LVL283:
1213:../Middlewares/stedgeai-lib/Npu/ll_aton/ll_sw_integer.c ****   }
 5056              		.loc 1 1213 5 is_stmt 0 view .LVU1408
 5057 0224 4AA8     		add	r0, sp, #296
 5058              	.LVL284:
1210:../Middlewares/stedgeai-lib/Npu/ll_aton/ll_sw_integer.c ****                          NULL, NULL, , .mode = AI_UPSAMPLE_ZEROS, .center = false, .scales = AI_ARR
 5059              		.loc 1 1210 5 view .LVU1409
 5060 0226 CDE94A31 		strd	r3, r1, [sp, #296]
 5061 022a 0E4B     		ldr	r3, .L195+28
 5062 022c CDE94C11 		strd	r1, r1, [sp, #304]
 5063 0230 CDE94F34 		strd	r3, r4, [sp, #316]
 5064 0234 2CAB     		add	r3, sp, #176
 5065 0236 4E91     		str	r1, [sp, #312]
 5066 0238 ADF84411 		strh	r1, [sp, #324]	@ movhi
 5067 023c 5293     		str	r3, [sp, #328]
 5068 023e 8DF84C11 		strb	r1, [sp, #332]
1213:../Middlewares/stedgeai-lib/Npu/ll_aton/ll_sw_integer.c ****   }
 5069              		.loc 1 1213 5 is_stmt 1 view .LVU1410
 5070 0242 FFF7FEFF 		bl	forward_upsample_zeros
 5071              	.LVL285:
1213:../Middlewares/stedgeai-lib/Npu/ll_aton/ll_sw_integer.c ****   }
 5072              		.loc 1 1213 5 is_stmt 0 view .LVU1411
 5073              	.LBE35:
 5074              		.loc 1 1215 1 view .LVU1412
 5075 0246 BDE7     		b	.L179
 5076              	.L196:
 5077              		.align	2
 5078              	.L195:
 5079 0248 40048408 		.word	142869568
 5080 024c 40108200 		.word	8523840
 5081 0250 1B010100 		.word	65819
 5082 0254 00000000 		.word	forward_resize_nearest_is8os8
 5083 0258 40040408 		.word	134480960
 5084 025c 00000000 		.word	forward_resize_bilinear_is8os8
 5085 0260 12010100 		.word	65810
 5086 0264 00000000 		.word	forward_upsample_zeros
 5087              		.cfi_endproc
 5088              	.LFE26:
 5090              		.section	.text.ll_sw_forward_argmax_integer,"ax",%progbits
 5091              		.align	1
 5092              		.global	ll_sw_forward_argmax_integer
 5093              		.syntax unified
 5094              		.thumb
 5095              		.thumb_func
 5097              	ll_sw_forward_argmax_integer:
 5098              	.LVL286:
 5099              	.LFB27:
1216:../Middlewares/stedgeai-lib/Npu/ll_aton/ll_sw_integer.c **** 
ARM GAS  /tmp/ccZCp2co.s 			page 125


1217:../Middlewares/stedgeai-lib/Npu/ll_aton/ll_sw_integer.c **** //##########################################################################################
1218:../Middlewares/stedgeai-lib/Npu/ll_aton/ll_sw_integer.c **** /** ArgMax forward function  */
1219:../Middlewares/stedgeai-lib/Npu/ll_aton/ll_sw_integer.c **** void ll_sw_forward_argmax_integer(Argmax_integer_sw_info *sw_info)
1220:../Middlewares/stedgeai-lib/Npu/ll_aton/ll_sw_integer.c **** {
 5100              		.loc 1 1220 1 is_stmt 1 view -0
 5101              		.cfi_startproc
 5102              		@ args = 0, pretend = 0, frame = 256
 5103              		@ frame_needed = 0, uses_anonymous_args = 0
1221:../Middlewares/stedgeai-lib/Npu/ll_aton/ll_sw_integer.c ****   AI_ARRAY_OBJ_DECLARE(input_output_array, AI_ARRAY_FORMAT_S8, sw_info->general.input.mem.start_off
 5104              		.loc 1 1221 3 view .LVU1414
1220:../Middlewares/stedgeai-lib/Npu/ll_aton/ll_sw_integer.c ****   AI_ARRAY_OBJ_DECLARE(input_output_array, AI_ARRAY_FORMAT_S8, sw_info->general.input.mem.start_off
 5105              		.loc 1 1220 1 is_stmt 0 view .LVU1415
 5106 0000 30B5     		push	{r4, r5, lr}
 5107              		.cfi_def_cfa_offset 12
 5108              		.cfi_offset 4, -12
 5109              		.cfi_offset 5, -8
 5110              		.cfi_offset 14, -4
 5111              		.loc 1 1221 3 view .LVU1416
 5112 0002 404B     		ldr	r3, .L200
1220:../Middlewares/stedgeai-lib/Npu/ll_aton/ll_sw_integer.c ****   AI_ARRAY_OBJ_DECLARE(input_output_array, AI_ARRAY_FORMAT_S8, sw_info->general.input.mem.start_off
 5113              		.loc 1 1220 1 view .LVU1417
 5114 0004 C1B0     		sub	sp, sp, #260
 5115              		.cfi_def_cfa_offset 272
 5116              		.loc 1 1221 3 view .LVU1418
 5117 0006 0693     		str	r3, [sp, #24]
 5118 0008 4369     		ldr	r3, [r0, #20]
1222:../Middlewares/stedgeai-lib/Npu/ll_aton/ll_sw_integer.c ****                        sw_info->general.input.mem.start_offset, sw_info->general.input.dim.num_elem
1223:../Middlewares/stedgeai-lib/Npu/ll_aton/ll_sw_integer.c ****   AI_ARRAY_OBJ_DECLARE(argmax_output_array, AI_ARRAY_FORMAT_S32, sw_info->general.output.mem.start_
1224:../Middlewares/stedgeai-lib/Npu/ll_aton/ll_sw_integer.c ****                        sw_info->general.output.mem.start_offset, sw_info->general.output.dim.num_el
1225:../Middlewares/stedgeai-lib/Npu/ll_aton/ll_sw_integer.c ****   // tensor init
1226:../Middlewares/stedgeai-lib/Npu/ll_aton/ll_sw_integer.c ****   AI_TENSOR_OBJ_DECLARE(input_output, , 0x0, 4,
 5119              		.loc 1 1226 3 view .LVU1419
 5120 000a 0269     		ldr	r2, [r0, #16]
1221:../Middlewares/stedgeai-lib/Npu/ll_aton/ll_sw_integer.c ****                        sw_info->general.input.mem.start_offset, sw_info->general.input.dim.num_elem
 5121              		.loc 1 1221 3 view .LVU1420
 5122 000c 0793     		str	r3, [sp, #28]
 5123 000e 836A     		ldr	r3, [r0, #40]
 5124              		.loc 1 1226 3 view .LVU1421
 5125 0010 0E92     		str	r2, [sp, #56]
 5126 0012 C268     		ldr	r2, [r0, #12]
1221:../Middlewares/stedgeai-lib/Npu/ll_aton/ll_sw_integer.c ****                        sw_info->general.input.mem.start_offset, sw_info->general.input.dim.num_elem
 5127              		.loc 1 1221 3 view .LVU1422
 5128 0014 CDE90833 		strd	r3, r3, [sp, #32]
1223:../Middlewares/stedgeai-lib/Npu/ll_aton/ll_sw_integer.c ****                        sw_info->general.output.mem.start_offset, sw_info->general.output.dim.num_el
 5129              		.loc 1 1223 3 is_stmt 1 view .LVU1423
 5130 0018 3B4B     		ldr	r3, .L200+4
 5131              		.loc 1 1226 3 is_stmt 0 view .LVU1424
 5132 001a 0F92     		str	r2, [sp, #60]
 5133 001c 8268     		ldr	r2, [r0, #8]
1223:../Middlewares/stedgeai-lib/Npu/ll_aton/ll_sw_integer.c ****                        sw_info->general.output.mem.start_offset, sw_info->general.output.dim.num_el
 5134              		.loc 1 1223 3 view .LVU1425
 5135 001e 0A93     		str	r3, [sp, #40]
 5136 0020 036C     		ldr	r3, [r0, #64]
 5137              		.loc 1 1226 3 view .LVU1426
 5138 0022 1092     		str	r2, [sp, #64]
 5139 0024 4268     		ldr	r2, [r0, #4]
1223:../Middlewares/stedgeai-lib/Npu/ll_aton/ll_sw_integer.c ****                        sw_info->general.output.mem.start_offset, sw_info->general.output.dim.num_el
ARM GAS  /tmp/ccZCp2co.s 			page 126


 5140              		.loc 1 1223 3 view .LVU1427
 5141 0026 0B93     		str	r3, [sp, #44]
 5142 0028 436D     		ldr	r3, [r0, #84]
 5143              		.loc 1 1226 3 view .LVU1428
 5144 002a 1192     		str	r2, [sp, #68]
 5145 002c 0EAA     		add	r2, sp, #56
 5146 002e 4FF08274 		mov	r4, #17039360
 5147 0032 40F20141 		movw	r1, #1025
1223:../Middlewares/stedgeai-lib/Npu/ll_aton/ll_sw_integer.c ****                        sw_info->general.output.mem.start_offset, sw_info->general.output.dim.num_el
 5148              		.loc 1 1223 3 view .LVU1429
 5149 0036 CDE90C33 		strd	r3, r3, [sp, #48]
 5150              		.loc 1 1226 3 is_stmt 1 view .LVU1430
 5151 003a 2192     		str	r2, [sp, #132]
 5152 003c 0023     		movs	r3, #0
 5153 003e 40F20242 		movw	r2, #1026
 5154 0042 456A     		ldr	r5, [r0, #36]
 5155 0044 CDE91E34 		strd	r3, r4, [sp, #120]
 5156 0048 1295     		str	r5, [sp, #72]
 5157 004a 056A     		ldr	r5, [r0, #32]
 5158 004c 2091     		str	r1, [sp, #128]
 5159 004e 2292     		str	r2, [sp, #136]
 5160 0050 1395     		str	r5, [sp, #76]
 5161 0052 C569     		ldr	r5, [r0, #28]
1227:../Middlewares/stedgeai-lib/Npu/ll_aton/ll_sw_integer.c ****                         SHAPE_INIT(sw_info->general.input.dim.tensor_h, sw_info->general.input.dim.
1228:../Middlewares/stedgeai-lib/Npu/ll_aton/ll_sw_integer.c ****                                    sw_info->general.input.dim.tensor_c, sw_info->general.input.dim.
1229:../Middlewares/stedgeai-lib/Npu/ll_aton/ll_sw_integer.c ****                         STRIDE_INIT(sw_info->general.input.stride.h, sw_info->general.input.stride.
1230:../Middlewares/stedgeai-lib/Npu/ll_aton/ll_sw_integer.c ****                                     sw_info->general.input.stride.c, sw_info->general.input.stride.
1231:../Middlewares/stedgeai-lib/Npu/ll_aton/ll_sw_integer.c ****                         1, &input_output_array, NULL)
1232:../Middlewares/stedgeai-lib/Npu/ll_aton/ll_sw_integer.c ****   AI_TENSOR_OBJ_DECLARE(argmax_output, , 0x0, 4,
 5162              		.loc 1 1232 3 is_stmt 0 view .LVU1431
 5163 0054 CDE92641 		strd	r4, r1, [sp, #152]
 5164 0058 C16B     		ldr	r1, [r0, #60]
1226:../Middlewares/stedgeai-lib/Npu/ll_aton/ll_sw_integer.c ****                         SHAPE_INIT(sw_info->general.input.dim.tensor_h, sw_info->general.input.dim.
 5165              		.loc 1 1226 3 view .LVU1432
 5166 005a 1495     		str	r5, [sp, #80]
 5167              		.loc 1 1232 3 view .LVU1433
 5168 005c 1691     		str	r1, [sp, #88]
 5169 005e 816B     		ldr	r1, [r0, #56]
1226:../Middlewares/stedgeai-lib/Npu/ll_aton/ll_sw_integer.c ****                         SHAPE_INIT(sw_info->general.input.dim.tensor_h, sw_info->general.input.dim.
 5170              		.loc 1 1226 3 view .LVU1434
 5171 0060 8569     		ldr	r5, [r0, #24]
 5172              		.loc 1 1232 3 view .LVU1435
 5173 0062 1791     		str	r1, [sp, #92]
 5174 0064 416B     		ldr	r1, [r0, #52]
1226:../Middlewares/stedgeai-lib/Npu/ll_aton/ll_sw_integer.c ****                         SHAPE_INIT(sw_info->general.input.dim.tensor_h, sw_info->general.input.dim.
 5175              		.loc 1 1226 3 view .LVU1436
 5176 0066 1595     		str	r5, [sp, #84]
 5177              		.loc 1 1232 3 view .LVU1437
 5178 0068 1891     		str	r1, [sp, #96]
 5179 006a 016B     		ldr	r1, [r0, #48]
1226:../Middlewares/stedgeai-lib/Npu/ll_aton/ll_sw_integer.c ****                         SHAPE_INIT(sw_info->general.input.dim.tensor_h, sw_info->general.input.dim.
 5180              		.loc 1 1226 3 view .LVU1438
 5181 006c 12AD     		add	r5, sp, #72
 5182              		.loc 1 1232 3 view .LVU1439
 5183 006e 1991     		str	r1, [sp, #100]
 5184 0070 16A9     		add	r1, sp, #88
 5185 0072 CDE92812 		strd	r1, r2, [sp, #160]
ARM GAS  /tmp/ccZCp2co.s 			page 127


 5186 0076 026D     		ldr	r2, [r0, #80]
1233:../Middlewares/stedgeai-lib/Npu/ll_aton/ll_sw_integer.c ****                         SHAPE_INIT(sw_info->general.output.dim.tensor_h, sw_info->general.output.di
1234:../Middlewares/stedgeai-lib/Npu/ll_aton/ll_sw_integer.c ****                                    sw_info->general.output.dim.tensor_c, sw_info->general.output.di
1235:../Middlewares/stedgeai-lib/Npu/ll_aton/ll_sw_integer.c ****                         STRIDE_INIT(sw_info->general.output.stride.h, sw_info->general.output.strid
1236:../Middlewares/stedgeai-lib/Npu/ll_aton/ll_sw_integer.c ****                                     sw_info->general.output.stride.c, sw_info->general.output.strid
1237:../Middlewares/stedgeai-lib/Npu/ll_aton/ll_sw_integer.c ****                         1, &argmax_output_array, NULL)
1238:../Middlewares/stedgeai-lib/Npu/ll_aton/ll_sw_integer.c ****   // tensor chain initialization
1239:../Middlewares/stedgeai-lib/Npu/ll_aton/ll_sw_integer.c ****   AI_TENSOR_CHAIN_OBJ_DECLARE(argmax_chain, , 4, AI_TENSOR_LIST_OBJ_INIT(AI_FLAG_NONE, 1, TENSORS(&
 5187              		.loc 1 1239 3 view .LVU1440
 5188 0078 6946     		mov	r1, sp
1232:../Middlewares/stedgeai-lib/Npu/ll_aton/ll_sw_integer.c ****                         SHAPE_INIT(sw_info->general.output.dim.tensor_h, sw_info->general.output.di
 5189              		.loc 1 1232 3 view .LVU1441
 5190 007a 1A92     		str	r2, [sp, #104]
 5191 007c C26C     		ldr	r2, [r0, #76]
1226:../Middlewares/stedgeai-lib/Npu/ll_aton/ll_sw_integer.c ****                         SHAPE_INIT(sw_info->general.input.dim.tensor_h, sw_info->general.input.dim.
 5192              		.loc 1 1226 3 view .LVU1442
 5193 007e 2395     		str	r5, [sp, #140]
1232:../Middlewares/stedgeai-lib/Npu/ll_aton/ll_sw_integer.c ****                         SHAPE_INIT(sw_info->general.output.dim.tensor_h, sw_info->general.output.di
 5194              		.loc 1 1232 3 view .LVU1443
 5195 0080 1B92     		str	r2, [sp, #108]
 5196 0082 826C     		ldr	r2, [r0, #72]
1226:../Middlewares/stedgeai-lib/Npu/ll_aton/ll_sw_integer.c ****                         SHAPE_INIT(sw_info->general.input.dim.tensor_h, sw_info->general.input.dim.
 5197              		.loc 1 1226 3 view .LVU1444
 5198 0084 06AD     		add	r5, sp, #24
1232:../Middlewares/stedgeai-lib/Npu/ll_aton/ll_sw_integer.c ****                         SHAPE_INIT(sw_info->general.output.dim.tensor_h, sw_info->general.output.di
 5199              		.loc 1 1232 3 view .LVU1445
 5200 0086 1C92     		str	r2, [sp, #112]
 5201 0088 426C     		ldr	r2, [r0, #68]
 5202              		.loc 1 1239 3 view .LVU1446
 5203 008a 1EAC     		add	r4, sp, #120
1232:../Middlewares/stedgeai-lib/Npu/ll_aton/ll_sw_integer.c ****                         SHAPE_INIT(sw_info->general.output.dim.tensor_h, sw_info->general.output.di
 5204              		.loc 1 1232 3 view .LVU1447
 5205 008c 1D92     		str	r2, [sp, #116]
 5206 008e 1AAA     		add	r2, sp, #104
 5207 0090 2A92     		str	r2, [sp, #168]
 5208 0092 0AAA     		add	r2, sp, #40
 5209 0094 2B92     		str	r2, [sp, #172]
 5210              		.loc 1 1239 3 is_stmt 1 view .LVU1448
 5211 0096 0422     		movs	r2, #4
 5212 0098 0492     		str	r2, [sp, #16]
 5213 009a 0122     		movs	r2, #1
1232:../Middlewares/stedgeai-lib/Npu/ll_aton/ll_sw_integer.c ****                         SHAPE_INIT(sw_info->general.output.dim.tensor_h, sw_info->general.output.di
 5214              		.loc 1 1232 3 is_stmt 0 view .LVU1449
 5215 009c CDE92453 		strd	r5, r3, [sp, #144]
 5216              		.loc 1 1239 3 view .LVU1450
 5217 00a0 3492     		str	r2, [sp, #208]
 5218 00a2 0094     		str	r4, [sp]
 5219 00a4 CDE93513 		strd	r1, r3, [sp, #212]
 5220 00a8 3792     		str	r2, [sp, #220]
 5221 00aa 25AA     		add	r2, sp, #148
 5222 00ac 0192     		str	r2, [sp, #4]
 5223 00ae 01AA     		add	r2, sp, #4
 5224 00b0 CDE93823 		strd	r2, r3, [sp, #224]
 5225 00b4 02AA     		add	r2, sp, #8
 5226 00b6 CDE93B23 		strd	r2, r3, [sp, #236]
 5227 00ba 03AA     		add	r2, sp, #12
 5228 00bc CDE93E23 		strd	r2, r3, [sp, #248]
ARM GAS  /tmp/ccZCp2co.s 			page 128


 5229 00c0 34AA     		add	r2, sp, #208
 5230 00c2 0592     		str	r2, [sp, #20]
1240:../Middlewares/stedgeai-lib/Npu/ll_aton/ll_sw_integer.c ****                               AI_TENSOR_LIST_OBJ_INIT(AI_FLAG_NONE, 1, TENSORS(&argmax_output)),
1241:../Middlewares/stedgeai-lib/Npu/ll_aton/ll_sw_integer.c ****                               AI_TENSOR_LIST_OBJ_EMPTY, AI_TENSOR_LIST_OBJ_EMPTY)
1242:../Middlewares/stedgeai-lib/Npu/ll_aton/ll_sw_integer.c **** 
1243:../Middlewares/stedgeai-lib/Npu/ll_aton/ll_sw_integer.c ****   AI_LAYER_OBJ_DECLARE(argmax_layer, 1, ARGMINMAX_TYPE, 0x0, NULL, argminmax, forward_argmax_is8, &
 5231              		.loc 1 1243 3 is_stmt 1 view .LVU1451
 5232 00c4 114A     		ldr	r2, .L200+8
 5233 00c6 CDE92E33 		strd	r3, r3, [sp, #184]
 5234 00ca CDE92C23 		strd	r2, r3, [sp, #176]
1239:../Middlewares/stedgeai-lib/Npu/ll_aton/ll_sw_integer.c ****                               AI_TENSOR_LIST_OBJ_INIT(AI_FLAG_NONE, 1, TENSORS(&argmax_output)),
 5235              		.loc 1 1239 3 is_stmt 0 view .LVU1452
 5236 00ce 3A93     		str	r3, [sp, #232]
 5237 00d0 0293     		str	r3, [sp, #8]
 5238 00d2 3D93     		str	r3, [sp, #244]
 5239 00d4 0393     		str	r3, [sp, #12]
 5240              		.loc 1 1243 3 view .LVU1453
 5241 00d6 3093     		str	r3, [sp, #192]
 5242 00d8 0D4B     		ldr	r3, .L200+12
 5243 00da 3193     		str	r3, [sp, #196]
 5244 00dc 04AB     		add	r3, sp, #16
 5245 00de 3293     		str	r3, [sp, #200]
 5246              	.LVL287:
 5247              	.LBB38:
 5248              	.LBI38:
  45:../Middlewares/stedgeai-lib/Npu/ll_aton/ll_sw_integer.c **** {
 5249              		.loc 1 45 12 is_stmt 1 view .LVU1454
  47:../Middlewares/stedgeai-lib/Npu/ll_aton/ll_sw_integer.c ****   {
 5250              		.loc 1 47 3 view .LVU1455
 5251 00e0 C36D     		ldr	r3, [r0, #92]
 5252 00e2 032B     		cmp	r3, #3
 5253              	.LBE38:
 5254              		.loc 1 1243 3 is_stmt 0 view .LVU1456
 5255 00e4 8EBF     		itee	hi
 5256 00e6 4FF0FF33 		movhi	r3, #-1
 5257              	.LVL288:
 5258              		.loc 1 1243 3 view .LVU1457
 5259 00ea 0A4A     		ldrls	r2, .L200+16
 5260 00ec D356     		ldrsbls	r3, [r2, r3]
 5261              		.loc 1 1243 3 discriminator 1 view .LVU1458
 5262 00ee ADF8CC30 		strh	r3, [sp, #204]	@ movhi
 5263 00f2 436E     		ldr	r3, [r0, #100]
1244:../Middlewares/stedgeai-lib/Npu/ll_aton/ll_sw_integer.c ****                        NULL, , .axis = helper_emit_shape_index_axis(sw_info->axis),
1245:../Middlewares/stedgeai-lib/Npu/ll_aton/ll_sw_integer.c ****                        .select_last_index = sw_info->select_last_index, )
1246:../Middlewares/stedgeai-lib/Npu/ll_aton/ll_sw_integer.c ****   argmax_layer.forward(AI_LAYER_OBJ(&argmax_layer));
 5264              		.loc 1 1246 3 view .LVU1459
 5265 00f4 2CA8     		add	r0, sp, #176
 5266              	.LVL289:
1243:../Middlewares/stedgeai-lib/Npu/ll_aton/ll_sw_integer.c ****                        NULL, , .axis = helper_emit_shape_index_axis(sw_info->axis),
 5267              		.loc 1 1243 3 discriminator 1 view .LVU1460
 5268 00f6 ADF8CE30 		strh	r3, [sp, #206]	@ movhi
 5269              		.loc 1 1246 3 is_stmt 1 view .LVU1461
 5270 00fa FFF7FEFF 		bl	forward_argmax_is8
 5271              	.LVL290:
1247:../Middlewares/stedgeai-lib/Npu/ll_aton/ll_sw_integer.c **** }
 5272              		.loc 1 1247 1 is_stmt 0 view .LVU1462
 5273 00fe 41B0     		add	sp, sp, #260
ARM GAS  /tmp/ccZCp2co.s 			page 129


 5274              		.cfi_def_cfa_offset 12
 5275              		@ sp needed
 5276 0100 30BD     		pop	{r4, r5, pc}
 5277              	.L201:
 5278 0102 00BF     		.align	2
 5279              	.L200:
 5280 0104 40048400 		.word	8651840
 5281 0108 40108400 		.word	8654912
 5282 010c 1F010100 		.word	65823
 5283 0110 00000000 		.word	forward_argmax_is8
 5284 0114 00000000 		.word	CSWTCH.61
 5285              		.cfi_endproc
 5286              	.LFE27:
 5288              		.section	.text.ll_sw_forward_argmin_integer,"ax",%progbits
 5289              		.align	1
 5290              		.global	ll_sw_forward_argmin_integer
 5291              		.syntax unified
 5292              		.thumb
 5293              		.thumb_func
 5295              	ll_sw_forward_argmin_integer:
 5296              	.LVL291:
 5297              	.LFB28:
1248:../Middlewares/stedgeai-lib/Npu/ll_aton/ll_sw_integer.c **** 
1249:../Middlewares/stedgeai-lib/Npu/ll_aton/ll_sw_integer.c **** //##########################################################################################
1250:../Middlewares/stedgeai-lib/Npu/ll_aton/ll_sw_integer.c **** /** ArgMin forward function  */
1251:../Middlewares/stedgeai-lib/Npu/ll_aton/ll_sw_integer.c **** void ll_sw_forward_argmin_integer(Argmin_integer_sw_info *sw_info)
1252:../Middlewares/stedgeai-lib/Npu/ll_aton/ll_sw_integer.c **** {
 5298              		.loc 1 1252 1 is_stmt 1 view -0
 5299              		.cfi_startproc
 5300              		@ args = 0, pretend = 0, frame = 256
 5301              		@ frame_needed = 0, uses_anonymous_args = 0
1253:../Middlewares/stedgeai-lib/Npu/ll_aton/ll_sw_integer.c ****   AI_ARRAY_OBJ_DECLARE(input_output_array, AI_ARRAY_FORMAT_S8, sw_info->general.input.mem.start_off
 5302              		.loc 1 1253 3 view .LVU1464
1252:../Middlewares/stedgeai-lib/Npu/ll_aton/ll_sw_integer.c ****   AI_ARRAY_OBJ_DECLARE(input_output_array, AI_ARRAY_FORMAT_S8, sw_info->general.input.mem.start_off
 5303              		.loc 1 1252 1 is_stmt 0 view .LVU1465
 5304 0000 30B5     		push	{r4, r5, lr}
 5305              		.cfi_def_cfa_offset 12
 5306              		.cfi_offset 4, -12
 5307              		.cfi_offset 5, -8
 5308              		.cfi_offset 14, -4
 5309              		.loc 1 1253 3 view .LVU1466
 5310 0002 404B     		ldr	r3, .L205
1252:../Middlewares/stedgeai-lib/Npu/ll_aton/ll_sw_integer.c ****   AI_ARRAY_OBJ_DECLARE(input_output_array, AI_ARRAY_FORMAT_S8, sw_info->general.input.mem.start_off
 5311              		.loc 1 1252 1 view .LVU1467
 5312 0004 C1B0     		sub	sp, sp, #260
 5313              		.cfi_def_cfa_offset 272
 5314              		.loc 1 1253 3 view .LVU1468
 5315 0006 0693     		str	r3, [sp, #24]
 5316 0008 4369     		ldr	r3, [r0, #20]
1254:../Middlewares/stedgeai-lib/Npu/ll_aton/ll_sw_integer.c ****                        sw_info->general.input.mem.start_offset, sw_info->general.input.dim.num_elem
1255:../Middlewares/stedgeai-lib/Npu/ll_aton/ll_sw_integer.c ****   AI_ARRAY_OBJ_DECLARE(argmin_output_array, AI_ARRAY_FORMAT_S32, sw_info->general.output.mem.start_
1256:../Middlewares/stedgeai-lib/Npu/ll_aton/ll_sw_integer.c ****                        sw_info->general.output.mem.start_offset, sw_info->general.output.dim.num_el
1257:../Middlewares/stedgeai-lib/Npu/ll_aton/ll_sw_integer.c ****   // tensor init
1258:../Middlewares/stedgeai-lib/Npu/ll_aton/ll_sw_integer.c ****   AI_TENSOR_OBJ_DECLARE(input_output, , 0x0, 4,
 5317              		.loc 1 1258 3 view .LVU1469
 5318 000a 0269     		ldr	r2, [r0, #16]
1253:../Middlewares/stedgeai-lib/Npu/ll_aton/ll_sw_integer.c ****                        sw_info->general.input.mem.start_offset, sw_info->general.input.dim.num_elem
ARM GAS  /tmp/ccZCp2co.s 			page 130


 5319              		.loc 1 1253 3 view .LVU1470
 5320 000c 0793     		str	r3, [sp, #28]
 5321 000e 836A     		ldr	r3, [r0, #40]
 5322              		.loc 1 1258 3 view .LVU1471
 5323 0010 0E92     		str	r2, [sp, #56]
 5324 0012 C268     		ldr	r2, [r0, #12]
1253:../Middlewares/stedgeai-lib/Npu/ll_aton/ll_sw_integer.c ****                        sw_info->general.input.mem.start_offset, sw_info->general.input.dim.num_elem
 5325              		.loc 1 1253 3 view .LVU1472
 5326 0014 CDE90833 		strd	r3, r3, [sp, #32]
1255:../Middlewares/stedgeai-lib/Npu/ll_aton/ll_sw_integer.c ****                        sw_info->general.output.mem.start_offset, sw_info->general.output.dim.num_el
 5327              		.loc 1 1255 3 is_stmt 1 view .LVU1473
 5328 0018 3B4B     		ldr	r3, .L205+4
 5329              		.loc 1 1258 3 is_stmt 0 view .LVU1474
 5330 001a 0F92     		str	r2, [sp, #60]
 5331 001c 8268     		ldr	r2, [r0, #8]
1255:../Middlewares/stedgeai-lib/Npu/ll_aton/ll_sw_integer.c ****                        sw_info->general.output.mem.start_offset, sw_info->general.output.dim.num_el
 5332              		.loc 1 1255 3 view .LVU1475
 5333 001e 0A93     		str	r3, [sp, #40]
 5334 0020 036C     		ldr	r3, [r0, #64]
 5335              		.loc 1 1258 3 view .LVU1476
 5336 0022 1092     		str	r2, [sp, #64]
 5337 0024 4268     		ldr	r2, [r0, #4]
1255:../Middlewares/stedgeai-lib/Npu/ll_aton/ll_sw_integer.c ****                        sw_info->general.output.mem.start_offset, sw_info->general.output.dim.num_el
 5338              		.loc 1 1255 3 view .LVU1477
 5339 0026 0B93     		str	r3, [sp, #44]
 5340 0028 436D     		ldr	r3, [r0, #84]
 5341              		.loc 1 1258 3 view .LVU1478
 5342 002a 1192     		str	r2, [sp, #68]
 5343 002c 0EAA     		add	r2, sp, #56
 5344 002e 4FF08274 		mov	r4, #17039360
 5345 0032 40F20141 		movw	r1, #1025
1255:../Middlewares/stedgeai-lib/Npu/ll_aton/ll_sw_integer.c ****                        sw_info->general.output.mem.start_offset, sw_info->general.output.dim.num_el
 5346              		.loc 1 1255 3 view .LVU1479
 5347 0036 CDE90C33 		strd	r3, r3, [sp, #48]
 5348              		.loc 1 1258 3 is_stmt 1 view .LVU1480
 5349 003a 2192     		str	r2, [sp, #132]
 5350 003c 0023     		movs	r3, #0
 5351 003e 40F20242 		movw	r2, #1026
 5352 0042 456A     		ldr	r5, [r0, #36]
 5353 0044 CDE91E34 		strd	r3, r4, [sp, #120]
 5354 0048 1295     		str	r5, [sp, #72]
 5355 004a 056A     		ldr	r5, [r0, #32]
 5356 004c 2091     		str	r1, [sp, #128]
 5357 004e 2292     		str	r2, [sp, #136]
 5358 0050 1395     		str	r5, [sp, #76]
 5359 0052 C569     		ldr	r5, [r0, #28]
1259:../Middlewares/stedgeai-lib/Npu/ll_aton/ll_sw_integer.c ****                         SHAPE_INIT(sw_info->general.input.dim.tensor_h, sw_info->general.input.dim.
1260:../Middlewares/stedgeai-lib/Npu/ll_aton/ll_sw_integer.c ****                                    sw_info->general.input.dim.tensor_c, sw_info->general.input.dim.
1261:../Middlewares/stedgeai-lib/Npu/ll_aton/ll_sw_integer.c ****                         STRIDE_INIT(sw_info->general.input.stride.h, sw_info->general.input.stride.
1262:../Middlewares/stedgeai-lib/Npu/ll_aton/ll_sw_integer.c ****                                     sw_info->general.input.stride.c, sw_info->general.input.stride.
1263:../Middlewares/stedgeai-lib/Npu/ll_aton/ll_sw_integer.c ****                         1, &input_output_array, NULL)
1264:../Middlewares/stedgeai-lib/Npu/ll_aton/ll_sw_integer.c ****   AI_TENSOR_OBJ_DECLARE(argmin_output, , 0x0, 4,
 5360              		.loc 1 1264 3 is_stmt 0 view .LVU1481
 5361 0054 CDE92641 		strd	r4, r1, [sp, #152]
 5362 0058 C16B     		ldr	r1, [r0, #60]
1258:../Middlewares/stedgeai-lib/Npu/ll_aton/ll_sw_integer.c ****                         SHAPE_INIT(sw_info->general.input.dim.tensor_h, sw_info->general.input.dim.
 5363              		.loc 1 1258 3 view .LVU1482
ARM GAS  /tmp/ccZCp2co.s 			page 131


 5364 005a 1495     		str	r5, [sp, #80]
 5365              		.loc 1 1264 3 view .LVU1483
 5366 005c 1691     		str	r1, [sp, #88]
 5367 005e 816B     		ldr	r1, [r0, #56]
1258:../Middlewares/stedgeai-lib/Npu/ll_aton/ll_sw_integer.c ****                         SHAPE_INIT(sw_info->general.input.dim.tensor_h, sw_info->general.input.dim.
 5368              		.loc 1 1258 3 view .LVU1484
 5369 0060 8569     		ldr	r5, [r0, #24]
 5370              		.loc 1 1264 3 view .LVU1485
 5371 0062 1791     		str	r1, [sp, #92]
 5372 0064 416B     		ldr	r1, [r0, #52]
1258:../Middlewares/stedgeai-lib/Npu/ll_aton/ll_sw_integer.c ****                         SHAPE_INIT(sw_info->general.input.dim.tensor_h, sw_info->general.input.dim.
 5373              		.loc 1 1258 3 view .LVU1486
 5374 0066 1595     		str	r5, [sp, #84]
 5375              		.loc 1 1264 3 view .LVU1487
 5376 0068 1891     		str	r1, [sp, #96]
 5377 006a 016B     		ldr	r1, [r0, #48]
1258:../Middlewares/stedgeai-lib/Npu/ll_aton/ll_sw_integer.c ****                         SHAPE_INIT(sw_info->general.input.dim.tensor_h, sw_info->general.input.dim.
 5378              		.loc 1 1258 3 view .LVU1488
 5379 006c 12AD     		add	r5, sp, #72
 5380              		.loc 1 1264 3 view .LVU1489
 5381 006e 1991     		str	r1, [sp, #100]
 5382 0070 16A9     		add	r1, sp, #88
 5383 0072 CDE92812 		strd	r1, r2, [sp, #160]
 5384 0076 026D     		ldr	r2, [r0, #80]
1265:../Middlewares/stedgeai-lib/Npu/ll_aton/ll_sw_integer.c ****                         SHAPE_INIT(sw_info->general.output.dim.tensor_h, sw_info->general.output.di
1266:../Middlewares/stedgeai-lib/Npu/ll_aton/ll_sw_integer.c ****                                    sw_info->general.output.dim.tensor_c, sw_info->general.output.di
1267:../Middlewares/stedgeai-lib/Npu/ll_aton/ll_sw_integer.c ****                         STRIDE_INIT(sw_info->general.output.stride.h, sw_info->general.output.strid
1268:../Middlewares/stedgeai-lib/Npu/ll_aton/ll_sw_integer.c ****                                     sw_info->general.output.stride.c, sw_info->general.output.strid
1269:../Middlewares/stedgeai-lib/Npu/ll_aton/ll_sw_integer.c ****                         1, &argmin_output_array, NULL)
1270:../Middlewares/stedgeai-lib/Npu/ll_aton/ll_sw_integer.c ****   // tensor chain initialization
1271:../Middlewares/stedgeai-lib/Npu/ll_aton/ll_sw_integer.c ****   AI_TENSOR_CHAIN_OBJ_DECLARE(argmin_chain, , 4, AI_TENSOR_LIST_OBJ_INIT(AI_FLAG_NONE, 1, TENSORS(&
 5385              		.loc 1 1271 3 view .LVU1490
 5386 0078 6946     		mov	r1, sp
1264:../Middlewares/stedgeai-lib/Npu/ll_aton/ll_sw_integer.c ****                         SHAPE_INIT(sw_info->general.output.dim.tensor_h, sw_info->general.output.di
 5387              		.loc 1 1264 3 view .LVU1491
 5388 007a 1A92     		str	r2, [sp, #104]
 5389 007c C26C     		ldr	r2, [r0, #76]
1258:../Middlewares/stedgeai-lib/Npu/ll_aton/ll_sw_integer.c ****                         SHAPE_INIT(sw_info->general.input.dim.tensor_h, sw_info->general.input.dim.
 5390              		.loc 1 1258 3 view .LVU1492
 5391 007e 2395     		str	r5, [sp, #140]
1264:../Middlewares/stedgeai-lib/Npu/ll_aton/ll_sw_integer.c ****                         SHAPE_INIT(sw_info->general.output.dim.tensor_h, sw_info->general.output.di
 5392              		.loc 1 1264 3 view .LVU1493
 5393 0080 1B92     		str	r2, [sp, #108]
 5394 0082 826C     		ldr	r2, [r0, #72]
1258:../Middlewares/stedgeai-lib/Npu/ll_aton/ll_sw_integer.c ****                         SHAPE_INIT(sw_info->general.input.dim.tensor_h, sw_info->general.input.dim.
 5395              		.loc 1 1258 3 view .LVU1494
 5396 0084 06AD     		add	r5, sp, #24
1264:../Middlewares/stedgeai-lib/Npu/ll_aton/ll_sw_integer.c ****                         SHAPE_INIT(sw_info->general.output.dim.tensor_h, sw_info->general.output.di
 5397              		.loc 1 1264 3 view .LVU1495
 5398 0086 1C92     		str	r2, [sp, #112]
 5399 0088 426C     		ldr	r2, [r0, #68]
 5400              		.loc 1 1271 3 view .LVU1496
 5401 008a 1EAC     		add	r4, sp, #120
1264:../Middlewares/stedgeai-lib/Npu/ll_aton/ll_sw_integer.c ****                         SHAPE_INIT(sw_info->general.output.dim.tensor_h, sw_info->general.output.di
 5402              		.loc 1 1264 3 view .LVU1497
 5403 008c 1D92     		str	r2, [sp, #116]
 5404 008e 1AAA     		add	r2, sp, #104
ARM GAS  /tmp/ccZCp2co.s 			page 132


 5405 0090 2A92     		str	r2, [sp, #168]
 5406 0092 0AAA     		add	r2, sp, #40
 5407 0094 2B92     		str	r2, [sp, #172]
 5408              		.loc 1 1271 3 is_stmt 1 view .LVU1498
 5409 0096 0422     		movs	r2, #4
 5410 0098 0492     		str	r2, [sp, #16]
 5411 009a 0122     		movs	r2, #1
1264:../Middlewares/stedgeai-lib/Npu/ll_aton/ll_sw_integer.c ****                         SHAPE_INIT(sw_info->general.output.dim.tensor_h, sw_info->general.output.di
 5412              		.loc 1 1264 3 is_stmt 0 view .LVU1499
 5413 009c CDE92453 		strd	r5, r3, [sp, #144]
 5414              		.loc 1 1271 3 view .LVU1500
 5415 00a0 3492     		str	r2, [sp, #208]
 5416 00a2 0094     		str	r4, [sp]
 5417 00a4 CDE93513 		strd	r1, r3, [sp, #212]
 5418 00a8 3792     		str	r2, [sp, #220]
 5419 00aa 25AA     		add	r2, sp, #148
 5420 00ac 0192     		str	r2, [sp, #4]
 5421 00ae 01AA     		add	r2, sp, #4
 5422 00b0 CDE93823 		strd	r2, r3, [sp, #224]
 5423 00b4 02AA     		add	r2, sp, #8
 5424 00b6 CDE93B23 		strd	r2, r3, [sp, #236]
 5425 00ba 03AA     		add	r2, sp, #12
 5426 00bc CDE93E23 		strd	r2, r3, [sp, #248]
 5427 00c0 34AA     		add	r2, sp, #208
 5428 00c2 0592     		str	r2, [sp, #20]
1272:../Middlewares/stedgeai-lib/Npu/ll_aton/ll_sw_integer.c ****                               AI_TENSOR_LIST_OBJ_INIT(AI_FLAG_NONE, 1, TENSORS(&argmin_output)),
1273:../Middlewares/stedgeai-lib/Npu/ll_aton/ll_sw_integer.c ****                               AI_TENSOR_LIST_OBJ_EMPTY, AI_TENSOR_LIST_OBJ_EMPTY)
1274:../Middlewares/stedgeai-lib/Npu/ll_aton/ll_sw_integer.c **** 
1275:../Middlewares/stedgeai-lib/Npu/ll_aton/ll_sw_integer.c ****   AI_LAYER_OBJ_DECLARE(argmin_layer, 1, ARGMINMAX_TYPE, 0x0, NULL, argminmax, forward_argmin_is8, &
 5429              		.loc 1 1275 3 is_stmt 1 view .LVU1501
 5430 00c4 114A     		ldr	r2, .L205+8
 5431 00c6 CDE92E33 		strd	r3, r3, [sp, #184]
 5432 00ca CDE92C23 		strd	r2, r3, [sp, #176]
1271:../Middlewares/stedgeai-lib/Npu/ll_aton/ll_sw_integer.c ****                               AI_TENSOR_LIST_OBJ_INIT(AI_FLAG_NONE, 1, TENSORS(&argmin_output)),
 5433              		.loc 1 1271 3 is_stmt 0 view .LVU1502
 5434 00ce 3A93     		str	r3, [sp, #232]
 5435 00d0 0293     		str	r3, [sp, #8]
 5436 00d2 3D93     		str	r3, [sp, #244]
 5437 00d4 0393     		str	r3, [sp, #12]
 5438              		.loc 1 1275 3 view .LVU1503
 5439 00d6 3093     		str	r3, [sp, #192]
 5440 00d8 0D4B     		ldr	r3, .L205+12
 5441 00da 3193     		str	r3, [sp, #196]
 5442 00dc 04AB     		add	r3, sp, #16
 5443 00de 3293     		str	r3, [sp, #200]
 5444              	.LVL292:
 5445              	.LBB41:
 5446              	.LBI41:
  45:../Middlewares/stedgeai-lib/Npu/ll_aton/ll_sw_integer.c **** {
 5447              		.loc 1 45 12 is_stmt 1 view .LVU1504
  47:../Middlewares/stedgeai-lib/Npu/ll_aton/ll_sw_integer.c ****   {
 5448              		.loc 1 47 3 view .LVU1505
 5449 00e0 C36D     		ldr	r3, [r0, #92]
 5450 00e2 032B     		cmp	r3, #3
 5451              	.LBE41:
 5452              		.loc 1 1275 3 is_stmt 0 view .LVU1506
 5453 00e4 8EBF     		itee	hi
ARM GAS  /tmp/ccZCp2co.s 			page 133


 5454 00e6 4FF0FF33 		movhi	r3, #-1
 5455              	.LVL293:
 5456              		.loc 1 1275 3 view .LVU1507
 5457 00ea 0A4A     		ldrls	r2, .L205+16
 5458 00ec D356     		ldrsbls	r3, [r2, r3]
 5459              		.loc 1 1275 3 discriminator 1 view .LVU1508
 5460 00ee ADF8CC30 		strh	r3, [sp, #204]	@ movhi
 5461 00f2 436E     		ldr	r3, [r0, #100]
1276:../Middlewares/stedgeai-lib/Npu/ll_aton/ll_sw_integer.c ****                        NULL, , .axis = helper_emit_shape_index_axis(sw_info->axis),
1277:../Middlewares/stedgeai-lib/Npu/ll_aton/ll_sw_integer.c ****                        .select_last_index = sw_info->select_last_index, )
1278:../Middlewares/stedgeai-lib/Npu/ll_aton/ll_sw_integer.c ****   argmin_layer.forward(AI_LAYER_OBJ(&argmin_layer));
 5462              		.loc 1 1278 3 view .LVU1509
 5463 00f4 2CA8     		add	r0, sp, #176
 5464              	.LVL294:
1275:../Middlewares/stedgeai-lib/Npu/ll_aton/ll_sw_integer.c ****                        NULL, , .axis = helper_emit_shape_index_axis(sw_info->axis),
 5465              		.loc 1 1275 3 discriminator 1 view .LVU1510
 5466 00f6 ADF8CE30 		strh	r3, [sp, #206]	@ movhi
 5467              		.loc 1 1278 3 is_stmt 1 view .LVU1511
 5468 00fa FFF7FEFF 		bl	forward_argmin_is8
 5469              	.LVL295:
1279:../Middlewares/stedgeai-lib/Npu/ll_aton/ll_sw_integer.c **** }
 5470              		.loc 1 1279 1 is_stmt 0 view .LVU1512
 5471 00fe 41B0     		add	sp, sp, #260
 5472              		.cfi_def_cfa_offset 12
 5473              		@ sp needed
 5474 0100 30BD     		pop	{r4, r5, pc}
 5475              	.L206:
 5476 0102 00BF     		.align	2
 5477              	.L205:
 5478 0104 40048400 		.word	8651840
 5479 0108 40108400 		.word	8654912
 5480 010c 1F010100 		.word	65823
 5481 0110 00000000 		.word	forward_argmin_is8
 5482 0114 00000000 		.word	CSWTCH.61
 5483              		.cfi_endproc
 5484              	.LFE28:
 5486              		.section	.text.ll_sw_forward_tile_integer,"ax",%progbits
 5487              		.align	1
 5488              		.global	ll_sw_forward_tile_integer
 5489              		.syntax unified
 5490              		.thumb
 5491              		.thumb_func
 5493              	ll_sw_forward_tile_integer:
 5494              	.LVL296:
 5495              	.LFB29:
1280:../Middlewares/stedgeai-lib/Npu/ll_aton/ll_sw_integer.c **** 
1281:../Middlewares/stedgeai-lib/Npu/ll_aton/ll_sw_integer.c **** //##########################################################################################
1282:../Middlewares/stedgeai-lib/Npu/ll_aton/ll_sw_integer.c **** /** Tile forward function  */
1283:../Middlewares/stedgeai-lib/Npu/ll_aton/ll_sw_integer.c **** void ll_sw_forward_tile_integer(Tile_integer_sw_info *sw_info)
1284:../Middlewares/stedgeai-lib/Npu/ll_aton/ll_sw_integer.c **** {
 5496              		.loc 1 1284 1 is_stmt 1 view -0
 5497              		.cfi_startproc
 5498              		@ args = 0, pretend = 0, frame = 288
 5499              		@ frame_needed = 0, uses_anonymous_args = 0
1285:../Middlewares/stedgeai-lib/Npu/ll_aton/ll_sw_integer.c ****   AI_ARRAY_OBJ_DECLARE(input_output_array, AI_ARRAY_FORMAT_S8, sw_info->general.input.mem.start_off
 5500              		.loc 1 1285 3 view .LVU1514
1284:../Middlewares/stedgeai-lib/Npu/ll_aton/ll_sw_integer.c ****   AI_ARRAY_OBJ_DECLARE(input_output_array, AI_ARRAY_FORMAT_S8, sw_info->general.input.mem.start_off
ARM GAS  /tmp/ccZCp2co.s 			page 134


 5501              		.loc 1 1284 1 is_stmt 0 view .LVU1515
 5502 0000 30B5     		push	{r4, r5, lr}
 5503              		.cfi_def_cfa_offset 12
 5504              		.cfi_offset 4, -12
 5505              		.cfi_offset 5, -8
 5506              		.cfi_offset 14, -4
 5507              		.loc 1 1285 3 view .LVU1516
 5508 0002 4269     		ldr	r2, [r0, #20]
1284:../Middlewares/stedgeai-lib/Npu/ll_aton/ll_sw_integer.c ****   AI_ARRAY_OBJ_DECLARE(input_output_array, AI_ARRAY_FORMAT_S8, sw_info->general.input.mem.start_off
 5509              		.loc 1 1284 1 view .LVU1517
 5510 0004 C9B0     		sub	sp, sp, #292
 5511              		.cfi_def_cfa_offset 304
 5512              		.loc 1 1285 3 view .LVU1518
 5513 0006 0B92     		str	r2, [sp, #44]
 5514 0008 826A     		ldr	r2, [r0, #40]
 5515 000a 424B     		ldr	r3, .L208
 5516 000c CDE90C22 		strd	r2, r2, [sp, #48]
1286:../Middlewares/stedgeai-lib/Npu/ll_aton/ll_sw_integer.c ****                        sw_info->general.input.mem.start_offset, sw_info->general.input.dim.num_elem
1287:../Middlewares/stedgeai-lib/Npu/ll_aton/ll_sw_integer.c ****   AI_ARRAY_OBJ_DECLARE(tile_output_array, AI_ARRAY_FORMAT_S8, sw_info->general.output.mem.start_off
 5517              		.loc 1 1287 3 is_stmt 1 view .LVU1519
1288:../Middlewares/stedgeai-lib/Npu/ll_aton/ll_sw_integer.c ****                        sw_info->general.output.mem.start_offset, sw_info->general.output.dim.num_el
1289:../Middlewares/stedgeai-lib/Npu/ll_aton/ll_sw_integer.c **** 
1290:../Middlewares/stedgeai-lib/Npu/ll_aton/ll_sw_integer.c ****   // tensors init
1291:../Middlewares/stedgeai-lib/Npu/ll_aton/ll_sw_integer.c ****   AI_TENSOR_OBJ_DECLARE(input_output, , 0x0, 4,
 5518              		.loc 1 1291 3 is_stmt 0 view .LVU1520
 5519 0010 0269     		ldr	r2, [r0, #16]
1285:../Middlewares/stedgeai-lib/Npu/ll_aton/ll_sw_integer.c ****                        sw_info->general.input.mem.start_offset, sw_info->general.input.dim.num_elem
 5520              		.loc 1 1285 3 view .LVU1521
 5521 0012 0A93     		str	r3, [sp, #40]
 5522              		.loc 1 1291 3 view .LVU1522
 5523 0014 1292     		str	r2, [sp, #72]
 5524 0016 C268     		ldr	r2, [r0, #12]
1287:../Middlewares/stedgeai-lib/Npu/ll_aton/ll_sw_integer.c ****                        sw_info->general.output.mem.start_offset, sw_info->general.output.dim.num_el
 5525              		.loc 1 1287 3 view .LVU1523
 5526 0018 0E93     		str	r3, [sp, #56]
 5527              		.loc 1 1291 3 view .LVU1524
 5528 001a 1392     		str	r2, [sp, #76]
 5529 001c 8268     		ldr	r2, [r0, #8]
1287:../Middlewares/stedgeai-lib/Npu/ll_aton/ll_sw_integer.c ****                        sw_info->general.output.mem.start_offset, sw_info->general.output.dim.num_el
 5530              		.loc 1 1287 3 view .LVU1525
 5531 001e 036C     		ldr	r3, [r0, #64]
 5532              		.loc 1 1291 3 view .LVU1526
 5533 0020 1492     		str	r2, [sp, #80]
 5534 0022 4268     		ldr	r2, [r0, #4]
1287:../Middlewares/stedgeai-lib/Npu/ll_aton/ll_sw_integer.c ****                        sw_info->general.output.mem.start_offset, sw_info->general.output.dim.num_el
 5535              		.loc 1 1287 3 view .LVU1527
 5536 0024 0F93     		str	r3, [sp, #60]
 5537 0026 436D     		ldr	r3, [r0, #84]
 5538              		.loc 1 1291 3 view .LVU1528
 5539 0028 1592     		str	r2, [sp, #84]
 5540 002a 12AA     		add	r2, sp, #72
 5541 002c 4FF08274 		mov	r4, #17039360
 5542 0030 40F20141 		movw	r1, #1025
1287:../Middlewares/stedgeai-lib/Npu/ll_aton/ll_sw_integer.c ****                        sw_info->general.output.mem.start_offset, sw_info->general.output.dim.num_el
 5543              		.loc 1 1287 3 view .LVU1529
 5544 0034 CDE91033 		strd	r3, r3, [sp, #64]
 5545              		.loc 1 1291 3 is_stmt 1 view .LVU1530
ARM GAS  /tmp/ccZCp2co.s 			page 135


 5546 0038 2992     		str	r2, [sp, #164]
 5547 003a 0023     		movs	r3, #0
 5548 003c 40F20242 		movw	r2, #1026
 5549 0040 456A     		ldr	r5, [r0, #36]
 5550 0042 CDE92634 		strd	r3, r4, [sp, #152]
 5551 0046 1695     		str	r5, [sp, #88]
 5552 0048 056A     		ldr	r5, [r0, #32]
 5553 004a 2891     		str	r1, [sp, #160]
 5554 004c 2A92     		str	r2, [sp, #168]
 5555 004e 1795     		str	r5, [sp, #92]
 5556 0050 C569     		ldr	r5, [r0, #28]
1292:../Middlewares/stedgeai-lib/Npu/ll_aton/ll_sw_integer.c ****                         SHAPE_INIT(sw_info->general.input.dim.tensor_h, sw_info->general.input.dim.
1293:../Middlewares/stedgeai-lib/Npu/ll_aton/ll_sw_integer.c ****                                    sw_info->general.input.dim.tensor_c, sw_info->general.input.dim.
1294:../Middlewares/stedgeai-lib/Npu/ll_aton/ll_sw_integer.c ****                         STRIDE_INIT(sw_info->general.input.stride.h, sw_info->general.input.stride.
1295:../Middlewares/stedgeai-lib/Npu/ll_aton/ll_sw_integer.c ****                                     sw_info->general.input.stride.c, sw_info->general.input.stride.
1296:../Middlewares/stedgeai-lib/Npu/ll_aton/ll_sw_integer.c ****                         1, &input_output_array, NULL)
1297:../Middlewares/stedgeai-lib/Npu/ll_aton/ll_sw_integer.c ****   AI_TENSOR_OBJ_DECLARE(tile_output, , 0x0, 4,
 5557              		.loc 1 1297 3 is_stmt 0 view .LVU1531
 5558 0052 CDE92E41 		strd	r4, r1, [sp, #184]
 5559 0056 C16B     		ldr	r1, [r0, #60]
1298:../Middlewares/stedgeai-lib/Npu/ll_aton/ll_sw_integer.c ****                         SHAPE_INIT(sw_info->general.output.dim.tensor_h, sw_info->general.output.di
1299:../Middlewares/stedgeai-lib/Npu/ll_aton/ll_sw_integer.c ****                                    sw_info->general.output.dim.tensor_c, sw_info->general.output.di
1300:../Middlewares/stedgeai-lib/Npu/ll_aton/ll_sw_integer.c ****                         STRIDE_INIT(sw_info->general.output.stride.h, sw_info->general.output.strid
1301:../Middlewares/stedgeai-lib/Npu/ll_aton/ll_sw_integer.c ****                                     sw_info->general.output.stride.c, sw_info->general.output.strid
1302:../Middlewares/stedgeai-lib/Npu/ll_aton/ll_sw_integer.c ****                         1, &tile_output_array, NULL)
1303:../Middlewares/stedgeai-lib/Npu/ll_aton/ll_sw_integer.c **** 
1304:../Middlewares/stedgeai-lib/Npu/ll_aton/ll_sw_integer.c ****   // tensor chains init
1305:../Middlewares/stedgeai-lib/Npu/ll_aton/ll_sw_integer.c ****   AI_TENSOR_CHAIN_OBJ_DECLARE(tile_chain, , 4, AI_TENSOR_LIST_OBJ_INIT(AI_FLAG_NONE, 1, TENSORS(&in
 5560              		.loc 1 1305 3 view .LVU1532
 5561 0058 0124     		movs	r4, #1
1297:../Middlewares/stedgeai-lib/Npu/ll_aton/ll_sw_integer.c ****                         SHAPE_INIT(sw_info->general.output.dim.tensor_h, sw_info->general.output.di
 5562              		.loc 1 1297 3 view .LVU1533
 5563 005a 1A91     		str	r1, [sp, #104]
 5564 005c 816B     		ldr	r1, [r0, #56]
1291:../Middlewares/stedgeai-lib/Npu/ll_aton/ll_sw_integer.c ****                         SHAPE_INIT(sw_info->general.input.dim.tensor_h, sw_info->general.input.dim.
 5565              		.loc 1 1291 3 view .LVU1534
 5566 005e 1895     		str	r5, [sp, #96]
1297:../Middlewares/stedgeai-lib/Npu/ll_aton/ll_sw_integer.c ****                         SHAPE_INIT(sw_info->general.output.dim.tensor_h, sw_info->general.output.di
 5567              		.loc 1 1297 3 view .LVU1535
 5568 0060 1B91     		str	r1, [sp, #108]
 5569 0062 416B     		ldr	r1, [r0, #52]
1291:../Middlewares/stedgeai-lib/Npu/ll_aton/ll_sw_integer.c ****                         SHAPE_INIT(sw_info->general.input.dim.tensor_h, sw_info->general.input.dim.
 5570              		.loc 1 1291 3 view .LVU1536
 5571 0064 8569     		ldr	r5, [r0, #24]
1297:../Middlewares/stedgeai-lib/Npu/ll_aton/ll_sw_integer.c ****                         SHAPE_INIT(sw_info->general.output.dim.tensor_h, sw_info->general.output.di
 5572              		.loc 1 1297 3 view .LVU1537
 5573 0066 1C91     		str	r1, [sp, #112]
 5574 0068 016B     		ldr	r1, [r0, #48]
1291:../Middlewares/stedgeai-lib/Npu/ll_aton/ll_sw_integer.c ****                         SHAPE_INIT(sw_info->general.input.dim.tensor_h, sw_info->general.input.dim.
 5575              		.loc 1 1291 3 view .LVU1538
 5576 006a 1995     		str	r5, [sp, #100]
1297:../Middlewares/stedgeai-lib/Npu/ll_aton/ll_sw_integer.c ****                         SHAPE_INIT(sw_info->general.output.dim.tensor_h, sw_info->general.output.di
 5577              		.loc 1 1297 3 view .LVU1539
 5578 006c 1D91     		str	r1, [sp, #116]
 5579 006e 1AA9     		add	r1, sp, #104
 5580 0070 CDE93012 		strd	r1, r2, [sp, #192]
 5581 0074 026D     		ldr	r2, [r0, #80]
ARM GAS  /tmp/ccZCp2co.s 			page 136


1291:../Middlewares/stedgeai-lib/Npu/ll_aton/ll_sw_integer.c ****                         SHAPE_INIT(sw_info->general.input.dim.tensor_h, sw_info->general.input.dim.
 5582              		.loc 1 1291 3 view .LVU1540
 5583 0076 16AD     		add	r5, sp, #88
1297:../Middlewares/stedgeai-lib/Npu/ll_aton/ll_sw_integer.c ****                         SHAPE_INIT(sw_info->general.output.dim.tensor_h, sw_info->general.output.di
 5584              		.loc 1 1297 3 view .LVU1541
 5585 0078 1E92     		str	r2, [sp, #120]
 5586 007a C26C     		ldr	r2, [r0, #76]
1291:../Middlewares/stedgeai-lib/Npu/ll_aton/ll_sw_integer.c ****                         SHAPE_INIT(sw_info->general.input.dim.tensor_h, sw_info->general.input.dim.
 5587              		.loc 1 1291 3 view .LVU1542
 5588 007c 2B95     		str	r5, [sp, #172]
1297:../Middlewares/stedgeai-lib/Npu/ll_aton/ll_sw_integer.c ****                         SHAPE_INIT(sw_info->general.output.dim.tensor_h, sw_info->general.output.di
 5589              		.loc 1 1297 3 view .LVU1543
 5590 007e 1F92     		str	r2, [sp, #124]
 5591 0080 826C     		ldr	r2, [r0, #72]
1291:../Middlewares/stedgeai-lib/Npu/ll_aton/ll_sw_integer.c ****                         SHAPE_INIT(sw_info->general.input.dim.tensor_h, sw_info->general.input.dim.
 5592              		.loc 1 1291 3 view .LVU1544
 5593 0082 0AAD     		add	r5, sp, #40
1297:../Middlewares/stedgeai-lib/Npu/ll_aton/ll_sw_integer.c ****                         SHAPE_INIT(sw_info->general.output.dim.tensor_h, sw_info->general.output.di
 5594              		.loc 1 1297 3 view .LVU1545
 5595 0084 2092     		str	r2, [sp, #128]
 5596 0086 426C     		ldr	r2, [r0, #68]
 5597 0088 CDE92C53 		strd	r5, r3, [sp, #176]
 5598 008c 2192     		str	r2, [sp, #132]
 5599 008e 1EAA     		add	r2, sp, #120
 5600 0090 3292     		str	r2, [sp, #200]
 5601 0092 0EAA     		add	r2, sp, #56
 5602 0094 3392     		str	r2, [sp, #204]
 5603              		.loc 1 1305 3 is_stmt 1 view .LVU1546
 5604 0096 0422     		movs	r2, #4
 5605 0098 26AD     		add	r5, sp, #152
 5606 009a 0592     		str	r2, [sp, #20]
 5607 009c 6A44     		add	r2, sp, r2
 5608 009e 1560     		str	r5, [r2]
 5609 00a0 3C94     		str	r4, [sp, #240]
 5610 00a2 CDE93D23 		strd	r2, r3, [sp, #244]
 5611 00a6 02AA     		add	r2, sp, #8
 5612 00a8 CDE94023 		strd	r2, r3, [sp, #256]
 5613 00ac 03AA     		add	r2, sp, #12
 5614 00ae CDE94323 		strd	r2, r3, [sp, #268]
 5615 00b2 04AA     		add	r2, sp, #16
 5616 00b4 CDE94623 		strd	r2, r3, [sp, #280]
 5617 00b8 3CAA     		add	r2, sp, #240
 5618 00ba 0692     		str	r2, [sp, #24]
1306:../Middlewares/stedgeai-lib/Npu/ll_aton/ll_sw_integer.c ****                               AI_TENSOR_LIST_OBJ_INIT(AI_FLAG_NONE, 1, TENSORS(&tile_output)), AI_T
1307:../Middlewares/stedgeai-lib/Npu/ll_aton/ll_sw_integer.c ****                               AI_TENSOR_LIST_OBJ_EMPTY)
1308:../Middlewares/stedgeai-lib/Npu/ll_aton/ll_sw_integer.c **** 
1309:../Middlewares/stedgeai-lib/Npu/ll_aton/ll_sw_integer.c ****   AI_ARRAY_OBJ_DECLARE_STATIC(repeats, ai_i16, AI_ARRAY_FORMAT_S16, AI_CONST, 5, sw_info->repeats[2
 5619              		.loc 1 1309 3 view .LVU1547
 5620 00bc 0522     		movs	r2, #5
1305:../Middlewares/stedgeai-lib/Npu/ll_aton/ll_sw_integer.c ****                               AI_TENSOR_LIST_OBJ_INIT(AI_FLAG_NONE, 1, TENSORS(&tile_output)), AI_T
 5621              		.loc 1 1305 3 is_stmt 0 view .LVU1548
 5622 00be 2DAD     		add	r5, sp, #180
 5623 00c0 0295     		str	r5, [sp, #8]
 5624              		.loc 1 1309 3 view .LVU1549
 5625 00c2 154D     		ldr	r5, .L208+4
1310:../Middlewares/stedgeai-lib/Npu/ll_aton/ll_sw_integer.c ****                               sw_info->repeats[3], sw_info->repeats[1], sw_info->repeats[0], 1)
1311:../Middlewares/stedgeai-lib/Npu/ll_aton/ll_sw_integer.c **** 
ARM GAS  /tmp/ccZCp2co.s 			page 137


1312:../Middlewares/stedgeai-lib/Npu/ll_aton/ll_sw_integer.c ****   // TODO//layer initialization
1313:../Middlewares/stedgeai-lib/Npu/ll_aton/ll_sw_integer.c ****   AI_LAYER_OBJ_DECLARE(Tile_layer, 2, TILE_TYPE, 0x0, NULL, tile, forward_tile, &tile_chain, NULL, 
 5626              		.loc 1 1313 3 view .LVU1550
 5627 00c4 CDE93633 		strd	r3, r3, [sp, #216]
1309:../Middlewares/stedgeai-lib/Npu/ll_aton/ll_sw_integer.c ****                               sw_info->repeats[3], sw_info->repeats[1], sw_info->repeats[0], 1)
 5628              		.loc 1 1309 3 view .LVU1551
 5629 00c8 CDE92252 		strd	r5, r2, [sp, #136]
 5630 00cc 07AA     		add	r2, sp, #28
 5631 00ce CDE92423 		strd	r2, r3, [sp, #144]
 5632              		.loc 1 1313 3 is_stmt 1 view .LVU1552
1309:../Middlewares/stedgeai-lib/Npu/ll_aton/ll_sw_integer.c ****                               sw_info->repeats[3], sw_info->repeats[1], sw_info->repeats[0], 1)
 5633              		.loc 1 1309 3 is_stmt 0 view .LVU1553
 5634 00d2 056E     		ldr	r5, [r0, #96]
 5635              		.loc 1 1313 3 view .LVU1554
 5636 00d4 114A     		ldr	r2, .L208+8
1305:../Middlewares/stedgeai-lib/Npu/ll_aton/ll_sw_integer.c ****                               AI_TENSOR_LIST_OBJ_INIT(AI_FLAG_NONE, 1, TENSORS(&tile_output)), AI_T
 5637              		.loc 1 1305 3 view .LVU1555
 5638 00d6 4293     		str	r3, [sp, #264]
 5639              		.loc 1 1313 3 view .LVU1556
 5640 00d8 CDE93423 		strd	r2, r3, [sp, #208]
1305:../Middlewares/stedgeai-lib/Npu/ll_aton/ll_sw_integer.c ****                               AI_TENSOR_LIST_OBJ_INIT(AI_FLAG_NONE, 1, TENSORS(&tile_output)), AI_T
 5641              		.loc 1 1305 3 view .LVU1557
 5642 00dc 0393     		str	r3, [sp, #12]
 5643 00de 4593     		str	r3, [sp, #276]
 5644 00e0 0493     		str	r3, [sp, #16]
1309:../Middlewares/stedgeai-lib/Npu/ll_aton/ll_sw_integer.c ****                               sw_info->repeats[3], sw_info->repeats[1], sw_info->repeats[0], 1)
 5645              		.loc 1 1309 3 view .LVU1558
 5646 00e2 0795     		str	r5, [sp, #28]
 5647              		.loc 1 1313 3 view .LVU1559
 5648 00e4 3893     		str	r3, [sp, #224]
1309:../Middlewares/stedgeai-lib/Npu/ll_aton/ll_sw_integer.c ****                               sw_info->repeats[3], sw_info->repeats[1], sw_info->repeats[0], 1)
 5649              		.loc 1 1309 3 view .LVU1560
 5650 00e6 B0F85E50 		ldrh	r5, [r0, #94]
 5651              		.loc 1 1313 3 view .LVU1561
 5652 00ea 0D4B     		ldr	r3, .L208+12
1309:../Middlewares/stedgeai-lib/Npu/ll_aton/ll_sw_integer.c ****                               sw_info->repeats[3], sw_info->repeats[1], sw_info->repeats[0], 1)
 5653              		.loc 1 1309 3 view .LVU1562
 5654 00ec B0F85C00 		ldrh	r0, [r0, #92]
 5655              	.LVL297:
1305:../Middlewares/stedgeai-lib/Npu/ll_aton/ll_sw_integer.c ****                               AI_TENSOR_LIST_OBJ_INIT(AI_FLAG_NONE, 1, TENSORS(&tile_output)), AI_T
 5656              		.loc 1 1305 3 view .LVU1563
 5657 00f0 05A9     		add	r1, sp, #20
 5658              		.loc 1 1313 3 view .LVU1564
 5659 00f2 CDE93931 		strd	r3, r1, [sp, #228]
1309:../Middlewares/stedgeai-lib/Npu/ll_aton/ll_sw_integer.c ****                               sw_info->repeats[3], sw_info->repeats[1], sw_info->repeats[0], 1)
 5660              		.loc 1 1309 3 view .LVU1565
 5661 00f6 ADF82200 		strh	r0, [sp, #34]	@ movhi
 5662              		.loc 1 1313 3 view .LVU1566
 5663 00fa 22AB     		add	r3, sp, #136
1314:../Middlewares/stedgeai-lib/Npu/ll_aton/ll_sw_integer.c ****                        .repeats = AI_ARRAY_OBJ(&repeats))
1315:../Middlewares/stedgeai-lib/Npu/ll_aton/ll_sw_integer.c **** 
1316:../Middlewares/stedgeai-lib/Npu/ll_aton/ll_sw_integer.c ****   Tile_layer.forward(AI_LAYER_OBJ(&Tile_layer));
 5664              		.loc 1 1316 3 view .LVU1567
 5665 00fc 34A8     		add	r0, sp, #208
1305:../Middlewares/stedgeai-lib/Npu/ll_aton/ll_sw_integer.c ****                               AI_TENSOR_LIST_OBJ_INIT(AI_FLAG_NONE, 1, TENSORS(&tile_output)), AI_T
 5666              		.loc 1 1305 3 view .LVU1568
 5667 00fe 3F94     		str	r4, [sp, #252]
ARM GAS  /tmp/ccZCp2co.s 			page 138


1309:../Middlewares/stedgeai-lib/Npu/ll_aton/ll_sw_integer.c ****                               sw_info->repeats[3], sw_info->repeats[1], sw_info->repeats[0], 1)
 5668              		.loc 1 1309 3 view .LVU1569
 5669 0100 ADF82050 		strh	r5, [sp, #32]	@ movhi
 5670 0104 ADF82440 		strh	r4, [sp, #36]	@ movhi
1313:../Middlewares/stedgeai-lib/Npu/ll_aton/ll_sw_integer.c ****                        .repeats = AI_ARRAY_OBJ(&repeats))
 5671              		.loc 1 1313 3 view .LVU1570
 5672 0108 3B93     		str	r3, [sp, #236]
 5673              		.loc 1 1316 3 is_stmt 1 view .LVU1571
 5674 010a FFF7FEFF 		bl	forward_tile
 5675              	.LVL298:
1317:../Middlewares/stedgeai-lib/Npu/ll_aton/ll_sw_integer.c **** }
 5676              		.loc 1 1317 1 is_stmt 0 view .LVU1572
 5677 010e 49B0     		add	sp, sp, #292
 5678              		.cfi_def_cfa_offset 12
 5679              		@ sp needed
 5680 0110 30BD     		pop	{r4, r5, pc}
 5681              	.L209:
 5682 0112 00BF     		.align	2
 5683              	.L208:
 5684 0114 40048400 		.word	8651840
 5685 0118 40088400 		.word	8652864
 5686 011c 18010200 		.word	131352
 5687 0120 00000000 		.word	forward_tile
 5688              		.cfi_endproc
 5689              	.LFE29:
 5691              		.section	.text.ll_sw_forward_gather_integer,"ax",%progbits
 5692              		.align	1
 5693              		.global	ll_sw_forward_gather_integer
 5694              		.syntax unified
 5695              		.thumb
 5696              		.thumb_func
 5698              	ll_sw_forward_gather_integer:
 5699              	.LVL299:
 5700              	.LFB30:
1318:../Middlewares/stedgeai-lib/Npu/ll_aton/ll_sw_integer.c **** 
1319:../Middlewares/stedgeai-lib/Npu/ll_aton/ll_sw_integer.c **** //##########################################################################################
1320:../Middlewares/stedgeai-lib/Npu/ll_aton/ll_sw_integer.c **** /** Gather forward function  */
1321:../Middlewares/stedgeai-lib/Npu/ll_aton/ll_sw_integer.c **** void ll_sw_forward_gather_integer(Gather_integer_sw_info *sw_info)
1322:../Middlewares/stedgeai-lib/Npu/ll_aton/ll_sw_integer.c **** {
 5701              		.loc 1 1322 1 is_stmt 1 view -0
 5702              		.cfi_startproc
 5703              		@ args = 0, pretend = 0, frame = 344
 5704              		@ frame_needed = 0, uses_anonymous_args = 0
1323:../Middlewares/stedgeai-lib/Npu/ll_aton/ll_sw_integer.c ****   AI_ARRAY_OBJ_DECLARE(input_output_array, AI_ARRAY_FORMAT_S8, sw_info->general.input.mem.start_off
 5705              		.loc 1 1323 3 view .LVU1574
1322:../Middlewares/stedgeai-lib/Npu/ll_aton/ll_sw_integer.c ****   AI_ARRAY_OBJ_DECLARE(input_output_array, AI_ARRAY_FORMAT_S8, sw_info->general.input.mem.start_off
 5706              		.loc 1 1322 1 is_stmt 0 view .LVU1575
 5707 0000 F0B5     		push	{r4, r5, r6, r7, lr}
 5708              		.cfi_def_cfa_offset 20
 5709              		.cfi_offset 4, -20
 5710              		.cfi_offset 5, -16
 5711              		.cfi_offset 6, -12
 5712              		.cfi_offset 7, -8
 5713              		.cfi_offset 14, -4
 5714 0002 0446     		mov	r4, r0
 5715              		.loc 1 1323 3 view .LVU1576
 5716 0004 5049     		ldr	r1, .L213
ARM GAS  /tmp/ccZCp2co.s 			page 139


1322:../Middlewares/stedgeai-lib/Npu/ll_aton/ll_sw_integer.c ****   AI_ARRAY_OBJ_DECLARE(input_output_array, AI_ARRAY_FORMAT_S8, sw_info->general.input.mem.start_off
 5717              		.loc 1 1322 1 view .LVU1577
 5718 0006 D7B0     		sub	sp, sp, #348
 5719              		.cfi_def_cfa_offset 368
 5720              		.loc 1 1323 3 view .LVU1578
 5721 0008 0891     		str	r1, [sp, #32]
1324:../Middlewares/stedgeai-lib/Npu/ll_aton/ll_sw_integer.c ****                        sw_info->general.input.mem.start_offset, sw_info->general.input.dim.num_elem
1325:../Middlewares/stedgeai-lib/Npu/ll_aton/ll_sw_integer.c ****   AI_ARRAY_OBJ_DECLARE(indexes_array, AI_ARRAY_FORMAT_S32, sw_info->operand.mem.start_offset,
1326:../Middlewares/stedgeai-lib/Npu/ll_aton/ll_sw_integer.c ****                        sw_info->operand.mem.start_offset, sw_info->operand.dim.num_elem, )
1327:../Middlewares/stedgeai-lib/Npu/ll_aton/ll_sw_integer.c ****   AI_ARRAY_OBJ_DECLARE(gather_output_array, AI_ARRAY_FORMAT_S8, sw_info->general.output.mem.start_o
 5722              		.loc 1 1327 3 view .LVU1579
 5723 000a 1091     		str	r1, [sp, #64]
 5724 000c 216C     		ldr	r1, [r4, #64]
1328:../Middlewares/stedgeai-lib/Npu/ll_aton/ll_sw_integer.c ****                        sw_info->general.output.mem.start_offset, sw_info->general.output.dim.num_el
1329:../Middlewares/stedgeai-lib/Npu/ll_aton/ll_sw_integer.c ****   // tensor init
1330:../Middlewares/stedgeai-lib/Npu/ll_aton/ll_sw_integer.c ****   AI_TENSOR_OBJ_DECLARE(input_output, , 0x0, 4,
 5725              		.loc 1 1330 3 view .LVU1580
 5726 000e 4FF0827C 		mov	ip, #17039360
1327:../Middlewares/stedgeai-lib/Npu/ll_aton/ll_sw_integer.c ****                        sw_info->general.output.mem.start_offset, sw_info->general.output.dim.num_el
 5727              		.loc 1 1327 3 view .LVU1581
 5728 0012 1191     		str	r1, [sp, #68]
 5729 0014 616D     		ldr	r1, [r4, #84]
 5730              		.loc 1 1330 3 view .LVU1582
 5731 0016 40F20146 		movw	r6, #1025
1327:../Middlewares/stedgeai-lib/Npu/ll_aton/ll_sw_integer.c ****                        sw_info->general.output.mem.start_offset, sw_info->general.output.dim.num_el
 5732              		.loc 1 1327 3 view .LVU1583
 5733 001a CDE91211 		strd	r1, r1, [sp, #72]
 5734              		.loc 1 1330 3 view .LVU1584
 5735 001e 0021     		movs	r1, #0
 5736 0020 2769     		ldr	r7, [r4, #16]
1323:../Middlewares/stedgeai-lib/Npu/ll_aton/ll_sw_integer.c ****                        sw_info->general.input.mem.start_offset, sw_info->general.input.dim.num_elem
 5737              		.loc 1 1323 3 view .LVU1585
 5738 0022 6369     		ldr	r3, [r4, #20]
 5739              		.loc 1 1330 3 view .LVU1586
 5740 0024 1497     		str	r7, [sp, #80]
 5741 0026 E768     		ldr	r7, [r4, #12]
1323:../Middlewares/stedgeai-lib/Npu/ll_aton/ll_sw_integer.c ****                        sw_info->general.input.mem.start_offset, sw_info->general.input.dim.num_elem
 5742              		.loc 1 1323 3 view .LVU1587
 5743 0028 0993     		str	r3, [sp, #36]
 5744              		.loc 1 1330 3 view .LVU1588
 5745 002a 1597     		str	r7, [sp, #84]
 5746 002c A768     		ldr	r7, [r4, #8]
1323:../Middlewares/stedgeai-lib/Npu/ll_aton/ll_sw_integer.c ****                        sw_info->general.input.mem.start_offset, sw_info->general.input.dim.num_elem
 5747              		.loc 1 1323 3 view .LVU1589
 5748 002e A36A     		ldr	r3, [r4, #40]
 5749              		.loc 1 1330 3 view .LVU1590
 5750 0030 1697     		str	r7, [sp, #88]
 5751 0032 6768     		ldr	r7, [r4, #4]
1323:../Middlewares/stedgeai-lib/Npu/ll_aton/ll_sw_integer.c ****                        sw_info->general.input.mem.start_offset, sw_info->general.input.dim.num_elem
 5752              		.loc 1 1323 3 view .LVU1591
 5753 0034 CDE90A33 		strd	r3, r3, [sp, #40]
1325:../Middlewares/stedgeai-lib/Npu/ll_aton/ll_sw_integer.c ****                        sw_info->operand.mem.start_offset, sw_info->operand.dim.num_elem, )
 5754              		.loc 1 1325 3 is_stmt 1 view .LVU1592
 5755              		.loc 1 1330 3 is_stmt 0 view .LVU1593
 5756 0038 1797     		str	r7, [sp, #92]
 5757 003a 40F20247 		movw	r7, #1026
1325:../Middlewares/stedgeai-lib/Npu/ll_aton/ll_sw_integer.c ****                        sw_info->operand.mem.start_offset, sw_info->operand.dim.num_elem, )
ARM GAS  /tmp/ccZCp2co.s 			page 140


 5758              		.loc 1 1325 3 view .LVU1594
 5759 003e 434B     		ldr	r3, .L213+4
 5760              		.loc 1 1330 3 view .LVU1595
 5761 0040 14AD     		add	r5, sp, #80
1325:../Middlewares/stedgeai-lib/Npu/ll_aton/ll_sw_integer.c ****                        sw_info->operand.mem.start_offset, sw_info->operand.dim.num_elem, )
 5762              		.loc 1 1325 3 view .LVU1596
 5763 0042 0C93     		str	r3, [sp, #48]
 5764 0044 E36E     		ldr	r3, [r4, #108]
 5765              		.loc 1 1330 3 view .LVU1597
 5766 0046 CDE92C1C 		strd	r1, ip, [sp, #176]
1325:../Middlewares/stedgeai-lib/Npu/ll_aton/ll_sw_integer.c ****                        sw_info->operand.mem.start_offset, sw_info->operand.dim.num_elem, )
 5767              		.loc 1 1325 3 view .LVU1598
 5768 004a 0D93     		str	r3, [sp, #52]
 5769 004c D4F88030 		ldr	r3, [r4, #128]
 5770              		.loc 1 1330 3 view .LVU1599
 5771 0050 2E96     		str	r6, [sp, #184]
1325:../Middlewares/stedgeai-lib/Npu/ll_aton/ll_sw_integer.c ****                        sw_info->operand.mem.start_offset, sw_info->operand.dim.num_elem, )
 5772              		.loc 1 1325 3 view .LVU1600
 5773 0052 CDE90E33 		strd	r3, r3, [sp, #56]
1327:../Middlewares/stedgeai-lib/Npu/ll_aton/ll_sw_integer.c ****                        sw_info->general.output.mem.start_offset, sw_info->general.output.dim.num_el
 5774              		.loc 1 1327 3 is_stmt 1 view .LVU1601
 5775              		.loc 1 1330 3 view .LVU1602
 5776 0056 2F95     		str	r5, [sp, #188]
 5777 0058 656A     		ldr	r5, [r4, #36]
1323:../Middlewares/stedgeai-lib/Npu/ll_aton/ll_sw_integer.c ****                        sw_info->general.input.mem.start_offset, sw_info->general.input.dim.num_elem
 5778              		.loc 1 1323 3 is_stmt 0 view .LVU1603
 5779 005a 08A8     		add	r0, sp, #32
 5780              	.LVL300:
 5781              		.loc 1 1330 3 view .LVU1604
 5782 005c 1895     		str	r5, [sp, #96]
 5783 005e 256A     		ldr	r5, [r4, #32]
1325:../Middlewares/stedgeai-lib/Npu/ll_aton/ll_sw_integer.c ****                        sw_info->operand.mem.start_offset, sw_info->operand.dim.num_elem, )
 5784              		.loc 1 1325 3 view .LVU1605
 5785 0060 0CAA     		add	r2, sp, #48
 5786              		.loc 1 1330 3 view .LVU1606
 5787 0062 1995     		str	r5, [sp, #100]
 5788 0064 E569     		ldr	r5, [r4, #28]
1331:../Middlewares/stedgeai-lib/Npu/ll_aton/ll_sw_integer.c ****                         SHAPE_INIT(sw_info->general.input.dim.tensor_h, sw_info->general.input.dim.
1332:../Middlewares/stedgeai-lib/Npu/ll_aton/ll_sw_integer.c ****                                    sw_info->general.input.dim.tensor_c, sw_info->general.input.dim.
1333:../Middlewares/stedgeai-lib/Npu/ll_aton/ll_sw_integer.c ****                         STRIDE_INIT(sw_info->general.input.stride.h, sw_info->general.input.stride.
1334:../Middlewares/stedgeai-lib/Npu/ll_aton/ll_sw_integer.c ****                                     sw_info->general.input.stride.c, sw_info->general.input.stride.
1335:../Middlewares/stedgeai-lib/Npu/ll_aton/ll_sw_integer.c ****                         1, &input_output_array, NULL)
1336:../Middlewares/stedgeai-lib/Npu/ll_aton/ll_sw_integer.c ****   AI_TENSOR_OBJ_DECLARE(indexes, , 0x0, 4,
 5789              		.loc 1 1336 3 view .LVU1607
 5790 0066 CDE9331C 		strd	r1, ip, [sp, #204]
1330:../Middlewares/stedgeai-lib/Npu/ll_aton/ll_sw_integer.c ****                         SHAPE_INIT(sw_info->general.input.dim.tensor_h, sw_info->general.input.dim.
 5791              		.loc 1 1330 3 view .LVU1608
 5792 006a 1A95     		str	r5, [sp, #104]
 5793 006c A569     		ldr	r5, [r4, #24]
 5794 006e 3097     		str	r7, [sp, #192]
 5795 0070 1B95     		str	r5, [sp, #108]
 5796 0072 18AD     		add	r5, sp, #96
 5797 0074 CDE93150 		strd	r5, r0, [sp, #196]
 5798              		.loc 1 1336 3 is_stmt 1 view .LVU1609
 5799 0078 A06E     		ldr	r0, [r4, #104]
 5800 007a 3596     		str	r6, [sp, #212]
 5801 007c 1C90     		str	r0, [sp, #112]
ARM GAS  /tmp/ccZCp2co.s 			page 141


 5802 007e 606E     		ldr	r0, [r4, #100]
1327:../Middlewares/stedgeai-lib/Npu/ll_aton/ll_sw_integer.c ****                        sw_info->general.output.mem.start_offset, sw_info->general.output.dim.num_el
 5803              		.loc 1 1327 3 is_stmt 0 view .LVU1610
 5804 0080 10AB     		add	r3, sp, #64
 5805              		.loc 1 1336 3 view .LVU1611
 5806 0082 1D90     		str	r0, [sp, #116]
 5807 0084 206E     		ldr	r0, [r4, #96]
1337:../Middlewares/stedgeai-lib/Npu/ll_aton/ll_sw_integer.c ****                         SHAPE_INIT(sw_info->operand.dim.tensor_h, sw_info->operand.dim.tensor_w,
1338:../Middlewares/stedgeai-lib/Npu/ll_aton/ll_sw_integer.c ****                                    sw_info->operand.dim.tensor_c, sw_info->operand.dim.tensor_b),
1339:../Middlewares/stedgeai-lib/Npu/ll_aton/ll_sw_integer.c ****                         STRIDE_INIT(sw_info->operand.stride.h, sw_info->operand.stride.w, sw_info->
1340:../Middlewares/stedgeai-lib/Npu/ll_aton/ll_sw_integer.c ****                                     sw_info->operand.stride.b),
1341:../Middlewares/stedgeai-lib/Npu/ll_aton/ll_sw_integer.c ****                         1, &indexes_array, NULL)
1342:../Middlewares/stedgeai-lib/Npu/ll_aton/ll_sw_integer.c ****   AI_TENSOR_OBJ_DECLARE(gather_output, , 0x0, 4,
1343:../Middlewares/stedgeai-lib/Npu/ll_aton/ll_sw_integer.c ****                         SHAPE_INIT(sw_info->general.output.dim.tensor_h, sw_info->general.output.di
1344:../Middlewares/stedgeai-lib/Npu/ll_aton/ll_sw_integer.c ****                                    sw_info->general.output.dim.tensor_c, sw_info->general.output.di
1345:../Middlewares/stedgeai-lib/Npu/ll_aton/ll_sw_integer.c ****                         STRIDE_INIT(sw_info->general.output.stride.h, sw_info->general.output.strid
1346:../Middlewares/stedgeai-lib/Npu/ll_aton/ll_sw_integer.c ****                                     sw_info->general.output.stride.c, sw_info->general.output.strid
1347:../Middlewares/stedgeai-lib/Npu/ll_aton/ll_sw_integer.c ****                         1, &gather_output_array, NULL)
1348:../Middlewares/stedgeai-lib/Npu/ll_aton/ll_sw_integer.c ****   // tensor chain initialization
1349:../Middlewares/stedgeai-lib/Npu/ll_aton/ll_sw_integer.c ****   AI_TENSOR_CHAIN_OBJ_DECLARE(gather_chain, , 4,
 5808              		.loc 1 1349 3 view .LVU1612
 5809 0086 04AD     		add	r5, sp, #16
1336:../Middlewares/stedgeai-lib/Npu/ll_aton/ll_sw_integer.c ****                         SHAPE_INIT(sw_info->operand.dim.tensor_h, sw_info->operand.dim.tensor_w,
 5810              		.loc 1 1336 3 view .LVU1613
 5811 0088 1E90     		str	r0, [sp, #120]
 5812 008a E06D     		ldr	r0, [r4, #92]
 5813 008c 1F90     		str	r0, [sp, #124]
 5814 008e 1CA8     		add	r0, sp, #112
 5815 0090 CDE93607 		strd	r0, r7, [sp, #216]
 5816 0094 E06F     		ldr	r0, [r4, #124]
 5817 0096 2090     		str	r0, [sp, #128]
 5818 0098 A06F     		ldr	r0, [r4, #120]
 5819 009a 2190     		str	r0, [sp, #132]
 5820 009c 606F     		ldr	r0, [r4, #116]
 5821 009e 2290     		str	r0, [sp, #136]
 5822 00a0 206F     		ldr	r0, [r4, #112]
 5823 00a2 2390     		str	r0, [sp, #140]
 5824 00a4 20A8     		add	r0, sp, #128
 5825 00a6 CDE93802 		strd	r0, r2, [sp, #224]
1342:../Middlewares/stedgeai-lib/Npu/ll_aton/ll_sw_integer.c ****                         SHAPE_INIT(sw_info->general.output.dim.tensor_h, sw_info->general.output.di
 5826              		.loc 1 1342 3 is_stmt 1 view .LVU1614
 5827 00aa E26B     		ldr	r2, [r4, #60]
 5828 00ac CDE93A1C 		strd	r1, ip, [sp, #232]
 5829 00b0 2492     		str	r2, [sp, #144]
 5830 00b2 A26B     		ldr	r2, [r4, #56]
 5831 00b4 3C96     		str	r6, [sp, #240]
 5832 00b6 2592     		str	r2, [sp, #148]
 5833 00b8 626B     		ldr	r2, [r4, #52]
1350:../Middlewares/stedgeai-lib/Npu/ll_aton/ll_sw_integer.c ****                               AI_TENSOR_LIST_OBJ_INIT(AI_FLAG_NONE, 2, TENSORS(&input_output), TENS
1351:../Middlewares/stedgeai-lib/Npu/ll_aton/ll_sw_integer.c ****                               AI_TENSOR_LIST_OBJ_INIT(AI_FLAG_NONE, 1, TENSORS(&gather_output)),
1352:../Middlewares/stedgeai-lib/Npu/ll_aton/ll_sw_integer.c ****                               AI_TENSOR_LIST_OBJ_EMPTY, AI_TENSOR_LIST_OBJ_EMPTY)
1353:../Middlewares/stedgeai-lib/Npu/ll_aton/ll_sw_integer.c ****   // LL_ATON_PRINTF("axis %d \n", sw_info->axis);
1354:../Middlewares/stedgeai-lib/Npu/ll_aton/ll_sw_integer.c ****   // LL_ATON_PRINTF("index %d \n", *(int32_t *)(sw_info->operand.mem.start_offset));
1355:../Middlewares/stedgeai-lib/Npu/ll_aton/ll_sw_integer.c ****   // LL_ATON_FFLUSH(stdout);
1356:../Middlewares/stedgeai-lib/Npu/ll_aton/ll_sw_integer.c ****   AI_LAYER_OBJ_DECLARE(gather_layer, 1, GATHER_TYPE, 0x0, NULL, gather, forward_gather, &gather_cha
 5834              		.loc 1 1356 3 is_stmt 0 view .LVU1615
 5835 00ba 42A8     		add	r0, sp, #264
ARM GAS  /tmp/ccZCp2co.s 			page 142


1342:../Middlewares/stedgeai-lib/Npu/ll_aton/ll_sw_integer.c ****                         SHAPE_INIT(sw_info->general.output.dim.tensor_h, sw_info->general.output.di
 5836              		.loc 1 1342 3 view .LVU1616
 5837 00bc 2692     		str	r2, [sp, #152]
 5838 00be 226B     		ldr	r2, [r4, #48]
 5839 00c0 2792     		str	r2, [sp, #156]
 5840 00c2 24AA     		add	r2, sp, #144
 5841 00c4 CDE93D27 		strd	r2, r7, [sp, #244]
 5842 00c8 226D     		ldr	r2, [r4, #80]
 5843 00ca 2892     		str	r2, [sp, #160]
 5844 00cc E26C     		ldr	r2, [r4, #76]
 5845 00ce 2992     		str	r2, [sp, #164]
 5846 00d0 A26C     		ldr	r2, [r4, #72]
 5847 00d2 2A92     		str	r2, [sp, #168]
 5848 00d4 626C     		ldr	r2, [r4, #68]
 5849 00d6 2B92     		str	r2, [sp, #172]
 5850 00d8 28AA     		add	r2, sp, #160
 5851 00da CDE93F23 		strd	r2, r3, [sp, #252]
1349:../Middlewares/stedgeai-lib/Npu/ll_aton/ll_sw_integer.c ****                               AI_TENSOR_LIST_OBJ_INIT(AI_FLAG_NONE, 2, TENSORS(&input_output), TENS
 5852              		.loc 1 1349 3 is_stmt 1 view .LVU1617
 5853 00de 0423     		movs	r3, #4
 5854 00e0 0493     		str	r3, [sp, #16]
 5855 00e2 0223     		movs	r3, #2
 5856 00e4 4A93     		str	r3, [sp, #296]
 5857 00e6 06AB     		add	r3, sp, #24
 5858 00e8 CDE94B31 		strd	r3, r1, [sp, #300]
 5859 00ec 0123     		movs	r3, #1
 5860 00ee 2CAA     		add	r2, sp, #176
 5861 00f0 0692     		str	r2, [sp, #24]
 5862 00f2 33AA     		add	r2, sp, #204
 5863 00f4 0792     		str	r2, [sp, #28]
 5864 00f6 4D93     		str	r3, [sp, #308]
 5865 00f8 3AAA     		add	r2, sp, #232
 5866 00fa 01AB     		add	r3, sp, #4
 5867 00fc 0192     		str	r2, [sp, #4]
 5868 00fe CDE94E31 		strd	r3, r1, [sp, #312]
 5869 0102 02AB     		add	r3, sp, #8
 5870 0104 CDE95131 		strd	r3, r1, [sp, #324]
 5871 0108 03AB     		add	r3, sp, #12
 5872 010a CDE95431 		strd	r3, r1, [sp, #336]
 5873 010e 4AAB     		add	r3, sp, #296
 5874 0110 0593     		str	r3, [sp, #20]
 5875              		.loc 1 1356 3 view .LVU1618
 5876 0112 0F4B     		ldr	r3, .L213+8
 5877 0114 2022     		movs	r2, #32
1349:../Middlewares/stedgeai-lib/Npu/ll_aton/ll_sw_integer.c ****                               AI_TENSOR_LIST_OBJ_INIT(AI_FLAG_NONE, 2, TENSORS(&input_output), TENS
 5878              		.loc 1 1349 3 is_stmt 0 view .LVU1619
 5879 0116 5091     		str	r1, [sp, #320]
 5880 0118 0291     		str	r1, [sp, #8]
 5881 011a 5391     		str	r1, [sp, #332]
 5882 011c 0391     		str	r1, [sp, #12]
 5883              		.loc 1 1356 3 view .LVU1620
 5884 011e 4193     		str	r3, [sp, #260]
 5885 0120 FFF7FEFF 		bl	memset
 5886              	.LVL301:
 5887 0124 0B4B     		ldr	r3, .L213+12
1357:../Middlewares/stedgeai-lib/Npu/ll_aton/ll_sw_integer.c ****                        .axis = helper_emit_shape_index_axis(sw_info->axis), )
1358:../Middlewares/stedgeai-lib/Npu/ll_aton/ll_sw_integer.c ****   gather_layer.forward(AI_LAYER_OBJ(&gather_layer));
ARM GAS  /tmp/ccZCp2co.s 			page 143


 5888              		.loc 1 1358 3 view .LVU1621
 5889 0126 41A8     		add	r0, sp, #260
1356:../Middlewares/stedgeai-lib/Npu/ll_aton/ll_sw_integer.c ****                        .axis = helper_emit_shape_index_axis(sw_info->axis), )
 5890              		.loc 1 1356 3 view .LVU1622
 5891 0128 CDE94635 		strd	r3, r5, [sp, #280]
 5892              	.LVL302:
 5893              	.LBB44:
 5894              	.LBI44:
  45:../Middlewares/stedgeai-lib/Npu/ll_aton/ll_sw_integer.c **** {
 5895              		.loc 1 45 12 is_stmt 1 view .LVU1623
  47:../Middlewares/stedgeai-lib/Npu/ll_aton/ll_sw_integer.c ****   {
 5896              		.loc 1 47 3 view .LVU1624
 5897 012c D4F88830 		ldr	r3, [r4, #136]
 5898 0130 032B     		cmp	r3, #3
 5899              	.LBE44:
1356:../Middlewares/stedgeai-lib/Npu/ll_aton/ll_sw_integer.c ****                        .axis = helper_emit_shape_index_axis(sw_info->axis), )
 5900              		.loc 1 1356 3 is_stmt 0 view .LVU1625
 5901 0132 8EBF     		itee	hi
 5902 0134 4FF0FF33 		movhi	r3, #-1
 5903              	.LVL303:
1356:../Middlewares/stedgeai-lib/Npu/ll_aton/ll_sw_integer.c ****                        .axis = helper_emit_shape_index_axis(sw_info->axis), )
 5904              		.loc 1 1356 3 view .LVU1626
 5905 0138 074A     		ldrls	r2, .L213+16
 5906 013a D356     		ldrsbls	r3, [r2, r3]
1356:../Middlewares/stedgeai-lib/Npu/ll_aton/ll_sw_integer.c ****                        .axis = helper_emit_shape_index_axis(sw_info->axis), )
 5907              		.loc 1 1356 3 discriminator 1 view .LVU1627
 5908 013c ADF82031 		strh	r3, [sp, #288]	@ movhi
 5909              		.loc 1 1358 3 is_stmt 1 view .LVU1628
 5910 0140 FFF7FEFF 		bl	forward_gather
 5911              	.LVL304:
1359:../Middlewares/stedgeai-lib/Npu/ll_aton/ll_sw_integer.c **** }
 5912              		.loc 1 1359 1 is_stmt 0 view .LVU1629
 5913 0144 57B0     		add	sp, sp, #348
 5914              		.cfi_def_cfa_offset 20
 5915              		@ sp needed
 5916 0146 F0BD     		pop	{r4, r5, r6, r7, pc}
 5917              	.LVL305:
 5918              	.L214:
 5919              		.loc 1 1359 1 view .LVU1630
 5920              		.align	2
 5921              	.L213:
 5922 0148 40048400 		.word	8651840
 5923 014c 40108400 		.word	8654912
 5924 0150 1C010100 		.word	65820
 5925 0154 00000000 		.word	forward_gather
 5926 0158 00000000 		.word	CSWTCH.61
 5927              		.cfi_endproc
 5928              	.LFE30:
 5930              		.section	.rodata.CSWTCH.61,"a"
 5933              	CSWTCH.61:
 5934 0000 00       		.byte	0
 5935 0001 01       		.byte	1
 5936 0002 03       		.byte	3
 5937 0003 02       		.byte	2
 5938              		.text
 5939              	.Letext0:
 5940              		.file 2 "/opt/st/stm32cubeclt_1.21.0/GNU-tools-for-STM32/arm-none-eabi/include/machine/_default_ty
ARM GAS  /tmp/ccZCp2co.s 			page 144


 5941              		.file 3 "/opt/st/stm32cubeclt_1.21.0/GNU-tools-for-STM32/arm-none-eabi/include/sys/_stdint.h"
 5942              		.file 4 "../Middlewares/stedgeai-lib/Npu/ll_aton/ll_sw.h"
 5943              		.file 5 "../Middlewares/stedgeai-lib/Inc/ai_platform.h"
 5944              		.file 6 "../Middlewares/stedgeai-lib/Inc/datatypes_network.h"
 5945              		.file 7 "../Middlewares/stedgeai-lib/Inc/ai_datatypes_format.h"
 5946              		.file 8 "../Middlewares/stedgeai-lib/Inc/ai_platform_interface.h"
 5947              		.file 9 "../Middlewares/stedgeai-lib/Inc/core_common.h"
 5948              		.file 10 "../Middlewares/stedgeai-lib/Inc/core_datatypes.h"
 5949              		.file 11 "../Middlewares/stedgeai-lib/Inc/layers_common.h"
 5950              		.file 12 "../Middlewares/stedgeai-lib/Inc/layers_nl.h"
 5951              		.file 13 "../Middlewares/stedgeai-lib/Inc/layers_pool.h"
 5952              		.file 14 "../Middlewares/stedgeai-lib/Inc/layers_conv2d.h"
 5953              		.file 15 "../Middlewares/stedgeai-lib/Inc/layers_generic.h"
 5954              		.file 16 "../Middlewares/stedgeai-lib/Inc/layers_argminmax.h"
 5955              		.file 17 "../Middlewares/stedgeai-lib/Inc/layers_upsample_generic.h"
 5956              		.file 18 "../Middlewares/stedgeai-lib/Inc/layers_resize.h"
 5957              		.file 19 "../Middlewares/stedgeai-lib/Inc/ai_math_helpers.h"
 5958              		.file 20 "../Middlewares/stedgeai-lib/Inc/core_convert.h"
 5959              		.file 21 "../Middlewares/stedgeai-lib/Inc/layers_dense.h"
 5960              		.file 22 "/opt/st/stm32cubeclt_1.21.0/GNU-tools-for-STM32/arm-none-eabi/include/string.h"
 5961              		.file 23 "<built-in>"
ARM GAS  /tmp/ccZCp2co.s 			page 145


DEFINED SYMBOLS
                            *ABS*:00000000 ll_sw_integer.c
     /tmp/ccZCp2co.s:26     .text.ll_sw_forward_qlinearmatmul:00000000 $t
     /tmp/ccZCp2co.s:32     .text.ll_sw_forward_qlinearmatmul:00000000 ll_sw_forward_qlinearmatmul
     /tmp/ccZCp2co.s:500    .text.ll_sw_forward_qlinearmatmul:000002f8 $d
     /tmp/ccZCp2co.s:510    .text.ll_sw_forward_qlinearmatmul:00000314 $t
     /tmp/ccZCp2co.s:520    .text.ll_sw_forward_qlinearmatmul:00000320 $d
     /tmp/ccZCp2co.s:526    .text.ll_sw_forward_gemm_integer:00000000 $t
     /tmp/ccZCp2co.s:532    .text.ll_sw_forward_gemm_integer:00000000 ll_sw_forward_gemm_integer
     /tmp/ccZCp2co.s:1006   .text.ll_sw_forward_gemm_integer:000002c8 $d
     /tmp/ccZCp2co.s:1017   .text.ll_sw_forward_quantizelinear:00000000 $t
     /tmp/ccZCp2co.s:1023   .text.ll_sw_forward_quantizelinear:00000000 ll_sw_forward_quantizelinear
     /tmp/ccZCp2co.s:1232   .text.ll_sw_forward_quantizelinear:00000124 $d
     /tmp/ccZCp2co.s:1241   .text.ll_sw_forward_dequantizelinear:00000000 $t
     /tmp/ccZCp2co.s:1247   .text.ll_sw_forward_dequantizelinear:00000000 ll_sw_forward_dequantizelinear
     /tmp/ccZCp2co.s:1456   .text.ll_sw_forward_dequantizelinear:00000124 $d
     /tmp/ccZCp2co.s:1465   .text.ll_sw_forward_requantizelinear:00000000 $t
     /tmp/ccZCp2co.s:1471   .text.ll_sw_forward_requantizelinear:00000000 ll_sw_forward_requantizelinear
     /tmp/ccZCp2co.s:1729   .text.ll_sw_forward_requantizelinear:00000160 $d
     /tmp/ccZCp2co.s:1737   .text.ll_sw_forward_conv_integer:00000000 $t
     /tmp/ccZCp2co.s:1743   .text.ll_sw_forward_conv_integer:00000000 ll_sw_forward_conv_integer
     /tmp/ccZCp2co.s:2175   .text.ll_sw_forward_conv_integer:000002a2 $d
     /tmp/ccZCp2co.s:2181   .text.ll_sw_forward_conv_integer:000002ae $t
     /tmp/ccZCp2co.s:2204   .text.ll_sw_forward_conv_integer:000002c0 $d
     /tmp/ccZCp2co.s:2213   .text.ll_sw_forward_conv_integer:000002d4 $t
     /tmp/ccZCp2co.s:2490   .text.ll_sw_forward_conv_integer:00000504 $d
     /tmp/ccZCp2co.s:2501   .text.ll_sw_forward_eltwise_integer:00000000 $t
     /tmp/ccZCp2co.s:2507   .text.ll_sw_forward_eltwise_integer:00000000 ll_sw_forward_eltwise_integer
     /tmp/ccZCp2co.s:2833   .text.ll_sw_forward_eltwise_integer:000001da $d
     /tmp/ccZCp2co.s:2837   .text.ll_sw_forward_eltwise_integer:000001de $t
     /tmp/ccZCp2co.s:2957   .text.ll_sw_forward_eltwise_integer:00000278 $d
     /tmp/ccZCp2co.s:2978   .text.ll_sw_forward_pool_integer:00000000 $t
     /tmp/ccZCp2co.s:2984   .text.ll_sw_forward_pool_integer:00000000 ll_sw_forward_pool_integer
     /tmp/ccZCp2co.s:3317   .text.ll_sw_forward_pool_integer:000001fc $d
     /tmp/ccZCp2co.s:3326   .text.ll_sw_forward_global_pool_integer:00000000 $t
     /tmp/ccZCp2co.s:3332   .text.ll_sw_forward_global_pool_integer:00000000 ll_sw_forward_global_pool_integer
     /tmp/ccZCp2co.s:3653   .text.ll_sw_forward_global_pool_integer:000001c4 $d
     /tmp/ccZCp2co.s:3662   .text.ll_sw_forward_softmax_integer:00000000 $t
     /tmp/ccZCp2co.s:3668   .text.ll_sw_forward_softmax_integer:00000000 ll_sw_forward_softmax_integer
     /tmp/ccZCp2co.s:4020   .text.ll_sw_forward_softmax_integer:000001f0 $d
     /tmp/ccZCp2co.s:5933   .rodata.CSWTCH.61:00000000 CSWTCH.61
     /tmp/ccZCp2co.s:4030   .text.ll_sw_forward_activ_integer:00000000 $t
     /tmp/ccZCp2co.s:4036   .text.ll_sw_forward_activ_integer:00000000 ll_sw_forward_activ_integer
     /tmp/ccZCp2co.s:4502   .text.ll_sw_forward_activ_integer:00000288 $d
     /tmp/ccZCp2co.s:4512   .text.ll_sw_forward_activ_integer:000002a0 $t
     /tmp/ccZCp2co.s:4665   .text.ll_sw_forward_activ_integer:00000394 $d
     /tmp/ccZCp2co.s:4673   .text.ll_sw_forward_resize_integer:00000000 $t
     /tmp/ccZCp2co.s:4679   .text.ll_sw_forward_resize_integer:00000000 ll_sw_forward_resize_integer
     /tmp/ccZCp2co.s:5079   .text.ll_sw_forward_resize_integer:00000248 $d
     /tmp/ccZCp2co.s:5091   .text.ll_sw_forward_argmax_integer:00000000 $t
     /tmp/ccZCp2co.s:5097   .text.ll_sw_forward_argmax_integer:00000000 ll_sw_forward_argmax_integer
     /tmp/ccZCp2co.s:5280   .text.ll_sw_forward_argmax_integer:00000104 $d
     /tmp/ccZCp2co.s:5289   .text.ll_sw_forward_argmin_integer:00000000 $t
     /tmp/ccZCp2co.s:5295   .text.ll_sw_forward_argmin_integer:00000000 ll_sw_forward_argmin_integer
     /tmp/ccZCp2co.s:5478   .text.ll_sw_forward_argmin_integer:00000104 $d
     /tmp/ccZCp2co.s:5487   .text.ll_sw_forward_tile_integer:00000000 $t
     /tmp/ccZCp2co.s:5493   .text.ll_sw_forward_tile_integer:00000000 ll_sw_forward_tile_integer
ARM GAS  /tmp/ccZCp2co.s 			page 146


     /tmp/ccZCp2co.s:5684   .text.ll_sw_forward_tile_integer:00000114 $d
     /tmp/ccZCp2co.s:5692   .text.ll_sw_forward_gather_integer:00000000 $t
     /tmp/ccZCp2co.s:5698   .text.ll_sw_forward_gather_integer:00000000 ll_sw_forward_gather_integer
     /tmp/ccZCp2co.s:5922   .text.ll_sw_forward_gather_integer:00000148 $d
                           .group:00000000 wm4.0.43608cab4da50df6ba2dfee95636a2b5
                           .group:00000000 wm4.ll_aton_config.h.20.6c93c36cdcfd4d0d33ea92e3d64119d1
                           .group:00000000 wm4._newlib_version.h.4.0eb654b64686e2bd29646258853f6c22
                           .group:00000000 wm4.features.h.33.d554620bb17bd3b714c3fb5c268772bc
                           .group:00000000 wm4._default_types.h.15.247e5cd201eca3442cbf5404108c4935
                           .group:00000000 wm4._intsup.h.10.48bafbb683905c4daa4565a85aeeb264
                           .group:00000000 wm4._stdint.h.10.c24fa3af3bc1706662bb5593a907e841
                           .group:00000000 wm4.stdint.h.23.d53047a68f4a85177f80b422d52785ed
                           .group:00000000 wm4.newlib.h.7.decd5b9657e2c5df625d9eac6e10520c
                           .group:00000000 wm4.ieeefp.h.77.99029d7b8220a2cd73dd257e2bbe825d
                           .group:00000000 wm4.config.h.224.10ee1ad185d877c6e334e6581faab44d
                           .group:00000000 wm4._ansi.h.31.de524f58584151836e90d8620a16f8e8
                           .group:00000000 wm4.stdio.h.31.7c0e28c411445f3f9c5b11accf882760
                           .group:00000000 wm4.stddef.h.200.ddb4176c6beb7e84f4fc90107f5448c9
                           .group:00000000 wm4.cdefs.h.49.56fd742369e655e7e8a7e365e706e208
                           .group:00000000 wm4.stddef.h.39.1701de33ba710abd106167c689c6bc7c
                           .group:00000000 wm4.stdarg.h.34.3a23a216c0c293b3d2ea2e89281481e6
                           .group:00000000 wm4._types.h.20.dd0d04dca3800a0d2a6129b87f3adbb2
                           .group:00000000 wm4.stddef.h.173.4903093a50a8482cb062b176ea61fac3
                           .group:00000000 wm4._types.h.127.3bdfe3ff8ea2d0985b03d9cbe93480e3
                           .group:00000000 wm4.reent.h.18.25503cdc8b7e55dd0d6ea7b3e5af7a03
                           .group:00000000 wm4.lock.h.2.1461d1fff82dffe8bfddc23307f6484f
                           .group:00000000 wm4.reent.h.78.6d702f69a6d6435d2dbe915b10150b1a
                           .group:00000000 wm4.stdio.h.67.0cf8a9c281ab0b348aef5c02e7e48825
                           .group:00000000 wm4.stdio.h.2.4aa87247282eca6c8f36f9de33d8df1a
                           .group:00000000 wm4.stdio.h.87.a1e20d2651f9bfb66e51bfbe849db00a
                           .group:00000000 wm4.stdbool.h.29.c08aa3eec75cf5b9b5003883f43253f0
                           .group:00000000 wm4.string.h.8.c4b8571ce60dff2817f43fec8b86aecd
                           .group:00000000 wm4.stddef.h.173.1cea4f16a943c8e875db6791959c3141
                           .group:00000000 wm4.string.h.177.59a005921fa78485abc80a0267de5752
                           .group:00000000 wm4.inttypes.h.14.b28deb26920e51e0da310220ef0f9003
                           .group:00000000 wm4.inttypes.h.28.684aa7736e7ecc9a6ffc44acc61c7a90
                           .group:00000000 wm4.ai_platform.h.28.0db67c933474cb4b7d059494bff73a0f
                           .group:00000000 wm4.datatypes_network.h.19.0916132781a5a985d4857655dae04a72
                           .group:00000000 wm4.core_assert.h.19.bbca5bb3090ffa7dddc8f8ab2ac82724
                           .group:00000000 wm4.ai_datatypes_defines.h.32.7c74a350659aaf8415fab7bed7e2285d
                           .group:00000000 wm4.ai_datatypes_format.h.19.1a802854dffbcb65ea52443a8fe88175
                           .group:00000000 wm4.ai_datatypes_format.h.392.61aa27312938e25431eaac70519dcc7b
                           .group:00000000 wm4.stai.h.24.edb2caeb75093402e355d2c517240f7a
                           .group:00000000 wm4.ai_platform_interface.h.30.2ea047b53ca1b81608da569a3716f521
                           .group:00000000 wm4.ai_datatypes.h.32.d5dda011299ea885036e6533ca9dee42
                           .group:00000000 wm4.ai_datatypes_internal.h.49.5ab3a9b7b297be1460f6458ee1870b58
                           .group:00000000 wm4.math.h.13.47cfc34cae8a1153323939c4d32cf7c2
                           .group:00000000 wm4.syslimits.h.34.de5cbd310098bc5895998b6bde577ed2
                           .group:00000000 wm4.limits.h.9.70fb0ada6f71b16202a66baaa6d8ea70
                           .group:00000000 wm4.limits.h.60.56a1ae353e2028a24298ec6463b8b593
                           .group:00000000 wm4.ai_lite_math_helpers.h.28.5a4e48e259ebe557bbbffc7ac6527059
                           .group:00000000 wm4.ai_math_helpers.h.23.a19c785e74bb0bde4af288ca79a63b1f
                           .group:00000000 wm4.core_datatypes.h.20.1803e62e977d7d7123b307eaa2eb4972
                           .group:00000000 wm4.core_common.h.65.4551a4f0a625b0033601444691182d61
                           .group:00000000 wm4.core_log.h.19.dbcf060b9a897e8bc8903452f7768b3b
                           .group:00000000 wm4.core_private.h.38.c86eca07862e08e6af28e4a25308dec9
                           .group:00000000 wm4.ai_common_config.h.19.fb67468a4f6fea8360e0f37e5f15139c
ARM GAS  /tmp/ccZCp2co.s 			page 147


                           .group:00000000 wm4.layers_common.h.30.b37bee6f76b8177da41061225fdf3d98
                           .group:00000000 wm4.layers_list.h.38.0bb23c1a9bda4042ad16b6d892e17e61
                           .group:00000000 wm4.layers_common.h.162.48d6ce1fc28d2c9f3e577717d3440b72
                           .group:00000000 wm4.ai_lite.h.19.9f8b519f46333304e1e5858b36e90592
                           .group:00000000 wm4.ai_lite_interface.h.39.74c820fd88c5a59637552e47cb0a5e08
                           .group:00000000 wm4.lite_nl_list.h.71.82af4649e7198012c12f18657d35b60a
                           .group:00000000 wm4.lite_pool_f32.h.19.ea8272c420c3cb80b24c7967417cd16e
                           .group:00000000 wm4.layers_conv2d.h.27.d860511096bcedbff2993d68742f9930
                           .group:00000000 wm4.layers_generic.h.20.21710cd19917cbd09eab3a433005f012
                           .group:00000000 wm4.layers_ml_treeensembleclassifier.h.20.1b484c65846fc8b1b6d60458adee6a2f
                           .group:00000000 wm4.layers_conv2d_dqnn.h.19.58bd281048af34dc1f0e1185dd771f04
                           .group:00000000 wm4.assert.h.11.db24e541f16414db224bf986d21017e2
                           .group:00000000 wm4.errno.h.2.ba016d646105af6cad23be83630b6a3f
                           .group:00000000 wm4.errno.h.9.ae5ea2b0ff9ea6e39e585807e35200d3
                           .group:00000000 wm4.ll_aton_util.h.34.9098eaa90d3d72b819973556e3e5fe44

UNDEFINED SYMBOLS
memset
forward_dense_integer
node_convert
node_convert_integer
forward_pw_sssa8_ch
forward_conv2d_rgb_sssa8_ch
forward_dw_dm_sssa8_ch
forward_conv2d_dilated_sssa8_ch
forward_conv2d_sssa8_ch
forward_conv2d_integer
forward_eltwise_integer
ai_sum
ai_sum_buffer_INT8
ai_sum_buffer_UINT8
ai_mul
ai_mul_buffer_INT8
ai_mul_buffer_UINT8
ai_div
ai_div_buffer_INT8
ai_div_buffer_UINT8
ai_sub
ai_sub_buffer_INT8
ai_sub_buffer_UINT8
forward_ap_integer
forward_mp_integer
forward_sm_integer
forward_relu_integer
forward_prelu_integer
forward_clip
forward_resize_nearest_is8os8
forward_resize_bilinear_is8os8
forward_upsample_zeros
forward_argmax_is8
forward_argmin_is8
forward_tile
forward_gather
