ARM GAS  /tmp/ccjTyagi.s 			page 1


   1              		.arch armv8.1-m.main
   2              		.fpu fpv5-d16
   3              		.arch_extension dsp
   4              		.arch_extension fp
   5              		.arch_extension fp.dp
   6              		.arch_extension mve
   7              		.arch_extension mve.fp
   8              		.eabi_attribute 5, "cortex-m55"
   9              		.eabi_attribute 28, 1
  10              		.eabi_attribute 20, 1
  11              		.eabi_attribute 21, 1
  12              		.eabi_attribute 23, 3
  13              		.eabi_attribute 24, 1
  14              		.eabi_attribute 25, 1
  15              		.eabi_attribute 26, 1
  16              		.eabi_attribute 30, 4
  17              		.eabi_attribute 34, 1
  18              		.eabi_attribute 38, 1
  19              		.eabi_attribute 18, 4
  20              		.file	"main.c"
  21              		.text
  22              	.Ltext0:
  23              		.cfi_sections	.debug_frame
  24              		.file 1 "Src/main.c"
  25              		.section	.text.SystemClock_Config,"ax",%progbits
  26              		.align	1
  27              		.syntax unified
  28              		.thumb
  29              		.thumb_func
  31              	SystemClock_Config:
  32              	.LFB890:
   1:Src/main.c    **** #include "tx_api.h"
   2:Src/main.c    **** #include "stm32n6xx_nucleo_bus.h"
   3:Src/main.c    **** #include "stm32n6xx_nucleo_xspi.h"
   4:Src/main.c    **** #include "stm32n6xx_nucleo.h"
   5:Src/main.c    **** #include "app_fuseprogramming.h"
   6:Src/main.c    **** #include "npu_cache.h"
   7:Src/main.c    **** #include "main.h"
   8:Src/main.c    **** 
   9:Src/main.c    **** UART_HandleTypeDef huart1;
  10:Src/main.c    **** volatile int32_t cameraFrameReceived;
  11:Src/main.c    **** 
  12:Src/main.c    **** static void SystemClock_Config(void);
  13:Src/main.c    **** 
  14:Src/main.c    **** int main(void) {
  15:Src/main.c    ****   MEMSYSCTL->MSCR |= MEMSYSCTL_MSCR_ICACTIVE_Msk;
  16:Src/main.c    ****   __HAL_RCC_CPUCLK_CONFIG(RCC_CPUCLKSOURCE_HSI);
  17:Src/main.c    ****   __HAL_RCC_SYSCLK_CONFIG(RCC_SYSCLKSOURCE_HSI);
  18:Src/main.c    **** 
  19:Src/main.c    ****   HAL_Init();
  20:Src/main.c    ****   SCB_EnableICache();
  21:Src/main.c    ****   SystemClock_Config();
  22:Src/main.c    ****   tx_kernel_enter();
  23:Src/main.c    ****   while (1) {}
  24:Src/main.c    **** }
  25:Src/main.c    **** 
  26:Src/main.c    **** static void SystemClock_Config(void) {
ARM GAS  /tmp/ccjTyagi.s 			page 2


  33              		.loc 1 26 38 view -0
  34              		.cfi_startproc
  35              		@ args = 0, pretend = 0, frame = 616
  36              		@ frame_needed = 0, uses_anonymous_args = 0
  27:Src/main.c    ****   RCC_ClkInitTypeDef RCC_ClkInitStruct = {0};
  37              		.loc 1 27 3 view .LVU1
  26:Src/main.c    ****   RCC_ClkInitTypeDef RCC_ClkInitStruct = {0};
  38              		.loc 1 26 38 is_stmt 0 view .LVU2
  39 0000 70B5     		push	{r4, r5, r6, lr}
  40              		.cfi_def_cfa_offset 16
  41              		.cfi_offset 4, -16
  42              		.cfi_offset 5, -12
  43              		.cfi_offset 6, -8
  44              		.cfi_offset 14, -4
  45 0002 ADF51A7D 		sub	sp, sp, #616
  46              		.cfi_def_cfa_offset 632
  47              		.loc 1 27 22 view .LVU3
  48 0006 4022     		movs	r2, #64
  49 0008 0021     		movs	r1, #0
  50 000a 6846     		mov	r0, sp
  51 000c FFF7FEFF 		bl	memset
  52              	.LVL0:
  28:Src/main.c    ****   RCC_OscInitTypeDef RCC_OscInitStruct = {0};
  53              		.loc 1 28 3 is_stmt 1 view .LVU4
  54              		.loc 1 28 22 is_stmt 0 view .LVU5
  55 0010 9822     		movs	r2, #152
  56 0012 0021     		movs	r1, #0
  57 0014 10A8     		add	r0, sp, #64
  58 0016 FFF7FEFF 		bl	memset
  59              	.LVL1:
  29:Src/main.c    ****   RCC_PeriphCLKInitTypeDef RCC_PeriphCLKInitStruct = {0};
  60              		.loc 1 29 3 is_stmt 1 view .LVU6
  61              		.loc 1 29 28 is_stmt 0 view .LVU7
  62 001a 4FF4C872 		mov	r2, #400
  63 001e 0021     		movs	r1, #0
  64 0020 36A8     		add	r0, sp, #216
  65 0022 FFF7FEFF 		bl	memset
  66              	.LVL2:
  30:Src/main.c    **** 
  31:Src/main.c    ****   /* Ensure VDDCORE=0.9V before increasing the system frequency */
  32:Src/main.c    ****   BSP_SMPS_Init(SMPS_VOLTAGE_OVERDRIVE);
  67              		.loc 1 32 3 is_stmt 1 view .LVU8
  68 0026 0120     		movs	r0, #1
  69 0028 FFF7FEFF 		bl	BSP_SMPS_Init
  70              	.LVL3:
  33:Src/main.c    **** 
  34:Src/main.c    ****   RCC_OscInitStruct.OscillatorType = RCC_OSCILLATORTYPE_NONE;
  71              		.loc 1 34 3 view .LVU9
  35:Src/main.c    **** 
  36:Src/main.c    ****   /* PLL1 = 64 x 25 / 2 = 800MHz */
  37:Src/main.c    ****   RCC_OscInitStruct.PLL1.PLLState = RCC_PLL_ON;
  38:Src/main.c    ****   RCC_OscInitStruct.PLL1.PLLSource = RCC_PLLSOURCE_HSI;
  39:Src/main.c    ****   RCC_OscInitStruct.PLL1.PLLM = 2;
  40:Src/main.c    ****   RCC_OscInitStruct.PLL1.PLLN = 25;
  41:Src/main.c    ****   RCC_OscInitStruct.PLL1.PLLFractional = 0;
  42:Src/main.c    ****   RCC_OscInitStruct.PLL1.PLLP1 = 1;
  72              		.loc 1 42 32 is_stmt 0 view .LVU10
ARM GAS  /tmp/ccjTyagi.s 			page 3


  73 002c 0125     		movs	r5, #1
  34:Src/main.c    **** 
  74              		.loc 1 34 36 view .LVU11
  75 002e 0023     		movs	r3, #0
  40:Src/main.c    ****   RCC_OscInitStruct.PLL1.PLLFractional = 0;
  76              		.loc 1 40 31 view .LVU12
  77 0030 1922     		movs	r2, #25
  43:Src/main.c    ****   RCC_OscInitStruct.PLL1.PLLP2 = 1;
  44:Src/main.c    **** 
  45:Src/main.c    ****   /* PLL2 = 64 x 125 / 8 = 1000MHz */
  46:Src/main.c    ****   RCC_OscInitStruct.PLL2.PLLState = RCC_PLL_ON;
  47:Src/main.c    ****   RCC_OscInitStruct.PLL2.PLLSource = RCC_PLLSOURCE_HSI;
  48:Src/main.c    ****   RCC_OscInitStruct.PLL2.PLLM = 8;
  49:Src/main.c    ****   RCC_OscInitStruct.PLL2.PLLFractional = 0;
  50:Src/main.c    ****   RCC_OscInitStruct.PLL2.PLLN = 125;
  78              		.loc 1 50 31 view .LVU13
  79 0032 7D21     		movs	r1, #125
  37:Src/main.c    ****   RCC_OscInitStruct.PLL1.PLLSource = RCC_PLLSOURCE_HSI;
  80              		.loc 1 37 35 view .LVU14
  81 0034 0226     		movs	r6, #2
  41:Src/main.c    ****   RCC_OscInitStruct.PLL1.PLLP1 = 1;
  82              		.loc 1 41 40 view .LVU15
  83 0036 CDE91D32 		strd	r3, r2, [sp, #116]
  51:Src/main.c    ****   RCC_OscInitStruct.PLL2.PLLP1 = 1;
  84              		.loc 1 51 32 view .LVU16
  85 003a CDE92515 		strd	r1, r5, [sp, #148]
  48:Src/main.c    ****   RCC_OscInitStruct.PLL2.PLLFractional = 0;
  86              		.loc 1 48 31 view .LVU17
  87 003e 0822     		movs	r2, #8
  52:Src/main.c    ****   RCC_OscInitStruct.PLL2.PLLP2 = 1;
  53:Src/main.c    **** 
  54:Src/main.c    ****   /* PLL3 = (64 x 225 / 8) / (1 * 2) = 900MHz */
  55:Src/main.c    ****   RCC_OscInitStruct.PLL3.PLLState = RCC_PLL_ON;
  56:Src/main.c    ****   RCC_OscInitStruct.PLL3.PLLSource = RCC_PLLSOURCE_HSI;
  57:Src/main.c    ****   RCC_OscInitStruct.PLL3.PLLM = 8;
  58:Src/main.c    ****   RCC_OscInitStruct.PLL3.PLLN = 225;
  88              		.loc 1 58 31 view .LVU18
  89 0040 E121     		movs	r1, #225
  38:Src/main.c    ****   RCC_OscInitStruct.PLL1.PLLM = 2;
  90              		.loc 1 38 36 view .LVU19
  91 0042 CDE91A63 		strd	r6, r3, [sp, #104]
  47:Src/main.c    ****   RCC_OscInitStruct.PLL2.PLLM = 8;
  92              		.loc 1 47 36 view .LVU20
  93 0046 CDE92163 		strd	r6, r3, [sp, #132]
  49:Src/main.c    ****   RCC_OscInitStruct.PLL2.PLLN = 125;
  94              		.loc 1 49 40 view .LVU21
  95 004a CDE92323 		strd	r2, r3, [sp, #140]
  57:Src/main.c    ****   RCC_OscInitStruct.PLL3.PLLN = 225;
  96              		.loc 1 57 31 view .LVU22
  97 004e CDE92932 		strd	r3, r2, [sp, #164]
  59:Src/main.c    ****   RCC_OscInitStruct.PLL3.PLLFractional = 0;
  98              		.loc 1 59 40 view .LVU23
  99 0052 CDE92B31 		strd	r3, r1, [sp, #172]
  60:Src/main.c    ****   RCC_OscInitStruct.PLL3.PLLP1 = 1;
  61:Src/main.c    ****   RCC_OscInitStruct.PLL3.PLLP2 = 2;
  62:Src/main.c    **** 
  63:Src/main.c    ****   /* PLL4 = (64 x 225 / 8) / (6 * 6) = 50 MHz */
ARM GAS  /tmp/ccjTyagi.s 			page 4


  64:Src/main.c    ****   RCC_OscInitStruct.PLL4.PLLState = RCC_PLL_ON;
  65:Src/main.c    ****   RCC_OscInitStruct.PLL4.PLLSource = RCC_PLLSOURCE_HSI;
 100              		.loc 1 65 36 view .LVU24
 101 0056 CDE92F63 		strd	r6, r3, [sp, #188]
  66:Src/main.c    ****   RCC_OscInitStruct.PLL4.PLLM = 8;
  67:Src/main.c    ****   RCC_OscInitStruct.PLL4.PLLFractional = 0;
 102              		.loc 1 67 40 view .LVU25
 103 005a CDE93123 		strd	r2, r3, [sp, #196]
  34:Src/main.c    **** 
 104              		.loc 1 34 36 view .LVU26
 105 005e 1093     		str	r3, [sp, #64]
  37:Src/main.c    ****   RCC_OscInitStruct.PLL1.PLLSource = RCC_PLLSOURCE_HSI;
 106              		.loc 1 37 3 is_stmt 1 view .LVU27
  39:Src/main.c    ****   RCC_OscInitStruct.PLL1.PLLN = 25;
 107              		.loc 1 39 3 view .LVU28
  68:Src/main.c    ****   RCC_OscInitStruct.PLL4.PLLN = 225;
  69:Src/main.c    ****   RCC_OscInitStruct.PLL4.PLLP1 = 6;
 108              		.loc 1 69 32 is_stmt 0 view .LVU29
 109 0060 0623     		movs	r3, #6
  70:Src/main.c    ****   RCC_OscInitStruct.PLL4.PLLP2 = 6;
  71:Src/main.c    **** 
  72:Src/main.c    ****   if (HAL_RCC_OscConfig(&RCC_OscInitStruct) != HAL_OK) { while(1); }
 110              		.loc 1 72 7 view .LVU30
 111 0062 10A8     		add	r0, sp, #64
  43:Src/main.c    **** 
 112              		.loc 1 43 32 view .LVU31
 113 0064 CDE91F55 		strd	r5, r5, [sp, #124]
  55:Src/main.c    ****   RCC_OscInitStruct.PLL3.PLLSource = RCC_PLLSOURCE_HSI;
 114              		.loc 1 55 35 view .LVU32
 115 0068 CDE92756 		strd	r5, r6, [sp, #156]
  61:Src/main.c    **** 
 116              		.loc 1 61 32 view .LVU33
 117 006c CDE92D56 		strd	r5, r6, [sp, #180]
  70:Src/main.c    **** 
 118              		.loc 1 70 32 view .LVU34
 119 0070 CDE93433 		strd	r3, r3, [sp, #208]
  39:Src/main.c    ****   RCC_OscInitStruct.PLL1.PLLN = 25;
 120              		.loc 1 39 31 view .LVU35
 121 0074 1C96     		str	r6, [sp, #112]
  40:Src/main.c    ****   RCC_OscInitStruct.PLL1.PLLFractional = 0;
 122              		.loc 1 40 3 is_stmt 1 view .LVU36
  42:Src/main.c    ****   RCC_OscInitStruct.PLL1.PLLP2 = 1;
 123              		.loc 1 42 3 view .LVU37
  46:Src/main.c    ****   RCC_OscInitStruct.PLL2.PLLSource = RCC_PLLSOURCE_HSI;
 124              		.loc 1 46 3 view .LVU38
  48:Src/main.c    ****   RCC_OscInitStruct.PLL2.PLLFractional = 0;
 125              		.loc 1 48 3 view .LVU39
  50:Src/main.c    ****   RCC_OscInitStruct.PLL2.PLLP1 = 1;
 126              		.loc 1 50 3 view .LVU40
  52:Src/main.c    **** 
 127              		.loc 1 52 3 view .LVU41
  56:Src/main.c    ****   RCC_OscInitStruct.PLL3.PLLM = 8;
 128              		.loc 1 56 3 view .LVU42
  58:Src/main.c    ****   RCC_OscInitStruct.PLL3.PLLFractional = 0;
 129              		.loc 1 58 3 view .LVU43
  60:Src/main.c    ****   RCC_OscInitStruct.PLL3.PLLP2 = 2;
 130              		.loc 1 60 3 view .LVU44
ARM GAS  /tmp/ccjTyagi.s 			page 5


  64:Src/main.c    ****   RCC_OscInitStruct.PLL4.PLLSource = RCC_PLLSOURCE_HSI;
 131              		.loc 1 64 3 view .LVU45
  66:Src/main.c    ****   RCC_OscInitStruct.PLL4.PLLFractional = 0;
 132              		.loc 1 66 3 view .LVU46
  68:Src/main.c    ****   RCC_OscInitStruct.PLL4.PLLP1 = 6;
 133              		.loc 1 68 3 view .LVU47
  68:Src/main.c    ****   RCC_OscInitStruct.PLL4.PLLP1 = 6;
 134              		.loc 1 68 31 is_stmt 0 view .LVU48
 135 0076 3391     		str	r1, [sp, #204]
  69:Src/main.c    ****   RCC_OscInitStruct.PLL4.PLLP2 = 6;
 136              		.loc 1 69 3 is_stmt 1 view .LVU49
 137              		.loc 1 72 3 view .LVU50
 138              		.loc 1 72 7 is_stmt 0 view .LVU51
 139 0078 FFF7FEFF 		bl	HAL_RCC_OscConfig
 140              	.LVL4:
 141              		.loc 1 72 6 discriminator 1 view .LVU52
 142 007c 00B1     		cbz	r0, .L2
 143              	.L3:
 144              		.loc 1 72 58 is_stmt 1 view .LVU53
 145              		.loc 1 72 63 view .LVU54
 146 007e FEE7     		b	.L3
 147              	.L2:
  73:Src/main.c    **** 
  74:Src/main.c    ****   RCC_ClkInitStruct.ClockType = (RCC_CLOCKTYPE_CPUCLK | RCC_CLOCKTYPE_SYSCLK |
 148              		.loc 1 74 3 view .LVU55
  75:Src/main.c    ****                                  RCC_CLOCKTYPE_HCLK | RCC_CLOCKTYPE_PCLK1 |
  76:Src/main.c    ****                                  RCC_CLOCKTYPE_PCLK2 | RCC_CLOCKTYPE_PCLK4 |
  77:Src/main.c    ****                                  RCC_CLOCKTYPE_PCLK5);
  78:Src/main.c    **** 
  79:Src/main.c    ****   /* CPU CLock (sysa_ck) = ic1_ck = PLL1 output/ic1_divider = 800 MHz */
  80:Src/main.c    ****   RCC_ClkInitStruct.CPUCLKSource = RCC_CPUCLKSOURCE_IC1;
 149              		.loc 1 80 34 is_stmt 0 view .LVU56
 150 0080 4FF44033 		mov	r3, #196608
 151 0084 7F22     		movs	r2, #127
 152 0086 CDE90023 		strd	r2, r3, [sp]
  81:Src/main.c    ****   RCC_ClkInitStruct.SYSCLKSource = RCC_SYSCLKSOURCE_IC2_IC6_IC11;
 153              		.loc 1 81 3 is_stmt 1 view .LVU57
 154              		.loc 1 81 34 is_stmt 0 view .LVU58
 155 008a 4FF04073 		mov	r3, #50331648
 156 008e 0293     		str	r3, [sp, #8]
  82:Src/main.c    ****   RCC_ClkInitStruct.IC1Selection.ClockSelection = RCC_ICCLKSOURCE_PLL1;
 157              		.loc 1 82 3 is_stmt 1 view .LVU59
  83:Src/main.c    ****   RCC_ClkInitStruct.IC1Selection.ClockDivider = 1;
  84:Src/main.c    **** 
  85:Src/main.c    ****   /* AXI Clock (sysb_ck) = ic2_ck = PLL1 output/ic2_divider = 400 MHz */
  86:Src/main.c    ****   RCC_ClkInitStruct.IC2Selection.ClockSelection = RCC_ICCLKSOURCE_PLL1;
  87:Src/main.c    ****   RCC_ClkInitStruct.IC2Selection.ClockDivider = 2;
  88:Src/main.c    **** 
  89:Src/main.c    ****   /* NPU Clock (sysc_ck) = ic6_ck = PLL2 output/ic6_divider = 1000 MHz */
  90:Src/main.c    ****   RCC_ClkInitStruct.IC6Selection.ClockSelection = RCC_ICCLKSOURCE_PLL2;
 158              		.loc 1 90 49 is_stmt 0 view .LVU60
 159 0090 4FF08053 		mov	r3, #268435456
  91:Src/main.c    ****   RCC_ClkInitStruct.IC6Selection.ClockDivider = 1;
 160              		.loc 1 91 47 view .LVU61
 161 0094 CDE90C35 		strd	r3, r5, [sp, #48]
  92:Src/main.c    **** 
  93:Src/main.c    ****   /* AXISRAM3/4/5/6 Clock (sysd_ck) = ic11_ck = PLL3 output/ic11_divider = 900 MHz */
ARM GAS  /tmp/ccjTyagi.s 			page 6


  94:Src/main.c    ****   RCC_ClkInitStruct.IC11Selection.ClockSelection = RCC_ICCLKSOURCE_PLL3;
 162              		.loc 1 94 50 view .LVU62
 163 0098 4FF00053 		mov	r3, #536870912
  95:Src/main.c    ****   RCC_ClkInitStruct.IC11Selection.ClockDivider = 1;
 164              		.loc 1 95 48 view .LVU63
 165 009c CDE90E35 		strd	r3, r5, [sp, #56]
  96:Src/main.c    **** 
  97:Src/main.c    ****   /* HCLK = sysb_ck / HCLK divider = 200 MHz */
  98:Src/main.c    ****   RCC_ClkInitStruct.AHBCLKDivider = RCC_HCLK_DIV2;
 166              		.loc 1 98 35 view .LVU64
 167 00a0 4FF48013 		mov	r3, #1048576
  83:Src/main.c    **** 
 168              		.loc 1 83 47 view .LVU65
 169 00a4 CDE90805 		strd	r0, r5, [sp, #32]
  86:Src/main.c    ****   RCC_ClkInitStruct.IC2Selection.ClockDivider = 2;
 170              		.loc 1 86 3 is_stmt 1 view .LVU66
  87:Src/main.c    **** 
 171              		.loc 1 87 47 is_stmt 0 view .LVU67
 172 00a8 CDE90A06 		strd	r0, r6, [sp, #40]
  90:Src/main.c    ****   RCC_ClkInitStruct.IC6Selection.ClockDivider = 1;
 173              		.loc 1 90 3 is_stmt 1 view .LVU68
  94:Src/main.c    ****   RCC_ClkInitStruct.IC11Selection.ClockDivider = 1;
 174              		.loc 1 94 3 view .LVU69
 175              		.loc 1 98 3 view .LVU70
  99:Src/main.c    **** 
 100:Src/main.c    ****   /* PCLKx = HCLK / PCLKx divider = 200 MHz */
 101:Src/main.c    ****   RCC_ClkInitStruct.APB1CLKDivider = RCC_APB1_DIV1;
 176              		.loc 1 101 36 is_stmt 0 view .LVU71
 177 00ac CDE90330 		strd	r3, r0, [sp, #12]
 102:Src/main.c    ****   RCC_ClkInitStruct.APB2CLKDivider = RCC_APB2_DIV1;
 178              		.loc 1 102 3 is_stmt 1 view .LVU72
 103:Src/main.c    ****   RCC_ClkInitStruct.APB4CLKDivider = RCC_APB4_DIV1;
 179              		.loc 1 103 36 is_stmt 0 view .LVU73
 180 00b0 CDE90500 		strd	r0, r0, [sp, #20]
 104:Src/main.c    ****   RCC_ClkInitStruct.APB5CLKDivider = RCC_APB5_DIV1;
 181              		.loc 1 104 3 is_stmt 1 view .LVU74
 182              		.loc 1 104 36 is_stmt 0 view .LVU75
 183 00b4 0790     		str	r0, [sp, #28]
 105:Src/main.c    **** 
 106:Src/main.c    ****   if (HAL_RCC_ClockConfig(&RCC_ClkInitStruct) != HAL_OK) { while(1); }
 184              		.loc 1 106 3 is_stmt 1 view .LVU76
 185              		.loc 1 106 7 is_stmt 0 view .LVU77
 186 00b6 6846     		mov	r0, sp
 187 00b8 FFF7FEFF 		bl	HAL_RCC_ClockConfig
 188              	.LVL5:
 189              		.loc 1 106 6 discriminator 1 view .LVU78
 190 00bc 00B1     		cbz	r0, .L4
 191              	.L5:
 192              		.loc 1 106 60 is_stmt 1 view .LVU79
 193              		.loc 1 106 65 view .LVU80
 194 00be FEE7     		b	.L5
 195              	.L4:
 107:Src/main.c    **** 
 108:Src/main.c    ****   RCC_PeriphCLKInitStruct.PeriphClockSelection = 0;
 196              		.loc 1 108 3 view .LVU81
 109:Src/main.c    **** 
 110:Src/main.c    ****   /* XSPI1 kernel clock (ck_ker_xspi1) = HCLK = 200MHz */
ARM GAS  /tmp/ccjTyagi.s 			page 7


 111:Src/main.c    ****   RCC_PeriphCLKInitStruct.PeriphClockSelection |= RCC_PERIPHCLK_XSPI1;
 197              		.loc 1 111 3 view .LVU82
 112:Src/main.c    ****   RCC_PeriphCLKInitStruct.Xspi1ClockSelection = RCC_XSPI1CLKSOURCE_HCLK;
 198              		.loc 1 112 3 view .LVU83
 199              		.loc 1 112 47 is_stmt 0 view .LVU84
 200 00c0 084B     		ldr	r3, .L8
 113:Src/main.c    **** 
 114:Src/main.c    ****   /* XSPI2 kernel clock (ck_ker_xspi1) = HCLK =  200MHz */
 115:Src/main.c    ****   RCC_PeriphCLKInitStruct.PeriphClockSelection |= RCC_PERIPHCLK_XSPI2;
 201              		.loc 1 115 48 view .LVU85
 202 00c2 0022     		movs	r2, #0
 112:Src/main.c    ****   RCC_PeriphCLKInitStruct.Xspi1ClockSelection = RCC_XSPI1CLKSOURCE_HCLK;
 203              		.loc 1 112 47 view .LVU86
 204 00c4 6193     		str	r3, [sp, #388]
 205              		.loc 1 115 3 is_stmt 1 view .LVU87
 206              		.loc 1 115 48 is_stmt 0 view .LVU88
 207 00c6 4FF44003 		mov	r3, #12582912
 208 00ca CDE93623 		strd	r2, [sp, #216]
 116:Src/main.c    ****   RCC_PeriphCLKInitStruct.Xspi2ClockSelection = RCC_XSPI2CLKSOURCE_HCLK;
 209              		.loc 1 116 3 is_stmt 1 view .LVU89
 210              		.loc 1 116 47 is_stmt 0 view .LVU90
 211 00ce 064B     		ldr	r3, .L8+4
 117:Src/main.c    **** 
 118:Src/main.c    ****   if (HAL_RCCEx_PeriphCLKConfig(&RCC_PeriphCLKInitStruct) != HAL_OK) { while(1); }
 212              		.loc 1 118 7 view .LVU91
 213 00d0 36A8     		add	r0, sp, #216
 116:Src/main.c    ****   RCC_PeriphCLKInitStruct.Xspi2ClockSelection = RCC_XSPI2CLKSOURCE_HCLK;
 214              		.loc 1 116 47 view .LVU92
 215 00d2 6293     		str	r3, [sp, #392]
 216              		.loc 1 118 3 is_stmt 1 view .LVU93
 217              		.loc 1 118 7 is_stmt 0 view .LVU94
 218 00d4 FFF7FEFF 		bl	HAL_RCCEx_PeriphCLKConfig
 219              	.LVL6:
 220              		.loc 1 118 6 discriminator 1 view .LVU95
 221 00d8 00B1     		cbz	r0, .L1
 222              	.L7:
 223              		.loc 1 118 72 is_stmt 1 view .LVU96
 224              		.loc 1 118 77 view .LVU97
 225 00da FEE7     		b	.L7
 226              	.L1:
 119:Src/main.c    **** }...
 227              		.loc 1 119 1 is_stmt 0 view .LVU98
 228 00dc 0DF51A7D 		add	sp, sp, #616
 229              		.cfi_def_cfa_offset 16
 230              		@ sp needed
 231 00e0 70BD     		pop	{r4, r5, r6, pc}
 232              	.L9:
 233 00e2 00BF     		.align	2
 234              	.L8:
 235 00e4 14000003 		.word	50331668
 236 00e8 14040003 		.word	50332692
 237              		.cfi_endproc
 238              	.LFE890:
 240              		.section	.text.startup.main,"ax",%progbits
 241              		.align	1
 242              		.global	main
 243              		.syntax unified
ARM GAS  /tmp/ccjTyagi.s 			page 8


 244              		.thumb
 245              		.thumb_func
 247              	main:
 248              	.LFB889:
  14:Src/main.c    **** int main(void) {
 249              		.loc 1 14 16 is_stmt 1 view -0
 250              		.cfi_startproc
 251              		@ Volatile: function does not return.
 252              		@ args = 0, pretend = 0, frame = 0
 253              		@ frame_needed = 0, uses_anonymous_args = 0
  15:Src/main.c    ****   MEMSYSCTL->MSCR |= MEMSYSCTL_MSCR_ICACTIVE_Msk;
 254              		.loc 1 15 3 view .LVU100
  15:Src/main.c    ****   MEMSYSCTL->MSCR |= MEMSYSCTL_MSCR_ICACTIVE_Msk;
 255              		.loc 1 15 12 is_stmt 0 view .LVU101
 256 0000 164A     		ldr	r2, .L13
  14:Src/main.c    **** int main(void) {
 257              		.loc 1 14 16 view .LVU102
 258 0002 08B5     		push	{r3, lr}
 259              		.cfi_def_cfa_offset 8
 260              		.cfi_offset 3, -8
 261              		.cfi_offset 14, -4
  15:Src/main.c    ****   MEMSYSCTL->MSCR |= MEMSYSCTL_MSCR_ICACTIVE_Msk;
 262              		.loc 1 15 12 view .LVU103
 263 0004 1368     		ldr	r3, [r2]
  15:Src/main.c    ****   MEMSYSCTL->MSCR |= MEMSYSCTL_MSCR_ICACTIVE_Msk;
 264              		.loc 1 15 19 view .LVU104
 265 0006 43F40053 		orr	r3, r3, #8192
 266 000a 1360     		str	r3, [r2]
  16:Src/main.c    ****   __HAL_RCC_CPUCLK_CONFIG(RCC_CPUCLKSOURCE_HSI);
 267              		.loc 1 16 3 is_stmt 1 view .LVU105
 268              	.LBB46:
 269              	.LBI46:
 270              		.file 2 "../STM32Cube_FW_N6/Drivers/STM32N6xx_HAL_Driver/Inc/stm32n6xx_ll_rcc.h"
   1:../STM32Cube_FW_N6/Drivers/STM32N6xx_HAL_Driver/Inc/stm32n6xx_ll_rcc.h **** /**
   2:../STM32Cube_FW_N6/Drivers/STM32N6xx_HAL_Driver/Inc/stm32n6xx_ll_rcc.h ****   ******************************************************************************
   3:../STM32Cube_FW_N6/Drivers/STM32N6xx_HAL_Driver/Inc/stm32n6xx_ll_rcc.h ****   * @file    stm32n6xx_ll_rcc.h
   4:../STM32Cube_FW_N6/Drivers/STM32N6xx_HAL_Driver/Inc/stm32n6xx_ll_rcc.h ****   * @author  MCD Application Team
   5:../STM32Cube_FW_N6/Drivers/STM32N6xx_HAL_Driver/Inc/stm32n6xx_ll_rcc.h ****   * @brief   Header file of RCC LL module.
   6:../STM32Cube_FW_N6/Drivers/STM32N6xx_HAL_Driver/Inc/stm32n6xx_ll_rcc.h ****   ******************************************************************************
   7:../STM32Cube_FW_N6/Drivers/STM32N6xx_HAL_Driver/Inc/stm32n6xx_ll_rcc.h ****   * @attention
   8:../STM32Cube_FW_N6/Drivers/STM32N6xx_HAL_Driver/Inc/stm32n6xx_ll_rcc.h ****   *
   9:../STM32Cube_FW_N6/Drivers/STM32N6xx_HAL_Driver/Inc/stm32n6xx_ll_rcc.h ****   * Copyright (c) 2023 STMicroelectronics.
  10:../STM32Cube_FW_N6/Drivers/STM32N6xx_HAL_Driver/Inc/stm32n6xx_ll_rcc.h ****   * All rights reserved.
  11:../STM32Cube_FW_N6/Drivers/STM32N6xx_HAL_Driver/Inc/stm32n6xx_ll_rcc.h ****   *
  12:../STM32Cube_FW_N6/Drivers/STM32N6xx_HAL_Driver/Inc/stm32n6xx_ll_rcc.h ****   * This software is licensed under terms that can be found in the LICENSE file
  13:../STM32Cube_FW_N6/Drivers/STM32N6xx_HAL_Driver/Inc/stm32n6xx_ll_rcc.h ****   * in the root directory of this software component.
  14:../STM32Cube_FW_N6/Drivers/STM32N6xx_HAL_Driver/Inc/stm32n6xx_ll_rcc.h ****   * If no LICENSE file comes with this software, it is provided AS-IS.
  15:../STM32Cube_FW_N6/Drivers/STM32N6xx_HAL_Driver/Inc/stm32n6xx_ll_rcc.h ****   *
  16:../STM32Cube_FW_N6/Drivers/STM32N6xx_HAL_Driver/Inc/stm32n6xx_ll_rcc.h ****   ******************************************************************************
  17:../STM32Cube_FW_N6/Drivers/STM32N6xx_HAL_Driver/Inc/stm32n6xx_ll_rcc.h ****   */
  18:../STM32Cube_FW_N6/Drivers/STM32N6xx_HAL_Driver/Inc/stm32n6xx_ll_rcc.h **** 
  19:../STM32Cube_FW_N6/Drivers/STM32N6xx_HAL_Driver/Inc/stm32n6xx_ll_rcc.h **** /* Define to prevent recursive inclusion -------------------------------------*/
  20:../STM32Cube_FW_N6/Drivers/STM32N6xx_HAL_Driver/Inc/stm32n6xx_ll_rcc.h **** #ifndef STM32N6xx_LL_RCC_H
  21:../STM32Cube_FW_N6/Drivers/STM32N6xx_HAL_Driver/Inc/stm32n6xx_ll_rcc.h **** #define STM32N6xx_LL_RCC_H
  22:../STM32Cube_FW_N6/Drivers/STM32N6xx_HAL_Driver/Inc/stm32n6xx_ll_rcc.h **** 
  23:../STM32Cube_FW_N6/Drivers/STM32N6xx_HAL_Driver/Inc/stm32n6xx_ll_rcc.h **** #ifdef __cplusplus
  24:../STM32Cube_FW_N6/Drivers/STM32N6xx_HAL_Driver/Inc/stm32n6xx_ll_rcc.h **** extern "C" {
ARM GAS  /tmp/ccjTyagi.s 			page 9


  25:../STM32Cube_FW_N6/Drivers/STM32N6xx_HAL_Driver/Inc/stm32n6xx_ll_rcc.h **** #endif
  26:../STM32Cube_FW_N6/Drivers/STM32N6xx_HAL_Driver/Inc/stm32n6xx_ll_rcc.h **** 
  27:../STM32Cube_FW_N6/Drivers/STM32N6xx_HAL_Driver/Inc/stm32n6xx_ll_rcc.h **** /* Includes ------------------------------------------------------------------*/
  28:../STM32Cube_FW_N6/Drivers/STM32N6xx_HAL_Driver/Inc/stm32n6xx_ll_rcc.h **** #include "stm32n6xx.h"
  29:../STM32Cube_FW_N6/Drivers/STM32N6xx_HAL_Driver/Inc/stm32n6xx_ll_rcc.h **** #include <math.h>
  30:../STM32Cube_FW_N6/Drivers/STM32N6xx_HAL_Driver/Inc/stm32n6xx_ll_rcc.h **** 
  31:../STM32Cube_FW_N6/Drivers/STM32N6xx_HAL_Driver/Inc/stm32n6xx_ll_rcc.h **** /** @addtogroup STM32N6xx_LL_Driver
  32:../STM32Cube_FW_N6/Drivers/STM32N6xx_HAL_Driver/Inc/stm32n6xx_ll_rcc.h ****   * @{
  33:../STM32Cube_FW_N6/Drivers/STM32N6xx_HAL_Driver/Inc/stm32n6xx_ll_rcc.h ****   */
  34:../STM32Cube_FW_N6/Drivers/STM32N6xx_HAL_Driver/Inc/stm32n6xx_ll_rcc.h **** #if defined(RCC)
  35:../STM32Cube_FW_N6/Drivers/STM32N6xx_HAL_Driver/Inc/stm32n6xx_ll_rcc.h **** 
  36:../STM32Cube_FW_N6/Drivers/STM32N6xx_HAL_Driver/Inc/stm32n6xx_ll_rcc.h **** /** @defgroup RCC_LL RCC
  37:../STM32Cube_FW_N6/Drivers/STM32N6xx_HAL_Driver/Inc/stm32n6xx_ll_rcc.h ****   * @{
  38:../STM32Cube_FW_N6/Drivers/STM32N6xx_HAL_Driver/Inc/stm32n6xx_ll_rcc.h ****   */
  39:../STM32Cube_FW_N6/Drivers/STM32N6xx_HAL_Driver/Inc/stm32n6xx_ll_rcc.h **** 
  40:../STM32Cube_FW_N6/Drivers/STM32N6xx_HAL_Driver/Inc/stm32n6xx_ll_rcc.h **** /* Private types -------------------------------------------------------------*/
  41:../STM32Cube_FW_N6/Drivers/STM32N6xx_HAL_Driver/Inc/stm32n6xx_ll_rcc.h **** /* Private variables ---------------------------------------------------------*/
  42:../STM32Cube_FW_N6/Drivers/STM32N6xx_HAL_Driver/Inc/stm32n6xx_ll_rcc.h **** /** @defgroup RCC_LL_Private_Variables RCC Private Variables
  43:../STM32Cube_FW_N6/Drivers/STM32N6xx_HAL_Driver/Inc/stm32n6xx_ll_rcc.h ****   * @{
  44:../STM32Cube_FW_N6/Drivers/STM32N6xx_HAL_Driver/Inc/stm32n6xx_ll_rcc.h ****   */
  45:../STM32Cube_FW_N6/Drivers/STM32N6xx_HAL_Driver/Inc/stm32n6xx_ll_rcc.h **** 
  46:../STM32Cube_FW_N6/Drivers/STM32N6xx_HAL_Driver/Inc/stm32n6xx_ll_rcc.h **** /**
  47:../STM32Cube_FW_N6/Drivers/STM32N6xx_HAL_Driver/Inc/stm32n6xx_ll_rcc.h ****   * @}
  48:../STM32Cube_FW_N6/Drivers/STM32N6xx_HAL_Driver/Inc/stm32n6xx_ll_rcc.h ****   */
  49:../STM32Cube_FW_N6/Drivers/STM32N6xx_HAL_Driver/Inc/stm32n6xx_ll_rcc.h **** 
  50:../STM32Cube_FW_N6/Drivers/STM32N6xx_HAL_Driver/Inc/stm32n6xx_ll_rcc.h **** /* Private constants ---------------------------------------------------------*/
  51:../STM32Cube_FW_N6/Drivers/STM32N6xx_HAL_Driver/Inc/stm32n6xx_ll_rcc.h **** /** @defgroup RCC_LL_Private_Constants RCC Private Constants
  52:../STM32Cube_FW_N6/Drivers/STM32N6xx_HAL_Driver/Inc/stm32n6xx_ll_rcc.h ****   * @{
  53:../STM32Cube_FW_N6/Drivers/STM32N6xx_HAL_Driver/Inc/stm32n6xx_ll_rcc.h ****   */
  54:../STM32Cube_FW_N6/Drivers/STM32N6xx_HAL_Driver/Inc/stm32n6xx_ll_rcc.h **** /* Constants for LL_CLKSOURCE_xxx() macros
  55:../STM32Cube_FW_N6/Drivers/STM32N6xx_HAL_Driver/Inc/stm32n6xx_ll_rcc.h ****    31           24            16           8             0
  56:../STM32Cube_FW_N6/Drivers/STM32N6xx_HAL_Driver/Inc/stm32n6xx_ll_rcc.h ****    --------------------------------------------------------
  57:../STM32Cube_FW_N6/Drivers/STM32N6xx_HAL_Driver/Inc/stm32n6xx_ll_rcc.h ****    | Mask        | ClkSource   |  Bit       | Register    |
  58:../STM32Cube_FW_N6/Drivers/STM32N6xx_HAL_Driver/Inc/stm32n6xx_ll_rcc.h ****    |             |  Config     | Position   | Offset      |
  59:../STM32Cube_FW_N6/Drivers/STM32N6xx_HAL_Driver/Inc/stm32n6xx_ll_rcc.h ****    --------------------------------------------------------*/
  60:../STM32Cube_FW_N6/Drivers/STM32N6xx_HAL_Driver/Inc/stm32n6xx_ll_rcc.h **** 
  61:../STM32Cube_FW_N6/Drivers/STM32N6xx_HAL_Driver/Inc/stm32n6xx_ll_rcc.h **** /* Clock source register offset Vs CCIPR1 register */
  62:../STM32Cube_FW_N6/Drivers/STM32N6xx_HAL_Driver/Inc/stm32n6xx_ll_rcc.h **** #define CCIPR1_OFFSET      0x0UL
  63:../STM32Cube_FW_N6/Drivers/STM32N6xx_HAL_Driver/Inc/stm32n6xx_ll_rcc.h **** #define CCIPR2_OFFSET      0x4UL
  64:../STM32Cube_FW_N6/Drivers/STM32N6xx_HAL_Driver/Inc/stm32n6xx_ll_rcc.h **** #define CCIPR3_OFFSET      0x8UL
  65:../STM32Cube_FW_N6/Drivers/STM32N6xx_HAL_Driver/Inc/stm32n6xx_ll_rcc.h **** #define CCIPR4_OFFSET      0xCUL
  66:../STM32Cube_FW_N6/Drivers/STM32N6xx_HAL_Driver/Inc/stm32n6xx_ll_rcc.h **** #define CCIPR5_OFFSET      0x10UL
  67:../STM32Cube_FW_N6/Drivers/STM32N6xx_HAL_Driver/Inc/stm32n6xx_ll_rcc.h **** #define CCIPR6_OFFSET      0x14UL
  68:../STM32Cube_FW_N6/Drivers/STM32N6xx_HAL_Driver/Inc/stm32n6xx_ll_rcc.h **** #define CCIPR7_OFFSET      0x18UL
  69:../STM32Cube_FW_N6/Drivers/STM32N6xx_HAL_Driver/Inc/stm32n6xx_ll_rcc.h **** #define CCIPR8_OFFSET      0x1CUL
  70:../STM32Cube_FW_N6/Drivers/STM32N6xx_HAL_Driver/Inc/stm32n6xx_ll_rcc.h **** #define CCIPR9_OFFSET      0x20UL
  71:../STM32Cube_FW_N6/Drivers/STM32N6xx_HAL_Driver/Inc/stm32n6xx_ll_rcc.h **** #define CCIPR12_OFFSET     0x2CUL
  72:../STM32Cube_FW_N6/Drivers/STM32N6xx_HAL_Driver/Inc/stm32n6xx_ll_rcc.h **** #define CCIPR13_OFFSET     0x30UL
  73:../STM32Cube_FW_N6/Drivers/STM32N6xx_HAL_Driver/Inc/stm32n6xx_ll_rcc.h **** #define CCIPR14_OFFSET     0x34UL
  74:../STM32Cube_FW_N6/Drivers/STM32N6xx_HAL_Driver/Inc/stm32n6xx_ll_rcc.h **** 
  75:../STM32Cube_FW_N6/Drivers/STM32N6xx_HAL_Driver/Inc/stm32n6xx_ll_rcc.h **** #define LL_RCC_REG_SHIFT     0U
  76:../STM32Cube_FW_N6/Drivers/STM32N6xx_HAL_Driver/Inc/stm32n6xx_ll_rcc.h **** #define LL_RCC_POS_SHIFT     8U
  77:../STM32Cube_FW_N6/Drivers/STM32N6xx_HAL_Driver/Inc/stm32n6xx_ll_rcc.h **** #define LL_RCC_CONFIG_SHIFT  16U
  78:../STM32Cube_FW_N6/Drivers/STM32N6xx_HAL_Driver/Inc/stm32n6xx_ll_rcc.h **** #define LL_RCC_MASK_SHIFT    24U
  79:../STM32Cube_FW_N6/Drivers/STM32N6xx_HAL_Driver/Inc/stm32n6xx_ll_rcc.h **** /**
  80:../STM32Cube_FW_N6/Drivers/STM32N6xx_HAL_Driver/Inc/stm32n6xx_ll_rcc.h ****   * @}
  81:../STM32Cube_FW_N6/Drivers/STM32N6xx_HAL_Driver/Inc/stm32n6xx_ll_rcc.h ****   */
ARM GAS  /tmp/ccjTyagi.s 			page 10


  82:../STM32Cube_FW_N6/Drivers/STM32N6xx_HAL_Driver/Inc/stm32n6xx_ll_rcc.h **** 
  83:../STM32Cube_FW_N6/Drivers/STM32N6xx_HAL_Driver/Inc/stm32n6xx_ll_rcc.h **** /* Private macros ------------------------------------------------------------*/
  84:../STM32Cube_FW_N6/Drivers/STM32N6xx_HAL_Driver/Inc/stm32n6xx_ll_rcc.h **** /** @defgroup RCC_LL_Private_Macros RCC Private Macros
  85:../STM32Cube_FW_N6/Drivers/STM32N6xx_HAL_Driver/Inc/stm32n6xx_ll_rcc.h ****   * @{
  86:../STM32Cube_FW_N6/Drivers/STM32N6xx_HAL_Driver/Inc/stm32n6xx_ll_rcc.h ****   */
  87:../STM32Cube_FW_N6/Drivers/STM32N6xx_HAL_Driver/Inc/stm32n6xx_ll_rcc.h **** #if !defined(UNUSED)
  88:../STM32Cube_FW_N6/Drivers/STM32N6xx_HAL_Driver/Inc/stm32n6xx_ll_rcc.h **** #define UNUSED(x) ((void)(x))
  89:../STM32Cube_FW_N6/Drivers/STM32N6xx_HAL_Driver/Inc/stm32n6xx_ll_rcc.h **** #endif /* UNUSED */
  90:../STM32Cube_FW_N6/Drivers/STM32N6xx_HAL_Driver/Inc/stm32n6xx_ll_rcc.h **** 
  91:../STM32Cube_FW_N6/Drivers/STM32N6xx_HAL_Driver/Inc/stm32n6xx_ll_rcc.h **** #define LL_CLKSOURCE_SHIFT(__CLKSOURCE__)   (((__CLKSOURCE__) >> LL_RCC_POS_SHIFT   ) & 0x1FUL)
  92:../STM32Cube_FW_N6/Drivers/STM32N6xx_HAL_Driver/Inc/stm32n6xx_ll_rcc.h **** 
  93:../STM32Cube_FW_N6/Drivers/STM32N6xx_HAL_Driver/Inc/stm32n6xx_ll_rcc.h **** #define LL_CLKSOURCE_MASK(__CLKSOURCE__)   ((((__CLKSOURCE__) >> LL_RCC_MASK_SHIFT  ) &\
  94:../STM32Cube_FW_N6/Drivers/STM32N6xx_HAL_Driver/Inc/stm32n6xx_ll_rcc.h ****                                              0xFFUL) << LL_CLKSOURCE_SHIFT(__CLKSOURCE__))
  95:../STM32Cube_FW_N6/Drivers/STM32N6xx_HAL_Driver/Inc/stm32n6xx_ll_rcc.h **** 
  96:../STM32Cube_FW_N6/Drivers/STM32N6xx_HAL_Driver/Inc/stm32n6xx_ll_rcc.h **** #define LL_CLKSOURCE_CONFIG(__CLKSOURCE__) ((((__CLKSOURCE__) >> LL_RCC_CONFIG_SHIFT) &\
  97:../STM32Cube_FW_N6/Drivers/STM32N6xx_HAL_Driver/Inc/stm32n6xx_ll_rcc.h ****                                              0xFFUL) << LL_CLKSOURCE_SHIFT(__CLKSOURCE__))
  98:../STM32Cube_FW_N6/Drivers/STM32N6xx_HAL_Driver/Inc/stm32n6xx_ll_rcc.h **** 
  99:../STM32Cube_FW_N6/Drivers/STM32N6xx_HAL_Driver/Inc/stm32n6xx_ll_rcc.h **** #define LL_CLKSOURCE_REG(__CLKSOURCE__)     (((__CLKSOURCE__) >> LL_RCC_REG_SHIFT   ) & 0xFFUL)
 100:../STM32Cube_FW_N6/Drivers/STM32N6xx_HAL_Driver/Inc/stm32n6xx_ll_rcc.h **** 
 101:../STM32Cube_FW_N6/Drivers/STM32N6xx_HAL_Driver/Inc/stm32n6xx_ll_rcc.h **** #define LL_CLKSOURCE(__REG__, __MSK__, __POS__, __CLK__) ((uint32_t)((((__MSK__) >> (__POS__)) << L
 102:../STM32Cube_FW_N6/Drivers/STM32N6xx_HAL_Driver/Inc/stm32n6xx_ll_rcc.h ****                                                                      (( __POS__              ) << L
 103:../STM32Cube_FW_N6/Drivers/STM32N6xx_HAL_Driver/Inc/stm32n6xx_ll_rcc.h ****                                                                      (( __REG__              ) << L
 104:../STM32Cube_FW_N6/Drivers/STM32N6xx_HAL_Driver/Inc/stm32n6xx_ll_rcc.h ****                                                                      (((__CLK__) >> (__POS__)) << L
 105:../STM32Cube_FW_N6/Drivers/STM32N6xx_HAL_Driver/Inc/stm32n6xx_ll_rcc.h **** /**
 106:../STM32Cube_FW_N6/Drivers/STM32N6xx_HAL_Driver/Inc/stm32n6xx_ll_rcc.h ****   * @}
 107:../STM32Cube_FW_N6/Drivers/STM32N6xx_HAL_Driver/Inc/stm32n6xx_ll_rcc.h ****   */
 108:../STM32Cube_FW_N6/Drivers/STM32N6xx_HAL_Driver/Inc/stm32n6xx_ll_rcc.h **** 
 109:../STM32Cube_FW_N6/Drivers/STM32N6xx_HAL_Driver/Inc/stm32n6xx_ll_rcc.h **** /* Exported types ------------------------------------------------------------*/
 110:../STM32Cube_FW_N6/Drivers/STM32N6xx_HAL_Driver/Inc/stm32n6xx_ll_rcc.h **** /** @defgroup RCC_LL_Exported_Types RCC Exported Types
 111:../STM32Cube_FW_N6/Drivers/STM32N6xx_HAL_Driver/Inc/stm32n6xx_ll_rcc.h ****   * @{
 112:../STM32Cube_FW_N6/Drivers/STM32N6xx_HAL_Driver/Inc/stm32n6xx_ll_rcc.h ****   */
 113:../STM32Cube_FW_N6/Drivers/STM32N6xx_HAL_Driver/Inc/stm32n6xx_ll_rcc.h **** 
 114:../STM32Cube_FW_N6/Drivers/STM32N6xx_HAL_Driver/Inc/stm32n6xx_ll_rcc.h **** /** @defgroup LL_ES_CLOCK_FREQ Clocks Frequency Structure
 115:../STM32Cube_FW_N6/Drivers/STM32N6xx_HAL_Driver/Inc/stm32n6xx_ll_rcc.h ****   * @{
 116:../STM32Cube_FW_N6/Drivers/STM32N6xx_HAL_Driver/Inc/stm32n6xx_ll_rcc.h ****   */
 117:../STM32Cube_FW_N6/Drivers/STM32N6xx_HAL_Driver/Inc/stm32n6xx_ll_rcc.h **** 
 118:../STM32Cube_FW_N6/Drivers/STM32N6xx_HAL_Driver/Inc/stm32n6xx_ll_rcc.h **** /**
 119:../STM32Cube_FW_N6/Drivers/STM32N6xx_HAL_Driver/Inc/stm32n6xx_ll_rcc.h ****   * @brief  RCC Clocks Frequency Structure
 120:../STM32Cube_FW_N6/Drivers/STM32N6xx_HAL_Driver/Inc/stm32n6xx_ll_rcc.h ****   */
 121:../STM32Cube_FW_N6/Drivers/STM32N6xx_HAL_Driver/Inc/stm32n6xx_ll_rcc.h **** typedef struct
 122:../STM32Cube_FW_N6/Drivers/STM32N6xx_HAL_Driver/Inc/stm32n6xx_ll_rcc.h **** {
 123:../STM32Cube_FW_N6/Drivers/STM32N6xx_HAL_Driver/Inc/stm32n6xx_ll_rcc.h ****   uint32_t SYSCLK_Frequency;
 124:../STM32Cube_FW_N6/Drivers/STM32N6xx_HAL_Driver/Inc/stm32n6xx_ll_rcc.h ****   uint32_t CPUCLK_Frequency;
 125:../STM32Cube_FW_N6/Drivers/STM32N6xx_HAL_Driver/Inc/stm32n6xx_ll_rcc.h ****   uint32_t HCLK_Frequency;
 126:../STM32Cube_FW_N6/Drivers/STM32N6xx_HAL_Driver/Inc/stm32n6xx_ll_rcc.h ****   uint32_t PCLK1_Frequency;
 127:../STM32Cube_FW_N6/Drivers/STM32N6xx_HAL_Driver/Inc/stm32n6xx_ll_rcc.h ****   uint32_t PCLK2_Frequency;
 128:../STM32Cube_FW_N6/Drivers/STM32N6xx_HAL_Driver/Inc/stm32n6xx_ll_rcc.h ****   uint32_t PCLK4_Frequency;
 129:../STM32Cube_FW_N6/Drivers/STM32N6xx_HAL_Driver/Inc/stm32n6xx_ll_rcc.h ****   uint32_t PCLK5_Frequency;
 130:../STM32Cube_FW_N6/Drivers/STM32N6xx_HAL_Driver/Inc/stm32n6xx_ll_rcc.h **** } LL_RCC_ClocksTypeDef;
 131:../STM32Cube_FW_N6/Drivers/STM32N6xx_HAL_Driver/Inc/stm32n6xx_ll_rcc.h **** 
 132:../STM32Cube_FW_N6/Drivers/STM32N6xx_HAL_Driver/Inc/stm32n6xx_ll_rcc.h **** /**
 133:../STM32Cube_FW_N6/Drivers/STM32N6xx_HAL_Driver/Inc/stm32n6xx_ll_rcc.h ****   * @}
 134:../STM32Cube_FW_N6/Drivers/STM32N6xx_HAL_Driver/Inc/stm32n6xx_ll_rcc.h ****   */
 135:../STM32Cube_FW_N6/Drivers/STM32N6xx_HAL_Driver/Inc/stm32n6xx_ll_rcc.h **** 
 136:../STM32Cube_FW_N6/Drivers/STM32N6xx_HAL_Driver/Inc/stm32n6xx_ll_rcc.h **** /**
 137:../STM32Cube_FW_N6/Drivers/STM32N6xx_HAL_Driver/Inc/stm32n6xx_ll_rcc.h ****   * @}
 138:../STM32Cube_FW_N6/Drivers/STM32N6xx_HAL_Driver/Inc/stm32n6xx_ll_rcc.h ****   */
ARM GAS  /tmp/ccjTyagi.s 			page 11


 139:../STM32Cube_FW_N6/Drivers/STM32N6xx_HAL_Driver/Inc/stm32n6xx_ll_rcc.h **** 
 140:../STM32Cube_FW_N6/Drivers/STM32N6xx_HAL_Driver/Inc/stm32n6xx_ll_rcc.h **** /* Exported constants --------------------------------------------------------*/
 141:../STM32Cube_FW_N6/Drivers/STM32N6xx_HAL_Driver/Inc/stm32n6xx_ll_rcc.h **** /** @defgroup RCC_LL_Exported_Constants RCC Exported Constants
 142:../STM32Cube_FW_N6/Drivers/STM32N6xx_HAL_Driver/Inc/stm32n6xx_ll_rcc.h ****   * @{
 143:../STM32Cube_FW_N6/Drivers/STM32N6xx_HAL_Driver/Inc/stm32n6xx_ll_rcc.h ****   */
 144:../STM32Cube_FW_N6/Drivers/STM32N6xx_HAL_Driver/Inc/stm32n6xx_ll_rcc.h **** 
 145:../STM32Cube_FW_N6/Drivers/STM32N6xx_HAL_Driver/Inc/stm32n6xx_ll_rcc.h **** /** @defgroup RCC_LL_EC_OSC_VALUES Oscillator Values adaptation
 146:../STM32Cube_FW_N6/Drivers/STM32N6xx_HAL_Driver/Inc/stm32n6xx_ll_rcc.h ****   * @brief    Defines used to adapt values of different oscillators
 147:../STM32Cube_FW_N6/Drivers/STM32N6xx_HAL_Driver/Inc/stm32n6xx_ll_rcc.h ****   * @note     These values could be modified in the user environment according to
 148:../STM32Cube_FW_N6/Drivers/STM32N6xx_HAL_Driver/Inc/stm32n6xx_ll_rcc.h ****   *           HW set-up.
 149:../STM32Cube_FW_N6/Drivers/STM32N6xx_HAL_Driver/Inc/stm32n6xx_ll_rcc.h ****   * @{
 150:../STM32Cube_FW_N6/Drivers/STM32N6xx_HAL_Driver/Inc/stm32n6xx_ll_rcc.h ****   */
 151:../STM32Cube_FW_N6/Drivers/STM32N6xx_HAL_Driver/Inc/stm32n6xx_ll_rcc.h **** #if !defined  (HSE_VALUE)
 152:../STM32Cube_FW_N6/Drivers/STM32N6xx_HAL_Driver/Inc/stm32n6xx_ll_rcc.h **** #define HSE_VALUE    48000000U  /*!< Value of the HSE oscillator in Hz */
 153:../STM32Cube_FW_N6/Drivers/STM32N6xx_HAL_Driver/Inc/stm32n6xx_ll_rcc.h **** #endif /* HSE_VALUE */
 154:../STM32Cube_FW_N6/Drivers/STM32N6xx_HAL_Driver/Inc/stm32n6xx_ll_rcc.h **** 
 155:../STM32Cube_FW_N6/Drivers/STM32N6xx_HAL_Driver/Inc/stm32n6xx_ll_rcc.h **** #if !defined  (HSI_VALUE)
 156:../STM32Cube_FW_N6/Drivers/STM32N6xx_HAL_Driver/Inc/stm32n6xx_ll_rcc.h **** #define HSI_VALUE    64000000U  /*!< Value of the HSI oscillator in Hz */
 157:../STM32Cube_FW_N6/Drivers/STM32N6xx_HAL_Driver/Inc/stm32n6xx_ll_rcc.h **** #endif /* HSI_VALUE */
 158:../STM32Cube_FW_N6/Drivers/STM32N6xx_HAL_Driver/Inc/stm32n6xx_ll_rcc.h **** 
 159:../STM32Cube_FW_N6/Drivers/STM32N6xx_HAL_Driver/Inc/stm32n6xx_ll_rcc.h **** #if !defined  (MSI_VALUE)
 160:../STM32Cube_FW_N6/Drivers/STM32N6xx_HAL_Driver/Inc/stm32n6xx_ll_rcc.h **** #define MSI_VALUE    4000000U   /*!< Value of the MSI oscillator in Hz */
 161:../STM32Cube_FW_N6/Drivers/STM32N6xx_HAL_Driver/Inc/stm32n6xx_ll_rcc.h **** #endif /* MSI_VALUE */
 162:../STM32Cube_FW_N6/Drivers/STM32N6xx_HAL_Driver/Inc/stm32n6xx_ll_rcc.h **** 
 163:../STM32Cube_FW_N6/Drivers/STM32N6xx_HAL_Driver/Inc/stm32n6xx_ll_rcc.h **** #if !defined  (LSE_VALUE)
 164:../STM32Cube_FW_N6/Drivers/STM32N6xx_HAL_Driver/Inc/stm32n6xx_ll_rcc.h **** #define LSE_VALUE    32768U     /*!< Value of the LSE oscillator in Hz */
 165:../STM32Cube_FW_N6/Drivers/STM32N6xx_HAL_Driver/Inc/stm32n6xx_ll_rcc.h **** #endif /* LSE_VALUE */
 166:../STM32Cube_FW_N6/Drivers/STM32N6xx_HAL_Driver/Inc/stm32n6xx_ll_rcc.h **** 
 167:../STM32Cube_FW_N6/Drivers/STM32N6xx_HAL_Driver/Inc/stm32n6xx_ll_rcc.h **** #if !defined  (LSI_VALUE)
 168:../STM32Cube_FW_N6/Drivers/STM32N6xx_HAL_Driver/Inc/stm32n6xx_ll_rcc.h **** #define LSI_VALUE    32000U     /*!< Value of the LSI oscillator in Hz */
 169:../STM32Cube_FW_N6/Drivers/STM32N6xx_HAL_Driver/Inc/stm32n6xx_ll_rcc.h **** #endif /* LSI_VALUE */
 170:../STM32Cube_FW_N6/Drivers/STM32N6xx_HAL_Driver/Inc/stm32n6xx_ll_rcc.h **** 
 171:../STM32Cube_FW_N6/Drivers/STM32N6xx_HAL_Driver/Inc/stm32n6xx_ll_rcc.h **** #if !defined  (EXTERNAL_CLOCK_VALUE)
 172:../STM32Cube_FW_N6/Drivers/STM32N6xx_HAL_Driver/Inc/stm32n6xx_ll_rcc.h **** #define EXTERNAL_CLOCK_VALUE    12288000U /*!< Value of the I2S_CKIN external oscillator in Hz */
 173:../STM32Cube_FW_N6/Drivers/STM32N6xx_HAL_Driver/Inc/stm32n6xx_ll_rcc.h **** #endif /* EXTERNAL_CLOCK_VALUE */
 174:../STM32Cube_FW_N6/Drivers/STM32N6xx_HAL_Driver/Inc/stm32n6xx_ll_rcc.h **** 
 175:../STM32Cube_FW_N6/Drivers/STM32N6xx_HAL_Driver/Inc/stm32n6xx_ll_rcc.h **** /**
 176:../STM32Cube_FW_N6/Drivers/STM32N6xx_HAL_Driver/Inc/stm32n6xx_ll_rcc.h ****   * @}
 177:../STM32Cube_FW_N6/Drivers/STM32N6xx_HAL_Driver/Inc/stm32n6xx_ll_rcc.h ****   */
 178:../STM32Cube_FW_N6/Drivers/STM32N6xx_HAL_Driver/Inc/stm32n6xx_ll_rcc.h **** 
 179:../STM32Cube_FW_N6/Drivers/STM32N6xx_HAL_Driver/Inc/stm32n6xx_ll_rcc.h **** /** @defgroup RCC_LL_EC_HSIDIV  HSI oscillator divider
 180:../STM32Cube_FW_N6/Drivers/STM32N6xx_HAL_Driver/Inc/stm32n6xx_ll_rcc.h ****   * @{
 181:../STM32Cube_FW_N6/Drivers/STM32N6xx_HAL_Driver/Inc/stm32n6xx_ll_rcc.h ****   */
 182:../STM32Cube_FW_N6/Drivers/STM32N6xx_HAL_Driver/Inc/stm32n6xx_ll_rcc.h **** #define LL_RCC_HSI_DIV_1                   0U
 183:../STM32Cube_FW_N6/Drivers/STM32N6xx_HAL_Driver/Inc/stm32n6xx_ll_rcc.h **** #define LL_RCC_HSI_DIV_2                   RCC_HSICFGR_HSIDIV_0
 184:../STM32Cube_FW_N6/Drivers/STM32N6xx_HAL_Driver/Inc/stm32n6xx_ll_rcc.h **** #define LL_RCC_HSI_DIV_4                   RCC_HSICFGR_HSIDIV_1
 185:../STM32Cube_FW_N6/Drivers/STM32N6xx_HAL_Driver/Inc/stm32n6xx_ll_rcc.h **** #define LL_RCC_HSI_DIV_8                   RCC_HSICFGR_HSIDIV
 186:../STM32Cube_FW_N6/Drivers/STM32N6xx_HAL_Driver/Inc/stm32n6xx_ll_rcc.h **** /**
 187:../STM32Cube_FW_N6/Drivers/STM32N6xx_HAL_Driver/Inc/stm32n6xx_ll_rcc.h ****   * @}
 188:../STM32Cube_FW_N6/Drivers/STM32N6xx_HAL_Driver/Inc/stm32n6xx_ll_rcc.h ****   */
 189:../STM32Cube_FW_N6/Drivers/STM32N6xx_HAL_Driver/Inc/stm32n6xx_ll_rcc.h **** 
 190:../STM32Cube_FW_N6/Drivers/STM32N6xx_HAL_Driver/Inc/stm32n6xx_ll_rcc.h **** /** @defgroup RCC_LL_EC_MSIFREQ  MSI oscillator frequency select
 191:../STM32Cube_FW_N6/Drivers/STM32N6xx_HAL_Driver/Inc/stm32n6xx_ll_rcc.h ****   * @{
 192:../STM32Cube_FW_N6/Drivers/STM32N6xx_HAL_Driver/Inc/stm32n6xx_ll_rcc.h ****   */
 193:../STM32Cube_FW_N6/Drivers/STM32N6xx_HAL_Driver/Inc/stm32n6xx_ll_rcc.h **** #define LL_RCC_MSI_FREQ_4MHZ               0U
 194:../STM32Cube_FW_N6/Drivers/STM32N6xx_HAL_Driver/Inc/stm32n6xx_ll_rcc.h **** #define LL_RCC_MSI_FREQ_16MHZ              RCC_MSICFGR_MSIFREQSEL
 195:../STM32Cube_FW_N6/Drivers/STM32N6xx_HAL_Driver/Inc/stm32n6xx_ll_rcc.h **** /**
ARM GAS  /tmp/ccjTyagi.s 			page 12


 196:../STM32Cube_FW_N6/Drivers/STM32N6xx_HAL_Driver/Inc/stm32n6xx_ll_rcc.h ****   * @}
 197:../STM32Cube_FW_N6/Drivers/STM32N6xx_HAL_Driver/Inc/stm32n6xx_ll_rcc.h ****   */
 198:../STM32Cube_FW_N6/Drivers/STM32N6xx_HAL_Driver/Inc/stm32n6xx_ll_rcc.h **** 
 199:../STM32Cube_FW_N6/Drivers/STM32N6xx_HAL_Driver/Inc/stm32n6xx_ll_rcc.h **** /** @defgroup RCC_LL_EC_LSEDRIVE  LSE oscillator drive capability
 200:../STM32Cube_FW_N6/Drivers/STM32N6xx_HAL_Driver/Inc/stm32n6xx_ll_rcc.h ****   * @{
 201:../STM32Cube_FW_N6/Drivers/STM32N6xx_HAL_Driver/Inc/stm32n6xx_ll_rcc.h ****   */
 202:../STM32Cube_FW_N6/Drivers/STM32N6xx_HAL_Driver/Inc/stm32n6xx_ll_rcc.h **** #define LL_RCC_LSEDRIVE_LOW                0U
 203:../STM32Cube_FW_N6/Drivers/STM32N6xx_HAL_Driver/Inc/stm32n6xx_ll_rcc.h **** #define LL_RCC_LSEDRIVE_MEDIUMLOW          RCC_LSECFGR_LSEDRV_1
 204:../STM32Cube_FW_N6/Drivers/STM32N6xx_HAL_Driver/Inc/stm32n6xx_ll_rcc.h **** #define LL_RCC_LSEDRIVE_MEDIUMHIGH         RCC_LSECFGR_LSEDRV_0
 205:../STM32Cube_FW_N6/Drivers/STM32N6xx_HAL_Driver/Inc/stm32n6xx_ll_rcc.h **** #define LL_RCC_LSEDRIVE_HIGH               RCC_LSECFGR_LSEDRV
 206:../STM32Cube_FW_N6/Drivers/STM32N6xx_HAL_Driver/Inc/stm32n6xx_ll_rcc.h **** /**
 207:../STM32Cube_FW_N6/Drivers/STM32N6xx_HAL_Driver/Inc/stm32n6xx_ll_rcc.h ****   * @}
 208:../STM32Cube_FW_N6/Drivers/STM32N6xx_HAL_Driver/Inc/stm32n6xx_ll_rcc.h ****   */
 209:../STM32Cube_FW_N6/Drivers/STM32N6xx_HAL_Driver/Inc/stm32n6xx_ll_rcc.h **** 
 210:../STM32Cube_FW_N6/Drivers/STM32N6xx_HAL_Driver/Inc/stm32n6xx_ll_rcc.h **** /** @defgroup RCC_LL_EC_HSECSSBYP_DIV  HSI divider to apply for replacement of HSE on CSS bypass
 211:../STM32Cube_FW_N6/Drivers/STM32N6xx_HAL_Driver/Inc/stm32n6xx_ll_rcc.h ****   * @{
 212:../STM32Cube_FW_N6/Drivers/STM32N6xx_HAL_Driver/Inc/stm32n6xx_ll_rcc.h ****   */
 213:../STM32Cube_FW_N6/Drivers/STM32N6xx_HAL_Driver/Inc/stm32n6xx_ll_rcc.h **** #define LL_RCC_HSECSSBYP_DIV_1             0U
 214:../STM32Cube_FW_N6/Drivers/STM32N6xx_HAL_Driver/Inc/stm32n6xx_ll_rcc.h **** #define LL_RCC_HSECSSBYP_DIV_2             RCC_HSECFGR_HSECSSBPRE_0
 215:../STM32Cube_FW_N6/Drivers/STM32N6xx_HAL_Driver/Inc/stm32n6xx_ll_rcc.h **** #define LL_RCC_HSECSSBYP_DIV_3             RCC_HSECFGR_HSECSSBPRE_1
 216:../STM32Cube_FW_N6/Drivers/STM32N6xx_HAL_Driver/Inc/stm32n6xx_ll_rcc.h **** #define LL_RCC_HSECSSBYP_DIV_4             (RCC_HSECFGR_HSECSSBPRE_1 | RCC_HSECFGR_HSECSSBPRE_0)
 217:../STM32Cube_FW_N6/Drivers/STM32N6xx_HAL_Driver/Inc/stm32n6xx_ll_rcc.h **** #define LL_RCC_HSECSSBYP_DIV_5             RCC_HSECFGR_HSECSSBPRE_2
 218:../STM32Cube_FW_N6/Drivers/STM32N6xx_HAL_Driver/Inc/stm32n6xx_ll_rcc.h **** #define LL_RCC_HSECSSBYP_DIV_6             (RCC_HSECFGR_HSECSSBPRE_2 | RCC_HSECFGR_HSECSSBPRE_0)
 219:../STM32Cube_FW_N6/Drivers/STM32N6xx_HAL_Driver/Inc/stm32n6xx_ll_rcc.h **** #define LL_RCC_HSECSSBYP_DIV_7             (RCC_HSECFGR_HSECSSBPRE_2 | RCC_HSECFGR_HSECSSBPRE_1)
 220:../STM32Cube_FW_N6/Drivers/STM32N6xx_HAL_Driver/Inc/stm32n6xx_ll_rcc.h **** #define LL_RCC_HSECSSBYP_DIV_8             (RCC_HSECFGR_HSECSSBPRE_2 |\
 221:../STM32Cube_FW_N6/Drivers/STM32N6xx_HAL_Driver/Inc/stm32n6xx_ll_rcc.h ****                                             RCC_HSECFGR_HSECSSBPRE_1 | RCC_HSECFGR_HSECSSBPRE_0)
 222:../STM32Cube_FW_N6/Drivers/STM32N6xx_HAL_Driver/Inc/stm32n6xx_ll_rcc.h **** #define LL_RCC_HSECSSBYP_DIV_9             RCC_HSECFGR_HSECSSBPRE_3
 223:../STM32Cube_FW_N6/Drivers/STM32N6xx_HAL_Driver/Inc/stm32n6xx_ll_rcc.h **** #define LL_RCC_HSECSSBYP_DIV_10            (RCC_HSECFGR_HSECSSBPRE_3 | RCC_HSECFGR_HSECSSBPRE_0)
 224:../STM32Cube_FW_N6/Drivers/STM32N6xx_HAL_Driver/Inc/stm32n6xx_ll_rcc.h **** #define LL_RCC_HSECSSBYP_DIV_11            (RCC_HSECFGR_HSECSSBPRE_3 | RCC_HSECFGR_HSECSSBPRE_1)
 225:../STM32Cube_FW_N6/Drivers/STM32N6xx_HAL_Driver/Inc/stm32n6xx_ll_rcc.h **** #define LL_RCC_HSECSSBYP_DIV_12            (RCC_HSECFGR_HSECSSBPRE_3 |\
 226:../STM32Cube_FW_N6/Drivers/STM32N6xx_HAL_Driver/Inc/stm32n6xx_ll_rcc.h ****                                             RCC_HSECFGR_HSECSSBPRE_1 | RCC_HSECFGR_HSECSSBPRE_0)
 227:../STM32Cube_FW_N6/Drivers/STM32N6xx_HAL_Driver/Inc/stm32n6xx_ll_rcc.h **** #define LL_RCC_HSECSSBYP_DIV_13            (RCC_HSECFGR_HSECSSBPRE_3 | RCC_HSECFGR_HSECSSBPRE_2)
 228:../STM32Cube_FW_N6/Drivers/STM32N6xx_HAL_Driver/Inc/stm32n6xx_ll_rcc.h **** #define LL_RCC_HSECSSBYP_DIV_14            (RCC_HSECFGR_HSECSSBPRE_3 |\
 229:../STM32Cube_FW_N6/Drivers/STM32N6xx_HAL_Driver/Inc/stm32n6xx_ll_rcc.h ****                                             RCC_HSECFGR_HSECSSBPRE_2 | RCC_HSECFGR_HSECSSBPRE_0)
 230:../STM32Cube_FW_N6/Drivers/STM32N6xx_HAL_Driver/Inc/stm32n6xx_ll_rcc.h **** #define LL_RCC_HSECSSBYP_DIV_15            (RCC_HSECFGR_HSECSSBPRE_3 |\
 231:../STM32Cube_FW_N6/Drivers/STM32N6xx_HAL_Driver/Inc/stm32n6xx_ll_rcc.h ****                                             RCC_HSECFGR_HSECSSBPRE_2 | RCC_HSECFGR_HSECSSBPRE_1)
 232:../STM32Cube_FW_N6/Drivers/STM32N6xx_HAL_Driver/Inc/stm32n6xx_ll_rcc.h **** #define LL_RCC_HSECSSBYP_DIV_16            (RCC_HSECFGR_HSECSSBPRE_3 | RCC_HSECFGR_HSECSSBPRE_2 |\
 233:../STM32Cube_FW_N6/Drivers/STM32N6xx_HAL_Driver/Inc/stm32n6xx_ll_rcc.h ****                                             RCC_HSECFGR_HSECSSBPRE_1 | RCC_HSECFGR_HSECSSBPRE_0)
 234:../STM32Cube_FW_N6/Drivers/STM32N6xx_HAL_Driver/Inc/stm32n6xx_ll_rcc.h **** /**
 235:../STM32Cube_FW_N6/Drivers/STM32N6xx_HAL_Driver/Inc/stm32n6xx_ll_rcc.h ****   * @}
 236:../STM32Cube_FW_N6/Drivers/STM32N6xx_HAL_Driver/Inc/stm32n6xx_ll_rcc.h ****   */
 237:../STM32Cube_FW_N6/Drivers/STM32N6xx_HAL_Driver/Inc/stm32n6xx_ll_rcc.h **** 
 238:../STM32Cube_FW_N6/Drivers/STM32N6xx_HAL_Driver/Inc/stm32n6xx_ll_rcc.h **** 
 239:../STM32Cube_FW_N6/Drivers/STM32N6xx_HAL_Driver/Inc/stm32n6xx_ll_rcc.h **** /** @defgroup RCC_LL_EC_CPU_CLKSOURCE  CPU clock switch
 240:../STM32Cube_FW_N6/Drivers/STM32N6xx_HAL_Driver/Inc/stm32n6xx_ll_rcc.h ****   * @{
 241:../STM32Cube_FW_N6/Drivers/STM32N6xx_HAL_Driver/Inc/stm32n6xx_ll_rcc.h ****   */
 242:../STM32Cube_FW_N6/Drivers/STM32N6xx_HAL_Driver/Inc/stm32n6xx_ll_rcc.h **** #define LL_RCC_CPU_CLKSOURCE_HSI           0U                                       /*!< Select HSI
 243:../STM32Cube_FW_N6/Drivers/STM32N6xx_HAL_Driver/Inc/stm32n6xx_ll_rcc.h **** #define LL_RCC_CPU_CLKSOURCE_MSI           RCC_CFGR1_CPUSW_0                        /*!< Select MSI
 244:../STM32Cube_FW_N6/Drivers/STM32N6xx_HAL_Driver/Inc/stm32n6xx_ll_rcc.h **** #define LL_RCC_CPU_CLKSOURCE_HSE           RCC_CFGR1_CPUSW_1                        /*!< Select HSE
 245:../STM32Cube_FW_N6/Drivers/STM32N6xx_HAL_Driver/Inc/stm32n6xx_ll_rcc.h **** #define LL_RCC_CPU_CLKSOURCE_IC1           (RCC_CFGR1_CPUSW_1 | RCC_CFGR1_CPUSW_0)  /*!< Select IC1
 246:../STM32Cube_FW_N6/Drivers/STM32N6xx_HAL_Driver/Inc/stm32n6xx_ll_rcc.h **** /**
 247:../STM32Cube_FW_N6/Drivers/STM32N6xx_HAL_Driver/Inc/stm32n6xx_ll_rcc.h ****   * @}
 248:../STM32Cube_FW_N6/Drivers/STM32N6xx_HAL_Driver/Inc/stm32n6xx_ll_rcc.h ****   */
 249:../STM32Cube_FW_N6/Drivers/STM32N6xx_HAL_Driver/Inc/stm32n6xx_ll_rcc.h **** 
 250:../STM32Cube_FW_N6/Drivers/STM32N6xx_HAL_Driver/Inc/stm32n6xx_ll_rcc.h **** /** @defgroup RCC_LL_EC_CPU_CLKSOURCE_STATUS  CPU clock switch status
 251:../STM32Cube_FW_N6/Drivers/STM32N6xx_HAL_Driver/Inc/stm32n6xx_ll_rcc.h ****   * @{
 252:../STM32Cube_FW_N6/Drivers/STM32N6xx_HAL_Driver/Inc/stm32n6xx_ll_rcc.h ****   */
ARM GAS  /tmp/ccjTyagi.s 			page 13


 253:../STM32Cube_FW_N6/Drivers/STM32N6xx_HAL_Driver/Inc/stm32n6xx_ll_rcc.h **** #define LL_RCC_CPU_CLKSOURCE_STATUS_HSI    0U                                        /*!< HSI used 
 254:../STM32Cube_FW_N6/Drivers/STM32N6xx_HAL_Driver/Inc/stm32n6xx_ll_rcc.h **** #define LL_RCC_CPU_CLKSOURCE_STATUS_MSI    RCC_CFGR1_CPUSWS_0                        /*!< MSI used 
 255:../STM32Cube_FW_N6/Drivers/STM32N6xx_HAL_Driver/Inc/stm32n6xx_ll_rcc.h **** #define LL_RCC_CPU_CLKSOURCE_STATUS_HSE    RCC_CFGR1_CPUSWS_1                        /*!< HSE used 
 256:../STM32Cube_FW_N6/Drivers/STM32N6xx_HAL_Driver/Inc/stm32n6xx_ll_rcc.h **** #define LL_RCC_CPU_CLKSOURCE_STATUS_IC1    (RCC_CFGR1_CPUSWS_1 | RCC_CFGR1_CPUSWS_0) /*!< IC1 used 
 257:../STM32Cube_FW_N6/Drivers/STM32N6xx_HAL_Driver/Inc/stm32n6xx_ll_rcc.h **** /**
 258:../STM32Cube_FW_N6/Drivers/STM32N6xx_HAL_Driver/Inc/stm32n6xx_ll_rcc.h ****   * @}
 259:../STM32Cube_FW_N6/Drivers/STM32N6xx_HAL_Driver/Inc/stm32n6xx_ll_rcc.h ****   */
 260:../STM32Cube_FW_N6/Drivers/STM32N6xx_HAL_Driver/Inc/stm32n6xx_ll_rcc.h **** 
 261:../STM32Cube_FW_N6/Drivers/STM32N6xx_HAL_Driver/Inc/stm32n6xx_ll_rcc.h **** /** @defgroup RCC_LL_EC_SYS_CLKSOURCE  System bus clock switch
 262:../STM32Cube_FW_N6/Drivers/STM32N6xx_HAL_Driver/Inc/stm32n6xx_ll_rcc.h ****   * @{
 263:../STM32Cube_FW_N6/Drivers/STM32N6xx_HAL_Driver/Inc/stm32n6xx_ll_rcc.h ****   */
 264:../STM32Cube_FW_N6/Drivers/STM32N6xx_HAL_Driver/Inc/stm32n6xx_ll_rcc.h **** #define LL_RCC_SYS_CLKSOURCE_HSI           0U                                        /*!< Select HS
 265:../STM32Cube_FW_N6/Drivers/STM32N6xx_HAL_Driver/Inc/stm32n6xx_ll_rcc.h **** #define LL_RCC_SYS_CLKSOURCE_MSI           RCC_CFGR1_SYSSW_0                         /*!< Select MS
 266:../STM32Cube_FW_N6/Drivers/STM32N6xx_HAL_Driver/Inc/stm32n6xx_ll_rcc.h **** #define LL_RCC_SYS_CLKSOURCE_HSE           RCC_CFGR1_SYSSW_1                         /*!< Select HS
 267:../STM32Cube_FW_N6/Drivers/STM32N6xx_HAL_Driver/Inc/stm32n6xx_ll_rcc.h **** #define LL_RCC_SYS_CLKSOURCE_IC2_IC6_IC11  (RCC_CFGR1_SYSSW_1 | RCC_CFGR1_SYSSW_0)   /*!< Select IC
 268:../STM32Cube_FW_N6/Drivers/STM32N6xx_HAL_Driver/Inc/stm32n6xx_ll_rcc.h **** /**
 269:../STM32Cube_FW_N6/Drivers/STM32N6xx_HAL_Driver/Inc/stm32n6xx_ll_rcc.h ****   * @}
 270:../STM32Cube_FW_N6/Drivers/STM32N6xx_HAL_Driver/Inc/stm32n6xx_ll_rcc.h ****   */
 271:../STM32Cube_FW_N6/Drivers/STM32N6xx_HAL_Driver/Inc/stm32n6xx_ll_rcc.h **** 
 272:../STM32Cube_FW_N6/Drivers/STM32N6xx_HAL_Driver/Inc/stm32n6xx_ll_rcc.h **** /** @defgroup RCC_LL_EC_SYS_CLKSOURCE_STATUS  System bus clock switch status
 273:../STM32Cube_FW_N6/Drivers/STM32N6xx_HAL_Driver/Inc/stm32n6xx_ll_rcc.h ****   * @{
 274:../STM32Cube_FW_N6/Drivers/STM32N6xx_HAL_Driver/Inc/stm32n6xx_ll_rcc.h ****   */
 275:../STM32Cube_FW_N6/Drivers/STM32N6xx_HAL_Driver/Inc/stm32n6xx_ll_rcc.h **** #define LL_RCC_SYS_CLKSOURCE_STATUS_HSI    0U                                        /*!< HSI used 
 276:../STM32Cube_FW_N6/Drivers/STM32N6xx_HAL_Driver/Inc/stm32n6xx_ll_rcc.h **** #define LL_RCC_SYS_CLKSOURCE_STATUS_MSI    RCC_CFGR1_SYSSWS_0                        /*!< MSI used 
 277:../STM32Cube_FW_N6/Drivers/STM32N6xx_HAL_Driver/Inc/stm32n6xx_ll_rcc.h **** #define LL_RCC_SYS_CLKSOURCE_STATUS_HSE    RCC_CFGR1_SYSSWS_1                        /*!< HSE used 
 278:../STM32Cube_FW_N6/Drivers/STM32N6xx_HAL_Driver/Inc/stm32n6xx_ll_rcc.h **** #define LL_RCC_SYS_CLKSOURCE_STATUS_IC2_IC6_IC11 (RCC_CFGR1_SYSSWS_1 | RCC_CFGR1_SYSSWS_0) /*!< IC2
 279:../STM32Cube_FW_N6/Drivers/STM32N6xx_HAL_Driver/Inc/stm32n6xx_ll_rcc.h **** /**
 280:../STM32Cube_FW_N6/Drivers/STM32N6xx_HAL_Driver/Inc/stm32n6xx_ll_rcc.h ****   * @}
 281:../STM32Cube_FW_N6/Drivers/STM32N6xx_HAL_Driver/Inc/stm32n6xx_ll_rcc.h ****   */
 282:../STM32Cube_FW_N6/Drivers/STM32N6xx_HAL_Driver/Inc/stm32n6xx_ll_rcc.h **** 
 283:../STM32Cube_FW_N6/Drivers/STM32N6xx_HAL_Driver/Inc/stm32n6xx_ll_rcc.h **** /** @defgroup RCC_LL_EC_SYSWAKEUP_CLKSOURCE  System wakeup clock source
 284:../STM32Cube_FW_N6/Drivers/STM32N6xx_HAL_Driver/Inc/stm32n6xx_ll_rcc.h ****   * @{
 285:../STM32Cube_FW_N6/Drivers/STM32N6xx_HAL_Driver/Inc/stm32n6xx_ll_rcc.h ****   */
 286:../STM32Cube_FW_N6/Drivers/STM32N6xx_HAL_Driver/Inc/stm32n6xx_ll_rcc.h **** #define LL_RCC_SYSWAKEUP_CLKSOURCE_HSI     0U
 287:../STM32Cube_FW_N6/Drivers/STM32N6xx_HAL_Driver/Inc/stm32n6xx_ll_rcc.h **** #define LL_RCC_SYSWAKEUP_CLKSOURCE_MSI     RCC_CFGR1_STOPWUCK
 288:../STM32Cube_FW_N6/Drivers/STM32N6xx_HAL_Driver/Inc/stm32n6xx_ll_rcc.h **** /**
 289:../STM32Cube_FW_N6/Drivers/STM32N6xx_HAL_Driver/Inc/stm32n6xx_ll_rcc.h ****   * @}
 290:../STM32Cube_FW_N6/Drivers/STM32N6xx_HAL_Driver/Inc/stm32n6xx_ll_rcc.h ****   */
 291:../STM32Cube_FW_N6/Drivers/STM32N6xx_HAL_Driver/Inc/stm32n6xx_ll_rcc.h **** 
 292:../STM32Cube_FW_N6/Drivers/STM32N6xx_HAL_Driver/Inc/stm32n6xx_ll_rcc.h **** /** @defgroup RCC_LL_EC_AHB_DIV  AHB prescaler
 293:../STM32Cube_FW_N6/Drivers/STM32N6xx_HAL_Driver/Inc/stm32n6xx_ll_rcc.h ****   * @{
 294:../STM32Cube_FW_N6/Drivers/STM32N6xx_HAL_Driver/Inc/stm32n6xx_ll_rcc.h ****   */
 295:../STM32Cube_FW_N6/Drivers/STM32N6xx_HAL_Driver/Inc/stm32n6xx_ll_rcc.h **** #define LL_RCC_AHB_DIV_1                   0U
 296:../STM32Cube_FW_N6/Drivers/STM32N6xx_HAL_Driver/Inc/stm32n6xx_ll_rcc.h **** #define LL_RCC_AHB_DIV_2                   RCC_CFGR2_HPRE_0
 297:../STM32Cube_FW_N6/Drivers/STM32N6xx_HAL_Driver/Inc/stm32n6xx_ll_rcc.h **** #define LL_RCC_AHB_DIV_4                   RCC_CFGR2_HPRE_1
 298:../STM32Cube_FW_N6/Drivers/STM32N6xx_HAL_Driver/Inc/stm32n6xx_ll_rcc.h **** #define LL_RCC_AHB_DIV_8                   (RCC_CFGR2_HPRE_1 | RCC_CFGR2_HPRE_0)
 299:../STM32Cube_FW_N6/Drivers/STM32N6xx_HAL_Driver/Inc/stm32n6xx_ll_rcc.h **** #define LL_RCC_AHB_DIV_16                  RCC_CFGR2_HPRE_2
 300:../STM32Cube_FW_N6/Drivers/STM32N6xx_HAL_Driver/Inc/stm32n6xx_ll_rcc.h **** #define LL_RCC_AHB_DIV_32                  (RCC_CFGR2_HPRE_2 | RCC_CFGR2_HPRE_0)
 301:../STM32Cube_FW_N6/Drivers/STM32N6xx_HAL_Driver/Inc/stm32n6xx_ll_rcc.h **** #define LL_RCC_AHB_DIV_64                  (RCC_CFGR2_HPRE_2 | RCC_CFGR2_HPRE_1)
 302:../STM32Cube_FW_N6/Drivers/STM32N6xx_HAL_Driver/Inc/stm32n6xx_ll_rcc.h **** #define LL_RCC_AHB_DIV_128                 (RCC_CFGR2_HPRE_2 | RCC_CFGR2_HPRE_1 | RCC_CFGR2_HPRE_0)
 303:../STM32Cube_FW_N6/Drivers/STM32N6xx_HAL_Driver/Inc/stm32n6xx_ll_rcc.h **** /**
 304:../STM32Cube_FW_N6/Drivers/STM32N6xx_HAL_Driver/Inc/stm32n6xx_ll_rcc.h ****   * @}
 305:../STM32Cube_FW_N6/Drivers/STM32N6xx_HAL_Driver/Inc/stm32n6xx_ll_rcc.h ****   */
 306:../STM32Cube_FW_N6/Drivers/STM32N6xx_HAL_Driver/Inc/stm32n6xx_ll_rcc.h **** 
 307:../STM32Cube_FW_N6/Drivers/STM32N6xx_HAL_Driver/Inc/stm32n6xx_ll_rcc.h **** /** @defgroup RCC_LL_EC_APB1_DIV  APB1 prescaler
 308:../STM32Cube_FW_N6/Drivers/STM32N6xx_HAL_Driver/Inc/stm32n6xx_ll_rcc.h ****   * @{
 309:../STM32Cube_FW_N6/Drivers/STM32N6xx_HAL_Driver/Inc/stm32n6xx_ll_rcc.h ****   */
ARM GAS  /tmp/ccjTyagi.s 			page 14


 310:../STM32Cube_FW_N6/Drivers/STM32N6xx_HAL_Driver/Inc/stm32n6xx_ll_rcc.h **** #define LL_RCC_APB1_DIV_1                  0U
 311:../STM32Cube_FW_N6/Drivers/STM32N6xx_HAL_Driver/Inc/stm32n6xx_ll_rcc.h **** #define LL_RCC_APB1_DIV_2                  RCC_CFGR2_PPRE1_0
 312:../STM32Cube_FW_N6/Drivers/STM32N6xx_HAL_Driver/Inc/stm32n6xx_ll_rcc.h **** #define LL_RCC_APB1_DIV_4                  RCC_CFGR2_PPRE1_1
 313:../STM32Cube_FW_N6/Drivers/STM32N6xx_HAL_Driver/Inc/stm32n6xx_ll_rcc.h **** #define LL_RCC_APB1_DIV_8                  (RCC_CFGR2_PPRE1_1 | RCC_CFGR2_PPRE1_0)
 314:../STM32Cube_FW_N6/Drivers/STM32N6xx_HAL_Driver/Inc/stm32n6xx_ll_rcc.h **** #define LL_RCC_APB1_DIV_16                 RCC_CFGR2_PPRE1_2
 315:../STM32Cube_FW_N6/Drivers/STM32N6xx_HAL_Driver/Inc/stm32n6xx_ll_rcc.h **** #define LL_RCC_APB1_DIV_32                 (RCC_CFGR2_PPRE1_2 | RCC_CFGR2_PPRE1_0)
 316:../STM32Cube_FW_N6/Drivers/STM32N6xx_HAL_Driver/Inc/stm32n6xx_ll_rcc.h **** #define LL_RCC_APB1_DIV_64                 (RCC_CFGR2_PPRE1_2 | RCC_CFGR2_PPRE1_1)
 317:../STM32Cube_FW_N6/Drivers/STM32N6xx_HAL_Driver/Inc/stm32n6xx_ll_rcc.h **** #define LL_RCC_APB1_DIV_128                (RCC_CFGR2_PPRE1_2 | RCC_CFGR2_PPRE1_1 | RCC_CFGR2_PPRE1
 318:../STM32Cube_FW_N6/Drivers/STM32N6xx_HAL_Driver/Inc/stm32n6xx_ll_rcc.h **** /**
 319:../STM32Cube_FW_N6/Drivers/STM32N6xx_HAL_Driver/Inc/stm32n6xx_ll_rcc.h ****   * @}
 320:../STM32Cube_FW_N6/Drivers/STM32N6xx_HAL_Driver/Inc/stm32n6xx_ll_rcc.h ****   */
 321:../STM32Cube_FW_N6/Drivers/STM32N6xx_HAL_Driver/Inc/stm32n6xx_ll_rcc.h **** 
 322:../STM32Cube_FW_N6/Drivers/STM32N6xx_HAL_Driver/Inc/stm32n6xx_ll_rcc.h **** /** @defgroup RCC_LL_EC_APB2_DIV  APB2 prescaler
 323:../STM32Cube_FW_N6/Drivers/STM32N6xx_HAL_Driver/Inc/stm32n6xx_ll_rcc.h ****   * @{
 324:../STM32Cube_FW_N6/Drivers/STM32N6xx_HAL_Driver/Inc/stm32n6xx_ll_rcc.h ****   */
 325:../STM32Cube_FW_N6/Drivers/STM32N6xx_HAL_Driver/Inc/stm32n6xx_ll_rcc.h **** #define LL_RCC_APB2_DIV_1                  0U
 326:../STM32Cube_FW_N6/Drivers/STM32N6xx_HAL_Driver/Inc/stm32n6xx_ll_rcc.h **** #define LL_RCC_APB2_DIV_2                  RCC_CFGR2_PPRE2_0
 327:../STM32Cube_FW_N6/Drivers/STM32N6xx_HAL_Driver/Inc/stm32n6xx_ll_rcc.h **** #define LL_RCC_APB2_DIV_4                  RCC_CFGR2_PPRE2_1
 328:../STM32Cube_FW_N6/Drivers/STM32N6xx_HAL_Driver/Inc/stm32n6xx_ll_rcc.h **** #define LL_RCC_APB2_DIV_8                  (RCC_CFGR2_PPRE2_1 | RCC_CFGR2_PPRE2_0)
 329:../STM32Cube_FW_N6/Drivers/STM32N6xx_HAL_Driver/Inc/stm32n6xx_ll_rcc.h **** #define LL_RCC_APB2_DIV_16                 RCC_CFGR2_PPRE2_2
 330:../STM32Cube_FW_N6/Drivers/STM32N6xx_HAL_Driver/Inc/stm32n6xx_ll_rcc.h **** #define LL_RCC_APB2_DIV_32                 (RCC_CFGR2_PPRE2_2 | RCC_CFGR2_PPRE2_0)
 331:../STM32Cube_FW_N6/Drivers/STM32N6xx_HAL_Driver/Inc/stm32n6xx_ll_rcc.h **** #define LL_RCC_APB2_DIV_64                 (RCC_CFGR2_PPRE2_2 | RCC_CFGR2_PPRE2_1)
 332:../STM32Cube_FW_N6/Drivers/STM32N6xx_HAL_Driver/Inc/stm32n6xx_ll_rcc.h **** #define LL_RCC_APB2_DIV_128                (RCC_CFGR2_PPRE2_2 | RCC_CFGR2_PPRE2_1 | RCC_CFGR2_PPRE2
 333:../STM32Cube_FW_N6/Drivers/STM32N6xx_HAL_Driver/Inc/stm32n6xx_ll_rcc.h **** /**
 334:../STM32Cube_FW_N6/Drivers/STM32N6xx_HAL_Driver/Inc/stm32n6xx_ll_rcc.h ****   * @}
 335:../STM32Cube_FW_N6/Drivers/STM32N6xx_HAL_Driver/Inc/stm32n6xx_ll_rcc.h ****   */
 336:../STM32Cube_FW_N6/Drivers/STM32N6xx_HAL_Driver/Inc/stm32n6xx_ll_rcc.h **** 
 337:../STM32Cube_FW_N6/Drivers/STM32N6xx_HAL_Driver/Inc/stm32n6xx_ll_rcc.h **** /** @defgroup RCC_LL_EC_APB4_DIV  APB4 prescaler
 338:../STM32Cube_FW_N6/Drivers/STM32N6xx_HAL_Driver/Inc/stm32n6xx_ll_rcc.h ****   * @{
 339:../STM32Cube_FW_N6/Drivers/STM32N6xx_HAL_Driver/Inc/stm32n6xx_ll_rcc.h ****   */
 340:../STM32Cube_FW_N6/Drivers/STM32N6xx_HAL_Driver/Inc/stm32n6xx_ll_rcc.h **** #define LL_RCC_APB4_DIV_1                  0U
 341:../STM32Cube_FW_N6/Drivers/STM32N6xx_HAL_Driver/Inc/stm32n6xx_ll_rcc.h **** #define LL_RCC_APB4_DIV_2                  RCC_CFGR2_PPRE4_0
 342:../STM32Cube_FW_N6/Drivers/STM32N6xx_HAL_Driver/Inc/stm32n6xx_ll_rcc.h **** #define LL_RCC_APB4_DIV_4                  RCC_CFGR2_PPRE4_1
 343:../STM32Cube_FW_N6/Drivers/STM32N6xx_HAL_Driver/Inc/stm32n6xx_ll_rcc.h **** #define LL_RCC_APB4_DIV_8                  (RCC_CFGR2_PPRE4_1 | RCC_CFGR2_PPRE4_0)
 344:../STM32Cube_FW_N6/Drivers/STM32N6xx_HAL_Driver/Inc/stm32n6xx_ll_rcc.h **** #define LL_RCC_APB4_DIV_16                 RCC_CFGR2_PPRE4_2
 345:../STM32Cube_FW_N6/Drivers/STM32N6xx_HAL_Driver/Inc/stm32n6xx_ll_rcc.h **** #define LL_RCC_APB4_DIV_32                 (RCC_CFGR2_PPRE4_2 | RCC_CFGR2_PPRE4_0)
 346:../STM32Cube_FW_N6/Drivers/STM32N6xx_HAL_Driver/Inc/stm32n6xx_ll_rcc.h **** #define LL_RCC_APB4_DIV_64                 (RCC_CFGR2_PPRE4_2 | RCC_CFGR2_PPRE4_1)
 347:../STM32Cube_FW_N6/Drivers/STM32N6xx_HAL_Driver/Inc/stm32n6xx_ll_rcc.h **** #define LL_RCC_APB4_DIV_128                (RCC_CFGR2_PPRE4_2 | RCC_CFGR2_PPRE4_1 | RCC_CFGR2_PPRE4
 348:../STM32Cube_FW_N6/Drivers/STM32N6xx_HAL_Driver/Inc/stm32n6xx_ll_rcc.h **** /**
 349:../STM32Cube_FW_N6/Drivers/STM32N6xx_HAL_Driver/Inc/stm32n6xx_ll_rcc.h ****   * @}
 350:../STM32Cube_FW_N6/Drivers/STM32N6xx_HAL_Driver/Inc/stm32n6xx_ll_rcc.h ****   */
 351:../STM32Cube_FW_N6/Drivers/STM32N6xx_HAL_Driver/Inc/stm32n6xx_ll_rcc.h **** 
 352:../STM32Cube_FW_N6/Drivers/STM32N6xx_HAL_Driver/Inc/stm32n6xx_ll_rcc.h **** /** @defgroup RCC_LL_EC_APB5_DIV  APB5 prescaler
 353:../STM32Cube_FW_N6/Drivers/STM32N6xx_HAL_Driver/Inc/stm32n6xx_ll_rcc.h ****   * @{
 354:../STM32Cube_FW_N6/Drivers/STM32N6xx_HAL_Driver/Inc/stm32n6xx_ll_rcc.h ****   */
 355:../STM32Cube_FW_N6/Drivers/STM32N6xx_HAL_Driver/Inc/stm32n6xx_ll_rcc.h **** #define LL_RCC_APB5_DIV_1                  0U
 356:../STM32Cube_FW_N6/Drivers/STM32N6xx_HAL_Driver/Inc/stm32n6xx_ll_rcc.h **** #define LL_RCC_APB5_DIV_2                  RCC_CFGR2_PPRE5_0
 357:../STM32Cube_FW_N6/Drivers/STM32N6xx_HAL_Driver/Inc/stm32n6xx_ll_rcc.h **** #define LL_RCC_APB5_DIV_4                  RCC_CFGR2_PPRE5_1
 358:../STM32Cube_FW_N6/Drivers/STM32N6xx_HAL_Driver/Inc/stm32n6xx_ll_rcc.h **** #define LL_RCC_APB5_DIV_8                  (RCC_CFGR2_PPRE5_1 | RCC_CFGR2_PPRE5_0)
 359:../STM32Cube_FW_N6/Drivers/STM32N6xx_HAL_Driver/Inc/stm32n6xx_ll_rcc.h **** #define LL_RCC_APB5_DIV_16                 RCC_CFGR2_PPRE5_2
 360:../STM32Cube_FW_N6/Drivers/STM32N6xx_HAL_Driver/Inc/stm32n6xx_ll_rcc.h **** #define LL_RCC_APB5_DIV_32                 (RCC_CFGR2_PPRE5_2 | RCC_CFGR2_PPRE5_0)
 361:../STM32Cube_FW_N6/Drivers/STM32N6xx_HAL_Driver/Inc/stm32n6xx_ll_rcc.h **** #define LL_RCC_APB5_DIV_64                 (RCC_CFGR2_PPRE5_2 | RCC_CFGR2_PPRE5_1)
 362:../STM32Cube_FW_N6/Drivers/STM32N6xx_HAL_Driver/Inc/stm32n6xx_ll_rcc.h **** #define LL_RCC_APB5_DIV_128                (RCC_CFGR2_PPRE5_2 | RCC_CFGR2_PPRE5_1 | RCC_CFGR2_PPRE5
 363:../STM32Cube_FW_N6/Drivers/STM32N6xx_HAL_Driver/Inc/stm32n6xx_ll_rcc.h **** /**
 364:../STM32Cube_FW_N6/Drivers/STM32N6xx_HAL_Driver/Inc/stm32n6xx_ll_rcc.h ****   * @}
 365:../STM32Cube_FW_N6/Drivers/STM32N6xx_HAL_Driver/Inc/stm32n6xx_ll_rcc.h ****   */
 366:../STM32Cube_FW_N6/Drivers/STM32N6xx_HAL_Driver/Inc/stm32n6xx_ll_rcc.h **** 
ARM GAS  /tmp/ccjTyagi.s 			page 15


 367:../STM32Cube_FW_N6/Drivers/STM32N6xx_HAL_Driver/Inc/stm32n6xx_ll_rcc.h **** /** @defgroup RCC_LL_EC_MCOx  MCO selection
 368:../STM32Cube_FW_N6/Drivers/STM32N6xx_HAL_Driver/Inc/stm32n6xx_ll_rcc.h ****   * @{
 369:../STM32Cube_FW_N6/Drivers/STM32N6xx_HAL_Driver/Inc/stm32n6xx_ll_rcc.h ****   */
 370:../STM32Cube_FW_N6/Drivers/STM32N6xx_HAL_Driver/Inc/stm32n6xx_ll_rcc.h **** #define LL_RCC_MCO1                        RCC_MISCENR_MCO1EN
 371:../STM32Cube_FW_N6/Drivers/STM32N6xx_HAL_Driver/Inc/stm32n6xx_ll_rcc.h **** #define LL_RCC_MCO2                        RCC_MISCENR_MCO2EN
 372:../STM32Cube_FW_N6/Drivers/STM32N6xx_HAL_Driver/Inc/stm32n6xx_ll_rcc.h **** /**
 373:../STM32Cube_FW_N6/Drivers/STM32N6xx_HAL_Driver/Inc/stm32n6xx_ll_rcc.h ****   * @}
 374:../STM32Cube_FW_N6/Drivers/STM32N6xx_HAL_Driver/Inc/stm32n6xx_ll_rcc.h ****   */
 375:../STM32Cube_FW_N6/Drivers/STM32N6xx_HAL_Driver/Inc/stm32n6xx_ll_rcc.h **** 
 376:../STM32Cube_FW_N6/Drivers/STM32N6xx_HAL_Driver/Inc/stm32n6xx_ll_rcc.h **** /** @defgroup RCC_LL_EC_MCOxSOURCE  MCO source selection
 377:../STM32Cube_FW_N6/Drivers/STM32N6xx_HAL_Driver/Inc/stm32n6xx_ll_rcc.h ****   * @{
 378:../STM32Cube_FW_N6/Drivers/STM32N6xx_HAL_Driver/Inc/stm32n6xx_ll_rcc.h ****   */
 379:../STM32Cube_FW_N6/Drivers/STM32N6xx_HAL_Driver/Inc/stm32n6xx_ll_rcc.h **** #define LL_RCC_MCO1SOURCE_HSI              ((RCC_CCIPR5_MCO1SEL<<16U) | 0U)
 380:../STM32Cube_FW_N6/Drivers/STM32N6xx_HAL_Driver/Inc/stm32n6xx_ll_rcc.h **** #define LL_RCC_MCO1SOURCE_LSE              ((RCC_CCIPR5_MCO1SEL<<16U) | RCC_CCIPR5_MCO1SEL_0)
 381:../STM32Cube_FW_N6/Drivers/STM32N6xx_HAL_Driver/Inc/stm32n6xx_ll_rcc.h **** #define LL_RCC_MCO1SOURCE_MSI              ((RCC_CCIPR5_MCO1SEL<<16U) | RCC_CCIPR5_MCO1SEL_1)
 382:../STM32Cube_FW_N6/Drivers/STM32N6xx_HAL_Driver/Inc/stm32n6xx_ll_rcc.h **** #define LL_RCC_MCO1SOURCE_LSI              ((RCC_CCIPR5_MCO1SEL<<16U) | RCC_CCIPR5_MCO1SEL_1 | RCC_
 383:../STM32Cube_FW_N6/Drivers/STM32N6xx_HAL_Driver/Inc/stm32n6xx_ll_rcc.h **** #define LL_RCC_MCO1SOURCE_HSE              ((RCC_CCIPR5_MCO1SEL<<16U) | RCC_CCIPR5_MCO1SEL_2)
 384:../STM32Cube_FW_N6/Drivers/STM32N6xx_HAL_Driver/Inc/stm32n6xx_ll_rcc.h **** #define LL_RCC_MCO1SOURCE_IC5              ((RCC_CCIPR5_MCO1SEL<<16U) | RCC_CCIPR5_MCO1SEL_2 | RCC_
 385:../STM32Cube_FW_N6/Drivers/STM32N6xx_HAL_Driver/Inc/stm32n6xx_ll_rcc.h **** #define LL_RCC_MCO1SOURCE_IC10             ((RCC_CCIPR5_MCO1SEL<<16U) | RCC_CCIPR5_MCO1SEL_2 | RCC_
 386:../STM32Cube_FW_N6/Drivers/STM32N6xx_HAL_Driver/Inc/stm32n6xx_ll_rcc.h **** #define LL_RCC_MCO1SOURCE_SYSA             ((RCC_CCIPR5_MCO1SEL<<16U) |\
 387:../STM32Cube_FW_N6/Drivers/STM32N6xx_HAL_Driver/Inc/stm32n6xx_ll_rcc.h ****                                             RCC_CCIPR5_MCO1SEL_2 | RCC_CCIPR5_MCO1SEL_1 | RCC_CCIPR
 388:../STM32Cube_FW_N6/Drivers/STM32N6xx_HAL_Driver/Inc/stm32n6xx_ll_rcc.h **** #define LL_RCC_MCO2SOURCE_HSI              ((RCC_CCIPR5_MCO2SEL<<16U) | 0U)
 389:../STM32Cube_FW_N6/Drivers/STM32N6xx_HAL_Driver/Inc/stm32n6xx_ll_rcc.h **** #define LL_RCC_MCO2SOURCE_LSE              ((RCC_CCIPR5_MCO2SEL<<16U) | RCC_CCIPR5_MCO2SEL_0)
 390:../STM32Cube_FW_N6/Drivers/STM32N6xx_HAL_Driver/Inc/stm32n6xx_ll_rcc.h **** #define LL_RCC_MCO2SOURCE_MSI              ((RCC_CCIPR5_MCO2SEL<<16U) | RCC_CCIPR5_MCO2SEL_1)
 391:../STM32Cube_FW_N6/Drivers/STM32N6xx_HAL_Driver/Inc/stm32n6xx_ll_rcc.h **** #define LL_RCC_MCO2SOURCE_LSI              ((RCC_CCIPR5_MCO2SEL<<16U) | RCC_CCIPR5_MCO2SEL_1 | RCC_
 392:../STM32Cube_FW_N6/Drivers/STM32N6xx_HAL_Driver/Inc/stm32n6xx_ll_rcc.h **** #define LL_RCC_MCO2SOURCE_HSE              ((RCC_CCIPR5_MCO2SEL<<16U) | RCC_CCIPR5_MCO2SEL_2)
 393:../STM32Cube_FW_N6/Drivers/STM32N6xx_HAL_Driver/Inc/stm32n6xx_ll_rcc.h **** #define LL_RCC_MCO2SOURCE_IC15             ((RCC_CCIPR5_MCO2SEL<<16U) | RCC_CCIPR5_MCO2SEL_2 | RCC_
 394:../STM32Cube_FW_N6/Drivers/STM32N6xx_HAL_Driver/Inc/stm32n6xx_ll_rcc.h **** #define LL_RCC_MCO2SOURCE_IC20             ((RCC_CCIPR5_MCO2SEL<<16U) | RCC_CCIPR5_MCO2SEL_2 | RCC_
 395:../STM32Cube_FW_N6/Drivers/STM32N6xx_HAL_Driver/Inc/stm32n6xx_ll_rcc.h **** #define LL_RCC_MCO2SOURCE_SYSB             ((RCC_CCIPR5_MCO2SEL<<16U) |\
 396:../STM32Cube_FW_N6/Drivers/STM32N6xx_HAL_Driver/Inc/stm32n6xx_ll_rcc.h ****                                             RCC_CCIPR5_MCO2SEL_2 | RCC_CCIPR5_MCO2SEL_1 | RCC_CCIPR
 397:../STM32Cube_FW_N6/Drivers/STM32N6xx_HAL_Driver/Inc/stm32n6xx_ll_rcc.h **** /**
 398:../STM32Cube_FW_N6/Drivers/STM32N6xx_HAL_Driver/Inc/stm32n6xx_ll_rcc.h ****   * @}
 399:../STM32Cube_FW_N6/Drivers/STM32N6xx_HAL_Driver/Inc/stm32n6xx_ll_rcc.h ****   */
 400:../STM32Cube_FW_N6/Drivers/STM32N6xx_HAL_Driver/Inc/stm32n6xx_ll_rcc.h **** 
 401:../STM32Cube_FW_N6/Drivers/STM32N6xx_HAL_Driver/Inc/stm32n6xx_ll_rcc.h **** /** @defgroup RCC_LL_EC_MCOx_DIV  MCO prescaler
 402:../STM32Cube_FW_N6/Drivers/STM32N6xx_HAL_Driver/Inc/stm32n6xx_ll_rcc.h ****   * @{
 403:../STM32Cube_FW_N6/Drivers/STM32N6xx_HAL_Driver/Inc/stm32n6xx_ll_rcc.h ****   */
 404:../STM32Cube_FW_N6/Drivers/STM32N6xx_HAL_Driver/Inc/stm32n6xx_ll_rcc.h **** #define LL_RCC_MCO1_DIV_1                  (RCC_CCIPR5_MCO1PRE<<16U)
 405:../STM32Cube_FW_N6/Drivers/STM32N6xx_HAL_Driver/Inc/stm32n6xx_ll_rcc.h **** #define LL_RCC_MCO1_DIV_2                  ((RCC_CCIPR5_MCO1PRE<<16U) | RCC_CCIPR5_MCO1PRE_0)
 406:../STM32Cube_FW_N6/Drivers/STM32N6xx_HAL_Driver/Inc/stm32n6xx_ll_rcc.h **** #define LL_RCC_MCO1_DIV_3                  ((RCC_CCIPR5_MCO1PRE<<16U) | RCC_CCIPR5_MCO1PRE_1)
 407:../STM32Cube_FW_N6/Drivers/STM32N6xx_HAL_Driver/Inc/stm32n6xx_ll_rcc.h **** #define LL_RCC_MCO1_DIV_4                  ((RCC_CCIPR5_MCO1PRE<<16U) | RCC_CCIPR5_MCO1PRE_1 | RCC_
 408:../STM32Cube_FW_N6/Drivers/STM32N6xx_HAL_Driver/Inc/stm32n6xx_ll_rcc.h **** #define LL_RCC_MCO1_DIV_5                  ((RCC_CCIPR5_MCO1PRE<<16U) | RCC_CCIPR5_MCO1PRE_2)
 409:../STM32Cube_FW_N6/Drivers/STM32N6xx_HAL_Driver/Inc/stm32n6xx_ll_rcc.h **** #define LL_RCC_MCO1_DIV_6                  ((RCC_CCIPR5_MCO1PRE<<16U) | RCC_CCIPR5_MCO1PRE_2 | RCC_
 410:../STM32Cube_FW_N6/Drivers/STM32N6xx_HAL_Driver/Inc/stm32n6xx_ll_rcc.h **** #define LL_RCC_MCO1_DIV_7                  ((RCC_CCIPR5_MCO1PRE<<16U) | RCC_CCIPR5_MCO1PRE_2 | RCC_
 411:../STM32Cube_FW_N6/Drivers/STM32N6xx_HAL_Driver/Inc/stm32n6xx_ll_rcc.h **** #define LL_RCC_MCO1_DIV_8                  ((RCC_CCIPR5_MCO1PRE<<16U) |\
 412:../STM32Cube_FW_N6/Drivers/STM32N6xx_HAL_Driver/Inc/stm32n6xx_ll_rcc.h ****                                             RCC_CCIPR5_MCO1PRE_2 | RCC_CCIPR5_MCO1PRE_1 | RCC_CCIPR
 413:../STM32Cube_FW_N6/Drivers/STM32N6xx_HAL_Driver/Inc/stm32n6xx_ll_rcc.h **** #define LL_RCC_MCO1_DIV_9                  ((RCC_CCIPR5_MCO1PRE<<16U) | RCC_CCIPR5_MCO1PRE_3)
 414:../STM32Cube_FW_N6/Drivers/STM32N6xx_HAL_Driver/Inc/stm32n6xx_ll_rcc.h **** #define LL_RCC_MCO1_DIV_10                 ((RCC_CCIPR5_MCO1PRE<<16U) | RCC_CCIPR5_MCO1PRE_3 | RCC_
 415:../STM32Cube_FW_N6/Drivers/STM32N6xx_HAL_Driver/Inc/stm32n6xx_ll_rcc.h **** #define LL_RCC_MCO1_DIV_11                 ((RCC_CCIPR5_MCO1PRE<<16U) | RCC_CCIPR5_MCO1PRE_3 | RCC_
 416:../STM32Cube_FW_N6/Drivers/STM32N6xx_HAL_Driver/Inc/stm32n6xx_ll_rcc.h **** #define LL_RCC_MCO1_DIV_12                 ((RCC_CCIPR5_MCO1PRE<<16U) |\
 417:../STM32Cube_FW_N6/Drivers/STM32N6xx_HAL_Driver/Inc/stm32n6xx_ll_rcc.h ****                                             RCC_CCIPR5_MCO1PRE_3 | RCC_CCIPR5_MCO1PRE_1 | RCC_CCIPR
 418:../STM32Cube_FW_N6/Drivers/STM32N6xx_HAL_Driver/Inc/stm32n6xx_ll_rcc.h **** #define LL_RCC_MCO1_DIV_13                 ((RCC_CCIPR5_MCO1PRE<<16U) | RCC_CCIPR5_MCO1PRE_3 | RCC_
 419:../STM32Cube_FW_N6/Drivers/STM32N6xx_HAL_Driver/Inc/stm32n6xx_ll_rcc.h **** #define LL_RCC_MCO1_DIV_14                 ((RCC_CCIPR5_MCO1PRE<<16U) |\
 420:../STM32Cube_FW_N6/Drivers/STM32N6xx_HAL_Driver/Inc/stm32n6xx_ll_rcc.h ****                                             RCC_CCIPR5_MCO1PRE_3 | RCC_CCIPR5_MCO1PRE_2 | RCC_CCIPR
 421:../STM32Cube_FW_N6/Drivers/STM32N6xx_HAL_Driver/Inc/stm32n6xx_ll_rcc.h **** #define LL_RCC_MCO1_DIV_15                 ((RCC_CCIPR5_MCO1PRE<<16U) |\
 422:../STM32Cube_FW_N6/Drivers/STM32N6xx_HAL_Driver/Inc/stm32n6xx_ll_rcc.h ****                                             RCC_CCIPR5_MCO1PRE_3 | RCC_CCIPR5_MCO1PRE_2 | RCC_CCIPR
 423:../STM32Cube_FW_N6/Drivers/STM32N6xx_HAL_Driver/Inc/stm32n6xx_ll_rcc.h **** #define LL_RCC_MCO1_DIV_16                 ((RCC_CCIPR5_MCO1PRE<<16U) | RCC_CCIPR5_MCO1PRE)
ARM GAS  /tmp/ccjTyagi.s 			page 16


 424:../STM32Cube_FW_N6/Drivers/STM32N6xx_HAL_Driver/Inc/stm32n6xx_ll_rcc.h **** #define LL_RCC_MCO2_DIV_1                  (RCC_CCIPR5_MCO2PRE<<16U)
 425:../STM32Cube_FW_N6/Drivers/STM32N6xx_HAL_Driver/Inc/stm32n6xx_ll_rcc.h **** #define LL_RCC_MCO2_DIV_2                  ((RCC_CCIPR5_MCO2PRE<<16U) | RCC_CCIPR5_MCO2PRE_0)
 426:../STM32Cube_FW_N6/Drivers/STM32N6xx_HAL_Driver/Inc/stm32n6xx_ll_rcc.h **** #define LL_RCC_MCO2_DIV_3                  ((RCC_CCIPR5_MCO2PRE<<16U) | RCC_CCIPR5_MCO2PRE_1)
 427:../STM32Cube_FW_N6/Drivers/STM32N6xx_HAL_Driver/Inc/stm32n6xx_ll_rcc.h **** #define LL_RCC_MCO2_DIV_4                  ((RCC_CCIPR5_MCO2PRE<<16U) | RCC_CCIPR5_MCO2PRE_1 | RCC_
 428:../STM32Cube_FW_N6/Drivers/STM32N6xx_HAL_Driver/Inc/stm32n6xx_ll_rcc.h **** #define LL_RCC_MCO2_DIV_5                  ((RCC_CCIPR5_MCO2PRE<<16U) | RCC_CCIPR5_MCO2PRE_2)
 429:../STM32Cube_FW_N6/Drivers/STM32N6xx_HAL_Driver/Inc/stm32n6xx_ll_rcc.h **** #define LL_RCC_MCO2_DIV_6                  ((RCC_CCIPR5_MCO2PRE<<16U) | RCC_CCIPR5_MCO2PRE_2 | RCC_
 430:../STM32Cube_FW_N6/Drivers/STM32N6xx_HAL_Driver/Inc/stm32n6xx_ll_rcc.h **** #define LL_RCC_MCO2_DIV_7                  ((RCC_CCIPR5_MCO2PRE<<16U) | RCC_CCIPR5_MCO2PRE_2 | RCC_
 431:../STM32Cube_FW_N6/Drivers/STM32N6xx_HAL_Driver/Inc/stm32n6xx_ll_rcc.h **** #define LL_RCC_MCO2_DIV_8                  ((RCC_CCIPR5_MCO2PRE<<16U) |\
 432:../STM32Cube_FW_N6/Drivers/STM32N6xx_HAL_Driver/Inc/stm32n6xx_ll_rcc.h ****                                             RCC_CCIPR5_MCO2PRE_2 | RCC_CCIPR5_MCO2PRE_1 | RCC_CCIPR
 433:../STM32Cube_FW_N6/Drivers/STM32N6xx_HAL_Driver/Inc/stm32n6xx_ll_rcc.h **** #define LL_RCC_MCO2_DIV_9                  ((RCC_CCIPR5_MCO2PRE<<16U) | RCC_CCIPR5_MCO2PRE_3)
 434:../STM32Cube_FW_N6/Drivers/STM32N6xx_HAL_Driver/Inc/stm32n6xx_ll_rcc.h **** #define LL_RCC_MCO2_DIV_10                 ((RCC_CCIPR5_MCO2PRE<<16U) | RCC_CCIPR5_MCO2PRE_3 | RCC_
 435:../STM32Cube_FW_N6/Drivers/STM32N6xx_HAL_Driver/Inc/stm32n6xx_ll_rcc.h **** #define LL_RCC_MCO2_DIV_11                 ((RCC_CCIPR5_MCO2PRE<<16U) | RCC_CCIPR5_MCO2PRE_3 | RCC_
 436:../STM32Cube_FW_N6/Drivers/STM32N6xx_HAL_Driver/Inc/stm32n6xx_ll_rcc.h **** #define LL_RCC_MCO2_DIV_12                 ((RCC_CCIPR5_MCO2PRE<<16U) |\
 437:../STM32Cube_FW_N6/Drivers/STM32N6xx_HAL_Driver/Inc/stm32n6xx_ll_rcc.h ****                                             RCC_CCIPR5_MCO2PRE_3 | RCC_CCIPR5_MCO2PRE_1 | RCC_CCIPR
 438:../STM32Cube_FW_N6/Drivers/STM32N6xx_HAL_Driver/Inc/stm32n6xx_ll_rcc.h **** #define LL_RCC_MCO2_DIV_13                 ((RCC_CCIPR5_MCO2PRE<<16U) | RCC_CCIPR5_MCO2PRE_3 | RCC_
 439:../STM32Cube_FW_N6/Drivers/STM32N6xx_HAL_Driver/Inc/stm32n6xx_ll_rcc.h **** #define LL_RCC_MCO2_DIV_14                 ((RCC_CCIPR5_MCO2PRE<<16U) |\
 440:../STM32Cube_FW_N6/Drivers/STM32N6xx_HAL_Driver/Inc/stm32n6xx_ll_rcc.h ****                                             RCC_CCIPR5_MCO2PRE_3 | RCC_CCIPR5_MCO2PRE_2 | RCC_CCIPR
 441:../STM32Cube_FW_N6/Drivers/STM32N6xx_HAL_Driver/Inc/stm32n6xx_ll_rcc.h **** #define LL_RCC_MCO2_DIV_15                 ((RCC_CCIPR5_MCO2PRE<<16U) |\
 442:../STM32Cube_FW_N6/Drivers/STM32N6xx_HAL_Driver/Inc/stm32n6xx_ll_rcc.h ****                                             RCC_CCIPR5_MCO2PRE_3 | RCC_CCIPR5_MCO2PRE_2 | RCC_CCIPR
 443:../STM32Cube_FW_N6/Drivers/STM32N6xx_HAL_Driver/Inc/stm32n6xx_ll_rcc.h **** #define LL_RCC_MCO2_DIV_16                 ((RCC_CCIPR5_MCO2PRE<<16U) | RCC_CCIPR5_MCO2PRE)
 444:../STM32Cube_FW_N6/Drivers/STM32N6xx_HAL_Driver/Inc/stm32n6xx_ll_rcc.h **** 
 445:../STM32Cube_FW_N6/Drivers/STM32N6xx_HAL_Driver/Inc/stm32n6xx_ll_rcc.h **** /**
 446:../STM32Cube_FW_N6/Drivers/STM32N6xx_HAL_Driver/Inc/stm32n6xx_ll_rcc.h ****   * @}
 447:../STM32Cube_FW_N6/Drivers/STM32N6xx_HAL_Driver/Inc/stm32n6xx_ll_rcc.h ****   */
 448:../STM32Cube_FW_N6/Drivers/STM32N6xx_HAL_Driver/Inc/stm32n6xx_ll_rcc.h **** 
 449:../STM32Cube_FW_N6/Drivers/STM32N6xx_HAL_Driver/Inc/stm32n6xx_ll_rcc.h **** /** @defgroup RCC_LL_EC_RTC_HSE_DIV  Prescaler for RTC clock
 450:../STM32Cube_FW_N6/Drivers/STM32N6xx_HAL_Driver/Inc/stm32n6xx_ll_rcc.h ****   * @{
 451:../STM32Cube_FW_N6/Drivers/STM32N6xx_HAL_Driver/Inc/stm32n6xx_ll_rcc.h ****   */
 452:../STM32Cube_FW_N6/Drivers/STM32N6xx_HAL_Driver/Inc/stm32n6xx_ll_rcc.h **** #define LL_RCC_RTC_HSE_DIV_1               0U
 453:../STM32Cube_FW_N6/Drivers/STM32N6xx_HAL_Driver/Inc/stm32n6xx_ll_rcc.h **** #define LL_RCC_RTC_HSE_DIV_2               RCC_CCIPR7_RTCPRE_0
 454:../STM32Cube_FW_N6/Drivers/STM32N6xx_HAL_Driver/Inc/stm32n6xx_ll_rcc.h **** #define LL_RCC_RTC_HSE_DIV_3               RCC_CCIPR7_RTCPRE_1
 455:../STM32Cube_FW_N6/Drivers/STM32N6xx_HAL_Driver/Inc/stm32n6xx_ll_rcc.h **** #define LL_RCC_RTC_HSE_DIV_4               (RCC_CCIPR7_RTCPRE_1 | RCC_CCIPR7_RTCPRE_0)
 456:../STM32Cube_FW_N6/Drivers/STM32N6xx_HAL_Driver/Inc/stm32n6xx_ll_rcc.h **** #define LL_RCC_RTC_HSE_DIV_5               RCC_CCIPR7_RTCPRE_2
 457:../STM32Cube_FW_N6/Drivers/STM32N6xx_HAL_Driver/Inc/stm32n6xx_ll_rcc.h **** #define LL_RCC_RTC_HSE_DIV_6               (RCC_CCIPR7_RTCPRE_2 | RCC_CCIPR7_RTCPRE_0)
 458:../STM32Cube_FW_N6/Drivers/STM32N6xx_HAL_Driver/Inc/stm32n6xx_ll_rcc.h **** #define LL_RCC_RTC_HSE_DIV_7               (RCC_CCIPR7_RTCPRE_2 | RCC_CCIPR7_RTCPRE_1)
 459:../STM32Cube_FW_N6/Drivers/STM32N6xx_HAL_Driver/Inc/stm32n6xx_ll_rcc.h **** #define LL_RCC_RTC_HSE_DIV_8               (RCC_CCIPR7_RTCPRE_2 | RCC_CCIPR7_RTCPRE_1 | RCC_CCIPR7_
 460:../STM32Cube_FW_N6/Drivers/STM32N6xx_HAL_Driver/Inc/stm32n6xx_ll_rcc.h **** #define LL_RCC_RTC_HSE_DIV_9               RCC_CCIPR7_RTCPRE_3
 461:../STM32Cube_FW_N6/Drivers/STM32N6xx_HAL_Driver/Inc/stm32n6xx_ll_rcc.h **** #define LL_RCC_RTC_HSE_DIV_10              (RCC_CCIPR7_RTCPRE_3 | RCC_CCIPR7_RTCPRE_0)
 462:../STM32Cube_FW_N6/Drivers/STM32N6xx_HAL_Driver/Inc/stm32n6xx_ll_rcc.h **** #define LL_RCC_RTC_HSE_DIV_11              (RCC_CCIPR7_RTCPRE_3 | RCC_CCIPR7_RTCPRE_1)
 463:../STM32Cube_FW_N6/Drivers/STM32N6xx_HAL_Driver/Inc/stm32n6xx_ll_rcc.h **** #define LL_RCC_RTC_HSE_DIV_12              (RCC_CCIPR7_RTCPRE_3 | RCC_CCIPR7_RTCPRE_1 | RCC_CCIPR7_
 464:../STM32Cube_FW_N6/Drivers/STM32N6xx_HAL_Driver/Inc/stm32n6xx_ll_rcc.h **** #define LL_RCC_RTC_HSE_DIV_13              (RCC_CCIPR7_RTCPRE_3 | RCC_CCIPR7_RTCPRE_2)
 465:../STM32Cube_FW_N6/Drivers/STM32N6xx_HAL_Driver/Inc/stm32n6xx_ll_rcc.h **** #define LL_RCC_RTC_HSE_DIV_14              (RCC_CCIPR7_RTCPRE_3 | RCC_CCIPR7_RTCPRE_2 | RCC_CCIPR7_
 466:../STM32Cube_FW_N6/Drivers/STM32N6xx_HAL_Driver/Inc/stm32n6xx_ll_rcc.h **** #define LL_RCC_RTC_HSE_DIV_15              (RCC_CCIPR7_RTCPRE_3 | RCC_CCIPR7_RTCPRE_2 | RCC_CCIPR7_
 467:../STM32Cube_FW_N6/Drivers/STM32N6xx_HAL_Driver/Inc/stm32n6xx_ll_rcc.h **** #define LL_RCC_RTC_HSE_DIV_16              (RCC_CCIPR7_RTCPRE_3 |\
 468:../STM32Cube_FW_N6/Drivers/STM32N6xx_HAL_Driver/Inc/stm32n6xx_ll_rcc.h ****                                             RCC_CCIPR7_RTCPRE_2 | RCC_CCIPR7_RTCPRE_1 | RCC_CCIPR7_
 469:../STM32Cube_FW_N6/Drivers/STM32N6xx_HAL_Driver/Inc/stm32n6xx_ll_rcc.h **** #define LL_RCC_RTC_HSE_DIV_17              RCC_CCIPR7_RTCPRE_4
 470:../STM32Cube_FW_N6/Drivers/STM32N6xx_HAL_Driver/Inc/stm32n6xx_ll_rcc.h **** #define LL_RCC_RTC_HSE_DIV_18              (RCC_CCIPR7_RTCPRE_4 | RCC_CCIPR7_RTCPRE_0)
 471:../STM32Cube_FW_N6/Drivers/STM32N6xx_HAL_Driver/Inc/stm32n6xx_ll_rcc.h **** #define LL_RCC_RTC_HSE_DIV_19              (RCC_CCIPR7_RTCPRE_4 | RCC_CCIPR7_RTCPRE_1)
 472:../STM32Cube_FW_N6/Drivers/STM32N6xx_HAL_Driver/Inc/stm32n6xx_ll_rcc.h **** #define LL_RCC_RTC_HSE_DIV_20              (RCC_CCIPR7_RTCPRE_4 | RCC_CCIPR7_RTCPRE_1 | RCC_CCIPR7_
 473:../STM32Cube_FW_N6/Drivers/STM32N6xx_HAL_Driver/Inc/stm32n6xx_ll_rcc.h **** #define LL_RCC_RTC_HSE_DIV_21              (RCC_CCIPR7_RTCPRE_4 | RCC_CCIPR7_RTCPRE_2)
 474:../STM32Cube_FW_N6/Drivers/STM32N6xx_HAL_Driver/Inc/stm32n6xx_ll_rcc.h **** #define LL_RCC_RTC_HSE_DIV_22              (RCC_CCIPR7_RTCPRE_4 | RCC_CCIPR7_RTCPRE_2 | RCC_CCIPR7_
 475:../STM32Cube_FW_N6/Drivers/STM32N6xx_HAL_Driver/Inc/stm32n6xx_ll_rcc.h **** #define LL_RCC_RTC_HSE_DIV_23              (RCC_CCIPR7_RTCPRE_4 | RCC_CCIPR7_RTCPRE_2 | RCC_CCIPR7_
 476:../STM32Cube_FW_N6/Drivers/STM32N6xx_HAL_Driver/Inc/stm32n6xx_ll_rcc.h **** #define LL_RCC_RTC_HSE_DIV_24              (RCC_CCIPR7_RTCPRE_4 |\
 477:../STM32Cube_FW_N6/Drivers/STM32N6xx_HAL_Driver/Inc/stm32n6xx_ll_rcc.h ****                                             RCC_CCIPR7_RTCPRE_2 | RCC_CCIPR7_RTCPRE_1 | RCC_CCIPR7_
 478:../STM32Cube_FW_N6/Drivers/STM32N6xx_HAL_Driver/Inc/stm32n6xx_ll_rcc.h **** #define LL_RCC_RTC_HSE_DIV_25              (RCC_CCIPR7_RTCPRE_4 | RCC_CCIPR7_RTCPRE_3)
 479:../STM32Cube_FW_N6/Drivers/STM32N6xx_HAL_Driver/Inc/stm32n6xx_ll_rcc.h **** #define LL_RCC_RTC_HSE_DIV_26              (RCC_CCIPR7_RTCPRE_4 | RCC_CCIPR7_RTCPRE_3 | RCC_CCIPR7_
 480:../STM32Cube_FW_N6/Drivers/STM32N6xx_HAL_Driver/Inc/stm32n6xx_ll_rcc.h **** #define LL_RCC_RTC_HSE_DIV_27              (RCC_CCIPR7_RTCPRE_4 | RCC_CCIPR7_RTCPRE_3 | RCC_CCIPR7_
ARM GAS  /tmp/ccjTyagi.s 			page 17


 481:../STM32Cube_FW_N6/Drivers/STM32N6xx_HAL_Driver/Inc/stm32n6xx_ll_rcc.h **** #define LL_RCC_RTC_HSE_DIV_28              (RCC_CCIPR7_RTCPRE_4 |\
 482:../STM32Cube_FW_N6/Drivers/STM32N6xx_HAL_Driver/Inc/stm32n6xx_ll_rcc.h ****                                             RCC_CCIPR7_RTCPRE_3 | RCC_CCIPR7_RTCPRE_1 | RCC_CCIPR7_
 483:../STM32Cube_FW_N6/Drivers/STM32N6xx_HAL_Driver/Inc/stm32n6xx_ll_rcc.h **** #define LL_RCC_RTC_HSE_DIV_29              (RCC_CCIPR7_RTCPRE_4 | RCC_CCIPR7_RTCPRE_3 | RCC_CCIPR7_
 484:../STM32Cube_FW_N6/Drivers/STM32N6xx_HAL_Driver/Inc/stm32n6xx_ll_rcc.h **** #define LL_RCC_RTC_HSE_DIV_30              (RCC_CCIPR7_RTCPRE_4 |\
 485:../STM32Cube_FW_N6/Drivers/STM32N6xx_HAL_Driver/Inc/stm32n6xx_ll_rcc.h ****                                             RCC_CCIPR7_RTCPRE_3 | RCC_CCIPR7_RTCPRE_2 | RCC_CCIPR7_
 486:../STM32Cube_FW_N6/Drivers/STM32N6xx_HAL_Driver/Inc/stm32n6xx_ll_rcc.h **** #define LL_RCC_RTC_HSE_DIV_31              (RCC_CCIPR7_RTCPRE_4 |\
 487:../STM32Cube_FW_N6/Drivers/STM32N6xx_HAL_Driver/Inc/stm32n6xx_ll_rcc.h ****                                             RCC_CCIPR7_RTCPRE_3 | RCC_CCIPR7_RTCPRE_2 | RCC_CCIPR7_
 488:../STM32Cube_FW_N6/Drivers/STM32N6xx_HAL_Driver/Inc/stm32n6xx_ll_rcc.h **** #define LL_RCC_RTC_HSE_DIV_32              (RCC_CCIPR7_RTCPRE_4 | RCC_CCIPR7_RTCPRE_3 | RCC_CCIPR7_
 489:../STM32Cube_FW_N6/Drivers/STM32N6xx_HAL_Driver/Inc/stm32n6xx_ll_rcc.h ****                                             RCC_CCIPR7_RTCPRE_1 | RCC_CCIPR7_RTCPRE_0)
 490:../STM32Cube_FW_N6/Drivers/STM32N6xx_HAL_Driver/Inc/stm32n6xx_ll_rcc.h **** #define LL_RCC_RTC_HSE_DIV_33              RCC_CCIPR7_RTCPRE_5
 491:../STM32Cube_FW_N6/Drivers/STM32N6xx_HAL_Driver/Inc/stm32n6xx_ll_rcc.h **** #define LL_RCC_RTC_HSE_DIV_34              (RCC_CCIPR7_RTCPRE_5 | RCC_CCIPR7_RTCPRE_0)
 492:../STM32Cube_FW_N6/Drivers/STM32N6xx_HAL_Driver/Inc/stm32n6xx_ll_rcc.h **** #define LL_RCC_RTC_HSE_DIV_35              (RCC_CCIPR7_RTCPRE_5 | RCC_CCIPR7_RTCPRE_1)
 493:../STM32Cube_FW_N6/Drivers/STM32N6xx_HAL_Driver/Inc/stm32n6xx_ll_rcc.h **** #define LL_RCC_RTC_HSE_DIV_36              (RCC_CCIPR7_RTCPRE_5 | RCC_CCIPR7_RTCPRE_1 | RCC_CCIPR7_
 494:../STM32Cube_FW_N6/Drivers/STM32N6xx_HAL_Driver/Inc/stm32n6xx_ll_rcc.h **** #define LL_RCC_RTC_HSE_DIV_37              (RCC_CCIPR7_RTCPRE_5 | RCC_CCIPR7_RTCPRE_2)
 495:../STM32Cube_FW_N6/Drivers/STM32N6xx_HAL_Driver/Inc/stm32n6xx_ll_rcc.h **** #define LL_RCC_RTC_HSE_DIV_38              (RCC_CCIPR7_RTCPRE_5 | RCC_CCIPR7_RTCPRE_2 | RCC_CCIPR7_
 496:../STM32Cube_FW_N6/Drivers/STM32N6xx_HAL_Driver/Inc/stm32n6xx_ll_rcc.h **** #define LL_RCC_RTC_HSE_DIV_39              (RCC_CCIPR7_RTCPRE_5 | RCC_CCIPR7_RTCPRE_2 | RCC_CCIPR7_
 497:../STM32Cube_FW_N6/Drivers/STM32N6xx_HAL_Driver/Inc/stm32n6xx_ll_rcc.h **** #define LL_RCC_RTC_HSE_DIV_40              (RCC_CCIPR7_RTCPRE_5 |\
 498:../STM32Cube_FW_N6/Drivers/STM32N6xx_HAL_Driver/Inc/stm32n6xx_ll_rcc.h ****                                             RCC_CCIPR7_RTCPRE_2 | RCC_CCIPR7_RTCPRE_1 | RCC_CCIPR7_
 499:../STM32Cube_FW_N6/Drivers/STM32N6xx_HAL_Driver/Inc/stm32n6xx_ll_rcc.h **** #define LL_RCC_RTC_HSE_DIV_41              (RCC_CCIPR7_RTCPRE_5 | RCC_CCIPR7_RTCPRE_3)
 500:../STM32Cube_FW_N6/Drivers/STM32N6xx_HAL_Driver/Inc/stm32n6xx_ll_rcc.h **** #define LL_RCC_RTC_HSE_DIV_42              (RCC_CCIPR7_RTCPRE_5 | RCC_CCIPR7_RTCPRE_3 | RCC_CCIPR7_
 501:../STM32Cube_FW_N6/Drivers/STM32N6xx_HAL_Driver/Inc/stm32n6xx_ll_rcc.h **** #define LL_RCC_RTC_HSE_DIV_43              (RCC_CCIPR7_RTCPRE_5 | RCC_CCIPR7_RTCPRE_3 | RCC_CCIPR7_
 502:../STM32Cube_FW_N6/Drivers/STM32N6xx_HAL_Driver/Inc/stm32n6xx_ll_rcc.h **** #define LL_RCC_RTC_HSE_DIV_44              (RCC_CCIPR7_RTCPRE_5 |\
 503:../STM32Cube_FW_N6/Drivers/STM32N6xx_HAL_Driver/Inc/stm32n6xx_ll_rcc.h ****                                             RCC_CCIPR7_RTCPRE_3 | RCC_CCIPR7_RTCPRE_1 | RCC_CCIPR7_
 504:../STM32Cube_FW_N6/Drivers/STM32N6xx_HAL_Driver/Inc/stm32n6xx_ll_rcc.h **** #define LL_RCC_RTC_HSE_DIV_45              (RCC_CCIPR7_RTCPRE_5 | RCC_CCIPR7_RTCPRE_3 | RCC_CCIPR7_
 505:../STM32Cube_FW_N6/Drivers/STM32N6xx_HAL_Driver/Inc/stm32n6xx_ll_rcc.h **** #define LL_RCC_RTC_HSE_DIV_46              (RCC_CCIPR7_RTCPRE_5 |\
 506:../STM32Cube_FW_N6/Drivers/STM32N6xx_HAL_Driver/Inc/stm32n6xx_ll_rcc.h ****                                             RCC_CCIPR7_RTCPRE_3 | RCC_CCIPR7_RTCPRE_2 | RCC_CCIPR7_
 507:../STM32Cube_FW_N6/Drivers/STM32N6xx_HAL_Driver/Inc/stm32n6xx_ll_rcc.h **** #define LL_RCC_RTC_HSE_DIV_47              (RCC_CCIPR7_RTCPRE_5 |\
 508:../STM32Cube_FW_N6/Drivers/STM32N6xx_HAL_Driver/Inc/stm32n6xx_ll_rcc.h ****                                             RCC_CCIPR7_RTCPRE_3 | RCC_CCIPR7_RTCPRE_2 | RCC_CCIPR7_
 509:../STM32Cube_FW_N6/Drivers/STM32N6xx_HAL_Driver/Inc/stm32n6xx_ll_rcc.h **** #define LL_RCC_RTC_HSE_DIV_48              (RCC_CCIPR7_RTCPRE_5 | RCC_CCIPR7_RTCPRE_3 | RCC_CCIPR7_
 510:../STM32Cube_FW_N6/Drivers/STM32N6xx_HAL_Driver/Inc/stm32n6xx_ll_rcc.h ****                                             RCC_CCIPR7_RTCPRE_1 | RCC_CCIPR7_RTCPRE_0)
 511:../STM32Cube_FW_N6/Drivers/STM32N6xx_HAL_Driver/Inc/stm32n6xx_ll_rcc.h **** #define LL_RCC_RTC_HSE_DIV_49              (RCC_CCIPR7_RTCPRE_5 | RCC_CCIPR7_RTCPRE_4)
 512:../STM32Cube_FW_N6/Drivers/STM32N6xx_HAL_Driver/Inc/stm32n6xx_ll_rcc.h **** #define LL_RCC_RTC_HSE_DIV_50              (RCC_CCIPR7_RTCPRE_5 | RCC_CCIPR7_RTCPRE_4 | RCC_CCIPR7_
 513:../STM32Cube_FW_N6/Drivers/STM32N6xx_HAL_Driver/Inc/stm32n6xx_ll_rcc.h **** #define LL_RCC_RTC_HSE_DIV_51              (RCC_CCIPR7_RTCPRE_5 | RCC_CCIPR7_RTCPRE_4 | RCC_CCIPR7_
 514:../STM32Cube_FW_N6/Drivers/STM32N6xx_HAL_Driver/Inc/stm32n6xx_ll_rcc.h **** #define LL_RCC_RTC_HSE_DIV_52              (RCC_CCIPR7_RTCPRE_5 |\
 515:../STM32Cube_FW_N6/Drivers/STM32N6xx_HAL_Driver/Inc/stm32n6xx_ll_rcc.h ****                                             RCC_CCIPR7_RTCPRE_4 | RCC_CCIPR7_RTCPRE_1 | RCC_CCIPR7_
 516:../STM32Cube_FW_N6/Drivers/STM32N6xx_HAL_Driver/Inc/stm32n6xx_ll_rcc.h **** #define LL_RCC_RTC_HSE_DIV_53              (RCC_CCIPR7_RTCPRE_5 | RCC_CCIPR7_RTCPRE_4 | RCC_CCIPR7_
 517:../STM32Cube_FW_N6/Drivers/STM32N6xx_HAL_Driver/Inc/stm32n6xx_ll_rcc.h **** #define LL_RCC_RTC_HSE_DIV_54              (RCC_CCIPR7_RTCPRE_5 |\
 518:../STM32Cube_FW_N6/Drivers/STM32N6xx_HAL_Driver/Inc/stm32n6xx_ll_rcc.h ****                                             RCC_CCIPR7_RTCPRE_4 | RCC_CCIPR7_RTCPRE_2 | RCC_CCIPR7_
 519:../STM32Cube_FW_N6/Drivers/STM32N6xx_HAL_Driver/Inc/stm32n6xx_ll_rcc.h **** #define LL_RCC_RTC_HSE_DIV_55              (RCC_CCIPR7_RTCPRE_5 |\
 520:../STM32Cube_FW_N6/Drivers/STM32N6xx_HAL_Driver/Inc/stm32n6xx_ll_rcc.h ****                                             RCC_CCIPR7_RTCPRE_4 | RCC_CCIPR7_RTCPRE_2 | RCC_CCIPR7_
 521:../STM32Cube_FW_N6/Drivers/STM32N6xx_HAL_Driver/Inc/stm32n6xx_ll_rcc.h **** #define LL_RCC_RTC_HSE_DIV_56              (RCC_CCIPR7_RTCPRE_5 | RCC_CCIPR7_RTCPRE_4 | RCC_CCIPR7_
 522:../STM32Cube_FW_N6/Drivers/STM32N6xx_HAL_Driver/Inc/stm32n6xx_ll_rcc.h ****                                             RCC_CCIPR7_RTCPRE_1 | RCC_CCIPR7_RTCPRE_0)
 523:../STM32Cube_FW_N6/Drivers/STM32N6xx_HAL_Driver/Inc/stm32n6xx_ll_rcc.h **** #define LL_RCC_RTC_HSE_DIV_57              (RCC_CCIPR7_RTCPRE_5 | RCC_CCIPR7_RTCPRE_4 | RCC_CCIPR7_
 524:../STM32Cube_FW_N6/Drivers/STM32N6xx_HAL_Driver/Inc/stm32n6xx_ll_rcc.h **** #define LL_RCC_RTC_HSE_DIV_58              (RCC_CCIPR7_RTCPRE_5 |\
 525:../STM32Cube_FW_N6/Drivers/STM32N6xx_HAL_Driver/Inc/stm32n6xx_ll_rcc.h ****                                             RCC_CCIPR7_RTCPRE_4 | RCC_CCIPR7_RTCPRE_3 | RCC_CCIPR7_
 526:../STM32Cube_FW_N6/Drivers/STM32N6xx_HAL_Driver/Inc/stm32n6xx_ll_rcc.h **** #define LL_RCC_RTC_HSE_DIV_59              (RCC_CCIPR7_RTCPRE_5 |\
 527:../STM32Cube_FW_N6/Drivers/STM32N6xx_HAL_Driver/Inc/stm32n6xx_ll_rcc.h ****                                             RCC_CCIPR7_RTCPRE_4 | RCC_CCIPR7_RTCPRE_3 | RCC_CCIPR7_
 528:../STM32Cube_FW_N6/Drivers/STM32N6xx_HAL_Driver/Inc/stm32n6xx_ll_rcc.h **** #define LL_RCC_RTC_HSE_DIV_60              (RCC_CCIPR7_RTCPRE_5 | RCC_CCIPR7_RTCPRE_4 | RCC_CCIPR7_
 529:../STM32Cube_FW_N6/Drivers/STM32N6xx_HAL_Driver/Inc/stm32n6xx_ll_rcc.h ****                                             RCC_CCIPR7_RTCPRE_1 | RCC_CCIPR7_RTCPRE_0)
 530:../STM32Cube_FW_N6/Drivers/STM32N6xx_HAL_Driver/Inc/stm32n6xx_ll_rcc.h **** #define LL_RCC_RTC_HSE_DIV_61              (RCC_CCIPR7_RTCPRE_5 |\
 531:../STM32Cube_FW_N6/Drivers/STM32N6xx_HAL_Driver/Inc/stm32n6xx_ll_rcc.h ****                                             RCC_CCIPR7_RTCPRE_4 | RCC_CCIPR7_RTCPRE_3 | RCC_CCIPR7_
 532:../STM32Cube_FW_N6/Drivers/STM32N6xx_HAL_Driver/Inc/stm32n6xx_ll_rcc.h **** #define LL_RCC_RTC_HSE_DIV_62              (RCC_CCIPR7_RTCPRE_5 | RCC_CCIPR7_RTCPRE_4 | RCC_CCIPR7_
 533:../STM32Cube_FW_N6/Drivers/STM32N6xx_HAL_Driver/Inc/stm32n6xx_ll_rcc.h ****                                             RCC_CCIPR7_RTCPRE_2 | RCC_CCIPR7_RTCPRE_0)
 534:../STM32Cube_FW_N6/Drivers/STM32N6xx_HAL_Driver/Inc/stm32n6xx_ll_rcc.h **** #define LL_RCC_RTC_HSE_DIV_63              (RCC_CCIPR7_RTCPRE_5 | RCC_CCIPR7_RTCPRE_4 | RCC_CCIPR7_
 535:../STM32Cube_FW_N6/Drivers/STM32N6xx_HAL_Driver/Inc/stm32n6xx_ll_rcc.h ****                                             RCC_CCIPR7_RTCPRE_2 | RCC_CCIPR7_RTCPRE_1)
 536:../STM32Cube_FW_N6/Drivers/STM32N6xx_HAL_Driver/Inc/stm32n6xx_ll_rcc.h **** #define LL_RCC_RTC_HSE_DIV_64              (RCC_CCIPR7_RTCPRE_5 | RCC_CCIPR7_RTCPRE_4 | RCC_CCIPR7_
 537:../STM32Cube_FW_N6/Drivers/STM32N6xx_HAL_Driver/Inc/stm32n6xx_ll_rcc.h ****                                             RCC_CCIPR7_RTCPRE_2 | RCC_CCIPR7_RTCPRE_1 | RCC_CCIPR7_
ARM GAS  /tmp/ccjTyagi.s 			page 18


 538:../STM32Cube_FW_N6/Drivers/STM32N6xx_HAL_Driver/Inc/stm32n6xx_ll_rcc.h **** /**
 539:../STM32Cube_FW_N6/Drivers/STM32N6xx_HAL_Driver/Inc/stm32n6xx_ll_rcc.h ****   * @}
 540:../STM32Cube_FW_N6/Drivers/STM32N6xx_HAL_Driver/Inc/stm32n6xx_ll_rcc.h ****   */
 541:../STM32Cube_FW_N6/Drivers/STM32N6xx_HAL_Driver/Inc/stm32n6xx_ll_rcc.h **** 
 542:../STM32Cube_FW_N6/Drivers/STM32N6xx_HAL_Driver/Inc/stm32n6xx_ll_rcc.h **** /** @defgroup RCC_LL_EC_ADC_CLKSOURCE  Peripheral ADC clock source selection
 543:../STM32Cube_FW_N6/Drivers/STM32N6xx_HAL_Driver/Inc/stm32n6xx_ll_rcc.h ****   * @{
 544:../STM32Cube_FW_N6/Drivers/STM32N6xx_HAL_Driver/Inc/stm32n6xx_ll_rcc.h ****   */
 545:../STM32Cube_FW_N6/Drivers/STM32N6xx_HAL_Driver/Inc/stm32n6xx_ll_rcc.h **** #define LL_RCC_ADC_CLKSOURCE_HCLK          0U
 546:../STM32Cube_FW_N6/Drivers/STM32N6xx_HAL_Driver/Inc/stm32n6xx_ll_rcc.h **** #define LL_RCC_ADC_CLKSOURCE_CLKP          RCC_CCIPR1_ADC12SEL_0
 547:../STM32Cube_FW_N6/Drivers/STM32N6xx_HAL_Driver/Inc/stm32n6xx_ll_rcc.h **** #define LL_RCC_ADC_CLKSOURCE_IC7           RCC_CCIPR1_ADC12SEL_1
 548:../STM32Cube_FW_N6/Drivers/STM32N6xx_HAL_Driver/Inc/stm32n6xx_ll_rcc.h **** #define LL_RCC_ADC_CLKSOURCE_IC8           (RCC_CCIPR1_ADC12SEL_1 | RCC_CCIPR1_ADC12SEL_0)
 549:../STM32Cube_FW_N6/Drivers/STM32N6xx_HAL_Driver/Inc/stm32n6xx_ll_rcc.h **** #define LL_RCC_ADC_CLKSOURCE_MSI           RCC_CCIPR1_ADC12SEL_2
 550:../STM32Cube_FW_N6/Drivers/STM32N6xx_HAL_Driver/Inc/stm32n6xx_ll_rcc.h **** #define LL_RCC_ADC_CLKSOURCE_HSI           (RCC_CCIPR1_ADC12SEL_2 | RCC_CCIPR1_ADC12SEL_0)
 551:../STM32Cube_FW_N6/Drivers/STM32N6xx_HAL_Driver/Inc/stm32n6xx_ll_rcc.h **** #define LL_RCC_ADC_CLKSOURCE_I2S_CKIN      (RCC_CCIPR1_ADC12SEL_2 | RCC_CCIPR1_ADC12SEL_1)
 552:../STM32Cube_FW_N6/Drivers/STM32N6xx_HAL_Driver/Inc/stm32n6xx_ll_rcc.h **** #define LL_RCC_ADC_CLKSOURCE_TIMG          (RCC_CCIPR1_ADC12SEL_2 | RCC_CCIPR1_ADC12SEL_1 | RCC_CCI
 553:../STM32Cube_FW_N6/Drivers/STM32N6xx_HAL_Driver/Inc/stm32n6xx_ll_rcc.h **** /**
 554:../STM32Cube_FW_N6/Drivers/STM32N6xx_HAL_Driver/Inc/stm32n6xx_ll_rcc.h ****   * @}
 555:../STM32Cube_FW_N6/Drivers/STM32N6xx_HAL_Driver/Inc/stm32n6xx_ll_rcc.h ****   */
 556:../STM32Cube_FW_N6/Drivers/STM32N6xx_HAL_Driver/Inc/stm32n6xx_ll_rcc.h **** 
 557:../STM32Cube_FW_N6/Drivers/STM32N6xx_HAL_Driver/Inc/stm32n6xx_ll_rcc.h **** /** @defgroup RCC_LL_EC_ADF_CLKSOURCE  Peripheral ADF clock source selection
 558:../STM32Cube_FW_N6/Drivers/STM32N6xx_HAL_Driver/Inc/stm32n6xx_ll_rcc.h ****   * @{
 559:../STM32Cube_FW_N6/Drivers/STM32N6xx_HAL_Driver/Inc/stm32n6xx_ll_rcc.h ****   */
 560:../STM32Cube_FW_N6/Drivers/STM32N6xx_HAL_Driver/Inc/stm32n6xx_ll_rcc.h **** #define LL_RCC_ADF1_CLKSOURCE_HCLK         0U
 561:../STM32Cube_FW_N6/Drivers/STM32N6xx_HAL_Driver/Inc/stm32n6xx_ll_rcc.h **** #define LL_RCC_ADF1_CLKSOURCE_CLKP         RCC_CCIPR1_ADF1SEL_0
 562:../STM32Cube_FW_N6/Drivers/STM32N6xx_HAL_Driver/Inc/stm32n6xx_ll_rcc.h **** #define LL_RCC_ADF1_CLKSOURCE_IC7          RCC_CCIPR1_ADF1SEL_1
 563:../STM32Cube_FW_N6/Drivers/STM32N6xx_HAL_Driver/Inc/stm32n6xx_ll_rcc.h **** #define LL_RCC_ADF1_CLKSOURCE_IC8          (RCC_CCIPR1_ADF1SEL_1 | RCC_CCIPR1_ADF1SEL_0)
 564:../STM32Cube_FW_N6/Drivers/STM32N6xx_HAL_Driver/Inc/stm32n6xx_ll_rcc.h **** #define LL_RCC_ADF1_CLKSOURCE_MSI          RCC_CCIPR1_ADF1SEL_2
 565:../STM32Cube_FW_N6/Drivers/STM32N6xx_HAL_Driver/Inc/stm32n6xx_ll_rcc.h **** #define LL_RCC_ADF1_CLKSOURCE_HSI          (RCC_CCIPR1_ADF1SEL_2 | RCC_CCIPR1_ADF1SEL_0)
 566:../STM32Cube_FW_N6/Drivers/STM32N6xx_HAL_Driver/Inc/stm32n6xx_ll_rcc.h **** #define LL_RCC_ADF1_CLKSOURCE_I2S_CKIN     (RCC_CCIPR1_ADF1SEL_2 | RCC_CCIPR1_ADF1SEL_1)
 567:../STM32Cube_FW_N6/Drivers/STM32N6xx_HAL_Driver/Inc/stm32n6xx_ll_rcc.h **** #define LL_RCC_ADF1_CLKSOURCE_TIMG         (RCC_CCIPR1_ADF1SEL_2 | RCC_CCIPR1_ADF1SEL_1 | RCC_CCIPR
 568:../STM32Cube_FW_N6/Drivers/STM32N6xx_HAL_Driver/Inc/stm32n6xx_ll_rcc.h **** /**
 569:../STM32Cube_FW_N6/Drivers/STM32N6xx_HAL_Driver/Inc/stm32n6xx_ll_rcc.h ****   * @}
 570:../STM32Cube_FW_N6/Drivers/STM32N6xx_HAL_Driver/Inc/stm32n6xx_ll_rcc.h ****   */
 571:../STM32Cube_FW_N6/Drivers/STM32N6xx_HAL_Driver/Inc/stm32n6xx_ll_rcc.h **** 
 572:../STM32Cube_FW_N6/Drivers/STM32N6xx_HAL_Driver/Inc/stm32n6xx_ll_rcc.h **** /** @defgroup RCC_LL_EC_CLKP_CLKSOURCE  Peripheral CLKP clock source selection
 573:../STM32Cube_FW_N6/Drivers/STM32N6xx_HAL_Driver/Inc/stm32n6xx_ll_rcc.h ****   * @{
 574:../STM32Cube_FW_N6/Drivers/STM32N6xx_HAL_Driver/Inc/stm32n6xx_ll_rcc.h ****   */
 575:../STM32Cube_FW_N6/Drivers/STM32N6xx_HAL_Driver/Inc/stm32n6xx_ll_rcc.h **** #define LL_RCC_CLKP_CLKSOURCE_HSI          0U
 576:../STM32Cube_FW_N6/Drivers/STM32N6xx_HAL_Driver/Inc/stm32n6xx_ll_rcc.h **** #define LL_RCC_CLKP_CLKSOURCE_MSI          RCC_CCIPR7_PERSEL_0
 577:../STM32Cube_FW_N6/Drivers/STM32N6xx_HAL_Driver/Inc/stm32n6xx_ll_rcc.h **** #define LL_RCC_CLKP_CLKSOURCE_HSE          RCC_CCIPR7_PERSEL_1
 578:../STM32Cube_FW_N6/Drivers/STM32N6xx_HAL_Driver/Inc/stm32n6xx_ll_rcc.h **** #define LL_RCC_CLKP_CLKSOURCE_IC19         (RCC_CCIPR7_PERSEL_1 | RCC_CCIPR7_PERSEL_0)
 579:../STM32Cube_FW_N6/Drivers/STM32N6xx_HAL_Driver/Inc/stm32n6xx_ll_rcc.h **** #define LL_RCC_CLKP_CLKSOURCE_IC5          RCC_CCIPR7_PERSEL_2
 580:../STM32Cube_FW_N6/Drivers/STM32N6xx_HAL_Driver/Inc/stm32n6xx_ll_rcc.h **** #define LL_RCC_CLKP_CLKSOURCE_IC10         (RCC_CCIPR7_PERSEL_2 | RCC_CCIPR7_PERSEL_0)
 581:../STM32Cube_FW_N6/Drivers/STM32N6xx_HAL_Driver/Inc/stm32n6xx_ll_rcc.h **** #define LL_RCC_CLKP_CLKSOURCE_IC15         (RCC_CCIPR7_PERSEL_2 | RCC_CCIPR7_PERSEL_1)
 582:../STM32Cube_FW_N6/Drivers/STM32N6xx_HAL_Driver/Inc/stm32n6xx_ll_rcc.h **** #define LL_RCC_CLKP_CLKSOURCE_IC20         (RCC_CCIPR7_PERSEL_2 | RCC_CCIPR7_PERSEL_1 | RCC_CCIPR7_
 583:../STM32Cube_FW_N6/Drivers/STM32N6xx_HAL_Driver/Inc/stm32n6xx_ll_rcc.h **** /**
 584:../STM32Cube_FW_N6/Drivers/STM32N6xx_HAL_Driver/Inc/stm32n6xx_ll_rcc.h ****   * @}
 585:../STM32Cube_FW_N6/Drivers/STM32N6xx_HAL_Driver/Inc/stm32n6xx_ll_rcc.h ****   */
 586:../STM32Cube_FW_N6/Drivers/STM32N6xx_HAL_Driver/Inc/stm32n6xx_ll_rcc.h **** 
 587:../STM32Cube_FW_N6/Drivers/STM32N6xx_HAL_Driver/Inc/stm32n6xx_ll_rcc.h **** /** @defgroup RCC_LL_EC_DCMIPP_CLKSOURCE  Peripheral DCMIPP clock source selection
 588:../STM32Cube_FW_N6/Drivers/STM32N6xx_HAL_Driver/Inc/stm32n6xx_ll_rcc.h ****   * @{
 589:../STM32Cube_FW_N6/Drivers/STM32N6xx_HAL_Driver/Inc/stm32n6xx_ll_rcc.h ****   */
 590:../STM32Cube_FW_N6/Drivers/STM32N6xx_HAL_Driver/Inc/stm32n6xx_ll_rcc.h **** #define LL_RCC_DCMIPP_CLKSOURCE_PCLK5      0U
 591:../STM32Cube_FW_N6/Drivers/STM32N6xx_HAL_Driver/Inc/stm32n6xx_ll_rcc.h **** #define LL_RCC_DCMIPP_CLKSOURCE_CLKP       RCC_CCIPR1_DCMIPPSEL_0
 592:../STM32Cube_FW_N6/Drivers/STM32N6xx_HAL_Driver/Inc/stm32n6xx_ll_rcc.h **** #define LL_RCC_DCMIPP_CLKSOURCE_IC17       RCC_CCIPR1_DCMIPPSEL_1
 593:../STM32Cube_FW_N6/Drivers/STM32N6xx_HAL_Driver/Inc/stm32n6xx_ll_rcc.h **** #define LL_RCC_DCMIPP_CLKSOURCE_HSI        (RCC_CCIPR1_DCMIPPSEL_1 | RCC_CCIPR1_DCMIPPSEL_0)
 594:../STM32Cube_FW_N6/Drivers/STM32N6xx_HAL_Driver/Inc/stm32n6xx_ll_rcc.h **** /**
ARM GAS  /tmp/ccjTyagi.s 			page 19


 595:../STM32Cube_FW_N6/Drivers/STM32N6xx_HAL_Driver/Inc/stm32n6xx_ll_rcc.h ****   * @}
 596:../STM32Cube_FW_N6/Drivers/STM32N6xx_HAL_Driver/Inc/stm32n6xx_ll_rcc.h ****   */
 597:../STM32Cube_FW_N6/Drivers/STM32N6xx_HAL_Driver/Inc/stm32n6xx_ll_rcc.h **** 
 598:../STM32Cube_FW_N6/Drivers/STM32N6xx_HAL_Driver/Inc/stm32n6xx_ll_rcc.h **** /** @defgroup RCC_LL_EC_ETH_CLKSOURCE  Peripheral ETH kernel clock source selection
 599:../STM32Cube_FW_N6/Drivers/STM32N6xx_HAL_Driver/Inc/stm32n6xx_ll_rcc.h ****   * @{
 600:../STM32Cube_FW_N6/Drivers/STM32N6xx_HAL_Driver/Inc/stm32n6xx_ll_rcc.h ****   */
 601:../STM32Cube_FW_N6/Drivers/STM32N6xx_HAL_Driver/Inc/stm32n6xx_ll_rcc.h **** #define LL_RCC_ETH1_CLKSOURCE_HCLK         0U
 602:../STM32Cube_FW_N6/Drivers/STM32N6xx_HAL_Driver/Inc/stm32n6xx_ll_rcc.h **** #define LL_RCC_ETH1_CLKSOURCE_CLKP         RCC_CCIPR2_ETH1CLKSEL_0
 603:../STM32Cube_FW_N6/Drivers/STM32N6xx_HAL_Driver/Inc/stm32n6xx_ll_rcc.h **** #define LL_RCC_ETH1_CLKSOURCE_IC12         RCC_CCIPR2_ETH1CLKSEL_1
 604:../STM32Cube_FW_N6/Drivers/STM32N6xx_HAL_Driver/Inc/stm32n6xx_ll_rcc.h **** #define LL_RCC_ETH1_CLKSOURCE_HSE          (RCC_CCIPR2_ETH1CLKSEL_1 | RCC_CCIPR2_ETH1CLKSEL_0)
 605:../STM32Cube_FW_N6/Drivers/STM32N6xx_HAL_Driver/Inc/stm32n6xx_ll_rcc.h **** /**
 606:../STM32Cube_FW_N6/Drivers/STM32N6xx_HAL_Driver/Inc/stm32n6xx_ll_rcc.h ****   * @}
 607:../STM32Cube_FW_N6/Drivers/STM32N6xx_HAL_Driver/Inc/stm32n6xx_ll_rcc.h ****   */
 608:../STM32Cube_FW_N6/Drivers/STM32N6xx_HAL_Driver/Inc/stm32n6xx_ll_rcc.h **** 
 609:../STM32Cube_FW_N6/Drivers/STM32N6xx_HAL_Driver/Inc/stm32n6xx_ll_rcc.h **** /** @defgroup RCC_LL_EC_ETHPHY_IF  Peripheral ETH PHY interface selection
 610:../STM32Cube_FW_N6/Drivers/STM32N6xx_HAL_Driver/Inc/stm32n6xx_ll_rcc.h ****   * @{
 611:../STM32Cube_FW_N6/Drivers/STM32N6xx_HAL_Driver/Inc/stm32n6xx_ll_rcc.h ****   */
 612:../STM32Cube_FW_N6/Drivers/STM32N6xx_HAL_Driver/Inc/stm32n6xx_ll_rcc.h **** #define LL_RCC_ETH1PHY_IF_MII              0U
 613:../STM32Cube_FW_N6/Drivers/STM32N6xx_HAL_Driver/Inc/stm32n6xx_ll_rcc.h **** #define LL_RCC_ETH1PHY_IF_RGMII            RCC_CCIPR2_ETH1SEL_0
 614:../STM32Cube_FW_N6/Drivers/STM32N6xx_HAL_Driver/Inc/stm32n6xx_ll_rcc.h **** #define LL_RCC_ETH1PHY_IF_RMII             RCC_CCIPR2_ETH1SEL_2
 615:../STM32Cube_FW_N6/Drivers/STM32N6xx_HAL_Driver/Inc/stm32n6xx_ll_rcc.h **** /**
 616:../STM32Cube_FW_N6/Drivers/STM32N6xx_HAL_Driver/Inc/stm32n6xx_ll_rcc.h ****   * @}
 617:../STM32Cube_FW_N6/Drivers/STM32N6xx_HAL_Driver/Inc/stm32n6xx_ll_rcc.h ****   */
 618:../STM32Cube_FW_N6/Drivers/STM32N6xx_HAL_Driver/Inc/stm32n6xx_ll_rcc.h **** 
 619:../STM32Cube_FW_N6/Drivers/STM32N6xx_HAL_Driver/Inc/stm32n6xx_ll_rcc.h **** /** @defgroup RCC_LL_EC_ETHREFRX_CLKSOURCE  Peripheral ETH Reference RX clock source selection
 620:../STM32Cube_FW_N6/Drivers/STM32N6xx_HAL_Driver/Inc/stm32n6xx_ll_rcc.h ****   * @{
 621:../STM32Cube_FW_N6/Drivers/STM32N6xx_HAL_Driver/Inc/stm32n6xx_ll_rcc.h ****   */
 622:../STM32Cube_FW_N6/Drivers/STM32N6xx_HAL_Driver/Inc/stm32n6xx_ll_rcc.h **** #define LL_RCC_ETH1REFRX_CLKSOURCE_EXT     0U
 623:../STM32Cube_FW_N6/Drivers/STM32N6xx_HAL_Driver/Inc/stm32n6xx_ll_rcc.h **** #define LL_RCC_ETH1REFRX_CLKSOURCE_INT     RCC_CCIPR2_ETH1REFCLKSEL
 624:../STM32Cube_FW_N6/Drivers/STM32N6xx_HAL_Driver/Inc/stm32n6xx_ll_rcc.h **** /**
 625:../STM32Cube_FW_N6/Drivers/STM32N6xx_HAL_Driver/Inc/stm32n6xx_ll_rcc.h ****   * @}
 626:../STM32Cube_FW_N6/Drivers/STM32N6xx_HAL_Driver/Inc/stm32n6xx_ll_rcc.h ****   */
 627:../STM32Cube_FW_N6/Drivers/STM32N6xx_HAL_Driver/Inc/stm32n6xx_ll_rcc.h **** 
 628:../STM32Cube_FW_N6/Drivers/STM32N6xx_HAL_Driver/Inc/stm32n6xx_ll_rcc.h **** /** @defgroup RCC_LL_EC_ETHREFTX_CLKSOURCE  Peripheral ETH Reference TX clock source selection
 629:../STM32Cube_FW_N6/Drivers/STM32N6xx_HAL_Driver/Inc/stm32n6xx_ll_rcc.h ****   * @{
 630:../STM32Cube_FW_N6/Drivers/STM32N6xx_HAL_Driver/Inc/stm32n6xx_ll_rcc.h ****   */
 631:../STM32Cube_FW_N6/Drivers/STM32N6xx_HAL_Driver/Inc/stm32n6xx_ll_rcc.h **** #define LL_RCC_ETH1REFTX_CLKSOURCE_EXT     0U
 632:../STM32Cube_FW_N6/Drivers/STM32N6xx_HAL_Driver/Inc/stm32n6xx_ll_rcc.h **** #define LL_RCC_ETH1REFTX_CLKSOURCE_INT     RCC_CCIPR2_ETH1GTXCLKSEL
 633:../STM32Cube_FW_N6/Drivers/STM32N6xx_HAL_Driver/Inc/stm32n6xx_ll_rcc.h **** /**
 634:../STM32Cube_FW_N6/Drivers/STM32N6xx_HAL_Driver/Inc/stm32n6xx_ll_rcc.h ****   * @}
 635:../STM32Cube_FW_N6/Drivers/STM32N6xx_HAL_Driver/Inc/stm32n6xx_ll_rcc.h ****   */
 636:../STM32Cube_FW_N6/Drivers/STM32N6xx_HAL_Driver/Inc/stm32n6xx_ll_rcc.h **** 
 637:../STM32Cube_FW_N6/Drivers/STM32N6xx_HAL_Driver/Inc/stm32n6xx_ll_rcc.h **** /** @defgroup RCC_LL_EC_ETHPTP_CLKSOURCE  Peripheral ETH PTP kernel clock source selection
 638:../STM32Cube_FW_N6/Drivers/STM32N6xx_HAL_Driver/Inc/stm32n6xx_ll_rcc.h ****   * @{
 639:../STM32Cube_FW_N6/Drivers/STM32N6xx_HAL_Driver/Inc/stm32n6xx_ll_rcc.h ****   */
 640:../STM32Cube_FW_N6/Drivers/STM32N6xx_HAL_Driver/Inc/stm32n6xx_ll_rcc.h **** #define LL_RCC_ETH1PTP_CLKSOURCE_HCLK      0U
 641:../STM32Cube_FW_N6/Drivers/STM32N6xx_HAL_Driver/Inc/stm32n6xx_ll_rcc.h **** #define LL_RCC_ETH1PTP_CLKSOURCE_CLKP      RCC_CCIPR2_ETH1PTPSEL_0
 642:../STM32Cube_FW_N6/Drivers/STM32N6xx_HAL_Driver/Inc/stm32n6xx_ll_rcc.h **** #define LL_RCC_ETH1PTP_CLKSOURCE_IC13      RCC_CCIPR2_ETH1PTPSEL_1
 643:../STM32Cube_FW_N6/Drivers/STM32N6xx_HAL_Driver/Inc/stm32n6xx_ll_rcc.h **** #define LL_RCC_ETH1PTP_CLKSOURCE_HSE       (RCC_CCIPR2_ETH1PTPSEL_1 | RCC_CCIPR2_ETH1PTPSEL_0)
 644:../STM32Cube_FW_N6/Drivers/STM32N6xx_HAL_Driver/Inc/stm32n6xx_ll_rcc.h **** /**
 645:../STM32Cube_FW_N6/Drivers/STM32N6xx_HAL_Driver/Inc/stm32n6xx_ll_rcc.h ****   * @}
 646:../STM32Cube_FW_N6/Drivers/STM32N6xx_HAL_Driver/Inc/stm32n6xx_ll_rcc.h ****   */
 647:../STM32Cube_FW_N6/Drivers/STM32N6xx_HAL_Driver/Inc/stm32n6xx_ll_rcc.h **** 
 648:../STM32Cube_FW_N6/Drivers/STM32N6xx_HAL_Driver/Inc/stm32n6xx_ll_rcc.h **** /** @defgroup RCC_LL_EC_ETH1PTP_DIV  ETH1 PTP kernel clock divider selection
 649:../STM32Cube_FW_N6/Drivers/STM32N6xx_HAL_Driver/Inc/stm32n6xx_ll_rcc.h ****   * @{
 650:../STM32Cube_FW_N6/Drivers/STM32N6xx_HAL_Driver/Inc/stm32n6xx_ll_rcc.h ****   */
 651:../STM32Cube_FW_N6/Drivers/STM32N6xx_HAL_Driver/Inc/stm32n6xx_ll_rcc.h **** #define LL_RCC_ETH1PTP_DIV_1               0U
ARM GAS  /tmp/ccjTyagi.s 			page 20


 652:../STM32Cube_FW_N6/Drivers/STM32N6xx_HAL_Driver/Inc/stm32n6xx_ll_rcc.h **** #define LL_RCC_ETH1PTP_DIV_2               RCC_CCIPR2_ETH1PTPDIV_0
 653:../STM32Cube_FW_N6/Drivers/STM32N6xx_HAL_Driver/Inc/stm32n6xx_ll_rcc.h **** #define LL_RCC_ETH1PTP_DIV_3               RCC_CCIPR2_ETH1PTPDIV_1
 654:../STM32Cube_FW_N6/Drivers/STM32N6xx_HAL_Driver/Inc/stm32n6xx_ll_rcc.h **** #define LL_RCC_ETH1PTP_DIV_4               (RCC_CCIPR2_ETH1PTPDIV_1 | RCC_CCIPR2_ETH1PTPDIV_0)
 655:../STM32Cube_FW_N6/Drivers/STM32N6xx_HAL_Driver/Inc/stm32n6xx_ll_rcc.h **** #define LL_RCC_ETH1PTP_DIV_5               RCC_CCIPR2_ETH1PTPDIV_2
 656:../STM32Cube_FW_N6/Drivers/STM32N6xx_HAL_Driver/Inc/stm32n6xx_ll_rcc.h **** #define LL_RCC_ETH1PTP_DIV_6               (RCC_CCIPR2_ETH1PTPDIV_2 | RCC_CCIPR2_ETH1PTPDIV_0)
 657:../STM32Cube_FW_N6/Drivers/STM32N6xx_HAL_Driver/Inc/stm32n6xx_ll_rcc.h **** #define LL_RCC_ETH1PTP_DIV_7               (RCC_CCIPR2_ETH1PTPDIV_2 | RCC_CCIPR2_ETH1PTPDIV_1)
 658:../STM32Cube_FW_N6/Drivers/STM32N6xx_HAL_Driver/Inc/stm32n6xx_ll_rcc.h **** #define LL_RCC_ETH1PTP_DIV_8               (RCC_CCIPR2_ETH1PTPDIV_2 | RCC_CCIPR2_ETH1PTPDIV_1 | RCC
 659:../STM32Cube_FW_N6/Drivers/STM32N6xx_HAL_Driver/Inc/stm32n6xx_ll_rcc.h **** #define LL_RCC_ETH1PTP_DIV_9               RCC_CCIPR2_ETH1PTPDIV_3
 660:../STM32Cube_FW_N6/Drivers/STM32N6xx_HAL_Driver/Inc/stm32n6xx_ll_rcc.h **** #define LL_RCC_ETH1PTP_DIV_10              (RCC_CCIPR2_ETH1PTPDIV_3 | RCC_CCIPR2_ETH1PTPDIV_0)
 661:../STM32Cube_FW_N6/Drivers/STM32N6xx_HAL_Driver/Inc/stm32n6xx_ll_rcc.h **** #define LL_RCC_ETH1PTP_DIV_11              (RCC_CCIPR2_ETH1PTPDIV_3 | RCC_CCIPR2_ETH1PTPDIV_1)
 662:../STM32Cube_FW_N6/Drivers/STM32N6xx_HAL_Driver/Inc/stm32n6xx_ll_rcc.h **** #define LL_RCC_ETH1PTP_DIV_12              (RCC_CCIPR2_ETH1PTPDIV_3 | RCC_CCIPR2_ETH1PTPDIV_1 | RCC
 663:../STM32Cube_FW_N6/Drivers/STM32N6xx_HAL_Driver/Inc/stm32n6xx_ll_rcc.h **** #define LL_RCC_ETH1PTP_DIV_13              (RCC_CCIPR2_ETH1PTPDIV_3 | RCC_CCIPR2_ETH1PTPDIV_2)
 664:../STM32Cube_FW_N6/Drivers/STM32N6xx_HAL_Driver/Inc/stm32n6xx_ll_rcc.h **** #define LL_RCC_ETH1PTP_DIV_14              (RCC_CCIPR2_ETH1PTPDIV_3 | RCC_CCIPR2_ETH1PTPDIV_2 | RCC
 665:../STM32Cube_FW_N6/Drivers/STM32N6xx_HAL_Driver/Inc/stm32n6xx_ll_rcc.h **** #define LL_RCC_ETH1PTP_DIV_15              (RCC_CCIPR2_ETH1PTPDIV_3 | RCC_CCIPR2_ETH1PTPDIV_2 | RCC
 666:../STM32Cube_FW_N6/Drivers/STM32N6xx_HAL_Driver/Inc/stm32n6xx_ll_rcc.h **** #define LL_RCC_ETH1PTP_DIV_16              (RCC_CCIPR2_ETH1PTPDIV_3 |\
 667:../STM32Cube_FW_N6/Drivers/STM32N6xx_HAL_Driver/Inc/stm32n6xx_ll_rcc.h ****                                             RCC_CCIPR2_ETH1PTPDIV_2 | RCC_CCIPR2_ETH1PTPDIV_1 | RCC
 668:../STM32Cube_FW_N6/Drivers/STM32N6xx_HAL_Driver/Inc/stm32n6xx_ll_rcc.h **** /**
 669:../STM32Cube_FW_N6/Drivers/STM32N6xx_HAL_Driver/Inc/stm32n6xx_ll_rcc.h ****   * @}
 670:../STM32Cube_FW_N6/Drivers/STM32N6xx_HAL_Driver/Inc/stm32n6xx_ll_rcc.h ****   */
 671:../STM32Cube_FW_N6/Drivers/STM32N6xx_HAL_Driver/Inc/stm32n6xx_ll_rcc.h **** 
 672:../STM32Cube_FW_N6/Drivers/STM32N6xx_HAL_Driver/Inc/stm32n6xx_ll_rcc.h **** /** @defgroup RCC_LL_EC_FDCAN_CLKSOURCE  Peripheral FDCAN clock source selection
 673:../STM32Cube_FW_N6/Drivers/STM32N6xx_HAL_Driver/Inc/stm32n6xx_ll_rcc.h ****   * @{
 674:../STM32Cube_FW_N6/Drivers/STM32N6xx_HAL_Driver/Inc/stm32n6xx_ll_rcc.h ****   */
 675:../STM32Cube_FW_N6/Drivers/STM32N6xx_HAL_Driver/Inc/stm32n6xx_ll_rcc.h **** #define LL_RCC_FDCAN_CLKSOURCE_PCLK1       0U
 676:../STM32Cube_FW_N6/Drivers/STM32N6xx_HAL_Driver/Inc/stm32n6xx_ll_rcc.h **** #define LL_RCC_FDCAN_CLKSOURCE_CLKP        RCC_CCIPR3_FDCANSEL_0
 677:../STM32Cube_FW_N6/Drivers/STM32N6xx_HAL_Driver/Inc/stm32n6xx_ll_rcc.h **** #define LL_RCC_FDCAN_CLKSOURCE_IC19        RCC_CCIPR3_FDCANSEL_1
 678:../STM32Cube_FW_N6/Drivers/STM32N6xx_HAL_Driver/Inc/stm32n6xx_ll_rcc.h **** #define LL_RCC_FDCAN_CLKSOURCE_HSE         (RCC_CCIPR3_FDCANSEL_1 | RCC_CCIPR3_FDCANSEL_0)
 679:../STM32Cube_FW_N6/Drivers/STM32N6xx_HAL_Driver/Inc/stm32n6xx_ll_rcc.h **** /**
 680:../STM32Cube_FW_N6/Drivers/STM32N6xx_HAL_Driver/Inc/stm32n6xx_ll_rcc.h ****   * @}
 681:../STM32Cube_FW_N6/Drivers/STM32N6xx_HAL_Driver/Inc/stm32n6xx_ll_rcc.h ****   */
 682:../STM32Cube_FW_N6/Drivers/STM32N6xx_HAL_Driver/Inc/stm32n6xx_ll_rcc.h **** 
 683:../STM32Cube_FW_N6/Drivers/STM32N6xx_HAL_Driver/Inc/stm32n6xx_ll_rcc.h **** /** @defgroup RCC_LL_EC_FMC_CLKSOURCE  Peripheral FMC clock source selection
 684:../STM32Cube_FW_N6/Drivers/STM32N6xx_HAL_Driver/Inc/stm32n6xx_ll_rcc.h ****   * @{
 685:../STM32Cube_FW_N6/Drivers/STM32N6xx_HAL_Driver/Inc/stm32n6xx_ll_rcc.h ****   */
 686:../STM32Cube_FW_N6/Drivers/STM32N6xx_HAL_Driver/Inc/stm32n6xx_ll_rcc.h **** #define LL_RCC_FMC_CLKSOURCE_HCLK          0U
 687:../STM32Cube_FW_N6/Drivers/STM32N6xx_HAL_Driver/Inc/stm32n6xx_ll_rcc.h **** #define LL_RCC_FMC_CLKSOURCE_CLKP          RCC_CCIPR3_FMCSEL_0
 688:../STM32Cube_FW_N6/Drivers/STM32N6xx_HAL_Driver/Inc/stm32n6xx_ll_rcc.h **** #define LL_RCC_FMC_CLKSOURCE_IC3           RCC_CCIPR3_FMCSEL_1
 689:../STM32Cube_FW_N6/Drivers/STM32N6xx_HAL_Driver/Inc/stm32n6xx_ll_rcc.h **** #define LL_RCC_FMC_CLKSOURCE_IC4           (RCC_CCIPR3_FMCSEL_1 | RCC_CCIPR3_FMCSEL_0)
 690:../STM32Cube_FW_N6/Drivers/STM32N6xx_HAL_Driver/Inc/stm32n6xx_ll_rcc.h **** /**
 691:../STM32Cube_FW_N6/Drivers/STM32N6xx_HAL_Driver/Inc/stm32n6xx_ll_rcc.h ****   * @}
 692:../STM32Cube_FW_N6/Drivers/STM32N6xx_HAL_Driver/Inc/stm32n6xx_ll_rcc.h ****   */
 693:../STM32Cube_FW_N6/Drivers/STM32N6xx_HAL_Driver/Inc/stm32n6xx_ll_rcc.h **** 
 694:../STM32Cube_FW_N6/Drivers/STM32N6xx_HAL_Driver/Inc/stm32n6xx_ll_rcc.h **** /** @defgroup RCC_LL_EC_I2C_CLKSOURCE  Peripheral I2C clock source selection
 695:../STM32Cube_FW_N6/Drivers/STM32N6xx_HAL_Driver/Inc/stm32n6xx_ll_rcc.h ****   * @{
 696:../STM32Cube_FW_N6/Drivers/STM32N6xx_HAL_Driver/Inc/stm32n6xx_ll_rcc.h ****   */
 697:../STM32Cube_FW_N6/Drivers/STM32N6xx_HAL_Driver/Inc/stm32n6xx_ll_rcc.h **** #define LL_RCC_I2C1_CLKSOURCE_PCLK1        LL_CLKSOURCE(CCIPR4_OFFSET, RCC_CCIPR4_I2C1SEL, RCC_CCIP
 698:../STM32Cube_FW_N6/Drivers/STM32N6xx_HAL_Driver/Inc/stm32n6xx_ll_rcc.h **** #define LL_RCC_I2C1_CLKSOURCE_CLKP         LL_CLKSOURCE(CCIPR4_OFFSET, RCC_CCIPR4_I2C1SEL, RCC_CCIP
 699:../STM32Cube_FW_N6/Drivers/STM32N6xx_HAL_Driver/Inc/stm32n6xx_ll_rcc.h ****                                                         RCC_CCIPR4_I2C1SEL_0)
 700:../STM32Cube_FW_N6/Drivers/STM32N6xx_HAL_Driver/Inc/stm32n6xx_ll_rcc.h **** #define LL_RCC_I2C1_CLKSOURCE_IC10         LL_CLKSOURCE(CCIPR4_OFFSET, RCC_CCIPR4_I2C1SEL, RCC_CCIP
 701:../STM32Cube_FW_N6/Drivers/STM32N6xx_HAL_Driver/Inc/stm32n6xx_ll_rcc.h ****                                                         RCC_CCIPR4_I2C1SEL_1)
 702:../STM32Cube_FW_N6/Drivers/STM32N6xx_HAL_Driver/Inc/stm32n6xx_ll_rcc.h **** #define LL_RCC_I2C1_CLKSOURCE_IC15         LL_CLKSOURCE(CCIPR4_OFFSET, RCC_CCIPR4_I2C1SEL, RCC_CCIP
 703:../STM32Cube_FW_N6/Drivers/STM32N6xx_HAL_Driver/Inc/stm32n6xx_ll_rcc.h ****                                                         RCC_CCIPR4_I2C1SEL_1 | RCC_CCIPR4_I2C1SEL_0
 704:../STM32Cube_FW_N6/Drivers/STM32N6xx_HAL_Driver/Inc/stm32n6xx_ll_rcc.h **** #define LL_RCC_I2C1_CLKSOURCE_MSI          LL_CLKSOURCE(CCIPR4_OFFSET, RCC_CCIPR4_I2C1SEL, RCC_CCIP
 705:../STM32Cube_FW_N6/Drivers/STM32N6xx_HAL_Driver/Inc/stm32n6xx_ll_rcc.h ****                                                         RCC_CCIPR4_I2C1SEL_2)
 706:../STM32Cube_FW_N6/Drivers/STM32N6xx_HAL_Driver/Inc/stm32n6xx_ll_rcc.h **** #define LL_RCC_I2C1_CLKSOURCE_HSI          LL_CLKSOURCE(CCIPR4_OFFSET, RCC_CCIPR4_I2C1SEL, RCC_CCIP
 707:../STM32Cube_FW_N6/Drivers/STM32N6xx_HAL_Driver/Inc/stm32n6xx_ll_rcc.h ****                                                         RCC_CCIPR4_I2C1SEL_2| RCC_CCIPR4_I2C1SEL_0)
 708:../STM32Cube_FW_N6/Drivers/STM32N6xx_HAL_Driver/Inc/stm32n6xx_ll_rcc.h **** 
ARM GAS  /tmp/ccjTyagi.s 			page 21


 709:../STM32Cube_FW_N6/Drivers/STM32N6xx_HAL_Driver/Inc/stm32n6xx_ll_rcc.h **** #define LL_RCC_I2C2_CLKSOURCE_PCLK1        LL_CLKSOURCE(CCIPR4_OFFSET, RCC_CCIPR4_I2C2SEL, RCC_CCIP
 710:../STM32Cube_FW_N6/Drivers/STM32N6xx_HAL_Driver/Inc/stm32n6xx_ll_rcc.h **** #define LL_RCC_I2C2_CLKSOURCE_CLKP         LL_CLKSOURCE(CCIPR4_OFFSET, RCC_CCIPR4_I2C2SEL, RCC_CCIP
 711:../STM32Cube_FW_N6/Drivers/STM32N6xx_HAL_Driver/Inc/stm32n6xx_ll_rcc.h ****                                                         RCC_CCIPR4_I2C2SEL_0)
 712:../STM32Cube_FW_N6/Drivers/STM32N6xx_HAL_Driver/Inc/stm32n6xx_ll_rcc.h **** #define LL_RCC_I2C2_CLKSOURCE_IC10         LL_CLKSOURCE(CCIPR4_OFFSET, RCC_CCIPR4_I2C2SEL, RCC_CCIP
 713:../STM32Cube_FW_N6/Drivers/STM32N6xx_HAL_Driver/Inc/stm32n6xx_ll_rcc.h ****                                                         RCC_CCIPR4_I2C2SEL_1)
 714:../STM32Cube_FW_N6/Drivers/STM32N6xx_HAL_Driver/Inc/stm32n6xx_ll_rcc.h **** #define LL_RCC_I2C2_CLKSOURCE_IC15         LL_CLKSOURCE(CCIPR4_OFFSET, RCC_CCIPR4_I2C2SEL, RCC_CCIP
 715:../STM32Cube_FW_N6/Drivers/STM32N6xx_HAL_Driver/Inc/stm32n6xx_ll_rcc.h ****                                                         RCC_CCIPR4_I2C2SEL_1 | RCC_CCIPR4_I2C2SEL_0
 716:../STM32Cube_FW_N6/Drivers/STM32N6xx_HAL_Driver/Inc/stm32n6xx_ll_rcc.h **** #define LL_RCC_I2C2_CLKSOURCE_MSI          LL_CLKSOURCE(CCIPR4_OFFSET, RCC_CCIPR4_I2C2SEL, RCC_CCIP
 717:../STM32Cube_FW_N6/Drivers/STM32N6xx_HAL_Driver/Inc/stm32n6xx_ll_rcc.h ****                                                         RCC_CCIPR4_I2C2SEL_2)
 718:../STM32Cube_FW_N6/Drivers/STM32N6xx_HAL_Driver/Inc/stm32n6xx_ll_rcc.h **** #define LL_RCC_I2C2_CLKSOURCE_HSI          LL_CLKSOURCE(CCIPR4_OFFSET, RCC_CCIPR4_I2C2SEL, RCC_CCIP
 719:../STM32Cube_FW_N6/Drivers/STM32N6xx_HAL_Driver/Inc/stm32n6xx_ll_rcc.h ****                                                         RCC_CCIPR4_I2C2SEL_2 | RCC_CCIPR4_I2C2SEL_0
 720:../STM32Cube_FW_N6/Drivers/STM32N6xx_HAL_Driver/Inc/stm32n6xx_ll_rcc.h **** 
 721:../STM32Cube_FW_N6/Drivers/STM32N6xx_HAL_Driver/Inc/stm32n6xx_ll_rcc.h **** #define LL_RCC_I2C3_CLKSOURCE_PCLK1        LL_CLKSOURCE(CCIPR4_OFFSET, RCC_CCIPR4_I2C3SEL, RCC_CCIP
 722:../STM32Cube_FW_N6/Drivers/STM32N6xx_HAL_Driver/Inc/stm32n6xx_ll_rcc.h **** #define LL_RCC_I2C3_CLKSOURCE_CLKP         LL_CLKSOURCE(CCIPR4_OFFSET, RCC_CCIPR4_I2C3SEL, RCC_CCIP
 723:../STM32Cube_FW_N6/Drivers/STM32N6xx_HAL_Driver/Inc/stm32n6xx_ll_rcc.h ****                                                         RCC_CCIPR4_I2C3SEL_0)
 724:../STM32Cube_FW_N6/Drivers/STM32N6xx_HAL_Driver/Inc/stm32n6xx_ll_rcc.h **** #define LL_RCC_I2C3_CLKSOURCE_IC10         LL_CLKSOURCE(CCIPR4_OFFSET, RCC_CCIPR4_I2C3SEL, RCC_CCIP
 725:../STM32Cube_FW_N6/Drivers/STM32N6xx_HAL_Driver/Inc/stm32n6xx_ll_rcc.h ****                                                         RCC_CCIPR4_I2C3SEL_1)
 726:../STM32Cube_FW_N6/Drivers/STM32N6xx_HAL_Driver/Inc/stm32n6xx_ll_rcc.h **** #define LL_RCC_I2C3_CLKSOURCE_IC15         LL_CLKSOURCE(CCIPR4_OFFSET, RCC_CCIPR4_I2C3SEL, RCC_CCIP
 727:../STM32Cube_FW_N6/Drivers/STM32N6xx_HAL_Driver/Inc/stm32n6xx_ll_rcc.h ****                                                         RCC_CCIPR4_I2C3SEL_1 | RCC_CCIPR4_I2C3SEL_0
 728:../STM32Cube_FW_N6/Drivers/STM32N6xx_HAL_Driver/Inc/stm32n6xx_ll_rcc.h **** #define LL_RCC_I2C3_CLKSOURCE_MSI          LL_CLKSOURCE(CCIPR4_OFFSET, RCC_CCIPR4_I2C3SEL, RCC_CCIP
 729:../STM32Cube_FW_N6/Drivers/STM32N6xx_HAL_Driver/Inc/stm32n6xx_ll_rcc.h ****                                                         RCC_CCIPR4_I2C3SEL_2)
 730:../STM32Cube_FW_N6/Drivers/STM32N6xx_HAL_Driver/Inc/stm32n6xx_ll_rcc.h **** #define LL_RCC_I2C3_CLKSOURCE_HSI          LL_CLKSOURCE(CCIPR4_OFFSET, RCC_CCIPR4_I2C3SEL, RCC_CCIP
 731:../STM32Cube_FW_N6/Drivers/STM32N6xx_HAL_Driver/Inc/stm32n6xx_ll_rcc.h ****                                                         RCC_CCIPR4_I2C3SEL_2| RCC_CCIPR4_I2C3SEL_0)
 732:../STM32Cube_FW_N6/Drivers/STM32N6xx_HAL_Driver/Inc/stm32n6xx_ll_rcc.h **** 
 733:../STM32Cube_FW_N6/Drivers/STM32N6xx_HAL_Driver/Inc/stm32n6xx_ll_rcc.h **** #define LL_RCC_I2C4_CLKSOURCE_PCLK1        LL_CLKSOURCE(CCIPR4_OFFSET, RCC_CCIPR4_I2C4SEL, RCC_CCIP
 734:../STM32Cube_FW_N6/Drivers/STM32N6xx_HAL_Driver/Inc/stm32n6xx_ll_rcc.h **** #define LL_RCC_I2C4_CLKSOURCE_CLKP         LL_CLKSOURCE(CCIPR4_OFFSET, RCC_CCIPR4_I2C4SEL, RCC_CCIP
 735:../STM32Cube_FW_N6/Drivers/STM32N6xx_HAL_Driver/Inc/stm32n6xx_ll_rcc.h ****                                                         RCC_CCIPR4_I2C4SEL_0)
 736:../STM32Cube_FW_N6/Drivers/STM32N6xx_HAL_Driver/Inc/stm32n6xx_ll_rcc.h **** #define LL_RCC_I2C4_CLKSOURCE_IC10         LL_CLKSOURCE(CCIPR4_OFFSET, RCC_CCIPR4_I2C4SEL, RCC_CCIP
 737:../STM32Cube_FW_N6/Drivers/STM32N6xx_HAL_Driver/Inc/stm32n6xx_ll_rcc.h ****                                                         RCC_CCIPR4_I2C4SEL_1)
 738:../STM32Cube_FW_N6/Drivers/STM32N6xx_HAL_Driver/Inc/stm32n6xx_ll_rcc.h **** #define LL_RCC_I2C4_CLKSOURCE_IC15         LL_CLKSOURCE(CCIPR4_OFFSET, RCC_CCIPR4_I2C4SEL, RCC_CCIP
 739:../STM32Cube_FW_N6/Drivers/STM32N6xx_HAL_Driver/Inc/stm32n6xx_ll_rcc.h ****                                                         RCC_CCIPR4_I2C4SEL_1 | RCC_CCIPR4_I2C4SEL_0
 740:../STM32Cube_FW_N6/Drivers/STM32N6xx_HAL_Driver/Inc/stm32n6xx_ll_rcc.h **** #define LL_RCC_I2C4_CLKSOURCE_MSI          LL_CLKSOURCE(CCIPR4_OFFSET, RCC_CCIPR4_I2C4SEL, RCC_CCIP
 741:../STM32Cube_FW_N6/Drivers/STM32N6xx_HAL_Driver/Inc/stm32n6xx_ll_rcc.h ****                                                         RCC_CCIPR4_I2C4SEL_2)
 742:../STM32Cube_FW_N6/Drivers/STM32N6xx_HAL_Driver/Inc/stm32n6xx_ll_rcc.h **** #define LL_RCC_I2C4_CLKSOURCE_HSI          LL_CLKSOURCE(CCIPR4_OFFSET, RCC_CCIPR4_I2C4SEL, RCC_CCIP
 743:../STM32Cube_FW_N6/Drivers/STM32N6xx_HAL_Driver/Inc/stm32n6xx_ll_rcc.h ****                                                         RCC_CCIPR4_I2C4SEL_2| RCC_CCIPR4_I2C4SEL_0)
 744:../STM32Cube_FW_N6/Drivers/STM32N6xx_HAL_Driver/Inc/stm32n6xx_ll_rcc.h **** /**
 745:../STM32Cube_FW_N6/Drivers/STM32N6xx_HAL_Driver/Inc/stm32n6xx_ll_rcc.h ****   * @}
 746:../STM32Cube_FW_N6/Drivers/STM32N6xx_HAL_Driver/Inc/stm32n6xx_ll_rcc.h ****   */
 747:../STM32Cube_FW_N6/Drivers/STM32N6xx_HAL_Driver/Inc/stm32n6xx_ll_rcc.h **** 
 748:../STM32Cube_FW_N6/Drivers/STM32N6xx_HAL_Driver/Inc/stm32n6xx_ll_rcc.h **** /** @defgroup RCC_LL_EC_I3C_CLKSOURCE  Peripheral I3C clock source selection
 749:../STM32Cube_FW_N6/Drivers/STM32N6xx_HAL_Driver/Inc/stm32n6xx_ll_rcc.h ****   * @{
 750:../STM32Cube_FW_N6/Drivers/STM32N6xx_HAL_Driver/Inc/stm32n6xx_ll_rcc.h ****   */
 751:../STM32Cube_FW_N6/Drivers/STM32N6xx_HAL_Driver/Inc/stm32n6xx_ll_rcc.h **** #define LL_RCC_I3C1_CLKSOURCE_PCLK1        LL_CLKSOURCE(CCIPR4_OFFSET, RCC_CCIPR4_I3C1SEL, RCC_CCIP
 752:../STM32Cube_FW_N6/Drivers/STM32N6xx_HAL_Driver/Inc/stm32n6xx_ll_rcc.h **** #define LL_RCC_I3C1_CLKSOURCE_CLKP         LL_CLKSOURCE(CCIPR4_OFFSET, RCC_CCIPR4_I3C1SEL, RCC_CCIP
 753:../STM32Cube_FW_N6/Drivers/STM32N6xx_HAL_Driver/Inc/stm32n6xx_ll_rcc.h ****                                                         RCC_CCIPR4_I3C1SEL_0)
 754:../STM32Cube_FW_N6/Drivers/STM32N6xx_HAL_Driver/Inc/stm32n6xx_ll_rcc.h **** #define LL_RCC_I3C1_CLKSOURCE_IC10         LL_CLKSOURCE(CCIPR4_OFFSET, RCC_CCIPR4_I3C1SEL, RCC_CCIP
 755:../STM32Cube_FW_N6/Drivers/STM32N6xx_HAL_Driver/Inc/stm32n6xx_ll_rcc.h ****                                                         RCC_CCIPR4_I3C1SEL_1)
 756:../STM32Cube_FW_N6/Drivers/STM32N6xx_HAL_Driver/Inc/stm32n6xx_ll_rcc.h **** #define LL_RCC_I3C1_CLKSOURCE_IC15         LL_CLKSOURCE(CCIPR4_OFFSET, RCC_CCIPR4_I3C1SEL, RCC_CCIP
 757:../STM32Cube_FW_N6/Drivers/STM32N6xx_HAL_Driver/Inc/stm32n6xx_ll_rcc.h ****                                                         RCC_CCIPR4_I3C1SEL_1 | RCC_CCIPR4_I3C1SEL_0
 758:../STM32Cube_FW_N6/Drivers/STM32N6xx_HAL_Driver/Inc/stm32n6xx_ll_rcc.h **** #define LL_RCC_I3C1_CLKSOURCE_MSI          LL_CLKSOURCE(CCIPR4_OFFSET, RCC_CCIPR4_I3C1SEL, RCC_CCIP
 759:../STM32Cube_FW_N6/Drivers/STM32N6xx_HAL_Driver/Inc/stm32n6xx_ll_rcc.h ****                                                         RCC_CCIPR4_I3C1SEL_2)
 760:../STM32Cube_FW_N6/Drivers/STM32N6xx_HAL_Driver/Inc/stm32n6xx_ll_rcc.h **** #define LL_RCC_I3C1_CLKSOURCE_HSI          LL_CLKSOURCE(CCIPR4_OFFSET, RCC_CCIPR4_I3C1SEL, RCC_CCIP
 761:../STM32Cube_FW_N6/Drivers/STM32N6xx_HAL_Driver/Inc/stm32n6xx_ll_rcc.h ****                                                         RCC_CCIPR4_I3C1SEL_2| RCC_CCIPR4_I3C1SEL_0)
 762:../STM32Cube_FW_N6/Drivers/STM32N6xx_HAL_Driver/Inc/stm32n6xx_ll_rcc.h **** 
 763:../STM32Cube_FW_N6/Drivers/STM32N6xx_HAL_Driver/Inc/stm32n6xx_ll_rcc.h **** #define LL_RCC_I3C2_CLKSOURCE_PCLK1        LL_CLKSOURCE(CCIPR4_OFFSET, RCC_CCIPR4_I3C2SEL, RCC_CCIP
 764:../STM32Cube_FW_N6/Drivers/STM32N6xx_HAL_Driver/Inc/stm32n6xx_ll_rcc.h **** #define LL_RCC_I3C2_CLKSOURCE_CLKP         LL_CLKSOURCE(CCIPR4_OFFSET, RCC_CCIPR4_I3C2SEL, RCC_CCIP
 765:../STM32Cube_FW_N6/Drivers/STM32N6xx_HAL_Driver/Inc/stm32n6xx_ll_rcc.h ****                                                         RCC_CCIPR4_I3C2SEL_0)
ARM GAS  /tmp/ccjTyagi.s 			page 22


 766:../STM32Cube_FW_N6/Drivers/STM32N6xx_HAL_Driver/Inc/stm32n6xx_ll_rcc.h **** #define LL_RCC_I3C2_CLKSOURCE_IC10         LL_CLKSOURCE(CCIPR4_OFFSET, RCC_CCIPR4_I3C2SEL, RCC_CCIP
 767:../STM32Cube_FW_N6/Drivers/STM32N6xx_HAL_Driver/Inc/stm32n6xx_ll_rcc.h ****                                                         RCC_CCIPR4_I3C2SEL_1)
 768:../STM32Cube_FW_N6/Drivers/STM32N6xx_HAL_Driver/Inc/stm32n6xx_ll_rcc.h **** #define LL_RCC_I3C2_CLKSOURCE_IC15         LL_CLKSOURCE(CCIPR4_OFFSET, RCC_CCIPR4_I3C2SEL, RCC_CCIP
 769:../STM32Cube_FW_N6/Drivers/STM32N6xx_HAL_Driver/Inc/stm32n6xx_ll_rcc.h ****                                                         RCC_CCIPR4_I3C2SEL_1 | RCC_CCIPR4_I3C2SEL_0
 770:../STM32Cube_FW_N6/Drivers/STM32N6xx_HAL_Driver/Inc/stm32n6xx_ll_rcc.h **** #define LL_RCC_I3C2_CLKSOURCE_MSI          LL_CLKSOURCE(CCIPR4_OFFSET, RCC_CCIPR4_I3C2SEL, RCC_CCIP
 771:../STM32Cube_FW_N6/Drivers/STM32N6xx_HAL_Driver/Inc/stm32n6xx_ll_rcc.h ****                                                         RCC_CCIPR4_I3C2SEL_2)
 772:../STM32Cube_FW_N6/Drivers/STM32N6xx_HAL_Driver/Inc/stm32n6xx_ll_rcc.h **** #define LL_RCC_I3C2_CLKSOURCE_HSI          LL_CLKSOURCE(CCIPR4_OFFSET, RCC_CCIPR4_I3C2SEL, RCC_CCIP
 773:../STM32Cube_FW_N6/Drivers/STM32N6xx_HAL_Driver/Inc/stm32n6xx_ll_rcc.h ****                                                         RCC_CCIPR4_I3C2SEL_2 | RCC_CCIPR4_I3C2SEL_0
 774:../STM32Cube_FW_N6/Drivers/STM32N6xx_HAL_Driver/Inc/stm32n6xx_ll_rcc.h **** /**
 775:../STM32Cube_FW_N6/Drivers/STM32N6xx_HAL_Driver/Inc/stm32n6xx_ll_rcc.h ****   * @}
 776:../STM32Cube_FW_N6/Drivers/STM32N6xx_HAL_Driver/Inc/stm32n6xx_ll_rcc.h ****   */
 777:../STM32Cube_FW_N6/Drivers/STM32N6xx_HAL_Driver/Inc/stm32n6xx_ll_rcc.h **** 
 778:../STM32Cube_FW_N6/Drivers/STM32N6xx_HAL_Driver/Inc/stm32n6xx_ll_rcc.h **** /** @defgroup RCC_LL_EC_LPTIM_CLKSOURCE  Peripheral LPTIM clock source selection
 779:../STM32Cube_FW_N6/Drivers/STM32N6xx_HAL_Driver/Inc/stm32n6xx_ll_rcc.h ****   * @{
 780:../STM32Cube_FW_N6/Drivers/STM32N6xx_HAL_Driver/Inc/stm32n6xx_ll_rcc.h ****   */
 781:../STM32Cube_FW_N6/Drivers/STM32N6xx_HAL_Driver/Inc/stm32n6xx_ll_rcc.h **** #define LL_RCC_LPTIM1_CLKSOURCE_PCLK1      LL_CLKSOURCE(CCIPR12_OFFSET, RCC_CCIPR12_LPTIM1SEL,  RCC
 782:../STM32Cube_FW_N6/Drivers/STM32N6xx_HAL_Driver/Inc/stm32n6xx_ll_rcc.h **** #define LL_RCC_LPTIM1_CLKSOURCE_CLKP       LL_CLKSOURCE(CCIPR12_OFFSET, RCC_CCIPR12_LPTIM1SEL,  RCC
 783:../STM32Cube_FW_N6/Drivers/STM32N6xx_HAL_Driver/Inc/stm32n6xx_ll_rcc.h **** #define LL_RCC_LPTIM1_CLKSOURCE_IC15       LL_CLKSOURCE(CCIPR12_OFFSET, RCC_CCIPR12_LPTIM1SEL,  RCC
 784:../STM32Cube_FW_N6/Drivers/STM32N6xx_HAL_Driver/Inc/stm32n6xx_ll_rcc.h **** #define LL_RCC_LPTIM1_CLKSOURCE_LSE        LL_CLKSOURCE(CCIPR12_OFFSET, RCC_CCIPR12_LPTIM1SEL,  RCC
 785:../STM32Cube_FW_N6/Drivers/STM32N6xx_HAL_Driver/Inc/stm32n6xx_ll_rcc.h ****                                                         RCC_CCIPR12_LPTIM1SEL_0)
 786:../STM32Cube_FW_N6/Drivers/STM32N6xx_HAL_Driver/Inc/stm32n6xx_ll_rcc.h **** #define LL_RCC_LPTIM1_CLKSOURCE_LSI        LL_CLKSOURCE(CCIPR12_OFFSET, RCC_CCIPR12_LPTIM1SEL,  RCC
 787:../STM32Cube_FW_N6/Drivers/STM32N6xx_HAL_Driver/Inc/stm32n6xx_ll_rcc.h **** #define LL_RCC_LPTIM1_CLKSOURCE_TIMG       LL_CLKSOURCE(CCIPR12_OFFSET, RCC_CCIPR12_LPTIM1SEL,  RCC
 788:../STM32Cube_FW_N6/Drivers/STM32N6xx_HAL_Driver/Inc/stm32n6xx_ll_rcc.h ****                                                         RCC_CCIPR12_LPTIM1SEL_0)
 789:../STM32Cube_FW_N6/Drivers/STM32N6xx_HAL_Driver/Inc/stm32n6xx_ll_rcc.h **** 
 790:../STM32Cube_FW_N6/Drivers/STM32N6xx_HAL_Driver/Inc/stm32n6xx_ll_rcc.h **** #define LL_RCC_LPTIM2_CLKSOURCE_PCLK4      LL_CLKSOURCE(CCIPR12_OFFSET, RCC_CCIPR12_LPTIM2SEL,  RCC
 791:../STM32Cube_FW_N6/Drivers/STM32N6xx_HAL_Driver/Inc/stm32n6xx_ll_rcc.h **** #define LL_RCC_LPTIM2_CLKSOURCE_CLKP       LL_CLKSOURCE(CCIPR12_OFFSET, RCC_CCIPR12_LPTIM2SEL,  RCC
 792:../STM32Cube_FW_N6/Drivers/STM32N6xx_HAL_Driver/Inc/stm32n6xx_ll_rcc.h **** #define LL_RCC_LPTIM2_CLKSOURCE_IC15       LL_CLKSOURCE(CCIPR12_OFFSET, RCC_CCIPR12_LPTIM2SEL,  RCC
 793:../STM32Cube_FW_N6/Drivers/STM32N6xx_HAL_Driver/Inc/stm32n6xx_ll_rcc.h **** #define LL_RCC_LPTIM2_CLKSOURCE_LSE        LL_CLKSOURCE(CCIPR12_OFFSET, RCC_CCIPR12_LPTIM2SEL,  RCC
 794:../STM32Cube_FW_N6/Drivers/STM32N6xx_HAL_Driver/Inc/stm32n6xx_ll_rcc.h ****                                                         RCC_CCIPR12_LPTIM2SEL_0)
 795:../STM32Cube_FW_N6/Drivers/STM32N6xx_HAL_Driver/Inc/stm32n6xx_ll_rcc.h **** #define LL_RCC_LPTIM2_CLKSOURCE_LSI        LL_CLKSOURCE(CCIPR12_OFFSET, RCC_CCIPR12_LPTIM2SEL,  RCC
 796:../STM32Cube_FW_N6/Drivers/STM32N6xx_HAL_Driver/Inc/stm32n6xx_ll_rcc.h **** #define LL_RCC_LPTIM2_CLKSOURCE_TIMG       LL_CLKSOURCE(CCIPR12_OFFSET, RCC_CCIPR12_LPTIM2SEL,  RCC
 797:../STM32Cube_FW_N6/Drivers/STM32N6xx_HAL_Driver/Inc/stm32n6xx_ll_rcc.h ****                                                         RCC_CCIPR12_LPTIM2SEL_0)
 798:../STM32Cube_FW_N6/Drivers/STM32N6xx_HAL_Driver/Inc/stm32n6xx_ll_rcc.h **** 
 799:../STM32Cube_FW_N6/Drivers/STM32N6xx_HAL_Driver/Inc/stm32n6xx_ll_rcc.h **** #define LL_RCC_LPTIM3_CLKSOURCE_PCLK4      LL_CLKSOURCE(CCIPR12_OFFSET, RCC_CCIPR12_LPTIM3SEL,  RCC
 800:../STM32Cube_FW_N6/Drivers/STM32N6xx_HAL_Driver/Inc/stm32n6xx_ll_rcc.h **** #define LL_RCC_LPTIM3_CLKSOURCE_CLKP       LL_CLKSOURCE(CCIPR12_OFFSET, RCC_CCIPR12_LPTIM3SEL,  RCC
 801:../STM32Cube_FW_N6/Drivers/STM32N6xx_HAL_Driver/Inc/stm32n6xx_ll_rcc.h **** #define LL_RCC_LPTIM3_CLKSOURCE_IC15       LL_CLKSOURCE(CCIPR12_OFFSET, RCC_CCIPR12_LPTIM3SEL,  RCC
 802:../STM32Cube_FW_N6/Drivers/STM32N6xx_HAL_Driver/Inc/stm32n6xx_ll_rcc.h **** #define LL_RCC_LPTIM3_CLKSOURCE_LSE        LL_CLKSOURCE(CCIPR12_OFFSET, RCC_CCIPR12_LPTIM3SEL,  RCC
 803:../STM32Cube_FW_N6/Drivers/STM32N6xx_HAL_Driver/Inc/stm32n6xx_ll_rcc.h ****                                                         RCC_CCIPR12_LPTIM3SEL_0)
 804:../STM32Cube_FW_N6/Drivers/STM32N6xx_HAL_Driver/Inc/stm32n6xx_ll_rcc.h **** #define LL_RCC_LPTIM3_CLKSOURCE_LSI        LL_CLKSOURCE(CCIPR12_OFFSET, RCC_CCIPR12_LPTIM3SEL,  RCC
 805:../STM32Cube_FW_N6/Drivers/STM32N6xx_HAL_Driver/Inc/stm32n6xx_ll_rcc.h **** #define LL_RCC_LPTIM3_CLKSOURCE_TIMG       LL_CLKSOURCE(CCIPR12_OFFSET, RCC_CCIPR12_LPTIM3SEL,  RCC
 806:../STM32Cube_FW_N6/Drivers/STM32N6xx_HAL_Driver/Inc/stm32n6xx_ll_rcc.h ****                                                         RCC_CCIPR12_LPTIM3SEL_0)
 807:../STM32Cube_FW_N6/Drivers/STM32N6xx_HAL_Driver/Inc/stm32n6xx_ll_rcc.h **** 
 808:../STM32Cube_FW_N6/Drivers/STM32N6xx_HAL_Driver/Inc/stm32n6xx_ll_rcc.h **** #define LL_RCC_LPTIM4_CLKSOURCE_PCLK4      LL_CLKSOURCE(CCIPR12_OFFSET, RCC_CCIPR12_LPTIM4SEL,  RCC
 809:../STM32Cube_FW_N6/Drivers/STM32N6xx_HAL_Driver/Inc/stm32n6xx_ll_rcc.h **** #define LL_RCC_LPTIM4_CLKSOURCE_CLKP       LL_CLKSOURCE(CCIPR12_OFFSET, RCC_CCIPR12_LPTIM4SEL,  RCC
 810:../STM32Cube_FW_N6/Drivers/STM32N6xx_HAL_Driver/Inc/stm32n6xx_ll_rcc.h **** #define LL_RCC_LPTIM4_CLKSOURCE_IC15       LL_CLKSOURCE(CCIPR12_OFFSET, RCC_CCIPR12_LPTIM4SEL,  RCC
 811:../STM32Cube_FW_N6/Drivers/STM32N6xx_HAL_Driver/Inc/stm32n6xx_ll_rcc.h **** #define LL_RCC_LPTIM4_CLKSOURCE_LSE        LL_CLKSOURCE(CCIPR12_OFFSET, RCC_CCIPR12_LPTIM4SEL,  RCC
 812:../STM32Cube_FW_N6/Drivers/STM32N6xx_HAL_Driver/Inc/stm32n6xx_ll_rcc.h ****                                                         RCC_CCIPR12_LPTIM4SEL_0)
 813:../STM32Cube_FW_N6/Drivers/STM32N6xx_HAL_Driver/Inc/stm32n6xx_ll_rcc.h **** #define LL_RCC_LPTIM4_CLKSOURCE_LSI        LL_CLKSOURCE(CCIPR12_OFFSET, RCC_CCIPR12_LPTIM4SEL,  RCC
 814:../STM32Cube_FW_N6/Drivers/STM32N6xx_HAL_Driver/Inc/stm32n6xx_ll_rcc.h **** #define LL_RCC_LPTIM4_CLKSOURCE_TIMG       LL_CLKSOURCE(CCIPR12_OFFSET, RCC_CCIPR12_LPTIM4SEL,  RCC
 815:../STM32Cube_FW_N6/Drivers/STM32N6xx_HAL_Driver/Inc/stm32n6xx_ll_rcc.h ****                                                         RCC_CCIPR12_LPTIM4SEL_0)
 816:../STM32Cube_FW_N6/Drivers/STM32N6xx_HAL_Driver/Inc/stm32n6xx_ll_rcc.h **** 
 817:../STM32Cube_FW_N6/Drivers/STM32N6xx_HAL_Driver/Inc/stm32n6xx_ll_rcc.h **** #define LL_RCC_LPTIM5_CLKSOURCE_PCLK4      LL_CLKSOURCE(CCIPR12_OFFSET, RCC_CCIPR12_LPTIM5SEL,  RCC
 818:../STM32Cube_FW_N6/Drivers/STM32N6xx_HAL_Driver/Inc/stm32n6xx_ll_rcc.h **** #define LL_RCC_LPTIM5_CLKSOURCE_CLKP       LL_CLKSOURCE(CCIPR12_OFFSET, RCC_CCIPR12_LPTIM5SEL,  RCC
 819:../STM32Cube_FW_N6/Drivers/STM32N6xx_HAL_Driver/Inc/stm32n6xx_ll_rcc.h **** #define LL_RCC_LPTIM5_CLKSOURCE_IC15       LL_CLKSOURCE(CCIPR12_OFFSET, RCC_CCIPR12_LPTIM5SEL,  RCC
 820:../STM32Cube_FW_N6/Drivers/STM32N6xx_HAL_Driver/Inc/stm32n6xx_ll_rcc.h **** #define LL_RCC_LPTIM5_CLKSOURCE_LSE        LL_CLKSOURCE(CCIPR12_OFFSET, RCC_CCIPR12_LPTIM5SEL,  RCC
 821:../STM32Cube_FW_N6/Drivers/STM32N6xx_HAL_Driver/Inc/stm32n6xx_ll_rcc.h ****                                                         RCC_CCIPR12_LPTIM5SEL_0)
 822:../STM32Cube_FW_N6/Drivers/STM32N6xx_HAL_Driver/Inc/stm32n6xx_ll_rcc.h **** #define LL_RCC_LPTIM5_CLKSOURCE_LSI        LL_CLKSOURCE(CCIPR12_OFFSET, RCC_CCIPR12_LPTIM5SEL,  RCC
ARM GAS  /tmp/ccjTyagi.s 			page 23


 823:../STM32Cube_FW_N6/Drivers/STM32N6xx_HAL_Driver/Inc/stm32n6xx_ll_rcc.h **** #define LL_RCC_LPTIM5_CLKSOURCE_TIMG       LL_CLKSOURCE(CCIPR12_OFFSET, RCC_CCIPR12_LPTIM5SEL,  RCC
 824:../STM32Cube_FW_N6/Drivers/STM32N6xx_HAL_Driver/Inc/stm32n6xx_ll_rcc.h ****                                                         RCC_CCIPR12_LPTIM5SEL_0)
 825:../STM32Cube_FW_N6/Drivers/STM32N6xx_HAL_Driver/Inc/stm32n6xx_ll_rcc.h **** /**
 826:../STM32Cube_FW_N6/Drivers/STM32N6xx_HAL_Driver/Inc/stm32n6xx_ll_rcc.h ****   * @}
 827:../STM32Cube_FW_N6/Drivers/STM32N6xx_HAL_Driver/Inc/stm32n6xx_ll_rcc.h ****   */
 828:../STM32Cube_FW_N6/Drivers/STM32N6xx_HAL_Driver/Inc/stm32n6xx_ll_rcc.h **** 
 829:../STM32Cube_FW_N6/Drivers/STM32N6xx_HAL_Driver/Inc/stm32n6xx_ll_rcc.h **** /** @defgroup RCC_LL_EC_LPUART_CLKSOURCE  Peripheral LPUART clock source selection
 830:../STM32Cube_FW_N6/Drivers/STM32N6xx_HAL_Driver/Inc/stm32n6xx_ll_rcc.h ****   * @{
 831:../STM32Cube_FW_N6/Drivers/STM32N6xx_HAL_Driver/Inc/stm32n6xx_ll_rcc.h ****   */
 832:../STM32Cube_FW_N6/Drivers/STM32N6xx_HAL_Driver/Inc/stm32n6xx_ll_rcc.h **** #define LL_RCC_LPUART1_CLKSOURCE_PCLK4     0U
 833:../STM32Cube_FW_N6/Drivers/STM32N6xx_HAL_Driver/Inc/stm32n6xx_ll_rcc.h **** #define LL_RCC_LPUART1_CLKSOURCE_CLKP      RCC_CCIPR14_LPUART1SEL_0
 834:../STM32Cube_FW_N6/Drivers/STM32N6xx_HAL_Driver/Inc/stm32n6xx_ll_rcc.h **** #define LL_RCC_LPUART1_CLKSOURCE_IC9       RCC_CCIPR14_LPUART1SEL_1
 835:../STM32Cube_FW_N6/Drivers/STM32N6xx_HAL_Driver/Inc/stm32n6xx_ll_rcc.h **** #define LL_RCC_LPUART1_CLKSOURCE_IC14      (RCC_CCIPR14_LPUART1SEL_1 | RCC_CCIPR14_LPUART1SEL_0)
 836:../STM32Cube_FW_N6/Drivers/STM32N6xx_HAL_Driver/Inc/stm32n6xx_ll_rcc.h **** #define LL_RCC_LPUART1_CLKSOURCE_LSE       RCC_CCIPR14_LPUART1SEL_2
 837:../STM32Cube_FW_N6/Drivers/STM32N6xx_HAL_Driver/Inc/stm32n6xx_ll_rcc.h **** #define LL_RCC_LPUART1_CLKSOURCE_MSI       (RCC_CCIPR14_LPUART1SEL_2 | RCC_CCIPR14_LPUART1SEL_0)
 838:../STM32Cube_FW_N6/Drivers/STM32N6xx_HAL_Driver/Inc/stm32n6xx_ll_rcc.h **** #define LL_RCC_LPUART1_CLKSOURCE_HSI       (RCC_CCIPR14_LPUART1SEL_2 | RCC_CCIPR14_LPUART1SEL_1)
 839:../STM32Cube_FW_N6/Drivers/STM32N6xx_HAL_Driver/Inc/stm32n6xx_ll_rcc.h **** /**
 840:../STM32Cube_FW_N6/Drivers/STM32N6xx_HAL_Driver/Inc/stm32n6xx_ll_rcc.h ****   * @}
 841:../STM32Cube_FW_N6/Drivers/STM32N6xx_HAL_Driver/Inc/stm32n6xx_ll_rcc.h ****   */
 842:../STM32Cube_FW_N6/Drivers/STM32N6xx_HAL_Driver/Inc/stm32n6xx_ll_rcc.h **** 
 843:../STM32Cube_FW_N6/Drivers/STM32N6xx_HAL_Driver/Inc/stm32n6xx_ll_rcc.h **** /** @defgroup RCC_LL_EC_LTDC_CLKSOURCE  Peripheral LTDC clock source selection
 844:../STM32Cube_FW_N6/Drivers/STM32N6xx_HAL_Driver/Inc/stm32n6xx_ll_rcc.h ****   * @{
 845:../STM32Cube_FW_N6/Drivers/STM32N6xx_HAL_Driver/Inc/stm32n6xx_ll_rcc.h ****   */
 846:../STM32Cube_FW_N6/Drivers/STM32N6xx_HAL_Driver/Inc/stm32n6xx_ll_rcc.h **** #define LL_RCC_LTDC_CLKSOURCE_PCLK5        0U
 847:../STM32Cube_FW_N6/Drivers/STM32N6xx_HAL_Driver/Inc/stm32n6xx_ll_rcc.h **** #define LL_RCC_LTDC_CLKSOURCE_CLKP         RCC_CCIPR4_LTDCSEL_0
 848:../STM32Cube_FW_N6/Drivers/STM32N6xx_HAL_Driver/Inc/stm32n6xx_ll_rcc.h **** #define LL_RCC_LTDC_CLKSOURCE_IC16         RCC_CCIPR4_LTDCSEL_1
 849:../STM32Cube_FW_N6/Drivers/STM32N6xx_HAL_Driver/Inc/stm32n6xx_ll_rcc.h **** #define LL_RCC_LTDC_CLKSOURCE_HSI          (RCC_CCIPR4_LTDCSEL_1 | RCC_CCIPR4_LTDCSEL_0)
 850:../STM32Cube_FW_N6/Drivers/STM32N6xx_HAL_Driver/Inc/stm32n6xx_ll_rcc.h **** /**
 851:../STM32Cube_FW_N6/Drivers/STM32N6xx_HAL_Driver/Inc/stm32n6xx_ll_rcc.h ****   * @}
 852:../STM32Cube_FW_N6/Drivers/STM32N6xx_HAL_Driver/Inc/stm32n6xx_ll_rcc.h ****   */
 853:../STM32Cube_FW_N6/Drivers/STM32N6xx_HAL_Driver/Inc/stm32n6xx_ll_rcc.h **** 
 854:../STM32Cube_FW_N6/Drivers/STM32N6xx_HAL_Driver/Inc/stm32n6xx_ll_rcc.h **** /** @defgroup RCC_LL_EC_MDF_CLKSOURCE  Peripheral MDF clock source selection
 855:../STM32Cube_FW_N6/Drivers/STM32N6xx_HAL_Driver/Inc/stm32n6xx_ll_rcc.h ****   * @{
 856:../STM32Cube_FW_N6/Drivers/STM32N6xx_HAL_Driver/Inc/stm32n6xx_ll_rcc.h ****   */
 857:../STM32Cube_FW_N6/Drivers/STM32N6xx_HAL_Driver/Inc/stm32n6xx_ll_rcc.h **** #define LL_RCC_MDF1_CLKSOURCE_HCLK         0U
 858:../STM32Cube_FW_N6/Drivers/STM32N6xx_HAL_Driver/Inc/stm32n6xx_ll_rcc.h **** #define LL_RCC_MDF1_CLKSOURCE_CLKP         RCC_CCIPR5_MDF1SEL_0
 859:../STM32Cube_FW_N6/Drivers/STM32N6xx_HAL_Driver/Inc/stm32n6xx_ll_rcc.h **** #define LL_RCC_MDF1_CLKSOURCE_IC7          RCC_CCIPR5_MDF1SEL_1
 860:../STM32Cube_FW_N6/Drivers/STM32N6xx_HAL_Driver/Inc/stm32n6xx_ll_rcc.h **** #define LL_RCC_MDF1_CLKSOURCE_IC8          (RCC_CCIPR5_MDF1SEL_1 | RCC_CCIPR5_MDF1SEL_0)
 861:../STM32Cube_FW_N6/Drivers/STM32N6xx_HAL_Driver/Inc/stm32n6xx_ll_rcc.h **** #define LL_RCC_MDF1_CLKSOURCE_MSI          RCC_CCIPR5_MDF1SEL_2
 862:../STM32Cube_FW_N6/Drivers/STM32N6xx_HAL_Driver/Inc/stm32n6xx_ll_rcc.h **** #define LL_RCC_MDF1_CLKSOURCE_HSI          (RCC_CCIPR5_MDF1SEL_2 | RCC_CCIPR5_MDF1SEL_0)
 863:../STM32Cube_FW_N6/Drivers/STM32N6xx_HAL_Driver/Inc/stm32n6xx_ll_rcc.h **** #define LL_RCC_MDF1_CLKSOURCE_I2S_CKIN     (RCC_CCIPR5_MDF1SEL_2 | RCC_CCIPR5_MDF1SEL_1)
 864:../STM32Cube_FW_N6/Drivers/STM32N6xx_HAL_Driver/Inc/stm32n6xx_ll_rcc.h **** #define LL_RCC_MDF1_CLKSOURCE_TIMG         (RCC_CCIPR5_MDF1SEL_2 | RCC_CCIPR5_MDF1SEL_1 | RCC_CCIPR
 865:../STM32Cube_FW_N6/Drivers/STM32N6xx_HAL_Driver/Inc/stm32n6xx_ll_rcc.h **** /**
 866:../STM32Cube_FW_N6/Drivers/STM32N6xx_HAL_Driver/Inc/stm32n6xx_ll_rcc.h ****   * @}
 867:../STM32Cube_FW_N6/Drivers/STM32N6xx_HAL_Driver/Inc/stm32n6xx_ll_rcc.h ****   */
 868:../STM32Cube_FW_N6/Drivers/STM32N6xx_HAL_Driver/Inc/stm32n6xx_ll_rcc.h **** 
 869:../STM32Cube_FW_N6/Drivers/STM32N6xx_HAL_Driver/Inc/stm32n6xx_ll_rcc.h **** /** @defgroup RCC_LL_EC_OTGPHY_CLKSOURCE  Peripheral OTGPHY clock source selection
 870:../STM32Cube_FW_N6/Drivers/STM32N6xx_HAL_Driver/Inc/stm32n6xx_ll_rcc.h ****   * @{
 871:../STM32Cube_FW_N6/Drivers/STM32N6xx_HAL_Driver/Inc/stm32n6xx_ll_rcc.h ****   */
 872:../STM32Cube_FW_N6/Drivers/STM32N6xx_HAL_Driver/Inc/stm32n6xx_ll_rcc.h **** #define LL_RCC_OTGPHY1_CLKSOURCE_HSE_DIV_2     LL_CLKSOURCE(CCIPR6_OFFSET, RCC_CCIPR6_OTGPHY1SEL, R
 873:../STM32Cube_FW_N6/Drivers/STM32N6xx_HAL_Driver/Inc/stm32n6xx_ll_rcc.h **** #define LL_RCC_OTGPHY1_CLKSOURCE_CLKP          LL_CLKSOURCE(CCIPR6_OFFSET, RCC_CCIPR6_OTGPHY1SEL, R
 874:../STM32Cube_FW_N6/Drivers/STM32N6xx_HAL_Driver/Inc/stm32n6xx_ll_rcc.h **** #define LL_RCC_OTGPHY1_CLKSOURCE_IC15          LL_CLKSOURCE(CCIPR6_OFFSET, RCC_CCIPR6_OTGPHY1SEL, R
 875:../STM32Cube_FW_N6/Drivers/STM32N6xx_HAL_Driver/Inc/stm32n6xx_ll_rcc.h **** #define LL_RCC_OTGPHY1_CLKSOURCE_HSE_DIV_2_OSC LL_CLKSOURCE(CCIPR6_OFFSET, RCC_CCIPR6_OTGPHY1SEL, R
 876:../STM32Cube_FW_N6/Drivers/STM32N6xx_HAL_Driver/Inc/stm32n6xx_ll_rcc.h ****                                                             RCC_CCIPR6_OTGPHY1SEL_0)
 877:../STM32Cube_FW_N6/Drivers/STM32N6xx_HAL_Driver/Inc/stm32n6xx_ll_rcc.h **** 
 878:../STM32Cube_FW_N6/Drivers/STM32N6xx_HAL_Driver/Inc/stm32n6xx_ll_rcc.h **** #define LL_RCC_OTGPHY2_CLKSOURCE_HSE_DIV_2     LL_CLKSOURCE(CCIPR6_OFFSET, RCC_CCIPR6_OTGPHY2SEL, R
 879:../STM32Cube_FW_N6/Drivers/STM32N6xx_HAL_Driver/Inc/stm32n6xx_ll_rcc.h **** #define LL_RCC_OTGPHY2_CLKSOURCE_CLKP          LL_CLKSOURCE(CCIPR6_OFFSET, RCC_CCIPR6_OTGPHY2SEL, R
ARM GAS  /tmp/ccjTyagi.s 			page 24


 880:../STM32Cube_FW_N6/Drivers/STM32N6xx_HAL_Driver/Inc/stm32n6xx_ll_rcc.h **** #define LL_RCC_OTGPHY2_CLKSOURCE_IC15          LL_CLKSOURCE(CCIPR6_OFFSET, RCC_CCIPR6_OTGPHY2SEL, R
 881:../STM32Cube_FW_N6/Drivers/STM32N6xx_HAL_Driver/Inc/stm32n6xx_ll_rcc.h **** #define LL_RCC_OTGPHY2_CLKSOURCE_HSE_DIV_2_OSC LL_CLKSOURCE(CCIPR6_OFFSET, RCC_CCIPR6_OTGPHY2SEL, R
 882:../STM32Cube_FW_N6/Drivers/STM32N6xx_HAL_Driver/Inc/stm32n6xx_ll_rcc.h ****                                                             RCC_CCIPR6_OTGPHY2SEL_0)
 883:../STM32Cube_FW_N6/Drivers/STM32N6xx_HAL_Driver/Inc/stm32n6xx_ll_rcc.h **** /**
 884:../STM32Cube_FW_N6/Drivers/STM32N6xx_HAL_Driver/Inc/stm32n6xx_ll_rcc.h ****   * @}
 885:../STM32Cube_FW_N6/Drivers/STM32N6xx_HAL_Driver/Inc/stm32n6xx_ll_rcc.h ****   */
 886:../STM32Cube_FW_N6/Drivers/STM32N6xx_HAL_Driver/Inc/stm32n6xx_ll_rcc.h **** 
 887:../STM32Cube_FW_N6/Drivers/STM32N6xx_HAL_Driver/Inc/stm32n6xx_ll_rcc.h **** /** @defgroup RCC_LL_EC_OTGPHYCKREF_CLKSOURCE  Peripheral OTGPHYCKREF clock source selection
 888:../STM32Cube_FW_N6/Drivers/STM32N6xx_HAL_Driver/Inc/stm32n6xx_ll_rcc.h ****   * @{
 889:../STM32Cube_FW_N6/Drivers/STM32N6xx_HAL_Driver/Inc/stm32n6xx_ll_rcc.h ****   */
 890:../STM32Cube_FW_N6/Drivers/STM32N6xx_HAL_Driver/Inc/stm32n6xx_ll_rcc.h **** #define LL_RCC_OTGPHY1CKREF_CLKSOURCE_OTGPHY1       LL_CLKSOURCE(CCIPR6_OFFSET, RCC_CCIPR6_OTGPHY1C
 891:../STM32Cube_FW_N6/Drivers/STM32N6xx_HAL_Driver/Inc/stm32n6xx_ll_rcc.h **** #define LL_RCC_OTGPHY1CKREF_CLKSOURCE_HSE_DIV_2_OSC LL_CLKSOURCE(CCIPR6_OFFSET, RCC_CCIPR6_OTGPHY1C
 892:../STM32Cube_FW_N6/Drivers/STM32N6xx_HAL_Driver/Inc/stm32n6xx_ll_rcc.h **** 
 893:../STM32Cube_FW_N6/Drivers/STM32N6xx_HAL_Driver/Inc/stm32n6xx_ll_rcc.h **** #define LL_RCC_OTGPHY2CKREF_CLKSOURCE_OTGPHY2       LL_CLKSOURCE(CCIPR6_OFFSET, RCC_CCIPR6_OTGPHY2C
 894:../STM32Cube_FW_N6/Drivers/STM32N6xx_HAL_Driver/Inc/stm32n6xx_ll_rcc.h **** #define LL_RCC_OTGPHY2CKREF_CLKSOURCE_HSE_DIV_2_OSC LL_CLKSOURCE(CCIPR6_OFFSET, RCC_CCIPR6_OTGPHY2C
 895:../STM32Cube_FW_N6/Drivers/STM32N6xx_HAL_Driver/Inc/stm32n6xx_ll_rcc.h **** /**
 896:../STM32Cube_FW_N6/Drivers/STM32N6xx_HAL_Driver/Inc/stm32n6xx_ll_rcc.h ****   * @}
 897:../STM32Cube_FW_N6/Drivers/STM32N6xx_HAL_Driver/Inc/stm32n6xx_ll_rcc.h ****   */
 898:../STM32Cube_FW_N6/Drivers/STM32N6xx_HAL_Driver/Inc/stm32n6xx_ll_rcc.h **** 
 899:../STM32Cube_FW_N6/Drivers/STM32N6xx_HAL_Driver/Inc/stm32n6xx_ll_rcc.h **** /** @defgroup RCC_LL_EC_PSSI_CLKSOURCE  Peripheral PSSI clock source selection
 900:../STM32Cube_FW_N6/Drivers/STM32N6xx_HAL_Driver/Inc/stm32n6xx_ll_rcc.h ****   * @{
 901:../STM32Cube_FW_N6/Drivers/STM32N6xx_HAL_Driver/Inc/stm32n6xx_ll_rcc.h ****   */
 902:../STM32Cube_FW_N6/Drivers/STM32N6xx_HAL_Driver/Inc/stm32n6xx_ll_rcc.h **** #define LL_RCC_PSSI_CLKSOURCE_HCLK         0U
 903:../STM32Cube_FW_N6/Drivers/STM32N6xx_HAL_Driver/Inc/stm32n6xx_ll_rcc.h **** #define LL_RCC_PSSI_CLKSOURCE_CLKP         RCC_CCIPR7_PSSISEL_0
 904:../STM32Cube_FW_N6/Drivers/STM32N6xx_HAL_Driver/Inc/stm32n6xx_ll_rcc.h **** #define LL_RCC_PSSI_CLKSOURCE_IC20         RCC_CCIPR7_PSSISEL_1
 905:../STM32Cube_FW_N6/Drivers/STM32N6xx_HAL_Driver/Inc/stm32n6xx_ll_rcc.h **** #define LL_RCC_PSSI_CLKSOURCE_HSI          (RCC_CCIPR7_PSSISEL_1 | RCC_CCIPR7_PSSISEL_0)
 906:../STM32Cube_FW_N6/Drivers/STM32N6xx_HAL_Driver/Inc/stm32n6xx_ll_rcc.h **** /**
 907:../STM32Cube_FW_N6/Drivers/STM32N6xx_HAL_Driver/Inc/stm32n6xx_ll_rcc.h ****   * @}
 908:../STM32Cube_FW_N6/Drivers/STM32N6xx_HAL_Driver/Inc/stm32n6xx_ll_rcc.h ****   */
 909:../STM32Cube_FW_N6/Drivers/STM32N6xx_HAL_Driver/Inc/stm32n6xx_ll_rcc.h **** 
 910:../STM32Cube_FW_N6/Drivers/STM32N6xx_HAL_Driver/Inc/stm32n6xx_ll_rcc.h **** /** @defgroup RCC_LL_EC_RTC_CLKSOURCE  RTC clock source selection
 911:../STM32Cube_FW_N6/Drivers/STM32N6xx_HAL_Driver/Inc/stm32n6xx_ll_rcc.h ****   * @{
 912:../STM32Cube_FW_N6/Drivers/STM32N6xx_HAL_Driver/Inc/stm32n6xx_ll_rcc.h ****   */
 913:../STM32Cube_FW_N6/Drivers/STM32N6xx_HAL_Driver/Inc/stm32n6xx_ll_rcc.h **** #define LL_RCC_RTC_CLKSOURCE_NONE          0U
 914:../STM32Cube_FW_N6/Drivers/STM32N6xx_HAL_Driver/Inc/stm32n6xx_ll_rcc.h **** #define LL_RCC_RTC_CLKSOURCE_LSE           RCC_CCIPR7_RTCSEL_0
 915:../STM32Cube_FW_N6/Drivers/STM32N6xx_HAL_Driver/Inc/stm32n6xx_ll_rcc.h **** #define LL_RCC_RTC_CLKSOURCE_LSI           RCC_CCIPR7_RTCSEL_1
 916:../STM32Cube_FW_N6/Drivers/STM32N6xx_HAL_Driver/Inc/stm32n6xx_ll_rcc.h **** #define LL_RCC_RTC_CLKSOURCE_HSE           (RCC_CCIPR7_RTCSEL_1 | RCC_CCIPR7_RTCSEL_0)
 917:../STM32Cube_FW_N6/Drivers/STM32N6xx_HAL_Driver/Inc/stm32n6xx_ll_rcc.h **** /**
 918:../STM32Cube_FW_N6/Drivers/STM32N6xx_HAL_Driver/Inc/stm32n6xx_ll_rcc.h ****   * @}
 919:../STM32Cube_FW_N6/Drivers/STM32N6xx_HAL_Driver/Inc/stm32n6xx_ll_rcc.h ****   */
 920:../STM32Cube_FW_N6/Drivers/STM32N6xx_HAL_Driver/Inc/stm32n6xx_ll_rcc.h **** 
 921:../STM32Cube_FW_N6/Drivers/STM32N6xx_HAL_Driver/Inc/stm32n6xx_ll_rcc.h **** /** @defgroup RCC_LL_EC_SAI_CLKSOURCE  Peripheral SAI clock source selection
 922:../STM32Cube_FW_N6/Drivers/STM32N6xx_HAL_Driver/Inc/stm32n6xx_ll_rcc.h ****   * @{
 923:../STM32Cube_FW_N6/Drivers/STM32N6xx_HAL_Driver/Inc/stm32n6xx_ll_rcc.h ****   */
 924:../STM32Cube_FW_N6/Drivers/STM32N6xx_HAL_Driver/Inc/stm32n6xx_ll_rcc.h **** #define LL_RCC_SAI1_CLKSOURCE_PCLK2        LL_CLKSOURCE(CCIPR7_OFFSET, RCC_CCIPR7_SAI1SEL, RCC_CCIP
 925:../STM32Cube_FW_N6/Drivers/STM32N6xx_HAL_Driver/Inc/stm32n6xx_ll_rcc.h **** #define LL_RCC_SAI1_CLKSOURCE_CLKP         LL_CLKSOURCE(CCIPR7_OFFSET, RCC_CCIPR7_SAI1SEL, RCC_CCIP
 926:../STM32Cube_FW_N6/Drivers/STM32N6xx_HAL_Driver/Inc/stm32n6xx_ll_rcc.h **** #define LL_RCC_SAI1_CLKSOURCE_IC7          LL_CLKSOURCE(CCIPR7_OFFSET, RCC_CCIPR7_SAI1SEL, RCC_CCIP
 927:../STM32Cube_FW_N6/Drivers/STM32N6xx_HAL_Driver/Inc/stm32n6xx_ll_rcc.h **** #define LL_RCC_SAI1_CLKSOURCE_IC8          LL_CLKSOURCE(CCIPR7_OFFSET, RCC_CCIPR7_SAI1SEL, RCC_CCIP
 928:../STM32Cube_FW_N6/Drivers/STM32N6xx_HAL_Driver/Inc/stm32n6xx_ll_rcc.h ****                                                         RCC_CCIPR7_SAI1SEL_0)
 929:../STM32Cube_FW_N6/Drivers/STM32N6xx_HAL_Driver/Inc/stm32n6xx_ll_rcc.h **** #define LL_RCC_SAI1_CLKSOURCE_MSI          LL_CLKSOURCE(CCIPR7_OFFSET, RCC_CCIPR7_SAI1SEL, RCC_CCIP
 930:../STM32Cube_FW_N6/Drivers/STM32N6xx_HAL_Driver/Inc/stm32n6xx_ll_rcc.h **** #define LL_RCC_SAI1_CLKSOURCE_HSI          LL_CLKSOURCE(CCIPR7_OFFSET, RCC_CCIPR7_SAI1SEL, RCC_CCIP
 931:../STM32Cube_FW_N6/Drivers/STM32N6xx_HAL_Driver/Inc/stm32n6xx_ll_rcc.h ****                                                         RCC_CCIPR7_SAI1SEL_0)
 932:../STM32Cube_FW_N6/Drivers/STM32N6xx_HAL_Driver/Inc/stm32n6xx_ll_rcc.h **** #define LL_RCC_SAI1_CLKSOURCE_I2S_CKIN     LL_CLKSOURCE(CCIPR7_OFFSET, RCC_CCIPR7_SAI1SEL, RCC_CCIP
 933:../STM32Cube_FW_N6/Drivers/STM32N6xx_HAL_Driver/Inc/stm32n6xx_ll_rcc.h ****                                                         RCC_CCIPR7_SAI1SEL_1)
 934:../STM32Cube_FW_N6/Drivers/STM32N6xx_HAL_Driver/Inc/stm32n6xx_ll_rcc.h **** #define LL_RCC_SAI1_CLKSOURCE_SPDIFRX1     LL_CLKSOURCE(CCIPR7_OFFSET, RCC_CCIPR7_SAI1SEL, RCC_CCIP
 935:../STM32Cube_FW_N6/Drivers/STM32N6xx_HAL_Driver/Inc/stm32n6xx_ll_rcc.h ****                                                         RCC_CCIPR7_SAI1SEL_1 | RCC_CCIPR7_SAI1SEL_0
 936:../STM32Cube_FW_N6/Drivers/STM32N6xx_HAL_Driver/Inc/stm32n6xx_ll_rcc.h **** 
ARM GAS  /tmp/ccjTyagi.s 			page 25


 937:../STM32Cube_FW_N6/Drivers/STM32N6xx_HAL_Driver/Inc/stm32n6xx_ll_rcc.h **** #define LL_RCC_SAI2_CLKSOURCE_PCLK2        LL_CLKSOURCE(CCIPR7_OFFSET, RCC_CCIPR7_SAI2SEL, RCC_CCIP
 938:../STM32Cube_FW_N6/Drivers/STM32N6xx_HAL_Driver/Inc/stm32n6xx_ll_rcc.h **** #define LL_RCC_SAI2_CLKSOURCE_CLKP         LL_CLKSOURCE(CCIPR7_OFFSET, RCC_CCIPR7_SAI2SEL, RCC_CCIP
 939:../STM32Cube_FW_N6/Drivers/STM32N6xx_HAL_Driver/Inc/stm32n6xx_ll_rcc.h **** #define LL_RCC_SAI2_CLKSOURCE_IC7          LL_CLKSOURCE(CCIPR7_OFFSET, RCC_CCIPR7_SAI2SEL, RCC_CCIP
 940:../STM32Cube_FW_N6/Drivers/STM32N6xx_HAL_Driver/Inc/stm32n6xx_ll_rcc.h **** #define LL_RCC_SAI2_CLKSOURCE_IC8          LL_CLKSOURCE(CCIPR7_OFFSET, RCC_CCIPR7_SAI2SEL, RCC_CCIP
 941:../STM32Cube_FW_N6/Drivers/STM32N6xx_HAL_Driver/Inc/stm32n6xx_ll_rcc.h ****                                                         RCC_CCIPR7_SAI2SEL_0)
 942:../STM32Cube_FW_N6/Drivers/STM32N6xx_HAL_Driver/Inc/stm32n6xx_ll_rcc.h **** #define LL_RCC_SAI2_CLKSOURCE_MSI          LL_CLKSOURCE(CCIPR7_OFFSET, RCC_CCIPR7_SAI2SEL, RCC_CCIP
 943:../STM32Cube_FW_N6/Drivers/STM32N6xx_HAL_Driver/Inc/stm32n6xx_ll_rcc.h **** #define LL_RCC_SAI2_CLKSOURCE_HSI          LL_CLKSOURCE(CCIPR7_OFFSET, RCC_CCIPR7_SAI2SEL, RCC_CCIP
 944:../STM32Cube_FW_N6/Drivers/STM32N6xx_HAL_Driver/Inc/stm32n6xx_ll_rcc.h ****                                                         RCC_CCIPR7_SAI2SEL_0)
 945:../STM32Cube_FW_N6/Drivers/STM32N6xx_HAL_Driver/Inc/stm32n6xx_ll_rcc.h **** #define LL_RCC_SAI2_CLKSOURCE_I2S_CKIN     LL_CLKSOURCE(CCIPR7_OFFSET, RCC_CCIPR7_SAI2SEL, RCC_CCIP
 946:../STM32Cube_FW_N6/Drivers/STM32N6xx_HAL_Driver/Inc/stm32n6xx_ll_rcc.h ****                                                         RCC_CCIPR7_SAI2SEL_1)
 947:../STM32Cube_FW_N6/Drivers/STM32N6xx_HAL_Driver/Inc/stm32n6xx_ll_rcc.h **** #define LL_RCC_SAI2_CLKSOURCE_SPDIFRX1     LL_CLKSOURCE(CCIPR7_OFFSET, RCC_CCIPR7_SAI2SEL, RCC_CCIP
 948:../STM32Cube_FW_N6/Drivers/STM32N6xx_HAL_Driver/Inc/stm32n6xx_ll_rcc.h ****                                                         RCC_CCIPR7_SAI2SEL_1 | RCC_CCIPR7_SAI2SEL_0
 949:../STM32Cube_FW_N6/Drivers/STM32N6xx_HAL_Driver/Inc/stm32n6xx_ll_rcc.h **** /**
 950:../STM32Cube_FW_N6/Drivers/STM32N6xx_HAL_Driver/Inc/stm32n6xx_ll_rcc.h ****   * @}
 951:../STM32Cube_FW_N6/Drivers/STM32N6xx_HAL_Driver/Inc/stm32n6xx_ll_rcc.h ****   */
 952:../STM32Cube_FW_N6/Drivers/STM32N6xx_HAL_Driver/Inc/stm32n6xx_ll_rcc.h **** 
 953:../STM32Cube_FW_N6/Drivers/STM32N6xx_HAL_Driver/Inc/stm32n6xx_ll_rcc.h **** /** @defgroup RCC_LL_EC_SDMMC_CLKSOURCE  Peripheral SDMMC clock source selection
 954:../STM32Cube_FW_N6/Drivers/STM32N6xx_HAL_Driver/Inc/stm32n6xx_ll_rcc.h ****   * @{
 955:../STM32Cube_FW_N6/Drivers/STM32N6xx_HAL_Driver/Inc/stm32n6xx_ll_rcc.h ****   */
 956:../STM32Cube_FW_N6/Drivers/STM32N6xx_HAL_Driver/Inc/stm32n6xx_ll_rcc.h **** #define LL_RCC_SDMMC1_CLKSOURCE_HCLK       LL_CLKSOURCE(CCIPR8_OFFSET, RCC_CCIPR8_SDMMC1SEL, RCC_CC
 957:../STM32Cube_FW_N6/Drivers/STM32N6xx_HAL_Driver/Inc/stm32n6xx_ll_rcc.h **** #define LL_RCC_SDMMC1_CLKSOURCE_CLKP       LL_CLKSOURCE(CCIPR8_OFFSET, RCC_CCIPR8_SDMMC1SEL, RCC_CC
 958:../STM32Cube_FW_N6/Drivers/STM32N6xx_HAL_Driver/Inc/stm32n6xx_ll_rcc.h **** #define LL_RCC_SDMMC1_CLKSOURCE_IC4        LL_CLKSOURCE(CCIPR8_OFFSET, RCC_CCIPR8_SDMMC1SEL, RCC_CC
 959:../STM32Cube_FW_N6/Drivers/STM32N6xx_HAL_Driver/Inc/stm32n6xx_ll_rcc.h **** #define LL_RCC_SDMMC1_CLKSOURCE_IC5        LL_CLKSOURCE(CCIPR8_OFFSET, RCC_CCIPR8_SDMMC1SEL, RCC_CC
 960:../STM32Cube_FW_N6/Drivers/STM32N6xx_HAL_Driver/Inc/stm32n6xx_ll_rcc.h ****                                                         RCC_CCIPR8_SDMMC1SEL_0)
 961:../STM32Cube_FW_N6/Drivers/STM32N6xx_HAL_Driver/Inc/stm32n6xx_ll_rcc.h **** 
 962:../STM32Cube_FW_N6/Drivers/STM32N6xx_HAL_Driver/Inc/stm32n6xx_ll_rcc.h **** #define LL_RCC_SDMMC2_CLKSOURCE_HCLK       LL_CLKSOURCE(CCIPR8_OFFSET, RCC_CCIPR8_SDMMC2SEL, RCC_CC
 963:../STM32Cube_FW_N6/Drivers/STM32N6xx_HAL_Driver/Inc/stm32n6xx_ll_rcc.h **** #define LL_RCC_SDMMC2_CLKSOURCE_CLKP       LL_CLKSOURCE(CCIPR8_OFFSET, RCC_CCIPR8_SDMMC2SEL, RCC_CC
 964:../STM32Cube_FW_N6/Drivers/STM32N6xx_HAL_Driver/Inc/stm32n6xx_ll_rcc.h **** #define LL_RCC_SDMMC2_CLKSOURCE_IC4        LL_CLKSOURCE(CCIPR8_OFFSET, RCC_CCIPR8_SDMMC2SEL, RCC_CC
 965:../STM32Cube_FW_N6/Drivers/STM32N6xx_HAL_Driver/Inc/stm32n6xx_ll_rcc.h **** #define LL_RCC_SDMMC2_CLKSOURCE_IC5        LL_CLKSOURCE(CCIPR8_OFFSET, RCC_CCIPR8_SDMMC2SEL, RCC_CC
 966:../STM32Cube_FW_N6/Drivers/STM32N6xx_HAL_Driver/Inc/stm32n6xx_ll_rcc.h ****                                                         RCC_CCIPR8_SDMMC2SEL_0)
 967:../STM32Cube_FW_N6/Drivers/STM32N6xx_HAL_Driver/Inc/stm32n6xx_ll_rcc.h **** /**
 968:../STM32Cube_FW_N6/Drivers/STM32N6xx_HAL_Driver/Inc/stm32n6xx_ll_rcc.h ****   * @}
 969:../STM32Cube_FW_N6/Drivers/STM32N6xx_HAL_Driver/Inc/stm32n6xx_ll_rcc.h ****   */
 970:../STM32Cube_FW_N6/Drivers/STM32N6xx_HAL_Driver/Inc/stm32n6xx_ll_rcc.h **** 
 971:../STM32Cube_FW_N6/Drivers/STM32N6xx_HAL_Driver/Inc/stm32n6xx_ll_rcc.h **** /** @defgroup RCC_LL_EC_SPDIFRX_CLKSOURCE  Peripheral SPDIFRX clock source selection
 972:../STM32Cube_FW_N6/Drivers/STM32N6xx_HAL_Driver/Inc/stm32n6xx_ll_rcc.h ****   * @{
 973:../STM32Cube_FW_N6/Drivers/STM32N6xx_HAL_Driver/Inc/stm32n6xx_ll_rcc.h ****   */
 974:../STM32Cube_FW_N6/Drivers/STM32N6xx_HAL_Driver/Inc/stm32n6xx_ll_rcc.h **** #define LL_RCC_SPDIFRX1_CLKSOURCE_PCLK1    0U
 975:../STM32Cube_FW_N6/Drivers/STM32N6xx_HAL_Driver/Inc/stm32n6xx_ll_rcc.h **** #define LL_RCC_SPDIFRX1_CLKSOURCE_CLKP     RCC_CCIPR9_SPDIFRX1SEL_0
 976:../STM32Cube_FW_N6/Drivers/STM32N6xx_HAL_Driver/Inc/stm32n6xx_ll_rcc.h **** #define LL_RCC_SPDIFRX1_CLKSOURCE_IC7      RCC_CCIPR9_SPDIFRX1SEL_1
 977:../STM32Cube_FW_N6/Drivers/STM32N6xx_HAL_Driver/Inc/stm32n6xx_ll_rcc.h **** #define LL_RCC_SPDIFRX1_CLKSOURCE_IC8      (RCC_CCIPR9_SPDIFRX1SEL_1 | RCC_CCIPR9_SPDIFRX1SEL_0)
 978:../STM32Cube_FW_N6/Drivers/STM32N6xx_HAL_Driver/Inc/stm32n6xx_ll_rcc.h **** #define LL_RCC_SPDIFRX1_CLKSOURCE_MSI      RCC_CCIPR9_SPDIFRX1SEL_2
 979:../STM32Cube_FW_N6/Drivers/STM32N6xx_HAL_Driver/Inc/stm32n6xx_ll_rcc.h **** #define LL_RCC_SPDIFRX1_CLKSOURCE_HSI      (RCC_CCIPR9_SPDIFRX1SEL_2 | RCC_CCIPR9_SPDIFRX1SEL_0)
 980:../STM32Cube_FW_N6/Drivers/STM32N6xx_HAL_Driver/Inc/stm32n6xx_ll_rcc.h **** #define LL_RCC_SPDIFRX1_CLKSOURCE_I2S_CKIN (RCC_CCIPR9_SPDIFRX1SEL_2 | RCC_CCIPR9_SPDIFRX1SEL_1)
 981:../STM32Cube_FW_N6/Drivers/STM32N6xx_HAL_Driver/Inc/stm32n6xx_ll_rcc.h **** /**
 982:../STM32Cube_FW_N6/Drivers/STM32N6xx_HAL_Driver/Inc/stm32n6xx_ll_rcc.h ****   * @}
 983:../STM32Cube_FW_N6/Drivers/STM32N6xx_HAL_Driver/Inc/stm32n6xx_ll_rcc.h ****   */
 984:../STM32Cube_FW_N6/Drivers/STM32N6xx_HAL_Driver/Inc/stm32n6xx_ll_rcc.h **** 
 985:../STM32Cube_FW_N6/Drivers/STM32N6xx_HAL_Driver/Inc/stm32n6xx_ll_rcc.h **** /** @defgroup RCC_LL_EC_SPI_CLKSOURCE  Peripheral SPI clock source selection
 986:../STM32Cube_FW_N6/Drivers/STM32N6xx_HAL_Driver/Inc/stm32n6xx_ll_rcc.h ****   * @{
 987:../STM32Cube_FW_N6/Drivers/STM32N6xx_HAL_Driver/Inc/stm32n6xx_ll_rcc.h ****   */
 988:../STM32Cube_FW_N6/Drivers/STM32N6xx_HAL_Driver/Inc/stm32n6xx_ll_rcc.h **** #define LL_RCC_SPI1_CLKSOURCE_PCLK2        LL_CLKSOURCE(CCIPR9_OFFSET, RCC_CCIPR9_SPI1SEL, RCC_CCIP
 989:../STM32Cube_FW_N6/Drivers/STM32N6xx_HAL_Driver/Inc/stm32n6xx_ll_rcc.h **** #define LL_RCC_SPI1_CLKSOURCE_CLKP         LL_CLKSOURCE(CCIPR9_OFFSET, RCC_CCIPR9_SPI1SEL, RCC_CCIP
 990:../STM32Cube_FW_N6/Drivers/STM32N6xx_HAL_Driver/Inc/stm32n6xx_ll_rcc.h **** #define LL_RCC_SPI1_CLKSOURCE_IC8          LL_CLKSOURCE(CCIPR9_OFFSET, RCC_CCIPR9_SPI1SEL, RCC_CCIP
 991:../STM32Cube_FW_N6/Drivers/STM32N6xx_HAL_Driver/Inc/stm32n6xx_ll_rcc.h **** #define LL_RCC_SPI1_CLKSOURCE_IC9          LL_CLKSOURCE(CCIPR9_OFFSET, RCC_CCIPR9_SPI1SEL, RCC_CCIP
 992:../STM32Cube_FW_N6/Drivers/STM32N6xx_HAL_Driver/Inc/stm32n6xx_ll_rcc.h ****                                                         RCC_CCIPR9_SPI1SEL_0)
 993:../STM32Cube_FW_N6/Drivers/STM32N6xx_HAL_Driver/Inc/stm32n6xx_ll_rcc.h **** #define LL_RCC_SPI1_CLKSOURCE_MSI          LL_CLKSOURCE(CCIPR9_OFFSET, RCC_CCIPR9_SPI1SEL, RCC_CCIP
ARM GAS  /tmp/ccjTyagi.s 			page 26


 994:../STM32Cube_FW_N6/Drivers/STM32N6xx_HAL_Driver/Inc/stm32n6xx_ll_rcc.h **** #define LL_RCC_SPI1_CLKSOURCE_HSI          LL_CLKSOURCE(CCIPR9_OFFSET, RCC_CCIPR9_SPI1SEL, RCC_CCIP
 995:../STM32Cube_FW_N6/Drivers/STM32N6xx_HAL_Driver/Inc/stm32n6xx_ll_rcc.h ****                                                         RCC_CCIPR9_SPI1SEL_0)
 996:../STM32Cube_FW_N6/Drivers/STM32N6xx_HAL_Driver/Inc/stm32n6xx_ll_rcc.h **** #define LL_RCC_SPI1_CLKSOURCE_I2S_CKIN     LL_CLKSOURCE(CCIPR9_OFFSET, RCC_CCIPR9_SPI1SEL, RCC_CCIP
 997:../STM32Cube_FW_N6/Drivers/STM32N6xx_HAL_Driver/Inc/stm32n6xx_ll_rcc.h ****                                                         RCC_CCIPR9_SPI1SEL_1)
 998:../STM32Cube_FW_N6/Drivers/STM32N6xx_HAL_Driver/Inc/stm32n6xx_ll_rcc.h **** 
 999:../STM32Cube_FW_N6/Drivers/STM32N6xx_HAL_Driver/Inc/stm32n6xx_ll_rcc.h **** #define LL_RCC_SPI2_CLKSOURCE_PCLK1        LL_CLKSOURCE(CCIPR9_OFFSET, RCC_CCIPR9_SPI2SEL, RCC_CCIP
1000:../STM32Cube_FW_N6/Drivers/STM32N6xx_HAL_Driver/Inc/stm32n6xx_ll_rcc.h **** #define LL_RCC_SPI2_CLKSOURCE_CLKP         LL_CLKSOURCE(CCIPR9_OFFSET, RCC_CCIPR9_SPI2SEL, RCC_CCIP
1001:../STM32Cube_FW_N6/Drivers/STM32N6xx_HAL_Driver/Inc/stm32n6xx_ll_rcc.h **** #define LL_RCC_SPI2_CLKSOURCE_IC8          LL_CLKSOURCE(CCIPR9_OFFSET, RCC_CCIPR9_SPI2SEL, RCC_CCIP
1002:../STM32Cube_FW_N6/Drivers/STM32N6xx_HAL_Driver/Inc/stm32n6xx_ll_rcc.h **** #define LL_RCC_SPI2_CLKSOURCE_IC9          LL_CLKSOURCE(CCIPR9_OFFSET, RCC_CCIPR9_SPI2SEL, RCC_CCIP
1003:../STM32Cube_FW_N6/Drivers/STM32N6xx_HAL_Driver/Inc/stm32n6xx_ll_rcc.h ****                                                         RCC_CCIPR9_SPI2SEL_0)
1004:../STM32Cube_FW_N6/Drivers/STM32N6xx_HAL_Driver/Inc/stm32n6xx_ll_rcc.h **** #define LL_RCC_SPI2_CLKSOURCE_MSI          LL_CLKSOURCE(CCIPR9_OFFSET, RCC_CCIPR9_SPI2SEL, RCC_CCIP
1005:../STM32Cube_FW_N6/Drivers/STM32N6xx_HAL_Driver/Inc/stm32n6xx_ll_rcc.h **** #define LL_RCC_SPI2_CLKSOURCE_HSI          LL_CLKSOURCE(CCIPR9_OFFSET, RCC_CCIPR9_SPI2SEL, RCC_CCIP
1006:../STM32Cube_FW_N6/Drivers/STM32N6xx_HAL_Driver/Inc/stm32n6xx_ll_rcc.h ****                                                         RCC_CCIPR9_SPI2SEL_0)
1007:../STM32Cube_FW_N6/Drivers/STM32N6xx_HAL_Driver/Inc/stm32n6xx_ll_rcc.h **** #define LL_RCC_SPI2_CLKSOURCE_I2S_CKIN     LL_CLKSOURCE(CCIPR9_OFFSET, RCC_CCIPR9_SPI2SEL, RCC_CCIP
1008:../STM32Cube_FW_N6/Drivers/STM32N6xx_HAL_Driver/Inc/stm32n6xx_ll_rcc.h ****                                                         RCC_CCIPR9_SPI2SEL_1)
1009:../STM32Cube_FW_N6/Drivers/STM32N6xx_HAL_Driver/Inc/stm32n6xx_ll_rcc.h **** 
1010:../STM32Cube_FW_N6/Drivers/STM32N6xx_HAL_Driver/Inc/stm32n6xx_ll_rcc.h **** #define LL_RCC_SPI3_CLKSOURCE_PCLK1        LL_CLKSOURCE(CCIPR9_OFFSET, RCC_CCIPR9_SPI3SEL, RCC_CCIP
1011:../STM32Cube_FW_N6/Drivers/STM32N6xx_HAL_Driver/Inc/stm32n6xx_ll_rcc.h **** #define LL_RCC_SPI3_CLKSOURCE_CLKP         LL_CLKSOURCE(CCIPR9_OFFSET, RCC_CCIPR9_SPI3SEL, RCC_CCIP
1012:../STM32Cube_FW_N6/Drivers/STM32N6xx_HAL_Driver/Inc/stm32n6xx_ll_rcc.h **** #define LL_RCC_SPI3_CLKSOURCE_IC8          LL_CLKSOURCE(CCIPR9_OFFSET, RCC_CCIPR9_SPI3SEL, RCC_CCIP
1013:../STM32Cube_FW_N6/Drivers/STM32N6xx_HAL_Driver/Inc/stm32n6xx_ll_rcc.h **** #define LL_RCC_SPI3_CLKSOURCE_IC9          LL_CLKSOURCE(CCIPR9_OFFSET, RCC_CCIPR9_SPI3SEL, RCC_CCIP
1014:../STM32Cube_FW_N6/Drivers/STM32N6xx_HAL_Driver/Inc/stm32n6xx_ll_rcc.h ****                                                         RCC_CCIPR9_SPI3SEL_0)
1015:../STM32Cube_FW_N6/Drivers/STM32N6xx_HAL_Driver/Inc/stm32n6xx_ll_rcc.h **** #define LL_RCC_SPI3_CLKSOURCE_MSI          LL_CLKSOURCE(CCIPR9_OFFSET, RCC_CCIPR9_SPI3SEL, RCC_CCIP
1016:../STM32Cube_FW_N6/Drivers/STM32N6xx_HAL_Driver/Inc/stm32n6xx_ll_rcc.h **** #define LL_RCC_SPI3_CLKSOURCE_HSI          LL_CLKSOURCE(CCIPR9_OFFSET, RCC_CCIPR9_SPI3SEL, RCC_CCIP
1017:../STM32Cube_FW_N6/Drivers/STM32N6xx_HAL_Driver/Inc/stm32n6xx_ll_rcc.h ****                                                         RCC_CCIPR9_SPI3SEL_0)
1018:../STM32Cube_FW_N6/Drivers/STM32N6xx_HAL_Driver/Inc/stm32n6xx_ll_rcc.h **** #define LL_RCC_SPI3_CLKSOURCE_I2S_CKIN     LL_CLKSOURCE(CCIPR9_OFFSET, RCC_CCIPR9_SPI3SEL, RCC_CCIP
1019:../STM32Cube_FW_N6/Drivers/STM32N6xx_HAL_Driver/Inc/stm32n6xx_ll_rcc.h ****                                                         RCC_CCIPR9_SPI3SEL_1)
1020:../STM32Cube_FW_N6/Drivers/STM32N6xx_HAL_Driver/Inc/stm32n6xx_ll_rcc.h **** 
1021:../STM32Cube_FW_N6/Drivers/STM32N6xx_HAL_Driver/Inc/stm32n6xx_ll_rcc.h **** #define LL_RCC_SPI4_CLKSOURCE_PCLK2        LL_CLKSOURCE(CCIPR9_OFFSET, RCC_CCIPR9_SPI4SEL, RCC_CCIP
1022:../STM32Cube_FW_N6/Drivers/STM32N6xx_HAL_Driver/Inc/stm32n6xx_ll_rcc.h **** #define LL_RCC_SPI4_CLKSOURCE_CLKP         LL_CLKSOURCE(CCIPR9_OFFSET, RCC_CCIPR9_SPI4SEL, RCC_CCIP
1023:../STM32Cube_FW_N6/Drivers/STM32N6xx_HAL_Driver/Inc/stm32n6xx_ll_rcc.h **** #define LL_RCC_SPI4_CLKSOURCE_IC9          LL_CLKSOURCE(CCIPR9_OFFSET, RCC_CCIPR9_SPI4SEL, RCC_CCIP
1024:../STM32Cube_FW_N6/Drivers/STM32N6xx_HAL_Driver/Inc/stm32n6xx_ll_rcc.h **** #define LL_RCC_SPI4_CLKSOURCE_IC14         LL_CLKSOURCE(CCIPR9_OFFSET, RCC_CCIPR9_SPI4SEL, RCC_CCIP
1025:../STM32Cube_FW_N6/Drivers/STM32N6xx_HAL_Driver/Inc/stm32n6xx_ll_rcc.h ****                                                         RCC_CCIPR9_SPI4SEL_0)
1026:../STM32Cube_FW_N6/Drivers/STM32N6xx_HAL_Driver/Inc/stm32n6xx_ll_rcc.h **** #define LL_RCC_SPI4_CLKSOURCE_MSI          LL_CLKSOURCE(CCIPR9_OFFSET, RCC_CCIPR9_SPI4SEL, RCC_CCIP
1027:../STM32Cube_FW_N6/Drivers/STM32N6xx_HAL_Driver/Inc/stm32n6xx_ll_rcc.h **** #define LL_RCC_SPI4_CLKSOURCE_HSI          LL_CLKSOURCE(CCIPR9_OFFSET, RCC_CCIPR9_SPI4SEL, RCC_CCIP
1028:../STM32Cube_FW_N6/Drivers/STM32N6xx_HAL_Driver/Inc/stm32n6xx_ll_rcc.h ****                                                         RCC_CCIPR9_SPI4SEL_0)
1029:../STM32Cube_FW_N6/Drivers/STM32N6xx_HAL_Driver/Inc/stm32n6xx_ll_rcc.h **** #define LL_RCC_SPI4_CLKSOURCE_HSE          LL_CLKSOURCE(CCIPR9_OFFSET, RCC_CCIPR9_SPI4SEL, RCC_CCIP
1030:../STM32Cube_FW_N6/Drivers/STM32N6xx_HAL_Driver/Inc/stm32n6xx_ll_rcc.h ****                                                         RCC_CCIPR9_SPI4SEL_1)
1031:../STM32Cube_FW_N6/Drivers/STM32N6xx_HAL_Driver/Inc/stm32n6xx_ll_rcc.h **** 
1032:../STM32Cube_FW_N6/Drivers/STM32N6xx_HAL_Driver/Inc/stm32n6xx_ll_rcc.h **** #define LL_RCC_SPI5_CLKSOURCE_PCLK2        LL_CLKSOURCE(CCIPR9_OFFSET, RCC_CCIPR9_SPI5SEL, RCC_CCIP
1033:../STM32Cube_FW_N6/Drivers/STM32N6xx_HAL_Driver/Inc/stm32n6xx_ll_rcc.h **** #define LL_RCC_SPI5_CLKSOURCE_CLKP         LL_CLKSOURCE(CCIPR9_OFFSET, RCC_CCIPR9_SPI5SEL, RCC_CCIP
1034:../STM32Cube_FW_N6/Drivers/STM32N6xx_HAL_Driver/Inc/stm32n6xx_ll_rcc.h **** #define LL_RCC_SPI5_CLKSOURCE_IC9          LL_CLKSOURCE(CCIPR9_OFFSET, RCC_CCIPR9_SPI5SEL, RCC_CCIP
1035:../STM32Cube_FW_N6/Drivers/STM32N6xx_HAL_Driver/Inc/stm32n6xx_ll_rcc.h **** #define LL_RCC_SPI5_CLKSOURCE_IC14         LL_CLKSOURCE(CCIPR9_OFFSET, RCC_CCIPR9_SPI5SEL, RCC_CCIP
1036:../STM32Cube_FW_N6/Drivers/STM32N6xx_HAL_Driver/Inc/stm32n6xx_ll_rcc.h ****                                                         RCC_CCIPR9_SPI5SEL_0)
1037:../STM32Cube_FW_N6/Drivers/STM32N6xx_HAL_Driver/Inc/stm32n6xx_ll_rcc.h **** #define LL_RCC_SPI5_CLKSOURCE_MSI          LL_CLKSOURCE(CCIPR9_OFFSET, RCC_CCIPR9_SPI5SEL, RCC_CCIP
1038:../STM32Cube_FW_N6/Drivers/STM32N6xx_HAL_Driver/Inc/stm32n6xx_ll_rcc.h **** #define LL_RCC_SPI5_CLKSOURCE_HSI          LL_CLKSOURCE(CCIPR9_OFFSET, RCC_CCIPR9_SPI5SEL, RCC_CCIP
1039:../STM32Cube_FW_N6/Drivers/STM32N6xx_HAL_Driver/Inc/stm32n6xx_ll_rcc.h ****                                                         RCC_CCIPR9_SPI5SEL_0)
1040:../STM32Cube_FW_N6/Drivers/STM32N6xx_HAL_Driver/Inc/stm32n6xx_ll_rcc.h **** #define LL_RCC_SPI5_CLKSOURCE_HSE          LL_CLKSOURCE(CCIPR9_OFFSET, RCC_CCIPR9_SPI5SEL, RCC_CCIP
1041:../STM32Cube_FW_N6/Drivers/STM32N6xx_HAL_Driver/Inc/stm32n6xx_ll_rcc.h ****                                                         RCC_CCIPR9_SPI5SEL_1)
1042:../STM32Cube_FW_N6/Drivers/STM32N6xx_HAL_Driver/Inc/stm32n6xx_ll_rcc.h **** 
1043:../STM32Cube_FW_N6/Drivers/STM32N6xx_HAL_Driver/Inc/stm32n6xx_ll_rcc.h **** #define LL_RCC_SPI6_CLKSOURCE_PCLK4        LL_CLKSOURCE(CCIPR9_OFFSET, RCC_CCIPR9_SPI6SEL, RCC_CCIP
1044:../STM32Cube_FW_N6/Drivers/STM32N6xx_HAL_Driver/Inc/stm32n6xx_ll_rcc.h **** #define LL_RCC_SPI6_CLKSOURCE_CLKP         LL_CLKSOURCE(CCIPR9_OFFSET, RCC_CCIPR9_SPI6SEL, RCC_CCIP
1045:../STM32Cube_FW_N6/Drivers/STM32N6xx_HAL_Driver/Inc/stm32n6xx_ll_rcc.h **** #define LL_RCC_SPI6_CLKSOURCE_IC8          LL_CLKSOURCE(CCIPR9_OFFSET, RCC_CCIPR9_SPI6SEL, RCC_CCIP
1046:../STM32Cube_FW_N6/Drivers/STM32N6xx_HAL_Driver/Inc/stm32n6xx_ll_rcc.h **** #define LL_RCC_SPI6_CLKSOURCE_IC9          LL_CLKSOURCE(CCIPR9_OFFSET, RCC_CCIPR9_SPI6SEL, RCC_CCIP
1047:../STM32Cube_FW_N6/Drivers/STM32N6xx_HAL_Driver/Inc/stm32n6xx_ll_rcc.h ****                                                         RCC_CCIPR9_SPI6SEL_0)
1048:../STM32Cube_FW_N6/Drivers/STM32N6xx_HAL_Driver/Inc/stm32n6xx_ll_rcc.h **** #define LL_RCC_SPI6_CLKSOURCE_MSI          LL_CLKSOURCE(CCIPR9_OFFSET, RCC_CCIPR9_SPI6SEL, RCC_CCIP
1049:../STM32Cube_FW_N6/Drivers/STM32N6xx_HAL_Driver/Inc/stm32n6xx_ll_rcc.h **** #define LL_RCC_SPI6_CLKSOURCE_HSI          LL_CLKSOURCE(CCIPR9_OFFSET, RCC_CCIPR9_SPI6SEL, RCC_CCIP
1050:../STM32Cube_FW_N6/Drivers/STM32N6xx_HAL_Driver/Inc/stm32n6xx_ll_rcc.h ****                                                         RCC_CCIPR9_SPI6SEL_0)
ARM GAS  /tmp/ccjTyagi.s 			page 27


1051:../STM32Cube_FW_N6/Drivers/STM32N6xx_HAL_Driver/Inc/stm32n6xx_ll_rcc.h **** #define LL_RCC_SPI6_CLKSOURCE_I2S_CKIN     LL_CLKSOURCE(CCIPR9_OFFSET, RCC_CCIPR9_SPI6SEL, RCC_CCIP
1052:../STM32Cube_FW_N6/Drivers/STM32N6xx_HAL_Driver/Inc/stm32n6xx_ll_rcc.h ****                                                         RCC_CCIPR9_SPI6SEL_1)
1053:../STM32Cube_FW_N6/Drivers/STM32N6xx_HAL_Driver/Inc/stm32n6xx_ll_rcc.h **** /**
1054:../STM32Cube_FW_N6/Drivers/STM32N6xx_HAL_Driver/Inc/stm32n6xx_ll_rcc.h ****   * @}
1055:../STM32Cube_FW_N6/Drivers/STM32N6xx_HAL_Driver/Inc/stm32n6xx_ll_rcc.h ****   */
1056:../STM32Cube_FW_N6/Drivers/STM32N6xx_HAL_Driver/Inc/stm32n6xx_ll_rcc.h **** 
1057:../STM32Cube_FW_N6/Drivers/STM32N6xx_HAL_Driver/Inc/stm32n6xx_ll_rcc.h **** /** @defgroup RCC_LL_EC_UART_CLKSOURCE  Peripheral UART clock source selection
1058:../STM32Cube_FW_N6/Drivers/STM32N6xx_HAL_Driver/Inc/stm32n6xx_ll_rcc.h ****   * @{
1059:../STM32Cube_FW_N6/Drivers/STM32N6xx_HAL_Driver/Inc/stm32n6xx_ll_rcc.h ****   */
1060:../STM32Cube_FW_N6/Drivers/STM32N6xx_HAL_Driver/Inc/stm32n6xx_ll_rcc.h **** #define LL_RCC_UART4_CLKSOURCE_PCLK1       LL_CLKSOURCE(CCIPR13_OFFSET, RCC_CCIPR13_UART4SEL, RCC_C
1061:../STM32Cube_FW_N6/Drivers/STM32N6xx_HAL_Driver/Inc/stm32n6xx_ll_rcc.h **** #define LL_RCC_UART4_CLKSOURCE_CLKP        LL_CLKSOURCE(CCIPR13_OFFSET, RCC_CCIPR13_UART4SEL, RCC_C
1062:../STM32Cube_FW_N6/Drivers/STM32N6xx_HAL_Driver/Inc/stm32n6xx_ll_rcc.h **** #define LL_RCC_UART4_CLKSOURCE_IC9         LL_CLKSOURCE(CCIPR13_OFFSET, RCC_CCIPR13_UART4SEL, RCC_C
1063:../STM32Cube_FW_N6/Drivers/STM32N6xx_HAL_Driver/Inc/stm32n6xx_ll_rcc.h **** #define LL_RCC_UART4_CLKSOURCE_IC14        LL_CLKSOURCE(CCIPR13_OFFSET, RCC_CCIPR13_UART4SEL, RCC_C
1064:../STM32Cube_FW_N6/Drivers/STM32N6xx_HAL_Driver/Inc/stm32n6xx_ll_rcc.h ****                                                         RCC_CCIPR13_UART4SEL_0)
1065:../STM32Cube_FW_N6/Drivers/STM32N6xx_HAL_Driver/Inc/stm32n6xx_ll_rcc.h **** #define LL_RCC_UART4_CLKSOURCE_LSE         LL_CLKSOURCE(CCIPR13_OFFSET, RCC_CCIPR13_UART4SEL, RCC_C
1066:../STM32Cube_FW_N6/Drivers/STM32N6xx_HAL_Driver/Inc/stm32n6xx_ll_rcc.h **** #define LL_RCC_UART4_CLKSOURCE_MSI         LL_CLKSOURCE(CCIPR13_OFFSET, RCC_CCIPR13_UART4SEL, RCC_C
1067:../STM32Cube_FW_N6/Drivers/STM32N6xx_HAL_Driver/Inc/stm32n6xx_ll_rcc.h ****                                                         RCC_CCIPR13_UART4SEL_0)
1068:../STM32Cube_FW_N6/Drivers/STM32N6xx_HAL_Driver/Inc/stm32n6xx_ll_rcc.h **** #define LL_RCC_UART4_CLKSOURCE_HSI         LL_CLKSOURCE(CCIPR13_OFFSET, RCC_CCIPR13_UART4SEL, RCC_C
1069:../STM32Cube_FW_N6/Drivers/STM32N6xx_HAL_Driver/Inc/stm32n6xx_ll_rcc.h ****                                                         RCC_CCIPR13_UART4SEL_1)
1070:../STM32Cube_FW_N6/Drivers/STM32N6xx_HAL_Driver/Inc/stm32n6xx_ll_rcc.h **** 
1071:../STM32Cube_FW_N6/Drivers/STM32N6xx_HAL_Driver/Inc/stm32n6xx_ll_rcc.h **** #define LL_RCC_UART5_CLKSOURCE_PCLK1       LL_CLKSOURCE(CCIPR13_OFFSET, RCC_CCIPR13_UART5SEL, RCC_C
1072:../STM32Cube_FW_N6/Drivers/STM32N6xx_HAL_Driver/Inc/stm32n6xx_ll_rcc.h **** #define LL_RCC_UART5_CLKSOURCE_CLKP        LL_CLKSOURCE(CCIPR13_OFFSET, RCC_CCIPR13_UART5SEL, RCC_C
1073:../STM32Cube_FW_N6/Drivers/STM32N6xx_HAL_Driver/Inc/stm32n6xx_ll_rcc.h **** #define LL_RCC_UART5_CLKSOURCE_IC9         LL_CLKSOURCE(CCIPR13_OFFSET, RCC_CCIPR13_UART5SEL, RCC_C
1074:../STM32Cube_FW_N6/Drivers/STM32N6xx_HAL_Driver/Inc/stm32n6xx_ll_rcc.h **** #define LL_RCC_UART5_CLKSOURCE_IC14        LL_CLKSOURCE(CCIPR13_OFFSET, RCC_CCIPR13_UART5SEL, RCC_C
1075:../STM32Cube_FW_N6/Drivers/STM32N6xx_HAL_Driver/Inc/stm32n6xx_ll_rcc.h ****                                                         RCC_CCIPR13_UART5SEL_0)
1076:../STM32Cube_FW_N6/Drivers/STM32N6xx_HAL_Driver/Inc/stm32n6xx_ll_rcc.h **** #define LL_RCC_UART5_CLKSOURCE_LSE         LL_CLKSOURCE(CCIPR13_OFFSET, RCC_CCIPR13_UART5SEL, RCC_C
1077:../STM32Cube_FW_N6/Drivers/STM32N6xx_HAL_Driver/Inc/stm32n6xx_ll_rcc.h **** #define LL_RCC_UART5_CLKSOURCE_MSI         LL_CLKSOURCE(CCIPR13_OFFSET, RCC_CCIPR13_UART5SEL, RCC_C
1078:../STM32Cube_FW_N6/Drivers/STM32N6xx_HAL_Driver/Inc/stm32n6xx_ll_rcc.h ****                                                         RCC_CCIPR13_UART5SEL_0)
1079:../STM32Cube_FW_N6/Drivers/STM32N6xx_HAL_Driver/Inc/stm32n6xx_ll_rcc.h **** #define LL_RCC_UART5_CLKSOURCE_HSI         LL_CLKSOURCE(CCIPR13_OFFSET, RCC_CCIPR13_UART5SEL, RCC_C
1080:../STM32Cube_FW_N6/Drivers/STM32N6xx_HAL_Driver/Inc/stm32n6xx_ll_rcc.h ****                                                         RCC_CCIPR13_UART5SEL_1)
1081:../STM32Cube_FW_N6/Drivers/STM32N6xx_HAL_Driver/Inc/stm32n6xx_ll_rcc.h **** 
1082:../STM32Cube_FW_N6/Drivers/STM32N6xx_HAL_Driver/Inc/stm32n6xx_ll_rcc.h **** #define LL_RCC_UART7_CLKSOURCE_PCLK1       LL_CLKSOURCE(CCIPR13_OFFSET, RCC_CCIPR13_UART7SEL, RCC_C
1083:../STM32Cube_FW_N6/Drivers/STM32N6xx_HAL_Driver/Inc/stm32n6xx_ll_rcc.h **** #define LL_RCC_UART7_CLKSOURCE_CLKP        LL_CLKSOURCE(CCIPR13_OFFSET, RCC_CCIPR13_UART7SEL, RCC_C
1084:../STM32Cube_FW_N6/Drivers/STM32N6xx_HAL_Driver/Inc/stm32n6xx_ll_rcc.h **** #define LL_RCC_UART7_CLKSOURCE_IC9         LL_CLKSOURCE(CCIPR13_OFFSET, RCC_CCIPR13_UART7SEL, RCC_C
1085:../STM32Cube_FW_N6/Drivers/STM32N6xx_HAL_Driver/Inc/stm32n6xx_ll_rcc.h **** #define LL_RCC_UART7_CLKSOURCE_IC14        LL_CLKSOURCE(CCIPR13_OFFSET, RCC_CCIPR13_UART7SEL, RCC_C
1086:../STM32Cube_FW_N6/Drivers/STM32N6xx_HAL_Driver/Inc/stm32n6xx_ll_rcc.h ****                                                         RCC_CCIPR13_UART7SEL_0)
1087:../STM32Cube_FW_N6/Drivers/STM32N6xx_HAL_Driver/Inc/stm32n6xx_ll_rcc.h **** #define LL_RCC_UART7_CLKSOURCE_LSE         LL_CLKSOURCE(CCIPR13_OFFSET, RCC_CCIPR13_UART7SEL, RCC_C
1088:../STM32Cube_FW_N6/Drivers/STM32N6xx_HAL_Driver/Inc/stm32n6xx_ll_rcc.h **** #define LL_RCC_UART7_CLKSOURCE_MSI         LL_CLKSOURCE(CCIPR13_OFFSET, RCC_CCIPR13_UART7SEL, RCC_C
1089:../STM32Cube_FW_N6/Drivers/STM32N6xx_HAL_Driver/Inc/stm32n6xx_ll_rcc.h ****                                                         RCC_CCIPR13_UART7SEL_0)
1090:../STM32Cube_FW_N6/Drivers/STM32N6xx_HAL_Driver/Inc/stm32n6xx_ll_rcc.h **** #define LL_RCC_UART7_CLKSOURCE_HSI         LL_CLKSOURCE(CCIPR13_OFFSET, RCC_CCIPR13_UART7SEL, RCC_C
1091:../STM32Cube_FW_N6/Drivers/STM32N6xx_HAL_Driver/Inc/stm32n6xx_ll_rcc.h ****                                                         RCC_CCIPR13_UART7SEL_1)
1092:../STM32Cube_FW_N6/Drivers/STM32N6xx_HAL_Driver/Inc/stm32n6xx_ll_rcc.h **** 
1093:../STM32Cube_FW_N6/Drivers/STM32N6xx_HAL_Driver/Inc/stm32n6xx_ll_rcc.h **** #define LL_RCC_UART8_CLKSOURCE_PCLK1       LL_CLKSOURCE(CCIPR13_OFFSET, RCC_CCIPR13_UART8SEL, RCC_C
1094:../STM32Cube_FW_N6/Drivers/STM32N6xx_HAL_Driver/Inc/stm32n6xx_ll_rcc.h **** #define LL_RCC_UART8_CLKSOURCE_CLKP        LL_CLKSOURCE(CCIPR13_OFFSET, RCC_CCIPR13_UART8SEL, RCC_C
1095:../STM32Cube_FW_N6/Drivers/STM32N6xx_HAL_Driver/Inc/stm32n6xx_ll_rcc.h **** #define LL_RCC_UART8_CLKSOURCE_IC9         LL_CLKSOURCE(CCIPR13_OFFSET, RCC_CCIPR13_UART8SEL, RCC_C
1096:../STM32Cube_FW_N6/Drivers/STM32N6xx_HAL_Driver/Inc/stm32n6xx_ll_rcc.h **** #define LL_RCC_UART8_CLKSOURCE_IC14        LL_CLKSOURCE(CCIPR13_OFFSET, RCC_CCIPR13_UART8SEL, RCC_C
1097:../STM32Cube_FW_N6/Drivers/STM32N6xx_HAL_Driver/Inc/stm32n6xx_ll_rcc.h ****                                                         RCC_CCIPR13_UART8SEL_0)
1098:../STM32Cube_FW_N6/Drivers/STM32N6xx_HAL_Driver/Inc/stm32n6xx_ll_rcc.h **** #define LL_RCC_UART8_CLKSOURCE_LSE         LL_CLKSOURCE(CCIPR13_OFFSET, RCC_CCIPR13_UART8SEL, RCC_C
1099:../STM32Cube_FW_N6/Drivers/STM32N6xx_HAL_Driver/Inc/stm32n6xx_ll_rcc.h **** #define LL_RCC_UART8_CLKSOURCE_MSI         LL_CLKSOURCE(CCIPR13_OFFSET, RCC_CCIPR13_UART8SEL, RCC_C
1100:../STM32Cube_FW_N6/Drivers/STM32N6xx_HAL_Driver/Inc/stm32n6xx_ll_rcc.h ****                                                         RCC_CCIPR13_UART8SEL_0)
1101:../STM32Cube_FW_N6/Drivers/STM32N6xx_HAL_Driver/Inc/stm32n6xx_ll_rcc.h **** #define LL_RCC_UART8_CLKSOURCE_HSI         LL_CLKSOURCE(CCIPR13_OFFSET, RCC_CCIPR13_UART8SEL, RCC_C
1102:../STM32Cube_FW_N6/Drivers/STM32N6xx_HAL_Driver/Inc/stm32n6xx_ll_rcc.h ****                                                         RCC_CCIPR13_UART8SEL_1)
1103:../STM32Cube_FW_N6/Drivers/STM32N6xx_HAL_Driver/Inc/stm32n6xx_ll_rcc.h **** 
1104:../STM32Cube_FW_N6/Drivers/STM32N6xx_HAL_Driver/Inc/stm32n6xx_ll_rcc.h **** #define LL_RCC_UART9_CLKSOURCE_PCLK2       LL_CLKSOURCE(CCIPR14_OFFSET, RCC_CCIPR14_UART9SEL, RCC_C
1105:../STM32Cube_FW_N6/Drivers/STM32N6xx_HAL_Driver/Inc/stm32n6xx_ll_rcc.h **** #define LL_RCC_UART9_CLKSOURCE_CLKP        LL_CLKSOURCE(CCIPR14_OFFSET, RCC_CCIPR14_UART9SEL, RCC_C
1106:../STM32Cube_FW_N6/Drivers/STM32N6xx_HAL_Driver/Inc/stm32n6xx_ll_rcc.h **** #define LL_RCC_UART9_CLKSOURCE_IC9         LL_CLKSOURCE(CCIPR14_OFFSET, RCC_CCIPR14_UART9SEL, RCC_C
1107:../STM32Cube_FW_N6/Drivers/STM32N6xx_HAL_Driver/Inc/stm32n6xx_ll_rcc.h **** #define LL_RCC_UART9_CLKSOURCE_IC14        LL_CLKSOURCE(CCIPR14_OFFSET, RCC_CCIPR14_UART9SEL, RCC_C
ARM GAS  /tmp/ccjTyagi.s 			page 28


1108:../STM32Cube_FW_N6/Drivers/STM32N6xx_HAL_Driver/Inc/stm32n6xx_ll_rcc.h ****                                                         RCC_CCIPR14_UART9SEL_0)
1109:../STM32Cube_FW_N6/Drivers/STM32N6xx_HAL_Driver/Inc/stm32n6xx_ll_rcc.h **** #define LL_RCC_UART9_CLKSOURCE_LSE         LL_CLKSOURCE(CCIPR14_OFFSET, RCC_CCIPR14_UART9SEL, RCC_C
1110:../STM32Cube_FW_N6/Drivers/STM32N6xx_HAL_Driver/Inc/stm32n6xx_ll_rcc.h **** #define LL_RCC_UART9_CLKSOURCE_MSI         LL_CLKSOURCE(CCIPR14_OFFSET, RCC_CCIPR14_UART9SEL, RCC_C
1111:../STM32Cube_FW_N6/Drivers/STM32N6xx_HAL_Driver/Inc/stm32n6xx_ll_rcc.h ****                                                         RCC_CCIPR14_UART9SEL_0)
1112:../STM32Cube_FW_N6/Drivers/STM32N6xx_HAL_Driver/Inc/stm32n6xx_ll_rcc.h **** #define LL_RCC_UART9_CLKSOURCE_HSI         LL_CLKSOURCE(CCIPR14_OFFSET, RCC_CCIPR14_UART9SEL, RCC_C
1113:../STM32Cube_FW_N6/Drivers/STM32N6xx_HAL_Driver/Inc/stm32n6xx_ll_rcc.h ****                                                         RCC_CCIPR14_UART9SEL_1)
1114:../STM32Cube_FW_N6/Drivers/STM32N6xx_HAL_Driver/Inc/stm32n6xx_ll_rcc.h **** /**
1115:../STM32Cube_FW_N6/Drivers/STM32N6xx_HAL_Driver/Inc/stm32n6xx_ll_rcc.h ****   * @}
1116:../STM32Cube_FW_N6/Drivers/STM32N6xx_HAL_Driver/Inc/stm32n6xx_ll_rcc.h ****   */
1117:../STM32Cube_FW_N6/Drivers/STM32N6xx_HAL_Driver/Inc/stm32n6xx_ll_rcc.h **** 
1118:../STM32Cube_FW_N6/Drivers/STM32N6xx_HAL_Driver/Inc/stm32n6xx_ll_rcc.h **** /** @defgroup RCC_LL_EC_USART_CLKSOURCE  Peripheral USART clock source selection
1119:../STM32Cube_FW_N6/Drivers/STM32N6xx_HAL_Driver/Inc/stm32n6xx_ll_rcc.h ****   * @{
1120:../STM32Cube_FW_N6/Drivers/STM32N6xx_HAL_Driver/Inc/stm32n6xx_ll_rcc.h ****   */
1121:../STM32Cube_FW_N6/Drivers/STM32N6xx_HAL_Driver/Inc/stm32n6xx_ll_rcc.h **** #define LL_RCC_USART1_CLKSOURCE_PCLK2      LL_CLKSOURCE(CCIPR13_OFFSET, RCC_CCIPR13_USART1SEL, RCC_
1122:../STM32Cube_FW_N6/Drivers/STM32N6xx_HAL_Driver/Inc/stm32n6xx_ll_rcc.h **** #define LL_RCC_USART1_CLKSOURCE_CLKP       LL_CLKSOURCE(CCIPR13_OFFSET, RCC_CCIPR13_USART1SEL, RCC_
1123:../STM32Cube_FW_N6/Drivers/STM32N6xx_HAL_Driver/Inc/stm32n6xx_ll_rcc.h **** #define LL_RCC_USART1_CLKSOURCE_IC9        LL_CLKSOURCE(CCIPR13_OFFSET, RCC_CCIPR13_USART1SEL, RCC_
1124:../STM32Cube_FW_N6/Drivers/STM32N6xx_HAL_Driver/Inc/stm32n6xx_ll_rcc.h **** #define LL_RCC_USART1_CLKSOURCE_IC14       LL_CLKSOURCE(CCIPR13_OFFSET, RCC_CCIPR13_USART1SEL, RCC_
1125:../STM32Cube_FW_N6/Drivers/STM32N6xx_HAL_Driver/Inc/stm32n6xx_ll_rcc.h ****                                                         RCC_CCIPR13_USART1SEL_0)
1126:../STM32Cube_FW_N6/Drivers/STM32N6xx_HAL_Driver/Inc/stm32n6xx_ll_rcc.h **** #define LL_RCC_USART1_CLKSOURCE_LSE        LL_CLKSOURCE(CCIPR13_OFFSET, RCC_CCIPR13_USART1SEL, RCC_
1127:../STM32Cube_FW_N6/Drivers/STM32N6xx_HAL_Driver/Inc/stm32n6xx_ll_rcc.h **** #define LL_RCC_USART1_CLKSOURCE_MSI        LL_CLKSOURCE(CCIPR13_OFFSET, RCC_CCIPR13_USART1SEL, RCC_
1128:../STM32Cube_FW_N6/Drivers/STM32N6xx_HAL_Driver/Inc/stm32n6xx_ll_rcc.h ****                                                         RCC_CCIPR13_USART1SEL_0)
1129:../STM32Cube_FW_N6/Drivers/STM32N6xx_HAL_Driver/Inc/stm32n6xx_ll_rcc.h **** #define LL_RCC_USART1_CLKSOURCE_HSI        LL_CLKSOURCE(CCIPR13_OFFSET, RCC_CCIPR13_USART1SEL, RCC_
1130:../STM32Cube_FW_N6/Drivers/STM32N6xx_HAL_Driver/Inc/stm32n6xx_ll_rcc.h ****                                                         RCC_CCIPR13_USART1SEL_1)
1131:../STM32Cube_FW_N6/Drivers/STM32N6xx_HAL_Driver/Inc/stm32n6xx_ll_rcc.h **** 
1132:../STM32Cube_FW_N6/Drivers/STM32N6xx_HAL_Driver/Inc/stm32n6xx_ll_rcc.h **** #define LL_RCC_USART2_CLKSOURCE_PCLK1      LL_CLKSOURCE(CCIPR13_OFFSET, RCC_CCIPR13_USART2SEL, RCC_
1133:../STM32Cube_FW_N6/Drivers/STM32N6xx_HAL_Driver/Inc/stm32n6xx_ll_rcc.h **** #define LL_RCC_USART2_CLKSOURCE_CLKP       LL_CLKSOURCE(CCIPR13_OFFSET, RCC_CCIPR13_USART2SEL, RCC_
1134:../STM32Cube_FW_N6/Drivers/STM32N6xx_HAL_Driver/Inc/stm32n6xx_ll_rcc.h **** #define LL_RCC_USART2_CLKSOURCE_IC9        LL_CLKSOURCE(CCIPR13_OFFSET, RCC_CCIPR13_USART2SEL, RCC_
1135:../STM32Cube_FW_N6/Drivers/STM32N6xx_HAL_Driver/Inc/stm32n6xx_ll_rcc.h **** #define LL_RCC_USART2_CLKSOURCE_IC14       LL_CLKSOURCE(CCIPR13_OFFSET, RCC_CCIPR13_USART2SEL, RCC_
1136:../STM32Cube_FW_N6/Drivers/STM32N6xx_HAL_Driver/Inc/stm32n6xx_ll_rcc.h ****                                                         RCC_CCIPR13_USART2SEL_0)
1137:../STM32Cube_FW_N6/Drivers/STM32N6xx_HAL_Driver/Inc/stm32n6xx_ll_rcc.h **** #define LL_RCC_USART2_CLKSOURCE_LSE        LL_CLKSOURCE(CCIPR13_OFFSET, RCC_CCIPR13_USART2SEL, RCC_
1138:../STM32Cube_FW_N6/Drivers/STM32N6xx_HAL_Driver/Inc/stm32n6xx_ll_rcc.h **** #define LL_RCC_USART2_CLKSOURCE_MSI        LL_CLKSOURCE(CCIPR13_OFFSET, RCC_CCIPR13_USART2SEL, RCC_
1139:../STM32Cube_FW_N6/Drivers/STM32N6xx_HAL_Driver/Inc/stm32n6xx_ll_rcc.h ****                                                         RCC_CCIPR13_USART2SEL_0)
1140:../STM32Cube_FW_N6/Drivers/STM32N6xx_HAL_Driver/Inc/stm32n6xx_ll_rcc.h **** #define LL_RCC_USART2_CLKSOURCE_HSI        LL_CLKSOURCE(CCIPR13_OFFSET, RCC_CCIPR13_USART2SEL, RCC_
1141:../STM32Cube_FW_N6/Drivers/STM32N6xx_HAL_Driver/Inc/stm32n6xx_ll_rcc.h ****                                                         RCC_CCIPR13_USART2SEL_1)
1142:../STM32Cube_FW_N6/Drivers/STM32N6xx_HAL_Driver/Inc/stm32n6xx_ll_rcc.h **** 
1143:../STM32Cube_FW_N6/Drivers/STM32N6xx_HAL_Driver/Inc/stm32n6xx_ll_rcc.h **** #define LL_RCC_USART3_CLKSOURCE_PCLK1      LL_CLKSOURCE(CCIPR13_OFFSET, RCC_CCIPR13_USART3SEL, RCC_
1144:../STM32Cube_FW_N6/Drivers/STM32N6xx_HAL_Driver/Inc/stm32n6xx_ll_rcc.h **** #define LL_RCC_USART3_CLKSOURCE_CLKP       LL_CLKSOURCE(CCIPR13_OFFSET, RCC_CCIPR13_USART3SEL, RCC_
1145:../STM32Cube_FW_N6/Drivers/STM32N6xx_HAL_Driver/Inc/stm32n6xx_ll_rcc.h **** #define LL_RCC_USART3_CLKSOURCE_IC9        LL_CLKSOURCE(CCIPR13_OFFSET, RCC_CCIPR13_USART3SEL, RCC_
1146:../STM32Cube_FW_N6/Drivers/STM32N6xx_HAL_Driver/Inc/stm32n6xx_ll_rcc.h **** #define LL_RCC_USART3_CLKSOURCE_IC14       LL_CLKSOURCE(CCIPR13_OFFSET, RCC_CCIPR13_USART3SEL, RCC_
1147:../STM32Cube_FW_N6/Drivers/STM32N6xx_HAL_Driver/Inc/stm32n6xx_ll_rcc.h ****                                                         RCC_CCIPR13_USART3SEL_0)
1148:../STM32Cube_FW_N6/Drivers/STM32N6xx_HAL_Driver/Inc/stm32n6xx_ll_rcc.h **** #define LL_RCC_USART3_CLKSOURCE_LSE        LL_CLKSOURCE(CCIPR13_OFFSET, RCC_CCIPR13_USART3SEL, RCC_
1149:../STM32Cube_FW_N6/Drivers/STM32N6xx_HAL_Driver/Inc/stm32n6xx_ll_rcc.h **** #define LL_RCC_USART3_CLKSOURCE_MSI        LL_CLKSOURCE(CCIPR13_OFFSET, RCC_CCIPR13_USART3SEL, RCC_
1150:../STM32Cube_FW_N6/Drivers/STM32N6xx_HAL_Driver/Inc/stm32n6xx_ll_rcc.h ****                                                         RCC_CCIPR13_USART3SEL_0)
1151:../STM32Cube_FW_N6/Drivers/STM32N6xx_HAL_Driver/Inc/stm32n6xx_ll_rcc.h **** #define LL_RCC_USART3_CLKSOURCE_HSI        LL_CLKSOURCE(CCIPR13_OFFSET, RCC_CCIPR13_USART3SEL, RCC_
1152:../STM32Cube_FW_N6/Drivers/STM32N6xx_HAL_Driver/Inc/stm32n6xx_ll_rcc.h ****                                                         RCC_CCIPR13_USART3SEL_1)
1153:../STM32Cube_FW_N6/Drivers/STM32N6xx_HAL_Driver/Inc/stm32n6xx_ll_rcc.h **** 
1154:../STM32Cube_FW_N6/Drivers/STM32N6xx_HAL_Driver/Inc/stm32n6xx_ll_rcc.h **** #define LL_RCC_USART6_CLKSOURCE_PCLK2      LL_CLKSOURCE(CCIPR13_OFFSET, RCC_CCIPR13_USART6SEL, RCC_
1155:../STM32Cube_FW_N6/Drivers/STM32N6xx_HAL_Driver/Inc/stm32n6xx_ll_rcc.h **** #define LL_RCC_USART6_CLKSOURCE_CLKP       LL_CLKSOURCE(CCIPR13_OFFSET, RCC_CCIPR13_USART6SEL, RCC_
1156:../STM32Cube_FW_N6/Drivers/STM32N6xx_HAL_Driver/Inc/stm32n6xx_ll_rcc.h **** #define LL_RCC_USART6_CLKSOURCE_IC9        LL_CLKSOURCE(CCIPR13_OFFSET, RCC_CCIPR13_USART6SEL, RCC_
1157:../STM32Cube_FW_N6/Drivers/STM32N6xx_HAL_Driver/Inc/stm32n6xx_ll_rcc.h **** #define LL_RCC_USART6_CLKSOURCE_IC14       LL_CLKSOURCE(CCIPR13_OFFSET, RCC_CCIPR13_USART6SEL, RCC_
1158:../STM32Cube_FW_N6/Drivers/STM32N6xx_HAL_Driver/Inc/stm32n6xx_ll_rcc.h ****                                                         RCC_CCIPR13_USART6SEL_0)
1159:../STM32Cube_FW_N6/Drivers/STM32N6xx_HAL_Driver/Inc/stm32n6xx_ll_rcc.h **** #define LL_RCC_USART6_CLKSOURCE_LSE        LL_CLKSOURCE(CCIPR13_OFFSET, RCC_CCIPR13_USART6SEL, RCC_
1160:../STM32Cube_FW_N6/Drivers/STM32N6xx_HAL_Driver/Inc/stm32n6xx_ll_rcc.h **** #define LL_RCC_USART6_CLKSOURCE_MSI        LL_CLKSOURCE(CCIPR13_OFFSET, RCC_CCIPR13_USART6SEL, RCC_
1161:../STM32Cube_FW_N6/Drivers/STM32N6xx_HAL_Driver/Inc/stm32n6xx_ll_rcc.h ****                                                         RCC_CCIPR13_USART6SEL_0)
1162:../STM32Cube_FW_N6/Drivers/STM32N6xx_HAL_Driver/Inc/stm32n6xx_ll_rcc.h **** #define LL_RCC_USART6_CLKSOURCE_HSI        LL_CLKSOURCE(CCIPR13_OFFSET, RCC_CCIPR13_USART6SEL, RCC_
1163:../STM32Cube_FW_N6/Drivers/STM32N6xx_HAL_Driver/Inc/stm32n6xx_ll_rcc.h ****                                                         RCC_CCIPR13_USART6SEL_1)
1164:../STM32Cube_FW_N6/Drivers/STM32N6xx_HAL_Driver/Inc/stm32n6xx_ll_rcc.h **** 
ARM GAS  /tmp/ccjTyagi.s 			page 29


1165:../STM32Cube_FW_N6/Drivers/STM32N6xx_HAL_Driver/Inc/stm32n6xx_ll_rcc.h **** #define LL_RCC_USART10_CLKSOURCE_PCLK2     LL_CLKSOURCE(CCIPR14_OFFSET, RCC_CCIPR14_USART10SEL, RCC
1166:../STM32Cube_FW_N6/Drivers/STM32N6xx_HAL_Driver/Inc/stm32n6xx_ll_rcc.h **** #define LL_RCC_USART10_CLKSOURCE_CLKP      LL_CLKSOURCE(CCIPR14_OFFSET, RCC_CCIPR14_USART10SEL, RCC
1167:../STM32Cube_FW_N6/Drivers/STM32N6xx_HAL_Driver/Inc/stm32n6xx_ll_rcc.h **** #define LL_RCC_USART10_CLKSOURCE_IC9       LL_CLKSOURCE(CCIPR14_OFFSET, RCC_CCIPR14_USART10SEL, RCC
1168:../STM32Cube_FW_N6/Drivers/STM32N6xx_HAL_Driver/Inc/stm32n6xx_ll_rcc.h **** #define LL_RCC_USART10_CLKSOURCE_IC14      LL_CLKSOURCE(CCIPR14_OFFSET, RCC_CCIPR14_USART10SEL, RCC
1169:../STM32Cube_FW_N6/Drivers/STM32N6xx_HAL_Driver/Inc/stm32n6xx_ll_rcc.h ****                                                         RCC_CCIPR14_USART10SEL_0)
1170:../STM32Cube_FW_N6/Drivers/STM32N6xx_HAL_Driver/Inc/stm32n6xx_ll_rcc.h **** #define LL_RCC_USART10_CLKSOURCE_LSE       LL_CLKSOURCE(CCIPR14_OFFSET, RCC_CCIPR14_USART10SEL, RCC
1171:../STM32Cube_FW_N6/Drivers/STM32N6xx_HAL_Driver/Inc/stm32n6xx_ll_rcc.h **** #define LL_RCC_USART10_CLKSOURCE_MSI       LL_CLKSOURCE(CCIPR14_OFFSET, RCC_CCIPR14_USART10SEL, RCC
1172:../STM32Cube_FW_N6/Drivers/STM32N6xx_HAL_Driver/Inc/stm32n6xx_ll_rcc.h ****                                                         RCC_CCIPR14_USART10SEL_0)
1173:../STM32Cube_FW_N6/Drivers/STM32N6xx_HAL_Driver/Inc/stm32n6xx_ll_rcc.h **** #define LL_RCC_USART10_CLKSOURCE_HSI       LL_CLKSOURCE(CCIPR14_OFFSET, RCC_CCIPR14_USART10SEL, RCC
1174:../STM32Cube_FW_N6/Drivers/STM32N6xx_HAL_Driver/Inc/stm32n6xx_ll_rcc.h ****                                                         RCC_CCIPR14_USART10SEL_1)
1175:../STM32Cube_FW_N6/Drivers/STM32N6xx_HAL_Driver/Inc/stm32n6xx_ll_rcc.h **** /**
1176:../STM32Cube_FW_N6/Drivers/STM32N6xx_HAL_Driver/Inc/stm32n6xx_ll_rcc.h ****   * @}
1177:../STM32Cube_FW_N6/Drivers/STM32N6xx_HAL_Driver/Inc/stm32n6xx_ll_rcc.h ****   */
1178:../STM32Cube_FW_N6/Drivers/STM32N6xx_HAL_Driver/Inc/stm32n6xx_ll_rcc.h **** 
1179:../STM32Cube_FW_N6/Drivers/STM32N6xx_HAL_Driver/Inc/stm32n6xx_ll_rcc.h **** /** @defgroup RCC_LL_EC_XSPI_CLKSOURCE  Peripheral XSPI clock source selection
1180:../STM32Cube_FW_N6/Drivers/STM32N6xx_HAL_Driver/Inc/stm32n6xx_ll_rcc.h ****   * @{
1181:../STM32Cube_FW_N6/Drivers/STM32N6xx_HAL_Driver/Inc/stm32n6xx_ll_rcc.h ****   */
1182:../STM32Cube_FW_N6/Drivers/STM32N6xx_HAL_Driver/Inc/stm32n6xx_ll_rcc.h **** #define LL_RCC_XSPI1_CLKSOURCE_HCLK        LL_CLKSOURCE(CCIPR6_OFFSET, RCC_CCIPR6_XSPI1SEL, RCC_CCI
1183:../STM32Cube_FW_N6/Drivers/STM32N6xx_HAL_Driver/Inc/stm32n6xx_ll_rcc.h **** #define LL_RCC_XSPI1_CLKSOURCE_CLKP        LL_CLKSOURCE(CCIPR6_OFFSET, RCC_CCIPR6_XSPI1SEL, RCC_CCI
1184:../STM32Cube_FW_N6/Drivers/STM32N6xx_HAL_Driver/Inc/stm32n6xx_ll_rcc.h **** #define LL_RCC_XSPI1_CLKSOURCE_IC3         LL_CLKSOURCE(CCIPR6_OFFSET, RCC_CCIPR6_XSPI1SEL, RCC_CCI
1185:../STM32Cube_FW_N6/Drivers/STM32N6xx_HAL_Driver/Inc/stm32n6xx_ll_rcc.h **** #define LL_RCC_XSPI1_CLKSOURCE_IC4         LL_CLKSOURCE(CCIPR6_OFFSET, RCC_CCIPR6_XSPI1SEL, RCC_CCI
1186:../STM32Cube_FW_N6/Drivers/STM32N6xx_HAL_Driver/Inc/stm32n6xx_ll_rcc.h ****                                                         RCC_CCIPR6_XSPI1SEL_0)
1187:../STM32Cube_FW_N6/Drivers/STM32N6xx_HAL_Driver/Inc/stm32n6xx_ll_rcc.h **** 
1188:../STM32Cube_FW_N6/Drivers/STM32N6xx_HAL_Driver/Inc/stm32n6xx_ll_rcc.h **** #define LL_RCC_XSPI2_CLKSOURCE_HCLK        LL_CLKSOURCE(CCIPR6_OFFSET, RCC_CCIPR6_XSPI2SEL, RCC_CCI
1189:../STM32Cube_FW_N6/Drivers/STM32N6xx_HAL_Driver/Inc/stm32n6xx_ll_rcc.h **** #define LL_RCC_XSPI2_CLKSOURCE_CLKP        LL_CLKSOURCE(CCIPR6_OFFSET, RCC_CCIPR6_XSPI2SEL, RCC_CCI
1190:../STM32Cube_FW_N6/Drivers/STM32N6xx_HAL_Driver/Inc/stm32n6xx_ll_rcc.h **** #define LL_RCC_XSPI2_CLKSOURCE_IC3         LL_CLKSOURCE(CCIPR6_OFFSET, RCC_CCIPR6_XSPI2SEL, RCC_CCI
1191:../STM32Cube_FW_N6/Drivers/STM32N6xx_HAL_Driver/Inc/stm32n6xx_ll_rcc.h **** #define LL_RCC_XSPI2_CLKSOURCE_IC4         LL_CLKSOURCE(CCIPR6_OFFSET, RCC_CCIPR6_XSPI2SEL, RCC_CCI
1192:../STM32Cube_FW_N6/Drivers/STM32N6xx_HAL_Driver/Inc/stm32n6xx_ll_rcc.h ****                                                         RCC_CCIPR6_XSPI2SEL_0)
1193:../STM32Cube_FW_N6/Drivers/STM32N6xx_HAL_Driver/Inc/stm32n6xx_ll_rcc.h **** 
1194:../STM32Cube_FW_N6/Drivers/STM32N6xx_HAL_Driver/Inc/stm32n6xx_ll_rcc.h **** #define LL_RCC_XSPI3_CLKSOURCE_HCLK        LL_CLKSOURCE(CCIPR6_OFFSET, RCC_CCIPR6_XSPI3SEL, RCC_CCI
1195:../STM32Cube_FW_N6/Drivers/STM32N6xx_HAL_Driver/Inc/stm32n6xx_ll_rcc.h **** #define LL_RCC_XSPI3_CLKSOURCE_CLKP        LL_CLKSOURCE(CCIPR6_OFFSET, RCC_CCIPR6_XSPI3SEL, RCC_CCI
1196:../STM32Cube_FW_N6/Drivers/STM32N6xx_HAL_Driver/Inc/stm32n6xx_ll_rcc.h **** #define LL_RCC_XSPI3_CLKSOURCE_IC3         LL_CLKSOURCE(CCIPR6_OFFSET, RCC_CCIPR6_XSPI3SEL, RCC_CCI
1197:../STM32Cube_FW_N6/Drivers/STM32N6xx_HAL_Driver/Inc/stm32n6xx_ll_rcc.h **** #define LL_RCC_XSPI3_CLKSOURCE_IC4         LL_CLKSOURCE(CCIPR6_OFFSET, RCC_CCIPR6_XSPI3SEL, RCC_CCI
1198:../STM32Cube_FW_N6/Drivers/STM32N6xx_HAL_Driver/Inc/stm32n6xx_ll_rcc.h ****                                                         RCC_CCIPR6_XSPI3SEL_0)
1199:../STM32Cube_FW_N6/Drivers/STM32N6xx_HAL_Driver/Inc/stm32n6xx_ll_rcc.h **** /**
1200:../STM32Cube_FW_N6/Drivers/STM32N6xx_HAL_Driver/Inc/stm32n6xx_ll_rcc.h ****   * @}
1201:../STM32Cube_FW_N6/Drivers/STM32N6xx_HAL_Driver/Inc/stm32n6xx_ll_rcc.h ****   */
1202:../STM32Cube_FW_N6/Drivers/STM32N6xx_HAL_Driver/Inc/stm32n6xx_ll_rcc.h **** 
1203:../STM32Cube_FW_N6/Drivers/STM32N6xx_HAL_Driver/Inc/stm32n6xx_ll_rcc.h **** /** @defgroup RCC_LL_EC_ADC  Peripheral ADC get clock source
1204:../STM32Cube_FW_N6/Drivers/STM32N6xx_HAL_Driver/Inc/stm32n6xx_ll_rcc.h ****   * @{
1205:../STM32Cube_FW_N6/Drivers/STM32N6xx_HAL_Driver/Inc/stm32n6xx_ll_rcc.h ****   */
1206:../STM32Cube_FW_N6/Drivers/STM32N6xx_HAL_Driver/Inc/stm32n6xx_ll_rcc.h **** #define LL_RCC_ADC_CLKSOURCE               RCC_CCIPR1_ADC12SEL
1207:../STM32Cube_FW_N6/Drivers/STM32N6xx_HAL_Driver/Inc/stm32n6xx_ll_rcc.h **** /**
1208:../STM32Cube_FW_N6/Drivers/STM32N6xx_HAL_Driver/Inc/stm32n6xx_ll_rcc.h ****   * @}
1209:../STM32Cube_FW_N6/Drivers/STM32N6xx_HAL_Driver/Inc/stm32n6xx_ll_rcc.h ****   */
1210:../STM32Cube_FW_N6/Drivers/STM32N6xx_HAL_Driver/Inc/stm32n6xx_ll_rcc.h **** 
1211:../STM32Cube_FW_N6/Drivers/STM32N6xx_HAL_Driver/Inc/stm32n6xx_ll_rcc.h **** /** @defgroup RCC_LL_EC_ADF  Peripheral ADF get clock source
1212:../STM32Cube_FW_N6/Drivers/STM32N6xx_HAL_Driver/Inc/stm32n6xx_ll_rcc.h ****   * @{
1213:../STM32Cube_FW_N6/Drivers/STM32N6xx_HAL_Driver/Inc/stm32n6xx_ll_rcc.h ****   */
1214:../STM32Cube_FW_N6/Drivers/STM32N6xx_HAL_Driver/Inc/stm32n6xx_ll_rcc.h **** #define LL_RCC_ADF1_CLKSOURCE              RCC_CCIPR1_ADF1SEL
1215:../STM32Cube_FW_N6/Drivers/STM32N6xx_HAL_Driver/Inc/stm32n6xx_ll_rcc.h **** /**
1216:../STM32Cube_FW_N6/Drivers/STM32N6xx_HAL_Driver/Inc/stm32n6xx_ll_rcc.h ****   * @}
1217:../STM32Cube_FW_N6/Drivers/STM32N6xx_HAL_Driver/Inc/stm32n6xx_ll_rcc.h ****   */
1218:../STM32Cube_FW_N6/Drivers/STM32N6xx_HAL_Driver/Inc/stm32n6xx_ll_rcc.h **** 
1219:../STM32Cube_FW_N6/Drivers/STM32N6xx_HAL_Driver/Inc/stm32n6xx_ll_rcc.h **** /** @defgroup RCC_LL_EC_CLKP  Peripheral CLKP get clock source
1220:../STM32Cube_FW_N6/Drivers/STM32N6xx_HAL_Driver/Inc/stm32n6xx_ll_rcc.h ****   * @{
1221:../STM32Cube_FW_N6/Drivers/STM32N6xx_HAL_Driver/Inc/stm32n6xx_ll_rcc.h ****   */
ARM GAS  /tmp/ccjTyagi.s 			page 30


1222:../STM32Cube_FW_N6/Drivers/STM32N6xx_HAL_Driver/Inc/stm32n6xx_ll_rcc.h **** #define LL_RCC_CLKP_CLKSOURCE              RCC_CCIPR7_PERSEL
1223:../STM32Cube_FW_N6/Drivers/STM32N6xx_HAL_Driver/Inc/stm32n6xx_ll_rcc.h **** /**
1224:../STM32Cube_FW_N6/Drivers/STM32N6xx_HAL_Driver/Inc/stm32n6xx_ll_rcc.h ****   * @}
1225:../STM32Cube_FW_N6/Drivers/STM32N6xx_HAL_Driver/Inc/stm32n6xx_ll_rcc.h ****   */
1226:../STM32Cube_FW_N6/Drivers/STM32N6xx_HAL_Driver/Inc/stm32n6xx_ll_rcc.h **** 
1227:../STM32Cube_FW_N6/Drivers/STM32N6xx_HAL_Driver/Inc/stm32n6xx_ll_rcc.h **** /** @defgroup RCC_LL_EC_DCMIPP  Peripheral DCMIPP get clock source
1228:../STM32Cube_FW_N6/Drivers/STM32N6xx_HAL_Driver/Inc/stm32n6xx_ll_rcc.h ****   * @{
1229:../STM32Cube_FW_N6/Drivers/STM32N6xx_HAL_Driver/Inc/stm32n6xx_ll_rcc.h ****   */
1230:../STM32Cube_FW_N6/Drivers/STM32N6xx_HAL_Driver/Inc/stm32n6xx_ll_rcc.h **** #define LL_RCC_DCMIPP_CLKSOURCE             RCC_CCIPR1_DCMIPPSEL
1231:../STM32Cube_FW_N6/Drivers/STM32N6xx_HAL_Driver/Inc/stm32n6xx_ll_rcc.h **** /**
1232:../STM32Cube_FW_N6/Drivers/STM32N6xx_HAL_Driver/Inc/stm32n6xx_ll_rcc.h ****   * @}
1233:../STM32Cube_FW_N6/Drivers/STM32N6xx_HAL_Driver/Inc/stm32n6xx_ll_rcc.h ****   */
1234:../STM32Cube_FW_N6/Drivers/STM32N6xx_HAL_Driver/Inc/stm32n6xx_ll_rcc.h **** 
1235:../STM32Cube_FW_N6/Drivers/STM32N6xx_HAL_Driver/Inc/stm32n6xx_ll_rcc.h **** /** @defgroup RCC_LL_EC_ETH  Peripheral ETH get clock source
1236:../STM32Cube_FW_N6/Drivers/STM32N6xx_HAL_Driver/Inc/stm32n6xx_ll_rcc.h ****   * @{
1237:../STM32Cube_FW_N6/Drivers/STM32N6xx_HAL_Driver/Inc/stm32n6xx_ll_rcc.h ****   */
1238:../STM32Cube_FW_N6/Drivers/STM32N6xx_HAL_Driver/Inc/stm32n6xx_ll_rcc.h **** #define LL_RCC_ETH1_CLKSOURCE              RCC_CCIPR2_ETH1CLKSEL
1239:../STM32Cube_FW_N6/Drivers/STM32N6xx_HAL_Driver/Inc/stm32n6xx_ll_rcc.h **** /**
1240:../STM32Cube_FW_N6/Drivers/STM32N6xx_HAL_Driver/Inc/stm32n6xx_ll_rcc.h ****   * @}
1241:../STM32Cube_FW_N6/Drivers/STM32N6xx_HAL_Driver/Inc/stm32n6xx_ll_rcc.h ****   */
1242:../STM32Cube_FW_N6/Drivers/STM32N6xx_HAL_Driver/Inc/stm32n6xx_ll_rcc.h **** 
1243:../STM32Cube_FW_N6/Drivers/STM32N6xx_HAL_Driver/Inc/stm32n6xx_ll_rcc.h **** /** @defgroup RCC_LL_EC_ETHPHY  Peripheral ETH PHY get interface
1244:../STM32Cube_FW_N6/Drivers/STM32N6xx_HAL_Driver/Inc/stm32n6xx_ll_rcc.h ****   * @{
1245:../STM32Cube_FW_N6/Drivers/STM32N6xx_HAL_Driver/Inc/stm32n6xx_ll_rcc.h ****   */
1246:../STM32Cube_FW_N6/Drivers/STM32N6xx_HAL_Driver/Inc/stm32n6xx_ll_rcc.h **** #define LL_RCC_ETH1PHY_IF                  RCC_CCIPR2_ETH1SEL
1247:../STM32Cube_FW_N6/Drivers/STM32N6xx_HAL_Driver/Inc/stm32n6xx_ll_rcc.h **** /**
1248:../STM32Cube_FW_N6/Drivers/STM32N6xx_HAL_Driver/Inc/stm32n6xx_ll_rcc.h ****   * @}
1249:../STM32Cube_FW_N6/Drivers/STM32N6xx_HAL_Driver/Inc/stm32n6xx_ll_rcc.h ****   */
1250:../STM32Cube_FW_N6/Drivers/STM32N6xx_HAL_Driver/Inc/stm32n6xx_ll_rcc.h **** 
1251:../STM32Cube_FW_N6/Drivers/STM32N6xx_HAL_Driver/Inc/stm32n6xx_ll_rcc.h **** /** @defgroup RCC_LL_EC_ETHPTP  Peripheral ETHPTP get clock source
1252:../STM32Cube_FW_N6/Drivers/STM32N6xx_HAL_Driver/Inc/stm32n6xx_ll_rcc.h ****   * @{
1253:../STM32Cube_FW_N6/Drivers/STM32N6xx_HAL_Driver/Inc/stm32n6xx_ll_rcc.h ****   */
1254:../STM32Cube_FW_N6/Drivers/STM32N6xx_HAL_Driver/Inc/stm32n6xx_ll_rcc.h **** #define LL_RCC_ETH1PTP_CLKSOURCE           RCC_CCIPR2_ETH1PTPSEL
1255:../STM32Cube_FW_N6/Drivers/STM32N6xx_HAL_Driver/Inc/stm32n6xx_ll_rcc.h **** /**
1256:../STM32Cube_FW_N6/Drivers/STM32N6xx_HAL_Driver/Inc/stm32n6xx_ll_rcc.h ****   * @}
1257:../STM32Cube_FW_N6/Drivers/STM32N6xx_HAL_Driver/Inc/stm32n6xx_ll_rcc.h ****   */
1258:../STM32Cube_FW_N6/Drivers/STM32N6xx_HAL_Driver/Inc/stm32n6xx_ll_rcc.h **** 
1259:../STM32Cube_FW_N6/Drivers/STM32N6xx_HAL_Driver/Inc/stm32n6xx_ll_rcc.h **** /** @defgroup RCC_LL_EC_ETHREFRX  Peripheral ETH Reference RX get clock source
1260:../STM32Cube_FW_N6/Drivers/STM32N6xx_HAL_Driver/Inc/stm32n6xx_ll_rcc.h ****   * @{
1261:../STM32Cube_FW_N6/Drivers/STM32N6xx_HAL_Driver/Inc/stm32n6xx_ll_rcc.h ****   */
1262:../STM32Cube_FW_N6/Drivers/STM32N6xx_HAL_Driver/Inc/stm32n6xx_ll_rcc.h **** #define LL_RCC_ETH1REFRX_CLKSOURCE         RCC_CCIPR2_ETH1REFCLKSEL
1263:../STM32Cube_FW_N6/Drivers/STM32N6xx_HAL_Driver/Inc/stm32n6xx_ll_rcc.h **** /**
1264:../STM32Cube_FW_N6/Drivers/STM32N6xx_HAL_Driver/Inc/stm32n6xx_ll_rcc.h ****   * @}
1265:../STM32Cube_FW_N6/Drivers/STM32N6xx_HAL_Driver/Inc/stm32n6xx_ll_rcc.h ****   */
1266:../STM32Cube_FW_N6/Drivers/STM32N6xx_HAL_Driver/Inc/stm32n6xx_ll_rcc.h **** 
1267:../STM32Cube_FW_N6/Drivers/STM32N6xx_HAL_Driver/Inc/stm32n6xx_ll_rcc.h **** /** @defgroup RCC_LL_EC_ETHREFTX  Peripheral ETH Reference TX get clock source
1268:../STM32Cube_FW_N6/Drivers/STM32N6xx_HAL_Driver/Inc/stm32n6xx_ll_rcc.h ****   * @{
1269:../STM32Cube_FW_N6/Drivers/STM32N6xx_HAL_Driver/Inc/stm32n6xx_ll_rcc.h ****   */
1270:../STM32Cube_FW_N6/Drivers/STM32N6xx_HAL_Driver/Inc/stm32n6xx_ll_rcc.h **** #define LL_RCC_ETH1REFTX_CLKSOURCE         RCC_CCIPR2_ETH1GTXCLKSEL
1271:../STM32Cube_FW_N6/Drivers/STM32N6xx_HAL_Driver/Inc/stm32n6xx_ll_rcc.h **** /**
1272:../STM32Cube_FW_N6/Drivers/STM32N6xx_HAL_Driver/Inc/stm32n6xx_ll_rcc.h ****   * @}
1273:../STM32Cube_FW_N6/Drivers/STM32N6xx_HAL_Driver/Inc/stm32n6xx_ll_rcc.h ****   */
1274:../STM32Cube_FW_N6/Drivers/STM32N6xx_HAL_Driver/Inc/stm32n6xx_ll_rcc.h **** 
1275:../STM32Cube_FW_N6/Drivers/STM32N6xx_HAL_Driver/Inc/stm32n6xx_ll_rcc.h **** /** @defgroup RCC_LL_EC_FDCAN  Peripheral FDCAN get clock source
1276:../STM32Cube_FW_N6/Drivers/STM32N6xx_HAL_Driver/Inc/stm32n6xx_ll_rcc.h ****   * @{
1277:../STM32Cube_FW_N6/Drivers/STM32N6xx_HAL_Driver/Inc/stm32n6xx_ll_rcc.h ****   */
1278:../STM32Cube_FW_N6/Drivers/STM32N6xx_HAL_Driver/Inc/stm32n6xx_ll_rcc.h **** #define LL_RCC_FDCAN_CLKSOURCE             RCC_CCIPR3_FDCANSEL
ARM GAS  /tmp/ccjTyagi.s 			page 31


1279:../STM32Cube_FW_N6/Drivers/STM32N6xx_HAL_Driver/Inc/stm32n6xx_ll_rcc.h **** /**
1280:../STM32Cube_FW_N6/Drivers/STM32N6xx_HAL_Driver/Inc/stm32n6xx_ll_rcc.h ****   * @}
1281:../STM32Cube_FW_N6/Drivers/STM32N6xx_HAL_Driver/Inc/stm32n6xx_ll_rcc.h ****   */
1282:../STM32Cube_FW_N6/Drivers/STM32N6xx_HAL_Driver/Inc/stm32n6xx_ll_rcc.h **** 
1283:../STM32Cube_FW_N6/Drivers/STM32N6xx_HAL_Driver/Inc/stm32n6xx_ll_rcc.h **** /** @defgroup RCC_LL_EC_FMC  Peripheral FMC get clock source
1284:../STM32Cube_FW_N6/Drivers/STM32N6xx_HAL_Driver/Inc/stm32n6xx_ll_rcc.h ****   * @{
1285:../STM32Cube_FW_N6/Drivers/STM32N6xx_HAL_Driver/Inc/stm32n6xx_ll_rcc.h ****   */
1286:../STM32Cube_FW_N6/Drivers/STM32N6xx_HAL_Driver/Inc/stm32n6xx_ll_rcc.h **** #define LL_RCC_FMC_CLKSOURCE               RCC_CCIPR3_FMCSEL
1287:../STM32Cube_FW_N6/Drivers/STM32N6xx_HAL_Driver/Inc/stm32n6xx_ll_rcc.h **** /**
1288:../STM32Cube_FW_N6/Drivers/STM32N6xx_HAL_Driver/Inc/stm32n6xx_ll_rcc.h ****   * @}
1289:../STM32Cube_FW_N6/Drivers/STM32N6xx_HAL_Driver/Inc/stm32n6xx_ll_rcc.h ****   */
1290:../STM32Cube_FW_N6/Drivers/STM32N6xx_HAL_Driver/Inc/stm32n6xx_ll_rcc.h **** 
1291:../STM32Cube_FW_N6/Drivers/STM32N6xx_HAL_Driver/Inc/stm32n6xx_ll_rcc.h **** /** @defgroup RCC_LL_EC_I2C  Peripheral I2C get clock source
1292:../STM32Cube_FW_N6/Drivers/STM32N6xx_HAL_Driver/Inc/stm32n6xx_ll_rcc.h ****   * @{
1293:../STM32Cube_FW_N6/Drivers/STM32N6xx_HAL_Driver/Inc/stm32n6xx_ll_rcc.h ****   */
1294:../STM32Cube_FW_N6/Drivers/STM32N6xx_HAL_Driver/Inc/stm32n6xx_ll_rcc.h **** #define LL_RCC_I2C1_CLKSOURCE              LL_CLKSOURCE(CCIPR4_OFFSET, RCC_CCIPR4_I2C1SEL, RCC_CCIP
1295:../STM32Cube_FW_N6/Drivers/STM32N6xx_HAL_Driver/Inc/stm32n6xx_ll_rcc.h **** #define LL_RCC_I2C2_CLKSOURCE              LL_CLKSOURCE(CCIPR4_OFFSET, RCC_CCIPR4_I2C2SEL, RCC_CCIP
1296:../STM32Cube_FW_N6/Drivers/STM32N6xx_HAL_Driver/Inc/stm32n6xx_ll_rcc.h **** #define LL_RCC_I2C3_CLKSOURCE              LL_CLKSOURCE(CCIPR4_OFFSET, RCC_CCIPR4_I2C3SEL, RCC_CCIP
1297:../STM32Cube_FW_N6/Drivers/STM32N6xx_HAL_Driver/Inc/stm32n6xx_ll_rcc.h **** #define LL_RCC_I2C4_CLKSOURCE              LL_CLKSOURCE(CCIPR4_OFFSET, RCC_CCIPR4_I2C4SEL, RCC_CCIP
1298:../STM32Cube_FW_N6/Drivers/STM32N6xx_HAL_Driver/Inc/stm32n6xx_ll_rcc.h **** /**
1299:../STM32Cube_FW_N6/Drivers/STM32N6xx_HAL_Driver/Inc/stm32n6xx_ll_rcc.h ****   * @}
1300:../STM32Cube_FW_N6/Drivers/STM32N6xx_HAL_Driver/Inc/stm32n6xx_ll_rcc.h ****   */
1301:../STM32Cube_FW_N6/Drivers/STM32N6xx_HAL_Driver/Inc/stm32n6xx_ll_rcc.h **** 
1302:../STM32Cube_FW_N6/Drivers/STM32N6xx_HAL_Driver/Inc/stm32n6xx_ll_rcc.h **** /** @defgroup RCC_LL_EC_I3C  Peripheral I3C get clock source
1303:../STM32Cube_FW_N6/Drivers/STM32N6xx_HAL_Driver/Inc/stm32n6xx_ll_rcc.h ****   * @{
1304:../STM32Cube_FW_N6/Drivers/STM32N6xx_HAL_Driver/Inc/stm32n6xx_ll_rcc.h ****   */
1305:../STM32Cube_FW_N6/Drivers/STM32N6xx_HAL_Driver/Inc/stm32n6xx_ll_rcc.h **** #define LL_RCC_I3C1_CLKSOURCE              LL_CLKSOURCE(CCIPR4_OFFSET, RCC_CCIPR4_I3C1SEL, RCC_CCIP
1306:../STM32Cube_FW_N6/Drivers/STM32N6xx_HAL_Driver/Inc/stm32n6xx_ll_rcc.h **** #define LL_RCC_I3C2_CLKSOURCE              LL_CLKSOURCE(CCIPR4_OFFSET, RCC_CCIPR4_I3C2SEL, RCC_CCIP
1307:../STM32Cube_FW_N6/Drivers/STM32N6xx_HAL_Driver/Inc/stm32n6xx_ll_rcc.h **** /**
1308:../STM32Cube_FW_N6/Drivers/STM32N6xx_HAL_Driver/Inc/stm32n6xx_ll_rcc.h ****   * @}
1309:../STM32Cube_FW_N6/Drivers/STM32N6xx_HAL_Driver/Inc/stm32n6xx_ll_rcc.h ****   */
1310:../STM32Cube_FW_N6/Drivers/STM32N6xx_HAL_Driver/Inc/stm32n6xx_ll_rcc.h **** 
1311:../STM32Cube_FW_N6/Drivers/STM32N6xx_HAL_Driver/Inc/stm32n6xx_ll_rcc.h **** /** @defgroup RCC_LL_EC_LPTIM  Peripheral LPTIM get clock source
1312:../STM32Cube_FW_N6/Drivers/STM32N6xx_HAL_Driver/Inc/stm32n6xx_ll_rcc.h ****   * @{
1313:../STM32Cube_FW_N6/Drivers/STM32N6xx_HAL_Driver/Inc/stm32n6xx_ll_rcc.h ****   */
1314:../STM32Cube_FW_N6/Drivers/STM32N6xx_HAL_Driver/Inc/stm32n6xx_ll_rcc.h **** #define LL_RCC_LPTIM1_CLKSOURCE            LL_CLKSOURCE(CCIPR12_OFFSET, RCC_CCIPR12_LPTIM1SEL, RCC_
1315:../STM32Cube_FW_N6/Drivers/STM32N6xx_HAL_Driver/Inc/stm32n6xx_ll_rcc.h **** #define LL_RCC_LPTIM2_CLKSOURCE            LL_CLKSOURCE(CCIPR12_OFFSET, RCC_CCIPR12_LPTIM2SEL, RCC_
1316:../STM32Cube_FW_N6/Drivers/STM32N6xx_HAL_Driver/Inc/stm32n6xx_ll_rcc.h **** #define LL_RCC_LPTIM3_CLKSOURCE            LL_CLKSOURCE(CCIPR12_OFFSET, RCC_CCIPR12_LPTIM3SEL, RCC_
1317:../STM32Cube_FW_N6/Drivers/STM32N6xx_HAL_Driver/Inc/stm32n6xx_ll_rcc.h **** #define LL_RCC_LPTIM4_CLKSOURCE            LL_CLKSOURCE(CCIPR12_OFFSET, RCC_CCIPR12_LPTIM4SEL, RCC_
1318:../STM32Cube_FW_N6/Drivers/STM32N6xx_HAL_Driver/Inc/stm32n6xx_ll_rcc.h **** #define LL_RCC_LPTIM5_CLKSOURCE            LL_CLKSOURCE(CCIPR12_OFFSET, RCC_CCIPR12_LPTIM5SEL, RCC_
1319:../STM32Cube_FW_N6/Drivers/STM32N6xx_HAL_Driver/Inc/stm32n6xx_ll_rcc.h **** /**
1320:../STM32Cube_FW_N6/Drivers/STM32N6xx_HAL_Driver/Inc/stm32n6xx_ll_rcc.h ****   * @}
1321:../STM32Cube_FW_N6/Drivers/STM32N6xx_HAL_Driver/Inc/stm32n6xx_ll_rcc.h ****   */
1322:../STM32Cube_FW_N6/Drivers/STM32N6xx_HAL_Driver/Inc/stm32n6xx_ll_rcc.h **** 
1323:../STM32Cube_FW_N6/Drivers/STM32N6xx_HAL_Driver/Inc/stm32n6xx_ll_rcc.h **** /** @defgroup RCC_LL_EC_LPUART  Peripheral LPUART get clock source
1324:../STM32Cube_FW_N6/Drivers/STM32N6xx_HAL_Driver/Inc/stm32n6xx_ll_rcc.h ****   * @{
1325:../STM32Cube_FW_N6/Drivers/STM32N6xx_HAL_Driver/Inc/stm32n6xx_ll_rcc.h ****   */
1326:../STM32Cube_FW_N6/Drivers/STM32N6xx_HAL_Driver/Inc/stm32n6xx_ll_rcc.h **** #define LL_RCC_LPUART1_CLKSOURCE           RCC_CCIPR14_LPUART1SEL
1327:../STM32Cube_FW_N6/Drivers/STM32N6xx_HAL_Driver/Inc/stm32n6xx_ll_rcc.h **** /**
1328:../STM32Cube_FW_N6/Drivers/STM32N6xx_HAL_Driver/Inc/stm32n6xx_ll_rcc.h ****   * @}
1329:../STM32Cube_FW_N6/Drivers/STM32N6xx_HAL_Driver/Inc/stm32n6xx_ll_rcc.h ****   */
1330:../STM32Cube_FW_N6/Drivers/STM32N6xx_HAL_Driver/Inc/stm32n6xx_ll_rcc.h **** 
1331:../STM32Cube_FW_N6/Drivers/STM32N6xx_HAL_Driver/Inc/stm32n6xx_ll_rcc.h **** /** @defgroup RCC_LL_EC_LTDC  Peripheral LTDC get clock source
1332:../STM32Cube_FW_N6/Drivers/STM32N6xx_HAL_Driver/Inc/stm32n6xx_ll_rcc.h ****   * @{
1333:../STM32Cube_FW_N6/Drivers/STM32N6xx_HAL_Driver/Inc/stm32n6xx_ll_rcc.h ****   */
1334:../STM32Cube_FW_N6/Drivers/STM32N6xx_HAL_Driver/Inc/stm32n6xx_ll_rcc.h **** #define LL_RCC_LTDC_CLKSOURCE              RCC_CCIPR4_LTDCSEL
1335:../STM32Cube_FW_N6/Drivers/STM32N6xx_HAL_Driver/Inc/stm32n6xx_ll_rcc.h **** /**
ARM GAS  /tmp/ccjTyagi.s 			page 32


1336:../STM32Cube_FW_N6/Drivers/STM32N6xx_HAL_Driver/Inc/stm32n6xx_ll_rcc.h ****   * @}
1337:../STM32Cube_FW_N6/Drivers/STM32N6xx_HAL_Driver/Inc/stm32n6xx_ll_rcc.h ****   */
1338:../STM32Cube_FW_N6/Drivers/STM32N6xx_HAL_Driver/Inc/stm32n6xx_ll_rcc.h **** 
1339:../STM32Cube_FW_N6/Drivers/STM32N6xx_HAL_Driver/Inc/stm32n6xx_ll_rcc.h **** /** @defgroup RCC_LL_EC_MDF  Peripheral MDF get clock source
1340:../STM32Cube_FW_N6/Drivers/STM32N6xx_HAL_Driver/Inc/stm32n6xx_ll_rcc.h ****   * @{
1341:../STM32Cube_FW_N6/Drivers/STM32N6xx_HAL_Driver/Inc/stm32n6xx_ll_rcc.h ****   */
1342:../STM32Cube_FW_N6/Drivers/STM32N6xx_HAL_Driver/Inc/stm32n6xx_ll_rcc.h **** #define LL_RCC_MDF1_CLKSOURCE              RCC_CCIPR5_MDF1SEL
1343:../STM32Cube_FW_N6/Drivers/STM32N6xx_HAL_Driver/Inc/stm32n6xx_ll_rcc.h **** /**
1344:../STM32Cube_FW_N6/Drivers/STM32N6xx_HAL_Driver/Inc/stm32n6xx_ll_rcc.h ****   * @}
1345:../STM32Cube_FW_N6/Drivers/STM32N6xx_HAL_Driver/Inc/stm32n6xx_ll_rcc.h ****   */
1346:../STM32Cube_FW_N6/Drivers/STM32N6xx_HAL_Driver/Inc/stm32n6xx_ll_rcc.h **** 
1347:../STM32Cube_FW_N6/Drivers/STM32N6xx_HAL_Driver/Inc/stm32n6xx_ll_rcc.h **** /** @defgroup RCC_LL_EC_OTGPHY  Peripheral OTGPHY get clock source
1348:../STM32Cube_FW_N6/Drivers/STM32N6xx_HAL_Driver/Inc/stm32n6xx_ll_rcc.h ****   * @{
1349:../STM32Cube_FW_N6/Drivers/STM32N6xx_HAL_Driver/Inc/stm32n6xx_ll_rcc.h ****   */
1350:../STM32Cube_FW_N6/Drivers/STM32N6xx_HAL_Driver/Inc/stm32n6xx_ll_rcc.h **** #define LL_RCC_OTGPHY1_CLKSOURCE           LL_CLKSOURCE(CCIPR6_OFFSET, RCC_CCIPR6_OTGPHY1SEL, RCC_C
1351:../STM32Cube_FW_N6/Drivers/STM32N6xx_HAL_Driver/Inc/stm32n6xx_ll_rcc.h **** #define LL_RCC_OTGPHY2_CLKSOURCE           LL_CLKSOURCE(CCIPR6_OFFSET, RCC_CCIPR6_OTGPHY2SEL, RCC_C
1352:../STM32Cube_FW_N6/Drivers/STM32N6xx_HAL_Driver/Inc/stm32n6xx_ll_rcc.h **** /**
1353:../STM32Cube_FW_N6/Drivers/STM32N6xx_HAL_Driver/Inc/stm32n6xx_ll_rcc.h ****   * @}
1354:../STM32Cube_FW_N6/Drivers/STM32N6xx_HAL_Driver/Inc/stm32n6xx_ll_rcc.h ****   */
1355:../STM32Cube_FW_N6/Drivers/STM32N6xx_HAL_Driver/Inc/stm32n6xx_ll_rcc.h **** 
1356:../STM32Cube_FW_N6/Drivers/STM32N6xx_HAL_Driver/Inc/stm32n6xx_ll_rcc.h **** /** @defgroup RCC_LL_EC_OTGPHYCKREF  Peripheral OTGPHYCKREF get clock source
1357:../STM32Cube_FW_N6/Drivers/STM32N6xx_HAL_Driver/Inc/stm32n6xx_ll_rcc.h ****   * @{
1358:../STM32Cube_FW_N6/Drivers/STM32N6xx_HAL_Driver/Inc/stm32n6xx_ll_rcc.h ****   */
1359:../STM32Cube_FW_N6/Drivers/STM32N6xx_HAL_Driver/Inc/stm32n6xx_ll_rcc.h **** #define LL_RCC_OTGPHY1CKREF_CLKSOURCE      LL_CLKSOURCE(CCIPR6_OFFSET, RCC_CCIPR6_OTGPHY1CKREFSEL, 
1360:../STM32Cube_FW_N6/Drivers/STM32N6xx_HAL_Driver/Inc/stm32n6xx_ll_rcc.h **** #define LL_RCC_OTGPHY2CKREF_CLKSOURCE      LL_CLKSOURCE(CCIPR6_OFFSET, RCC_CCIPR6_OTGPHY2CKREFSEL, 
1361:../STM32Cube_FW_N6/Drivers/STM32N6xx_HAL_Driver/Inc/stm32n6xx_ll_rcc.h **** /**
1362:../STM32Cube_FW_N6/Drivers/STM32N6xx_HAL_Driver/Inc/stm32n6xx_ll_rcc.h ****   * @}
1363:../STM32Cube_FW_N6/Drivers/STM32N6xx_HAL_Driver/Inc/stm32n6xx_ll_rcc.h ****   */
1364:../STM32Cube_FW_N6/Drivers/STM32N6xx_HAL_Driver/Inc/stm32n6xx_ll_rcc.h **** 
1365:../STM32Cube_FW_N6/Drivers/STM32N6xx_HAL_Driver/Inc/stm32n6xx_ll_rcc.h **** /** @defgroup RCC_LL_EC_PSSI  Peripheral PSSI get clock source
1366:../STM32Cube_FW_N6/Drivers/STM32N6xx_HAL_Driver/Inc/stm32n6xx_ll_rcc.h ****   * @{
1367:../STM32Cube_FW_N6/Drivers/STM32N6xx_HAL_Driver/Inc/stm32n6xx_ll_rcc.h ****   */
1368:../STM32Cube_FW_N6/Drivers/STM32N6xx_HAL_Driver/Inc/stm32n6xx_ll_rcc.h **** #define LL_RCC_PSSI_CLKSOURCE              RCC_CCIPR7_PSSISEL
1369:../STM32Cube_FW_N6/Drivers/STM32N6xx_HAL_Driver/Inc/stm32n6xx_ll_rcc.h **** /**
1370:../STM32Cube_FW_N6/Drivers/STM32N6xx_HAL_Driver/Inc/stm32n6xx_ll_rcc.h ****   * @}
1371:../STM32Cube_FW_N6/Drivers/STM32N6xx_HAL_Driver/Inc/stm32n6xx_ll_rcc.h ****   */
1372:../STM32Cube_FW_N6/Drivers/STM32N6xx_HAL_Driver/Inc/stm32n6xx_ll_rcc.h **** 
1373:../STM32Cube_FW_N6/Drivers/STM32N6xx_HAL_Driver/Inc/stm32n6xx_ll_rcc.h **** /** @defgroup RCC_LL_EC_SAI  Peripheral SAI get clock source
1374:../STM32Cube_FW_N6/Drivers/STM32N6xx_HAL_Driver/Inc/stm32n6xx_ll_rcc.h ****   * @{
1375:../STM32Cube_FW_N6/Drivers/STM32N6xx_HAL_Driver/Inc/stm32n6xx_ll_rcc.h ****   */
1376:../STM32Cube_FW_N6/Drivers/STM32N6xx_HAL_Driver/Inc/stm32n6xx_ll_rcc.h **** #define LL_RCC_SAI1_CLKSOURCE              LL_CLKSOURCE(CCIPR7_OFFSET, RCC_CCIPR7_SAI1SEL, RCC_CCIP
1377:../STM32Cube_FW_N6/Drivers/STM32N6xx_HAL_Driver/Inc/stm32n6xx_ll_rcc.h **** #define LL_RCC_SAI2_CLKSOURCE              LL_CLKSOURCE(CCIPR7_OFFSET, RCC_CCIPR7_SAI2SEL, RCC_CCIP
1378:../STM32Cube_FW_N6/Drivers/STM32N6xx_HAL_Driver/Inc/stm32n6xx_ll_rcc.h **** /**
1379:../STM32Cube_FW_N6/Drivers/STM32N6xx_HAL_Driver/Inc/stm32n6xx_ll_rcc.h ****   * @}
1380:../STM32Cube_FW_N6/Drivers/STM32N6xx_HAL_Driver/Inc/stm32n6xx_ll_rcc.h ****   */
1381:../STM32Cube_FW_N6/Drivers/STM32N6xx_HAL_Driver/Inc/stm32n6xx_ll_rcc.h **** 
1382:../STM32Cube_FW_N6/Drivers/STM32N6xx_HAL_Driver/Inc/stm32n6xx_ll_rcc.h **** /** @defgroup RCC_LL_EC_SDMMC  Peripheral SDMMC get clock source
1383:../STM32Cube_FW_N6/Drivers/STM32N6xx_HAL_Driver/Inc/stm32n6xx_ll_rcc.h ****   * @{
1384:../STM32Cube_FW_N6/Drivers/STM32N6xx_HAL_Driver/Inc/stm32n6xx_ll_rcc.h ****   */
1385:../STM32Cube_FW_N6/Drivers/STM32N6xx_HAL_Driver/Inc/stm32n6xx_ll_rcc.h **** #define LL_RCC_SDMMC1_CLKSOURCE            LL_CLKSOURCE(CCIPR8_OFFSET, RCC_CCIPR8_SDMMC1SEL, RCC_CC
1386:../STM32Cube_FW_N6/Drivers/STM32N6xx_HAL_Driver/Inc/stm32n6xx_ll_rcc.h **** #define LL_RCC_SDMMC2_CLKSOURCE            LL_CLKSOURCE(CCIPR8_OFFSET, RCC_CCIPR8_SDMMC2SEL, RCC_CC
1387:../STM32Cube_FW_N6/Drivers/STM32N6xx_HAL_Driver/Inc/stm32n6xx_ll_rcc.h **** /**
1388:../STM32Cube_FW_N6/Drivers/STM32N6xx_HAL_Driver/Inc/stm32n6xx_ll_rcc.h ****   * @}
1389:../STM32Cube_FW_N6/Drivers/STM32N6xx_HAL_Driver/Inc/stm32n6xx_ll_rcc.h ****   */
1390:../STM32Cube_FW_N6/Drivers/STM32N6xx_HAL_Driver/Inc/stm32n6xx_ll_rcc.h **** 
1391:../STM32Cube_FW_N6/Drivers/STM32N6xx_HAL_Driver/Inc/stm32n6xx_ll_rcc.h **** /** @defgroup RCC_LL_EC_SPDIFRX  Peripheral SPDIFRX get clock source
1392:../STM32Cube_FW_N6/Drivers/STM32N6xx_HAL_Driver/Inc/stm32n6xx_ll_rcc.h ****   * @{
ARM GAS  /tmp/ccjTyagi.s 			page 33


1393:../STM32Cube_FW_N6/Drivers/STM32N6xx_HAL_Driver/Inc/stm32n6xx_ll_rcc.h ****   */
1394:../STM32Cube_FW_N6/Drivers/STM32N6xx_HAL_Driver/Inc/stm32n6xx_ll_rcc.h **** #define LL_RCC_SPDIFRX1_CLKSOURCE          RCC_CCIPR9_SPDIFRX1SEL
1395:../STM32Cube_FW_N6/Drivers/STM32N6xx_HAL_Driver/Inc/stm32n6xx_ll_rcc.h **** /**
1396:../STM32Cube_FW_N6/Drivers/STM32N6xx_HAL_Driver/Inc/stm32n6xx_ll_rcc.h ****   * @}
1397:../STM32Cube_FW_N6/Drivers/STM32N6xx_HAL_Driver/Inc/stm32n6xx_ll_rcc.h ****   */
1398:../STM32Cube_FW_N6/Drivers/STM32N6xx_HAL_Driver/Inc/stm32n6xx_ll_rcc.h **** 
1399:../STM32Cube_FW_N6/Drivers/STM32N6xx_HAL_Driver/Inc/stm32n6xx_ll_rcc.h **** /** @defgroup RCC_LL_EC_SPI  Peripheral SPI get clock source
1400:../STM32Cube_FW_N6/Drivers/STM32N6xx_HAL_Driver/Inc/stm32n6xx_ll_rcc.h ****   * @{
1401:../STM32Cube_FW_N6/Drivers/STM32N6xx_HAL_Driver/Inc/stm32n6xx_ll_rcc.h ****   */
1402:../STM32Cube_FW_N6/Drivers/STM32N6xx_HAL_Driver/Inc/stm32n6xx_ll_rcc.h **** #define LL_RCC_SPI1_CLKSOURCE              LL_CLKSOURCE(CCIPR9_OFFSET, RCC_CCIPR9_SPI1SEL, RCC_CCIP
1403:../STM32Cube_FW_N6/Drivers/STM32N6xx_HAL_Driver/Inc/stm32n6xx_ll_rcc.h **** #define LL_RCC_SPI2_CLKSOURCE              LL_CLKSOURCE(CCIPR9_OFFSET, RCC_CCIPR9_SPI2SEL, RCC_CCIP
1404:../STM32Cube_FW_N6/Drivers/STM32N6xx_HAL_Driver/Inc/stm32n6xx_ll_rcc.h **** #define LL_RCC_SPI3_CLKSOURCE              LL_CLKSOURCE(CCIPR9_OFFSET, RCC_CCIPR9_SPI3SEL, RCC_CCIP
1405:../STM32Cube_FW_N6/Drivers/STM32N6xx_HAL_Driver/Inc/stm32n6xx_ll_rcc.h **** #define LL_RCC_SPI4_CLKSOURCE              LL_CLKSOURCE(CCIPR9_OFFSET, RCC_CCIPR9_SPI4SEL, RCC_CCIP
1406:../STM32Cube_FW_N6/Drivers/STM32N6xx_HAL_Driver/Inc/stm32n6xx_ll_rcc.h **** #define LL_RCC_SPI5_CLKSOURCE              LL_CLKSOURCE(CCIPR9_OFFSET, RCC_CCIPR9_SPI5SEL, RCC_CCIP
1407:../STM32Cube_FW_N6/Drivers/STM32N6xx_HAL_Driver/Inc/stm32n6xx_ll_rcc.h **** #define LL_RCC_SPI6_CLKSOURCE              LL_CLKSOURCE(CCIPR9_OFFSET, RCC_CCIPR9_SPI6SEL, RCC_CCIP
1408:../STM32Cube_FW_N6/Drivers/STM32N6xx_HAL_Driver/Inc/stm32n6xx_ll_rcc.h **** /**
1409:../STM32Cube_FW_N6/Drivers/STM32N6xx_HAL_Driver/Inc/stm32n6xx_ll_rcc.h ****   * @}
1410:../STM32Cube_FW_N6/Drivers/STM32N6xx_HAL_Driver/Inc/stm32n6xx_ll_rcc.h ****   */
1411:../STM32Cube_FW_N6/Drivers/STM32N6xx_HAL_Driver/Inc/stm32n6xx_ll_rcc.h **** 
1412:../STM32Cube_FW_N6/Drivers/STM32N6xx_HAL_Driver/Inc/stm32n6xx_ll_rcc.h **** /** @defgroup RCC_LL_EC_UART  Peripheral UART get clock source
1413:../STM32Cube_FW_N6/Drivers/STM32N6xx_HAL_Driver/Inc/stm32n6xx_ll_rcc.h ****   * @{
1414:../STM32Cube_FW_N6/Drivers/STM32N6xx_HAL_Driver/Inc/stm32n6xx_ll_rcc.h ****   */
1415:../STM32Cube_FW_N6/Drivers/STM32N6xx_HAL_Driver/Inc/stm32n6xx_ll_rcc.h **** #define LL_RCC_UART4_CLKSOURCE             LL_CLKSOURCE(CCIPR13_OFFSET, RCC_CCIPR13_UART4SEL, RCC_C
1416:../STM32Cube_FW_N6/Drivers/STM32N6xx_HAL_Driver/Inc/stm32n6xx_ll_rcc.h **** #define LL_RCC_UART5_CLKSOURCE             LL_CLKSOURCE(CCIPR13_OFFSET, RCC_CCIPR13_UART5SEL, RCC_C
1417:../STM32Cube_FW_N6/Drivers/STM32N6xx_HAL_Driver/Inc/stm32n6xx_ll_rcc.h **** #define LL_RCC_UART7_CLKSOURCE             LL_CLKSOURCE(CCIPR13_OFFSET, RCC_CCIPR13_UART7SEL, RCC_C
1418:../STM32Cube_FW_N6/Drivers/STM32N6xx_HAL_Driver/Inc/stm32n6xx_ll_rcc.h **** #define LL_RCC_UART8_CLKSOURCE             LL_CLKSOURCE(CCIPR13_OFFSET, RCC_CCIPR13_UART8SEL, RCC_C
1419:../STM32Cube_FW_N6/Drivers/STM32N6xx_HAL_Driver/Inc/stm32n6xx_ll_rcc.h **** #define LL_RCC_UART9_CLKSOURCE             LL_CLKSOURCE(CCIPR14_OFFSET, RCC_CCIPR14_UART9SEL, RCC_C
1420:../STM32Cube_FW_N6/Drivers/STM32N6xx_HAL_Driver/Inc/stm32n6xx_ll_rcc.h **** /**
1421:../STM32Cube_FW_N6/Drivers/STM32N6xx_HAL_Driver/Inc/stm32n6xx_ll_rcc.h ****   * @}
1422:../STM32Cube_FW_N6/Drivers/STM32N6xx_HAL_Driver/Inc/stm32n6xx_ll_rcc.h ****   */
1423:../STM32Cube_FW_N6/Drivers/STM32N6xx_HAL_Driver/Inc/stm32n6xx_ll_rcc.h **** 
1424:../STM32Cube_FW_N6/Drivers/STM32N6xx_HAL_Driver/Inc/stm32n6xx_ll_rcc.h **** /** @defgroup RCC_LL_EC_USART  Peripheral USART get clock source
1425:../STM32Cube_FW_N6/Drivers/STM32N6xx_HAL_Driver/Inc/stm32n6xx_ll_rcc.h ****   * @{
1426:../STM32Cube_FW_N6/Drivers/STM32N6xx_HAL_Driver/Inc/stm32n6xx_ll_rcc.h ****   */
1427:../STM32Cube_FW_N6/Drivers/STM32N6xx_HAL_Driver/Inc/stm32n6xx_ll_rcc.h **** #define LL_RCC_USART1_CLKSOURCE            LL_CLKSOURCE(CCIPR13_OFFSET, RCC_CCIPR13_USART1SEL, RCC_
1428:../STM32Cube_FW_N6/Drivers/STM32N6xx_HAL_Driver/Inc/stm32n6xx_ll_rcc.h **** #define LL_RCC_USART2_CLKSOURCE            LL_CLKSOURCE(CCIPR13_OFFSET, RCC_CCIPR13_USART2SEL, RCC_
1429:../STM32Cube_FW_N6/Drivers/STM32N6xx_HAL_Driver/Inc/stm32n6xx_ll_rcc.h **** #define LL_RCC_USART3_CLKSOURCE            LL_CLKSOURCE(CCIPR13_OFFSET, RCC_CCIPR13_USART3SEL, RCC_
1430:../STM32Cube_FW_N6/Drivers/STM32N6xx_HAL_Driver/Inc/stm32n6xx_ll_rcc.h **** #define LL_RCC_USART6_CLKSOURCE            LL_CLKSOURCE(CCIPR13_OFFSET, RCC_CCIPR13_USART6SEL, RCC_
1431:../STM32Cube_FW_N6/Drivers/STM32N6xx_HAL_Driver/Inc/stm32n6xx_ll_rcc.h **** #define LL_RCC_USART10_CLKSOURCE           LL_CLKSOURCE(CCIPR14_OFFSET, RCC_CCIPR14_USART10SEL, RCC
1432:../STM32Cube_FW_N6/Drivers/STM32N6xx_HAL_Driver/Inc/stm32n6xx_ll_rcc.h **** /**
1433:../STM32Cube_FW_N6/Drivers/STM32N6xx_HAL_Driver/Inc/stm32n6xx_ll_rcc.h ****   * @}
1434:../STM32Cube_FW_N6/Drivers/STM32N6xx_HAL_Driver/Inc/stm32n6xx_ll_rcc.h ****   */
1435:../STM32Cube_FW_N6/Drivers/STM32N6xx_HAL_Driver/Inc/stm32n6xx_ll_rcc.h **** 
1436:../STM32Cube_FW_N6/Drivers/STM32N6xx_HAL_Driver/Inc/stm32n6xx_ll_rcc.h **** /** @defgroup RCC_LL_EC_XSPI  Peripheral XSPI get clock source
1437:../STM32Cube_FW_N6/Drivers/STM32N6xx_HAL_Driver/Inc/stm32n6xx_ll_rcc.h ****   * @{
1438:../STM32Cube_FW_N6/Drivers/STM32N6xx_HAL_Driver/Inc/stm32n6xx_ll_rcc.h ****   */
1439:../STM32Cube_FW_N6/Drivers/STM32N6xx_HAL_Driver/Inc/stm32n6xx_ll_rcc.h **** #define LL_RCC_XSPI1_CLKSOURCE             LL_CLKSOURCE(CCIPR6_OFFSET, RCC_CCIPR6_XSPI1SEL, RCC_CCI
1440:../STM32Cube_FW_N6/Drivers/STM32N6xx_HAL_Driver/Inc/stm32n6xx_ll_rcc.h **** #define LL_RCC_XSPI2_CLKSOURCE             LL_CLKSOURCE(CCIPR6_OFFSET, RCC_CCIPR6_XSPI2SEL, RCC_CCI
1441:../STM32Cube_FW_N6/Drivers/STM32N6xx_HAL_Driver/Inc/stm32n6xx_ll_rcc.h **** #define LL_RCC_XSPI3_CLKSOURCE             LL_CLKSOURCE(CCIPR6_OFFSET, RCC_CCIPR6_XSPI3SEL, RCC_CCI
1442:../STM32Cube_FW_N6/Drivers/STM32N6xx_HAL_Driver/Inc/stm32n6xx_ll_rcc.h **** /**
1443:../STM32Cube_FW_N6/Drivers/STM32N6xx_HAL_Driver/Inc/stm32n6xx_ll_rcc.h ****   * @}
1444:../STM32Cube_FW_N6/Drivers/STM32N6xx_HAL_Driver/Inc/stm32n6xx_ll_rcc.h ****   */
1445:../STM32Cube_FW_N6/Drivers/STM32N6xx_HAL_Driver/Inc/stm32n6xx_ll_rcc.h **** 
1446:../STM32Cube_FW_N6/Drivers/STM32N6xx_HAL_Driver/Inc/stm32n6xx_ll_rcc.h **** /** @defgroup RCC_LL_EC_TIM_CLKPRESCALER  Timers clocks prescalers selection
1447:../STM32Cube_FW_N6/Drivers/STM32N6xx_HAL_Driver/Inc/stm32n6xx_ll_rcc.h ****   * @{
1448:../STM32Cube_FW_N6/Drivers/STM32N6xx_HAL_Driver/Inc/stm32n6xx_ll_rcc.h ****   */
1449:../STM32Cube_FW_N6/Drivers/STM32N6xx_HAL_Driver/Inc/stm32n6xx_ll_rcc.h **** #define LL_RCC_TIM_PRESCALER_1             0U
ARM GAS  /tmp/ccjTyagi.s 			page 34


1450:../STM32Cube_FW_N6/Drivers/STM32N6xx_HAL_Driver/Inc/stm32n6xx_ll_rcc.h **** #define LL_RCC_TIM_PRESCALER_2             1U
1451:../STM32Cube_FW_N6/Drivers/STM32N6xx_HAL_Driver/Inc/stm32n6xx_ll_rcc.h **** #define LL_RCC_TIM_PRESCALER_4             2U
1452:../STM32Cube_FW_N6/Drivers/STM32N6xx_HAL_Driver/Inc/stm32n6xx_ll_rcc.h **** #define LL_RCC_TIM_PRESCALER_8             3U
1453:../STM32Cube_FW_N6/Drivers/STM32N6xx_HAL_Driver/Inc/stm32n6xx_ll_rcc.h **** /**
1454:../STM32Cube_FW_N6/Drivers/STM32N6xx_HAL_Driver/Inc/stm32n6xx_ll_rcc.h ****   * @}
1455:../STM32Cube_FW_N6/Drivers/STM32N6xx_HAL_Driver/Inc/stm32n6xx_ll_rcc.h ****   */
1456:../STM32Cube_FW_N6/Drivers/STM32N6xx_HAL_Driver/Inc/stm32n6xx_ll_rcc.h **** 
1457:../STM32Cube_FW_N6/Drivers/STM32N6xx_HAL_Driver/Inc/stm32n6xx_ll_rcc.h **** /** @defgroup RCC_LL_EC_PLLSOURCE   All PLLs entry clock source
1458:../STM32Cube_FW_N6/Drivers/STM32N6xx_HAL_Driver/Inc/stm32n6xx_ll_rcc.h ****   * @{
1459:../STM32Cube_FW_N6/Drivers/STM32N6xx_HAL_Driver/Inc/stm32n6xx_ll_rcc.h ****   */
1460:../STM32Cube_FW_N6/Drivers/STM32N6xx_HAL_Driver/Inc/stm32n6xx_ll_rcc.h **** #define LL_RCC_PLLSOURCE_HSI               0U
1461:../STM32Cube_FW_N6/Drivers/STM32N6xx_HAL_Driver/Inc/stm32n6xx_ll_rcc.h **** #define LL_RCC_PLLSOURCE_MSI               RCC_PLL1CFGR1_PLL1SEL_0
1462:../STM32Cube_FW_N6/Drivers/STM32N6xx_HAL_Driver/Inc/stm32n6xx_ll_rcc.h **** #define LL_RCC_PLLSOURCE_HSE               RCC_PLL1CFGR1_PLL1SEL_1
1463:../STM32Cube_FW_N6/Drivers/STM32N6xx_HAL_Driver/Inc/stm32n6xx_ll_rcc.h **** #define LL_RCC_PLLSOURCE_I2S_CKIN          (RCC_PLL1CFGR1_PLL1SEL_1 | RCC_PLL1CFGR1_PLL1SEL_0)
1464:../STM32Cube_FW_N6/Drivers/STM32N6xx_HAL_Driver/Inc/stm32n6xx_ll_rcc.h **** /**
1465:../STM32Cube_FW_N6/Drivers/STM32N6xx_HAL_Driver/Inc/stm32n6xx_ll_rcc.h ****   * @}
1466:../STM32Cube_FW_N6/Drivers/STM32N6xx_HAL_Driver/Inc/stm32n6xx_ll_rcc.h ****   */
1467:../STM32Cube_FW_N6/Drivers/STM32N6xx_HAL_Driver/Inc/stm32n6xx_ll_rcc.h **** 
1468:../STM32Cube_FW_N6/Drivers/STM32N6xx_HAL_Driver/Inc/stm32n6xx_ll_rcc.h **** /** @defgroup RCC_LL_EC_ICSOURCE   All ICs entry clock source
1469:../STM32Cube_FW_N6/Drivers/STM32N6xx_HAL_Driver/Inc/stm32n6xx_ll_rcc.h ****   * @{
1470:../STM32Cube_FW_N6/Drivers/STM32N6xx_HAL_Driver/Inc/stm32n6xx_ll_rcc.h ****   */
1471:../STM32Cube_FW_N6/Drivers/STM32N6xx_HAL_Driver/Inc/stm32n6xx_ll_rcc.h **** #define LL_RCC_ICCLKSOURCE_PLL1               0U
1472:../STM32Cube_FW_N6/Drivers/STM32N6xx_HAL_Driver/Inc/stm32n6xx_ll_rcc.h **** #define LL_RCC_ICCLKSOURCE_PLL2               RCC_IC1CFGR_IC1SEL_0
1473:../STM32Cube_FW_N6/Drivers/STM32N6xx_HAL_Driver/Inc/stm32n6xx_ll_rcc.h **** #define LL_RCC_ICCLKSOURCE_PLL3               RCC_IC1CFGR_IC1SEL_1
1474:../STM32Cube_FW_N6/Drivers/STM32N6xx_HAL_Driver/Inc/stm32n6xx_ll_rcc.h **** #define LL_RCC_ICCLKSOURCE_PLL4               (RCC_IC1CFGR_IC1SEL_1 | RCC_IC1CFGR_IC1SEL_0)
1475:../STM32Cube_FW_N6/Drivers/STM32N6xx_HAL_Driver/Inc/stm32n6xx_ll_rcc.h **** /**
1476:../STM32Cube_FW_N6/Drivers/STM32N6xx_HAL_Driver/Inc/stm32n6xx_ll_rcc.h ****   * @}
1477:../STM32Cube_FW_N6/Drivers/STM32N6xx_HAL_Driver/Inc/stm32n6xx_ll_rcc.h ****   */
1478:../STM32Cube_FW_N6/Drivers/STM32N6xx_HAL_Driver/Inc/stm32n6xx_ll_rcc.h **** 
1479:../STM32Cube_FW_N6/Drivers/STM32N6xx_HAL_Driver/Inc/stm32n6xx_ll_rcc.h **** /**
1480:../STM32Cube_FW_N6/Drivers/STM32N6xx_HAL_Driver/Inc/stm32n6xx_ll_rcc.h ****   * @}
1481:../STM32Cube_FW_N6/Drivers/STM32N6xx_HAL_Driver/Inc/stm32n6xx_ll_rcc.h ****   */
1482:../STM32Cube_FW_N6/Drivers/STM32N6xx_HAL_Driver/Inc/stm32n6xx_ll_rcc.h **** 
1483:../STM32Cube_FW_N6/Drivers/STM32N6xx_HAL_Driver/Inc/stm32n6xx_ll_rcc.h **** /* Exported macros -----------------------------------------------------------*/
1484:../STM32Cube_FW_N6/Drivers/STM32N6xx_HAL_Driver/Inc/stm32n6xx_ll_rcc.h **** /** @defgroup RCC_LL_Exported_Macros RCC Exported Macros
1485:../STM32Cube_FW_N6/Drivers/STM32N6xx_HAL_Driver/Inc/stm32n6xx_ll_rcc.h ****   * @{
1486:../STM32Cube_FW_N6/Drivers/STM32N6xx_HAL_Driver/Inc/stm32n6xx_ll_rcc.h ****   */
1487:../STM32Cube_FW_N6/Drivers/STM32N6xx_HAL_Driver/Inc/stm32n6xx_ll_rcc.h **** 
1488:../STM32Cube_FW_N6/Drivers/STM32N6xx_HAL_Driver/Inc/stm32n6xx_ll_rcc.h **** /** @defgroup RCC_LL_EM_WRITE_READ Common Write and read registers Macros
1489:../STM32Cube_FW_N6/Drivers/STM32N6xx_HAL_Driver/Inc/stm32n6xx_ll_rcc.h ****   * @{
1490:../STM32Cube_FW_N6/Drivers/STM32N6xx_HAL_Driver/Inc/stm32n6xx_ll_rcc.h ****   */
1491:../STM32Cube_FW_N6/Drivers/STM32N6xx_HAL_Driver/Inc/stm32n6xx_ll_rcc.h **** 
1492:../STM32Cube_FW_N6/Drivers/STM32N6xx_HAL_Driver/Inc/stm32n6xx_ll_rcc.h **** /**
1493:../STM32Cube_FW_N6/Drivers/STM32N6xx_HAL_Driver/Inc/stm32n6xx_ll_rcc.h ****   * @brief  Write a value in RCC register
1494:../STM32Cube_FW_N6/Drivers/STM32N6xx_HAL_Driver/Inc/stm32n6xx_ll_rcc.h ****   * @param  __REG__ Register to be written
1495:../STM32Cube_FW_N6/Drivers/STM32N6xx_HAL_Driver/Inc/stm32n6xx_ll_rcc.h ****   * @param  __VALUE__ Value to be written in the register
1496:../STM32Cube_FW_N6/Drivers/STM32N6xx_HAL_Driver/Inc/stm32n6xx_ll_rcc.h ****   * @retval None
1497:../STM32Cube_FW_N6/Drivers/STM32N6xx_HAL_Driver/Inc/stm32n6xx_ll_rcc.h ****   */
1498:../STM32Cube_FW_N6/Drivers/STM32N6xx_HAL_Driver/Inc/stm32n6xx_ll_rcc.h **** #define LL_RCC_WriteReg(__REG__, __VALUE__) WRITE_REG(RCC->__REG__, (__VALUE__))
1499:../STM32Cube_FW_N6/Drivers/STM32N6xx_HAL_Driver/Inc/stm32n6xx_ll_rcc.h **** 
1500:../STM32Cube_FW_N6/Drivers/STM32N6xx_HAL_Driver/Inc/stm32n6xx_ll_rcc.h **** /**
1501:../STM32Cube_FW_N6/Drivers/STM32N6xx_HAL_Driver/Inc/stm32n6xx_ll_rcc.h ****   * @brief  Read a value in RCC register
1502:../STM32Cube_FW_N6/Drivers/STM32N6xx_HAL_Driver/Inc/stm32n6xx_ll_rcc.h ****   * @param  __REG__ Register to be read
1503:../STM32Cube_FW_N6/Drivers/STM32N6xx_HAL_Driver/Inc/stm32n6xx_ll_rcc.h ****   * @retval Register value
1504:../STM32Cube_FW_N6/Drivers/STM32N6xx_HAL_Driver/Inc/stm32n6xx_ll_rcc.h ****   */
1505:../STM32Cube_FW_N6/Drivers/STM32N6xx_HAL_Driver/Inc/stm32n6xx_ll_rcc.h **** #define LL_RCC_ReadReg(__REG__) READ_REG(RCC->__REG__)
1506:../STM32Cube_FW_N6/Drivers/STM32N6xx_HAL_Driver/Inc/stm32n6xx_ll_rcc.h **** /**
ARM GAS  /tmp/ccjTyagi.s 			page 35


1507:../STM32Cube_FW_N6/Drivers/STM32N6xx_HAL_Driver/Inc/stm32n6xx_ll_rcc.h ****   * @}
1508:../STM32Cube_FW_N6/Drivers/STM32N6xx_HAL_Driver/Inc/stm32n6xx_ll_rcc.h ****   */
1509:../STM32Cube_FW_N6/Drivers/STM32N6xx_HAL_Driver/Inc/stm32n6xx_ll_rcc.h **** 
1510:../STM32Cube_FW_N6/Drivers/STM32N6xx_HAL_Driver/Inc/stm32n6xx_ll_rcc.h **** /** @defgroup RCC_LL_EM_CALC_FREQ Calculate frequencies
1511:../STM32Cube_FW_N6/Drivers/STM32N6xx_HAL_Driver/Inc/stm32n6xx_ll_rcc.h ****   * @{
1512:../STM32Cube_FW_N6/Drivers/STM32N6xx_HAL_Driver/Inc/stm32n6xx_ll_rcc.h ****   */
1513:../STM32Cube_FW_N6/Drivers/STM32N6xx_HAL_Driver/Inc/stm32n6xx_ll_rcc.h **** 
1514:../STM32Cube_FW_N6/Drivers/STM32N6xx_HAL_Driver/Inc/stm32n6xx_ll_rcc.h **** /**
1515:../STM32Cube_FW_N6/Drivers/STM32N6xx_HAL_Driver/Inc/stm32n6xx_ll_rcc.h ****   * @brief  Helper macro to calculate the HCLK frequency
1516:../STM32Cube_FW_N6/Drivers/STM32N6xx_HAL_Driver/Inc/stm32n6xx_ll_rcc.h ****   * @param  __SYSCLKFREQ__ SYSCLK frequency.
1517:../STM32Cube_FW_N6/Drivers/STM32N6xx_HAL_Driver/Inc/stm32n6xx_ll_rcc.h ****   * @param  __HPRESCALER__ This parameter can be one of the following values:
1518:../STM32Cube_FW_N6/Drivers/STM32N6xx_HAL_Driver/Inc/stm32n6xx_ll_rcc.h ****   *         @arg @ref LL_RCC_AHB_DIV_1
1519:../STM32Cube_FW_N6/Drivers/STM32N6xx_HAL_Driver/Inc/stm32n6xx_ll_rcc.h ****   *         @arg @ref LL_RCC_AHB_DIV_2
1520:../STM32Cube_FW_N6/Drivers/STM32N6xx_HAL_Driver/Inc/stm32n6xx_ll_rcc.h ****   *         @arg @ref LL_RCC_AHB_DIV_4
1521:../STM32Cube_FW_N6/Drivers/STM32N6xx_HAL_Driver/Inc/stm32n6xx_ll_rcc.h ****   *         @arg @ref LL_RCC_AHB_DIV_8
1522:../STM32Cube_FW_N6/Drivers/STM32N6xx_HAL_Driver/Inc/stm32n6xx_ll_rcc.h ****   *         @arg @ref LL_RCC_AHB_DIV_16
1523:../STM32Cube_FW_N6/Drivers/STM32N6xx_HAL_Driver/Inc/stm32n6xx_ll_rcc.h ****   *         @arg @ref LL_RCC_AHB_DIV_32
1524:../STM32Cube_FW_N6/Drivers/STM32N6xx_HAL_Driver/Inc/stm32n6xx_ll_rcc.h ****   *         @arg @ref LL_RCC_AHB_DIV_64
1525:../STM32Cube_FW_N6/Drivers/STM32N6xx_HAL_Driver/Inc/stm32n6xx_ll_rcc.h ****   *         @arg @ref LL_RCC_AHB_DIV_128
1526:../STM32Cube_FW_N6/Drivers/STM32N6xx_HAL_Driver/Inc/stm32n6xx_ll_rcc.h ****   * @retval HCLK clock frequency (in Hz)
1527:../STM32Cube_FW_N6/Drivers/STM32N6xx_HAL_Driver/Inc/stm32n6xx_ll_rcc.h ****   */
1528:../STM32Cube_FW_N6/Drivers/STM32N6xx_HAL_Driver/Inc/stm32n6xx_ll_rcc.h **** #define LL_RCC_CALC_HCLK_FREQ(__SYSCLKFREQ__, __HPRESCALER__) ((__SYSCLKFREQ__) >> (((__HPRESCALER_
1529:../STM32Cube_FW_N6/Drivers/STM32N6xx_HAL_Driver/Inc/stm32n6xx_ll_rcc.h ****                                                                RCC_CFGR2_HPRE) >> RCC_CFGR2_HPRE_Po
1530:../STM32Cube_FW_N6/Drivers/STM32N6xx_HAL_Driver/Inc/stm32n6xx_ll_rcc.h **** 
1531:../STM32Cube_FW_N6/Drivers/STM32N6xx_HAL_Driver/Inc/stm32n6xx_ll_rcc.h **** /**
1532:../STM32Cube_FW_N6/Drivers/STM32N6xx_HAL_Driver/Inc/stm32n6xx_ll_rcc.h ****   * @brief  Helper macro to calculate the PCLK1 frequency (ABP1)
1533:../STM32Cube_FW_N6/Drivers/STM32N6xx_HAL_Driver/Inc/stm32n6xx_ll_rcc.h ****   * @param  __HCLKFREQ__ HCLK frequency
1534:../STM32Cube_FW_N6/Drivers/STM32N6xx_HAL_Driver/Inc/stm32n6xx_ll_rcc.h ****   * @param  __APB1PRESCALER__ This parameter can be one of the following values:
1535:../STM32Cube_FW_N6/Drivers/STM32N6xx_HAL_Driver/Inc/stm32n6xx_ll_rcc.h ****   *         @arg @ref LL_RCC_APB1_DIV_1
1536:../STM32Cube_FW_N6/Drivers/STM32N6xx_HAL_Driver/Inc/stm32n6xx_ll_rcc.h ****   *         @arg @ref LL_RCC_APB1_DIV_2
1537:../STM32Cube_FW_N6/Drivers/STM32N6xx_HAL_Driver/Inc/stm32n6xx_ll_rcc.h ****   *         @arg @ref LL_RCC_APB1_DIV_4
1538:../STM32Cube_FW_N6/Drivers/STM32N6xx_HAL_Driver/Inc/stm32n6xx_ll_rcc.h ****   *         @arg @ref LL_RCC_APB1_DIV_8
1539:../STM32Cube_FW_N6/Drivers/STM32N6xx_HAL_Driver/Inc/stm32n6xx_ll_rcc.h ****   *         @arg @ref LL_RCC_APB1_DIV_16
1540:../STM32Cube_FW_N6/Drivers/STM32N6xx_HAL_Driver/Inc/stm32n6xx_ll_rcc.h ****   *         @arg @ref LL_RCC_APB1_DIV_32
1541:../STM32Cube_FW_N6/Drivers/STM32N6xx_HAL_Driver/Inc/stm32n6xx_ll_rcc.h ****   *         @arg @ref LL_RCC_APB1_DIV_64
1542:../STM32Cube_FW_N6/Drivers/STM32N6xx_HAL_Driver/Inc/stm32n6xx_ll_rcc.h ****   *         @arg @ref LL_RCC_APB1_DIV_128
1543:../STM32Cube_FW_N6/Drivers/STM32N6xx_HAL_Driver/Inc/stm32n6xx_ll_rcc.h ****   * @retval PCLK1 clock frequency (in Hz)
1544:../STM32Cube_FW_N6/Drivers/STM32N6xx_HAL_Driver/Inc/stm32n6xx_ll_rcc.h ****   */
1545:../STM32Cube_FW_N6/Drivers/STM32N6xx_HAL_Driver/Inc/stm32n6xx_ll_rcc.h **** #define LL_RCC_CALC_PCLK1_FREQ(__HCLKFREQ__, __APB1PRESCALER__) ((__HCLKFREQ__) >> (((__APB1PRESCAL
1546:../STM32Cube_FW_N6/Drivers/STM32N6xx_HAL_Driver/Inc/stm32n6xx_ll_rcc.h ****                                                                  RCC_CFGR2_PPRE1) >> RCC_CFGR2_PPRE
1547:../STM32Cube_FW_N6/Drivers/STM32N6xx_HAL_Driver/Inc/stm32n6xx_ll_rcc.h **** 
1548:../STM32Cube_FW_N6/Drivers/STM32N6xx_HAL_Driver/Inc/stm32n6xx_ll_rcc.h **** /**
1549:../STM32Cube_FW_N6/Drivers/STM32N6xx_HAL_Driver/Inc/stm32n6xx_ll_rcc.h ****   * @brief  Helper macro to calculate the PCLK2 frequency (ABP2)
1550:../STM32Cube_FW_N6/Drivers/STM32N6xx_HAL_Driver/Inc/stm32n6xx_ll_rcc.h ****   * @param  __HCLKFREQ__ HCLK frequency
1551:../STM32Cube_FW_N6/Drivers/STM32N6xx_HAL_Driver/Inc/stm32n6xx_ll_rcc.h ****   * @param  __APB2PRESCALER__ This parameter can be one of the following values:
1552:../STM32Cube_FW_N6/Drivers/STM32N6xx_HAL_Driver/Inc/stm32n6xx_ll_rcc.h ****   *         @arg @ref LL_RCC_APB2_DIV_1
1553:../STM32Cube_FW_N6/Drivers/STM32N6xx_HAL_Driver/Inc/stm32n6xx_ll_rcc.h ****   *         @arg @ref LL_RCC_APB2_DIV_2
1554:../STM32Cube_FW_N6/Drivers/STM32N6xx_HAL_Driver/Inc/stm32n6xx_ll_rcc.h ****   *         @arg @ref LL_RCC_APB2_DIV_4
1555:../STM32Cube_FW_N6/Drivers/STM32N6xx_HAL_Driver/Inc/stm32n6xx_ll_rcc.h ****   *         @arg @ref LL_RCC_APB2_DIV_8
1556:../STM32Cube_FW_N6/Drivers/STM32N6xx_HAL_Driver/Inc/stm32n6xx_ll_rcc.h ****   *         @arg @ref LL_RCC_APB2_DIV_16
1557:../STM32Cube_FW_N6/Drivers/STM32N6xx_HAL_Driver/Inc/stm32n6xx_ll_rcc.h ****   *         @arg @ref LL_RCC_APB2_DIV_32
1558:../STM32Cube_FW_N6/Drivers/STM32N6xx_HAL_Driver/Inc/stm32n6xx_ll_rcc.h ****   *         @arg @ref LL_RCC_APB2_DIV_64
1559:../STM32Cube_FW_N6/Drivers/STM32N6xx_HAL_Driver/Inc/stm32n6xx_ll_rcc.h ****   *         @arg @ref LL_RCC_APB2_DIV_128
1560:../STM32Cube_FW_N6/Drivers/STM32N6xx_HAL_Driver/Inc/stm32n6xx_ll_rcc.h ****   * @retval PCLK2 clock frequency (in Hz)
1561:../STM32Cube_FW_N6/Drivers/STM32N6xx_HAL_Driver/Inc/stm32n6xx_ll_rcc.h ****   */
1562:../STM32Cube_FW_N6/Drivers/STM32N6xx_HAL_Driver/Inc/stm32n6xx_ll_rcc.h **** #define LL_RCC_CALC_PCLK2_FREQ(__HCLKFREQ__, __APB2PRESCALER__) ((__HCLKFREQ__) >> (((__APB2PRESCAL
1563:../STM32Cube_FW_N6/Drivers/STM32N6xx_HAL_Driver/Inc/stm32n6xx_ll_rcc.h ****                                                                  RCC_CFGR2_PPRE2) >> RCC_CFGR2_PPRE
ARM GAS  /tmp/ccjTyagi.s 			page 36


1564:../STM32Cube_FW_N6/Drivers/STM32N6xx_HAL_Driver/Inc/stm32n6xx_ll_rcc.h **** 
1565:../STM32Cube_FW_N6/Drivers/STM32N6xx_HAL_Driver/Inc/stm32n6xx_ll_rcc.h **** /**
1566:../STM32Cube_FW_N6/Drivers/STM32N6xx_HAL_Driver/Inc/stm32n6xx_ll_rcc.h ****   * @brief  Helper macro to calculate the PCLK4 frequency (ABP4)
1567:../STM32Cube_FW_N6/Drivers/STM32N6xx_HAL_Driver/Inc/stm32n6xx_ll_rcc.h ****   * @param  __HCLKFREQ__ HCLK frequency
1568:../STM32Cube_FW_N6/Drivers/STM32N6xx_HAL_Driver/Inc/stm32n6xx_ll_rcc.h ****   * @param  __APB4PRESCALER__ This parameter can be one of the following values:
1569:../STM32Cube_FW_N6/Drivers/STM32N6xx_HAL_Driver/Inc/stm32n6xx_ll_rcc.h ****   *         @arg @ref LL_RCC_APB4_DIV_1
1570:../STM32Cube_FW_N6/Drivers/STM32N6xx_HAL_Driver/Inc/stm32n6xx_ll_rcc.h ****   *         @arg @ref LL_RCC_APB4_DIV_2
1571:../STM32Cube_FW_N6/Drivers/STM32N6xx_HAL_Driver/Inc/stm32n6xx_ll_rcc.h ****   *         @arg @ref LL_RCC_APB4_DIV_4
1572:../STM32Cube_FW_N6/Drivers/STM32N6xx_HAL_Driver/Inc/stm32n6xx_ll_rcc.h ****   *         @arg @ref LL_RCC_APB4_DIV_8
1573:../STM32Cube_FW_N6/Drivers/STM32N6xx_HAL_Driver/Inc/stm32n6xx_ll_rcc.h ****   *         @arg @ref LL_RCC_APB4_DIV_16
1574:../STM32Cube_FW_N6/Drivers/STM32N6xx_HAL_Driver/Inc/stm32n6xx_ll_rcc.h ****   *         @arg @ref LL_RCC_APB4_DIV_32
1575:../STM32Cube_FW_N6/Drivers/STM32N6xx_HAL_Driver/Inc/stm32n6xx_ll_rcc.h ****   *         @arg @ref LL_RCC_APB4_DIV_64
1576:../STM32Cube_FW_N6/Drivers/STM32N6xx_HAL_Driver/Inc/stm32n6xx_ll_rcc.h ****   *         @arg @ref LL_RCC_APB4_DIV_128
1577:../STM32Cube_FW_N6/Drivers/STM32N6xx_HAL_Driver/Inc/stm32n6xx_ll_rcc.h ****   * @retval PCLK1 clock frequency (in Hz)
1578:../STM32Cube_FW_N6/Drivers/STM32N6xx_HAL_Driver/Inc/stm32n6xx_ll_rcc.h ****   */
1579:../STM32Cube_FW_N6/Drivers/STM32N6xx_HAL_Driver/Inc/stm32n6xx_ll_rcc.h **** #define LL_RCC_CALC_PCLK4_FREQ(__HCLKFREQ__, __APB4PRESCALER__) ((__HCLKFREQ__) >> (((__APB4PRESCAL
1580:../STM32Cube_FW_N6/Drivers/STM32N6xx_HAL_Driver/Inc/stm32n6xx_ll_rcc.h ****                                                                  RCC_CFGR2_PPRE4) >> RCC_CFGR2_PPRE
1581:../STM32Cube_FW_N6/Drivers/STM32N6xx_HAL_Driver/Inc/stm32n6xx_ll_rcc.h **** 
1582:../STM32Cube_FW_N6/Drivers/STM32N6xx_HAL_Driver/Inc/stm32n6xx_ll_rcc.h **** /**
1583:../STM32Cube_FW_N6/Drivers/STM32N6xx_HAL_Driver/Inc/stm32n6xx_ll_rcc.h ****   * @brief  Helper macro to calculate the PCLK5 frequency (APB5)
1584:../STM32Cube_FW_N6/Drivers/STM32N6xx_HAL_Driver/Inc/stm32n6xx_ll_rcc.h ****   * @param  __HCLKFREQ__ HCLK frequency
1585:../STM32Cube_FW_N6/Drivers/STM32N6xx_HAL_Driver/Inc/stm32n6xx_ll_rcc.h ****   * @param  __APB5PRESCALER__ This parameter can be one of the following values:
1586:../STM32Cube_FW_N6/Drivers/STM32N6xx_HAL_Driver/Inc/stm32n6xx_ll_rcc.h ****   *         @arg @ref LL_RCC_APB5_DIV_1
1587:../STM32Cube_FW_N6/Drivers/STM32N6xx_HAL_Driver/Inc/stm32n6xx_ll_rcc.h ****   *         @arg @ref LL_RCC_APB5_DIV_2
1588:../STM32Cube_FW_N6/Drivers/STM32N6xx_HAL_Driver/Inc/stm32n6xx_ll_rcc.h ****   *         @arg @ref LL_RCC_APB5_DIV_4
1589:../STM32Cube_FW_N6/Drivers/STM32N6xx_HAL_Driver/Inc/stm32n6xx_ll_rcc.h ****   *         @arg @ref LL_RCC_APB5_DIV_8
1590:../STM32Cube_FW_N6/Drivers/STM32N6xx_HAL_Driver/Inc/stm32n6xx_ll_rcc.h ****   *         @arg @ref LL_RCC_APB5_DIV_16
1591:../STM32Cube_FW_N6/Drivers/STM32N6xx_HAL_Driver/Inc/stm32n6xx_ll_rcc.h ****   *         @arg @ref LL_RCC_APB5_DIV_32
1592:../STM32Cube_FW_N6/Drivers/STM32N6xx_HAL_Driver/Inc/stm32n6xx_ll_rcc.h ****   *         @arg @ref LL_RCC_APB5_DIV_64
1593:../STM32Cube_FW_N6/Drivers/STM32N6xx_HAL_Driver/Inc/stm32n6xx_ll_rcc.h ****   *         @arg @ref LL_RCC_APB5_DIV_128
1594:../STM32Cube_FW_N6/Drivers/STM32N6xx_HAL_Driver/Inc/stm32n6xx_ll_rcc.h ****   * @retval PCLK1 clock frequency (in Hz)
1595:../STM32Cube_FW_N6/Drivers/STM32N6xx_HAL_Driver/Inc/stm32n6xx_ll_rcc.h ****   */
1596:../STM32Cube_FW_N6/Drivers/STM32N6xx_HAL_Driver/Inc/stm32n6xx_ll_rcc.h **** #define LL_RCC_CALC_PCLK5_FREQ(__HCLKFREQ__, __APB5PRESCALER__) ((__HCLKFREQ__) >> (((__APB5PRESCAL
1597:../STM32Cube_FW_N6/Drivers/STM32N6xx_HAL_Driver/Inc/stm32n6xx_ll_rcc.h ****                                                                  RCC_CFGR2_PPRE5) >> RCC_CFGR2_PPRE
1598:../STM32Cube_FW_N6/Drivers/STM32N6xx_HAL_Driver/Inc/stm32n6xx_ll_rcc.h **** 
1599:../STM32Cube_FW_N6/Drivers/STM32N6xx_HAL_Driver/Inc/stm32n6xx_ll_rcc.h **** /**
1600:../STM32Cube_FW_N6/Drivers/STM32N6xx_HAL_Driver/Inc/stm32n6xx_ll_rcc.h ****   * @brief  Helper macro to calculate the TIMG frequency (timer group1 and group2)
1601:../STM32Cube_FW_N6/Drivers/STM32N6xx_HAL_Driver/Inc/stm32n6xx_ll_rcc.h ****   * @param  __SYSCLKFREQ__ SYSCLK frequency.
1602:../STM32Cube_FW_N6/Drivers/STM32N6xx_HAL_Driver/Inc/stm32n6xx_ll_rcc.h ****   * @param  __TIMPRESCALER__ This parameter can be one of the following values:
1603:../STM32Cube_FW_N6/Drivers/STM32N6xx_HAL_Driver/Inc/stm32n6xx_ll_rcc.h ****   *         @arg @ref LL_RCC_TIM_PRESCALER_1
1604:../STM32Cube_FW_N6/Drivers/STM32N6xx_HAL_Driver/Inc/stm32n6xx_ll_rcc.h ****   *         @arg @ref LL_RCC_TIM_PRESCALER_2
1605:../STM32Cube_FW_N6/Drivers/STM32N6xx_HAL_Driver/Inc/stm32n6xx_ll_rcc.h ****   *         @arg @ref LL_RCC_TIM_PRESCALER_4
1606:../STM32Cube_FW_N6/Drivers/STM32N6xx_HAL_Driver/Inc/stm32n6xx_ll_rcc.h ****   *         @arg @ref LL_RCC_TIM_PRESCALER_8
1607:../STM32Cube_FW_N6/Drivers/STM32N6xx_HAL_Driver/Inc/stm32n6xx_ll_rcc.h ****   * @retval TIMG clock frequency (in Hz)
1608:../STM32Cube_FW_N6/Drivers/STM32N6xx_HAL_Driver/Inc/stm32n6xx_ll_rcc.h ****   */
1609:../STM32Cube_FW_N6/Drivers/STM32N6xx_HAL_Driver/Inc/stm32n6xx_ll_rcc.h **** #define LL_RCC_CALC_TIMG_FREQ(__SYSCLKFREQ__, __TIMPRESCALER__) ((__SYSCLKFREQ__) >> (__TIMPRESCALE
1610:../STM32Cube_FW_N6/Drivers/STM32N6xx_HAL_Driver/Inc/stm32n6xx_ll_rcc.h **** 
1611:../STM32Cube_FW_N6/Drivers/STM32N6xx_HAL_Driver/Inc/stm32n6xx_ll_rcc.h **** /**
1612:../STM32Cube_FW_N6/Drivers/STM32N6xx_HAL_Driver/Inc/stm32n6xx_ll_rcc.h ****   * @}
1613:../STM32Cube_FW_N6/Drivers/STM32N6xx_HAL_Driver/Inc/stm32n6xx_ll_rcc.h ****   */
1614:../STM32Cube_FW_N6/Drivers/STM32N6xx_HAL_Driver/Inc/stm32n6xx_ll_rcc.h **** 
1615:../STM32Cube_FW_N6/Drivers/STM32N6xx_HAL_Driver/Inc/stm32n6xx_ll_rcc.h **** /** @defgroup RCC_LL_EC_PERIPH_FREQUENCY Peripheral clock frequency
1616:../STM32Cube_FW_N6/Drivers/STM32N6xx_HAL_Driver/Inc/stm32n6xx_ll_rcc.h ****   * @{
1617:../STM32Cube_FW_N6/Drivers/STM32N6xx_HAL_Driver/Inc/stm32n6xx_ll_rcc.h ****   */
1618:../STM32Cube_FW_N6/Drivers/STM32N6xx_HAL_Driver/Inc/stm32n6xx_ll_rcc.h **** #define LL_RCC_PERIPH_FREQUENCY_NO         0U                 /*!< No clock enabled for the periphe
1619:../STM32Cube_FW_N6/Drivers/STM32N6xx_HAL_Driver/Inc/stm32n6xx_ll_rcc.h **** #define LL_RCC_PERIPH_FREQUENCY_NA         0xFFFFFFFFUL       /*!< Frequency cannot be provided as 
1620:../STM32Cube_FW_N6/Drivers/STM32N6xx_HAL_Driver/Inc/stm32n6xx_ll_rcc.h **** /**
ARM GAS  /tmp/ccjTyagi.s 			page 37


1621:../STM32Cube_FW_N6/Drivers/STM32N6xx_HAL_Driver/Inc/stm32n6xx_ll_rcc.h ****   * @}
1622:../STM32Cube_FW_N6/Drivers/STM32N6xx_HAL_Driver/Inc/stm32n6xx_ll_rcc.h ****   */
1623:../STM32Cube_FW_N6/Drivers/STM32N6xx_HAL_Driver/Inc/stm32n6xx_ll_rcc.h **** 
1624:../STM32Cube_FW_N6/Drivers/STM32N6xx_HAL_Driver/Inc/stm32n6xx_ll_rcc.h **** /**
1625:../STM32Cube_FW_N6/Drivers/STM32N6xx_HAL_Driver/Inc/stm32n6xx_ll_rcc.h ****   * @}
1626:../STM32Cube_FW_N6/Drivers/STM32N6xx_HAL_Driver/Inc/stm32n6xx_ll_rcc.h ****   */
1627:../STM32Cube_FW_N6/Drivers/STM32N6xx_HAL_Driver/Inc/stm32n6xx_ll_rcc.h **** 
1628:../STM32Cube_FW_N6/Drivers/STM32N6xx_HAL_Driver/Inc/stm32n6xx_ll_rcc.h **** /* Exported functions --------------------------------------------------------*/
1629:../STM32Cube_FW_N6/Drivers/STM32N6xx_HAL_Driver/Inc/stm32n6xx_ll_rcc.h **** /** @defgroup RCC_LL_Exported_Functions RCC Exported Functions
1630:../STM32Cube_FW_N6/Drivers/STM32N6xx_HAL_Driver/Inc/stm32n6xx_ll_rcc.h ****   * @{
1631:../STM32Cube_FW_N6/Drivers/STM32N6xx_HAL_Driver/Inc/stm32n6xx_ll_rcc.h ****   */
1632:../STM32Cube_FW_N6/Drivers/STM32N6xx_HAL_Driver/Inc/stm32n6xx_ll_rcc.h **** 
1633:../STM32Cube_FW_N6/Drivers/STM32N6xx_HAL_Driver/Inc/stm32n6xx_ll_rcc.h **** /** @defgroup RCC_LL_EF_HSE HSE
1634:../STM32Cube_FW_N6/Drivers/STM32N6xx_HAL_Driver/Inc/stm32n6xx_ll_rcc.h ****   * @{
1635:../STM32Cube_FW_N6/Drivers/STM32N6xx_HAL_Driver/Inc/stm32n6xx_ll_rcc.h ****   */
1636:../STM32Cube_FW_N6/Drivers/STM32N6xx_HAL_Driver/Inc/stm32n6xx_ll_rcc.h **** 
1637:../STM32Cube_FW_N6/Drivers/STM32N6xx_HAL_Driver/Inc/stm32n6xx_ll_rcc.h **** /**
1638:../STM32Cube_FW_N6/Drivers/STM32N6xx_HAL_Driver/Inc/stm32n6xx_ll_rcc.h ****   * @brief  Enable the HSE Clock Security System.
1639:../STM32Cube_FW_N6/Drivers/STM32N6xx_HAL_Driver/Inc/stm32n6xx_ll_rcc.h ****   * @note Once HSE Clock Security System is enabled it cannot be changed anymore unless
1640:../STM32Cube_FW_N6/Drivers/STM32N6xx_HAL_Driver/Inc/stm32n6xx_ll_rcc.h ****   *       a reset occurs or system enter in standby mode.
1641:../STM32Cube_FW_N6/Drivers/STM32N6xx_HAL_Driver/Inc/stm32n6xx_ll_rcc.h ****   * @rmtoll HSECFGR      HSECSSON         LL_RCC_HSE_EnableCSS
1642:../STM32Cube_FW_N6/Drivers/STM32N6xx_HAL_Driver/Inc/stm32n6xx_ll_rcc.h ****   * @retval None
1643:../STM32Cube_FW_N6/Drivers/STM32N6xx_HAL_Driver/Inc/stm32n6xx_ll_rcc.h ****   */
1644:../STM32Cube_FW_N6/Drivers/STM32N6xx_HAL_Driver/Inc/stm32n6xx_ll_rcc.h **** __STATIC_INLINE void LL_RCC_HSE_EnableCSS(void)
1645:../STM32Cube_FW_N6/Drivers/STM32N6xx_HAL_Driver/Inc/stm32n6xx_ll_rcc.h **** {
1646:../STM32Cube_FW_N6/Drivers/STM32N6xx_HAL_Driver/Inc/stm32n6xx_ll_rcc.h ****   SET_BIT(RCC->HSECFGR, RCC_HSECFGR_HSECSSON);
1647:../STM32Cube_FW_N6/Drivers/STM32N6xx_HAL_Driver/Inc/stm32n6xx_ll_rcc.h **** }
1648:../STM32Cube_FW_N6/Drivers/STM32N6xx_HAL_Driver/Inc/stm32n6xx_ll_rcc.h **** 
1649:../STM32Cube_FW_N6/Drivers/STM32N6xx_HAL_Driver/Inc/stm32n6xx_ll_rcc.h **** /**
1650:../STM32Cube_FW_N6/Drivers/STM32N6xx_HAL_Driver/Inc/stm32n6xx_ll_rcc.h ****   * @brief  Check if HSE failure is detected by Clock Security System
1651:../STM32Cube_FW_N6/Drivers/STM32N6xx_HAL_Driver/Inc/stm32n6xx_ll_rcc.h ****   * @rmtoll HSECFGR      HSECSSD       LL_RCC_HSE_IsFailureDetected
1652:../STM32Cube_FW_N6/Drivers/STM32N6xx_HAL_Driver/Inc/stm32n6xx_ll_rcc.h ****   * @retval State of bit (1 or 0).
1653:../STM32Cube_FW_N6/Drivers/STM32N6xx_HAL_Driver/Inc/stm32n6xx_ll_rcc.h ****   */
1654:../STM32Cube_FW_N6/Drivers/STM32N6xx_HAL_Driver/Inc/stm32n6xx_ll_rcc.h **** __STATIC_INLINE uint32_t LL_RCC_HSE_IsFailureDetected(void)
1655:../STM32Cube_FW_N6/Drivers/STM32N6xx_HAL_Driver/Inc/stm32n6xx_ll_rcc.h **** {
1656:../STM32Cube_FW_N6/Drivers/STM32N6xx_HAL_Driver/Inc/stm32n6xx_ll_rcc.h ****   return ((READ_BIT(RCC->HSECFGR, RCC_HSECFGR_HSECSSD) != 0UL) ? 1UL : 0UL);
1657:../STM32Cube_FW_N6/Drivers/STM32N6xx_HAL_Driver/Inc/stm32n6xx_ll_rcc.h **** }
1658:../STM32Cube_FW_N6/Drivers/STM32N6xx_HAL_Driver/Inc/stm32n6xx_ll_rcc.h **** 
1659:../STM32Cube_FW_N6/Drivers/STM32N6xx_HAL_Driver/Inc/stm32n6xx_ll_rcc.h **** /**
1660:../STM32Cube_FW_N6/Drivers/STM32N6xx_HAL_Driver/Inc/stm32n6xx_ll_rcc.h ****   * @brief  Enable the HSE Clock Security System bypass.
1661:../STM32Cube_FW_N6/Drivers/STM32N6xx_HAL_Driver/Inc/stm32n6xx_ll_rcc.h ****   * @note Bypass the HSE oscillator when a failure is detected and get the clock from
1662:../STM32Cube_FW_N6/Drivers/STM32N6xx_HAL_Driver/Inc/stm32n6xx_ll_rcc.h ****   *       the HSI oscillator (HSI injection)
1663:../STM32Cube_FW_N6/Drivers/STM32N6xx_HAL_Driver/Inc/stm32n6xx_ll_rcc.h ****   * @rmtoll HSECFGR      HSECSSBYP     LL_RCC_HSE_EnableCSSBypass
1664:../STM32Cube_FW_N6/Drivers/STM32N6xx_HAL_Driver/Inc/stm32n6xx_ll_rcc.h ****   * @retval None
1665:../STM32Cube_FW_N6/Drivers/STM32N6xx_HAL_Driver/Inc/stm32n6xx_ll_rcc.h ****   */
1666:../STM32Cube_FW_N6/Drivers/STM32N6xx_HAL_Driver/Inc/stm32n6xx_ll_rcc.h **** __STATIC_INLINE void LL_RCC_HSE_EnableCSSBypass(void)
1667:../STM32Cube_FW_N6/Drivers/STM32N6xx_HAL_Driver/Inc/stm32n6xx_ll_rcc.h **** {
1668:../STM32Cube_FW_N6/Drivers/STM32N6xx_HAL_Driver/Inc/stm32n6xx_ll_rcc.h ****   SET_BIT(RCC->HSECFGR, RCC_HSECFGR_HSECSSBYP);
1669:../STM32Cube_FW_N6/Drivers/STM32N6xx_HAL_Driver/Inc/stm32n6xx_ll_rcc.h **** }
1670:../STM32Cube_FW_N6/Drivers/STM32N6xx_HAL_Driver/Inc/stm32n6xx_ll_rcc.h **** 
1671:../STM32Cube_FW_N6/Drivers/STM32N6xx_HAL_Driver/Inc/stm32n6xx_ll_rcc.h **** /**
1672:../STM32Cube_FW_N6/Drivers/STM32N6xx_HAL_Driver/Inc/stm32n6xx_ll_rcc.h ****   * @brief  Disable the HSE Clock Security System bypass.
1673:../STM32Cube_FW_N6/Drivers/STM32N6xx_HAL_Driver/Inc/stm32n6xx_ll_rcc.h ****   * @rmtoll HSECFGR      HSECSSBYP     LL_RCC_HSE_DisableCSSBypass
1674:../STM32Cube_FW_N6/Drivers/STM32N6xx_HAL_Driver/Inc/stm32n6xx_ll_rcc.h ****   * @retval None
1675:../STM32Cube_FW_N6/Drivers/STM32N6xx_HAL_Driver/Inc/stm32n6xx_ll_rcc.h ****   */
1676:../STM32Cube_FW_N6/Drivers/STM32N6xx_HAL_Driver/Inc/stm32n6xx_ll_rcc.h **** __STATIC_INLINE void LL_RCC_HSE_DisableCSSBypass(void)
1677:../STM32Cube_FW_N6/Drivers/STM32N6xx_HAL_Driver/Inc/stm32n6xx_ll_rcc.h **** {
ARM GAS  /tmp/ccjTyagi.s 			page 38


1678:../STM32Cube_FW_N6/Drivers/STM32N6xx_HAL_Driver/Inc/stm32n6xx_ll_rcc.h ****   CLEAR_BIT(RCC->HSECFGR, RCC_HSECFGR_HSECSSBYP);
1679:../STM32Cube_FW_N6/Drivers/STM32N6xx_HAL_Driver/Inc/stm32n6xx_ll_rcc.h **** }
1680:../STM32Cube_FW_N6/Drivers/STM32N6xx_HAL_Driver/Inc/stm32n6xx_ll_rcc.h **** 
1681:../STM32Cube_FW_N6/Drivers/STM32N6xx_HAL_Driver/Inc/stm32n6xx_ll_rcc.h **** /**
1682:../STM32Cube_FW_N6/Drivers/STM32N6xx_HAL_Driver/Inc/stm32n6xx_ll_rcc.h ****   * @brief  Set HSE Clock Security System bypass divider
1683:../STM32Cube_FW_N6/Drivers/STM32N6xx_HAL_Driver/Inc/stm32n6xx_ll_rcc.h ****   * @note   To divide the replacement internal HSI oscillator that
1684:../STM32Cube_FW_N6/Drivers/STM32N6xx_HAL_Driver/Inc/stm32n6xx_ll_rcc.h ****   *         bypasses the HSE oscillator when a failure is detected
1685:../STM32Cube_FW_N6/Drivers/STM32N6xx_HAL_Driver/Inc/stm32n6xx_ll_rcc.h ****   * @rmtoll HSECFGR      HSECSSBPRE    LL_RCC_HSE_SetCSSBypassDivider
1686:../STM32Cube_FW_N6/Drivers/STM32N6xx_HAL_Driver/Inc/stm32n6xx_ll_rcc.h ****   * @param  Divider This parameter can be a value from RCC_LL_EC_HSECSSBYP_DIV.
1687:../STM32Cube_FW_N6/Drivers/STM32N6xx_HAL_Driver/Inc/stm32n6xx_ll_rcc.h ****   * @retval None
1688:../STM32Cube_FW_N6/Drivers/STM32N6xx_HAL_Driver/Inc/stm32n6xx_ll_rcc.h ****   */
1689:../STM32Cube_FW_N6/Drivers/STM32N6xx_HAL_Driver/Inc/stm32n6xx_ll_rcc.h **** __STATIC_INLINE void LL_RCC_HSE_SetCSSBypassDivider(uint32_t Divider)
1690:../STM32Cube_FW_N6/Drivers/STM32N6xx_HAL_Driver/Inc/stm32n6xx_ll_rcc.h **** {
1691:../STM32Cube_FW_N6/Drivers/STM32N6xx_HAL_Driver/Inc/stm32n6xx_ll_rcc.h ****   MODIFY_REG(RCC->HSECFGR, RCC_HSECFGR_HSECSSBPRE, Divider);
1692:../STM32Cube_FW_N6/Drivers/STM32N6xx_HAL_Driver/Inc/stm32n6xx_ll_rcc.h **** }
1693:../STM32Cube_FW_N6/Drivers/STM32N6xx_HAL_Driver/Inc/stm32n6xx_ll_rcc.h **** 
1694:../STM32Cube_FW_N6/Drivers/STM32N6xx_HAL_Driver/Inc/stm32n6xx_ll_rcc.h **** /**
1695:../STM32Cube_FW_N6/Drivers/STM32N6xx_HAL_Driver/Inc/stm32n6xx_ll_rcc.h ****   * @brief  Get HSE Clock Security System bypass divider
1696:../STM32Cube_FW_N6/Drivers/STM32N6xx_HAL_Driver/Inc/stm32n6xx_ll_rcc.h ****   * @note   To divide the replacement internal HSI oscillator that
1697:../STM32Cube_FW_N6/Drivers/STM32N6xx_HAL_Driver/Inc/stm32n6xx_ll_rcc.h ****   *         bypasses the HSE oscillator when a failure is detected
1698:../STM32Cube_FW_N6/Drivers/STM32N6xx_HAL_Driver/Inc/stm32n6xx_ll_rcc.h ****   * @rmtoll HSECFGR      HSECSSBPRE    LL_RCC_HSE_GetCSSBypassDivider
1699:../STM32Cube_FW_N6/Drivers/STM32N6xx_HAL_Driver/Inc/stm32n6xx_ll_rcc.h ****   * @retval can be a value from RCC_LL_EC_HSECSSBYP_DIV.
1700:../STM32Cube_FW_N6/Drivers/STM32N6xx_HAL_Driver/Inc/stm32n6xx_ll_rcc.h ****   */
1701:../STM32Cube_FW_N6/Drivers/STM32N6xx_HAL_Driver/Inc/stm32n6xx_ll_rcc.h **** __STATIC_INLINE uint32_t LL_RCC_HSE_GetCSSBypassDivider(void)
1702:../STM32Cube_FW_N6/Drivers/STM32N6xx_HAL_Driver/Inc/stm32n6xx_ll_rcc.h **** {
1703:../STM32Cube_FW_N6/Drivers/STM32N6xx_HAL_Driver/Inc/stm32n6xx_ll_rcc.h ****   return (READ_BIT(RCC->HSECFGR, RCC_HSECFGR_HSECSSBPRE));
1704:../STM32Cube_FW_N6/Drivers/STM32N6xx_HAL_Driver/Inc/stm32n6xx_ll_rcc.h **** }
1705:../STM32Cube_FW_N6/Drivers/STM32N6xx_HAL_Driver/Inc/stm32n6xx_ll_rcc.h **** 
1706:../STM32Cube_FW_N6/Drivers/STM32N6xx_HAL_Driver/Inc/stm32n6xx_ll_rcc.h **** /**
1707:../STM32Cube_FW_N6/Drivers/STM32N6xx_HAL_Driver/Inc/stm32n6xx_ll_rcc.h ****   * @brief  Enable HSE external oscillator (HSE Bypass)
1708:../STM32Cube_FW_N6/Drivers/STM32N6xx_HAL_Driver/Inc/stm32n6xx_ll_rcc.h ****   * @rmtoll HSECFGR      HSEBYP        LL_RCC_HSE_EnableBypass
1709:../STM32Cube_FW_N6/Drivers/STM32N6xx_HAL_Driver/Inc/stm32n6xx_ll_rcc.h ****   * @retval None
1710:../STM32Cube_FW_N6/Drivers/STM32N6xx_HAL_Driver/Inc/stm32n6xx_ll_rcc.h ****   */
1711:../STM32Cube_FW_N6/Drivers/STM32N6xx_HAL_Driver/Inc/stm32n6xx_ll_rcc.h **** __STATIC_INLINE void LL_RCC_HSE_EnableBypass(void)
1712:../STM32Cube_FW_N6/Drivers/STM32N6xx_HAL_Driver/Inc/stm32n6xx_ll_rcc.h **** {
1713:../STM32Cube_FW_N6/Drivers/STM32N6xx_HAL_Driver/Inc/stm32n6xx_ll_rcc.h ****   SET_BIT(RCC->HSECFGR, RCC_HSECFGR_HSEBYP);
1714:../STM32Cube_FW_N6/Drivers/STM32N6xx_HAL_Driver/Inc/stm32n6xx_ll_rcc.h **** }
1715:../STM32Cube_FW_N6/Drivers/STM32N6xx_HAL_Driver/Inc/stm32n6xx_ll_rcc.h **** 
1716:../STM32Cube_FW_N6/Drivers/STM32N6xx_HAL_Driver/Inc/stm32n6xx_ll_rcc.h **** /**
1717:../STM32Cube_FW_N6/Drivers/STM32N6xx_HAL_Driver/Inc/stm32n6xx_ll_rcc.h ****   * @brief  Disable HSE external oscillator (HSE Bypass)
1718:../STM32Cube_FW_N6/Drivers/STM32N6xx_HAL_Driver/Inc/stm32n6xx_ll_rcc.h ****   * @rmtoll HSECFGR      HSEBYP        LL_RCC_HSE_DisableBypass
1719:../STM32Cube_FW_N6/Drivers/STM32N6xx_HAL_Driver/Inc/stm32n6xx_ll_rcc.h ****   * @retval None
1720:../STM32Cube_FW_N6/Drivers/STM32N6xx_HAL_Driver/Inc/stm32n6xx_ll_rcc.h ****   */
1721:../STM32Cube_FW_N6/Drivers/STM32N6xx_HAL_Driver/Inc/stm32n6xx_ll_rcc.h **** __STATIC_INLINE void LL_RCC_HSE_DisableBypass(void)
1722:../STM32Cube_FW_N6/Drivers/STM32N6xx_HAL_Driver/Inc/stm32n6xx_ll_rcc.h **** {
1723:../STM32Cube_FW_N6/Drivers/STM32N6xx_HAL_Driver/Inc/stm32n6xx_ll_rcc.h ****   CLEAR_BIT(RCC->HSECFGR, RCC_HSECFGR_HSEBYP);
1724:../STM32Cube_FW_N6/Drivers/STM32N6xx_HAL_Driver/Inc/stm32n6xx_ll_rcc.h **** }
1725:../STM32Cube_FW_N6/Drivers/STM32N6xx_HAL_Driver/Inc/stm32n6xx_ll_rcc.h **** 
1726:../STM32Cube_FW_N6/Drivers/STM32N6xx_HAL_Driver/Inc/stm32n6xx_ll_rcc.h **** /**
1727:../STM32Cube_FW_N6/Drivers/STM32N6xx_HAL_Driver/Inc/stm32n6xx_ll_rcc.h ****   * @brief  Select the Analog HSE external clock type in Bypass mode
1728:../STM32Cube_FW_N6/Drivers/STM32N6xx_HAL_Driver/Inc/stm32n6xx_ll_rcc.h ****   * @rmtoll HSECFGR      HSEEXT        LL_RCC_HSE_SelectAnalogClock
1729:../STM32Cube_FW_N6/Drivers/STM32N6xx_HAL_Driver/Inc/stm32n6xx_ll_rcc.h ****   * @retval None
1730:../STM32Cube_FW_N6/Drivers/STM32N6xx_HAL_Driver/Inc/stm32n6xx_ll_rcc.h ****   */
1731:../STM32Cube_FW_N6/Drivers/STM32N6xx_HAL_Driver/Inc/stm32n6xx_ll_rcc.h **** __STATIC_INLINE void LL_RCC_HSE_SelectAnalogClock(void)
1732:../STM32Cube_FW_N6/Drivers/STM32N6xx_HAL_Driver/Inc/stm32n6xx_ll_rcc.h **** {
1733:../STM32Cube_FW_N6/Drivers/STM32N6xx_HAL_Driver/Inc/stm32n6xx_ll_rcc.h ****   CLEAR_BIT(RCC->HSECFGR, RCC_HSECFGR_HSEEXT);
1734:../STM32Cube_FW_N6/Drivers/STM32N6xx_HAL_Driver/Inc/stm32n6xx_ll_rcc.h **** }
ARM GAS  /tmp/ccjTyagi.s 			page 39


1735:../STM32Cube_FW_N6/Drivers/STM32N6xx_HAL_Driver/Inc/stm32n6xx_ll_rcc.h **** 
1736:../STM32Cube_FW_N6/Drivers/STM32N6xx_HAL_Driver/Inc/stm32n6xx_ll_rcc.h **** /**
1737:../STM32Cube_FW_N6/Drivers/STM32N6xx_HAL_Driver/Inc/stm32n6xx_ll_rcc.h ****   * @brief  Select the Digital HSE external clock type in Bypass mode
1738:../STM32Cube_FW_N6/Drivers/STM32N6xx_HAL_Driver/Inc/stm32n6xx_ll_rcc.h ****   * @rmtoll HSECFGR      HSEEXT        LL_RCC_HSE_SelectDigitalClock
1739:../STM32Cube_FW_N6/Drivers/STM32N6xx_HAL_Driver/Inc/stm32n6xx_ll_rcc.h ****   * @retval None
1740:../STM32Cube_FW_N6/Drivers/STM32N6xx_HAL_Driver/Inc/stm32n6xx_ll_rcc.h ****   */
