ARM GAS  /tmp/ccaSrTja.s 			page 1


   1              		.arch armv8.1-m.main
   2              		.fpu fpv5-d16
   3              		.arch_extension dsp
   4              		.arch_extension fp
   5              		.arch_extension fp.dp
   6              		.arch_extension mve
   7              		.arch_extension mve.fp
   8              		.eabi_attribute 5, "cortex-m55"
   9              		.eabi_attribute 28, 1
  10              		.eabi_attribute 20, 1
  11              		.eabi_attribute 21, 1
  12              		.eabi_attribute 23, 3
  13              		.eabi_attribute 24, 1
  14              		.eabi_attribute 25, 1
  15              		.eabi_attribute 26, 1
  16              		.eabi_attribute 30, 4
  17              		.eabi_attribute 34, 1
  18              		.eabi_attribute 38, 1
  19              		.eabi_attribute 18, 4
  20              		.file	"npu_cache.c"
  21              		.text
  22              	.Ltext0:
  23              		.cfi_sections	.debug_frame
  24              		.file 1 "../Middlewares/stedgeai-lib/Npu/Devices/STM32N6xx/npu_cache.c"
  25              		.section	.text.npu_cache_enable,"ax",%progbits
  26              		.align	1
  27              		.global	npu_cache_enable
  28              		.syntax unified
  29              		.thumb
  30              		.thumb_func
  32              	npu_cache_enable:
  33              	.LFB883:
   1:../Middlewares/stedgeai-lib/Npu/Devices/STM32N6xx/npu_cache.c **** /**
   2:../Middlewares/stedgeai-lib/Npu/Devices/STM32N6xx/npu_cache.c ****   ******************************************************************************
   3:../Middlewares/stedgeai-lib/Npu/Devices/STM32N6xx/npu_cache.c ****   * @file    npu_cache.c
   4:../Middlewares/stedgeai-lib/Npu/Devices/STM32N6xx/npu_cache.c ****   * @brief   Implementation of NPU-cache-handling functions (CACHEAXI)
   5:../Middlewares/stedgeai-lib/Npu/Devices/STM32N6xx/npu_cache.c ****   ******************************************************************************
   6:../Middlewares/stedgeai-lib/Npu/Devices/STM32N6xx/npu_cache.c ****   * @attention
   7:../Middlewares/stedgeai-lib/Npu/Devices/STM32N6xx/npu_cache.c ****   *
   8:../Middlewares/stedgeai-lib/Npu/Devices/STM32N6xx/npu_cache.c ****   * Copyright (c) 2024 STMicroelectronics.
   9:../Middlewares/stedgeai-lib/Npu/Devices/STM32N6xx/npu_cache.c ****   * All rights reserved.
  10:../Middlewares/stedgeai-lib/Npu/Devices/STM32N6xx/npu_cache.c ****   *
  11:../Middlewares/stedgeai-lib/Npu/Devices/STM32N6xx/npu_cache.c ****   * This software is licensed under terms that can be found in the LICENSE file
  12:../Middlewares/stedgeai-lib/Npu/Devices/STM32N6xx/npu_cache.c ****   * in the root directory of this software component.
  13:../Middlewares/stedgeai-lib/Npu/Devices/STM32N6xx/npu_cache.c ****   * If no LICENSE file comes with this software, it is provided AS-IS.
  14:../Middlewares/stedgeai-lib/Npu/Devices/STM32N6xx/npu_cache.c ****   *
  15:../Middlewares/stedgeai-lib/Npu/Devices/STM32N6xx/npu_cache.c ****   ******************************************************************************
  16:../Middlewares/stedgeai-lib/Npu/Devices/STM32N6xx/npu_cache.c ****   */
  17:../Middlewares/stedgeai-lib/Npu/Devices/STM32N6xx/npu_cache.c **** #include <assert.h>
  18:../Middlewares/stedgeai-lib/Npu/Devices/STM32N6xx/npu_cache.c **** 
  19:../Middlewares/stedgeai-lib/Npu/Devices/STM32N6xx/npu_cache.c **** #include "npu_cache.h"
  20:../Middlewares/stedgeai-lib/Npu/Devices/STM32N6xx/npu_cache.c **** 
  21:../Middlewares/stedgeai-lib/Npu/Devices/STM32N6xx/npu_cache.c **** #define USE_HAL_DRIVER  // Define here to fix header issues, must clean projects using only stm32n6
  22:../Middlewares/stedgeai-lib/Npu/Devices/STM32N6xx/npu_cache.c **** #include "stm32n6xx.h"
  23:../Middlewares/stedgeai-lib/Npu/Devices/STM32N6xx/npu_cache.c **** 
  24:../Middlewares/stedgeai-lib/Npu/Devices/STM32N6xx/npu_cache.c **** #include "ll_aton_config.h"
  25:../Middlewares/stedgeai-lib/Npu/Devices/STM32N6xx/npu_cache.c **** 
ARM GAS  /tmp/ccaSrTja.s 			page 2


  26:../Middlewares/stedgeai-lib/Npu/Devices/STM32N6xx/npu_cache.c **** #if (LL_ATON_PLATFORM != LL_ATON_PLAT_STM32N6)
  27:../Middlewares/stedgeai-lib/Npu/Devices/STM32N6xx/npu_cache.c **** #error "LL_ATON_PLATFORM should be equal to LL_ATON_PLAT_STM32N6"
  28:../Middlewares/stedgeai-lib/Npu/Devices/STM32N6xx/npu_cache.c **** #endif
  29:../Middlewares/stedgeai-lib/Npu/Devices/STM32N6xx/npu_cache.c **** 
  30:../Middlewares/stedgeai-lib/Npu/Devices/STM32N6xx/npu_cache.c **** static CACHEAXI_HandleTypeDef hcacheaxi_s;
  31:../Middlewares/stedgeai-lib/Npu/Devices/STM32N6xx/npu_cache.c **** 
  32:../Middlewares/stedgeai-lib/Npu/Devices/STM32N6xx/npu_cache.c **** static inline void npu_cache_init(void)
  33:../Middlewares/stedgeai-lib/Npu/Devices/STM32N6xx/npu_cache.c **** {
  34:../Middlewares/stedgeai-lib/Npu/Devices/STM32N6xx/npu_cache.c ****   if(hcacheaxi_s.Instance != CACHEAXI) {
  35:../Middlewares/stedgeai-lib/Npu/Devices/STM32N6xx/npu_cache.c ****     hcacheaxi_s.Instance = CACHEAXI;
  36:../Middlewares/stedgeai-lib/Npu/Devices/STM32N6xx/npu_cache.c ****     HAL_CACHEAXI_Init(&hcacheaxi_s);      // Side effect: cacheaxi should be enabled (but one shoul
  37:../Middlewares/stedgeai-lib/Npu/Devices/STM32N6xx/npu_cache.c ****   }
  38:../Middlewares/stedgeai-lib/Npu/Devices/STM32N6xx/npu_cache.c **** }
  39:../Middlewares/stedgeai-lib/Npu/Devices/STM32N6xx/npu_cache.c **** static inline void npu_cache_deinit(void)
  40:../Middlewares/stedgeai-lib/Npu/Devices/STM32N6xx/npu_cache.c **** {
  41:../Middlewares/stedgeai-lib/Npu/Devices/STM32N6xx/npu_cache.c ****   if(hcacheaxi_s.Instance == CACHEAXI) {
  42:../Middlewares/stedgeai-lib/Npu/Devices/STM32N6xx/npu_cache.c ****     HAL_CACHEAXI_DeInit(&hcacheaxi_s);
  43:../Middlewares/stedgeai-lib/Npu/Devices/STM32N6xx/npu_cache.c ****     hcacheaxi_s.Instance = NULL;
  44:../Middlewares/stedgeai-lib/Npu/Devices/STM32N6xx/npu_cache.c ****   }
  45:../Middlewares/stedgeai-lib/Npu/Devices/STM32N6xx/npu_cache.c **** }
  46:../Middlewares/stedgeai-lib/Npu/Devices/STM32N6xx/npu_cache.c **** 
  47:../Middlewares/stedgeai-lib/Npu/Devices/STM32N6xx/npu_cache.c **** void npu_cache_enable(void)
  48:../Middlewares/stedgeai-lib/Npu/Devices/STM32N6xx/npu_cache.c **** {
  34              		.loc 1 48 1 view -0
  35              		.cfi_startproc
  36              		@ args = 0, pretend = 0, frame = 0
  37              		@ frame_needed = 0, uses_anonymous_args = 0
  49:../Middlewares/stedgeai-lib/Npu/Devices/STM32N6xx/npu_cache.c ****   HAL_StatusTypeDef status;
  38              		.loc 1 49 3 view .LVU1
  50:../Middlewares/stedgeai-lib/Npu/Devices/STM32N6xx/npu_cache.c ****   
  51:../Middlewares/stedgeai-lib/Npu/Devices/STM32N6xx/npu_cache.c ****   npu_cache_init();
  39              		.loc 1 51 3 view .LVU2
  40              	.LBB4:
  41              	.LBI4:
  32:../Middlewares/stedgeai-lib/Npu/Devices/STM32N6xx/npu_cache.c **** {
  42              		.loc 1 32 20 view .LVU3
  43              	.LBB5:
  34:../Middlewares/stedgeai-lib/Npu/Devices/STM32N6xx/npu_cache.c ****     hcacheaxi_s.Instance = CACHEAXI;
  44              		.loc 1 34 3 view .LVU4
  34:../Middlewares/stedgeai-lib/Npu/Devices/STM32N6xx/npu_cache.c ****     hcacheaxi_s.Instance = CACHEAXI;
  45              		.loc 1 34 17 is_stmt 0 view .LVU5
  46 0000 0748     		ldr	r0, .L6
  47              	.LBE5:
  48              	.LBE4:
  48:../Middlewares/stedgeai-lib/Npu/Devices/STM32N6xx/npu_cache.c ****   HAL_StatusTypeDef status;
  49              		.loc 1 48 1 view .LVU6
  50 0002 08B5     		push	{r3, lr}
  51              		.cfi_def_cfa_offset 8
  52              		.cfi_offset 3, -8
  53              		.cfi_offset 14, -4
  54              	.LBB7:
  55              	.LBB6:
  34:../Middlewares/stedgeai-lib/Npu/Devices/STM32N6xx/npu_cache.c ****     hcacheaxi_s.Instance = CACHEAXI;
  56              		.loc 1 34 5 view .LVU7
  57 0004 0268     		ldr	r2, [r0]
  58 0006 074B     		ldr	r3, .L6+4
  59 0008 9A42     		cmp	r2, r3
ARM GAS  /tmp/ccaSrTja.s 			page 3


  60 000a 02D0     		beq	.L3
  35:../Middlewares/stedgeai-lib/Npu/Devices/STM32N6xx/npu_cache.c ****     HAL_CACHEAXI_Init(&hcacheaxi_s);      // Side effect: cacheaxi should be enabled (but one shoul
  61              		.loc 1 35 5 is_stmt 1 view .LVU8
  35:../Middlewares/stedgeai-lib/Npu/Devices/STM32N6xx/npu_cache.c ****     HAL_CACHEAXI_Init(&hcacheaxi_s);      // Side effect: cacheaxi should be enabled (but one shoul
  62              		.loc 1 35 26 is_stmt 0 view .LVU9
  63 000c 0360     		str	r3, [r0]
  36:../Middlewares/stedgeai-lib/Npu/Devices/STM32N6xx/npu_cache.c ****   }
  64              		.loc 1 36 5 is_stmt 1 view .LVU10
  65 000e FFF7FEFF 		bl	HAL_CACHEAXI_Init
  66              	.LVL0:
  67              	.L3:
  68              	.LBE6:
  69              	.LBE7:
  52:../Middlewares/stedgeai-lib/Npu/Devices/STM32N6xx/npu_cache.c ****   // Enable is wrapped in a loop because most of times, the first call returns
  53:../Middlewares/stedgeai-lib/Npu/Devices/STM32N6xx/npu_cache.c ****   //    HAL_BUSY, resulting in a cache not enabled.
  54:../Middlewares/stedgeai-lib/Npu/Devices/STM32N6xx/npu_cache.c ****   do
  70              		.loc 1 54 3 view .LVU11
  55:../Middlewares/stedgeai-lib/Npu/Devices/STM32N6xx/npu_cache.c ****   {
  56:../Middlewares/stedgeai-lib/Npu/Devices/STM32N6xx/npu_cache.c ****     status = HAL_CACHEAXI_Enable(&hcacheaxi_s);
  71              		.loc 1 56 5 view .LVU12
  72              		.loc 1 56 14 is_stmt 0 view .LVU13
  73 0012 0348     		ldr	r0, .L6
  74 0014 FFF7FEFF 		bl	HAL_CACHEAXI_Enable
  75              	.LVL1:
  57:../Middlewares/stedgeai-lib/Npu/Devices/STM32N6xx/npu_cache.c ****   } while (status == HAL_BUSY);
  76              		.loc 1 57 19 is_stmt 1 discriminator 1 view .LVU14
  77 0018 0228     		cmp	r0, #2
  78 001a FAD0     		beq	.L3
  58:../Middlewares/stedgeai-lib/Npu/Devices/STM32N6xx/npu_cache.c **** }
  79              		.loc 1 58 1 is_stmt 0 view .LVU15
  80 001c 08BD     		pop	{r3, pc}
  81              	.L7:
  82 001e 00BF     		.align	2
  83              	.L6:
  84 0020 00000000 		.word	hcacheaxi_s
  85 0024 00FC0D58 		.word	1477311488
  86              		.cfi_endproc
  87              	.LFE883:
  89              		.section	.text.npu_cache_disable,"ax",%progbits
  90              		.align	1
  91              		.global	npu_cache_disable
  92              		.syntax unified
  93              		.thumb
  94              		.thumb_func
  96              	npu_cache_disable:
  97              	.LFB884:
  59:../Middlewares/stedgeai-lib/Npu/Devices/STM32N6xx/npu_cache.c **** 
  60:../Middlewares/stedgeai-lib/Npu/Devices/STM32N6xx/npu_cache.c **** void npu_cache_disable(void)
  61:../Middlewares/stedgeai-lib/Npu/Devices/STM32N6xx/npu_cache.c **** {
  98              		.loc 1 61 1 is_stmt 1 view -0
  99              		.cfi_startproc
 100              		@ args = 0, pretend = 0, frame = 0
 101              		@ frame_needed = 0, uses_anonymous_args = 0
  62:../Middlewares/stedgeai-lib/Npu/Devices/STM32N6xx/npu_cache.c ****   HAL_StatusTypeDef status;
 102              		.loc 1 62 3 view .LVU17
  63:../Middlewares/stedgeai-lib/Npu/Devices/STM32N6xx/npu_cache.c ****   if(hcacheaxi_s.Instance == CACHEAXI) {
 103              		.loc 1 63 3 view .LVU18
ARM GAS  /tmp/ccaSrTja.s 			page 4


  61:../Middlewares/stedgeai-lib/Npu/Devices/STM32N6xx/npu_cache.c ****   HAL_StatusTypeDef status;
 104              		.loc 1 61 1 is_stmt 0 view .LVU19
 105 0000 38B5     		push	{r3, r4, r5, lr}
 106              		.cfi_def_cfa_offset 16
 107              		.cfi_offset 3, -16
 108              		.cfi_offset 4, -12
 109              		.cfi_offset 5, -8
 110              		.cfi_offset 14, -4
 111              		.loc 1 63 17 view .LVU20
 112 0002 094C     		ldr	r4, .L15
 113              		.loc 1 63 5 view .LVU21
 114 0004 094D     		ldr	r5, .L15+4
 115 0006 2368     		ldr	r3, [r4]
 116 0008 AB42     		cmp	r3, r5
 117 000a 0CD1     		bne	.L8
 118              	.L9:
  64:../Middlewares/stedgeai-lib/Npu/Devices/STM32N6xx/npu_cache.c ****     do
 119              		.loc 1 64 5 is_stmt 1 view .LVU22
  65:../Middlewares/stedgeai-lib/Npu/Devices/STM32N6xx/npu_cache.c ****     {
  66:../Middlewares/stedgeai-lib/Npu/Devices/STM32N6xx/npu_cache.c ****       status = HAL_CACHEAXI_Disable(&hcacheaxi_s);
 120              		.loc 1 66 7 view .LVU23
 121              		.loc 1 66 16 is_stmt 0 view .LVU24
 122 000c 2046     		mov	r0, r4
 123 000e FFF7FEFF 		bl	HAL_CACHEAXI_Disable
 124              	.LVL2:
  67:../Middlewares/stedgeai-lib/Npu/Devices/STM32N6xx/npu_cache.c ****     } while (status == HAL_BUSY);
 125              		.loc 1 67 21 is_stmt 1 discriminator 1 view .LVU25
 126 0012 0228     		cmp	r0, #2
 127 0014 FAD0     		beq	.L9
  68:../Middlewares/stedgeai-lib/Npu/Devices/STM32N6xx/npu_cache.c ****     npu_cache_deinit();
 128              		.loc 1 68 5 view .LVU26
 129              	.LBB10:
 130              	.LBI10:
  39:../Middlewares/stedgeai-lib/Npu/Devices/STM32N6xx/npu_cache.c **** {
 131              		.loc 1 39 20 view .LVU27
 132              	.LBB11:
  41:../Middlewares/stedgeai-lib/Npu/Devices/STM32N6xx/npu_cache.c ****     HAL_CACHEAXI_DeInit(&hcacheaxi_s);
 133              		.loc 1 41 3 view .LVU28
  41:../Middlewares/stedgeai-lib/Npu/Devices/STM32N6xx/npu_cache.c ****     HAL_CACHEAXI_DeInit(&hcacheaxi_s);
 134              		.loc 1 41 5 is_stmt 0 view .LVU29
 135 0016 2368     		ldr	r3, [r4]
 136 0018 AB42     		cmp	r3, r5
 137 001a 04D1     		bne	.L8
  42:../Middlewares/stedgeai-lib/Npu/Devices/STM32N6xx/npu_cache.c ****     hcacheaxi_s.Instance = NULL;
 138              		.loc 1 42 5 is_stmt 1 view .LVU30
 139 001c 0248     		ldr	r0, .L15
 140              	.LVL3:
  42:../Middlewares/stedgeai-lib/Npu/Devices/STM32N6xx/npu_cache.c ****     hcacheaxi_s.Instance = NULL;
 141              		.loc 1 42 5 is_stmt 0 view .LVU31
 142 001e FFF7FEFF 		bl	HAL_CACHEAXI_DeInit
 143              	.LVL4:
  43:../Middlewares/stedgeai-lib/Npu/Devices/STM32N6xx/npu_cache.c ****   }
 144              		.loc 1 43 5 is_stmt 1 view .LVU32
  43:../Middlewares/stedgeai-lib/Npu/Devices/STM32N6xx/npu_cache.c ****   }
 145              		.loc 1 43 26 is_stmt 0 view .LVU33
 146 0022 0023     		movs	r3, #0
 147 0024 2360     		str	r3, [r4]
ARM GAS  /tmp/ccaSrTja.s 			page 5


 148              	.LVL5:
 149              	.L8:
  43:../Middlewares/stedgeai-lib/Npu/Devices/STM32N6xx/npu_cache.c ****   }
 150              		.loc 1 43 26 view .LVU34
 151              	.LBE11:
 152              	.LBE10:
  69:../Middlewares/stedgeai-lib/Npu/Devices/STM32N6xx/npu_cache.c ****   }
  70:../Middlewares/stedgeai-lib/Npu/Devices/STM32N6xx/npu_cache.c **** }
 153              		.loc 1 70 1 view .LVU35
 154 0026 38BD     		pop	{r3, r4, r5, pc}
 155              	.L16:
 156              		.align	2
 157              	.L15:
 158 0028 00000000 		.word	hcacheaxi_s
 159 002c 00FC0D58 		.word	1477311488
 160              		.cfi_endproc
 161              	.LFE884:
 163              		.section	.rodata.npu_cache_invalidate.str1.1,"aMS",%progbits,1
 164              	.LC0:
 165 0000 68636163 		.ascii	"hcacheaxi_s.Instance == CACHEAXI\000"
 165      68656178 
 165      695F732E 
 165      496E7374 
 165      616E6365 
 166              	.LC1:
 167 0021 2E2E2F4D 		.ascii	"../Middlewares/stedgeai-lib/Npu/Devices/STM32N6xx/n"
 167      6964646C 
 167      65776172 
 167      65732F73 
 167      74656467 
 168 0054 70755F63 		.ascii	"pu_cache.c\000"
 168      61636865 
 168      2E6300
 169              		.section	.text.npu_cache_invalidate,"ax",%progbits
 170              		.align	1
 171              		.global	npu_cache_invalidate
 172              		.syntax unified
 173              		.thumb
 174              		.thumb_func
 176              	npu_cache_invalidate:
 177              	.LFB885:
  71:../Middlewares/stedgeai-lib/Npu/Devices/STM32N6xx/npu_cache.c **** 
  72:../Middlewares/stedgeai-lib/Npu/Devices/STM32N6xx/npu_cache.c **** void npu_cache_invalidate(void)
  73:../Middlewares/stedgeai-lib/Npu/Devices/STM32N6xx/npu_cache.c **** {
 178              		.loc 1 73 1 is_stmt 1 view -0
 179              		.cfi_startproc
 180              		@ args = 0, pretend = 0, frame = 0
 181              		@ frame_needed = 0, uses_anonymous_args = 0
  74:../Middlewares/stedgeai-lib/Npu/Devices/STM32N6xx/npu_cache.c ****   assert(hcacheaxi_s.Instance == CACHEAXI);
 182              		.loc 1 74 3 view .LVU37
 183 0000 0748     		ldr	r0, .L19
  73:../Middlewares/stedgeai-lib/Npu/Devices/STM32N6xx/npu_cache.c ****   assert(hcacheaxi_s.Instance == CACHEAXI);
 184              		.loc 1 73 1 is_stmt 0 view .LVU38
 185 0002 08B5     		push	{r3, lr}
 186              		.cfi_def_cfa_offset 8
 187              		.cfi_offset 3, -8
 188              		.cfi_offset 14, -4
ARM GAS  /tmp/ccaSrTja.s 			page 6


 189              		.loc 1 74 3 view .LVU39
 190 0004 0268     		ldr	r2, [r0]
 191 0006 074B     		ldr	r3, .L19+4
 192 0008 9A42     		cmp	r2, r3
 193 000a 05D0     		beq	.L18
 194              		.loc 1 74 3 discriminator 1 view .LVU40
 195 000c 4A21     		movs	r1, #74
 196 000e 064B     		ldr	r3, .L19+8
 197 0010 064A     		ldr	r2, .L19+12
 198 0012 0748     		ldr	r0, .L19+16
 199 0014 FFF7FEFF 		bl	__assert_func
 200              	.LVL6:
 201              	.L18:
  75:../Middlewares/stedgeai-lib/Npu/Devices/STM32N6xx/npu_cache.c ****   if(hcacheaxi_s.Instance == CACHEAXI) {
 202              		.loc 1 75 3 is_stmt 1 view .LVU41
  76:../Middlewares/stedgeai-lib/Npu/Devices/STM32N6xx/npu_cache.c ****     HAL_CACHEAXI_Invalidate(&hcacheaxi_s);	
 203              		.loc 1 76 5 view .LVU42
  77:../Middlewares/stedgeai-lib/Npu/Devices/STM32N6xx/npu_cache.c ****   }
  78:../Middlewares/stedgeai-lib/Npu/Devices/STM32N6xx/npu_cache.c **** }
 204              		.loc 1 78 1 is_stmt 0 view .LVU43
 205 0018 BDE80840 		pop	{r3, lr}
 206              		.cfi_restore 14
 207              		.cfi_restore 3
 208              		.cfi_def_cfa_offset 0
  76:../Middlewares/stedgeai-lib/Npu/Devices/STM32N6xx/npu_cache.c ****     HAL_CACHEAXI_Invalidate(&hcacheaxi_s);	
 209              		.loc 1 76 5 view .LVU44
 210 001c FFF7FEBF 		b	HAL_CACHEAXI_Invalidate
 211              	.LVL7:
 212              	.L20:
 213              		.align	2
 214              	.L19:
 215 0020 00000000 		.word	hcacheaxi_s
 216 0024 00FC0D58 		.word	1477311488
 217 0028 00000000 		.word	.LC0
 218 002c 00000000 		.word	__func__.2
 219 0030 21000000 		.word	.LC1
 220              		.cfi_endproc
 221              	.LFE885:
 223              		.section	.text.npu_cache_clean_range,"ax",%progbits
 224              		.align	1
 225              		.global	npu_cache_clean_range
 226              		.syntax unified
 227              		.thumb
 228              		.thumb_func
 230              	npu_cache_clean_range:
 231              	.LVL8:
 232              	.LFB886:
  79:../Middlewares/stedgeai-lib/Npu/Devices/STM32N6xx/npu_cache.c **** 
  80:../Middlewares/stedgeai-lib/Npu/Devices/STM32N6xx/npu_cache.c **** void npu_cache_clean_range(uint32_t start_addr, uint32_t end_addr)
  81:../Middlewares/stedgeai-lib/Npu/Devices/STM32N6xx/npu_cache.c **** {
 233              		.loc 1 81 1 is_stmt 1 view -0
 234              		.cfi_startproc
 235              		@ args = 0, pretend = 0, frame = 0
 236              		@ frame_needed = 0, uses_anonymous_args = 0
  82:../Middlewares/stedgeai-lib/Npu/Devices/STM32N6xx/npu_cache.c ****   assert(hcacheaxi_s.Instance == CACHEAXI);
 237              		.loc 1 82 3 view .LVU46
  81:../Middlewares/stedgeai-lib/Npu/Devices/STM32N6xx/npu_cache.c ****   assert(hcacheaxi_s.Instance == CACHEAXI);
ARM GAS  /tmp/ccaSrTja.s 			page 7


 238              		.loc 1 81 1 is_stmt 0 view .LVU47
 239 0000 0346     		mov	r3, r0
 240              		.loc 1 82 3 view .LVU48
 241 0002 0A48     		ldr	r0, .L24
 242              	.LVL9:
  81:../Middlewares/stedgeai-lib/Npu/Devices/STM32N6xx/npu_cache.c ****   assert(hcacheaxi_s.Instance == CACHEAXI);
 243              		.loc 1 81 1 view .LVU49
 244 0004 10B5     		push	{r4, lr}
 245              		.cfi_def_cfa_offset 8
 246              		.cfi_offset 4, -8
 247              		.cfi_offset 14, -4
 248              		.loc 1 82 3 view .LVU50
 249 0006 0A4A     		ldr	r2, .L24+4
 250 0008 0468     		ldr	r4, [r0]
 251 000a 9442     		cmp	r4, r2
 252 000c 05D0     		beq	.L22
 253              		.loc 1 82 3 discriminator 1 view .LVU51
 254 000e 5221     		movs	r1, #82
 255              	.LVL10:
 256              		.loc 1 82 3 discriminator 1 view .LVU52
 257 0010 084B     		ldr	r3, .L24+8
 258              	.LVL11:
 259              		.loc 1 82 3 discriminator 1 view .LVU53
 260 0012 094A     		ldr	r2, .L24+12
 261 0014 0948     		ldr	r0, .L24+16
 262 0016 FFF7FEFF 		bl	__assert_func
 263              	.LVL12:
 264              	.L22:
  83:../Middlewares/stedgeai-lib/Npu/Devices/STM32N6xx/npu_cache.c ****   if(hcacheaxi_s.Instance == CACHEAXI) {
 265              		.loc 1 83 3 is_stmt 1 view .LVU54
  84:../Middlewares/stedgeai-lib/Npu/Devices/STM32N6xx/npu_cache.c ****     if (start_addr >= end_addr) {  // prevent unpredictable case.
 266              		.loc 1 84 5 view .LVU55
 267              		.loc 1 84 8 is_stmt 0 view .LVU56
 268 001a 8B42     		cmp	r3, r1
 269 001c 05D2     		bcs	.L21
  85:../Middlewares/stedgeai-lib/Npu/Devices/STM32N6xx/npu_cache.c ****       return;
  86:../Middlewares/stedgeai-lib/Npu/Devices/STM32N6xx/npu_cache.c ****     }
  87:../Middlewares/stedgeai-lib/Npu/Devices/STM32N6xx/npu_cache.c ****     HAL_CACHEAXI_CleanByAddr(&hcacheaxi_s, (uint32_t*)start_addr, end_addr-start_addr);
 270              		.loc 1 87 5 is_stmt 1 view .LVU57
  88:../Middlewares/stedgeai-lib/Npu/Devices/STM32N6xx/npu_cache.c ****   }
  89:../Middlewares/stedgeai-lib/Npu/Devices/STM32N6xx/npu_cache.c **** }
 271              		.loc 1 89 1 is_stmt 0 view .LVU58
 272 001e BDE81040 		pop	{r4, lr}
 273              		.cfi_remember_state
 274              		.cfi_restore 14
 275              		.cfi_restore 4
 276              		.cfi_def_cfa_offset 0
  87:../Middlewares/stedgeai-lib/Npu/Devices/STM32N6xx/npu_cache.c ****   }
 277              		.loc 1 87 5 view .LVU59
 278 0022 CA1A     		subs	r2, r1, r3
 279 0024 1946     		mov	r1, r3
 280              	.LVL13:
  87:../Middlewares/stedgeai-lib/Npu/Devices/STM32N6xx/npu_cache.c ****   }
 281              		.loc 1 87 5 view .LVU60
 282 0026 FFF7FEBF 		b	HAL_CACHEAXI_CleanByAddr
 283              	.LVL14:
 284              	.L21:
ARM GAS  /tmp/ccaSrTja.s 			page 8


 285              		.cfi_restore_state
 286              		.loc 1 89 1 view .LVU61
 287 002a 10BD     		pop	{r4, pc}
 288              	.L25:
 289              		.align	2
 290              	.L24:
 291 002c 00000000 		.word	hcacheaxi_s
 292 0030 00FC0D58 		.word	1477311488
 293 0034 00000000 		.word	.LC0
 294 0038 00000000 		.word	__func__.1
 295 003c 21000000 		.word	.LC1
 296              		.cfi_endproc
 297              	.LFE886:
 299              		.section	.text.npu_cache_clean_invalidate_range,"ax",%progbits
 300              		.align	1
 301              		.global	npu_cache_clean_invalidate_range
 302              		.syntax unified
 303              		.thumb
 304              		.thumb_func
 306              	npu_cache_clean_invalidate_range:
 307              	.LVL15:
 308              	.LFB887:
  90:../Middlewares/stedgeai-lib/Npu/Devices/STM32N6xx/npu_cache.c **** 
  91:../Middlewares/stedgeai-lib/Npu/Devices/STM32N6xx/npu_cache.c **** void npu_cache_clean_invalidate_range(uint32_t start_addr, uint32_t end_addr)
  92:../Middlewares/stedgeai-lib/Npu/Devices/STM32N6xx/npu_cache.c **** {
 309              		.loc 1 92 1 is_stmt 1 view -0
 310              		.cfi_startproc
 311              		@ args = 0, pretend = 0, frame = 0
 312              		@ frame_needed = 0, uses_anonymous_args = 0
  93:../Middlewares/stedgeai-lib/Npu/Devices/STM32N6xx/npu_cache.c ****   assert(hcacheaxi_s.Instance == CACHEAXI);
 313              		.loc 1 93 3 view .LVU63
  92:../Middlewares/stedgeai-lib/Npu/Devices/STM32N6xx/npu_cache.c ****   assert(hcacheaxi_s.Instance == CACHEAXI);
 314              		.loc 1 92 1 is_stmt 0 view .LVU64
 315 0000 0346     		mov	r3, r0
 316              		.loc 1 93 3 view .LVU65
 317 0002 0A48     		ldr	r0, .L29
 318              	.LVL16:
  92:../Middlewares/stedgeai-lib/Npu/Devices/STM32N6xx/npu_cache.c ****   assert(hcacheaxi_s.Instance == CACHEAXI);
 319              		.loc 1 92 1 view .LVU66
 320 0004 10B5     		push	{r4, lr}
 321              		.cfi_def_cfa_offset 8
 322              		.cfi_offset 4, -8
 323              		.cfi_offset 14, -4
 324              		.loc 1 93 3 view .LVU67
 325 0006 0A4A     		ldr	r2, .L29+4
 326 0008 0468     		ldr	r4, [r0]
 327 000a 9442     		cmp	r4, r2
 328 000c 05D0     		beq	.L27
 329              		.loc 1 93 3 discriminator 1 view .LVU68
 330 000e 5D21     		movs	r1, #93
 331              	.LVL17:
 332              		.loc 1 93 3 discriminator 1 view .LVU69
 333 0010 084B     		ldr	r3, .L29+8
 334              	.LVL18:
 335              		.loc 1 93 3 discriminator 1 view .LVU70
 336 0012 094A     		ldr	r2, .L29+12
 337 0014 0948     		ldr	r0, .L29+16
ARM GAS  /tmp/ccaSrTja.s 			page 9


 338 0016 FFF7FEFF 		bl	__assert_func
 339              	.LVL19:
 340              	.L27:
  94:../Middlewares/stedgeai-lib/Npu/Devices/STM32N6xx/npu_cache.c ****   if(hcacheaxi_s.Instance == CACHEAXI) {
 341              		.loc 1 94 3 is_stmt 1 view .LVU71
  95:../Middlewares/stedgeai-lib/Npu/Devices/STM32N6xx/npu_cache.c ****     if (start_addr >= end_addr) {  // prevent unpredictable case.
 342              		.loc 1 95 5 view .LVU72
 343              		.loc 1 95 8 is_stmt 0 view .LVU73
 344 001a 8B42     		cmp	r3, r1
 345 001c 05D2     		bcs	.L26
  96:../Middlewares/stedgeai-lib/Npu/Devices/STM32N6xx/npu_cache.c ****       return;
  97:../Middlewares/stedgeai-lib/Npu/Devices/STM32N6xx/npu_cache.c ****     }
  98:../Middlewares/stedgeai-lib/Npu/Devices/STM32N6xx/npu_cache.c ****     HAL_CACHEAXI_CleanInvalidByAddr(&hcacheaxi_s, (uint32_t*)start_addr, end_addr-start_addr);
 346              		.loc 1 98 5 is_stmt 1 view .LVU74
  99:../Middlewares/stedgeai-lib/Npu/Devices/STM32N6xx/npu_cache.c ****   }
 100:../Middlewares/stedgeai-lib/Npu/Devices/STM32N6xx/npu_cache.c **** }
 347              		.loc 1 100 1 is_stmt 0 view .LVU75
 348 001e BDE81040 		pop	{r4, lr}
 349              		.cfi_remember_state
 350              		.cfi_restore 14
 351              		.cfi_restore 4
 352              		.cfi_def_cfa_offset 0
  98:../Middlewares/stedgeai-lib/Npu/Devices/STM32N6xx/npu_cache.c ****   }
 353              		.loc 1 98 5 view .LVU76
 354 0022 CA1A     		subs	r2, r1, r3
 355 0024 1946     		mov	r1, r3
 356              	.LVL20:
  98:../Middlewares/stedgeai-lib/Npu/Devices/STM32N6xx/npu_cache.c ****   }
 357              		.loc 1 98 5 view .LVU77
 358 0026 FFF7FEBF 		b	HAL_CACHEAXI_CleanInvalidByAddr
 359              	.LVL21:
 360              	.L26:
 361              		.cfi_restore_state
 362              		.loc 1 100 1 view .LVU78
 363 002a 10BD     		pop	{r4, pc}
 364              	.L30:
 365              		.align	2
 366              	.L29:
 367 002c 00000000 		.word	hcacheaxi_s
 368 0030 00FC0D58 		.word	1477311488
 369 0034 00000000 		.word	.LC0
 370 0038 00000000 		.word	__func__.0
 371 003c 21000000 		.word	.LC1
 372              		.cfi_endproc
 373              	.LFE887:
 375              		.section	.text.npu_cache_enable_clocks_and_reset,"ax",%progbits
 376              		.align	1
 377              		.weak	npu_cache_enable_clocks_and_reset
 378              		.syntax unified
 379              		.thumb
 380              		.thumb_func
 382              	npu_cache_enable_clocks_and_reset:
 383              	.LFB890:
 101:../Middlewares/stedgeai-lib/Npu/Devices/STM32N6xx/npu_cache.c **** 
 102:../Middlewares/stedgeai-lib/Npu/Devices/STM32N6xx/npu_cache.c **** /* 
 103:../Middlewares/stedgeai-lib/Npu/Devices/STM32N6xx/npu_cache.c ****   Weak functions called by HAL_CACHEAXI_Init/DeInit implementations 
 104:../Middlewares/stedgeai-lib/Npu/Devices/STM32N6xx/npu_cache.c **** */
ARM GAS  /tmp/ccaSrTja.s 			page 10


 105:../Middlewares/stedgeai-lib/Npu/Devices/STM32N6xx/npu_cache.c **** void HAL_CACHEAXI_MspInit(CACHEAXI_HandleTypeDef *hcacheaxi)
 106:../Middlewares/stedgeai-lib/Npu/Devices/STM32N6xx/npu_cache.c **** {
 107:../Middlewares/stedgeai-lib/Npu/Devices/STM32N6xx/npu_cache.c ****   (void)hcacheaxi;
 108:../Middlewares/stedgeai-lib/Npu/Devices/STM32N6xx/npu_cache.c ****   npu_cache_enable_clocks_and_reset();
 109:../Middlewares/stedgeai-lib/Npu/Devices/STM32N6xx/npu_cache.c **** }
 110:../Middlewares/stedgeai-lib/Npu/Devices/STM32N6xx/npu_cache.c **** 
 111:../Middlewares/stedgeai-lib/Npu/Devices/STM32N6xx/npu_cache.c **** void HAL_CACHEAXI_MspDeInit(CACHEAXI_HandleTypeDef *hcacheaxi){
 112:../Middlewares/stedgeai-lib/Npu/Devices/STM32N6xx/npu_cache.c ****   (void)hcacheaxi;
 113:../Middlewares/stedgeai-lib/Npu/Devices/STM32N6xx/npu_cache.c ****   npu_cache_disable_clocks_and_reset();
 114:../Middlewares/stedgeai-lib/Npu/Devices/STM32N6xx/npu_cache.c **** }
 115:../Middlewares/stedgeai-lib/Npu/Devices/STM32N6xx/npu_cache.c **** 
 116:../Middlewares/stedgeai-lib/Npu/Devices/STM32N6xx/npu_cache.c **** /*
 117:../Middlewares/stedgeai-lib/Npu/Devices/STM32N6xx/npu_cache.c ****   Exposed weak functions to be implemented by the user if needed:
 118:../Middlewares/stedgeai-lib/Npu/Devices/STM32N6xx/npu_cache.c ****   The CACHEAXI IP must be clocked and reset before use.
 119:../Middlewares/stedgeai-lib/Npu/Devices/STM32N6xx/npu_cache.c **** */
 120:../Middlewares/stedgeai-lib/Npu/Devices/STM32N6xx/npu_cache.c **** __weak void npu_cache_enable_clocks_and_reset(void){};
 384              		.loc 1 120 52 is_stmt 1 view -0
 385              		.cfi_startproc
 386              		@ args = 0, pretend = 0, frame = 0
 387              		@ frame_needed = 0, uses_anonymous_args = 0
 388              		@ link register save eliminated.
 389              		.loc 1 120 53 view .LVU80
 390 0000 7047     		bx	lr
 391              		.cfi_endproc
 392              	.LFE890:
 394              		.section	.text.HAL_CACHEAXI_MspInit,"ax",%progbits
 395              		.align	1
 396              		.global	HAL_CACHEAXI_MspInit
 397              		.syntax unified
 398              		.thumb
 399              		.thumb_func
 401              	HAL_CACHEAXI_MspInit:
 402              	.LVL22:
 403              	.LFB888:
 106:../Middlewares/stedgeai-lib/Npu/Devices/STM32N6xx/npu_cache.c ****   (void)hcacheaxi;
 404              		.loc 1 106 1 view -0
 405              		.cfi_startproc
 406              		@ args = 0, pretend = 0, frame = 0
 407              		@ frame_needed = 0, uses_anonymous_args = 0
 107:../Middlewares/stedgeai-lib/Npu/Devices/STM32N6xx/npu_cache.c ****   npu_cache_enable_clocks_and_reset();
 408              		.loc 1 107 3 view .LVU82
 108:../Middlewares/stedgeai-lib/Npu/Devices/STM32N6xx/npu_cache.c **** }
 409              		.loc 1 108 3 view .LVU83
 106:../Middlewares/stedgeai-lib/Npu/Devices/STM32N6xx/npu_cache.c ****   (void)hcacheaxi;
 410              		.loc 1 106 1 is_stmt 0 view .LVU84
 411 0000 08B5     		push	{r3, lr}
 412              		.cfi_def_cfa_offset 8
 413              		.cfi_offset 3, -8
 414              		.cfi_offset 14, -4
 108:../Middlewares/stedgeai-lib/Npu/Devices/STM32N6xx/npu_cache.c **** }
 415              		.loc 1 108 3 view .LVU85
 416 0002 FFF7FEFF 		bl	npu_cache_enable_clocks_and_reset
 417              	.LVL23:
 109:../Middlewares/stedgeai-lib/Npu/Devices/STM32N6xx/npu_cache.c **** 
 418              		.loc 1 109 1 view .LVU86
 419 0006 08BD     		pop	{r3, pc}
 420              		.cfi_endproc
ARM GAS  /tmp/ccaSrTja.s 			page 11


 421              	.LFE888:
 423              		.section	.text.npu_cache_disable_clocks_and_reset,"ax",%progbits
 424              		.align	1
 425              		.weak	npu_cache_disable_clocks_and_reset
 426              		.syntax unified
 427              		.thumb
 428              		.thumb_func
 430              	npu_cache_disable_clocks_and_reset:
 431              	.LFB893:
 432              		.cfi_startproc
 121:../Middlewares/stedgeai-lib/Npu/Devices/STM32N6xx/npu_cache.c **** __weak void npu_cache_disable_clocks_and_reset(void){};...
 433              		.loc 1 121 13 is_stmt 1 view -0
 434              		@ args = 0, pretend = 0, frame = 0
 435              		@ frame_needed = 0, uses_anonymous_args = 0
 436              		@ link register save eliminated.
 437 0000 7047     		bx	lr
 438              		.cfi_endproc
 439              	.LFE893:
 441              		.section	.text.HAL_CACHEAXI_MspDeInit,"ax",%progbits
 442              		.align	1
 443              		.global	HAL_CACHEAXI_MspDeInit
 444              		.syntax unified
 445              		.thumb
 446              		.thumb_func
 448              	HAL_CACHEAXI_MspDeInit:
 449              	.LVL24:
 450              	.LFB889:
 111:../Middlewares/stedgeai-lib/Npu/Devices/STM32N6xx/npu_cache.c **** void HAL_CACHEAXI_MspDeInit(CACHEAXI_HandleTypeDef *hcacheaxi){
 451              		.loc 1 111 63 view -0
 452              		.cfi_startproc
 453              		@ args = 0, pretend = 0, frame = 0
 454              		@ frame_needed = 0, uses_anonymous_args = 0
 112:../Middlewares/stedgeai-lib/Npu/Devices/STM32N6xx/npu_cache.c ****   (void)hcacheaxi;
 455              		.loc 1 112 3 view .LVU89
 113:../Middlewares/stedgeai-lib/Npu/Devices/STM32N6xx/npu_cache.c ****   npu_cache_disable_clocks_and_reset();
 456              		.loc 1 113 3 view .LVU90
 111:../Middlewares/stedgeai-lib/Npu/Devices/STM32N6xx/npu_cache.c **** void HAL_CACHEAXI_MspDeInit(CACHEAXI_HandleTypeDef *hcacheaxi){
 457              		.loc 1 111 63 is_stmt 0 view .LVU91
 458 0000 08B5     		push	{r3, lr}
 459              		.cfi_def_cfa_offset 8
 460              		.cfi_offset 3, -8
 461              		.cfi_offset 14, -4
 113:../Middlewares/stedgeai-lib/Npu/Devices/STM32N6xx/npu_cache.c ****   npu_cache_disable_clocks_and_reset();
 462              		.loc 1 113 3 view .LVU92
 463 0002 FFF7FEFF 		bl	npu_cache_disable_clocks_and_reset
 464              	.LVL25:
 114:../Middlewares/stedgeai-lib/Npu/Devices/STM32N6xx/npu_cache.c **** }
 465              		.loc 1 114 1 view .LVU93
 466 0006 08BD     		pop	{r3, pc}
 467              		.cfi_endproc
 468              	.LFE889:
 470              		.section	.rodata.__func__.0,"a"
 473              	__func__.0:
 474 0000 6E70755F 		.ascii	"npu_cache_clean_invalidate_range\000"
 474      63616368 
 474      655F636C 
 474      65616E5F 
ARM GAS  /tmp/ccaSrTja.s 			page 12


 474      696E7661 
 475              		.section	.rodata.__func__.1,"a"
 478              	__func__.1:
 479 0000 6E70755F 		.ascii	"npu_cache_clean_range\000"
 479      63616368 
 479      655F636C 
 479      65616E5F 
 479      72616E67 
 480              		.section	.rodata.__func__.2,"a"
 483              	__func__.2:
 484 0000 6E70755F 		.ascii	"npu_cache_invalidate\000"
 484      63616368 
 484      655F696E 
 484      76616C69 
 484      64617465 
 485              		.section	.bss.hcacheaxi_s,"aw",%nobits
 486              		.align	2
 489              	hcacheaxi_s:
 490 0000 00000000 		.space	12
 490      00000000 
 490      00000000 
 491              		.text
 492              	.Letext0:
 493              		.file 2 "/opt/st/stm32cubeclt_1.21.0/GNU-tools-for-STM32/arm-none-eabi/include/machine/_default_ty
 494              		.file 3 "/opt/st/stm32cubeclt_1.21.0/GNU-tools-for-STM32/arm-none-eabi/include/sys/_stdint.h"
 495              		.file 4 "../STM32Cube_FW_N6/Drivers/CMSIS/Device/ST/STM32N6xx/Include/stm32n657xx.h"
 496              		.file 5 "../STM32Cube_FW_N6/Drivers/STM32N6xx_HAL_Driver/Inc/stm32n6xx_hal_def.h"
 497              		.file 6 "../STM32Cube_FW_N6/Drivers/STM32N6xx_HAL_Driver/Inc/stm32n6xx_hal_cacheaxi.h"
 498              		.file 7 "/opt/st/stm32cubeclt_1.21.0/GNU-tools-for-STM32/arm-none-eabi/include/assert.h"
ARM GAS  /tmp/ccaSrTja.s 			page 13


DEFINED SYMBOLS
                            *ABS*:00000000 npu_cache.c
     /tmp/ccaSrTja.s:26     .text.npu_cache_enable:00000000 $t
     /tmp/ccaSrTja.s:32     .text.npu_cache_enable:00000000 npu_cache_enable
     /tmp/ccaSrTja.s:84     .text.npu_cache_enable:00000020 $d
     /tmp/ccaSrTja.s:489    .bss.hcacheaxi_s:00000000 hcacheaxi_s
     /tmp/ccaSrTja.s:90     .text.npu_cache_disable:00000000 $t
     /tmp/ccaSrTja.s:96     .text.npu_cache_disable:00000000 npu_cache_disable
     /tmp/ccaSrTja.s:158    .text.npu_cache_disable:00000028 $d
     /tmp/ccaSrTja.s:170    .text.npu_cache_invalidate:00000000 $t
     /tmp/ccaSrTja.s:176    .text.npu_cache_invalidate:00000000 npu_cache_invalidate
     /tmp/ccaSrTja.s:215    .text.npu_cache_invalidate:00000020 $d
     /tmp/ccaSrTja.s:483    .rodata.__func__.2:00000000 __func__.2
     /tmp/ccaSrTja.s:224    .text.npu_cache_clean_range:00000000 $t
     /tmp/ccaSrTja.s:230    .text.npu_cache_clean_range:00000000 npu_cache_clean_range
     /tmp/ccaSrTja.s:291    .text.npu_cache_clean_range:0000002c $d
     /tmp/ccaSrTja.s:478    .rodata.__func__.1:00000000 __func__.1
     /tmp/ccaSrTja.s:300    .text.npu_cache_clean_invalidate_range:00000000 $t
     /tmp/ccaSrTja.s:306    .text.npu_cache_clean_invalidate_range:00000000 npu_cache_clean_invalidate_range
     /tmp/ccaSrTja.s:367    .text.npu_cache_clean_invalidate_range:0000002c $d
     /tmp/ccaSrTja.s:473    .rodata.__func__.0:00000000 __func__.0
     /tmp/ccaSrTja.s:376    .text.npu_cache_enable_clocks_and_reset:00000000 $t
     /tmp/ccaSrTja.s:382    .text.npu_cache_enable_clocks_and_reset:00000000 npu_cache_enable_clocks_and_reset
     /tmp/ccaSrTja.s:395    .text.HAL_CACHEAXI_MspInit:00000000 $t
     /tmp/ccaSrTja.s:401    .text.HAL_CACHEAXI_MspInit:00000000 HAL_CACHEAXI_MspInit
     /tmp/ccaSrTja.s:424    .text.npu_cache_disable_clocks_and_reset:00000000 $t
     /tmp/ccaSrTja.s:430    .text.npu_cache_disable_clocks_and_reset:00000000 npu_cache_disable_clocks_and_reset
     /tmp/ccaSrTja.s:442    .text.HAL_CACHEAXI_MspDeInit:00000000 $t
     /tmp/ccaSrTja.s:448    .text.HAL_CACHEAXI_MspDeInit:00000000 HAL_CACHEAXI_MspDeInit
     /tmp/ccaSrTja.s:486    .bss.hcacheaxi_s:00000000 $d
                           .group:00000000 wm4.0.43608cab4da50df6ba2dfee95636a2b5
                           .group:00000000 wm4._newlib_version.h.4.0eb654b64686e2bd29646258853f6c22
                           .group:00000000 wm4.newlib.h.27.b904f6f8971bd921b436e5701877de32
                           .group:00000000 wm4.ieeefp.h.77.99029d7b8220a2cd73dd257e2bbe825d
                           .group:00000000 wm4.features.h.22.4b93ad64e0d80833c46a20ecae380bb0
                           .group:00000000 wm4.config.h.224.10ee1ad185d877c6e334e6581faab44d
                           .group:00000000 wm4._ansi.h.31.de524f58584151836e90d8620a16f8e8
                           .group:00000000 wm4.assert.h.11.db24e541f16414db224bf986d21017e2
                           .group:00000000 wm4._default_types.h.6.959254cf5f09734ea7516c89e8bb21bd
                           .group:00000000 wm4._intsup.h.10.48bafbb683905c4daa4565a85aeeb264
                           .group:00000000 wm4._stdint.h.10.c24fa3af3bc1706662bb5593a907e841
                           .group:00000000 wm4.stdint.h.23.d53047a68f4a85177f80b422d52785ed
                           .group:00000000 wm4.stm32n6xx.h.34.c523a1ffdf274a69e8802892c6776332
                           .group:00000000 wm4.stm32n657xx.h.26.acd272cb67318cc1a4791ce2f0720ca6
                           .group:00000000 wm4.cmsis_version.h.30.d128735bf87720f7436b74fefeb5043c
                           .group:00000000 wm4.core_cm55.h.67.25006a3ce7048d64bcddd2996d5fac93
                           .group:00000000 wm4.arm_acle.h.28.a0697f530ff2dbf8c463bef049b82760
                           .group:00000000 wm4.cmsis_gcc.h.39.eba7438bc45fd1a6e6376b63ffe44436
                           .group:00000000 wm4.cmsis_gcc_m.h.24.e590ec51aeda3a1242400351d73f5dce
                           .group:00000000 wm4.core_cm55.h.213.0528f46a674315ef8d35c4477e230358
                           .group:00000000 wm4.armv8m_mpu.h.24.bf28cc25bee30a7ff9d2f7a44a5e2230
                           .group:00000000 wm4.armv8m_pmu.h.24.6ded195d2625055391fd378c0e1d2519
                           .group:00000000 wm4.core_cm55.h.4477.396e822ef855bcfb932819ad48de1c4c
                           .group:00000000 wm4.armv7m_cachel1.h.24.936dd92d6e204a8d0b17d5e4ea4a356e
                           .group:00000000 wm4.stm32n657xx.h.575.78d331c417ec710388ced647138f735f
                           .group:00000000 wm4.stm32n6xx.h.116.b4247d9785590e7c5ec9234ffb2153bf
                           .group:00000000 wm4.stm32n6xx_hal_conf.h.21.d32f04f7ae387b70d8c80735cac3eea9
ARM GAS  /tmp/ccaSrTja.s 			page 14


                           .group:00000000 wm4.stddef.h.39.811583f327f35b0df7808fda70b062a0
                           .group:00000000 wm4.arm_cmse.h.103.a0d15a79c4c9a67da8d5831704d7248e
                           .group:00000000 wm4.stm32_hal_legacy.h.22.e62aae2fd3ae33360b6781c8a72e5b18
                           .group:00000000 wm4.cdefs.h.49.56fd742369e655e7e8a7e365e706e208
                           .group:00000000 wm4._types.h.20.dd0d04dca3800a0d2a6129b87f3adbb2
                           .group:00000000 wm4.stddef.h.173.4903093a50a8482cb062b176ea61fac3
                           .group:00000000 wm4._types.h.127.3bdfe3ff8ea2d0985b03d9cbe93480e3
                           .group:00000000 wm4.reent.h.18.25503cdc8b7e55dd0d6ea7b3e5af7a03
                           .group:00000000 wm4.lock.h.2.1461d1fff82dffe8bfddc23307f6484f
                           .group:00000000 wm4.reent.h.78.6d702f69a6d6435d2dbe915b10150b1a
                           .group:00000000 wm4.math.h.13.47cfc34cae8a1153323939c4d32cf7c2
                           .group:00000000 wm4.stm32n6xx_hal_def.h.63.3a8f01490e8852464e9fcb69092e9c75
                           .group:00000000 wm4.stm32n6xx_ll_bus.h.38.2366a295ee4cdb04833997d3787fcd2d
                           .group:00000000 wm4.stm32n6xx_ll_rcc.h.21.656bd5637db608589ad16ea57d39430c
                           .group:00000000 wm4.stm32n6xx_hal_rcc.h.194.69b522b1afdf59a82d05a1f71efe03c7
                           .group:00000000 wm4.stm32n6xx_hal_rcc_ex.h.21.cc6be0a7d168882a1a6f470236ba784c
                           .group:00000000 wm4.stm32n6xx_hal_rcc.h.4361.4b490a4a19722e68c21f88cb8a774a30
                           .group:00000000 wm4.stm32n6xx_hal_gpio.h.21.89d54af663b98eb8fc098192053f7eeb
                           .group:00000000 wm4.stm32n6xx_hal_gpio_ex.h.22.f7e795fb05a69a19b87d946b47c8db8b
                           .group:00000000 wm4.stm32n6xx_hal_rif.h.21.33f2c553a8a3fc14dca8c470b213ab19
                           .group:00000000 wm4.stm32n6xx_hal_dma.h.21.61e48c5c2e8d25d22177834b232fe45c
                           .group:00000000 wm4.stm32n6xx_hal_dma_ex.h.21.82f854ecdb6a463b06d0b4e5c217c368
                           .group:00000000 wm4.stm32n6xx_hal_dma.h.1020.87e2180c009560b617c1f8208140c950
                           .group:00000000 wm4.stm32n6xx_hal_cortex.h.21.f493623cc58f9454ab4eae41e395c5cc
                           .group:00000000 wm4.stm32n6xx_hal_bsec.h.21.1ee89319140541f82434908b4267aa30
                           .group:00000000 wm4.stm32n6xx_hal_dcmipp.h.21.e2b87dce83d7d722d696a597f6ac56bf
                           .group:00000000 wm4.stm32n6xx_hal_dma2d.h.21.75c8d46cdbb72970123b3f34ae2043d7
                           .group:00000000 wm4.stm32n6xx_hal_exti.h.21.e0efb23591051684dc14f1f2431c6aab
                           .group:00000000 wm4.stm32n6xx_hal_i2c.h.21.3f483626ff64c5bf027265bb2e1d1331
                           .group:00000000 wm4.stm32n6xx_hal_i2c_ex.h.21.79e9196c22282cdaf6b4047893638c45
                           .group:00000000 wm4.stm32n6xx_hal_i2c.h.741.1084702632703acc669e4282b3043372
                           .group:00000000 wm4.stm32n6xx_hal_ltdc.h.21.ae1eb09930e7e550e48e418ac5849e4d
                           .group:00000000 wm4.stm32n6xx_hal_ltdc.h.1002.b13ede7fc94ed5ad1c6768a157d2149a
                           .group:00000000 wm4.stm32n6xx_ll_usb.h.21.daaf86158046f2cf02166c495d637480
                           .group:00000000 wm4.stm32n6xx_hal_pcd.h.155.27040aac6844effe2af8c180caf1dd2e
                           .group:00000000 wm4.stm32n6xx_hal_pwr.h.21.cdb73e4869c3fed3fc84f901ec0e5f0a
                           .group:00000000 wm4.stm32n6xx_hal_pwr_ex.h.21.1a673224a58b0c1e5fad8eeda6514208
                           .group:00000000 wm4.stm32n6xx_hal_ramcfg.h.21.a62dfbb4d2c14e9a8c634a215e37bd3d
                           .group:00000000 wm4.stm32n6xx_hal_spi.h.21.9f810303326e2d91749800e9911f8e4d
                           .group:00000000 wm4.stm32n6xx_hal_spi.h.906.8ad9375f39dce09dc0a4db0025ee7a76
                           .group:00000000 wm4.stm32n6xx_hal_uart.h.21.230f549bfa0d5ebfd77bfb311b2aca15
                           .group:00000000 wm4.stm32n6xx_hal_uart_ex.h.21.a0d5511e1d0703b7b5278c8f5472b96d
                           .group:00000000 wm4.stm32n6xx_hal_xspi.h.21.7fd922d3bdb871475cf18436a68935bb
                           .group:00000000 wm4.stm32n6xx_hal_cacheaxi.h.21.7c3375b7903ec42376e4883320997f74
                           .group:00000000 wm4.stm32n6xx_hal.h.81.e79d59262ba173c33cf1d69281830d15
                           .group:00000000 wm4.ll_aton_config.h.20.6c93c36cdcfd4d0d33ea92e3d64119d1

UNDEFINED SYMBOLS
HAL_CACHEAXI_Init
HAL_CACHEAXI_Enable
HAL_CACHEAXI_Disable
HAL_CACHEAXI_DeInit
__assert_func
HAL_CACHEAXI_Invalidate
HAL_CACHEAXI_CleanByAddr
HAL_CACHEAXI_CleanInvalidByAddr
