ARM GAS  /tmp/ccUSEqtX.s 			page 1


   1              		.arch armv8.1-m.main
   2              		.fpu fpv5-d16
   3              		.arch_extension dsp
   4              		.arch_extension fp
   5              		.arch_extension fp.dp
   6              		.arch_extension mve
   7              		.arch_extension mve.fp
   8              		.eabi_attribute 5, "cortex-m55"
   9              		.eabi_attribute 28, 1
  10              		.eabi_attribute 20, 1
  11              		.eabi_attribute 21, 1
  12              		.eabi_attribute 23, 3
  13              		.eabi_attribute 24, 1
  14              		.eabi_attribute 25, 1
  15              		.eabi_attribute 26, 1
  16              		.eabi_attribute 30, 4
  17              		.eabi_attribute 34, 1
  18              		.eabi_attribute 38, 1
  19              		.eabi_attribute 18, 4
  20              		.file	"od_pp_yolo_d.c"
  21              		.text
  22              	.Ltext0:
  23              		.cfi_sections	.debug_frame
  24              		.file 1 "../Middlewares/stm32-vision-models-postprocessing/lib_vision_models_pp/Src/od_pp_yolo_d.c
  25              		.section	.text.yolov_d_nms_comparator,"ax",%progbits
  26              		.align	1
  27              		.global	yolov_d_nms_comparator
  28              		.syntax unified
  29              		.thumb
  30              		.thumb_func
  32              	yolov_d_nms_comparator:
  33              	.LVL0:
  34              	.LFB774:
   1:../Middlewares/stm32-vision-models-postprocessing/lib_vision_models_pp/Src/od_pp_yolo_d.c **** /*---------------------------------------------------------------------------------------------
   2:../Middlewares/stm32-vision-models-postprocessing/lib_vision_models_pp/Src/od_pp_yolo_d.c ****  * Copyright (c) 2023 STMicroelectronics.
   3:../Middlewares/stm32-vision-models-postprocessing/lib_vision_models_pp/Src/od_pp_yolo_d.c ****  * All rights reserved.
   4:../Middlewares/stm32-vision-models-postprocessing/lib_vision_models_pp/Src/od_pp_yolo_d.c ****  *
   5:../Middlewares/stm32-vision-models-postprocessing/lib_vision_models_pp/Src/od_pp_yolo_d.c ****  * This software is licensed under terms that can be found in the LICENSE file in
   6:../Middlewares/stm32-vision-models-postprocessing/lib_vision_models_pp/Src/od_pp_yolo_d.c ****  * the root directory of this software component.
   7:../Middlewares/stm32-vision-models-postprocessing/lib_vision_models_pp/Src/od_pp_yolo_d.c ****  * If no LICENSE file comes with this software, it is provided AS-IS.
   8:../Middlewares/stm32-vision-models-postprocessing/lib_vision_models_pp/Src/od_pp_yolo_d.c ****  *--------------------------------------------------------------------------------------------*/
   9:../Middlewares/stm32-vision-models-postprocessing/lib_vision_models_pp/Src/od_pp_yolo_d.c **** 
  10:../Middlewares/stm32-vision-models-postprocessing/lib_vision_models_pp/Src/od_pp_yolo_d.c **** #include "od_pp_loc.h"
  11:../Middlewares/stm32-vision-models-postprocessing/lib_vision_models_pp/Src/od_pp_yolo_d.c **** #include "od_yolo_d_pp_if.h"
  12:../Middlewares/stm32-vision-models-postprocessing/lib_vision_models_pp/Src/od_pp_yolo_d.c **** #include "vision_models_pp.h"
  13:../Middlewares/stm32-vision-models-postprocessing/lib_vision_models_pp/Src/od_pp_yolo_d.c **** 
  14:../Middlewares/stm32-vision-models-postprocessing/lib_vision_models_pp/Src/od_pp_yolo_d.c **** /* Can't be removed if qsort is not re-written... */
  15:../Middlewares/stm32-vision-models-postprocessing/lib_vision_models_pp/Src/od_pp_yolo_d.c **** static int32_t AI_YOLO_D_PP_SORT_CLASS;
  16:../Middlewares/stm32-vision-models-postprocessing/lib_vision_models_pp/Src/od_pp_yolo_d.c **** 
  17:../Middlewares/stm32-vision-models-postprocessing/lib_vision_models_pp/Src/od_pp_yolo_d.c **** typedef struct
  18:../Middlewares/stm32-vision-models-postprocessing/lib_vision_models_pp/Src/od_pp_yolo_d.c **** {
  19:../Middlewares/stm32-vision-models-postprocessing/lib_vision_models_pp/Src/od_pp_yolo_d.c ****   int8_t  x_center;
  20:../Middlewares/stm32-vision-models-postprocessing/lib_vision_models_pp/Src/od_pp_yolo_d.c ****   int8_t  y_center;
  21:../Middlewares/stm32-vision-models-postprocessing/lib_vision_models_pp/Src/od_pp_yolo_d.c ****   int8_t  width;
  22:../Middlewares/stm32-vision-models-postprocessing/lib_vision_models_pp/Src/od_pp_yolo_d.c ****   int8_t  height;
  23:../Middlewares/stm32-vision-models-postprocessing/lib_vision_models_pp/Src/od_pp_yolo_d.c ****   int16_t conf;
  24:../Middlewares/stm32-vision-models-postprocessing/lib_vision_models_pp/Src/od_pp_yolo_d.c ****   uint8_t class_index;
ARM GAS  /tmp/ccUSEqtX.s 			page 2


  25:../Middlewares/stm32-vision-models-postprocessing/lib_vision_models_pp/Src/od_pp_yolo_d.c ****   uint8_t _u32_align;
  26:../Middlewares/stm32-vision-models-postprocessing/lib_vision_models_pp/Src/od_pp_yolo_d.c **** } od_yolo_d_pp_scratch_s8_t;
  27:../Middlewares/stm32-vision-models-postprocessing/lib_vision_models_pp/Src/od_pp_yolo_d.c **** 
  28:../Middlewares/stm32-vision-models-postprocessing/lib_vision_models_pp/Src/od_pp_yolo_d.c **** int32_t yolov_d_nms_comparator(const void *pa, const void *pb)
  29:../Middlewares/stm32-vision-models-postprocessing/lib_vision_models_pp/Src/od_pp_yolo_d.c **** {
  35              		.loc 1 29 1 view -0
  36              		.cfi_startproc
  37              		@ args = 0, pretend = 0, frame = 0
  38              		@ frame_needed = 0, uses_anonymous_args = 0
  30:../Middlewares/stm32-vision-models-postprocessing/lib_vision_models_pp/Src/od_pp_yolo_d.c ****   od_pp_outBuffer_t a = *(od_pp_outBuffer_t *)pa;
  39              		.loc 1 30 3 view .LVU1
  31:../Middlewares/stm32-vision-models-postprocessing/lib_vision_models_pp/Src/od_pp_yolo_d.c ****   od_pp_outBuffer_t b = *(od_pp_outBuffer_t *)pb;
  40              		.loc 1 31 3 view .LVU2
  32:../Middlewares/stm32-vision-models-postprocessing/lib_vision_models_pp/Src/od_pp_yolo_d.c **** 
  33:../Middlewares/stm32-vision-models-postprocessing/lib_vision_models_pp/Src/od_pp_yolo_d.c ****   float32_t diff = 0.0;
  34:../Middlewares/stm32-vision-models-postprocessing/lib_vision_models_pp/Src/od_pp_yolo_d.c ****   float32_t a_weighted_conf = 0.0;
  35:../Middlewares/stm32-vision-models-postprocessing/lib_vision_models_pp/Src/od_pp_yolo_d.c ****   float32_t b_weighted_conf = 0.0;
  36:../Middlewares/stm32-vision-models-postprocessing/lib_vision_models_pp/Src/od_pp_yolo_d.c **** 
  37:../Middlewares/stm32-vision-models-postprocessing/lib_vision_models_pp/Src/od_pp_yolo_d.c ****   if (a.class_index == AI_YOLO_D_PP_SORT_CLASS)
  41              		.loc 1 37 21 is_stmt 0 view .LVU3
  42 0000 0F4B     		ldr	r3, .L8
  29:../Middlewares/stm32-vision-models-postprocessing/lib_vision_models_pp/Src/od_pp_yolo_d.c ****   od_pp_outBuffer_t a = *(od_pp_outBuffer_t *)pa;
  43              		.loc 1 29 1 view .LVU4
  44 0002 10B5     		push	{r4, lr}
  45              		.cfi_def_cfa_offset 8
  46              		.cfi_offset 4, -8
  47              		.cfi_offset 14, -4
  48              		.loc 1 37 21 view .LVU5
  49 0004 1B68     		ldr	r3, [r3]
  50              		.loc 1 37 6 view .LVU6
  51 0006 4469     		ldr	r4, [r0, #20]
  31:../Middlewares/stm32-vision-models-postprocessing/lib_vision_models_pp/Src/od_pp_yolo_d.c ****   od_pp_outBuffer_t b = *(od_pp_outBuffer_t *)pb;
  52              		.loc 1 31 21 view .LVU7
  53 0008 4A69     		ldr	r2, [r1, #20]
  54              	.LVL1:
  33:../Middlewares/stm32-vision-models-postprocessing/lib_vision_models_pp/Src/od_pp_yolo_d.c ****   float32_t a_weighted_conf = 0.0;
  55              		.loc 1 33 3 is_stmt 1 view .LVU8
  34:../Middlewares/stm32-vision-models-postprocessing/lib_vision_models_pp/Src/od_pp_yolo_d.c ****   float32_t b_weighted_conf = 0.0;
  56              		.loc 1 34 3 view .LVU9
  35:../Middlewares/stm32-vision-models-postprocessing/lib_vision_models_pp/Src/od_pp_yolo_d.c **** 
  57              		.loc 1 35 3 view .LVU10
  58              		.loc 1 37 3 view .LVU11
  59              		.loc 1 37 6 is_stmt 0 view .LVU12
  60 000a A342     		cmp	r3, r4
  30:../Middlewares/stm32-vision-models-postprocessing/lib_vision_models_pp/Src/od_pp_yolo_d.c ****   od_pp_outBuffer_t b = *(od_pp_outBuffer_t *)pb;
  61              		.loc 1 30 21 view .LVU13
  62 000c 0CBF     		ite	eq
  63 000e D0ED047A 		vldreq.32	s15, [r0, #16]
  38:../Middlewares/stm32-vision-models-postprocessing/lib_vision_models_pp/Src/od_pp_yolo_d.c ****   {
  39:../Middlewares/stm32-vision-models-postprocessing/lib_vision_models_pp/Src/od_pp_yolo_d.c ****     a_weighted_conf = a.conf;
  64              		.loc 1 39 5 is_stmt 1 view .LVU14
  65              	.LVL2:
  40:../Middlewares/stm32-vision-models-postprocessing/lib_vision_models_pp/Src/od_pp_yolo_d.c ****   }
  41:../Middlewares/stm32-vision-models-postprocessing/lib_vision_models_pp/Src/od_pp_yolo_d.c ****   else
  42:../Middlewares/stm32-vision-models-postprocessing/lib_vision_models_pp/Src/od_pp_yolo_d.c ****   {
  43:../Middlewares/stm32-vision-models-postprocessing/lib_vision_models_pp/Src/od_pp_yolo_d.c ****     a_weighted_conf = 0.0;
  66              		.loc 1 43 21 is_stmt 0 view .LVU15
ARM GAS  /tmp/ccUSEqtX.s 			page 3


  67 0012 DFED0C7A 		vldrne.32	s15, .L8+4
  68              	.LVL3:
  44:../Middlewares/stm32-vision-models-postprocessing/lib_vision_models_pp/Src/od_pp_yolo_d.c ****   }
  45:../Middlewares/stm32-vision-models-postprocessing/lib_vision_models_pp/Src/od_pp_yolo_d.c **** 
  46:../Middlewares/stm32-vision-models-postprocessing/lib_vision_models_pp/Src/od_pp_yolo_d.c ****   if (b.class_index == AI_YOLO_D_PP_SORT_CLASS)
  69              		.loc 1 46 3 is_stmt 1 view .LVU16
  70              		.loc 1 46 6 is_stmt 0 view .LVU17
  71 0016 9342     		cmp	r3, r2
  31:../Middlewares/stm32-vision-models-postprocessing/lib_vision_models_pp/Src/od_pp_yolo_d.c **** 
  72              		.loc 1 31 21 view .LVU18
  73 0018 0CBF     		ite	eq
  74 001a 91ED047A 		vldreq.32	s14, [r1, #16]
  47:../Middlewares/stm32-vision-models-postprocessing/lib_vision_models_pp/Src/od_pp_yolo_d.c ****   {
  48:../Middlewares/stm32-vision-models-postprocessing/lib_vision_models_pp/Src/od_pp_yolo_d.c ****     b_weighted_conf = b.conf;
  75              		.loc 1 48 5 is_stmt 1 view .LVU19
  76              	.LVL4:
  49:../Middlewares/stm32-vision-models-postprocessing/lib_vision_models_pp/Src/od_pp_yolo_d.c ****   }
  50:../Middlewares/stm32-vision-models-postprocessing/lib_vision_models_pp/Src/od_pp_yolo_d.c ****   else
  51:../Middlewares/stm32-vision-models-postprocessing/lib_vision_models_pp/Src/od_pp_yolo_d.c ****   {
  52:../Middlewares/stm32-vision-models-postprocessing/lib_vision_models_pp/Src/od_pp_yolo_d.c ****     b_weighted_conf = 0.0;
  77              		.loc 1 52 21 is_stmt 0 view .LVU20
  78 001e 9FED097A 		vldrne.32	s14, .L8+4
  79              	.LVL5:
  53:../Middlewares/stm32-vision-models-postprocessing/lib_vision_models_pp/Src/od_pp_yolo_d.c ****   }
  54:../Middlewares/stm32-vision-models-postprocessing/lib_vision_models_pp/Src/od_pp_yolo_d.c **** 
  55:../Middlewares/stm32-vision-models-postprocessing/lib_vision_models_pp/Src/od_pp_yolo_d.c ****   diff = a_weighted_conf - b_weighted_conf;
  80              		.loc 1 55 3 is_stmt 1 view .LVU21
  81              		.loc 1 55 8 is_stmt 0 view .LVU22
  82 0022 77EEC77A 		vsub.f32	s15, s15, s14
  83              	.LVL6:
  56:../Middlewares/stm32-vision-models-postprocessing/lib_vision_models_pp/Src/od_pp_yolo_d.c **** 
  57:../Middlewares/stm32-vision-models-postprocessing/lib_vision_models_pp/Src/od_pp_yolo_d.c ****   if (diff < 0) return 1;
  84              		.loc 1 57 3 is_stmt 1 view .LVU23
  85              		.loc 1 57 6 is_stmt 0 view .LVU24
  86 0026 F5EEC07A 		vcmpe.f32	s15, #0
  87 002a F1EE10FA 		vmrs	APSR_nzcv, FPSCR
  88 002e 04D4     		bmi	.L7
  89              	.LVL7:
  58:../Middlewares/stm32-vision-models-postprocessing/lib_vision_models_pp/Src/od_pp_yolo_d.c ****   else if (diff > 0) return -1;
  90              		.loc 1 58 8 is_stmt 1 view .LVU25
  91              		.loc 1 58 11 is_stmt 0 view .LVU26
  92 0030 CCBF     		ite	gt
  93 0032 4FF0FF30 		movgt	r0, #-1
  94              	.LVL8:
  95              		.loc 1 58 11 view .LVU27
  96 0036 0020     		movle	r0, #0
  97              	.LVL9:
  98              	.L1:
  59:../Middlewares/stm32-vision-models-postprocessing/lib_vision_models_pp/Src/od_pp_yolo_d.c ****   return 0;
  60:../Middlewares/stm32-vision-models-postprocessing/lib_vision_models_pp/Src/od_pp_yolo_d.c **** }
  99              		.loc 1 60 1 view .LVU28
 100 0038 10BD     		pop	{r4, pc}
 101              	.LVL10:
 102              	.L7:
  57:../Middlewares/stm32-vision-models-postprocessing/lib_vision_models_pp/Src/od_pp_yolo_d.c ****   else if (diff > 0) return -1;
 103              		.loc 1 57 24 discriminator 1 view .LVU29
 104 003a 0120     		movs	r0, #1
ARM GAS  /tmp/ccUSEqtX.s 			page 4


 105              	.LVL11:
  57:../Middlewares/stm32-vision-models-postprocessing/lib_vision_models_pp/Src/od_pp_yolo_d.c ****   else if (diff > 0) return -1;
 106              		.loc 1 57 24 discriminator 1 view .LVU30
 107 003c FCE7     		b	.L1
 108              	.L9:
 109 003e 00BF     		.align	2
 110              	.L8:
 111 0040 00000000 		.word	AI_YOLO_D_PP_SORT_CLASS
 112 0044 00000000 		.word	0
 113              		.cfi_endproc
 114              	.LFE774:
 116              		.section	.text.yolov_d_nms_comparator_is8,"ax",%progbits
 117              		.align	1
 118              		.global	yolov_d_nms_comparator_is8
 119              		.syntax unified
 120              		.thumb
 121              		.thumb_func
 123              	yolov_d_nms_comparator_is8:
 124              	.LVL12:
 125              	.LFB775:
  61:../Middlewares/stm32-vision-models-postprocessing/lib_vision_models_pp/Src/od_pp_yolo_d.c **** 
  62:../Middlewares/stm32-vision-models-postprocessing/lib_vision_models_pp/Src/od_pp_yolo_d.c **** int32_t yolov_d_nms_comparator_is8(const void *pa, const void *pb)
  63:../Middlewares/stm32-vision-models-postprocessing/lib_vision_models_pp/Src/od_pp_yolo_d.c **** {
 126              		.loc 1 63 1 is_stmt 1 view -0
 127              		.cfi_startproc
 128              		@ args = 0, pretend = 0, frame = 0
 129              		@ frame_needed = 0, uses_anonymous_args = 0
  64:../Middlewares/stm32-vision-models-postprocessing/lib_vision_models_pp/Src/od_pp_yolo_d.c ****   od_yolo_d_pp_scratch_s8_t a = *(od_yolo_d_pp_scratch_s8_t *)pa;
 130              		.loc 1 64 3 view .LVU32
  65:../Middlewares/stm32-vision-models-postprocessing/lib_vision_models_pp/Src/od_pp_yolo_d.c ****   od_yolo_d_pp_scratch_s8_t b = *(od_yolo_d_pp_scratch_s8_t *)pb;
 131              		.loc 1 65 3 view .LVU33
  63:../Middlewares/stm32-vision-models-postprocessing/lib_vision_models_pp/Src/od_pp_yolo_d.c ****   od_yolo_d_pp_scratch_s8_t a = *(od_yolo_d_pp_scratch_s8_t *)pa;
 132              		.loc 1 63 1 is_stmt 0 view .LVU34
 133 0000 10B5     		push	{r4, lr}
 134              		.cfi_def_cfa_offset 8
 135              		.cfi_offset 4, -8
 136              		.cfi_offset 14, -4
  66:../Middlewares/stm32-vision-models-postprocessing/lib_vision_models_pp/Src/od_pp_yolo_d.c **** 
  67:../Middlewares/stm32-vision-models-postprocessing/lib_vision_models_pp/Src/od_pp_yolo_d.c ****   int16_t diff = 0;
  68:../Middlewares/stm32-vision-models-postprocessing/lib_vision_models_pp/Src/od_pp_yolo_d.c ****   int16_t a_weighted_conf = INT16_MIN;
  69:../Middlewares/stm32-vision-models-postprocessing/lib_vision_models_pp/Src/od_pp_yolo_d.c ****   int16_t b_weighted_conf = INT16_MIN;
  70:../Middlewares/stm32-vision-models-postprocessing/lib_vision_models_pp/Src/od_pp_yolo_d.c **** 
  71:../Middlewares/stm32-vision-models-postprocessing/lib_vision_models_pp/Src/od_pp_yolo_d.c ****   if (a.class_index == AI_YOLO_D_PP_SORT_CLASS)
 137              		.loc 1 71 21 view .LVU35
 138 0002 0D4B     		ldr	r3, .L17
 139              		.loc 1 71 8 view .LVU36
 140 0004 8479     		ldrb	r4, [r0, #6]	@ zero_extendqisi2
 141              		.loc 1 71 21 view .LVU37
 142 0006 1B68     		ldr	r3, [r3]
  65:../Middlewares/stm32-vision-models-postprocessing/lib_vision_models_pp/Src/od_pp_yolo_d.c **** 
 143              		.loc 1 65 29 view .LVU38
 144 0008 8A79     		ldrb	r2, [r1, #6]	@ zero_extendqisi2
 145              	.LVL13:
  67:../Middlewares/stm32-vision-models-postprocessing/lib_vision_models_pp/Src/od_pp_yolo_d.c ****   int16_t a_weighted_conf = INT16_MIN;
 146              		.loc 1 67 3 is_stmt 1 view .LVU39
  68:../Middlewares/stm32-vision-models-postprocessing/lib_vision_models_pp/Src/od_pp_yolo_d.c ****   int16_t b_weighted_conf = INT16_MIN;
 147              		.loc 1 68 3 view .LVU40
ARM GAS  /tmp/ccUSEqtX.s 			page 5


  69:../Middlewares/stm32-vision-models-postprocessing/lib_vision_models_pp/Src/od_pp_yolo_d.c **** 
 148              		.loc 1 69 3 view .LVU41
 149              		.loc 1 71 3 view .LVU42
 150              		.loc 1 71 6 is_stmt 0 view .LVU43
 151 000a 9C42     		cmp	r4, r3
  72:../Middlewares/stm32-vision-models-postprocessing/lib_vision_models_pp/Src/od_pp_yolo_d.c ****   {
  73:../Middlewares/stm32-vision-models-postprocessing/lib_vision_models_pp/Src/od_pp_yolo_d.c ****     a_weighted_conf = a.conf;
  74:../Middlewares/stm32-vision-models-postprocessing/lib_vision_models_pp/Src/od_pp_yolo_d.c ****   }
  75:../Middlewares/stm32-vision-models-postprocessing/lib_vision_models_pp/Src/od_pp_yolo_d.c ****   else
  76:../Middlewares/stm32-vision-models-postprocessing/lib_vision_models_pp/Src/od_pp_yolo_d.c ****   {
  77:../Middlewares/stm32-vision-models-postprocessing/lib_vision_models_pp/Src/od_pp_yolo_d.c ****     a_weighted_conf = INT8_MIN;
 152              		.loc 1 77 21 view .LVU44
 153 000c 14BF     		ite	ne
 154 000e 6FF07F00 		mvnne	r0, #127
 155              	.LVL14:
  64:../Middlewares/stm32-vision-models-postprocessing/lib_vision_models_pp/Src/od_pp_yolo_d.c ****   od_yolo_d_pp_scratch_s8_t b = *(od_yolo_d_pp_scratch_s8_t *)pb;
 156              		.loc 1 64 29 view .LVU45
 157 0012 B0F90400 		ldrsheq	r0, [r0, #4]
  73:../Middlewares/stm32-vision-models-postprocessing/lib_vision_models_pp/Src/od_pp_yolo_d.c ****   }
 158              		.loc 1 73 5 is_stmt 1 view .LVU46
 159              	.LVL15:
  78:../Middlewares/stm32-vision-models-postprocessing/lib_vision_models_pp/Src/od_pp_yolo_d.c ****   }
  79:../Middlewares/stm32-vision-models-postprocessing/lib_vision_models_pp/Src/od_pp_yolo_d.c **** 
  80:../Middlewares/stm32-vision-models-postprocessing/lib_vision_models_pp/Src/od_pp_yolo_d.c ****   if (b.class_index == AI_YOLO_D_PP_SORT_CLASS)
 160              		.loc 1 80 3 view .LVU47
 161              		.loc 1 80 6 is_stmt 0 view .LVU48
 162 0016 9342     		cmp	r3, r2
  81:../Middlewares/stm32-vision-models-postprocessing/lib_vision_models_pp/Src/od_pp_yolo_d.c ****   {
  82:../Middlewares/stm32-vision-models-postprocessing/lib_vision_models_pp/Src/od_pp_yolo_d.c ****     b_weighted_conf = b.conf;
  83:../Middlewares/stm32-vision-models-postprocessing/lib_vision_models_pp/Src/od_pp_yolo_d.c ****   }
  84:../Middlewares/stm32-vision-models-postprocessing/lib_vision_models_pp/Src/od_pp_yolo_d.c ****   else
  85:../Middlewares/stm32-vision-models-postprocessing/lib_vision_models_pp/Src/od_pp_yolo_d.c ****   {
  86:../Middlewares/stm32-vision-models-postprocessing/lib_vision_models_pp/Src/od_pp_yolo_d.c ****     b_weighted_conf = INT8_MIN;
 163              		.loc 1 86 21 view .LVU49
 164 0018 14BF     		ite	ne
 165 001a 6FF07F03 		mvnne	r3, #127
  65:../Middlewares/stm32-vision-models-postprocessing/lib_vision_models_pp/Src/od_pp_yolo_d.c **** 
 166              		.loc 1 65 29 view .LVU50
 167 001e B1F90430 		ldrsheq	r3, [r1, #4]
  82:../Middlewares/stm32-vision-models-postprocessing/lib_vision_models_pp/Src/od_pp_yolo_d.c ****   }
 168              		.loc 1 82 5 is_stmt 1 view .LVU51
 169              	.LVL16:
  87:../Middlewares/stm32-vision-models-postprocessing/lib_vision_models_pp/Src/od_pp_yolo_d.c ****   }
  88:../Middlewares/stm32-vision-models-postprocessing/lib_vision_models_pp/Src/od_pp_yolo_d.c **** 
  89:../Middlewares/stm32-vision-models-postprocessing/lib_vision_models_pp/Src/od_pp_yolo_d.c ****   diff = a_weighted_conf - b_weighted_conf;
 170              		.loc 1 89 3 view .LVU52
 171              		.loc 1 89 26 is_stmt 0 view .LVU53
 172 0022 C01A     		subs	r0, r0, r3
 173              	.LVL17:
 174              		.loc 1 89 8 view .LVU54
 175 0024 00B2     		sxth	r0, r0
 176              	.LVL18:
  90:../Middlewares/stm32-vision-models-postprocessing/lib_vision_models_pp/Src/od_pp_yolo_d.c **** 
  91:../Middlewares/stm32-vision-models-postprocessing/lib_vision_models_pp/Src/od_pp_yolo_d.c ****   if (diff < 0) return 1;
 177              		.loc 1 91 3 is_stmt 1 view .LVU55
 178              		.loc 1 91 6 is_stmt 0 view .LVU56
 179 0026 0028     		cmp	r0, #0
ARM GAS  /tmp/ccUSEqtX.s 			page 6


 180 0028 04DB     		blt	.L16
  92:../Middlewares/stm32-vision-models-postprocessing/lib_vision_models_pp/Src/od_pp_yolo_d.c ****   else if (diff > 0) return -1;
 181              		.loc 1 92 8 is_stmt 1 view .LVU57
 182              		.loc 1 92 11 is_stmt 0 view .LVU58
 183 002a 0038     		subs	r0, r0, #0
 184              		.loc 1 92 11 view .LVU59
 185 002c 18BF     		it	ne
 186 002e 0120     		movne	r0, #1
 187              	.LVL19:
 188              		.loc 1 92 11 view .LVU60
 189 0030 4042     		rsbs	r0, r0, #0
 190              	.LVL20:
 191              	.L10:
  93:../Middlewares/stm32-vision-models-postprocessing/lib_vision_models_pp/Src/od_pp_yolo_d.c ****   return 0;
  94:../Middlewares/stm32-vision-models-postprocessing/lib_vision_models_pp/Src/od_pp_yolo_d.c **** }
 192              		.loc 1 94 1 view .LVU61
 193 0032 10BD     		pop	{r4, pc}
 194              	.LVL21:
 195              	.L16:
  91:../Middlewares/stm32-vision-models-postprocessing/lib_vision_models_pp/Src/od_pp_yolo_d.c ****   else if (diff > 0) return -1;
 196              		.loc 1 91 24 discriminator 1 view .LVU62
 197 0034 0120     		movs	r0, #1
 198              	.LVL22:
  91:../Middlewares/stm32-vision-models-postprocessing/lib_vision_models_pp/Src/od_pp_yolo_d.c ****   else if (diff > 0) return -1;
 199              		.loc 1 91 24 discriminator 1 view .LVU63
 200 0036 FCE7     		b	.L10
 201              	.L18:
 202              		.align	2
 203              	.L17:
 204 0038 00000000 		.word	AI_YOLO_D_PP_SORT_CLASS
 205              		.cfi_endproc
 206              	.LFE775:
 208              		.section	.text.yolov_d_pp_nmsFiltering_centroid,"ax",%progbits
 209              		.align	1
 210              		.global	yolov_d_pp_nmsFiltering_centroid
 211              		.syntax unified
 212              		.thumb
 213              		.thumb_func
 215              	yolov_d_pp_nmsFiltering_centroid:
 216              	.LVL23:
 217              	.LFB776:
  95:../Middlewares/stm32-vision-models-postprocessing/lib_vision_models_pp/Src/od_pp_yolo_d.c **** 
  96:../Middlewares/stm32-vision-models-postprocessing/lib_vision_models_pp/Src/od_pp_yolo_d.c **** 
  97:../Middlewares/stm32-vision-models-postprocessing/lib_vision_models_pp/Src/od_pp_yolo_d.c **** int32_t yolov_d_pp_nmsFiltering_centroid(od_pp_out_t *pOutput,
  98:../Middlewares/stm32-vision-models-postprocessing/lib_vision_models_pp/Src/od_pp_yolo_d.c ****                                         od_yolo_d_pp_static_param_t *pInput_static_param)
  99:../Middlewares/stm32-vision-models-postprocessing/lib_vision_models_pp/Src/od_pp_yolo_d.c **** {
 218              		.loc 1 99 1 is_stmt 1 view -0
 219              		.cfi_startproc
 220              		@ args = 0, pretend = 0, frame = 8
 221              		@ frame_needed = 0, uses_anonymous_args = 0
 100:../Middlewares/stm32-vision-models-postprocessing/lib_vision_models_pp/Src/od_pp_yolo_d.c ****   int32_t j, k, limit_counter, detections_per_class;
 222              		.loc 1 100 3 view .LVU65
 101:../Middlewares/stm32-vision-models-postprocessing/lib_vision_models_pp/Src/od_pp_yolo_d.c **** 
 102:../Middlewares/stm32-vision-models-postprocessing/lib_vision_models_pp/Src/od_pp_yolo_d.c ****   for (k = 0; k < pInput_static_param->nb_classes; ++k)
 223              		.loc 1 102 3 view .LVU66
  99:../Middlewares/stm32-vision-models-postprocessing/lib_vision_models_pp/Src/od_pp_yolo_d.c ****   int32_t j, k, limit_counter, detections_per_class;
 224              		.loc 1 99 1 is_stmt 0 view .LVU67
ARM GAS  /tmp/ccUSEqtX.s 			page 7


 225 0000 2DE9F74F 		push	{r0, r1, r2, r4, r5, r6, r7, r8, r9, r10, fp, lr}
 226              		.cfi_def_cfa_offset 48
 227              		.cfi_offset 4, -36
 228              		.cfi_offset 5, -32
 229              		.cfi_offset 6, -28
 230              		.cfi_offset 7, -24
 231              		.cfi_offset 8, -20
 232              		.cfi_offset 9, -16
 233              		.cfi_offset 10, -12
 234              		.cfi_offset 11, -8
 235              		.cfi_offset 14, -4
  99:../Middlewares/stm32-vision-models-postprocessing/lib_vision_models_pp/Src/od_pp_yolo_d.c ****   int32_t j, k, limit_counter, detections_per_class;
 236              		.loc 1 99 1 view .LVU68
 237 0004 0546     		mov	r5, r0
 238 0006 0E46     		mov	r6, r1
 239              		.loc 1 102 10 view .LVU69
 240 0008 0027     		movs	r7, #0
 241              	.LBB2:
 242              	.LBB3:
 243              	.LBB4:
 103:../Middlewares/stm32-vision-models-postprocessing/lib_vision_models_pp/Src/od_pp_yolo_d.c ****   {
 104:../Middlewares/stm32-vision-models-postprocessing/lib_vision_models_pp/Src/od_pp_yolo_d.c ****     limit_counter = 0;
 105:../Middlewares/stm32-vision-models-postprocessing/lib_vision_models_pp/Src/od_pp_yolo_d.c ****     detections_per_class = 0;
 106:../Middlewares/stm32-vision-models-postprocessing/lib_vision_models_pp/Src/od_pp_yolo_d.c ****     AI_YOLO_D_PP_SORT_CLASS = k;
 107:../Middlewares/stm32-vision-models-postprocessing/lib_vision_models_pp/Src/od_pp_yolo_d.c **** 
 108:../Middlewares/stm32-vision-models-postprocessing/lib_vision_models_pp/Src/od_pp_yolo_d.c ****     /* Counts the number of detections with class k */
 109:../Middlewares/stm32-vision-models-postprocessing/lib_vision_models_pp/Src/od_pp_yolo_d.c ****     for (int32_t i = 0; i < pInput_static_param->nb_detect ; i ++)
 110:../Middlewares/stm32-vision-models-postprocessing/lib_vision_models_pp/Src/od_pp_yolo_d.c ****     {
 111:../Middlewares/stm32-vision-models-postprocessing/lib_vision_models_pp/Src/od_pp_yolo_d.c ****       if(pOutput->pOutBuff[i].class_index == k)
 112:../Middlewares/stm32-vision-models-postprocessing/lib_vision_models_pp/Src/od_pp_yolo_d.c ****       {
 113:../Middlewares/stm32-vision-models-postprocessing/lib_vision_models_pp/Src/od_pp_yolo_d.c ****           detections_per_class++;
 114:../Middlewares/stm32-vision-models-postprocessing/lib_vision_models_pp/Src/od_pp_yolo_d.c ****       }
 115:../Middlewares/stm32-vision-models-postprocessing/lib_vision_models_pp/Src/od_pp_yolo_d.c ****     }
 116:../Middlewares/stm32-vision-models-postprocessing/lib_vision_models_pp/Src/od_pp_yolo_d.c **** 
 117:../Middlewares/stm32-vision-models-postprocessing/lib_vision_models_pp/Src/od_pp_yolo_d.c ****     if (detections_per_class > 0)
 118:../Middlewares/stm32-vision-models-postprocessing/lib_vision_models_pp/Src/od_pp_yolo_d.c ****     {
 119:../Middlewares/stm32-vision-models-postprocessing/lib_vision_models_pp/Src/od_pp_yolo_d.c ****       /* Sorts detections based on class k */
 120:../Middlewares/stm32-vision-models-postprocessing/lib_vision_models_pp/Src/od_pp_yolo_d.c ****       qsort(pOutput->pOutBuff,
 121:../Middlewares/stm32-vision-models-postprocessing/lib_vision_models_pp/Src/od_pp_yolo_d.c ****             pInput_static_param->nb_detect,
 122:../Middlewares/stm32-vision-models-postprocessing/lib_vision_models_pp/Src/od_pp_yolo_d.c ****             sizeof(od_pp_outBuffer_t),
 123:../Middlewares/stm32-vision-models-postprocessing/lib_vision_models_pp/Src/od_pp_yolo_d.c ****             yolov_d_nms_comparator);
 124:../Middlewares/stm32-vision-models-postprocessing/lib_vision_models_pp/Src/od_pp_yolo_d.c **** 
 125:../Middlewares/stm32-vision-models-postprocessing/lib_vision_models_pp/Src/od_pp_yolo_d.c ****       for (int32_t i = 0; i < detections_per_class ; i ++)
 126:../Middlewares/stm32-vision-models-postprocessing/lib_vision_models_pp/Src/od_pp_yolo_d.c ****       {
 127:../Middlewares/stm32-vision-models-postprocessing/lib_vision_models_pp/Src/od_pp_yolo_d.c ****         if (pOutput->pOutBuff[i].conf == 0) continue; // Already filtered
 128:../Middlewares/stm32-vision-models-postprocessing/lib_vision_models_pp/Src/od_pp_yolo_d.c ****         float32_t *a = &(pOutput->pOutBuff[i].x_center);
 129:../Middlewares/stm32-vision-models-postprocessing/lib_vision_models_pp/Src/od_pp_yolo_d.c ****         for (j = i + 1; j < detections_per_class; j ++)
 130:../Middlewares/stm32-vision-models-postprocessing/lib_vision_models_pp/Src/od_pp_yolo_d.c ****         {
 131:../Middlewares/stm32-vision-models-postprocessing/lib_vision_models_pp/Src/od_pp_yolo_d.c ****           if (pOutput->pOutBuff[j].conf == 0) continue; // Already filtered
 244              		.loc 1 131 14 view .LVU70
 245 000a 4FF00009 		mov	r9, #0
 246              	.LVL24:
 247              	.L20:
 248              		.loc 1 131 14 view .LVU71
 249              	.LBE4:
 250              	.LBE3:
 251              	.LBE2:
ARM GAS  /tmp/ccUSEqtX.s 			page 8


 102:../Middlewares/stm32-vision-models-postprocessing/lib_vision_models_pp/Src/od_pp_yolo_d.c ****   {
 252              		.loc 1 102 17 is_stmt 1 discriminator 1 view .LVU72
 253 000e 3368     		ldr	r3, [r6]
 254 0010 BB42     		cmp	r3, r7
 255 0012 03DC     		bgt	.L39
 132:../Middlewares/stm32-vision-models-postprocessing/lib_vision_models_pp/Src/od_pp_yolo_d.c ****           float32_t *b = &(pOutput->pOutBuff[j].x_center);
 133:../Middlewares/stm32-vision-models-postprocessing/lib_vision_models_pp/Src/od_pp_yolo_d.c ****           if (vision_models_box_iou(a, b) > pInput_static_param->iou_threshold)
 134:../Middlewares/stm32-vision-models-postprocessing/lib_vision_models_pp/Src/od_pp_yolo_d.c ****           {
 135:../Middlewares/stm32-vision-models-postprocessing/lib_vision_models_pp/Src/od_pp_yolo_d.c ****             pOutput->pOutBuff[j].conf = 0;
 136:../Middlewares/stm32-vision-models-postprocessing/lib_vision_models_pp/Src/od_pp_yolo_d.c ****           }
 137:../Middlewares/stm32-vision-models-postprocessing/lib_vision_models_pp/Src/od_pp_yolo_d.c ****         }
 138:../Middlewares/stm32-vision-models-postprocessing/lib_vision_models_pp/Src/od_pp_yolo_d.c ****       }
 139:../Middlewares/stm32-vision-models-postprocessing/lib_vision_models_pp/Src/od_pp_yolo_d.c **** 
 140:../Middlewares/stm32-vision-models-postprocessing/lib_vision_models_pp/Src/od_pp_yolo_d.c ****       /* Limits detections count */
 141:../Middlewares/stm32-vision-models-postprocessing/lib_vision_models_pp/Src/od_pp_yolo_d.c ****       for (int32_t i = 0; i < detections_per_class; i++)
 142:../Middlewares/stm32-vision-models-postprocessing/lib_vision_models_pp/Src/od_pp_yolo_d.c ****       {
 143:../Middlewares/stm32-vision-models-postprocessing/lib_vision_models_pp/Src/od_pp_yolo_d.c ****         if ((limit_counter < pInput_static_param->max_boxes_limit) &&
 144:../Middlewares/stm32-vision-models-postprocessing/lib_vision_models_pp/Src/od_pp_yolo_d.c ****             (pOutput->pOutBuff[i].conf != 0))
 145:../Middlewares/stm32-vision-models-postprocessing/lib_vision_models_pp/Src/od_pp_yolo_d.c ****         {
 146:../Middlewares/stm32-vision-models-postprocessing/lib_vision_models_pp/Src/od_pp_yolo_d.c ****           limit_counter++;
 147:../Middlewares/stm32-vision-models-postprocessing/lib_vision_models_pp/Src/od_pp_yolo_d.c ****         }
 148:../Middlewares/stm32-vision-models-postprocessing/lib_vision_models_pp/Src/od_pp_yolo_d.c ****         else
 149:../Middlewares/stm32-vision-models-postprocessing/lib_vision_models_pp/Src/od_pp_yolo_d.c ****         {
 150:../Middlewares/stm32-vision-models-postprocessing/lib_vision_models_pp/Src/od_pp_yolo_d.c ****           pOutput->pOutBuff[i].conf = 0;
 151:../Middlewares/stm32-vision-models-postprocessing/lib_vision_models_pp/Src/od_pp_yolo_d.c ****         }
 152:../Middlewares/stm32-vision-models-postprocessing/lib_vision_models_pp/Src/od_pp_yolo_d.c ****       } // for detection_per_class
 153:../Middlewares/stm32-vision-models-postprocessing/lib_vision_models_pp/Src/od_pp_yolo_d.c ****     } // if detection_per_class
 154:../Middlewares/stm32-vision-models-postprocessing/lib_vision_models_pp/Src/od_pp_yolo_d.c ****   } // for nb_classes
 155:../Middlewares/stm32-vision-models-postprocessing/lib_vision_models_pp/Src/od_pp_yolo_d.c ****   return (AI_OD_POSTPROCESS_ERROR_NO);
 256              		.loc 1 155 3 view .LVU73
 156:../Middlewares/stm32-vision-models-postprocessing/lib_vision_models_pp/Src/od_pp_yolo_d.c **** }
 257              		.loc 1 156 1 is_stmt 0 view .LVU74
 258 0014 0020     		movs	r0, #0
 259 0016 03B0     		add	sp, sp, #12
 260              		.cfi_remember_state
 261              		.cfi_def_cfa_offset 36
 262              		@ sp needed
 263 0018 BDE8F08F 		pop	{r4, r5, r6, r7, r8, r9, r10, fp, pc}
 264              	.LVL25:
 265              	.L39:
 266              		.cfi_restore_state
 104:../Middlewares/stm32-vision-models-postprocessing/lib_vision_models_pp/Src/od_pp_yolo_d.c ****     detections_per_class = 0;
 267              		.loc 1 104 5 is_stmt 1 view .LVU75
 105:../Middlewares/stm32-vision-models-postprocessing/lib_vision_models_pp/Src/od_pp_yolo_d.c ****     AI_YOLO_D_PP_SORT_CLASS = k;
 268              		.loc 1 105 5 view .LVU76
 106:../Middlewares/stm32-vision-models-postprocessing/lib_vision_models_pp/Src/od_pp_yolo_d.c **** 
 269              		.loc 1 106 5 view .LVU77
 106:../Middlewares/stm32-vision-models-postprocessing/lib_vision_models_pp/Src/od_pp_yolo_d.c **** 
 270              		.loc 1 106 29 is_stmt 0 view .LVU78
 271 001c 344B     		ldr	r3, .L44
 272              	.LBB8:
 111:../Middlewares/stm32-vision-models-postprocessing/lib_vision_models_pp/Src/od_pp_yolo_d.c ****       {
 273              		.loc 1 111 30 view .LVU79
 274 001e 4FF0180C 		mov	ip, #24
 275              	.LBE8:
 106:../Middlewares/stm32-vision-models-postprocessing/lib_vision_models_pp/Src/od_pp_yolo_d.c **** 
 276              		.loc 1 106 29 view .LVU80
ARM GAS  /tmp/ccUSEqtX.s 			page 9


 277 0022 1F60     		str	r7, [r3]
 109:../Middlewares/stm32-vision-models-postprocessing/lib_vision_models_pp/Src/od_pp_yolo_d.c ****     {
 278              		.loc 1 109 5 is_stmt 1 view .LVU81
 279              	.LBB9:
 109:../Middlewares/stm32-vision-models-postprocessing/lib_vision_models_pp/Src/od_pp_yolo_d.c ****     {
 280              		.loc 1 109 10 view .LVU82
 281              	.LVL26:
 109:../Middlewares/stm32-vision-models-postprocessing/lib_vision_models_pp/Src/od_pp_yolo_d.c ****     {
 282              		.loc 1 109 18 is_stmt 0 view .LVU83
 283 0024 0023     		movs	r3, #0
 284              	.LBE9:
 105:../Middlewares/stm32-vision-models-postprocessing/lib_vision_models_pp/Src/od_pp_yolo_d.c ****     AI_YOLO_D_PP_SORT_CLASS = k;
 285              		.loc 1 105 26 view .LVU84
 286 0026 1C46     		mov	r4, r3
 287              	.LBB10:
 109:../Middlewares/stm32-vision-models-postprocessing/lib_vision_models_pp/Src/od_pp_yolo_d.c ****     {
 288              		.loc 1 109 48 discriminator 1 view .LVU85
 289 0028 F169     		ldr	r1, [r6, #28]
 111:../Middlewares/stm32-vision-models-postprocessing/lib_vision_models_pp/Src/od_pp_yolo_d.c ****       {
 290              		.loc 1 111 30 view .LVU86
 291 002a 4A1C     		adds	r2, r1, #1
 292              	.LVL27:
 293              	.L21:
 109:../Middlewares/stm32-vision-models-postprocessing/lib_vision_models_pp/Src/od_pp_yolo_d.c ****     {
 294              		.loc 1 109 27 is_stmt 1 discriminator 1 view .LVU87
 295 002c 013A     		subs	r2, r2, #1
 296 002e 02D1     		bne	.L23
 297              	.LBE10:
 117:../Middlewares/stm32-vision-models-postprocessing/lib_vision_models_pp/Src/od_pp_yolo_d.c ****     {
 298              		.loc 1 117 5 view .LVU88
 117:../Middlewares/stm32-vision-models-postprocessing/lib_vision_models_pp/Src/od_pp_yolo_d.c ****     {
 299              		.loc 1 117 8 is_stmt 0 view .LVU89
 300 0030 54B9     		cbnz	r4, .L24
 301              	.LVL28:
 302              	.L38:
 102:../Middlewares/stm32-vision-models-postprocessing/lib_vision_models_pp/Src/od_pp_yolo_d.c ****   {
 303              		.loc 1 102 52 is_stmt 1 discriminator 2 view .LVU90
 304 0032 0137     		adds	r7, r7, #1
 305              	.LVL29:
 102:../Middlewares/stm32-vision-models-postprocessing/lib_vision_models_pp/Src/od_pp_yolo_d.c ****   {
 306              		.loc 1 102 52 is_stmt 0 discriminator 2 view .LVU91
 307 0034 EBE7     		b	.L20
 308              	.LVL30:
 309              	.L23:
 310              	.LBB11:
 111:../Middlewares/stm32-vision-models-postprocessing/lib_vision_models_pp/Src/od_pp_yolo_d.c ****       {
 311              		.loc 1 111 7 is_stmt 1 view .LVU92
 111:../Middlewares/stm32-vision-models-postprocessing/lib_vision_models_pp/Src/od_pp_yolo_d.c ****       {
 312              		.loc 1 111 30 is_stmt 0 view .LVU93
 313 0036 2868     		ldr	r0, [r5]
 314 0038 0CFB0300 		mla	r0, ip, r3, r0
 111:../Middlewares/stm32-vision-models-postprocessing/lib_vision_models_pp/Src/od_pp_yolo_d.c ****       {
 315              		.loc 1 111 9 view .LVU94
 316 003c 4069     		ldr	r0, [r0, #20]
 109:../Middlewares/stm32-vision-models-postprocessing/lib_vision_models_pp/Src/od_pp_yolo_d.c ****     {
 317              		.loc 1 109 64 discriminator 2 view .LVU95
 318 003e 0133     		adds	r3, r3, #1
ARM GAS  /tmp/ccUSEqtX.s 			page 10


 319              	.LVL31:
 113:../Middlewares/stm32-vision-models-postprocessing/lib_vision_models_pp/Src/od_pp_yolo_d.c ****       }
 320              		.loc 1 113 31 view .LVU96
 321 0040 B842     		cmp	r0, r7
 322 0042 54EA1494 		cinc	r4, r4, eq
 323              	.LVL32:
 109:../Middlewares/stm32-vision-models-postprocessing/lib_vision_models_pp/Src/od_pp_yolo_d.c ****     {
 324              		.loc 1 109 64 is_stmt 1 discriminator 2 view .LVU97
 325 0046 F1E7     		b	.L21
 326              	.LVL33:
 327              	.L24:
 109:../Middlewares/stm32-vision-models-postprocessing/lib_vision_models_pp/Src/od_pp_yolo_d.c ****     {
 328              		.loc 1 109 64 is_stmt 0 discriminator 2 view .LVU98
 329              	.LBE11:
 120:../Middlewares/stm32-vision-models-postprocessing/lib_vision_models_pp/Src/od_pp_yolo_d.c ****             pInput_static_param->nb_detect,
 330              		.loc 1 120 7 is_stmt 1 view .LVU99
 331 0048 2A4B     		ldr	r3, .L44+4
 332              	.LVL34:
 120:../Middlewares/stm32-vision-models-postprocessing/lib_vision_models_pp/Src/od_pp_yolo_d.c ****             pInput_static_param->nb_detect,
 333              		.loc 1 120 7 is_stmt 0 view .LVU100
 334 004a 1822     		movs	r2, #24
 335 004c 2868     		ldr	r0, [r5]
 336 004e FFF7FEFF 		bl	qsort
 337              	.LVL35:
 125:../Middlewares/stm32-vision-models-postprocessing/lib_vision_models_pp/Src/od_pp_yolo_d.c ****       {
 338              		.loc 1 125 7 is_stmt 1 view .LVU101
 339              	.LBB12:
 125:../Middlewares/stm32-vision-models-postprocessing/lib_vision_models_pp/Src/od_pp_yolo_d.c ****       {
 340              		.loc 1 125 12 view .LVU102
 125:../Middlewares/stm32-vision-models-postprocessing/lib_vision_models_pp/Src/od_pp_yolo_d.c ****       {
 341              		.loc 1 125 29 discriminator 1 view .LVU103
 125:../Middlewares/stm32-vision-models-postprocessing/lib_vision_models_pp/Src/od_pp_yolo_d.c ****       {
 342              		.loc 1 125 20 is_stmt 0 view .LVU104
 343 0052 4FF00008 		mov	r8, #0
 344              	.LBB6:
 127:../Middlewares/stm32-vision-models-postprocessing/lib_vision_models_pp/Src/od_pp_yolo_d.c ****         float32_t *a = &(pOutput->pOutBuff[i].x_center);
 345              		.loc 1 127 30 view .LVU105
 346 0056 1823     		movs	r3, #24
 347              	.LVL36:
 348              	.L26:
 127:../Middlewares/stm32-vision-models-postprocessing/lib_vision_models_pp/Src/od_pp_yolo_d.c ****         float32_t *a = &(pOutput->pOutBuff[i].x_center);
 349              		.loc 1 127 9 is_stmt 1 view .LVU106
 127:../Middlewares/stm32-vision-models-postprocessing/lib_vision_models_pp/Src/od_pp_yolo_d.c ****         float32_t *a = &(pOutput->pOutBuff[i].x_center);
 350              		.loc 1 127 30 is_stmt 0 view .LVU107
 351 0058 2A68     		ldr	r2, [r5]
 352 005a 03FB082B 		mla	fp, r3, r8, r2
 127:../Middlewares/stm32-vision-models-postprocessing/lib_vision_models_pp/Src/od_pp_yolo_d.c ****         float32_t *a = &(pOutput->pOutBuff[i].x_center);
 353              		.loc 1 127 12 view .LVU108
 354 005e DBED047A 		vldr.32	s15, [fp, #16]
 355 0062 F5EE407A 		vcmp.f32	s15, #0
 356 0066 F1EE10FA 		vmrs	APSR_nzcv, FPSCR
 129:../Middlewares/stm32-vision-models-postprocessing/lib_vision_models_pp/Src/od_pp_yolo_d.c ****         {
 357              		.loc 1 129 16 view .LVU109
 358 006a 08F10108 		add	r8, r8, #1
 359              	.LVL37:
 127:../Middlewares/stm32-vision-models-postprocessing/lib_vision_models_pp/Src/od_pp_yolo_d.c ****         float32_t *a = &(pOutput->pOutBuff[i].x_center);
 360              		.loc 1 127 12 view .LVU110
ARM GAS  /tmp/ccUSEqtX.s 			page 11


 361 006e 19D1     		bne	.L25
 362              	.L34:
 363              	.LBE6:
 125:../Middlewares/stm32-vision-models-postprocessing/lib_vision_models_pp/Src/od_pp_yolo_d.c ****       {
 364              		.loc 1 125 56 is_stmt 1 discriminator 2 view .LVU111
 365              	.LVL38:
 125:../Middlewares/stm32-vision-models-postprocessing/lib_vision_models_pp/Src/od_pp_yolo_d.c ****       {
 366              		.loc 1 125 29 discriminator 1 view .LVU112
 367 0070 4445     		cmp	r4, r8
 368 0072 F1D1     		bne	.L26
 369              	.LBE12:
 370              	.LBB13:
 141:../Middlewares/stm32-vision-models-postprocessing/lib_vision_models_pp/Src/od_pp_yolo_d.c ****       {
 371              		.loc 1 141 20 is_stmt 0 view .LVU113
 372 0074 0023     		movs	r3, #0
 144:../Middlewares/stm32-vision-models-postprocessing/lib_vision_models_pp/Src/od_pp_yolo_d.c ****         {
 373              		.loc 1 144 31 view .LVU114
 374 0076 4FF0180E 		mov	lr, #24
 375              	.LBE13:
 104:../Middlewares/stm32-vision-models-postprocessing/lib_vision_models_pp/Src/od_pp_yolo_d.c ****     detections_per_class = 0;
 376              		.loc 1 104 19 view .LVU115
 377 007a 1A46     		mov	r2, r3
 378              	.LBB14:
 143:../Middlewares/stm32-vision-models-postprocessing/lib_vision_models_pp/Src/od_pp_yolo_d.c ****             (pOutput->pOutBuff[i].conf != 0))
 379              		.loc 1 143 49 view .LVU116
 380 007c F068     		ldr	r0, [r6, #12]
 144:../Middlewares/stm32-vision-models-postprocessing/lib_vision_models_pp/Src/od_pp_yolo_d.c ****         {
 381              		.loc 1 144 21 view .LVU117
 382 007e D5F800C0 		ldr	ip, [r5]
 383              	.LVL39:
 384              	.L37:
 143:../Middlewares/stm32-vision-models-postprocessing/lib_vision_models_pp/Src/od_pp_yolo_d.c ****             (pOutput->pOutBuff[i].conf != 0))
 385              		.loc 1 143 9 is_stmt 1 view .LVU118
 143:../Middlewares/stm32-vision-models-postprocessing/lib_vision_models_pp/Src/od_pp_yolo_d.c ****             (pOutput->pOutBuff[i].conf != 0))
 386              		.loc 1 143 12 is_stmt 0 view .LVU119
 387 0082 9042     		cmp	r0, r2
 144:../Middlewares/stm32-vision-models-postprocessing/lib_vision_models_pp/Src/od_pp_yolo_d.c ****         {
 388              		.loc 1 144 31 view .LVU120
 389 0084 0EFB03C1 		mla	r1, lr, r3, ip
 143:../Middlewares/stm32-vision-models-postprocessing/lib_vision_models_pp/Src/od_pp_yolo_d.c ****             (pOutput->pOutBuff[i].conf != 0))
 390              		.loc 1 143 12 view .LVU121
 391 0088 2FDD     		ble	.L35
 143:../Middlewares/stm32-vision-models-postprocessing/lib_vision_models_pp/Src/od_pp_yolo_d.c ****             (pOutput->pOutBuff[i].conf != 0))
 392              		.loc 1 143 68 discriminator 1 view .LVU122
 393 008a D1ED047A 		vldr.32	s15, [r1, #16]
 394 008e F5EE407A 		vcmp.f32	s15, #0
 395 0092 F1EE10FA 		vmrs	APSR_nzcv, FPSCR
 396 0096 28D0     		beq	.L35
 146:../Middlewares/stm32-vision-models-postprocessing/lib_vision_models_pp/Src/od_pp_yolo_d.c ****         }
 397              		.loc 1 146 11 is_stmt 1 view .LVU123
 146:../Middlewares/stm32-vision-models-postprocessing/lib_vision_models_pp/Src/od_pp_yolo_d.c ****         }
 398              		.loc 1 146 24 is_stmt 0 view .LVU124
 399 0098 0132     		adds	r2, r2, #1
 400              	.LVL40:
 401              	.L36:
 141:../Middlewares/stm32-vision-models-postprocessing/lib_vision_models_pp/Src/od_pp_yolo_d.c ****       {
 402              		.loc 1 141 54 is_stmt 1 discriminator 2 view .LVU125
ARM GAS  /tmp/ccUSEqtX.s 			page 12


 141:../Middlewares/stm32-vision-models-postprocessing/lib_vision_models_pp/Src/od_pp_yolo_d.c ****       {
 403              		.loc 1 141 29 is_stmt 0 discriminator 1 view .LVU126
 404 009a 013C     		subs	r4, r4, #1
 141:../Middlewares/stm32-vision-models-postprocessing/lib_vision_models_pp/Src/od_pp_yolo_d.c ****       {
 405              		.loc 1 141 54 discriminator 2 view .LVU127
 406 009c 03F10103 		add	r3, r3, #1
 407              	.LVL41:
 141:../Middlewares/stm32-vision-models-postprocessing/lib_vision_models_pp/Src/od_pp_yolo_d.c ****       {
 408              		.loc 1 141 29 is_stmt 1 discriminator 1 view .LVU128
 409 00a0 EFD1     		bne	.L37
 141:../Middlewares/stm32-vision-models-postprocessing/lib_vision_models_pp/Src/od_pp_yolo_d.c ****       {
 410              		.loc 1 141 29 is_stmt 0 discriminator 1 view .LVU129
 411 00a2 C6E7     		b	.L38
 412              	.LVL42:
 413              	.L25:
 141:../Middlewares/stm32-vision-models-postprocessing/lib_vision_models_pp/Src/od_pp_yolo_d.c ****       {
 414              		.loc 1 141 29 discriminator 1 view .LVU130
 415              	.LBE14:
 416              	.LBB15:
 417              	.LBB7:
 128:../Middlewares/stm32-vision-models-postprocessing/lib_vision_models_pp/Src/od_pp_yolo_d.c ****         for (j = i + 1; j < detections_per_class; j ++)
 418              		.loc 1 128 9 is_stmt 1 view .LVU131
 129:../Middlewares/stm32-vision-models-postprocessing/lib_vision_models_pp/Src/od_pp_yolo_d.c ****         {
 419              		.loc 1 129 9 view .LVU132
 129:../Middlewares/stm32-vision-models-postprocessing/lib_vision_models_pp/Src/od_pp_yolo_d.c ****         {
 420              		.loc 1 129 16 is_stmt 0 view .LVU133
 421 00a4 C246     		mov	r10, r8
 422              	.LVL43:
 423              	.L28:
 129:../Middlewares/stm32-vision-models-postprocessing/lib_vision_models_pp/Src/od_pp_yolo_d.c ****         {
 424              		.loc 1 129 27 is_stmt 1 discriminator 1 view .LVU134
 425 00a6 A245     		cmp	r10, r4
 426 00a8 E2DA     		bge	.L34
 427              	.LBB5:
 131:../Middlewares/stm32-vision-models-postprocessing/lib_vision_models_pp/Src/od_pp_yolo_d.c ****           float32_t *b = &(pOutput->pOutBuff[j].x_center);
 428              		.loc 1 131 11 view .LVU135
 429 00aa 03FB0AF2 		mul	r2, r3, r10
 131:../Middlewares/stm32-vision-models-postprocessing/lib_vision_models_pp/Src/od_pp_yolo_d.c ****           float32_t *b = &(pOutput->pOutBuff[j].x_center);
 430              		.loc 1 131 32 is_stmt 0 view .LVU136
 431 00ae 2968     		ldr	r1, [r5]
 432 00b0 0192     		str	r2, [sp, #4]
 433 00b2 1144     		add	r1, r1, r2
 131:../Middlewares/stm32-vision-models-postprocessing/lib_vision_models_pp/Src/od_pp_yolo_d.c ****           float32_t *b = &(pOutput->pOutBuff[j].x_center);
 434              		.loc 1 131 14 view .LVU137
 435 00b4 D1ED047A 		vldr.32	s15, [r1, #16]
 436 00b8 F5EE407A 		vcmp.f32	s15, #0
 437 00bc F1EE10FA 		vmrs	APSR_nzcv, FPSCR
 438 00c0 10D0     		beq	.L30
 132:../Middlewares/stm32-vision-models-postprocessing/lib_vision_models_pp/Src/od_pp_yolo_d.c ****           if (vision_models_box_iou(a, b) > pInput_static_param->iou_threshold)
 439              		.loc 1 132 11 is_stmt 1 view .LVU138
 440              	.LVL44:
 133:../Middlewares/stm32-vision-models-postprocessing/lib_vision_models_pp/Src/od_pp_yolo_d.c ****           {
 441              		.loc 1 133 11 view .LVU139
 133:../Middlewares/stm32-vision-models-postprocessing/lib_vision_models_pp/Src/od_pp_yolo_d.c ****           {
 442              		.loc 1 133 15 is_stmt 0 view .LVU140
 443 00c2 5846     		mov	r0, fp
 444 00c4 FFF7FEFF 		bl	vision_models_box_iou
ARM GAS  /tmp/ccUSEqtX.s 			page 13


 445              	.LVL45:
 133:../Middlewares/stm32-vision-models-postprocessing/lib_vision_models_pp/Src/od_pp_yolo_d.c ****           {
 446              		.loc 1 133 14 discriminator 1 view .LVU141
 447 00c8 D6ED057A 		vldr.32	s15, [r6, #20]
 448 00cc B4EEE70A 		vcmpe.f32	s0, s15
 449 00d0 F1EE10FA 		vmrs	APSR_nzcv, FPSCR
 450 00d4 4FF01803 		mov	r3, #24
 135:../Middlewares/stm32-vision-models-postprocessing/lib_vision_models_pp/Src/od_pp_yolo_d.c ****           }
 451              		.loc 1 135 13 is_stmt 1 view .LVU142
 135:../Middlewares/stm32-vision-models-postprocessing/lib_vision_models_pp/Src/od_pp_yolo_d.c ****           }
 452              		.loc 1 135 39 is_stmt 0 view .LVU143
 453 00d8 C1BF     		itttt	gt
 454 00da 2968     		ldrgt	r1, [r5]
 455 00dc 019A     		ldrgt	r2, [sp, #4]
 456 00de 8918     		addgt	r1, r1, r2
 457 00e0 C1F81090 		strgt	r9, [r1, #16]	@ float
 458              	.LVL46:
 459              	.L30:
 135:../Middlewares/stm32-vision-models-postprocessing/lib_vision_models_pp/Src/od_pp_yolo_d.c ****           }
 460              		.loc 1 135 39 view .LVU144
 461              	.LBE5:
 129:../Middlewares/stm32-vision-models-postprocessing/lib_vision_models_pp/Src/od_pp_yolo_d.c ****         {
 462              		.loc 1 129 53 is_stmt 1 discriminator 2 view .LVU145
 463 00e4 0AF1010A 		add	r10, r10, #1
 464              	.LVL47:
 129:../Middlewares/stm32-vision-models-postprocessing/lib_vision_models_pp/Src/od_pp_yolo_d.c ****         {
 465              		.loc 1 129 53 is_stmt 0 discriminator 2 view .LVU146
 466 00e8 DDE7     		b	.L28
 467              	.LVL48:
 468              	.L35:
 129:../Middlewares/stm32-vision-models-postprocessing/lib_vision_models_pp/Src/od_pp_yolo_d.c ****         {
 469              		.loc 1 129 53 discriminator 2 view .LVU147
 470              	.LBE7:
 471              	.LBE15:
 472              	.LBB16:
 150:../Middlewares/stm32-vision-models-postprocessing/lib_vision_models_pp/Src/od_pp_yolo_d.c ****         }
 473              		.loc 1 150 11 is_stmt 1 view .LVU148
 150:../Middlewares/stm32-vision-models-postprocessing/lib_vision_models_pp/Src/od_pp_yolo_d.c ****         }
 474              		.loc 1 150 37 is_stmt 0 view .LVU149
 475 00ea C1F81090 		str	r9, [r1, #16]	@ float
 476 00ee D4E7     		b	.L36
 477              	.L45:
 478              		.align	2
 479              	.L44:
 480 00f0 00000000 		.word	AI_YOLO_D_PP_SORT_CLASS
 481 00f4 00000000 		.word	yolov_d_nms_comparator
 482              	.LBE16:
 483              		.cfi_endproc
 484              	.LFE776:
 486              		.section	.text.yolov_d_pp_nmsFiltering_centroid_is8,"ax",%progbits
 487              		.align	1
 488              		.global	yolov_d_pp_nmsFiltering_centroid_is8
 489              		.syntax unified
 490              		.thumb
 491              		.thumb_func
 493              	yolov_d_pp_nmsFiltering_centroid_is8:
 494              	.LVL49:
ARM GAS  /tmp/ccUSEqtX.s 			page 14


 495              	.LFB777:
 157:../Middlewares/stm32-vision-models-postprocessing/lib_vision_models_pp/Src/od_pp_yolo_d.c **** 
 158:../Middlewares/stm32-vision-models-postprocessing/lib_vision_models_pp/Src/od_pp_yolo_d.c **** int32_t yolov_d_pp_nmsFiltering_centroid_is8(od_yolo_d_pp_scratch_s8_t *ptrScratch,
 159:../Middlewares/stm32-vision-models-postprocessing/lib_vision_models_pp/Src/od_pp_yolo_d.c ****                                             od_yolo_d_pp_static_param_t *pInput_static_param)
 160:../Middlewares/stm32-vision-models-postprocessing/lib_vision_models_pp/Src/od_pp_yolo_d.c **** {
 496              		.loc 1 160 1 is_stmt 1 view -0
 497              		.cfi_startproc
 498              		@ args = 0, pretend = 0, frame = 16
 499              		@ frame_needed = 0, uses_anonymous_args = 0
 161:../Middlewares/stm32-vision-models-postprocessing/lib_vision_models_pp/Src/od_pp_yolo_d.c ****   int32_t j, k, limit_counter, detections_per_class;
 500              		.loc 1 161 3 view .LVU151
 162:../Middlewares/stm32-vision-models-postprocessing/lib_vision_models_pp/Src/od_pp_yolo_d.c **** 
 163:../Middlewares/stm32-vision-models-postprocessing/lib_vision_models_pp/Src/od_pp_yolo_d.c ****   for (k = 0; k < pInput_static_param->nb_classes; ++k)
 501              		.loc 1 163 3 view .LVU152
 160:../Middlewares/stm32-vision-models-postprocessing/lib_vision_models_pp/Src/od_pp_yolo_d.c ****   int32_t j, k, limit_counter, detections_per_class;
 502              		.loc 1 160 1 is_stmt 0 view .LVU153
 503 0000 2DE9F04F 		push	{r4, r5, r6, r7, r8, r9, r10, fp, lr}
 504              		.cfi_def_cfa_offset 36
 505              		.cfi_offset 4, -36
 506              		.cfi_offset 5, -32
 507              		.cfi_offset 6, -28
 508              		.cfi_offset 7, -24
 509              		.cfi_offset 8, -20
 510              		.cfi_offset 9, -16
 511              		.cfi_offset 10, -12
 512              		.cfi_offset 11, -8
 513              		.cfi_offset 14, -4
 514 0004 0646     		mov	r6, r0
 515 0006 0D46     		mov	r5, r1
 516              		.loc 1 163 10 view .LVU154
 517 0008 0027     		movs	r7, #0
 518              	.LBB17:
 519              	.LBB18:
 520              	.LBB19:
 164:../Middlewares/stm32-vision-models-postprocessing/lib_vision_models_pp/Src/od_pp_yolo_d.c ****   {
 165:../Middlewares/stm32-vision-models-postprocessing/lib_vision_models_pp/Src/od_pp_yolo_d.c ****     limit_counter = 0;
 166:../Middlewares/stm32-vision-models-postprocessing/lib_vision_models_pp/Src/od_pp_yolo_d.c ****     detections_per_class = 0;
 167:../Middlewares/stm32-vision-models-postprocessing/lib_vision_models_pp/Src/od_pp_yolo_d.c ****     AI_YOLO_D_PP_SORT_CLASS = k;
 168:../Middlewares/stm32-vision-models-postprocessing/lib_vision_models_pp/Src/od_pp_yolo_d.c **** 
 169:../Middlewares/stm32-vision-models-postprocessing/lib_vision_models_pp/Src/od_pp_yolo_d.c ****     /* Counts the number of detections with class k */
 170:../Middlewares/stm32-vision-models-postprocessing/lib_vision_models_pp/Src/od_pp_yolo_d.c ****     for (int32_t i = 0; i < pInput_static_param->nb_detect ; i ++)
 171:../Middlewares/stm32-vision-models-postprocessing/lib_vision_models_pp/Src/od_pp_yolo_d.c ****     {
 172:../Middlewares/stm32-vision-models-postprocessing/lib_vision_models_pp/Src/od_pp_yolo_d.c ****       if(ptrScratch[i].class_index == k)
 173:../Middlewares/stm32-vision-models-postprocessing/lib_vision_models_pp/Src/od_pp_yolo_d.c ****       {
 174:../Middlewares/stm32-vision-models-postprocessing/lib_vision_models_pp/Src/od_pp_yolo_d.c ****         detections_per_class++;
 175:../Middlewares/stm32-vision-models-postprocessing/lib_vision_models_pp/Src/od_pp_yolo_d.c ****       }
 176:../Middlewares/stm32-vision-models-postprocessing/lib_vision_models_pp/Src/od_pp_yolo_d.c ****     }
 177:../Middlewares/stm32-vision-models-postprocessing/lib_vision_models_pp/Src/od_pp_yolo_d.c **** 
 178:../Middlewares/stm32-vision-models-postprocessing/lib_vision_models_pp/Src/od_pp_yolo_d.c ****     if (detections_per_class > 0)
 179:../Middlewares/stm32-vision-models-postprocessing/lib_vision_models_pp/Src/od_pp_yolo_d.c ****     {
 180:../Middlewares/stm32-vision-models-postprocessing/lib_vision_models_pp/Src/od_pp_yolo_d.c ****       /* Sorts detections based on class k */
 181:../Middlewares/stm32-vision-models-postprocessing/lib_vision_models_pp/Src/od_pp_yolo_d.c ****       qsort(ptrScratch,
 182:../Middlewares/stm32-vision-models-postprocessing/lib_vision_models_pp/Src/od_pp_yolo_d.c ****             pInput_static_param->nb_detect,
 183:../Middlewares/stm32-vision-models-postprocessing/lib_vision_models_pp/Src/od_pp_yolo_d.c ****             sizeof(od_yolo_d_pp_scratch_s8_t),
 184:../Middlewares/stm32-vision-models-postprocessing/lib_vision_models_pp/Src/od_pp_yolo_d.c ****             yolov_d_nms_comparator_is8);
 185:../Middlewares/stm32-vision-models-postprocessing/lib_vision_models_pp/Src/od_pp_yolo_d.c **** 
 186:../Middlewares/stm32-vision-models-postprocessing/lib_vision_models_pp/Src/od_pp_yolo_d.c ****       for (int32_t i = 0; i < detections_per_class ; i ++)
ARM GAS  /tmp/ccUSEqtX.s 			page 15


 187:../Middlewares/stm32-vision-models-postprocessing/lib_vision_models_pp/Src/od_pp_yolo_d.c ****       {
 188:../Middlewares/stm32-vision-models-postprocessing/lib_vision_models_pp/Src/od_pp_yolo_d.c ****         if (ptrScratch[i].conf == INT16_MIN) continue; // Already filtered
 189:../Middlewares/stm32-vision-models-postprocessing/lib_vision_models_pp/Src/od_pp_yolo_d.c ****         int8_t *a = &(ptrScratch[i].x_center);
 190:../Middlewares/stm32-vision-models-postprocessing/lib_vision_models_pp/Src/od_pp_yolo_d.c ****         for (j = i + 1; j < detections_per_class; j ++)
 191:../Middlewares/stm32-vision-models-postprocessing/lib_vision_models_pp/Src/od_pp_yolo_d.c ****         {
 192:../Middlewares/stm32-vision-models-postprocessing/lib_vision_models_pp/Src/od_pp_yolo_d.c ****           if (ptrScratch[j].conf == INT16_MIN) continue; // Already filtered
 521              		.loc 1 192 14 view .LVU155
 522 000a 4FF40048 		mov	r8, #32768
 523              	.LBE19:
 524              	.LBE18:
 525              	.LBE17:
 160:../Middlewares/stm32-vision-models-postprocessing/lib_vision_models_pp/Src/od_pp_yolo_d.c ****   int32_t j, k, limit_counter, detections_per_class;
 526              		.loc 1 160 1 view .LVU156
 527 000e 85B0     		sub	sp, sp, #20
 528              		.cfi_def_cfa_offset 56
 529              	.LVL50:
 530              	.L47:
 163:../Middlewares/stm32-vision-models-postprocessing/lib_vision_models_pp/Src/od_pp_yolo_d.c ****   {
 531              		.loc 1 163 17 is_stmt 1 discriminator 1 view .LVU157
 532 0010 2B68     		ldr	r3, [r5]
 533 0012 BB42     		cmp	r3, r7
 534 0014 03DC     		bgt	.L65
 193:../Middlewares/stm32-vision-models-postprocessing/lib_vision_models_pp/Src/od_pp_yolo_d.c ****           int8_t *b = &(ptrScratch[j].x_center);
 194:../Middlewares/stm32-vision-models-postprocessing/lib_vision_models_pp/Src/od_pp_yolo_d.c ****           if (vision_models_box_iou_is8(a, b, pInput_static_param->raw_output_zero_point) > pInput_
 195:../Middlewares/stm32-vision-models-postprocessing/lib_vision_models_pp/Src/od_pp_yolo_d.c ****           {
 196:../Middlewares/stm32-vision-models-postprocessing/lib_vision_models_pp/Src/od_pp_yolo_d.c ****             ptrScratch[j].conf = INT16_MIN;
 197:../Middlewares/stm32-vision-models-postprocessing/lib_vision_models_pp/Src/od_pp_yolo_d.c ****           }
 198:../Middlewares/stm32-vision-models-postprocessing/lib_vision_models_pp/Src/od_pp_yolo_d.c ****         }
 199:../Middlewares/stm32-vision-models-postprocessing/lib_vision_models_pp/Src/od_pp_yolo_d.c ****       }
 200:../Middlewares/stm32-vision-models-postprocessing/lib_vision_models_pp/Src/od_pp_yolo_d.c **** 
 201:../Middlewares/stm32-vision-models-postprocessing/lib_vision_models_pp/Src/od_pp_yolo_d.c ****       /* Limits detections count */
 202:../Middlewares/stm32-vision-models-postprocessing/lib_vision_models_pp/Src/od_pp_yolo_d.c ****       for (int32_t i = 0; i < detections_per_class; i++)
 203:../Middlewares/stm32-vision-models-postprocessing/lib_vision_models_pp/Src/od_pp_yolo_d.c ****       {
 204:../Middlewares/stm32-vision-models-postprocessing/lib_vision_models_pp/Src/od_pp_yolo_d.c ****         if ((limit_counter < pInput_static_param->max_boxes_limit) &&
 205:../Middlewares/stm32-vision-models-postprocessing/lib_vision_models_pp/Src/od_pp_yolo_d.c ****             (ptrScratch[i].conf != INT16_MIN))
 206:../Middlewares/stm32-vision-models-postprocessing/lib_vision_models_pp/Src/od_pp_yolo_d.c ****         {
 207:../Middlewares/stm32-vision-models-postprocessing/lib_vision_models_pp/Src/od_pp_yolo_d.c ****           limit_counter++;
 208:../Middlewares/stm32-vision-models-postprocessing/lib_vision_models_pp/Src/od_pp_yolo_d.c ****         }
 209:../Middlewares/stm32-vision-models-postprocessing/lib_vision_models_pp/Src/od_pp_yolo_d.c ****         else
 210:../Middlewares/stm32-vision-models-postprocessing/lib_vision_models_pp/Src/od_pp_yolo_d.c ****         {
 211:../Middlewares/stm32-vision-models-postprocessing/lib_vision_models_pp/Src/od_pp_yolo_d.c ****           ptrScratch[i].conf = INT16_MIN;
 212:../Middlewares/stm32-vision-models-postprocessing/lib_vision_models_pp/Src/od_pp_yolo_d.c ****         }
 213:../Middlewares/stm32-vision-models-postprocessing/lib_vision_models_pp/Src/od_pp_yolo_d.c ****       } // for detection_per_class
 214:../Middlewares/stm32-vision-models-postprocessing/lib_vision_models_pp/Src/od_pp_yolo_d.c ****     } // if detection_per_class
 215:../Middlewares/stm32-vision-models-postprocessing/lib_vision_models_pp/Src/od_pp_yolo_d.c ****   } // for nb_classes
 216:../Middlewares/stm32-vision-models-postprocessing/lib_vision_models_pp/Src/od_pp_yolo_d.c ****   return (AI_OD_POSTPROCESS_ERROR_NO);
 535              		.loc 1 216 3 view .LVU158
 217:../Middlewares/stm32-vision-models-postprocessing/lib_vision_models_pp/Src/od_pp_yolo_d.c **** }
 536              		.loc 1 217 1 is_stmt 0 view .LVU159
 537 0016 0020     		movs	r0, #0
 538 0018 05B0     		add	sp, sp, #20
 539              		.cfi_remember_state
 540              		.cfi_def_cfa_offset 36
 541              		@ sp needed
 542 001a BDE8F08F 		pop	{r4, r5, r6, r7, r8, r9, r10, fp, pc}
 543              	.LVL51:
 544              	.L65:
ARM GAS  /tmp/ccUSEqtX.s 			page 16


 545              		.cfi_restore_state
 165:../Middlewares/stm32-vision-models-postprocessing/lib_vision_models_pp/Src/od_pp_yolo_d.c ****     detections_per_class = 0;
 546              		.loc 1 165 5 is_stmt 1 view .LVU160
 166:../Middlewares/stm32-vision-models-postprocessing/lib_vision_models_pp/Src/od_pp_yolo_d.c ****     AI_YOLO_D_PP_SORT_CLASS = k;
 547              		.loc 1 166 5 view .LVU161
 167:../Middlewares/stm32-vision-models-postprocessing/lib_vision_models_pp/Src/od_pp_yolo_d.c **** 
 548              		.loc 1 167 5 view .LVU162
 167:../Middlewares/stm32-vision-models-postprocessing/lib_vision_models_pp/Src/od_pp_yolo_d.c **** 
 549              		.loc 1 167 29 is_stmt 0 view .LVU163
 550 001e 2F4B     		ldr	r3, .L74
 551              	.LBB23:
 170:../Middlewares/stm32-vision-models-postprocessing/lib_vision_models_pp/Src/od_pp_yolo_d.c ****     {
 552              		.loc 1 170 48 discriminator 1 view .LVU164
 553 0020 E969     		ldr	r1, [r5, #28]
 554              	.LBE23:
 167:../Middlewares/stm32-vision-models-postprocessing/lib_vision_models_pp/Src/od_pp_yolo_d.c **** 
 555              		.loc 1 167 29 view .LVU165
 556 0022 1F60     		str	r7, [r3]
 170:../Middlewares/stm32-vision-models-postprocessing/lib_vision_models_pp/Src/od_pp_yolo_d.c ****     {
 557              		.loc 1 170 5 is_stmt 1 view .LVU166
 558              	.LBB24:
 170:../Middlewares/stm32-vision-models-postprocessing/lib_vision_models_pp/Src/od_pp_yolo_d.c ****     {
 559              		.loc 1 170 10 view .LVU167
 560              	.LVL52:
 170:../Middlewares/stm32-vision-models-postprocessing/lib_vision_models_pp/Src/od_pp_yolo_d.c ****     {
 561              		.loc 1 170 18 is_stmt 0 view .LVU168
 562 0024 0023     		movs	r3, #0
 563              	.LBE24:
 166:../Middlewares/stm32-vision-models-postprocessing/lib_vision_models_pp/Src/od_pp_yolo_d.c ****     AI_YOLO_D_PP_SORT_CLASS = k;
 564              		.loc 1 166 26 view .LVU169
 565 0026 1C46     		mov	r4, r3
 566              	.LBB25:
 172:../Middlewares/stm32-vision-models-postprocessing/lib_vision_models_pp/Src/od_pp_yolo_d.c ****       {
 567              		.loc 1 172 23 view .LVU170
 568 0028 B01D     		adds	r0, r6, #6
 569 002a 4A1C     		adds	r2, r1, #1
 570              	.LVL53:
 571              	.L48:
 170:../Middlewares/stm32-vision-models-postprocessing/lib_vision_models_pp/Src/od_pp_yolo_d.c ****     {
 572              		.loc 1 170 27 is_stmt 1 discriminator 1 view .LVU171
 573 002c 013A     		subs	r2, r2, #1
 574 002e 02D1     		bne	.L50
 575              	.LBE25:
 178:../Middlewares/stm32-vision-models-postprocessing/lib_vision_models_pp/Src/od_pp_yolo_d.c ****     {
 576              		.loc 1 178 5 view .LVU172
 178:../Middlewares/stm32-vision-models-postprocessing/lib_vision_models_pp/Src/od_pp_yolo_d.c ****     {
 577              		.loc 1 178 8 is_stmt 0 view .LVU173
 578 0030 44B9     		cbnz	r4, .L51
 579              	.LVL54:
 580              	.L64:
 163:../Middlewares/stm32-vision-models-postprocessing/lib_vision_models_pp/Src/od_pp_yolo_d.c ****   {
 581              		.loc 1 163 52 is_stmt 1 discriminator 2 view .LVU174
 582 0032 0137     		adds	r7, r7, #1
 583              	.LVL55:
 163:../Middlewares/stm32-vision-models-postprocessing/lib_vision_models_pp/Src/od_pp_yolo_d.c ****   {
 584              		.loc 1 163 52 is_stmt 0 discriminator 2 view .LVU175
 585 0034 ECE7     		b	.L47
ARM GAS  /tmp/ccUSEqtX.s 			page 17


 586              	.LVL56:
 587              	.L50:
 588              	.LBB26:
 172:../Middlewares/stm32-vision-models-postprocessing/lib_vision_models_pp/Src/od_pp_yolo_d.c ****       {
 589              		.loc 1 172 7 is_stmt 1 view .LVU176
 172:../Middlewares/stm32-vision-models-postprocessing/lib_vision_models_pp/Src/od_pp_yolo_d.c ****       {
 590              		.loc 1 172 23 is_stmt 0 view .LVU177
 591 0036 10F833C0 		ldrb	ip, [r0, r3, lsl #3]	@ zero_extendqisi2
 170:../Middlewares/stm32-vision-models-postprocessing/lib_vision_models_pp/Src/od_pp_yolo_d.c ****     {
 592              		.loc 1 170 64 discriminator 2 view .LVU178
 593 003a 0133     		adds	r3, r3, #1
 594              	.LVL57:
 174:../Middlewares/stm32-vision-models-postprocessing/lib_vision_models_pp/Src/od_pp_yolo_d.c ****       }
 595              		.loc 1 174 29 view .LVU179
 596 003c BC45     		cmp	ip, r7
 597 003e 54EA1494 		cinc	r4, r4, eq
 598              	.LVL58:
 170:../Middlewares/stm32-vision-models-postprocessing/lib_vision_models_pp/Src/od_pp_yolo_d.c ****     {
 599              		.loc 1 170 64 is_stmt 1 discriminator 2 view .LVU180
 600 0042 F3E7     		b	.L48
 601              	.LVL59:
 602              	.L51:
 170:../Middlewares/stm32-vision-models-postprocessing/lib_vision_models_pp/Src/od_pp_yolo_d.c ****     {
 603              		.loc 1 170 64 is_stmt 0 discriminator 2 view .LVU181
 604              	.LBE26:
 181:../Middlewares/stm32-vision-models-postprocessing/lib_vision_models_pp/Src/od_pp_yolo_d.c ****             pInput_static_param->nb_detect,
 605              		.loc 1 181 7 is_stmt 1 view .LVU182
 606 0044 3046     		mov	r0, r6
 607 0046 0822     		movs	r2, #8
 608 0048 254B     		ldr	r3, .L74+4
 609              	.LVL60:
 181:../Middlewares/stm32-vision-models-postprocessing/lib_vision_models_pp/Src/od_pp_yolo_d.c ****             pInput_static_param->nb_detect,
 610              		.loc 1 181 7 is_stmt 0 view .LVU183
 611 004a FFF7FEFF 		bl	qsort
 612              	.LVL61:
 186:../Middlewares/stm32-vision-models-postprocessing/lib_vision_models_pp/Src/od_pp_yolo_d.c ****       {
 613              		.loc 1 186 7 is_stmt 1 view .LVU184
 614              	.LBB27:
 186:../Middlewares/stm32-vision-models-postprocessing/lib_vision_models_pp/Src/od_pp_yolo_d.c ****       {
 615              		.loc 1 186 12 view .LVU185
 186:../Middlewares/stm32-vision-models-postprocessing/lib_vision_models_pp/Src/od_pp_yolo_d.c ****       {
 616              		.loc 1 186 29 discriminator 1 view .LVU186
 617 004e B146     		mov	r9, r6
 618              	.LBE27:
 181:../Middlewares/stm32-vision-models-postprocessing/lib_vision_models_pp/Src/od_pp_yolo_d.c ****             pInput_static_param->nb_detect,
 619              		.loc 1 181 7 is_stmt 0 view .LVU187
 620 0050 3046     		mov	r0, r6
 621              	.LBB28:
 186:../Middlewares/stm32-vision-models-postprocessing/lib_vision_models_pp/Src/od_pp_yolo_d.c ****       {
 622              		.loc 1 186 20 view .LVU188
 623 0052 4FF0000A 		mov	r10, #0
 624              	.LVL62:
 625              	.L53:
 626              	.LBB21:
 188:../Middlewares/stm32-vision-models-postprocessing/lib_vision_models_pp/Src/od_pp_yolo_d.c ****         int8_t *a = &(ptrScratch[i].x_center);
 627              		.loc 1 188 9 is_stmt 1 view .LVU189
 188:../Middlewares/stm32-vision-models-postprocessing/lib_vision_models_pp/Src/od_pp_yolo_d.c ****         int8_t *a = &(ptrScratch[i].x_center);
ARM GAS  /tmp/ccUSEqtX.s 			page 18


 628              		.loc 1 188 12 is_stmt 0 view .LVU190
 629 0056 B0F90430 		ldrsh	r3, [r0, #4]
 190:../Middlewares/stm32-vision-models-postprocessing/lib_vision_models_pp/Src/od_pp_yolo_d.c ****         {
 630              		.loc 1 190 16 view .LVU191
 631 005a 0AF1010A 		add	r10, r10, #1
 632              	.LVL63:
 188:../Middlewares/stm32-vision-models-postprocessing/lib_vision_models_pp/Src/od_pp_yolo_d.c ****         int8_t *a = &(ptrScratch[i].x_center);
 633              		.loc 1 188 12 view .LVU192
 634 005e 13F5004F 		cmn	r3, #32768
 635 0062 35D1     		bne	.L66
 636              	.L60:
 637              	.LBE21:
 186:../Middlewares/stm32-vision-models-postprocessing/lib_vision_models_pp/Src/od_pp_yolo_d.c ****       {
 638              		.loc 1 186 56 is_stmt 1 discriminator 2 view .LVU193
 639              	.LVL64:
 186:../Middlewares/stm32-vision-models-postprocessing/lib_vision_models_pp/Src/od_pp_yolo_d.c ****       {
 640              		.loc 1 186 29 discriminator 1 view .LVU194
 641 0064 5445     		cmp	r4, r10
 642 0066 00F10800 		add	r0, r0, #8
 643 006a F4D1     		bne	.L53
 644              	.LBE28:
 165:../Middlewares/stm32-vision-models-postprocessing/lib_vision_models_pp/Src/od_pp_yolo_d.c ****     detections_per_class = 0;
 645              		.loc 1 165 19 is_stmt 0 view .LVU195
 646 006c 0023     		movs	r3, #0
 647              	.LBB29:
 211:../Middlewares/stm32-vision-models-postprocessing/lib_vision_models_pp/Src/od_pp_yolo_d.c ****         }
 648              		.loc 1 211 30 view .LVU196
 649 006e E400     		lsls	r4, r4, #3
 650              	.LVL65:
 211:../Middlewares/stm32-vision-models-postprocessing/lib_vision_models_pp/Src/od_pp_yolo_d.c ****         }
 651              		.loc 1 211 30 view .LVU197
 652 0070 083C     		subs	r4, r4, #8
 653 0072 E408     		lsrs	r4, r4, #3
 204:../Middlewares/stm32-vision-models-postprocessing/lib_vision_models_pp/Src/od_pp_yolo_d.c ****             (ptrScratch[i].conf != INT16_MIN))
 654              		.loc 1 204 49 view .LVU198
 655 0074 EA68     		ldr	r2, [r5, #12]
 211:../Middlewares/stm32-vision-models-postprocessing/lib_vision_models_pp/Src/od_pp_yolo_d.c ****         }
 656              		.loc 1 211 30 view .LVU199
 657 0076 0134     		adds	r4, r4, #1
 658              	.LVL66:
 659              	.L63:
 204:../Middlewares/stm32-vision-models-postprocessing/lib_vision_models_pp/Src/od_pp_yolo_d.c ****             (ptrScratch[i].conf != INT16_MIN))
 660              		.loc 1 204 9 is_stmt 1 view .LVU200
 204:../Middlewares/stm32-vision-models-postprocessing/lib_vision_models_pp/Src/od_pp_yolo_d.c ****             (ptrScratch[i].conf != INT16_MIN))
 661              		.loc 1 204 12 is_stmt 0 view .LVU201
 662 0078 9A42     		cmp	r2, r3
 663 007a 2CDD     		ble	.L61
 204:../Middlewares/stm32-vision-models-postprocessing/lib_vision_models_pp/Src/od_pp_yolo_d.c ****             (ptrScratch[i].conf != INT16_MIN))
 664              		.loc 1 204 68 discriminator 1 view .LVU202
 665 007c B9F90410 		ldrsh	r1, [r9, #4]
 666 0080 11F5004F 		cmn	r1, #32768
 667 0084 27D0     		beq	.L61
 207:../Middlewares/stm32-vision-models-postprocessing/lib_vision_models_pp/Src/od_pp_yolo_d.c ****         }
 668              		.loc 1 207 11 is_stmt 1 view .LVU203
 207:../Middlewares/stm32-vision-models-postprocessing/lib_vision_models_pp/Src/od_pp_yolo_d.c ****         }
 669              		.loc 1 207 24 is_stmt 0 view .LVU204
 670 0086 0133     		adds	r3, r3, #1
ARM GAS  /tmp/ccUSEqtX.s 			page 19


 671              	.LVL67:
 672              	.L62:
 202:../Middlewares/stm32-vision-models-postprocessing/lib_vision_models_pp/Src/od_pp_yolo_d.c ****       {
 673              		.loc 1 202 54 is_stmt 1 discriminator 2 view .LVU205
 202:../Middlewares/stm32-vision-models-postprocessing/lib_vision_models_pp/Src/od_pp_yolo_d.c ****       {
 674              		.loc 1 202 29 discriminator 1 view .LVU206
 675 0088 013C     		subs	r4, r4, #1
 676 008a 09F10809 		add	r9, r9, #8
 677 008e F3D1     		bne	.L63
 202:../Middlewares/stm32-vision-models-postprocessing/lib_vision_models_pp/Src/od_pp_yolo_d.c ****       {
 678              		.loc 1 202 29 is_stmt 0 discriminator 1 view .LVU207
 679 0090 CFE7     		b	.L64
 680              	.LVL68:
 681              	.L59:
 202:../Middlewares/stm32-vision-models-postprocessing/lib_vision_models_pp/Src/od_pp_yolo_d.c ****       {
 682              		.loc 1 202 29 discriminator 1 view .LVU208
 683              	.LBE29:
 684              	.LBB30:
 685              	.LBB22:
 686              	.LBB20:
 192:../Middlewares/stm32-vision-models-postprocessing/lib_vision_models_pp/Src/od_pp_yolo_d.c ****           int8_t *b = &(ptrScratch[j].x_center);
 687              		.loc 1 192 11 is_stmt 1 view .LVU209
 192:../Middlewares/stm32-vision-models-postprocessing/lib_vision_models_pp/Src/od_pp_yolo_d.c ****           int8_t *b = &(ptrScratch[j].x_center);
 688              		.loc 1 192 14 is_stmt 0 view .LVU210
 689 0092 BBF90C20 		ldrsh	r2, [fp, #12]
 690 0096 0BF10801 		add	r1, fp, #8
 691 009a 12F5004F 		cmn	r2, #32768
 692 009e 12D0     		beq	.L56
 194:../Middlewares/stm32-vision-models-postprocessing/lib_vision_models_pp/Src/od_pp_yolo_d.c ****           {
 693              		.loc 1 194 15 view .LVU211
 694 00a0 95F92520 		ldrsb	r2, [r5, #37]
 695 00a4 CDE90101 		strd	r0, r1, [sp, #4]
 696 00a8 0393     		str	r3, [sp, #12]
 193:../Middlewares/stm32-vision-models-postprocessing/lib_vision_models_pp/Src/od_pp_yolo_d.c ****           if (vision_models_box_iou_is8(a, b, pInput_static_param->raw_output_zero_point) > pInput_
 697              		.loc 1 193 11 is_stmt 1 view .LVU212
 698              	.LVL69:
 194:../Middlewares/stm32-vision-models-postprocessing/lib_vision_models_pp/Src/od_pp_yolo_d.c ****           {
 699              		.loc 1 194 11 view .LVU213
 194:../Middlewares/stm32-vision-models-postprocessing/lib_vision_models_pp/Src/od_pp_yolo_d.c ****           {
 700              		.loc 1 194 15 is_stmt 0 view .LVU214
 701 00aa FFF7FEFF 		bl	vision_models_box_iou_is8
 702              	.LVL70:
 194:../Middlewares/stm32-vision-models-postprocessing/lib_vision_models_pp/Src/od_pp_yolo_d.c ****           {
 703              		.loc 1 194 14 discriminator 1 view .LVU215
 704 00ae DDE90101 		ldrd	r0, r1, [sp, #4]
 705 00b2 D5ED057A 		vldr.32	s15, [r5, #20]
 706 00b6 B4EEE70A 		vcmpe.f32	s0, s15
 707 00ba F1EE10FA 		vmrs	APSR_nzcv, FPSCR
 708 00be 039B     		ldr	r3, [sp, #12]
 196:../Middlewares/stm32-vision-models-postprocessing/lib_vision_models_pp/Src/od_pp_yolo_d.c ****           }
 709              		.loc 1 196 13 is_stmt 1 view .LVU216
 196:../Middlewares/stm32-vision-models-postprocessing/lib_vision_models_pp/Src/od_pp_yolo_d.c ****           }
 710              		.loc 1 196 32 is_stmt 0 view .LVU217
 711 00c0 C8BF     		it	gt
 712 00c2 ABF80C80 		strhgt	r8, [fp, #12]	@ movhi
 713              	.LVL71:
 714              	.L56:
ARM GAS  /tmp/ccUSEqtX.s 			page 20


 196:../Middlewares/stm32-vision-models-postprocessing/lib_vision_models_pp/Src/od_pp_yolo_d.c ****           }
 715              		.loc 1 196 32 view .LVU218
 716              	.LBE20:
 190:../Middlewares/stm32-vision-models-postprocessing/lib_vision_models_pp/Src/od_pp_yolo_d.c ****         {
 717              		.loc 1 190 53 is_stmt 1 discriminator 2 view .LVU219
 718 00c6 8B46     		mov	fp, r1
 719 00c8 0133     		adds	r3, r3, #1
 720              	.LVL72:
 721              	.L52:
 190:../Middlewares/stm32-vision-models-postprocessing/lib_vision_models_pp/Src/od_pp_yolo_d.c ****         {
 722              		.loc 1 190 27 discriminator 1 view .LVU220
 723 00ca A342     		cmp	r3, r4
 724 00cc E1DB     		blt	.L59
 725 00ce C9E7     		b	.L60
 726              	.LVL73:
 727              	.L66:
 190:../Middlewares/stm32-vision-models-postprocessing/lib_vision_models_pp/Src/od_pp_yolo_d.c ****         {
 728              		.loc 1 190 27 is_stmt 0 discriminator 1 view .LVU221
 729 00d0 8346     		mov	fp, r0
 190:../Middlewares/stm32-vision-models-postprocessing/lib_vision_models_pp/Src/od_pp_yolo_d.c ****         {
 730              		.loc 1 190 16 view .LVU222
 731 00d2 5346     		mov	r3, r10
 732 00d4 F9E7     		b	.L52
 733              	.LVL74:
 734              	.L61:
 190:../Middlewares/stm32-vision-models-postprocessing/lib_vision_models_pp/Src/od_pp_yolo_d.c ****         {
 735              		.loc 1 190 16 view .LVU223
 736              	.LBE22:
 737              	.LBE30:
 738              	.LBB31:
 211:../Middlewares/stm32-vision-models-postprocessing/lib_vision_models_pp/Src/od_pp_yolo_d.c ****         }
 739              		.loc 1 211 11 is_stmt 1 view .LVU224
 211:../Middlewares/stm32-vision-models-postprocessing/lib_vision_models_pp/Src/od_pp_yolo_d.c ****         }
 740              		.loc 1 211 30 is_stmt 0 view .LVU225
 741 00d6 A9F80480 		strh	r8, [r9, #4]	@ movhi
 742 00da D5E7     		b	.L62
 743              	.L75:
 744              		.align	2
 745              	.L74:
 746 00dc 00000000 		.word	AI_YOLO_D_PP_SORT_CLASS
 747 00e0 00000000 		.word	yolov_d_nms_comparator_is8
 748              	.LBE31:
 749              		.cfi_endproc
 750              	.LFE777:
 752              		.section	.text.yolov_d_pp_scoreFiltering_centroid,"ax",%progbits
 753              		.align	1
 754              		.global	yolov_d_pp_scoreFiltering_centroid
 755              		.syntax unified
 756              		.thumb
 757              		.thumb_func
 759              	yolov_d_pp_scoreFiltering_centroid:
 760              	.LVL75:
 761              	.LFB778:
 218:../Middlewares/stm32-vision-models-postprocessing/lib_vision_models_pp/Src/od_pp_yolo_d.c **** 
 219:../Middlewares/stm32-vision-models-postprocessing/lib_vision_models_pp/Src/od_pp_yolo_d.c **** int32_t yolov_d_pp_scoreFiltering_centroid(od_pp_out_t *pOutput,
 220:../Middlewares/stm32-vision-models-postprocessing/lib_vision_models_pp/Src/od_pp_yolo_d.c ****                                           od_yolo_d_pp_static_param_t *pInput_static_param)
 221:../Middlewares/stm32-vision-models-postprocessing/lib_vision_models_pp/Src/od_pp_yolo_d.c **** {
ARM GAS  /tmp/ccUSEqtX.s 			page 21


 762              		.loc 1 221 1 is_stmt 1 view -0
 763              		.cfi_startproc
 764              		@ args = 0, pretend = 0, frame = 0
 765              		@ frame_needed = 0, uses_anonymous_args = 0
 222:../Middlewares/stm32-vision-models-postprocessing/lib_vision_models_pp/Src/od_pp_yolo_d.c ****   int32_t det_count = 0;
 766              		.loc 1 222 3 view .LVU227
 223:../Middlewares/stm32-vision-models-postprocessing/lib_vision_models_pp/Src/od_pp_yolo_d.c **** 
 224:../Middlewares/stm32-vision-models-postprocessing/lib_vision_models_pp/Src/od_pp_yolo_d.c ****   for (int32_t i = 0; i < pInput_static_param->nb_detect; i++)
 767              		.loc 1 224 3 view .LVU228
 768              	.LBB32:
 769              		.loc 1 224 8 view .LVU229
 770              		.loc 1 224 8 is_stmt 0 view .LVU230
 771              	.LBE32:
 221:../Middlewares/stm32-vision-models-postprocessing/lib_vision_models_pp/Src/od_pp_yolo_d.c ****   int32_t det_count = 0;
 772              		.loc 1 221 1 view .LVU231
 773 0000 F0B5     		push	{r4, r5, r6, r7, lr}
 774              		.cfi_def_cfa_offset 20
 775              		.cfi_offset 4, -20
 776              		.cfi_offset 5, -16
 777              		.cfi_offset 6, -12
 778              		.cfi_offset 7, -8
 779              		.cfi_offset 14, -4
 780              	.LBB33:
 781              		.loc 1 224 16 view .LVU232
 782 0002 0026     		movs	r6, #0
 225:../Middlewares/stm32-vision-models-postprocessing/lib_vision_models_pp/Src/od_pp_yolo_d.c ****   {
 226:../Middlewares/stm32-vision-models-postprocessing/lib_vision_models_pp/Src/od_pp_yolo_d.c ****     if (pOutput->pOutBuff[i].conf >= pInput_static_param->conf_threshold)
 783              		.loc 1 226 26 view .LVU233
 784 0004 4FF0180C 		mov	ip, #24
 785              	.LBE33:
 222:../Middlewares/stm32-vision-models-postprocessing/lib_vision_models_pp/Src/od_pp_yolo_d.c **** 
 786              		.loc 1 222 11 view .LVU234
 787 0008 3446     		mov	r4, r6
 788 000a CD69     		ldr	r5, [r1, #28]
 789              	.LBB34:
 790              		.loc 1 226 26 view .LVU235
 791 000c 0135     		adds	r5, r5, #1
 792              	.LVL76:
 793              	.L77:
 224:../Middlewares/stm32-vision-models-postprocessing/lib_vision_models_pp/Src/od_pp_yolo_d.c ****   {
 794              		.loc 1 224 25 is_stmt 1 discriminator 1 view .LVU236
 795 000e 013D     		subs	r5, r5, #1
 796 0010 02D1     		bne	.L81
 797              	.L82:
 798              	.LBE34:
 227:../Middlewares/stm32-vision-models-postprocessing/lib_vision_models_pp/Src/od_pp_yolo_d.c ****     {
 228:../Middlewares/stm32-vision-models-postprocessing/lib_vision_models_pp/Src/od_pp_yolo_d.c ****       if (det_count >= pInput_static_param->max_boxes_limit) {
 229:../Middlewares/stm32-vision-models-postprocessing/lib_vision_models_pp/Src/od_pp_yolo_d.c ****         break;
 230:../Middlewares/stm32-vision-models-postprocessing/lib_vision_models_pp/Src/od_pp_yolo_d.c ****       }
 231:../Middlewares/stm32-vision-models-postprocessing/lib_vision_models_pp/Src/od_pp_yolo_d.c ****       pOutput->pOutBuff[det_count].x_center    = pOutput->pOutBuff[i].x_center;
 232:../Middlewares/stm32-vision-models-postprocessing/lib_vision_models_pp/Src/od_pp_yolo_d.c ****       pOutput->pOutBuff[det_count].y_center    = pOutput->pOutBuff[i].y_center;
 233:../Middlewares/stm32-vision-models-postprocessing/lib_vision_models_pp/Src/od_pp_yolo_d.c ****       pOutput->pOutBuff[det_count].width       = pOutput->pOutBuff[i].width;
 234:../Middlewares/stm32-vision-models-postprocessing/lib_vision_models_pp/Src/od_pp_yolo_d.c ****       pOutput->pOutBuff[det_count].height      = pOutput->pOutBuff[i].height;
 235:../Middlewares/stm32-vision-models-postprocessing/lib_vision_models_pp/Src/od_pp_yolo_d.c ****       pOutput->pOutBuff[det_count].conf        = pOutput->pOutBuff[i].conf;
 236:../Middlewares/stm32-vision-models-postprocessing/lib_vision_models_pp/Src/od_pp_yolo_d.c ****       pOutput->pOutBuff[det_count].class_index = pOutput->pOutBuff[i].class_index;
 237:../Middlewares/stm32-vision-models-postprocessing/lib_vision_models_pp/Src/od_pp_yolo_d.c ****       det_count++;
 238:../Middlewares/stm32-vision-models-postprocessing/lib_vision_models_pp/Src/od_pp_yolo_d.c ****     }
ARM GAS  /tmp/ccUSEqtX.s 			page 22


 239:../Middlewares/stm32-vision-models-postprocessing/lib_vision_models_pp/Src/od_pp_yolo_d.c ****   }
 240:../Middlewares/stm32-vision-models-postprocessing/lib_vision_models_pp/Src/od_pp_yolo_d.c ****   pOutput->nb_detect = det_count;
 799              		.loc 1 240 3 view .LVU237
 800              		.loc 1 240 22 is_stmt 0 view .LVU238
 801 0012 4460     		str	r4, [r0, #4]
 241:../Middlewares/stm32-vision-models-postprocessing/lib_vision_models_pp/Src/od_pp_yolo_d.c **** 
 242:../Middlewares/stm32-vision-models-postprocessing/lib_vision_models_pp/Src/od_pp_yolo_d.c ****   return (AI_OD_POSTPROCESS_ERROR_NO);
 802              		.loc 1 242 3 is_stmt 1 view .LVU239
 243:../Middlewares/stm32-vision-models-postprocessing/lib_vision_models_pp/Src/od_pp_yolo_d.c **** }
 803              		.loc 1 243 1 is_stmt 0 view .LVU240
 804 0014 0020     		movs	r0, #0
 805              	.LVL77:
 806              		.loc 1 243 1 view .LVU241
 807 0016 F0BD     		pop	{r4, r5, r6, r7, pc}
 808              	.LVL78:
 809              	.L81:
 810              	.LBB35:
 226:../Middlewares/stm32-vision-models-postprocessing/lib_vision_models_pp/Src/od_pp_yolo_d.c ****     {
 811              		.loc 1 226 5 is_stmt 1 view .LVU242
 226:../Middlewares/stm32-vision-models-postprocessing/lib_vision_models_pp/Src/od_pp_yolo_d.c ****     {
 812              		.loc 1 226 16 is_stmt 0 view .LVU243
 813 0018 0368     		ldr	r3, [r0]
 226:../Middlewares/stm32-vision-models-postprocessing/lib_vision_models_pp/Src/od_pp_yolo_d.c ****     {
 814              		.loc 1 226 8 view .LVU244
 815 001a 91ED047A 		vldr.32	s14, [r1, #16]
 226:../Middlewares/stm32-vision-models-postprocessing/lib_vision_models_pp/Src/od_pp_yolo_d.c ****     {
 816              		.loc 1 226 26 view .LVU245
 817 001e 0CFB0632 		mla	r2, ip, r6, r3
 226:../Middlewares/stm32-vision-models-postprocessing/lib_vision_models_pp/Src/od_pp_yolo_d.c ****     {
 818              		.loc 1 226 29 view .LVU246
 819 0022 D2ED047A 		vldr.32	s15, [r2, #16]
 226:../Middlewares/stm32-vision-models-postprocessing/lib_vision_models_pp/Src/od_pp_yolo_d.c ****     {
 820              		.loc 1 226 8 view .LVU247
 821 0026 F4EEC77A 		vcmpe.f32	s15, s14
 822 002a F1EE10FA 		vmrs	APSR_nzcv, FPSCR
 823 002e 11DB     		blt	.L78
 228:../Middlewares/stm32-vision-models-postprocessing/lib_vision_models_pp/Src/od_pp_yolo_d.c ****         break;
 824              		.loc 1 228 7 is_stmt 1 view .LVU248
 228:../Middlewares/stm32-vision-models-postprocessing/lib_vision_models_pp/Src/od_pp_yolo_d.c ****         break;
 825              		.loc 1 228 10 is_stmt 0 view .LVU249
 826 0030 CF68     		ldr	r7, [r1, #12]
 827 0032 A742     		cmp	r7, r4
 828 0034 EDDD     		ble	.L82
 231:../Middlewares/stm32-vision-models-postprocessing/lib_vision_models_pp/Src/od_pp_yolo_d.c ****       pOutput->pOutBuff[det_count].y_center    = pOutput->pOutBuff[i].y_center;
 829              		.loc 1 231 7 is_stmt 1 view .LVU250
 231:../Middlewares/stm32-vision-models-postprocessing/lib_vision_models_pp/Src/od_pp_yolo_d.c ****       pOutput->pOutBuff[det_count].y_center    = pOutput->pOutBuff[i].y_center;
 830              		.loc 1 231 24 is_stmt 0 view .LVU251
 831 0036 0CFB0433 		mla	r3, ip, r4, r3
 231:../Middlewares/stm32-vision-models-postprocessing/lib_vision_models_pp/Src/od_pp_yolo_d.c ****       pOutput->pOutBuff[det_count].y_center    = pOutput->pOutBuff[i].y_center;
 832              		.loc 1 231 70 view .LVU252
 833 003a 1768     		ldr	r7, [r2]	@ float
 237:../Middlewares/stm32-vision-models-postprocessing/lib_vision_models_pp/Src/od_pp_yolo_d.c ****     }
 834              		.loc 1 237 16 view .LVU253
 835 003c 0134     		adds	r4, r4, #1
 836              	.LVL79:
 231:../Middlewares/stm32-vision-models-postprocessing/lib_vision_models_pp/Src/od_pp_yolo_d.c ****       pOutput->pOutBuff[det_count].y_center    = pOutput->pOutBuff[i].y_center;
 837              		.loc 1 231 48 view .LVU254
ARM GAS  /tmp/ccUSEqtX.s 			page 23


 838 003e 1F60     		str	r7, [r3]	@ float
 232:../Middlewares/stm32-vision-models-postprocessing/lib_vision_models_pp/Src/od_pp_yolo_d.c ****       pOutput->pOutBuff[det_count].width       = pOutput->pOutBuff[i].width;
 839              		.loc 1 232 7 is_stmt 1 view .LVU255
 232:../Middlewares/stm32-vision-models-postprocessing/lib_vision_models_pp/Src/od_pp_yolo_d.c ****       pOutput->pOutBuff[det_count].width       = pOutput->pOutBuff[i].width;
 840              		.loc 1 232 70 is_stmt 0 view .LVU256
 841 0040 5768     		ldr	r7, [r2, #4]	@ float
 232:../Middlewares/stm32-vision-models-postprocessing/lib_vision_models_pp/Src/od_pp_yolo_d.c ****       pOutput->pOutBuff[det_count].width       = pOutput->pOutBuff[i].width;
 842              		.loc 1 232 48 view .LVU257
 843 0042 5F60     		str	r7, [r3, #4]	@ float
 233:../Middlewares/stm32-vision-models-postprocessing/lib_vision_models_pp/Src/od_pp_yolo_d.c ****       pOutput->pOutBuff[det_count].height      = pOutput->pOutBuff[i].height;
 844              		.loc 1 233 7 is_stmt 1 view .LVU258
 233:../Middlewares/stm32-vision-models-postprocessing/lib_vision_models_pp/Src/od_pp_yolo_d.c ****       pOutput->pOutBuff[det_count].height      = pOutput->pOutBuff[i].height;
 845              		.loc 1 233 70 is_stmt 0 view .LVU259
 846 0044 9768     		ldr	r7, [r2, #8]	@ float
 233:../Middlewares/stm32-vision-models-postprocessing/lib_vision_models_pp/Src/od_pp_yolo_d.c ****       pOutput->pOutBuff[det_count].height      = pOutput->pOutBuff[i].height;
 847              		.loc 1 233 48 view .LVU260
 848 0046 9F60     		str	r7, [r3, #8]	@ float
 234:../Middlewares/stm32-vision-models-postprocessing/lib_vision_models_pp/Src/od_pp_yolo_d.c ****       pOutput->pOutBuff[det_count].conf        = pOutput->pOutBuff[i].conf;
 849              		.loc 1 234 7 is_stmt 1 view .LVU261
 234:../Middlewares/stm32-vision-models-postprocessing/lib_vision_models_pp/Src/od_pp_yolo_d.c ****       pOutput->pOutBuff[det_count].conf        = pOutput->pOutBuff[i].conf;
 850              		.loc 1 234 70 is_stmt 0 view .LVU262
 851 0048 D768     		ldr	r7, [r2, #12]	@ float
 235:../Middlewares/stm32-vision-models-postprocessing/lib_vision_models_pp/Src/od_pp_yolo_d.c ****       pOutput->pOutBuff[det_count].class_index = pOutput->pOutBuff[i].class_index;
 852              		.loc 1 235 48 view .LVU263
 853 004a C3ED047A 		vstr.32	s15, [r3, #16]
 236:../Middlewares/stm32-vision-models-postprocessing/lib_vision_models_pp/Src/od_pp_yolo_d.c ****       det_count++;
 854              		.loc 1 236 70 view .LVU264
 855 004e 5269     		ldr	r2, [r2, #20]
 234:../Middlewares/stm32-vision-models-postprocessing/lib_vision_models_pp/Src/od_pp_yolo_d.c ****       pOutput->pOutBuff[det_count].conf        = pOutput->pOutBuff[i].conf;
 856              		.loc 1 234 48 view .LVU265
 857 0050 DF60     		str	r7, [r3, #12]	@ float
 235:../Middlewares/stm32-vision-models-postprocessing/lib_vision_models_pp/Src/od_pp_yolo_d.c ****       pOutput->pOutBuff[det_count].class_index = pOutput->pOutBuff[i].class_index;
 858              		.loc 1 235 7 is_stmt 1 view .LVU266
 236:../Middlewares/stm32-vision-models-postprocessing/lib_vision_models_pp/Src/od_pp_yolo_d.c ****       det_count++;
 859              		.loc 1 236 7 view .LVU267
 236:../Middlewares/stm32-vision-models-postprocessing/lib_vision_models_pp/Src/od_pp_yolo_d.c ****       det_count++;
 860              		.loc 1 236 48 is_stmt 0 view .LVU268
 861 0052 5A61     		str	r2, [r3, #20]
 237:../Middlewares/stm32-vision-models-postprocessing/lib_vision_models_pp/Src/od_pp_yolo_d.c ****     }
 862              		.loc 1 237 7 is_stmt 1 view .LVU269
 863              	.LVL80:
 864              	.L78:
 224:../Middlewares/stm32-vision-models-postprocessing/lib_vision_models_pp/Src/od_pp_yolo_d.c ****   {
 865              		.loc 1 224 60 discriminator 2 view .LVU270
 866 0054 0136     		adds	r6, r6, #1
 867              	.LVL81:
 224:../Middlewares/stm32-vision-models-postprocessing/lib_vision_models_pp/Src/od_pp_yolo_d.c ****   {
 868              		.loc 1 224 60 is_stmt 0 discriminator 2 view .LVU271
 869 0056 DAE7     		b	.L77
 870              	.LBE35:
 871              		.cfi_endproc
 872              	.LFE778:
 874              		.section	.text.yolov_d_pp_scoreFiltering_centroid_is8,"ax",%progbits
 875              		.align	1
 876              		.global	yolov_d_pp_scoreFiltering_centroid_is8
 877              		.syntax unified
 878              		.thumb
ARM GAS  /tmp/ccUSEqtX.s 			page 24


 879              		.thumb_func
 881              	yolov_d_pp_scoreFiltering_centroid_is8:
 882              	.LVL82:
 883              	.LFB779:
 244:../Middlewares/stm32-vision-models-postprocessing/lib_vision_models_pp/Src/od_pp_yolo_d.c **** 
 245:../Middlewares/stm32-vision-models-postprocessing/lib_vision_models_pp/Src/od_pp_yolo_d.c **** int32_t yolov_d_pp_scoreFiltering_centroid_is8(od_yolo_d_pp_scratch_s8_t *ptrScratch,
 246:../Middlewares/stm32-vision-models-postprocessing/lib_vision_models_pp/Src/od_pp_yolo_d.c ****                                               od_pp_out_t *pOutput,
 247:../Middlewares/stm32-vision-models-postprocessing/lib_vision_models_pp/Src/od_pp_yolo_d.c ****                                               od_yolo_d_pp_static_param_t *pInput_static_param)
 248:../Middlewares/stm32-vision-models-postprocessing/lib_vision_models_pp/Src/od_pp_yolo_d.c **** {
 884              		.loc 1 248 1 is_stmt 1 view -0
 885              		.cfi_startproc
 886              		@ args = 0, pretend = 0, frame = 0
 887              		@ frame_needed = 0, uses_anonymous_args = 0
 249:../Middlewares/stm32-vision-models-postprocessing/lib_vision_models_pp/Src/od_pp_yolo_d.c ****   int32_t det_count = 0;
 888              		.loc 1 249 3 view .LVU273
 250:../Middlewares/stm32-vision-models-postprocessing/lib_vision_models_pp/Src/od_pp_yolo_d.c ****   int8_t zero_point = pInput_static_param->raw_output_zero_point;
 889              		.loc 1 250 3 view .LVU274
 251:../Middlewares/stm32-vision-models-postprocessing/lib_vision_models_pp/Src/od_pp_yolo_d.c ****   float32_t scale = pInput_static_param->raw_output_scale;
 890              		.loc 1 251 13 is_stmt 0 view .LVU275
 891 0000 92ED067A 		vldr.32	s14, [r2, #24]
 252:../Middlewares/stm32-vision-models-postprocessing/lib_vision_models_pp/Src/od_pp_yolo_d.c ****   int16_t conf_threshold_s16 = (int16_t)(pInput_static_param->conf_threshold / (scale * scale) + 0.
 892              		.loc 1 252 78 view .LVU276
 893 0004 92ED046A 		vldr.32	s12, [r2, #16]
 894              		.loc 1 252 87 view .LVU277
 895 0008 67EE076A 		vmul.f32	s13, s14, s14
 896              		.loc 1 252 78 view .LVU278
 897 000c C6EE267A 		vdiv.f32	s15, s12, s13
 898              		.loc 1 252 96 view .LVU279
 899 0010 B6EE006A 		vmov.f32	s12, #5.0e-1
 900 0014 77EE867A 		vadd.f32	s15, s15, s12
 901              		.loc 1 252 11 view .LVU280
 902 0018 FDEEE77A 		vcvt.s32.f32	s15, s15
 903 001c 17EE903A 		vmov	r3, s15	@ int
 248:../Middlewares/stm32-vision-models-postprocessing/lib_vision_models_pp/Src/od_pp_yolo_d.c ****   int32_t det_count = 0;
 904              		.loc 1 248 1 view .LVU281
 905 0020 2DE9F041 		push	{r4, r5, r6, r7, r8, lr}
 906              		.cfi_def_cfa_offset 24
 907              		.cfi_offset 4, -24
 908              		.cfi_offset 5, -20
 909              		.cfi_offset 6, -16
 910              		.cfi_offset 7, -12
 911              		.cfi_offset 8, -8
 912              		.cfi_offset 14, -4
 249:../Middlewares/stm32-vision-models-postprocessing/lib_vision_models_pp/Src/od_pp_yolo_d.c ****   int8_t zero_point = pInput_static_param->raw_output_zero_point;
 913              		.loc 1 249 11 view .LVU282
 914 0024 0026     		movs	r6, #0
 915              	.LBB36:
 253:../Middlewares/stm32-vision-models-postprocessing/lib_vision_models_pp/Src/od_pp_yolo_d.c **** 
 254:../Middlewares/stm32-vision-models-postprocessing/lib_vision_models_pp/Src/od_pp_yolo_d.c ****   for (int32_t i = 0; i < pInput_static_param->nb_detect; i++)
 255:../Middlewares/stm32-vision-models-postprocessing/lib_vision_models_pp/Src/od_pp_yolo_d.c ****   {
 256:../Middlewares/stm32-vision-models-postprocessing/lib_vision_models_pp/Src/od_pp_yolo_d.c ****     if (ptrScratch[i].conf >= conf_threshold_s16)
 257:../Middlewares/stm32-vision-models-postprocessing/lib_vision_models_pp/Src/od_pp_yolo_d.c ****     {
 258:../Middlewares/stm32-vision-models-postprocessing/lib_vision_models_pp/Src/od_pp_yolo_d.c ****       if (det_count >= pInput_static_param->max_boxes_limit) {
 259:../Middlewares/stm32-vision-models-postprocessing/lib_vision_models_pp/Src/od_pp_yolo_d.c ****         break;
 260:../Middlewares/stm32-vision-models-postprocessing/lib_vision_models_pp/Src/od_pp_yolo_d.c ****       }
 261:../Middlewares/stm32-vision-models-postprocessing/lib_vision_models_pp/Src/od_pp_yolo_d.c ****       pOutput->pOutBuff[det_count].x_center    = scale * (float32_t)((int32_t)ptrScratch[i].x_cente
 916              		.loc 1 261 24 view .LVU283
ARM GAS  /tmp/ccUSEqtX.s 			page 25


 917 0026 4FF0180E 		mov	lr, #24
 918 002a D769     		ldr	r7, [r2, #28]
 919              	.LBE36:
 250:../Middlewares/stm32-vision-models-postprocessing/lib_vision_models_pp/Src/od_pp_yolo_d.c ****   float32_t scale = pInput_static_param->raw_output_scale;
 920              		.loc 1 250 10 view .LVU284
 921 002c 92F925C0 		ldrsb	ip, [r2, #37]
 922              	.LVL83:
 251:../Middlewares/stm32-vision-models-postprocessing/lib_vision_models_pp/Src/od_pp_yolo_d.c ****   int16_t conf_threshold_s16 = (int16_t)(pInput_static_param->conf_threshold / (scale * scale) + 0.
 923              		.loc 1 251 3 is_stmt 1 view .LVU285
 252:../Middlewares/stm32-vision-models-postprocessing/lib_vision_models_pp/Src/od_pp_yolo_d.c **** 
 924              		.loc 1 252 3 view .LVU286
 252:../Middlewares/stm32-vision-models-postprocessing/lib_vision_models_pp/Src/od_pp_yolo_d.c **** 
 925              		.loc 1 252 11 is_stmt 0 view .LVU287
 926 0030 1CB2     		sxth	r4, r3
 927              	.LVL84:
 254:../Middlewares/stm32-vision-models-postprocessing/lib_vision_models_pp/Src/od_pp_yolo_d.c ****   {
 928              		.loc 1 254 3 is_stmt 1 view .LVU288
 929              	.LBB37:
 254:../Middlewares/stm32-vision-models-postprocessing/lib_vision_models_pp/Src/od_pp_yolo_d.c ****   {
 930              		.loc 1 254 8 view .LVU289
 931              		.loc 1 261 24 is_stmt 0 view .LVU290
 932 0032 0137     		adds	r7, r7, #1
 933              	.LVL85:
 934              	.L86:
 254:../Middlewares/stm32-vision-models-postprocessing/lib_vision_models_pp/Src/od_pp_yolo_d.c ****   {
 935              		.loc 1 254 25 is_stmt 1 discriminator 1 view .LVU291
 936 0034 013F     		subs	r7, r7, #1
 937 0036 03D1     		bne	.L89
 938              	.L90:
 939              	.LBE37:
 262:../Middlewares/stm32-vision-models-postprocessing/lib_vision_models_pp/Src/od_pp_yolo_d.c ****       pOutput->pOutBuff[det_count].y_center    = scale * (float32_t)((int32_t)ptrScratch[i].y_cente
 263:../Middlewares/stm32-vision-models-postprocessing/lib_vision_models_pp/Src/od_pp_yolo_d.c ****       pOutput->pOutBuff[det_count].width       = scale * (float32_t)((int32_t)ptrScratch[i].width  
 264:../Middlewares/stm32-vision-models-postprocessing/lib_vision_models_pp/Src/od_pp_yolo_d.c ****       pOutput->pOutBuff[det_count].height      = scale * (float32_t)((int32_t)ptrScratch[i].height 
 265:../Middlewares/stm32-vision-models-postprocessing/lib_vision_models_pp/Src/od_pp_yolo_d.c ****       pOutput->pOutBuff[det_count].conf        = scale * scale * (float32_t)((int32_t)ptrScratch[i]
 266:../Middlewares/stm32-vision-models-postprocessing/lib_vision_models_pp/Src/od_pp_yolo_d.c ****       pOutput->pOutBuff[det_count].class_index = (int32_t)ptrScratch[i].class_index;
 267:../Middlewares/stm32-vision-models-postprocessing/lib_vision_models_pp/Src/od_pp_yolo_d.c ****       det_count++;
 268:../Middlewares/stm32-vision-models-postprocessing/lib_vision_models_pp/Src/od_pp_yolo_d.c ****     }
 269:../Middlewares/stm32-vision-models-postprocessing/lib_vision_models_pp/Src/od_pp_yolo_d.c ****   }
 270:../Middlewares/stm32-vision-models-postprocessing/lib_vision_models_pp/Src/od_pp_yolo_d.c ****   pOutput->nb_detect = det_count;
 940              		.loc 1 270 3 view .LVU292
 271:../Middlewares/stm32-vision-models-postprocessing/lib_vision_models_pp/Src/od_pp_yolo_d.c **** 
 272:../Middlewares/stm32-vision-models-postprocessing/lib_vision_models_pp/Src/od_pp_yolo_d.c ****   return (AI_OD_POSTPROCESS_ERROR_NO);
 273:../Middlewares/stm32-vision-models-postprocessing/lib_vision_models_pp/Src/od_pp_yolo_d.c **** }
 941              		.loc 1 273 1 is_stmt 0 view .LVU293
 942 0038 0020     		movs	r0, #0
 270:../Middlewares/stm32-vision-models-postprocessing/lib_vision_models_pp/Src/od_pp_yolo_d.c **** 
 943              		.loc 1 270 22 view .LVU294
 944 003a 4E60     		str	r6, [r1, #4]
 272:../Middlewares/stm32-vision-models-postprocessing/lib_vision_models_pp/Src/od_pp_yolo_d.c **** }
 945              		.loc 1 272 3 is_stmt 1 view .LVU295
 946              		.loc 1 273 1 is_stmt 0 view .LVU296
 947 003c BDE8F081 		pop	{r4, r5, r6, r7, r8, pc}
 948              	.LVL86:
 949              	.L89:
 950              	.LBB38:
 256:../Middlewares/stm32-vision-models-postprocessing/lib_vision_models_pp/Src/od_pp_yolo_d.c ****     {
 951              		.loc 1 256 5 is_stmt 1 view .LVU297
ARM GAS  /tmp/ccUSEqtX.s 			page 26


 256:../Middlewares/stm32-vision-models-postprocessing/lib_vision_models_pp/Src/od_pp_yolo_d.c ****     {
 952              		.loc 1 256 22 is_stmt 0 view .LVU298
 953 0040 B0F90480 		ldrsh	r8, [r0, #4]
 256:../Middlewares/stm32-vision-models-postprocessing/lib_vision_models_pp/Src/od_pp_yolo_d.c ****     {
 954              		.loc 1 256 8 view .LVU299
 955 0044 A045     		cmp	r8, r4
 956 0046 40DB     		blt	.L87
 258:../Middlewares/stm32-vision-models-postprocessing/lib_vision_models_pp/Src/od_pp_yolo_d.c ****         break;
 957              		.loc 1 258 7 is_stmt 1 view .LVU300
 258:../Middlewares/stm32-vision-models-postprocessing/lib_vision_models_pp/Src/od_pp_yolo_d.c ****         break;
 958              		.loc 1 258 10 is_stmt 0 view .LVU301
 959 0048 D368     		ldr	r3, [r2, #12]
 960 004a B342     		cmp	r3, r6
 961 004c F4DD     		ble	.L90
 261:../Middlewares/stm32-vision-models-postprocessing/lib_vision_models_pp/Src/od_pp_yolo_d.c ****       pOutput->pOutBuff[det_count].y_center    = scale * (float32_t)((int32_t)ptrScratch[i].y_cente
 962              		.loc 1 261 7 is_stmt 1 view .LVU302
 261:../Middlewares/stm32-vision-models-postprocessing/lib_vision_models_pp/Src/od_pp_yolo_d.c ****       pOutput->pOutBuff[det_count].y_center    = scale * (float32_t)((int32_t)ptrScratch[i].y_cente
 963              		.loc 1 261 70 is_stmt 0 view .LVU303
 964 004e 90F90050 		ldrsb	r5, [r0]
 261:../Middlewares/stm32-vision-models-postprocessing/lib_vision_models_pp/Src/od_pp_yolo_d.c ****       pOutput->pOutBuff[det_count].y_center    = scale * (float32_t)((int32_t)ptrScratch[i].y_cente
 965              		.loc 1 261 24 view .LVU304
 966 0052 0B68     		ldr	r3, [r1]
 261:../Middlewares/stm32-vision-models-postprocessing/lib_vision_models_pp/Src/od_pp_yolo_d.c ****       pOutput->pOutBuff[det_count].y_center    = scale * (float32_t)((int32_t)ptrScratch[i].y_cente
 967              		.loc 1 261 105 view .LVU305
 968 0054 A5EB0C05 		sub	r5, r5, ip
 969 0058 07EE905A 		vmov	s15, r5	@ int
 261:../Middlewares/stm32-vision-models-postprocessing/lib_vision_models_pp/Src/od_pp_yolo_d.c ****       pOutput->pOutBuff[det_count].y_center    = scale * (float32_t)((int32_t)ptrScratch[i].y_cente
 970              		.loc 1 261 58 view .LVU306
 971 005c F8EEE77A 		vcvt.f32.s32	s15, s15
 261:../Middlewares/stm32-vision-models-postprocessing/lib_vision_models_pp/Src/od_pp_yolo_d.c ****       pOutput->pOutBuff[det_count].y_center    = scale * (float32_t)((int32_t)ptrScratch[i].y_cente
 972              		.loc 1 261 56 view .LVU307
 973 0060 67EE877A 		vmul.f32	s15, s15, s14
 261:../Middlewares/stm32-vision-models-postprocessing/lib_vision_models_pp/Src/od_pp_yolo_d.c ****       pOutput->pOutBuff[det_count].y_center    = scale * (float32_t)((int32_t)ptrScratch[i].y_cente
 974              		.loc 1 261 24 view .LVU308
 975 0064 0EFB0633 		mla	r3, lr, r6, r3
 261:../Middlewares/stm32-vision-models-postprocessing/lib_vision_models_pp/Src/od_pp_yolo_d.c ****       pOutput->pOutBuff[det_count].y_center    = scale * (float32_t)((int32_t)ptrScratch[i].y_cente
 976              		.loc 1 261 48 view .LVU309
 977 0068 C3ED007A 		vstr.32	s15, [r3]
 262:../Middlewares/stm32-vision-models-postprocessing/lib_vision_models_pp/Src/od_pp_yolo_d.c ****       pOutput->pOutBuff[det_count].width       = scale * (float32_t)((int32_t)ptrScratch[i].width  
 978              		.loc 1 262 7 is_stmt 1 view .LVU310
 262:../Middlewares/stm32-vision-models-postprocessing/lib_vision_models_pp/Src/od_pp_yolo_d.c ****       pOutput->pOutBuff[det_count].width       = scale * (float32_t)((int32_t)ptrScratch[i].width  
 979              		.loc 1 262 70 is_stmt 0 view .LVU311
 980 006c 90F90150 		ldrsb	r5, [r0, #1]
 267:../Middlewares/stm32-vision-models-postprocessing/lib_vision_models_pp/Src/od_pp_yolo_d.c ****     }
 981              		.loc 1 267 16 view .LVU312
 982 0070 0136     		adds	r6, r6, #1
 983              	.LVL87:
 262:../Middlewares/stm32-vision-models-postprocessing/lib_vision_models_pp/Src/od_pp_yolo_d.c ****       pOutput->pOutBuff[det_count].width       = scale * (float32_t)((int32_t)ptrScratch[i].width  
 984              		.loc 1 262 105 view .LVU313
 985 0072 A5EB0C05 		sub	r5, r5, ip
 986 0076 07EE905A 		vmov	s15, r5	@ int
 262:../Middlewares/stm32-vision-models-postprocessing/lib_vision_models_pp/Src/od_pp_yolo_d.c ****       pOutput->pOutBuff[det_count].width       = scale * (float32_t)((int32_t)ptrScratch[i].width  
 987              		.loc 1 262 58 view .LVU314
 988 007a F8EEE77A 		vcvt.f32.s32	s15, s15
 262:../Middlewares/stm32-vision-models-postprocessing/lib_vision_models_pp/Src/od_pp_yolo_d.c ****       pOutput->pOutBuff[det_count].width       = scale * (float32_t)((int32_t)ptrScratch[i].width  
 989              		.loc 1 262 56 view .LVU315
 990 007e 67EE877A 		vmul.f32	s15, s15, s14
ARM GAS  /tmp/ccUSEqtX.s 			page 27


 262:../Middlewares/stm32-vision-models-postprocessing/lib_vision_models_pp/Src/od_pp_yolo_d.c ****       pOutput->pOutBuff[det_count].width       = scale * (float32_t)((int32_t)ptrScratch[i].width  
 991              		.loc 1 262 48 view .LVU316
 992 0082 C3ED017A 		vstr.32	s15, [r3, #4]
 263:../Middlewares/stm32-vision-models-postprocessing/lib_vision_models_pp/Src/od_pp_yolo_d.c ****       pOutput->pOutBuff[det_count].height      = scale * (float32_t)((int32_t)ptrScratch[i].height 
 993              		.loc 1 263 7 is_stmt 1 view .LVU317
 263:../Middlewares/stm32-vision-models-postprocessing/lib_vision_models_pp/Src/od_pp_yolo_d.c ****       pOutput->pOutBuff[det_count].height      = scale * (float32_t)((int32_t)ptrScratch[i].height 
 994              		.loc 1 263 70 is_stmt 0 view .LVU318
 995 0086 90F90250 		ldrsb	r5, [r0, #2]
 263:../Middlewares/stm32-vision-models-postprocessing/lib_vision_models_pp/Src/od_pp_yolo_d.c ****       pOutput->pOutBuff[det_count].height      = scale * (float32_t)((int32_t)ptrScratch[i].height 
 996              		.loc 1 263 105 view .LVU319
 997 008a A5EB0C05 		sub	r5, r5, ip
 998 008e 07EE905A 		vmov	s15, r5	@ int
 263:../Middlewares/stm32-vision-models-postprocessing/lib_vision_models_pp/Src/od_pp_yolo_d.c ****       pOutput->pOutBuff[det_count].height      = scale * (float32_t)((int32_t)ptrScratch[i].height 
 999              		.loc 1 263 58 view .LVU320
 1000 0092 F8EEE77A 		vcvt.f32.s32	s15, s15
 263:../Middlewares/stm32-vision-models-postprocessing/lib_vision_models_pp/Src/od_pp_yolo_d.c ****       pOutput->pOutBuff[det_count].height      = scale * (float32_t)((int32_t)ptrScratch[i].height 
 1001              		.loc 1 263 56 view .LVU321
 1002 0096 67EE877A 		vmul.f32	s15, s15, s14
 263:../Middlewares/stm32-vision-models-postprocessing/lib_vision_models_pp/Src/od_pp_yolo_d.c ****       pOutput->pOutBuff[det_count].height      = scale * (float32_t)((int32_t)ptrScratch[i].height 
 1003              		.loc 1 263 48 view .LVU322
 1004 009a C3ED027A 		vstr.32	s15, [r3, #8]
 264:../Middlewares/stm32-vision-models-postprocessing/lib_vision_models_pp/Src/od_pp_yolo_d.c ****       pOutput->pOutBuff[det_count].conf        = scale * scale * (float32_t)((int32_t)ptrScratch[i]
 1005              		.loc 1 264 7 is_stmt 1 view .LVU323
 264:../Middlewares/stm32-vision-models-postprocessing/lib_vision_models_pp/Src/od_pp_yolo_d.c ****       pOutput->pOutBuff[det_count].conf        = scale * scale * (float32_t)((int32_t)ptrScratch[i]
 1006              		.loc 1 264 70 is_stmt 0 view .LVU324
 1007 009e 90F90350 		ldrsb	r5, [r0, #3]
 264:../Middlewares/stm32-vision-models-postprocessing/lib_vision_models_pp/Src/od_pp_yolo_d.c ****       pOutput->pOutBuff[det_count].conf        = scale * scale * (float32_t)((int32_t)ptrScratch[i]
 1008              		.loc 1 264 105 view .LVU325
 1009 00a2 A5EB0C05 		sub	r5, r5, ip
 1010 00a6 07EE905A 		vmov	s15, r5	@ int
 264:../Middlewares/stm32-vision-models-postprocessing/lib_vision_models_pp/Src/od_pp_yolo_d.c ****       pOutput->pOutBuff[det_count].conf        = scale * scale * (float32_t)((int32_t)ptrScratch[i]
 1011              		.loc 1 264 58 view .LVU326
 1012 00aa F8EEE77A 		vcvt.f32.s32	s15, s15
 264:../Middlewares/stm32-vision-models-postprocessing/lib_vision_models_pp/Src/od_pp_yolo_d.c ****       pOutput->pOutBuff[det_count].conf        = scale * scale * (float32_t)((int32_t)ptrScratch[i]
 1013              		.loc 1 264 56 view .LVU327
 1014 00ae 67EE877A 		vmul.f32	s15, s15, s14
 264:../Middlewares/stm32-vision-models-postprocessing/lib_vision_models_pp/Src/od_pp_yolo_d.c ****       pOutput->pOutBuff[det_count].conf        = scale * scale * (float32_t)((int32_t)ptrScratch[i]
 1015              		.loc 1 264 48 view .LVU328
 1016 00b2 C3ED037A 		vstr.32	s15, [r3, #12]
 265:../Middlewares/stm32-vision-models-postprocessing/lib_vision_models_pp/Src/od_pp_yolo_d.c ****       pOutput->pOutBuff[det_count].class_index = (int32_t)ptrScratch[i].class_index;
 1017              		.loc 1 265 7 is_stmt 1 view .LVU329
 265:../Middlewares/stm32-vision-models-postprocessing/lib_vision_models_pp/Src/od_pp_yolo_d.c ****       pOutput->pOutBuff[det_count].class_index = (int32_t)ptrScratch[i].class_index;
 1018              		.loc 1 265 66 is_stmt 0 view .LVU330
 1019 00b6 07EE908A 		vmov	s15, r8	@ int
 1020 00ba F8EEE77A 		vcvt.f32.s32	s15, s15
 265:../Middlewares/stm32-vision-models-postprocessing/lib_vision_models_pp/Src/od_pp_yolo_d.c ****       pOutput->pOutBuff[det_count].class_index = (int32_t)ptrScratch[i].class_index;
 1021              		.loc 1 265 64 view .LVU331
 1022 00be 67EEA67A 		vmul.f32	s15, s15, s13
 265:../Middlewares/stm32-vision-models-postprocessing/lib_vision_models_pp/Src/od_pp_yolo_d.c ****       pOutput->pOutBuff[det_count].class_index = (int32_t)ptrScratch[i].class_index;
 1023              		.loc 1 265 48 view .LVU332
 1024 00c2 C3ED047A 		vstr.32	s15, [r3, #16]
 266:../Middlewares/stm32-vision-models-postprocessing/lib_vision_models_pp/Src/od_pp_yolo_d.c ****       det_count++;
 1025              		.loc 1 266 7 is_stmt 1 view .LVU333
 266:../Middlewares/stm32-vision-models-postprocessing/lib_vision_models_pp/Src/od_pp_yolo_d.c ****       det_count++;
 1026              		.loc 1 266 50 is_stmt 0 view .LVU334
 1027 00c6 8579     		ldrb	r5, [r0, #6]	@ zero_extendqisi2
 1028 00c8 5D61     		str	r5, [r3, #20]
ARM GAS  /tmp/ccUSEqtX.s 			page 28


 267:../Middlewares/stm32-vision-models-postprocessing/lib_vision_models_pp/Src/od_pp_yolo_d.c ****     }
 1029              		.loc 1 267 7 is_stmt 1 view .LVU335
 1030              	.LVL88:
 1031              	.L87:
 254:../Middlewares/stm32-vision-models-postprocessing/lib_vision_models_pp/Src/od_pp_yolo_d.c ****   {
 1032              		.loc 1 254 60 discriminator 2 view .LVU336
 1033 00ca 0830     		adds	r0, r0, #8
 1034 00cc B2E7     		b	.L86
 1035              	.LBE38:
 1036              		.cfi_endproc
 1037              	.LFE779:
 1039              		.section	.text.yolov_d_pp_getNNBoxes_centroid,"ax",%progbits
 1040              		.align	1
 1041              		.global	yolov_d_pp_getNNBoxes_centroid
 1042              		.syntax unified
 1043              		.thumb
 1044              		.thumb_func
 1046              	yolov_d_pp_getNNBoxes_centroid:
 1047              	.LVL89:
 1048              	.LFB781:
 274:../Middlewares/stm32-vision-models-postprocessing/lib_vision_models_pp/Src/od_pp_yolo_d.c **** 
 275:../Middlewares/stm32-vision-models-postprocessing/lib_vision_models_pp/Src/od_pp_yolo_d.c ****   static int32_t _yolov_d_pp_getNNBoxes_centroid_stride(float32_t **pRaw_detections_ptr,
 276:../Middlewares/stm32-vision-models-postprocessing/lib_vision_models_pp/Src/od_pp_yolo_d.c ****                                                        od_pp_out_t *pOutput,
 277:../Middlewares/stm32-vision-models-postprocessing/lib_vision_models_pp/Src/od_pp_yolo_d.c ****                                                        uint32_t width,
 278:../Middlewares/stm32-vision-models-postprocessing/lib_vision_models_pp/Src/od_pp_yolo_d.c ****                                                        uint32_t  height,
 279:../Middlewares/stm32-vision-models-postprocessing/lib_vision_models_pp/Src/od_pp_yolo_d.c ****                                                        uint8_t stride,
 280:../Middlewares/stm32-vision-models-postprocessing/lib_vision_models_pp/Src/od_pp_yolo_d.c ****                                                        uint32_t nb_classes,
 281:../Middlewares/stm32-vision-models-postprocessing/lib_vision_models_pp/Src/od_pp_yolo_d.c ****                                                        float32_t conf_threshold,
 282:../Middlewares/stm32-vision-models-postprocessing/lib_vision_models_pp/Src/od_pp_yolo_d.c ****                                                        uint32_t *p_nb_detect)
 283:../Middlewares/stm32-vision-models-postprocessing/lib_vision_models_pp/Src/od_pp_yolo_d.c **** {
 284:../Middlewares/stm32-vision-models-postprocessing/lib_vision_models_pp/Src/od_pp_yolo_d.c ****   int32_t error   = AI_OD_POSTPROCESS_ERROR_NO;
 285:../Middlewares/stm32-vision-models-postprocessing/lib_vision_models_pp/Src/od_pp_yolo_d.c **** 
 286:../Middlewares/stm32-vision-models-postprocessing/lib_vision_models_pp/Src/od_pp_yolo_d.c ****   float32_t *pRaw_detections = *pRaw_detections_ptr;
 287:../Middlewares/stm32-vision-models-postprocessing/lib_vision_models_pp/Src/od_pp_yolo_d.c ****   uint32_t grid_width = width / stride;
 288:../Middlewares/stm32-vision-models-postprocessing/lib_vision_models_pp/Src/od_pp_yolo_d.c ****   uint32_t  grid_height = height /stride;
 289:../Middlewares/stm32-vision-models-postprocessing/lib_vision_models_pp/Src/od_pp_yolo_d.c ****   float32_t inv_width = 1.0f / (float32_t)width;
 290:../Middlewares/stm32-vision-models-postprocessing/lib_vision_models_pp/Src/od_pp_yolo_d.c ****   float32_t inv_height = 1.0f / (float32_t)height;
 291:../Middlewares/stm32-vision-models-postprocessing/lib_vision_models_pp/Src/od_pp_yolo_d.c ****   float32_t best_score_f;
 292:../Middlewares/stm32-vision-models-postprocessing/lib_vision_models_pp/Src/od_pp_yolo_d.c ****   int32_t nb_detect = *p_nb_detect;
 293:../Middlewares/stm32-vision-models-postprocessing/lib_vision_models_pp/Src/od_pp_yolo_d.c ****   od_pp_outBuffer_t *pOutBuff = (od_pp_outBuffer_t *)pOutput->pOutBuff;
 294:../Middlewares/stm32-vision-models-postprocessing/lib_vision_models_pp/Src/od_pp_yolo_d.c **** 
 295:../Middlewares/stm32-vision-models-postprocessing/lib_vision_models_pp/Src/od_pp_yolo_d.c **** 
 296:../Middlewares/stm32-vision-models-postprocessing/lib_vision_models_pp/Src/od_pp_yolo_d.c ****   for (uint32_t iy = 0; iy < grid_height; iy++)
 297:../Middlewares/stm32-vision-models-postprocessing/lib_vision_models_pp/Src/od_pp_yolo_d.c ****   {
 298:../Middlewares/stm32-vision-models-postprocessing/lib_vision_models_pp/Src/od_pp_yolo_d.c ****     uint32_t remaining_boxes = grid_width;
 299:../Middlewares/stm32-vision-models-postprocessing/lib_vision_models_pp/Src/od_pp_yolo_d.c ****     for (uint32_t ix = 0; ix < grid_width; ix+=4)
 300:../Middlewares/stm32-vision-models-postprocessing/lib_vision_models_pp/Src/od_pp_yolo_d.c ****     {
 301:../Middlewares/stm32-vision-models-postprocessing/lib_vision_models_pp/Src/od_pp_yolo_d.c **** 
 302:../Middlewares/stm32-vision-models-postprocessing/lib_vision_models_pp/Src/od_pp_yolo_d.c ****       float32_t best_score_array[4];
 303:../Middlewares/stm32-vision-models-postprocessing/lib_vision_models_pp/Src/od_pp_yolo_d.c ****       uint32_t class_index_array[4];
 304:../Middlewares/stm32-vision-models-postprocessing/lib_vision_models_pp/Src/od_pp_yolo_d.c **** 
 305:../Middlewares/stm32-vision-models-postprocessing/lib_vision_models_pp/Src/od_pp_yolo_d.c ****       uint32_t parallelize = MIN(remaining_boxes,4);
 306:../Middlewares/stm32-vision-models-postprocessing/lib_vision_models_pp/Src/od_pp_yolo_d.c ****       // Max prob over classes
 307:../Middlewares/stm32-vision-models-postprocessing/lib_vision_models_pp/Src/od_pp_yolo_d.c ****       vision_models_maxi_p_if32ou32(&pRaw_detections[AI_YOLO_D_PP_CLASSPROB],
 308:../Middlewares/stm32-vision-models-postprocessing/lib_vision_models_pp/Src/od_pp_yolo_d.c ****                                     nb_classes,
 309:../Middlewares/stm32-vision-models-postprocessing/lib_vision_models_pp/Src/od_pp_yolo_d.c ****                                     AI_YOLO_D_PP_CLASSPROB + nb_classes,
 310:../Middlewares/stm32-vision-models-postprocessing/lib_vision_models_pp/Src/od_pp_yolo_d.c ****                                     best_score_array,
ARM GAS  /tmp/ccUSEqtX.s 			page 29


 311:../Middlewares/stm32-vision-models-postprocessing/lib_vision_models_pp/Src/od_pp_yolo_d.c ****                                     class_index_array,
 312:../Middlewares/stm32-vision-models-postprocessing/lib_vision_models_pp/Src/od_pp_yolo_d.c ****                                     parallelize);
 313:../Middlewares/stm32-vision-models-postprocessing/lib_vision_models_pp/Src/od_pp_yolo_d.c **** 
 314:../Middlewares/stm32-vision-models-postprocessing/lib_vision_models_pp/Src/od_pp_yolo_d.c ****       for (int _i = 0; _i < parallelize; _i++)
 315:../Middlewares/stm32-vision-models-postprocessing/lib_vision_models_pp/Src/od_pp_yolo_d.c ****       {
 316:../Middlewares/stm32-vision-models-postprocessing/lib_vision_models_pp/Src/od_pp_yolo_d.c ****         best_score_f = best_score_array[_i]*pRaw_detections[AI_YOLO_D_PP_OBJPROB];
 317:../Middlewares/stm32-vision-models-postprocessing/lib_vision_models_pp/Src/od_pp_yolo_d.c **** 
 318:../Middlewares/stm32-vision-models-postprocessing/lib_vision_models_pp/Src/od_pp_yolo_d.c ****         if (best_score_f >= conf_threshold)
 319:../Middlewares/stm32-vision-models-postprocessing/lib_vision_models_pp/Src/od_pp_yolo_d.c ****         {
 320:../Middlewares/stm32-vision-models-postprocessing/lib_vision_models_pp/Src/od_pp_yolo_d.c ****           /* AI_YOLO_D_PP_XCENTER */
 321:../Middlewares/stm32-vision-models-postprocessing/lib_vision_models_pp/Src/od_pp_yolo_d.c ****           float32_t x_center = pRaw_detections[AI_YOLO_D_PP_XCENTER];
 322:../Middlewares/stm32-vision-models-postprocessing/lib_vision_models_pp/Src/od_pp_yolo_d.c ****           x_center = (x_center + ix + _i) * stride * inv_width;
 323:../Middlewares/stm32-vision-models-postprocessing/lib_vision_models_pp/Src/od_pp_yolo_d.c ****           pOutBuff[nb_detect].x_center    = x_center;
 324:../Middlewares/stm32-vision-models-postprocessing/lib_vision_models_pp/Src/od_pp_yolo_d.c ****           /* AI_YOLO_D_PP_YCENTER */
 325:../Middlewares/stm32-vision-models-postprocessing/lib_vision_models_pp/Src/od_pp_yolo_d.c ****           float32_t y_center = pRaw_detections[AI_YOLO_D_PP_YCENTER];
 326:../Middlewares/stm32-vision-models-postprocessing/lib_vision_models_pp/Src/od_pp_yolo_d.c ****           y_center = (y_center + iy) * stride * inv_height;
 327:../Middlewares/stm32-vision-models-postprocessing/lib_vision_models_pp/Src/od_pp_yolo_d.c ****           pOutBuff[nb_detect].y_center    = y_center;
 328:../Middlewares/stm32-vision-models-postprocessing/lib_vision_models_pp/Src/od_pp_yolo_d.c ****           /* AI_YOLO_D_PP_WIDTHREL */
 329:../Middlewares/stm32-vision-models-postprocessing/lib_vision_models_pp/Src/od_pp_yolo_d.c ****           float32_t w = pRaw_detections[AI_YOLO_D_PP_WIDTHREL];
 330:../Middlewares/stm32-vision-models-postprocessing/lib_vision_models_pp/Src/od_pp_yolo_d.c ****           w = expf(w) * stride * inv_width;
 331:../Middlewares/stm32-vision-models-postprocessing/lib_vision_models_pp/Src/od_pp_yolo_d.c ****           pOutBuff[nb_detect].width    = w;
 332:../Middlewares/stm32-vision-models-postprocessing/lib_vision_models_pp/Src/od_pp_yolo_d.c ****           /* AI_YOLO_D_PP_HEIGHTREL */
 333:../Middlewares/stm32-vision-models-postprocessing/lib_vision_models_pp/Src/od_pp_yolo_d.c ****           float32_t h = pRaw_detections[AI_YOLO_D_PP_HEIGHTREL];
 334:../Middlewares/stm32-vision-models-postprocessing/lib_vision_models_pp/Src/od_pp_yolo_d.c ****           h = expf(h) * stride * inv_height;
 335:../Middlewares/stm32-vision-models-postprocessing/lib_vision_models_pp/Src/od_pp_yolo_d.c ****           pOutBuff[nb_detect].height      = h;
 336:../Middlewares/stm32-vision-models-postprocessing/lib_vision_models_pp/Src/od_pp_yolo_d.c **** 
 337:../Middlewares/stm32-vision-models-postprocessing/lib_vision_models_pp/Src/od_pp_yolo_d.c ****           pOutBuff[nb_detect].conf        = best_score_f;
 338:../Middlewares/stm32-vision-models-postprocessing/lib_vision_models_pp/Src/od_pp_yolo_d.c ****           pOutBuff[nb_detect].class_index = class_index_array[_i];
 339:../Middlewares/stm32-vision-models-postprocessing/lib_vision_models_pp/Src/od_pp_yolo_d.c ****           nb_detect++;
 340:../Middlewares/stm32-vision-models-postprocessing/lib_vision_models_pp/Src/od_pp_yolo_d.c ****         }
 341:../Middlewares/stm32-vision-models-postprocessing/lib_vision_models_pp/Src/od_pp_yolo_d.c ****         pRaw_detections += (AI_YOLO_D_PP_CLASSPROB + nb_classes);
 342:../Middlewares/stm32-vision-models-postprocessing/lib_vision_models_pp/Src/od_pp_yolo_d.c ****       }
 343:../Middlewares/stm32-vision-models-postprocessing/lib_vision_models_pp/Src/od_pp_yolo_d.c ****       remaining_boxes -= parallelize;
 344:../Middlewares/stm32-vision-models-postprocessing/lib_vision_models_pp/Src/od_pp_yolo_d.c ****     } // for ix
 345:../Middlewares/stm32-vision-models-postprocessing/lib_vision_models_pp/Src/od_pp_yolo_d.c ****   } // for iy
 346:../Middlewares/stm32-vision-models-postprocessing/lib_vision_models_pp/Src/od_pp_yolo_d.c ****   *p_nb_detect = nb_detect;
 347:../Middlewares/stm32-vision-models-postprocessing/lib_vision_models_pp/Src/od_pp_yolo_d.c ****   *pRaw_detections_ptr = pRaw_detections;
 348:../Middlewares/stm32-vision-models-postprocessing/lib_vision_models_pp/Src/od_pp_yolo_d.c **** 
 349:../Middlewares/stm32-vision-models-postprocessing/lib_vision_models_pp/Src/od_pp_yolo_d.c ****   return (error);
 350:../Middlewares/stm32-vision-models-postprocessing/lib_vision_models_pp/Src/od_pp_yolo_d.c **** }
 351:../Middlewares/stm32-vision-models-postprocessing/lib_vision_models_pp/Src/od_pp_yolo_d.c **** 
 352:../Middlewares/stm32-vision-models-postprocessing/lib_vision_models_pp/Src/od_pp_yolo_d.c **** int32_t yolov_d_pp_getNNBoxes_centroid(od_yolo_d_pp_in_centroid_t *pInput,
 353:../Middlewares/stm32-vision-models-postprocessing/lib_vision_models_pp/Src/od_pp_yolo_d.c ****                                        od_pp_out_t *pOutput,
 354:../Middlewares/stm32-vision-models-postprocessing/lib_vision_models_pp/Src/od_pp_yolo_d.c ****                                        od_yolo_d_pp_static_param_t *pInput_static_param)
 355:../Middlewares/stm32-vision-models-postprocessing/lib_vision_models_pp/Src/od_pp_yolo_d.c **** {
 1049              		.loc 1 355 1 view -0
 1050              		.cfi_startproc
 1051              		@ args = 0, pretend = 0, frame = 88
 1052              		@ frame_needed = 0, uses_anonymous_args = 0
 356:../Middlewares/stm32-vision-models-postprocessing/lib_vision_models_pp/Src/od_pp_yolo_d.c ****   int32_t error   = AI_OD_POSTPROCESS_ERROR_NO;
 1053              		.loc 1 356 3 view .LVU338
 357:../Middlewares/stm32-vision-models-postprocessing/lib_vision_models_pp/Src/od_pp_yolo_d.c ****   float32_t *pRaw_detections = (float32_t *)pInput->pRaw_detections;
 1054              		.loc 1 357 3 view .LVU339
 355:../Middlewares/stm32-vision-models-postprocessing/lib_vision_models_pp/Src/od_pp_yolo_d.c ****   int32_t error   = AI_OD_POSTPROCESS_ERROR_NO;
 1055              		.loc 1 355 1 is_stmt 0 view .LVU340
 1056 0000 2DE9F04F 		push	{r4, r5, r6, r7, r8, r9, r10, fp, lr}
 1057              		.cfi_def_cfa_offset 36
ARM GAS  /tmp/ccUSEqtX.s 			page 30


 1058              		.cfi_offset 4, -36
 1059              		.cfi_offset 5, -32
 1060              		.cfi_offset 6, -28
 1061              		.cfi_offset 7, -24
 1062              		.cfi_offset 8, -20
 1063              		.cfi_offset 9, -16
 1064              		.cfi_offset 10, -12
 1065              		.cfi_offset 11, -8
 1066              		.cfi_offset 14, -4
 1067 0004 2DED068B 		vpush.64	{d8, d9, d10}
 1068              		.cfi_def_cfa_offset 60
 1069              		.cfi_offset 80, -60
 1070              		.cfi_offset 81, -56
 1071              		.cfi_offset 82, -52
 1072              		.cfi_offset 83, -48
 1073              		.cfi_offset 84, -44
 1074              		.cfi_offset 85, -40
 1075 0008 1446     		mov	r4, r2
 1076              	.LBB55:
 358:../Middlewares/stm32-vision-models-postprocessing/lib_vision_models_pp/Src/od_pp_yolo_d.c **** 
 359:../Middlewares/stm32-vision-models-postprocessing/lib_vision_models_pp/Src/od_pp_yolo_d.c ****   // To be done 3 time for each stride
 360:../Middlewares/stm32-vision-models-postprocessing/lib_vision_models_pp/Src/od_pp_yolo_d.c ****   for ( uint8_t stride_idx = 0; stride_idx < pInput_static_param->strides_nb; stride_idx++) {
 1077              		.loc 1 360 3 view .LVU341
 1078 000a 4FF00009 		mov	r9, #0
 1079              	.LBE55:
 355:../Middlewares/stm32-vision-models-postprocessing/lib_vision_models_pp/Src/od_pp_yolo_d.c ****   int32_t error   = AI_OD_POSTPROCESS_ERROR_NO;
 1080              		.loc 1 355 1 view .LVU342
 1081 000e 99B0     		sub	sp, sp, #100
 1082              		.cfi_def_cfa_offset 160
 357:../Middlewares/stm32-vision-models-postprocessing/lib_vision_models_pp/Src/od_pp_yolo_d.c **** 
 1083              		.loc 1 357 51 view .LVU343
 1084 0010 0568     		ldr	r5, [r0]
 1085              	.LVL90:
 1086              		.loc 1 360 3 is_stmt 1 view .LVU344
 1087              	.LBB87:
 1088              		.loc 1 360 9 view .LVU345
 1089              		.loc 1 360 9 is_stmt 0 view .LVU346
 1090              	.LBE87:
 355:../Middlewares/stm32-vision-models-postprocessing/lib_vision_models_pp/Src/od_pp_yolo_d.c ****   int32_t error   = AI_OD_POSTPROCESS_ERROR_NO;
 1091              		.loc 1 355 1 view .LVU347
 1092 0012 0D91     		str	r1, [sp, #52]
 1093              	.LVL91:
 1094              	.L93:
 1095              	.LBB88:
 1096              		.loc 1 360 44 is_stmt 1 discriminator 1 view .LVU348
 1097 0014 94F82420 		ldrb	r2, [r4, #36]	@ zero_extendqisi2
 1098 0018 5FFA89F3 		uxtb	r3, r9
 1099 001c 9A42     		cmp	r2, r3
 1100 001e 05D8     		bhi	.L101
 1101              		.loc 1 360 44 is_stmt 0 discriminator 1 view .LVU349
 1102              	.LBE88:
 361:../Middlewares/stm32-vision-models-postprocessing/lib_vision_models_pp/Src/od_pp_yolo_d.c ****     uint8_t stride = pInput_static_param->strides[stride_idx];
 362:../Middlewares/stm32-vision-models-postprocessing/lib_vision_models_pp/Src/od_pp_yolo_d.c **** 
 363:../Middlewares/stm32-vision-models-postprocessing/lib_vision_models_pp/Src/od_pp_yolo_d.c ****     error = _yolov_d_pp_getNNBoxes_centroid_stride(&pRaw_detections,
 364:../Middlewares/stm32-vision-models-postprocessing/lib_vision_models_pp/Src/od_pp_yolo_d.c ****                                    pOutput,
 365:../Middlewares/stm32-vision-models-postprocessing/lib_vision_models_pp/Src/od_pp_yolo_d.c ****                                    pInput_static_param->width,
 366:../Middlewares/stm32-vision-models-postprocessing/lib_vision_models_pp/Src/od_pp_yolo_d.c ****                                    pInput_static_param->height,
ARM GAS  /tmp/ccUSEqtX.s 			page 31


 367:../Middlewares/stm32-vision-models-postprocessing/lib_vision_models_pp/Src/od_pp_yolo_d.c ****                                    stride,
 368:../Middlewares/stm32-vision-models-postprocessing/lib_vision_models_pp/Src/od_pp_yolo_d.c ****                                    pInput_static_param->nb_classes,
 369:../Middlewares/stm32-vision-models-postprocessing/lib_vision_models_pp/Src/od_pp_yolo_d.c ****                                    pInput_static_param->conf_threshold,
 370:../Middlewares/stm32-vision-models-postprocessing/lib_vision_models_pp/Src/od_pp_yolo_d.c ****                                    &pInput_static_param->nb_detect);
 371:../Middlewares/stm32-vision-models-postprocessing/lib_vision_models_pp/Src/od_pp_yolo_d.c ****     if (error != AI_OD_POSTPROCESS_ERROR_NO) {
 372:../Middlewares/stm32-vision-models-postprocessing/lib_vision_models_pp/Src/od_pp_yolo_d.c ****       break;
 373:../Middlewares/stm32-vision-models-postprocessing/lib_vision_models_pp/Src/od_pp_yolo_d.c ****     }
 374:../Middlewares/stm32-vision-models-postprocessing/lib_vision_models_pp/Src/od_pp_yolo_d.c ****   }
 375:../Middlewares/stm32-vision-models-postprocessing/lib_vision_models_pp/Src/od_pp_yolo_d.c ****   return error;
 1103              		.loc 1 375 3 is_stmt 1 view .LVU350
 1104              	.LVL92:
 376:../Middlewares/stm32-vision-models-postprocessing/lib_vision_models_pp/Src/od_pp_yolo_d.c **** }
 1105              		.loc 1 376 1 is_stmt 0 view .LVU351
 1106 0020 0020     		movs	r0, #0
 1107 0022 19B0     		add	sp, sp, #100
 1108              		.cfi_remember_state
 1109              		.cfi_def_cfa_offset 60
 1110              		@ sp needed
 1111 0024 BDEC068B 		vldm	sp!, {d8-d10}
 1112              		.cfi_restore 84
 1113              		.cfi_restore 85
 1114              		.cfi_restore 82
 1115              		.cfi_restore 83
 1116              		.cfi_restore 80
 1117              		.cfi_restore 81
 1118              		.cfi_def_cfa_offset 36
 1119 0028 BDE8F08F 		pop	{r4, r5, r6, r7, r8, r9, r10, fp, pc}
 1120              	.LVL93:
 1121              	.L101:
 1122              		.cfi_restore_state
 1123              	.LBB89:
 1124              	.LBB56:
 361:../Middlewares/stm32-vision-models-postprocessing/lib_vision_models_pp/Src/od_pp_yolo_d.c ****     uint8_t stride = pInput_static_param->strides[stride_idx];
 1125              		.loc 1 361 5 is_stmt 1 view .LVU352
 1126              	.LBB57:
 1127              	.LBB58:
 289:../Middlewares/stm32-vision-models-postprocessing/lib_vision_models_pp/Src/od_pp_yolo_d.c ****   float32_t inv_height = 1.0f / (float32_t)height;
 1128              		.loc 1 289 32 is_stmt 0 view .LVU353
 1129 002c D4ED027A 		vldr.32	s15, [r4, #8]	@ int
 289:../Middlewares/stm32-vision-models-postprocessing/lib_vision_models_pp/Src/od_pp_yolo_d.c ****   float32_t inv_height = 1.0f / (float32_t)height;
 1130              		.loc 1 289 13 view .LVU354
 1131 0030 B7EE007A 		vmov.f32	s14, #1.0e+0
 289:../Middlewares/stm32-vision-models-postprocessing/lib_vision_models_pp/Src/od_pp_yolo_d.c ****   float32_t inv_height = 1.0f / (float32_t)height;
 1132              		.loc 1 289 32 view .LVU355
 1133 0034 F8EE677A 		vcvt.f32.u32	s15, s15
 1134              	.LBE58:
 1135              	.LBE57:
 361:../Middlewares/stm32-vision-models-postprocessing/lib_vision_models_pp/Src/od_pp_yolo_d.c ****     uint8_t stride = pInput_static_param->strides[stride_idx];
 1136              		.loc 1 361 13 view .LVU356
 1137 0038 226A     		ldr	r2, [r4, #32]
 1138              	.LBB80:
 1139              	.LBB74:
 289:../Middlewares/stm32-vision-models-postprocessing/lib_vision_models_pp/Src/od_pp_yolo_d.c ****   float32_t inv_height = 1.0f / (float32_t)height;
 1140              		.loc 1 289 13 view .LVU357
 1141 003a C7EE278A 		vdiv.f32	s17, s14, s15
 1142              	.LBE74:
 1143              	.LBE80:
ARM GAS  /tmp/ccUSEqtX.s 			page 32


 361:../Middlewares/stm32-vision-models-postprocessing/lib_vision_models_pp/Src/od_pp_yolo_d.c ****     uint8_t stride = pInput_static_param->strides[stride_idx];
 1144              		.loc 1 361 13 view .LVU358
 1145 003e D35C     		ldrb	r3, [r2, r3]	@ zero_extendqisi2
 1146              	.LBB81:
 1147              	.LBB75:
 290:../Middlewares/stm32-vision-models-postprocessing/lib_vision_models_pp/Src/od_pp_yolo_d.c ****   float32_t best_score_f;
 1148              		.loc 1 290 33 view .LVU359
 1149 0040 D4ED017A 		vldr.32	s15, [r4, #4]	@ int
 1150              	.LBE75:
 1151              	.LBE81:
 361:../Middlewares/stm32-vision-models-postprocessing/lib_vision_models_pp/Src/od_pp_yolo_d.c **** 
 1152              		.loc 1 361 13 view .LVU360
 1153 0044 0593     		str	r3, [sp, #20]
 1154              	.LVL94:
 363:../Middlewares/stm32-vision-models-postprocessing/lib_vision_models_pp/Src/od_pp_yolo_d.c ****                                    pOutput,
 1155              		.loc 1 363 5 is_stmt 1 view .LVU361
 363:../Middlewares/stm32-vision-models-postprocessing/lib_vision_models_pp/Src/od_pp_yolo_d.c ****                                    pOutput,
 1156              		.loc 1 363 13 is_stmt 0 view .LVU362
 1157 0046 2368     		ldr	r3, [r4]
 1158              	.LBB82:
 1159              	.LBB76:
 287:../Middlewares/stm32-vision-models-postprocessing/lib_vision_models_pp/Src/od_pp_yolo_d.c ****   uint32_t  grid_height = height /stride;
 1160              		.loc 1 287 12 view .LVU363
 1161 0048 059A     		ldr	r2, [sp, #20]
 1162              	.LBE76:
 1163              	.LBE82:
 363:../Middlewares/stm32-vision-models-postprocessing/lib_vision_models_pp/Src/od_pp_yolo_d.c ****                                    pOutput,
 1164              		.loc 1 363 13 view .LVU364
 1165 004a 0693     		str	r3, [sp, #24]
 1166 004c 0D9B     		ldr	r3, [sp, #52]
 1167              	.LBB83:
 1168              	.LBB77:
 290:../Middlewares/stm32-vision-models-postprocessing/lib_vision_models_pp/Src/od_pp_yolo_d.c ****   float32_t best_score_f;
 1169              		.loc 1 290 33 view .LVU365
 1170 004e F8EE677A 		vcvt.f32.u32	s15, s15
 1171 0052 1B68     		ldr	r3, [r3]
 1172              	.LBE77:
 1173              	.LBE83:
 363:../Middlewares/stm32-vision-models-postprocessing/lib_vision_models_pp/Src/od_pp_yolo_d.c ****                                    pOutput,
 1174              		.loc 1 363 13 view .LVU366
 1175 0054 D4ED049A 		vldr.32	s19, [r4, #16]
 1176 0058 0B93     		str	r3, [sp, #44]
 1177              	.LVL95:
 1178              	.LBB84:
 1179              	.LBI57:
 275:../Middlewares/stm32-vision-models-postprocessing/lib_vision_models_pp/Src/od_pp_yolo_d.c ****                                                        od_pp_out_t *pOutput,
 1180              		.loc 1 275 18 is_stmt 1 view .LVU367
 1181              	.LBB78:
 284:../Middlewares/stm32-vision-models-postprocessing/lib_vision_models_pp/Src/od_pp_yolo_d.c **** 
 1182              		.loc 1 284 3 view .LVU368
 286:../Middlewares/stm32-vision-models-postprocessing/lib_vision_models_pp/Src/od_pp_yolo_d.c ****   uint32_t grid_width = width / stride;
 1183              		.loc 1 286 3 view .LVU369
 287:../Middlewares/stm32-vision-models-postprocessing/lib_vision_models_pp/Src/od_pp_yolo_d.c ****   uint32_t  grid_height = height /stride;
 1184              		.loc 1 287 3 view .LVU370
 287:../Middlewares/stm32-vision-models-postprocessing/lib_vision_models_pp/Src/od_pp_yolo_d.c ****   uint32_t  grid_height = height /stride;
 1185              		.loc 1 287 12 is_stmt 0 view .LVU371
 1186 005a A368     		ldr	r3, [r4, #8]
ARM GAS  /tmp/ccUSEqtX.s 			page 33


 290:../Middlewares/stm32-vision-models-postprocessing/lib_vision_models_pp/Src/od_pp_yolo_d.c ****   float32_t best_score_f;
 1187              		.loc 1 290 13 view .LVU372
 1188 005c 87EE279A 		vdiv.f32	s18, s14, s15
 287:../Middlewares/stm32-vision-models-postprocessing/lib_vision_models_pp/Src/od_pp_yolo_d.c ****   uint32_t  grid_height = height /stride;
 1189              		.loc 1 287 12 view .LVU373
 1190 0060 B3FBF2F3 		udiv	r3, r3, r2
 1191 0064 0793     		str	r3, [sp, #28]
 1192              	.LVL96:
 288:../Middlewares/stm32-vision-models-postprocessing/lib_vision_models_pp/Src/od_pp_yolo_d.c ****   float32_t inv_width = 1.0f / (float32_t)width;
 1193              		.loc 1 288 3 is_stmt 1 view .LVU374
 288:../Middlewares/stm32-vision-models-postprocessing/lib_vision_models_pp/Src/od_pp_yolo_d.c ****   float32_t inv_width = 1.0f / (float32_t)width;
 1194              		.loc 1 288 13 is_stmt 0 view .LVU375
 1195 0066 6368     		ldr	r3, [r4, #4]
 1196              	.LVL97:
 292:../Middlewares/stm32-vision-models-postprocessing/lib_vision_models_pp/Src/od_pp_yolo_d.c ****   od_pp_outBuffer_t *pOutBuff = (od_pp_outBuffer_t *)pOutput->pOutBuff;
 1197              		.loc 1 292 11 view .LVU376
 1198 0068 E669     		ldr	r6, [r4, #28]
 288:../Middlewares/stm32-vision-models-postprocessing/lib_vision_models_pp/Src/od_pp_yolo_d.c ****   float32_t inv_width = 1.0f / (float32_t)width;
 1199              		.loc 1 288 13 view .LVU377
 1200 006a B3FBF2F3 		udiv	r3, r3, r2
 1201 006e 0C93     		str	r3, [sp, #48]
 1202              	.LVL98:
 289:../Middlewares/stm32-vision-models-postprocessing/lib_vision_models_pp/Src/od_pp_yolo_d.c ****   float32_t inv_height = 1.0f / (float32_t)height;
 1203              		.loc 1 289 3 is_stmt 1 view .LVU378
 290:../Middlewares/stm32-vision-models-postprocessing/lib_vision_models_pp/Src/od_pp_yolo_d.c ****   float32_t best_score_f;
 1204              		.loc 1 290 3 view .LVU379
 291:../Middlewares/stm32-vision-models-postprocessing/lib_vision_models_pp/Src/od_pp_yolo_d.c ****   int32_t nb_detect = *p_nb_detect;
 1205              		.loc 1 291 3 view .LVU380
 292:../Middlewares/stm32-vision-models-postprocessing/lib_vision_models_pp/Src/od_pp_yolo_d.c ****   od_pp_outBuffer_t *pOutBuff = (od_pp_outBuffer_t *)pOutput->pOutBuff;
 1206              		.loc 1 292 3 view .LVU381
 293:../Middlewares/stm32-vision-models-postprocessing/lib_vision_models_pp/Src/od_pp_yolo_d.c **** 
 1207              		.loc 1 293 3 view .LVU382
 296:../Middlewares/stm32-vision-models-postprocessing/lib_vision_models_pp/Src/od_pp_yolo_d.c ****   {
 1208              		.loc 1 296 3 view .LVU383
 1209              	.LBB59:
 296:../Middlewares/stm32-vision-models-postprocessing/lib_vision_models_pp/Src/od_pp_yolo_d.c ****   {
 1210              		.loc 1 296 8 view .LVU384
 1211              	.LBB60:
 1212              	.LBB61:
 1213              	.LBB62:
 309:../Middlewares/stm32-vision-models-postprocessing/lib_vision_models_pp/Src/od_pp_yolo_d.c ****                                     best_score_array,
 1214              		.loc 1 309 60 is_stmt 0 view .LVU385
 1215 0070 069B     		ldr	r3, [sp, #24]
 1216              	.LVL99:
 309:../Middlewares/stm32-vision-models-postprocessing/lib_vision_models_pp/Src/od_pp_yolo_d.c ****                                     best_score_array,
 1217              		.loc 1 309 60 view .LVU386
 1218 0072 0533     		adds	r3, r3, #5
 1219 0074 0993     		str	r3, [sp, #36]
 1220              	.LBB63:
 341:../Middlewares/stm32-vision-models-postprocessing/lib_vision_models_pp/Src/od_pp_yolo_d.c ****       }
 1221              		.loc 1 341 25 view .LVU387
 1222 0076 9B00     		lsls	r3, r3, #2
 1223 0078 0A93     		str	r3, [sp, #40]
 1224              	.LBE63:
 1225              	.LBE62:
 1226              	.LBE61:
 1227              	.LBE60:
ARM GAS  /tmp/ccUSEqtX.s 			page 34


 296:../Middlewares/stm32-vision-models-postprocessing/lib_vision_models_pp/Src/od_pp_yolo_d.c ****   {
 1228              		.loc 1 296 17 view .LVU388
 1229 007a 0023     		movs	r3, #0
 1230              	.LVL100:
 1231              	.L105:
 296:../Middlewares/stm32-vision-models-postprocessing/lib_vision_models_pp/Src/od_pp_yolo_d.c ****   {
 1232              		.loc 1 296 45 discriminator 2 view .LVU389
 1233 007c 0493     		str	r3, [sp, #16]
 1234              	.LVL101:
 296:../Middlewares/stm32-vision-models-postprocessing/lib_vision_models_pp/Src/od_pp_yolo_d.c ****   {
 1235              		.loc 1 296 28 is_stmt 1 discriminator 1 view .LVU390
 1236 007e 049A     		ldr	r2, [sp, #16]
 1237 0080 0C9B     		ldr	r3, [sp, #48]
 1238              	.LVL102:
 296:../Middlewares/stm32-vision-models-postprocessing/lib_vision_models_pp/Src/od_pp_yolo_d.c ****   {
 1239              		.loc 1 296 28 is_stmt 0 discriminator 1 view .LVU391
 1240 0082 9342     		cmp	r3, r2
 1241 0084 40F08280 		bne	.L102
 296:../Middlewares/stm32-vision-models-postprocessing/lib_vision_models_pp/Src/od_pp_yolo_d.c ****   {
 1242              		.loc 1 296 28 discriminator 1 view .LVU392
 1243              	.LBE59:
 346:../Middlewares/stm32-vision-models-postprocessing/lib_vision_models_pp/Src/od_pp_yolo_d.c ****   *pRaw_detections_ptr = pRaw_detections;
 1244              		.loc 1 346 3 is_stmt 1 view .LVU393
 346:../Middlewares/stm32-vision-models-postprocessing/lib_vision_models_pp/Src/od_pp_yolo_d.c ****   *pRaw_detections_ptr = pRaw_detections;
 1245              		.loc 1 346 16 is_stmt 0 view .LVU394
 1246 0088 E661     		str	r6, [r4, #28]
 347:../Middlewares/stm32-vision-models-postprocessing/lib_vision_models_pp/Src/od_pp_yolo_d.c **** 
 1247              		.loc 1 347 3 is_stmt 1 view .LVU395
 1248              	.LVL103:
 349:../Middlewares/stm32-vision-models-postprocessing/lib_vision_models_pp/Src/od_pp_yolo_d.c **** }
 1249              		.loc 1 349 3 view .LVU396
 349:../Middlewares/stm32-vision-models-postprocessing/lib_vision_models_pp/Src/od_pp_yolo_d.c **** }
 1250              		.loc 1 349 3 is_stmt 0 view .LVU397
 1251              	.LBE78:
 1252              	.LBE84:
 371:../Middlewares/stm32-vision-models-postprocessing/lib_vision_models_pp/Src/od_pp_yolo_d.c ****       break;
 1253              		.loc 1 371 5 is_stmt 1 view .LVU398
 1254              	.LBE56:
 360:../Middlewares/stm32-vision-models-postprocessing/lib_vision_models_pp/Src/od_pp_yolo_d.c ****     uint8_t stride = pInput_static_param->strides[stride_idx];
 1255              		.loc 1 360 89 discriminator 2 view .LVU399
 360:../Middlewares/stm32-vision-models-postprocessing/lib_vision_models_pp/Src/od_pp_yolo_d.c ****     uint8_t stride = pInput_static_param->strides[stride_idx];
 1256              		.loc 1 360 89 is_stmt 0 discriminator 2 view .LVU400
 1257 008a 09F10109 		add	r9, r9, #1
 1258              	.LVL104:
 360:../Middlewares/stm32-vision-models-postprocessing/lib_vision_models_pp/Src/od_pp_yolo_d.c ****     uint8_t stride = pInput_static_param->strides[stride_idx];
 1259              		.loc 1 360 89 discriminator 2 view .LVU401
 1260 008e C1E7     		b	.L93
 1261              	.LVL105:
 1262              	.L99:
 1263              	.LBB86:
 1264              	.LBB85:
 1265              	.LBB79:
 1266              	.LBB73:
 1267              	.LBB71:
 1268              	.LBB69:
 1269              	.LBB67:
 302:../Middlewares/stm32-vision-models-postprocessing/lib_vision_models_pp/Src/od_pp_yolo_d.c ****       uint32_t class_index_array[4];
ARM GAS  /tmp/ccUSEqtX.s 			page 35


 1270              		.loc 1 302 7 is_stmt 1 view .LVU402
 303:../Middlewares/stm32-vision-models-postprocessing/lib_vision_models_pp/Src/od_pp_yolo_d.c **** 
 1271              		.loc 1 303 7 view .LVU403
 305:../Middlewares/stm32-vision-models-postprocessing/lib_vision_models_pp/Src/od_pp_yolo_d.c ****       // Max prob over classes
 1272              		.loc 1 305 7 view .LVU404
 305:../Middlewares/stm32-vision-models-postprocessing/lib_vision_models_pp/Src/od_pp_yolo_d.c ****       // Max prob over classes
 1273              		.loc 1 305 16 is_stmt 0 view .LVU405
 1274 0090 5346     		mov	r3, r10
 1275 0092 042B     		cmp	r3, #4
 1276 0094 28BF     		it	cs
 1277 0096 0423     		movcs	r3, #4
 307:../Middlewares/stm32-vision-models-postprocessing/lib_vision_models_pp/Src/od_pp_yolo_d.c ****                                     nb_classes,
 1278              		.loc 1 307 7 view .LVU406
 1279 0098 0DF1500B 		add	fp, sp, #80
 305:../Middlewares/stm32-vision-models-postprocessing/lib_vision_models_pp/Src/od_pp_yolo_d.c ****       // Max prob over classes
 1280              		.loc 1 305 16 view .LVU407
 1281 009c 0893     		str	r3, [sp, #32]
 1282              	.LVL106:
 307:../Middlewares/stm32-vision-models-postprocessing/lib_vision_models_pp/Src/od_pp_yolo_d.c ****                                     nb_classes,
 1283              		.loc 1 307 7 is_stmt 1 view .LVU408
 1284 009e 0193     		str	r3, [sp, #4]
 1285 00a0 05F11400 		add	r0, r5, #20
 1286 00a4 10AB     		add	r3, sp, #64
 1287              	.LVL107:
 307:../Middlewares/stm32-vision-models-postprocessing/lib_vision_models_pp/Src/od_pp_yolo_d.c ****                                     nb_classes,
 1288              		.loc 1 307 7 is_stmt 0 view .LVU409
 1289 00a6 099A     		ldr	r2, [sp, #36]
 1290 00a8 0699     		ldr	r1, [sp, #24]
 1291 00aa CDF800B0 		str	fp, [sp]
 1292 00ae FFF7FEFF 		bl	vision_models_maxi_p_if32ou32
 1293              	.LVL108:
 314:../Middlewares/stm32-vision-models-postprocessing/lib_vision_models_pp/Src/od_pp_yolo_d.c ****       {
 1294              		.loc 1 314 7 is_stmt 1 view .LVU410
 1295              	.LBB65:
 314:../Middlewares/stm32-vision-models-postprocessing/lib_vision_models_pp/Src/od_pp_yolo_d.c ****       {
 1296              		.loc 1 314 12 view .LVU411
 314:../Middlewares/stm32-vision-models-postprocessing/lib_vision_models_pp/Src/od_pp_yolo_d.c ****       {
 1297              		.loc 1 314 7 is_stmt 0 view .LVU412
 1298 00b2 2F46     		mov	r7, r5
 314:../Middlewares/stm32-vision-models-postprocessing/lib_vision_models_pp/Src/od_pp_yolo_d.c ****       {
 1299              		.loc 1 314 16 view .LVU413
 1300 00b4 0023     		movs	r3, #0
 1301 00b6 10A8     		add	r0, sp, #64
 1302              	.LVL109:
 1303              	.L95:
 314:../Middlewares/stm32-vision-models-postprocessing/lib_vision_models_pp/Src/od_pp_yolo_d.c ****       {
 1304              		.loc 1 314 27 is_stmt 1 discriminator 1 view .LVU414
 1305 00b8 089A     		ldr	r2, [sp, #32]
 1306 00ba 9342     		cmp	r3, r2
 1307 00bc 0ED1     		bne	.L98
 314:../Middlewares/stm32-vision-models-postprocessing/lib_vision_models_pp/Src/od_pp_yolo_d.c ****       {
 1308              		.loc 1 314 27 is_stmt 0 discriminator 1 view .LVU415
 1309 00be 0A9A     		ldr	r2, [sp, #40]
 1310              	.LBE65:
 343:../Middlewares/stm32-vision-models-postprocessing/lib_vision_models_pp/Src/od_pp_yolo_d.c ****     } // for ix
 1311              		.loc 1 343 23 view .LVU416
 1312 00c0 AAEB030A 		sub	r10, r10, r3
ARM GAS  /tmp/ccUSEqtX.s 			page 36


 1313              	.LVL110:
 343:../Middlewares/stm32-vision-models-postprocessing/lib_vision_models_pp/Src/od_pp_yolo_d.c ****     } // for ix
 1314              		.loc 1 343 23 view .LVU417
 1315 00c4 02FB0355 		mla	r5, r2, r3, r5
 343:../Middlewares/stm32-vision-models-postprocessing/lib_vision_models_pp/Src/od_pp_yolo_d.c ****     } // for ix
 1316              		.loc 1 343 7 is_stmt 1 view .LVU418
 1317              	.LVL111:
 343:../Middlewares/stm32-vision-models-postprocessing/lib_vision_models_pp/Src/od_pp_yolo_d.c ****     } // for ix
 1318              		.loc 1 343 7 is_stmt 0 view .LVU419
 1319              	.LBE67:
 299:../Middlewares/stm32-vision-models-postprocessing/lib_vision_models_pp/Src/od_pp_yolo_d.c ****     {
 1320              		.loc 1 299 46 is_stmt 1 discriminator 2 view .LVU420
 1321 00c8 039B     		ldr	r3, [sp, #12]
 1322              	.LVL112:
 299:../Middlewares/stm32-vision-models-postprocessing/lib_vision_models_pp/Src/od_pp_yolo_d.c ****     {
 1323              		.loc 1 299 46 is_stmt 0 discriminator 2 view .LVU421
 1324 00ca 0433     		adds	r3, r3, #4
 1325              	.LVL113:
 1326              	.L104:
 299:../Middlewares/stm32-vision-models-postprocessing/lib_vision_models_pp/Src/od_pp_yolo_d.c ****     {
 1327              		.loc 1 299 30 is_stmt 1 discriminator 1 view .LVU422
 299:../Middlewares/stm32-vision-models-postprocessing/lib_vision_models_pp/Src/od_pp_yolo_d.c ****     {
 1328              		.loc 1 299 19 is_stmt 0 view .LVU423
 1329 00cc 0393     		str	r3, [sp, #12]
 1330              	.LVL114:
 299:../Middlewares/stm32-vision-models-postprocessing/lib_vision_models_pp/Src/od_pp_yolo_d.c ****     {
 1331              		.loc 1 299 30 discriminator 1 view .LVU424
 1332 00ce 039A     		ldr	r2, [sp, #12]
 1333 00d0 079B     		ldr	r3, [sp, #28]
 1334 00d2 9342     		cmp	r3, r2
 1335 00d4 DCD8     		bhi	.L99
 299:../Middlewares/stm32-vision-models-postprocessing/lib_vision_models_pp/Src/od_pp_yolo_d.c ****     {
 1336              		.loc 1 299 30 discriminator 1 view .LVU425
 1337              	.LBE69:
 1338              	.LBE71:
 296:../Middlewares/stm32-vision-models-postprocessing/lib_vision_models_pp/Src/od_pp_yolo_d.c ****   {
 1339              		.loc 1 296 45 is_stmt 1 discriminator 2 view .LVU426
 1340 00d6 049B     		ldr	r3, [sp, #16]
 1341 00d8 0133     		adds	r3, r3, #1
 1342 00da CFE7     		b	.L105
 1343              	.LVL115:
 1344              	.L98:
 1345              	.LBB72:
 1346              	.LBB70:
 1347              	.LBB68:
 1348              	.LBB66:
 316:../Middlewares/stm32-vision-models-postprocessing/lib_vision_models_pp/Src/od_pp_yolo_d.c **** 
 1349              		.loc 1 316 9 view .LVU427
 316:../Middlewares/stm32-vision-models-postprocessing/lib_vision_models_pp/Src/od_pp_yolo_d.c **** 
 1350              		.loc 1 316 40 is_stmt 0 view .LVU428
 1351 00dc B0EC01AA 		vldmia.32	r0!, {s20}
 316:../Middlewares/stm32-vision-models-postprocessing/lib_vision_models_pp/Src/od_pp_yolo_d.c **** 
 1352              		.loc 1 316 22 view .LVU429
 1353 00e0 D7ED047A 		vldr.32	s15, [r7, #16]
 1354 00e4 2AEE27AA 		vmul.f32	s20, s20, s15
 1355              	.LVL116:
 318:../Middlewares/stm32-vision-models-postprocessing/lib_vision_models_pp/Src/od_pp_yolo_d.c ****         {
ARM GAS  /tmp/ccUSEqtX.s 			page 37


 1356              		.loc 1 318 9 is_stmt 1 view .LVU430
 318:../Middlewares/stm32-vision-models-postprocessing/lib_vision_models_pp/Src/od_pp_yolo_d.c ****         {
 1357              		.loc 1 318 12 is_stmt 0 view .LVU431
 1358 00e8 F4EECA9A 		vcmpe.f32	s19, s20
 1359 00ec F1EE10FA 		vmrs	APSR_nzcv, FPSCR
 1360 00f0 48D8     		bhi	.L96
 1361              	.LBB64:
 322:../Middlewares/stm32-vision-models-postprocessing/lib_vision_models_pp/Src/od_pp_yolo_d.c ****           pOutBuff[nb_detect].x_center    = x_center;
 1362              		.loc 1 322 32 view .LVU432
 1363 00f2 DDED037A 		vldr.32	s15, [sp, #12]	@ int
 1364 00f6 97ED007A 		vldr.32	s14, [r7]
 1365 00fa F8EE677A 		vcvt.f32.u32	s15, s15
 1366 00fe 77EE877A 		vadd.f32	s15, s15, s14
 322:../Middlewares/stm32-vision-models-postprocessing/lib_vision_models_pp/Src/od_pp_yolo_d.c ****           pOutBuff[nb_detect].x_center    = x_center;
 1367              		.loc 1 322 37 view .LVU433
 1368 0102 07EE103A 		vmov	s14, r3	@ int
 1369 0106 B8EEC77A 		vcvt.f32.s32	s14, s14
 1370 010a 77EE877A 		vadd.f32	s15, s15, s14
 322:../Middlewares/stm32-vision-models-postprocessing/lib_vision_models_pp/Src/od_pp_yolo_d.c ****           pOutBuff[nb_detect].x_center    = x_center;
 1371              		.loc 1 322 43 view .LVU434
 1372 010e 9DED057A 		vldr.32	s14, [sp, #20]	@ int
 1373 0112 B8EEC78A 		vcvt.f32.s32	s16, s14
 1374 0116 67EE887A 		vmul.f32	s15, s15, s16
 323:../Middlewares/stm32-vision-models-postprocessing/lib_vision_models_pp/Src/od_pp_yolo_d.c ****           /* AI_YOLO_D_PP_YCENTER */
 1375              		.loc 1 323 19 view .LVU435
 1376 011a 1822     		movs	r2, #24
 322:../Middlewares/stm32-vision-models-postprocessing/lib_vision_models_pp/Src/od_pp_yolo_d.c ****           pOutBuff[nb_detect].x_center    = x_center;
 1377              		.loc 1 322 20 view .LVU436
 1378 011c 68EEA77A 		vmul.f32	s15, s17, s15
 322:../Middlewares/stm32-vision-models-postprocessing/lib_vision_models_pp/Src/od_pp_yolo_d.c ****           pOutBuff[nb_detect].x_center    = x_center;
 1379              		.loc 1 322 37 view .LVU437
 1380 0120 0E93     		str	r3, [sp, #56]
 323:../Middlewares/stm32-vision-models-postprocessing/lib_vision_models_pp/Src/od_pp_yolo_d.c ****           /* AI_YOLO_D_PP_YCENTER */
 1381              		.loc 1 323 19 view .LVU438
 1382 0122 0B9B     		ldr	r3, [sp, #44]
 1383              	.LVL117:
 323:../Middlewares/stm32-vision-models-postprocessing/lib_vision_models_pp/Src/od_pp_yolo_d.c ****           /* AI_YOLO_D_PP_YCENTER */
 1384              		.loc 1 323 19 view .LVU439
 1385 0124 0F90     		str	r0, [sp, #60]
 321:../Middlewares/stm32-vision-models-postprocessing/lib_vision_models_pp/Src/od_pp_yolo_d.c ****           x_center = (x_center + ix + _i) * stride * inv_width;
 1386              		.loc 1 321 11 is_stmt 1 view .LVU440
 1387              	.LVL118:
 322:../Middlewares/stm32-vision-models-postprocessing/lib_vision_models_pp/Src/od_pp_yolo_d.c ****           pOutBuff[nb_detect].x_center    = x_center;
 1388              		.loc 1 322 11 view .LVU441
 323:../Middlewares/stm32-vision-models-postprocessing/lib_vision_models_pp/Src/od_pp_yolo_d.c ****           /* AI_YOLO_D_PP_YCENTER */
 1389              		.loc 1 323 11 view .LVU442
 323:../Middlewares/stm32-vision-models-postprocessing/lib_vision_models_pp/Src/od_pp_yolo_d.c ****           /* AI_YOLO_D_PP_YCENTER */
 1390              		.loc 1 323 19 is_stmt 0 view .LVU443
 1391 0126 02FB0638 		mla	r8, r2, r6, r3
 323:../Middlewares/stm32-vision-models-postprocessing/lib_vision_models_pp/Src/od_pp_yolo_d.c ****           /* AI_YOLO_D_PP_YCENTER */
 1392              		.loc 1 323 43 view .LVU444
 1393 012a C8ED007A 		vstr.32	s15, [r8]
 325:../Middlewares/stm32-vision-models-postprocessing/lib_vision_models_pp/Src/od_pp_yolo_d.c ****           y_center = (y_center + iy) * stride * inv_height;
 1394              		.loc 1 325 11 is_stmt 1 view .LVU445
 1395              	.LVL119:
 326:../Middlewares/stm32-vision-models-postprocessing/lib_vision_models_pp/Src/od_pp_yolo_d.c ****           pOutBuff[nb_detect].y_center    = y_center;
 1396              		.loc 1 326 11 view .LVU446
ARM GAS  /tmp/ccUSEqtX.s 			page 38


 326:../Middlewares/stm32-vision-models-postprocessing/lib_vision_models_pp/Src/od_pp_yolo_d.c ****           pOutBuff[nb_detect].y_center    = y_center;
 1397              		.loc 1 326 32 is_stmt 0 view .LVU447
 1398 012e DDED047A 		vldr.32	s15, [sp, #16]	@ int
 1399 0132 97ED017A 		vldr.32	s14, [r7, #4]
 1400 0136 F8EE677A 		vcvt.f32.u32	s15, s15
 1401 013a 77EE877A 		vadd.f32	s15, s15, s14
 326:../Middlewares/stm32-vision-models-postprocessing/lib_vision_models_pp/Src/od_pp_yolo_d.c ****           pOutBuff[nb_detect].y_center    = y_center;
 1402              		.loc 1 326 38 view .LVU448
 1403 013e 67EE887A 		vmul.f32	s15, s15, s16
 1404              	.LVL120:
 327:../Middlewares/stm32-vision-models-postprocessing/lib_vision_models_pp/Src/od_pp_yolo_d.c ****           /* AI_YOLO_D_PP_WIDTHREL */
 1405              		.loc 1 327 11 is_stmt 1 view .LVU449
 326:../Middlewares/stm32-vision-models-postprocessing/lib_vision_models_pp/Src/od_pp_yolo_d.c ****           pOutBuff[nb_detect].y_center    = y_center;
 1406              		.loc 1 326 20 is_stmt 0 view .LVU450
 1407 0142 69EE277A 		vmul.f32	s15, s18, s15
 1408              	.LVL121:
 327:../Middlewares/stm32-vision-models-postprocessing/lib_vision_models_pp/Src/od_pp_yolo_d.c ****           /* AI_YOLO_D_PP_WIDTHREL */
 1409              		.loc 1 327 43 view .LVU451
 1410 0146 C8ED017A 		vstr.32	s15, [r8, #4]
 329:../Middlewares/stm32-vision-models-postprocessing/lib_vision_models_pp/Src/od_pp_yolo_d.c ****           w = expf(w) * stride * inv_width;
 1411              		.loc 1 329 11 is_stmt 1 view .LVU452
 1412              	.LVL122:
 330:../Middlewares/stm32-vision-models-postprocessing/lib_vision_models_pp/Src/od_pp_yolo_d.c ****           pOutBuff[nb_detect].width    = w;
 1413              		.loc 1 330 11 view .LVU453
 330:../Middlewares/stm32-vision-models-postprocessing/lib_vision_models_pp/Src/od_pp_yolo_d.c ****           pOutBuff[nb_detect].width    = w;
 1414              		.loc 1 330 15 is_stmt 0 view .LVU454
 1415 014a 97ED020A 		vldr.32	s0, [r7, #8]
 1416 014e FFF7FEFF 		bl	expf
 1417              	.LVL123:
 331:../Middlewares/stm32-vision-models-postprocessing/lib_vision_models_pp/Src/od_pp_yolo_d.c ****           /* AI_YOLO_D_PP_HEIGHTREL */
 1418              		.loc 1 331 11 is_stmt 1 view .LVU455
 330:../Middlewares/stm32-vision-models-postprocessing/lib_vision_models_pp/Src/od_pp_yolo_d.c ****           pOutBuff[nb_detect].width    = w;
 1419              		.loc 1 330 23 is_stmt 0 discriminator 1 view .LVU456
 1420 0152 28EE000A 		vmul.f32	s0, s16, s0
 1421              	.LVL124:
 330:../Middlewares/stm32-vision-models-postprocessing/lib_vision_models_pp/Src/od_pp_yolo_d.c ****           pOutBuff[nb_detect].width    = w;
 1422              		.loc 1 330 13 discriminator 1 view .LVU457
 1423 0156 20EE280A 		vmul.f32	s0, s0, s17
 1424              	.LVL125:
 331:../Middlewares/stm32-vision-models-postprocessing/lib_vision_models_pp/Src/od_pp_yolo_d.c ****           /* AI_YOLO_D_PP_HEIGHTREL */
 1425              		.loc 1 331 40 view .LVU458
 1426 015a 88ED020A 		vstr.32	s0, [r8, #8]
 333:../Middlewares/stm32-vision-models-postprocessing/lib_vision_models_pp/Src/od_pp_yolo_d.c ****           h = expf(h) * stride * inv_height;
 1427              		.loc 1 333 11 is_stmt 1 view .LVU459
 1428              	.LVL126:
 334:../Middlewares/stm32-vision-models-postprocessing/lib_vision_models_pp/Src/od_pp_yolo_d.c ****           pOutBuff[nb_detect].height      = h;
 1429              		.loc 1 334 11 view .LVU460
 334:../Middlewares/stm32-vision-models-postprocessing/lib_vision_models_pp/Src/od_pp_yolo_d.c ****           pOutBuff[nb_detect].height      = h;
 1430              		.loc 1 334 15 is_stmt 0 view .LVU461
 1431 015e 97ED030A 		vldr.32	s0, [r7, #12]
 1432              	.LVL127:
 334:../Middlewares/stm32-vision-models-postprocessing/lib_vision_models_pp/Src/od_pp_yolo_d.c ****           pOutBuff[nb_detect].height      = h;
 1433              		.loc 1 334 15 view .LVU462
 1434 0162 FFF7FEFF 		bl	expf
 1435              	.LVL128:
 335:../Middlewares/stm32-vision-models-postprocessing/lib_vision_models_pp/Src/od_pp_yolo_d.c **** 
 1436              		.loc 1 335 11 is_stmt 1 view .LVU463
ARM GAS  /tmp/ccUSEqtX.s 			page 39


 334:../Middlewares/stm32-vision-models-postprocessing/lib_vision_models_pp/Src/od_pp_yolo_d.c ****           pOutBuff[nb_detect].height      = h;
 1437              		.loc 1 334 23 is_stmt 0 discriminator 1 view .LVU464
 1438 0166 28EE008A 		vmul.f32	s16, s16, s0
 1439              	.LVL129:
 334:../Middlewares/stm32-vision-models-postprocessing/lib_vision_models_pp/Src/od_pp_yolo_d.c ****           pOutBuff[nb_detect].height      = h;
 1440              		.loc 1 334 13 discriminator 1 view .LVU465
 1441 016a 28EE098A 		vmul.f32	s16, s16, s18
 1442              	.LVL130:
 337:../Middlewares/stm32-vision-models-postprocessing/lib_vision_models_pp/Src/od_pp_yolo_d.c ****           pOutBuff[nb_detect].class_index = class_index_array[_i];
 1443              		.loc 1 337 43 view .LVU466
 1444 016e 88ED04AA 		vstr.32	s20, [r8, #16]
 335:../Middlewares/stm32-vision-models-postprocessing/lib_vision_models_pp/Src/od_pp_yolo_d.c **** 
 1445              		.loc 1 335 43 view .LVU467
 1446 0172 88ED038A 		vstr.32	s16, [r8, #12]
 337:../Middlewares/stm32-vision-models-postprocessing/lib_vision_models_pp/Src/od_pp_yolo_d.c ****           pOutBuff[nb_detect].class_index = class_index_array[_i];
 1447              		.loc 1 337 11 is_stmt 1 view .LVU468
 338:../Middlewares/stm32-vision-models-postprocessing/lib_vision_models_pp/Src/od_pp_yolo_d.c ****           nb_detect++;
 1448              		.loc 1 338 11 view .LVU469
 338:../Middlewares/stm32-vision-models-postprocessing/lib_vision_models_pp/Src/od_pp_yolo_d.c ****           nb_detect++;
 1449              		.loc 1 338 43 is_stmt 0 view .LVU470
 1450 0176 0E9B     		ldr	r3, [sp, #56]
 339:../Middlewares/stm32-vision-models-postprocessing/lib_vision_models_pp/Src/od_pp_yolo_d.c ****         }
 1451              		.loc 1 339 20 view .LVU471
 1452 0178 0F98     		ldr	r0, [sp, #60]
 338:../Middlewares/stm32-vision-models-postprocessing/lib_vision_models_pp/Src/od_pp_yolo_d.c ****           nb_detect++;
 1453              		.loc 1 338 43 view .LVU472
 1454 017a 5BF82320 		ldr	r2, [fp, r3, lsl #2]
 339:../Middlewares/stm32-vision-models-postprocessing/lib_vision_models_pp/Src/od_pp_yolo_d.c ****         }
 1455              		.loc 1 339 20 view .LVU473
 1456 017e 0136     		adds	r6, r6, #1
 1457              	.LVL131:
 338:../Middlewares/stm32-vision-models-postprocessing/lib_vision_models_pp/Src/od_pp_yolo_d.c ****           nb_detect++;
 1458              		.loc 1 338 43 view .LVU474
 1459 0180 C8F81420 		str	r2, [r8, #20]
 339:../Middlewares/stm32-vision-models-postprocessing/lib_vision_models_pp/Src/od_pp_yolo_d.c ****         }
 1460              		.loc 1 339 11 is_stmt 1 view .LVU475
 1461              	.LVL132:
 1462              	.L96:
 339:../Middlewares/stm32-vision-models-postprocessing/lib_vision_models_pp/Src/od_pp_yolo_d.c ****         }
 1463              		.loc 1 339 11 is_stmt 0 view .LVU476
 1464              	.LBE64:
 341:../Middlewares/stm32-vision-models-postprocessing/lib_vision_models_pp/Src/od_pp_yolo_d.c ****       }
 1465              		.loc 1 341 9 is_stmt 1 view .LVU477
 341:../Middlewares/stm32-vision-models-postprocessing/lib_vision_models_pp/Src/od_pp_yolo_d.c ****       }
 1466              		.loc 1 341 25 is_stmt 0 view .LVU478
 1467 0184 0A9A     		ldr	r2, [sp, #40]
 314:../Middlewares/stm32-vision-models-postprocessing/lib_vision_models_pp/Src/od_pp_yolo_d.c ****       {
 1468              		.loc 1 314 44 discriminator 2 view .LVU479
 1469 0186 0133     		adds	r3, r3, #1
 341:../Middlewares/stm32-vision-models-postprocessing/lib_vision_models_pp/Src/od_pp_yolo_d.c ****       }
 1470              		.loc 1 341 25 view .LVU480
 1471 0188 1744     		add	r7, r7, r2
 1472              	.LVL133:
 314:../Middlewares/stm32-vision-models-postprocessing/lib_vision_models_pp/Src/od_pp_yolo_d.c ****       {
 1473              		.loc 1 314 44 is_stmt 1 discriminator 2 view .LVU481
 1474 018a 95E7     		b	.L95
 1475              	.LVL134:
ARM GAS  /tmp/ccUSEqtX.s 			page 40


 1476              	.L102:
 314:../Middlewares/stm32-vision-models-postprocessing/lib_vision_models_pp/Src/od_pp_yolo_d.c ****       {
 1477              		.loc 1 314 44 is_stmt 0 discriminator 2 view .LVU482
 1478              	.LBE66:
 1479              	.LBE68:
 299:../Middlewares/stm32-vision-models-postprocessing/lib_vision_models_pp/Src/od_pp_yolo_d.c ****     {
 1480              		.loc 1 299 19 view .LVU483
 1481 018c 0023     		movs	r3, #0
 1482              	.LBE70:
 298:../Middlewares/stm32-vision-models-postprocessing/lib_vision_models_pp/Src/od_pp_yolo_d.c ****     for (uint32_t ix = 0; ix < grid_width; ix+=4)
 1483              		.loc 1 298 14 view .LVU484
 1484 018e DDF81CA0 		ldr	r10, [sp, #28]
 1485 0192 9BE7     		b	.L104
 1486              	.LBE72:
 1487              	.LBE73:
 1488              	.LBE79:
 1489              	.LBE85:
 1490              	.LBE86:
 1491              	.LBE89:
 1492              		.cfi_endproc
 1493              	.LFE781:
 1495              		.section	.text.yolov_d_pp_getNNBoxes_centroid_int8,"ax",%progbits
 1496              		.align	1
 1497              		.global	yolov_d_pp_getNNBoxes_centroid_int8
 1498              		.syntax unified
 1499              		.thumb
 1500              		.thumb_func
 1502              	yolov_d_pp_getNNBoxes_centroid_int8:
 1503              	.LVL135:
 1504              	.LFB783:
 377:../Middlewares/stm32-vision-models-postprocessing/lib_vision_models_pp/Src/od_pp_yolo_d.c **** 
 378:../Middlewares/stm32-vision-models-postprocessing/lib_vision_models_pp/Src/od_pp_yolo_d.c **** static int32_t _yolov_d_pp_getNNBoxes_centroid_int8_stride(int8_t **pRaw_detections_ptr,
 379:../Middlewares/stm32-vision-models-postprocessing/lib_vision_models_pp/Src/od_pp_yolo_d.c ****                                                           od_pp_out_t *pOutput,
 380:../Middlewares/stm32-vision-models-postprocessing/lib_vision_models_pp/Src/od_pp_yolo_d.c ****                                                           uint32_t width,
 381:../Middlewares/stm32-vision-models-postprocessing/lib_vision_models_pp/Src/od_pp_yolo_d.c ****                                                           uint32_t  height,
 382:../Middlewares/stm32-vision-models-postprocessing/lib_vision_models_pp/Src/od_pp_yolo_d.c ****                                                           uint8_t stride,
 383:../Middlewares/stm32-vision-models-postprocessing/lib_vision_models_pp/Src/od_pp_yolo_d.c ****                                                           uint32_t nb_classes,
 384:../Middlewares/stm32-vision-models-postprocessing/lib_vision_models_pp/Src/od_pp_yolo_d.c ****                                                           int16_t conf_threshold_s16,
 385:../Middlewares/stm32-vision-models-postprocessing/lib_vision_models_pp/Src/od_pp_yolo_d.c ****                                                           uint32_t *p_nb_detect,
 386:../Middlewares/stm32-vision-models-postprocessing/lib_vision_models_pp/Src/od_pp_yolo_d.c ****                                                           int8_t zero_point,
 387:../Middlewares/stm32-vision-models-postprocessing/lib_vision_models_pp/Src/od_pp_yolo_d.c ****                                                           float32_t scale)
 388:../Middlewares/stm32-vision-models-postprocessing/lib_vision_models_pp/Src/od_pp_yolo_d.c **** 
 389:../Middlewares/stm32-vision-models-postprocessing/lib_vision_models_pp/Src/od_pp_yolo_d.c **** {
 390:../Middlewares/stm32-vision-models-postprocessing/lib_vision_models_pp/Src/od_pp_yolo_d.c ****   int32_t error   = AI_OD_POSTPROCESS_ERROR_NO;
 391:../Middlewares/stm32-vision-models-postprocessing/lib_vision_models_pp/Src/od_pp_yolo_d.c **** 
 392:../Middlewares/stm32-vision-models-postprocessing/lib_vision_models_pp/Src/od_pp_yolo_d.c ****   int8_t *pRaw_detections = *pRaw_detections_ptr;
 393:../Middlewares/stm32-vision-models-postprocessing/lib_vision_models_pp/Src/od_pp_yolo_d.c ****   uint32_t grid_width = width / stride;
 394:../Middlewares/stm32-vision-models-postprocessing/lib_vision_models_pp/Src/od_pp_yolo_d.c ****   uint32_t  grid_height = height /stride;
 395:../Middlewares/stm32-vision-models-postprocessing/lib_vision_models_pp/Src/od_pp_yolo_d.c ****   float32_t inv_width = 1.0f / (float32_t)width;
 396:../Middlewares/stm32-vision-models-postprocessing/lib_vision_models_pp/Src/od_pp_yolo_d.c ****   float32_t inv_height = 1.0f / (float32_t)height;
 397:../Middlewares/stm32-vision-models-postprocessing/lib_vision_models_pp/Src/od_pp_yolo_d.c ****   int32_t nb_detect = *p_nb_detect;
 398:../Middlewares/stm32-vision-models-postprocessing/lib_vision_models_pp/Src/od_pp_yolo_d.c ****   od_pp_outBuffer_t *pOutBuff = (od_pp_outBuffer_t *)pOutput->pOutBuff;
 399:../Middlewares/stm32-vision-models-postprocessing/lib_vision_models_pp/Src/od_pp_yolo_d.c **** 
 400:../Middlewares/stm32-vision-models-postprocessing/lib_vision_models_pp/Src/od_pp_yolo_d.c **** 
 401:../Middlewares/stm32-vision-models-postprocessing/lib_vision_models_pp/Src/od_pp_yolo_d.c ****   for (uint32_t iy = 0; iy < grid_height; iy++)
 402:../Middlewares/stm32-vision-models-postprocessing/lib_vision_models_pp/Src/od_pp_yolo_d.c ****   {
 403:../Middlewares/stm32-vision-models-postprocessing/lib_vision_models_pp/Src/od_pp_yolo_d.c ****     uint32_t remaining_boxes = grid_width;
ARM GAS  /tmp/ccUSEqtX.s 			page 41


 404:../Middlewares/stm32-vision-models-postprocessing/lib_vision_models_pp/Src/od_pp_yolo_d.c ****     for (uint32_t ix = 0; ix < grid_width; ix+=16)
 405:../Middlewares/stm32-vision-models-postprocessing/lib_vision_models_pp/Src/od_pp_yolo_d.c ****     {
 406:../Middlewares/stm32-vision-models-postprocessing/lib_vision_models_pp/Src/od_pp_yolo_d.c **** 
 407:../Middlewares/stm32-vision-models-postprocessing/lib_vision_models_pp/Src/od_pp_yolo_d.c ****     int8_t best_score_array[16];
 408:../Middlewares/stm32-vision-models-postprocessing/lib_vision_models_pp/Src/od_pp_yolo_d.c ****     uint8_t class_index_array[16];
 409:../Middlewares/stm32-vision-models-postprocessing/lib_vision_models_pp/Src/od_pp_yolo_d.c **** 
 410:../Middlewares/stm32-vision-models-postprocessing/lib_vision_models_pp/Src/od_pp_yolo_d.c ****       uint32_t parallelize = MIN(remaining_boxes,16);
 411:../Middlewares/stm32-vision-models-postprocessing/lib_vision_models_pp/Src/od_pp_yolo_d.c ****       // Max prob over classes
 412:../Middlewares/stm32-vision-models-postprocessing/lib_vision_models_pp/Src/od_pp_yolo_d.c ****       vision_models_maxi_p_is8ou8(&pRaw_detections[AI_YOLO_D_PP_CLASSPROB],
 413:../Middlewares/stm32-vision-models-postprocessing/lib_vision_models_pp/Src/od_pp_yolo_d.c ****                                     nb_classes,
 414:../Middlewares/stm32-vision-models-postprocessing/lib_vision_models_pp/Src/od_pp_yolo_d.c ****                                     AI_YOLO_D_PP_CLASSPROB + nb_classes,
 415:../Middlewares/stm32-vision-models-postprocessing/lib_vision_models_pp/Src/od_pp_yolo_d.c ****                                     best_score_array,
 416:../Middlewares/stm32-vision-models-postprocessing/lib_vision_models_pp/Src/od_pp_yolo_d.c ****                                     class_index_array,
 417:../Middlewares/stm32-vision-models-postprocessing/lib_vision_models_pp/Src/od_pp_yolo_d.c ****                                     parallelize);
 418:../Middlewares/stm32-vision-models-postprocessing/lib_vision_models_pp/Src/od_pp_yolo_d.c **** 
 419:../Middlewares/stm32-vision-models-postprocessing/lib_vision_models_pp/Src/od_pp_yolo_d.c ****       for (int _i = 0; _i < parallelize; _i++)
 420:../Middlewares/stm32-vision-models-postprocessing/lib_vision_models_pp/Src/od_pp_yolo_d.c ****       {
 421:../Middlewares/stm32-vision-models-postprocessing/lib_vision_models_pp/Src/od_pp_yolo_d.c ****         int16_t best_score_s16 = ((int16_t)best_score_array[_i]-zero_point)*((int16_t)(pRaw_detecti
 422:../Middlewares/stm32-vision-models-postprocessing/lib_vision_models_pp/Src/od_pp_yolo_d.c **** 
 423:../Middlewares/stm32-vision-models-postprocessing/lib_vision_models_pp/Src/od_pp_yolo_d.c ****         if ( best_score_s16 >= conf_threshold_s16)
 424:../Middlewares/stm32-vision-models-postprocessing/lib_vision_models_pp/Src/od_pp_yolo_d.c ****         {
 425:../Middlewares/stm32-vision-models-postprocessing/lib_vision_models_pp/Src/od_pp_yolo_d.c ****           float32_t best_score_f = best_score_s16 * scale;
 426:../Middlewares/stm32-vision-models-postprocessing/lib_vision_models_pp/Src/od_pp_yolo_d.c ****           best_score_f *= scale;
 427:../Middlewares/stm32-vision-models-postprocessing/lib_vision_models_pp/Src/od_pp_yolo_d.c **** 
 428:../Middlewares/stm32-vision-models-postprocessing/lib_vision_models_pp/Src/od_pp_yolo_d.c ****           /* AI_YOLO_D_PP_XCENTER */
 429:../Middlewares/stm32-vision-models-postprocessing/lib_vision_models_pp/Src/od_pp_yolo_d.c ****           float32_t x_center = scale * (float32_t)((int32_t)pRaw_detections[AI_YOLO_D_PP_XCENTER] -
 430:../Middlewares/stm32-vision-models-postprocessing/lib_vision_models_pp/Src/od_pp_yolo_d.c ****           x_center = (x_center + ix + _i) * stride * inv_width;
 431:../Middlewares/stm32-vision-models-postprocessing/lib_vision_models_pp/Src/od_pp_yolo_d.c ****           pOutBuff[nb_detect].x_center    = x_center;
 432:../Middlewares/stm32-vision-models-postprocessing/lib_vision_models_pp/Src/od_pp_yolo_d.c ****           /* AI_YOLO_D_PP_YCENTER */
 433:../Middlewares/stm32-vision-models-postprocessing/lib_vision_models_pp/Src/od_pp_yolo_d.c ****           float32_t y_center = scale * (float32_t)((int32_t)pRaw_detections[AI_YOLO_D_PP_YCENTER] -
 434:../Middlewares/stm32-vision-models-postprocessing/lib_vision_models_pp/Src/od_pp_yolo_d.c ****           y_center = (y_center + iy) * stride * inv_height;
 435:../Middlewares/stm32-vision-models-postprocessing/lib_vision_models_pp/Src/od_pp_yolo_d.c ****           pOutBuff[nb_detect].y_center    = y_center;
 436:../Middlewares/stm32-vision-models-postprocessing/lib_vision_models_pp/Src/od_pp_yolo_d.c ****           /* AI_YOLO_D_PP_WIDTHREL */
 437:../Middlewares/stm32-vision-models-postprocessing/lib_vision_models_pp/Src/od_pp_yolo_d.c ****           float32_t w = scale * (float32_t)((int32_t)pRaw_detections[AI_YOLO_D_PP_WIDTHREL] - (int3
 438:../Middlewares/stm32-vision-models-postprocessing/lib_vision_models_pp/Src/od_pp_yolo_d.c ****           w = expf(w) * stride * inv_width;
 439:../Middlewares/stm32-vision-models-postprocessing/lib_vision_models_pp/Src/od_pp_yolo_d.c ****           pOutBuff[nb_detect].width    = w;
 440:../Middlewares/stm32-vision-models-postprocessing/lib_vision_models_pp/Src/od_pp_yolo_d.c ****           /* AI_YOLO_D_PP_HEIGHTREL */
 441:../Middlewares/stm32-vision-models-postprocessing/lib_vision_models_pp/Src/od_pp_yolo_d.c ****           float32_t h = scale * (float32_t)((int32_t)pRaw_detections[AI_YOLO_D_PP_HEIGHTREL] - (int
 442:../Middlewares/stm32-vision-models-postprocessing/lib_vision_models_pp/Src/od_pp_yolo_d.c ****           h = expf(h) * stride * inv_height;
 443:../Middlewares/stm32-vision-models-postprocessing/lib_vision_models_pp/Src/od_pp_yolo_d.c ****           pOutBuff[nb_detect].height      = h;
 444:../Middlewares/stm32-vision-models-postprocessing/lib_vision_models_pp/Src/od_pp_yolo_d.c **** 
 445:../Middlewares/stm32-vision-models-postprocessing/lib_vision_models_pp/Src/od_pp_yolo_d.c ****           pOutBuff[nb_detect].conf        = best_score_f;
 446:../Middlewares/stm32-vision-models-postprocessing/lib_vision_models_pp/Src/od_pp_yolo_d.c ****           pOutBuff[nb_detect].class_index = class_index_array[_i];
 447:../Middlewares/stm32-vision-models-postprocessing/lib_vision_models_pp/Src/od_pp_yolo_d.c ****           nb_detect++;
 448:../Middlewares/stm32-vision-models-postprocessing/lib_vision_models_pp/Src/od_pp_yolo_d.c ****         }
 449:../Middlewares/stm32-vision-models-postprocessing/lib_vision_models_pp/Src/od_pp_yolo_d.c ****         pRaw_detections += (AI_YOLO_D_PP_CLASSPROB + nb_classes);
 450:../Middlewares/stm32-vision-models-postprocessing/lib_vision_models_pp/Src/od_pp_yolo_d.c ****       }
 451:../Middlewares/stm32-vision-models-postprocessing/lib_vision_models_pp/Src/od_pp_yolo_d.c ****       remaining_boxes -= parallelize;
 452:../Middlewares/stm32-vision-models-postprocessing/lib_vision_models_pp/Src/od_pp_yolo_d.c ****     } // for ix
 453:../Middlewares/stm32-vision-models-postprocessing/lib_vision_models_pp/Src/od_pp_yolo_d.c ****   } // for iy
 454:../Middlewares/stm32-vision-models-postprocessing/lib_vision_models_pp/Src/od_pp_yolo_d.c ****   *p_nb_detect = nb_detect;
 455:../Middlewares/stm32-vision-models-postprocessing/lib_vision_models_pp/Src/od_pp_yolo_d.c ****   *pRaw_detections_ptr = pRaw_detections;
 456:../Middlewares/stm32-vision-models-postprocessing/lib_vision_models_pp/Src/od_pp_yolo_d.c **** 
 457:../Middlewares/stm32-vision-models-postprocessing/lib_vision_models_pp/Src/od_pp_yolo_d.c ****   return (error);
 458:../Middlewares/stm32-vision-models-postprocessing/lib_vision_models_pp/Src/od_pp_yolo_d.c **** }
 459:../Middlewares/stm32-vision-models-postprocessing/lib_vision_models_pp/Src/od_pp_yolo_d.c **** 
 460:../Middlewares/stm32-vision-models-postprocessing/lib_vision_models_pp/Src/od_pp_yolo_d.c **** int32_t yolov_d_pp_getNNBoxes_centroid_int8(od_yolo_d_pp_in_centroid_t *pInput,
ARM GAS  /tmp/ccUSEqtX.s 			page 42


 461:../Middlewares/stm32-vision-models-postprocessing/lib_vision_models_pp/Src/od_pp_yolo_d.c ****                                            od_pp_out_t *pOutput,
 462:../Middlewares/stm32-vision-models-postprocessing/lib_vision_models_pp/Src/od_pp_yolo_d.c ****                                            od_yolo_d_pp_static_param_t *pInput_static_param)
 463:../Middlewares/stm32-vision-models-postprocessing/lib_vision_models_pp/Src/od_pp_yolo_d.c **** {
 1505              		.loc 1 463 1 is_stmt 1 view -0
 1506              		.cfi_startproc
 1507              		@ args = 0, pretend = 0, frame = 80
 1508              		@ frame_needed = 0, uses_anonymous_args = 0
 464:../Middlewares/stm32-vision-models-postprocessing/lib_vision_models_pp/Src/od_pp_yolo_d.c ****   int32_t error   = AI_OD_POSTPROCESS_ERROR_NO;
 1509              		.loc 1 464 3 view .LVU486
 465:../Middlewares/stm32-vision-models-postprocessing/lib_vision_models_pp/Src/od_pp_yolo_d.c ****   int8_t *pRaw_detections = (int8_t *)pInput->pRaw_detections;
 1510              		.loc 1 465 3 view .LVU487
 466:../Middlewares/stm32-vision-models-postprocessing/lib_vision_models_pp/Src/od_pp_yolo_d.c ****   int16_t conf_threshold_s16 = (int16_t)(pInput_static_param->conf_threshold / (pInput_static_param
 1511              		.loc 1 466 100 is_stmt 0 view .LVU488
 1512 0000 D2ED067A 		vldr.32	s15, [r2, #24]
 1513              		.loc 1 466 78 view .LVU489
 1514 0004 D2ED046A 		vldr.32	s13, [r2, #16]
 1515              		.loc 1 466 119 view .LVU490
 1516 0008 27EEA77A 		vmul.f32	s14, s15, s15
 1517              		.loc 1 466 78 view .LVU491
 1518 000c C6EE877A 		vdiv.f32	s15, s13, s14
 1519              		.loc 1 466 160 view .LVU492
 1520 0010 B6EE007A 		vmov.f32	s14, #5.0e-1
 1521 0014 77EE877A 		vadd.f32	s15, s15, s14
 1522              		.loc 1 466 11 view .LVU493
 1523 0018 FDEEE77A 		vcvt.s32.f32	s15, s15
 463:../Middlewares/stm32-vision-models-postprocessing/lib_vision_models_pp/Src/od_pp_yolo_d.c ****   int32_t error   = AI_OD_POSTPROCESS_ERROR_NO;
 1524              		.loc 1 463 1 view .LVU494
 1525 001c 2DE9F04F 		push	{r4, r5, r6, r7, r8, r9, r10, fp, lr}
 1526              		.cfi_def_cfa_offset 36
 1527              		.cfi_offset 4, -36
 1528              		.cfi_offset 5, -32
 1529              		.cfi_offset 6, -28
 1530              		.cfi_offset 7, -24
 1531              		.cfi_offset 8, -20
 1532              		.cfi_offset 9, -16
 1533              		.cfi_offset 10, -12
 1534              		.cfi_offset 11, -8
 1535              		.cfi_offset 14, -4
 1536              		.loc 1 466 11 view .LVU495
 1537 0020 17EE903A 		vmov	r3, s15	@ int
 463:../Middlewares/stm32-vision-models-postprocessing/lib_vision_models_pp/Src/od_pp_yolo_d.c ****   int32_t error   = AI_OD_POSTPROCESS_ERROR_NO;
 1538              		.loc 1 463 1 view .LVU496
 1539 0024 2DED068B 		vpush.64	{d8, d9, d10}
 1540              		.cfi_def_cfa_offset 60
 1541              		.cfi_offset 80, -60
 1542              		.cfi_offset 81, -56
 1543              		.cfi_offset 82, -52
 1544              		.cfi_offset 83, -48
 1545              		.cfi_offset 84, -44
 1546              		.cfi_offset 85, -40
 1547 0028 1446     		mov	r4, r2
 1548              	.LBB108:
 467:../Middlewares/stm32-vision-models-postprocessing/lib_vision_models_pp/Src/od_pp_yolo_d.c **** 
 468:../Middlewares/stm32-vision-models-postprocessing/lib_vision_models_pp/Src/od_pp_yolo_d.c ****   // To be done 3 time for each stride
 469:../Middlewares/stm32-vision-models-postprocessing/lib_vision_models_pp/Src/od_pp_yolo_d.c ****   for ( uint8_t stride_idx = 0; stride_idx < pInput_static_param->strides_nb; stride_idx++) {
 1549              		.loc 1 469 3 view .LVU497
 1550 002a 4FF00009 		mov	r9, #0
ARM GAS  /tmp/ccUSEqtX.s 			page 43


 1551              	.LBE108:
 463:../Middlewares/stm32-vision-models-postprocessing/lib_vision_models_pp/Src/od_pp_yolo_d.c ****   int32_t error   = AI_OD_POSTPROCESS_ERROR_NO;
 1552              		.loc 1 463 1 view .LVU498
 1553 002e 97B0     		sub	sp, sp, #92
 1554              		.cfi_def_cfa_offset 152
 466:../Middlewares/stm32-vision-models-postprocessing/lib_vision_models_pp/Src/od_pp_yolo_d.c **** 
 1555              		.loc 1 466 11 view .LVU499
 1556 0030 1BB2     		sxth	r3, r3
 465:../Middlewares/stm32-vision-models-postprocessing/lib_vision_models_pp/Src/od_pp_yolo_d.c ****   int16_t conf_threshold_s16 = (int16_t)(pInput_static_param->conf_threshold / (pInput_static_param
 1557              		.loc 1 465 45 view .LVU500
 1558 0032 0668     		ldr	r6, [r0]
 1559              	.LVL136:
 466:../Middlewares/stm32-vision-models-postprocessing/lib_vision_models_pp/Src/od_pp_yolo_d.c **** 
 1560              		.loc 1 466 3 is_stmt 1 view .LVU501
 463:../Middlewares/stm32-vision-models-postprocessing/lib_vision_models_pp/Src/od_pp_yolo_d.c ****   int32_t error   = AI_OD_POSTPROCESS_ERROR_NO;
 1561              		.loc 1 463 1 is_stmt 0 view .LVU502
 1562 0034 0B91     		str	r1, [sp, #44]
 466:../Middlewares/stm32-vision-models-postprocessing/lib_vision_models_pp/Src/od_pp_yolo_d.c **** 
 1563              		.loc 1 466 11 view .LVU503
 1564 0036 0893     		str	r3, [sp, #32]
 1565              	.LVL137:
 1566              		.loc 1 469 3 is_stmt 1 view .LVU504
 1567              	.LBB146:
 1568              		.loc 1 469 9 view .LVU505
 1569              	.L107:
 1570              		.loc 1 469 44 discriminator 1 view .LVU506
 1571 0038 94F82420 		ldrb	r2, [r4, #36]	@ zero_extendqisi2
 1572 003c 5FFA89F3 		uxtb	r3, r9
 1573 0040 9A42     		cmp	r2, r3
 1574 0042 05D8     		bhi	.L114
 1575              		.loc 1 469 44 is_stmt 0 discriminator 1 view .LVU507
 1576              	.LBE146:
 470:../Middlewares/stm32-vision-models-postprocessing/lib_vision_models_pp/Src/od_pp_yolo_d.c ****     uint8_t stride = pInput_static_param->strides[stride_idx];
 471:../Middlewares/stm32-vision-models-postprocessing/lib_vision_models_pp/Src/od_pp_yolo_d.c **** 
 472:../Middlewares/stm32-vision-models-postprocessing/lib_vision_models_pp/Src/od_pp_yolo_d.c ****     error = _yolov_d_pp_getNNBoxes_centroid_int8_stride(&pRaw_detections,
 473:../Middlewares/stm32-vision-models-postprocessing/lib_vision_models_pp/Src/od_pp_yolo_d.c ****                                                         pOutput,
 474:../Middlewares/stm32-vision-models-postprocessing/lib_vision_models_pp/Src/od_pp_yolo_d.c ****                                                         pInput_static_param->width,
 475:../Middlewares/stm32-vision-models-postprocessing/lib_vision_models_pp/Src/od_pp_yolo_d.c ****                                                         pInput_static_param->height,
 476:../Middlewares/stm32-vision-models-postprocessing/lib_vision_models_pp/Src/od_pp_yolo_d.c ****                                                         stride,
 477:../Middlewares/stm32-vision-models-postprocessing/lib_vision_models_pp/Src/od_pp_yolo_d.c ****                                                         pInput_static_param->nb_classes,
 478:../Middlewares/stm32-vision-models-postprocessing/lib_vision_models_pp/Src/od_pp_yolo_d.c ****                                                         conf_threshold_s16,
 479:../Middlewares/stm32-vision-models-postprocessing/lib_vision_models_pp/Src/od_pp_yolo_d.c ****                                                         &pInput_static_param->nb_detect,
 480:../Middlewares/stm32-vision-models-postprocessing/lib_vision_models_pp/Src/od_pp_yolo_d.c ****                                                         pInput_static_param->raw_output_zero_point,
 481:../Middlewares/stm32-vision-models-postprocessing/lib_vision_models_pp/Src/od_pp_yolo_d.c ****                                                         pInput_static_param->raw_output_scale);
 482:../Middlewares/stm32-vision-models-postprocessing/lib_vision_models_pp/Src/od_pp_yolo_d.c ****     if (error != AI_OD_POSTPROCESS_ERROR_NO) {
 483:../Middlewares/stm32-vision-models-postprocessing/lib_vision_models_pp/Src/od_pp_yolo_d.c ****       break;
 484:../Middlewares/stm32-vision-models-postprocessing/lib_vision_models_pp/Src/od_pp_yolo_d.c ****     }
 485:../Middlewares/stm32-vision-models-postprocessing/lib_vision_models_pp/Src/od_pp_yolo_d.c ****   }
 486:../Middlewares/stm32-vision-models-postprocessing/lib_vision_models_pp/Src/od_pp_yolo_d.c ****   return error;
 1577              		.loc 1 486 3 is_stmt 1 view .LVU508
 1578              	.LVL138:
 487:../Middlewares/stm32-vision-models-postprocessing/lib_vision_models_pp/Src/od_pp_yolo_d.c **** 
 488:../Middlewares/stm32-vision-models-postprocessing/lib_vision_models_pp/Src/od_pp_yolo_d.c **** }
 1579              		.loc 1 488 1 is_stmt 0 view .LVU509
 1580 0044 0020     		movs	r0, #0
 1581 0046 17B0     		add	sp, sp, #92
 1582              		.cfi_remember_state
ARM GAS  /tmp/ccUSEqtX.s 			page 44


 1583              		.cfi_def_cfa_offset 60
 1584              		@ sp needed
 1585 0048 BDEC068B 		vldm	sp!, {d8-d10}
 1586              		.cfi_restore 84
 1587              		.cfi_restore 85
 1588              		.cfi_restore 82
 1589              		.cfi_restore 83
 1590              		.cfi_restore 80
 1591              		.cfi_restore 81
 1592              		.cfi_def_cfa_offset 36
 1593 004c BDE8F08F 		pop	{r4, r5, r6, r7, r8, r9, r10, fp, pc}
 1594              	.LVL139:
 1595              	.L114:
 1596              		.cfi_restore_state
 1597              	.LBB147:
 1598              	.LBB109:
 470:../Middlewares/stm32-vision-models-postprocessing/lib_vision_models_pp/Src/od_pp_yolo_d.c ****     uint8_t stride = pInput_static_param->strides[stride_idx];
 1599              		.loc 1 470 5 is_stmt 1 view .LVU510
 1600              	.LBB110:
 1601              	.LBB111:
 395:../Middlewares/stm32-vision-models-postprocessing/lib_vision_models_pp/Src/od_pp_yolo_d.c ****   float32_t inv_height = 1.0f / (float32_t)height;
 1602              		.loc 1 395 32 is_stmt 0 view .LVU511
 1603 0050 D4ED027A 		vldr.32	s15, [r4, #8]	@ int
 395:../Middlewares/stm32-vision-models-postprocessing/lib_vision_models_pp/Src/od_pp_yolo_d.c ****   float32_t inv_height = 1.0f / (float32_t)height;
 1604              		.loc 1 395 13 view .LVU512
 1605 0054 B7EE007A 		vmov.f32	s14, #1.0e+0
 395:../Middlewares/stm32-vision-models-postprocessing/lib_vision_models_pp/Src/od_pp_yolo_d.c ****   float32_t inv_height = 1.0f / (float32_t)height;
 1606              		.loc 1 395 32 view .LVU513
 1607 0058 F8EE677A 		vcvt.f32.u32	s15, s15
 1608              	.LBE111:
 1609              	.LBE110:
 470:../Middlewares/stm32-vision-models-postprocessing/lib_vision_models_pp/Src/od_pp_yolo_d.c ****     uint8_t stride = pInput_static_param->strides[stride_idx];
 1610              		.loc 1 470 13 view .LVU514
 1611 005c 226A     		ldr	r2, [r4, #32]
 1612              	.LBB138:
 1613              	.LBB131:
 395:../Middlewares/stm32-vision-models-postprocessing/lib_vision_models_pp/Src/od_pp_yolo_d.c ****   float32_t inv_height = 1.0f / (float32_t)height;
 1614              		.loc 1 395 13 view .LVU515
 1615 005e 87EE279A 		vdiv.f32	s18, s14, s15
 1616              	.LBE131:
 1617              	.LBE138:
 470:../Middlewares/stm32-vision-models-postprocessing/lib_vision_models_pp/Src/od_pp_yolo_d.c ****     uint8_t stride = pInput_static_param->strides[stride_idx];
 1618              		.loc 1 470 13 view .LVU516
 1619 0062 D35C     		ldrb	r3, [r2, r3]	@ zero_extendqisi2
 1620              	.LBB139:
 1621              	.LBB132:
 396:../Middlewares/stm32-vision-models-postprocessing/lib_vision_models_pp/Src/od_pp_yolo_d.c ****   int32_t nb_detect = *p_nb_detect;
 1622              		.loc 1 396 33 view .LVU517
 1623 0064 D4ED017A 		vldr.32	s15, [r4, #4]	@ int
 1624              	.LBE132:
 1625              	.LBE139:
 470:../Middlewares/stm32-vision-models-postprocessing/lib_vision_models_pp/Src/od_pp_yolo_d.c **** 
 1626              		.loc 1 470 13 view .LVU518
 1627 0068 0493     		str	r3, [sp, #16]
 1628              	.LVL140:
 472:../Middlewares/stm32-vision-models-postprocessing/lib_vision_models_pp/Src/od_pp_yolo_d.c ****                                                         pOutput,
 1629              		.loc 1 472 5 is_stmt 1 view .LVU519
ARM GAS  /tmp/ccUSEqtX.s 			page 45


 472:../Middlewares/stm32-vision-models-postprocessing/lib_vision_models_pp/Src/od_pp_yolo_d.c ****                                                         pOutput,
 1630              		.loc 1 472 13 is_stmt 0 view .LVU520
 1631 006a 2368     		ldr	r3, [r4]
 1632              	.LBB140:
 1633              	.LBB133:
 393:../Middlewares/stm32-vision-models-postprocessing/lib_vision_models_pp/Src/od_pp_yolo_d.c ****   uint32_t  grid_height = height /stride;
 1634              		.loc 1 393 12 view .LVU521
 1635 006c 049A     		ldr	r2, [sp, #16]
 1636              	.LBE133:
 1637              	.LBE140:
 472:../Middlewares/stm32-vision-models-postprocessing/lib_vision_models_pp/Src/od_pp_yolo_d.c ****                                                         pOutput,
 1638              		.loc 1 472 13 view .LVU522
 1639 006e 0593     		str	r3, [sp, #20]
 1640 0070 0B9B     		ldr	r3, [sp, #44]
 1641              	.LBB141:
 1642              	.LBB134:
 396:../Middlewares/stm32-vision-models-postprocessing/lib_vision_models_pp/Src/od_pp_yolo_d.c ****   int32_t nb_detect = *p_nb_detect;
 1643              		.loc 1 396 33 view .LVU523
 1644 0072 F8EE677A 		vcvt.f32.u32	s15, s15
 1645 0076 1B68     		ldr	r3, [r3]
 1646              	.LBE134:
 1647              	.LBE141:
 472:../Middlewares/stm32-vision-models-postprocessing/lib_vision_models_pp/Src/od_pp_yolo_d.c ****                                                         pOutput,
 1648              		.loc 1 472 13 view .LVU524
 1649 0078 94ED06AA 		vldr.32	s20, [r4, #24]
 1650 007c 0993     		str	r3, [sp, #36]
 1651              	.LVL141:
 1652              	.LBB142:
 1653              	.LBB135:
 393:../Middlewares/stm32-vision-models-postprocessing/lib_vision_models_pp/Src/od_pp_yolo_d.c ****   uint32_t  grid_height = height /stride;
 1654              		.loc 1 393 12 view .LVU525
 1655 007e A368     		ldr	r3, [r4, #8]
 396:../Middlewares/stm32-vision-models-postprocessing/lib_vision_models_pp/Src/od_pp_yolo_d.c ****   int32_t nb_detect = *p_nb_detect;
 1656              		.loc 1 396 13 view .LVU526
 1657 0080 C7EE279A 		vdiv.f32	s19, s14, s15
 393:../Middlewares/stm32-vision-models-postprocessing/lib_vision_models_pp/Src/od_pp_yolo_d.c ****   uint32_t  grid_height = height /stride;
 1658              		.loc 1 393 12 view .LVU527
 1659 0084 B3FBF2F3 		udiv	r3, r3, r2
 1660 0088 0693     		str	r3, [sp, #24]
 394:../Middlewares/stm32-vision-models-postprocessing/lib_vision_models_pp/Src/od_pp_yolo_d.c ****   float32_t inv_width = 1.0f / (float32_t)width;
 1661              		.loc 1 394 13 view .LVU528
 1662 008a 6368     		ldr	r3, [r4, #4]
 1663              	.LBE135:
 1664              	.LBE142:
 472:../Middlewares/stm32-vision-models-postprocessing/lib_vision_models_pp/Src/od_pp_yolo_d.c ****                                                         pOutput,
 1665              		.loc 1 472 13 view .LVU529
 1666 008c 94F92550 		ldrsb	r5, [r4, #37]
 1667              	.LVL142:
 1668              	.LBB143:
 1669              	.LBI110:
 378:../Middlewares/stm32-vision-models-postprocessing/lib_vision_models_pp/Src/od_pp_yolo_d.c ****                                                           od_pp_out_t *pOutput,
 1670              		.loc 1 378 16 is_stmt 1 view .LVU530
 1671              	.LBB136:
 390:../Middlewares/stm32-vision-models-postprocessing/lib_vision_models_pp/Src/od_pp_yolo_d.c **** 
 1672              		.loc 1 390 3 view .LVU531
 392:../Middlewares/stm32-vision-models-postprocessing/lib_vision_models_pp/Src/od_pp_yolo_d.c ****   uint32_t grid_width = width / stride;
 1673              		.loc 1 392 3 view .LVU532
ARM GAS  /tmp/ccUSEqtX.s 			page 46


 393:../Middlewares/stm32-vision-models-postprocessing/lib_vision_models_pp/Src/od_pp_yolo_d.c ****   uint32_t  grid_height = height /stride;
 1674              		.loc 1 393 3 view .LVU533
 394:../Middlewares/stm32-vision-models-postprocessing/lib_vision_models_pp/Src/od_pp_yolo_d.c ****   float32_t inv_width = 1.0f / (float32_t)width;
 1675              		.loc 1 394 3 view .LVU534
 394:../Middlewares/stm32-vision-models-postprocessing/lib_vision_models_pp/Src/od_pp_yolo_d.c ****   float32_t inv_width = 1.0f / (float32_t)width;
 1676              		.loc 1 394 13 is_stmt 0 view .LVU535
 1677 0090 B3FBF2F3 		udiv	r3, r3, r2
 1678 0094 0A93     		str	r3, [sp, #40]
 1679              	.LVL143:
 395:../Middlewares/stm32-vision-models-postprocessing/lib_vision_models_pp/Src/od_pp_yolo_d.c ****   float32_t inv_height = 1.0f / (float32_t)height;
 1680              		.loc 1 395 3 is_stmt 1 view .LVU536
 396:../Middlewares/stm32-vision-models-postprocessing/lib_vision_models_pp/Src/od_pp_yolo_d.c ****   int32_t nb_detect = *p_nb_detect;
 1681              		.loc 1 396 3 view .LVU537
 397:../Middlewares/stm32-vision-models-postprocessing/lib_vision_models_pp/Src/od_pp_yolo_d.c ****   od_pp_outBuffer_t *pOutBuff = (od_pp_outBuffer_t *)pOutput->pOutBuff;
 1682              		.loc 1 397 3 view .LVU538
 1683              	.LBB112:
 401:../Middlewares/stm32-vision-models-postprocessing/lib_vision_models_pp/Src/od_pp_yolo_d.c ****   {
 1684              		.loc 1 401 17 is_stmt 0 view .LVU539
 1685 0096 0023     		movs	r3, #0
 1686              	.LVL144:
 401:../Middlewares/stm32-vision-models-postprocessing/lib_vision_models_pp/Src/od_pp_yolo_d.c ****   {
 1687              		.loc 1 401 17 view .LVU540
 1688              	.LBE112:
 397:../Middlewares/stm32-vision-models-postprocessing/lib_vision_models_pp/Src/od_pp_yolo_d.c ****   od_pp_outBuffer_t *pOutBuff = (od_pp_outBuffer_t *)pOutput->pOutBuff;
 1689              		.loc 1 397 11 view .LVU541
 1690 0098 E769     		ldr	r7, [r4, #28]
 1691              	.LVL145:
 398:../Middlewares/stm32-vision-models-postprocessing/lib_vision_models_pp/Src/od_pp_yolo_d.c **** 
 1692              		.loc 1 398 3 is_stmt 1 view .LVU542
 401:../Middlewares/stm32-vision-models-postprocessing/lib_vision_models_pp/Src/od_pp_yolo_d.c ****   {
 1693              		.loc 1 401 3 view .LVU543
 1694              	.LBB129:
 401:../Middlewares/stm32-vision-models-postprocessing/lib_vision_models_pp/Src/od_pp_yolo_d.c ****   {
 1695              		.loc 1 401 8 view .LVU544
 1696              	.L116:
 401:../Middlewares/stm32-vision-models-postprocessing/lib_vision_models_pp/Src/od_pp_yolo_d.c ****   {
 1697              		.loc 1 401 45 is_stmt 0 discriminator 2 view .LVU545
 1698 009a 0393     		str	r3, [sp, #12]
 1699              	.LVL146:
 401:../Middlewares/stm32-vision-models-postprocessing/lib_vision_models_pp/Src/od_pp_yolo_d.c ****   {
 1700              		.loc 1 401 28 is_stmt 1 discriminator 1 view .LVU546
 1701 009c 039A     		ldr	r2, [sp, #12]
 1702 009e 0A9B     		ldr	r3, [sp, #40]
 1703              	.LVL147:
 401:../Middlewares/stm32-vision-models-postprocessing/lib_vision_models_pp/Src/od_pp_yolo_d.c ****   {
 1704              		.loc 1 401 28 is_stmt 0 discriminator 1 view .LVU547
 1705 00a0 9342     		cmp	r3, r2
 1706 00a2 40F0A280 		bne	.L115
 401:../Middlewares/stm32-vision-models-postprocessing/lib_vision_models_pp/Src/od_pp_yolo_d.c ****   {
 1707              		.loc 1 401 28 discriminator 1 view .LVU548
 1708              	.LBE129:
 454:../Middlewares/stm32-vision-models-postprocessing/lib_vision_models_pp/Src/od_pp_yolo_d.c ****   *pRaw_detections_ptr = pRaw_detections;
 1709              		.loc 1 454 3 is_stmt 1 view .LVU549
 454:../Middlewares/stm32-vision-models-postprocessing/lib_vision_models_pp/Src/od_pp_yolo_d.c ****   *pRaw_detections_ptr = pRaw_detections;
 1710              		.loc 1 454 16 is_stmt 0 view .LVU550
 1711 00a6 E761     		str	r7, [r4, #28]
 455:../Middlewares/stm32-vision-models-postprocessing/lib_vision_models_pp/Src/od_pp_yolo_d.c **** 
ARM GAS  /tmp/ccUSEqtX.s 			page 47


 1712              		.loc 1 455 3 is_stmt 1 view .LVU551
 1713              	.LVL148:
 457:../Middlewares/stm32-vision-models-postprocessing/lib_vision_models_pp/Src/od_pp_yolo_d.c **** }
 1714              		.loc 1 457 3 view .LVU552
 457:../Middlewares/stm32-vision-models-postprocessing/lib_vision_models_pp/Src/od_pp_yolo_d.c **** }
 1715              		.loc 1 457 3 is_stmt 0 view .LVU553
 1716              	.LBE136:
 1717              	.LBE143:
 482:../Middlewares/stm32-vision-models-postprocessing/lib_vision_models_pp/Src/od_pp_yolo_d.c ****       break;
 1718              		.loc 1 482 5 is_stmt 1 view .LVU554
 1719              	.LBE109:
 469:../Middlewares/stm32-vision-models-postprocessing/lib_vision_models_pp/Src/od_pp_yolo_d.c ****     uint8_t stride = pInput_static_param->strides[stride_idx];
 1720              		.loc 1 469 89 discriminator 2 view .LVU555
 469:../Middlewares/stm32-vision-models-postprocessing/lib_vision_models_pp/Src/od_pp_yolo_d.c ****     uint8_t stride = pInput_static_param->strides[stride_idx];
 1721              		.loc 1 469 89 is_stmt 0 discriminator 2 view .LVU556
 1722 00a8 09F10109 		add	r9, r9, #1
 1723              	.LVL149:
 469:../Middlewares/stm32-vision-models-postprocessing/lib_vision_models_pp/Src/od_pp_yolo_d.c ****     uint8_t stride = pInput_static_param->strides[stride_idx];
 1724              		.loc 1 469 89 discriminator 2 view .LVU557
 1725 00ac C4E7     		b	.L107
 1726              	.LVL150:
 1727              	.L112:
 1728              	.LBB145:
 1729              	.LBB144:
 1730              	.LBB137:
 1731              	.LBB130:
 1732              	.LBB113:
 1733              	.LBB114:
 1734              	.LBB115:
 407:../Middlewares/stm32-vision-models-postprocessing/lib_vision_models_pp/Src/od_pp_yolo_d.c ****     uint8_t class_index_array[16];
 1735              		.loc 1 407 5 is_stmt 1 view .LVU558
 408:../Middlewares/stm32-vision-models-postprocessing/lib_vision_models_pp/Src/od_pp_yolo_d.c **** 
 1736              		.loc 1 408 5 view .LVU559
 410:../Middlewares/stm32-vision-models-postprocessing/lib_vision_models_pp/Src/od_pp_yolo_d.c ****       // Max prob over classes
 1737              		.loc 1 410 7 view .LVU560
 410:../Middlewares/stm32-vision-models-postprocessing/lib_vision_models_pp/Src/od_pp_yolo_d.c ****       // Max prob over classes
 1738              		.loc 1 410 16 is_stmt 0 view .LVU561
 1739 00ae 5346     		mov	r3, r10
 1740 00b0 102B     		cmp	r3, #16
 1741 00b2 28BF     		it	cs
 1742 00b4 1023     		movcs	r3, #16
 1743 00b6 0793     		str	r3, [sp, #28]
 1744              	.LVL151:
 412:../Middlewares/stm32-vision-models-postprocessing/lib_vision_models_pp/Src/od_pp_yolo_d.c ****                                     nb_classes,
 1745              		.loc 1 412 7 is_stmt 1 view .LVU562
 1746 00b8 0193     		str	r3, [sp, #4]
 1747 00ba 12AB     		add	r3, sp, #72
 1748              	.LVL152:
 412:../Middlewares/stm32-vision-models-postprocessing/lib_vision_models_pp/Src/od_pp_yolo_d.c ****                                     nb_classes,
 1749              		.loc 1 412 7 is_stmt 0 view .LVU563
 1750 00bc 0599     		ldr	r1, [sp, #20]
 1751              	.LVL153:
 412:../Middlewares/stm32-vision-models-postprocessing/lib_vision_models_pp/Src/od_pp_yolo_d.c ****                                     nb_classes,
 1752              		.loc 1 412 7 view .LVU564
 1753 00be 0093     		str	r3, [sp]
 1754 00c0 701D     		adds	r0, r6, #5
 1755 00c2 0EAB     		add	r3, sp, #56
ARM GAS  /tmp/ccUSEqtX.s 			page 48


 1756 00c4 0C92     		str	r2, [sp, #48]
 1757              	.LBB116:
 419:../Middlewares/stm32-vision-models-postprocessing/lib_vision_models_pp/Src/od_pp_yolo_d.c ****       {
 1758              		.loc 1 419 7 view .LVU565
 1759 00c6 B346     		mov	fp, r6
 1760              	.LBE116:
 412:../Middlewares/stm32-vision-models-postprocessing/lib_vision_models_pp/Src/od_pp_yolo_d.c ****                                     nb_classes,
 1761              		.loc 1 412 7 view .LVU566
 1762 00c8 FFF7FEFF 		bl	vision_models_maxi_p_is8ou8
 1763              	.LVL154:
 419:../Middlewares/stm32-vision-models-postprocessing/lib_vision_models_pp/Src/od_pp_yolo_d.c ****       {
 1764              		.loc 1 419 7 is_stmt 1 view .LVU567
 1765              	.LBB119:
 419:../Middlewares/stm32-vision-models-postprocessing/lib_vision_models_pp/Src/od_pp_yolo_d.c ****       {
 1766              		.loc 1 419 12 view .LVU568
 419:../Middlewares/stm32-vision-models-postprocessing/lib_vision_models_pp/Src/od_pp_yolo_d.c ****       {
 1767              		.loc 1 419 16 is_stmt 0 view .LVU569
 1768 00cc 0021     		movs	r1, #0
 419:../Middlewares/stm32-vision-models-postprocessing/lib_vision_models_pp/Src/od_pp_yolo_d.c ****       {
 1769              		.loc 1 419 7 view .LVU570
 1770 00ce 0C9A     		ldr	r2, [sp, #48]
 1771              	.LVL155:
 1772              	.L109:
 419:../Middlewares/stm32-vision-models-postprocessing/lib_vision_models_pp/Src/od_pp_yolo_d.c ****       {
 1773              		.loc 1 419 27 is_stmt 1 discriminator 1 view .LVU571
 1774 00d0 079B     		ldr	r3, [sp, #28]
 1775 00d2 9942     		cmp	r1, r3
 1776 00d4 0DD1     		bne	.L111
 419:../Middlewares/stm32-vision-models-postprocessing/lib_vision_models_pp/Src/od_pp_yolo_d.c ****       {
 1777              		.loc 1 419 27 is_stmt 0 discriminator 1 view .LVU572
 1778              	.LBE119:
 1779              	.LBE115:
 404:../Middlewares/stm32-vision-models-postprocessing/lib_vision_models_pp/Src/od_pp_yolo_d.c ****     {
 1780              		.loc 1 404 46 discriminator 2 view .LVU573
 1781 00d6 029B     		ldr	r3, [sp, #8]
 1782 00d8 02FB0166 		mla	r6, r2, r1, r6
 1783              	.LBB121:
 451:../Middlewares/stm32-vision-models-postprocessing/lib_vision_models_pp/Src/od_pp_yolo_d.c ****     } // for ix
 1784              		.loc 1 451 7 is_stmt 1 view .LVU574
 1785              	.LBE121:
 404:../Middlewares/stm32-vision-models-postprocessing/lib_vision_models_pp/Src/od_pp_yolo_d.c ****     {
 1786              		.loc 1 404 46 is_stmt 0 discriminator 2 view .LVU575
 1787 00dc 1033     		adds	r3, r3, #16
 1788              	.LBB122:
 451:../Middlewares/stm32-vision-models-postprocessing/lib_vision_models_pp/Src/od_pp_yolo_d.c ****     } // for ix
 1789              		.loc 1 451 23 view .LVU576
 1790 00de AAEB010A 		sub	r10, r10, r1
 1791              	.LVL156:
 451:../Middlewares/stm32-vision-models-postprocessing/lib_vision_models_pp/Src/od_pp_yolo_d.c ****     } // for ix
 1792              		.loc 1 451 23 view .LVU577
 1793              	.LBE122:
 404:../Middlewares/stm32-vision-models-postprocessing/lib_vision_models_pp/Src/od_pp_yolo_d.c ****     {
 1794              		.loc 1 404 46 is_stmt 1 discriminator 2 view .LVU578
 1795 00e2 0293     		str	r3, [sp, #8]
 1796              	.LVL157:
 1797              	.L113:
 404:../Middlewares/stm32-vision-models-postprocessing/lib_vision_models_pp/Src/od_pp_yolo_d.c ****     {
ARM GAS  /tmp/ccUSEqtX.s 			page 49


 1798              		.loc 1 404 30 discriminator 1 view .LVU579
 1799 00e4 069B     		ldr	r3, [sp, #24]
 1800 00e6 0299     		ldr	r1, [sp, #8]
 1801 00e8 8B42     		cmp	r3, r1
 1802 00ea E0D8     		bhi	.L112
 404:../Middlewares/stm32-vision-models-postprocessing/lib_vision_models_pp/Src/od_pp_yolo_d.c ****     {
 1803              		.loc 1 404 30 is_stmt 0 discriminator 1 view .LVU580
 1804              	.LBE114:
 1805              	.LBE113:
 401:../Middlewares/stm32-vision-models-postprocessing/lib_vision_models_pp/Src/od_pp_yolo_d.c ****   {
 1806              		.loc 1 401 45 is_stmt 1 discriminator 2 view .LVU581
 1807 00ec 039B     		ldr	r3, [sp, #12]
 1808 00ee 0133     		adds	r3, r3, #1
 1809 00f0 D3E7     		b	.L116
 1810              	.LVL158:
 1811              	.L111:
 1812              	.LBB128:
 1813              	.LBB126:
 1814              	.LBB123:
 1815              	.LBB120:
 1816              	.LBB117:
 421:../Middlewares/stm32-vision-models-postprocessing/lib_vision_models_pp/Src/od_pp_yolo_d.c **** 
 1817              		.loc 1 421 9 view .LVU582
 421:../Middlewares/stm32-vision-models-postprocessing/lib_vision_models_pp/Src/od_pp_yolo_d.c **** 
 1818              		.loc 1 421 35 is_stmt 0 view .LVU583
 1819 00f2 0EAB     		add	r3, sp, #56
 1820 00f4 5B56     		ldrsb	r3, [r3, r1]
 421:../Middlewares/stm32-vision-models-postprocessing/lib_vision_models_pp/Src/od_pp_yolo_d.c **** 
 1821              		.loc 1 421 78 view .LVU584
 1822 00f6 9BF904C0 		ldrsb	ip, [fp, #4]
 421:../Middlewares/stm32-vision-models-postprocessing/lib_vision_models_pp/Src/od_pp_yolo_d.c **** 
 1823              		.loc 1 421 64 view .LVU585
 1824 00fa 5B1B     		subs	r3, r3, r5
 421:../Middlewares/stm32-vision-models-postprocessing/lib_vision_models_pp/Src/od_pp_yolo_d.c **** 
 1825              		.loc 1 421 126 view .LVU586
 1826 00fc ACEB050C 		sub	ip, ip, r5
 421:../Middlewares/stm32-vision-models-postprocessing/lib_vision_models_pp/Src/od_pp_yolo_d.c **** 
 1827              		.loc 1 421 17 view .LVU587
 1828 0100 13FB0CF3 		smulbb	r3, r3, ip
 423:../Middlewares/stm32-vision-models-postprocessing/lib_vision_models_pp/Src/od_pp_yolo_d.c ****         {
 1829              		.loc 1 423 12 view .LVU588
 1830 0104 0898     		ldr	r0, [sp, #32]
 421:../Middlewares/stm32-vision-models-postprocessing/lib_vision_models_pp/Src/od_pp_yolo_d.c **** 
 1831              		.loc 1 421 17 view .LVU589
 1832 0106 1BB2     		sxth	r3, r3
 1833              	.LVL159:
 423:../Middlewares/stm32-vision-models-postprocessing/lib_vision_models_pp/Src/od_pp_yolo_d.c ****         {
 1834              		.loc 1 423 9 is_stmt 1 view .LVU590
 423:../Middlewares/stm32-vision-models-postprocessing/lib_vision_models_pp/Src/od_pp_yolo_d.c ****         {
 1835              		.loc 1 423 12 is_stmt 0 view .LVU591
 1836 0108 9842     		cmp	r0, r3
 1837 010a 6BDC     		bgt	.L110
 1838              	.LBB118:
 425:../Middlewares/stm32-vision-models-postprocessing/lib_vision_models_pp/Src/od_pp_yolo_d.c ****           best_score_f *= scale;
 1839              		.loc 1 425 51 view .LVU592
 1840 010c 07EE903A 		vmov	s15, r3	@ int
 429:../Middlewares/stm32-vision-models-postprocessing/lib_vision_models_pp/Src/od_pp_yolo_d.c ****           x_center = (x_center + ix + _i) * stride * inv_width;
ARM GAS  /tmp/ccUSEqtX.s 			page 50


 1841              		.loc 1 429 52 view .LVU593
 1842 0110 9BF90030 		ldrsb	r3, [fp]
 1843              	.LVL160:
 425:../Middlewares/stm32-vision-models-postprocessing/lib_vision_models_pp/Src/od_pp_yolo_d.c ****           best_score_f *= scale;
 1844              		.loc 1 425 51 view .LVU594
 1845 0114 B8EEE78A 		vcvt.f32.s32	s16, s15
 429:../Middlewares/stm32-vision-models-postprocessing/lib_vision_models_pp/Src/od_pp_yolo_d.c ****           x_center = (x_center + ix + _i) * stride * inv_width;
 1846              		.loc 1 429 99 view .LVU595
 1847 0118 5B1B     		subs	r3, r3, r5
 429:../Middlewares/stm32-vision-models-postprocessing/lib_vision_models_pp/Src/od_pp_yolo_d.c ****           x_center = (x_center + ix + _i) * stride * inv_width;
 1848              		.loc 1 429 40 view .LVU596
 1849 011a 07EE903A 		vmov	s15, r3	@ int
 1850              	.LVL161:
 430:../Middlewares/stm32-vision-models-postprocessing/lib_vision_models_pp/Src/od_pp_yolo_d.c ****           pOutBuff[nb_detect].x_center    = x_center;
 1851              		.loc 1 430 32 view .LVU597
 1852 011e 9DED027A 		vldr.32	s14, [sp, #8]	@ int
 429:../Middlewares/stm32-vision-models-postprocessing/lib_vision_models_pp/Src/od_pp_yolo_d.c ****           x_center = (x_center + ix + _i) * stride * inv_width;
 1853              		.loc 1 429 40 view .LVU598
 1854 0122 F8EEE77A 		vcvt.f32.s32	s15, s15
 430:../Middlewares/stm32-vision-models-postprocessing/lib_vision_models_pp/Src/od_pp_yolo_d.c ****           pOutBuff[nb_detect].x_center    = x_center;
 1855              		.loc 1 430 32 view .LVU599
 1856 0126 B8EE477A 		vcvt.f32.u32	s14, s14
 1857 012a AAEE277A 		vfma.f32	s14, s20, s15
 430:../Middlewares/stm32-vision-models-postprocessing/lib_vision_models_pp/Src/od_pp_yolo_d.c ****           pOutBuff[nb_detect].x_center    = x_center;
 1858              		.loc 1 430 37 view .LVU600
 1859 012e 07EE901A 		vmov	s15, r1	@ int
 1860 0132 F8EEE77A 		vcvt.f32.s32	s15, s15
 1861 0136 77EE877A 		vadd.f32	s15, s15, s14
 430:../Middlewares/stm32-vision-models-postprocessing/lib_vision_models_pp/Src/od_pp_yolo_d.c ****           pOutBuff[nb_detect].x_center    = x_center;
 1862              		.loc 1 430 43 view .LVU601
 1863 013a 9DED047A 		vldr.32	s14, [sp, #16]	@ int
 1864 013e F8EEC78A 		vcvt.f32.s32	s17, s14
 1865 0142 67EEA87A 		vmul.f32	s15, s15, s17
 1866 0146 0D92     		str	r2, [sp, #52]
 425:../Middlewares/stm32-vision-models-postprocessing/lib_vision_models_pp/Src/od_pp_yolo_d.c ****           best_score_f *= scale;
 1867              		.loc 1 425 11 is_stmt 1 view .LVU602
 431:../Middlewares/stm32-vision-models-postprocessing/lib_vision_models_pp/Src/od_pp_yolo_d.c ****           /* AI_YOLO_D_PP_YCENTER */
 1868              		.loc 1 431 19 is_stmt 0 view .LVU603
 1869 0148 1822     		movs	r2, #24
 430:../Middlewares/stm32-vision-models-postprocessing/lib_vision_models_pp/Src/od_pp_yolo_d.c ****           pOutBuff[nb_detect].x_center    = x_center;
 1870              		.loc 1 430 20 view .LVU604
 1871 014a 67EE897A 		vmul.f32	s15, s15, s18
 431:../Middlewares/stm32-vision-models-postprocessing/lib_vision_models_pp/Src/od_pp_yolo_d.c ****           /* AI_YOLO_D_PP_YCENTER */
 1872              		.loc 1 431 19 view .LVU605
 1873 014e 099B     		ldr	r3, [sp, #36]
 430:../Middlewares/stm32-vision-models-postprocessing/lib_vision_models_pp/Src/od_pp_yolo_d.c ****           pOutBuff[nb_detect].x_center    = x_center;
 1874              		.loc 1 430 37 view .LVU606
 1875 0150 0C91     		str	r1, [sp, #48]
 431:../Middlewares/stm32-vision-models-postprocessing/lib_vision_models_pp/Src/od_pp_yolo_d.c ****           /* AI_YOLO_D_PP_YCENTER */
 1876              		.loc 1 431 19 view .LVU607
 1877 0152 02FB0738 		mla	r8, r2, r7, r3
 431:../Middlewares/stm32-vision-models-postprocessing/lib_vision_models_pp/Src/od_pp_yolo_d.c ****           /* AI_YOLO_D_PP_YCENTER */
 1878              		.loc 1 431 43 view .LVU608
 1879 0156 C8ED007A 		vstr.32	s15, [r8]
 1880              	.LVL162:
 433:../Middlewares/stm32-vision-models-postprocessing/lib_vision_models_pp/Src/od_pp_yolo_d.c ****           y_center = (y_center + iy) * stride * inv_height;
 1881              		.loc 1 433 52 view .LVU609
ARM GAS  /tmp/ccUSEqtX.s 			page 51


 1882 015a 9BF901C0 		ldrsb	ip, [fp, #1]
 425:../Middlewares/stm32-vision-models-postprocessing/lib_vision_models_pp/Src/od_pp_yolo_d.c ****           best_score_f *= scale;
 1883              		.loc 1 425 21 view .LVU610
 1884 015e 28EE0A8A 		vmul.f32	s16, s16, s20
 1885              	.LVL163:
 426:../Middlewares/stm32-vision-models-postprocessing/lib_vision_models_pp/Src/od_pp_yolo_d.c **** 
 1886              		.loc 1 426 11 is_stmt 1 view .LVU611
 433:../Middlewares/stm32-vision-models-postprocessing/lib_vision_models_pp/Src/od_pp_yolo_d.c ****           y_center = (y_center + iy) * stride * inv_height;
 1887              		.loc 1 433 99 is_stmt 0 view .LVU612
 1888 0162 ACEB050C 		sub	ip, ip, r5
 433:../Middlewares/stm32-vision-models-postprocessing/lib_vision_models_pp/Src/od_pp_yolo_d.c ****           y_center = (y_center + iy) * stride * inv_height;
 1889              		.loc 1 433 40 view .LVU613
 1890 0166 07EE90CA 		vmov	s15, ip	@ int
 1891 016a B8EEE77A 		vcvt.f32.s32	s14, s15
 434:../Middlewares/stm32-vision-models-postprocessing/lib_vision_models_pp/Src/od_pp_yolo_d.c ****           pOutBuff[nb_detect].y_center    = y_center;
 1892              		.loc 1 434 32 view .LVU614
 1893 016e DDED037A 		vldr.32	s15, [sp, #12]	@ int
 1894 0172 F8EE677A 		vcvt.f32.u32	s15, s15
 1895 0176 EAEE077A 		vfma.f32	s15, s20, s14
 434:../Middlewares/stm32-vision-models-postprocessing/lib_vision_models_pp/Src/od_pp_yolo_d.c ****           pOutBuff[nb_detect].y_center    = y_center;
 1896              		.loc 1 434 38 view .LVU615
 1897 017a 68EEA77A 		vmul.f32	s15, s17, s15
 434:../Middlewares/stm32-vision-models-postprocessing/lib_vision_models_pp/Src/od_pp_yolo_d.c ****           pOutBuff[nb_detect].y_center    = y_center;
 1898              		.loc 1 434 20 view .LVU616
 1899 017e 67EEA97A 		vmul.f32	s15, s15, s19
 435:../Middlewares/stm32-vision-models-postprocessing/lib_vision_models_pp/Src/od_pp_yolo_d.c ****           /* AI_YOLO_D_PP_WIDTHREL */
 1900              		.loc 1 435 43 view .LVU617
 1901 0182 C8ED017A 		vstr.32	s15, [r8, #4]
 437:../Middlewares/stm32-vision-models-postprocessing/lib_vision_models_pp/Src/od_pp_yolo_d.c ****           w = expf(w) * stride * inv_width;
 1902              		.loc 1 437 45 view .LVU618
 1903 0186 9BF902C0 		ldrsb	ip, [fp, #2]
 426:../Middlewares/stm32-vision-models-postprocessing/lib_vision_models_pp/Src/od_pp_yolo_d.c **** 
 1904              		.loc 1 426 24 view .LVU619
 1905 018a 2AEE088A 		vmul.f32	s16, s20, s16
 1906              	.LVL164:
 429:../Middlewares/stm32-vision-models-postprocessing/lib_vision_models_pp/Src/od_pp_yolo_d.c ****           x_center = (x_center + ix + _i) * stride * inv_width;
 1907              		.loc 1 429 11 is_stmt 1 view .LVU620
 430:../Middlewares/stm32-vision-models-postprocessing/lib_vision_models_pp/Src/od_pp_yolo_d.c ****           pOutBuff[nb_detect].x_center    = x_center;
 1908              		.loc 1 430 11 view .LVU621
 431:../Middlewares/stm32-vision-models-postprocessing/lib_vision_models_pp/Src/od_pp_yolo_d.c ****           /* AI_YOLO_D_PP_YCENTER */
 1909              		.loc 1 431 11 view .LVU622
 433:../Middlewares/stm32-vision-models-postprocessing/lib_vision_models_pp/Src/od_pp_yolo_d.c ****           y_center = (y_center + iy) * stride * inv_height;
 1910              		.loc 1 433 11 view .LVU623
 434:../Middlewares/stm32-vision-models-postprocessing/lib_vision_models_pp/Src/od_pp_yolo_d.c ****           pOutBuff[nb_detect].y_center    = y_center;
 1911              		.loc 1 434 11 view .LVU624
 435:../Middlewares/stm32-vision-models-postprocessing/lib_vision_models_pp/Src/od_pp_yolo_d.c ****           /* AI_YOLO_D_PP_WIDTHREL */
 1912              		.loc 1 435 11 view .LVU625
 437:../Middlewares/stm32-vision-models-postprocessing/lib_vision_models_pp/Src/od_pp_yolo_d.c ****           w = expf(w) * stride * inv_width;
 1913              		.loc 1 437 11 view .LVU626
 438:../Middlewares/stm32-vision-models-postprocessing/lib_vision_models_pp/Src/od_pp_yolo_d.c ****           pOutBuff[nb_detect].width    = w;
 1914              		.loc 1 438 11 view .LVU627
 437:../Middlewares/stm32-vision-models-postprocessing/lib_vision_models_pp/Src/od_pp_yolo_d.c ****           w = expf(w) * stride * inv_width;
 1915              		.loc 1 437 93 is_stmt 0 view .LVU628
 1916 018e ACEB0503 		sub	r3, ip, r5
 1917 0192 00EE103A 		vmov	s0, r3	@ int
 437:../Middlewares/stm32-vision-models-postprocessing/lib_vision_models_pp/Src/od_pp_yolo_d.c ****           w = expf(w) * stride * inv_width;
 1918              		.loc 1 437 33 view .LVU629
ARM GAS  /tmp/ccUSEqtX.s 			page 52


 1919 0196 B8EEC00A 		vcvt.f32.s32	s0, s0
 438:../Middlewares/stm32-vision-models-postprocessing/lib_vision_models_pp/Src/od_pp_yolo_d.c ****           pOutBuff[nb_detect].width    = w;
 1920              		.loc 1 438 15 view .LVU630
 1921 019a 20EE0A0A 		vmul.f32	s0, s0, s20
 1922 019e FFF7FEFF 		bl	expf
 1923              	.LVL165:
 439:../Middlewares/stm32-vision-models-postprocessing/lib_vision_models_pp/Src/od_pp_yolo_d.c ****           /* AI_YOLO_D_PP_HEIGHTREL */
 1924              		.loc 1 439 11 is_stmt 1 view .LVU631
 438:../Middlewares/stm32-vision-models-postprocessing/lib_vision_models_pp/Src/od_pp_yolo_d.c ****           pOutBuff[nb_detect].width    = w;
 1925              		.loc 1 438 23 is_stmt 0 discriminator 1 view .LVU632
 1926 01a2 28EE800A 		vmul.f32	s0, s17, s0
 1927              	.LVL166:
 438:../Middlewares/stm32-vision-models-postprocessing/lib_vision_models_pp/Src/od_pp_yolo_d.c ****           pOutBuff[nb_detect].width    = w;
 1928              		.loc 1 438 13 discriminator 1 view .LVU633
 1929 01a6 20EE090A 		vmul.f32	s0, s0, s18
 1930              	.LVL167:
 439:../Middlewares/stm32-vision-models-postprocessing/lib_vision_models_pp/Src/od_pp_yolo_d.c ****           /* AI_YOLO_D_PP_HEIGHTREL */
 1931              		.loc 1 439 40 view .LVU634
 1932 01aa 88ED020A 		vstr.32	s0, [r8, #8]
 441:../Middlewares/stm32-vision-models-postprocessing/lib_vision_models_pp/Src/od_pp_yolo_d.c ****           h = expf(h) * stride * inv_height;
 1933              		.loc 1 441 11 is_stmt 1 view .LVU635
 1934              	.LVL168:
 442:../Middlewares/stm32-vision-models-postprocessing/lib_vision_models_pp/Src/od_pp_yolo_d.c ****           pOutBuff[nb_detect].height      = h;
 1935              		.loc 1 442 11 view .LVU636
 441:../Middlewares/stm32-vision-models-postprocessing/lib_vision_models_pp/Src/od_pp_yolo_d.c ****           h = expf(h) * stride * inv_height;
 1936              		.loc 1 441 45 is_stmt 0 view .LVU637
 1937 01ae 9BF903C0 		ldrsb	ip, [fp, #3]
 447:../Middlewares/stm32-vision-models-postprocessing/lib_vision_models_pp/Src/od_pp_yolo_d.c ****         }
 1938              		.loc 1 447 20 view .LVU638
 1939 01b2 0137     		adds	r7, r7, #1
 1940              	.LVL169:
 441:../Middlewares/stm32-vision-models-postprocessing/lib_vision_models_pp/Src/od_pp_yolo_d.c ****           h = expf(h) * stride * inv_height;
 1941              		.loc 1 441 94 view .LVU639
 1942 01b4 ACEB0503 		sub	r3, ip, r5
 1943 01b8 00EE103A 		vmov	s0, r3	@ int
 1944              	.LVL170:
 441:../Middlewares/stm32-vision-models-postprocessing/lib_vision_models_pp/Src/od_pp_yolo_d.c ****           h = expf(h) * stride * inv_height;
 1945              		.loc 1 441 33 view .LVU640
 1946 01bc B8EEC00A 		vcvt.f32.s32	s0, s0
 442:../Middlewares/stm32-vision-models-postprocessing/lib_vision_models_pp/Src/od_pp_yolo_d.c ****           pOutBuff[nb_detect].height      = h;
 1947              		.loc 1 442 15 view .LVU641
 1948 01c0 20EE0A0A 		vmul.f32	s0, s0, s20
 1949 01c4 FFF7FEFF 		bl	expf
 1950              	.LVL171:
 443:../Middlewares/stm32-vision-models-postprocessing/lib_vision_models_pp/Src/od_pp_yolo_d.c **** 
 1951              		.loc 1 443 11 is_stmt 1 view .LVU642
 442:../Middlewares/stm32-vision-models-postprocessing/lib_vision_models_pp/Src/od_pp_yolo_d.c ****           pOutBuff[nb_detect].height      = h;
 1952              		.loc 1 442 23 is_stmt 0 discriminator 1 view .LVU643
 1953 01c8 68EE808A 		vmul.f32	s17, s17, s0
 1954              	.LVL172:
 442:../Middlewares/stm32-vision-models-postprocessing/lib_vision_models_pp/Src/od_pp_yolo_d.c ****           pOutBuff[nb_detect].height      = h;
 1955              		.loc 1 442 13 discriminator 1 view .LVU644
 1956 01cc 68EEA98A 		vmul.f32	s17, s17, s19
 1957              	.LVL173:
 443:../Middlewares/stm32-vision-models-postprocessing/lib_vision_models_pp/Src/od_pp_yolo_d.c **** 
 1958              		.loc 1 443 43 view .LVU645
 1959 01d0 C8ED038A 		vstr.32	s17, [r8, #12]
ARM GAS  /tmp/ccUSEqtX.s 			page 53


 445:../Middlewares/stm32-vision-models-postprocessing/lib_vision_models_pp/Src/od_pp_yolo_d.c ****           pOutBuff[nb_detect].class_index = class_index_array[_i];
 1960              		.loc 1 445 11 is_stmt 1 view .LVU646
 445:../Middlewares/stm32-vision-models-postprocessing/lib_vision_models_pp/Src/od_pp_yolo_d.c ****           pOutBuff[nb_detect].class_index = class_index_array[_i];
 1961              		.loc 1 445 43 is_stmt 0 view .LVU647
 1962 01d4 88ED048A 		vstr.32	s16, [r8, #16]
 446:../Middlewares/stm32-vision-models-postprocessing/lib_vision_models_pp/Src/od_pp_yolo_d.c ****           nb_detect++;
 1963              		.loc 1 446 11 is_stmt 1 view .LVU648
 446:../Middlewares/stm32-vision-models-postprocessing/lib_vision_models_pp/Src/od_pp_yolo_d.c ****           nb_detect++;
 1964              		.loc 1 446 62 is_stmt 0 view .LVU649
 1965 01d8 0C99     		ldr	r1, [sp, #48]
 1966 01da 12AB     		add	r3, sp, #72
 1967 01dc 5B5C     		ldrb	r3, [r3, r1]	@ zero_extendqisi2
 447:../Middlewares/stm32-vision-models-postprocessing/lib_vision_models_pp/Src/od_pp_yolo_d.c ****         }
 1968              		.loc 1 447 20 view .LVU650
 1969 01de 0D9A     		ldr	r2, [sp, #52]
 446:../Middlewares/stm32-vision-models-postprocessing/lib_vision_models_pp/Src/od_pp_yolo_d.c ****           nb_detect++;
 1970              		.loc 1 446 62 view .LVU651
 1971 01e0 C8F81430 		str	r3, [r8, #20]
 447:../Middlewares/stm32-vision-models-postprocessing/lib_vision_models_pp/Src/od_pp_yolo_d.c ****         }
 1972              		.loc 1 447 11 is_stmt 1 view .LVU652
 1973              	.LVL174:
 1974              	.L110:
 447:../Middlewares/stm32-vision-models-postprocessing/lib_vision_models_pp/Src/od_pp_yolo_d.c ****         }
 1975              		.loc 1 447 11 is_stmt 0 view .LVU653
 1976              	.LBE118:
 449:../Middlewares/stm32-vision-models-postprocessing/lib_vision_models_pp/Src/od_pp_yolo_d.c ****       }
 1977              		.loc 1 449 9 is_stmt 1 view .LVU654
 449:../Middlewares/stm32-vision-models-postprocessing/lib_vision_models_pp/Src/od_pp_yolo_d.c ****       }
 1978              		.loc 1 449 25 is_stmt 0 view .LVU655
 1979 01e4 9344     		add	fp, fp, r2
 1980              	.LVL175:
 449:../Middlewares/stm32-vision-models-postprocessing/lib_vision_models_pp/Src/od_pp_yolo_d.c ****       }
 1981              		.loc 1 449 25 view .LVU656
 1982              	.LBE117:
 419:../Middlewares/stm32-vision-models-postprocessing/lib_vision_models_pp/Src/od_pp_yolo_d.c ****       {
 1983              		.loc 1 419 44 is_stmt 1 discriminator 2 view .LVU657
 1984 01e6 0131     		adds	r1, r1, #1
 1985 01e8 72E7     		b	.L109
 1986              	.LVL176:
 1987              	.L115:
 419:../Middlewares/stm32-vision-models-postprocessing/lib_vision_models_pp/Src/od_pp_yolo_d.c ****       {
 1988              		.loc 1 419 44 is_stmt 0 discriminator 2 view .LVU658
 1989              	.LBE120:
 1990              	.LBE123:
 404:../Middlewares/stm32-vision-models-postprocessing/lib_vision_models_pp/Src/od_pp_yolo_d.c ****     {
 1991              		.loc 1 404 19 view .LVU659
 1992 01ea 0023     		movs	r3, #0
 1993 01ec 0293     		str	r3, [sp, #8]
 1994              	.LBB124:
 414:../Middlewares/stm32-vision-models-postprocessing/lib_vision_models_pp/Src/od_pp_yolo_d.c ****                                     best_score_array,
 1995              		.loc 1 414 60 view .LVU660
 1996 01ee 059B     		ldr	r3, [sp, #20]
 1997              	.LBE124:
 1998              	.LBE126:
 403:../Middlewares/stm32-vision-models-postprocessing/lib_vision_models_pp/Src/od_pp_yolo_d.c ****     for (uint32_t ix = 0; ix < grid_width; ix+=16)
 1999              		.loc 1 403 14 view .LVU661
 2000 01f0 DDF818A0 		ldr	r10, [sp, #24]
ARM GAS  /tmp/ccUSEqtX.s 			page 54


 2001              	.LBB127:
 2002              	.LBB125:
 414:../Middlewares/stm32-vision-models-postprocessing/lib_vision_models_pp/Src/od_pp_yolo_d.c ****                                     best_score_array,
 2003              		.loc 1 414 60 view .LVU662
 2004 01f4 5A1D     		adds	r2, r3, #5
 2005              	.LVL177:
 414:../Middlewares/stm32-vision-models-postprocessing/lib_vision_models_pp/Src/od_pp_yolo_d.c ****                                     best_score_array,
 2006              		.loc 1 414 60 view .LVU663
 2007 01f6 75E7     		b	.L113
 2008              	.LBE125:
 2009              	.LBE127:
 2010              	.LBE128:
 2011              	.LBE130:
 2012              	.LBE137:
 2013              	.LBE144:
 2014              	.LBE145:
 2015              	.LBE147:
 2016              		.cfi_endproc
 2017              	.LFE783:
 2019              		.section	.text.od_yolo_d_pp_reset,"ax",%progbits
 2020              		.align	1
 2021              		.global	od_yolo_d_pp_reset
 2022              		.syntax unified
 2023              		.thumb
 2024              		.thumb_func
 2026              	od_yolo_d_pp_reset:
 2027              	.LVL178:
 2028              	.LFB784:
 489:../Middlewares/stm32-vision-models-postprocessing/lib_vision_models_pp/Src/od_pp_yolo_d.c **** 
 490:../Middlewares/stm32-vision-models-postprocessing/lib_vision_models_pp/Src/od_pp_yolo_d.c **** 
 491:../Middlewares/stm32-vision-models-postprocessing/lib_vision_models_pp/Src/od_pp_yolo_d.c **** /* ----------------------       Exported routines      ---------------------- */
 492:../Middlewares/stm32-vision-models-postprocessing/lib_vision_models_pp/Src/od_pp_yolo_d.c **** 
 493:../Middlewares/stm32-vision-models-postprocessing/lib_vision_models_pp/Src/od_pp_yolo_d.c **** int32_t od_yolo_d_pp_reset(od_yolo_d_pp_static_param_t *pInput_static_param)
 494:../Middlewares/stm32-vision-models-postprocessing/lib_vision_models_pp/Src/od_pp_yolo_d.c **** {
 2029              		.loc 1 494 1 is_stmt 1 view -0
 2030              		.cfi_startproc
 2031              		@ args = 0, pretend = 0, frame = 0
 2032              		@ frame_needed = 0, uses_anonymous_args = 0
 2033              		@ link register save eliminated.
 495:../Middlewares/stm32-vision-models-postprocessing/lib_vision_models_pp/Src/od_pp_yolo_d.c ****   /* Initializations */
 496:../Middlewares/stm32-vision-models-postprocessing/lib_vision_models_pp/Src/od_pp_yolo_d.c ****   pInput_static_param->nb_detect = 0;
 2034              		.loc 1 496 3 view .LVU665
 494:../Middlewares/stm32-vision-models-postprocessing/lib_vision_models_pp/Src/od_pp_yolo_d.c ****   /* Initializations */
 2035              		.loc 1 494 1 is_stmt 0 view .LVU666
 2036 0000 0346     		mov	r3, r0
 2037              		.loc 1 496 34 view .LVU667
 2038 0002 0020     		movs	r0, #0
 2039              	.LVL179:
 2040              		.loc 1 496 34 view .LVU668
 2041 0004 D861     		str	r0, [r3, #28]
 497:../Middlewares/stm32-vision-models-postprocessing/lib_vision_models_pp/Src/od_pp_yolo_d.c **** 
 498:../Middlewares/stm32-vision-models-postprocessing/lib_vision_models_pp/Src/od_pp_yolo_d.c ****   return (AI_OD_POSTPROCESS_ERROR_NO);
 2042              		.loc 1 498 3 is_stmt 1 view .LVU669
 499:../Middlewares/stm32-vision-models-postprocessing/lib_vision_models_pp/Src/od_pp_yolo_d.c **** }
 2043              		.loc 1 499 1 is_stmt 0 view .LVU670
 2044 0006 7047     		bx	lr
 2045              		.cfi_endproc
ARM GAS  /tmp/ccUSEqtX.s 			page 55


 2046              	.LFE784:
 2048              		.section	.text.od_yolo_d_pp_process,"ax",%progbits
 2049              		.align	1
 2050              		.global	od_yolo_d_pp_process
 2051              		.syntax unified
 2052              		.thumb
 2053              		.thumb_func
 2055              	od_yolo_d_pp_process:
 2056              	.LVL180:
 2057              	.LFB785:
 500:../Middlewares/stm32-vision-models-postprocessing/lib_vision_models_pp/Src/od_pp_yolo_d.c **** 
 501:../Middlewares/stm32-vision-models-postprocessing/lib_vision_models_pp/Src/od_pp_yolo_d.c **** 
 502:../Middlewares/stm32-vision-models-postprocessing/lib_vision_models_pp/Src/od_pp_yolo_d.c **** int32_t od_yolo_d_pp_process(od_yolo_d_pp_in_centroid_t *pInput,
 503:../Middlewares/stm32-vision-models-postprocessing/lib_vision_models_pp/Src/od_pp_yolo_d.c ****                              od_pp_out_t *pOutput,
 504:../Middlewares/stm32-vision-models-postprocessing/lib_vision_models_pp/Src/od_pp_yolo_d.c ****                              od_yolo_d_pp_static_param_t *pInput_static_param)
 505:../Middlewares/stm32-vision-models-postprocessing/lib_vision_models_pp/Src/od_pp_yolo_d.c **** {
 2058              		.loc 1 505 1 is_stmt 1 view -0
 2059              		.cfi_startproc
 2060              		@ args = 0, pretend = 0, frame = 0
 2061              		@ frame_needed = 0, uses_anonymous_args = 0
 506:../Middlewares/stm32-vision-models-postprocessing/lib_vision_models_pp/Src/od_pp_yolo_d.c ****   int32_t error   = AI_OD_POSTPROCESS_ERROR_NO;
 2062              		.loc 1 506 3 view .LVU672
 507:../Middlewares/stm32-vision-models-postprocessing/lib_vision_models_pp/Src/od_pp_yolo_d.c **** 
 508:../Middlewares/stm32-vision-models-postprocessing/lib_vision_models_pp/Src/od_pp_yolo_d.c ****   /* Call Get NN boxes first */
 509:../Middlewares/stm32-vision-models-postprocessing/lib_vision_models_pp/Src/od_pp_yolo_d.c ****   error = yolov_d_pp_getNNBoxes_centroid(pInput,
 2063              		.loc 1 509 3 view .LVU673
 505:../Middlewares/stm32-vision-models-postprocessing/lib_vision_models_pp/Src/od_pp_yolo_d.c ****   int32_t error   = AI_OD_POSTPROCESS_ERROR_NO;
 2064              		.loc 1 505 1 is_stmt 0 view .LVU674
 2065 0000 38B5     		push	{r3, r4, r5, lr}
 2066              		.cfi_def_cfa_offset 16
 2067              		.cfi_offset 3, -16
 2068              		.cfi_offset 4, -12
 2069              		.cfi_offset 5, -8
 2070              		.cfi_offset 14, -4
 505:../Middlewares/stm32-vision-models-postprocessing/lib_vision_models_pp/Src/od_pp_yolo_d.c ****   int32_t error   = AI_OD_POSTPROCESS_ERROR_NO;
 2071              		.loc 1 505 1 view .LVU675
 2072 0002 1546     		mov	r5, r2
 2073 0004 0C46     		mov	r4, r1
 2074              		.loc 1 509 11 view .LVU676
 2075 0006 FFF7FEFF 		bl	yolov_d_pp_getNNBoxes_centroid
 2076              	.LVL181:
 510:../Middlewares/stm32-vision-models-postprocessing/lib_vision_models_pp/Src/od_pp_yolo_d.c ****                                         pOutput,
 511:../Middlewares/stm32-vision-models-postprocessing/lib_vision_models_pp/Src/od_pp_yolo_d.c ****                                         pInput_static_param);
 512:../Middlewares/stm32-vision-models-postprocessing/lib_vision_models_pp/Src/od_pp_yolo_d.c ****   if (error != AI_OD_POSTPROCESS_ERROR_NO) return (error);
 2077              		.loc 1 512 3 is_stmt 1 view .LVU677
 513:../Middlewares/stm32-vision-models-postprocessing/lib_vision_models_pp/Src/od_pp_yolo_d.c **** 
 514:../Middlewares/stm32-vision-models-postprocessing/lib_vision_models_pp/Src/od_pp_yolo_d.c ****   /* Then NMS */
 515:../Middlewares/stm32-vision-models-postprocessing/lib_vision_models_pp/Src/od_pp_yolo_d.c ****   error = yolov_d_pp_nmsFiltering_centroid(pOutput,
 2078              		.loc 1 515 3 view .LVU678
 2079              		.loc 1 515 11 is_stmt 0 view .LVU679
 2080 000a 2946     		mov	r1, r5
 2081 000c 2046     		mov	r0, r4
 2082 000e FFF7FEFF 		bl	yolov_d_pp_nmsFiltering_centroid
 2083              	.LVL182:
 516:../Middlewares/stm32-vision-models-postprocessing/lib_vision_models_pp/Src/od_pp_yolo_d.c ****                                           pInput_static_param);
 517:../Middlewares/stm32-vision-models-postprocessing/lib_vision_models_pp/Src/od_pp_yolo_d.c ****   if (error != AI_OD_POSTPROCESS_ERROR_NO) return (error);
 2084              		.loc 1 517 3 is_stmt 1 view .LVU680
ARM GAS  /tmp/ccUSEqtX.s 			page 56


 518:../Middlewares/stm32-vision-models-postprocessing/lib_vision_models_pp/Src/od_pp_yolo_d.c **** 
 519:../Middlewares/stm32-vision-models-postprocessing/lib_vision_models_pp/Src/od_pp_yolo_d.c ****   /* And score re-filtering */
 520:../Middlewares/stm32-vision-models-postprocessing/lib_vision_models_pp/Src/od_pp_yolo_d.c ****   error = yolov_d_pp_scoreFiltering_centroid(pOutput,
 2085              		.loc 1 520 3 view .LVU681
 2086              		.loc 1 520 11 is_stmt 0 view .LVU682
 2087 0012 2946     		mov	r1, r5
 2088 0014 2046     		mov	r0, r4
 2089 0016 FFF7FEFF 		bl	yolov_d_pp_scoreFiltering_centroid
 2090              	.LVL183:
 521:../Middlewares/stm32-vision-models-postprocessing/lib_vision_models_pp/Src/od_pp_yolo_d.c ****                                             pInput_static_param);
 522:../Middlewares/stm32-vision-models-postprocessing/lib_vision_models_pp/Src/od_pp_yolo_d.c **** 
 523:../Middlewares/stm32-vision-models-postprocessing/lib_vision_models_pp/Src/od_pp_yolo_d.c ****   return (error);
 2091              		.loc 1 523 3 is_stmt 1 view .LVU683
 524:../Middlewares/stm32-vision-models-postprocessing/lib_vision_models_pp/Src/od_pp_yolo_d.c **** }
 2092              		.loc 1 524 1 is_stmt 0 view .LVU684
 2093 001a 0020     		movs	r0, #0
 2094 001c 38BD     		pop	{r3, r4, r5, pc}
 2095              		.loc 1 524 1 view .LVU685
 2096              		.cfi_endproc
 2097              	.LFE785:
 2099              		.section	.text.od_yolo_d_pp_process_int8,"ax",%progbits
 2100              		.align	1
 2101              		.global	od_yolo_d_pp_process_int8
 2102              		.syntax unified
 2103              		.thumb
 2104              		.thumb_func
 2106              	od_yolo_d_pp_process_int8:
 2107              	.LVL184:
 2108              	.LFB786:
 525:../Middlewares/stm32-vision-models-postprocessing/lib_vision_models_pp/Src/od_pp_yolo_d.c **** 
 526:../Middlewares/stm32-vision-models-postprocessing/lib_vision_models_pp/Src/od_pp_yolo_d.c **** 
 527:../Middlewares/stm32-vision-models-postprocessing/lib_vision_models_pp/Src/od_pp_yolo_d.c **** int32_t od_yolo_d_pp_process_int8(od_yolo_d_pp_in_centroid_t *pInput,
 528:../Middlewares/stm32-vision-models-postprocessing/lib_vision_models_pp/Src/od_pp_yolo_d.c ****                                   od_pp_out_t *pOutput,
 529:../Middlewares/stm32-vision-models-postprocessing/lib_vision_models_pp/Src/od_pp_yolo_d.c ****                                   od_yolo_d_pp_static_param_t *pInput_static_param)
 530:../Middlewares/stm32-vision-models-postprocessing/lib_vision_models_pp/Src/od_pp_yolo_d.c **** {
 2109              		.loc 1 530 1 is_stmt 1 view -0
 2110              		.cfi_startproc
 2111              		@ args = 0, pretend = 0, frame = 0
 2112              		@ frame_needed = 0, uses_anonymous_args = 0
 531:../Middlewares/stm32-vision-models-postprocessing/lib_vision_models_pp/Src/od_pp_yolo_d.c ****   int32_t error   = AI_OD_POSTPROCESS_ERROR_NO;
 2113              		.loc 1 531 3 view .LVU687
 532:../Middlewares/stm32-vision-models-postprocessing/lib_vision_models_pp/Src/od_pp_yolo_d.c ****   /* Call Get NN boxes first */
 533:../Middlewares/stm32-vision-models-postprocessing/lib_vision_models_pp/Src/od_pp_yolo_d.c ****   error = yolov_d_pp_getNNBoxes_centroid_int8(pInput,
 2114              		.loc 1 533 3 view .LVU688
 530:../Middlewares/stm32-vision-models-postprocessing/lib_vision_models_pp/Src/od_pp_yolo_d.c ****   int32_t error   = AI_OD_POSTPROCESS_ERROR_NO;
 2115              		.loc 1 530 1 is_stmt 0 view .LVU689
 2116 0000 38B5     		push	{r3, r4, r5, lr}
 2117              		.cfi_def_cfa_offset 16
 2118              		.cfi_offset 3, -16
 2119              		.cfi_offset 4, -12
 2120              		.cfi_offset 5, -8
 2121              		.cfi_offset 14, -4
 530:../Middlewares/stm32-vision-models-postprocessing/lib_vision_models_pp/Src/od_pp_yolo_d.c ****   int32_t error   = AI_OD_POSTPROCESS_ERROR_NO;
 2122              		.loc 1 530 1 view .LVU690
 2123 0002 1546     		mov	r5, r2
 2124 0004 0C46     		mov	r4, r1
 2125              		.loc 1 533 11 view .LVU691
ARM GAS  /tmp/ccUSEqtX.s 			page 57


 2126 0006 FFF7FEFF 		bl	yolov_d_pp_getNNBoxes_centroid_int8
 2127              	.LVL185:
 534:../Middlewares/stm32-vision-models-postprocessing/lib_vision_models_pp/Src/od_pp_yolo_d.c ****                                              pOutput,
 535:../Middlewares/stm32-vision-models-postprocessing/lib_vision_models_pp/Src/od_pp_yolo_d.c ****                                              pInput_static_param);
 536:../Middlewares/stm32-vision-models-postprocessing/lib_vision_models_pp/Src/od_pp_yolo_d.c ****   if (error != AI_OD_POSTPROCESS_ERROR_NO) return (error);
 2128              		.loc 1 536 3 is_stmt 1 view .LVU692
 537:../Middlewares/stm32-vision-models-postprocessing/lib_vision_models_pp/Src/od_pp_yolo_d.c **** 
 538:../Middlewares/stm32-vision-models-postprocessing/lib_vision_models_pp/Src/od_pp_yolo_d.c ****   /* Then NMS */
 539:../Middlewares/stm32-vision-models-postprocessing/lib_vision_models_pp/Src/od_pp_yolo_d.c **** 
 540:../Middlewares/stm32-vision-models-postprocessing/lib_vision_models_pp/Src/od_pp_yolo_d.c ****   error = yolov_d_pp_nmsFiltering_centroid(pOutput,
 2129              		.loc 1 540 3 view .LVU693
 2130              		.loc 1 540 11 is_stmt 0 view .LVU694
 2131 000a 2946     		mov	r1, r5
 2132 000c 2046     		mov	r0, r4
 2133 000e FFF7FEFF 		bl	yolov_d_pp_nmsFiltering_centroid
 2134              	.LVL186:
 541:../Middlewares/stm32-vision-models-postprocessing/lib_vision_models_pp/Src/od_pp_yolo_d.c ****                                           pInput_static_param);
 542:../Middlewares/stm32-vision-models-postprocessing/lib_vision_models_pp/Src/od_pp_yolo_d.c ****   if (error != AI_OD_POSTPROCESS_ERROR_NO) return (error);
 2135              		.loc 1 542 3 is_stmt 1 view .LVU695
 543:../Middlewares/stm32-vision-models-postprocessing/lib_vision_models_pp/Src/od_pp_yolo_d.c **** 
 544:../Middlewares/stm32-vision-models-postprocessing/lib_vision_models_pp/Src/od_pp_yolo_d.c ****   /* And score re-filtering */
 545:../Middlewares/stm32-vision-models-postprocessing/lib_vision_models_pp/Src/od_pp_yolo_d.c ****   error = yolov_d_pp_scoreFiltering_centroid(pOutput,
 2136              		.loc 1 545 3 view .LVU696
 2137              		.loc 1 545 11 is_stmt 0 view .LVU697
 2138 0012 2946     		mov	r1, r5
 2139 0014 2046     		mov	r0, r4
 2140 0016 FFF7FEFF 		bl	yolov_d_pp_scoreFiltering_centroid
 2141              	.LVL187:
 546:../Middlewares/stm32-vision-models-postprocessing/lib_vision_models_pp/Src/od_pp_yolo_d.c ****                                             pInput_static_param);
 547:../Middlewares/stm32-vision-models-postprocessing/lib_vision_models_pp/Src/od_pp_yolo_d.c ****   return (error);
 2142              		.loc 1 547 3 is_stmt 1 view .LVU698
 548:../Middlewares/stm32-vision-models-postprocessing/lib_vision_models_pp/Src/od_pp_yolo_d.c **** }
 2143              		.loc 1 548 1 is_stmt 0 view .LVU699
 2144 001a 0020     		movs	r0, #0
 2145 001c 38BD     		pop	{r3, r4, r5, pc}
 2146              		.loc 1 548 1 view .LVU700
 2147              		.cfi_endproc
 2148              	.LFE786:
 2150              		.section	.bss.AI_YOLO_D_PP_SORT_CLASS,"aw",%nobits
 2151              		.align	2
 2154              	AI_YOLO_D_PP_SORT_CLASS:
 2155 0000 00000000 		.space	4
 2156              		.text
 2157              	.Letext0:
 2158              		.file 2 "/opt/st/stm32cubeclt_1.21.0/GNU-tools-for-STM32/arm-none-eabi/include/machine/_default_ty
 2159              		.file 3 "/opt/st/stm32cubeclt_1.21.0/GNU-tools-for-STM32/arm-none-eabi/include/sys/_stdint.h"
 2160              		.file 4 "/opt/st/stm32cubeclt_1.21.0/GNU-tools-for-STM32/lib/gcc/arm-none-eabi/14.3.1/include/stdd
 2161              		.file 5 "/opt/st/stm32cubeclt_1.21.0/GNU-tools-for-STM32/lib/gcc/arm-none-eabi/14.3.1/include/arm_
 2162              		.file 6 "../Middlewares/stm32-vision-models-postprocessing/lib_vision_models_pp/Inc/od_pp_output_i
 2163              		.file 7 "../Middlewares/stm32-vision-models-postprocessing/lib_vision_models_pp/Inc/od_yolo_d_pp_i
 2164              		.file 8 "../Middlewares/stm32-vision-models-postprocessing/lib_vision_models_pp/Src/vision_models_
 2165              		.file 9 "/opt/st/stm32cubeclt_1.21.0/GNU-tools-for-STM32/arm-none-eabi/include/math.h"
ARM GAS  /tmp/ccUSEqtX.s 			page 58

