ARM GAS  /tmp/ccXy3KAt.s 			page 1


   1              		.arch armv8.1-m.main
   2              		.fpu fpv5-d16
   3              		.arch_extension dsp
   4              		.arch_extension fp
   5              		.arch_extension fp.dp
   6              		.arch_extension mve
   7              		.arch_extension mve.fp
   8              		.eabi_attribute 5, "cortex-m55"
   9              		.eabi_attribute 28, 1
  10              		.eabi_attribute 20, 1
  11              		.eabi_attribute 21, 1
  12              		.eabi_attribute 23, 3
  13              		.eabi_attribute 24, 1
  14              		.eabi_attribute 25, 1
  15              		.eabi_attribute 26, 1
  16              		.eabi_attribute 30, 4
  17              		.eabi_attribute 34, 1
  18              		.eabi_attribute 38, 1
  19              		.eabi_attribute 18, 4
  20              		.file	"od_pp_centernet.c"
  21              		.text
  22              	.Ltext0:
  23              		.cfi_sections	.debug_frame
  24              		.file 1 "../Middlewares/stm32-vision-models-postprocessing/lib_vision_models_pp/Src/od_pp_centerne
  25              		.section	.text.centernet_box_intersection,"ax",%progbits
  26              		.align	1
  27              		.syntax unified
  28              		.thumb
  29              		.thumb_func
  31              	centernet_box_intersection:
  32              	.LVL0:
  33              	.LFB775:
   1:../Middlewares/stm32-vision-models-postprocessing/lib_vision_models_pp/Src/od_pp_centernet.c **** /*---------------------------------------------------------------------------------------------
   2:../Middlewares/stm32-vision-models-postprocessing/lib_vision_models_pp/Src/od_pp_centernet.c ****  * Copyright (c) 2023 STMicroelectronics.
   3:../Middlewares/stm32-vision-models-postprocessing/lib_vision_models_pp/Src/od_pp_centernet.c ****  * All rights reserved.
   4:../Middlewares/stm32-vision-models-postprocessing/lib_vision_models_pp/Src/od_pp_centernet.c ****  *
   5:../Middlewares/stm32-vision-models-postprocessing/lib_vision_models_pp/Src/od_pp_centernet.c ****  * This software is licensed under terms that can be found in the LICENSE file in
   6:../Middlewares/stm32-vision-models-postprocessing/lib_vision_models_pp/Src/od_pp_centernet.c ****  * the root directory of this software component.
   7:../Middlewares/stm32-vision-models-postprocessing/lib_vision_models_pp/Src/od_pp_centernet.c ****  * If no LICENSE file comes with this software, it is provided AS-IS.
   8:../Middlewares/stm32-vision-models-postprocessing/lib_vision_models_pp/Src/od_pp_centernet.c ****  *--------------------------------------------------------------------------------------------*/
   9:../Middlewares/stm32-vision-models-postprocessing/lib_vision_models_pp/Src/od_pp_centernet.c **** 
  10:../Middlewares/stm32-vision-models-postprocessing/lib_vision_models_pp/Src/od_pp_centernet.c **** #include "od_pp_loc.h"
  11:../Middlewares/stm32-vision-models-postprocessing/lib_vision_models_pp/Src/od_pp_centernet.c **** #include "od_centernet_pp_if.h"
  12:../Middlewares/stm32-vision-models-postprocessing/lib_vision_models_pp/Src/od_pp_centernet.c **** #include "vision_models_pp.h"
  13:../Middlewares/stm32-vision-models-postprocessing/lib_vision_models_pp/Src/od_pp_centernet.c **** 
  14:../Middlewares/stm32-vision-models-postprocessing/lib_vision_models_pp/Src/od_pp_centernet.c **** 
  15:../Middlewares/stm32-vision-models-postprocessing/lib_vision_models_pp/Src/od_pp_centernet.c **** /* Trick to have this structure representation overlapped with real output representation */
  16:../Middlewares/stm32-vision-models-postprocessing/lib_vision_models_pp/Src/od_pp_centernet.c **** typedef struct centernet_pp_tmp_outBuffer
  17:../Middlewares/stm32-vision-models-postprocessing/lib_vision_models_pp/Src/od_pp_centernet.c **** {
  18:../Middlewares/stm32-vision-models-postprocessing/lib_vision_models_pp/Src/od_pp_centernet.c ****   float32_t      top_left_x;
  19:../Middlewares/stm32-vision-models-postprocessing/lib_vision_models_pp/Src/od_pp_centernet.c ****   float32_t      top_left_y;
  20:../Middlewares/stm32-vision-models-postprocessing/lib_vision_models_pp/Src/od_pp_centernet.c ****   float32_t      bottom_right_x;
  21:../Middlewares/stm32-vision-models-postprocessing/lib_vision_models_pp/Src/od_pp_centernet.c ****   float32_t      bottom_right_y;
  22:../Middlewares/stm32-vision-models-postprocessing/lib_vision_models_pp/Src/od_pp_centernet.c ****   float32_t      conf;
  23:../Middlewares/stm32-vision-models-postprocessing/lib_vision_models_pp/Src/od_pp_centernet.c ****   int32_t        class_index;
  24:../Middlewares/stm32-vision-models-postprocessing/lib_vision_models_pp/Src/od_pp_centernet.c **** } centernet_pp_tmp_outBuffer_t;
  25:../Middlewares/stm32-vision-models-postprocessing/lib_vision_models_pp/Src/od_pp_centernet.c **** 
ARM GAS  /tmp/ccXy3KAt.s 			page 2


  26:../Middlewares/stm32-vision-models-postprocessing/lib_vision_models_pp/Src/od_pp_centernet.c **** 
  27:../Middlewares/stm32-vision-models-postprocessing/lib_vision_models_pp/Src/od_pp_centernet.c **** //***************iou ********
  28:../Middlewares/stm32-vision-models-postprocessing/lib_vision_models_pp/Src/od_pp_centernet.c **** static inline
  29:../Middlewares/stm32-vision-models-postprocessing/lib_vision_models_pp/Src/od_pp_centernet.c **** float32_t centernet_overlap(float32_t l1, float32_t r1, float32_t l2, float32_t r2)
  30:../Middlewares/stm32-vision-models-postprocessing/lib_vision_models_pp/Src/od_pp_centernet.c **** {
  31:../Middlewares/stm32-vision-models-postprocessing/lib_vision_models_pp/Src/od_pp_centernet.c ****     float32_t left = l1 > l2 ? l1 : l2;
  32:../Middlewares/stm32-vision-models-postprocessing/lib_vision_models_pp/Src/od_pp_centernet.c ****     float32_t right = r1 < r2 ? r1 : r2;
  33:../Middlewares/stm32-vision-models-postprocessing/lib_vision_models_pp/Src/od_pp_centernet.c ****     return (right - left);
  34:../Middlewares/stm32-vision-models-postprocessing/lib_vision_models_pp/Src/od_pp_centernet.c **** }
  35:../Middlewares/stm32-vision-models-postprocessing/lib_vision_models_pp/Src/od_pp_centernet.c **** 
  36:../Middlewares/stm32-vision-models-postprocessing/lib_vision_models_pp/Src/od_pp_centernet.c **** static inline
  37:../Middlewares/stm32-vision-models-postprocessing/lib_vision_models_pp/Src/od_pp_centernet.c **** float32_t centernet_box_intersection(centernet_pp_tmp_outBuffer_t *a, centernet_pp_tmp_outBuffer_t 
  38:../Middlewares/stm32-vision-models-postprocessing/lib_vision_models_pp/Src/od_pp_centernet.c **** {
  34              		.loc 1 38 1 view -0
  35              		.cfi_startproc
  36              		@ args = 0, pretend = 0, frame = 0
  37              		@ frame_needed = 0, uses_anonymous_args = 0
  38              		@ link register save eliminated.
  39:../Middlewares/stm32-vision-models-postprocessing/lib_vision_models_pp/Src/od_pp_centernet.c ****     float32_t w = centernet_overlap(a->top_left_x, a->bottom_right_x, b->top_left_x, b->bottom_righ
  39              		.loc 1 39 5 view .LVU1
  40              		.loc 1 39 19 is_stmt 0 view .LVU2
  41 0000 D0ED027A 		vldr.32	s15, [r0, #8]
  42 0004 91ED026A 		vldr.32	s12, [r1, #8]
  43 0008 90ED007A 		vldr.32	s14, [r0]
  44              	.LVL1:
  45              	.LBB6:
  46              	.LBB7:
  33:../Middlewares/stm32-vision-models-postprocessing/lib_vision_models_pp/Src/od_pp_centernet.c **** }
  47              		.loc 1 33 19 view .LVU3
  48 000c B4EEE76A 		vcmpe.f32	s12, s15
  49              	.LBE7:
  50              	.LBE6:
  51              		.loc 1 39 19 view .LVU4
  52 0010 D1ED006A 		vldr.32	s13, [r1]
  53              	.LVL2:
  54              	.LBB9:
  55              	.LBI6:
  29:../Middlewares/stm32-vision-models-postprocessing/lib_vision_models_pp/Src/od_pp_centernet.c **** {
  56              		.loc 1 29 11 is_stmt 1 view .LVU5
  57              	.LBB8:
  31:../Middlewares/stm32-vision-models-postprocessing/lib_vision_models_pp/Src/od_pp_centernet.c ****     float32_t right = r1 < r2 ? r1 : r2;
  58              		.loc 1 31 5 view .LVU6
  32:../Middlewares/stm32-vision-models-postprocessing/lib_vision_models_pp/Src/od_pp_centernet.c ****     return (right - left);
  59              		.loc 1 32 5 view .LVU7
  33:../Middlewares/stm32-vision-models-postprocessing/lib_vision_models_pp/Src/od_pp_centernet.c **** }
  60              		.loc 1 33 5 view .LVU8
  33:../Middlewares/stm32-vision-models-postprocessing/lib_vision_models_pp/Src/od_pp_centernet.c **** }
  61              		.loc 1 33 19 is_stmt 0 view .LVU9
  62 0014 F1EE10FA 		vmrs	APSR_nzcv, FPSCR
  63 0018 B4EEE67A 		vcmpe.f32	s14, s13
  64 001c 77FE867A 		vselgt.f32	s15, s15, s12
  65              	.LVL3:
  33:../Middlewares/stm32-vision-models-postprocessing/lib_vision_models_pp/Src/od_pp_centernet.c **** }
  66              		.loc 1 33 19 view .LVU10
  67 0020 F1EE10FA 		vmrs	APSR_nzcv, FPSCR
  68 0024 37FE267A 		vselgt.f32	s14, s14, s13
  69              	.LVL4:
ARM GAS  /tmp/ccXy3KAt.s 			page 3


  33:../Middlewares/stm32-vision-models-postprocessing/lib_vision_models_pp/Src/od_pp_centernet.c **** }
  70              		.loc 1 33 19 view .LVU11
  71 0028 77EEC77A 		vsub.f32	s15, s15, s14
  72              	.LVL5:
  33:../Middlewares/stm32-vision-models-postprocessing/lib_vision_models_pp/Src/od_pp_centernet.c **** }
  73              		.loc 1 33 19 view .LVU12
  74              	.LBE8:
  75              	.LBE9:
  40:../Middlewares/stm32-vision-models-postprocessing/lib_vision_models_pp/Src/od_pp_centernet.c ****     float32_t h = centernet_overlap(a->top_left_y, a->bottom_right_y, b->top_left_y, b->bottom_righ
  76              		.loc 1 40 5 is_stmt 1 view .LVU13
  77              	.LBB10:
  78              	.LBI10:
  29:../Middlewares/stm32-vision-models-postprocessing/lib_vision_models_pp/Src/od_pp_centernet.c **** {
  79              		.loc 1 29 11 view .LVU14
  80              	.LBB11:
  31:../Middlewares/stm32-vision-models-postprocessing/lib_vision_models_pp/Src/od_pp_centernet.c ****     float32_t right = r1 < r2 ? r1 : r2;
  81              		.loc 1 31 5 view .LVU15
  32:../Middlewares/stm32-vision-models-postprocessing/lib_vision_models_pp/Src/od_pp_centernet.c ****     return (right - left);
  82              		.loc 1 32 5 view .LVU16
  33:../Middlewares/stm32-vision-models-postprocessing/lib_vision_models_pp/Src/od_pp_centernet.c **** }
  83              		.loc 1 33 5 view .LVU17
  33:../Middlewares/stm32-vision-models-postprocessing/lib_vision_models_pp/Src/od_pp_centernet.c **** }
  84              		.loc 1 33 5 is_stmt 0 view .LVU18
  85              	.LBE11:
  86              	.LBE10:
  41:../Middlewares/stm32-vision-models-postprocessing/lib_vision_models_pp/Src/od_pp_centernet.c ****     if (w < 0 || h < 0) return 0;
  87              		.loc 1 41 5 is_stmt 1 view .LVU19
  88              		.loc 1 41 8 is_stmt 0 view .LVU20
  89 002c F5EEC07A 		vcmpe.f32	s15, #0
  90 0030 F1EE10FA 		vmrs	APSR_nzcv, FPSCR
  91 0034 1DD4     		bmi	.L4
  40:../Middlewares/stm32-vision-models-postprocessing/lib_vision_models_pp/Src/od_pp_centernet.c ****     if (w < 0 || h < 0) return 0;
  92              		.loc 1 40 19 view .LVU21
  93 0036 90ED030A 		vldr.32	s0, [r0, #12]
  94 003a 91ED036A 		vldr.32	s12, [r1, #12]
  95              	.LVL6:
  40:../Middlewares/stm32-vision-models-postprocessing/lib_vision_models_pp/Src/od_pp_centernet.c ****     if (w < 0 || h < 0) return 0;
  96              		.loc 1 40 19 view .LVU22
  97 003e 90ED017A 		vldr.32	s14, [r0, #4]
  98              	.LBB14:
  99              	.LBB12:
  33:../Middlewares/stm32-vision-models-postprocessing/lib_vision_models_pp/Src/od_pp_centernet.c **** }
 100              		.loc 1 33 19 view .LVU23
 101 0042 B4EEC06A 		vcmpe.f32	s12, s0
 102              	.LBE12:
 103              	.LBE14:
  40:../Middlewares/stm32-vision-models-postprocessing/lib_vision_models_pp/Src/od_pp_centernet.c ****     if (w < 0 || h < 0) return 0;
 104              		.loc 1 40 19 view .LVU24
 105 0046 D1ED016A 		vldr.32	s13, [r1, #4]
 106              	.LVL7:
 107              	.LBB15:
 108              	.LBB13:
  33:../Middlewares/stm32-vision-models-postprocessing/lib_vision_models_pp/Src/od_pp_centernet.c **** }
 109              		.loc 1 33 19 view .LVU25
 110 004a F1EE10FA 		vmrs	APSR_nzcv, FPSCR
 111 004e B4EEE67A 		vcmpe.f32	s14, s13
 112 0052 30FE060A 		vselgt.f32	s0, s0, s12
ARM GAS  /tmp/ccXy3KAt.s 			page 4


 113 0056 F1EE10FA 		vmrs	APSR_nzcv, FPSCR
 114 005a 37FE267A 		vselgt.f32	s14, s14, s13
 115 005e 30EE470A 		vsub.f32	s0, s0, s14
 116              	.LBE13:
 117              	.LBE15:
 118              		.loc 1 41 15 discriminator 2 view .LVU26
 119 0062 B5EEC00A 		vcmpe.f32	s0, #0
 120 0066 F1EE10FA 		vmrs	APSR_nzcv, FPSCR
 121 006a 02D4     		bmi	.L4
  42:../Middlewares/stm32-vision-models-postprocessing/lib_vision_models_pp/Src/od_pp_centernet.c ****     float32_t area = w * h;
 122              		.loc 1 42 5 is_stmt 1 view .LVU27
 123              		.loc 1 42 15 is_stmt 0 view .LVU28
 124 006c 20EE270A 		vmul.f32	s0, s0, s15
 125              	.LVL8:
  43:../Middlewares/stm32-vision-models-postprocessing/lib_vision_models_pp/Src/od_pp_centernet.c ****     return (area);
 126              		.loc 1 43 5 is_stmt 1 view .LVU29
 127              		.loc 1 43 12 is_stmt 0 view .LVU30
 128 0070 7047     		bx	lr
 129              	.LVL9:
 130              	.L4:
  41:../Middlewares/stm32-vision-models-postprocessing/lib_vision_models_pp/Src/od_pp_centernet.c ****     float32_t area = w * h;
 131              		.loc 1 41 32 discriminator 3 view .LVU31
 132 0072 9FED010A 		vldr.32	s0, .L5
  44:../Middlewares/stm32-vision-models-postprocessing/lib_vision_models_pp/Src/od_pp_centernet.c **** }
 133              		.loc 1 44 1 view .LVU32
 134 0076 7047     		bx	lr
 135              	.L6:
 136              		.align	2
 137              	.L5:
 138 0078 00000000 		.word	0
 139              		.cfi_endproc
 140              	.LFE775:
 142              		.section	.text.centernet_nms_comparator,"ax",%progbits
 143              		.align	1
 144              		.global	centernet_nms_comparator
 145              		.syntax unified
 146              		.thumb
 147              		.thumb_func
 149              	centernet_nms_comparator:
 150              	.LVL10:
 151              	.LFB778:
  45:../Middlewares/stm32-vision-models-postprocessing/lib_vision_models_pp/Src/od_pp_centernet.c **** 
  46:../Middlewares/stm32-vision-models-postprocessing/lib_vision_models_pp/Src/od_pp_centernet.c **** static inline
  47:../Middlewares/stm32-vision-models-postprocessing/lib_vision_models_pp/Src/od_pp_centernet.c **** float32_t centernet_box_union(centernet_pp_tmp_outBuffer_t *a, centernet_pp_tmp_outBuffer_t *b)
  48:../Middlewares/stm32-vision-models-postprocessing/lib_vision_models_pp/Src/od_pp_centernet.c **** {
  49:../Middlewares/stm32-vision-models-postprocessing/lib_vision_models_pp/Src/od_pp_centernet.c ****     float32_t i = centernet_box_intersection(a, b);
  50:../Middlewares/stm32-vision-models-postprocessing/lib_vision_models_pp/Src/od_pp_centernet.c ****     float32_t u = (a->bottom_right_x - a->top_left_x) * (a->bottom_right_y - a->top_left_y) +
  51:../Middlewares/stm32-vision-models-postprocessing/lib_vision_models_pp/Src/od_pp_centernet.c ****                   (b->bottom_right_x - b->top_left_x) * (b->bottom_right_y - b->top_left_y) -
  52:../Middlewares/stm32-vision-models-postprocessing/lib_vision_models_pp/Src/od_pp_centernet.c ****                   i;
  53:../Middlewares/stm32-vision-models-postprocessing/lib_vision_models_pp/Src/od_pp_centernet.c ****     return (u);
  54:../Middlewares/stm32-vision-models-postprocessing/lib_vision_models_pp/Src/od_pp_centernet.c **** }
  55:../Middlewares/stm32-vision-models-postprocessing/lib_vision_models_pp/Src/od_pp_centernet.c **** 
  56:../Middlewares/stm32-vision-models-postprocessing/lib_vision_models_pp/Src/od_pp_centernet.c **** static inline
  57:../Middlewares/stm32-vision-models-postprocessing/lib_vision_models_pp/Src/od_pp_centernet.c **** float32_t centernet_box_iou(centernet_pp_tmp_outBuffer_t *a, centernet_pp_tmp_outBuffer_t *b)
  58:../Middlewares/stm32-vision-models-postprocessing/lib_vision_models_pp/Src/od_pp_centernet.c **** {
  59:../Middlewares/stm32-vision-models-postprocessing/lib_vision_models_pp/Src/od_pp_centernet.c **** 
  60:../Middlewares/stm32-vision-models-postprocessing/lib_vision_models_pp/Src/od_pp_centernet.c ****     float32_t I = centernet_box_intersection(a, b);
ARM GAS  /tmp/ccXy3KAt.s 			page 5


  61:../Middlewares/stm32-vision-models-postprocessing/lib_vision_models_pp/Src/od_pp_centernet.c ****     float32_t U = centernet_box_union(a, b);
  62:../Middlewares/stm32-vision-models-postprocessing/lib_vision_models_pp/Src/od_pp_centernet.c ****     if (I == 0 || U == 0) {
  63:../Middlewares/stm32-vision-models-postprocessing/lib_vision_models_pp/Src/od_pp_centernet.c ****         return 0;
  64:../Middlewares/stm32-vision-models-postprocessing/lib_vision_models_pp/Src/od_pp_centernet.c ****     }
  65:../Middlewares/stm32-vision-models-postprocessing/lib_vision_models_pp/Src/od_pp_centernet.c ****     return (I / U);
  66:../Middlewares/stm32-vision-models-postprocessing/lib_vision_models_pp/Src/od_pp_centernet.c **** }
  67:../Middlewares/stm32-vision-models-postprocessing/lib_vision_models_pp/Src/od_pp_centernet.c **** 
  68:../Middlewares/stm32-vision-models-postprocessing/lib_vision_models_pp/Src/od_pp_centernet.c **** 
  69:../Middlewares/stm32-vision-models-postprocessing/lib_vision_models_pp/Src/od_pp_centernet.c **** int32_t centernet_nms_comparator(const void *pa, const void *pb)
  70:../Middlewares/stm32-vision-models-postprocessing/lib_vision_models_pp/Src/od_pp_centernet.c **** {
 152              		.loc 1 70 1 is_stmt 1 view -0
 153              		.cfi_startproc
 154              		@ args = 0, pretend = 0, frame = 0
 155              		@ frame_needed = 0, uses_anonymous_args = 0
 156              		@ link register save eliminated.
  71:../Middlewares/stm32-vision-models-postprocessing/lib_vision_models_pp/Src/od_pp_centernet.c ****     od_pp_outBuffer_t *a = (od_pp_outBuffer_t *)pa;
 157              		.loc 1 71 5 view .LVU34
  72:../Middlewares/stm32-vision-models-postprocessing/lib_vision_models_pp/Src/od_pp_centernet.c ****     od_pp_outBuffer_t *b = (od_pp_outBuffer_t *)pb;
 158              		.loc 1 72 5 view .LVU35
  73:../Middlewares/stm32-vision-models-postprocessing/lib_vision_models_pp/Src/od_pp_centernet.c ****     float32_t diff = 0;
 159              		.loc 1 73 5 view .LVU36
  74:../Middlewares/stm32-vision-models-postprocessing/lib_vision_models_pp/Src/od_pp_centernet.c ****     diff = b->conf - a->conf;
 160              		.loc 1 74 5 view .LVU37
 161              		.loc 1 74 10 is_stmt 0 view .LVU38
 162 0000 D1ED047A 		vldr.32	s15, [r1, #16]
 163 0004 90ED047A 		vldr.32	s14, [r0, #16]
 164 0008 77EEC77A 		vsub.f32	s15, s15, s14
 165              	.LVL11:
  75:../Middlewares/stm32-vision-models-postprocessing/lib_vision_models_pp/Src/od_pp_centernet.c **** 
  76:../Middlewares/stm32-vision-models-postprocessing/lib_vision_models_pp/Src/od_pp_centernet.c ****     if (diff < 0) return 1;
 166              		.loc 1 76 5 is_stmt 1 view .LVU39
 167              		.loc 1 76 8 is_stmt 0 view .LVU40
 168 000c F5EEC07A 		vcmpe.f32	s15, #0
 169 0010 F1EE10FA 		vmrs	APSR_nzcv, FPSCR
 170 0014 04D4     		bmi	.L9
  77:../Middlewares/stm32-vision-models-postprocessing/lib_vision_models_pp/Src/od_pp_centernet.c ****     else if (diff > 0) return -1;
 171              		.loc 1 77 10 is_stmt 1 view .LVU41
 172              		.loc 1 77 13 is_stmt 0 view .LVU42
 173 0016 CCBF     		ite	gt
 174 0018 4FF0FF30 		movgt	r0, #-1
 175              	.LVL12:
 176              		.loc 1 77 13 view .LVU43
 177 001c 0020     		movle	r0, #0
 178 001e 7047     		bx	lr
 179              	.LVL13:
 180              	.L9:
  76:../Middlewares/stm32-vision-models-postprocessing/lib_vision_models_pp/Src/od_pp_centernet.c ****     else if (diff > 0) return -1;
 181              		.loc 1 76 26 discriminator 1 view .LVU44
 182 0020 0120     		movs	r0, #1
 183              	.LVL14:
  78:../Middlewares/stm32-vision-models-postprocessing/lib_vision_models_pp/Src/od_pp_centernet.c ****     return 0;
  79:../Middlewares/stm32-vision-models-postprocessing/lib_vision_models_pp/Src/od_pp_centernet.c **** }
 184              		.loc 1 79 1 view .LVU45
 185 0022 7047     		bx	lr
 186              		.cfi_endproc
 187              	.LFE778:
 189              		.section	.text.centernet_pp_nmsFiltering_centroid,"ax",%progbits
ARM GAS  /tmp/ccXy3KAt.s 			page 6


 190              		.align	1
 191              		.global	centernet_pp_nmsFiltering_centroid
 192              		.syntax unified
 193              		.thumb
 194              		.thumb_func
 196              	centernet_pp_nmsFiltering_centroid:
 197              	.LVL15:
 198              	.LFB779:
  80:../Middlewares/stm32-vision-models-postprocessing/lib_vision_models_pp/Src/od_pp_centernet.c **** 
  81:../Middlewares/stm32-vision-models-postprocessing/lib_vision_models_pp/Src/od_pp_centernet.c **** 
  82:../Middlewares/stm32-vision-models-postprocessing/lib_vision_models_pp/Src/od_pp_centernet.c **** int32_t centernet_pp_nmsFiltering_centroid(centernet_pp_tmp_outBuffer_t  *pInput,
  83:../Middlewares/stm32-vision-models-postprocessing/lib_vision_models_pp/Src/od_pp_centernet.c ****                                            od_pp_out_t  *pOutput,
  84:../Middlewares/stm32-vision-models-postprocessing/lib_vision_models_pp/Src/od_pp_centernet.c ****                                            od_centernet_pp_static_param_t *pInput_static_param)
  85:../Middlewares/stm32-vision-models-postprocessing/lib_vision_models_pp/Src/od_pp_centernet.c **** {
 199              		.loc 1 85 1 is_stmt 1 view -0
 200              		.cfi_startproc
 201              		@ args = 0, pretend = 0, frame = 16
 202              		@ frame_needed = 0, uses_anonymous_args = 0
  86:../Middlewares/stm32-vision-models-postprocessing/lib_vision_models_pp/Src/od_pp_centernet.c ****     int32_t i, j, k, limit_counter;
 203              		.loc 1 86 5 view .LVU47
  87:../Middlewares/stm32-vision-models-postprocessing/lib_vision_models_pp/Src/od_pp_centernet.c ****     int32_t error   = AI_VISION_MODELS_PP_ERROR_NO;
 204              		.loc 1 87 5 view .LVU48
  88:../Middlewares/stm32-vision-models-postprocessing/lib_vision_models_pp/Src/od_pp_centernet.c ****     int32_t det_count = 0;
 205              		.loc 1 88 5 view .LVU49
  89:../Middlewares/stm32-vision-models-postprocessing/lib_vision_models_pp/Src/od_pp_centernet.c ****     int32_t conf_stride = sizeof(od_pp_outBuffer_t);
 206              		.loc 1 89 5 view .LVU50
  90:../Middlewares/stm32-vision-models-postprocessing/lib_vision_models_pp/Src/od_pp_centernet.c ****     centernet_pp_tmp_outBuffer_t *pInbuff = (centernet_pp_tmp_outBuffer_t *)pInput;
 207              		.loc 1 90 5 view .LVU51
  85:../Middlewares/stm32-vision-models-postprocessing/lib_vision_models_pp/Src/od_pp_centernet.c ****     int32_t i, j, k, limit_counter;
 208              		.loc 1 85 1 is_stmt 0 view .LVU52
 209 0000 2DE9F04F 		push	{r4, r5, r6, r7, r8, r9, r10, fp, lr}
 210              		.cfi_def_cfa_offset 36
 211              		.cfi_offset 4, -36
 212              		.cfi_offset 5, -32
 213              		.cfi_offset 6, -28
 214              		.cfi_offset 7, -24
 215              		.cfi_offset 8, -20
 216              		.cfi_offset 9, -16
 217              		.cfi_offset 10, -12
 218              		.cfi_offset 11, -8
 219              		.cfi_offset 14, -4
 220 0004 1546     		mov	r5, r2
 221 0006 85B0     		sub	sp, sp, #20
 222              		.cfi_def_cfa_offset 56
  91:../Middlewares/stm32-vision-models-postprocessing/lib_vision_models_pp/Src/od_pp_centernet.c ****     od_pp_outBuffer_t *pOutbuff = (od_pp_outBuffer_t *)pOutput->pOutBuff;
 223              		.loc 1 91 24 view .LVU53
 224 0008 0C68     		ldr	r4, [r1]
  92:../Middlewares/stm32-vision-models-postprocessing/lib_vision_models_pp/Src/od_pp_centernet.c **** 
  93:../Middlewares/stm32-vision-models-postprocessing/lib_vision_models_pp/Src/od_pp_centernet.c ****     /* First sorts by confidence scores */
  94:../Middlewares/stm32-vision-models-postprocessing/lib_vision_models_pp/Src/od_pp_centernet.c ****     qsort((float32_t *)pInbuff,
 225              		.loc 1 94 5 view .LVU54
 226 000a 594B     		ldr	r3, .L31
  85:../Middlewares/stm32-vision-models-postprocessing/lib_vision_models_pp/Src/od_pp_centernet.c ****     int32_t i, j, k, limit_counter;
 227              		.loc 1 85 1 view .LVU55
 228 000c 0291     		str	r1, [sp, #8]
 229              		.loc 1 94 5 view .LVU56
 230 000e 1822     		movs	r2, #24
ARM GAS  /tmp/ccXy3KAt.s 			page 7


 231              	.LVL16:
 232              		.loc 1 94 5 view .LVU57
 233 0010 E969     		ldr	r1, [r5, #28]
 234              	.LVL17:
  85:../Middlewares/stm32-vision-models-postprocessing/lib_vision_models_pp/Src/od_pp_centernet.c ****     int32_t i, j, k, limit_counter;
 235              		.loc 1 85 1 view .LVU58
 236 0012 8346     		mov	fp, r0
 237              	.LVL18:
  91:../Middlewares/stm32-vision-models-postprocessing/lib_vision_models_pp/Src/od_pp_centernet.c ****     od_pp_outBuffer_t *pOutbuff = (od_pp_outBuffer_t *)pOutput->pOutBuff;
 238              		.loc 1 91 5 is_stmt 1 view .LVU59
 239              		.loc 1 94 5 view .LVU60
 240 0014 FFF7FEFF 		bl	qsort
 241              	.LVL19:
  95:../Middlewares/stm32-vision-models-postprocessing/lib_vision_models_pp/Src/od_pp_centernet.c ****            pInput_static_param->nb_detect,
  96:../Middlewares/stm32-vision-models-postprocessing/lib_vision_models_pp/Src/od_pp_centernet.c ****            conf_stride,
  97:../Middlewares/stm32-vision-models-postprocessing/lib_vision_models_pp/Src/od_pp_centernet.c ****            (_Cmpfun *)centernet_nms_comparator);
  98:../Middlewares/stm32-vision-models-postprocessing/lib_vision_models_pp/Src/od_pp_centernet.c **** 
  99:../Middlewares/stm32-vision-models-postprocessing/lib_vision_models_pp/Src/od_pp_centernet.c ****     /* Applies NMS per class */
 100:../Middlewares/stm32-vision-models-postprocessing/lib_vision_models_pp/Src/od_pp_centernet.c ****     for (k = 0; k < pInput_static_param->nb_classifs; ++k)
 242              		.loc 1 100 5 view .LVU61
 243              		.loc 1 100 40 is_stmt 0 discriminator 1 view .LVU62
 244 0018 2B68     		ldr	r3, [r5]
 245 001a 4FF0000A 		mov	r10, #0
 246 001e 0393     		str	r3, [sp, #12]
  88:../Middlewares/stm32-vision-models-postprocessing/lib_vision_models_pp/Src/od_pp_centernet.c ****     int32_t conf_stride = sizeof(od_pp_outBuffer_t);
 247              		.loc 1 88 13 view .LVU63
 248 0020 0023     		movs	r3, #0
 101:../Middlewares/stm32-vision-models-postprocessing/lib_vision_models_pp/Src/od_pp_centernet.c ****     {
 102:../Middlewares/stm32-vision-models-postprocessing/lib_vision_models_pp/Src/od_pp_centernet.c ****         limit_counter = 0;
 103:../Middlewares/stm32-vision-models-postprocessing/lib_vision_models_pp/Src/od_pp_centernet.c **** 
 104:../Middlewares/stm32-vision-models-postprocessing/lib_vision_models_pp/Src/od_pp_centernet.c ****         pInbuff = (centernet_pp_tmp_outBuffer_t *)pInput;
 105:../Middlewares/stm32-vision-models-postprocessing/lib_vision_models_pp/Src/od_pp_centernet.c ****         for (i = 0; i < pInput_static_param->nb_detect; i++, pInbuff++)
 106:../Middlewares/stm32-vision-models-postprocessing/lib_vision_models_pp/Src/od_pp_centernet.c ****         {
 107:../Middlewares/stm32-vision-models-postprocessing/lib_vision_models_pp/Src/od_pp_centernet.c ****             if (pInbuff->class_index != k) continue;
 108:../Middlewares/stm32-vision-models-postprocessing/lib_vision_models_pp/Src/od_pp_centernet.c ****             centernet_pp_tmp_outBuffer_t *pInbuff_2 = (pInbuff + 1);
 109:../Middlewares/stm32-vision-models-postprocessing/lib_vision_models_pp/Src/od_pp_centernet.c ****             for (j = i + 1; j < pInput_static_param->nb_detect; j++, pInbuff_2++)
 110:../Middlewares/stm32-vision-models-postprocessing/lib_vision_models_pp/Src/od_pp_centernet.c ****             {
 111:../Middlewares/stm32-vision-models-postprocessing/lib_vision_models_pp/Src/od_pp_centernet.c ****                 if (pInbuff_2->class_index != k) continue;
 112:../Middlewares/stm32-vision-models-postprocessing/lib_vision_models_pp/Src/od_pp_centernet.c ****                 if (centernet_box_iou(pInbuff, pInbuff_2) > pInput_static_param->iou_threshold)
 113:../Middlewares/stm32-vision-models-postprocessing/lib_vision_models_pp/Src/od_pp_centernet.c ****                 {
 114:../Middlewares/stm32-vision-models-postprocessing/lib_vision_models_pp/Src/od_pp_centernet.c ****                     pInbuff->conf = 0;
 115:../Middlewares/stm32-vision-models-postprocessing/lib_vision_models_pp/Src/od_pp_centernet.c ****                 }
 116:../Middlewares/stm32-vision-models-postprocessing/lib_vision_models_pp/Src/od_pp_centernet.c ****             }
 117:../Middlewares/stm32-vision-models-postprocessing/lib_vision_models_pp/Src/od_pp_centernet.c ****         }
 118:../Middlewares/stm32-vision-models-postprocessing/lib_vision_models_pp/Src/od_pp_centernet.c **** 
 119:../Middlewares/stm32-vision-models-postprocessing/lib_vision_models_pp/Src/od_pp_centernet.c ****         pInbuff = (centernet_pp_tmp_outBuffer_t *)pInput;
 120:../Middlewares/stm32-vision-models-postprocessing/lib_vision_models_pp/Src/od_pp_centernet.c ****         for (i = 0; i <= pInput_static_param->nb_detect; i++, pInbuff++)
 121:../Middlewares/stm32-vision-models-postprocessing/lib_vision_models_pp/Src/od_pp_centernet.c ****         {
 122:../Middlewares/stm32-vision-models-postprocessing/lib_vision_models_pp/Src/od_pp_centernet.c ****             if (pInbuff->class_index != k) continue;
 123:../Middlewares/stm32-vision-models-postprocessing/lib_vision_models_pp/Src/od_pp_centernet.c ****             if ((limit_counter < pInput_static_param->max_boxes_limit) &&
 124:../Middlewares/stm32-vision-models-postprocessing/lib_vision_models_pp/Src/od_pp_centernet.c ****                 (pInbuff->conf != 0))
 125:../Middlewares/stm32-vision-models-postprocessing/lib_vision_models_pp/Src/od_pp_centernet.c ****             {
 126:../Middlewares/stm32-vision-models-postprocessing/lib_vision_models_pp/Src/od_pp_centernet.c ****                 limit_counter++;
 127:../Middlewares/stm32-vision-models-postprocessing/lib_vision_models_pp/Src/od_pp_centernet.c ****                 det_count++;
 128:../Middlewares/stm32-vision-models-postprocessing/lib_vision_models_pp/Src/od_pp_centernet.c ****                 pOutbuff->x_center    = (pInbuff->top_left_x     + pInbuff->bottom_right_x) / 2.0f;
 249              		.loc 1 128 93 view .LVU64
 250 0022 F6EE005A 		vmov.f32	s11, #5.0e-1
ARM GAS  /tmp/ccXy3KAt.s 			page 8


  88:../Middlewares/stm32-vision-models-postprocessing/lib_vision_models_pp/Src/od_pp_centernet.c ****     int32_t conf_stride = sizeof(od_pp_outBuffer_t);
 251              		.loc 1 88 13 view .LVU65
 252 0026 0193     		str	r3, [sp, #4]
 253              	.LVL20:
 254              	.L11:
 100:../Middlewares/stm32-vision-models-postprocessing/lib_vision_models_pp/Src/od_pp_centernet.c ****     {
 255              		.loc 1 100 19 is_stmt 1 discriminator 1 view .LVU66
 256 0028 039A     		ldr	r2, [sp, #12]
 257 002a 9A42     		cmp	r2, r3
 258 002c 40F39980 		ble	.L25
 104:../Middlewares/stm32-vision-models-postprocessing/lib_vision_models_pp/Src/od_pp_centernet.c ****         for (i = 0; i < pInput_static_param->nb_detect; i++, pInbuff++)
 259              		.loc 1 104 17 is_stmt 0 view .LVU67
 260 0030 5846     		mov	r0, fp
 105:../Middlewares/stm32-vision-models-postprocessing/lib_vision_models_pp/Src/od_pp_centernet.c ****         {
 261              		.loc 1 105 16 view .LVU68
 262 0032 0027     		movs	r7, #0
 105:../Middlewares/stm32-vision-models-postprocessing/lib_vision_models_pp/Src/od_pp_centernet.c ****         {
 263              		.loc 1 105 44 discriminator 1 view .LVU69
 264 0034 D5F81C80 		ldr	r8, [r5, #28]
 265 0038 07E0     		b	.L13
 266              	.LVL21:
 267              	.L19:
 268              	.LBB21:
 107:../Middlewares/stm32-vision-models-postprocessing/lib_vision_models_pp/Src/od_pp_centernet.c ****             centernet_pp_tmp_outBuffer_t *pInbuff_2 = (pInbuff + 1);
 269              		.loc 1 107 13 is_stmt 1 view .LVU70
 107:../Middlewares/stm32-vision-models-postprocessing/lib_vision_models_pp/Src/od_pp_centernet.c ****             centernet_pp_tmp_outBuffer_t *pInbuff_2 = (pInbuff + 1);
 270              		.loc 1 107 16 is_stmt 0 view .LVU71
 271 003a 4169     		ldr	r1, [r0, #20]
 108:../Middlewares/stm32-vision-models-postprocessing/lib_vision_models_pp/Src/od_pp_centernet.c ****             for (j = i + 1; j < pInput_static_param->nb_detect; j++, pInbuff_2++)
 272              		.loc 1 108 43 view .LVU72
 273 003c 00F11802 		add	r2, r0, #24
 107:../Middlewares/stm32-vision-models-postprocessing/lib_vision_models_pp/Src/od_pp_centernet.c ****             centernet_pp_tmp_outBuffer_t *pInbuff_2 = (pInbuff + 1);
 274              		.loc 1 107 16 view .LVU73
 275 0040 9942     		cmp	r1, r3
 109:../Middlewares/stm32-vision-models-postprocessing/lib_vision_models_pp/Src/od_pp_centernet.c ****             {
 276              		.loc 1 109 20 view .LVU74
 277 0042 07F10107 		add	r7, r7, #1
 278              	.LVL22:
 107:../Middlewares/stm32-vision-models-postprocessing/lib_vision_models_pp/Src/od_pp_centernet.c ****             centernet_pp_tmp_outBuffer_t *pInbuff_2 = (pInbuff + 1);
 279              		.loc 1 107 16 view .LVU75
 280 0046 52D0     		beq	.L26
 281              	.L18:
 107:../Middlewares/stm32-vision-models-postprocessing/lib_vision_models_pp/Src/od_pp_centernet.c ****             centernet_pp_tmp_outBuffer_t *pInbuff_2 = (pInbuff + 1);
 282              		.loc 1 107 16 view .LVU76
 283              	.LBE21:
 105:../Middlewares/stm32-vision-models-postprocessing/lib_vision_models_pp/Src/od_pp_centernet.c ****         {
 284              		.loc 1 105 60 is_stmt 1 discriminator 2 view .LVU77
 285              	.LVL23:
 105:../Middlewares/stm32-vision-models-postprocessing/lib_vision_models_pp/Src/od_pp_centernet.c ****         {
 286              		.loc 1 105 69 is_stmt 0 discriminator 2 view .LVU78
 287 0048 1046     		mov	r0, r2
 288              	.LVL24:
 289              	.L13:
 105:../Middlewares/stm32-vision-models-postprocessing/lib_vision_models_pp/Src/od_pp_centernet.c ****         {
 290              		.loc 1 105 23 is_stmt 1 discriminator 1 view .LVU79
 291 004a B845     		cmp	r8, r7
 292 004c F5DC     		bgt	.L19
ARM GAS  /tmp/ccXy3KAt.s 			page 9


 293 004e 18F1010F 		cmn	r8, #1
 102:../Middlewares/stm32-vision-models-postprocessing/lib_vision_models_pp/Src/od_pp_centernet.c **** 
 294              		.loc 1 102 23 is_stmt 0 view .LVU80
 295 0052 4FF00007 		mov	r7, #0
 296              	.LVL25:
 102:../Middlewares/stm32-vision-models-postprocessing/lib_vision_models_pp/Src/od_pp_centernet.c **** 
 297              		.loc 1 102 23 view .LVU81
 298 0056 0BF11802 		add	r2, fp, #24
 299              		.loc 1 128 93 view .LVU82
 300 005a 08F10200 		add	r0, r8, #2
 301              	.LVL26:
 302              		.loc 1 128 93 view .LVU83
 303 005e 00D5     		bpl	.L20
 304 0060 0120     		movs	r0, #1
 305              	.LVL27:
 306              	.L20:
 120:../Middlewares/stm32-vision-models-postprocessing/lib_vision_models_pp/Src/od_pp_centernet.c ****         {
 307              		.loc 1 120 23 is_stmt 1 discriminator 1 view .LVU84
 308 0062 0138     		subs	r0, r0, #1
 309 0064 46D1     		bne	.L24
 100:../Middlewares/stm32-vision-models-postprocessing/lib_vision_models_pp/Src/od_pp_centernet.c ****     {
 310              		.loc 1 100 55 discriminator 2 view .LVU85
 311 0066 0133     		adds	r3, r3, #1
 312              	.LVL28:
 100:../Middlewares/stm32-vision-models-postprocessing/lib_vision_models_pp/Src/od_pp_centernet.c ****     {
 313              		.loc 1 100 55 is_stmt 0 discriminator 2 view .LVU86
 314 0068 DEE7     		b	.L11
 315              	.LVL29:
 316              	.L17:
 317              	.LBB28:
 111:../Middlewares/stm32-vision-models-postprocessing/lib_vision_models_pp/Src/od_pp_centernet.c ****                 if (centernet_box_iou(pInbuff, pInbuff_2) > pInput_static_param->iou_threshold)
 318              		.loc 1 111 17 is_stmt 1 view .LVU87
 111:../Middlewares/stm32-vision-models-postprocessing/lib_vision_models_pp/Src/od_pp_centernet.c ****                 if (centernet_box_iou(pInbuff, pInbuff_2) > pInput_static_param->iou_threshold)
 319              		.loc 1 111 20 is_stmt 0 view .LVU88
 320 006a 4E69     		ldr	r6, [r1, #20]
 321 006c 9E42     		cmp	r6, r3
 322 006e 38D1     		bne	.L14
 112:../Middlewares/stm32-vision-models-postprocessing/lib_vision_models_pp/Src/od_pp_centernet.c ****                 {
 323              		.loc 1 112 17 is_stmt 1 view .LVU89
 324              	.LVL30:
 325              	.LBB22:
 326              	.LBI22:
  57:../Middlewares/stm32-vision-models-postprocessing/lib_vision_models_pp/Src/od_pp_centernet.c **** {
 327              		.loc 1 57 11 view .LVU90
 328              	.LBB23:
  60:../Middlewares/stm32-vision-models-postprocessing/lib_vision_models_pp/Src/od_pp_centernet.c ****     float32_t U = centernet_box_union(a, b);
 329              		.loc 1 60 5 view .LVU91
  60:../Middlewares/stm32-vision-models-postprocessing/lib_vision_models_pp/Src/od_pp_centernet.c ****     float32_t U = centernet_box_union(a, b);
 330              		.loc 1 60 19 is_stmt 0 view .LVU92
 331 0070 FFF7FEFF 		bl	centernet_box_intersection
 332              	.LVL31:
  61:../Middlewares/stm32-vision-models-postprocessing/lib_vision_models_pp/Src/od_pp_centernet.c ****     if (I == 0 || U == 0) {
 333              		.loc 1 61 5 is_stmt 1 view .LVU93
 334              	.LBB24:
 335              	.LBI24:
  47:../Middlewares/stm32-vision-models-postprocessing/lib_vision_models_pp/Src/od_pp_centernet.c **** {
 336              		.loc 1 47 11 view .LVU94
ARM GAS  /tmp/ccXy3KAt.s 			page 10


 337              	.LBB25:
  49:../Middlewares/stm32-vision-models-postprocessing/lib_vision_models_pp/Src/od_pp_centernet.c ****     float32_t u = (a->bottom_right_x - a->top_left_x) * (a->bottom_right_y - a->top_left_y) +
 338              		.loc 1 49 5 view .LVU95
  50:../Middlewares/stm32-vision-models-postprocessing/lib_vision_models_pp/Src/od_pp_centernet.c ****                   (b->bottom_right_x - b->top_left_x) * (b->bottom_right_y - b->top_left_y) -
 339              		.loc 1 50 5 view .LVU96
  53:../Middlewares/stm32-vision-models-postprocessing/lib_vision_models_pp/Src/od_pp_centernet.c **** }
 340              		.loc 1 53 5 view .LVU97
  53:../Middlewares/stm32-vision-models-postprocessing/lib_vision_models_pp/Src/od_pp_centernet.c **** }
 341              		.loc 1 53 5 is_stmt 0 view .LVU98
 342              	.LBE25:
 343              	.LBE24:
  62:../Middlewares/stm32-vision-models-postprocessing/lib_vision_models_pp/Src/od_pp_centernet.c ****         return 0;
 344              		.loc 1 62 5 is_stmt 1 view .LVU99
  62:../Middlewares/stm32-vision-models-postprocessing/lib_vision_models_pp/Src/od_pp_centernet.c ****         return 0;
 345              		.loc 1 62 8 is_stmt 0 view .LVU100
 346 0074 B5EE400A 		vcmp.f32	s0, #0
 347 0078 F1EE10FA 		vmrs	APSR_nzcv, FPSCR
  63:../Middlewares/stm32-vision-models-postprocessing/lib_vision_models_pp/Src/od_pp_centernet.c ****     }
 348              		.loc 1 63 16 view .LVU101
 349 007c 07EE10AA 		vmov	s14, r10
  62:../Middlewares/stm32-vision-models-postprocessing/lib_vision_models_pp/Src/od_pp_centernet.c ****         return 0;
 350              		.loc 1 62 8 view .LVU102
 351 0080 26D0     		beq	.L15
 352              	.LBB27:
 353              	.LBB26:
  51:../Middlewares/stm32-vision-models-postprocessing/lib_vision_models_pp/Src/od_pp_centernet.c ****                   i;
 354              		.loc 1 51 38 view .LVU103
 355 0082 D1ED007A 		vldr.32	s15, [r1]
 356 0086 D1ED026A 		vldr.32	s13, [r1, #8]
  51:../Middlewares/stm32-vision-models-postprocessing/lib_vision_models_pp/Src/od_pp_centernet.c ****                   i;
 357              		.loc 1 51 76 view .LVU104
 358 008a 91ED037A 		vldr.32	s14, [r1, #12]
  51:../Middlewares/stm32-vision-models-postprocessing/lib_vision_models_pp/Src/od_pp_centernet.c ****                   i;
 359              		.loc 1 51 38 view .LVU105
 360 008e 76EEE76A 		vsub.f32	s13, s13, s15
  51:../Middlewares/stm32-vision-models-postprocessing/lib_vision_models_pp/Src/od_pp_centernet.c ****                   i;
 361              		.loc 1 51 76 view .LVU106
 362 0092 D1ED017A 		vldr.32	s15, [r1, #4]
  50:../Middlewares/stm32-vision-models-postprocessing/lib_vision_models_pp/Src/od_pp_centernet.c ****                   (b->bottom_right_x - b->top_left_x) * (b->bottom_right_y - b->top_left_y) -
 363              		.loc 1 50 38 view .LVU107
 364 0096 12ED066A 		vldr.32	s12, [r2, #-24]
  51:../Middlewares/stm32-vision-models-postprocessing/lib_vision_models_pp/Src/od_pp_centernet.c ****                   i;
 365              		.loc 1 51 76 view .LVU108
 366 009a 37EE677A 		vsub.f32	s14, s14, s15
  50:../Middlewares/stm32-vision-models-postprocessing/lib_vision_models_pp/Src/od_pp_centernet.c ****                   (b->bottom_right_x - b->top_left_x) * (b->bottom_right_y - b->top_left_y) -
 367              		.loc 1 50 38 view .LVU109
 368 009e 52ED047A 		vldr.32	s15, [r2, #-16]
  50:../Middlewares/stm32-vision-models-postprocessing/lib_vision_models_pp/Src/od_pp_centernet.c ****                   (b->bottom_right_x - b->top_left_x) * (b->bottom_right_y - b->top_left_y) -
 369              		.loc 1 50 76 view .LVU110
 370 00a2 12ED055A 		vldr.32	s10, [r2, #-20]
  50:../Middlewares/stm32-vision-models-postprocessing/lib_vision_models_pp/Src/od_pp_centernet.c ****                   (b->bottom_right_x - b->top_left_x) * (b->bottom_right_y - b->top_left_y) -
 371              		.loc 1 50 38 view .LVU111
 372 00a6 77EEC67A 		vsub.f32	s15, s15, s12
  50:../Middlewares/stm32-vision-models-postprocessing/lib_vision_models_pp/Src/od_pp_centernet.c ****                   (b->bottom_right_x - b->top_left_x) * (b->bottom_right_y - b->top_left_y) -
 373              		.loc 1 50 76 view .LVU112
 374 00aa 12ED036A 		vldr.32	s12, [r2, #-12]
 375 00ae 36EE456A 		vsub.f32	s12, s12, s10
ARM GAS  /tmp/ccXy3KAt.s 			page 11


  50:../Middlewares/stm32-vision-models-postprocessing/lib_vision_models_pp/Src/od_pp_centernet.c ****                   (b->bottom_right_x - b->top_left_x) * (b->bottom_right_y - b->top_left_y) -
 376              		.loc 1 50 55 view .LVU113
 377 00b2 67EE867A 		vmul.f32	s15, s15, s12
  50:../Middlewares/stm32-vision-models-postprocessing/lib_vision_models_pp/Src/od_pp_centernet.c ****                   (b->bottom_right_x - b->top_left_x) * (b->bottom_right_y - b->top_left_y) -
 378              		.loc 1 50 93 view .LVU114
 379 00b6 E6EE877A 		vfma.f32	s15, s13, s14
  50:../Middlewares/stm32-vision-models-postprocessing/lib_vision_models_pp/Src/od_pp_centernet.c ****                   (b->bottom_right_x - b->top_left_x) * (b->bottom_right_y - b->top_left_y) -
 380              		.loc 1 50 15 view .LVU115
 381 00ba 77EEC07A 		vsub.f32	s15, s15, s0
 382              	.LBE26:
 383              	.LBE27:
  62:../Middlewares/stm32-vision-models-postprocessing/lib_vision_models_pp/Src/od_pp_centernet.c ****         return 0;
 384              		.loc 1 62 16 discriminator 1 view .LVU116
 385 00be F5EE407A 		vcmp.f32	s15, #0
 386 00c2 F1EE10FA 		vmrs	APSR_nzcv, FPSCR
  65:../Middlewares/stm32-vision-models-postprocessing/lib_vision_models_pp/Src/od_pp_centernet.c **** }
 387              		.loc 1 65 5 is_stmt 1 view .LVU117
  63:../Middlewares/stm32-vision-models-postprocessing/lib_vision_models_pp/Src/od_pp_centernet.c ****     }
 388              		.loc 1 63 16 is_stmt 0 view .LVU118
 389 00c6 07EE10AA 		vmov	s14, r10
  65:../Middlewares/stm32-vision-models-postprocessing/lib_vision_models_pp/Src/od_pp_centernet.c **** }
 390              		.loc 1 65 15 view .LVU119
 391 00ca 18BF     		it	ne
 392 00cc 80EE277A 		vdivne.f32	s14, s0, s15
 393              	.L15:
 394              	.LVL32:
  65:../Middlewares/stm32-vision-models-postprocessing/lib_vision_models_pp/Src/od_pp_centernet.c **** }
 395              		.loc 1 65 15 view .LVU120
 396              	.LBE23:
 397              	.LBE22:
 112:../Middlewares/stm32-vision-models-postprocessing/lib_vision_models_pp/Src/od_pp_centernet.c ****                 {
 398              		.loc 1 112 20 discriminator 1 view .LVU121
 399 00d0 D5ED057A 		vldr.32	s15, [r5, #20]
 400 00d4 F4EEC77A 		vcmpe.f32	s15, s14
 401 00d8 F1EE10FA 		vmrs	APSR_nzcv, FPSCR
 114:../Middlewares/stm32-vision-models-postprocessing/lib_vision_models_pp/Src/od_pp_centernet.c ****                 }
 402              		.loc 1 114 21 is_stmt 1 view .LVU122
 114:../Middlewares/stm32-vision-models-postprocessing/lib_vision_models_pp/Src/od_pp_centernet.c ****                 }
 403              		.loc 1 114 35 is_stmt 0 view .LVU123
 404 00dc 48BF     		it	mi
 405 00de 42F808AC 		strmi	r10, [r2, #-8]	@ float
 406              	.L14:
 109:../Middlewares/stm32-vision-models-postprocessing/lib_vision_models_pp/Src/od_pp_centernet.c ****             {
 407              		.loc 1 109 68 is_stmt 1 discriminator 2 view .LVU124
 109:../Middlewares/stm32-vision-models-postprocessing/lib_vision_models_pp/Src/od_pp_centernet.c ****             {
 408              		.loc 1 109 66 is_stmt 0 discriminator 2 view .LVU125
 409 00e2 09F10109 		add	r9, r9, #1
 410              	.LVL33:
 109:../Middlewares/stm32-vision-models-postprocessing/lib_vision_models_pp/Src/od_pp_centernet.c ****             {
 411              		.loc 1 109 79 discriminator 2 view .LVU126
 412 00e6 1831     		adds	r1, r1, #24
 413              	.LVL34:
 414              	.L12:
 109:../Middlewares/stm32-vision-models-postprocessing/lib_vision_models_pp/Src/od_pp_centernet.c ****             {
 415              		.loc 1 109 31 is_stmt 1 discriminator 1 view .LVU127
 416 00e8 C845     		cmp	r8, r9
 417 00ea BED1     		bne	.L17
ARM GAS  /tmp/ccXy3KAt.s 			page 12


 418 00ec ACE7     		b	.L18
 419              	.LVL35:
 420              	.L26:
 108:../Middlewares/stm32-vision-models-postprocessing/lib_vision_models_pp/Src/od_pp_centernet.c ****             for (j = i + 1; j < pInput_static_param->nb_detect; j++, pInbuff_2++)
 421              		.loc 1 108 43 is_stmt 0 view .LVU128
 422 00ee 1146     		mov	r1, r2
 109:../Middlewares/stm32-vision-models-postprocessing/lib_vision_models_pp/Src/od_pp_centernet.c ****             {
 423              		.loc 1 109 20 view .LVU129
 424 00f0 B946     		mov	r9, r7
 425 00f2 F9E7     		b	.L12
 426              	.LVL36:
 427              	.L24:
 109:../Middlewares/stm32-vision-models-postprocessing/lib_vision_models_pp/Src/od_pp_centernet.c ****             {
 428              		.loc 1 109 20 view .LVU130
 429              	.LBE28:
 122:../Middlewares/stm32-vision-models-postprocessing/lib_vision_models_pp/Src/od_pp_centernet.c ****             if ((limit_counter < pInput_static_param->max_boxes_limit) &&
 430              		.loc 1 122 13 is_stmt 1 view .LVU131
 122:../Middlewares/stm32-vision-models-postprocessing/lib_vision_models_pp/Src/od_pp_centernet.c ****             if ((limit_counter < pInput_static_param->max_boxes_limit) &&
 431              		.loc 1 122 16 is_stmt 0 view .LVU132
 432 00f4 52F8041C 		ldr	r1, [r2, #-4]
 433 00f8 9942     		cmp	r1, r3
 434 00fa 2DD1     		bne	.L23
 123:../Middlewares/stm32-vision-models-postprocessing/lib_vision_models_pp/Src/od_pp_centernet.c ****                 (pInbuff->conf != 0))
 435              		.loc 1 123 13 is_stmt 1 view .LVU133
 123:../Middlewares/stm32-vision-models-postprocessing/lib_vision_models_pp/Src/od_pp_centernet.c ****                 (pInbuff->conf != 0))
 436              		.loc 1 123 16 is_stmt 0 view .LVU134
 437 00fc E968     		ldr	r1, [r5, #12]
 438 00fe B942     		cmp	r1, r7
 439 0100 2CDD     		ble	.L22
 124:../Middlewares/stm32-vision-models-postprocessing/lib_vision_models_pp/Src/od_pp_centernet.c ****             {
 440              		.loc 1 124 25 view .LVU135
 441 0102 12ED026A 		vldr.32	s12, [r2, #-8]
 123:../Middlewares/stm32-vision-models-postprocessing/lib_vision_models_pp/Src/od_pp_centernet.c ****                 (pInbuff->conf != 0))
 442              		.loc 1 123 72 discriminator 1 view .LVU136
 443 0106 B5EE406A 		vcmp.f32	s12, #0
 444 010a F1EE10FA 		vmrs	APSR_nzcv, FPSCR
 445 010e 25D0     		beq	.L22
 126:../Middlewares/stm32-vision-models-postprocessing/lib_vision_models_pp/Src/od_pp_centernet.c ****                 det_count++;
 446              		.loc 1 126 17 is_stmt 1 view .LVU137
 447              		.loc 1 128 49 is_stmt 0 view .LVU138
 448 0110 52ED064A 		vldr.32	s9, [r2, #-24]
 449              		.loc 1 128 75 view .LVU139
 450 0114 12ED047A 		vldr.32	s14, [r2, #-16]
 451              		.loc 1 128 66 view .LVU140
 452 0118 74EE877A 		vadd.f32	s15, s9, s14
 453              		.loc 1 128 93 view .LVU141
 454 011c 67EEA57A 		vmul.f32	s15, s15, s11
 455              		.loc 1 128 39 view .LVU142
 456 0120 C4ED007A 		vstr.32	s15, [r4]
 129:../Middlewares/stm32-vision-models-postprocessing/lib_vision_models_pp/Src/od_pp_centernet.c ****                 pOutbuff->y_center    = (pInbuff->top_left_y     + pInbuff->bottom_right_y) / 2.0f;
 457              		.loc 1 129 49 view .LVU143
 458 0124 12ED055A 		vldr.32	s10, [r2, #-20]
 459              		.loc 1 129 75 view .LVU144
 460 0128 52ED037A 		vldr.32	s15, [r2, #-12]
 461              		.loc 1 129 66 view .LVU145
 462 012c 75EE276A 		vadd.f32	s13, s10, s15
 130:../Middlewares/stm32-vision-models-postprocessing/lib_vision_models_pp/Src/od_pp_centernet.c ****                 pOutbuff->width       = (pInbuff->bottom_right_x - pInbuff->top_left_x);
ARM GAS  /tmp/ccXy3KAt.s 			page 13


 463              		.loc 1 130 66 view .LVU146
 464 0130 37EE647A 		vsub.f32	s14, s14, s9
 129:../Middlewares/stm32-vision-models-postprocessing/lib_vision_models_pp/Src/od_pp_centernet.c ****                 pOutbuff->y_center    = (pInbuff->top_left_y     + pInbuff->bottom_right_y) / 2.0f;
 465              		.loc 1 129 93 view .LVU147
 466 0134 66EEA56A 		vmul.f32	s13, s13, s11
 131:../Middlewares/stm32-vision-models-postprocessing/lib_vision_models_pp/Src/od_pp_centernet.c ****                 pOutbuff->height      = (pInbuff->bottom_right_y - pInbuff->top_left_y);
 467              		.loc 1 131 66 view .LVU148
 468 0138 77EEC57A 		vsub.f32	s15, s15, s10
 127:../Middlewares/stm32-vision-models-postprocessing/lib_vision_models_pp/Src/od_pp_centernet.c ****                 pOutbuff->x_center    = (pInbuff->top_left_x     + pInbuff->bottom_right_x) / 2.0f;
 469              		.loc 1 127 26 view .LVU149
 470 013c 0199     		ldr	r1, [sp, #4]
 129:../Middlewares/stm32-vision-models-postprocessing/lib_vision_models_pp/Src/od_pp_centernet.c ****                 pOutbuff->width       = (pInbuff->bottom_right_x - pInbuff->top_left_x);
 471              		.loc 1 129 39 view .LVU150
 472 013e C4ED016A 		vstr.32	s13, [r4, #4]
 127:../Middlewares/stm32-vision-models-postprocessing/lib_vision_models_pp/Src/od_pp_centernet.c ****                 pOutbuff->x_center    = (pInbuff->top_left_x     + pInbuff->bottom_right_x) / 2.0f;
 473              		.loc 1 127 26 view .LVU151
 474 0142 0131     		adds	r1, r1, #1
 130:../Middlewares/stm32-vision-models-postprocessing/lib_vision_models_pp/Src/od_pp_centernet.c ****                 pOutbuff->height      = (pInbuff->bottom_right_y - pInbuff->top_left_y);
 475              		.loc 1 130 39 view .LVU152
 476 0144 84ED027A 		vstr.32	s14, [r4, #8]
 477              		.loc 1 131 39 view .LVU153
 478 0148 C4ED037A 		vstr.32	s15, [r4, #12]
 132:../Middlewares/stm32-vision-models-postprocessing/lib_vision_models_pp/Src/od_pp_centernet.c ****                 pOutbuff->conf        = pInbuff->conf;
 479              		.loc 1 132 39 view .LVU154
 480 014c 84ED046A 		vstr.32	s12, [r4, #16]
 133:../Middlewares/stm32-vision-models-postprocessing/lib_vision_models_pp/Src/od_pp_centernet.c ****                 pOutbuff->class_index = pInbuff->class_index;
 481              		.loc 1 133 39 view .LVU155
 482 0150 6361     		str	r3, [r4, #20]
 126:../Middlewares/stm32-vision-models-postprocessing/lib_vision_models_pp/Src/od_pp_centernet.c ****                 det_count++;
 483              		.loc 1 126 30 view .LVU156
 484 0152 0137     		adds	r7, r7, #1
 485              	.LVL37:
 127:../Middlewares/stm32-vision-models-postprocessing/lib_vision_models_pp/Src/od_pp_centernet.c ****                 pOutbuff->x_center    = (pInbuff->top_left_x     + pInbuff->bottom_right_x) / 2.0f;
 486              		.loc 1 127 17 is_stmt 1 view .LVU157
 127:../Middlewares/stm32-vision-models-postprocessing/lib_vision_models_pp/Src/od_pp_centernet.c ****                 pOutbuff->x_center    = (pInbuff->top_left_x     + pInbuff->bottom_right_x) / 2.0f;
 487              		.loc 1 127 26 is_stmt 0 view .LVU158
 488 0154 0191     		str	r1, [sp, #4]
 489              	.LVL38:
 128:../Middlewares/stm32-vision-models-postprocessing/lib_vision_models_pp/Src/od_pp_centernet.c ****                 pOutbuff->y_center    = (pInbuff->top_left_y     + pInbuff->bottom_right_y) / 2.0f;
 490              		.loc 1 128 17 is_stmt 1 view .LVU159
 129:../Middlewares/stm32-vision-models-postprocessing/lib_vision_models_pp/Src/od_pp_centernet.c ****                 pOutbuff->width       = (pInbuff->bottom_right_x - pInbuff->top_left_x);
 491              		.loc 1 129 17 view .LVU160
 130:../Middlewares/stm32-vision-models-postprocessing/lib_vision_models_pp/Src/od_pp_centernet.c ****                 pOutbuff->height      = (pInbuff->bottom_right_y - pInbuff->top_left_y);
 492              		.loc 1 130 17 view .LVU161
 131:../Middlewares/stm32-vision-models-postprocessing/lib_vision_models_pp/Src/od_pp_centernet.c ****                 pOutbuff->conf        = pInbuff->conf;
 493              		.loc 1 131 17 view .LVU162
 132:../Middlewares/stm32-vision-models-postprocessing/lib_vision_models_pp/Src/od_pp_centernet.c ****                 pOutbuff->class_index = pInbuff->class_index;
 494              		.loc 1 132 17 view .LVU163
 495              		.loc 1 133 17 view .LVU164
 134:../Middlewares/stm32-vision-models-postprocessing/lib_vision_models_pp/Src/od_pp_centernet.c ****                 pOutbuff++;
 496              		.loc 1 134 17 view .LVU165
 497              		.loc 1 134 25 is_stmt 0 view .LVU166
 498 0156 1834     		adds	r4, r4, #24
 499              	.LVL39:
 500              	.L23:
 120:../Middlewares/stm32-vision-models-postprocessing/lib_vision_models_pp/Src/od_pp_centernet.c ****         {
 501              		.loc 1 120 61 is_stmt 1 discriminator 2 view .LVU167
ARM GAS  /tmp/ccXy3KAt.s 			page 14


 120:../Middlewares/stm32-vision-models-postprocessing/lib_vision_models_pp/Src/od_pp_centernet.c ****         {
 502              		.loc 1 120 61 is_stmt 0 discriminator 2 view .LVU168
 503 0158 1832     		adds	r2, r2, #24
 504              	.LVL40:
 120:../Middlewares/stm32-vision-models-postprocessing/lib_vision_models_pp/Src/od_pp_centernet.c ****         {
 505              		.loc 1 120 61 discriminator 2 view .LVU169
 506 015a 82E7     		b	.L20
 507              	.L22:
 135:../Middlewares/stm32-vision-models-postprocessing/lib_vision_models_pp/Src/od_pp_centernet.c ****             }
 136:../Middlewares/stm32-vision-models-postprocessing/lib_vision_models_pp/Src/od_pp_centernet.c ****             else
 137:../Middlewares/stm32-vision-models-postprocessing/lib_vision_models_pp/Src/od_pp_centernet.c ****             {
 138:../Middlewares/stm32-vision-models-postprocessing/lib_vision_models_pp/Src/od_pp_centernet.c ****                 pInbuff->conf = 0;
 508              		.loc 1 138 17 is_stmt 1 view .LVU170
 509              		.loc 1 138 31 is_stmt 0 view .LVU171
 510 015c 42F808AC 		str	r10, [r2, #-8]	@ float
 511 0160 FAE7     		b	.L23
 512              	.LVL41:
 513              	.L25:
 139:../Middlewares/stm32-vision-models-postprocessing/lib_vision_models_pp/Src/od_pp_centernet.c ****             }
 140:../Middlewares/stm32-vision-models-postprocessing/lib_vision_models_pp/Src/od_pp_centernet.c ****         }
 141:../Middlewares/stm32-vision-models-postprocessing/lib_vision_models_pp/Src/od_pp_centernet.c ****     }
 142:../Middlewares/stm32-vision-models-postprocessing/lib_vision_models_pp/Src/od_pp_centernet.c **** 
 143:../Middlewares/stm32-vision-models-postprocessing/lib_vision_models_pp/Src/od_pp_centernet.c ****     pOutput->nb_detect = det_count;
 514              		.loc 1 143 5 is_stmt 1 view .LVU172
 144:../Middlewares/stm32-vision-models-postprocessing/lib_vision_models_pp/Src/od_pp_centernet.c ****     return (error);
 145:../Middlewares/stm32-vision-models-postprocessing/lib_vision_models_pp/Src/od_pp_centernet.c **** }
 515              		.loc 1 145 1 is_stmt 0 view .LVU173
 516 0162 0020     		movs	r0, #0
 143:../Middlewares/stm32-vision-models-postprocessing/lib_vision_models_pp/Src/od_pp_centernet.c ****     return (error);
 517              		.loc 1 143 24 view .LVU174
 518 0164 DDE90123 		ldrd	r2, r3, [sp, #4]
 519              	.LVL42:
 143:../Middlewares/stm32-vision-models-postprocessing/lib_vision_models_pp/Src/od_pp_centernet.c ****     return (error);
 520              		.loc 1 143 24 view .LVU175
 521 0168 5A60     		str	r2, [r3, #4]
 144:../Middlewares/stm32-vision-models-postprocessing/lib_vision_models_pp/Src/od_pp_centernet.c ****     return (error);
 522              		.loc 1 144 5 is_stmt 1 view .LVU176
 523              		.loc 1 145 1 is_stmt 0 view .LVU177
 524 016a 05B0     		add	sp, sp, #20
 525              		.cfi_def_cfa_offset 36
 526              		@ sp needed
 527 016c BDE8F08F 		pop	{r4, r5, r6, r7, r8, r9, r10, fp, pc}
 528              	.LVL43:
 529              	.L32:
 530              		.loc 1 145 1 view .LVU178
 531              		.align	2
 532              	.L31:
 533 0170 00000000 		.word	centernet_nms_comparator
 534              		.cfi_endproc
 535              	.LFE779:
 537              		.section	.text.centernet_pp_getNNBoxes_centroid,"ax",%progbits
 538              		.align	1
 539              		.global	centernet_pp_getNNBoxes_centroid
 540              		.syntax unified
 541              		.thumb
 542              		.thumb_func
 544              	centernet_pp_getNNBoxes_centroid:
ARM GAS  /tmp/ccXy3KAt.s 			page 15


 545              	.LVL44:
 546              	.LFB780:
 146:../Middlewares/stm32-vision-models-postprocessing/lib_vision_models_pp/Src/od_pp_centernet.c **** 
 147:../Middlewares/stm32-vision-models-postprocessing/lib_vision_models_pp/Src/od_pp_centernet.c **** 
 148:../Middlewares/stm32-vision-models-postprocessing/lib_vision_models_pp/Src/od_pp_centernet.c **** int32_t centernet_pp_getNNBoxes_centroid(od_centernet_pp_in_t *pInput,
 149:../Middlewares/stm32-vision-models-postprocessing/lib_vision_models_pp/Src/od_pp_centernet.c ****                                          od_centernet_pp_static_param_t *pInput_static_param)
 150:../Middlewares/stm32-vision-models-postprocessing/lib_vision_models_pp/Src/od_pp_centernet.c **** {
 547              		.loc 1 150 1 is_stmt 1 view -0
 548              		.cfi_startproc
 549              		@ args = 0, pretend = 0, frame = 88
 550              		@ frame_needed = 0, uses_anonymous_args = 0
 151:../Middlewares/stm32-vision-models-postprocessing/lib_vision_models_pp/Src/od_pp_centernet.c ****     int32_t error   = AI_VISION_MODELS_PP_ERROR_NO;
 551              		.loc 1 151 5 view .LVU180
 152:../Middlewares/stm32-vision-models-postprocessing/lib_vision_models_pp/Src/od_pp_centernet.c **** 
 153:../Middlewares/stm32-vision-models-postprocessing/lib_vision_models_pp/Src/od_pp_centernet.c ****     int32_t count_detect                  = 0;
 552              		.loc 1 153 5 view .LVU181
 154:../Middlewares/stm32-vision-models-postprocessing/lib_vision_models_pp/Src/od_pp_centernet.c ****     float32_t score_center                = 0;
 553              		.loc 1 154 5 view .LVU182
 155:../Middlewares/stm32-vision-models-postprocessing/lib_vision_models_pp/Src/od_pp_centernet.c ****     float32_t grid_width_inv              = 1.0f / pInput_static_param->grid_width;
 554              		.loc 1 155 5 view .LVU183
 150:../Middlewares/stm32-vision-models-postprocessing/lib_vision_models_pp/Src/od_pp_centernet.c ****     int32_t error   = AI_VISION_MODELS_PP_ERROR_NO;
 555              		.loc 1 150 1 is_stmt 0 view .LVU184
 556 0000 2DE9F04F 		push	{r4, r5, r6, r7, r8, r9, r10, fp, lr}
 557              		.cfi_def_cfa_offset 36
 558              		.cfi_offset 4, -36
 559              		.cfi_offset 5, -32
 560              		.cfi_offset 6, -28
 561              		.cfi_offset 7, -24
 562              		.cfi_offset 8, -20
 563              		.cfi_offset 9, -16
 564              		.cfi_offset 10, -12
 565              		.cfi_offset 11, -8
 566              		.cfi_offset 14, -4
 567              		.loc 1 155 71 view .LVU185
 568 0004 4C68     		ldr	r4, [r1, #4]
 156:../Middlewares/stm32-vision-models-postprocessing/lib_vision_models_pp/Src/od_pp_centernet.c ****     float32_t grid_height_inv             = 1.0f / pInput_static_param->grid_height;
 569              		.loc 1 156 71 view .LVU186
 570 0006 8B68     		ldr	r3, [r1, #8]
 155:../Middlewares/stm32-vision-models-postprocessing/lib_vision_models_pp/Src/od_pp_centernet.c ****     float32_t grid_width_inv              = 1.0f / pInput_static_param->grid_width;
 571              		.loc 1 155 50 view .LVU187
 572 0008 07EE904A 		vmov	s15, r4	@ int
 573 000c B8EEE77A 		vcvt.f32.s32	s14, s15
 155:../Middlewares/stm32-vision-models-postprocessing/lib_vision_models_pp/Src/od_pp_centernet.c ****     float32_t grid_width_inv              = 1.0f / pInput_static_param->grid_width;
 574              		.loc 1 155 15 view .LVU188
 575 0010 F7EE007A 		vmov.f32	s15, #1.0e+0
 576 0014 87EE875A 		vdiv.f32	s10, s15, s14
 577              	.LVL45:
 578              		.loc 1 156 5 is_stmt 1 view .LVU189
 579              		.loc 1 156 50 is_stmt 0 view .LVU190
 580 0018 07EE103A 		vmov	s14, r3	@ int
 581 001c B8EEC77A 		vcvt.f32.s32	s14, s14
 150:../Middlewares/stm32-vision-models-postprocessing/lib_vision_models_pp/Src/od_pp_centernet.c ****     int32_t error   = AI_VISION_MODELS_PP_ERROR_NO;
 582              		.loc 1 150 1 view .LVU191
 583 0020 97B0     		sub	sp, sp, #92
 584              		.cfi_def_cfa_offset 128
 585              		.loc 1 156 71 view .LVU192
 586 0022 0B93     		str	r3, [sp, #44]
ARM GAS  /tmp/ccXy3KAt.s 			page 16


 157:../Middlewares/stm32-vision-models-postprocessing/lib_vision_models_pp/Src/od_pp_centernet.c ****     int32_t conf_stride_right             = (pInput_static_param->nb_classifs + AI_CENTERNET_PP_CLA
 587              		.loc 1 157 65 view .LVU193
 588 0024 0B68     		ldr	r3, [r1]
 158:../Middlewares/stm32-vision-models-postprocessing/lib_vision_models_pp/Src/od_pp_centernet.c ****     int32_t conf_stride_bottom            = conf_stride_right * pInput_static_param->grid_width;
 159:../Middlewares/stm32-vision-models-postprocessing/lib_vision_models_pp/Src/od_pp_centernet.c ****     centernet_pp_tmp_outBuffer_t *pOutput = (centernet_pp_tmp_outBuffer_t *)(pInput->pRaw_detection
 589              		.loc 1 159 35 view .LVU194
 590 0026 D0F80090 		ldr	r9, [r0]
 157:../Middlewares/stm32-vision-models-postprocessing/lib_vision_models_pp/Src/od_pp_centernet.c ****     int32_t conf_stride_right             = (pInput_static_param->nb_classifs + AI_CENTERNET_PP_CLA
 591              		.loc 1 157 13 view .LVU195
 592 002a 9A1D     		adds	r2, r3, #6
 157:../Middlewares/stm32-vision-models-postprocessing/lib_vision_models_pp/Src/od_pp_centernet.c ****     int32_t conf_stride_right             = (pInput_static_param->nb_classifs + AI_CENTERNET_PP_CLA
 593              		.loc 1 157 65 view .LVU196
 594 002c 0593     		str	r3, [sp, #20]
 160:../Middlewares/stm32-vision-models-postprocessing/lib_vision_models_pp/Src/od_pp_centernet.c **** 
 161:../Middlewares/stm32-vision-models-postprocessing/lib_vision_models_pp/Src/od_pp_centernet.c ****     float32_t *pConf_11     = (float32_t *)pInput->pRaw_detections + AI_CENTERNET_PP_CONFCENTER;
 162:../Middlewares/stm32-vision-models-postprocessing/lib_vision_models_pp/Src/od_pp_centernet.c ****     float32_t *pConf_12     = (float32_t *)pConf_11     + conf_stride_right;
 595              		.loc 1 162 16 view .LVU197
 596 002e 09EB8203 		add	r3, r9, r2, lsl #2
 597 0032 0693     		str	r3, [sp, #24]
 163:../Middlewares/stm32-vision-models-postprocessing/lib_vision_models_pp/Src/od_pp_centernet.c ****     float32_t *pConf_13     = (float32_t *)pConf_12     + conf_stride_right;
 598              		.loc 1 163 16 view .LVU198
 599 0034 09EBC203 		add	r3, r9, r2, lsl #3
 600 0038 0793     		str	r3, [sp, #28]
 158:../Middlewares/stm32-vision-models-postprocessing/lib_vision_models_pp/Src/od_pp_centernet.c ****     int32_t conf_stride_bottom            = conf_stride_right * pInput_static_param->grid_width;
 601              		.loc 1 158 13 view .LVU199
 602 003a 02FB04F3 		mul	r3, r2, r4
 150:../Middlewares/stm32-vision-models-postprocessing/lib_vision_models_pp/Src/od_pp_centernet.c ****     int32_t error   = AI_VISION_MODELS_PP_ERROR_NO;
 603              		.loc 1 150 1 view .LVU200
 604 003e 0391     		str	r1, [sp, #12]
 164:../Middlewares/stm32-vision-models-postprocessing/lib_vision_models_pp/Src/od_pp_centernet.c ****     float32_t *pConf_21     = (float32_t *)pConf_11     + conf_stride_bottom;
 605              		.loc 1 164 16 view .LVU201
 606 0040 09EB8301 		add	r1, r9, r3, lsl #2
 607              	.LVL46:
 608              		.loc 1 164 16 view .LVU202
 609 0044 0891     		str	r1, [sp, #32]
 165:../Middlewares/stm32-vision-models-postprocessing/lib_vision_models_pp/Src/od_pp_centernet.c **** 	  float32_t *pConf_center = (float32_t *)pConf_21     + conf_stride_right;
 610              		.loc 1 165 15 view .LVU203
 611 0046 01EB8201 		add	r1, r1, r2, lsl #2
 612 004a 0491     		str	r1, [sp, #16]
 166:../Middlewares/stm32-vision-models-postprocessing/lib_vision_models_pp/Src/od_pp_centernet.c ****     float32_t *pConf_23     = (float32_t *)pConf_center + conf_stride_right;
 167:../Middlewares/stm32-vision-models-postprocessing/lib_vision_models_pp/Src/od_pp_centernet.c ****     float32_t *pConf_31     = (float32_t *)pConf_21     + conf_stride_bottom;
 613              		.loc 1 167 16 view .LVU204
 614 004c 09EB8301 		add	r1, r9, r3, lsl #2
 164:../Middlewares/stm32-vision-models-postprocessing/lib_vision_models_pp/Src/od_pp_centernet.c **** 	  float32_t *pConf_center = (float32_t *)pConf_21     + conf_stride_right;
 615              		.loc 1 164 57 view .LVU205
 616 0050 9800     		lsls	r0, r3, #2
 617              	.LVL47:
 618              		.loc 1 167 16 view .LVU206
 619 0052 01EB8303 		add	r3, r1, r3, lsl #2
 620 0056 0293     		str	r3, [sp, #8]
 621 0058 D300     		lsls	r3, r2, #3
 622 005a 0193     		str	r3, [sp, #4]
 168:../Middlewares/stm32-vision-models-postprocessing/lib_vision_models_pp/Src/od_pp_centernet.c ****     float32_t *pConf_32     = (float32_t *)pConf_31     + conf_stride_right;
 169:../Middlewares/stm32-vision-models-postprocessing/lib_vision_models_pp/Src/od_pp_centernet.c ****     float32_t *pConf_33     = (float32_t *)pConf_32     + conf_stride_right;
 623              		.loc 1 169 16 view .LVU207
 624 005c 029B     		ldr	r3, [sp, #8]
 162:../Middlewares/stm32-vision-models-postprocessing/lib_vision_models_pp/Src/od_pp_centernet.c ****     float32_t *pConf_13     = (float32_t *)pConf_12     + conf_stride_right;
ARM GAS  /tmp/ccXy3KAt.s 			page 17


 625              		.loc 1 162 57 view .LVU208
 626 005e 4FEA820A 		lsl	r10, r2, #2
 627              		.loc 1 169 16 view .LVU209
 628 0062 03EBC203 		add	r3, r3, r2, lsl #3
 629 0066 0993     		str	r3, [sp, #36]
 170:../Middlewares/stm32-vision-models-postprocessing/lib_vision_models_pp/Src/od_pp_centernet.c **** 
 171:../Middlewares/stm32-vision-models-postprocessing/lib_vision_models_pp/Src/od_pp_centernet.c **** 	/* Maps centers first */
 172:../Middlewares/stm32-vision-models-postprocessing/lib_vision_models_pp/Src/od_pp_centernet.c **** 	if (pInput_static_param->optim == AI_OD_CENTERNET_PP_OPTIM_ACCURACY)
 630              		.loc 1 172 5 view .LVU210
 631 0068 039B     		ldr	r3, [sp, #12]
 156:../Middlewares/stm32-vision-models-postprocessing/lib_vision_models_pp/Src/od_pp_centernet.c ****     int32_t conf_stride_right             = (pInput_static_param->nb_classifs + AI_CENTERNET_PP_CLA
 632              		.loc 1 156 15 view .LVU211
 633 006a C7EE874A 		vdiv.f32	s9, s15, s14
 634              	.LVL48:
 157:../Middlewares/stm32-vision-models-postprocessing/lib_vision_models_pp/Src/od_pp_centernet.c ****     int32_t conf_stride_bottom            = conf_stride_right * pInput_static_param->grid_width;
 635              		.loc 1 157 5 is_stmt 1 view .LVU212
 158:../Middlewares/stm32-vision-models-postprocessing/lib_vision_models_pp/Src/od_pp_centernet.c ****     centernet_pp_tmp_outBuffer_t *pOutput = (centernet_pp_tmp_outBuffer_t *)(pInput->pRaw_detection
 636              		.loc 1 158 5 view .LVU213
 159:../Middlewares/stm32-vision-models-postprocessing/lib_vision_models_pp/Src/od_pp_centernet.c **** 
 637              		.loc 1 159 5 view .LVU214
 161:../Middlewares/stm32-vision-models-postprocessing/lib_vision_models_pp/Src/od_pp_centernet.c ****     float32_t *pConf_12     = (float32_t *)pConf_11     + conf_stride_right;
 638              		.loc 1 161 5 view .LVU215
 162:../Middlewares/stm32-vision-models-postprocessing/lib_vision_models_pp/Src/od_pp_centernet.c ****     float32_t *pConf_13     = (float32_t *)pConf_12     + conf_stride_right;
 639              		.loc 1 162 5 view .LVU216
 163:../Middlewares/stm32-vision-models-postprocessing/lib_vision_models_pp/Src/od_pp_centernet.c ****     float32_t *pConf_21     = (float32_t *)pConf_11     + conf_stride_bottom;
 640              		.loc 1 163 5 view .LVU217
 164:../Middlewares/stm32-vision-models-postprocessing/lib_vision_models_pp/Src/od_pp_centernet.c **** 	  float32_t *pConf_center = (float32_t *)pConf_21     + conf_stride_right;
 641              		.loc 1 164 5 view .LVU218
 165:../Middlewares/stm32-vision-models-postprocessing/lib_vision_models_pp/Src/od_pp_centernet.c ****     float32_t *pConf_23     = (float32_t *)pConf_center + conf_stride_right;
 642              		.loc 1 165 4 view .LVU219
 166:../Middlewares/stm32-vision-models-postprocessing/lib_vision_models_pp/Src/od_pp_centernet.c ****     float32_t *pConf_31     = (float32_t *)pConf_21     + conf_stride_bottom;
 643              		.loc 1 166 5 view .LVU220
 167:../Middlewares/stm32-vision-models-postprocessing/lib_vision_models_pp/Src/od_pp_centernet.c ****     float32_t *pConf_32     = (float32_t *)pConf_31     + conf_stride_right;
 644              		.loc 1 167 5 view .LVU221
 168:../Middlewares/stm32-vision-models-postprocessing/lib_vision_models_pp/Src/od_pp_centernet.c ****     float32_t *pConf_33     = (float32_t *)pConf_32     + conf_stride_right;
 645              		.loc 1 168 5 view .LVU222
 169:../Middlewares/stm32-vision-models-postprocessing/lib_vision_models_pp/Src/od_pp_centernet.c **** 
 646              		.loc 1 169 5 view .LVU223
 647              		.loc 1 172 2 view .LVU224
 648              		.loc 1 172 5 is_stmt 0 view .LVU225
 649 006e 1A7E     		ldrb	r2, [r3, #24]	@ zero_extendqisi2
 650              	.LVL49:
 651              		.loc 1 172 5 view .LVU226
 652 0070 012A     		cmp	r2, #1
 653 0072 26D1     		bne	.L34
 654              	.LBB29:
 173:../Middlewares/stm32-vision-models-postprocessing/lib_vision_models_pp/Src/od_pp_centernet.c **** 	{
 174:../Middlewares/stm32-vision-models-postprocessing/lib_vision_models_pp/Src/od_pp_centernet.c ****     /* Applies an inplace bilinear upsampling with ratio of 2 after virtual downsampling by 2 */
 175:../Middlewares/stm32-vision-models-postprocessing/lib_vision_models_pp/Src/od_pp_centernet.c ****     for (int32_t col = 0; col < pInput_static_param->grid_height/2 - 1; ++col)
 655              		.loc 1 175 65 discriminator 1 view .LVU227
 656 0074 0B9B     		ldr	r3, [sp, #44]
 657              	.LBB30:
 176:../Middlewares/stm32-vision-models-postprocessing/lib_vision_models_pp/Src/od_pp_centernet.c **** 	  {
 177:../Middlewares/stm32-vision-models-postprocessing/lib_vision_models_pp/Src/od_pp_centernet.c ****       for (int32_t row = 0; row < pInput_static_param->grid_width/2 - 1; ++row)
 658              		.loc 1 177 66 discriminator 1 view .LVU228
 659 0076 04EBD471 		add	r1, r4, r4, lsr #31
 660              	.LVL50:
ARM GAS  /tmp/ccXy3KAt.s 			page 18


 661              		.loc 1 177 66 discriminator 1 view .LVU229
 662              	.LBE30:
 175:../Middlewares/stm32-vision-models-postprocessing/lib_vision_models_pp/Src/od_pp_centernet.c **** 	  {
 663              		.loc 1 175 65 discriminator 1 view .LVU230
 664 007a 03EBD372 		add	r2, r3, r3, lsr #31
 665 007e 5210     		asrs	r2, r2, #1
 175:../Middlewares/stm32-vision-models-postprocessing/lib_vision_models_pp/Src/od_pp_centernet.c **** 	  {
 666              		.loc 1 175 68 discriminator 1 view .LVU231
 667 0080 531E     		subs	r3, r2, #1
 668              	.LBB31:
 669              		.loc 1 177 66 discriminator 1 view .LVU232
 670 0082 4910     		asrs	r1, r1, #1
 671              	.LBE31:
 175:../Middlewares/stm32-vision-models-postprocessing/lib_vision_models_pp/Src/od_pp_centernet.c **** 	  {
 672              		.loc 1 175 68 discriminator 1 view .LVU233
 673 0084 1593     		str	r3, [sp, #84]
 674              	.LBB32:
 675              		.loc 1 177 69 discriminator 1 view .LVU234
 676 0086 0139     		subs	r1, r1, #1
 677 0088 019B     		ldr	r3, [sp, #4]
 678 008a 21EAE172 		bic	r2, r1, r1, asr #31
 679 008e 5A43     		muls	r2, r3, r2
 680              	.LBE32:
 681              	.LBE29:
 169:../Middlewares/stm32-vision-models-postprocessing/lib_vision_models_pp/Src/od_pp_centernet.c **** 
 682              		.loc 1 169 16 view .LVU235
 683 0090 099B     		ldr	r3, [sp, #36]
 684              	.LBB37:
 685              	.LBB33:
 178:../Middlewares/stm32-vision-models-postprocessing/lib_vision_models_pp/Src/od_pp_centernet.c **** 		  {
 179:../Middlewares/stm32-vision-models-postprocessing/lib_vision_models_pp/Src/od_pp_centernet.c ****         *pConf_12 = *pConf_11 * 0.5f + *pConf_13 * 0.5f;
 686              		.loc 1 179 50 view .LVU236
 687 0092 B6EE007A 		vmov.f32	s14, #5.0e-1
 688              	.LBE33:
 689              	.LBE37:
 169:../Middlewares/stm32-vision-models-postprocessing/lib_vision_models_pp/Src/od_pp_centernet.c **** 
 690              		.loc 1 169 16 view .LVU237
 691 0096 1393     		str	r3, [sp, #76]
 167:../Middlewares/stm32-vision-models-postprocessing/lib_vision_models_pp/Src/od_pp_centernet.c ****     float32_t *pConf_32     = (float32_t *)pConf_31     + conf_stride_right;
 692              		.loc 1 167 16 view .LVU238
 693 0098 029B     		ldr	r3, [sp, #8]
 694              	.LBB38:
 695              	.LBB34:
 180:../Middlewares/stm32-vision-models-postprocessing/lib_vision_models_pp/Src/od_pp_centernet.c ****         *pConf_21 = *pConf_11 * 0.5f + *pConf_31 * 0.5f;
 181:../Middlewares/stm32-vision-models-postprocessing/lib_vision_models_pp/Src/od_pp_centernet.c ****         *pConf_center = *pConf_11 * 0.25f + *pConf_13 * 0.25f + *pConf_31 * 0.25f + *pConf_33 * 0.2
 696              		.loc 1 181 55 view .LVU239
 697 009a F5EE006A 		vmov.f32	s13, #2.5e-1
 698              	.LBE34:
 699              	.LBE38:
 167:../Middlewares/stm32-vision-models-postprocessing/lib_vision_models_pp/Src/od_pp_centernet.c ****     float32_t *pConf_32     = (float32_t *)pConf_31     + conf_stride_right;
 700              		.loc 1 167 16 view .LVU240
 701 009e 1293     		str	r3, [sp, #72]
 165:../Middlewares/stm32-vision-models-postprocessing/lib_vision_models_pp/Src/od_pp_centernet.c ****     float32_t *pConf_23     = (float32_t *)pConf_center + conf_stride_right;
 702              		.loc 1 165 15 view .LVU241
 703 00a0 049B     		ldr	r3, [sp, #16]
 162:../Middlewares/stm32-vision-models-postprocessing/lib_vision_models_pp/Src/od_pp_centernet.c ****     float32_t *pConf_13     = (float32_t *)pConf_12     + conf_stride_right;
 704              		.loc 1 162 16 view .LVU242
ARM GAS  /tmp/ccXy3KAt.s 			page 19


 705 00a2 DDF81880 		ldr	r8, [sp, #24]
 165:../Middlewares/stm32-vision-models-postprocessing/lib_vision_models_pp/Src/od_pp_centernet.c ****     float32_t *pConf_23     = (float32_t *)pConf_center + conf_stride_right;
 706              		.loc 1 165 15 view .LVU243
 707 00a6 1193     		str	r3, [sp, #68]
 164:../Middlewares/stm32-vision-models-postprocessing/lib_vision_models_pp/Src/od_pp_centernet.c **** 	  float32_t *pConf_center = (float32_t *)pConf_21     + conf_stride_right;
 708              		.loc 1 164 16 view .LVU244
 709 00a8 089B     		ldr	r3, [sp, #32]
 161:../Middlewares/stm32-vision-models-postprocessing/lib_vision_models_pp/Src/od_pp_centernet.c ****     float32_t *pConf_12     = (float32_t *)pConf_11     + conf_stride_right;
 710              		.loc 1 161 16 view .LVU245
 711 00aa CDF82890 		str	r9, [sp, #40]
 164:../Middlewares/stm32-vision-models-postprocessing/lib_vision_models_pp/Src/od_pp_centernet.c **** 	  float32_t *pConf_center = (float32_t *)pConf_21     + conf_stride_right;
 712              		.loc 1 164 16 view .LVU246
 713 00ae 0F93     		str	r3, [sp, #60]
 163:../Middlewares/stm32-vision-models-postprocessing/lib_vision_models_pp/Src/od_pp_centernet.c ****     float32_t *pConf_21     = (float32_t *)pConf_11     + conf_stride_bottom;
 714              		.loc 1 163 16 view .LVU247
 715 00b0 079B     		ldr	r3, [sp, #28]
 716 00b2 0D93     		str	r3, [sp, #52]
 717              	.LBB39:
 175:../Middlewares/stm32-vision-models-postprocessing/lib_vision_models_pp/Src/od_pp_centernet.c **** 	  {
 718              		.loc 1 175 18 view .LVU248
 719 00b4 0023     		movs	r3, #0
 720 00b6 1493     		str	r3, [sp, #80]
 721              	.LVL51:
 722              	.L35:
 175:../Middlewares/stm32-vision-models-postprocessing/lib_vision_models_pp/Src/od_pp_centernet.c **** 	  {
 723              		.loc 1 175 31 is_stmt 1 discriminator 1 view .LVU249
 724 00b8 DDE91463 		ldrd	r6, r3, [sp, #80]
 725 00bc B342     		cmp	r3, r6
 726 00be 00F38D80 		bgt	.L57
 727              	.LVL52:
 728              	.L34:
 175:../Middlewares/stm32-vision-models-postprocessing/lib_vision_models_pp/Src/od_pp_centernet.c **** 	  {
 729              		.loc 1 175 31 is_stmt 0 discriminator 1 view .LVU250
 730              	.LBE39:
 182:../Middlewares/stm32-vision-models-postprocessing/lib_vision_models_pp/Src/od_pp_centernet.c ****         pConf_11 += conf_stride_right * 2;
 183:../Middlewares/stm32-vision-models-postprocessing/lib_vision_models_pp/Src/od_pp_centernet.c ****         pConf_12 += conf_stride_right * 2;
 184:../Middlewares/stm32-vision-models-postprocessing/lib_vision_models_pp/Src/od_pp_centernet.c ****         pConf_13 += conf_stride_right * 2;
 185:../Middlewares/stm32-vision-models-postprocessing/lib_vision_models_pp/Src/od_pp_centernet.c ****         pConf_21 += conf_stride_right * 2;
 186:../Middlewares/stm32-vision-models-postprocessing/lib_vision_models_pp/Src/od_pp_centernet.c ****         pConf_center += conf_stride_right * 2;
 187:../Middlewares/stm32-vision-models-postprocessing/lib_vision_models_pp/Src/od_pp_centernet.c ****         pConf_31 += conf_stride_right * 2;
 188:../Middlewares/stm32-vision-models-postprocessing/lib_vision_models_pp/Src/od_pp_centernet.c ****         pConf_33 += conf_stride_right * 2;
 189:../Middlewares/stm32-vision-models-postprocessing/lib_vision_models_pp/Src/od_pp_centernet.c **** 			}
 190:../Middlewares/stm32-vision-models-postprocessing/lib_vision_models_pp/Src/od_pp_centernet.c **** 			pConf_11 += conf_stride_bottom;
 191:../Middlewares/stm32-vision-models-postprocessing/lib_vision_models_pp/Src/od_pp_centernet.c **** 			pConf_12 += conf_stride_bottom;
 192:../Middlewares/stm32-vision-models-postprocessing/lib_vision_models_pp/Src/od_pp_centernet.c **** 			pConf_13 += conf_stride_bottom;
 193:../Middlewares/stm32-vision-models-postprocessing/lib_vision_models_pp/Src/od_pp_centernet.c **** 			pConf_21 += conf_stride_bottom;
 194:../Middlewares/stm32-vision-models-postprocessing/lib_vision_models_pp/Src/od_pp_centernet.c **** 			pConf_center += conf_stride_bottom;
 195:../Middlewares/stm32-vision-models-postprocessing/lib_vision_models_pp/Src/od_pp_centernet.c **** 			pConf_31 += conf_stride_bottom;
 196:../Middlewares/stm32-vision-models-postprocessing/lib_vision_models_pp/Src/od_pp_centernet.c **** 			pConf_33 += conf_stride_bottom;
 197:../Middlewares/stm32-vision-models-postprocessing/lib_vision_models_pp/Src/od_pp_centernet.c **** 		}
 198:../Middlewares/stm32-vision-models-postprocessing/lib_vision_models_pp/Src/od_pp_centernet.c **** 	}
 199:../Middlewares/stm32-vision-models-postprocessing/lib_vision_models_pp/Src/od_pp_centernet.c **** 
 200:../Middlewares/stm32-vision-models-postprocessing/lib_vision_models_pp/Src/od_pp_centernet.c ****     /* Searches center detection everywhere but on the external border */
 201:../Middlewares/stm32-vision-models-postprocessing/lib_vision_models_pp/Src/od_pp_centernet.c ****     pConf_11 = (float32_t *)pInput->pRaw_detections + AI_CENTERNET_PP_CONFCENTER;
 731              		.loc 1 201 5 is_stmt 1 view .LVU251
 202:../Middlewares/stm32-vision-models-postprocessing/lib_vision_models_pp/Src/od_pp_centernet.c ****     pConf_12 = (float32_t *)pConf_11 + conf_stride_right;
 732              		.loc 1 202 5 view .LVU252
ARM GAS  /tmp/ccXy3KAt.s 			page 20


 203:../Middlewares/stm32-vision-models-postprocessing/lib_vision_models_pp/Src/od_pp_centernet.c ****     pConf_13 = (float32_t *)pConf_12 + conf_stride_right;
 733              		.loc 1 203 5 view .LVU253
 204:../Middlewares/stm32-vision-models-postprocessing/lib_vision_models_pp/Src/od_pp_centernet.c ****     pConf_21 = (float32_t *)pConf_11 + conf_stride_bottom;
 734              		.loc 1 204 5 view .LVU254
 205:../Middlewares/stm32-vision-models-postprocessing/lib_vision_models_pp/Src/od_pp_centernet.c **** 	  pConf_center = (float32_t *)pConf_21 + conf_stride_right;
 735              		.loc 1 205 4 view .LVU255
 206:../Middlewares/stm32-vision-models-postprocessing/lib_vision_models_pp/Src/od_pp_centernet.c ****     pConf_23 = (float32_t *)pConf_center + conf_stride_right;
 736              		.loc 1 206 5 view .LVU256
 737              		.loc 1 206 14 is_stmt 0 view .LVU257
 738 00c2 049B     		ldr	r3, [sp, #16]
 739 00c4 012C     		cmp	r4, #1
 740 00c6 5344     		add	r3, r3, r10
 741 00c8 0F93     		str	r3, [sp, #60]
 742              	.LVL53:
 207:../Middlewares/stm32-vision-models-postprocessing/lib_vision_models_pp/Src/od_pp_centernet.c ****     pConf_31 = (float32_t *)pConf_21 + conf_stride_bottom;
 743              		.loc 1 207 5 is_stmt 1 view .LVU258
 208:../Middlewares/stm32-vision-models-postprocessing/lib_vision_models_pp/Src/od_pp_centernet.c ****     pConf_32 = (float32_t *)pConf_31 + conf_stride_right;
 744              		.loc 1 208 5 view .LVU259
 745              		.loc 1 208 14 is_stmt 0 view .LVU260
 746 00ca 029B     		ldr	r3, [sp, #8]
 747              	.LVL54:
 748              		.loc 1 208 14 view .LVU261
 749 00cc A4F10202 		sub	r2, r4, #2
 750 00d0 03EB0A00 		add	r0, r3, r10
 751              	.LVL55:
 209:../Middlewares/stm32-vision-models-postprocessing/lib_vision_models_pp/Src/od_pp_centernet.c ****     pConf_33 = (float32_t *)pConf_32 + conf_stride_right;
 752              		.loc 1 209 5 is_stmt 1 view .LVU262
 210:../Middlewares/stm32-vision-models-postprocessing/lib_vision_models_pp/Src/od_pp_centernet.c ****     for (int32_t col = 1; col < pInput_static_param->grid_height - 1; ++col)
 753              		.loc 1 210 5 view .LVU263
 754              	.LBB40:
 755              		.loc 1 210 10 view .LVU264
 756              		.loc 1 210 18 is_stmt 0 view .LVU265
 757 00d4 4FF00103 		mov	r3, #1
 758 00d8 0A93     		str	r3, [sp, #40]
 759              	.LBE40:
 153:../Middlewares/stm32-vision-models-postprocessing/lib_vision_models_pp/Src/od_pp_centernet.c ****     float32_t score_center                = 0;
 760              		.loc 1 153 13 view .LVU266
 761 00da 4FF00003 		mov	r3, #0
 762 00de D8BF     		it	le
 763 00e0 0022     		movle	r2, #0
 764 00e2 0C93     		str	r3, [sp, #48]
 765              	.LBB54:
 766              		.loc 1 210 66 discriminator 1 view .LVU267
 767 00e4 0B9B     		ldr	r3, [sp, #44]
 768 00e6 0AFB02F2 		mul	r2, r10, r2
 769 00ea 013B     		subs	r3, r3, #1
 770 00ec 1393     		str	r3, [sp, #76]
 771              	.LBB41:
 211:../Middlewares/stm32-vision-models-postprocessing/lib_vision_models_pp/Src/od_pp_centernet.c ****     {
 212:../Middlewares/stm32-vision-models-postprocessing/lib_vision_models_pp/Src/od_pp_centernet.c ****         for (int32_t row = 1; row < pInput_static_param->grid_width - 1; ++row)
 772              		.loc 1 212 69 discriminator 1 view .LVU268
 773 00ee 631E     		subs	r3, r4, #1
 774              	.LBE41:
 775              	.LBE54:
 201:../Middlewares/stm32-vision-models-postprocessing/lib_vision_models_pp/Src/od_pp_centernet.c ****     pConf_12 = (float32_t *)pConf_11 + conf_stride_right;
 776              		.loc 1 201 14 view .LVU269
 777 00f0 CDF83490 		str	r9, [sp, #52]
ARM GAS  /tmp/ccXy3KAt.s 			page 21


 778              	.LBB55:
 779              	.LBB49:
 780              		.loc 1 212 69 discriminator 1 view .LVU270
 781 00f4 1493     		str	r3, [sp, #80]
 782              	.LVL56:
 783              	.L38:
 784              		.loc 1 212 69 discriminator 1 view .LVU271
 785              	.LBE49:
 210:../Middlewares/stm32-vision-models-postprocessing/lib_vision_models_pp/Src/od_pp_centernet.c ****     {
 786              		.loc 1 210 31 is_stmt 1 discriminator 1 view .LVU272
 787 00f6 139B     		ldr	r3, [sp, #76]
 788 00f8 0A99     		ldr	r1, [sp, #40]
 789 00fa 8B42     		cmp	r3, r1
 790 00fc 40F36F81 		ble	.L55
 210:../Middlewares/stm32-vision-models-postprocessing/lib_vision_models_pp/Src/od_pp_centernet.c ****     {
 791              		.loc 1 210 31 is_stmt 0 discriminator 1 view .LVU273
 792 0100 049B     		ldr	r3, [sp, #16]
 793 0102 8446     		mov	ip, r0
 794 0104 03F11801 		add	r1, r3, #24
 795 0108 DDE90735 		ldrd	r3, r5, [sp, #28]
 796 010c 0E93     		str	r3, [sp, #56]
 797              	.LBB50:
 798              		.loc 1 212 22 view .LVU274
 799 010e 0123     		movs	r3, #1
 800              	.LBE50:
 210:../Middlewares/stm32-vision-models-postprocessing/lib_vision_models_pp/Src/od_pp_centernet.c ****     {
 801              		.loc 1 210 31 discriminator 1 view .LVU275
 802 0110 DDF824E0 		ldr	lr, [sp, #36]
 803 0114 029F     		ldr	r7, [sp, #8]
 804 0116 0F9E     		ldr	r6, [sp, #60]
 805 0118 DDF818B0 		ldr	fp, [sp, #24]
 806 011c DDF83480 		ldr	r8, [sp, #52]
 807              	.LBB51:
 808              		.loc 1 212 22 view .LVU276
 809 0120 0B93     		str	r3, [sp, #44]
 810 0122 16E1     		b	.L56
 811              	.LVL57:
 812              	.L36:
 813              		.loc 1 212 22 view .LVU277
 814              	.LBE51:
 815              	.LBE55:
 816              	.LBB56:
 817              	.LBB35:
 179:../Middlewares/stm32-vision-models-postprocessing/lib_vision_models_pp/Src/od_pp_centernet.c ****         *pConf_21 = *pConf_11 * 0.5f + *pConf_31 * 0.5f;
 818              		.loc 1 179 9 is_stmt 1 view .LVU278
 179:../Middlewares/stm32-vision-models-postprocessing/lib_vision_models_pp/Src/od_pp_centernet.c ****         *pConf_21 = *pConf_11 * 0.5f + *pConf_31 * 0.5f;
 819              		.loc 1 179 50 is_stmt 0 view .LVU279
 820 0124 D7ED007A 		vldr.32	s15, [r7]
 179:../Middlewares/stm32-vision-models-postprocessing/lib_vision_models_pp/Src/od_pp_centernet.c ****         *pConf_21 = *pConf_11 * 0.5f + *pConf_31 * 0.5f;
 821              		.loc 1 179 38 view .LVU280
 822 0128 96ED006A 		vldr.32	s12, [r6]
 179:../Middlewares/stm32-vision-models-postprocessing/lib_vision_models_pp/Src/od_pp_centernet.c ****         *pConf_21 = *pConf_11 * 0.5f + *pConf_31 * 0.5f;
 823              		.loc 1 179 50 view .LVU281
 824 012c 67EE877A 		vmul.f32	s15, s15, s14
 179:../Middlewares/stm32-vision-models-postprocessing/lib_vision_models_pp/Src/od_pp_centernet.c ****         *pConf_21 = *pConf_11 * 0.5f + *pConf_31 * 0.5f;
 825              		.loc 1 179 38 view .LVU282
 826 0130 E6EE077A 		vfma.f32	s15, s12, s14
ARM GAS  /tmp/ccXy3KAt.s 			page 22


 179:../Middlewares/stm32-vision-models-postprocessing/lib_vision_models_pp/Src/od_pp_centernet.c ****         *pConf_21 = *pConf_11 * 0.5f + *pConf_31 * 0.5f;
 827              		.loc 1 179 19 view .LVU283
 828 0134 0C9B     		ldr	r3, [sp, #48]
 183:../Middlewares/stm32-vision-models-postprocessing/lib_vision_models_pp/Src/od_pp_centernet.c ****         pConf_13 += conf_stride_right * 2;
 829              		.loc 1 183 18 view .LVU284
 830 0136 019D     		ldr	r5, [sp, #4]
 179:../Middlewares/stm32-vision-models-postprocessing/lib_vision_models_pp/Src/od_pp_centernet.c ****         *pConf_21 = *pConf_11 * 0.5f + *pConf_31 * 0.5f;
 831              		.loc 1 179 19 view .LVU285
 832 0138 C3ED007A 		vstr.32	s15, [r3]
 180:../Middlewares/stm32-vision-models-postprocessing/lib_vision_models_pp/Src/od_pp_centernet.c ****         *pConf_center = *pConf_11 * 0.25f + *pConf_13 * 0.25f + *pConf_31 * 0.25f + *pConf_33 * 0.2
 833              		.loc 1 180 9 is_stmt 1 view .LVU286
 180:../Middlewares/stm32-vision-models-postprocessing/lib_vision_models_pp/Src/od_pp_centernet.c ****         *pConf_center = *pConf_11 * 0.25f + *pConf_13 * 0.25f + *pConf_31 * 0.25f + *pConf_33 * 0.2
 834              		.loc 1 180 50 is_stmt 0 view .LVU287
 835 013c DCED007A 		vldr.32	s15, [ip]
 180:../Middlewares/stm32-vision-models-postprocessing/lib_vision_models_pp/Src/od_pp_centernet.c ****         *pConf_center = *pConf_11 * 0.25f + *pConf_13 * 0.25f + *pConf_31 * 0.25f + *pConf_33 * 0.2
 836              		.loc 1 180 38 view .LVU288
 837 0140 96ED006A 		vldr.32	s12, [r6]
 180:../Middlewares/stm32-vision-models-postprocessing/lib_vision_models_pp/Src/od_pp_centernet.c ****         *pConf_center = *pConf_11 * 0.25f + *pConf_13 * 0.25f + *pConf_31 * 0.25f + *pConf_33 * 0.2
 838              		.loc 1 180 50 view .LVU289
 839 0144 67EE877A 		vmul.f32	s15, s15, s14
 180:../Middlewares/stm32-vision-models-postprocessing/lib_vision_models_pp/Src/od_pp_centernet.c ****         *pConf_center = *pConf_11 * 0.25f + *pConf_13 * 0.25f + *pConf_31 * 0.25f + *pConf_33 * 0.2
 840              		.loc 1 180 38 view .LVU290
 841 0148 E6EE077A 		vfma.f32	s15, s12, s14
 180:../Middlewares/stm32-vision-models-postprocessing/lib_vision_models_pp/Src/od_pp_centernet.c ****         *pConf_center = *pConf_11 * 0.25f + *pConf_13 * 0.25f + *pConf_31 * 0.25f + *pConf_33 * 0.2
 842              		.loc 1 180 19 view .LVU291
 843 014c 0E9B     		ldr	r3, [sp, #56]
 844 014e C3ED007A 		vstr.32	s15, [r3]
 181:../Middlewares/stm32-vision-models-postprocessing/lib_vision_models_pp/Src/od_pp_centernet.c ****         pConf_11 += conf_stride_right * 2;
 845              		.loc 1 181 9 is_stmt 1 view .LVU292
 181:../Middlewares/stm32-vision-models-postprocessing/lib_vision_models_pp/Src/od_pp_centernet.c ****         pConf_11 += conf_stride_right * 2;
 846              		.loc 1 181 55 is_stmt 0 view .LVU293
 847 0152 D7ED007A 		vldr.32	s15, [r7]
 181:../Middlewares/stm32-vision-models-postprocessing/lib_vision_models_pp/Src/od_pp_centernet.c ****         pConf_11 += conf_stride_right * 2;
 848              		.loc 1 181 43 view .LVU294
 849 0156 96ED006A 		vldr.32	s12, [r6]
 181:../Middlewares/stm32-vision-models-postprocessing/lib_vision_models_pp/Src/od_pp_centernet.c ****         pConf_11 += conf_stride_right * 2;
 850              		.loc 1 181 55 view .LVU295
 851 015a 67EEA67A 		vmul.f32	s15, s15, s13
 181:../Middlewares/stm32-vision-models-postprocessing/lib_vision_models_pp/Src/od_pp_centernet.c ****         pConf_11 += conf_stride_right * 2;
 852              		.loc 1 181 43 view .LVU296
 853 015e E6EE267A 		vfma.f32	s15, s12, s13
 181:../Middlewares/stm32-vision-models-postprocessing/lib_vision_models_pp/Src/od_pp_centernet.c ****         pConf_11 += conf_stride_right * 2;
 854              		.loc 1 181 63 view .LVU297
 855 0162 9CED006A 		vldr.32	s12, [ip]
 856 0166 E6EE267A 		vfma.f32	s15, s12, s13
 181:../Middlewares/stm32-vision-models-postprocessing/lib_vision_models_pp/Src/od_pp_centernet.c ****         pConf_11 += conf_stride_right * 2;
 857              		.loc 1 181 83 view .LVU298
 858 016a 9BED006A 		vldr.32	s12, [fp]
 859 016e E6EE267A 		vfma.f32	s15, s12, s13
 181:../Middlewares/stm32-vision-models-postprocessing/lib_vision_models_pp/Src/od_pp_centernet.c ****         pConf_11 += conf_stride_right * 2;
 860              		.loc 1 181 23 view .LVU299
 861 0172 109B     		ldr	r3, [sp, #64]
 184:../Middlewares/stm32-vision-models-postprocessing/lib_vision_models_pp/Src/od_pp_centernet.c ****         pConf_21 += conf_stride_right * 2;
 862              		.loc 1 184 18 view .LVU300
 863 0174 2F44     		add	r7, r7, r5
 864              	.LVL58:
 181:../Middlewares/stm32-vision-models-postprocessing/lib_vision_models_pp/Src/od_pp_centernet.c ****         pConf_11 += conf_stride_right * 2;
ARM GAS  /tmp/ccXy3KAt.s 			page 23


 865              		.loc 1 181 23 view .LVU301
 866 0176 C3ED007A 		vstr.32	s15, [r3]
 182:../Middlewares/stm32-vision-models-postprocessing/lib_vision_models_pp/Src/od_pp_centernet.c ****         pConf_12 += conf_stride_right * 2;
 867              		.loc 1 182 9 is_stmt 1 view .LVU302
 182:../Middlewares/stm32-vision-models-postprocessing/lib_vision_models_pp/Src/od_pp_centernet.c ****         pConf_12 += conf_stride_right * 2;
 868              		.loc 1 182 18 is_stmt 0 view .LVU303
 869 017a 019B     		ldr	r3, [sp, #4]
 187:../Middlewares/stm32-vision-models-postprocessing/lib_vision_models_pp/Src/od_pp_centernet.c ****         pConf_33 += conf_stride_right * 2;
 870              		.loc 1 187 18 view .LVU304
 871 017c AC44     		add	ip, ip, r5
 872              	.LVL59:
 182:../Middlewares/stm32-vision-models-postprocessing/lib_vision_models_pp/Src/od_pp_centernet.c ****         pConf_12 += conf_stride_right * 2;
 873              		.loc 1 182 18 view .LVU305
 874 017e 1E44     		add	r6, r6, r3
 875              	.LVL60:
 183:../Middlewares/stm32-vision-models-postprocessing/lib_vision_models_pp/Src/od_pp_centernet.c ****         pConf_13 += conf_stride_right * 2;
 876              		.loc 1 183 9 is_stmt 1 view .LVU306
 183:../Middlewares/stm32-vision-models-postprocessing/lib_vision_models_pp/Src/od_pp_centernet.c ****         pConf_13 += conf_stride_right * 2;
 877              		.loc 1 183 18 is_stmt 0 view .LVU307
 878 0180 0C9B     		ldr	r3, [sp, #48]
 188:../Middlewares/stm32-vision-models-postprocessing/lib_vision_models_pp/Src/od_pp_centernet.c **** 			}
 879              		.loc 1 188 18 view .LVU308
 880 0182 AB44     		add	fp, fp, r5
 881              	.LVL61:
 183:../Middlewares/stm32-vision-models-postprocessing/lib_vision_models_pp/Src/od_pp_centernet.c ****         pConf_13 += conf_stride_right * 2;
 882              		.loc 1 183 18 view .LVU309
 883 0184 2B44     		add	r3, r3, r5
 884 0186 0C93     		str	r3, [sp, #48]
 885              	.LVL62:
 184:../Middlewares/stm32-vision-models-postprocessing/lib_vision_models_pp/Src/od_pp_centernet.c ****         pConf_21 += conf_stride_right * 2;
 886              		.loc 1 184 9 is_stmt 1 view .LVU310
 185:../Middlewares/stm32-vision-models-postprocessing/lib_vision_models_pp/Src/od_pp_centernet.c ****         pConf_center += conf_stride_right * 2;
 887              		.loc 1 185 9 view .LVU311
 185:../Middlewares/stm32-vision-models-postprocessing/lib_vision_models_pp/Src/od_pp_centernet.c ****         pConf_center += conf_stride_right * 2;
 888              		.loc 1 185 18 is_stmt 0 view .LVU312
 889 0188 0E9B     		ldr	r3, [sp, #56]
 890              	.LVL63:
 185:../Middlewares/stm32-vision-models-postprocessing/lib_vision_models_pp/Src/od_pp_centernet.c ****         pConf_center += conf_stride_right * 2;
 891              		.loc 1 185 18 view .LVU313
 892 018a 2B44     		add	r3, r3, r5
 893 018c 0E93     		str	r3, [sp, #56]
 894              	.LVL64:
 186:../Middlewares/stm32-vision-models-postprocessing/lib_vision_models_pp/Src/od_pp_centernet.c ****         pConf_31 += conf_stride_right * 2;
 895              		.loc 1 186 9 is_stmt 1 view .LVU314
 186:../Middlewares/stm32-vision-models-postprocessing/lib_vision_models_pp/Src/od_pp_centernet.c ****         pConf_31 += conf_stride_right * 2;
 896              		.loc 1 186 22 is_stmt 0 view .LVU315
 897 018e 109B     		ldr	r3, [sp, #64]
 898              	.LVL65:
 186:../Middlewares/stm32-vision-models-postprocessing/lib_vision_models_pp/Src/od_pp_centernet.c ****         pConf_31 += conf_stride_right * 2;
 899              		.loc 1 186 22 view .LVU316
 900 0190 2B44     		add	r3, r3, r5
 901 0192 1093     		str	r3, [sp, #64]
 902              	.LVL66:
 187:../Middlewares/stm32-vision-models-postprocessing/lib_vision_models_pp/Src/od_pp_centernet.c ****         pConf_33 += conf_stride_right * 2;
 903              		.loc 1 187 9 is_stmt 1 view .LVU317
 188:../Middlewares/stm32-vision-models-postprocessing/lib_vision_models_pp/Src/od_pp_centernet.c **** 			}
 904              		.loc 1 188 9 view .LVU318
ARM GAS  /tmp/ccXy3KAt.s 			page 24


 177:../Middlewares/stm32-vision-models-postprocessing/lib_vision_models_pp/Src/od_pp_centernet.c **** 		  {
 905              		.loc 1 177 74 discriminator 3 view .LVU319
 906              	.L37:
 177:../Middlewares/stm32-vision-models-postprocessing/lib_vision_models_pp/Src/od_pp_centernet.c **** 		  {
 907              		.loc 1 177 33 discriminator 1 view .LVU320
 908 0194 0FF03BC0 		le	lr, .L36
 909 0198 0F9B     		ldr	r3, [sp, #60]
 910 019a 119F     		ldr	r7, [sp, #68]
 911              	.LVL67:
 177:../Middlewares/stm32-vision-models-postprocessing/lib_vision_models_pp/Src/od_pp_centernet.c **** 		  {
 912              		.loc 1 177 33 is_stmt 0 discriminator 1 view .LVU321
 913 019c 1344     		add	r3, r3, r2
 914 019e 9C46     		mov	ip, r3
 915              	.LVL68:
 177:../Middlewares/stm32-vision-models-postprocessing/lib_vision_models_pp/Src/od_pp_centernet.c **** 		  {
 916              		.loc 1 177 33 discriminator 1 view .LVU322
 917 01a0 0D9B     		ldr	r3, [sp, #52]
 918 01a2 129E     		ldr	r6, [sp, #72]
 919              	.LVL69:
 177:../Middlewares/stm32-vision-models-postprocessing/lib_vision_models_pp/Src/od_pp_centernet.c **** 		  {
 920              		.loc 1 177 33 discriminator 1 view .LVU323
 921 01a4 1344     		add	r3, r3, r2
 922 01a6 9E46     		mov	lr, r3
 923 01a8 0A9B     		ldr	r3, [sp, #40]
 924 01aa 139D     		ldr	r5, [sp, #76]
 925 01ac 1344     		add	r3, r3, r2
 926              	.LBE35:
 190:../Middlewares/stm32-vision-models-postprocessing/lib_vision_models_pp/Src/od_pp_centernet.c **** 			pConf_12 += conf_stride_bottom;
 927              		.loc 1 190 4 is_stmt 1 view .LVU324
 190:../Middlewares/stm32-vision-models-postprocessing/lib_vision_models_pp/Src/od_pp_centernet.c **** 			pConf_12 += conf_stride_bottom;
 928              		.loc 1 190 13 is_stmt 0 view .LVU325
 929 01ae 0344     		add	r3, r3, r0
 930 01b0 0A93     		str	r3, [sp, #40]
 931              	.LVL70:
 191:../Middlewares/stm32-vision-models-postprocessing/lib_vision_models_pp/Src/od_pp_centernet.c **** 			pConf_13 += conf_stride_bottom;
 932              		.loc 1 191 4 is_stmt 1 view .LVU326
 192:../Middlewares/stm32-vision-models-postprocessing/lib_vision_models_pp/Src/od_pp_centernet.c **** 			pConf_21 += conf_stride_bottom;
 933              		.loc 1 192 13 is_stmt 0 view .LVU327
 934 01b2 0EEB0003 		add	r3, lr, r0
 935              	.LVL71:
 192:../Middlewares/stm32-vision-models-postprocessing/lib_vision_models_pp/Src/od_pp_centernet.c **** 			pConf_21 += conf_stride_bottom;
 936              		.loc 1 192 13 view .LVU328
 937 01b6 1744     		add	r7, r7, r2
 938 01b8 0D93     		str	r3, [sp, #52]
 193:../Middlewares/stm32-vision-models-postprocessing/lib_vision_models_pp/Src/od_pp_centernet.c **** 			pConf_center += conf_stride_bottom;
 939              		.loc 1 193 13 view .LVU329
 940 01ba 0CEB0003 		add	r3, ip, r0
 941 01be 1644     		add	r6, r6, r2
 942 01c0 0F93     		str	r3, [sp, #60]
 194:../Middlewares/stm32-vision-models-postprocessing/lib_vision_models_pp/Src/od_pp_centernet.c **** 			pConf_31 += conf_stride_bottom;
 943              		.loc 1 194 17 view .LVU330
 944 01c2 3B18     		adds	r3, r7, r0
 945 01c4 1544     		add	r5, r5, r2
 946 01c6 1193     		str	r3, [sp, #68]
 195:../Middlewares/stm32-vision-models-postprocessing/lib_vision_models_pp/Src/od_pp_centernet.c **** 			pConf_33 += conf_stride_bottom;
 947              		.loc 1 195 13 view .LVU331
 948 01c8 3318     		adds	r3, r6, r0
ARM GAS  /tmp/ccXy3KAt.s 			page 25


 949 01ca 1293     		str	r3, [sp, #72]
 196:../Middlewares/stm32-vision-models-postprocessing/lib_vision_models_pp/Src/od_pp_centernet.c **** 		}
 950              		.loc 1 196 13 view .LVU332
 951 01cc 2B18     		adds	r3, r5, r0
 952 01ce 1393     		str	r3, [sp, #76]
 175:../Middlewares/stm32-vision-models-postprocessing/lib_vision_models_pp/Src/od_pp_centernet.c **** 	  {
 953              		.loc 1 175 73 discriminator 2 view .LVU333
 954 01d0 149B     		ldr	r3, [sp, #80]
 955 01d2 9044     		add	r8, r8, r2
 956 01d4 0133     		adds	r3, r3, #1
 191:../Middlewares/stm32-vision-models-postprocessing/lib_vision_models_pp/Src/od_pp_centernet.c **** 			pConf_13 += conf_stride_bottom;
 957              		.loc 1 191 13 view .LVU334
 958 01d6 8044     		add	r8, r8, r0
 959              	.LVL72:
 192:../Middlewares/stm32-vision-models-postprocessing/lib_vision_models_pp/Src/od_pp_centernet.c **** 			pConf_21 += conf_stride_bottom;
 960              		.loc 1 192 4 is_stmt 1 view .LVU335
 193:../Middlewares/stm32-vision-models-postprocessing/lib_vision_models_pp/Src/od_pp_centernet.c **** 			pConf_center += conf_stride_bottom;
 961              		.loc 1 193 4 view .LVU336
 194:../Middlewares/stm32-vision-models-postprocessing/lib_vision_models_pp/Src/od_pp_centernet.c **** 			pConf_31 += conf_stride_bottom;
 962              		.loc 1 194 4 view .LVU337
 195:../Middlewares/stm32-vision-models-postprocessing/lib_vision_models_pp/Src/od_pp_centernet.c **** 			pConf_33 += conf_stride_bottom;
 963              		.loc 1 195 4 view .LVU338
 196:../Middlewares/stm32-vision-models-postprocessing/lib_vision_models_pp/Src/od_pp_centernet.c **** 		}
 964              		.loc 1 196 4 view .LVU339
 175:../Middlewares/stm32-vision-models-postprocessing/lib_vision_models_pp/Src/od_pp_centernet.c **** 	  {
 965              		.loc 1 175 73 discriminator 2 view .LVU340
 966 01d8 1493     		str	r3, [sp, #80]
 967              	.LVL73:
 175:../Middlewares/stm32-vision-models-postprocessing/lib_vision_models_pp/Src/od_pp_centernet.c **** 	  {
 968              		.loc 1 175 73 is_stmt 0 discriminator 2 view .LVU341
 969 01da 6DE7     		b	.L35
 970              	.LVL74:
 971              	.L57:
 175:../Middlewares/stm32-vision-models-postprocessing/lib_vision_models_pp/Src/od_pp_centernet.c **** 	  {
 972              		.loc 1 175 73 discriminator 2 view .LVU342
 973 01dc 0029     		cmp	r1, #0
 974              	.LBB36:
 181:../Middlewares/stm32-vision-models-postprocessing/lib_vision_models_pp/Src/od_pp_centernet.c ****         pConf_11 += conf_stride_right * 2;
 975              		.loc 1 181 55 view .LVU343
 976 01de 01F1010E 		add	lr, r1, #1
 977 01e2 B8BF     		it	lt
 978 01e4 4FF0010E 		movlt	lr, #1
 979              	.LBE36:
 980 01e8 DDE912CB 		ldrd	ip, fp, [sp, #72]
 981 01ec 119B     		ldr	r3, [sp, #68]
 982 01ee 4EF001E0 		dls	lr, lr
 983 01f2 1093     		str	r3, [sp, #64]
 984 01f4 0F9B     		ldr	r3, [sp, #60]
 985 01f6 0D9F     		ldr	r7, [sp, #52]
 986 01f8 0A9E     		ldr	r6, [sp, #40]
 987              	.LVL75:
 181:../Middlewares/stm32-vision-models-postprocessing/lib_vision_models_pp/Src/od_pp_centernet.c ****         pConf_11 += conf_stride_right * 2;
 988              		.loc 1 181 55 view .LVU344
 989 01fa 0E93     		str	r3, [sp, #56]
 990 01fc CDF83080 		str	r8, [sp, #48]
 991 0200 C8E7     		b	.L37
 992              	.LVL76:
ARM GAS  /tmp/ccXy3KAt.s 			page 26


 993              	.L54:
 181:../Middlewares/stm32-vision-models-postprocessing/lib_vision_models_pp/Src/od_pp_centernet.c ****         pConf_11 += conf_stride_right * 2;
 994              		.loc 1 181 55 view .LVU345
 995              	.LBE56:
 996              	.LBB57:
 997              	.LBB52:
 213:../Middlewares/stm32-vision-models-postprocessing/lib_vision_models_pp/Src/od_pp_centernet.c ****         {
 214:../Middlewares/stm32-vision-models-postprocessing/lib_vision_models_pp/Src/od_pp_centernet.c ****             /* Get Peaks */
 215:../Middlewares/stm32-vision-models-postprocessing/lib_vision_models_pp/Src/od_pp_centernet.c ****             score_center = *pConf_center;
 998              		.loc 1 215 13 is_stmt 1 view .LVU346
 999              		.loc 1 215 26 is_stmt 0 view .LVU347
 1000 0202 51ED067A 		vldr.32	s15, [r1, #-24]
 1001              	.LVL77:
 216:../Middlewares/stm32-vision-models-postprocessing/lib_vision_models_pp/Src/od_pp_centernet.c ****             if ((score_center >= *pConf_11) &&
 1002              		.loc 1 216 13 is_stmt 1 view .LVU348
 1003              		.loc 1 216 16 is_stmt 0 view .LVU349
 1004 0206 98ED007A 		vldr.32	s14, [r8]
 1005 020a B4EEE77A 		vcmpe.f32	s14, s15
 1006 020e F1EE10FA 		vmrs	APSR_nzcv, FPSCR
 1007 0212 00F29080 		bhi	.L39
 1008              		.loc 1 216 45 discriminator 1 view .LVU350
 1009 0216 9BED007A 		vldr.32	s14, [fp]
 1010 021a B4EEE77A 		vcmpe.f32	s14, s15
 1011 021e F1EE10FA 		vmrs	APSR_nzcv, FPSCR
 1012 0222 00F28880 		bhi	.L39
 217:../Middlewares/stm32-vision-models-postprocessing/lib_vision_models_pp/Src/od_pp_centernet.c ****                 (score_center >= *pConf_12) &&
 1013              		.loc 1 217 45 view .LVU351
 1014 0226 0E9B     		ldr	r3, [sp, #56]
 1015 0228 93ED007A 		vldr.32	s14, [r3]
 1016 022c B4EEE77A 		vcmpe.f32	s14, s15
 1017 0230 F1EE10FA 		vmrs	APSR_nzcv, FPSCR
 1018 0234 7FD8     		bhi	.L39
 218:../Middlewares/stm32-vision-models-postprocessing/lib_vision_models_pp/Src/od_pp_centernet.c ****                 (score_center >= *pConf_13) &&
 1019              		.loc 1 218 45 view .LVU352
 1020 0236 95ED007A 		vldr.32	s14, [r5]
 1021 023a B4EEE77A 		vcmpe.f32	s14, s15
 1022 023e F1EE10FA 		vmrs	APSR_nzcv, FPSCR
 1023 0242 78D8     		bhi	.L39
 219:../Middlewares/stm32-vision-models-postprocessing/lib_vision_models_pp/Src/od_pp_centernet.c ****                 (score_center >= *pConf_21) &&
 1024              		.loc 1 219 45 view .LVU353
 1025 0244 96ED007A 		vldr.32	s14, [r6]
 1026 0248 B4EEE77A 		vcmpe.f32	s14, s15
 1027 024c F1EE10FA 		vmrs	APSR_nzcv, FPSCR
 1028 0250 71D8     		bhi	.L39
 220:../Middlewares/stm32-vision-models-postprocessing/lib_vision_models_pp/Src/od_pp_centernet.c ****                 (score_center >= *pConf_23) &&
 1029              		.loc 1 220 45 view .LVU354
 1030 0252 97ED007A 		vldr.32	s14, [r7]
 1031 0256 B4EEE77A 		vcmpe.f32	s14, s15
 1032 025a F1EE10FA 		vmrs	APSR_nzcv, FPSCR
 1033 025e 6AD8     		bhi	.L39
 221:../Middlewares/stm32-vision-models-postprocessing/lib_vision_models_pp/Src/od_pp_centernet.c ****                 (score_center >= *pConf_31) &&
 1034              		.loc 1 221 45 view .LVU355
 1035 0260 9CED007A 		vldr.32	s14, [ip]
 1036 0264 B4EEE77A 		vcmpe.f32	s14, s15
 1037 0268 F1EE10FA 		vmrs	APSR_nzcv, FPSCR
 1038 026c 63D8     		bhi	.L39
 222:../Middlewares/stm32-vision-models-postprocessing/lib_vision_models_pp/Src/od_pp_centernet.c ****                 (score_center >= *pConf_32) &&
ARM GAS  /tmp/ccXy3KAt.s 			page 27


 1039              		.loc 1 222 45 view .LVU356
 1040 026e 9EED007A 		vldr.32	s14, [lr]
 1041 0272 B4EEE77A 		vcmpe.f32	s14, s15
 1042 0276 F1EE10FA 		vmrs	APSR_nzcv, FPSCR
 1043 027a 5CD8     		bhi	.L39
 223:../Middlewares/stm32-vision-models-postprocessing/lib_vision_models_pp/Src/od_pp_centernet.c ****                 (score_center >= *pConf_33) &&
 1044              		.loc 1 223 45 view .LVU357
 1045 027c 039B     		ldr	r3, [sp, #12]
 1046 027e 93ED047A 		vldr.32	s14, [r3, #16]
 1047 0282 B4EEE77A 		vcmpe.f32	s14, s15
 1048 0286 F1EE10FA 		vmrs	APSR_nzcv, FPSCR
 1049 028a 54D5     		bpl	.L39
 1050              	.LBB42:
 224:../Middlewares/stm32-vision-models-postprocessing/lib_vision_models_pp/Src/od_pp_centernet.c ****                 (score_center > pInput_static_param->conf_threshold))
 225:../Middlewares/stm32-vision-models-postprocessing/lib_vision_models_pp/Src/od_pp_centernet.c ****             {
 226:../Middlewares/stm32-vision-models-postprocessing/lib_vision_models_pp/Src/od_pp_centernet.c ****                 /* A detection center is kept since higher than its 8 neighbors and the threshold *
 227:../Middlewares/stm32-vision-models-postprocessing/lib_vision_models_pp/Src/od_pp_centernet.c ****                 float32_t x_offset = pConf_center[AI_CENTERNET_PP_XOFFSET] * grid_width_inv;
 1051              		.loc 1 227 17 is_stmt 1 view .LVU358
 1052              	.LVL78:
 228:../Middlewares/stm32-vision-models-postprocessing/lib_vision_models_pp/Src/od_pp_centernet.c ****                 float32_t y_offset = pConf_center[AI_CENTERNET_PP_YOFFSET] * grid_height_inv;
 1053              		.loc 1 228 17 view .LVU359
 229:../Middlewares/stm32-vision-models-postprocessing/lib_vision_models_pp/Src/od_pp_centernet.c ****                 float32_t b_x = row * grid_width_inv + x_offset;
 1054              		.loc 1 229 17 view .LVU360
 230:../Middlewares/stm32-vision-models-postprocessing/lib_vision_models_pp/Src/od_pp_centernet.c ****                 float32_t b_y = col * grid_height_inv + y_offset;
 1055              		.loc 1 230 17 view .LVU361
 1056              		.loc 1 230 37 is_stmt 0 view .LVU362
 1057 028c 9DED0A7A 		vldr.32	s14, [sp, #40]	@ int
 1058 0290 B8EEC77A 		vcvt.f32.s32	s14, s14
 1059              		.loc 1 230 27 view .LVU363
 1060 0294 51ED026A 		vldr.32	s13, [r1, #-8]
 1061              		.loc 1 230 37 view .LVU364
 1062 0298 27EE247A 		vmul.f32	s14, s14, s9
 1063              		.loc 1 230 27 view .LVU365
 1064 029c A6EEA47A 		vfma.f32	s14, s13, s9
 1065              	.LVL79:
 231:../Middlewares/stm32-vision-models-postprocessing/lib_vision_models_pp/Src/od_pp_centernet.c ****                 float32_t b_w = pConf_center[AI_CENTERNET_PP_WIDTH] * grid_width_inv;
 1066              		.loc 1 231 17 is_stmt 1 view .LVU366
 232:../Middlewares/stm32-vision-models-postprocessing/lib_vision_models_pp/Src/od_pp_centernet.c ****                 float32_t b_h = pConf_center[AI_CENTERNET_PP_HEIGHT] * grid_height_inv;
 1067              		.loc 1 232 17 view .LVU367
 1068              		.loc 1 232 27 is_stmt 0 view .LVU368
 1069 02a0 51ED046A 		vldr.32	s13, [r1, #-16]
 233:../Middlewares/stm32-vision-models-postprocessing/lib_vision_models_pp/Src/od_pp_centernet.c ****                 float32_t x1 = b_x - b_w / 2.0f;
 234:../Middlewares/stm32-vision-models-postprocessing/lib_vision_models_pp/Src/od_pp_centernet.c ****                 float32_t y1 = b_y - b_h / 2.0f;
 1070              		.loc 1 234 27 view .LVU369
 1071 02a4 B6EE006A 		vmov.f32	s12, #5.0e-1
 232:../Middlewares/stm32-vision-models-postprocessing/lib_vision_models_pp/Src/od_pp_centernet.c ****                 float32_t b_h = pConf_center[AI_CENTERNET_PP_HEIGHT] * grid_height_inv;
 1072              		.loc 1 232 27 view .LVU370
 1073 02a8 64EEA66A 		vmul.f32	s13, s9, s13
 1074              	.LVL80:
 233:../Middlewares/stm32-vision-models-postprocessing/lib_vision_models_pp/Src/od_pp_centernet.c ****                 float32_t x1 = b_x - b_w / 2.0f;
 1075              		.loc 1 233 17 is_stmt 1 view .LVU371
 1076              		.loc 1 234 17 view .LVU372
 1077              		.loc 1 234 27 is_stmt 0 view .LVU373
 1078 02ac B0EE474A 		vmov.f32	s8, s14
 235:../Middlewares/stm32-vision-models-postprocessing/lib_vision_models_pp/Src/od_pp_centernet.c ****                 float32_t x2 = b_x + b_w / 2.0f;
 236:../Middlewares/stm32-vision-models-postprocessing/lib_vision_models_pp/Src/od_pp_centernet.c ****                 float32_t y2 = b_y + b_h / 2.0f;
 1079              		.loc 1 236 27 view .LVU374
ARM GAS  /tmp/ccXy3KAt.s 			page 28


 1080 02b0 A6EE867A 		vfma.f32	s14, s13, s12
 1081              	.LVL81:
 234:../Middlewares/stm32-vision-models-postprocessing/lib_vision_models_pp/Src/od_pp_centernet.c ****                 float32_t x2 = b_x + b_w / 2.0f;
 1082              		.loc 1 234 27 view .LVU375
 1083 02b4 A6EEC64A 		vfms.f32	s8, s13, s12
 1084              	.LVL82:
 235:../Middlewares/stm32-vision-models-postprocessing/lib_vision_models_pp/Src/od_pp_centernet.c ****                 float32_t x2 = b_x + b_w / 2.0f;
 1085              		.loc 1 235 17 is_stmt 1 view .LVU376
 1086              		.loc 1 236 17 view .LVU377
 237:../Middlewares/stm32-vision-models-postprocessing/lib_vision_models_pp/Src/od_pp_centernet.c ****                 if ((y2 > y1) &&
 1087              		.loc 1 237 17 view .LVU378
 1088              		.loc 1 237 20 is_stmt 0 view .LVU379
 1089 02b8 B4EEC74A 		vcmpe.f32	s8, s14
 1090 02bc F1EE10FA 		vmrs	APSR_nzcv, FPSCR
 1091 02c0 39D5     		bpl	.L39
 227:../Middlewares/stm32-vision-models-postprocessing/lib_vision_models_pp/Src/od_pp_centernet.c ****                 float32_t y_offset = pConf_center[AI_CENTERNET_PP_YOFFSET] * grid_height_inv;
 1092              		.loc 1 227 27 view .LVU380
 1093 02c2 51ED036A 		vldr.32	s13, [r1, #-12]
 1094              	.LVL83:
 229:../Middlewares/stm32-vision-models-postprocessing/lib_vision_models_pp/Src/od_pp_centernet.c ****                 float32_t b_y = col * grid_height_inv + y_offset;
 1095              		.loc 1 229 27 view .LVU381
 1096 02c6 DDED0B5A 		vldr.32	s11, [sp, #44]	@ int
 227:../Middlewares/stm32-vision-models-postprocessing/lib_vision_models_pp/Src/od_pp_centernet.c ****                 float32_t y_offset = pConf_center[AI_CENTERNET_PP_YOFFSET] * grid_height_inv;
 1097              		.loc 1 227 27 view .LVU382
 1098 02ca 65EE266A 		vmul.f32	s13, s10, s13
 229:../Middlewares/stm32-vision-models-postprocessing/lib_vision_models_pp/Src/od_pp_centernet.c ****                 float32_t b_y = col * grid_height_inv + y_offset;
 1099              		.loc 1 229 27 view .LVU383
 1100 02ce F8EEE55A 		vcvt.f32.s32	s11, s11
 1101              	.LVL84:
 229:../Middlewares/stm32-vision-models-postprocessing/lib_vision_models_pp/Src/od_pp_centernet.c ****                 float32_t b_y = col * grid_height_inv + y_offset;
 1102              		.loc 1 229 27 view .LVU384
 1103 02d2 E5EE856A 		vfma.f32	s13, s11, s10
 231:../Middlewares/stm32-vision-models-postprocessing/lib_vision_models_pp/Src/od_pp_centernet.c ****                 float32_t b_h = pConf_center[AI_CENTERNET_PP_HEIGHT] * grid_height_inv;
 1104              		.loc 1 231 27 view .LVU385
 1105 02d6 51ED055A 		vldr.32	s11, [r1, #-20]
 1106              	.LVL85:
 233:../Middlewares/stm32-vision-models-postprocessing/lib_vision_models_pp/Src/od_pp_centernet.c ****                 float32_t y1 = b_y - b_h / 2.0f;
 1107              		.loc 1 233 27 view .LVU386
 1108 02da F0EE663A 		vmov.f32	s7, s13
 231:../Middlewares/stm32-vision-models-postprocessing/lib_vision_models_pp/Src/od_pp_centernet.c ****                 float32_t b_h = pConf_center[AI_CENTERNET_PP_HEIGHT] * grid_height_inv;
 1109              		.loc 1 231 27 view .LVU387
 1110 02de 65EE255A 		vmul.f32	s11, s10, s11
 233:../Middlewares/stm32-vision-models-postprocessing/lib_vision_models_pp/Src/od_pp_centernet.c ****                 float32_t y1 = b_y - b_h / 2.0f;
 1111              		.loc 1 233 27 view .LVU388
 1112 02e2 E5EEC63A 		vfms.f32	s7, s11, s12
 235:../Middlewares/stm32-vision-models-postprocessing/lib_vision_models_pp/Src/od_pp_centernet.c ****                 float32_t y2 = b_y + b_h / 2.0f;
 1113              		.loc 1 235 27 view .LVU389
 1114 02e6 E5EE866A 		vfma.f32	s13, s11, s12
 1115              		.loc 1 237 31 discriminator 1 view .LVU390
 1116 02ea F4EEE63A 		vcmpe.f32	s7, s13
 1117 02ee F1EE10FA 		vmrs	APSR_nzcv, FPSCR
 1118 02f2 20D5     		bpl	.L39
 1119              	.LBB43:
 238:../Middlewares/stm32-vision-models-postprocessing/lib_vision_models_pp/Src/od_pp_centernet.c ****                     (x2 > x1))
 239:../Middlewares/stm32-vision-models-postprocessing/lib_vision_models_pp/Src/od_pp_centernet.c ****                 {
 240:../Middlewares/stm32-vision-models-postprocessing/lib_vision_models_pp/Src/od_pp_centernet.c ****                     count_detect++;
 1120              		.loc 1 240 21 is_stmt 1 view .LVU391
ARM GAS  /tmp/ccXy3KAt.s 			page 29


 1121              		.loc 1 240 33 is_stmt 0 view .LVU392
 1122 02f4 0C9B     		ldr	r3, [sp, #48]
 1123              	.LBB44:
 241:../Middlewares/stm32-vision-models-postprocessing/lib_vision_models_pp/Src/od_pp_centernet.c ****                     pOutput->top_left_x = x1;
 242:../Middlewares/stm32-vision-models-postprocessing/lib_vision_models_pp/Src/od_pp_centernet.c ****                     pOutput->top_left_y = y1;
 243:../Middlewares/stm32-vision-models-postprocessing/lib_vision_models_pp/Src/od_pp_centernet.c ****                     pOutput->bottom_right_x = x2;
 244:../Middlewares/stm32-vision-models-postprocessing/lib_vision_models_pp/Src/od_pp_centernet.c ****                     pOutput->bottom_right_y = y2;
 245:../Middlewares/stm32-vision-models-postprocessing/lib_vision_models_pp/Src/od_pp_centernet.c ****                     pOutput->conf = score_center;
 246:../Middlewares/stm32-vision-models-postprocessing/lib_vision_models_pp/Src/od_pp_centernet.c ****                     float32_t max_classifs = pConf_center[AI_CENTERNET_PP_CLASSPROB];
 247:../Middlewares/stm32-vision-models-postprocessing/lib_vision_models_pp/Src/od_pp_centernet.c ****                     int32_t class_idx = 0;
 248:../Middlewares/stm32-vision-models-postprocessing/lib_vision_models_pp/Src/od_pp_centernet.c ****                     for (int i = 1; i < pInput_static_param->nb_classifs; i++)
 1124              		.loc 1 248 30 view .LVU393
 1125 02f6 0124     		movs	r4, #1
 1126              	.LVL86:
 1127              		.loc 1 248 30 view .LVU394
 1128              	.LBE44:
 240:../Middlewares/stm32-vision-models-postprocessing/lib_vision_models_pp/Src/od_pp_centernet.c ****                     pOutput->top_left_x = x1;
 1129              		.loc 1 240 33 view .LVU395
 1130 02f8 0133     		adds	r3, r3, #1
 1131 02fa 0C93     		str	r3, [sp, #48]
 1132              	.LVL87:
 241:../Middlewares/stm32-vision-models-postprocessing/lib_vision_models_pp/Src/od_pp_centernet.c ****                     pOutput->top_left_x = x1;
 1133              		.loc 1 241 21 is_stmt 1 view .LVU396
 247:../Middlewares/stm32-vision-models-postprocessing/lib_vision_models_pp/Src/od_pp_centernet.c ****                     for (int i = 1; i < pInput_static_param->nb_classifs; i++)
 1134              		.loc 1 247 29 is_stmt 0 view .LVU397
 1135 02fc 0023     		movs	r3, #0
 1136              	.LVL88:
 241:../Middlewares/stm32-vision-models-postprocessing/lib_vision_models_pp/Src/od_pp_centernet.c ****                     pOutput->top_left_x = x1;
 1137              		.loc 1 241 41 view .LVU398
 1138 02fe C9ED003A 		vstr.32	s7, [r9]
 1139              	.LVL89:
 242:../Middlewares/stm32-vision-models-postprocessing/lib_vision_models_pp/Src/od_pp_centernet.c ****                     pOutput->bottom_right_x = x2;
 1140              		.loc 1 242 21 is_stmt 1 view .LVU399
 242:../Middlewares/stm32-vision-models-postprocessing/lib_vision_models_pp/Src/od_pp_centernet.c ****                     pOutput->bottom_right_x = x2;
 1141              		.loc 1 242 41 is_stmt 0 view .LVU400
 1142 0302 89ED014A 		vstr.32	s8, [r9, #4]
 243:../Middlewares/stm32-vision-models-postprocessing/lib_vision_models_pp/Src/od_pp_centernet.c ****                     pOutput->bottom_right_y = y2;
 1143              		.loc 1 243 21 is_stmt 1 view .LVU401
 243:../Middlewares/stm32-vision-models-postprocessing/lib_vision_models_pp/Src/od_pp_centernet.c ****                     pOutput->bottom_right_y = y2;
 1144              		.loc 1 243 45 is_stmt 0 view .LVU402
 1145 0306 C9ED026A 		vstr.32	s13, [r9, #8]
 244:../Middlewares/stm32-vision-models-postprocessing/lib_vision_models_pp/Src/od_pp_centernet.c ****                     pOutput->conf = score_center;
 1146              		.loc 1 244 21 is_stmt 1 view .LVU403
 244:../Middlewares/stm32-vision-models-postprocessing/lib_vision_models_pp/Src/od_pp_centernet.c ****                     pOutput->conf = score_center;
 1147              		.loc 1 244 45 is_stmt 0 view .LVU404
 1148 030a 89ED037A 		vstr.32	s14, [r9, #12]
 245:../Middlewares/stm32-vision-models-postprocessing/lib_vision_models_pp/Src/od_pp_centernet.c ****                     float32_t max_classifs = pConf_center[AI_CENTERNET_PP_CLASSPROB];
 1149              		.loc 1 245 21 is_stmt 1 view .LVU405
 245:../Middlewares/stm32-vision-models-postprocessing/lib_vision_models_pp/Src/od_pp_centernet.c ****                     float32_t max_classifs = pConf_center[AI_CENTERNET_PP_CLASSPROB];
 1150              		.loc 1 245 35 is_stmt 0 view .LVU406
 1151 030e C9ED047A 		vstr.32	s15, [r9, #16]
 246:../Middlewares/stm32-vision-models-postprocessing/lib_vision_models_pp/Src/od_pp_centernet.c ****                     int32_t class_idx = 0;
 1152              		.loc 1 246 21 is_stmt 1 view .LVU407
 247:../Middlewares/stm32-vision-models-postprocessing/lib_vision_models_pp/Src/od_pp_centernet.c ****                     for (int i = 1; i < pInput_static_param->nb_classifs; i++)
 1153              		.loc 1 247 29 is_stmt 0 view .LVU408
 1154 0312 1093     		str	r3, [sp, #64]
 1155 0314 059B     		ldr	r3, [sp, #20]
ARM GAS  /tmp/ccXy3KAt.s 			page 30


 246:../Middlewares/stm32-vision-models-postprocessing/lib_vision_models_pp/Src/od_pp_centernet.c ****                     int32_t class_idx = 0;
 1156              		.loc 1 246 31 view .LVU409
 1157 0316 51ED017A 		vldr.32	s15, [r1, #-4]
 1158              	.LVL90:
 247:../Middlewares/stm32-vision-models-postprocessing/lib_vision_models_pp/Src/od_pp_centernet.c ****                     for (int i = 1; i < pInput_static_param->nb_classifs; i++)
 1159              		.loc 1 247 21 is_stmt 1 view .LVU410
 1160              		.loc 1 248 21 view .LVU411
 1161              	.LBB45:
 1162              		.loc 1 248 26 view .LVU412
 1163              		.loc 1 248 26 is_stmt 0 view .LVU413
 1164 031a 002B     		cmp	r3, #0
 1165 031c D8BF     		it	le
 1166 031e 2346     		movle	r3, r4
 1167              		.loc 1 248 21 view .LVU414
 1168 0320 1191     		str	r1, [sp, #68]
 1169 0322 1293     		str	r3, [sp, #72]
 1170              	.LVL91:
 1171              	.L51:
 1172              		.loc 1 248 39 is_stmt 1 discriminator 1 view .LVU415
 1173 0324 129B     		ldr	r3, [sp, #72]
 1174 0326 013B     		subs	r3, r3, #1
 1175 0328 1293     		str	r3, [sp, #72]
 1176 032a 48D1     		bne	.L53
 1177              		.loc 1 248 39 is_stmt 0 discriminator 1 view .LVU416
 1178              	.LBE45:
 249:../Middlewares/stm32-vision-models-postprocessing/lib_vision_models_pp/Src/od_pp_centernet.c ****                     {
 250:../Middlewares/stm32-vision-models-postprocessing/lib_vision_models_pp/Src/od_pp_centernet.c ****                         if (pConf_center[AI_CENTERNET_PP_CLASSPROB + i] > max_classifs)
 251:../Middlewares/stm32-vision-models-postprocessing/lib_vision_models_pp/Src/od_pp_centernet.c ****                         {
 252:../Middlewares/stm32-vision-models-postprocessing/lib_vision_models_pp/Src/od_pp_centernet.c ****                             max_classifs = pConf_center[AI_CENTERNET_PP_CLASSPROB + i];
 253:../Middlewares/stm32-vision-models-postprocessing/lib_vision_models_pp/Src/od_pp_centernet.c ****                             class_idx = i;
 254:../Middlewares/stm32-vision-models-postprocessing/lib_vision_models_pp/Src/od_pp_centernet.c ****                         }
 255:../Middlewares/stm32-vision-models-postprocessing/lib_vision_models_pp/Src/od_pp_centernet.c ****                     }
 256:../Middlewares/stm32-vision-models-postprocessing/lib_vision_models_pp/Src/od_pp_centernet.c ****                     pOutput->class_index = class_idx;
 1179              		.loc 1 256 21 is_stmt 1 view .LVU417
 1180              		.loc 1 256 42 is_stmt 0 view .LVU418
 1181 032c 109B     		ldr	r3, [sp, #64]
 257:../Middlewares/stm32-vision-models-postprocessing/lib_vision_models_pp/Src/od_pp_centernet.c ****                     pOutput++;
 1182              		.loc 1 257 28 view .LVU419
 1183 032e 09F11809 		add	r9, r9, #24
 1184              	.LVL92:
 256:../Middlewares/stm32-vision-models-postprocessing/lib_vision_models_pp/Src/od_pp_centernet.c ****                     pOutput++;
 1185              		.loc 1 256 42 view .LVU420
 1186 0332 49F8043C 		str	r3, [r9, #-4]
 1187              		.loc 1 257 21 is_stmt 1 view .LVU421
 1188              	.LVL93:
 1189              	.L39:
 1190              		.loc 1 257 21 is_stmt 0 view .LVU422
 1191              	.LBE43:
 1192              	.LBE42:
 258:../Middlewares/stm32-vision-models-postprocessing/lib_vision_models_pp/Src/od_pp_centernet.c ****                 }
 259:../Middlewares/stm32-vision-models-postprocessing/lib_vision_models_pp/Src/od_pp_centernet.c ****             }
 260:../Middlewares/stm32-vision-models-postprocessing/lib_vision_models_pp/Src/od_pp_centernet.c ****             pConf_11 += conf_stride_right;
 1193              		.loc 1 260 13 is_stmt 1 view .LVU423
 261:../Middlewares/stm32-vision-models-postprocessing/lib_vision_models_pp/Src/od_pp_centernet.c ****             pConf_12 += conf_stride_right;
 262:../Middlewares/stm32-vision-models-postprocessing/lib_vision_models_pp/Src/od_pp_centernet.c ****             pConf_13 += conf_stride_right;
 1194              		.loc 1 262 22 is_stmt 0 view .LVU424
 1195 0336 0E9B     		ldr	r3, [sp, #56]
ARM GAS  /tmp/ccXy3KAt.s 			page 31


 260:../Middlewares/stm32-vision-models-postprocessing/lib_vision_models_pp/Src/od_pp_centernet.c ****             pConf_12 += conf_stride_right;
 1196              		.loc 1 260 22 view .LVU425
 1197 0338 D044     		add	r8, r8, r10
 1198              	.LVL94:
 261:../Middlewares/stm32-vision-models-postprocessing/lib_vision_models_pp/Src/od_pp_centernet.c ****             pConf_12 += conf_stride_right;
 1199              		.loc 1 261 13 is_stmt 1 view .LVU426
 1200              		.loc 1 262 22 is_stmt 0 view .LVU427
 1201 033a 5344     		add	r3, r3, r10
 1202 033c 0E93     		str	r3, [sp, #56]
 1203              	.LVL95:
 212:../Middlewares/stm32-vision-models-postprocessing/lib_vision_models_pp/Src/od_pp_centernet.c ****         {
 1204              		.loc 1 212 74 discriminator 2 view .LVU428
 1205 033e 0B9B     		ldr	r3, [sp, #44]
 261:../Middlewares/stm32-vision-models-postprocessing/lib_vision_models_pp/Src/od_pp_centernet.c ****             pConf_12 += conf_stride_right;
 1206              		.loc 1 261 22 view .LVU429
 1207 0340 D344     		add	fp, fp, r10
 1208              	.LVL96:
 1209              		.loc 1 262 13 is_stmt 1 view .LVU430
 263:../Middlewares/stm32-vision-models-postprocessing/lib_vision_models_pp/Src/od_pp_centernet.c ****             pConf_21 += conf_stride_right;
 1210              		.loc 1 263 13 view .LVU431
 212:../Middlewares/stm32-vision-models-postprocessing/lib_vision_models_pp/Src/od_pp_centernet.c ****         {
 1211              		.loc 1 212 74 is_stmt 0 discriminator 2 view .LVU432
 1212 0342 0133     		adds	r3, r3, #1
 1213              		.loc 1 263 22 view .LVU433
 1214 0344 5544     		add	r5, r5, r10
 1215              	.LVL97:
 264:../Middlewares/stm32-vision-models-postprocessing/lib_vision_models_pp/Src/od_pp_centernet.c ****             pConf_center += conf_stride_right;
 1216              		.loc 1 264 13 is_stmt 1 view .LVU434
 265:../Middlewares/stm32-vision-models-postprocessing/lib_vision_models_pp/Src/od_pp_centernet.c ****             pConf_23 += conf_stride_right;
 1217              		.loc 1 265 13 view .LVU435
 1218              		.loc 1 265 22 is_stmt 0 view .LVU436
 1219 0346 5644     		add	r6, r6, r10
 1220              	.LVL98:
 266:../Middlewares/stm32-vision-models-postprocessing/lib_vision_models_pp/Src/od_pp_centernet.c ****             pConf_31 += conf_stride_right;
 1221              		.loc 1 266 13 is_stmt 1 view .LVU437
 1222              		.loc 1 266 22 is_stmt 0 view .LVU438
 1223 0348 5744     		add	r7, r7, r10
 1224              	.LVL99:
 267:../Middlewares/stm32-vision-models-postprocessing/lib_vision_models_pp/Src/od_pp_centernet.c ****             pConf_32 += conf_stride_right;
 1225              		.loc 1 267 13 is_stmt 1 view .LVU439
 1226              		.loc 1 267 22 is_stmt 0 view .LVU440
 1227 034a D444     		add	ip, ip, r10
 1228              	.LVL100:
 268:../Middlewares/stm32-vision-models-postprocessing/lib_vision_models_pp/Src/od_pp_centernet.c ****             pConf_33 += conf_stride_right;
 1229              		.loc 1 268 13 is_stmt 1 view .LVU441
 1230              		.loc 1 268 22 is_stmt 0 view .LVU442
 1231 034c D644     		add	lr, lr, r10
 1232              	.LVL101:
 212:../Middlewares/stm32-vision-models-postprocessing/lib_vision_models_pp/Src/od_pp_centernet.c ****         {
 1233              		.loc 1 212 74 is_stmt 1 discriminator 2 view .LVU443
 1234 034e 0B93     		str	r3, [sp, #44]
 1235              	.LVL102:
 212:../Middlewares/stm32-vision-models-postprocessing/lib_vision_models_pp/Src/od_pp_centernet.c ****         {
 1236              		.loc 1 212 74 is_stmt 0 discriminator 2 view .LVU444
 1237 0350 5144     		add	r1, r1, r10
 1238              	.LVL103:
 1239              	.L56:
ARM GAS  /tmp/ccXy3KAt.s 			page 32


 212:../Middlewares/stm32-vision-models-postprocessing/lib_vision_models_pp/Src/od_pp_centernet.c ****         {
 1240              		.loc 1 212 35 is_stmt 1 discriminator 1 view .LVU445
 1241 0352 149B     		ldr	r3, [sp, #80]
 1242 0354 0B9C     		ldr	r4, [sp, #44]
 1243 0356 A342     		cmp	r3, r4
 1244 0358 3FF753AF 		bgt	.L54
 212:../Middlewares/stm32-vision-models-postprocessing/lib_vision_models_pp/Src/od_pp_centernet.c ****         {
 1245              		.loc 1 212 35 is_stmt 0 discriminator 1 view .LVU446
 1246 035c 079B     		ldr	r3, [sp, #28]
 1247 035e 089F     		ldr	r7, [sp, #32]
 1248              	.LVL104:
 212:../Middlewares/stm32-vision-models-postprocessing/lib_vision_models_pp/Src/od_pp_centernet.c ****         {
 1249              		.loc 1 212 35 discriminator 1 view .LVU447
 1250 0360 1344     		add	r3, r3, r2
 1251 0362 9C46     		mov	ip, r3
 1252              	.LVL105:
 212:../Middlewares/stm32-vision-models-postprocessing/lib_vision_models_pp/Src/od_pp_centernet.c ****         {
 1253              		.loc 1 212 35 discriminator 1 view .LVU448
 1254 0364 069B     		ldr	r3, [sp, #24]
 1255 0366 1744     		add	r7, r7, r2
 1256 0368 1344     		add	r3, r3, r2
 1257 036a 9E46     		mov	lr, r3
 1258              	.LVL106:
 212:../Middlewares/stm32-vision-models-postprocessing/lib_vision_models_pp/Src/od_pp_centernet.c ****         {
 1259              		.loc 1 212 35 discriminator 1 view .LVU449
 1260 036c 0D9B     		ldr	r3, [sp, #52]
 1261 036e 049E     		ldr	r6, [sp, #16]
 1262              	.LVL107:
 212:../Middlewares/stm32-vision-models-postprocessing/lib_vision_models_pp/Src/od_pp_centernet.c ****         {
 1263              		.loc 1 212 35 discriminator 1 view .LVU450
 1264 0370 1344     		add	r3, r3, r2
 1265 0372 9846     		mov	r8, r3
 1266              	.LVL108:
 212:../Middlewares/stm32-vision-models-postprocessing/lib_vision_models_pp/Src/od_pp_centernet.c ****         {
 1267              		.loc 1 212 35 discriminator 1 view .LVU451
 1268              	.LBE52:
 269:../Middlewares/stm32-vision-models-postprocessing/lib_vision_models_pp/Src/od_pp_centernet.c ****         }
 270:../Middlewares/stm32-vision-models-postprocessing/lib_vision_models_pp/Src/od_pp_centernet.c **** 
 271:../Middlewares/stm32-vision-models-postprocessing/lib_vision_models_pp/Src/od_pp_centernet.c ****         /* Shifts twice to bypass feature map border */
 272:../Middlewares/stm32-vision-models-postprocessing/lib_vision_models_pp/Src/od_pp_centernet.c ****         pConf_11 += (conf_stride_right * 2);
 1269              		.loc 1 272 9 is_stmt 1 view .LVU452
 1270              		.loc 1 272 18 is_stmt 0 view .LVU453
 1271 0374 019B     		ldr	r3, [sp, #4]
 1272 0376 1644     		add	r6, r6, r2
 1273 0378 4344     		add	r3, r8, r3
 1274 037a 0D93     		str	r3, [sp, #52]
 1275              	.LVL109:
 273:../Middlewares/stm32-vision-models-postprocessing/lib_vision_models_pp/Src/od_pp_centernet.c ****         pConf_12 += (conf_stride_right * 2);
 1276              		.loc 1 273 9 is_stmt 1 view .LVU454
 1277              		.loc 1 273 18 is_stmt 0 view .LVU455
 1278 037c 019B     		ldr	r3, [sp, #4]
 1279              	.LVL110:
 1280              		.loc 1 273 18 view .LVU456
 1281 037e 0F9D     		ldr	r5, [sp, #60]
 1282              	.LVL111:
 1283              		.loc 1 273 18 view .LVU457
 1284 0380 7344     		add	r3, lr, r3
ARM GAS  /tmp/ccXy3KAt.s 			page 33


 1285 0382 0693     		str	r3, [sp, #24]
 1286              	.LVL112:
 274:../Middlewares/stm32-vision-models-postprocessing/lib_vision_models_pp/Src/od_pp_centernet.c ****         pConf_13 += (conf_stride_right * 2);
 1287              		.loc 1 274 9 is_stmt 1 view .LVU458
 1288              		.loc 1 274 18 is_stmt 0 view .LVU459
 1289 0384 019B     		ldr	r3, [sp, #4]
 1290              	.LVL113:
 1291              		.loc 1 274 18 view .LVU460
 1292 0386 1544     		add	r5, r5, r2
 1293 0388 6344     		add	r3, ip, r3
 1294 038a 0793     		str	r3, [sp, #28]
 1295              	.LVL114:
 275:../Middlewares/stm32-vision-models-postprocessing/lib_vision_models_pp/Src/od_pp_centernet.c ****         pConf_21 += (conf_stride_right * 2);
 1296              		.loc 1 275 9 is_stmt 1 view .LVU461
 1297              		.loc 1 275 18 is_stmt 0 view .LVU462
 1298 038c 019B     		ldr	r3, [sp, #4]
 1299              	.LVL115:
 1300              		.loc 1 275 18 view .LVU463
 1301 038e 029C     		ldr	r4, [sp, #8]
 1302 0390 FB18     		adds	r3, r7, r3
 1303 0392 0893     		str	r3, [sp, #32]
 1304              	.LVL116:
 276:../Middlewares/stm32-vision-models-postprocessing/lib_vision_models_pp/Src/od_pp_centernet.c ****         pConf_center += (conf_stride_right * 2);
 1305              		.loc 1 276 9 is_stmt 1 view .LVU464
 1306              		.loc 1 276 22 is_stmt 0 view .LVU465
 1307 0394 019B     		ldr	r3, [sp, #4]
 1308              	.LVL117:
 1309              		.loc 1 276 22 view .LVU466
 1310 0396 1444     		add	r4, r4, r2
 1311 0398 F318     		adds	r3, r6, r3
 1312 039a 0493     		str	r3, [sp, #16]
 1313              	.LVL118:
 277:../Middlewares/stm32-vision-models-postprocessing/lib_vision_models_pp/Src/od_pp_centernet.c ****         pConf_23 += (conf_stride_right * 2);
 1314              		.loc 1 277 9 is_stmt 1 view .LVU467
 1315              		.loc 1 277 18 is_stmt 0 view .LVU468
 1316 039c 019B     		ldr	r3, [sp, #4]
 1317              	.LVL119:
 1318              		.loc 1 277 18 view .LVU469
 1319 039e 0999     		ldr	r1, [sp, #36]
 1320 03a0 EB18     		adds	r3, r5, r3
 1321 03a2 0F93     		str	r3, [sp, #60]
 1322              	.LVL120:
 278:../Middlewares/stm32-vision-models-postprocessing/lib_vision_models_pp/Src/od_pp_centernet.c ****         pConf_31 += (conf_stride_right * 2);
 1323              		.loc 1 278 9 is_stmt 1 view .LVU470
 1324              		.loc 1 278 18 is_stmt 0 view .LVU471
 1325 03a4 019B     		ldr	r3, [sp, #4]
 1326              	.LVL121:
 1327              		.loc 1 278 18 view .LVU472
 1328 03a6 1144     		add	r1, r1, r2
 1329 03a8 E318     		adds	r3, r4, r3
 1330 03aa 0293     		str	r3, [sp, #8]
 1331              	.LVL122:
 279:../Middlewares/stm32-vision-models-postprocessing/lib_vision_models_pp/Src/od_pp_centernet.c ****         pConf_32 += (conf_stride_right * 2);
 1332              		.loc 1 279 9 is_stmt 1 view .LVU473
 1333              		.loc 1 279 18 is_stmt 0 view .LVU474
 1334 03ac 019B     		ldr	r3, [sp, #4]
 1335              	.LVL123:
ARM GAS  /tmp/ccXy3KAt.s 			page 34


 1336              		.loc 1 279 18 view .LVU475
 1337 03ae 1044     		add	r0, r0, r2
 1338 03b0 1844     		add	r0, r0, r3
 1339              	.LVL124:
 280:../Middlewares/stm32-vision-models-postprocessing/lib_vision_models_pp/Src/od_pp_centernet.c ****         pConf_33 += (conf_stride_right * 2);
 1340              		.loc 1 280 9 is_stmt 1 view .LVU476
 1341              		.loc 1 280 18 is_stmt 0 view .LVU477
 1342 03b2 CB18     		adds	r3, r1, r3
 1343 03b4 0993     		str	r3, [sp, #36]
 1344              	.LVL125:
 210:../Middlewares/stm32-vision-models-postprocessing/lib_vision_models_pp/Src/od_pp_centernet.c ****     {
 1345              		.loc 1 210 71 is_stmt 1 discriminator 2 view .LVU478
 1346 03b6 0A9B     		ldr	r3, [sp, #40]
 1347              	.LVL126:
 210:../Middlewares/stm32-vision-models-postprocessing/lib_vision_models_pp/Src/od_pp_centernet.c ****     {
 1348              		.loc 1 210 71 is_stmt 0 discriminator 2 view .LVU479
 1349 03b8 0133     		adds	r3, r3, #1
 1350 03ba 0A93     		str	r3, [sp, #40]
 1351              	.LVL127:
 210:../Middlewares/stm32-vision-models-postprocessing/lib_vision_models_pp/Src/od_pp_centernet.c ****     {
 1352              		.loc 1 210 71 discriminator 2 view .LVU480
 1353 03bc 9BE6     		b	.L38
 1354              	.LVL128:
 1355              	.L53:
 1356              	.LBB53:
 1357              	.LBB48:
 1358              	.LBB47:
 1359              	.LBB46:
 250:../Middlewares/stm32-vision-models-postprocessing/lib_vision_models_pp/Src/od_pp_centernet.c ****                         {
 1360              		.loc 1 250 25 is_stmt 1 view .LVU481
 250:../Middlewares/stm32-vision-models-postprocessing/lib_vision_models_pp/Src/od_pp_centernet.c ****                         {
 1361              		.loc 1 250 41 is_stmt 0 view .LVU482
 1362 03be 119B     		ldr	r3, [sp, #68]
 1363 03c0 B3EC017A 		vldmia.32	r3!, {s14}
 250:../Middlewares/stm32-vision-models-postprocessing/lib_vision_models_pp/Src/od_pp_centernet.c ****                         {
 1364              		.loc 1 250 28 view .LVU483
 1365 03c4 B4EEE77A 		vcmpe.f32	s14, s15
 1366 03c8 F1EE10FA 		vmrs	APSR_nzcv, FPSCR
 1367 03cc D4BF     		ite	le
 1368 03ce B0EE677A 		vmovle.f32	s14, s15
 253:../Middlewares/stm32-vision-models-postprocessing/lib_vision_models_pp/Src/od_pp_centernet.c ****                         }
 1369              		.loc 1 253 39 view .LVU484
 1370 03d2 1094     		strgt	r4, [sp, #64]
 1371              	.LVL129:
 248:../Middlewares/stm32-vision-models-postprocessing/lib_vision_models_pp/Src/od_pp_centernet.c ****                     {
 1372              		.loc 1 248 76 is_stmt 1 discriminator 2 view .LVU485
 1373 03d4 F0EE477A 		vmov.f32	s15, s14
 250:../Middlewares/stm32-vision-models-postprocessing/lib_vision_models_pp/Src/od_pp_centernet.c ****                         {
 1374              		.loc 1 250 41 is_stmt 0 view .LVU486
 1375 03d8 1193     		str	r3, [sp, #68]
 248:../Middlewares/stm32-vision-models-postprocessing/lib_vision_models_pp/Src/od_pp_centernet.c ****                     {
 1376              		.loc 1 248 76 discriminator 2 view .LVU487
 1377 03da 0134     		adds	r4, r4, #1
 1378              	.LVL130:
 248:../Middlewares/stm32-vision-models-postprocessing/lib_vision_models_pp/Src/od_pp_centernet.c ****                     {
 1379              		.loc 1 248 76 discriminator 2 view .LVU488
 1380 03dc A2E7     		b	.L51
ARM GAS  /tmp/ccXy3KAt.s 			page 35


 1381              	.LVL131:
 1382              	.L55:
 248:../Middlewares/stm32-vision-models-postprocessing/lib_vision_models_pp/Src/od_pp_centernet.c ****                     {
 1383              		.loc 1 248 76 discriminator 2 view .LVU489
 1384              	.LBE46:
 1385              	.LBE47:
 1386              	.LBE48:
 1387              	.LBE53:
 1388              	.LBE57:
 281:../Middlewares/stm32-vision-models-postprocessing/lib_vision_models_pp/Src/od_pp_centernet.c ****     }
 282:../Middlewares/stm32-vision-models-postprocessing/lib_vision_models_pp/Src/od_pp_centernet.c **** 
 283:../Middlewares/stm32-vision-models-postprocessing/lib_vision_models_pp/Src/od_pp_centernet.c ****     pInput_static_param->nb_detect = count_detect;
 1389              		.loc 1 283 5 is_stmt 1 view .LVU490
 284:../Middlewares/stm32-vision-models-postprocessing/lib_vision_models_pp/Src/od_pp_centernet.c **** 
 285:../Middlewares/stm32-vision-models-postprocessing/lib_vision_models_pp/Src/od_pp_centernet.c ****     return (error);
 286:../Middlewares/stm32-vision-models-postprocessing/lib_vision_models_pp/Src/od_pp_centernet.c **** }
 1390              		.loc 1 286 1 is_stmt 0 view .LVU491
 1391 03de 0020     		movs	r0, #0
 1392              	.LVL132:
 283:../Middlewares/stm32-vision-models-postprocessing/lib_vision_models_pp/Src/od_pp_centernet.c **** 
 1393              		.loc 1 283 36 view .LVU492
 1394 03e0 039B     		ldr	r3, [sp, #12]
 1395 03e2 0C9A     		ldr	r2, [sp, #48]
 1396 03e4 DA61     		str	r2, [r3, #28]
 285:../Middlewares/stm32-vision-models-postprocessing/lib_vision_models_pp/Src/od_pp_centernet.c **** }
 1397              		.loc 1 285 5 is_stmt 1 view .LVU493
 1398              		.loc 1 286 1 is_stmt 0 view .LVU494
 1399 03e6 17B0     		add	sp, sp, #92
 1400              		.cfi_def_cfa_offset 36
 1401              		@ sp needed
 1402 03e8 BDE8F08F 		pop	{r4, r5, r6, r7, r8, r9, r10, fp, pc}
 1403              		.loc 1 286 1 view .LVU495
 1404              		.cfi_endproc
 1405              	.LFE780:
 1407              		.section	.text.centernet_pp_getNNBoxes_centroid_int8,"ax",%progbits
 1408              		.align	1
 1409              		.global	centernet_pp_getNNBoxes_centroid_int8
 1410              		.syntax unified
 1411              		.thumb
 1412              		.thumb_func
 1414              	centernet_pp_getNNBoxes_centroid_int8:
 1415              	.LVL133:
 1416              	.LFB781:
 287:../Middlewares/stm32-vision-models-postprocessing/lib_vision_models_pp/Src/od_pp_centernet.c **** 
 288:../Middlewares/stm32-vision-models-postprocessing/lib_vision_models_pp/Src/od_pp_centernet.c **** 
 289:../Middlewares/stm32-vision-models-postprocessing/lib_vision_models_pp/Src/od_pp_centernet.c **** int32_t centernet_pp_getNNBoxes_centroid_int8(od_centernet_pp_in_t *pInput,
 290:../Middlewares/stm32-vision-models-postprocessing/lib_vision_models_pp/Src/od_pp_centernet.c ****                                          od_centernet_pp_static_param_t *pInput_static_param)
 291:../Middlewares/stm32-vision-models-postprocessing/lib_vision_models_pp/Src/od_pp_centernet.c **** {
 1417              		.loc 1 291 1 is_stmt 1 view -0
 1418              		.cfi_startproc
 1419              		@ args = 0, pretend = 0, frame = 56
 1420              		@ frame_needed = 0, uses_anonymous_args = 0
 292:../Middlewares/stm32-vision-models-postprocessing/lib_vision_models_pp/Src/od_pp_centernet.c ****   int32_t error   = AI_VISION_MODELS_PP_ERROR_NO;
 1421              		.loc 1 292 3 view .LVU497
 293:../Middlewares/stm32-vision-models-postprocessing/lib_vision_models_pp/Src/od_pp_centernet.c **** 
 294:../Middlewares/stm32-vision-models-postprocessing/lib_vision_models_pp/Src/od_pp_centernet.c ****   int32_t count_detect                  = 0;
 1422              		.loc 1 294 3 view .LVU498
ARM GAS  /tmp/ccXy3KAt.s 			page 36


 295:../Middlewares/stm32-vision-models-postprocessing/lib_vision_models_pp/Src/od_pp_centernet.c ****   int8_t score_center                = 0;
 1423              		.loc 1 295 3 view .LVU499
 296:../Middlewares/stm32-vision-models-postprocessing/lib_vision_models_pp/Src/od_pp_centernet.c ****   float32_t grid_width_inv              = 1.0f / pInput_static_param->grid_width;
 1424              		.loc 1 296 3 view .LVU500
 1425              		.loc 1 296 48 is_stmt 0 view .LVU501
 1426 0000 D1ED017A 		vldr.32	s15, [r1, #4]	@ int
 1427              		.loc 1 296 13 view .LVU502
 1428 0004 B7EE007A 		vmov.f32	s14, #1.0e+0
 1429              		.loc 1 296 48 view .LVU503
 1430 0008 F8EEE77A 		vcvt.f32.s32	s15, s15
 291:../Middlewares/stm32-vision-models-postprocessing/lib_vision_models_pp/Src/od_pp_centernet.c ****   int32_t error   = AI_VISION_MODELS_PP_ERROR_NO;
 1431              		.loc 1 291 1 view .LVU504
 1432 000c 2DE9F04F 		push	{r4, r5, r6, r7, r8, r9, r10, fp, lr}
 1433              		.cfi_def_cfa_offset 36
 1434              		.cfi_offset 4, -36
 1435              		.cfi_offset 5, -32
 1436              		.cfi_offset 6, -28
 1437              		.cfi_offset 7, -24
 1438              		.cfi_offset 8, -20
 1439              		.cfi_offset 9, -16
 1440              		.cfi_offset 10, -12
 1441              		.cfi_offset 11, -8
 1442              		.cfi_offset 14, -4
 1443 0010 2DED048B 		vpush.64	{d8, d9}
 1444              		.cfi_def_cfa_offset 52
 1445              		.cfi_offset 80, -52
 1446              		.cfi_offset 81, -48
 1447              		.cfi_offset 82, -44
 1448              		.cfi_offset 83, -40
 1449              		.loc 1 296 13 view .LVU505
 1450 0014 87EE279A 		vdiv.f32	s18, s14, s15
 1451              	.LVL134:
 297:../Middlewares/stm32-vision-models-postprocessing/lib_vision_models_pp/Src/od_pp_centernet.c ****   float32_t grid_height_inv             = 1.0f / pInput_static_param->grid_height;
 1452              		.loc 1 297 3 is_stmt 1 view .LVU506
 1453              		.loc 1 297 48 is_stmt 0 view .LVU507
 1454 0018 D1ED027A 		vldr.32	s15, [r1, #8]	@ int
 1455 001c F8EEE77A 		vcvt.f32.s32	s15, s15
 298:../Middlewares/stm32-vision-models-postprocessing/lib_vision_models_pp/Src/od_pp_centernet.c ****   int32_t conf_stride_right             = (pInput_static_param->nb_classifs + AI_CENTERNET_PP_CLASS
 1456              		.loc 1 298 11 view .LVU508
 1457 0020 0D68     		ldr	r5, [r1]
 299:../Middlewares/stm32-vision-models-postprocessing/lib_vision_models_pp/Src/od_pp_centernet.c ****   int32_t conf_stride_bottom            = conf_stride_right * pInput_static_param->grid_width;
 1458              		.loc 1 299 11 view .LVU509
 1459 0022 4B68     		ldr	r3, [r1, #4]
 298:../Middlewares/stm32-vision-models-postprocessing/lib_vision_models_pp/Src/od_pp_centernet.c ****   int32_t conf_stride_right             = (pInput_static_param->nb_classifs + AI_CENTERNET_PP_CLASS
 1460              		.loc 1 298 11 view .LVU510
 1461 0024 0635     		adds	r5, r5, #6
 1462              		.loc 1 299 11 view .LVU511
 1463 0026 05FB03F2 		mul	r2, r5, r3
 300:../Middlewares/stm32-vision-models-postprocessing/lib_vision_models_pp/Src/od_pp_centernet.c ****   centernet_pp_tmp_outBuffer_t *pOutput = (centernet_pp_tmp_outBuffer_t *)(pInput->pRaw_detections)
 301:../Middlewares/stm32-vision-models-postprocessing/lib_vision_models_pp/Src/od_pp_centernet.c **** 
 302:../Middlewares/stm32-vision-models-postprocessing/lib_vision_models_pp/Src/od_pp_centernet.c ****   int8_t *pConf_11     = (int8_t *)pInput->pRaw_detections + AI_CENTERNET_PP_CONFCENTER;
 303:../Middlewares/stm32-vision-models-postprocessing/lib_vision_models_pp/Src/od_pp_centernet.c ****   int8_t *pConf_12     = (int8_t *)pConf_11     + conf_stride_right;
 304:../Middlewares/stm32-vision-models-postprocessing/lib_vision_models_pp/Src/od_pp_centernet.c ****   int8_t *pConf_13     = (int8_t *)pConf_12     + conf_stride_right;
 305:../Middlewares/stm32-vision-models-postprocessing/lib_vision_models_pp/Src/od_pp_centernet.c ****   int8_t *pConf_21     = (int8_t *)pConf_11     + conf_stride_bottom;
 306:../Middlewares/stm32-vision-models-postprocessing/lib_vision_models_pp/Src/od_pp_centernet.c **** 	int8_t *pConf_center = (int8_t *)pConf_21     + conf_stride_right;
 307:../Middlewares/stm32-vision-models-postprocessing/lib_vision_models_pp/Src/od_pp_centernet.c ****   int8_t *pConf_23     = (int8_t *)pConf_center + conf_stride_right;
 308:../Middlewares/stm32-vision-models-postprocessing/lib_vision_models_pp/Src/od_pp_centernet.c ****   int8_t *pConf_31     = (int8_t *)pConf_21     + conf_stride_bottom;
ARM GAS  /tmp/ccXy3KAt.s 			page 37


 309:../Middlewares/stm32-vision-models-postprocessing/lib_vision_models_pp/Src/od_pp_centernet.c ****   int8_t *pConf_32     = (int8_t *)pConf_31     + conf_stride_right;
 310:../Middlewares/stm32-vision-models-postprocessing/lib_vision_models_pp/Src/od_pp_centernet.c ****   int8_t *pConf_33     = (int8_t *)pConf_32     + conf_stride_right;
 311:../Middlewares/stm32-vision-models-postprocessing/lib_vision_models_pp/Src/od_pp_centernet.c ****   float32_t raw_scale = pInput_static_param->raw_scale;
 312:../Middlewares/stm32-vision-models-postprocessing/lib_vision_models_pp/Src/od_pp_centernet.c ****   int8_t raw_zp = pInput_static_param->raw_zp;
 1464              		.loc 1 312 10 view .LVU512
 1465 002a 91F92430 		ldrsb	r3, [r1, #36]
 291:../Middlewares/stm32-vision-models-postprocessing/lib_vision_models_pp/Src/od_pp_centernet.c ****   int32_t error   = AI_VISION_MODELS_PP_ERROR_NO;
 1466              		.loc 1 291 1 view .LVU513
 1467 002e 91B0     		sub	sp, sp, #68
 1468              		.cfi_def_cfa_offset 120
 1469              		.loc 1 312 10 view .LVU514
 1470 0030 0393     		str	r3, [sp, #12]
 313:../Middlewares/stm32-vision-models-postprocessing/lib_vision_models_pp/Src/od_pp_centernet.c **** 
 314:../Middlewares/stm32-vision-models-postprocessing/lib_vision_models_pp/Src/od_pp_centernet.c **** 	/* Maps centers first */
 315:../Middlewares/stm32-vision-models-postprocessing/lib_vision_models_pp/Src/od_pp_centernet.c **** 	if (pInput_static_param->optim == AI_OD_CENTERNET_PP_OPTIM_ACCURACY)
 1471              		.loc 1 315 5 view .LVU515
 1472 0032 0B7E     		ldrb	r3, [r1, #24]	@ zero_extendqisi2
 291:../Middlewares/stm32-vision-models-postprocessing/lib_vision_models_pp/Src/od_pp_centernet.c ****   int32_t error   = AI_VISION_MODELS_PP_ERROR_NO;
 1473              		.loc 1 291 1 view .LVU516
 1474 0034 0C46     		mov	r4, r1
 1475              		.loc 1 315 5 view .LVU517
 1476 0036 012B     		cmp	r3, #1
 297:../Middlewares/stm32-vision-models-postprocessing/lib_vision_models_pp/Src/od_pp_centernet.c ****   int32_t conf_stride_right             = (pInput_static_param->nb_classifs + AI_CENTERNET_PP_CLASS
 1477              		.loc 1 297 13 view .LVU518
 1478 0038 C7EE279A 		vdiv.f32	s19, s14, s15
 1479              	.LVL135:
 298:../Middlewares/stm32-vision-models-postprocessing/lib_vision_models_pp/Src/od_pp_centernet.c ****   int32_t conf_stride_bottom            = conf_stride_right * pInput_static_param->grid_width;
 1480              		.loc 1 298 3 is_stmt 1 view .LVU519
 299:../Middlewares/stm32-vision-models-postprocessing/lib_vision_models_pp/Src/od_pp_centernet.c ****   centernet_pp_tmp_outBuffer_t *pOutput = (centernet_pp_tmp_outBuffer_t *)(pInput->pRaw_detections)
 1481              		.loc 1 299 3 view .LVU520
 300:../Middlewares/stm32-vision-models-postprocessing/lib_vision_models_pp/Src/od_pp_centernet.c **** 
 1482              		.loc 1 300 3 view .LVU521
 311:../Middlewares/stm32-vision-models-postprocessing/lib_vision_models_pp/Src/od_pp_centernet.c ****   int8_t raw_zp = pInput_static_param->raw_zp;
 1483              		.loc 1 311 13 is_stmt 0 view .LVU522
 1484 003c 91ED088A 		vldr.32	s16, [r1, #32]
 300:../Middlewares/stm32-vision-models-postprocessing/lib_vision_models_pp/Src/od_pp_centernet.c **** 
 1485              		.loc 1 300 33 view .LVU523
 1486 0040 D0F800A0 		ldr	r10, [r0]
 1487              	.LVL136:
 302:../Middlewares/stm32-vision-models-postprocessing/lib_vision_models_pp/Src/od_pp_centernet.c ****   int8_t *pConf_12     = (int8_t *)pConf_11     + conf_stride_right;
 1488              		.loc 1 302 3 is_stmt 1 view .LVU524
 303:../Middlewares/stm32-vision-models-postprocessing/lib_vision_models_pp/Src/od_pp_centernet.c ****   int8_t *pConf_13     = (int8_t *)pConf_12     + conf_stride_right;
 1489              		.loc 1 303 3 view .LVU525
 304:../Middlewares/stm32-vision-models-postprocessing/lib_vision_models_pp/Src/od_pp_centernet.c ****   int8_t *pConf_21     = (int8_t *)pConf_11     + conf_stride_bottom;
 1490              		.loc 1 304 3 view .LVU526
 305:../Middlewares/stm32-vision-models-postprocessing/lib_vision_models_pp/Src/od_pp_centernet.c **** 	int8_t *pConf_center = (int8_t *)pConf_21     + conf_stride_right;
 1491              		.loc 1 305 3 view .LVU527
 306:../Middlewares/stm32-vision-models-postprocessing/lib_vision_models_pp/Src/od_pp_centernet.c ****   int8_t *pConf_23     = (int8_t *)pConf_center + conf_stride_right;
 1492              		.loc 1 306 2 view .LVU528
 307:../Middlewares/stm32-vision-models-postprocessing/lib_vision_models_pp/Src/od_pp_centernet.c ****   int8_t *pConf_31     = (int8_t *)pConf_21     + conf_stride_bottom;
 1493              		.loc 1 307 3 view .LVU529
 308:../Middlewares/stm32-vision-models-postprocessing/lib_vision_models_pp/Src/od_pp_centernet.c ****   int8_t *pConf_32     = (int8_t *)pConf_31     + conf_stride_right;
 1494              		.loc 1 308 3 view .LVU530
 309:../Middlewares/stm32-vision-models-postprocessing/lib_vision_models_pp/Src/od_pp_centernet.c ****   int8_t *pConf_33     = (int8_t *)pConf_32     + conf_stride_right;
 1495              		.loc 1 309 3 view .LVU531
 310:../Middlewares/stm32-vision-models-postprocessing/lib_vision_models_pp/Src/od_pp_centernet.c ****   float32_t raw_scale = pInput_static_param->raw_scale;
 1496              		.loc 1 310 3 view .LVU532
ARM GAS  /tmp/ccXy3KAt.s 			page 38


 291:../Middlewares/stm32-vision-models-postprocessing/lib_vision_models_pp/Src/od_pp_centernet.c ****   int32_t error   = AI_VISION_MODELS_PP_ERROR_NO;
 1497              		.loc 1 291 1 is_stmt 0 view .LVU533
 1498 0044 0790     		str	r0, [sp, #28]
 1499 0046 4FEA4509 		lsl	r9, r5, #1
 1500              	.LVL137:
 311:../Middlewares/stm32-vision-models-postprocessing/lib_vision_models_pp/Src/od_pp_centernet.c ****   int8_t raw_zp = pInput_static_param->raw_zp;
 1501              		.loc 1 311 3 is_stmt 1 view .LVU534
 312:../Middlewares/stm32-vision-models-postprocessing/lib_vision_models_pp/Src/od_pp_centernet.c **** 
 1502              		.loc 1 312 3 view .LVU535
 1503              		.loc 1 315 2 view .LVU536
 1504              		.loc 1 315 5 is_stmt 0 view .LVU537
 1505 004a 16D1     		bne	.L73
 305:../Middlewares/stm32-vision-models-postprocessing/lib_vision_models_pp/Src/od_pp_centernet.c **** 	int8_t *pConf_center = (int8_t *)pConf_21     + conf_stride_right;
 1506              		.loc 1 305 11 view .LVU538
 1507 004c 0AEB0206 		add	r6, r10, r2
 1508              	.LVL138:
 308:../Middlewares/stm32-vision-models-postprocessing/lib_vision_models_pp/Src/od_pp_centernet.c ****   int8_t *pConf_32     = (int8_t *)pConf_31     + conf_stride_right;
 1509              		.loc 1 308 11 view .LVU539
 1510 0050 B718     		adds	r7, r6, r2
 310:../Middlewares/stm32-vision-models-postprocessing/lib_vision_models_pp/Src/od_pp_centernet.c ****   float32_t raw_scale = pInput_static_param->raw_scale;
 1511              		.loc 1 310 11 view .LVU540
 1512 0052 07EB0903 		add	r3, r7, r9
 302:../Middlewares/stm32-vision-models-postprocessing/lib_vision_models_pp/Src/od_pp_centernet.c ****   int8_t *pConf_12     = (int8_t *)pConf_11     + conf_stride_right;
 1513              		.loc 1 302 11 view .LVU541
 1514 0056 CDE904A3 		strd	r10, r3, [sp, #16]
 1515              	.LBB58:
 316:../Middlewares/stm32-vision-models-postprocessing/lib_vision_models_pp/Src/od_pp_centernet.c **** 	{
 317:../Middlewares/stm32-vision-models-postprocessing/lib_vision_models_pp/Src/od_pp_centernet.c ****     /* Applies an inplace bilinear upsampling with ratio of 2 after virtual downsampling by 2 */
 318:../Middlewares/stm32-vision-models-postprocessing/lib_vision_models_pp/Src/od_pp_centernet.c ****     for (int32_t col = 0; col < pInput_static_param->grid_height/2 - 1; ++col)
 1516              		.loc 1 318 18 view .LVU542
 1517 005a 0023     		movs	r3, #0
 1518              	.LBE58:
 303:../Middlewares/stm32-vision-models-postprocessing/lib_vision_models_pp/Src/od_pp_centernet.c ****   int8_t *pConf_13     = (int8_t *)pConf_12     + conf_stride_right;
 1519              		.loc 1 303 11 view .LVU543
 1520 005c 0AEB050E 		add	lr, r10, r5
 1521              	.LVL139:
 304:../Middlewares/stm32-vision-models-postprocessing/lib_vision_models_pp/Src/od_pp_centernet.c ****   int8_t *pConf_21     = (int8_t *)pConf_11     + conf_stride_bottom;
 1522              		.loc 1 304 11 view .LVU544
 1523 0060 0AEB450C 		add	ip, r10, r5, lsl #1
 306:../Middlewares/stm32-vision-models-postprocessing/lib_vision_models_pp/Src/od_pp_centernet.c ****   int8_t *pConf_23     = (int8_t *)pConf_center + conf_stride_right;
 1524              		.loc 1 306 10 view .LVU545
 1525 0064 06EB0508 		add	r8, r6, r5
 1526              	.LVL140:
 1527              	.L88:
 1528              	.LBB61:
 1529              		.loc 1 318 73 discriminator 2 view .LVU546
 1530 0068 0693     		str	r3, [sp, #24]
 1531              	.LVL141:
 1532              		.loc 1 318 31 is_stmt 1 discriminator 1 view .LVU547
 1533              		.loc 1 318 65 is_stmt 0 discriminator 1 view .LVU548
 1534 006a A368     		ldr	r3, [r4, #8]
 1535              	.LVL142:
 1536              		.loc 1 318 31 discriminator 1 view .LVU549
 1537 006c 0699     		ldr	r1, [sp, #24]
 1538              		.loc 1 318 65 discriminator 1 view .LVU550
 1539 006e 03EBD373 		add	r3, r3, r3, lsr #31
 1540 0072 5B10     		asrs	r3, r3, #1
ARM GAS  /tmp/ccXy3KAt.s 			page 39


 1541              		.loc 1 318 68 discriminator 1 view .LVU551
 1542 0074 013B     		subs	r3, r3, #1
 1543              		.loc 1 318 31 discriminator 1 view .LVU552
 1544 0076 8B42     		cmp	r3, r1
 1545 0078 7EDC     		bgt	.L85
 1546              	.LVL143:
 1547              	.L73:
 1548              		.loc 1 318 31 discriminator 1 view .LVU553
 1549              	.LBE61:
 319:../Middlewares/stm32-vision-models-postprocessing/lib_vision_models_pp/Src/od_pp_centernet.c **** 	  {
 320:../Middlewares/stm32-vision-models-postprocessing/lib_vision_models_pp/Src/od_pp_centernet.c ****       for (int32_t row = 0; row < pInput_static_param->grid_width/2 - 1; ++row)
 321:../Middlewares/stm32-vision-models-postprocessing/lib_vision_models_pp/Src/od_pp_centernet.c **** 		  {
 322:../Middlewares/stm32-vision-models-postprocessing/lib_vision_models_pp/Src/od_pp_centernet.c ****         *pConf_12 = (*pConf_11 + *pConf_13 + 1 ) / 2;
 323:../Middlewares/stm32-vision-models-postprocessing/lib_vision_models_pp/Src/od_pp_centernet.c ****         *pConf_21 = (*pConf_11 + *pConf_31 + 1 ) / 2;
 324:../Middlewares/stm32-vision-models-postprocessing/lib_vision_models_pp/Src/od_pp_centernet.c ****         *pConf_center = (*pConf_11 + *pConf_13 + *pConf_31 + *pConf_33 + 2 ) / 4;
 325:../Middlewares/stm32-vision-models-postprocessing/lib_vision_models_pp/Src/od_pp_centernet.c ****         pConf_11 += conf_stride_right * 2;
 326:../Middlewares/stm32-vision-models-postprocessing/lib_vision_models_pp/Src/od_pp_centernet.c ****         pConf_12 += conf_stride_right * 2;
 327:../Middlewares/stm32-vision-models-postprocessing/lib_vision_models_pp/Src/od_pp_centernet.c ****         pConf_13 += conf_stride_right * 2;
 328:../Middlewares/stm32-vision-models-postprocessing/lib_vision_models_pp/Src/od_pp_centernet.c ****         pConf_21 += conf_stride_right * 2;
 329:../Middlewares/stm32-vision-models-postprocessing/lib_vision_models_pp/Src/od_pp_centernet.c ****         pConf_center += conf_stride_right * 2;
 330:../Middlewares/stm32-vision-models-postprocessing/lib_vision_models_pp/Src/od_pp_centernet.c ****         pConf_31 += conf_stride_right * 2;
 331:../Middlewares/stm32-vision-models-postprocessing/lib_vision_models_pp/Src/od_pp_centernet.c ****         pConf_33 += conf_stride_right * 2;
 332:../Middlewares/stm32-vision-models-postprocessing/lib_vision_models_pp/Src/od_pp_centernet.c **** 			}
 333:../Middlewares/stm32-vision-models-postprocessing/lib_vision_models_pp/Src/od_pp_centernet.c **** 			pConf_11 += conf_stride_bottom;
 334:../Middlewares/stm32-vision-models-postprocessing/lib_vision_models_pp/Src/od_pp_centernet.c **** 			pConf_12 += conf_stride_bottom;
 335:../Middlewares/stm32-vision-models-postprocessing/lib_vision_models_pp/Src/od_pp_centernet.c **** 			pConf_13 += conf_stride_bottom;
 336:../Middlewares/stm32-vision-models-postprocessing/lib_vision_models_pp/Src/od_pp_centernet.c **** 			pConf_21 += conf_stride_bottom;
 337:../Middlewares/stm32-vision-models-postprocessing/lib_vision_models_pp/Src/od_pp_centernet.c **** 			pConf_center += conf_stride_bottom;
 338:../Middlewares/stm32-vision-models-postprocessing/lib_vision_models_pp/Src/od_pp_centernet.c **** 			pConf_31 += conf_stride_bottom;
 339:../Middlewares/stm32-vision-models-postprocessing/lib_vision_models_pp/Src/od_pp_centernet.c **** 			pConf_33 += conf_stride_bottom;
 340:../Middlewares/stm32-vision-models-postprocessing/lib_vision_models_pp/Src/od_pp_centernet.c **** 		}
 341:../Middlewares/stm32-vision-models-postprocessing/lib_vision_models_pp/Src/od_pp_centernet.c **** 	}
 342:../Middlewares/stm32-vision-models-postprocessing/lib_vision_models_pp/Src/od_pp_centernet.c **** 
 343:../Middlewares/stm32-vision-models-postprocessing/lib_vision_models_pp/Src/od_pp_centernet.c ****   /* Searches center detection everywhere but on the external border */
 344:../Middlewares/stm32-vision-models-postprocessing/lib_vision_models_pp/Src/od_pp_centernet.c ****   pConf_11     = (int8_t *)pInput->pRaw_detections + AI_CENTERNET_PP_CONFCENTER;
 1550              		.loc 1 344 3 is_stmt 1 view .LVU554
 345:../Middlewares/stm32-vision-models-postprocessing/lib_vision_models_pp/Src/od_pp_centernet.c ****   pConf_12     = (int8_t *)pConf_11     + conf_stride_right;
 346:../Middlewares/stm32-vision-models-postprocessing/lib_vision_models_pp/Src/od_pp_centernet.c ****   pConf_13     = (int8_t *)pConf_12     + conf_stride_right;
 347:../Middlewares/stm32-vision-models-postprocessing/lib_vision_models_pp/Src/od_pp_centernet.c ****   pConf_21     = (int8_t *)pConf_11     + conf_stride_bottom;
 348:../Middlewares/stm32-vision-models-postprocessing/lib_vision_models_pp/Src/od_pp_centernet.c **** 	pConf_center = (int8_t *)pConf_21     + conf_stride_right;
 349:../Middlewares/stm32-vision-models-postprocessing/lib_vision_models_pp/Src/od_pp_centernet.c ****   pConf_23     = (int8_t *)pConf_center + conf_stride_right;
 350:../Middlewares/stm32-vision-models-postprocessing/lib_vision_models_pp/Src/od_pp_centernet.c ****   pConf_31     = (int8_t *)pConf_21     + conf_stride_bottom;
 351:../Middlewares/stm32-vision-models-postprocessing/lib_vision_models_pp/Src/od_pp_centernet.c ****   pConf_32     = (int8_t *)pConf_31     + conf_stride_right;
 352:../Middlewares/stm32-vision-models-postprocessing/lib_vision_models_pp/Src/od_pp_centernet.c ****   pConf_33     = (int8_t *)pConf_32     + conf_stride_right;
 353:../Middlewares/stm32-vision-models-postprocessing/lib_vision_models_pp/Src/od_pp_centernet.c ****   const int8_t conf_threshold_s8 = (int8_t)(pInput_static_param->conf_threshold / raw_scale + 0.5f)
 1551              		.loc 1 353 81 is_stmt 0 view .LVU555
 1552 007a 94ED047A 		vldr.32	s14, [r4, #16]
 1553              		.loc 1 353 93 view .LVU556
 1554 007e F6EE008A 		vmov.f32	s17, #5.0e-1
 1555              		.loc 1 353 81 view .LVU557
 1556 0082 C7EE087A 		vdiv.f32	s15, s14, s16
 1557              		.loc 1 353 93 view .LVU558
 1558 0086 77EEA87A 		vadd.f32	s15, s15, s17
 1559              		.loc 1 353 36 view .LVU559
 1560 008a FDEEE77A 		vcvt.s32.f32	s15, s15
 344:../Middlewares/stm32-vision-models-postprocessing/lib_vision_models_pp/Src/od_pp_centernet.c ****   pConf_12     = (int8_t *)pConf_11     + conf_stride_right;
 1561              		.loc 1 344 16 view .LVU560
ARM GAS  /tmp/ccXy3KAt.s 			page 40


 1562 008e 079B     		ldr	r3, [sp, #28]
 1563 0090 1F68     		ldr	r7, [r3]
 1564              	.LVL144:
 345:../Middlewares/stm32-vision-models-postprocessing/lib_vision_models_pp/Src/od_pp_centernet.c ****   pConf_12     = (int8_t *)pConf_11     + conf_stride_right;
 1565              		.loc 1 345 3 is_stmt 1 view .LVU561
 345:../Middlewares/stm32-vision-models-postprocessing/lib_vision_models_pp/Src/od_pp_centernet.c ****   pConf_12     = (int8_t *)pConf_11     + conf_stride_right;
 1566              		.loc 1 345 16 is_stmt 0 view .LVU562
 1567 0092 7B19     		adds	r3, r7, r5
 347:../Middlewares/stm32-vision-models-postprocessing/lib_vision_models_pp/Src/od_pp_centernet.c **** 	pConf_center = (int8_t *)pConf_21     + conf_stride_right;
 1568              		.loc 1 347 16 view .LVU563
 1569 0094 07EB0208 		add	r8, r7, r2
 345:../Middlewares/stm32-vision-models-postprocessing/lib_vision_models_pp/Src/od_pp_centernet.c ****   pConf_12     = (int8_t *)pConf_11     + conf_stride_right;
 1570              		.loc 1 345 16 view .LVU564
 1571 0098 0893     		str	r3, [sp, #32]
 1572              	.LVL145:
 346:../Middlewares/stm32-vision-models-postprocessing/lib_vision_models_pp/Src/od_pp_centernet.c ****   pConf_21     = (int8_t *)pConf_11     + conf_stride_bottom;
 1573              		.loc 1 346 3 is_stmt 1 view .LVU565
 346:../Middlewares/stm32-vision-models-postprocessing/lib_vision_models_pp/Src/od_pp_centernet.c ****   pConf_21     = (int8_t *)pConf_11     + conf_stride_bottom;
 1574              		.loc 1 346 16 is_stmt 0 view .LVU566
 1575 009a 07EB4503 		add	r3, r7, r5, lsl #1
 1576              	.LVL146:
 346:../Middlewares/stm32-vision-models-postprocessing/lib_vision_models_pp/Src/od_pp_centernet.c ****   pConf_21     = (int8_t *)pConf_11     + conf_stride_bottom;
 1577              		.loc 1 346 16 view .LVU567
 1578 009e 0993     		str	r3, [sp, #36]
 1579              	.LVL147:
 347:../Middlewares/stm32-vision-models-postprocessing/lib_vision_models_pp/Src/od_pp_centernet.c **** 	pConf_center = (int8_t *)pConf_21     + conf_stride_right;
 1580              		.loc 1 347 3 is_stmt 1 view .LVU568
 348:../Middlewares/stm32-vision-models-postprocessing/lib_vision_models_pp/Src/od_pp_centernet.c ****   pConf_23     = (int8_t *)pConf_center + conf_stride_right;
 1581              		.loc 1 348 2 view .LVU569
 349:../Middlewares/stm32-vision-models-postprocessing/lib_vision_models_pp/Src/od_pp_centernet.c ****   pConf_31     = (int8_t *)pConf_21     + conf_stride_bottom;
 1582              		.loc 1 349 16 is_stmt 0 view .LVU570
 1583 00a0 08EB4503 		add	r3, r8, r5, lsl #1
 1584              	.LVL148:
 349:../Middlewares/stm32-vision-models-postprocessing/lib_vision_models_pp/Src/od_pp_centernet.c ****   pConf_31     = (int8_t *)pConf_21     + conf_stride_bottom;
 1585              		.loc 1 349 16 view .LVU571
 1586 00a4 0A93     		str	r3, [sp, #40]
 350:../Middlewares/stm32-vision-models-postprocessing/lib_vision_models_pp/Src/od_pp_centernet.c ****   pConf_32     = (int8_t *)pConf_31     + conf_stride_right;
 1587              		.loc 1 350 16 view .LVU572
 1588 00a6 08EB0203 		add	r3, r8, r2
 1589 00aa 0493     		str	r3, [sp, #16]
 351:../Middlewares/stm32-vision-models-postprocessing/lib_vision_models_pp/Src/od_pp_centernet.c ****   pConf_33     = (int8_t *)pConf_32     + conf_stride_right;
 1590              		.loc 1 351 16 view .LVU573
 1591 00ac 2B44     		add	r3, r3, r5
 1592 00ae 0B93     		str	r3, [sp, #44]
 352:../Middlewares/stm32-vision-models-postprocessing/lib_vision_models_pp/Src/od_pp_centernet.c ****   const int8_t conf_threshold_s8 = (int8_t)(pInput_static_param->conf_threshold / raw_scale + 0.5f)
 1593              		.loc 1 352 16 view .LVU574
 1594 00b0 049B     		ldr	r3, [sp, #16]
 1595              		.loc 1 353 101 view .LVU575
 1596 00b2 039A     		ldr	r2, [sp, #12]
 1597              	.LVL149:
 352:../Middlewares/stm32-vision-models-postprocessing/lib_vision_models_pp/Src/od_pp_centernet.c ****   const int8_t conf_threshold_s8 = (int8_t)(pInput_static_param->conf_threshold / raw_scale + 0.5f)
 1598              		.loc 1 352 16 view .LVU576
 1599 00b4 03EB450B 		add	fp, r3, r5, lsl #1
 1600              		.loc 1 353 36 view .LVU577
 1601 00b8 17EE903A 		vmov	r3, s15	@ int
 1602              		.loc 1 353 101 view .LVU578
 1603 00bc 1344     		add	r3, r3, r2
ARM GAS  /tmp/ccXy3KAt.s 			page 41


 1604              		.loc 1 353 16 view .LVU579
 1605 00be 5BB2     		sxtb	r3, r3
 1606 00c0 0C93     		str	r3, [sp, #48]
 1607              	.LBB62:
 354:../Middlewares/stm32-vision-models-postprocessing/lib_vision_models_pp/Src/od_pp_centernet.c **** 
 355:../Middlewares/stm32-vision-models-postprocessing/lib_vision_models_pp/Src/od_pp_centernet.c ****   for (int32_t col = 1; col < pInput_static_param->grid_height - 1; ++col)
 1608              		.loc 1 355 16 view .LVU580
 1609 00c2 0123     		movs	r3, #1
 1610 00c4 0593     		str	r3, [sp, #20]
 1611              	.LBE62:
 294:../Middlewares/stm32-vision-models-postprocessing/lib_vision_models_pp/Src/od_pp_centernet.c ****   int8_t score_center                = 0;
 1612              		.loc 1 294 11 view .LVU581
 1613 00c6 0023     		movs	r3, #0
 348:../Middlewares/stm32-vision-models-postprocessing/lib_vision_models_pp/Src/od_pp_centernet.c ****   pConf_23     = (int8_t *)pConf_center + conf_stride_right;
 1614              		.loc 1 348 15 view .LVU582
 1615 00c8 08EB0500 		add	r0, r8, r5
 1616              	.LVL150:
 349:../Middlewares/stm32-vision-models-postprocessing/lib_vision_models_pp/Src/od_pp_centernet.c ****   pConf_31     = (int8_t *)pConf_21     + conf_stride_bottom;
 1617              		.loc 1 349 3 is_stmt 1 view .LVU583
 350:../Middlewares/stm32-vision-models-postprocessing/lib_vision_models_pp/Src/od_pp_centernet.c ****   pConf_32     = (int8_t *)pConf_31     + conf_stride_right;
 1618              		.loc 1 350 3 view .LVU584
 351:../Middlewares/stm32-vision-models-postprocessing/lib_vision_models_pp/Src/od_pp_centernet.c ****   pConf_33     = (int8_t *)pConf_32     + conf_stride_right;
 1619              		.loc 1 351 3 view .LVU585
 352:../Middlewares/stm32-vision-models-postprocessing/lib_vision_models_pp/Src/od_pp_centernet.c ****   const int8_t conf_threshold_s8 = (int8_t)(pInput_static_param->conf_threshold / raw_scale + 0.5f)
 1620              		.loc 1 352 3 view .LVU586
 353:../Middlewares/stm32-vision-models-postprocessing/lib_vision_models_pp/Src/od_pp_centernet.c **** 
 1621              		.loc 1 353 3 view .LVU587
 1622              		.loc 1 355 3 view .LVU588
 1623              	.LBB68:
 1624              		.loc 1 355 8 view .LVU589
 1625              		.loc 1 355 8 is_stmt 0 view .LVU590
 1626              	.LBE68:
 294:../Middlewares/stm32-vision-models-postprocessing/lib_vision_models_pp/Src/od_pp_centernet.c ****   int8_t score_center                = 0;
 1627              		.loc 1 294 11 view .LVU591
 1628 00cc 0793     		str	r3, [sp, #28]
 1629              	.LVL151:
 1630              	.L78:
 1631              	.LBB69:
 1632              		.loc 1 355 29 is_stmt 1 discriminator 1 view .LVU592
 1633              		.loc 1 355 64 is_stmt 0 discriminator 1 view .LVU593
 1634 00ce A368     		ldr	r3, [r4, #8]
 1635              		.loc 1 355 29 discriminator 1 view .LVU594
 1636 00d0 059A     		ldr	r2, [sp, #20]
 1637              		.loc 1 355 64 discriminator 1 view .LVU595
 1638 00d2 013B     		subs	r3, r3, #1
 1639              		.loc 1 355 29 discriminator 1 view .LVU596
 1640 00d4 9342     		cmp	r3, r2
 1641 00d6 40F31F81 		ble	.L83
 1642              	.LBB63:
 356:../Middlewares/stm32-vision-models-postprocessing/lib_vision_models_pp/Src/od_pp_centernet.c ****   {
 357:../Middlewares/stm32-vision-models-postprocessing/lib_vision_models_pp/Src/od_pp_centernet.c ****       for (int32_t row = 1; row < pInput_static_param->grid_width - 1; ++row)
 1643              		.loc 1 357 20 view .LVU597
 1644 00da 0123     		movs	r3, #1
 1645              	.LBE63:
 355:../Middlewares/stm32-vision-models-postprocessing/lib_vision_models_pp/Src/od_pp_centernet.c ****   {
 1646              		.loc 1 355 29 discriminator 1 view .LVU598
 1647 00dc 0026     		movs	r6, #0
ARM GAS  /tmp/ccXy3KAt.s 			page 42


 1648 00de 0530     		adds	r0, r0, #5
 1649              	.LVL152:
 1650              	.LBB66:
 1651              		.loc 1 357 20 view .LVU599
 1652 00e0 0693     		str	r3, [sp, #24]
 1653 00e2 F1E0     		b	.L84
 1654              	.LVL153:
 1655              	.L76:
 1656              		.loc 1 357 20 view .LVU600
 1657              	.LBE66:
 1658              	.LBE69:
 1659              	.LBB70:
 1660              	.LBB59:
 322:../Middlewares/stm32-vision-models-postprocessing/lib_vision_models_pp/Src/od_pp_centernet.c ****         *pConf_21 = (*pConf_11 + *pConf_31 + 1 ) / 2;
 1661              		.loc 1 322 9 is_stmt 1 view .LVU601
 322:../Middlewares/stm32-vision-models-postprocessing/lib_vision_models_pp/Src/od_pp_centernet.c ****         *pConf_21 = (*pConf_11 + *pConf_31 + 1 ) / 2;
 1662              		.loc 1 322 22 is_stmt 0 view .LVU602
 1663 00e4 0499     		ldr	r1, [sp, #16]
 322:../Middlewares/stm32-vision-models-postprocessing/lib_vision_models_pp/Src/od_pp_centernet.c ****         *pConf_21 = (*pConf_11 + *pConf_31 + 1 ) / 2;
 1664              		.loc 1 322 34 view .LVU603
 1665 00e6 1CF903B0 		ldrsb	fp, [ip, r3]
 322:../Middlewares/stm32-vision-models-postprocessing/lib_vision_models_pp/Src/od_pp_centernet.c ****         *pConf_21 = (*pConf_11 + *pConf_31 + 1 ) / 2;
 1666              		.loc 1 322 22 view .LVU604
 1667 00ea C956     		ldrsb	r1, [r1, r3]
 322:../Middlewares/stm32-vision-models-postprocessing/lib_vision_models_pp/Src/od_pp_centernet.c ****         *pConf_21 = (*pConf_11 + *pConf_31 + 1 ) / 2;
 1668              		.loc 1 322 32 view .LVU605
 1669 00ec 5944     		add	r1, r1, fp
 322:../Middlewares/stm32-vision-models-postprocessing/lib_vision_models_pp/Src/od_pp_centernet.c ****         *pConf_21 = (*pConf_11 + *pConf_31 + 1 ) / 2;
 1670              		.loc 1 322 44 view .LVU606
 1671 00ee 0131     		adds	r1, r1, #1
 322:../Middlewares/stm32-vision-models-postprocessing/lib_vision_models_pp/Src/od_pp_centernet.c ****         *pConf_21 = (*pConf_11 + *pConf_31 + 1 ) / 2;
 1672              		.loc 1 322 50 view .LVU607
 1673 00f0 01EBD171 		add	r1, r1, r1, lsr #31
 1674 00f4 4910     		asrs	r1, r1, #1
 322:../Middlewares/stm32-vision-models-postprocessing/lib_vision_models_pp/Src/od_pp_centernet.c ****         *pConf_21 = (*pConf_11 + *pConf_31 + 1 ) / 2;
 1675              		.loc 1 322 19 view .LVU608
 1676 00f6 0EF80310 		strb	r1, [lr, r3]
 323:../Middlewares/stm32-vision-models-postprocessing/lib_vision_models_pp/Src/od_pp_centernet.c ****         *pConf_center = (*pConf_11 + *pConf_13 + *pConf_31 + *pConf_33 + 2 ) / 4;
 1677              		.loc 1 323 9 is_stmt 1 view .LVU609
 323:../Middlewares/stm32-vision-models-postprocessing/lib_vision_models_pp/Src/od_pp_centernet.c ****         *pConf_center = (*pConf_11 + *pConf_13 + *pConf_31 + *pConf_33 + 2 ) / 4;
 1678              		.loc 1 323 22 is_stmt 0 view .LVU610
 1679 00fa 0499     		ldr	r1, [sp, #16]
 323:../Middlewares/stm32-vision-models-postprocessing/lib_vision_models_pp/Src/od_pp_centernet.c ****         *pConf_center = (*pConf_11 + *pConf_13 + *pConf_31 + *pConf_33 + 2 ) / 4;
 1680              		.loc 1 323 34 view .LVU611
 1681 00fc 17F903B0 		ldrsb	fp, [r7, r3]
 323:../Middlewares/stm32-vision-models-postprocessing/lib_vision_models_pp/Src/od_pp_centernet.c ****         *pConf_center = (*pConf_11 + *pConf_13 + *pConf_31 + *pConf_33 + 2 ) / 4;
 1682              		.loc 1 323 22 view .LVU612
 1683 0100 C956     		ldrsb	r1, [r1, r3]
 323:../Middlewares/stm32-vision-models-postprocessing/lib_vision_models_pp/Src/od_pp_centernet.c ****         *pConf_center = (*pConf_11 + *pConf_13 + *pConf_31 + *pConf_33 + 2 ) / 4;
 1684              		.loc 1 323 32 view .LVU613
 1685 0102 5944     		add	r1, r1, fp
 323:../Middlewares/stm32-vision-models-postprocessing/lib_vision_models_pp/Src/od_pp_centernet.c ****         *pConf_center = (*pConf_11 + *pConf_13 + *pConf_31 + *pConf_33 + 2 ) / 4;
 1686              		.loc 1 323 44 view .LVU614
 1687 0104 0131     		adds	r1, r1, #1
 323:../Middlewares/stm32-vision-models-postprocessing/lib_vision_models_pp/Src/od_pp_centernet.c ****         *pConf_center = (*pConf_11 + *pConf_13 + *pConf_31 + *pConf_33 + 2 ) / 4;
 1688              		.loc 1 323 50 view .LVU615
 1689 0106 01EBD171 		add	r1, r1, r1, lsr #31
ARM GAS  /tmp/ccXy3KAt.s 			page 43


 1690 010a 4910     		asrs	r1, r1, #1
 323:../Middlewares/stm32-vision-models-postprocessing/lib_vision_models_pp/Src/od_pp_centernet.c ****         *pConf_center = (*pConf_11 + *pConf_13 + *pConf_31 + *pConf_33 + 2 ) / 4;
 1691              		.loc 1 323 19 view .LVU616
 1692 010c F154     		strb	r1, [r6, r3]
 324:../Middlewares/stm32-vision-models-postprocessing/lib_vision_models_pp/Src/od_pp_centernet.c ****         pConf_11 += conf_stride_right * 2;
 1693              		.loc 1 324 9 is_stmt 1 view .LVU617
 324:../Middlewares/stm32-vision-models-postprocessing/lib_vision_models_pp/Src/od_pp_centernet.c ****         pConf_11 += conf_stride_right * 2;
 1694              		.loc 1 324 26 is_stmt 0 view .LVU618
 1695 010e 0499     		ldr	r1, [sp, #16]
 1696 0110 11F903B0 		ldrsb	fp, [r1, r3]
 324:../Middlewares/stm32-vision-models-postprocessing/lib_vision_models_pp/Src/od_pp_centernet.c ****         pConf_11 += conf_stride_right * 2;
 1697              		.loc 1 324 38 view .LVU619
 1698 0114 1CF90310 		ldrsb	r1, [ip, r3]
 324:../Middlewares/stm32-vision-models-postprocessing/lib_vision_models_pp/Src/od_pp_centernet.c ****         pConf_11 += conf_stride_right * 2;
 1699              		.loc 1 324 36 view .LVU620
 1700 0118 5944     		add	r1, r1, fp
 324:../Middlewares/stm32-vision-models-postprocessing/lib_vision_models_pp/Src/od_pp_centernet.c ****         pConf_11 += conf_stride_right * 2;
 1701              		.loc 1 324 50 view .LVU621
 1702 011a 17F903B0 		ldrsb	fp, [r7, r3]
 324:../Middlewares/stm32-vision-models-postprocessing/lib_vision_models_pp/Src/od_pp_centernet.c ****         pConf_11 += conf_stride_right * 2;
 1703              		.loc 1 324 48 view .LVU622
 1704 011e 8B44     		add	fp, fp, r1
 324:../Middlewares/stm32-vision-models-postprocessing/lib_vision_models_pp/Src/od_pp_centernet.c ****         pConf_11 += conf_stride_right * 2;
 1705              		.loc 1 324 62 view .LVU623
 1706 0120 0599     		ldr	r1, [sp, #20]
 1707 0122 C956     		ldrsb	r1, [r1, r3]
 324:../Middlewares/stm32-vision-models-postprocessing/lib_vision_models_pp/Src/od_pp_centernet.c ****         pConf_11 += conf_stride_right * 2;
 1708              		.loc 1 324 60 view .LVU624
 1709 0124 5944     		add	r1, r1, fp
 324:../Middlewares/stm32-vision-models-postprocessing/lib_vision_models_pp/Src/od_pp_centernet.c ****         pConf_11 += conf_stride_right * 2;
 1710              		.loc 1 324 78 view .LVU625
 1711 0126 01F1050B 		add	fp, r1, #5
 1712 012a 0231     		adds	r1, r1, #2
 1713 012c 48BF     		it	mi
 1714 012e 5946     		movmi	r1, fp
 1715 0130 8910     		asrs	r1, r1, #2
 324:../Middlewares/stm32-vision-models-postprocessing/lib_vision_models_pp/Src/od_pp_centernet.c ****         pConf_11 += conf_stride_right * 2;
 1716              		.loc 1 324 23 view .LVU626
 1717 0132 08F80310 		strb	r1, [r8, r3]
 325:../Middlewares/stm32-vision-models-postprocessing/lib_vision_models_pp/Src/od_pp_centernet.c ****         pConf_12 += conf_stride_right * 2;
 1718              		.loc 1 325 9 is_stmt 1 view .LVU627
 1719              	.LVL154:
 326:../Middlewares/stm32-vision-models-postprocessing/lib_vision_models_pp/Src/od_pp_centernet.c ****         pConf_13 += conf_stride_right * 2;
 1720              		.loc 1 326 9 view .LVU628
 327:../Middlewares/stm32-vision-models-postprocessing/lib_vision_models_pp/Src/od_pp_centernet.c ****         pConf_21 += conf_stride_right * 2;
 1721              		.loc 1 327 9 view .LVU629
 328:../Middlewares/stm32-vision-models-postprocessing/lib_vision_models_pp/Src/od_pp_centernet.c ****         pConf_center += conf_stride_right * 2;
 1722              		.loc 1 328 9 view .LVU630
 329:../Middlewares/stm32-vision-models-postprocessing/lib_vision_models_pp/Src/od_pp_centernet.c ****         pConf_31 += conf_stride_right * 2;
 1723              		.loc 1 329 9 view .LVU631
 330:../Middlewares/stm32-vision-models-postprocessing/lib_vision_models_pp/Src/od_pp_centernet.c ****         pConf_33 += conf_stride_right * 2;
 1724              		.loc 1 330 9 view .LVU632
 331:../Middlewares/stm32-vision-models-postprocessing/lib_vision_models_pp/Src/od_pp_centernet.c **** 			}
 1725              		.loc 1 331 9 view .LVU633
 320:../Middlewares/stm32-vision-models-postprocessing/lib_vision_models_pp/Src/od_pp_centernet.c **** 		  {
 1726              		.loc 1 320 74 discriminator 3 view .LVU634
 1727 0136 0146     		mov	r1, r0
ARM GAS  /tmp/ccXy3KAt.s 			page 44


 1728 0138 0131     		adds	r1, r1, #1
 1729 013a 0846     		mov	r0, r1
 1730              	.LVL155:
 320:../Middlewares/stm32-vision-models-postprocessing/lib_vision_models_pp/Src/od_pp_centernet.c **** 		  {
 1731              		.loc 1 320 74 is_stmt 0 discriminator 3 view .LVU635
 1732 013c 4B44     		add	r3, r3, r9
 1733              	.LVL156:
 1734              	.L77:
 320:../Middlewares/stm32-vision-models-postprocessing/lib_vision_models_pp/Src/od_pp_centernet.c **** 		  {
 1735              		.loc 1 320 33 is_stmt 1 discriminator 1 view .LVU636
 320:../Middlewares/stm32-vision-models-postprocessing/lib_vision_models_pp/Src/od_pp_centernet.c **** 		  {
 1736              		.loc 1 320 66 is_stmt 0 discriminator 1 view .LVU637
 1737 013e 6168     		ldr	r1, [r4, #4]
 1738 0140 01EBD171 		add	r1, r1, r1, lsr #31
 1739 0144 4910     		asrs	r1, r1, #1
 320:../Middlewares/stm32-vision-models-postprocessing/lib_vision_models_pp/Src/od_pp_centernet.c **** 		  {
 1740              		.loc 1 320 69 discriminator 1 view .LVU638
 1741 0146 0139     		subs	r1, r1, #1
 320:../Middlewares/stm32-vision-models-postprocessing/lib_vision_models_pp/Src/od_pp_centernet.c **** 		  {
 1742              		.loc 1 320 33 discriminator 1 view .LVU639
 1743 0148 8142     		cmp	r1, r0
 1744 014a CBDC     		bgt	.L76
 1745              	.LBE59:
 333:../Middlewares/stm32-vision-models-postprocessing/lib_vision_models_pp/Src/od_pp_centernet.c **** 			pConf_12 += conf_stride_bottom;
 1746              		.loc 1 333 4 is_stmt 1 view .LVU640
 1747 014c 0498     		ldr	r0, [sp, #16]
 1748              	.LVL157:
 333:../Middlewares/stm32-vision-models-postprocessing/lib_vision_models_pp/Src/od_pp_centernet.c **** 			pConf_12 += conf_stride_bottom;
 1749              		.loc 1 333 4 is_stmt 0 view .LVU641
 1750 014e 9E44     		add	lr, lr, r3
 1751 0150 1844     		add	r0, r0, r3
 333:../Middlewares/stm32-vision-models-postprocessing/lib_vision_models_pp/Src/od_pp_centernet.c **** 			pConf_12 += conf_stride_bottom;
 1752              		.loc 1 333 13 view .LVU642
 1753 0152 8118     		adds	r1, r0, r2
 1754 0154 0491     		str	r1, [sp, #16]
 1755              	.LVL158:
 334:../Middlewares/stm32-vision-models-postprocessing/lib_vision_models_pp/Src/od_pp_centernet.c **** 			pConf_13 += conf_stride_bottom;
 1756              		.loc 1 334 4 is_stmt 1 view .LVU643
 1757 0156 0599     		ldr	r1, [sp, #20]
 1758              	.LVL159:
 334:../Middlewares/stm32-vision-models-postprocessing/lib_vision_models_pp/Src/od_pp_centernet.c **** 			pConf_13 += conf_stride_bottom;
 1759              		.loc 1 334 4 is_stmt 0 view .LVU644
 1760 0158 9C44     		add	ip, ip, r3
 1761 015a 1944     		add	r1, r1, r3
 1762 015c 1E44     		add	r6, r6, r3
 1763 015e 9844     		add	r8, r8, r3
 1764 0160 1F44     		add	r7, r7, r3
 1765 0162 0B46     		mov	r3, r1
 339:../Middlewares/stm32-vision-models-postprocessing/lib_vision_models_pp/Src/od_pp_centernet.c **** 		}
 1766              		.loc 1 339 13 view .LVU645
 1767 0164 1344     		add	r3, r3, r2
 1768 0166 0593     		str	r3, [sp, #20]
 318:../Middlewares/stm32-vision-models-postprocessing/lib_vision_models_pp/Src/od_pp_centernet.c **** 	  {
 1769              		.loc 1 318 73 discriminator 2 view .LVU646
 1770 0168 069B     		ldr	r3, [sp, #24]
 334:../Middlewares/stm32-vision-models-postprocessing/lib_vision_models_pp/Src/od_pp_centernet.c **** 			pConf_13 += conf_stride_bottom;
 1771              		.loc 1 334 13 view .LVU647
ARM GAS  /tmp/ccXy3KAt.s 			page 45


 1772 016a 9644     		add	lr, lr, r2
 1773              	.LVL160:
 335:../Middlewares/stm32-vision-models-postprocessing/lib_vision_models_pp/Src/od_pp_centernet.c **** 			pConf_21 += conf_stride_bottom;
 1774              		.loc 1 335 4 is_stmt 1 view .LVU648
 335:../Middlewares/stm32-vision-models-postprocessing/lib_vision_models_pp/Src/od_pp_centernet.c **** 			pConf_21 += conf_stride_bottom;
 1775              		.loc 1 335 13 is_stmt 0 view .LVU649
 1776 016c 9444     		add	ip, ip, r2
 1777              	.LVL161:
 336:../Middlewares/stm32-vision-models-postprocessing/lib_vision_models_pp/Src/od_pp_centernet.c **** 			pConf_center += conf_stride_bottom;
 1778              		.loc 1 336 4 is_stmt 1 view .LVU650
 336:../Middlewares/stm32-vision-models-postprocessing/lib_vision_models_pp/Src/od_pp_centernet.c **** 			pConf_center += conf_stride_bottom;
 1779              		.loc 1 336 13 is_stmt 0 view .LVU651
 1780 016e 1644     		add	r6, r6, r2
 1781              	.LVL162:
 337:../Middlewares/stm32-vision-models-postprocessing/lib_vision_models_pp/Src/od_pp_centernet.c **** 			pConf_31 += conf_stride_bottom;
 1782              		.loc 1 337 4 is_stmt 1 view .LVU652
 337:../Middlewares/stm32-vision-models-postprocessing/lib_vision_models_pp/Src/od_pp_centernet.c **** 			pConf_31 += conf_stride_bottom;
 1783              		.loc 1 337 17 is_stmt 0 view .LVU653
 1784 0170 9044     		add	r8, r8, r2
 1785              	.LVL163:
 338:../Middlewares/stm32-vision-models-postprocessing/lib_vision_models_pp/Src/od_pp_centernet.c **** 			pConf_33 += conf_stride_bottom;
 1786              		.loc 1 338 4 is_stmt 1 view .LVU654
 338:../Middlewares/stm32-vision-models-postprocessing/lib_vision_models_pp/Src/od_pp_centernet.c **** 			pConf_33 += conf_stride_bottom;
 1787              		.loc 1 338 13 is_stmt 0 view .LVU655
 1788 0172 1744     		add	r7, r7, r2
 1789              	.LVL164:
 339:../Middlewares/stm32-vision-models-postprocessing/lib_vision_models_pp/Src/od_pp_centernet.c **** 		}
 1790              		.loc 1 339 4 is_stmt 1 view .LVU656
 318:../Middlewares/stm32-vision-models-postprocessing/lib_vision_models_pp/Src/od_pp_centernet.c **** 	  {
 1791              		.loc 1 318 73 discriminator 2 view .LVU657
 1792 0174 0133     		adds	r3, r3, #1
 1793 0176 77E7     		b	.L88
 1794              	.LVL165:
 1795              	.L85:
 318:../Middlewares/stm32-vision-models-postprocessing/lib_vision_models_pp/Src/od_pp_centernet.c **** 	  {
 1796              		.loc 1 318 73 is_stmt 0 discriminator 2 view .LVU658
 1797 0178 0023     		movs	r3, #0
 1798              	.LBB60:
 320:../Middlewares/stm32-vision-models-postprocessing/lib_vision_models_pp/Src/od_pp_centernet.c **** 		  {
 1799              		.loc 1 320 20 view .LVU659
 1800 017a 1846     		mov	r0, r3
 1801 017c DFE7     		b	.L77
 1802              	.LVL166:
 1803              	.L82:
 320:../Middlewares/stm32-vision-models-postprocessing/lib_vision_models_pp/Src/od_pp_centernet.c **** 		  {
 1804              		.loc 1 320 20 view .LVU660
 1805              	.LBE60:
 1806              	.LBE70:
 1807              	.LBB71:
 1808              	.LBB67:
 358:../Middlewares/stm32-vision-models-postprocessing/lib_vision_models_pp/Src/od_pp_centernet.c ****       {
 359:../Middlewares/stm32-vision-models-postprocessing/lib_vision_models_pp/Src/od_pp_centernet.c ****           /* Get Peaks */
 360:../Middlewares/stm32-vision-models-postprocessing/lib_vision_models_pp/Src/od_pp_centernet.c ****           score_center = *pConf_center;
 1809              		.loc 1 360 11 is_stmt 1 view .LVU661
 1810              		.loc 1 360 24 is_stmt 0 view .LVU662
 1811 017e 10F9053C 		ldrsb	r3, [r0, #-5]
 1812              	.LVL167:
ARM GAS  /tmp/ccXy3KAt.s 			page 46


 361:../Middlewares/stm32-vision-models-postprocessing/lib_vision_models_pp/Src/od_pp_centernet.c ****           if ((score_center >= *pConf_11) &&
 1813              		.loc 1 361 11 is_stmt 1 view .LVU663
 1814              		.loc 1 361 14 is_stmt 0 view .LVU664
 1815 0182 BA57     		ldrsb	r2, [r7, r6]
 1816              	.LVL168:
 1817              		.loc 1 361 14 view .LVU665
 1818 0184 9A42     		cmp	r2, r3
 1819 0186 00F39A80 		bgt	.L79
 1820              		.loc 1 361 43 discriminator 1 view .LVU666
 1821 018a 089A     		ldr	r2, [sp, #32]
 1822 018c 9257     		ldrsb	r2, [r2, r6]
 1823 018e 9A42     		cmp	r2, r3
 1824 0190 00F39580 		bgt	.L79
 362:../Middlewares/stm32-vision-models-postprocessing/lib_vision_models_pp/Src/od_pp_centernet.c ****               (score_center >= *pConf_12) &&
 1825              		.loc 1 362 43 view .LVU667
 1826 0194 099A     		ldr	r2, [sp, #36]
 1827 0196 9257     		ldrsb	r2, [r2, r6]
 1828 0198 9A42     		cmp	r2, r3
 1829 019a 00F39080 		bgt	.L79
 363:../Middlewares/stm32-vision-models-postprocessing/lib_vision_models_pp/Src/od_pp_centernet.c ****               (score_center >= *pConf_13) &&
 1830              		.loc 1 363 43 view .LVU668
 1831 019e 18F90620 		ldrsb	r2, [r8, r6]
 1832 01a2 9A42     		cmp	r2, r3
 1833 01a4 00F38B80 		bgt	.L79
 364:../Middlewares/stm32-vision-models-postprocessing/lib_vision_models_pp/Src/od_pp_centernet.c ****               (score_center >= *pConf_21) &&
 1834              		.loc 1 364 43 view .LVU669
 1835 01a8 0A9A     		ldr	r2, [sp, #40]
 1836 01aa 9257     		ldrsb	r2, [r2, r6]
 1837 01ac 9A42     		cmp	r2, r3
 1838 01ae 00F38680 		bgt	.L79
 365:../Middlewares/stm32-vision-models-postprocessing/lib_vision_models_pp/Src/od_pp_centernet.c ****               (score_center >= *pConf_23) &&
 1839              		.loc 1 365 43 view .LVU670
 1840 01b2 049A     		ldr	r2, [sp, #16]
 1841 01b4 9257     		ldrsb	r2, [r2, r6]
 1842 01b6 9A42     		cmp	r2, r3
 1843 01b8 00F38180 		bgt	.L79
 366:../Middlewares/stm32-vision-models-postprocessing/lib_vision_models_pp/Src/od_pp_centernet.c ****               (score_center >= *pConf_31) &&
 1844              		.loc 1 366 43 view .LVU671
 1845 01bc 0B9A     		ldr	r2, [sp, #44]
 1846 01be 9257     		ldrsb	r2, [r2, r6]
 1847 01c0 9A42     		cmp	r2, r3
 1848 01c2 7CDC     		bgt	.L79
 367:../Middlewares/stm32-vision-models-postprocessing/lib_vision_models_pp/Src/od_pp_centernet.c ****               (score_center >= *pConf_32) &&
 1849              		.loc 1 367 43 view .LVU672
 1850 01c4 1BF90620 		ldrsb	r2, [fp, r6]
 1851 01c8 9A42     		cmp	r2, r3
 1852 01ca 78DC     		bgt	.L79
 368:../Middlewares/stm32-vision-models-postprocessing/lib_vision_models_pp/Src/od_pp_centernet.c ****               (score_center >= *pConf_33) &&
 1853              		.loc 1 368 43 view .LVU673
 1854 01cc 0C9A     		ldr	r2, [sp, #48]
 1855 01ce 9A42     		cmp	r2, r3
 1856 01d0 75DA     		bge	.L79
 1857              	.LBB64:
 369:../Middlewares/stm32-vision-models-postprocessing/lib_vision_models_pp/Src/od_pp_centernet.c ****               (score_center > conf_threshold_s8 /*pInput_static_param->conf_threshold*/))
 370:../Middlewares/stm32-vision-models-postprocessing/lib_vision_models_pp/Src/od_pp_centernet.c ****           {
 371:../Middlewares/stm32-vision-models-postprocessing/lib_vision_models_pp/Src/od_pp_centernet.c ****               /* A detection center is kept since higher than its 8 neighbors and the threshold */
 372:../Middlewares/stm32-vision-models-postprocessing/lib_vision_models_pp/Src/od_pp_centernet.c ****               float32_t x_offset = (float32_t)((int32_t)pConf_center[AI_CENTERNET_PP_XOFFSET] - raw
ARM GAS  /tmp/ccXy3KAt.s 			page 47


 1858              		.loc 1 372 15 is_stmt 1 view .LVU674
 1859              	.LVL169:
 373:../Middlewares/stm32-vision-models-postprocessing/lib_vision_models_pp/Src/od_pp_centernet.c ****               float32_t y_offset = (float32_t)((int32_t)pConf_center[AI_CENTERNET_PP_YOFFSET] - raw
 1860              		.loc 1 373 15 view .LVU675
 374:../Middlewares/stm32-vision-models-postprocessing/lib_vision_models_pp/Src/od_pp_centernet.c ****               float32_t b_x = row * grid_width_inv + x_offset;
 1861              		.loc 1 374 15 view .LVU676
 375:../Middlewares/stm32-vision-models-postprocessing/lib_vision_models_pp/Src/od_pp_centernet.c ****               float32_t b_y = col * grid_height_inv + y_offset;
 1862              		.loc 1 375 15 view .LVU677
 373:../Middlewares/stm32-vision-models-postprocessing/lib_vision_models_pp/Src/od_pp_centernet.c ****               float32_t y_offset = (float32_t)((int32_t)pConf_center[AI_CENTERNET_PP_YOFFSET] - raw
 1863              		.loc 1 373 95 is_stmt 0 view .LVU678
 1864 01d2 0399     		ldr	r1, [sp, #12]
 373:../Middlewares/stm32-vision-models-postprocessing/lib_vision_models_pp/Src/od_pp_centernet.c ****               float32_t y_offset = (float32_t)((int32_t)pConf_center[AI_CENTERNET_PP_YOFFSET] - raw
 1865              		.loc 1 373 48 view .LVU679
 1866 01d4 10F9012C 		ldrsb	r2, [r0, #-1]
 1867              	.LVL170:
 1868              		.loc 1 375 35 view .LVU680
 1869 01d8 9DED057A 		vldr.32	s14, [sp, #20]	@ int
 373:../Middlewares/stm32-vision-models-postprocessing/lib_vision_models_pp/Src/od_pp_centernet.c ****               float32_t y_offset = (float32_t)((int32_t)pConf_center[AI_CENTERNET_PP_YOFFSET] - raw
 1870              		.loc 1 373 95 view .LVU681
 1871 01dc 521A     		subs	r2, r2, r1
 1872              	.LVL171:
 373:../Middlewares/stm32-vision-models-postprocessing/lib_vision_models_pp/Src/od_pp_centernet.c ****               float32_t y_offset = (float32_t)((int32_t)pConf_center[AI_CENTERNET_PP_YOFFSET] - raw
 1873              		.loc 1 373 95 view .LVU682
 1874 01de 07EE902A 		vmov	s15, r2	@ int
 1875              		.loc 1 375 35 view .LVU683
 1876 01e2 F8EEC76A 		vcvt.f32.s32	s13, s14
 373:../Middlewares/stm32-vision-models-postprocessing/lib_vision_models_pp/Src/od_pp_centernet.c ****               float32_t y_offset = (float32_t)((int32_t)pConf_center[AI_CENTERNET_PP_YOFFSET] - raw
 1877              		.loc 1 373 36 view .LVU684
 1878 01e6 F8EEE77A 		vcvt.f32.s32	s15, s15
 1879              		.loc 1 375 35 view .LVU685
 1880 01ea 66EEA96A 		vmul.f32	s13, s13, s19
 373:../Middlewares/stm32-vision-models-postprocessing/lib_vision_models_pp/Src/od_pp_centernet.c ****               float32_t y_offset = (float32_t)((int32_t)pConf_center[AI_CENTERNET_PP_YOFFSET] - raw
 1881              		.loc 1 373 106 view .LVU686
 1882 01ee 67EE887A 		vmul.f32	s15, s15, s16
 376:../Middlewares/stm32-vision-models-postprocessing/lib_vision_models_pp/Src/od_pp_centernet.c ****               float32_t b_w = (float32_t)((int32_t)pConf_center[AI_CENTERNET_PP_WIDTH] - raw_zp ) *
 377:../Middlewares/stm32-vision-models-postprocessing/lib_vision_models_pp/Src/od_pp_centernet.c ****               float32_t b_h = (float32_t)((int32_t)pConf_center[AI_CENTERNET_PP_HEIGHT] - raw_zp ) 
 1883              		.loc 1 377 43 view .LVU687
 1884 01f2 10F9032C 		ldrsb	r2, [r0, #-3]
 375:../Middlewares/stm32-vision-models-postprocessing/lib_vision_models_pp/Src/od_pp_centernet.c ****               float32_t b_y = col * grid_height_inv + y_offset;
 1885              		.loc 1 375 25 view .LVU688
 1886 01f6 E7EEA96A 		vfma.f32	s13, s15, s19
 1887              	.LVL172:
 376:../Middlewares/stm32-vision-models-postprocessing/lib_vision_models_pp/Src/od_pp_centernet.c ****               float32_t b_w = (float32_t)((int32_t)pConf_center[AI_CENTERNET_PP_WIDTH] - raw_zp ) *
 1888              		.loc 1 376 15 is_stmt 1 view .LVU689
 1889              		.loc 1 377 15 view .LVU690
 1890              		.loc 1 377 89 is_stmt 0 view .LVU691
 1891 01fa 521A     		subs	r2, r2, r1
 1892 01fc 07EE902A 		vmov	s15, r2	@ int
 1893              		.loc 1 377 31 view .LVU692
 1894 0200 F8EEE77A 		vcvt.f32.s32	s15, s15
 1895              		.loc 1 377 100 view .LVU693
 1896 0204 67EE887A 		vmul.f32	s15, s15, s16
 378:../Middlewares/stm32-vision-models-postprocessing/lib_vision_models_pp/Src/od_pp_centernet.c ****               float32_t x1 = b_x - b_w / 2.0f;
 379:../Middlewares/stm32-vision-models-postprocessing/lib_vision_models_pp/Src/od_pp_centernet.c ****               float32_t y1 = b_y - b_h / 2.0f;
 1897              		.loc 1 379 25 view .LVU694
 1898 0208 B0EE666A 		vmov.f32	s12, s13
 377:../Middlewares/stm32-vision-models-postprocessing/lib_vision_models_pp/Src/od_pp_centernet.c ****               float32_t x1 = b_x - b_w / 2.0f;
ARM GAS  /tmp/ccXy3KAt.s 			page 48


 1899              		.loc 1 377 25 view .LVU695
 1900 020c 67EEA97A 		vmul.f32	s15, s15, s19
 1901              	.LVL173:
 378:../Middlewares/stm32-vision-models-postprocessing/lib_vision_models_pp/Src/od_pp_centernet.c ****               float32_t x1 = b_x - b_w / 2.0f;
 1902              		.loc 1 378 15 is_stmt 1 view .LVU696
 1903              		.loc 1 379 15 view .LVU697
 1904              		.loc 1 379 25 is_stmt 0 view .LVU698
 1905 0210 A7EEE86A 		vfms.f32	s12, s15, s17
 1906              	.LVL174:
 380:../Middlewares/stm32-vision-models-postprocessing/lib_vision_models_pp/Src/od_pp_centernet.c ****               float32_t x2 = b_x + b_w / 2.0f;
 1907              		.loc 1 380 15 is_stmt 1 view .LVU699
 381:../Middlewares/stm32-vision-models-postprocessing/lib_vision_models_pp/Src/od_pp_centernet.c ****               float32_t y2 = b_y + b_h / 2.0f;
 1908              		.loc 1 381 15 view .LVU700
 1909              		.loc 1 381 25 is_stmt 0 view .LVU701
 1910 0214 E7EEA86A 		vfma.f32	s13, s15, s17
 1911              	.LVL175:
 382:../Middlewares/stm32-vision-models-postprocessing/lib_vision_models_pp/Src/od_pp_centernet.c ****               if ((y2 > y1) &&
 1912              		.loc 1 382 15 is_stmt 1 view .LVU702
 1913              		.loc 1 382 18 is_stmt 0 view .LVU703
 1914 0218 B4EEE66A 		vcmpe.f32	s12, s13
 1915 021c F1EE10FA 		vmrs	APSR_nzcv, FPSCR
 1916 0220 4DD5     		bpl	.L79
 372:../Middlewares/stm32-vision-models-postprocessing/lib_vision_models_pp/Src/od_pp_centernet.c ****               float32_t y_offset = (float32_t)((int32_t)pConf_center[AI_CENTERNET_PP_YOFFSET] - raw
 1917              		.loc 1 372 48 view .LVU704
 1918 0222 10F9022C 		ldrsb	r2, [r0, #-2]
 374:../Middlewares/stm32-vision-models-postprocessing/lib_vision_models_pp/Src/od_pp_centernet.c ****               float32_t b_y = col * grid_height_inv + y_offset;
 1919              		.loc 1 374 25 view .LVU705
 1920 0226 9DED067A 		vldr.32	s14, [sp, #24]	@ int
 1921              	.LVL176:
 372:../Middlewares/stm32-vision-models-postprocessing/lib_vision_models_pp/Src/od_pp_centernet.c ****               float32_t y_offset = (float32_t)((int32_t)pConf_center[AI_CENTERNET_PP_YOFFSET] - raw
 1922              		.loc 1 372 95 view .LVU706
 1923 022a 521A     		subs	r2, r2, r1
 1924 022c 07EE902A 		vmov	s15, r2	@ int
 1925              	.LVL177:
 372:../Middlewares/stm32-vision-models-postprocessing/lib_vision_models_pp/Src/od_pp_centernet.c ****               float32_t y_offset = (float32_t)((int32_t)pConf_center[AI_CENTERNET_PP_YOFFSET] - raw
 1926              		.loc 1 372 36 view .LVU707
 1927 0230 F8EEE77A 		vcvt.f32.s32	s15, s15
 372:../Middlewares/stm32-vision-models-postprocessing/lib_vision_models_pp/Src/od_pp_centernet.c ****               float32_t y_offset = (float32_t)((int32_t)pConf_center[AI_CENTERNET_PP_YOFFSET] - raw
 1928              		.loc 1 372 106 view .LVU708
 1929 0234 67EE887A 		vmul.f32	s15, s15, s16
 374:../Middlewares/stm32-vision-models-postprocessing/lib_vision_models_pp/Src/od_pp_centernet.c ****               float32_t b_y = col * grid_height_inv + y_offset;
 1930              		.loc 1 374 25 view .LVU709
 1931 0238 B8EEC77A 		vcvt.f32.s32	s14, s14
 372:../Middlewares/stm32-vision-models-postprocessing/lib_vision_models_pp/Src/od_pp_centernet.c ****               float32_t y_offset = (float32_t)((int32_t)pConf_center[AI_CENTERNET_PP_YOFFSET] - raw
 1932              		.loc 1 372 25 view .LVU710
 1933 023c 67EE897A 		vmul.f32	s15, s15, s18
 376:../Middlewares/stm32-vision-models-postprocessing/lib_vision_models_pp/Src/od_pp_centernet.c ****               float32_t b_h = (float32_t)((int32_t)pConf_center[AI_CENTERNET_PP_HEIGHT] - raw_zp ) 
 1934              		.loc 1 376 43 view .LVU711
 1935 0240 10F9042C 		ldrsb	r2, [r0, #-4]
 374:../Middlewares/stm32-vision-models-postprocessing/lib_vision_models_pp/Src/od_pp_centernet.c ****               float32_t b_y = col * grid_height_inv + y_offset;
 1936              		.loc 1 374 25 view .LVU712
 1937 0244 E7EE097A 		vfma.f32	s15, s14, s18
 376:../Middlewares/stm32-vision-models-postprocessing/lib_vision_models_pp/Src/od_pp_centernet.c ****               float32_t b_h = (float32_t)((int32_t)pConf_center[AI_CENTERNET_PP_HEIGHT] - raw_zp ) 
 1938              		.loc 1 376 88 view .LVU713
 1939 0248 521A     		subs	r2, r2, r1
 1940 024a 07EE102A 		vmov	s14, r2	@ int
 376:../Middlewares/stm32-vision-models-postprocessing/lib_vision_models_pp/Src/od_pp_centernet.c ****               float32_t b_h = (float32_t)((int32_t)pConf_center[AI_CENTERNET_PP_HEIGHT] - raw_zp ) 
ARM GAS  /tmp/ccXy3KAt.s 			page 49


 1941              		.loc 1 376 31 view .LVU714
 1942 024e B8EEC77A 		vcvt.f32.s32	s14, s14
 376:../Middlewares/stm32-vision-models-postprocessing/lib_vision_models_pp/Src/od_pp_centernet.c ****               float32_t b_h = (float32_t)((int32_t)pConf_center[AI_CENTERNET_PP_HEIGHT] - raw_zp ) 
 1943              		.loc 1 376 99 view .LVU715
 1944 0252 27EE087A 		vmul.f32	s14, s14, s16
 378:../Middlewares/stm32-vision-models-postprocessing/lib_vision_models_pp/Src/od_pp_centernet.c ****               float32_t y1 = b_y - b_h / 2.0f;
 1945              		.loc 1 378 25 view .LVU716
 1946 0256 F0EE675A 		vmov.f32	s11, s15
 376:../Middlewares/stm32-vision-models-postprocessing/lib_vision_models_pp/Src/od_pp_centernet.c ****               float32_t b_h = (float32_t)((int32_t)pConf_center[AI_CENTERNET_PP_HEIGHT] - raw_zp ) 
 1947              		.loc 1 376 25 view .LVU717
 1948 025a 27EE097A 		vmul.f32	s14, s14, s18
 378:../Middlewares/stm32-vision-models-postprocessing/lib_vision_models_pp/Src/od_pp_centernet.c ****               float32_t y1 = b_y - b_h / 2.0f;
 1949              		.loc 1 378 25 view .LVU718
 1950 025e E7EE685A 		vfms.f32	s11, s14, s17
 380:../Middlewares/stm32-vision-models-postprocessing/lib_vision_models_pp/Src/od_pp_centernet.c ****               float32_t y2 = b_y + b_h / 2.0f;
 1951              		.loc 1 380 25 view .LVU719
 1952 0262 E7EE287A 		vfma.f32	s15, s14, s17
 1953              		.loc 1 382 29 discriminator 1 view .LVU720
 1954 0266 F4EEE75A 		vcmpe.f32	s11, s15
 1955 026a F1EE10FA 		vmrs	APSR_nzcv, FPSCR
 1956 026e 26D5     		bpl	.L79
 1957              	.LBB65:
 383:../Middlewares/stm32-vision-models-postprocessing/lib_vision_models_pp/Src/od_pp_centernet.c ****                   (x2 > x1))
 384:../Middlewares/stm32-vision-models-postprocessing/lib_vision_models_pp/Src/od_pp_centernet.c ****               {
 385:../Middlewares/stm32-vision-models-postprocessing/lib_vision_models_pp/Src/od_pp_centernet.c ****                   count_detect++;
 1958              		.loc 1 385 19 is_stmt 1 view .LVU721
 386:../Middlewares/stm32-vision-models-postprocessing/lib_vision_models_pp/Src/od_pp_centernet.c ****                   pOutput->top_left_x = x1;
 387:../Middlewares/stm32-vision-models-postprocessing/lib_vision_models_pp/Src/od_pp_centernet.c ****                   pOutput->top_left_y = y1;
 388:../Middlewares/stm32-vision-models-postprocessing/lib_vision_models_pp/Src/od_pp_centernet.c ****                   pOutput->bottom_right_x = x2;
 389:../Middlewares/stm32-vision-models-postprocessing/lib_vision_models_pp/Src/od_pp_centernet.c ****                   pOutput->bottom_right_y = y2;
 390:../Middlewares/stm32-vision-models-postprocessing/lib_vision_models_pp/Src/od_pp_centernet.c ****                   pOutput->conf = (float32_t)((int32_t)score_center - raw_zp ) * raw_scale;
 1959              		.loc 1 390 69 is_stmt 0 view .LVU722
 1960 0270 5B1A     		subs	r3, r3, r1
 1961              	.LVL178:
 388:../Middlewares/stm32-vision-models-postprocessing/lib_vision_models_pp/Src/od_pp_centernet.c ****                   pOutput->bottom_right_y = y2;
 1962              		.loc 1 388 43 view .LVU723
 1963 0272 CAED027A 		vstr.32	s15, [r10, #8]
 1964              	.LVL179:
 1965              		.loc 1 390 69 view .LVU724
 1966 0276 07EE903A 		vmov	s15, r3	@ int
 1967              		.loc 1 390 35 view .LVU725
 1968 027a F8EEE77A 		vcvt.f32.s32	s15, s15
 391:../Middlewares/stm32-vision-models-postprocessing/lib_vision_models_pp/Src/od_pp_centernet.c ****                   /*
 392:../Middlewares/stm32-vision-models-postprocessing/lib_vision_models_pp/Src/od_pp_centernet.c ****                   float32_t max_classifs = (float32_t)((int32_t)pConf_center[AI_CENTERNET_PP_CLASSP
 393:../Middlewares/stm32-vision-models-postprocessing/lib_vision_models_pp/Src/od_pp_centernet.c ****                   int32_t class_idx = 0;
 394:../Middlewares/stm32-vision-models-postprocessing/lib_vision_models_pp/Src/od_pp_centernet.c ****                   for (int i = 1; i < pInput_static_param->nb_classifs; i++)
 395:../Middlewares/stm32-vision-models-postprocessing/lib_vision_models_pp/Src/od_pp_centernet.c ****                   {
 396:../Middlewares/stm32-vision-models-postprocessing/lib_vision_models_pp/Src/od_pp_centernet.c ****                       if (pConf_center[AI_CENTERNET_PP_CLASSPROB + i] > max_classifs)
 397:../Middlewares/stm32-vision-models-postprocessing/lib_vision_models_pp/Src/od_pp_centernet.c ****                       {
 398:../Middlewares/stm32-vision-models-postprocessing/lib_vision_models_pp/Src/od_pp_centernet.c ****                           max_classifs = pConf_center[AI_CENTERNET_PP_CLASSPROB + i];
 399:../Middlewares/stm32-vision-models-postprocessing/lib_vision_models_pp/Src/od_pp_centernet.c ****                           class_idx = i;
 400:../Middlewares/stm32-vision-models-postprocessing/lib_vision_models_pp/Src/od_pp_centernet.c ****                       }
 401:../Middlewares/stm32-vision-models-postprocessing/lib_vision_models_pp/Src/od_pp_centernet.c ****                   }*/
 402:../Middlewares/stm32-vision-models-postprocessing/lib_vision_models_pp/Src/od_pp_centernet.c ****                   int8_t max_classifs;
 403:../Middlewares/stm32-vision-models-postprocessing/lib_vision_models_pp/Src/od_pp_centernet.c ****                   uint8_t class_idx;
 404:../Middlewares/stm32-vision-models-postprocessing/lib_vision_models_pp/Src/od_pp_centernet.c ****                   vision_models_maxi_p_is8ou8(&pConf_center[AI_CENTERNET_PP_CLASSPROB],
 1969              		.loc 1 404 19 view .LVU726
ARM GAS  /tmp/ccXy3KAt.s 			page 50


 1970 027e 0123     		movs	r3, #1
 390:../Middlewares/stm32-vision-models-postprocessing/lib_vision_models_pp/Src/od_pp_centernet.c ****                   /*
 1971              		.loc 1 390 80 view .LVU727
 1972 0280 67EE887A 		vmul.f32	s15, s15, s16
 385:../Middlewares/stm32-vision-models-postprocessing/lib_vision_models_pp/Src/od_pp_centernet.c ****                   pOutput->top_left_x = x1;
 1973              		.loc 1 385 31 view .LVU728
 1974 0284 079A     		ldr	r2, [sp, #28]
 405:../Middlewares/stm32-vision-models-postprocessing/lib_vision_models_pp/Src/od_pp_centernet.c ****                                               pInput_static_param->nb_classifs,
 1975              		.loc 1 405 66 view .LVU729
 1976 0286 2168     		ldr	r1, [r4]
 386:../Middlewares/stm32-vision-models-postprocessing/lib_vision_models_pp/Src/od_pp_centernet.c ****                   pOutput->top_left_y = y1;
 1977              		.loc 1 386 39 view .LVU730
 1978 0288 CAED005A 		vstr.32	s11, [r10]
 387:../Middlewares/stm32-vision-models-postprocessing/lib_vision_models_pp/Src/od_pp_centernet.c ****                   pOutput->bottom_right_x = x2;
 1979              		.loc 1 387 39 view .LVU731
 1980 028c 8AED016A 		vstr.32	s12, [r10, #4]
 389:../Middlewares/stm32-vision-models-postprocessing/lib_vision_models_pp/Src/od_pp_centernet.c ****                   pOutput->conf = (float32_t)((int32_t)score_center - raw_zp ) * raw_scale;
 1981              		.loc 1 389 43 view .LVU732
 1982 0290 CAED036A 		vstr.32	s13, [r10, #12]
 390:../Middlewares/stm32-vision-models-postprocessing/lib_vision_models_pp/Src/od_pp_centernet.c ****                   /*
 1983              		.loc 1 390 33 view .LVU733
 1984 0294 CAED047A 		vstr.32	s15, [r10, #16]
 385:../Middlewares/stm32-vision-models-postprocessing/lib_vision_models_pp/Src/od_pp_centernet.c ****                   pOutput->top_left_x = x1;
 1985              		.loc 1 385 31 view .LVU734
 1986 0298 0132     		adds	r2, r2, #1
 404:../Middlewares/stm32-vision-models-postprocessing/lib_vision_models_pp/Src/od_pp_centernet.c ****                                               pInput_static_param->nb_classifs,
 1987              		.loc 1 404 19 view .LVU735
 1988 029a 0193     		str	r3, [sp, #4]
 1989 029c 0DF13F03 		add	r3, sp, #63
 385:../Middlewares/stm32-vision-models-postprocessing/lib_vision_models_pp/Src/od_pp_centernet.c ****                   pOutput->top_left_x = x1;
 1990              		.loc 1 385 31 view .LVU736
 1991 02a0 0792     		str	r2, [sp, #28]
 1992              	.LVL180:
 386:../Middlewares/stm32-vision-models-postprocessing/lib_vision_models_pp/Src/od_pp_centernet.c ****                   pOutput->top_left_y = y1;
 1993              		.loc 1 386 19 is_stmt 1 view .LVU737
 387:../Middlewares/stm32-vision-models-postprocessing/lib_vision_models_pp/Src/od_pp_centernet.c ****                   pOutput->bottom_right_x = x2;
 1994              		.loc 1 387 19 view .LVU738
 388:../Middlewares/stm32-vision-models-postprocessing/lib_vision_models_pp/Src/od_pp_centernet.c ****                   pOutput->bottom_right_y = y2;
 1995              		.loc 1 388 19 view .LVU739
 389:../Middlewares/stm32-vision-models-postprocessing/lib_vision_models_pp/Src/od_pp_centernet.c ****                   pOutput->conf = (float32_t)((int32_t)score_center - raw_zp ) * raw_scale;
 1996              		.loc 1 389 19 view .LVU740
 390:../Middlewares/stm32-vision-models-postprocessing/lib_vision_models_pp/Src/od_pp_centernet.c ****                   /*
 1997              		.loc 1 390 19 view .LVU741
 402:../Middlewares/stm32-vision-models-postprocessing/lib_vision_models_pp/Src/od_pp_centernet.c ****                   uint8_t class_idx;
 1998              		.loc 1 402 19 view .LVU742
 403:../Middlewares/stm32-vision-models-postprocessing/lib_vision_models_pp/Src/od_pp_centernet.c ****                   vision_models_maxi_p_is8ou8(&pConf_center[AI_CENTERNET_PP_CLASSPROB],
 1999              		.loc 1 403 19 view .LVU743
 404:../Middlewares/stm32-vision-models-postprocessing/lib_vision_models_pp/Src/od_pp_centernet.c ****                                               pInput_static_param->nb_classifs,
 2000              		.loc 1 404 19 view .LVU744
 2001 02a2 0093     		str	r3, [sp]
 2002 02a4 4A1D     		adds	r2, r1, #5
 2003              	.LVL181:
 404:../Middlewares/stm32-vision-models-postprocessing/lib_vision_models_pp/Src/od_pp_centernet.c ****                                               pInput_static_param->nb_classifs,
 2004              		.loc 1 404 19 is_stmt 0 view .LVU745
 2005 02a6 0DF13E03 		add	r3, sp, #62
 2006 02aa 0D90     		str	r0, [sp, #52]
 2007 02ac FFF7FEFF 		bl	vision_models_maxi_p_is8ou8
ARM GAS  /tmp/ccXy3KAt.s 			page 51


 2008              	.LVL182:
 406:../Middlewares/stm32-vision-models-postprocessing/lib_vision_models_pp/Src/od_pp_centernet.c ****                                               AI_CENTERNET_PP_CLASSPROB + pInput_static_param->nb_c
 407:../Middlewares/stm32-vision-models-postprocessing/lib_vision_models_pp/Src/od_pp_centernet.c ****                                               &max_classifs,
 408:../Middlewares/stm32-vision-models-postprocessing/lib_vision_models_pp/Src/od_pp_centernet.c ****                                               &class_idx,
 409:../Middlewares/stm32-vision-models-postprocessing/lib_vision_models_pp/Src/od_pp_centernet.c ****                                               1);
 410:../Middlewares/stm32-vision-models-postprocessing/lib_vision_models_pp/Src/od_pp_centernet.c ****                   pOutput->class_index = class_idx;
 2009              		.loc 1 410 19 is_stmt 1 view .LVU746
 2010              		.loc 1 410 40 is_stmt 0 view .LVU747
 2011 02b0 9DF83F30 		ldrb	r3, [sp, #63]	@ zero_extendqisi2
 411:../Middlewares/stm32-vision-models-postprocessing/lib_vision_models_pp/Src/od_pp_centernet.c ****                   pOutput++;
 2012              		.loc 1 411 26 view .LVU748
 2013 02b4 0D98     		ldr	r0, [sp, #52]
 410:../Middlewares/stm32-vision-models-postprocessing/lib_vision_models_pp/Src/od_pp_centernet.c ****                   pOutput++;
 2014              		.loc 1 410 40 view .LVU749
 2015 02b6 CAF81430 		str	r3, [r10, #20]
 2016              		.loc 1 411 19 is_stmt 1 view .LVU750
 2017              		.loc 1 411 26 is_stmt 0 view .LVU751
 2018 02ba 0AF1180A 		add	r10, r10, #24
 2019              	.LVL183:
 2020              	.L79:
 2021              		.loc 1 411 26 view .LVU752
 2022              	.LBE65:
 2023              	.LBE64:
 412:../Middlewares/stm32-vision-models-postprocessing/lib_vision_models_pp/Src/od_pp_centernet.c ****               }
 413:../Middlewares/stm32-vision-models-postprocessing/lib_vision_models_pp/Src/od_pp_centernet.c ****           }
 414:../Middlewares/stm32-vision-models-postprocessing/lib_vision_models_pp/Src/od_pp_centernet.c ****           pConf_11 += conf_stride_right;
 2024              		.loc 1 414 11 is_stmt 1 view .LVU753
 415:../Middlewares/stm32-vision-models-postprocessing/lib_vision_models_pp/Src/od_pp_centernet.c ****           pConf_12 += conf_stride_right;
 2025              		.loc 1 415 11 view .LVU754
 416:../Middlewares/stm32-vision-models-postprocessing/lib_vision_models_pp/Src/od_pp_centernet.c ****           pConf_13 += conf_stride_right;
 2026              		.loc 1 416 11 view .LVU755
 417:../Middlewares/stm32-vision-models-postprocessing/lib_vision_models_pp/Src/od_pp_centernet.c ****           pConf_21 += conf_stride_right;
 2027              		.loc 1 417 11 view .LVU756
 418:../Middlewares/stm32-vision-models-postprocessing/lib_vision_models_pp/Src/od_pp_centernet.c ****           pConf_center += conf_stride_right;
 2028              		.loc 1 418 11 view .LVU757
 419:../Middlewares/stm32-vision-models-postprocessing/lib_vision_models_pp/Src/od_pp_centernet.c ****           pConf_23 += conf_stride_right;
 2029              		.loc 1 419 11 view .LVU758
 420:../Middlewares/stm32-vision-models-postprocessing/lib_vision_models_pp/Src/od_pp_centernet.c ****           pConf_31 += conf_stride_right;
 2030              		.loc 1 420 11 view .LVU759
 421:../Middlewares/stm32-vision-models-postprocessing/lib_vision_models_pp/Src/od_pp_centernet.c ****           pConf_32 += conf_stride_right;
 2031              		.loc 1 421 11 view .LVU760
 422:../Middlewares/stm32-vision-models-postprocessing/lib_vision_models_pp/Src/od_pp_centernet.c ****           pConf_33 += conf_stride_right;
 2032              		.loc 1 422 11 view .LVU761
 357:../Middlewares/stm32-vision-models-postprocessing/lib_vision_models_pp/Src/od_pp_centernet.c ****       {
 2033              		.loc 1 357 72 discriminator 2 view .LVU762
 2034 02be 069B     		ldr	r3, [sp, #24]
 2035 02c0 2E44     		add	r6, r6, r5
 2036 02c2 0133     		adds	r3, r3, #1
 2037 02c4 0693     		str	r3, [sp, #24]
 2038              	.LVL184:
 357:../Middlewares/stm32-vision-models-postprocessing/lib_vision_models_pp/Src/od_pp_centernet.c ****       {
 2039              		.loc 1 357 72 is_stmt 0 discriminator 2 view .LVU763
 2040 02c6 2844     		add	r0, r0, r5
 2041              	.LVL185:
 2042              	.L84:
 357:../Middlewares/stm32-vision-models-postprocessing/lib_vision_models_pp/Src/od_pp_centernet.c ****       {
 2043              		.loc 1 357 33 is_stmt 1 discriminator 1 view .LVU764
ARM GAS  /tmp/ccXy3KAt.s 			page 52


 357:../Middlewares/stm32-vision-models-postprocessing/lib_vision_models_pp/Src/od_pp_centernet.c ****       {
 2044              		.loc 1 357 67 is_stmt 0 discriminator 1 view .LVU765
 2045 02c8 6368     		ldr	r3, [r4, #4]
 357:../Middlewares/stm32-vision-models-postprocessing/lib_vision_models_pp/Src/od_pp_centernet.c ****       {
 2046              		.loc 1 357 33 discriminator 1 view .LVU766
 2047 02ca 069A     		ldr	r2, [sp, #24]
 357:../Middlewares/stm32-vision-models-postprocessing/lib_vision_models_pp/Src/od_pp_centernet.c ****       {
 2048              		.loc 1 357 67 discriminator 1 view .LVU767
 2049 02cc 013B     		subs	r3, r3, #1
 357:../Middlewares/stm32-vision-models-postprocessing/lib_vision_models_pp/Src/od_pp_centernet.c ****       {
 2050              		.loc 1 357 33 discriminator 1 view .LVU768
 2051 02ce 9342     		cmp	r3, r2
 2052 02d0 3FF755AF 		bgt	.L82
 357:../Middlewares/stm32-vision-models-postprocessing/lib_vision_models_pp/Src/od_pp_centernet.c ****       {
 2053              		.loc 1 357 33 discriminator 1 view .LVU769
 2054              	.LBE67:
 423:../Middlewares/stm32-vision-models-postprocessing/lib_vision_models_pp/Src/od_pp_centernet.c ****       }
 424:../Middlewares/stm32-vision-models-postprocessing/lib_vision_models_pp/Src/od_pp_centernet.c **** 
 425:../Middlewares/stm32-vision-models-postprocessing/lib_vision_models_pp/Src/od_pp_centernet.c ****       /* Shifts twice to bypass feature map border */
 426:../Middlewares/stm32-vision-models-postprocessing/lib_vision_models_pp/Src/od_pp_centernet.c ****       pConf_11 += (conf_stride_right * 2);
 2055              		.loc 1 426 7 is_stmt 1 view .LVU770
 2056 02d4 089B     		ldr	r3, [sp, #32]
 2057 02d6 049A     		ldr	r2, [sp, #16]
 2058 02d8 3344     		add	r3, r3, r6
 427:../Middlewares/stm32-vision-models-postprocessing/lib_vision_models_pp/Src/od_pp_centernet.c ****       pConf_12 += (conf_stride_right * 2);
 2059              		.loc 1 427 16 is_stmt 0 view .LVU771
 2060 02da 4B44     		add	r3, r3, r9
 2061 02dc 0893     		str	r3, [sp, #32]
 2062 02de 099B     		ldr	r3, [sp, #36]
 2063 02e0 3244     		add	r2, r2, r6
 2064 02e2 3344     		add	r3, r3, r6
 428:../Middlewares/stm32-vision-models-postprocessing/lib_vision_models_pp/Src/od_pp_centernet.c ****       pConf_13 += (conf_stride_right * 2);
 2065              		.loc 1 428 16 view .LVU772
 2066 02e4 4B44     		add	r3, r3, r9
 2067 02e6 0993     		str	r3, [sp, #36]
 2068 02e8 0A9B     		ldr	r3, [sp, #40]
 2069 02ea 3744     		add	r7, r7, r6
 2070 02ec 3344     		add	r3, r3, r6
 429:../Middlewares/stm32-vision-models-postprocessing/lib_vision_models_pp/Src/od_pp_centernet.c ****       pConf_21 += (conf_stride_right * 2);
 430:../Middlewares/stm32-vision-models-postprocessing/lib_vision_models_pp/Src/od_pp_centernet.c ****       pConf_center += (conf_stride_right * 2);
 431:../Middlewares/stm32-vision-models-postprocessing/lib_vision_models_pp/Src/od_pp_centernet.c ****       pConf_23 += (conf_stride_right * 2);
 2071              		.loc 1 431 16 view .LVU773
 2072 02ee 4B44     		add	r3, r3, r9
 2073 02f0 0A93     		str	r3, [sp, #40]
 432:../Middlewares/stm32-vision-models-postprocessing/lib_vision_models_pp/Src/od_pp_centernet.c ****       pConf_31 += (conf_stride_right * 2);
 2074              		.loc 1 432 16 view .LVU774
 2075 02f2 02EB0903 		add	r3, r2, r9
 2076 02f6 0493     		str	r3, [sp, #16]
 2077 02f8 0B9B     		ldr	r3, [sp, #44]
 2078 02fa B044     		add	r8, r8, r6
 2079 02fc 3344     		add	r3, r3, r6
 433:../Middlewares/stm32-vision-models-postprocessing/lib_vision_models_pp/Src/od_pp_centernet.c ****       pConf_32 += (conf_stride_right * 2);
 2080              		.loc 1 433 16 view .LVU775
 2081 02fe 4B44     		add	r3, r3, r9
 2082 0300 0B93     		str	r3, [sp, #44]
 355:../Middlewares/stm32-vision-models-postprocessing/lib_vision_models_pp/Src/od_pp_centernet.c ****   {
 2083              		.loc 1 355 69 discriminator 2 view .LVU776
ARM GAS  /tmp/ccXy3KAt.s 			page 53


 2084 0302 059B     		ldr	r3, [sp, #20]
 2085 0304 0538     		subs	r0, r0, #5
 2086              	.LVL186:
 355:../Middlewares/stm32-vision-models-postprocessing/lib_vision_models_pp/Src/od_pp_centernet.c ****   {
 2087              		.loc 1 355 69 discriminator 2 view .LVU777
 2088 0306 5E44     		add	r6, r6, fp
 355:../Middlewares/stm32-vision-models-postprocessing/lib_vision_models_pp/Src/od_pp_centernet.c ****   {
 2089              		.loc 1 355 69 discriminator 2 view .LVU778
 2090 0308 0133     		adds	r3, r3, #1
 426:../Middlewares/stm32-vision-models-postprocessing/lib_vision_models_pp/Src/od_pp_centernet.c ****       pConf_12 += (conf_stride_right * 2);
 2091              		.loc 1 426 16 view .LVU779
 2092 030a 4F44     		add	r7, r7, r9
 2093              	.LVL187:
 427:../Middlewares/stm32-vision-models-postprocessing/lib_vision_models_pp/Src/od_pp_centernet.c ****       pConf_13 += (conf_stride_right * 2);
 2094              		.loc 1 427 7 is_stmt 1 view .LVU780
 428:../Middlewares/stm32-vision-models-postprocessing/lib_vision_models_pp/Src/od_pp_centernet.c ****       pConf_21 += (conf_stride_right * 2);
 2095              		.loc 1 428 7 view .LVU781
 429:../Middlewares/stm32-vision-models-postprocessing/lib_vision_models_pp/Src/od_pp_centernet.c ****       pConf_center += (conf_stride_right * 2);
 2096              		.loc 1 429 7 view .LVU782
 429:../Middlewares/stm32-vision-models-postprocessing/lib_vision_models_pp/Src/od_pp_centernet.c ****       pConf_center += (conf_stride_right * 2);
 2097              		.loc 1 429 16 is_stmt 0 view .LVU783
 2098 030c C844     		add	r8, r8, r9
 2099              	.LVL188:
 430:../Middlewares/stm32-vision-models-postprocessing/lib_vision_models_pp/Src/od_pp_centernet.c ****       pConf_23 += (conf_stride_right * 2);
 2100              		.loc 1 430 7 is_stmt 1 view .LVU784
 430:../Middlewares/stm32-vision-models-postprocessing/lib_vision_models_pp/Src/od_pp_centernet.c ****       pConf_23 += (conf_stride_right * 2);
 2101              		.loc 1 430 20 is_stmt 0 view .LVU785
 2102 030e 4844     		add	r0, r0, r9
 2103              	.LVL189:
 431:../Middlewares/stm32-vision-models-postprocessing/lib_vision_models_pp/Src/od_pp_centernet.c ****       pConf_31 += (conf_stride_right * 2);
 2104              		.loc 1 431 7 is_stmt 1 view .LVU786
 432:../Middlewares/stm32-vision-models-postprocessing/lib_vision_models_pp/Src/od_pp_centernet.c ****       pConf_32 += (conf_stride_right * 2);
 2105              		.loc 1 432 7 view .LVU787
 2106              		.loc 1 433 7 view .LVU788
 434:../Middlewares/stm32-vision-models-postprocessing/lib_vision_models_pp/Src/od_pp_centernet.c ****       pConf_33 += (conf_stride_right * 2);
 2107              		.loc 1 434 7 view .LVU789
 2108              		.loc 1 434 16 is_stmt 0 view .LVU790
 2109 0310 06EB090B 		add	fp, r6, r9
 2110              	.LVL190:
 355:../Middlewares/stm32-vision-models-postprocessing/lib_vision_models_pp/Src/od_pp_centernet.c ****   {
 2111              		.loc 1 355 69 is_stmt 1 discriminator 2 view .LVU791
 2112 0314 0593     		str	r3, [sp, #20]
 2113              	.LVL191:
 355:../Middlewares/stm32-vision-models-postprocessing/lib_vision_models_pp/Src/od_pp_centernet.c ****   {
 2114              		.loc 1 355 69 is_stmt 0 discriminator 2 view .LVU792
 2115 0316 DAE6     		b	.L78
 2116              	.LVL192:
 2117              	.L83:
 355:../Middlewares/stm32-vision-models-postprocessing/lib_vision_models_pp/Src/od_pp_centernet.c ****   {
 2118              		.loc 1 355 69 discriminator 2 view .LVU793
 2119              	.LBE71:
 435:../Middlewares/stm32-vision-models-postprocessing/lib_vision_models_pp/Src/od_pp_centernet.c ****   }
 436:../Middlewares/stm32-vision-models-postprocessing/lib_vision_models_pp/Src/od_pp_centernet.c **** 
 437:../Middlewares/stm32-vision-models-postprocessing/lib_vision_models_pp/Src/od_pp_centernet.c ****   pInput_static_param->nb_detect = count_detect;
 2120              		.loc 1 437 3 is_stmt 1 view .LVU794
 438:../Middlewares/stm32-vision-models-postprocessing/lib_vision_models_pp/Src/od_pp_centernet.c **** 
 439:../Middlewares/stm32-vision-models-postprocessing/lib_vision_models_pp/Src/od_pp_centernet.c ****   return (error);
ARM GAS  /tmp/ccXy3KAt.s 			page 54


 440:../Middlewares/stm32-vision-models-postprocessing/lib_vision_models_pp/Src/od_pp_centernet.c **** }
 2121              		.loc 1 440 1 is_stmt 0 view .LVU795
 2122 0318 0020     		movs	r0, #0
 2123              	.LVL193:
 437:../Middlewares/stm32-vision-models-postprocessing/lib_vision_models_pp/Src/od_pp_centernet.c **** 
 2124              		.loc 1 437 34 view .LVU796
 2125 031a 079B     		ldr	r3, [sp, #28]
 2126 031c E361     		str	r3, [r4, #28]
 439:../Middlewares/stm32-vision-models-postprocessing/lib_vision_models_pp/Src/od_pp_centernet.c **** }
 2127              		.loc 1 439 3 is_stmt 1 view .LVU797
 2128              		.loc 1 440 1 is_stmt 0 view .LVU798
 2129 031e 11B0     		add	sp, sp, #68
 2130              		.cfi_def_cfa_offset 52
 2131              		@ sp needed
 2132 0320 BDEC048B 		vldm	sp!, {d8-d9}
 2133              		.cfi_restore 82
 2134              		.cfi_restore 83
 2135              		.cfi_restore 80
 2136              		.cfi_restore 81
 2137              		.cfi_def_cfa_offset 36
 2138              	.LVL194:
 2139              		.loc 1 440 1 view .LVU799
 2140 0324 BDE8F08F 		pop	{r4, r5, r6, r7, r8, r9, r10, fp, pc}
 2141              		.loc 1 440 1 view .LVU800
 2142              		.cfi_endproc
 2143              	.LFE781:
 2145              		.section	.text.od_centernet_pp_reset,"ax",%progbits
 2146              		.align	1
 2147              		.global	od_centernet_pp_reset
 2148              		.syntax unified
 2149              		.thumb
 2150              		.thumb_func
 2152              	od_centernet_pp_reset:
 2153              	.LVL195:
 2154              	.LFB782:
 441:../Middlewares/stm32-vision-models-postprocessing/lib_vision_models_pp/Src/od_pp_centernet.c **** 
 442:../Middlewares/stm32-vision-models-postprocessing/lib_vision_models_pp/Src/od_pp_centernet.c **** 
 443:../Middlewares/stm32-vision-models-postprocessing/lib_vision_models_pp/Src/od_pp_centernet.c **** 
 444:../Middlewares/stm32-vision-models-postprocessing/lib_vision_models_pp/Src/od_pp_centernet.c **** /* ----------------------       Exported routines      ---------------------- */
 445:../Middlewares/stm32-vision-models-postprocessing/lib_vision_models_pp/Src/od_pp_centernet.c **** 
 446:../Middlewares/stm32-vision-models-postprocessing/lib_vision_models_pp/Src/od_pp_centernet.c **** int32_t od_centernet_pp_reset(od_centernet_pp_static_param_t *pInput_static_param)
 447:../Middlewares/stm32-vision-models-postprocessing/lib_vision_models_pp/Src/od_pp_centernet.c **** {
 2155              		.loc 1 447 1 is_stmt 1 view -0
 2156              		.cfi_startproc
 2157              		@ args = 0, pretend = 0, frame = 0
 2158              		@ frame_needed = 0, uses_anonymous_args = 0
 2159              		@ link register save eliminated.
 448:../Middlewares/stm32-vision-models-postprocessing/lib_vision_models_pp/Src/od_pp_centernet.c ****     /* Initializations */
 449:../Middlewares/stm32-vision-models-postprocessing/lib_vision_models_pp/Src/od_pp_centernet.c ****     pInput_static_param->nb_detect = 0;
 2160              		.loc 1 449 5 view .LVU802
 447:../Middlewares/stm32-vision-models-postprocessing/lib_vision_models_pp/Src/od_pp_centernet.c ****     /* Initializations */
 2161              		.loc 1 447 1 is_stmt 0 view .LVU803
 2162 0000 0346     		mov	r3, r0
 2163              		.loc 1 449 36 view .LVU804
 2164 0002 0020     		movs	r0, #0
 2165              	.LVL196:
 2166              		.loc 1 449 36 view .LVU805
ARM GAS  /tmp/ccXy3KAt.s 			page 55


 2167 0004 D861     		str	r0, [r3, #28]
 450:../Middlewares/stm32-vision-models-postprocessing/lib_vision_models_pp/Src/od_pp_centernet.c **** 
 451:../Middlewares/stm32-vision-models-postprocessing/lib_vision_models_pp/Src/od_pp_centernet.c ****     return (AI_VISION_MODELS_PP_ERROR_NO);
 2168              		.loc 1 451 5 is_stmt 1 view .LVU806
 452:../Middlewares/stm32-vision-models-postprocessing/lib_vision_models_pp/Src/od_pp_centernet.c **** }
 2169              		.loc 1 452 1 is_stmt 0 view .LVU807
 2170 0006 7047     		bx	lr
 2171              		.cfi_endproc
 2172              	.LFE782:
 2174              		.section	.text.od_centernet_pp_process,"ax",%progbits
 2175              		.align	1
 2176              		.global	od_centernet_pp_process
 2177              		.syntax unified
 2178              		.thumb
 2179              		.thumb_func
 2181              	od_centernet_pp_process:
 2182              	.LVL197:
 2183              	.LFB783:
 453:../Middlewares/stm32-vision-models-postprocessing/lib_vision_models_pp/Src/od_pp_centernet.c **** 
 454:../Middlewares/stm32-vision-models-postprocessing/lib_vision_models_pp/Src/od_pp_centernet.c **** 
 455:../Middlewares/stm32-vision-models-postprocessing/lib_vision_models_pp/Src/od_pp_centernet.c **** int32_t od_centernet_pp_process(od_centernet_pp_in_t *pInput,
 456:../Middlewares/stm32-vision-models-postprocessing/lib_vision_models_pp/Src/od_pp_centernet.c ****                                 od_pp_out_t *pOutput,
 457:../Middlewares/stm32-vision-models-postprocessing/lib_vision_models_pp/Src/od_pp_centernet.c ****                                 od_centernet_pp_static_param_t *pInput_static_param)
 458:../Middlewares/stm32-vision-models-postprocessing/lib_vision_models_pp/Src/od_pp_centernet.c **** {
 2184              		.loc 1 458 1 is_stmt 1 view -0
 2185              		.cfi_startproc
 2186              		@ args = 0, pretend = 0, frame = 0
 2187              		@ frame_needed = 0, uses_anonymous_args = 0
 459:../Middlewares/stm32-vision-models-postprocessing/lib_vision_models_pp/Src/od_pp_centernet.c ****     int32_t error   = AI_VISION_MODELS_PP_ERROR_NO;
 2188              		.loc 1 459 5 view .LVU809
 460:../Middlewares/stm32-vision-models-postprocessing/lib_vision_models_pp/Src/od_pp_centernet.c **** 
 461:../Middlewares/stm32-vision-models-postprocessing/lib_vision_models_pp/Src/od_pp_centernet.c ****     /* Call Get NN boxes first */
 462:../Middlewares/stm32-vision-models-postprocessing/lib_vision_models_pp/Src/od_pp_centernet.c ****     error = centernet_pp_getNNBoxes_centroid(pInput,
 2189              		.loc 1 462 5 view .LVU810
 458:../Middlewares/stm32-vision-models-postprocessing/lib_vision_models_pp/Src/od_pp_centernet.c ****     int32_t error   = AI_VISION_MODELS_PP_ERROR_NO;
 2190              		.loc 1 458 1 is_stmt 0 view .LVU811
 2191 0000 70B5     		push	{r4, r5, r6, lr}
 2192              		.cfi_def_cfa_offset 16
 2193              		.cfi_offset 4, -16
 2194              		.cfi_offset 5, -12
 2195              		.cfi_offset 6, -8
 2196              		.cfi_offset 14, -4
 458:../Middlewares/stm32-vision-models-postprocessing/lib_vision_models_pp/Src/od_pp_centernet.c ****     int32_t error   = AI_VISION_MODELS_PP_ERROR_NO;
 2197              		.loc 1 458 1 view .LVU812
 2198 0002 0546     		mov	r5, r0
 2199 0004 0E46     		mov	r6, r1
 2200 0006 1446     		mov	r4, r2
 2201              		.loc 1 462 13 view .LVU813
 2202 0008 1146     		mov	r1, r2
 2203              	.LVL198:
 2204              		.loc 1 462 13 view .LVU814
 2205 000a FFF7FEFF 		bl	centernet_pp_getNNBoxes_centroid
 2206              	.LVL199:
 463:../Middlewares/stm32-vision-models-postprocessing/lib_vision_models_pp/Src/od_pp_centernet.c ****                                              pInput_static_param);
 464:../Middlewares/stm32-vision-models-postprocessing/lib_vision_models_pp/Src/od_pp_centernet.c ****     if (error != AI_VISION_MODELS_PP_ERROR_NO) return (error);
 2207              		.loc 1 464 5 is_stmt 1 view .LVU815
 465:../Middlewares/stm32-vision-models-postprocessing/lib_vision_models_pp/Src/od_pp_centernet.c **** 
ARM GAS  /tmp/ccXy3KAt.s 			page 56


 466:../Middlewares/stm32-vision-models-postprocessing/lib_vision_models_pp/Src/od_pp_centernet.c ****     /* Then NMS */
 467:../Middlewares/stm32-vision-models-postprocessing/lib_vision_models_pp/Src/od_pp_centernet.c ****     error = centernet_pp_nmsFiltering_centroid((centernet_pp_tmp_outBuffer_t *)(pInput->pRaw_detect
 2208              		.loc 1 467 5 view .LVU816
 2209              		.loc 1 467 13 is_stmt 0 view .LVU817
 2210 000e 2246     		mov	r2, r4
 2211 0010 3146     		mov	r1, r6
 2212 0012 2868     		ldr	r0, [r5]
 2213 0014 FFF7FEFF 		bl	centernet_pp_nmsFiltering_centroid
 2214              	.LVL200:
 468:../Middlewares/stm32-vision-models-postprocessing/lib_vision_models_pp/Src/od_pp_centernet.c ****                                                pOutput,
 469:../Middlewares/stm32-vision-models-postprocessing/lib_vision_models_pp/Src/od_pp_centernet.c ****                                                pInput_static_param);
 470:../Middlewares/stm32-vision-models-postprocessing/lib_vision_models_pp/Src/od_pp_centernet.c ****     if (error != AI_VISION_MODELS_PP_ERROR_NO) return (error);
 2215              		.loc 1 470 5 is_stmt 1 view .LVU818
 471:../Middlewares/stm32-vision-models-postprocessing/lib_vision_models_pp/Src/od_pp_centernet.c **** 
 472:../Middlewares/stm32-vision-models-postprocessing/lib_vision_models_pp/Src/od_pp_centernet.c ****     return (error);
 473:../Middlewares/stm32-vision-models-postprocessing/lib_vision_models_pp/Src/od_pp_centernet.c **** }
 2216              		.loc 1 473 1 is_stmt 0 view .LVU819
 2217 0018 0020     		movs	r0, #0
 2218 001a 70BD     		pop	{r4, r5, r6, pc}
 2219              		.loc 1 473 1 view .LVU820
 2220              		.cfi_endproc
 2221              	.LFE783:
 2223              		.section	.text.od_centernet_pp_process_int8,"ax",%progbits
 2224              		.align	1
 2225              		.global	od_centernet_pp_process_int8
 2226              		.syntax unified
 2227              		.thumb
 2228              		.thumb_func
 2230              	od_centernet_pp_process_int8:
 2231              	.LVL201:
 2232              	.LFB784:
 474:../Middlewares/stm32-vision-models-postprocessing/lib_vision_models_pp/Src/od_pp_centernet.c **** 
 475:../Middlewares/stm32-vision-models-postprocessing/lib_vision_models_pp/Src/od_pp_centernet.c **** int32_t od_centernet_pp_process_int8(od_centernet_pp_in_t *pInput,
 476:../Middlewares/stm32-vision-models-postprocessing/lib_vision_models_pp/Src/od_pp_centernet.c ****                                 od_pp_out_t *pOutput,
 477:../Middlewares/stm32-vision-models-postprocessing/lib_vision_models_pp/Src/od_pp_centernet.c ****                                 od_centernet_pp_static_param_t *pInput_static_param)
 478:../Middlewares/stm32-vision-models-postprocessing/lib_vision_models_pp/Src/od_pp_centernet.c **** {
 2233              		.loc 1 478 1 is_stmt 1 view -0
 2234              		.cfi_startproc
 2235              		@ args = 0, pretend = 0, frame = 0
 2236              		@ frame_needed = 0, uses_anonymous_args = 0
 479:../Middlewares/stm32-vision-models-postprocessing/lib_vision_models_pp/Src/od_pp_centernet.c ****     int32_t error   = AI_VISION_MODELS_PP_ERROR_NO;
 2237              		.loc 1 479 5 view .LVU822
 480:../Middlewares/stm32-vision-models-postprocessing/lib_vision_models_pp/Src/od_pp_centernet.c **** 
 481:../Middlewares/stm32-vision-models-postprocessing/lib_vision_models_pp/Src/od_pp_centernet.c ****     /* Call Get NN boxes first */
 482:../Middlewares/stm32-vision-models-postprocessing/lib_vision_models_pp/Src/od_pp_centernet.c ****     error = centernet_pp_getNNBoxes_centroid_int8(pInput,
 2238              		.loc 1 482 5 view .LVU823
 478:../Middlewares/stm32-vision-models-postprocessing/lib_vision_models_pp/Src/od_pp_centernet.c ****     int32_t error   = AI_VISION_MODELS_PP_ERROR_NO;
 2239              		.loc 1 478 1 is_stmt 0 view .LVU824
 2240 0000 70B5     		push	{r4, r5, r6, lr}
 2241              		.cfi_def_cfa_offset 16
 2242              		.cfi_offset 4, -16
 2243              		.cfi_offset 5, -12
 2244              		.cfi_offset 6, -8
 2245              		.cfi_offset 14, -4
 478:../Middlewares/stm32-vision-models-postprocessing/lib_vision_models_pp/Src/od_pp_centernet.c ****     int32_t error   = AI_VISION_MODELS_PP_ERROR_NO;
 2246              		.loc 1 478 1 view .LVU825
 2247 0002 0546     		mov	r5, r0
ARM GAS  /tmp/ccXy3KAt.s 			page 57


 2248 0004 0E46     		mov	r6, r1
 2249 0006 1446     		mov	r4, r2
 2250              		.loc 1 482 13 view .LVU826
 2251 0008 1146     		mov	r1, r2
 2252              	.LVL202:
 2253              		.loc 1 482 13 view .LVU827
 2254 000a FFF7FEFF 		bl	centernet_pp_getNNBoxes_centroid_int8
 2255              	.LVL203:
 483:../Middlewares/stm32-vision-models-postprocessing/lib_vision_models_pp/Src/od_pp_centernet.c ****                                              pInput_static_param);
 484:../Middlewares/stm32-vision-models-postprocessing/lib_vision_models_pp/Src/od_pp_centernet.c ****     if (error != AI_VISION_MODELS_PP_ERROR_NO) return (error);
 2256              		.loc 1 484 5 is_stmt 1 view .LVU828
 485:../Middlewares/stm32-vision-models-postprocessing/lib_vision_models_pp/Src/od_pp_centernet.c **** 
 486:../Middlewares/stm32-vision-models-postprocessing/lib_vision_models_pp/Src/od_pp_centernet.c ****     /* Then NMS */
 487:../Middlewares/stm32-vision-models-postprocessing/lib_vision_models_pp/Src/od_pp_centernet.c ****     error = centernet_pp_nmsFiltering_centroid((centernet_pp_tmp_outBuffer_t *)(pInput->pRaw_detect
 2257              		.loc 1 487 5 view .LVU829
 2258              		.loc 1 487 13 is_stmt 0 view .LVU830
 2259 000e 2246     		mov	r2, r4
 2260 0010 3146     		mov	r1, r6
 2261 0012 2868     		ldr	r0, [r5]
 2262 0014 FFF7FEFF 		bl	centernet_pp_nmsFiltering_centroid
 2263              	.LVL204:
 488:../Middlewares/stm32-vision-models-postprocessing/lib_vision_models_pp/Src/od_pp_centernet.c ****                                                pOutput,
 489:../Middlewares/stm32-vision-models-postprocessing/lib_vision_models_pp/Src/od_pp_centernet.c ****                                                pInput_static_param);
 490:../Middlewares/stm32-vision-models-postprocessing/lib_vision_models_pp/Src/od_pp_centernet.c ****     if (error != AI_VISION_MODELS_PP_ERROR_NO) return (error);
 2264              		.loc 1 490 5 is_stmt 1 view .LVU831
 491:../Middlewares/stm32-vision-models-postprocessing/lib_vision_models_pp/Src/od_pp_centernet.c **** 
 492:../Middlewares/stm32-vision-models-postprocessing/lib_vision_models_pp/Src/od_pp_centernet.c ****     return (error);
 493:../Middlewares/stm32-vision-models-postprocessing/lib_vision_models_pp/Src/od_pp_centernet.c **** }
 2265              		.loc 1 493 1 is_stmt 0 view .LVU832
 2266 0018 0020     		movs	r0, #0
 2267 001a 70BD     		pop	{r4, r5, r6, pc}
 2268              		.loc 1 493 1 view .LVU833
 2269              		.cfi_endproc
 2270              	.LFE784:
 2272              		.text
 2273              	.Letext0:
 2274              		.file 2 "/opt/st/stm32cubeclt_1.21.0/GNU-tools-for-STM32/arm-none-eabi/include/machine/_default_ty
 2275              		.file 3 "/opt/st/stm32cubeclt_1.21.0/GNU-tools-for-STM32/arm-none-eabi/include/sys/_stdint.h"
 2276              		.file 4 "/opt/st/stm32cubeclt_1.21.0/GNU-tools-for-STM32/lib/gcc/arm-none-eabi/14.3.1/include/stdd
 2277              		.file 5 "/opt/st/stm32cubeclt_1.21.0/GNU-tools-for-STM32/lib/gcc/arm-none-eabi/14.3.1/include/arm_
 2278              		.file 6 "../Middlewares/stm32-vision-models-postprocessing/lib_vision_models_pp/Inc/od_pp_output_i
 2279              		.file 7 "../Middlewares/stm32-vision-models-postprocessing/lib_vision_models_pp/Inc/od_centernet_p
 2280              		.file 8 "../Middlewares/stm32-vision-models-postprocessing/lib_vision_models_pp/Src/vision_models_
ARM GAS  /tmp/ccXy3KAt.s 			page 58

