ARM GAS  /tmp/ccZ8kJT0.s 			page 1


   1              		.arch armv8.1-m.main
   2              		.fpu fpv5-d16
   3              		.arch_extension dsp
   4              		.arch_extension fp
   5              		.arch_extension fp.dp
   6              		.arch_extension mve
   7              		.arch_extension mve.fp
   8              		.eabi_attribute 5, "cortex-m55"
   9              		.eabi_attribute 28, 1
  10              		.eabi_attribute 20, 1
  11              		.eabi_attribute 21, 1
  12              		.eabi_attribute 23, 3
  13              		.eabi_attribute 24, 1
  14              		.eabi_attribute 25, 1
  15              		.eabi_attribute 26, 1
  16              		.eabi_attribute 30, 4
  17              		.eabi_attribute 34, 1
  18              		.eabi_attribute 38, 1
  19              		.eabi_attribute 18, 4
  20              		.file	"od_pp_yolov2.c"
  21              		.text
  22              	.Ltext0:
  23              		.cfi_sections	.debug_frame
  24              		.file 1 "../Middlewares/stm32-vision-models-postprocessing/lib_vision_models_pp/Src/od_pp_yolov2.c
  25              		.section	.text.yolov2_nms_comparator,"ax",%progbits
  26              		.align	1
  27              		.global	yolov2_nms_comparator
  28              		.syntax unified
  29              		.thumb
  30              		.thumb_func
  32              	yolov2_nms_comparator:
  33              	.LVL0:
  34              	.LFB774:
   1:../Middlewares/stm32-vision-models-postprocessing/lib_vision_models_pp/Src/od_pp_yolov2.c **** /*---------------------------------------------------------------------------------------------
   2:../Middlewares/stm32-vision-models-postprocessing/lib_vision_models_pp/Src/od_pp_yolov2.c ****  * Copyright (c) 2023 STMicroelectronics.
   3:../Middlewares/stm32-vision-models-postprocessing/lib_vision_models_pp/Src/od_pp_yolov2.c ****  * All rights reserved.
   4:../Middlewares/stm32-vision-models-postprocessing/lib_vision_models_pp/Src/od_pp_yolov2.c ****  *
   5:../Middlewares/stm32-vision-models-postprocessing/lib_vision_models_pp/Src/od_pp_yolov2.c ****  * This software is licensed under terms that can be found in the LICENSE file in
   6:../Middlewares/stm32-vision-models-postprocessing/lib_vision_models_pp/Src/od_pp_yolov2.c ****  * the root directory of this software component.
   7:../Middlewares/stm32-vision-models-postprocessing/lib_vision_models_pp/Src/od_pp_yolov2.c ****  * If no LICENSE file comes with this software, it is provided AS-IS.
   8:../Middlewares/stm32-vision-models-postprocessing/lib_vision_models_pp/Src/od_pp_yolov2.c ****  *--------------------------------------------------------------------------------------------*/
   9:../Middlewares/stm32-vision-models-postprocessing/lib_vision_models_pp/Src/od_pp_yolov2.c **** 
  10:../Middlewares/stm32-vision-models-postprocessing/lib_vision_models_pp/Src/od_pp_yolov2.c **** #include "od_pp_loc.h"
  11:../Middlewares/stm32-vision-models-postprocessing/lib_vision_models_pp/Src/od_pp_yolov2.c **** #include "od_yolov2_pp_if.h"
  12:../Middlewares/stm32-vision-models-postprocessing/lib_vision_models_pp/Src/od_pp_yolov2.c **** #include "vision_models_pp.h"
  13:../Middlewares/stm32-vision-models-postprocessing/lib_vision_models_pp/Src/od_pp_yolov2.c **** 
  14:../Middlewares/stm32-vision-models-postprocessing/lib_vision_models_pp/Src/od_pp_yolov2.c **** 
  15:../Middlewares/stm32-vision-models-postprocessing/lib_vision_models_pp/Src/od_pp_yolov2.c **** /* Can't be removed if qsort is not re-written... */
  16:../Middlewares/stm32-vision-models-postprocessing/lib_vision_models_pp/Src/od_pp_yolov2.c **** static int32_t AI_YOLOV2_PP_SORT_CLASS;
  17:../Middlewares/stm32-vision-models-postprocessing/lib_vision_models_pp/Src/od_pp_yolov2.c **** 
  18:../Middlewares/stm32-vision-models-postprocessing/lib_vision_models_pp/Src/od_pp_yolov2.c **** 
  19:../Middlewares/stm32-vision-models-postprocessing/lib_vision_models_pp/Src/od_pp_yolov2.c **** int32_t yolov2_nms_comparator(const void *pa, const void *pb)
  20:../Middlewares/stm32-vision-models-postprocessing/lib_vision_models_pp/Src/od_pp_yolov2.c **** {
  35              		.loc 1 20 1 view -0
  36              		.cfi_startproc
  37              		@ args = 0, pretend = 0, frame = 0
  38              		@ frame_needed = 0, uses_anonymous_args = 0
ARM GAS  /tmp/ccZ8kJT0.s 			page 2


  39              		@ link register save eliminated.
  21:../Middlewares/stm32-vision-models-postprocessing/lib_vision_models_pp/Src/od_pp_yolov2.c ****   od_pp_outBuffer_t *pa_s = (od_pp_outBuffer_t *)pa;
  40              		.loc 1 21 3 view .LVU1
  22:../Middlewares/stm32-vision-models-postprocessing/lib_vision_models_pp/Src/od_pp_yolov2.c ****   od_pp_outBuffer_t *pb_s = (od_pp_outBuffer_t *)pb;
  41              		.loc 1 22 3 view .LVU2
  23:../Middlewares/stm32-vision-models-postprocessing/lib_vision_models_pp/Src/od_pp_yolov2.c ****   float32_t a = (pa_s->class_index == AI_YOLOV2_PP_SORT_CLASS) ? pa_s->conf : 0;
  42              		.loc 1 23 3 view .LVU3
  43              		.loc 1 23 36 is_stmt 0 view .LVU4
  44 0000 0E4B     		ldr	r3, .L8
  45              		.loc 1 23 77 view .LVU5
  46 0002 4269     		ldr	r2, [r0, #20]
  47              		.loc 1 23 36 view .LVU6
  48 0004 1B68     		ldr	r3, [r3]
  49              		.loc 1 23 77 view .LVU7
  50 0006 9A42     		cmp	r2, r3
  24:../Middlewares/stm32-vision-models-postprocessing/lib_vision_models_pp/Src/od_pp_yolov2.c ****   float32_t b = (pb_s->class_index == AI_YOLOV2_PP_SORT_CLASS) ? pb_s->conf : 0;
  51              		.loc 1 24 77 view .LVU8
  52 0008 4A69     		ldr	r2, [r1, #20]
  23:../Middlewares/stm32-vision-models-postprocessing/lib_vision_models_pp/Src/od_pp_yolov2.c ****   float32_t a = (pa_s->class_index == AI_YOLOV2_PP_SORT_CLASS) ? pa_s->conf : 0;
  53              		.loc 1 23 77 discriminator 1 view .LVU9
  54 000a 0CBF     		ite	eq
  55 000c D0ED047A 		vldreq.32	s15, [r0, #16]
  23:../Middlewares/stm32-vision-models-postprocessing/lib_vision_models_pp/Src/od_pp_yolov2.c ****   float32_t a = (pa_s->class_index == AI_YOLOV2_PP_SORT_CLASS) ? pa_s->conf : 0;
  56              		.loc 1 23 77 discriminator 2 view .LVU10
  57 0010 DFED0B7A 		vldrne.32	s15, .L8+4
  58              	.LVL1:
  59              		.loc 1 24 3 is_stmt 1 view .LVU11
  60              		.loc 1 24 77 is_stmt 0 view .LVU12
  61 0014 9342     		cmp	r3, r2
  62              		.loc 1 24 77 discriminator 1 view .LVU13
  63 0016 0CBF     		ite	eq
  64 0018 91ED047A 		vldreq.32	s14, [r1, #16]
  65              		.loc 1 24 77 discriminator 2 view .LVU14
  66 001c 9FED087A 		vldrne.32	s14, .L8+4
  67              	.LVL2:
  25:../Middlewares/stm32-vision-models-postprocessing/lib_vision_models_pp/Src/od_pp_yolov2.c ****   float32_t diff = 0;
  68              		.loc 1 25 3 is_stmt 1 view .LVU15
  26:../Middlewares/stm32-vision-models-postprocessing/lib_vision_models_pp/Src/od_pp_yolov2.c **** 
  27:../Middlewares/stm32-vision-models-postprocessing/lib_vision_models_pp/Src/od_pp_yolov2.c ****   diff = a - b;
  69              		.loc 1 27 3 view .LVU16
  70              		.loc 1 27 8 is_stmt 0 view .LVU17
  71 0020 77EEC77A 		vsub.f32	s15, s15, s14
  72              	.LVL3:
  28:../Middlewares/stm32-vision-models-postprocessing/lib_vision_models_pp/Src/od_pp_yolov2.c **** 
  29:../Middlewares/stm32-vision-models-postprocessing/lib_vision_models_pp/Src/od_pp_yolov2.c ****   if (diff < 0) return 1;
  73              		.loc 1 29 3 is_stmt 1 view .LVU18
  74              		.loc 1 29 6 is_stmt 0 view .LVU19
  75 0024 F5EEC07A 		vcmpe.f32	s15, #0
  76 0028 F1EE10FA 		vmrs	APSR_nzcv, FPSCR
  77 002c 04D4     		bmi	.L7
  78              	.LVL4:
  30:../Middlewares/stm32-vision-models-postprocessing/lib_vision_models_pp/Src/od_pp_yolov2.c ****   else if (diff > 0) return -1;
  79              		.loc 1 30 8 is_stmt 1 view .LVU20
  80              		.loc 1 30 11 is_stmt 0 view .LVU21
  81 002e CCBF     		ite	gt
  82 0030 4FF0FF30 		movgt	r0, #-1
  83              	.LVL5:
ARM GAS  /tmp/ccZ8kJT0.s 			page 3


  84              		.loc 1 30 11 view .LVU22
  85 0034 0020     		movle	r0, #0
  86 0036 7047     		bx	lr
  87              	.LVL6:
  88              	.L7:
  29:../Middlewares/stm32-vision-models-postprocessing/lib_vision_models_pp/Src/od_pp_yolov2.c ****   else if (diff > 0) return -1;
  89              		.loc 1 29 24 discriminator 1 view .LVU23
  90 0038 0120     		movs	r0, #1
  91              	.LVL7:
  31:../Middlewares/stm32-vision-models-postprocessing/lib_vision_models_pp/Src/od_pp_yolov2.c ****   return 0;
  32:../Middlewares/stm32-vision-models-postprocessing/lib_vision_models_pp/Src/od_pp_yolov2.c **** }
  92              		.loc 1 32 1 view .LVU24
  93 003a 7047     		bx	lr
  94              	.L9:
  95              		.align	2
  96              	.L8:
  97 003c 00000000 		.word	AI_YOLOV2_PP_SORT_CLASS
  98 0040 00000000 		.word	0
  99              		.cfi_endproc
 100              	.LFE774:
 102              		.section	.text.yolov2_pp_nmsFiltering_centroid,"ax",%progbits
 103              		.align	1
 104              		.global	yolov2_pp_nmsFiltering_centroid
 105              		.syntax unified
 106              		.thumb
 107              		.thumb_func
 109              	yolov2_pp_nmsFiltering_centroid:
 110              	.LVL8:
 111              	.LFB775:
  33:../Middlewares/stm32-vision-models-postprocessing/lib_vision_models_pp/Src/od_pp_yolov2.c **** 
  34:../Middlewares/stm32-vision-models-postprocessing/lib_vision_models_pp/Src/od_pp_yolov2.c **** 
  35:../Middlewares/stm32-vision-models-postprocessing/lib_vision_models_pp/Src/od_pp_yolov2.c **** int32_t yolov2_pp_nmsFiltering_centroid(od_pp_outBuffer_t *pScratchBuffer,
  36:../Middlewares/stm32-vision-models-postprocessing/lib_vision_models_pp/Src/od_pp_yolov2.c ****                                         od_yolov2_pp_static_param_t *pInput_static_param)
  37:../Middlewares/stm32-vision-models-postprocessing/lib_vision_models_pp/Src/od_pp_yolov2.c **** {
 112              		.loc 1 37 1 is_stmt 1 view -0
 113              		.cfi_startproc
 114              		@ args = 0, pretend = 0, frame = 8
 115              		@ frame_needed = 0, uses_anonymous_args = 0
  38:../Middlewares/stm32-vision-models-postprocessing/lib_vision_models_pp/Src/od_pp_yolov2.c ****   int32_t i, j, k, limit_counter;
 116              		.loc 1 38 3 view .LVU26
  39:../Middlewares/stm32-vision-models-postprocessing/lib_vision_models_pp/Src/od_pp_yolov2.c **** 
  40:../Middlewares/stm32-vision-models-postprocessing/lib_vision_models_pp/Src/od_pp_yolov2.c ****   for (k = 0; k < pInput_static_param->nb_classes; ++k)
 117              		.loc 1 40 3 view .LVU27
  37:../Middlewares/stm32-vision-models-postprocessing/lib_vision_models_pp/Src/od_pp_yolov2.c ****   int32_t i, j, k, limit_counter;
 118              		.loc 1 37 1 is_stmt 0 view .LVU28
 119 0000 2DE9F74F 		push	{r0, r1, r2, r4, r5, r6, r7, r8, r9, r10, fp, lr}
 120              		.cfi_def_cfa_offset 48
 121              		.cfi_offset 4, -36
 122              		.cfi_offset 5, -32
 123              		.cfi_offset 6, -28
 124              		.cfi_offset 7, -24
 125              		.cfi_offset 8, -20
 126              		.cfi_offset 9, -16
 127              		.cfi_offset 10, -12
 128              		.cfi_offset 11, -8
 129              		.cfi_offset 14, -4
  37:../Middlewares/stm32-vision-models-postprocessing/lib_vision_models_pp/Src/od_pp_yolov2.c ****   int32_t i, j, k, limit_counter;
ARM GAS  /tmp/ccZ8kJT0.s 			page 4


 130              		.loc 1 37 1 view .LVU29
 131 0004 0546     		mov	r5, r0
 132 0006 0C46     		mov	r4, r1
 133              		.loc 1 40 10 view .LVU30
 134 0008 0027     		movs	r7, #0
 135              	.LBB2:
 136              	.LBB3:
  41:../Middlewares/stm32-vision-models-postprocessing/lib_vision_models_pp/Src/od_pp_yolov2.c ****   {
  42:../Middlewares/stm32-vision-models-postprocessing/lib_vision_models_pp/Src/od_pp_yolov2.c ****     limit_counter = 0;
  43:../Middlewares/stm32-vision-models-postprocessing/lib_vision_models_pp/Src/od_pp_yolov2.c ****     AI_YOLOV2_PP_SORT_CLASS = k;
  44:../Middlewares/stm32-vision-models-postprocessing/lib_vision_models_pp/Src/od_pp_yolov2.c **** 
  45:../Middlewares/stm32-vision-models-postprocessing/lib_vision_models_pp/Src/od_pp_yolov2.c ****     qsort(pScratchBuffer,
  46:../Middlewares/stm32-vision-models-postprocessing/lib_vision_models_pp/Src/od_pp_yolov2.c ****           pInput_static_param->nb_detect,
  47:../Middlewares/stm32-vision-models-postprocessing/lib_vision_models_pp/Src/od_pp_yolov2.c ****           sizeof(od_pp_outBuffer_t),
  48:../Middlewares/stm32-vision-models-postprocessing/lib_vision_models_pp/Src/od_pp_yolov2.c ****           (_Cmpfun *)yolov2_nms_comparator);
  49:../Middlewares/stm32-vision-models-postprocessing/lib_vision_models_pp/Src/od_pp_yolov2.c **** 
  50:../Middlewares/stm32-vision-models-postprocessing/lib_vision_models_pp/Src/od_pp_yolov2.c ****     for (i = 0; i < (pInput_static_param->nb_detect) ; i ++)
  51:../Middlewares/stm32-vision-models-postprocessing/lib_vision_models_pp/Src/od_pp_yolov2.c ****     {
  52:../Middlewares/stm32-vision-models-postprocessing/lib_vision_models_pp/Src/od_pp_yolov2.c ****       if (pScratchBuffer[i].conf == 0) continue;
  53:../Middlewares/stm32-vision-models-postprocessing/lib_vision_models_pp/Src/od_pp_yolov2.c ****       float32_t *a = &(pScratchBuffer[i].x_center);
  54:../Middlewares/stm32-vision-models-postprocessing/lib_vision_models_pp/Src/od_pp_yolov2.c ****       for (j = i+1; j < (pInput_static_param->nb_detect); j++)
  55:../Middlewares/stm32-vision-models-postprocessing/lib_vision_models_pp/Src/od_pp_yolov2.c ****       {
  56:../Middlewares/stm32-vision-models-postprocessing/lib_vision_models_pp/Src/od_pp_yolov2.c ****         if (pScratchBuffer[j].conf == 0) continue;
 137              		.loc 1 56 12 view .LVU31
 138 000a 4FF0000A 		mov	r10, #0
 139              	.LVL9:
 140              	.L11:
 141              		.loc 1 56 12 view .LVU32
 142              	.LBE3:
 143              	.LBE2:
  40:../Middlewares/stm32-vision-models-postprocessing/lib_vision_models_pp/Src/od_pp_yolov2.c ****   {
 144              		.loc 1 40 17 is_stmt 1 discriminator 1 view .LVU33
 145 000e 2368     		ldr	r3, [r4]
 146 0010 BB42     		cmp	r3, r7
 147 0012 03DC     		bgt	.L25
  57:../Middlewares/stm32-vision-models-postprocessing/lib_vision_models_pp/Src/od_pp_yolov2.c ****         float32_t *b = &(pScratchBuffer[j].x_center);
  58:../Middlewares/stm32-vision-models-postprocessing/lib_vision_models_pp/Src/od_pp_yolov2.c ****         if (vision_models_box_iou(a, b) > pInput_static_param->iou_threshold)
  59:../Middlewares/stm32-vision-models-postprocessing/lib_vision_models_pp/Src/od_pp_yolov2.c ****         {
  60:../Middlewares/stm32-vision-models-postprocessing/lib_vision_models_pp/Src/od_pp_yolov2.c ****           pScratchBuffer[j].conf = 0;
  61:../Middlewares/stm32-vision-models-postprocessing/lib_vision_models_pp/Src/od_pp_yolov2.c ****         }
  62:../Middlewares/stm32-vision-models-postprocessing/lib_vision_models_pp/Src/od_pp_yolov2.c ****       }
  63:../Middlewares/stm32-vision-models-postprocessing/lib_vision_models_pp/Src/od_pp_yolov2.c ****     }
  64:../Middlewares/stm32-vision-models-postprocessing/lib_vision_models_pp/Src/od_pp_yolov2.c ****     for (int32_t y = 0; y <= pInput_static_param->nb_detect; y++)
  65:../Middlewares/stm32-vision-models-postprocessing/lib_vision_models_pp/Src/od_pp_yolov2.c ****     {
  66:../Middlewares/stm32-vision-models-postprocessing/lib_vision_models_pp/Src/od_pp_yolov2.c ****       if ((limit_counter < pInput_static_param->max_boxes_limit) &&
  67:../Middlewares/stm32-vision-models-postprocessing/lib_vision_models_pp/Src/od_pp_yolov2.c ****           (pScratchBuffer[y].conf != 0))
  68:../Middlewares/stm32-vision-models-postprocessing/lib_vision_models_pp/Src/od_pp_yolov2.c ****       {
  69:../Middlewares/stm32-vision-models-postprocessing/lib_vision_models_pp/Src/od_pp_yolov2.c ****         limit_counter++;
  70:../Middlewares/stm32-vision-models-postprocessing/lib_vision_models_pp/Src/od_pp_yolov2.c ****       }
  71:../Middlewares/stm32-vision-models-postprocessing/lib_vision_models_pp/Src/od_pp_yolov2.c ****       else
  72:../Middlewares/stm32-vision-models-postprocessing/lib_vision_models_pp/Src/od_pp_yolov2.c ****       {
  73:../Middlewares/stm32-vision-models-postprocessing/lib_vision_models_pp/Src/od_pp_yolov2.c ****         pScratchBuffer[y].conf = 0;
  74:../Middlewares/stm32-vision-models-postprocessing/lib_vision_models_pp/Src/od_pp_yolov2.c ****       }
  75:../Middlewares/stm32-vision-models-postprocessing/lib_vision_models_pp/Src/od_pp_yolov2.c ****     }
  76:../Middlewares/stm32-vision-models-postprocessing/lib_vision_models_pp/Src/od_pp_yolov2.c ****   }
  77:../Middlewares/stm32-vision-models-postprocessing/lib_vision_models_pp/Src/od_pp_yolov2.c **** 
  78:../Middlewares/stm32-vision-models-postprocessing/lib_vision_models_pp/Src/od_pp_yolov2.c ****   return (AI_OD_POSTPROCESS_ERROR_NO);
ARM GAS  /tmp/ccZ8kJT0.s 			page 5


 148              		.loc 1 78 3 view .LVU34
  79:../Middlewares/stm32-vision-models-postprocessing/lib_vision_models_pp/Src/od_pp_yolov2.c **** }
 149              		.loc 1 79 1 is_stmt 0 view .LVU35
 150 0014 0020     		movs	r0, #0
 151 0016 03B0     		add	sp, sp, #12
 152              		.cfi_remember_state
 153              		.cfi_def_cfa_offset 36
 154              		@ sp needed
 155 0018 BDE8F08F 		pop	{r4, r5, r6, r7, r8, r9, r10, fp, pc}
 156              	.LVL10:
 157              	.L25:
 158              		.cfi_restore_state
  42:../Middlewares/stm32-vision-models-postprocessing/lib_vision_models_pp/Src/od_pp_yolov2.c ****     AI_YOLOV2_PP_SORT_CLASS = k;
 159              		.loc 1 42 5 is_stmt 1 view .LVU36
  43:../Middlewares/stm32-vision-models-postprocessing/lib_vision_models_pp/Src/od_pp_yolov2.c **** 
 160              		.loc 1 43 5 view .LVU37
  43:../Middlewares/stm32-vision-models-postprocessing/lib_vision_models_pp/Src/od_pp_yolov2.c **** 
 161              		.loc 1 43 29 is_stmt 0 view .LVU38
 162 001c 2C4B     		ldr	r3, .L29
  45:../Middlewares/stm32-vision-models-postprocessing/lib_vision_models_pp/Src/od_pp_yolov2.c ****           pInput_static_param->nb_detect,
 163              		.loc 1 45 5 view .LVU39
 164 001e 1822     		movs	r2, #24
  43:../Middlewares/stm32-vision-models-postprocessing/lib_vision_models_pp/Src/od_pp_yolov2.c **** 
 165              		.loc 1 43 29 view .LVU40
 166 0020 1F60     		str	r7, [r3]
  45:../Middlewares/stm32-vision-models-postprocessing/lib_vision_models_pp/Src/od_pp_yolov2.c ****           pInput_static_param->nb_detect,
 167              		.loc 1 45 5 is_stmt 1 view .LVU41
 168 0022 2846     		mov	r0, r5
 169 0024 2B4B     		ldr	r3, .L29+4
 170 0026 616A     		ldr	r1, [r4, #36]
 171 0028 FFF7FEFF 		bl	qsort
 172              	.LVL11:
  50:../Middlewares/stm32-vision-models-postprocessing/lib_vision_models_pp/Src/od_pp_yolov2.c ****     {
 173              		.loc 1 50 5 view .LVU42
  50:../Middlewares/stm32-vision-models-postprocessing/lib_vision_models_pp/Src/od_pp_yolov2.c ****     {
 174              		.loc 1 50 5 is_stmt 0 view .LVU43
 175 002c A846     		mov	r8, r5
 176 002e 2E46     		mov	r6, r5
  50:../Middlewares/stm32-vision-models-postprocessing/lib_vision_models_pp/Src/od_pp_yolov2.c ****     {
 177              		.loc 1 50 12 view .LVU44
 178 0030 4FF00009 		mov	r9, #0
 179              	.LVL12:
 180              	.L12:
  50:../Middlewares/stm32-vision-models-postprocessing/lib_vision_models_pp/Src/od_pp_yolov2.c ****     {
 181              		.loc 1 50 19 is_stmt 1 discriminator 1 view .LVU45
  50:../Middlewares/stm32-vision-models-postprocessing/lib_vision_models_pp/Src/od_pp_yolov2.c ****     {
 182              		.loc 1 50 41 is_stmt 0 discriminator 1 view .LVU46
 183 0034 616A     		ldr	r1, [r4, #36]
  50:../Middlewares/stm32-vision-models-postprocessing/lib_vision_models_pp/Src/od_pp_yolov2.c ****     {
 184              		.loc 1 50 19 discriminator 1 view .LVU47
 185 0036 4945     		cmp	r1, r9
 186 0038 0BDC     		bgt	.L20
 187 003a 11F1010F 		cmn	r1, #1
  42:../Middlewares/stm32-vision-models-postprocessing/lib_vision_models_pp/Src/od_pp_yolov2.c ****     AI_YOLOV2_PP_SORT_CLASS = k;
 188              		.loc 1 42 19 view .LVU48
 189 003e 4FF00002 		mov	r2, #0
 190              	.LBB5:
ARM GAS  /tmp/ccZ8kJT0.s 			page 6


  73:../Middlewares/stm32-vision-models-postprocessing/lib_vision_models_pp/Src/od_pp_yolov2.c ****       }
 191              		.loc 1 73 32 view .LVU49
 192 0042 01F10203 		add	r3, r1, #2
 193 0046 00D5     		bpl	.L21
 194 0048 0123     		movs	r3, #1
 195              	.LVL13:
 196              	.L21:
  64:../Middlewares/stm32-vision-models-postprocessing/lib_vision_models_pp/Src/od_pp_yolov2.c ****     {
 197              		.loc 1 64 27 is_stmt 1 discriminator 1 view .LVU50
 198 004a 013B     		subs	r3, r3, #1
 199 004c 2ED1     		bne	.L24
 200              	.LBE5:
  40:../Middlewares/stm32-vision-models-postprocessing/lib_vision_models_pp/Src/od_pp_yolov2.c ****   {
 201              		.loc 1 40 52 discriminator 2 view .LVU51
 202 004e 0137     		adds	r7, r7, #1
 203              	.LVL14:
  40:../Middlewares/stm32-vision-models-postprocessing/lib_vision_models_pp/Src/od_pp_yolov2.c ****   {
 204              		.loc 1 40 52 is_stmt 0 discriminator 2 view .LVU52
 205 0050 DDE7     		b	.L11
 206              	.LVL15:
 207              	.L20:
 208              	.LBB6:
  52:../Middlewares/stm32-vision-models-postprocessing/lib_vision_models_pp/Src/od_pp_yolov2.c ****       float32_t *a = &(pScratchBuffer[i].x_center);
 209              		.loc 1 52 7 is_stmt 1 view .LVU53
  52:../Middlewares/stm32-vision-models-postprocessing/lib_vision_models_pp/Src/od_pp_yolov2.c ****       float32_t *a = &(pScratchBuffer[i].x_center);
 210              		.loc 1 52 10 is_stmt 0 view .LVU54
 211 0052 D6ED047A 		vldr.32	s15, [r6, #16]
 212 0056 F5EE407A 		vcmp.f32	s15, #0
 213 005a F1EE10FA 		vmrs	APSR_nzcv, FPSCR
  54:../Middlewares/stm32-vision-models-postprocessing/lib_vision_models_pp/Src/od_pp_yolov2.c ****       {
 214              		.loc 1 54 14 view .LVU55
 215 005e 09F10109 		add	r9, r9, #1
 216              	.LVL16:
  52:../Middlewares/stm32-vision-models-postprocessing/lib_vision_models_pp/Src/od_pp_yolov2.c ****       float32_t *a = &(pScratchBuffer[i].x_center);
 217              		.loc 1 52 10 view .LVU56
 218 0062 20D1     		bne	.L26
 219              	.L19:
 220              	.LBE6:
  50:../Middlewares/stm32-vision-models-postprocessing/lib_vision_models_pp/Src/od_pp_yolov2.c ****     {
 221              		.loc 1 50 58 is_stmt 1 discriminator 2 view .LVU57
 222              	.LVL17:
  50:../Middlewares/stm32-vision-models-postprocessing/lib_vision_models_pp/Src/od_pp_yolov2.c ****     {
 223              		.loc 1 50 58 is_stmt 0 discriminator 2 view .LVU58
 224 0064 1836     		adds	r6, r6, #24
 225 0066 E5E7     		b	.L12
 226              	.LVL18:
 227              	.L18:
 228              	.LBB7:
 229              	.LBB4:
  56:../Middlewares/stm32-vision-models-postprocessing/lib_vision_models_pp/Src/od_pp_yolov2.c ****         float32_t *b = &(pScratchBuffer[j].x_center);
 230              		.loc 1 56 9 is_stmt 1 view .LVU59
  56:../Middlewares/stm32-vision-models-postprocessing/lib_vision_models_pp/Src/od_pp_yolov2.c ****         float32_t *b = &(pScratchBuffer[j].x_center);
 231              		.loc 1 56 12 is_stmt 0 view .LVU60
 232 0068 DBED0A7A 		vldr.32	s15, [fp, #40]
 233 006c F5EE407A 		vcmp.f32	s15, #0
 234 0070 F1EE10FA 		vmrs	APSR_nzcv, FPSCR
 235 0074 0BF11801 		add	r1, fp, #24
ARM GAS  /tmp/ccZ8kJT0.s 			page 7


 236 0078 0FD0     		beq	.L15
  58:../Middlewares/stm32-vision-models-postprocessing/lib_vision_models_pp/Src/od_pp_yolov2.c ****         {
 237              		.loc 1 58 13 view .LVU61
 238 007a 3046     		mov	r0, r6
 239 007c CDE90013 		strd	r1, r3, [sp]
 240 0080 FFF7FEFF 		bl	vision_models_box_iou
 241              	.LVL19:
  58:../Middlewares/stm32-vision-models-postprocessing/lib_vision_models_pp/Src/od_pp_yolov2.c ****         {
 242              		.loc 1 58 12 discriminator 1 view .LVU62
 243 0084 DDE90013 		ldrd	r1, r3, [sp]
  60:../Middlewares/stm32-vision-models-postprocessing/lib_vision_models_pp/Src/od_pp_yolov2.c ****         }
 244              		.loc 1 60 11 is_stmt 1 view .LVU63
  58:../Middlewares/stm32-vision-models-postprocessing/lib_vision_models_pp/Src/od_pp_yolov2.c ****         {
 245              		.loc 1 58 12 is_stmt 0 discriminator 1 view .LVU64
 246 0088 D4ED077A 		vldr.32	s15, [r4, #28]
 247 008c B4EEE70A 		vcmpe.f32	s0, s15
 248 0090 F1EE10FA 		vmrs	APSR_nzcv, FPSCR
  60:../Middlewares/stm32-vision-models-postprocessing/lib_vision_models_pp/Src/od_pp_yolov2.c ****         }
 249              		.loc 1 60 34 view .LVU65
 250 0094 C8BF     		it	gt
 251 0096 CBF828A0 		strgt	r10, [fp, #40]	@ float
 252              	.LVL20:
 253              	.L15:
  60:../Middlewares/stm32-vision-models-postprocessing/lib_vision_models_pp/Src/od_pp_yolov2.c ****         }
 254              		.loc 1 60 34 view .LVU66
 255              	.LBE4:
  54:../Middlewares/stm32-vision-models-postprocessing/lib_vision_models_pp/Src/od_pp_yolov2.c ****       {
 256              		.loc 1 54 60 is_stmt 1 discriminator 2 view .LVU67
 257 009a 8B46     		mov	fp, r1
 258 009c 0133     		adds	r3, r3, #1
 259              	.LVL21:
 260              	.L13:
  54:../Middlewares/stm32-vision-models-postprocessing/lib_vision_models_pp/Src/od_pp_yolov2.c ****       {
 261              		.loc 1 54 23 discriminator 1 view .LVU68
 262 009e 626A     		ldr	r2, [r4, #36]
 263 00a0 9A42     		cmp	r2, r3
 264 00a2 E1DC     		bgt	.L18
 265 00a4 DEE7     		b	.L19
 266              	.LVL22:
 267              	.L26:
  54:../Middlewares/stm32-vision-models-postprocessing/lib_vision_models_pp/Src/od_pp_yolov2.c ****       {
 268              		.loc 1 54 23 is_stmt 0 discriminator 1 view .LVU69
 269 00a6 B346     		mov	fp, r6
  54:../Middlewares/stm32-vision-models-postprocessing/lib_vision_models_pp/Src/od_pp_yolov2.c ****       {
 270              		.loc 1 54 14 view .LVU70
 271 00a8 4B46     		mov	r3, r9
 272 00aa F8E7     		b	.L13
 273              	.LVL23:
 274              	.L24:
  54:../Middlewares/stm32-vision-models-postprocessing/lib_vision_models_pp/Src/od_pp_yolov2.c ****       {
 275              		.loc 1 54 14 view .LVU71
 276              	.LBE7:
 277              	.LBB8:
  66:../Middlewares/stm32-vision-models-postprocessing/lib_vision_models_pp/Src/od_pp_yolov2.c ****           (pScratchBuffer[y].conf != 0))
 278              		.loc 1 66 7 is_stmt 1 view .LVU72
  66:../Middlewares/stm32-vision-models-postprocessing/lib_vision_models_pp/Src/od_pp_yolov2.c ****           (pScratchBuffer[y].conf != 0))
 279              		.loc 1 66 10 is_stmt 0 view .LVU73
ARM GAS  /tmp/ccZ8kJT0.s 			page 8


 280 00ac 6169     		ldr	r1, [r4, #20]
 281 00ae 9142     		cmp	r1, r2
 282 00b0 0ADD     		ble	.L22
  66:../Middlewares/stm32-vision-models-postprocessing/lib_vision_models_pp/Src/od_pp_yolov2.c ****           (pScratchBuffer[y].conf != 0))
 283              		.loc 1 66 66 discriminator 1 view .LVU74
 284 00b2 D8ED047A 		vldr.32	s15, [r8, #16]
 285 00b6 F5EE407A 		vcmp.f32	s15, #0
 286 00ba F1EE10FA 		vmrs	APSR_nzcv, FPSCR
 287 00be 03D0     		beq	.L22
  69:../Middlewares/stm32-vision-models-postprocessing/lib_vision_models_pp/Src/od_pp_yolov2.c ****       }
 288              		.loc 1 69 9 is_stmt 1 view .LVU75
  69:../Middlewares/stm32-vision-models-postprocessing/lib_vision_models_pp/Src/od_pp_yolov2.c ****       }
 289              		.loc 1 69 22 is_stmt 0 view .LVU76
 290 00c0 0132     		adds	r2, r2, #1
 291              	.LVL24:
 292              	.L23:
  64:../Middlewares/stm32-vision-models-postprocessing/lib_vision_models_pp/Src/od_pp_yolov2.c ****     {
 293              		.loc 1 64 63 is_stmt 1 discriminator 2 view .LVU77
 294 00c2 08F11808 		add	r8, r8, #24
 295 00c6 C0E7     		b	.L21
 296              	.L22:
  73:../Middlewares/stm32-vision-models-postprocessing/lib_vision_models_pp/Src/od_pp_yolov2.c ****       }
 297              		.loc 1 73 9 view .LVU78
  73:../Middlewares/stm32-vision-models-postprocessing/lib_vision_models_pp/Src/od_pp_yolov2.c ****       }
 298              		.loc 1 73 32 is_stmt 0 view .LVU79
 299 00c8 C8F810A0 		str	r10, [r8, #16]	@ float
 300 00cc F9E7     		b	.L23
 301              	.L30:
 302 00ce 00BF     		.align	2
 303              	.L29:
 304 00d0 00000000 		.word	AI_YOLOV2_PP_SORT_CLASS
 305 00d4 00000000 		.word	yolov2_nms_comparator
 306              	.LBE8:
 307              		.cfi_endproc
 308              	.LFE775:
 310              		.section	.text.yolov2_pp_scoreFiltering_centroid,"ax",%progbits
 311              		.align	1
 312              		.global	yolov2_pp_scoreFiltering_centroid
 313              		.syntax unified
 314              		.thumb
 315              		.thumb_func
 317              	yolov2_pp_scoreFiltering_centroid:
 318              	.LVL25:
 319              	.LFB776:
  80:../Middlewares/stm32-vision-models-postprocessing/lib_vision_models_pp/Src/od_pp_yolov2.c **** 
  81:../Middlewares/stm32-vision-models-postprocessing/lib_vision_models_pp/Src/od_pp_yolov2.c **** 
  82:../Middlewares/stm32-vision-models-postprocessing/lib_vision_models_pp/Src/od_pp_yolov2.c **** int32_t yolov2_pp_scoreFiltering_centroid(od_pp_outBuffer_t *pScratchBuff,
  83:../Middlewares/stm32-vision-models-postprocessing/lib_vision_models_pp/Src/od_pp_yolov2.c ****                                           od_pp_out_t *pOutput,
  84:../Middlewares/stm32-vision-models-postprocessing/lib_vision_models_pp/Src/od_pp_yolov2.c ****                                           od_yolov2_pp_static_param_t *pInput_static_param)
  85:../Middlewares/stm32-vision-models-postprocessing/lib_vision_models_pp/Src/od_pp_yolov2.c **** {
 320              		.loc 1 85 1 is_stmt 1 view -0
 321              		.cfi_startproc
 322              		@ args = 0, pretend = 0, frame = 0
 323              		@ frame_needed = 0, uses_anonymous_args = 0
  86:../Middlewares/stm32-vision-models-postprocessing/lib_vision_models_pp/Src/od_pp_yolov2.c ****   int32_t det_count = 0;
 324              		.loc 1 86 3 view .LVU81
  87:../Middlewares/stm32-vision-models-postprocessing/lib_vision_models_pp/Src/od_pp_yolov2.c **** 
ARM GAS  /tmp/ccZ8kJT0.s 			page 9


  88:../Middlewares/stm32-vision-models-postprocessing/lib_vision_models_pp/Src/od_pp_yolov2.c ****   for (int32_t i = 0; i < (pInput_static_param->nb_detect); i ++)
 325              		.loc 1 88 3 view .LVU82
 326              	.LBB9:
 327              		.loc 1 88 8 view .LVU83
 328              		.loc 1 88 8 is_stmt 0 view .LVU84
 329              	.LBE9:
  85:../Middlewares/stm32-vision-models-postprocessing/lib_vision_models_pp/Src/od_pp_yolov2.c ****   int32_t det_count = 0;
 330              		.loc 1 85 1 view .LVU85
 331 0000 F0B5     		push	{r4, r5, r6, r7, lr}
 332              		.cfi_def_cfa_offset 20
 333              		.cfi_offset 4, -20
 334              		.cfi_offset 5, -16
 335              		.cfi_offset 6, -12
 336              		.cfi_offset 7, -8
 337              		.cfi_offset 14, -4
 338              	.LBB10:
 339              		.loc 1 88 16 view .LVU86
 340 0002 0024     		movs	r4, #0
  89:../Middlewares/stm32-vision-models-postprocessing/lib_vision_models_pp/Src/od_pp_yolov2.c ****   {
  90:../Middlewares/stm32-vision-models-postprocessing/lib_vision_models_pp/Src/od_pp_yolov2.c ****     if (pScratchBuff[i].conf != 0)
  91:../Middlewares/stm32-vision-models-postprocessing/lib_vision_models_pp/Src/od_pp_yolov2.c ****     {
  92:../Middlewares/stm32-vision-models-postprocessing/lib_vision_models_pp/Src/od_pp_yolov2.c ****       memcpy(&pOutput->pOutBuff[det_count],&pScratchBuff[i],sizeof(od_pp_outBuffer_t));
 341              		.loc 1 92 32 view .LVU87
 342 0004 1826     		movs	r6, #24
 343              	.LBE10:
  86:../Middlewares/stm32-vision-models-postprocessing/lib_vision_models_pp/Src/od_pp_yolov2.c **** 
 344              		.loc 1 86 11 view .LVU88
 345 0006 2346     		mov	r3, r4
 346              	.LVL26:
 347              	.L32:
 348              	.LBB11:
  88:../Middlewares/stm32-vision-models-postprocessing/lib_vision_models_pp/Src/od_pp_yolov2.c ****   {
 349              		.loc 1 88 25 is_stmt 1 discriminator 1 view .LVU89
 350 0008 556A     		ldr	r5, [r2, #36]
 351 000a A542     		cmp	r5, r4
 352 000c 02DC     		bgt	.L35
 353              	.LBE11:
  93:../Middlewares/stm32-vision-models-postprocessing/lib_vision_models_pp/Src/od_pp_yolov2.c ****       det_count++;
  94:../Middlewares/stm32-vision-models-postprocessing/lib_vision_models_pp/Src/od_pp_yolov2.c ****     }
  95:../Middlewares/stm32-vision-models-postprocessing/lib_vision_models_pp/Src/od_pp_yolov2.c ****   }
  96:../Middlewares/stm32-vision-models-postprocessing/lib_vision_models_pp/Src/od_pp_yolov2.c ****   pOutput->nb_detect = det_count;
 354              		.loc 1 96 3 view .LVU90
  97:../Middlewares/stm32-vision-models-postprocessing/lib_vision_models_pp/Src/od_pp_yolov2.c **** 
  98:../Middlewares/stm32-vision-models-postprocessing/lib_vision_models_pp/Src/od_pp_yolov2.c ****   return (AI_OD_POSTPROCESS_ERROR_NO);
  99:../Middlewares/stm32-vision-models-postprocessing/lib_vision_models_pp/Src/od_pp_yolov2.c **** }
 355              		.loc 1 99 1 is_stmt 0 view .LVU91
 356 000e 0020     		movs	r0, #0
  96:../Middlewares/stm32-vision-models-postprocessing/lib_vision_models_pp/Src/od_pp_yolov2.c **** 
 357              		.loc 1 96 22 view .LVU92
 358 0010 4B60     		str	r3, [r1, #4]
  98:../Middlewares/stm32-vision-models-postprocessing/lib_vision_models_pp/Src/od_pp_yolov2.c **** }
 359              		.loc 1 98 3 is_stmt 1 view .LVU93
 360              		.loc 1 99 1 is_stmt 0 view .LVU94
 361 0012 F0BD     		pop	{r4, r5, r6, r7, pc}
 362              	.LVL27:
 363              	.L35:
 364              	.LBB12:
ARM GAS  /tmp/ccZ8kJT0.s 			page 10


  90:../Middlewares/stm32-vision-models-postprocessing/lib_vision_models_pp/Src/od_pp_yolov2.c ****     {
 365              		.loc 1 90 5 is_stmt 1 view .LVU95
  90:../Middlewares/stm32-vision-models-postprocessing/lib_vision_models_pp/Src/od_pp_yolov2.c ****     {
 366              		.loc 1 90 8 is_stmt 0 view .LVU96
 367 0014 D0ED047A 		vldr.32	s15, [r0, #16]
 368 0018 F5EE407A 		vcmp.f32	s15, #0
 369 001c F1EE10FA 		vmrs	APSR_nzcv, FPSCR
 370 0020 00F11807 		add	r7, r0, #24
 371 0024 0DD0     		beq	.L33
  92:../Middlewares/stm32-vision-models-postprocessing/lib_vision_models_pp/Src/od_pp_yolov2.c ****       det_count++;
 372              		.loc 1 92 7 is_stmt 1 view .LVU97
 373 0026 4FF0060E 		mov	lr, #6
 374 002a 4EF001E0 		dls	lr, lr
  92:../Middlewares/stm32-vision-models-postprocessing/lib_vision_models_pp/Src/od_pp_yolov2.c ****       det_count++;
 375              		.loc 1 92 14 is_stmt 0 view .LVU98
 376 002e 0D68     		ldr	r5, [r1]
  92:../Middlewares/stm32-vision-models-postprocessing/lib_vision_models_pp/Src/od_pp_yolov2.c ****       det_count++;
 377              		.loc 1 92 7 view .LVU99
 378 0030 06FB0355 		mla	r5, r6, r3, r5
 379              	.L34:
 380 0034 50F804CB 		ldr	ip, [r0], #4	@ unaligned
 381 0038 45F804CB 		str	ip, [r5], #4	@ unaligned
 382 003c 0FF007C0 		le	lr, .L34
  93:../Middlewares/stm32-vision-models-postprocessing/lib_vision_models_pp/Src/od_pp_yolov2.c ****     }
 383              		.loc 1 93 7 is_stmt 1 view .LVU100
  93:../Middlewares/stm32-vision-models-postprocessing/lib_vision_models_pp/Src/od_pp_yolov2.c ****     }
 384              		.loc 1 93 16 is_stmt 0 view .LVU101
 385 0040 0133     		adds	r3, r3, #1
 386              	.LVL28:
 387              	.L33:
  88:../Middlewares/stm32-vision-models-postprocessing/lib_vision_models_pp/Src/od_pp_yolov2.c ****   {
 388              		.loc 1 88 63 is_stmt 1 discriminator 2 view .LVU102
 389 0042 3846     		mov	r0, r7
 390 0044 0134     		adds	r4, r4, #1
 391              	.LVL29:
  88:../Middlewares/stm32-vision-models-postprocessing/lib_vision_models_pp/Src/od_pp_yolov2.c ****   {
 392              		.loc 1 88 63 is_stmt 0 discriminator 2 view .LVU103
 393 0046 DFE7     		b	.L32
 394              	.LBE12:
 395              		.cfi_endproc
 396              	.LFE776:
 398              		.section	.text.yolov2_pp_getNNBoxes_centroid,"ax",%progbits
 399              		.align	1
 400              		.global	yolov2_pp_getNNBoxes_centroid
 401              		.syntax unified
 402              		.thumb
 403              		.thumb_func
 405              	yolov2_pp_getNNBoxes_centroid:
 406              	.LVL30:
 407              	.LFB777:
 100:../Middlewares/stm32-vision-models-postprocessing/lib_vision_models_pp/Src/od_pp_yolov2.c **** 
 101:../Middlewares/stm32-vision-models-postprocessing/lib_vision_models_pp/Src/od_pp_yolov2.c **** 
 102:../Middlewares/stm32-vision-models-postprocessing/lib_vision_models_pp/Src/od_pp_yolov2.c **** int32_t yolov2_pp_getNNBoxes_centroid(od_yolov2_pp_in_t *pInput,
 103:../Middlewares/stm32-vision-models-postprocessing/lib_vision_models_pp/Src/od_pp_yolov2.c ****                                       od_pp_outBuffer_t *pOutbuff,
 104:../Middlewares/stm32-vision-models-postprocessing/lib_vision_models_pp/Src/od_pp_yolov2.c ****                                       od_yolov2_pp_static_param_t *pInput_static_param)
 105:../Middlewares/stm32-vision-models-postprocessing/lib_vision_models_pp/Src/od_pp_yolov2.c **** {
 408              		.loc 1 105 1 is_stmt 1 view -0
ARM GAS  /tmp/ccZ8kJT0.s 			page 11


 409              		.cfi_startproc
 410              		@ args = 0, pretend = 0, frame = 32
 411              		@ frame_needed = 0, uses_anonymous_args = 0
 106:../Middlewares/stm32-vision-models-postprocessing/lib_vision_models_pp/Src/od_pp_yolov2.c ****   int32_t error        = AI_OD_POSTPROCESS_ERROR_NO;
 412              		.loc 1 106 3 view .LVU105
 107:../Middlewares/stm32-vision-models-postprocessing/lib_vision_models_pp/Src/od_pp_yolov2.c ****   int32_t count_detect = 0;
 413              		.loc 1 107 3 view .LVU106
 108:../Middlewares/stm32-vision-models-postprocessing/lib_vision_models_pp/Src/od_pp_yolov2.c ****   float32_t best_score = 0;
 414              		.loc 1 108 3 view .LVU107
 109:../Middlewares/stm32-vision-models-postprocessing/lib_vision_models_pp/Src/od_pp_yolov2.c ****   uint32_t class_index;
 110:../Middlewares/stm32-vision-models-postprocessing/lib_vision_models_pp/Src/od_pp_yolov2.c ****   int32_t anch_stride  = pInput_static_param->nb_classes + AI_YOLOV2_PP_CLASSPROB;
 111:../Middlewares/stm32-vision-models-postprocessing/lib_vision_models_pp/Src/od_pp_yolov2.c **** 
 112:../Middlewares/stm32-vision-models-postprocessing/lib_vision_models_pp/Src/od_pp_yolov2.c ****   float32_t grid_width_inv = 1.0f / pInput_static_param->grid_width;
 415              		.loc 1 112 35 is_stmt 0 view .LVU108
 416 0000 D2ED027A 		vldr.32	s15, [r2, #8]	@ int
 417 0004 B8EEE77A 		vcvt.f32.s32	s14, s15
 418              		.loc 1 112 13 view .LVU109
 419 0008 F7EE007A 		vmov.f32	s15, #1.0e+0
 105:../Middlewares/stm32-vision-models-postprocessing/lib_vision_models_pp/Src/od_pp_yolov2.c ****   int32_t error        = AI_OD_POSTPROCESS_ERROR_NO;
 420              		.loc 1 105 1 view .LVU110
 421 000c 2DE9F04F 		push	{r4, r5, r6, r7, r8, r9, r10, fp, lr}
 422              		.cfi_def_cfa_offset 36
 423              		.cfi_offset 4, -36
 424              		.cfi_offset 5, -32
 425              		.cfi_offset 6, -28
 426              		.cfi_offset 7, -24
 427              		.cfi_offset 8, -20
 428              		.cfi_offset 9, -16
 429              		.cfi_offset 10, -12
 430              		.cfi_offset 11, -8
 431              		.cfi_offset 14, -4
 432 0010 2DED048B 		vpush.64	{d8, d9}
 433              		.cfi_def_cfa_offset 52
 434              		.cfi_offset 80, -52
 435              		.cfi_offset 81, -48
 436              		.cfi_offset 82, -44
 437              		.cfi_offset 83, -40
 438              		.loc 1 112 13 view .LVU111
 439 0014 C7EE878A 		vdiv.f32	s17, s15, s14
 113:../Middlewares/stm32-vision-models-postprocessing/lib_vision_models_pp/Src/od_pp_yolov2.c ****   float32_t grid_height_inv = 1.0f / pInput_static_param->grid_height;
 440              		.loc 1 113 36 view .LVU112
 441 0018 92ED037A 		vldr.32	s14, [r2, #12]	@ int
 108:../Middlewares/stm32-vision-models-postprocessing/lib_vision_models_pp/Src/od_pp_yolov2.c ****   uint32_t class_index;
 442              		.loc 1 108 13 view .LVU113
 443 001c 0023     		movs	r3, #0
 444              		.loc 1 113 36 view .LVU114
 445 001e B8EEC77A 		vcvt.f32.s32	s14, s14
 105:../Middlewares/stm32-vision-models-postprocessing/lib_vision_models_pp/Src/od_pp_yolov2.c ****   int32_t error        = AI_OD_POSTPROCESS_ERROR_NO;
 446              		.loc 1 105 1 view .LVU115
 447 0022 8BB0     		sub	sp, sp, #44
 448              		.cfi_def_cfa_offset 96
 108:../Middlewares/stm32-vision-models-postprocessing/lib_vision_models_pp/Src/od_pp_yolov2.c ****   uint32_t class_index;
 449              		.loc 1 108 13 view .LVU116
 450 0024 0893     		str	r3, [sp, #32]	@ float
 109:../Middlewares/stm32-vision-models-postprocessing/lib_vision_models_pp/Src/od_pp_yolov2.c ****   int32_t anch_stride  = pInput_static_param->nb_classes + AI_YOLOV2_PP_CLASSPROB;
 451              		.loc 1 109 3 is_stmt 1 view .LVU117
 110:../Middlewares/stm32-vision-models-postprocessing/lib_vision_models_pp/Src/od_pp_yolov2.c **** 
ARM GAS  /tmp/ccZ8kJT0.s 			page 12


 452              		.loc 1 110 3 view .LVU118
 110:../Middlewares/stm32-vision-models-postprocessing/lib_vision_models_pp/Src/od_pp_yolov2.c **** 
 453              		.loc 1 110 45 is_stmt 0 view .LVU119
 454 0026 1368     		ldr	r3, [r2]
 105:../Middlewares/stm32-vision-models-postprocessing/lib_vision_models_pp/Src/od_pp_yolov2.c ****   int32_t error        = AI_OD_POSTPROCESS_ERROR_NO;
 455              		.loc 1 105 1 view .LVU120
 456 0028 1446     		mov	r4, r2
 114:../Middlewares/stm32-vision-models-postprocessing/lib_vision_models_pp/Src/od_pp_yolov2.c ****   int32_t el_offset = 0;
 115:../Middlewares/stm32-vision-models-postprocessing/lib_vision_models_pp/Src/od_pp_yolov2.c ****   float32_t *pInbuff = (float32_t *)pInput->pRaw_detections;
 457              		.loc 1 115 14 view .LVU121
 458 002a 0268     		ldr	r2, [r0]
 459              	.LVL31:
 116:../Middlewares/stm32-vision-models-postprocessing/lib_vision_models_pp/Src/od_pp_yolov2.c **** 
 117:../Middlewares/stm32-vision-models-postprocessing/lib_vision_models_pp/Src/od_pp_yolov2.c ****   if ( 1 == pInput_static_param->nb_classes) {
 460              		.loc 1 117 6 view .LVU122
 461 002c 012B     		cmp	r3, #1
 113:../Middlewares/stm32-vision-models-postprocessing/lib_vision_models_pp/Src/od_pp_yolov2.c ****   int32_t el_offset = 0;
 462              		.loc 1 113 13 view .LVU123
 463 002e 87EE879A 		vdiv.f32	s18, s15, s14
 105:../Middlewares/stm32-vision-models-postprocessing/lib_vision_models_pp/Src/od_pp_yolov2.c ****   int32_t error        = AI_OD_POSTPROCESS_ERROR_NO;
 464              		.loc 1 105 1 view .LVU124
 465 0032 0591     		str	r1, [sp, #20]
 110:../Middlewares/stm32-vision-models-postprocessing/lib_vision_models_pp/Src/od_pp_yolov2.c **** 
 466              		.loc 1 110 11 view .LVU125
 467 0034 03F1050B 		add	fp, r3, #5
 468              	.LVL32:
 112:../Middlewares/stm32-vision-models-postprocessing/lib_vision_models_pp/Src/od_pp_yolov2.c ****   float32_t grid_height_inv = 1.0f / pInput_static_param->grid_height;
 469              		.loc 1 112 3 is_stmt 1 view .LVU126
 113:../Middlewares/stm32-vision-models-postprocessing/lib_vision_models_pp/Src/od_pp_yolov2.c ****   int32_t el_offset = 0;
 470              		.loc 1 113 3 view .LVU127
 114:../Middlewares/stm32-vision-models-postprocessing/lib_vision_models_pp/Src/od_pp_yolov2.c ****   float32_t *pInbuff = (float32_t *)pInput->pRaw_detections;
 471              		.loc 1 114 3 view .LVU128
 115:../Middlewares/stm32-vision-models-postprocessing/lib_vision_models_pp/Src/od_pp_yolov2.c **** 
 472              		.loc 1 115 3 view .LVU129
 115:../Middlewares/stm32-vision-models-postprocessing/lib_vision_models_pp/Src/od_pp_yolov2.c **** 
 473              		.loc 1 115 14 is_stmt 0 view .LVU130
 474 0038 0492     		str	r2, [sp, #16]
 475              	.LVL33:
 476              		.loc 1 117 3 is_stmt 1 view .LVU131
 477              		.loc 1 117 6 is_stmt 0 view .LVU132
 478 003a 0AD0     		beq	.L38
 479              	.LBB13:
 118:../Middlewares/stm32-vision-models-postprocessing/lib_vision_models_pp/Src/od_pp_yolov2.c ****     float32_t computedThreshold = -logf( 1 / pInput_static_param->conf_threshold - 1);
 119:../Middlewares/stm32-vision-models-postprocessing/lib_vision_models_pp/Src/od_pp_yolov2.c ****     for (int32_t row = 0; row < pInput_static_param->grid_width; ++row)
 120:../Middlewares/stm32-vision-models-postprocessing/lib_vision_models_pp/Src/od_pp_yolov2.c ****     {
 121:../Middlewares/stm32-vision-models-postprocessing/lib_vision_models_pp/Src/od_pp_yolov2.c ****       for (int32_t col = 0; col < pInput_static_param->grid_height; ++col)
 122:../Middlewares/stm32-vision-models-postprocessing/lib_vision_models_pp/Src/od_pp_yolov2.c ****       {
 123:../Middlewares/stm32-vision-models-postprocessing/lib_vision_models_pp/Src/od_pp_yolov2.c ****         for (int32_t anch = 0; anch < pInput_static_param->nb_anchors; ++anch)
 124:../Middlewares/stm32-vision-models-postprocessing/lib_vision_models_pp/Src/od_pp_yolov2.c ****         {
 125:../Middlewares/stm32-vision-models-postprocessing/lib_vision_models_pp/Src/od_pp_yolov2.c **** 
 126:../Middlewares/stm32-vision-models-postprocessing/lib_vision_models_pp/Src/od_pp_yolov2.c ****           if ( pInbuff[el_offset + AI_YOLOV2_PP_OBJECTNESS] >= computedThreshold)
 127:../Middlewares/stm32-vision-models-postprocessing/lib_vision_models_pp/Src/od_pp_yolov2.c ****           {
 128:../Middlewares/stm32-vision-models-postprocessing/lib_vision_models_pp/Src/od_pp_yolov2.c ****             float32_t prob = vision_models_sigmoid_f(pInbuff[el_offset + AI_YOLOV2_PP_OBJECTNESS]);
 129:../Middlewares/stm32-vision-models-postprocessing/lib_vision_models_pp/Src/od_pp_yolov2.c ****             pOutbuff[count_detect].conf = prob;
 130:../Middlewares/stm32-vision-models-postprocessing/lib_vision_models_pp/Src/od_pp_yolov2.c ****             pOutbuff[count_detect].class_index = 0;
 131:../Middlewares/stm32-vision-models-postprocessing/lib_vision_models_pp/Src/od_pp_yolov2.c **** 
 132:../Middlewares/stm32-vision-models-postprocessing/lib_vision_models_pp/Src/od_pp_yolov2.c ****             pOutbuff[count_detect].x_center   = (col + vision_models_sigmoid_f(pInbuff[el_offset + 
ARM GAS  /tmp/ccZ8kJT0.s 			page 13


 133:../Middlewares/stm32-vision-models-postprocessing/lib_vision_models_pp/Src/od_pp_yolov2.c ****             pOutbuff[count_detect].y_center   = (row + vision_models_sigmoid_f(pInbuff[el_offset + 
 134:../Middlewares/stm32-vision-models-postprocessing/lib_vision_models_pp/Src/od_pp_yolov2.c ****             pOutbuff[count_detect].width      = (pInput_static_param->pAnchors[2 * anch    ] * expf
 135:../Middlewares/stm32-vision-models-postprocessing/lib_vision_models_pp/Src/od_pp_yolov2.c ****             pOutbuff[count_detect].height     = (pInput_static_param->pAnchors[2 * anch + 1] * expf
 136:../Middlewares/stm32-vision-models-postprocessing/lib_vision_models_pp/Src/od_pp_yolov2.c **** 
 137:../Middlewares/stm32-vision-models-postprocessing/lib_vision_models_pp/Src/od_pp_yolov2.c ****             count_detect++;
 138:../Middlewares/stm32-vision-models-postprocessing/lib_vision_models_pp/Src/od_pp_yolov2.c ****           }
 139:../Middlewares/stm32-vision-models-postprocessing/lib_vision_models_pp/Src/od_pp_yolov2.c **** 
 140:../Middlewares/stm32-vision-models-postprocessing/lib_vision_models_pp/Src/od_pp_yolov2.c ****           el_offset += anch_stride;
 141:../Middlewares/stm32-vision-models-postprocessing/lib_vision_models_pp/Src/od_pp_yolov2.c ****        }
 142:../Middlewares/stm32-vision-models-postprocessing/lib_vision_models_pp/Src/od_pp_yolov2.c ****       }
 143:../Middlewares/stm32-vision-models-postprocessing/lib_vision_models_pp/Src/od_pp_yolov2.c ****     }
 144:../Middlewares/stm32-vision-models-postprocessing/lib_vision_models_pp/Src/od_pp_yolov2.c ****   }
 145:../Middlewares/stm32-vision-models-postprocessing/lib_vision_models_pp/Src/od_pp_yolov2.c ****   else
 146:../Middlewares/stm32-vision-models-postprocessing/lib_vision_models_pp/Src/od_pp_yolov2.c ****   {
 147:../Middlewares/stm32-vision-models-postprocessing/lib_vision_models_pp/Src/od_pp_yolov2.c ****     for (int32_t row = 0; row < pInput_static_param->grid_width; ++row)
 480              		.loc 1 147 18 view .LVU133
 481 003c 0027     		movs	r7, #0
 482              	.LBE13:
 114:../Middlewares/stm32-vision-models-postprocessing/lib_vision_models_pp/Src/od_pp_yolov2.c ****   float32_t *pInbuff = (float32_t *)pInput->pRaw_detections;
 483              		.loc 1 114 11 view .LVU134
 484 003e BA46     		mov	r10, r7
 107:../Middlewares/stm32-vision-models-postprocessing/lib_vision_models_pp/Src/od_pp_yolov2.c ****   float32_t best_score = 0;
 485              		.loc 1 107 11 view .LVU135
 486 0040 3E46     		mov	r6, r7
 487 0042 4FEA8B03 		lsl	r3, fp, #2
 488 0046 0693     		str	r3, [sp, #24]
 489              	.LVL34:
 490              	.L39:
 491              	.LBB24:
 492              		.loc 1 147 31 is_stmt 1 discriminator 1 view .LVU136
 493 0048 A368     		ldr	r3, [r4, #8]
 494 004a BB42     		cmp	r3, r7
 495 004c 11DD     		ble	.L47
 496              	.LBB14:
 148:../Middlewares/stm32-vision-models-postprocessing/lib_vision_models_pp/Src/od_pp_yolov2.c ****     {
 149:../Middlewares/stm32-vision-models-postprocessing/lib_vision_models_pp/Src/od_pp_yolov2.c ****       for (int32_t col = 0; col < pInput_static_param->grid_height; ++col)
 497              		.loc 1 149 20 is_stmt 0 view .LVU137
 498 004e 0023     		movs	r3, #0
 499 0050 F2E0     		b	.L60
 500              	.LVL35:
 501              	.L38:
 502              		.loc 1 149 20 view .LVU138
 503              	.LBE14:
 504              	.LBE24:
 505              	.LBB25:
 118:../Middlewares/stm32-vision-models-postprocessing/lib_vision_models_pp/Src/od_pp_yolov2.c ****     for (int32_t row = 0; row < pInput_static_param->grid_width; ++row)
 506              		.loc 1 118 5 is_stmt 1 view .LVU139
 118:../Middlewares/stm32-vision-models-postprocessing/lib_vision_models_pp/Src/od_pp_yolov2.c ****     for (int32_t row = 0; row < pInput_static_param->grid_width; ++row)
 507              		.loc 1 118 44 is_stmt 0 view .LVU140
 508 0052 94ED067A 		vldr.32	s14, [r4, #24]
 509 0056 87EE870A 		vdiv.f32	s0, s15, s14
 118:../Middlewares/stm32-vision-models-postprocessing/lib_vision_models_pp/Src/od_pp_yolov2.c ****     for (int32_t row = 0; row < pInput_static_param->grid_width; ++row)
 510              		.loc 1 118 36 view .LVU141
 511 005a 30EE670A 		vsub.f32	s0, s0, s15
 512              	.LBB26:
 119:../Middlewares/stm32-vision-models-postprocessing/lib_vision_models_pp/Src/od_pp_yolov2.c ****     {
 513              		.loc 1 119 18 view .LVU142
ARM GAS  /tmp/ccZ8kJT0.s 			page 14


 514 005e 0027     		movs	r7, #0
 515              	.LBE26:
 118:../Middlewares/stm32-vision-models-postprocessing/lib_vision_models_pp/Src/od_pp_yolov2.c ****     for (int32_t row = 0; row < pInput_static_param->grid_width; ++row)
 516              		.loc 1 118 36 view .LVU143
 517 0060 FFF7FEFF 		bl	logf
 518              	.LVL36:
 118:../Middlewares/stm32-vision-models-postprocessing/lib_vision_models_pp/Src/od_pp_yolov2.c ****     for (int32_t row = 0; row < pInput_static_param->grid_width; ++row)
 519              		.loc 1 118 36 view .LVU144
 520              	.LBE25:
 114:../Middlewares/stm32-vision-models-postprocessing/lib_vision_models_pp/Src/od_pp_yolov2.c ****   float32_t *pInbuff = (float32_t *)pInput->pRaw_detections;
 521              		.loc 1 114 11 view .LVU145
 522 0064 BB46     		mov	fp, r7
 523              	.LVL37:
 524              	.LBB34:
 118:../Middlewares/stm32-vision-models-postprocessing/lib_vision_models_pp/Src/od_pp_yolov2.c ****     for (int32_t row = 0; row < pInput_static_param->grid_width; ++row)
 525              		.loc 1 118 15 discriminator 1 view .LVU146
 526 0066 F1EE409A 		vneg.f32	s19, s0
 527              	.LVL38:
 119:../Middlewares/stm32-vision-models-postprocessing/lib_vision_models_pp/Src/od_pp_yolov2.c ****     {
 528              		.loc 1 119 5 is_stmt 1 view .LVU147
 529              	.LBB31:
 119:../Middlewares/stm32-vision-models-postprocessing/lib_vision_models_pp/Src/od_pp_yolov2.c ****     {
 530              		.loc 1 119 10 view .LVU148
 119:../Middlewares/stm32-vision-models-postprocessing/lib_vision_models_pp/Src/od_pp_yolov2.c ****     {
 531              		.loc 1 119 10 is_stmt 0 view .LVU149
 532              	.LBE31:
 533              	.LBE34:
 107:../Middlewares/stm32-vision-models-postprocessing/lib_vision_models_pp/Src/od_pp_yolov2.c ****   float32_t best_score = 0;
 534              		.loc 1 107 11 view .LVU150
 535 006a 3E46     		mov	r6, r7
 536              	.LVL39:
 537              	.L40:
 538              	.LBB35:
 539              	.LBB32:
 119:../Middlewares/stm32-vision-models-postprocessing/lib_vision_models_pp/Src/od_pp_yolov2.c ****     {
 540              		.loc 1 119 31 is_stmt 1 discriminator 1 view .LVU151
 541 006c A368     		ldr	r3, [r4, #8]
 542 006e BB42     		cmp	r3, r7
 543 0070 66DC     		bgt	.L56
 544              	.LVL40:
 545              	.L47:
 119:../Middlewares/stm32-vision-models-postprocessing/lib_vision_models_pp/Src/od_pp_yolov2.c ****     {
 546              		.loc 1 119 31 is_stmt 0 discriminator 1 view .LVU152
 547              	.LBE32:
 548              	.LBE35:
 150:../Middlewares/stm32-vision-models-postprocessing/lib_vision_models_pp/Src/od_pp_yolov2.c ****       {
 151:../Middlewares/stm32-vision-models-postprocessing/lib_vision_models_pp/Src/od_pp_yolov2.c ****         for (int32_t anch = 0; anch < pInput_static_param->nb_anchors; ++anch)
 152:../Middlewares/stm32-vision-models-postprocessing/lib_vision_models_pp/Src/od_pp_yolov2.c ****         {
 153:../Middlewares/stm32-vision-models-postprocessing/lib_vision_models_pp/Src/od_pp_yolov2.c ****           vision_models_maxi_p_if32ou32(&pInbuff[el_offset + AI_YOLOV2_PP_CLASSPROB],
 154:../Middlewares/stm32-vision-models-postprocessing/lib_vision_models_pp/Src/od_pp_yolov2.c ****                                       pInput_static_param->nb_classes,
 155:../Middlewares/stm32-vision-models-postprocessing/lib_vision_models_pp/Src/od_pp_yolov2.c ****                                       anch_stride,
 156:../Middlewares/stm32-vision-models-postprocessing/lib_vision_models_pp/Src/od_pp_yolov2.c ****                                       &best_score,
 157:../Middlewares/stm32-vision-models-postprocessing/lib_vision_models_pp/Src/od_pp_yolov2.c ****                                       &class_index,
 158:../Middlewares/stm32-vision-models-postprocessing/lib_vision_models_pp/Src/od_pp_yolov2.c ****                                       1);
 159:../Middlewares/stm32-vision-models-postprocessing/lib_vision_models_pp/Src/od_pp_yolov2.c ****           /* read and activate objectness */
 160:../Middlewares/stm32-vision-models-postprocessing/lib_vision_models_pp/Src/od_pp_yolov2.c ****           float32_t prob = vision_models_sigmoid_f(pInbuff[el_offset + AI_YOLOV2_PP_OBJECTNESS]);
 161:../Middlewares/stm32-vision-models-postprocessing/lib_vision_models_pp/Src/od_pp_yolov2.c **** 
ARM GAS  /tmp/ccZ8kJT0.s 			page 15


 162:../Middlewares/stm32-vision-models-postprocessing/lib_vision_models_pp/Src/od_pp_yolov2.c ****           /* activate array of classes pred */
 163:../Middlewares/stm32-vision-models-postprocessing/lib_vision_models_pp/Src/od_pp_yolov2.c ****           float32_t sumf = 0.0;
 164:../Middlewares/stm32-vision-models-postprocessing/lib_vision_models_pp/Src/od_pp_yolov2.c ****           for (int _i = 0; _i < pInput_static_param->nb_classes; _i++) {
 165:../Middlewares/stm32-vision-models-postprocessing/lib_vision_models_pp/Src/od_pp_yolov2.c ****               sumf+= expf(pInbuff[el_offset + AI_YOLOV2_PP_CLASSPROB + _i]);
 166:../Middlewares/stm32-vision-models-postprocessing/lib_vision_models_pp/Src/od_pp_yolov2.c ****           }
 167:../Middlewares/stm32-vision-models-postprocessing/lib_vision_models_pp/Src/od_pp_yolov2.c ****           best_score = expf(best_score) / sumf;
 168:../Middlewares/stm32-vision-models-postprocessing/lib_vision_models_pp/Src/od_pp_yolov2.c ****           best_score *= prob;
 169:../Middlewares/stm32-vision-models-postprocessing/lib_vision_models_pp/Src/od_pp_yolov2.c **** 
 170:../Middlewares/stm32-vision-models-postprocessing/lib_vision_models_pp/Src/od_pp_yolov2.c ****           if (best_score >= pInput_static_param->conf_threshold)
 171:../Middlewares/stm32-vision-models-postprocessing/lib_vision_models_pp/Src/od_pp_yolov2.c ****           {
 172:../Middlewares/stm32-vision-models-postprocessing/lib_vision_models_pp/Src/od_pp_yolov2.c **** 
 173:../Middlewares/stm32-vision-models-postprocessing/lib_vision_models_pp/Src/od_pp_yolov2.c ****               pOutbuff[count_detect].x_center    = (col + vision_models_sigmoid_f(pInbuff[el_offset
 174:../Middlewares/stm32-vision-models-postprocessing/lib_vision_models_pp/Src/od_pp_yolov2.c ****               pOutbuff[count_detect].y_center    = (row + vision_models_sigmoid_f(pInbuff[el_offset
 175:../Middlewares/stm32-vision-models-postprocessing/lib_vision_models_pp/Src/od_pp_yolov2.c ****               pOutbuff[count_detect].width       = (pInput_static_param->pAnchors[2 * anch + 0] * e
 176:../Middlewares/stm32-vision-models-postprocessing/lib_vision_models_pp/Src/od_pp_yolov2.c ****               pOutbuff[count_detect].height      = (pInput_static_param->pAnchors[2 * anch + 1] * e
 177:../Middlewares/stm32-vision-models-postprocessing/lib_vision_models_pp/Src/od_pp_yolov2.c ****               pOutbuff[count_detect].conf        = best_score;
 178:../Middlewares/stm32-vision-models-postprocessing/lib_vision_models_pp/Src/od_pp_yolov2.c ****               pOutbuff[count_detect].class_index = class_index;
 179:../Middlewares/stm32-vision-models-postprocessing/lib_vision_models_pp/Src/od_pp_yolov2.c **** 
 180:../Middlewares/stm32-vision-models-postprocessing/lib_vision_models_pp/Src/od_pp_yolov2.c ****               count_detect++;
 181:../Middlewares/stm32-vision-models-postprocessing/lib_vision_models_pp/Src/od_pp_yolov2.c ****           }
 182:../Middlewares/stm32-vision-models-postprocessing/lib_vision_models_pp/Src/od_pp_yolov2.c **** 
 183:../Middlewares/stm32-vision-models-postprocessing/lib_vision_models_pp/Src/od_pp_yolov2.c ****           el_offset += anch_stride;
 184:../Middlewares/stm32-vision-models-postprocessing/lib_vision_models_pp/Src/od_pp_yolov2.c ****         }
 185:../Middlewares/stm32-vision-models-postprocessing/lib_vision_models_pp/Src/od_pp_yolov2.c ****       }
 186:../Middlewares/stm32-vision-models-postprocessing/lib_vision_models_pp/Src/od_pp_yolov2.c ****     }
 187:../Middlewares/stm32-vision-models-postprocessing/lib_vision_models_pp/Src/od_pp_yolov2.c ****   }
 188:../Middlewares/stm32-vision-models-postprocessing/lib_vision_models_pp/Src/od_pp_yolov2.c ****   pInput_static_param->nb_detect = count_detect;
 549              		.loc 1 188 3 is_stmt 1 view .LVU153
 189:../Middlewares/stm32-vision-models-postprocessing/lib_vision_models_pp/Src/od_pp_yolov2.c ****   return (error);
 190:../Middlewares/stm32-vision-models-postprocessing/lib_vision_models_pp/Src/od_pp_yolov2.c **** }
 550              		.loc 1 190 1 is_stmt 0 view .LVU154
 551 0072 0020     		movs	r0, #0
 188:../Middlewares/stm32-vision-models-postprocessing/lib_vision_models_pp/Src/od_pp_yolov2.c ****   return (error);
 552              		.loc 1 188 34 view .LVU155
 553 0074 6662     		str	r6, [r4, #36]
 189:../Middlewares/stm32-vision-models-postprocessing/lib_vision_models_pp/Src/od_pp_yolov2.c ****   return (error);
 554              		.loc 1 189 3 is_stmt 1 view .LVU156
 555              		.loc 1 190 1 is_stmt 0 view .LVU157
 556 0076 0BB0     		add	sp, sp, #44
 557              		.cfi_remember_state
 558              		.cfi_def_cfa_offset 52
 559              		@ sp needed
 560 0078 BDEC048B 		vldm	sp!, {d8-d9}
 561              		.cfi_restore 82
 562              		.cfi_restore 83
 563              		.cfi_restore 80
 564              		.cfi_restore 81
 565              		.cfi_def_cfa_offset 36
 566              	.LVL41:
 567              		.loc 1 190 1 view .LVU158
 568 007c BDE8F08F 		pop	{r4, r5, r6, r7, r8, r9, r10, fp, pc}
 569              	.LVL42:
 570              	.L43:
 571              		.cfi_restore_state
 572              	.LBB36:
 573              	.LBB33:
 574              	.LBB27:
ARM GAS  /tmp/ccZ8kJT0.s 			page 16


 575              	.LBB28:
 126:../Middlewares/stm32-vision-models-postprocessing/lib_vision_models_pp/Src/od_pp_yolov2.c ****           {
 576              		.loc 1 126 11 is_stmt 1 view .LVU159
 126:../Middlewares/stm32-vision-models-postprocessing/lib_vision_models_pp/Src/od_pp_yolov2.c ****           {
 577              		.loc 1 126 23 is_stmt 0 view .LVU160
 578 0080 95ED040A 		vldr.32	s0, [r5, #16]
 126:../Middlewares/stm32-vision-models-postprocessing/lib_vision_models_pp/Src/od_pp_yolov2.c ****           {
 579              		.loc 1 126 14 view .LVU161
 580 0084 B4EEE90A 		vcmpe.f32	s0, s19
 581 0088 F1EE10FA 		vmrs	APSR_nzcv, FPSCR
 582 008c 44DB     		blt	.L41
 583              	.LBB29:
 128:../Middlewares/stm32-vision-models-postprocessing/lib_vision_models_pp/Src/od_pp_yolov2.c ****             pOutbuff[count_detect].conf = prob;
 584              		.loc 1 128 13 is_stmt 1 view .LVU162
 128:../Middlewares/stm32-vision-models-postprocessing/lib_vision_models_pp/Src/od_pp_yolov2.c ****             pOutbuff[count_detect].conf = prob;
 585              		.loc 1 128 30 is_stmt 0 view .LVU163
 586 008e FFF7FEFF 		bl	vision_models_sigmoid_f
 587              	.LVL43:
 129:../Middlewares/stm32-vision-models-postprocessing/lib_vision_models_pp/Src/od_pp_yolov2.c ****             pOutbuff[count_detect].class_index = 0;
 588              		.loc 1 129 13 is_stmt 1 view .LVU164
 129:../Middlewares/stm32-vision-models-postprocessing/lib_vision_models_pp/Src/od_pp_yolov2.c ****             pOutbuff[count_detect].class_index = 0;
 589              		.loc 1 129 21 is_stmt 0 view .LVU165
 590 0092 1822     		movs	r2, #24
 591 0094 059B     		ldr	r3, [sp, #20]
 592 0096 02FB0638 		mla	r8, r2, r6, r3
 130:../Middlewares/stm32-vision-models-postprocessing/lib_vision_models_pp/Src/od_pp_yolov2.c **** 
 593              		.loc 1 130 48 view .LVU166
 594 009a 0023     		movs	r3, #0
 129:../Middlewares/stm32-vision-models-postprocessing/lib_vision_models_pp/Src/od_pp_yolov2.c ****             pOutbuff[count_detect].class_index = 0;
 595              		.loc 1 129 41 view .LVU167
 596 009c 88ED040A 		vstr.32	s0, [r8, #16]
 130:../Middlewares/stm32-vision-models-postprocessing/lib_vision_models_pp/Src/od_pp_yolov2.c **** 
 597              		.loc 1 130 13 is_stmt 1 view .LVU168
 130:../Middlewares/stm32-vision-models-postprocessing/lib_vision_models_pp/Src/od_pp_yolov2.c **** 
 598              		.loc 1 130 48 is_stmt 0 view .LVU169
 599 00a0 C8F81430 		str	r3, [r8, #20]
 132:../Middlewares/stm32-vision-models-postprocessing/lib_vision_models_pp/Src/od_pp_yolov2.c ****             pOutbuff[count_detect].y_center   = (row + vision_models_sigmoid_f(pInbuff[el_offset + 
 600              		.loc 1 132 13 is_stmt 1 view .LVU170
 132:../Middlewares/stm32-vision-models-postprocessing/lib_vision_models_pp/Src/od_pp_yolov2.c ****             pOutbuff[count_detect].y_center   = (row + vision_models_sigmoid_f(pInbuff[el_offset + 
 601              		.loc 1 132 56 is_stmt 0 view .LVU171
 602 00a4 95ED000A 		vldr.32	s0, [r5]
 603              	.LVL44:
 132:../Middlewares/stm32-vision-models-postprocessing/lib_vision_models_pp/Src/od_pp_yolov2.c ****             pOutbuff[count_detect].y_center   = (row + vision_models_sigmoid_f(pInbuff[el_offset + 
 604              		.loc 1 132 56 view .LVU172
 605 00a8 FFF7FEFF 		bl	vision_models_sigmoid_f
 606              	.LVL45:
 132:../Middlewares/stm32-vision-models-postprocessing/lib_vision_models_pp/Src/od_pp_yolov2.c ****             pOutbuff[count_detect].y_center   = (row + vision_models_sigmoid_f(pInbuff[el_offset + 
 607              		.loc 1 132 54 discriminator 1 view .LVU173
 608 00ac 07EE90AA 		vmov	s15, r10	@ int
 609 00b0 F8EEE77A 		vcvt.f32.s32	s15, s15
 610 00b4 77EE807A 		vadd.f32	s15, s15, s0
 132:../Middlewares/stm32-vision-models-postprocessing/lib_vision_models_pp/Src/od_pp_yolov2.c ****             pOutbuff[count_detect].y_center   = (row + vision_models_sigmoid_f(pInbuff[el_offset + 
 611              		.loc 1 132 124 discriminator 1 view .LVU174
 612 00b8 67EEA87A 		vmul.f32	s15, s15, s17
 132:../Middlewares/stm32-vision-models-postprocessing/lib_vision_models_pp/Src/od_pp_yolov2.c ****             pOutbuff[count_detect].y_center   = (row + vision_models_sigmoid_f(pInbuff[el_offset + 
 613              		.loc 1 132 47 discriminator 1 view .LVU175
 614 00bc C8ED007A 		vstr.32	s15, [r8]
ARM GAS  /tmp/ccZ8kJT0.s 			page 17


 133:../Middlewares/stm32-vision-models-postprocessing/lib_vision_models_pp/Src/od_pp_yolov2.c ****             pOutbuff[count_detect].width      = (pInput_static_param->pAnchors[2 * anch    ] * expf
 615              		.loc 1 133 13 is_stmt 1 view .LVU176
 133:../Middlewares/stm32-vision-models-postprocessing/lib_vision_models_pp/Src/od_pp_yolov2.c ****             pOutbuff[count_detect].width      = (pInput_static_param->pAnchors[2 * anch    ] * expf
 616              		.loc 1 133 56 is_stmt 0 view .LVU177
 617 00c0 95ED010A 		vldr.32	s0, [r5, #4]
 618 00c4 FFF7FEFF 		bl	vision_models_sigmoid_f
 619              	.LVL46:
 133:../Middlewares/stm32-vision-models-postprocessing/lib_vision_models_pp/Src/od_pp_yolov2.c ****             pOutbuff[count_detect].width      = (pInput_static_param->pAnchors[2 * anch    ] * expf
 620              		.loc 1 133 54 discriminator 1 view .LVU178
 621 00c8 07EE907A 		vmov	s15, r7	@ int
 622 00cc F8EEE77A 		vcvt.f32.s32	s15, s15
 623 00d0 77EE807A 		vadd.f32	s15, s15, s0
 133:../Middlewares/stm32-vision-models-postprocessing/lib_vision_models_pp/Src/od_pp_yolov2.c ****             pOutbuff[count_detect].width      = (pInput_static_param->pAnchors[2 * anch    ] * expf
 624              		.loc 1 133 124 discriminator 1 view .LVU179
 625 00d4 67EE897A 		vmul.f32	s15, s15, s18
 133:../Middlewares/stm32-vision-models-postprocessing/lib_vision_models_pp/Src/od_pp_yolov2.c ****             pOutbuff[count_detect].width      = (pInput_static_param->pAnchors[2 * anch    ] * expf
 626              		.loc 1 133 47 discriminator 1 view .LVU180
 627 00d8 C8ED017A 		vstr.32	s15, [r8, #4]
 134:../Middlewares/stm32-vision-models-postprocessing/lib_vision_models_pp/Src/od_pp_yolov2.c ****             pOutbuff[count_detect].height     = (pInput_static_param->pAnchors[2 * anch + 1] * expf
 628              		.loc 1 134 13 is_stmt 1 view .LVU181
 134:../Middlewares/stm32-vision-models-postprocessing/lib_vision_models_pp/Src/od_pp_yolov2.c ****             pOutbuff[count_detect].height     = (pInput_static_param->pAnchors[2 * anch + 1] * expf
 629              		.loc 1 134 69 is_stmt 0 view .LVU182
 630 00dc 226A     		ldr	r2, [r4, #32]
 134:../Middlewares/stm32-vision-models-postprocessing/lib_vision_models_pp/Src/od_pp_yolov2.c ****             pOutbuff[count_detect].height     = (pInput_static_param->pAnchors[2 * anch + 1] * expf
 631              		.loc 1 134 96 view .LVU183
 632 00de 95ED020A 		vldr.32	s0, [r5, #8]
 134:../Middlewares/stm32-vision-models-postprocessing/lib_vision_models_pp/Src/od_pp_yolov2.c ****             pOutbuff[count_detect].height     = (pInput_static_param->pAnchors[2 * anch + 1] * expf
 633              		.loc 1 134 79 view .LVU184
 634 00e2 02EBC902 		add	r2, r2, r9, lsl #3
 635 00e6 92ED008A 		vldr.32	s16, [r2]
 636 00ea 0392     		str	r2, [sp, #12]
 134:../Middlewares/stm32-vision-models-postprocessing/lib_vision_models_pp/Src/od_pp_yolov2.c ****             pOutbuff[count_detect].height     = (pInput_static_param->pAnchors[2 * anch + 1] * expf
 637              		.loc 1 134 96 view .LVU185
 638 00ec FFF7FEFF 		bl	expf
 639              	.LVL47:
 134:../Middlewares/stm32-vision-models-postprocessing/lib_vision_models_pp/Src/od_pp_yolov2.c ****             pOutbuff[count_detect].height     = (pInput_static_param->pAnchors[2 * anch + 1] * expf
 640              		.loc 1 134 94 discriminator 1 view .LVU186
 641 00f0 28EE008A 		vmul.f32	s16, s16, s0
 134:../Middlewares/stm32-vision-models-postprocessing/lib_vision_models_pp/Src/od_pp_yolov2.c ****             pOutbuff[count_detect].height     = (pInput_static_param->pAnchors[2 * anch + 1] * expf
 642              		.loc 1 134 147 discriminator 1 view .LVU187
 643 00f4 28EE288A 		vmul.f32	s16, s16, s17
 134:../Middlewares/stm32-vision-models-postprocessing/lib_vision_models_pp/Src/od_pp_yolov2.c ****             pOutbuff[count_detect].height     = (pInput_static_param->pAnchors[2 * anch + 1] * expf
 644              		.loc 1 134 47 discriminator 1 view .LVU188
 645 00f8 88ED028A 		vstr.32	s16, [r8, #8]
 135:../Middlewares/stm32-vision-models-postprocessing/lib_vision_models_pp/Src/od_pp_yolov2.c **** 
 646              		.loc 1 135 13 is_stmt 1 view .LVU189
 135:../Middlewares/stm32-vision-models-postprocessing/lib_vision_models_pp/Src/od_pp_yolov2.c **** 
 647              		.loc 1 135 79 is_stmt 0 view .LVU190
 648 00fc 039A     		ldr	r2, [sp, #12]
 135:../Middlewares/stm32-vision-models-postprocessing/lib_vision_models_pp/Src/od_pp_yolov2.c **** 
 649              		.loc 1 135 96 view .LVU191
 650 00fe 95ED030A 		vldr.32	s0, [r5, #12]
 135:../Middlewares/stm32-vision-models-postprocessing/lib_vision_models_pp/Src/od_pp_yolov2.c **** 
 651              		.loc 1 135 79 view .LVU192
 652 0102 92ED018A 		vldr.32	s16, [r2, #4]
 135:../Middlewares/stm32-vision-models-postprocessing/lib_vision_models_pp/Src/od_pp_yolov2.c **** 
 653              		.loc 1 135 96 view .LVU193
ARM GAS  /tmp/ccZ8kJT0.s 			page 18


 654 0106 FFF7FEFF 		bl	expf
 655              	.LVL48:
 135:../Middlewares/stm32-vision-models-postprocessing/lib_vision_models_pp/Src/od_pp_yolov2.c **** 
 656              		.loc 1 135 94 discriminator 1 view .LVU194
 657 010a 28EE008A 		vmul.f32	s16, s16, s0
 135:../Middlewares/stm32-vision-models-postprocessing/lib_vision_models_pp/Src/od_pp_yolov2.c **** 
 658              		.loc 1 135 147 discriminator 1 view .LVU195
 659 010e 28EE098A 		vmul.f32	s16, s16, s18
 135:../Middlewares/stm32-vision-models-postprocessing/lib_vision_models_pp/Src/od_pp_yolov2.c **** 
 660              		.loc 1 135 47 discriminator 1 view .LVU196
 661 0112 88ED038A 		vstr.32	s16, [r8, #12]
 137:../Middlewares/stm32-vision-models-postprocessing/lib_vision_models_pp/Src/od_pp_yolov2.c ****           }
 662              		.loc 1 137 13 is_stmt 1 view .LVU197
 137:../Middlewares/stm32-vision-models-postprocessing/lib_vision_models_pp/Src/od_pp_yolov2.c ****           }
 663              		.loc 1 137 25 is_stmt 0 view .LVU198
 664 0116 0136     		adds	r6, r6, #1
 665              	.LVL49:
 666              	.L41:
 137:../Middlewares/stm32-vision-models-postprocessing/lib_vision_models_pp/Src/od_pp_yolov2.c ****           }
 667              		.loc 1 137 25 view .LVU199
 668              	.LBE29:
 140:../Middlewares/stm32-vision-models-postprocessing/lib_vision_models_pp/Src/od_pp_yolov2.c ****        }
 669              		.loc 1 140 11 is_stmt 1 view .LVU200
 123:../Middlewares/stm32-vision-models-postprocessing/lib_vision_models_pp/Src/od_pp_yolov2.c ****         {
 670              		.loc 1 123 72 discriminator 2 view .LVU201
 671 0118 09F10109 		add	r9, r9, #1
 672              	.LVL50:
 123:../Middlewares/stm32-vision-models-postprocessing/lib_vision_models_pp/Src/od_pp_yolov2.c ****         {
 673              		.loc 1 123 72 is_stmt 0 discriminator 2 view .LVU202
 674 011c 1835     		adds	r5, r5, #24
 675              	.LVL51:
 676              	.L45:
 123:../Middlewares/stm32-vision-models-postprocessing/lib_vision_models_pp/Src/od_pp_yolov2.c ****         {
 677              		.loc 1 123 37 is_stmt 1 discriminator 1 view .LVU203
 678 011e 6268     		ldr	r2, [r4, #4]
 679 0120 4A45     		cmp	r2, r9
 680 0122 ADDC     		bgt	.L43
 123:../Middlewares/stm32-vision-models-postprocessing/lib_vision_models_pp/Src/od_pp_yolov2.c ****         {
 681              		.loc 1 123 37 is_stmt 0 discriminator 1 view .LVU204
 682 0124 0622     		movs	r2, #6
 683 0126 02FB09BB 		mla	fp, r2, r9, fp
 684              	.LBE28:
 121:../Middlewares/stm32-vision-models-postprocessing/lib_vision_models_pp/Src/od_pp_yolov2.c ****       {
 685              		.loc 1 121 69 is_stmt 1 discriminator 2 view .LVU205
 686 012a 0AF1010A 		add	r10, r10, #1
 687              	.LVL52:
 688              	.L46:
 121:../Middlewares/stm32-vision-models-postprocessing/lib_vision_models_pp/Src/od_pp_yolov2.c ****       {
 689              		.loc 1 121 33 discriminator 1 view .LVU206
 690 012e E268     		ldr	r2, [r4, #12]
 691 0130 5245     		cmp	r2, r10
 692 0132 08DD     		ble	.L44
 121:../Middlewares/stm32-vision-models-postprocessing/lib_vision_models_pp/Src/od_pp_yolov2.c ****       {
 693              		.loc 1 121 33 is_stmt 0 discriminator 1 view .LVU207
 694 0134 049B     		ldr	r3, [sp, #16]
 695              	.LBB30:
 123:../Middlewares/stm32-vision-models-postprocessing/lib_vision_models_pp/Src/od_pp_yolov2.c ****         {
ARM GAS  /tmp/ccZ8kJT0.s 			page 19


 696              		.loc 1 123 22 view .LVU208
 697 0136 4FF00009 		mov	r9, #0
 698 013a 03EB8B05 		add	r5, r3, fp, lsl #2
 699 013e EEE7     		b	.L45
 700              	.LVL53:
 701              	.L56:
 123:../Middlewares/stm32-vision-models-postprocessing/lib_vision_models_pp/Src/od_pp_yolov2.c ****         {
 702              		.loc 1 123 22 view .LVU209
 703              	.LBE30:
 121:../Middlewares/stm32-vision-models-postprocessing/lib_vision_models_pp/Src/od_pp_yolov2.c ****       {
 704              		.loc 1 121 20 view .LVU210
 705 0140 4FF0000A 		mov	r10, #0
 706 0144 F3E7     		b	.L46
 707              	.LVL54:
 708              	.L44:
 121:../Middlewares/stm32-vision-models-postprocessing/lib_vision_models_pp/Src/od_pp_yolov2.c ****       {
 709              		.loc 1 121 20 view .LVU211
 710              	.LBE27:
 119:../Middlewares/stm32-vision-models-postprocessing/lib_vision_models_pp/Src/od_pp_yolov2.c ****     {
 711              		.loc 1 119 66 is_stmt 1 discriminator 2 view .LVU212
 712 0146 0137     		adds	r7, r7, #1
 713              	.LVL55:
 119:../Middlewares/stm32-vision-models-postprocessing/lib_vision_models_pp/Src/od_pp_yolov2.c ****     {
 714              		.loc 1 119 66 is_stmt 0 discriminator 2 view .LVU213
 715 0148 90E7     		b	.L40
 716              	.LVL56:
 717              	.L52:
 119:../Middlewares/stm32-vision-models-postprocessing/lib_vision_models_pp/Src/od_pp_yolov2.c ****     {
 718              		.loc 1 119 66 discriminator 2 view .LVU214
 719              	.LBE33:
 720              	.LBE36:
 721              	.LBB37:
 722              	.LBB23:
 723              	.LBB15:
 724              	.LBB16:
 153:../Middlewares/stm32-vision-models-postprocessing/lib_vision_models_pp/Src/od_pp_yolov2.c ****                                       pInput_static_param->nb_classes,
 725              		.loc 1 153 11 is_stmt 1 view .LVU215
 726 014a 0123     		movs	r3, #1
 727 014c 0193     		str	r3, [sp, #4]
 728 014e 09AB     		add	r3, sp, #36
 729 0150 0093     		str	r3, [sp]
 730 0152 5A46     		mov	r2, fp
 731 0154 2846     		mov	r0, r5
 732 0156 2168     		ldr	r1, [r4]
 733 0158 08AB     		add	r3, sp, #32
 734 015a FFF7FEFF 		bl	vision_models_maxi_p_if32ou32
 735              	.LVL57:
 160:../Middlewares/stm32-vision-models-postprocessing/lib_vision_models_pp/Src/od_pp_yolov2.c **** 
 736              		.loc 1 160 11 view .LVU216
 160:../Middlewares/stm32-vision-models-postprocessing/lib_vision_models_pp/Src/od_pp_yolov2.c **** 
 737              		.loc 1 160 28 is_stmt 0 view .LVU217
 738 015e 15ED010A 		vldr.32	s0, [r5, #-4]
 739 0162 FFF7FEFF 		bl	vision_models_sigmoid_f
 740              	.LVL58:
 741              	.LBB17:
 164:../Middlewares/stm32-vision-models-postprocessing/lib_vision_models_pp/Src/od_pp_yolov2.c ****               sumf+= expf(pInbuff[el_offset + AI_YOLOV2_PP_CLASSPROB + _i]);
 742              		.loc 1 164 20 view .LVU218
ARM GAS  /tmp/ccZ8kJT0.s 			page 20


 743 0166 4FF00009 		mov	r9, #0
 744              	.LBE17:
 160:../Middlewares/stm32-vision-models-postprocessing/lib_vision_models_pp/Src/od_pp_yolov2.c **** 
 745              		.loc 1 160 28 view .LVU219
 746 016a B0EE408A 		vmov.f32	s16, s0
 747              	.LVL59:
 163:../Middlewares/stm32-vision-models-postprocessing/lib_vision_models_pp/Src/od_pp_yolov2.c ****           for (int _i = 0; _i < pInput_static_param->nb_classes; _i++) {
 748              		.loc 1 163 11 is_stmt 1 view .LVU220
 164:../Middlewares/stm32-vision-models-postprocessing/lib_vision_models_pp/Src/od_pp_yolov2.c ****               sumf+= expf(pInbuff[el_offset + AI_YOLOV2_PP_CLASSPROB + _i]);
 749              		.loc 1 164 11 view .LVU221
 750              	.LBB18:
 164:../Middlewares/stm32-vision-models-postprocessing/lib_vision_models_pp/Src/od_pp_yolov2.c ****               sumf+= expf(pInbuff[el_offset + AI_YOLOV2_PP_CLASSPROB + _i]);
 751              		.loc 1 164 16 view .LVU222
 164:../Middlewares/stm32-vision-models-postprocessing/lib_vision_models_pp/Src/od_pp_yolov2.c ****               sumf+= expf(pInbuff[el_offset + AI_YOLOV2_PP_CLASSPROB + _i]);
 752              		.loc 1 164 11 is_stmt 0 view .LVU223
 753 016e 2A46     		mov	r2, r5
 754              	.LBE18:
 163:../Middlewares/stm32-vision-models-postprocessing/lib_vision_models_pp/Src/od_pp_yolov2.c ****           for (int _i = 0; _i < pInput_static_param->nb_classes; _i++) {
 755              		.loc 1 163 21 view .LVU224
 756 0170 DFED3E9A 		vldr.32	s19, .L61
 757              	.LVL60:
 758              	.L48:
 759              	.LBB19:
 164:../Middlewares/stm32-vision-models-postprocessing/lib_vision_models_pp/Src/od_pp_yolov2.c ****               sumf+= expf(pInbuff[el_offset + AI_YOLOV2_PP_CLASSPROB + _i]);
 760              		.loc 1 164 31 is_stmt 1 discriminator 1 view .LVU225
 761 0174 2168     		ldr	r1, [r4]
 762 0176 4945     		cmp	r1, r9
 763 0178 6BDC     		bgt	.L49
 764              	.LBE19:
 167:../Middlewares/stm32-vision-models-postprocessing/lib_vision_models_pp/Src/od_pp_yolov2.c ****           best_score *= prob;
 765              		.loc 1 167 11 view .LVU226
 167:../Middlewares/stm32-vision-models-postprocessing/lib_vision_models_pp/Src/od_pp_yolov2.c ****           best_score *= prob;
 766              		.loc 1 167 24 is_stmt 0 view .LVU227
 767 017a 9DED080A 		vldr.32	s0, [sp, #32]
 768 017e FFF7FEFF 		bl	expf
 769              	.LVL61:
 168:../Middlewares/stm32-vision-models-postprocessing/lib_vision_models_pp/Src/od_pp_yolov2.c **** 
 770              		.loc 1 168 11 is_stmt 1 view .LVU228
 167:../Middlewares/stm32-vision-models-postprocessing/lib_vision_models_pp/Src/od_pp_yolov2.c ****           best_score *= prob;
 771              		.loc 1 167 41 is_stmt 0 discriminator 1 view .LVU229
 772 0182 C0EE297A 		vdiv.f32	s15, s0, s19
 168:../Middlewares/stm32-vision-models-postprocessing/lib_vision_models_pp/Src/od_pp_yolov2.c **** 
 773              		.loc 1 168 22 view .LVU230
 774 0186 27EE880A 		vmul.f32	s0, s15, s16
 170:../Middlewares/stm32-vision-models-postprocessing/lib_vision_models_pp/Src/od_pp_yolov2.c ****           {
 775              		.loc 1 170 14 view .LVU231
 776 018a D4ED067A 		vldr.32	s15, [r4, #24]
 777 018e B4EEE70A 		vcmpe.f32	s0, s15
 778 0192 F1EE10FA 		vmrs	APSR_nzcv, FPSCR
 168:../Middlewares/stm32-vision-models-postprocessing/lib_vision_models_pp/Src/od_pp_yolov2.c **** 
 779              		.loc 1 168 22 view .LVU232
 780 0196 8DED080A 		vstr.32	s0, [sp, #32]
 170:../Middlewares/stm32-vision-models-postprocessing/lib_vision_models_pp/Src/od_pp_yolov2.c ****           {
 781              		.loc 1 170 11 is_stmt 1 view .LVU233
 170:../Middlewares/stm32-vision-models-postprocessing/lib_vision_models_pp/Src/od_pp_yolov2.c ****           {
 782              		.loc 1 170 14 is_stmt 0 view .LVU234
 783 019a 43DB     		blt	.L50
ARM GAS  /tmp/ccZ8kJT0.s 			page 21


 173:../Middlewares/stm32-vision-models-postprocessing/lib_vision_models_pp/Src/od_pp_yolov2.c ****               pOutbuff[count_detect].y_center    = (row + vision_models_sigmoid_f(pInbuff[el_offset
 784              		.loc 1 173 15 is_stmt 1 view .LVU235
 173:../Middlewares/stm32-vision-models-postprocessing/lib_vision_models_pp/Src/od_pp_yolov2.c ****               pOutbuff[count_detect].y_center    = (row + vision_models_sigmoid_f(pInbuff[el_offset
 785              		.loc 1 173 59 is_stmt 0 view .LVU236
 786 019c 15ED050A 		vldr.32	s0, [r5, #-20]
 787 01a0 FFF7FEFF 		bl	vision_models_sigmoid_f
 788              	.LVL62:
 173:../Middlewares/stm32-vision-models-postprocessing/lib_vision_models_pp/Src/od_pp_yolov2.c ****               pOutbuff[count_detect].y_center    = (row + vision_models_sigmoid_f(pInbuff[el_offset
 789              		.loc 1 173 57 discriminator 1 view .LVU237
 790 01a4 DDED037A 		vldr.32	s15, [sp, #12]	@ int
 791 01a8 F8EEE77A 		vcvt.f32.s32	s15, s15
 792 01ac 77EE807A 		vadd.f32	s15, s15, s0
 173:../Middlewares/stm32-vision-models-postprocessing/lib_vision_models_pp/Src/od_pp_yolov2.c ****               pOutbuff[count_detect].y_center    = (row + vision_models_sigmoid_f(pInbuff[el_offset
 793              		.loc 1 173 23 discriminator 1 view .LVU238
 794 01b0 1823     		movs	r3, #24
 173:../Middlewares/stm32-vision-models-postprocessing/lib_vision_models_pp/Src/od_pp_yolov2.c ****               pOutbuff[count_detect].y_center    = (row + vision_models_sigmoid_f(pInbuff[el_offset
 795              		.loc 1 173 129 discriminator 1 view .LVU239
 796 01b2 67EEA87A 		vmul.f32	s15, s15, s17
 173:../Middlewares/stm32-vision-models-postprocessing/lib_vision_models_pp/Src/od_pp_yolov2.c ****               pOutbuff[count_detect].y_center    = (row + vision_models_sigmoid_f(pInbuff[el_offset
 797              		.loc 1 173 23 discriminator 1 view .LVU240
 798 01b6 059A     		ldr	r2, [sp, #20]
 799 01b8 03FB0629 		mla	r9, r3, r6, r2
 800              	.LVL63:
 173:../Middlewares/stm32-vision-models-postprocessing/lib_vision_models_pp/Src/od_pp_yolov2.c ****               pOutbuff[count_detect].y_center    = (row + vision_models_sigmoid_f(pInbuff[el_offset
 801              		.loc 1 173 50 discriminator 1 view .LVU241
 802 01bc C9ED007A 		vstr.32	s15, [r9]
 174:../Middlewares/stm32-vision-models-postprocessing/lib_vision_models_pp/Src/od_pp_yolov2.c ****               pOutbuff[count_detect].width       = (pInput_static_param->pAnchors[2 * anch + 0] * e
 803              		.loc 1 174 15 is_stmt 1 view .LVU242
 174:../Middlewares/stm32-vision-models-postprocessing/lib_vision_models_pp/Src/od_pp_yolov2.c ****               pOutbuff[count_detect].width       = (pInput_static_param->pAnchors[2 * anch + 0] * e
 804              		.loc 1 174 59 is_stmt 0 view .LVU243
 805 01c0 15ED040A 		vldr.32	s0, [r5, #-16]
 806 01c4 FFF7FEFF 		bl	vision_models_sigmoid_f
 807              	.LVL64:
 174:../Middlewares/stm32-vision-models-postprocessing/lib_vision_models_pp/Src/od_pp_yolov2.c ****               pOutbuff[count_detect].width       = (pInput_static_param->pAnchors[2 * anch + 0] * e
 808              		.loc 1 174 57 discriminator 1 view .LVU244
 809 01c8 07EE907A 		vmov	s15, r7	@ int
 810 01cc F8EEE77A 		vcvt.f32.s32	s15, s15
 811 01d0 77EE807A 		vadd.f32	s15, s15, s0
 174:../Middlewares/stm32-vision-models-postprocessing/lib_vision_models_pp/Src/od_pp_yolov2.c ****               pOutbuff[count_detect].width       = (pInput_static_param->pAnchors[2 * anch + 0] * e
 812              		.loc 1 174 129 discriminator 1 view .LVU245
 813 01d4 67EE897A 		vmul.f32	s15, s15, s18
 174:../Middlewares/stm32-vision-models-postprocessing/lib_vision_models_pp/Src/od_pp_yolov2.c ****               pOutbuff[count_detect].width       = (pInput_static_param->pAnchors[2 * anch + 0] * e
 814              		.loc 1 174 50 discriminator 1 view .LVU246
 815 01d8 C9ED017A 		vstr.32	s15, [r9, #4]
 175:../Middlewares/stm32-vision-models-postprocessing/lib_vision_models_pp/Src/od_pp_yolov2.c ****               pOutbuff[count_detect].height      = (pInput_static_param->pAnchors[2 * anch + 1] * e
 816              		.loc 1 175 15 is_stmt 1 view .LVU247
 817 01dc 226A     		ldr	r2, [r4, #32]
 175:../Middlewares/stm32-vision-models-postprocessing/lib_vision_models_pp/Src/od_pp_yolov2.c ****               pOutbuff[count_detect].height      = (pInput_static_param->pAnchors[2 * anch + 1] * e
 818              		.loc 1 175 99 is_stmt 0 view .LVU248
 819 01de 15ED030A 		vldr.32	s0, [r5, #-12]
 175:../Middlewares/stm32-vision-models-postprocessing/lib_vision_models_pp/Src/od_pp_yolov2.c ****               pOutbuff[count_detect].height      = (pInput_static_param->pAnchors[2 * anch + 1] * e
 820              		.loc 1 175 82 view .LVU249
 821 01e2 02EBC802 		add	r2, r2, r8, lsl #3
 822 01e6 92ED008A 		vldr.32	s16, [r2]
 823              	.LVL65:
 175:../Middlewares/stm32-vision-models-postprocessing/lib_vision_models_pp/Src/od_pp_yolov2.c ****               pOutbuff[count_detect].height      = (pInput_static_param->pAnchors[2 * anch + 1] * e
 824              		.loc 1 175 82 view .LVU250
ARM GAS  /tmp/ccZ8kJT0.s 			page 22


 825 01ea 0792     		str	r2, [sp, #28]
 175:../Middlewares/stm32-vision-models-postprocessing/lib_vision_models_pp/Src/od_pp_yolov2.c ****               pOutbuff[count_detect].height      = (pInput_static_param->pAnchors[2 * anch + 1] * e
 826              		.loc 1 175 99 view .LVU251
 827 01ec FFF7FEFF 		bl	expf
 828              	.LVL66:
 175:../Middlewares/stm32-vision-models-postprocessing/lib_vision_models_pp/Src/od_pp_yolov2.c ****               pOutbuff[count_detect].height      = (pInput_static_param->pAnchors[2 * anch + 1] * e
 829              		.loc 1 175 97 discriminator 1 view .LVU252
 830 01f0 28EE008A 		vmul.f32	s16, s16, s0
 175:../Middlewares/stm32-vision-models-postprocessing/lib_vision_models_pp/Src/od_pp_yolov2.c ****               pOutbuff[count_detect].height      = (pInput_static_param->pAnchors[2 * anch + 1] * e
 831              		.loc 1 175 150 discriminator 1 view .LVU253
 832 01f4 28EE288A 		vmul.f32	s16, s16, s17
 175:../Middlewares/stm32-vision-models-postprocessing/lib_vision_models_pp/Src/od_pp_yolov2.c ****               pOutbuff[count_detect].height      = (pInput_static_param->pAnchors[2 * anch + 1] * e
 833              		.loc 1 175 50 discriminator 1 view .LVU254
 834 01f8 89ED028A 		vstr.32	s16, [r9, #8]
 176:../Middlewares/stm32-vision-models-postprocessing/lib_vision_models_pp/Src/od_pp_yolov2.c ****               pOutbuff[count_detect].conf        = best_score;
 835              		.loc 1 176 15 is_stmt 1 view .LVU255
 176:../Middlewares/stm32-vision-models-postprocessing/lib_vision_models_pp/Src/od_pp_yolov2.c ****               pOutbuff[count_detect].conf        = best_score;
 836              		.loc 1 176 82 is_stmt 0 view .LVU256
 837 01fc 079A     		ldr	r2, [sp, #28]
 176:../Middlewares/stm32-vision-models-postprocessing/lib_vision_models_pp/Src/od_pp_yolov2.c ****               pOutbuff[count_detect].conf        = best_score;
 838              		.loc 1 176 99 view .LVU257
 839 01fe 15ED020A 		vldr.32	s0, [r5, #-8]
 176:../Middlewares/stm32-vision-models-postprocessing/lib_vision_models_pp/Src/od_pp_yolov2.c ****               pOutbuff[count_detect].conf        = best_score;
 840              		.loc 1 176 82 view .LVU258
 841 0202 92ED018A 		vldr.32	s16, [r2, #4]
 176:../Middlewares/stm32-vision-models-postprocessing/lib_vision_models_pp/Src/od_pp_yolov2.c ****               pOutbuff[count_detect].conf        = best_score;
 842              		.loc 1 176 99 view .LVU259
 843 0206 FFF7FEFF 		bl	expf
 844              	.LVL67:
 176:../Middlewares/stm32-vision-models-postprocessing/lib_vision_models_pp/Src/od_pp_yolov2.c ****               pOutbuff[count_detect].conf        = best_score;
 845              		.loc 1 176 97 discriminator 1 view .LVU260
 846 020a 28EE008A 		vmul.f32	s16, s16, s0
 176:../Middlewares/stm32-vision-models-postprocessing/lib_vision_models_pp/Src/od_pp_yolov2.c ****               pOutbuff[count_detect].conf        = best_score;
 847              		.loc 1 176 150 discriminator 1 view .LVU261
 848 020e 28EE098A 		vmul.f32	s16, s16, s18
 176:../Middlewares/stm32-vision-models-postprocessing/lib_vision_models_pp/Src/od_pp_yolov2.c ****               pOutbuff[count_detect].conf        = best_score;
 849              		.loc 1 176 50 discriminator 1 view .LVU262
 850 0212 89ED038A 		vstr.32	s16, [r9, #12]
 177:../Middlewares/stm32-vision-models-postprocessing/lib_vision_models_pp/Src/od_pp_yolov2.c ****               pOutbuff[count_detect].class_index = class_index;
 851              		.loc 1 177 15 is_stmt 1 view .LVU263
 177:../Middlewares/stm32-vision-models-postprocessing/lib_vision_models_pp/Src/od_pp_yolov2.c ****               pOutbuff[count_detect].class_index = class_index;
 852              		.loc 1 177 50 is_stmt 0 view .LVU264
 853 0216 089A     		ldr	r2, [sp, #32]	@ float
 180:../Middlewares/stm32-vision-models-postprocessing/lib_vision_models_pp/Src/od_pp_yolov2.c ****           }
 854              		.loc 1 180 27 view .LVU265
 855 0218 0136     		adds	r6, r6, #1
 856              	.LVL68:
 177:../Middlewares/stm32-vision-models-postprocessing/lib_vision_models_pp/Src/od_pp_yolov2.c ****               pOutbuff[count_detect].class_index = class_index;
 857              		.loc 1 177 50 view .LVU266
 858 021a C9F81020 		str	r2, [r9, #16]	@ float
 178:../Middlewares/stm32-vision-models-postprocessing/lib_vision_models_pp/Src/od_pp_yolov2.c **** 
 859              		.loc 1 178 15 is_stmt 1 view .LVU267
 178:../Middlewares/stm32-vision-models-postprocessing/lib_vision_models_pp/Src/od_pp_yolov2.c **** 
 860              		.loc 1 178 50 is_stmt 0 view .LVU268
 861 021e 099A     		ldr	r2, [sp, #36]
 862 0220 C9F81420 		str	r2, [r9, #20]
 180:../Middlewares/stm32-vision-models-postprocessing/lib_vision_models_pp/Src/od_pp_yolov2.c ****           }
ARM GAS  /tmp/ccZ8kJT0.s 			page 23


 863              		.loc 1 180 15 is_stmt 1 view .LVU269
 864              	.LVL69:
 865              	.L50:
 183:../Middlewares/stm32-vision-models-postprocessing/lib_vision_models_pp/Src/od_pp_yolov2.c ****         }
 866              		.loc 1 183 11 view .LVU270
 867 0224 069B     		ldr	r3, [sp, #24]
 183:../Middlewares/stm32-vision-models-postprocessing/lib_vision_models_pp/Src/od_pp_yolov2.c ****         }
 868              		.loc 1 183 21 is_stmt 0 view .LVU271
 869 0226 DA44     		add	r10, r10, fp
 870              	.LVL70:
 183:../Middlewares/stm32-vision-models-postprocessing/lib_vision_models_pp/Src/od_pp_yolov2.c ****         }
 871              		.loc 1 183 21 view .LVU272
 872              	.LBE16:
 151:../Middlewares/stm32-vision-models-postprocessing/lib_vision_models_pp/Src/od_pp_yolov2.c ****         {
 873              		.loc 1 151 72 is_stmt 1 discriminator 2 view .LVU273
 874 0228 08F10108 		add	r8, r8, #1
 875              	.LVL71:
 151:../Middlewares/stm32-vision-models-postprocessing/lib_vision_models_pp/Src/od_pp_yolov2.c ****         {
 876              		.loc 1 151 72 is_stmt 0 discriminator 2 view .LVU274
 877 022c 1D44     		add	r5, r5, r3
 878              	.LVL72:
 879              	.L54:
 151:../Middlewares/stm32-vision-models-postprocessing/lib_vision_models_pp/Src/od_pp_yolov2.c ****         {
 880              		.loc 1 151 37 is_stmt 1 discriminator 1 view .LVU275
 881 022e 6368     		ldr	r3, [r4, #4]
 882 0230 4345     		cmp	r3, r8
 883 0232 8ADC     		bgt	.L52
 151:../Middlewares/stm32-vision-models-postprocessing/lib_vision_models_pp/Src/od_pp_yolov2.c ****         {
 884              		.loc 1 151 37 is_stmt 0 discriminator 1 view .LVU276
 885              	.LBE15:
 149:../Middlewares/stm32-vision-models-postprocessing/lib_vision_models_pp/Src/od_pp_yolov2.c ****       {
 886              		.loc 1 149 69 is_stmt 1 discriminator 2 view .LVU277
 887 0234 039B     		ldr	r3, [sp, #12]
 888 0236 0133     		adds	r3, r3, #1
 889              	.LVL73:
 890              	.L60:
 149:../Middlewares/stm32-vision-models-postprocessing/lib_vision_models_pp/Src/od_pp_yolov2.c ****       {
 891              		.loc 1 149 33 discriminator 1 view .LVU278
 149:../Middlewares/stm32-vision-models-postprocessing/lib_vision_models_pp/Src/od_pp_yolov2.c ****       {
 892              		.loc 1 149 20 is_stmt 0 view .LVU279
 893 0238 0393     		str	r3, [sp, #12]
 894              	.LVL74:
 149:../Middlewares/stm32-vision-models-postprocessing/lib_vision_models_pp/Src/od_pp_yolov2.c ****       {
 895              		.loc 1 149 33 discriminator 1 view .LVU280
 896 023a 039A     		ldr	r2, [sp, #12]
 897 023c E368     		ldr	r3, [r4, #12]
 898 023e 9342     		cmp	r3, r2
 899 0240 12DD     		ble	.L53
 149:../Middlewares/stm32-vision-models-postprocessing/lib_vision_models_pp/Src/od_pp_yolov2.c ****       {
 900              		.loc 1 149 33 discriminator 1 view .LVU281
 901 0242 049B     		ldr	r3, [sp, #16]
 902 0244 0AF10505 		add	r5, r10, #5
 903              	.LBB22:
 151:../Middlewares/stm32-vision-models-postprocessing/lib_vision_models_pp/Src/od_pp_yolov2.c ****         {
 904              		.loc 1 151 22 view .LVU282
 905 0248 4FF00008 		mov	r8, #0
 906 024c 03EB8505 		add	r5, r3, r5, lsl #2
ARM GAS  /tmp/ccZ8kJT0.s 			page 24


 907 0250 EDE7     		b	.L54
 908              	.LVL75:
 909              	.L49:
 910              	.LBB21:
 911              	.LBB20:
 165:../Middlewares/stm32-vision-models-postprocessing/lib_vision_models_pp/Src/od_pp_yolov2.c ****           }
 912              		.loc 1 165 15 is_stmt 1 view .LVU283
 165:../Middlewares/stm32-vision-models-postprocessing/lib_vision_models_pp/Src/od_pp_yolov2.c ****           }
 913              		.loc 1 165 22 is_stmt 0 view .LVU284
 914 0252 B2EC010A 		vldmia.32	r2!, {s0}
 915 0256 0792     		str	r2, [sp, #28]
 916 0258 FFF7FEFF 		bl	expf
 917              	.LVL76:
 164:../Middlewares/stm32-vision-models-postprocessing/lib_vision_models_pp/Src/od_pp_yolov2.c ****               sumf+= expf(pInbuff[el_offset + AI_YOLOV2_PP_CLASSPROB + _i]);
 918              		.loc 1 164 68 discriminator 3 view .LVU285
 919 025c 09F10109 		add	r9, r9, #1
 920              	.LVL77:
 165:../Middlewares/stm32-vision-models-postprocessing/lib_vision_models_pp/Src/od_pp_yolov2.c ****           }
 921              		.loc 1 165 19 discriminator 1 view .LVU286
 922 0260 79EE809A 		vadd.f32	s19, s19, s0
 923              	.LVL78:
 164:../Middlewares/stm32-vision-models-postprocessing/lib_vision_models_pp/Src/od_pp_yolov2.c ****               sumf+= expf(pInbuff[el_offset + AI_YOLOV2_PP_CLASSPROB + _i]);
 924              		.loc 1 164 68 is_stmt 1 discriminator 3 view .LVU287
 925 0264 079A     		ldr	r2, [sp, #28]
 926 0266 85E7     		b	.L48
 927              	.LVL79:
 928              	.L53:
 164:../Middlewares/stm32-vision-models-postprocessing/lib_vision_models_pp/Src/od_pp_yolov2.c ****               sumf+= expf(pInbuff[el_offset + AI_YOLOV2_PP_CLASSPROB + _i]);
 929              		.loc 1 164 68 is_stmt 0 discriminator 3 view .LVU288
 930              	.LBE20:
 931              	.LBE21:
 932              	.LBE22:
 933              	.LBE23:
 147:../Middlewares/stm32-vision-models-postprocessing/lib_vision_models_pp/Src/od_pp_yolov2.c ****     {
 934              		.loc 1 147 66 is_stmt 1 discriminator 2 view .LVU289
 935 0268 0137     		adds	r7, r7, #1
 936              	.LVL80:
 147:../Middlewares/stm32-vision-models-postprocessing/lib_vision_models_pp/Src/od_pp_yolov2.c ****     {
 937              		.loc 1 147 66 is_stmt 0 discriminator 2 view .LVU290
 938 026a EDE6     		b	.L39
 939              	.L62:
 940              		.align	2
 941              	.L61:
 942 026c 00000000 		.word	0
 943              	.LBE37:
 944              		.cfi_endproc
 945              	.LFE777:
 947              		.section	.text.yolov2_pp_getNNBoxes_centroid_int8,"ax",%progbits
 948              		.align	1
 949              		.global	yolov2_pp_getNNBoxes_centroid_int8
 950              		.syntax unified
 951              		.thumb
 952              		.thumb_func
 954              	yolov2_pp_getNNBoxes_centroid_int8:
 955              	.LVL81:
 956              	.LFB778:
 191:../Middlewares/stm32-vision-models-postprocessing/lib_vision_models_pp/Src/od_pp_yolov2.c **** 
ARM GAS  /tmp/ccZ8kJT0.s 			page 25


 192:../Middlewares/stm32-vision-models-postprocessing/lib_vision_models_pp/Src/od_pp_yolov2.c **** 
 193:../Middlewares/stm32-vision-models-postprocessing/lib_vision_models_pp/Src/od_pp_yolov2.c **** 
 194:../Middlewares/stm32-vision-models-postprocessing/lib_vision_models_pp/Src/od_pp_yolov2.c **** int32_t yolov2_pp_getNNBoxes_centroid_int8(od_yolov2_pp_in_t *pInput,
 195:../Middlewares/stm32-vision-models-postprocessing/lib_vision_models_pp/Src/od_pp_yolov2.c ****                                            od_pp_outBuffer_t *pOutBuff,
 196:../Middlewares/stm32-vision-models-postprocessing/lib_vision_models_pp/Src/od_pp_yolov2.c ****                                            od_yolov2_pp_static_param_t *pInput_static_param)
 197:../Middlewares/stm32-vision-models-postprocessing/lib_vision_models_pp/Src/od_pp_yolov2.c **** {
 957              		.loc 1 197 1 is_stmt 1 view -0
 958              		.cfi_startproc
 959              		@ args = 0, pretend = 0, frame = 32
 960              		@ frame_needed = 0, uses_anonymous_args = 0
 198:../Middlewares/stm32-vision-models-postprocessing/lib_vision_models_pp/Src/od_pp_yolov2.c ****   int32_t error        = AI_OD_POSTPROCESS_ERROR_NO;
 961              		.loc 1 198 3 view .LVU292
 199:../Middlewares/stm32-vision-models-postprocessing/lib_vision_models_pp/Src/od_pp_yolov2.c ****   int32_t count_detect = 0;
 962              		.loc 1 199 3 view .LVU293
 200:../Middlewares/stm32-vision-models-postprocessing/lib_vision_models_pp/Src/od_pp_yolov2.c ****   int32_t anch_stride  = pInput_static_param->nb_classes + AI_YOLOV2_PP_CLASSPROB;
 963              		.loc 1 200 3 view .LVU294
 197:../Middlewares/stm32-vision-models-postprocessing/lib_vision_models_pp/Src/od_pp_yolov2.c ****   int32_t error        = AI_OD_POSTPROCESS_ERROR_NO;
 964              		.loc 1 197 1 is_stmt 0 view .LVU295
 965 0000 2DE9F04F 		push	{r4, r5, r6, r7, r8, r9, r10, fp, lr}
 966              		.cfi_def_cfa_offset 36
 967              		.cfi_offset 4, -36
 968              		.cfi_offset 5, -32
 969              		.cfi_offset 6, -28
 970              		.cfi_offset 7, -24
 971              		.cfi_offset 8, -20
 972              		.cfi_offset 9, -16
 973              		.cfi_offset 10, -12
 974              		.cfi_offset 11, -8
 975              		.cfi_offset 14, -4
 976 0004 1446     		mov	r4, r2
 201:../Middlewares/stm32-vision-models-postprocessing/lib_vision_models_pp/Src/od_pp_yolov2.c **** 
 202:../Middlewares/stm32-vision-models-postprocessing/lib_vision_models_pp/Src/od_pp_yolov2.c ****   float32_t grid_width_inv = 1.0f / pInput_static_param->grid_width;
 977              		.loc 1 202 35 view .LVU296
 978 0006 D4ED027A 		vldr.32	s15, [r4, #8]	@ int
 979 000a B8EEE77A 		vcvt.f32.s32	s14, s15
 980              		.loc 1 202 13 view .LVU297
 981 000e F7EE007A 		vmov.f32	s15, #1.0e+0
 197:../Middlewares/stm32-vision-models-postprocessing/lib_vision_models_pp/Src/od_pp_yolov2.c ****   int32_t error        = AI_OD_POSTPROCESS_ERROR_NO;
 982              		.loc 1 197 1 view .LVU298
 983 0012 2DED068B 		vpush.64	{d8, d9, d10}
 984              		.cfi_def_cfa_offset 60
 985              		.cfi_offset 80, -60
 986              		.cfi_offset 81, -56
 987              		.cfi_offset 82, -52
 988              		.cfi_offset 83, -48
 989              		.cfi_offset 84, -44
 990              		.cfi_offset 85, -40
 991              		.loc 1 202 13 view .LVU299
 992 0016 87EE879A 		vdiv.f32	s18, s15, s14
 203:../Middlewares/stm32-vision-models-postprocessing/lib_vision_models_pp/Src/od_pp_yolov2.c ****   float32_t grid_height_inv = 1.0f / pInput_static_param->grid_height;
 993              		.loc 1 203 36 view .LVU300
 994 001a 94ED037A 		vldr.32	s14, [r4, #12]	@ int
 995 001e B8EEC77A 		vcvt.f32.s32	s14, s14
 200:../Middlewares/stm32-vision-models-postprocessing/lib_vision_models_pp/Src/od_pp_yolov2.c **** 
 996              		.loc 1 200 45 view .LVU301
 997 0022 1368     		ldr	r3, [r2]
 197:../Middlewares/stm32-vision-models-postprocessing/lib_vision_models_pp/Src/od_pp_yolov2.c ****   int32_t error        = AI_OD_POSTPROCESS_ERROR_NO;
ARM GAS  /tmp/ccZ8kJT0.s 			page 26


 998              		.loc 1 197 1 view .LVU302
 999 0024 8BB0     		sub	sp, sp, #44
 1000              		.cfi_def_cfa_offset 104
 200:../Middlewares/stm32-vision-models-postprocessing/lib_vision_models_pp/Src/od_pp_yolov2.c **** 
 1001              		.loc 1 200 11 view .LVU303
 1002 0026 5A1D     		adds	r2, r3, #5
 1003              	.LVL82:
 200:../Middlewares/stm32-vision-models-postprocessing/lib_vision_models_pp/Src/od_pp_yolov2.c **** 
 1004              		.loc 1 200 11 view .LVU304
 1005 0028 0492     		str	r2, [sp, #16]
 1006              	.LVL83:
 202:../Middlewares/stm32-vision-models-postprocessing/lib_vision_models_pp/Src/od_pp_yolov2.c ****   float32_t grid_height_inv = 1.0f / pInput_static_param->grid_height;
 1007              		.loc 1 202 3 is_stmt 1 view .LVU305
 1008              		.loc 1 203 3 view .LVU306
 204:../Middlewares/stm32-vision-models-postprocessing/lib_vision_models_pp/Src/od_pp_yolov2.c **** 
 205:../Middlewares/stm32-vision-models-postprocessing/lib_vision_models_pp/Src/od_pp_yolov2.c ****   int8_t raw_zp        = pInput_static_param->raw_zero_point;
 206:../Middlewares/stm32-vision-models-postprocessing/lib_vision_models_pp/Src/od_pp_yolov2.c ****   float32_t raw_scale  = pInput_static_param->raw_scale;
 207:../Middlewares/stm32-vision-models-postprocessing/lib_vision_models_pp/Src/od_pp_yolov2.c **** 
 208:../Middlewares/stm32-vision-models-postprocessing/lib_vision_models_pp/Src/od_pp_yolov2.c ****   int32_t el_offset = 0;
 209:../Middlewares/stm32-vision-models-postprocessing/lib_vision_models_pp/Src/od_pp_yolov2.c ****   int8_t *pInbuff = (int8_t *)pInput->pRaw_detections;
 1009              		.loc 1 209 11 is_stmt 0 view .LVU307
 1010 002a 0268     		ldr	r2, [r0]
 1011              	.LVL84:
 210:../Middlewares/stm32-vision-models-postprocessing/lib_vision_models_pp/Src/od_pp_yolov2.c ****   if ( 1 == pInput_static_param->nb_classes) {
 1012              		.loc 1 210 6 view .LVU308
 1013 002c 012B     		cmp	r3, #1
 203:../Middlewares/stm32-vision-models-postprocessing/lib_vision_models_pp/Src/od_pp_yolov2.c **** 
 1014              		.loc 1 203 13 view .LVU309
 1015 002e C7EE879A 		vdiv.f32	s19, s15, s14
 1016              	.LVL85:
 205:../Middlewares/stm32-vision-models-postprocessing/lib_vision_models_pp/Src/od_pp_yolov2.c ****   float32_t raw_scale  = pInput_static_param->raw_scale;
 1017              		.loc 1 205 3 is_stmt 1 view .LVU310
 206:../Middlewares/stm32-vision-models-postprocessing/lib_vision_models_pp/Src/od_pp_yolov2.c **** 
 1018              		.loc 1 206 13 is_stmt 0 view .LVU311
 1019 0032 94ED0A8A 		vldr.32	s16, [r4, #40]
 205:../Middlewares/stm32-vision-models-postprocessing/lib_vision_models_pp/Src/od_pp_yolov2.c ****   float32_t raw_scale  = pInput_static_param->raw_scale;
 1020              		.loc 1 205 10 view .LVU312
 1021 0036 94F92C50 		ldrsb	r5, [r4, #44]
 1022              	.LVL86:
 206:../Middlewares/stm32-vision-models-postprocessing/lib_vision_models_pp/Src/od_pp_yolov2.c **** 
 1023              		.loc 1 206 3 is_stmt 1 view .LVU313
 208:../Middlewares/stm32-vision-models-postprocessing/lib_vision_models_pp/Src/od_pp_yolov2.c ****   int8_t *pInbuff = (int8_t *)pInput->pRaw_detections;
 1024              		.loc 1 208 3 view .LVU314
 209:../Middlewares/stm32-vision-models-postprocessing/lib_vision_models_pp/Src/od_pp_yolov2.c ****   if ( 1 == pInput_static_param->nb_classes) {
 1025              		.loc 1 209 3 view .LVU315
 197:../Middlewares/stm32-vision-models-postprocessing/lib_vision_models_pp/Src/od_pp_yolov2.c ****   int32_t error        = AI_OD_POSTPROCESS_ERROR_NO;
 1026              		.loc 1 197 1 is_stmt 0 view .LVU316
 1027 003a 0691     		str	r1, [sp, #24]
 209:../Middlewares/stm32-vision-models-postprocessing/lib_vision_models_pp/Src/od_pp_yolov2.c ****   if ( 1 == pInput_static_param->nb_classes) {
 1028              		.loc 1 209 11 view .LVU317
 1029 003c 0592     		str	r2, [sp, #20]
 1030              	.LVL87:
 1031              		.loc 1 210 3 is_stmt 1 view .LVU318
 1032              		.loc 1 210 6 is_stmt 0 view .LVU319
 1033 003e 40F0B680 		bne	.L64
 1034              	.LBB38:
 211:../Middlewares/stm32-vision-models-postprocessing/lib_vision_models_pp/Src/od_pp_yolov2.c ****     float32_t computedThreshold = -logf( 1 / pInput_static_param->conf_threshold - 1);
ARM GAS  /tmp/ccZ8kJT0.s 			page 27


 1035              		.loc 1 211 5 is_stmt 1 view .LVU320
 1036              		.loc 1 211 44 is_stmt 0 view .LVU321
 1037 0042 94ED067A 		vldr.32	s14, [r4, #24]
 1038 0046 87EE870A 		vdiv.f32	s0, s15, s14
 1039              		.loc 1 211 36 view .LVU322
 1040 004a 30EE670A 		vsub.f32	s0, s0, s15
 1041 004e FFF7FEFF 		bl	logf
 1042              	.LVL88:
 212:../Middlewares/stm32-vision-models-postprocessing/lib_vision_models_pp/Src/od_pp_yolov2.c ****     int8_t threshold_s8  = (int8_t)(computedThreshold / raw_scale + 0.5f + raw_zp);
 1043              		.loc 1 212 5 is_stmt 1 view .LVU323
 211:../Middlewares/stm32-vision-models-postprocessing/lib_vision_models_pp/Src/od_pp_yolov2.c ****     float32_t computedThreshold = -logf( 1 / pInput_static_param->conf_threshold - 1);
 1044              		.loc 1 211 15 is_stmt 0 discriminator 1 view .LVU324
 1045 0052 B1EE400A 		vneg.f32	s0, s0
 1046              	.LVL89:
 1047              		.loc 1 212 67 view .LVU325
 1048 0056 B6EE007A 		vmov.f32	s14, #5.0e-1
 1049              		.loc 1 212 55 view .LVU326
 1050 005a C0EE087A 		vdiv.f32	s15, s0, s16
 1051              		.loc 1 212 67 view .LVU327
 1052 005e 77EE877A 		vadd.f32	s15, s15, s14
 1053              		.loc 1 212 74 view .LVU328
 1054 0062 07EE105A 		vmov	s14, r5	@ int
 1055 0066 B8EEC77A 		vcvt.f32.s32	s14, s14
 1056 006a 77EE877A 		vadd.f32	s15, s15, s14
 1057              		.loc 1 212 12 view .LVU329
 1058 006e FDEEE77A 		vcvt.s32.f32	s15, s15
 1059              	.LBB39:
 213:../Middlewares/stm32-vision-models-postprocessing/lib_vision_models_pp/Src/od_pp_yolov2.c ****     for (int32_t row = 0; row < pInput_static_param->grid_width; ++row)
 1060              		.loc 1 213 18 view .LVU330
 1061 0072 4FF00008 		mov	r8, #0
 1062              	.LBE39:
 212:../Middlewares/stm32-vision-models-postprocessing/lib_vision_models_pp/Src/od_pp_yolov2.c ****     int8_t threshold_s8  = (int8_t)(computedThreshold / raw_scale + 0.5f + raw_zp);
 1063              		.loc 1 212 12 view .LVU331
 1064 0076 CDED037A 		vstr.32	s15, [sp, #12]	@ int
 1065              	.LBE38:
 208:../Middlewares/stm32-vision-models-postprocessing/lib_vision_models_pp/Src/od_pp_yolov2.c ****   int8_t *pInbuff = (int8_t *)pInput->pRaw_detections;
 1066              		.loc 1 208 11 view .LVU332
 1067 007a C346     		mov	fp, r8
 199:../Middlewares/stm32-vision-models-postprocessing/lib_vision_models_pp/Src/od_pp_yolov2.c ****   int32_t anch_stride  = pInput_static_param->nb_classes + AI_YOLOV2_PP_CLASSPROB;
 1068              		.loc 1 199 11 view .LVU333
 1069 007c 4646     		mov	r6, r8
 1070              	.LBB46:
 212:../Middlewares/stm32-vision-models-postprocessing/lib_vision_models_pp/Src/od_pp_yolov2.c ****     for (int32_t row = 0; row < pInput_static_param->grid_width; ++row)
 1071              		.loc 1 212 12 view .LVU334
 1072 007e 9DF90C00 		ldrsb	r0, [sp, #12]
 1073              	.LVL90:
 1074              		.loc 1 213 5 is_stmt 1 view .LVU335
 1075              	.LBB44:
 1076              		.loc 1 213 10 view .LVU336
 1077              	.L65:
 1078              		.loc 1 213 31 discriminator 1 view .LVU337
 1079 0082 A368     		ldr	r3, [r4, #8]
 1080 0084 4345     		cmp	r3, r8
 1081 0086 00F38D80 		bgt	.L81
 1082              	.LVL91:
 1083              	.L71:
 1084              		.loc 1 213 31 is_stmt 0 discriminator 1 view .LVU338
ARM GAS  /tmp/ccZ8kJT0.s 			page 28


 1085              	.LBE44:
 1086              	.LBE46:
 214:../Middlewares/stm32-vision-models-postprocessing/lib_vision_models_pp/Src/od_pp_yolov2.c ****     {
 215:../Middlewares/stm32-vision-models-postprocessing/lib_vision_models_pp/Src/od_pp_yolov2.c ****       for (int32_t col = 0; col < pInput_static_param->grid_height; ++col)
 216:../Middlewares/stm32-vision-models-postprocessing/lib_vision_models_pp/Src/od_pp_yolov2.c ****       {
 217:../Middlewares/stm32-vision-models-postprocessing/lib_vision_models_pp/Src/od_pp_yolov2.c ****         for (int32_t anch = 0; anch < pInput_static_param->nb_anchors; ++anch)
 218:../Middlewares/stm32-vision-models-postprocessing/lib_vision_models_pp/Src/od_pp_yolov2.c ****         {
 219:../Middlewares/stm32-vision-models-postprocessing/lib_vision_models_pp/Src/od_pp_yolov2.c **** 
 220:../Middlewares/stm32-vision-models-postprocessing/lib_vision_models_pp/Src/od_pp_yolov2.c ****           if ( pInbuff[el_offset + AI_YOLOV2_PP_OBJECTNESS] >= threshold_s8)
 221:../Middlewares/stm32-vision-models-postprocessing/lib_vision_models_pp/Src/od_pp_yolov2.c ****           {
 222:../Middlewares/stm32-vision-models-postprocessing/lib_vision_models_pp/Src/od_pp_yolov2.c ****             /* read and activate objectness */
 223:../Middlewares/stm32-vision-models-postprocessing/lib_vision_models_pp/Src/od_pp_yolov2.c ****             float32_t dequant;
 224:../Middlewares/stm32-vision-models-postprocessing/lib_vision_models_pp/Src/od_pp_yolov2.c ****             float32_t anchor;
 225:../Middlewares/stm32-vision-models-postprocessing/lib_vision_models_pp/Src/od_pp_yolov2.c ****             dequant = (float32_t)((int32_t)pInbuff[el_offset + AI_YOLOV2_PP_OBJECTNESS] - raw_zp) *
 226:../Middlewares/stm32-vision-models-postprocessing/lib_vision_models_pp/Src/od_pp_yolov2.c ****             float32_t prob = vision_models_sigmoid_f(dequant);
 227:../Middlewares/stm32-vision-models-postprocessing/lib_vision_models_pp/Src/od_pp_yolov2.c ****             pOutBuff[count_detect].conf = prob;
 228:../Middlewares/stm32-vision-models-postprocessing/lib_vision_models_pp/Src/od_pp_yolov2.c ****             pOutBuff[count_detect].class_index = 0;
 229:../Middlewares/stm32-vision-models-postprocessing/lib_vision_models_pp/Src/od_pp_yolov2.c **** 
 230:../Middlewares/stm32-vision-models-postprocessing/lib_vision_models_pp/Src/od_pp_yolov2.c ****             dequant = (float32_t)((int32_t)pInbuff[el_offset + AI_YOLOV2_PP_XCENTER] - raw_zp) * ra
 231:../Middlewares/stm32-vision-models-postprocessing/lib_vision_models_pp/Src/od_pp_yolov2.c ****             pOutBuff[count_detect].x_center   = (col + vision_models_sigmoid_f(dequant)) * grid_wid
 232:../Middlewares/stm32-vision-models-postprocessing/lib_vision_models_pp/Src/od_pp_yolov2.c **** 
 233:../Middlewares/stm32-vision-models-postprocessing/lib_vision_models_pp/Src/od_pp_yolov2.c ****             dequant = (float32_t)((int32_t)pInbuff[el_offset + AI_YOLOV2_PP_YCENTER] - raw_zp) * ra
 234:../Middlewares/stm32-vision-models-postprocessing/lib_vision_models_pp/Src/od_pp_yolov2.c ****             pOutBuff[count_detect].y_center   = (row + vision_models_sigmoid_f(dequant)) * grid_hei
 235:../Middlewares/stm32-vision-models-postprocessing/lib_vision_models_pp/Src/od_pp_yolov2.c **** 
 236:../Middlewares/stm32-vision-models-postprocessing/lib_vision_models_pp/Src/od_pp_yolov2.c ****             dequant = (float32_t)((int32_t)pInbuff[el_offset + AI_YOLOV2_PP_WIDTHREL] - raw_zp) * r
 237:../Middlewares/stm32-vision-models-postprocessing/lib_vision_models_pp/Src/od_pp_yolov2.c ****             anchor                          = (float32_t)pInput_static_param->pAnchors[2 * anch + 0
 238:../Middlewares/stm32-vision-models-postprocessing/lib_vision_models_pp/Src/od_pp_yolov2.c ****             pOutBuff[count_detect].width      = (anchor * expf(dequant)) * grid_width_inv;
 239:../Middlewares/stm32-vision-models-postprocessing/lib_vision_models_pp/Src/od_pp_yolov2.c **** 
 240:../Middlewares/stm32-vision-models-postprocessing/lib_vision_models_pp/Src/od_pp_yolov2.c ****             dequant = (float32_t)((int32_t)pInbuff[el_offset + AI_YOLOV2_PP_HEIGHTREL] - raw_zp) * 
 241:../Middlewares/stm32-vision-models-postprocessing/lib_vision_models_pp/Src/od_pp_yolov2.c ****             anchor                          = (float32_t)pInput_static_param->pAnchors[2 * anch + 1
 242:../Middlewares/stm32-vision-models-postprocessing/lib_vision_models_pp/Src/od_pp_yolov2.c ****             pOutBuff[count_detect].height     = (anchor * expf(dequant)) * grid_height_inv;
 243:../Middlewares/stm32-vision-models-postprocessing/lib_vision_models_pp/Src/od_pp_yolov2.c **** 
 244:../Middlewares/stm32-vision-models-postprocessing/lib_vision_models_pp/Src/od_pp_yolov2.c ****             count_detect++;
 245:../Middlewares/stm32-vision-models-postprocessing/lib_vision_models_pp/Src/od_pp_yolov2.c ****           }
 246:../Middlewares/stm32-vision-models-postprocessing/lib_vision_models_pp/Src/od_pp_yolov2.c ****           el_offset += anch_stride;
 247:../Middlewares/stm32-vision-models-postprocessing/lib_vision_models_pp/Src/od_pp_yolov2.c ****         }
 248:../Middlewares/stm32-vision-models-postprocessing/lib_vision_models_pp/Src/od_pp_yolov2.c ****       }
 249:../Middlewares/stm32-vision-models-postprocessing/lib_vision_models_pp/Src/od_pp_yolov2.c ****     }
 250:../Middlewares/stm32-vision-models-postprocessing/lib_vision_models_pp/Src/od_pp_yolov2.c ****   }
 251:../Middlewares/stm32-vision-models-postprocessing/lib_vision_models_pp/Src/od_pp_yolov2.c ****   else
 252:../Middlewares/stm32-vision-models-postprocessing/lib_vision_models_pp/Src/od_pp_yolov2.c ****   {
 253:../Middlewares/stm32-vision-models-postprocessing/lib_vision_models_pp/Src/od_pp_yolov2.c ****     int8_t best_score_s8 = 0;
 254:../Middlewares/stm32-vision-models-postprocessing/lib_vision_models_pp/Src/od_pp_yolov2.c ****     uint8_t class_index_u8;
 255:../Middlewares/stm32-vision-models-postprocessing/lib_vision_models_pp/Src/od_pp_yolov2.c **** 
 256:../Middlewares/stm32-vision-models-postprocessing/lib_vision_models_pp/Src/od_pp_yolov2.c ****     for (int32_t row = 0; row < pInput_static_param->grid_width; ++row)
 257:../Middlewares/stm32-vision-models-postprocessing/lib_vision_models_pp/Src/od_pp_yolov2.c ****     {
 258:../Middlewares/stm32-vision-models-postprocessing/lib_vision_models_pp/Src/od_pp_yolov2.c ****       for (int32_t col = 0; col < pInput_static_param->grid_height; ++col)
 259:../Middlewares/stm32-vision-models-postprocessing/lib_vision_models_pp/Src/od_pp_yolov2.c ****       {
 260:../Middlewares/stm32-vision-models-postprocessing/lib_vision_models_pp/Src/od_pp_yolov2.c ****         for (int32_t anch = 0; anch < pInput_static_param->nb_anchors; ++anch)
 261:../Middlewares/stm32-vision-models-postprocessing/lib_vision_models_pp/Src/od_pp_yolov2.c ****         {
 262:../Middlewares/stm32-vision-models-postprocessing/lib_vision_models_pp/Src/od_pp_yolov2.c ****           vision_models_maxi_p_is8ou8(&pInbuff[el_offset + AI_YOLOV2_PP_CLASSPROB],
 263:../Middlewares/stm32-vision-models-postprocessing/lib_vision_models_pp/Src/od_pp_yolov2.c ****                                     pInput_static_param->nb_classes,
 264:../Middlewares/stm32-vision-models-postprocessing/lib_vision_models_pp/Src/od_pp_yolov2.c ****                                     anch,
 265:../Middlewares/stm32-vision-models-postprocessing/lib_vision_models_pp/Src/od_pp_yolov2.c ****                                     &best_score_s8,
 266:../Middlewares/stm32-vision-models-postprocessing/lib_vision_models_pp/Src/od_pp_yolov2.c ****                                     &class_index_u8,
 267:../Middlewares/stm32-vision-models-postprocessing/lib_vision_models_pp/Src/od_pp_yolov2.c ****                                     1);
 268:../Middlewares/stm32-vision-models-postprocessing/lib_vision_models_pp/Src/od_pp_yolov2.c ****           /* read and activate objectness */
ARM GAS  /tmp/ccZ8kJT0.s 			page 29


 269:../Middlewares/stm32-vision-models-postprocessing/lib_vision_models_pp/Src/od_pp_yolov2.c ****           float32_t dequant;
 270:../Middlewares/stm32-vision-models-postprocessing/lib_vision_models_pp/Src/od_pp_yolov2.c ****           float32_t best_score;
 271:../Middlewares/stm32-vision-models-postprocessing/lib_vision_models_pp/Src/od_pp_yolov2.c **** 
 272:../Middlewares/stm32-vision-models-postprocessing/lib_vision_models_pp/Src/od_pp_yolov2.c ****           dequant = (float32_t)((int32_t)pInbuff[el_offset + AI_YOLOV2_PP_OBJECTNESS] - raw_zp) * r
 273:../Middlewares/stm32-vision-models-postprocessing/lib_vision_models_pp/Src/od_pp_yolov2.c ****           float32_t prob = vision_models_sigmoid_f(dequant);
 274:../Middlewares/stm32-vision-models-postprocessing/lib_vision_models_pp/Src/od_pp_yolov2.c **** 
 275:../Middlewares/stm32-vision-models-postprocessing/lib_vision_models_pp/Src/od_pp_yolov2.c ****           /* activate array of classes pred */
 276:../Middlewares/stm32-vision-models-postprocessing/lib_vision_models_pp/Src/od_pp_yolov2.c ****           /* in placce softmax */
 277:../Middlewares/stm32-vision-models-postprocessing/lib_vision_models_pp/Src/od_pp_yolov2.c ****           float32_t sumf = 0.0;
 278:../Middlewares/stm32-vision-models-postprocessing/lib_vision_models_pp/Src/od_pp_yolov2.c ****           for (int _i = 0; _i < pInput_static_param->nb_classes; _i++) {
 279:../Middlewares/stm32-vision-models-postprocessing/lib_vision_models_pp/Src/od_pp_yolov2.c ****               dequant = (float32_t)((int32_t)pInbuff[el_offset + AI_YOLOV2_PP_CLASSPROB + _i] - raw
 280:../Middlewares/stm32-vision-models-postprocessing/lib_vision_models_pp/Src/od_pp_yolov2.c ****               sumf+= expf(dequant);
 281:../Middlewares/stm32-vision-models-postprocessing/lib_vision_models_pp/Src/od_pp_yolov2.c ****           }
 282:../Middlewares/stm32-vision-models-postprocessing/lib_vision_models_pp/Src/od_pp_yolov2.c ****           dequant = (float32_t)((int32_t)best_score_s8 - raw_zp) * raw_scale;
 283:../Middlewares/stm32-vision-models-postprocessing/lib_vision_models_pp/Src/od_pp_yolov2.c ****           best_score = expf(dequant) / sumf;
 284:../Middlewares/stm32-vision-models-postprocessing/lib_vision_models_pp/Src/od_pp_yolov2.c ****           best_score *= prob;
 285:../Middlewares/stm32-vision-models-postprocessing/lib_vision_models_pp/Src/od_pp_yolov2.c **** 
 286:../Middlewares/stm32-vision-models-postprocessing/lib_vision_models_pp/Src/od_pp_yolov2.c ****           if (best_score >= pInput_static_param->conf_threshold)
 287:../Middlewares/stm32-vision-models-postprocessing/lib_vision_models_pp/Src/od_pp_yolov2.c ****           {
 288:../Middlewares/stm32-vision-models-postprocessing/lib_vision_models_pp/Src/od_pp_yolov2.c ****             float32_t anchor;
 289:../Middlewares/stm32-vision-models-postprocessing/lib_vision_models_pp/Src/od_pp_yolov2.c **** 
 290:../Middlewares/stm32-vision-models-postprocessing/lib_vision_models_pp/Src/od_pp_yolov2.c ****             dequant                         = (float32_t)((int32_t)pInbuff[el_offset + AI_YOLOV2_PP
 291:../Middlewares/stm32-vision-models-postprocessing/lib_vision_models_pp/Src/od_pp_yolov2.c ****             pOutBuff[count_detect].x_center    = (col + vision_models_sigmoid_f(dequant)) * grid_wi
 292:../Middlewares/stm32-vision-models-postprocessing/lib_vision_models_pp/Src/od_pp_yolov2.c **** 
 293:../Middlewares/stm32-vision-models-postprocessing/lib_vision_models_pp/Src/od_pp_yolov2.c ****             dequant                         = (float32_t)((int32_t)pInbuff[el_offset + AI_YOLOV2_PP
 294:../Middlewares/stm32-vision-models-postprocessing/lib_vision_models_pp/Src/od_pp_yolov2.c ****             pOutBuff[count_detect].y_center    = (row + vision_models_sigmoid_f(dequant)) * grid_he
 295:../Middlewares/stm32-vision-models-postprocessing/lib_vision_models_pp/Src/od_pp_yolov2.c **** 
 296:../Middlewares/stm32-vision-models-postprocessing/lib_vision_models_pp/Src/od_pp_yolov2.c ****             dequant                         = (float32_t)((int32_t)pInbuff[el_offset + AI_YOLOV2_PP
 297:../Middlewares/stm32-vision-models-postprocessing/lib_vision_models_pp/Src/od_pp_yolov2.c ****             anchor                          = (float32_t)pInput_static_param->pAnchors[2 * anch + 0
 298:../Middlewares/stm32-vision-models-postprocessing/lib_vision_models_pp/Src/od_pp_yolov2.c ****             pOutBuff[count_detect].width       = (anchor * expf(dequant)) * grid_width_inv;
 299:../Middlewares/stm32-vision-models-postprocessing/lib_vision_models_pp/Src/od_pp_yolov2.c **** 
 300:../Middlewares/stm32-vision-models-postprocessing/lib_vision_models_pp/Src/od_pp_yolov2.c ****             dequant                         = (float32_t)((int32_t)pInbuff[el_offset + AI_YOLOV2_PP
 301:../Middlewares/stm32-vision-models-postprocessing/lib_vision_models_pp/Src/od_pp_yolov2.c ****             anchor                          = (float32_t)pInput_static_param->pAnchors[2 * anch + 1
 302:../Middlewares/stm32-vision-models-postprocessing/lib_vision_models_pp/Src/od_pp_yolov2.c ****             pOutBuff[count_detect].height      = (anchor * expf(dequant)) * grid_height_inv;
 303:../Middlewares/stm32-vision-models-postprocessing/lib_vision_models_pp/Src/od_pp_yolov2.c **** 
 304:../Middlewares/stm32-vision-models-postprocessing/lib_vision_models_pp/Src/od_pp_yolov2.c ****             pOutBuff[count_detect].conf        = best_score;
 305:../Middlewares/stm32-vision-models-postprocessing/lib_vision_models_pp/Src/od_pp_yolov2.c ****             pOutBuff[count_detect].class_index = class_index_u8;
 306:../Middlewares/stm32-vision-models-postprocessing/lib_vision_models_pp/Src/od_pp_yolov2.c **** 
 307:../Middlewares/stm32-vision-models-postprocessing/lib_vision_models_pp/Src/od_pp_yolov2.c ****             count_detect++;
 308:../Middlewares/stm32-vision-models-postprocessing/lib_vision_models_pp/Src/od_pp_yolov2.c ****           }
 309:../Middlewares/stm32-vision-models-postprocessing/lib_vision_models_pp/Src/od_pp_yolov2.c **** 
 310:../Middlewares/stm32-vision-models-postprocessing/lib_vision_models_pp/Src/od_pp_yolov2.c ****           el_offset += anch_stride;
 311:../Middlewares/stm32-vision-models-postprocessing/lib_vision_models_pp/Src/od_pp_yolov2.c ****         }
 312:../Middlewares/stm32-vision-models-postprocessing/lib_vision_models_pp/Src/od_pp_yolov2.c ****       }
 313:../Middlewares/stm32-vision-models-postprocessing/lib_vision_models_pp/Src/od_pp_yolov2.c ****     }
 314:../Middlewares/stm32-vision-models-postprocessing/lib_vision_models_pp/Src/od_pp_yolov2.c ****   }
 315:../Middlewares/stm32-vision-models-postprocessing/lib_vision_models_pp/Src/od_pp_yolov2.c ****   pInput_static_param->nb_detect = count_detect;
 1087              		.loc 1 315 3 is_stmt 1 view .LVU339
 316:../Middlewares/stm32-vision-models-postprocessing/lib_vision_models_pp/Src/od_pp_yolov2.c ****   return (error);
 317:../Middlewares/stm32-vision-models-postprocessing/lib_vision_models_pp/Src/od_pp_yolov2.c **** }
 1088              		.loc 1 317 1 is_stmt 0 view .LVU340
 1089 008a 0020     		movs	r0, #0
 315:../Middlewares/stm32-vision-models-postprocessing/lib_vision_models_pp/Src/od_pp_yolov2.c ****   return (error);
 1090              		.loc 1 315 34 view .LVU341
 1091 008c 6662     		str	r6, [r4, #36]
 316:../Middlewares/stm32-vision-models-postprocessing/lib_vision_models_pp/Src/od_pp_yolov2.c ****   return (error);
 1092              		.loc 1 316 3 is_stmt 1 view .LVU342
ARM GAS  /tmp/ccZ8kJT0.s 			page 30


 1093              		.loc 1 317 1 is_stmt 0 view .LVU343
 1094 008e 0BB0     		add	sp, sp, #44
 1095              		.cfi_remember_state
 1096              		.cfi_def_cfa_offset 60
 1097              		@ sp needed
 1098 0090 BDEC068B 		vldm	sp!, {d8-d10}
 1099              		.cfi_restore 84
 1100              		.cfi_restore 85
 1101              		.cfi_restore 82
 1102              		.cfi_restore 83
 1103              		.cfi_restore 80
 1104              		.cfi_restore 81
 1105              		.cfi_def_cfa_offset 36
 1106              	.LVL92:
 1107              		.loc 1 317 1 view .LVU344
 1108 0094 BDE8F08F 		pop	{r4, r5, r6, r7, r8, r9, r10, fp, pc}
 1109              	.LVL93:
 1110              	.L67:
 1111              		.cfi_restore_state
 1112              	.LBB47:
 1113              	.LBB45:
 1114              	.LBB40:
 1115              	.LBB41:
 220:../Middlewares/stm32-vision-models-postprocessing/lib_vision_models_pp/Src/od_pp_yolov2.c ****           {
 1116              		.loc 1 220 11 is_stmt 1 view .LVU345
 220:../Middlewares/stm32-vision-models-postprocessing/lib_vision_models_pp/Src/od_pp_yolov2.c ****           {
 1117              		.loc 1 220 23 is_stmt 0 view .LVU346
 1118 0098 97F90420 		ldrsb	r2, [r7, #4]
 220:../Middlewares/stm32-vision-models-postprocessing/lib_vision_models_pp/Src/od_pp_yolov2.c ****           {
 1119              		.loc 1 220 14 view .LVU347
 1120 009c 8242     		cmp	r2, r0
 1121 009e 6EDB     		blt	.L66
 1122 00a0 0393     		str	r3, [sp, #12]
 1123              	.LBB42:
 223:../Middlewares/stm32-vision-models-postprocessing/lib_vision_models_pp/Src/od_pp_yolov2.c ****             float32_t anchor;
 1124              		.loc 1 223 13 is_stmt 1 view .LVU348
 224:../Middlewares/stm32-vision-models-postprocessing/lib_vision_models_pp/Src/od_pp_yolov2.c ****             dequant = (float32_t)((int32_t)pInbuff[el_offset + AI_YOLOV2_PP_OBJECTNESS] - raw_zp) *
 1125              		.loc 1 224 13 view .LVU349
 225:../Middlewares/stm32-vision-models-postprocessing/lib_vision_models_pp/Src/od_pp_yolov2.c ****             float32_t prob = vision_models_sigmoid_f(dequant);
 1126              		.loc 1 225 13 view .LVU350
 1127              	.LVL94:
 226:../Middlewares/stm32-vision-models-postprocessing/lib_vision_models_pp/Src/od_pp_yolov2.c ****             pOutBuff[count_detect].conf = prob;
 1128              		.loc 1 226 13 view .LVU351
 225:../Middlewares/stm32-vision-models-postprocessing/lib_vision_models_pp/Src/od_pp_yolov2.c ****             float32_t prob = vision_models_sigmoid_f(dequant);
 1129              		.loc 1 225 89 is_stmt 0 view .LVU352
 1130 00a2 531B     		subs	r3, r2, r5
 1131 00a4 00EE103A 		vmov	s0, r3	@ int
 225:../Middlewares/stm32-vision-models-postprocessing/lib_vision_models_pp/Src/od_pp_yolov2.c ****             float32_t prob = vision_models_sigmoid_f(dequant);
 1132              		.loc 1 225 23 view .LVU353
 1133 00a8 B8EEC00A 		vcvt.f32.s32	s0, s0
 226:../Middlewares/stm32-vision-models-postprocessing/lib_vision_models_pp/Src/od_pp_yolov2.c ****             pOutBuff[count_detect].conf = prob;
 1134              		.loc 1 226 30 view .LVU354
 1135 00ac 20EE080A 		vmul.f32	s0, s0, s16
 1136 00b0 0790     		str	r0, [sp, #28]
 1137 00b2 FFF7FEFF 		bl	vision_models_sigmoid_f
 1138              	.LVL95:
 227:../Middlewares/stm32-vision-models-postprocessing/lib_vision_models_pp/Src/od_pp_yolov2.c ****             pOutBuff[count_detect].class_index = 0;
ARM GAS  /tmp/ccZ8kJT0.s 			page 31


 1139              		.loc 1 227 13 is_stmt 1 view .LVU355
 227:../Middlewares/stm32-vision-models-postprocessing/lib_vision_models_pp/Src/od_pp_yolov2.c ****             pOutBuff[count_detect].class_index = 0;
 1140              		.loc 1 227 21 is_stmt 0 view .LVU356
 1141 00b6 1822     		movs	r2, #24
 1142 00b8 069B     		ldr	r3, [sp, #24]
 1143 00ba 02FB0639 		mla	r9, r2, r6, r3
 228:../Middlewares/stm32-vision-models-postprocessing/lib_vision_models_pp/Src/od_pp_yolov2.c **** 
 1144              		.loc 1 228 48 view .LVU357
 1145 00be 0023     		movs	r3, #0
 227:../Middlewares/stm32-vision-models-postprocessing/lib_vision_models_pp/Src/od_pp_yolov2.c ****             pOutBuff[count_detect].class_index = 0;
 1146              		.loc 1 227 41 view .LVU358
 1147 00c0 89ED040A 		vstr.32	s0, [r9, #16]
 228:../Middlewares/stm32-vision-models-postprocessing/lib_vision_models_pp/Src/od_pp_yolov2.c **** 
 1148              		.loc 1 228 13 is_stmt 1 view .LVU359
 228:../Middlewares/stm32-vision-models-postprocessing/lib_vision_models_pp/Src/od_pp_yolov2.c **** 
 1149              		.loc 1 228 48 is_stmt 0 view .LVU360
 1150 00c4 C9F81430 		str	r3, [r9, #20]
 230:../Middlewares/stm32-vision-models-postprocessing/lib_vision_models_pp/Src/od_pp_yolov2.c ****             pOutBuff[count_detect].x_center   = (col + vision_models_sigmoid_f(dequant)) * grid_wid
 1151              		.loc 1 230 13 is_stmt 1 view .LVU361
 1152              	.LVL96:
 231:../Middlewares/stm32-vision-models-postprocessing/lib_vision_models_pp/Src/od_pp_yolov2.c **** 
 1153              		.loc 1 231 13 view .LVU362
 230:../Middlewares/stm32-vision-models-postprocessing/lib_vision_models_pp/Src/od_pp_yolov2.c ****             pOutBuff[count_detect].x_center   = (col + vision_models_sigmoid_f(dequant)) * grid_wid
 1154              		.loc 1 230 35 is_stmt 0 view .LVU363
 1155 00c8 97F90020 		ldrsb	r2, [r7]
 244:../Middlewares/stm32-vision-models-postprocessing/lib_vision_models_pp/Src/od_pp_yolov2.c ****           }
 1156              		.loc 1 244 25 view .LVU364
 1157 00cc 0136     		adds	r6, r6, #1
 1158              	.LVL97:
 230:../Middlewares/stm32-vision-models-postprocessing/lib_vision_models_pp/Src/od_pp_yolov2.c ****             pOutBuff[count_detect].x_center   = (col + vision_models_sigmoid_f(dequant)) * grid_wid
 1159              		.loc 1 230 86 view .LVU365
 1160 00ce 531B     		subs	r3, r2, r5
 1161 00d0 00EE103A 		vmov	s0, r3	@ int
 1162              	.LVL98:
 230:../Middlewares/stm32-vision-models-postprocessing/lib_vision_models_pp/Src/od_pp_yolov2.c ****             pOutBuff[count_detect].x_center   = (col + vision_models_sigmoid_f(dequant)) * grid_wid
 1163              		.loc 1 230 23 view .LVU366
 1164 00d4 B8EEC00A 		vcvt.f32.s32	s0, s0
 231:../Middlewares/stm32-vision-models-postprocessing/lib_vision_models_pp/Src/od_pp_yolov2.c **** 
 1165              		.loc 1 231 56 view .LVU367
 1166 00d8 20EE080A 		vmul.f32	s0, s0, s16
 1167 00dc FFF7FEFF 		bl	vision_models_sigmoid_f
 1168              	.LVL99:
 231:../Middlewares/stm32-vision-models-postprocessing/lib_vision_models_pp/Src/od_pp_yolov2.c **** 
 1169              		.loc 1 231 54 discriminator 1 view .LVU368
 1170 00e0 039B     		ldr	r3, [sp, #12]
 1171 00e2 07EE903A 		vmov	s15, r3	@ int
 1172 00e6 F8EEE77A 		vcvt.f32.s32	s15, s15
 1173 00ea 77EE807A 		vadd.f32	s15, s15, s0
 231:../Middlewares/stm32-vision-models-postprocessing/lib_vision_models_pp/Src/od_pp_yolov2.c **** 
 1174              		.loc 1 231 90 discriminator 1 view .LVU369
 1175 00ee 67EE897A 		vmul.f32	s15, s15, s18
 231:../Middlewares/stm32-vision-models-postprocessing/lib_vision_models_pp/Src/od_pp_yolov2.c **** 
 1176              		.loc 1 231 47 discriminator 1 view .LVU370
 1177 00f2 C9ED007A 		vstr.32	s15, [r9]
 233:../Middlewares/stm32-vision-models-postprocessing/lib_vision_models_pp/Src/od_pp_yolov2.c ****             pOutBuff[count_detect].y_center   = (row + vision_models_sigmoid_f(dequant)) * grid_hei
 1178              		.loc 1 233 13 is_stmt 1 view .LVU371
 1179              	.LVL100:
ARM GAS  /tmp/ccZ8kJT0.s 			page 32


 234:../Middlewares/stm32-vision-models-postprocessing/lib_vision_models_pp/Src/od_pp_yolov2.c **** 
 1180              		.loc 1 234 13 view .LVU372
 233:../Middlewares/stm32-vision-models-postprocessing/lib_vision_models_pp/Src/od_pp_yolov2.c ****             pOutBuff[count_detect].y_center   = (row + vision_models_sigmoid_f(dequant)) * grid_hei
 1181              		.loc 1 233 35 is_stmt 0 view .LVU373
 1182 00f6 97F90120 		ldrsb	r2, [r7, #1]
 231:../Middlewares/stm32-vision-models-postprocessing/lib_vision_models_pp/Src/od_pp_yolov2.c **** 
 1183              		.loc 1 231 54 discriminator 1 view .LVU374
 1184 00fa 0493     		str	r3, [sp, #16]
 233:../Middlewares/stm32-vision-models-postprocessing/lib_vision_models_pp/Src/od_pp_yolov2.c ****             pOutBuff[count_detect].y_center   = (row + vision_models_sigmoid_f(dequant)) * grid_hei
 1185              		.loc 1 233 86 view .LVU375
 1186 00fc 531B     		subs	r3, r2, r5
 1187 00fe 00EE103A 		vmov	s0, r3	@ int
 233:../Middlewares/stm32-vision-models-postprocessing/lib_vision_models_pp/Src/od_pp_yolov2.c ****             pOutBuff[count_detect].y_center   = (row + vision_models_sigmoid_f(dequant)) * grid_hei
 1188              		.loc 1 233 23 view .LVU376
 1189 0102 B8EEC00A 		vcvt.f32.s32	s0, s0
 234:../Middlewares/stm32-vision-models-postprocessing/lib_vision_models_pp/Src/od_pp_yolov2.c **** 
 1190              		.loc 1 234 56 view .LVU377
 1191 0106 20EE080A 		vmul.f32	s0, s0, s16
 1192 010a FFF7FEFF 		bl	vision_models_sigmoid_f
 1193              	.LVL101:
 234:../Middlewares/stm32-vision-models-postprocessing/lib_vision_models_pp/Src/od_pp_yolov2.c **** 
 1194              		.loc 1 234 54 discriminator 1 view .LVU378
 1195 010e 07EE908A 		vmov	s15, r8	@ int
 1196 0112 F8EEE77A 		vcvt.f32.s32	s15, s15
 1197 0116 77EE807A 		vadd.f32	s15, s15, s0
 234:../Middlewares/stm32-vision-models-postprocessing/lib_vision_models_pp/Src/od_pp_yolov2.c **** 
 1198              		.loc 1 234 90 discriminator 1 view .LVU379
 1199 011a 67EEA97A 		vmul.f32	s15, s15, s19
 234:../Middlewares/stm32-vision-models-postprocessing/lib_vision_models_pp/Src/od_pp_yolov2.c **** 
 1200              		.loc 1 234 47 discriminator 1 view .LVU380
 1201 011e C9ED017A 		vstr.32	s15, [r9, #4]
 236:../Middlewares/stm32-vision-models-postprocessing/lib_vision_models_pp/Src/od_pp_yolov2.c ****             anchor                          = (float32_t)pInput_static_param->pAnchors[2 * anch + 0
 1202              		.loc 1 236 13 is_stmt 1 view .LVU381
 1203              	.LVL102:
 237:../Middlewares/stm32-vision-models-postprocessing/lib_vision_models_pp/Src/od_pp_yolov2.c ****             pOutBuff[count_detect].width      = (anchor * expf(dequant)) * grid_width_inv;
 1204              		.loc 1 237 13 view .LVU382
 236:../Middlewares/stm32-vision-models-postprocessing/lib_vision_models_pp/Src/od_pp_yolov2.c ****             anchor                          = (float32_t)pInput_static_param->pAnchors[2 * anch + 0
 1205              		.loc 1 236 35 is_stmt 0 view .LVU383
 1206 0122 97F902C0 		ldrsb	ip, [r7, #2]
 237:../Middlewares/stm32-vision-models-postprocessing/lib_vision_models_pp/Src/od_pp_yolov2.c ****             pOutBuff[count_detect].width      = (anchor * expf(dequant)) * grid_width_inv;
 1207              		.loc 1 237 13 view .LVU384
 1208 0126 226A     		ldr	r2, [r4, #32]
 236:../Middlewares/stm32-vision-models-postprocessing/lib_vision_models_pp/Src/od_pp_yolov2.c ****             anchor                          = (float32_t)pInput_static_param->pAnchors[2 * anch + 0
 1209              		.loc 1 236 87 view .LVU385
 1210 0128 ACEB0503 		sub	r3, ip, r5
 1211 012c 00EE103A 		vmov	s0, r3	@ int
 236:../Middlewares/stm32-vision-models-postprocessing/lib_vision_models_pp/Src/od_pp_yolov2.c ****             anchor                          = (float32_t)pInput_static_param->pAnchors[2 * anch + 0
 1212              		.loc 1 236 23 view .LVU386
 1213 0130 B8EEC00A 		vcvt.f32.s32	s0, s0
 237:../Middlewares/stm32-vision-models-postprocessing/lib_vision_models_pp/Src/od_pp_yolov2.c ****             pOutBuff[count_detect].width      = (anchor * expf(dequant)) * grid_width_inv;
 1214              		.loc 1 237 45 view .LVU387
 1215 0134 02EBCA02 		add	r2, r2, r10, lsl #3
 238:../Middlewares/stm32-vision-models-postprocessing/lib_vision_models_pp/Src/od_pp_yolov2.c **** 
 1216              		.loc 1 238 59 view .LVU388
 1217 0138 20EE080A 		vmul.f32	s0, s0, s16
 237:../Middlewares/stm32-vision-models-postprocessing/lib_vision_models_pp/Src/od_pp_yolov2.c ****             pOutBuff[count_detect].width      = (anchor * expf(dequant)) * grid_width_inv;
 1218              		.loc 1 237 45 view .LVU389
ARM GAS  /tmp/ccZ8kJT0.s 			page 33


 1219 013c D2ED008A 		vldr.32	s17, [r2]
 1220 0140 0392     		str	r2, [sp, #12]
 1221              	.LVL103:
 238:../Middlewares/stm32-vision-models-postprocessing/lib_vision_models_pp/Src/od_pp_yolov2.c **** 
 1222              		.loc 1 238 13 is_stmt 1 view .LVU390
 238:../Middlewares/stm32-vision-models-postprocessing/lib_vision_models_pp/Src/od_pp_yolov2.c **** 
 1223              		.loc 1 238 59 is_stmt 0 view .LVU391
 1224 0142 FFF7FEFF 		bl	expf
 1225              	.LVL104:
 238:../Middlewares/stm32-vision-models-postprocessing/lib_vision_models_pp/Src/od_pp_yolov2.c **** 
 1226              		.loc 1 238 57 discriminator 1 view .LVU392
 1227 0146 20EE280A 		vmul.f32	s0, s0, s17
 238:../Middlewares/stm32-vision-models-postprocessing/lib_vision_models_pp/Src/od_pp_yolov2.c **** 
 1228              		.loc 1 238 74 discriminator 1 view .LVU393
 1229 014a 20EE090A 		vmul.f32	s0, s0, s18
 238:../Middlewares/stm32-vision-models-postprocessing/lib_vision_models_pp/Src/od_pp_yolov2.c **** 
 1230              		.loc 1 238 47 discriminator 1 view .LVU394
 1231 014e 89ED020A 		vstr.32	s0, [r9, #8]
 240:../Middlewares/stm32-vision-models-postprocessing/lib_vision_models_pp/Src/od_pp_yolov2.c ****             anchor                          = (float32_t)pInput_static_param->pAnchors[2 * anch + 1
 1232              		.loc 1 240 13 is_stmt 1 view .LVU395
 1233              	.LVL105:
 241:../Middlewares/stm32-vision-models-postprocessing/lib_vision_models_pp/Src/od_pp_yolov2.c ****             pOutBuff[count_detect].height     = (anchor * expf(dequant)) * grid_height_inv;
 1234              		.loc 1 241 13 view .LVU396
 241:../Middlewares/stm32-vision-models-postprocessing/lib_vision_models_pp/Src/od_pp_yolov2.c ****             pOutBuff[count_detect].height     = (anchor * expf(dequant)) * grid_height_inv;
 1235              		.loc 1 241 45 is_stmt 0 view .LVU397
 1236 0152 039A     		ldr	r2, [sp, #12]
 1237 0154 D2ED018A 		vldr.32	s17, [r2, #4]
 1238              	.LVL106:
 242:../Middlewares/stm32-vision-models-postprocessing/lib_vision_models_pp/Src/od_pp_yolov2.c **** 
 1239              		.loc 1 242 13 is_stmt 1 view .LVU398
 240:../Middlewares/stm32-vision-models-postprocessing/lib_vision_models_pp/Src/od_pp_yolov2.c ****             anchor                          = (float32_t)pInput_static_param->pAnchors[2 * anch + 1
 1240              		.loc 1 240 35 is_stmt 0 view .LVU399
 1241 0158 97F90320 		ldrsb	r2, [r7, #3]
 240:../Middlewares/stm32-vision-models-postprocessing/lib_vision_models_pp/Src/od_pp_yolov2.c ****             anchor                          = (float32_t)pInput_static_param->pAnchors[2 * anch + 1
 1242              		.loc 1 240 88 view .LVU400
 1243 015c 531B     		subs	r3, r2, r5
 1244 015e 00EE103A 		vmov	s0, r3	@ int
 240:../Middlewares/stm32-vision-models-postprocessing/lib_vision_models_pp/Src/od_pp_yolov2.c ****             anchor                          = (float32_t)pInput_static_param->pAnchors[2 * anch + 1
 1245              		.loc 1 240 23 view .LVU401
 1246 0162 B8EEC00A 		vcvt.f32.s32	s0, s0
 242:../Middlewares/stm32-vision-models-postprocessing/lib_vision_models_pp/Src/od_pp_yolov2.c **** 
 1247              		.loc 1 242 59 view .LVU402
 1248 0166 20EE080A 		vmul.f32	s0, s0, s16
 1249 016a FFF7FEFF 		bl	expf
 1250              	.LVL107:
 242:../Middlewares/stm32-vision-models-postprocessing/lib_vision_models_pp/Src/od_pp_yolov2.c **** 
 1251              		.loc 1 242 57 discriminator 1 view .LVU403
 1252 016e 20EE280A 		vmul.f32	s0, s0, s17
 242:../Middlewares/stm32-vision-models-postprocessing/lib_vision_models_pp/Src/od_pp_yolov2.c **** 
 1253              		.loc 1 242 74 discriminator 1 view .LVU404
 1254 0172 20EE290A 		vmul.f32	s0, s0, s19
 242:../Middlewares/stm32-vision-models-postprocessing/lib_vision_models_pp/Src/od_pp_yolov2.c **** 
 1255              		.loc 1 242 47 discriminator 1 view .LVU405
 1256 0176 89ED030A 		vstr.32	s0, [r9, #12]
 244:../Middlewares/stm32-vision-models-postprocessing/lib_vision_models_pp/Src/od_pp_yolov2.c ****           }
 1257              		.loc 1 244 13 is_stmt 1 view .LVU406
 244:../Middlewares/stm32-vision-models-postprocessing/lib_vision_models_pp/Src/od_pp_yolov2.c ****           }
ARM GAS  /tmp/ccZ8kJT0.s 			page 34


 1258              		.loc 1 244 25 is_stmt 0 view .LVU407
 1259 017a 0798     		ldr	r0, [sp, #28]
 1260 017c 049B     		ldr	r3, [sp, #16]
 1261              	.LVL108:
 1262              	.L66:
 244:../Middlewares/stm32-vision-models-postprocessing/lib_vision_models_pp/Src/od_pp_yolov2.c ****           }
 1263              		.loc 1 244 25 view .LVU408
 1264              	.LBE42:
 246:../Middlewares/stm32-vision-models-postprocessing/lib_vision_models_pp/Src/od_pp_yolov2.c ****         }
 1265              		.loc 1 246 11 is_stmt 1 view .LVU409
 217:../Middlewares/stm32-vision-models-postprocessing/lib_vision_models_pp/Src/od_pp_yolov2.c ****         {
 1266              		.loc 1 217 72 discriminator 2 view .LVU410
 1267 017e 0AF1010A 		add	r10, r10, #1
 1268              	.LVL109:
 217:../Middlewares/stm32-vision-models-postprocessing/lib_vision_models_pp/Src/od_pp_yolov2.c ****         {
 1269              		.loc 1 217 72 is_stmt 0 discriminator 2 view .LVU411
 1270 0182 0637     		adds	r7, r7, #6
 1271              	.LVL110:
 1272              	.L69:
 217:../Middlewares/stm32-vision-models-postprocessing/lib_vision_models_pp/Src/od_pp_yolov2.c ****         {
 1273              		.loc 1 217 37 is_stmt 1 discriminator 1 view .LVU412
 1274 0184 6268     		ldr	r2, [r4, #4]
 1275 0186 5245     		cmp	r2, r10
 1276 0188 86DC     		bgt	.L67
 217:../Middlewares/stm32-vision-models-postprocessing/lib_vision_models_pp/Src/od_pp_yolov2.c ****         {
 1277              		.loc 1 217 37 is_stmt 0 discriminator 1 view .LVU413
 1278 018a 0622     		movs	r2, #6
 1279 018c 02FB0ABB 		mla	fp, r2, r10, fp
 1280              	.LBE41:
 215:../Middlewares/stm32-vision-models-postprocessing/lib_vision_models_pp/Src/od_pp_yolov2.c ****       {
 1281              		.loc 1 215 69 is_stmt 1 discriminator 2 view .LVU414
 1282 0190 0133     		adds	r3, r3, #1
 1283              	.LVL111:
 1284              	.L70:
 215:../Middlewares/stm32-vision-models-postprocessing/lib_vision_models_pp/Src/od_pp_yolov2.c ****       {
 1285              		.loc 1 215 33 discriminator 1 view .LVU415
 1286 0192 E268     		ldr	r2, [r4, #12]
 1287 0194 9A42     		cmp	r2, r3
 1288 0196 07DD     		ble	.L68
 215:../Middlewares/stm32-vision-models-postprocessing/lib_vision_models_pp/Src/od_pp_yolov2.c ****       {
 1289              		.loc 1 215 33 is_stmt 0 discriminator 1 view .LVU416
 1290 0198 059A     		ldr	r2, [sp, #20]
 1291              	.LBB43:
 217:../Middlewares/stm32-vision-models-postprocessing/lib_vision_models_pp/Src/od_pp_yolov2.c ****         {
 1292              		.loc 1 217 22 view .LVU417
 1293 019a 4FF0000A 		mov	r10, #0
 1294 019e 02EB0B07 		add	r7, r2, fp
 1295 01a2 EFE7     		b	.L69
 1296              	.LVL112:
 1297              	.L81:
 217:../Middlewares/stm32-vision-models-postprocessing/lib_vision_models_pp/Src/od_pp_yolov2.c ****         {
 1298              		.loc 1 217 22 view .LVU418
 1299              	.LBE43:
 215:../Middlewares/stm32-vision-models-postprocessing/lib_vision_models_pp/Src/od_pp_yolov2.c ****       {
 1300              		.loc 1 215 20 view .LVU419
 1301 01a4 0023     		movs	r3, #0
 1302 01a6 F4E7     		b	.L70
ARM GAS  /tmp/ccZ8kJT0.s 			page 35


 1303              	.LVL113:
 1304              	.L68:
 215:../Middlewares/stm32-vision-models-postprocessing/lib_vision_models_pp/Src/od_pp_yolov2.c ****       {
 1305              		.loc 1 215 20 view .LVU420
 1306              	.LBE40:
 213:../Middlewares/stm32-vision-models-postprocessing/lib_vision_models_pp/Src/od_pp_yolov2.c ****     {
 1307              		.loc 1 213 66 is_stmt 1 discriminator 2 view .LVU421
 1308 01a8 08F10108 		add	r8, r8, #1
 1309              	.LVL114:
 213:../Middlewares/stm32-vision-models-postprocessing/lib_vision_models_pp/Src/od_pp_yolov2.c ****     {
 1310              		.loc 1 213 66 is_stmt 0 discriminator 2 view .LVU422
 1311 01ac 69E7     		b	.L65
 1312              	.LVL115:
 1313              	.L64:
 213:../Middlewares/stm32-vision-models-postprocessing/lib_vision_models_pp/Src/od_pp_yolov2.c ****     {
 1314              		.loc 1 213 66 discriminator 2 view .LVU423
 1315              	.LBE45:
 1316              	.LBE47:
 1317              	.LBB48:
 253:../Middlewares/stm32-vision-models-postprocessing/lib_vision_models_pp/Src/od_pp_yolov2.c ****     uint8_t class_index_u8;
 1318              		.loc 1 253 5 is_stmt 1 view .LVU424
 253:../Middlewares/stm32-vision-models-postprocessing/lib_vision_models_pp/Src/od_pp_yolov2.c ****     uint8_t class_index_u8;
 1319              		.loc 1 253 12 is_stmt 0 view .LVU425
 1320 01ae 4FF00008 		mov	r8, #0
 1321              	.LBE48:
 208:../Middlewares/stm32-vision-models-postprocessing/lib_vision_models_pp/Src/od_pp_yolov2.c ****   int8_t *pInbuff = (int8_t *)pInput->pRaw_detections;
 1322              		.loc 1 208 11 view .LVU426
 1323 01b2 C346     		mov	fp, r8
 199:../Middlewares/stm32-vision-models-postprocessing/lib_vision_models_pp/Src/od_pp_yolov2.c ****   int32_t anch_stride  = pInput_static_param->nb_classes + AI_YOLOV2_PP_CLASSPROB;
 1324              		.loc 1 199 11 view .LVU427
 1325 01b4 4646     		mov	r6, r8
 1326              	.LBB60:
 253:../Middlewares/stm32-vision-models-postprocessing/lib_vision_models_pp/Src/od_pp_yolov2.c ****     uint8_t class_index_u8;
 1327              		.loc 1 253 12 view .LVU428
 1328 01b6 8DF82680 		strb	r8, [sp, #38]
 254:../Middlewares/stm32-vision-models-postprocessing/lib_vision_models_pp/Src/od_pp_yolov2.c **** 
 1329              		.loc 1 254 5 is_stmt 1 view .LVU429
 256:../Middlewares/stm32-vision-models-postprocessing/lib_vision_models_pp/Src/od_pp_yolov2.c ****     {
 1330              		.loc 1 256 5 view .LVU430
 1331              	.LBB49:
 256:../Middlewares/stm32-vision-models-postprocessing/lib_vision_models_pp/Src/od_pp_yolov2.c ****     {
 1332              		.loc 1 256 10 view .LVU431
 1333              	.LVL116:
 1334              	.L72:
 256:../Middlewares/stm32-vision-models-postprocessing/lib_vision_models_pp/Src/od_pp_yolov2.c ****     {
 1335              		.loc 1 256 31 discriminator 1 view .LVU432
 1336 01ba A368     		ldr	r3, [r4, #8]
 1337 01bc 4345     		cmp	r3, r8
 1338 01be 7FF764AF 		ble	.L71
 1339              	.LBB50:
 258:../Middlewares/stm32-vision-models-postprocessing/lib_vision_models_pp/Src/od_pp_yolov2.c ****       {
 1340              		.loc 1 258 20 is_stmt 0 view .LVU433
 1341 01c2 0023     		movs	r3, #0
 1342 01c4 A4E0     		b	.L85
 1343              	.LVL117:
 1344              	.L77:
 1345              	.LBB51:
ARM GAS  /tmp/ccZ8kJT0.s 			page 36


 1346              	.LBB52:
 262:../Middlewares/stm32-vision-models-postprocessing/lib_vision_models_pp/Src/od_pp_yolov2.c ****                                     pInput_static_param->nb_classes,
 1347              		.loc 1 262 11 is_stmt 1 view .LVU434
 1348 01c6 0123     		movs	r3, #1
 1349 01c8 0193     		str	r3, [sp, #4]
 1350 01ca 0DF12703 		add	r3, sp, #39
 1351 01ce 0093     		str	r3, [sp]
 1352 01d0 4A46     		mov	r2, r9
 1353 01d2 3846     		mov	r0, r7
 1354 01d4 2168     		ldr	r1, [r4]
 1355 01d6 0DF12603 		add	r3, sp, #38
 1356 01da FFF7FEFF 		bl	vision_models_maxi_p_is8ou8
 1357              	.LVL118:
 269:../Middlewares/stm32-vision-models-postprocessing/lib_vision_models_pp/Src/od_pp_yolov2.c ****           float32_t best_score;
 1358              		.loc 1 269 11 view .LVU435
 270:../Middlewares/stm32-vision-models-postprocessing/lib_vision_models_pp/Src/od_pp_yolov2.c **** 
 1359              		.loc 1 270 11 view .LVU436
 272:../Middlewares/stm32-vision-models-postprocessing/lib_vision_models_pp/Src/od_pp_yolov2.c ****           float32_t prob = vision_models_sigmoid_f(dequant);
 1360              		.loc 1 272 11 view .LVU437
 273:../Middlewares/stm32-vision-models-postprocessing/lib_vision_models_pp/Src/od_pp_yolov2.c **** 
 1361              		.loc 1 273 11 view .LVU438
 272:../Middlewares/stm32-vision-models-postprocessing/lib_vision_models_pp/Src/od_pp_yolov2.c ****           float32_t prob = vision_models_sigmoid_f(dequant);
 1362              		.loc 1 272 33 is_stmt 0 view .LVU439
 1363 01de 3A46     		mov	r2, r7
 1364 01e0 12F9013D 		ldrsb	r3, [r2, #-1]!
 1365              	.LVL119:
 1366              	.LBB53:
 278:../Middlewares/stm32-vision-models-postprocessing/lib_vision_models_pp/Src/od_pp_yolov2.c ****               dequant = (float32_t)((int32_t)pInbuff[el_offset + AI_YOLOV2_PP_CLASSPROB + _i] - raw
 1367              		.loc 1 278 20 view .LVU440
 1368 01e4 4FF0000A 		mov	r10, #0
 1369              	.LBE53:
 272:../Middlewares/stm32-vision-models-postprocessing/lib_vision_models_pp/Src/od_pp_yolov2.c ****           float32_t prob = vision_models_sigmoid_f(dequant);
 1370              		.loc 1 272 87 view .LVU441
 1371 01e8 5B1B     		subs	r3, r3, r5
 1372 01ea 00EE103A 		vmov	s0, r3	@ int
 272:../Middlewares/stm32-vision-models-postprocessing/lib_vision_models_pp/Src/od_pp_yolov2.c ****           float32_t prob = vision_models_sigmoid_f(dequant);
 1373              		.loc 1 272 21 view .LVU442
 1374 01ee B8EEC00A 		vcvt.f32.s32	s0, s0
 273:../Middlewares/stm32-vision-models-postprocessing/lib_vision_models_pp/Src/od_pp_yolov2.c **** 
 1375              		.loc 1 273 28 view .LVU443
 1376 01f2 20EE080A 		vmul.f32	s0, s0, s16
 272:../Middlewares/stm32-vision-models-postprocessing/lib_vision_models_pp/Src/od_pp_yolov2.c ****           float32_t prob = vision_models_sigmoid_f(dequant);
 1377              		.loc 1 272 33 view .LVU444
 1378 01f6 0792     		str	r2, [sp, #28]
 273:../Middlewares/stm32-vision-models-postprocessing/lib_vision_models_pp/Src/od_pp_yolov2.c **** 
 1379              		.loc 1 273 28 view .LVU445
 1380 01f8 FFF7FEFF 		bl	vision_models_sigmoid_f
 1381              	.LVL120:
 277:../Middlewares/stm32-vision-models-postprocessing/lib_vision_models_pp/Src/od_pp_yolov2.c ****           for (int _i = 0; _i < pInput_static_param->nb_classes; _i++) {
 1382              		.loc 1 277 21 view .LVU446
 1383 01fc 9FED54AA 		vldr.32	s20, .L86
 273:../Middlewares/stm32-vision-models-postprocessing/lib_vision_models_pp/Src/od_pp_yolov2.c **** 
 1384              		.loc 1 273 28 view .LVU447
 1385 0200 F0EE408A 		vmov.f32	s17, s0
 1386              	.LVL121:
 277:../Middlewares/stm32-vision-models-postprocessing/lib_vision_models_pp/Src/od_pp_yolov2.c ****           for (int _i = 0; _i < pInput_static_param->nb_classes; _i++) {
 1387              		.loc 1 277 11 is_stmt 1 view .LVU448
ARM GAS  /tmp/ccZ8kJT0.s 			page 37


 278:../Middlewares/stm32-vision-models-postprocessing/lib_vision_models_pp/Src/od_pp_yolov2.c ****               dequant = (float32_t)((int32_t)pInbuff[el_offset + AI_YOLOV2_PP_CLASSPROB + _i] - raw
 1388              		.loc 1 278 11 view .LVU449
 1389              	.LBB54:
 278:../Middlewares/stm32-vision-models-postprocessing/lib_vision_models_pp/Src/od_pp_yolov2.c ****               dequant = (float32_t)((int32_t)pInbuff[el_offset + AI_YOLOV2_PP_CLASSPROB + _i] - raw
 1390              		.loc 1 278 16 view .LVU450
 1391              	.L84:
 278:../Middlewares/stm32-vision-models-postprocessing/lib_vision_models_pp/Src/od_pp_yolov2.c ****               dequant = (float32_t)((int32_t)pInbuff[el_offset + AI_YOLOV2_PP_CLASSPROB + _i] - raw
 1392              		.loc 1 278 31 is_stmt 0 discriminator 1 view .LVU451
 1393 0204 2368     		ldr	r3, [r4]
 278:../Middlewares/stm32-vision-models-postprocessing/lib_vision_models_pp/Src/od_pp_yolov2.c ****               dequant = (float32_t)((int32_t)pInbuff[el_offset + AI_YOLOV2_PP_CLASSPROB + _i] - raw
 1394              		.loc 1 278 68 discriminator 3 view .LVU452
 1395 0206 079A     		ldr	r2, [sp, #28]
 1396              	.LVL122:
 278:../Middlewares/stm32-vision-models-postprocessing/lib_vision_models_pp/Src/od_pp_yolov2.c ****               dequant = (float32_t)((int32_t)pInbuff[el_offset + AI_YOLOV2_PP_CLASSPROB + _i] - raw
 1397              		.loc 1 278 31 is_stmt 1 discriminator 1 view .LVU453
 1398 0208 5345     		cmp	r3, r10
 1399 020a 00F38D80 		bgt	.L74
 1400              	.LBE54:
 282:../Middlewares/stm32-vision-models-postprocessing/lib_vision_models_pp/Src/od_pp_yolov2.c ****           best_score = expf(dequant) / sumf;
 1401              		.loc 1 282 11 view .LVU454
 1402              	.LVL123:
 283:../Middlewares/stm32-vision-models-postprocessing/lib_vision_models_pp/Src/od_pp_yolov2.c ****           best_score *= prob;
 1403              		.loc 1 283 11 view .LVU455
 282:../Middlewares/stm32-vision-models-postprocessing/lib_vision_models_pp/Src/od_pp_yolov2.c ****           best_score = expf(dequant) / sumf;
 1404              		.loc 1 282 33 is_stmt 0 view .LVU456
 1405 020e 9DF92630 		ldrsb	r3, [sp, #38]
 282:../Middlewares/stm32-vision-models-postprocessing/lib_vision_models_pp/Src/od_pp_yolov2.c ****           best_score = expf(dequant) / sumf;
 1406              		.loc 1 282 56 view .LVU457
 1407 0212 5B1B     		subs	r3, r3, r5
 1408 0214 00EE103A 		vmov	s0, r3	@ int
 282:../Middlewares/stm32-vision-models-postprocessing/lib_vision_models_pp/Src/od_pp_yolov2.c ****           best_score = expf(dequant) / sumf;
 1409              		.loc 1 282 21 view .LVU458
 1410 0218 B8EEC00A 		vcvt.f32.s32	s0, s0
 283:../Middlewares/stm32-vision-models-postprocessing/lib_vision_models_pp/Src/od_pp_yolov2.c ****           best_score *= prob;
 1411              		.loc 1 283 24 view .LVU459
 1412 021c 20EE080A 		vmul.f32	s0, s0, s16
 1413 0220 FFF7FEFF 		bl	expf
 1414              	.LVL124:
 283:../Middlewares/stm32-vision-models-postprocessing/lib_vision_models_pp/Src/od_pp_yolov2.c ****           best_score *= prob;
 1415              		.loc 1 283 22 discriminator 1 view .LVU460
 1416 0224 C0EE0A7A 		vdiv.f32	s15, s0, s20
 1417              	.LVL125:
 284:../Middlewares/stm32-vision-models-postprocessing/lib_vision_models_pp/Src/od_pp_yolov2.c **** 
 1418              		.loc 1 284 11 is_stmt 1 view .LVU461
 284:../Middlewares/stm32-vision-models-postprocessing/lib_vision_models_pp/Src/od_pp_yolov2.c **** 
 1419              		.loc 1 284 22 is_stmt 0 view .LVU462
 1420 0228 68EEA78A 		vmul.f32	s17, s17, s15
 1421              	.LVL126:
 286:../Middlewares/stm32-vision-models-postprocessing/lib_vision_models_pp/Src/od_pp_yolov2.c ****           {
 1422              		.loc 1 286 11 is_stmt 1 view .LVU463
 286:../Middlewares/stm32-vision-models-postprocessing/lib_vision_models_pp/Src/od_pp_yolov2.c ****           {
 1423              		.loc 1 286 14 is_stmt 0 view .LVU464
 1424 022c D4ED067A 		vldr.32	s15, [r4, #24]
 1425 0230 F4EEE87A 		vcmpe.f32	s15, s17
 1426 0234 F1EE10FA 		vmrs	APSR_nzcv, FPSCR
 1427 0238 5FD8     		bhi	.L75
 1428              	.LBB55:
ARM GAS  /tmp/ccZ8kJT0.s 			page 38


 288:../Middlewares/stm32-vision-models-postprocessing/lib_vision_models_pp/Src/od_pp_yolov2.c **** 
 1429              		.loc 1 288 13 is_stmt 1 view .LVU465
 290:../Middlewares/stm32-vision-models-postprocessing/lib_vision_models_pp/Src/od_pp_yolov2.c ****             pOutBuff[count_detect].x_center    = (col + vision_models_sigmoid_f(dequant)) * grid_wi
 1430              		.loc 1 290 13 view .LVU466
 1431              	.LVL127:
 291:../Middlewares/stm32-vision-models-postprocessing/lib_vision_models_pp/Src/od_pp_yolov2.c **** 
 1432              		.loc 1 291 13 view .LVU467
 290:../Middlewares/stm32-vision-models-postprocessing/lib_vision_models_pp/Src/od_pp_yolov2.c ****             pOutBuff[count_detect].x_center    = (col + vision_models_sigmoid_f(dequant)) * grid_wi
 1433              		.loc 1 290 59 is_stmt 0 view .LVU468
 1434 023a 17F9053C 		ldrsb	r3, [r7, #-5]
 290:../Middlewares/stm32-vision-models-postprocessing/lib_vision_models_pp/Src/od_pp_yolov2.c ****             pOutBuff[count_detect].x_center    = (col + vision_models_sigmoid_f(dequant)) * grid_wi
 1435              		.loc 1 290 110 view .LVU469
 1436 023e 5B1B     		subs	r3, r3, r5
 1437 0240 00EE103A 		vmov	s0, r3	@ int
 290:../Middlewares/stm32-vision-models-postprocessing/lib_vision_models_pp/Src/od_pp_yolov2.c ****             pOutBuff[count_detect].x_center    = (col + vision_models_sigmoid_f(dequant)) * grid_wi
 1438              		.loc 1 290 47 view .LVU470
 1439 0244 B8EEC00A 		vcvt.f32.s32	s0, s0
 291:../Middlewares/stm32-vision-models-postprocessing/lib_vision_models_pp/Src/od_pp_yolov2.c **** 
 1440              		.loc 1 291 57 view .LVU471
 1441 0248 20EE080A 		vmul.f32	s0, s0, s16
 1442 024c FFF7FEFF 		bl	vision_models_sigmoid_f
 1443              	.LVL128:
 291:../Middlewares/stm32-vision-models-postprocessing/lib_vision_models_pp/Src/od_pp_yolov2.c **** 
 1444              		.loc 1 291 55 discriminator 1 view .LVU472
 1445 0250 DDED037A 		vldr.32	s15, [sp, #12]	@ int
 1446 0254 F8EEE77A 		vcvt.f32.s32	s15, s15
 1447 0258 77EE807A 		vadd.f32	s15, s15, s0
 291:../Middlewares/stm32-vision-models-postprocessing/lib_vision_models_pp/Src/od_pp_yolov2.c **** 
 1448              		.loc 1 291 21 discriminator 1 view .LVU473
 1449 025c 1823     		movs	r3, #24
 291:../Middlewares/stm32-vision-models-postprocessing/lib_vision_models_pp/Src/od_pp_yolov2.c **** 
 1450              		.loc 1 291 91 discriminator 1 view .LVU474
 1451 025e 67EE897A 		vmul.f32	s15, s15, s18
 291:../Middlewares/stm32-vision-models-postprocessing/lib_vision_models_pp/Src/od_pp_yolov2.c **** 
 1452              		.loc 1 291 21 discriminator 1 view .LVU475
 1453 0262 069A     		ldr	r2, [sp, #24]
 1454 0264 03FB062A 		mla	r10, r3, r6, r2
 1455              	.LVL129:
 291:../Middlewares/stm32-vision-models-postprocessing/lib_vision_models_pp/Src/od_pp_yolov2.c **** 
 1456              		.loc 1 291 48 discriminator 1 view .LVU476
 1457 0268 CAED007A 		vstr.32	s15, [r10]
 293:../Middlewares/stm32-vision-models-postprocessing/lib_vision_models_pp/Src/od_pp_yolov2.c ****             pOutBuff[count_detect].y_center    = (row + vision_models_sigmoid_f(dequant)) * grid_he
 1458              		.loc 1 293 13 is_stmt 1 view .LVU477
 1459              	.LVL130:
 294:../Middlewares/stm32-vision-models-postprocessing/lib_vision_models_pp/Src/od_pp_yolov2.c **** 
 1460              		.loc 1 294 13 view .LVU478
 293:../Middlewares/stm32-vision-models-postprocessing/lib_vision_models_pp/Src/od_pp_yolov2.c ****             pOutBuff[count_detect].y_center    = (row + vision_models_sigmoid_f(dequant)) * grid_he
 1461              		.loc 1 293 59 is_stmt 0 view .LVU479
 1462 026c 17F9042C 		ldrsb	r2, [r7, #-4]
 307:../Middlewares/stm32-vision-models-postprocessing/lib_vision_models_pp/Src/od_pp_yolov2.c ****           }
 1463              		.loc 1 307 25 view .LVU480
 1464 0270 0136     		adds	r6, r6, #1
 1465              	.LVL131:
 293:../Middlewares/stm32-vision-models-postprocessing/lib_vision_models_pp/Src/od_pp_yolov2.c ****             pOutBuff[count_detect].y_center    = (row + vision_models_sigmoid_f(dequant)) * grid_he
 1466              		.loc 1 293 110 view .LVU481
 1467 0272 531B     		subs	r3, r2, r5
 1468 0274 00EE103A 		vmov	s0, r3	@ int
ARM GAS  /tmp/ccZ8kJT0.s 			page 39


 293:../Middlewares/stm32-vision-models-postprocessing/lib_vision_models_pp/Src/od_pp_yolov2.c ****             pOutBuff[count_detect].y_center    = (row + vision_models_sigmoid_f(dequant)) * grid_he
 1469              		.loc 1 293 47 view .LVU482
 1470 0278 B8EEC00A 		vcvt.f32.s32	s0, s0
 294:../Middlewares/stm32-vision-models-postprocessing/lib_vision_models_pp/Src/od_pp_yolov2.c **** 
 1471              		.loc 1 294 57 view .LVU483
 1472 027c 20EE080A 		vmul.f32	s0, s0, s16
 1473 0280 FFF7FEFF 		bl	vision_models_sigmoid_f
 1474              	.LVL132:
 294:../Middlewares/stm32-vision-models-postprocessing/lib_vision_models_pp/Src/od_pp_yolov2.c **** 
 1475              		.loc 1 294 55 discriminator 1 view .LVU484
 1476 0284 07EE908A 		vmov	s15, r8	@ int
 1477 0288 F8EEE77A 		vcvt.f32.s32	s15, s15
 1478 028c 77EE807A 		vadd.f32	s15, s15, s0
 294:../Middlewares/stm32-vision-models-postprocessing/lib_vision_models_pp/Src/od_pp_yolov2.c **** 
 1479              		.loc 1 294 91 discriminator 1 view .LVU485
 1480 0290 67EEA97A 		vmul.f32	s15, s15, s19
 294:../Middlewares/stm32-vision-models-postprocessing/lib_vision_models_pp/Src/od_pp_yolov2.c **** 
 1481              		.loc 1 294 48 discriminator 1 view .LVU486
 1482 0294 CAED017A 		vstr.32	s15, [r10, #4]
 296:../Middlewares/stm32-vision-models-postprocessing/lib_vision_models_pp/Src/od_pp_yolov2.c ****             anchor                          = (float32_t)pInput_static_param->pAnchors[2 * anch + 0
 1483              		.loc 1 296 13 is_stmt 1 view .LVU487
 1484              	.LVL133:
 297:../Middlewares/stm32-vision-models-postprocessing/lib_vision_models_pp/Src/od_pp_yolov2.c ****             pOutBuff[count_detect].width       = (anchor * expf(dequant)) * grid_width_inv;
 1485              		.loc 1 297 13 view .LVU488
 296:../Middlewares/stm32-vision-models-postprocessing/lib_vision_models_pp/Src/od_pp_yolov2.c ****             anchor                          = (float32_t)pInput_static_param->pAnchors[2 * anch + 0
 1486              		.loc 1 296 59 is_stmt 0 view .LVU489
 1487 0298 17F9032C 		ldrsb	r2, [r7, #-3]
 297:../Middlewares/stm32-vision-models-postprocessing/lib_vision_models_pp/Src/od_pp_yolov2.c ****             pOutBuff[count_detect].width       = (anchor * expf(dequant)) * grid_width_inv;
 1488              		.loc 1 297 13 view .LVU490
 1489 029c 216A     		ldr	r1, [r4, #32]
 296:../Middlewares/stm32-vision-models-postprocessing/lib_vision_models_pp/Src/od_pp_yolov2.c ****             anchor                          = (float32_t)pInput_static_param->pAnchors[2 * anch + 0
 1490              		.loc 1 296 111 view .LVU491
 1491 029e 531B     		subs	r3, r2, r5
 1492 02a0 00EE103A 		vmov	s0, r3	@ int
 296:../Middlewares/stm32-vision-models-postprocessing/lib_vision_models_pp/Src/od_pp_yolov2.c ****             anchor                          = (float32_t)pInput_static_param->pAnchors[2 * anch + 0
 1493              		.loc 1 296 47 view .LVU492
 1494 02a4 B8EEC00A 		vcvt.f32.s32	s0, s0
 297:../Middlewares/stm32-vision-models-postprocessing/lib_vision_models_pp/Src/od_pp_yolov2.c ****             pOutBuff[count_detect].width       = (anchor * expf(dequant)) * grid_width_inv;
 1495              		.loc 1 297 45 view .LVU493
 1496 02a8 01EBC901 		add	r1, r1, r9, lsl #3
 298:../Middlewares/stm32-vision-models-postprocessing/lib_vision_models_pp/Src/od_pp_yolov2.c **** 
 1497              		.loc 1 298 60 view .LVU494
 1498 02ac 20EE080A 		vmul.f32	s0, s0, s16
 297:../Middlewares/stm32-vision-models-postprocessing/lib_vision_models_pp/Src/od_pp_yolov2.c ****             pOutBuff[count_detect].width       = (anchor * expf(dequant)) * grid_width_inv;
 1499              		.loc 1 297 45 view .LVU495
 1500 02b0 91ED00AA 		vldr.32	s20, [r1]
 1501              	.LVL134:
 297:../Middlewares/stm32-vision-models-postprocessing/lib_vision_models_pp/Src/od_pp_yolov2.c ****             pOutBuff[count_detect].width       = (anchor * expf(dequant)) * grid_width_inv;
 1502              		.loc 1 297 45 view .LVU496
 1503 02b4 0791     		str	r1, [sp, #28]
 1504              	.LVL135:
 298:../Middlewares/stm32-vision-models-postprocessing/lib_vision_models_pp/Src/od_pp_yolov2.c **** 
 1505              		.loc 1 298 13 is_stmt 1 view .LVU497
 298:../Middlewares/stm32-vision-models-postprocessing/lib_vision_models_pp/Src/od_pp_yolov2.c **** 
 1506              		.loc 1 298 60 is_stmt 0 view .LVU498
 1507 02b6 FFF7FEFF 		bl	expf
 1508              	.LVL136:
ARM GAS  /tmp/ccZ8kJT0.s 			page 40


 298:../Middlewares/stm32-vision-models-postprocessing/lib_vision_models_pp/Src/od_pp_yolov2.c **** 
 1509              		.loc 1 298 58 discriminator 1 view .LVU499
 1510 02ba 20EE0A0A 		vmul.f32	s0, s0, s20
 298:../Middlewares/stm32-vision-models-postprocessing/lib_vision_models_pp/Src/od_pp_yolov2.c **** 
 1511              		.loc 1 298 75 discriminator 1 view .LVU500
 1512 02be 20EE090A 		vmul.f32	s0, s0, s18
 298:../Middlewares/stm32-vision-models-postprocessing/lib_vision_models_pp/Src/od_pp_yolov2.c **** 
 1513              		.loc 1 298 48 discriminator 1 view .LVU501
 1514 02c2 8AED020A 		vstr.32	s0, [r10, #8]
 300:../Middlewares/stm32-vision-models-postprocessing/lib_vision_models_pp/Src/od_pp_yolov2.c ****             anchor                          = (float32_t)pInput_static_param->pAnchors[2 * anch + 1
 1515              		.loc 1 300 13 is_stmt 1 view .LVU502
 1516              	.LVL137:
 301:../Middlewares/stm32-vision-models-postprocessing/lib_vision_models_pp/Src/od_pp_yolov2.c ****             pOutBuff[count_detect].height      = (anchor * expf(dequant)) * grid_height_inv;
 1517              		.loc 1 301 13 view .LVU503
 300:../Middlewares/stm32-vision-models-postprocessing/lib_vision_models_pp/Src/od_pp_yolov2.c ****             anchor                          = (float32_t)pInput_static_param->pAnchors[2 * anch + 1
 1518              		.loc 1 300 59 is_stmt 0 view .LVU504
 1519 02c6 17F9022C 		ldrsb	r2, [r7, #-2]
 301:../Middlewares/stm32-vision-models-postprocessing/lib_vision_models_pp/Src/od_pp_yolov2.c ****             pOutBuff[count_detect].height      = (anchor * expf(dequant)) * grid_height_inv;
 1520              		.loc 1 301 45 view .LVU505
 1521 02ca 0799     		ldr	r1, [sp, #28]
 300:../Middlewares/stm32-vision-models-postprocessing/lib_vision_models_pp/Src/od_pp_yolov2.c ****             anchor                          = (float32_t)pInput_static_param->pAnchors[2 * anch + 1
 1522              		.loc 1 300 112 view .LVU506
 1523 02cc 531B     		subs	r3, r2, r5
 1524 02ce 00EE103A 		vmov	s0, r3	@ int
 300:../Middlewares/stm32-vision-models-postprocessing/lib_vision_models_pp/Src/od_pp_yolov2.c ****             anchor                          = (float32_t)pInput_static_param->pAnchors[2 * anch + 1
 1525              		.loc 1 300 47 view .LVU507
 1526 02d2 B8EEC00A 		vcvt.f32.s32	s0, s0
 302:../Middlewares/stm32-vision-models-postprocessing/lib_vision_models_pp/Src/od_pp_yolov2.c **** 
 1527              		.loc 1 302 60 view .LVU508
 1528 02d6 20EE080A 		vmul.f32	s0, s0, s16
 301:../Middlewares/stm32-vision-models-postprocessing/lib_vision_models_pp/Src/od_pp_yolov2.c ****             pOutBuff[count_detect].height      = (anchor * expf(dequant)) * grid_height_inv;
 1529              		.loc 1 301 45 view .LVU509
 1530 02da 91ED01AA 		vldr.32	s20, [r1, #4]
 1531              	.LVL138:
 302:../Middlewares/stm32-vision-models-postprocessing/lib_vision_models_pp/Src/od_pp_yolov2.c **** 
 1532              		.loc 1 302 13 is_stmt 1 view .LVU510
 302:../Middlewares/stm32-vision-models-postprocessing/lib_vision_models_pp/Src/od_pp_yolov2.c **** 
 1533              		.loc 1 302 60 is_stmt 0 view .LVU511
 1534 02de FFF7FEFF 		bl	expf
 1535              	.LVL139:
 302:../Middlewares/stm32-vision-models-postprocessing/lib_vision_models_pp/Src/od_pp_yolov2.c **** 
 1536              		.loc 1 302 58 discriminator 1 view .LVU512
 1537 02e2 20EE0A0A 		vmul.f32	s0, s0, s20
 302:../Middlewares/stm32-vision-models-postprocessing/lib_vision_models_pp/Src/od_pp_yolov2.c **** 
 1538              		.loc 1 302 75 discriminator 1 view .LVU513
 1539 02e6 20EE290A 		vmul.f32	s0, s0, s19
 304:../Middlewares/stm32-vision-models-postprocessing/lib_vision_models_pp/Src/od_pp_yolov2.c ****             pOutBuff[count_detect].class_index = class_index_u8;
 1540              		.loc 1 304 48 view .LVU514
 1541 02ea CAED048A 		vstr.32	s17, [r10, #16]
 302:../Middlewares/stm32-vision-models-postprocessing/lib_vision_models_pp/Src/od_pp_yolov2.c **** 
 1542              		.loc 1 302 48 discriminator 1 view .LVU515
 1543 02ee 8AED030A 		vstr.32	s0, [r10, #12]
 304:../Middlewares/stm32-vision-models-postprocessing/lib_vision_models_pp/Src/od_pp_yolov2.c ****             pOutBuff[count_detect].class_index = class_index_u8;
 1544              		.loc 1 304 13 is_stmt 1 view .LVU516
 305:../Middlewares/stm32-vision-models-postprocessing/lib_vision_models_pp/Src/od_pp_yolov2.c **** 
 1545              		.loc 1 305 13 view .LVU517
 305:../Middlewares/stm32-vision-models-postprocessing/lib_vision_models_pp/Src/od_pp_yolov2.c **** 
ARM GAS  /tmp/ccZ8kJT0.s 			page 41


 1546              		.loc 1 305 48 is_stmt 0 view .LVU518
 1547 02f2 9DF82720 		ldrb	r2, [sp, #39]	@ zero_extendqisi2
 1548 02f6 CAF81420 		str	r2, [r10, #20]
 307:../Middlewares/stm32-vision-models-postprocessing/lib_vision_models_pp/Src/od_pp_yolov2.c ****           }
 1549              		.loc 1 307 13 is_stmt 1 view .LVU519
 1550              	.LVL140:
 1551              	.L75:
 307:../Middlewares/stm32-vision-models-postprocessing/lib_vision_models_pp/Src/od_pp_yolov2.c ****           }
 1552              		.loc 1 307 13 is_stmt 0 view .LVU520
 1553              	.LBE55:
 310:../Middlewares/stm32-vision-models-postprocessing/lib_vision_models_pp/Src/od_pp_yolov2.c ****         }
 1554              		.loc 1 310 11 is_stmt 1 view .LVU521
 310:../Middlewares/stm32-vision-models-postprocessing/lib_vision_models_pp/Src/od_pp_yolov2.c ****         }
 1555              		.loc 1 310 21 is_stmt 0 view .LVU522
 1556 02fa 049B     		ldr	r3, [sp, #16]
 1557              	.LBE52:
 260:../Middlewares/stm32-vision-models-postprocessing/lib_vision_models_pp/Src/od_pp_yolov2.c ****         {
 1558              		.loc 1 260 72 discriminator 2 view .LVU523
 1559 02fc 09F10109 		add	r9, r9, #1
 1560              	.LVL141:
 1561              	.LBB57:
 310:../Middlewares/stm32-vision-models-postprocessing/lib_vision_models_pp/Src/od_pp_yolov2.c ****         }
 1562              		.loc 1 310 21 view .LVU524
 1563 0300 9B44     		add	fp, fp, r3
 1564              	.LVL142:
 310:../Middlewares/stm32-vision-models-postprocessing/lib_vision_models_pp/Src/od_pp_yolov2.c ****         }
 1565              		.loc 1 310 21 view .LVU525
 1566              	.LBE57:
 260:../Middlewares/stm32-vision-models-postprocessing/lib_vision_models_pp/Src/od_pp_yolov2.c ****         {
 1567              		.loc 1 260 72 is_stmt 1 discriminator 2 view .LVU526
 260:../Middlewares/stm32-vision-models-postprocessing/lib_vision_models_pp/Src/od_pp_yolov2.c ****         {
 1568              		.loc 1 260 72 is_stmt 0 discriminator 2 view .LVU527
 1569 0302 1F44     		add	r7, r7, r3
 1570              	.LVL143:
 1571              	.L79:
 260:../Middlewares/stm32-vision-models-postprocessing/lib_vision_models_pp/Src/od_pp_yolov2.c ****         {
 1572              		.loc 1 260 37 is_stmt 1 discriminator 1 view .LVU528
 1573 0304 6368     		ldr	r3, [r4, #4]
 1574 0306 4B45     		cmp	r3, r9
 1575 0308 3FF75DAF 		bgt	.L77
 260:../Middlewares/stm32-vision-models-postprocessing/lib_vision_models_pp/Src/od_pp_yolov2.c ****         {
 1576              		.loc 1 260 37 is_stmt 0 discriminator 1 view .LVU529
 1577              	.LBE51:
 258:../Middlewares/stm32-vision-models-postprocessing/lib_vision_models_pp/Src/od_pp_yolov2.c ****       {
 1578              		.loc 1 258 69 is_stmt 1 discriminator 2 view .LVU530
 1579 030c 039B     		ldr	r3, [sp, #12]
 1580 030e 0133     		adds	r3, r3, #1
 1581              	.LVL144:
 1582              	.L85:
 258:../Middlewares/stm32-vision-models-postprocessing/lib_vision_models_pp/Src/od_pp_yolov2.c ****       {
 1583              		.loc 1 258 33 discriminator 1 view .LVU531
 258:../Middlewares/stm32-vision-models-postprocessing/lib_vision_models_pp/Src/od_pp_yolov2.c ****       {
 1584              		.loc 1 258 20 is_stmt 0 view .LVU532
 1585 0310 0393     		str	r3, [sp, #12]
 1586              	.LVL145:
 258:../Middlewares/stm32-vision-models-postprocessing/lib_vision_models_pp/Src/od_pp_yolov2.c ****       {
 1587              		.loc 1 258 33 discriminator 1 view .LVU533
ARM GAS  /tmp/ccZ8kJT0.s 			page 42


 1588 0312 039A     		ldr	r2, [sp, #12]
 1589 0314 E368     		ldr	r3, [r4, #12]
 1590 0316 9342     		cmp	r3, r2
 1591 0318 17DD     		ble	.L78
 258:../Middlewares/stm32-vision-models-postprocessing/lib_vision_models_pp/Src/od_pp_yolov2.c ****       {
 1592              		.loc 1 258 33 discriminator 1 view .LVU534
 1593 031a 059B     		ldr	r3, [sp, #20]
 1594 031c 0BF10507 		add	r7, fp, #5
 1595              	.LBB59:
 260:../Middlewares/stm32-vision-models-postprocessing/lib_vision_models_pp/Src/od_pp_yolov2.c ****         {
 1596              		.loc 1 260 22 view .LVU535
 1597 0320 4FF00009 		mov	r9, #0
 1598 0324 1F44     		add	r7, r7, r3
 1599 0326 EDE7     		b	.L79
 1600              	.LVL146:
 1601              	.L74:
 1602              	.LBB58:
 1603              	.LBB56:
 279:../Middlewares/stm32-vision-models-postprocessing/lib_vision_models_pp/Src/od_pp_yolov2.c ****               sumf+= expf(dequant);
 1604              		.loc 1 279 15 is_stmt 1 view .LVU536
 280:../Middlewares/stm32-vision-models-postprocessing/lib_vision_models_pp/Src/od_pp_yolov2.c ****           }
 1605              		.loc 1 280 15 view .LVU537
 279:../Middlewares/stm32-vision-models-postprocessing/lib_vision_models_pp/Src/od_pp_yolov2.c ****               sumf+= expf(dequant);
 1606              		.loc 1 279 37 is_stmt 0 view .LVU538
 1607 0328 12F9013F 		ldrsb	r3, [r2, #1]!
 1608              	.LVL147:
 278:../Middlewares/stm32-vision-models-postprocessing/lib_vision_models_pp/Src/od_pp_yolov2.c ****               dequant = (float32_t)((int32_t)pInbuff[el_offset + AI_YOLOV2_PP_CLASSPROB + _i] - raw
 1609              		.loc 1 278 68 discriminator 3 view .LVU539
 1610 032c 0AF1010A 		add	r10, r10, #1
 1611              	.LVL148:
 279:../Middlewares/stm32-vision-models-postprocessing/lib_vision_models_pp/Src/od_pp_yolov2.c ****               sumf+= expf(dequant);
 1612              		.loc 1 279 95 view .LVU540
 1613 0330 5B1B     		subs	r3, r3, r5
 1614 0332 00EE103A 		vmov	s0, r3	@ int
 279:../Middlewares/stm32-vision-models-postprocessing/lib_vision_models_pp/Src/od_pp_yolov2.c ****               sumf+= expf(dequant);
 1615              		.loc 1 279 25 view .LVU541
 1616 0336 B8EEC00A 		vcvt.f32.s32	s0, s0
 280:../Middlewares/stm32-vision-models-postprocessing/lib_vision_models_pp/Src/od_pp_yolov2.c ****           }
 1617              		.loc 1 280 22 view .LVU542
 1618 033a 20EE080A 		vmul.f32	s0, s0, s16
 279:../Middlewares/stm32-vision-models-postprocessing/lib_vision_models_pp/Src/od_pp_yolov2.c ****               sumf+= expf(dequant);
 1619              		.loc 1 279 37 view .LVU543
 1620 033e 0792     		str	r2, [sp, #28]
 280:../Middlewares/stm32-vision-models-postprocessing/lib_vision_models_pp/Src/od_pp_yolov2.c ****           }
 1621              		.loc 1 280 22 view .LVU544
 1622 0340 FFF7FEFF 		bl	expf
 1623              	.LVL149:
 280:../Middlewares/stm32-vision-models-postprocessing/lib_vision_models_pp/Src/od_pp_yolov2.c ****           }
 1624              		.loc 1 280 19 discriminator 1 view .LVU545
 1625 0344 3AEE00AA 		vadd.f32	s20, s20, s0
 1626              	.LVL150:
 278:../Middlewares/stm32-vision-models-postprocessing/lib_vision_models_pp/Src/od_pp_yolov2.c ****               dequant = (float32_t)((int32_t)pInbuff[el_offset + AI_YOLOV2_PP_CLASSPROB + _i] - raw
 1627              		.loc 1 278 68 is_stmt 1 discriminator 3 view .LVU546
 1628 0348 5CE7     		b	.L84
 1629              	.LVL151:
 1630              	.L78:
 278:../Middlewares/stm32-vision-models-postprocessing/lib_vision_models_pp/Src/od_pp_yolov2.c ****               dequant = (float32_t)((int32_t)pInbuff[el_offset + AI_YOLOV2_PP_CLASSPROB + _i] - raw
ARM GAS  /tmp/ccZ8kJT0.s 			page 43


 1631              		.loc 1 278 68 is_stmt 0 discriminator 3 view .LVU547
 1632              	.LBE56:
 1633              	.LBE58:
 1634              	.LBE59:
 1635              	.LBE50:
 256:../Middlewares/stm32-vision-models-postprocessing/lib_vision_models_pp/Src/od_pp_yolov2.c ****     {
 1636              		.loc 1 256 66 is_stmt 1 discriminator 2 view .LVU548
 1637 034a 08F10108 		add	r8, r8, #1
 1638              	.LVL152:
 256:../Middlewares/stm32-vision-models-postprocessing/lib_vision_models_pp/Src/od_pp_yolov2.c ****     {
 1639              		.loc 1 256 66 is_stmt 0 discriminator 2 view .LVU549
 1640 034e 34E7     		b	.L72
 1641              	.L87:
 1642              		.align	2
 1643              	.L86:
 1644 0350 00000000 		.word	0
 1645              	.LBE49:
 1646              	.LBE60:
 1647              		.cfi_endproc
 1648              	.LFE778:
 1650              		.section	.text.od_yolov2_pp_reset,"ax",%progbits
 1651              		.align	1
 1652              		.global	od_yolov2_pp_reset
 1653              		.syntax unified
 1654              		.thumb
 1655              		.thumb_func
 1657              	od_yolov2_pp_reset:
 1658              	.LVL153:
 1659              	.LFB779:
 318:../Middlewares/stm32-vision-models-postprocessing/lib_vision_models_pp/Src/od_pp_yolov2.c **** 
 319:../Middlewares/stm32-vision-models-postprocessing/lib_vision_models_pp/Src/od_pp_yolov2.c **** 
 320:../Middlewares/stm32-vision-models-postprocessing/lib_vision_models_pp/Src/od_pp_yolov2.c **** 
 321:../Middlewares/stm32-vision-models-postprocessing/lib_vision_models_pp/Src/od_pp_yolov2.c **** /* ----------------------       Exported routines      ---------------------- */
 322:../Middlewares/stm32-vision-models-postprocessing/lib_vision_models_pp/Src/od_pp_yolov2.c **** 
 323:../Middlewares/stm32-vision-models-postprocessing/lib_vision_models_pp/Src/od_pp_yolov2.c **** int32_t od_yolov2_pp_reset(od_yolov2_pp_static_param_t *pInput_static_param)
 324:../Middlewares/stm32-vision-models-postprocessing/lib_vision_models_pp/Src/od_pp_yolov2.c **** {
 1660              		.loc 1 324 1 is_stmt 1 view -0
 1661              		.cfi_startproc
 1662              		@ args = 0, pretend = 0, frame = 0
 1663              		@ frame_needed = 0, uses_anonymous_args = 0
 1664              		@ link register save eliminated.
 325:../Middlewares/stm32-vision-models-postprocessing/lib_vision_models_pp/Src/od_pp_yolov2.c ****   /* Initializations */
 326:../Middlewares/stm32-vision-models-postprocessing/lib_vision_models_pp/Src/od_pp_yolov2.c ****   pInput_static_param->nb_detect = 0;
 1665              		.loc 1 326 3 view .LVU551
 324:../Middlewares/stm32-vision-models-postprocessing/lib_vision_models_pp/Src/od_pp_yolov2.c ****   /* Initializations */
 1666              		.loc 1 324 1 is_stmt 0 view .LVU552
 1667 0000 0346     		mov	r3, r0
 1668              		.loc 1 326 34 view .LVU553
 1669 0002 0020     		movs	r0, #0
 1670              	.LVL154:
 1671              		.loc 1 326 34 view .LVU554
 1672 0004 5862     		str	r0, [r3, #36]
 327:../Middlewares/stm32-vision-models-postprocessing/lib_vision_models_pp/Src/od_pp_yolov2.c **** 
 328:../Middlewares/stm32-vision-models-postprocessing/lib_vision_models_pp/Src/od_pp_yolov2.c **** 	return (AI_OD_POSTPROCESS_ERROR_NO);
 1673              		.loc 1 328 2 is_stmt 1 view .LVU555
 329:../Middlewares/stm32-vision-models-postprocessing/lib_vision_models_pp/Src/od_pp_yolov2.c **** }
 1674              		.loc 1 329 1 is_stmt 0 view .LVU556
ARM GAS  /tmp/ccZ8kJT0.s 			page 44


 1675 0006 7047     		bx	lr
 1676              		.cfi_endproc
 1677              	.LFE779:
 1679              		.section	.text.od_yolov2_pp_process,"ax",%progbits
 1680              		.align	1
 1681              		.global	od_yolov2_pp_process
 1682              		.syntax unified
 1683              		.thumb
 1684              		.thumb_func
 1686              	od_yolov2_pp_process:
 1687              	.LVL155:
 1688              	.LFB780:
 330:../Middlewares/stm32-vision-models-postprocessing/lib_vision_models_pp/Src/od_pp_yolov2.c **** 
 331:../Middlewares/stm32-vision-models-postprocessing/lib_vision_models_pp/Src/od_pp_yolov2.c **** 
 332:../Middlewares/stm32-vision-models-postprocessing/lib_vision_models_pp/Src/od_pp_yolov2.c **** int32_t od_yolov2_pp_process(od_yolov2_pp_in_t *pInput,
 333:../Middlewares/stm32-vision-models-postprocessing/lib_vision_models_pp/Src/od_pp_yolov2.c ****                                     od_pp_out_t *pOutput,
 334:../Middlewares/stm32-vision-models-postprocessing/lib_vision_models_pp/Src/od_pp_yolov2.c ****                                     od_yolov2_pp_static_param_t *pInput_static_param)
 335:../Middlewares/stm32-vision-models-postprocessing/lib_vision_models_pp/Src/od_pp_yolov2.c **** {
 1689              		.loc 1 335 1 is_stmt 1 view -0
 1690              		.cfi_startproc
 1691              		@ args = 0, pretend = 0, frame = 0
 1692              		@ frame_needed = 0, uses_anonymous_args = 0
 336:../Middlewares/stm32-vision-models-postprocessing/lib_vision_models_pp/Src/od_pp_yolov2.c ****   int32_t error   = AI_OD_POSTPROCESS_ERROR_NO;
 1693              		.loc 1 336 3 view .LVU558
 337:../Middlewares/stm32-vision-models-postprocessing/lib_vision_models_pp/Src/od_pp_yolov2.c ****   od_pp_outBuffer_t *pScratchBuff = pInput_static_param->pScratchBuffer;
 1694              		.loc 1 337 3 view .LVU559
 335:../Middlewares/stm32-vision-models-postprocessing/lib_vision_models_pp/Src/od_pp_yolov2.c ****   int32_t error   = AI_OD_POSTPROCESS_ERROR_NO;
 1695              		.loc 1 335 1 is_stmt 0 view .LVU560
 1696 0000 70B5     		push	{r4, r5, r6, lr}
 1697              		.cfi_def_cfa_offset 16
 1698              		.cfi_offset 4, -16
 1699              		.cfi_offset 5, -12
 1700              		.cfi_offset 6, -8
 1701              		.cfi_offset 14, -4
 1702              		.loc 1 337 22 view .LVU561
 1703 0002 156B     		ldr	r5, [r2, #48]
 1704              	.LVL156:
 338:../Middlewares/stm32-vision-models-postprocessing/lib_vision_models_pp/Src/od_pp_yolov2.c **** 
 339:../Middlewares/stm32-vision-models-postprocessing/lib_vision_models_pp/Src/od_pp_yolov2.c ****   if (NULL == pScratchBuff) {
 1705              		.loc 1 339 3 is_stmt 1 view .LVU562
 335:../Middlewares/stm32-vision-models-postprocessing/lib_vision_models_pp/Src/od_pp_yolov2.c ****   int32_t error   = AI_OD_POSTPROCESS_ERROR_NO;
 1706              		.loc 1 335 1 is_stmt 0 view .LVU563
 1707 0004 0E46     		mov	r6, r1
 1708 0006 1446     		mov	r4, r2
 1709              		.loc 1 339 6 view .LVU564
 1710 0008 35B9     		cbnz	r5, .L90
 340:../Middlewares/stm32-vision-models-postprocessing/lib_vision_models_pp/Src/od_pp_yolov2.c ****       if (((AI_YOLOV2_PP_CLASSPROB + pInput_static_param->nb_classes) * sizeof(float32_t)) >= sizeo
 1711              		.loc 1 340 7 is_stmt 1 view .LVU565
 1712              		.loc 1 340 36 is_stmt 0 view .LVU566
 1713 000a 1368     		ldr	r3, [r2]
 1714 000c 0533     		adds	r3, r3, #5
 1715              		.loc 1 340 71 view .LVU567
 1716 000e 9B00     		lsls	r3, r3, #2
 1717              		.loc 1 340 10 view .LVU568
 1718 0010 172B     		cmp	r3, #23
 1719 0012 10D9     		bls	.L93
 341:../Middlewares/stm32-vision-models-postprocessing/lib_vision_models_pp/Src/od_pp_yolov2.c ****         pScratchBuff = pInput->pRaw_detections;
ARM GAS  /tmp/ccZ8kJT0.s 			page 45


 1720              		.loc 1 341 9 is_stmt 1 view .LVU569
 1721              		.loc 1 341 22 is_stmt 0 view .LVU570
 1722 0014 0568     		ldr	r5, [r0]
 1723              	.LVL157:
 342:../Middlewares/stm32-vision-models-postprocessing/lib_vision_models_pp/Src/od_pp_yolov2.c ****       }
 343:../Middlewares/stm32-vision-models-postprocessing/lib_vision_models_pp/Src/od_pp_yolov2.c ****     if (NULL == pScratchBuff) {
 1724              		.loc 1 343 5 is_stmt 1 view .LVU571
 1725              		.loc 1 343 8 is_stmt 0 view .LVU572
 1726 0016 75B1     		cbz	r5, .L93
 1727              	.L90:
 344:../Middlewares/stm32-vision-models-postprocessing/lib_vision_models_pp/Src/od_pp_yolov2.c ****       return AI_OD_POSTPROCESS_ERROR;
 345:../Middlewares/stm32-vision-models-postprocessing/lib_vision_models_pp/Src/od_pp_yolov2.c ****     }
 346:../Middlewares/stm32-vision-models-postprocessing/lib_vision_models_pp/Src/od_pp_yolov2.c ****   }
 347:../Middlewares/stm32-vision-models-postprocessing/lib_vision_models_pp/Src/od_pp_yolov2.c **** 
 348:../Middlewares/stm32-vision-models-postprocessing/lib_vision_models_pp/Src/od_pp_yolov2.c ****   /* Call Get NN boxes first */
 349:../Middlewares/stm32-vision-models-postprocessing/lib_vision_models_pp/Src/od_pp_yolov2.c ****   error = yolov2_pp_getNNBoxes_centroid(pInput,
 1728              		.loc 1 349 3 is_stmt 1 view .LVU573
 1729              		.loc 1 349 11 is_stmt 0 view .LVU574
 1730 0018 2246     		mov	r2, r4
 1731              	.LVL158:
 1732              		.loc 1 349 11 view .LVU575
 1733 001a 2946     		mov	r1, r5
 1734              	.LVL159:
 1735              		.loc 1 349 11 view .LVU576
 1736 001c FFF7FEFF 		bl	yolov2_pp_getNNBoxes_centroid
 1737              	.LVL160:
 350:../Middlewares/stm32-vision-models-postprocessing/lib_vision_models_pp/Src/od_pp_yolov2.c ****                                         pScratchBuff,
 351:../Middlewares/stm32-vision-models-postprocessing/lib_vision_models_pp/Src/od_pp_yolov2.c ****                                         pInput_static_param);
 352:../Middlewares/stm32-vision-models-postprocessing/lib_vision_models_pp/Src/od_pp_yolov2.c ****   if (error != AI_OD_POSTPROCESS_ERROR_NO) return (error);
 1738              		.loc 1 352 3 is_stmt 1 view .LVU577
 353:../Middlewares/stm32-vision-models-postprocessing/lib_vision_models_pp/Src/od_pp_yolov2.c **** 
 354:../Middlewares/stm32-vision-models-postprocessing/lib_vision_models_pp/Src/od_pp_yolov2.c ****   /* Then NMS */
 355:../Middlewares/stm32-vision-models-postprocessing/lib_vision_models_pp/Src/od_pp_yolov2.c ****   error = yolov2_pp_nmsFiltering_centroid(pScratchBuff,
 1739              		.loc 1 355 3 view .LVU578
 1740              		.loc 1 355 11 is_stmt 0 view .LVU579
 1741 0020 2146     		mov	r1, r4
 1742 0022 2846     		mov	r0, r5
 1743 0024 FFF7FEFF 		bl	yolov2_pp_nmsFiltering_centroid
 1744              	.LVL161:
 356:../Middlewares/stm32-vision-models-postprocessing/lib_vision_models_pp/Src/od_pp_yolov2.c ****                                           pInput_static_param);
 357:../Middlewares/stm32-vision-models-postprocessing/lib_vision_models_pp/Src/od_pp_yolov2.c ****   if (error != AI_OD_POSTPROCESS_ERROR_NO) return (error);
 1745              		.loc 1 357 3 is_stmt 1 view .LVU580
 358:../Middlewares/stm32-vision-models-postprocessing/lib_vision_models_pp/Src/od_pp_yolov2.c **** 
 359:../Middlewares/stm32-vision-models-postprocessing/lib_vision_models_pp/Src/od_pp_yolov2.c ****   /* And score re-filtering */
 360:../Middlewares/stm32-vision-models-postprocessing/lib_vision_models_pp/Src/od_pp_yolov2.c ****   error = yolov2_pp_scoreFiltering_centroid(pScratchBuff,
 1746              		.loc 1 360 3 view .LVU581
 1747              		.loc 1 360 11 is_stmt 0 view .LVU582
 1748 0028 2246     		mov	r2, r4
 1749 002a 3146     		mov	r1, r6
 1750 002c 2846     		mov	r0, r5
 1751 002e FFF7FEFF 		bl	yolov2_pp_scoreFiltering_centroid
 1752              	.LVL162:
 361:../Middlewares/stm32-vision-models-postprocessing/lib_vision_models_pp/Src/od_pp_yolov2.c ****                                             pOutput,
 362:../Middlewares/stm32-vision-models-postprocessing/lib_vision_models_pp/Src/od_pp_yolov2.c ****                                             pInput_static_param);
 363:../Middlewares/stm32-vision-models-postprocessing/lib_vision_models_pp/Src/od_pp_yolov2.c **** 
 364:../Middlewares/stm32-vision-models-postprocessing/lib_vision_models_pp/Src/od_pp_yolov2.c ****   return (error);
 1753              		.loc 1 364 3 is_stmt 1 view .LVU583
ARM GAS  /tmp/ccZ8kJT0.s 			page 46


 1754              		.loc 1 364 10 is_stmt 0 view .LVU584
 1755 0032 0020     		movs	r0, #0
 1756              	.LVL163:
 1757              	.L89:
 365:../Middlewares/stm32-vision-models-postprocessing/lib_vision_models_pp/Src/od_pp_yolov2.c **** }
 1758              		.loc 1 365 1 view .LVU585
 1759 0034 70BD     		pop	{r4, r5, r6, pc}
 1760              	.LVL164:
 1761              	.L93:
 344:../Middlewares/stm32-vision-models-postprocessing/lib_vision_models_pp/Src/od_pp_yolov2.c ****     }
 1762              		.loc 1 344 14 view .LVU586
 1763 0036 6FF00100 		mvn	r0, #1
 1764              	.LVL165:
 344:../Middlewares/stm32-vision-models-postprocessing/lib_vision_models_pp/Src/od_pp_yolov2.c ****     }
 1765              		.loc 1 344 14 view .LVU587
 1766 003a FBE7     		b	.L89
 1767              		.cfi_endproc
 1768              	.LFE780:
 1770              		.section	.text.od_yolov2_pp_process_int8,"ax",%progbits
 1771              		.align	1
 1772              		.global	od_yolov2_pp_process_int8
 1773              		.syntax unified
 1774              		.thumb
 1775              		.thumb_func
 1777              	od_yolov2_pp_process_int8:
 1778              	.LVL166:
 1779              	.LFB781:
 366:../Middlewares/stm32-vision-models-postprocessing/lib_vision_models_pp/Src/od_pp_yolov2.c **** 
 367:../Middlewares/stm32-vision-models-postprocessing/lib_vision_models_pp/Src/od_pp_yolov2.c **** int32_t od_yolov2_pp_process_int8(od_yolov2_pp_in_t *pInput,
 368:../Middlewares/stm32-vision-models-postprocessing/lib_vision_models_pp/Src/od_pp_yolov2.c ****                                   od_pp_out_t *pOutput,
 369:../Middlewares/stm32-vision-models-postprocessing/lib_vision_models_pp/Src/od_pp_yolov2.c ****                                   od_yolov2_pp_static_param_t *pInput_static_param)
 370:../Middlewares/stm32-vision-models-postprocessing/lib_vision_models_pp/Src/od_pp_yolov2.c **** {
 1780              		.loc 1 370 1 is_stmt 1 view -0
 1781              		.cfi_startproc
 1782              		@ args = 0, pretend = 0, frame = 0
 1783              		@ frame_needed = 0, uses_anonymous_args = 0
 371:../Middlewares/stm32-vision-models-postprocessing/lib_vision_models_pp/Src/od_pp_yolov2.c ****   int32_t error   = AI_OD_POSTPROCESS_ERROR_NO;
 1784              		.loc 1 371 3 view .LVU589
 372:../Middlewares/stm32-vision-models-postprocessing/lib_vision_models_pp/Src/od_pp_yolov2.c ****   od_pp_outBuffer_t *pScratchBuff = pInput_static_param->pScratchBuffer;
 1785              		.loc 1 372 3 view .LVU590
 370:../Middlewares/stm32-vision-models-postprocessing/lib_vision_models_pp/Src/od_pp_yolov2.c ****   int32_t error   = AI_OD_POSTPROCESS_ERROR_NO;
 1786              		.loc 1 370 1 is_stmt 0 view .LVU591
 1787 0000 70B5     		push	{r4, r5, r6, lr}
 1788              		.cfi_def_cfa_offset 16
 1789              		.cfi_offset 4, -16
 1790              		.cfi_offset 5, -12
 1791              		.cfi_offset 6, -8
 1792              		.cfi_offset 14, -4
 1793              		.loc 1 372 22 view .LVU592
 1794 0002 156B     		ldr	r5, [r2, #48]
 1795              	.LVL167:
 373:../Middlewares/stm32-vision-models-postprocessing/lib_vision_models_pp/Src/od_pp_yolov2.c **** 
 374:../Middlewares/stm32-vision-models-postprocessing/lib_vision_models_pp/Src/od_pp_yolov2.c ****   if (NULL == pScratchBuff) {
 1796              		.loc 1 374 3 is_stmt 1 view .LVU593
 370:../Middlewares/stm32-vision-models-postprocessing/lib_vision_models_pp/Src/od_pp_yolov2.c ****   int32_t error   = AI_OD_POSTPROCESS_ERROR_NO;
 1797              		.loc 1 370 1 is_stmt 0 view .LVU594
 1798 0004 0E46     		mov	r6, r1
ARM GAS  /tmp/ccZ8kJT0.s 			page 47


 1799 0006 1446     		mov	r4, r2
 1800              		.loc 1 374 6 view .LVU595
 1801 0008 2DB9     		cbnz	r5, .L95
 375:../Middlewares/stm32-vision-models-postprocessing/lib_vision_models_pp/Src/od_pp_yolov2.c ****       if (((AI_YOLOV2_PP_CLASSPROB + pInput_static_param->nb_classes) * sizeof(int8_t)) > sizeof(od
 1802              		.loc 1 375 7 is_stmt 1 view .LVU596
 1803              		.loc 1 375 36 is_stmt 0 view .LVU597
 1804 000a 1368     		ldr	r3, [r2]
 1805 000c 0533     		adds	r3, r3, #5
 1806              		.loc 1 375 10 view .LVU598
 1807 000e 182B     		cmp	r3, #24
 1808 0010 10D9     		bls	.L98
 376:../Middlewares/stm32-vision-models-postprocessing/lib_vision_models_pp/Src/od_pp_yolov2.c ****         pScratchBuff = pInput->pRaw_detections;
 1809              		.loc 1 376 9 is_stmt 1 view .LVU599
 1810              		.loc 1 376 22 is_stmt 0 view .LVU600
 1811 0012 0568     		ldr	r5, [r0]
 1812              	.LVL168:
 377:../Middlewares/stm32-vision-models-postprocessing/lib_vision_models_pp/Src/od_pp_yolov2.c ****       }
 378:../Middlewares/stm32-vision-models-postprocessing/lib_vision_models_pp/Src/od_pp_yolov2.c ****     if (NULL == pScratchBuff) {
 1813              		.loc 1 378 5 is_stmt 1 view .LVU601
 1814              		.loc 1 378 8 is_stmt 0 view .LVU602
 1815 0014 75B1     		cbz	r5, .L98
 1816              	.L95:
 379:../Middlewares/stm32-vision-models-postprocessing/lib_vision_models_pp/Src/od_pp_yolov2.c ****       return AI_OD_POSTPROCESS_ERROR;
 380:../Middlewares/stm32-vision-models-postprocessing/lib_vision_models_pp/Src/od_pp_yolov2.c ****     }
 381:../Middlewares/stm32-vision-models-postprocessing/lib_vision_models_pp/Src/od_pp_yolov2.c ****   }
 382:../Middlewares/stm32-vision-models-postprocessing/lib_vision_models_pp/Src/od_pp_yolov2.c **** 
 383:../Middlewares/stm32-vision-models-postprocessing/lib_vision_models_pp/Src/od_pp_yolov2.c ****   /* Call Get NN boxes first */
 384:../Middlewares/stm32-vision-models-postprocessing/lib_vision_models_pp/Src/od_pp_yolov2.c ****   error = yolov2_pp_getNNBoxes_centroid_int8(pInput,
 1817              		.loc 1 384 3 is_stmt 1 view .LVU603
 1818              		.loc 1 384 11 is_stmt 0 view .LVU604
 1819 0016 2246     		mov	r2, r4
 1820              	.LVL169:
 1821              		.loc 1 384 11 view .LVU605
 1822 0018 2946     		mov	r1, r5
 1823              	.LVL170:
 1824              		.loc 1 384 11 view .LVU606
 1825 001a FFF7FEFF 		bl	yolov2_pp_getNNBoxes_centroid_int8
 1826              	.LVL171:
 385:../Middlewares/stm32-vision-models-postprocessing/lib_vision_models_pp/Src/od_pp_yolov2.c ****                                              pScratchBuff,
 386:../Middlewares/stm32-vision-models-postprocessing/lib_vision_models_pp/Src/od_pp_yolov2.c ****                                              pInput_static_param);
 387:../Middlewares/stm32-vision-models-postprocessing/lib_vision_models_pp/Src/od_pp_yolov2.c ****   if (error != AI_OD_POSTPROCESS_ERROR_NO) return (error);
 1827              		.loc 1 387 3 is_stmt 1 view .LVU607
 388:../Middlewares/stm32-vision-models-postprocessing/lib_vision_models_pp/Src/od_pp_yolov2.c **** 
 389:../Middlewares/stm32-vision-models-postprocessing/lib_vision_models_pp/Src/od_pp_yolov2.c ****   /* Then NMS */
 390:../Middlewares/stm32-vision-models-postprocessing/lib_vision_models_pp/Src/od_pp_yolov2.c ****   error = yolov2_pp_nmsFiltering_centroid(pScratchBuff,
 1828              		.loc 1 390 3 view .LVU608
 1829              		.loc 1 390 11 is_stmt 0 view .LVU609
 1830 001e 2146     		mov	r1, r4
 1831 0020 2846     		mov	r0, r5
 1832 0022 FFF7FEFF 		bl	yolov2_pp_nmsFiltering_centroid
 1833              	.LVL172:
 391:../Middlewares/stm32-vision-models-postprocessing/lib_vision_models_pp/Src/od_pp_yolov2.c ****                                           pInput_static_param);
 392:../Middlewares/stm32-vision-models-postprocessing/lib_vision_models_pp/Src/od_pp_yolov2.c ****   if (error != AI_OD_POSTPROCESS_ERROR_NO) return (error);
 1834              		.loc 1 392 3 is_stmt 1 view .LVU610
 393:../Middlewares/stm32-vision-models-postprocessing/lib_vision_models_pp/Src/od_pp_yolov2.c **** 
 394:../Middlewares/stm32-vision-models-postprocessing/lib_vision_models_pp/Src/od_pp_yolov2.c ****   /* And score re-filtering */
 395:../Middlewares/stm32-vision-models-postprocessing/lib_vision_models_pp/Src/od_pp_yolov2.c ****   error = yolov2_pp_scoreFiltering_centroid(pScratchBuff,
ARM GAS  /tmp/ccZ8kJT0.s 			page 48


 1835              		.loc 1 395 3 view .LVU611
 1836              		.loc 1 395 11 is_stmt 0 view .LVU612
 1837 0026 2246     		mov	r2, r4
 1838 0028 3146     		mov	r1, r6
 1839 002a 2846     		mov	r0, r5
 1840 002c FFF7FEFF 		bl	yolov2_pp_scoreFiltering_centroid
 1841              	.LVL173:
 396:../Middlewares/stm32-vision-models-postprocessing/lib_vision_models_pp/Src/od_pp_yolov2.c ****                                             pOutput,
 397:../Middlewares/stm32-vision-models-postprocessing/lib_vision_models_pp/Src/od_pp_yolov2.c ****                                             pInput_static_param);
 398:../Middlewares/stm32-vision-models-postprocessing/lib_vision_models_pp/Src/od_pp_yolov2.c **** 
 399:../Middlewares/stm32-vision-models-postprocessing/lib_vision_models_pp/Src/od_pp_yolov2.c ****   return (error);
 1842              		.loc 1 399 3 is_stmt 1 view .LVU613
 1843              		.loc 1 399 10 is_stmt 0 view .LVU614
 1844 0030 0020     		movs	r0, #0
 1845              	.LVL174:
 1846              	.L94:
 400:../Middlewares/stm32-vision-models-postprocessing/lib_vision_models_pp/Src/od_pp_yolov2.c **** }
 1847              		.loc 1 400 1 view .LVU615
 1848 0032 70BD     		pop	{r4, r5, r6, pc}
 1849              	.LVL175:
 1850              	.L98:
 379:../Middlewares/stm32-vision-models-postprocessing/lib_vision_models_pp/Src/od_pp_yolov2.c ****     }
 1851              		.loc 1 379 14 view .LVU616
 1852 0034 6FF00100 		mvn	r0, #1
 1853              	.LVL176:
 379:../Middlewares/stm32-vision-models-postprocessing/lib_vision_models_pp/Src/od_pp_yolov2.c ****     }
 1854              		.loc 1 379 14 view .LVU617
 1855 0038 FBE7     		b	.L94
 1856              		.cfi_endproc
 1857              	.LFE781:
 1859              		.section	.bss.AI_YOLOV2_PP_SORT_CLASS,"aw",%nobits
 1860              		.align	2
 1863              	AI_YOLOV2_PP_SORT_CLASS:
 1864 0000 00000000 		.space	4
 1865              		.text
 1866              	.Letext0:
 1867              		.file 2 "/opt/st/stm32cubeclt_1.21.0/GNU-tools-for-STM32/arm-none-eabi/include/machine/_default_ty
 1868              		.file 3 "/opt/st/stm32cubeclt_1.21.0/GNU-tools-for-STM32/arm-none-eabi/include/sys/_stdint.h"
 1869              		.file 4 "/opt/st/stm32cubeclt_1.21.0/GNU-tools-for-STM32/lib/gcc/arm-none-eabi/14.3.1/include/stdd
 1870              		.file 5 "/opt/st/stm32cubeclt_1.21.0/GNU-tools-for-STM32/lib/gcc/arm-none-eabi/14.3.1/include/arm_
 1871              		.file 6 "../Middlewares/stm32-vision-models-postprocessing/lib_vision_models_pp/Inc/od_pp_output_i
 1872              		.file 7 "../Middlewares/stm32-vision-models-postprocessing/lib_vision_models_pp/Inc/od_yolov2_pp_i
 1873              		.file 8 "../Middlewares/stm32-vision-models-postprocessing/lib_vision_models_pp/Src/vision_models_
 1874              		.file 9 "/opt/st/stm32cubeclt_1.21.0/GNU-tools-for-STM32/arm-none-eabi/include/math.h"
 1875              		.file 10 "/opt/st/stm32cubeclt_1.21.0/GNU-tools-for-STM32/arm-none-eabi/include/string.h"
ARM GAS  /tmp/ccZ8kJT0.s 			page 49

