ARM GAS  /tmp/ccOerkoe.s 			page 1


   1              		.arch armv8.1-m.main
   2              		.fpu fpv5-d16
   3              		.arch_extension dsp
   4              		.arch_extension fp
   5              		.arch_extension fp.dp
   6              		.arch_extension mve
   7              		.arch_extension mve.fp
   8              		.eabi_attribute 5, "cortex-m55"
   9              		.eabi_attribute 28, 1
  10              		.eabi_attribute 20, 1
  11              		.eabi_attribute 21, 1
  12              		.eabi_attribute 23, 3
  13              		.eabi_attribute 24, 1
  14              		.eabi_attribute 25, 1
  15              		.eabi_attribute 26, 1
  16              		.eabi_attribute 30, 4
  17              		.eabi_attribute 34, 1
  18              		.eabi_attribute 38, 1
  19              		.eabi_attribute 18, 4
  20              		.file	"od_pp_yolov5.c"
  21              		.text
  22              	.Ltext0:
  23              		.cfi_sections	.debug_frame
  24              		.file 1 "../Middlewares/stm32-vision-models-postprocessing/lib_vision_models_pp/Src/od_pp_yolov5.c
  25              		.section	.text.yolov5_nms_comparator,"ax",%progbits
  26              		.align	1
  27              		.global	yolov5_nms_comparator
  28              		.syntax unified
  29              		.thumb
  30              		.thumb_func
  32              	yolov5_nms_comparator:
  33              	.LVL0:
  34              	.LFB774:
   1:../Middlewares/stm32-vision-models-postprocessing/lib_vision_models_pp/Src/od_pp_yolov5.c **** /*---------------------------------------------------------------------------------------------
   2:../Middlewares/stm32-vision-models-postprocessing/lib_vision_models_pp/Src/od_pp_yolov5.c **** #  * Copyright (c) 2023 STMicroelectronics.
   3:../Middlewares/stm32-vision-models-postprocessing/lib_vision_models_pp/Src/od_pp_yolov5.c **** #  * All rights reserved.
   4:../Middlewares/stm32-vision-models-postprocessing/lib_vision_models_pp/Src/od_pp_yolov5.c **** #  *
   5:../Middlewares/stm32-vision-models-postprocessing/lib_vision_models_pp/Src/od_pp_yolov5.c **** #  * This software is licensed under terms that can be found in the LICENSE file in
   6:../Middlewares/stm32-vision-models-postprocessing/lib_vision_models_pp/Src/od_pp_yolov5.c **** #  * the root directory of this software component.
   7:../Middlewares/stm32-vision-models-postprocessing/lib_vision_models_pp/Src/od_pp_yolov5.c **** #  * If no LICENSE file comes with this software, it is provided AS-IS.
   8:../Middlewares/stm32-vision-models-postprocessing/lib_vision_models_pp/Src/od_pp_yolov5.c **** #  *--------------------------------------------------------------------------------------------*/
   9:../Middlewares/stm32-vision-models-postprocessing/lib_vision_models_pp/Src/od_pp_yolov5.c **** 
  10:../Middlewares/stm32-vision-models-postprocessing/lib_vision_models_pp/Src/od_pp_yolov5.c **** #include "od_pp_loc.h"
  11:../Middlewares/stm32-vision-models-postprocessing/lib_vision_models_pp/Src/od_pp_yolov5.c **** #include "od_yolov5_pp_if.h"
  12:../Middlewares/stm32-vision-models-postprocessing/lib_vision_models_pp/Src/od_pp_yolov5.c **** #include "vision_models_pp.h"
  13:../Middlewares/stm32-vision-models-postprocessing/lib_vision_models_pp/Src/od_pp_yolov5.c **** 
  14:../Middlewares/stm32-vision-models-postprocessing/lib_vision_models_pp/Src/od_pp_yolov5.c **** 
  15:../Middlewares/stm32-vision-models-postprocessing/lib_vision_models_pp/Src/od_pp_yolov5.c **** /* Can't be removed if qsort is not re-written... */
  16:../Middlewares/stm32-vision-models-postprocessing/lib_vision_models_pp/Src/od_pp_yolov5.c **** static int32_t AI_YOLOV5_PP_SORT_CLASS;
  17:../Middlewares/stm32-vision-models-postprocessing/lib_vision_models_pp/Src/od_pp_yolov5.c **** 
  18:../Middlewares/stm32-vision-models-postprocessing/lib_vision_models_pp/Src/od_pp_yolov5.c **** 
  19:../Middlewares/stm32-vision-models-postprocessing/lib_vision_models_pp/Src/od_pp_yolov5.c **** int32_t yolov5_nms_comparator(const void *pa, const void *pb)
  20:../Middlewares/stm32-vision-models-postprocessing/lib_vision_models_pp/Src/od_pp_yolov5.c **** {
  35              		.loc 1 20 1 view -0
  36              		.cfi_startproc
  37              		@ args = 0, pretend = 0, frame = 0
  38              		@ frame_needed = 0, uses_anonymous_args = 0
ARM GAS  /tmp/ccOerkoe.s 			page 2


  21:../Middlewares/stm32-vision-models-postprocessing/lib_vision_models_pp/Src/od_pp_yolov5.c ****   od_pp_outBuffer_t a = *(od_pp_outBuffer_t *)pa;
  39              		.loc 1 21 3 view .LVU1
  22:../Middlewares/stm32-vision-models-postprocessing/lib_vision_models_pp/Src/od_pp_yolov5.c ****   od_pp_outBuffer_t b = *(od_pp_outBuffer_t *)pb;
  40              		.loc 1 22 3 view .LVU2
  23:../Middlewares/stm32-vision-models-postprocessing/lib_vision_models_pp/Src/od_pp_yolov5.c **** 
  24:../Middlewares/stm32-vision-models-postprocessing/lib_vision_models_pp/Src/od_pp_yolov5.c ****   float32_t diff = 0.0;
  25:../Middlewares/stm32-vision-models-postprocessing/lib_vision_models_pp/Src/od_pp_yolov5.c ****   float32_t a_weighted_conf = 0.0;
  26:../Middlewares/stm32-vision-models-postprocessing/lib_vision_models_pp/Src/od_pp_yolov5.c ****   float32_t b_weighted_conf = 0.0;
  27:../Middlewares/stm32-vision-models-postprocessing/lib_vision_models_pp/Src/od_pp_yolov5.c **** 
  28:../Middlewares/stm32-vision-models-postprocessing/lib_vision_models_pp/Src/od_pp_yolov5.c ****   if (a.class_index == AI_YOLOV5_PP_SORT_CLASS)
  41              		.loc 1 28 21 is_stmt 0 view .LVU3
  42 0000 0F4B     		ldr	r3, .L8
  20:../Middlewares/stm32-vision-models-postprocessing/lib_vision_models_pp/Src/od_pp_yolov5.c ****   od_pp_outBuffer_t a = *(od_pp_outBuffer_t *)pa;
  43              		.loc 1 20 1 view .LVU4
  44 0002 10B5     		push	{r4, lr}
  45              		.cfi_def_cfa_offset 8
  46              		.cfi_offset 4, -8
  47              		.cfi_offset 14, -4
  48              		.loc 1 28 21 view .LVU5
  49 0004 1B68     		ldr	r3, [r3]
  50              		.loc 1 28 6 view .LVU6
  51 0006 4469     		ldr	r4, [r0, #20]
  22:../Middlewares/stm32-vision-models-postprocessing/lib_vision_models_pp/Src/od_pp_yolov5.c ****   od_pp_outBuffer_t b = *(od_pp_outBuffer_t *)pb;
  52              		.loc 1 22 21 view .LVU7
  53 0008 4A69     		ldr	r2, [r1, #20]
  54              	.LVL1:
  24:../Middlewares/stm32-vision-models-postprocessing/lib_vision_models_pp/Src/od_pp_yolov5.c ****   float32_t a_weighted_conf = 0.0;
  55              		.loc 1 24 3 is_stmt 1 view .LVU8
  25:../Middlewares/stm32-vision-models-postprocessing/lib_vision_models_pp/Src/od_pp_yolov5.c ****   float32_t b_weighted_conf = 0.0;
  56              		.loc 1 25 3 view .LVU9
  26:../Middlewares/stm32-vision-models-postprocessing/lib_vision_models_pp/Src/od_pp_yolov5.c **** 
  57              		.loc 1 26 3 view .LVU10
  58              		.loc 1 28 3 view .LVU11
  59              		.loc 1 28 6 is_stmt 0 view .LVU12
  60 000a A342     		cmp	r3, r4
  21:../Middlewares/stm32-vision-models-postprocessing/lib_vision_models_pp/Src/od_pp_yolov5.c ****   od_pp_outBuffer_t b = *(od_pp_outBuffer_t *)pb;
  61              		.loc 1 21 21 view .LVU13
  62 000c 0CBF     		ite	eq
  63 000e D0ED047A 		vldreq.32	s15, [r0, #16]
  29:../Middlewares/stm32-vision-models-postprocessing/lib_vision_models_pp/Src/od_pp_yolov5.c ****   {
  30:../Middlewares/stm32-vision-models-postprocessing/lib_vision_models_pp/Src/od_pp_yolov5.c ****     a_weighted_conf = a.conf;
  64              		.loc 1 30 5 is_stmt 1 view .LVU14
  65              	.LVL2:
  31:../Middlewares/stm32-vision-models-postprocessing/lib_vision_models_pp/Src/od_pp_yolov5.c ****   }
  32:../Middlewares/stm32-vision-models-postprocessing/lib_vision_models_pp/Src/od_pp_yolov5.c ****   else
  33:../Middlewares/stm32-vision-models-postprocessing/lib_vision_models_pp/Src/od_pp_yolov5.c ****   {
  34:../Middlewares/stm32-vision-models-postprocessing/lib_vision_models_pp/Src/od_pp_yolov5.c ****     a_weighted_conf = 0.0;
  66              		.loc 1 34 21 is_stmt 0 view .LVU15
  67 0012 DFED0C7A 		vldrne.32	s15, .L8+4
  68              	.LVL3:
  35:../Middlewares/stm32-vision-models-postprocessing/lib_vision_models_pp/Src/od_pp_yolov5.c ****   }
  36:../Middlewares/stm32-vision-models-postprocessing/lib_vision_models_pp/Src/od_pp_yolov5.c **** 
  37:../Middlewares/stm32-vision-models-postprocessing/lib_vision_models_pp/Src/od_pp_yolov5.c ****   if (b.class_index == AI_YOLOV5_PP_SORT_CLASS)
  69              		.loc 1 37 3 is_stmt 1 view .LVU16
  70              		.loc 1 37 6 is_stmt 0 view .LVU17
  71 0016 9342     		cmp	r3, r2
  22:../Middlewares/stm32-vision-models-postprocessing/lib_vision_models_pp/Src/od_pp_yolov5.c **** 
ARM GAS  /tmp/ccOerkoe.s 			page 3


  72              		.loc 1 22 21 view .LVU18
  73 0018 0CBF     		ite	eq
  74 001a 91ED047A 		vldreq.32	s14, [r1, #16]
  38:../Middlewares/stm32-vision-models-postprocessing/lib_vision_models_pp/Src/od_pp_yolov5.c ****   {
  39:../Middlewares/stm32-vision-models-postprocessing/lib_vision_models_pp/Src/od_pp_yolov5.c ****     b_weighted_conf = b.conf;
  75              		.loc 1 39 5 is_stmt 1 view .LVU19
  76              	.LVL4:
  40:../Middlewares/stm32-vision-models-postprocessing/lib_vision_models_pp/Src/od_pp_yolov5.c ****   }
  41:../Middlewares/stm32-vision-models-postprocessing/lib_vision_models_pp/Src/od_pp_yolov5.c ****   else
  42:../Middlewares/stm32-vision-models-postprocessing/lib_vision_models_pp/Src/od_pp_yolov5.c ****   {
  43:../Middlewares/stm32-vision-models-postprocessing/lib_vision_models_pp/Src/od_pp_yolov5.c ****     b_weighted_conf = 0.0;
  77              		.loc 1 43 21 is_stmt 0 view .LVU20
  78 001e 9FED097A 		vldrne.32	s14, .L8+4
  79              	.LVL5:
  44:../Middlewares/stm32-vision-models-postprocessing/lib_vision_models_pp/Src/od_pp_yolov5.c ****   }
  45:../Middlewares/stm32-vision-models-postprocessing/lib_vision_models_pp/Src/od_pp_yolov5.c **** 
  46:../Middlewares/stm32-vision-models-postprocessing/lib_vision_models_pp/Src/od_pp_yolov5.c ****   diff = a_weighted_conf - b_weighted_conf;
  80              		.loc 1 46 3 is_stmt 1 view .LVU21
  81              		.loc 1 46 8 is_stmt 0 view .LVU22
  82 0022 77EEC77A 		vsub.f32	s15, s15, s14
  83              	.LVL6:
  47:../Middlewares/stm32-vision-models-postprocessing/lib_vision_models_pp/Src/od_pp_yolov5.c **** 
  48:../Middlewares/stm32-vision-models-postprocessing/lib_vision_models_pp/Src/od_pp_yolov5.c ****   if (diff < 0) return 1;
  84              		.loc 1 48 3 is_stmt 1 view .LVU23
  85              		.loc 1 48 6 is_stmt 0 view .LVU24
  86 0026 F5EEC07A 		vcmpe.f32	s15, #0
  87 002a F1EE10FA 		vmrs	APSR_nzcv, FPSCR
  88 002e 04D4     		bmi	.L7
  89              	.LVL7:
  49:../Middlewares/stm32-vision-models-postprocessing/lib_vision_models_pp/Src/od_pp_yolov5.c ****   else if (diff > 0) return -1;
  90              		.loc 1 49 8 is_stmt 1 view .LVU25
  91              		.loc 1 49 11 is_stmt 0 view .LVU26
  92 0030 CCBF     		ite	gt
  93 0032 4FF0FF30 		movgt	r0, #-1
  94              	.LVL8:
  95              		.loc 1 49 11 view .LVU27
  96 0036 0020     		movle	r0, #0
  97              	.LVL9:
  98              	.L1:
  50:../Middlewares/stm32-vision-models-postprocessing/lib_vision_models_pp/Src/od_pp_yolov5.c ****   return 0;
  51:../Middlewares/stm32-vision-models-postprocessing/lib_vision_models_pp/Src/od_pp_yolov5.c **** }
  99              		.loc 1 51 1 view .LVU28
 100 0038 10BD     		pop	{r4, pc}
 101              	.LVL10:
 102              	.L7:
  48:../Middlewares/stm32-vision-models-postprocessing/lib_vision_models_pp/Src/od_pp_yolov5.c ****   else if (diff > 0) return -1;
 103              		.loc 1 48 24 discriminator 1 view .LVU29
 104 003a 0120     		movs	r0, #1
 105              	.LVL11:
  48:../Middlewares/stm32-vision-models-postprocessing/lib_vision_models_pp/Src/od_pp_yolov5.c ****   else if (diff > 0) return -1;
 106              		.loc 1 48 24 discriminator 1 view .LVU30
 107 003c FCE7     		b	.L1
 108              	.L9:
 109 003e 00BF     		.align	2
 110              	.L8:
 111 0040 00000000 		.word	AI_YOLOV5_PP_SORT_CLASS
 112 0044 00000000 		.word	0
ARM GAS  /tmp/ccOerkoe.s 			page 4


 113              		.cfi_endproc
 114              	.LFE774:
 116              		.section	.text.yolov5_pp_nmsFiltering_centroid,"ax",%progbits
 117              		.align	1
 118              		.global	yolov5_pp_nmsFiltering_centroid
 119              		.syntax unified
 120              		.thumb
 121              		.thumb_func
 123              	yolov5_pp_nmsFiltering_centroid:
 124              	.LVL12:
 125              	.LFB775:
  52:../Middlewares/stm32-vision-models-postprocessing/lib_vision_models_pp/Src/od_pp_yolov5.c **** 
  53:../Middlewares/stm32-vision-models-postprocessing/lib_vision_models_pp/Src/od_pp_yolov5.c **** 
  54:../Middlewares/stm32-vision-models-postprocessing/lib_vision_models_pp/Src/od_pp_yolov5.c **** int32_t yolov5_pp_nmsFiltering_centroid(od_pp_out_t *pOutput,
  55:../Middlewares/stm32-vision-models-postprocessing/lib_vision_models_pp/Src/od_pp_yolov5.c ****                                         od_yolov5_pp_static_param_t *pInput_static_param)
  56:../Middlewares/stm32-vision-models-postprocessing/lib_vision_models_pp/Src/od_pp_yolov5.c **** {
 126              		.loc 1 56 1 is_stmt 1 view -0
 127              		.cfi_startproc
 128              		@ args = 0, pretend = 0, frame = 8
 129              		@ frame_needed = 0, uses_anonymous_args = 0
  57:../Middlewares/stm32-vision-models-postprocessing/lib_vision_models_pp/Src/od_pp_yolov5.c ****   int32_t j, k, limit_counter, detections_per_class;
 130              		.loc 1 57 3 view .LVU32
  58:../Middlewares/stm32-vision-models-postprocessing/lib_vision_models_pp/Src/od_pp_yolov5.c **** 
  59:../Middlewares/stm32-vision-models-postprocessing/lib_vision_models_pp/Src/od_pp_yolov5.c ****   for (k = 0; k < pInput_static_param->nb_classes; ++k)
 131              		.loc 1 59 3 view .LVU33
  56:../Middlewares/stm32-vision-models-postprocessing/lib_vision_models_pp/Src/od_pp_yolov5.c ****   int32_t j, k, limit_counter, detections_per_class;
 132              		.loc 1 56 1 is_stmt 0 view .LVU34
 133 0000 2DE9F74F 		push	{r0, r1, r2, r4, r5, r6, r7, r8, r9, r10, fp, lr}
 134              		.cfi_def_cfa_offset 48
 135              		.cfi_offset 4, -36
 136              		.cfi_offset 5, -32
 137              		.cfi_offset 6, -28
 138              		.cfi_offset 7, -24
 139              		.cfi_offset 8, -20
 140              		.cfi_offset 9, -16
 141              		.cfi_offset 10, -12
 142              		.cfi_offset 11, -8
 143              		.cfi_offset 14, -4
  56:../Middlewares/stm32-vision-models-postprocessing/lib_vision_models_pp/Src/od_pp_yolov5.c ****   int32_t j, k, limit_counter, detections_per_class;
 144              		.loc 1 56 1 view .LVU35
 145 0004 0546     		mov	r5, r0
 146 0006 0E46     		mov	r6, r1
 147              		.loc 1 59 10 view .LVU36
 148 0008 0027     		movs	r7, #0
 149              	.LBB2:
 150              	.LBB3:
 151              	.LBB4:
  60:../Middlewares/stm32-vision-models-postprocessing/lib_vision_models_pp/Src/od_pp_yolov5.c ****   {
  61:../Middlewares/stm32-vision-models-postprocessing/lib_vision_models_pp/Src/od_pp_yolov5.c ****     limit_counter = 0;
  62:../Middlewares/stm32-vision-models-postprocessing/lib_vision_models_pp/Src/od_pp_yolov5.c ****     detections_per_class = 0;
  63:../Middlewares/stm32-vision-models-postprocessing/lib_vision_models_pp/Src/od_pp_yolov5.c ****     AI_YOLOV5_PP_SORT_CLASS = k;
  64:../Middlewares/stm32-vision-models-postprocessing/lib_vision_models_pp/Src/od_pp_yolov5.c **** 
  65:../Middlewares/stm32-vision-models-postprocessing/lib_vision_models_pp/Src/od_pp_yolov5.c **** 
  66:../Middlewares/stm32-vision-models-postprocessing/lib_vision_models_pp/Src/od_pp_yolov5.c ****     /* Counts the number of detections with class k */
  67:../Middlewares/stm32-vision-models-postprocessing/lib_vision_models_pp/Src/od_pp_yolov5.c ****     for (int32_t i = 0; i < pInput_static_param->nb_detect ; i ++)
  68:../Middlewares/stm32-vision-models-postprocessing/lib_vision_models_pp/Src/od_pp_yolov5.c ****     {
  69:../Middlewares/stm32-vision-models-postprocessing/lib_vision_models_pp/Src/od_pp_yolov5.c ****       if(pOutput->pOutBuff[i].class_index == k)
ARM GAS  /tmp/ccOerkoe.s 			page 5


  70:../Middlewares/stm32-vision-models-postprocessing/lib_vision_models_pp/Src/od_pp_yolov5.c ****       {
  71:../Middlewares/stm32-vision-models-postprocessing/lib_vision_models_pp/Src/od_pp_yolov5.c ****         detections_per_class++;
  72:../Middlewares/stm32-vision-models-postprocessing/lib_vision_models_pp/Src/od_pp_yolov5.c ****       }
  73:../Middlewares/stm32-vision-models-postprocessing/lib_vision_models_pp/Src/od_pp_yolov5.c ****     }
  74:../Middlewares/stm32-vision-models-postprocessing/lib_vision_models_pp/Src/od_pp_yolov5.c **** 
  75:../Middlewares/stm32-vision-models-postprocessing/lib_vision_models_pp/Src/od_pp_yolov5.c ****     if (detections_per_class > 0)
  76:../Middlewares/stm32-vision-models-postprocessing/lib_vision_models_pp/Src/od_pp_yolov5.c ****     {
  77:../Middlewares/stm32-vision-models-postprocessing/lib_vision_models_pp/Src/od_pp_yolov5.c ****       /* Sorts detections based on class k */
  78:../Middlewares/stm32-vision-models-postprocessing/lib_vision_models_pp/Src/od_pp_yolov5.c ****       qsort(pOutput->pOutBuff,
  79:../Middlewares/stm32-vision-models-postprocessing/lib_vision_models_pp/Src/od_pp_yolov5.c ****             pInput_static_param->nb_detect,
  80:../Middlewares/stm32-vision-models-postprocessing/lib_vision_models_pp/Src/od_pp_yolov5.c ****             sizeof(od_pp_outBuffer_t),
  81:../Middlewares/stm32-vision-models-postprocessing/lib_vision_models_pp/Src/od_pp_yolov5.c ****             yolov5_nms_comparator);
  82:../Middlewares/stm32-vision-models-postprocessing/lib_vision_models_pp/Src/od_pp_yolov5.c **** 
  83:../Middlewares/stm32-vision-models-postprocessing/lib_vision_models_pp/Src/od_pp_yolov5.c ****       for (int32_t i = 0; i < detections_per_class ; i ++)
  84:../Middlewares/stm32-vision-models-postprocessing/lib_vision_models_pp/Src/od_pp_yolov5.c ****       {
  85:../Middlewares/stm32-vision-models-postprocessing/lib_vision_models_pp/Src/od_pp_yolov5.c ****         if (pOutput->pOutBuff[i].conf == 0) continue;
  86:../Middlewares/stm32-vision-models-postprocessing/lib_vision_models_pp/Src/od_pp_yolov5.c ****         float32_t *a = &(pOutput->pOutBuff[i].x_center);
  87:../Middlewares/stm32-vision-models-postprocessing/lib_vision_models_pp/Src/od_pp_yolov5.c ****         for (j = i + 1; j < detections_per_class; j ++)
  88:../Middlewares/stm32-vision-models-postprocessing/lib_vision_models_pp/Src/od_pp_yolov5.c ****         {
  89:../Middlewares/stm32-vision-models-postprocessing/lib_vision_models_pp/Src/od_pp_yolov5.c ****           if (pOutput->pOutBuff[j].conf == 0) continue;
 152              		.loc 1 89 14 view .LVU37
 153 000a 4FF00009 		mov	r9, #0
 154              	.LVL13:
 155              	.L11:
 156              		.loc 1 89 14 view .LVU38
 157              	.LBE4:
 158              	.LBE3:
 159              	.LBE2:
  59:../Middlewares/stm32-vision-models-postprocessing/lib_vision_models_pp/Src/od_pp_yolov5.c ****   {
 160              		.loc 1 59 17 is_stmt 1 discriminator 1 view .LVU39
 161 000e 3368     		ldr	r3, [r6]
 162 0010 BB42     		cmp	r3, r7
 163 0012 03DC     		bgt	.L30
  90:../Middlewares/stm32-vision-models-postprocessing/lib_vision_models_pp/Src/od_pp_yolov5.c ****           float32_t *b = &(pOutput->pOutBuff[j].x_center);
  91:../Middlewares/stm32-vision-models-postprocessing/lib_vision_models_pp/Src/od_pp_yolov5.c ****           if (vision_models_box_iou(a, b) > pInput_static_param->iou_threshold)
  92:../Middlewares/stm32-vision-models-postprocessing/lib_vision_models_pp/Src/od_pp_yolov5.c ****           {
  93:../Middlewares/stm32-vision-models-postprocessing/lib_vision_models_pp/Src/od_pp_yolov5.c ****             pOutput->pOutBuff[j].conf = 0;
  94:../Middlewares/stm32-vision-models-postprocessing/lib_vision_models_pp/Src/od_pp_yolov5.c ****           }
  95:../Middlewares/stm32-vision-models-postprocessing/lib_vision_models_pp/Src/od_pp_yolov5.c ****         }
  96:../Middlewares/stm32-vision-models-postprocessing/lib_vision_models_pp/Src/od_pp_yolov5.c ****       }
  97:../Middlewares/stm32-vision-models-postprocessing/lib_vision_models_pp/Src/od_pp_yolov5.c **** 
  98:../Middlewares/stm32-vision-models-postprocessing/lib_vision_models_pp/Src/od_pp_yolov5.c ****       /* Limits detections count */
  99:../Middlewares/stm32-vision-models-postprocessing/lib_vision_models_pp/Src/od_pp_yolov5.c ****       for (int32_t i = 0; i < detections_per_class; i++)
 100:../Middlewares/stm32-vision-models-postprocessing/lib_vision_models_pp/Src/od_pp_yolov5.c ****       {
 101:../Middlewares/stm32-vision-models-postprocessing/lib_vision_models_pp/Src/od_pp_yolov5.c ****         if ((limit_counter < pInput_static_param->max_boxes_limit) &&
 102:../Middlewares/stm32-vision-models-postprocessing/lib_vision_models_pp/Src/od_pp_yolov5.c ****             (pOutput->pOutBuff[i].conf != 0))
 103:../Middlewares/stm32-vision-models-postprocessing/lib_vision_models_pp/Src/od_pp_yolov5.c ****         {
 104:../Middlewares/stm32-vision-models-postprocessing/lib_vision_models_pp/Src/od_pp_yolov5.c ****           limit_counter++;
 105:../Middlewares/stm32-vision-models-postprocessing/lib_vision_models_pp/Src/od_pp_yolov5.c ****         }
 106:../Middlewares/stm32-vision-models-postprocessing/lib_vision_models_pp/Src/od_pp_yolov5.c ****         else
 107:../Middlewares/stm32-vision-models-postprocessing/lib_vision_models_pp/Src/od_pp_yolov5.c ****         {
 108:../Middlewares/stm32-vision-models-postprocessing/lib_vision_models_pp/Src/od_pp_yolov5.c ****           pOutput->pOutBuff[i].conf = 0;
 109:../Middlewares/stm32-vision-models-postprocessing/lib_vision_models_pp/Src/od_pp_yolov5.c ****         }
 110:../Middlewares/stm32-vision-models-postprocessing/lib_vision_models_pp/Src/od_pp_yolov5.c ****       }
 111:../Middlewares/stm32-vision-models-postprocessing/lib_vision_models_pp/Src/od_pp_yolov5.c ****     } // if detections_per_class
 112:../Middlewares/stm32-vision-models-postprocessing/lib_vision_models_pp/Src/od_pp_yolov5.c ****   } // for nb_classes
 113:../Middlewares/stm32-vision-models-postprocessing/lib_vision_models_pp/Src/od_pp_yolov5.c ****   return (AI_OD_POSTPROCESS_ERROR_NO);
ARM GAS  /tmp/ccOerkoe.s 			page 6


 164              		.loc 1 113 3 view .LVU40
 114:../Middlewares/stm32-vision-models-postprocessing/lib_vision_models_pp/Src/od_pp_yolov5.c **** }
 165              		.loc 1 114 1 is_stmt 0 view .LVU41
 166 0014 0020     		movs	r0, #0
 167 0016 03B0     		add	sp, sp, #12
 168              		.cfi_remember_state
 169              		.cfi_def_cfa_offset 36
 170              		@ sp needed
 171 0018 BDE8F08F 		pop	{r4, r5, r6, r7, r8, r9, r10, fp, pc}
 172              	.LVL14:
 173              	.L30:
 174              		.cfi_restore_state
  61:../Middlewares/stm32-vision-models-postprocessing/lib_vision_models_pp/Src/od_pp_yolov5.c ****     detections_per_class = 0;
 175              		.loc 1 61 5 is_stmt 1 view .LVU42
  62:../Middlewares/stm32-vision-models-postprocessing/lib_vision_models_pp/Src/od_pp_yolov5.c ****     AI_YOLOV5_PP_SORT_CLASS = k;
 176              		.loc 1 62 5 view .LVU43
  63:../Middlewares/stm32-vision-models-postprocessing/lib_vision_models_pp/Src/od_pp_yolov5.c **** 
 177              		.loc 1 63 5 view .LVU44
 178              	.LBB8:
  67:../Middlewares/stm32-vision-models-postprocessing/lib_vision_models_pp/Src/od_pp_yolov5.c ****     {
 179              		.loc 1 67 18 is_stmt 0 view .LVU45
 180 001c 0022     		movs	r2, #0
  67:../Middlewares/stm32-vision-models-postprocessing/lib_vision_models_pp/Src/od_pp_yolov5.c ****     {
 181              		.loc 1 67 48 discriminator 1 view .LVU46
 182 001e F169     		ldr	r1, [r6, #28]
 183              	.LBE8:
  63:../Middlewares/stm32-vision-models-postprocessing/lib_vision_models_pp/Src/od_pp_yolov5.c **** 
 184              		.loc 1 63 29 view .LVU47
 185 0020 354B     		ldr	r3, .L36
 186 0022 9142     		cmp	r1, r2
 187 0024 1F60     		str	r7, [r3]
  67:../Middlewares/stm32-vision-models-postprocessing/lib_vision_models_pp/Src/od_pp_yolov5.c ****     {
 188              		.loc 1 67 5 is_stmt 1 view .LVU48
 189              	.LBB9:
  67:../Middlewares/stm32-vision-models-postprocessing/lib_vision_models_pp/Src/od_pp_yolov5.c ****     {
 190              		.loc 1 67 10 view .LVU49
 191              	.LVL15:
  67:../Middlewares/stm32-vision-models-postprocessing/lib_vision_models_pp/Src/od_pp_yolov5.c ****     {
 192              		.loc 1 67 10 is_stmt 0 view .LVU50
 193              	.LBE9:
  62:../Middlewares/stm32-vision-models-postprocessing/lib_vision_models_pp/Src/od_pp_yolov5.c ****     AI_YOLOV5_PP_SORT_CLASS = k;
 194              		.loc 1 62 26 view .LVU51
 195 0026 1446     		mov	r4, r2
 196              	.LBB10:
  69:../Middlewares/stm32-vision-models-postprocessing/lib_vision_models_pp/Src/od_pp_yolov5.c ****       {
 197              		.loc 1 69 30 view .LVU52
 198 0028 01F10103 		add	r3, r1, #1
 199 002c 4FF0180C 		mov	ip, #24
 200 0030 B8BF     		it	lt
 201 0032 0123     		movlt	r3, #1
 202              	.LVL16:
 203              	.L12:
  67:../Middlewares/stm32-vision-models-postprocessing/lib_vision_models_pp/Src/od_pp_yolov5.c ****     {
 204              		.loc 1 67 27 is_stmt 1 discriminator 1 view .LVU53
 205 0034 013B     		subs	r3, r3, #1
 206 0036 02D1     		bne	.L14
 207              	.LBE10:
ARM GAS  /tmp/ccOerkoe.s 			page 7


  75:../Middlewares/stm32-vision-models-postprocessing/lib_vision_models_pp/Src/od_pp_yolov5.c ****     {
 208              		.loc 1 75 5 view .LVU54
  75:../Middlewares/stm32-vision-models-postprocessing/lib_vision_models_pp/Src/od_pp_yolov5.c ****     {
 209              		.loc 1 75 8 is_stmt 0 view .LVU55
 210 0038 54B9     		cbnz	r4, .L15
 211              	.LVL17:
 212              	.L29:
  59:../Middlewares/stm32-vision-models-postprocessing/lib_vision_models_pp/Src/od_pp_yolov5.c ****   {
 213              		.loc 1 59 52 is_stmt 1 discriminator 2 view .LVU56
 214 003a 0137     		adds	r7, r7, #1
 215              	.LVL18:
  59:../Middlewares/stm32-vision-models-postprocessing/lib_vision_models_pp/Src/od_pp_yolov5.c ****   {
 216              		.loc 1 59 52 is_stmt 0 discriminator 2 view .LVU57
 217 003c E7E7     		b	.L11
 218              	.LVL19:
 219              	.L14:
 220              	.LBB11:
  69:../Middlewares/stm32-vision-models-postprocessing/lib_vision_models_pp/Src/od_pp_yolov5.c ****       {
 221              		.loc 1 69 7 is_stmt 1 view .LVU58
  69:../Middlewares/stm32-vision-models-postprocessing/lib_vision_models_pp/Src/od_pp_yolov5.c ****       {
 222              		.loc 1 69 30 is_stmt 0 view .LVU59
 223 003e 2868     		ldr	r0, [r5]
 224 0040 0CFB0200 		mla	r0, ip, r2, r0
  69:../Middlewares/stm32-vision-models-postprocessing/lib_vision_models_pp/Src/od_pp_yolov5.c ****       {
 225              		.loc 1 69 9 view .LVU60
 226 0044 4069     		ldr	r0, [r0, #20]
  67:../Middlewares/stm32-vision-models-postprocessing/lib_vision_models_pp/Src/od_pp_yolov5.c ****     {
 227              		.loc 1 67 64 discriminator 2 view .LVU61
 228 0046 0132     		adds	r2, r2, #1
 229              	.LVL20:
  71:../Middlewares/stm32-vision-models-postprocessing/lib_vision_models_pp/Src/od_pp_yolov5.c ****       }
 230              		.loc 1 71 29 view .LVU62
 231 0048 B842     		cmp	r0, r7
 232 004a 54EA1494 		cinc	r4, r4, eq
 233              	.LVL21:
  67:../Middlewares/stm32-vision-models-postprocessing/lib_vision_models_pp/Src/od_pp_yolov5.c ****     {
 234              		.loc 1 67 64 is_stmt 1 discriminator 2 view .LVU63
 235 004e F1E7     		b	.L12
 236              	.LVL22:
 237              	.L15:
  67:../Middlewares/stm32-vision-models-postprocessing/lib_vision_models_pp/Src/od_pp_yolov5.c ****     {
 238              		.loc 1 67 64 is_stmt 0 discriminator 2 view .LVU64
 239              	.LBE11:
  78:../Middlewares/stm32-vision-models-postprocessing/lib_vision_models_pp/Src/od_pp_yolov5.c ****             pInput_static_param->nb_detect,
 240              		.loc 1 78 7 is_stmt 1 view .LVU65
 241 0050 2A4B     		ldr	r3, .L36+4
 242 0052 1822     		movs	r2, #24
 243              	.LVL23:
  78:../Middlewares/stm32-vision-models-postprocessing/lib_vision_models_pp/Src/od_pp_yolov5.c ****             pInput_static_param->nb_detect,
 244              		.loc 1 78 7 is_stmt 0 view .LVU66
 245 0054 2868     		ldr	r0, [r5]
 246 0056 FFF7FEFF 		bl	qsort
 247              	.LVL24:
  83:../Middlewares/stm32-vision-models-postprocessing/lib_vision_models_pp/Src/od_pp_yolov5.c ****       {
 248              		.loc 1 83 7 is_stmt 1 view .LVU67
 249              	.LBB12:
  83:../Middlewares/stm32-vision-models-postprocessing/lib_vision_models_pp/Src/od_pp_yolov5.c ****       {
ARM GAS  /tmp/ccOerkoe.s 			page 8


 250              		.loc 1 83 12 view .LVU68
  83:../Middlewares/stm32-vision-models-postprocessing/lib_vision_models_pp/Src/od_pp_yolov5.c ****       {
 251              		.loc 1 83 29 discriminator 1 view .LVU69
  83:../Middlewares/stm32-vision-models-postprocessing/lib_vision_models_pp/Src/od_pp_yolov5.c ****       {
 252              		.loc 1 83 20 is_stmt 0 view .LVU70
 253 005a 4FF00008 		mov	r8, #0
 254              	.LBB6:
  85:../Middlewares/stm32-vision-models-postprocessing/lib_vision_models_pp/Src/od_pp_yolov5.c ****         float32_t *a = &(pOutput->pOutBuff[i].x_center);
 255              		.loc 1 85 30 view .LVU71
 256 005e 1823     		movs	r3, #24
 257              	.LVL25:
 258              	.L17:
  85:../Middlewares/stm32-vision-models-postprocessing/lib_vision_models_pp/Src/od_pp_yolov5.c ****         float32_t *a = &(pOutput->pOutBuff[i].x_center);
 259              		.loc 1 85 9 is_stmt 1 view .LVU72
  85:../Middlewares/stm32-vision-models-postprocessing/lib_vision_models_pp/Src/od_pp_yolov5.c ****         float32_t *a = &(pOutput->pOutBuff[i].x_center);
 260              		.loc 1 85 30 is_stmt 0 view .LVU73
 261 0060 2A68     		ldr	r2, [r5]
 262 0062 03FB082B 		mla	fp, r3, r8, r2
  85:../Middlewares/stm32-vision-models-postprocessing/lib_vision_models_pp/Src/od_pp_yolov5.c ****         float32_t *a = &(pOutput->pOutBuff[i].x_center);
 263              		.loc 1 85 12 view .LVU74
 264 0066 DBED047A 		vldr.32	s15, [fp, #16]
 265 006a F5EE407A 		vcmp.f32	s15, #0
 266 006e F1EE10FA 		vmrs	APSR_nzcv, FPSCR
  87:../Middlewares/stm32-vision-models-postprocessing/lib_vision_models_pp/Src/od_pp_yolov5.c ****         {
 267              		.loc 1 87 16 view .LVU75
 268 0072 08F10108 		add	r8, r8, #1
 269              	.LVL26:
  85:../Middlewares/stm32-vision-models-postprocessing/lib_vision_models_pp/Src/od_pp_yolov5.c ****         float32_t *a = &(pOutput->pOutBuff[i].x_center);
 270              		.loc 1 85 12 view .LVU76
 271 0076 19D1     		bne	.L16
 272              	.L25:
 273              	.LBE6:
  83:../Middlewares/stm32-vision-models-postprocessing/lib_vision_models_pp/Src/od_pp_yolov5.c ****       {
 274              		.loc 1 83 56 is_stmt 1 discriminator 2 view .LVU77
 275              	.LVL27:
  83:../Middlewares/stm32-vision-models-postprocessing/lib_vision_models_pp/Src/od_pp_yolov5.c ****       {
 276              		.loc 1 83 29 discriminator 1 view .LVU78
 277 0078 4445     		cmp	r4, r8
 278 007a F1D1     		bne	.L17
 279              	.LBE12:
 280              	.LBB13:
  99:../Middlewares/stm32-vision-models-postprocessing/lib_vision_models_pp/Src/od_pp_yolov5.c ****       {
 281              		.loc 1 99 20 is_stmt 0 view .LVU79
 282 007c 0023     		movs	r3, #0
 102:../Middlewares/stm32-vision-models-postprocessing/lib_vision_models_pp/Src/od_pp_yolov5.c ****         {
 283              		.loc 1 102 31 view .LVU80
 284 007e 4FF0180E 		mov	lr, #24
 285              	.LBE13:
  61:../Middlewares/stm32-vision-models-postprocessing/lib_vision_models_pp/Src/od_pp_yolov5.c ****     detections_per_class = 0;
 286              		.loc 1 61 19 view .LVU81
 287 0082 1A46     		mov	r2, r3
 288              	.LBB14:
 101:../Middlewares/stm32-vision-models-postprocessing/lib_vision_models_pp/Src/od_pp_yolov5.c ****             (pOutput->pOutBuff[i].conf != 0))
 289              		.loc 1 101 49 view .LVU82
 290 0084 B068     		ldr	r0, [r6, #8]
 102:../Middlewares/stm32-vision-models-postprocessing/lib_vision_models_pp/Src/od_pp_yolov5.c ****         {
 291              		.loc 1 102 21 view .LVU83
ARM GAS  /tmp/ccOerkoe.s 			page 9


 292 0086 D5F800C0 		ldr	ip, [r5]
 293              	.LVL28:
 294              	.L28:
 101:../Middlewares/stm32-vision-models-postprocessing/lib_vision_models_pp/Src/od_pp_yolov5.c ****             (pOutput->pOutBuff[i].conf != 0))
 295              		.loc 1 101 9 is_stmt 1 view .LVU84
 101:../Middlewares/stm32-vision-models-postprocessing/lib_vision_models_pp/Src/od_pp_yolov5.c ****             (pOutput->pOutBuff[i].conf != 0))
 296              		.loc 1 101 12 is_stmt 0 view .LVU85
 297 008a 9042     		cmp	r0, r2
 102:../Middlewares/stm32-vision-models-postprocessing/lib_vision_models_pp/Src/od_pp_yolov5.c ****         {
 298              		.loc 1 102 31 view .LVU86
 299 008c 0EFB03C1 		mla	r1, lr, r3, ip
 101:../Middlewares/stm32-vision-models-postprocessing/lib_vision_models_pp/Src/od_pp_yolov5.c ****             (pOutput->pOutBuff[i].conf != 0))
 300              		.loc 1 101 12 view .LVU87
 301 0090 2FDD     		ble	.L26
 101:../Middlewares/stm32-vision-models-postprocessing/lib_vision_models_pp/Src/od_pp_yolov5.c ****             (pOutput->pOutBuff[i].conf != 0))
 302              		.loc 1 101 68 discriminator 1 view .LVU88
 303 0092 D1ED047A 		vldr.32	s15, [r1, #16]
 304 0096 F5EE407A 		vcmp.f32	s15, #0
 305 009a F1EE10FA 		vmrs	APSR_nzcv, FPSCR
 306 009e 28D0     		beq	.L26
 104:../Middlewares/stm32-vision-models-postprocessing/lib_vision_models_pp/Src/od_pp_yolov5.c ****         }
 307              		.loc 1 104 11 is_stmt 1 view .LVU89
 104:../Middlewares/stm32-vision-models-postprocessing/lib_vision_models_pp/Src/od_pp_yolov5.c ****         }
 308              		.loc 1 104 24 is_stmt 0 view .LVU90
 309 00a0 0132     		adds	r2, r2, #1
 310              	.LVL29:
 311              	.L27:
  99:../Middlewares/stm32-vision-models-postprocessing/lib_vision_models_pp/Src/od_pp_yolov5.c ****       {
 312              		.loc 1 99 54 is_stmt 1 discriminator 2 view .LVU91
  99:../Middlewares/stm32-vision-models-postprocessing/lib_vision_models_pp/Src/od_pp_yolov5.c ****       {
 313              		.loc 1 99 29 is_stmt 0 discriminator 1 view .LVU92
 314 00a2 013C     		subs	r4, r4, #1
  99:../Middlewares/stm32-vision-models-postprocessing/lib_vision_models_pp/Src/od_pp_yolov5.c ****       {
 315              		.loc 1 99 54 discriminator 2 view .LVU93
 316 00a4 03F10103 		add	r3, r3, #1
 317              	.LVL30:
  99:../Middlewares/stm32-vision-models-postprocessing/lib_vision_models_pp/Src/od_pp_yolov5.c ****       {
 318              		.loc 1 99 29 is_stmt 1 discriminator 1 view .LVU94
 319 00a8 EFD1     		bne	.L28
  99:../Middlewares/stm32-vision-models-postprocessing/lib_vision_models_pp/Src/od_pp_yolov5.c ****       {
 320              		.loc 1 99 29 is_stmt 0 discriminator 1 view .LVU95
 321 00aa C6E7     		b	.L29
 322              	.LVL31:
 323              	.L16:
  99:../Middlewares/stm32-vision-models-postprocessing/lib_vision_models_pp/Src/od_pp_yolov5.c ****       {
 324              		.loc 1 99 29 discriminator 1 view .LVU96
 325              	.LBE14:
 326              	.LBB15:
 327              	.LBB7:
  86:../Middlewares/stm32-vision-models-postprocessing/lib_vision_models_pp/Src/od_pp_yolov5.c ****         for (j = i + 1; j < detections_per_class; j ++)
 328              		.loc 1 86 9 is_stmt 1 view .LVU97
  87:../Middlewares/stm32-vision-models-postprocessing/lib_vision_models_pp/Src/od_pp_yolov5.c ****         {
 329              		.loc 1 87 9 view .LVU98
  87:../Middlewares/stm32-vision-models-postprocessing/lib_vision_models_pp/Src/od_pp_yolov5.c ****         {
 330              		.loc 1 87 16 is_stmt 0 view .LVU99
 331 00ac C246     		mov	r10, r8
 332              	.LVL32:
ARM GAS  /tmp/ccOerkoe.s 			page 10


 333              	.L19:
  87:../Middlewares/stm32-vision-models-postprocessing/lib_vision_models_pp/Src/od_pp_yolov5.c ****         {
 334              		.loc 1 87 27 is_stmt 1 discriminator 1 view .LVU100
 335 00ae A245     		cmp	r10, r4
 336 00b0 E2DA     		bge	.L25
 337              	.LBB5:
  89:../Middlewares/stm32-vision-models-postprocessing/lib_vision_models_pp/Src/od_pp_yolov5.c ****           float32_t *b = &(pOutput->pOutBuff[j].x_center);
 338              		.loc 1 89 11 view .LVU101
 339 00b2 03FB0AF2 		mul	r2, r3, r10
  89:../Middlewares/stm32-vision-models-postprocessing/lib_vision_models_pp/Src/od_pp_yolov5.c ****           float32_t *b = &(pOutput->pOutBuff[j].x_center);
 340              		.loc 1 89 32 is_stmt 0 view .LVU102
 341 00b6 2968     		ldr	r1, [r5]
 342 00b8 0192     		str	r2, [sp, #4]
 343 00ba 1144     		add	r1, r1, r2
  89:../Middlewares/stm32-vision-models-postprocessing/lib_vision_models_pp/Src/od_pp_yolov5.c ****           float32_t *b = &(pOutput->pOutBuff[j].x_center);
 344              		.loc 1 89 14 view .LVU103
 345 00bc D1ED047A 		vldr.32	s15, [r1, #16]
 346 00c0 F5EE407A 		vcmp.f32	s15, #0
 347 00c4 F1EE10FA 		vmrs	APSR_nzcv, FPSCR
 348 00c8 10D0     		beq	.L21
  90:../Middlewares/stm32-vision-models-postprocessing/lib_vision_models_pp/Src/od_pp_yolov5.c ****           if (vision_models_box_iou(a, b) > pInput_static_param->iou_threshold)
 349              		.loc 1 90 11 is_stmt 1 view .LVU104
 350              	.LVL33:
  91:../Middlewares/stm32-vision-models-postprocessing/lib_vision_models_pp/Src/od_pp_yolov5.c ****           {
 351              		.loc 1 91 11 view .LVU105
  91:../Middlewares/stm32-vision-models-postprocessing/lib_vision_models_pp/Src/od_pp_yolov5.c ****           {
 352              		.loc 1 91 15 is_stmt 0 view .LVU106
 353 00ca 5846     		mov	r0, fp
 354 00cc FFF7FEFF 		bl	vision_models_box_iou
 355              	.LVL34:
  91:../Middlewares/stm32-vision-models-postprocessing/lib_vision_models_pp/Src/od_pp_yolov5.c ****           {
 356              		.loc 1 91 14 discriminator 1 view .LVU107
 357 00d0 D6ED047A 		vldr.32	s15, [r6, #16]
 358 00d4 B4EEE70A 		vcmpe.f32	s0, s15
 359 00d8 F1EE10FA 		vmrs	APSR_nzcv, FPSCR
 360 00dc 4FF01803 		mov	r3, #24
  93:../Middlewares/stm32-vision-models-postprocessing/lib_vision_models_pp/Src/od_pp_yolov5.c ****           }
 361              		.loc 1 93 13 is_stmt 1 view .LVU108
  93:../Middlewares/stm32-vision-models-postprocessing/lib_vision_models_pp/Src/od_pp_yolov5.c ****           }
 362              		.loc 1 93 39 is_stmt 0 view .LVU109
 363 00e0 C1BF     		itttt	gt
 364 00e2 2968     		ldrgt	r1, [r5]
 365 00e4 019A     		ldrgt	r2, [sp, #4]
 366 00e6 8918     		addgt	r1, r1, r2
 367 00e8 C1F81090 		strgt	r9, [r1, #16]	@ float
 368              	.LVL35:
 369              	.L21:
  93:../Middlewares/stm32-vision-models-postprocessing/lib_vision_models_pp/Src/od_pp_yolov5.c ****           }
 370              		.loc 1 93 39 view .LVU110
 371              	.LBE5:
  87:../Middlewares/stm32-vision-models-postprocessing/lib_vision_models_pp/Src/od_pp_yolov5.c ****         {
 372              		.loc 1 87 53 is_stmt 1 discriminator 2 view .LVU111
 373 00ec 0AF1010A 		add	r10, r10, #1
 374              	.LVL36:
  87:../Middlewares/stm32-vision-models-postprocessing/lib_vision_models_pp/Src/od_pp_yolov5.c ****         {
 375              		.loc 1 87 53 is_stmt 0 discriminator 2 view .LVU112
 376 00f0 DDE7     		b	.L19
ARM GAS  /tmp/ccOerkoe.s 			page 11


 377              	.LVL37:
 378              	.L26:
  87:../Middlewares/stm32-vision-models-postprocessing/lib_vision_models_pp/Src/od_pp_yolov5.c ****         {
 379              		.loc 1 87 53 discriminator 2 view .LVU113
 380              	.LBE7:
 381              	.LBE15:
 382              	.LBB16:
 108:../Middlewares/stm32-vision-models-postprocessing/lib_vision_models_pp/Src/od_pp_yolov5.c ****         }
 383              		.loc 1 108 11 is_stmt 1 view .LVU114
 108:../Middlewares/stm32-vision-models-postprocessing/lib_vision_models_pp/Src/od_pp_yolov5.c ****         }
 384              		.loc 1 108 37 is_stmt 0 view .LVU115
 385 00f2 C1F81090 		str	r9, [r1, #16]	@ float
 386 00f6 D4E7     		b	.L27
 387              	.L37:
 388              		.align	2
 389              	.L36:
 390 00f8 00000000 		.word	AI_YOLOV5_PP_SORT_CLASS
 391 00fc 00000000 		.word	yolov5_nms_comparator
 392              	.LBE16:
 393              		.cfi_endproc
 394              	.LFE775:
 396              		.section	.text.yolov5_pp_scoreFiltering_centroid,"ax",%progbits
 397              		.align	1
 398              		.global	yolov5_pp_scoreFiltering_centroid
 399              		.syntax unified
 400              		.thumb
 401              		.thumb_func
 403              	yolov5_pp_scoreFiltering_centroid:
 404              	.LVL38:
 405              	.LFB776:
 115:../Middlewares/stm32-vision-models-postprocessing/lib_vision_models_pp/Src/od_pp_yolov5.c **** 
 116:../Middlewares/stm32-vision-models-postprocessing/lib_vision_models_pp/Src/od_pp_yolov5.c **** 
 117:../Middlewares/stm32-vision-models-postprocessing/lib_vision_models_pp/Src/od_pp_yolov5.c **** int32_t yolov5_pp_scoreFiltering_centroid(od_pp_out_t *pOutput,
 118:../Middlewares/stm32-vision-models-postprocessing/lib_vision_models_pp/Src/od_pp_yolov5.c ****                                           od_yolov5_pp_static_param_t *pInput_static_param)
 119:../Middlewares/stm32-vision-models-postprocessing/lib_vision_models_pp/Src/od_pp_yolov5.c **** {
 406              		.loc 1 119 1 is_stmt 1 view -0
 407              		.cfi_startproc
 408              		@ args = 0, pretend = 0, frame = 0
 409              		@ frame_needed = 0, uses_anonymous_args = 0
 120:../Middlewares/stm32-vision-models-postprocessing/lib_vision_models_pp/Src/od_pp_yolov5.c ****   int32_t det_count = 0;
 410              		.loc 1 120 3 view .LVU117
 121:../Middlewares/stm32-vision-models-postprocessing/lib_vision_models_pp/Src/od_pp_yolov5.c **** 
 122:../Middlewares/stm32-vision-models-postprocessing/lib_vision_models_pp/Src/od_pp_yolov5.c ****   for (int32_t i = 0; i < pInput_static_param->nb_detect; i++)
 411              		.loc 1 122 3 view .LVU118
 412              	.LBB17:
 413              		.loc 1 122 8 view .LVU119
 414              		.loc 1 122 8 is_stmt 0 view .LVU120
 415              	.LBE17:
 119:../Middlewares/stm32-vision-models-postprocessing/lib_vision_models_pp/Src/od_pp_yolov5.c ****   int32_t det_count = 0;
 416              		.loc 1 119 1 view .LVU121
 417 0000 F0B5     		push	{r4, r5, r6, r7, lr}
 418              		.cfi_def_cfa_offset 20
 419              		.cfi_offset 4, -20
 420              		.cfi_offset 5, -16
 421              		.cfi_offset 6, -12
 422              		.cfi_offset 7, -8
 423              		.cfi_offset 14, -4
ARM GAS  /tmp/ccOerkoe.s 			page 12


 424              	.LBB18:
 425              		.loc 1 122 16 view .LVU122
 426 0002 0026     		movs	r6, #0
 427              		.loc 1 122 46 discriminator 1 view .LVU123
 428 0004 CB69     		ldr	r3, [r1, #28]
 429              	.LBE18:
 120:../Middlewares/stm32-vision-models-postprocessing/lib_vision_models_pp/Src/od_pp_yolov5.c ****   int32_t det_count = 0;
 430              		.loc 1 120 11 view .LVU124
 431 0006 3546     		mov	r5, r6
 432 0008 B342     		cmp	r3, r6
 433              	.LBB19:
 123:../Middlewares/stm32-vision-models-postprocessing/lib_vision_models_pp/Src/od_pp_yolov5.c ****   {
 124:../Middlewares/stm32-vision-models-postprocessing/lib_vision_models_pp/Src/od_pp_yolov5.c ****     if (pOutput->pOutBuff[i].conf >= pInput_static_param->conf_threshold)
 434              		.loc 1 124 26 view .LVU125
 435 000a 03F10104 		add	r4, r3, #1
 436 000e 4FF01807 		mov	r7, #24
 437 0012 B8BF     		it	lt
 438 0014 0124     		movlt	r4, #1
 439              	.LVL39:
 440              	.L39:
 122:../Middlewares/stm32-vision-models-postprocessing/lib_vision_models_pp/Src/od_pp_yolov5.c ****   {
 441              		.loc 1 122 25 is_stmt 1 discriminator 1 view .LVU126
 442 0016 013C     		subs	r4, r4, #1
 443 0018 02D1     		bne	.L42
 444              	.LBE19:
 125:../Middlewares/stm32-vision-models-postprocessing/lib_vision_models_pp/Src/od_pp_yolov5.c ****     {
 126:../Middlewares/stm32-vision-models-postprocessing/lib_vision_models_pp/Src/od_pp_yolov5.c ****       pOutput->pOutBuff[det_count].x_center    = pOutput->pOutBuff[i].x_center;
 127:../Middlewares/stm32-vision-models-postprocessing/lib_vision_models_pp/Src/od_pp_yolov5.c ****       pOutput->pOutBuff[det_count].y_center    = pOutput->pOutBuff[i].y_center;
 128:../Middlewares/stm32-vision-models-postprocessing/lib_vision_models_pp/Src/od_pp_yolov5.c ****       pOutput->pOutBuff[det_count].width       = pOutput->pOutBuff[i].width;
 129:../Middlewares/stm32-vision-models-postprocessing/lib_vision_models_pp/Src/od_pp_yolov5.c ****       pOutput->pOutBuff[det_count].height      = pOutput->pOutBuff[i].height;
 130:../Middlewares/stm32-vision-models-postprocessing/lib_vision_models_pp/Src/od_pp_yolov5.c ****       pOutput->pOutBuff[det_count].conf        = pOutput->pOutBuff[i].conf;
 131:../Middlewares/stm32-vision-models-postprocessing/lib_vision_models_pp/Src/od_pp_yolov5.c ****       pOutput->pOutBuff[det_count].class_index = pOutput->pOutBuff[i].class_index;
 132:../Middlewares/stm32-vision-models-postprocessing/lib_vision_models_pp/Src/od_pp_yolov5.c ****       det_count++;
 133:../Middlewares/stm32-vision-models-postprocessing/lib_vision_models_pp/Src/od_pp_yolov5.c ****     }
 134:../Middlewares/stm32-vision-models-postprocessing/lib_vision_models_pp/Src/od_pp_yolov5.c ****   }
 135:../Middlewares/stm32-vision-models-postprocessing/lib_vision_models_pp/Src/od_pp_yolov5.c ****   pOutput->nb_detect = det_count;
 445              		.loc 1 135 3 view .LVU127
 446              		.loc 1 135 22 is_stmt 0 view .LVU128
 447 001a 4560     		str	r5, [r0, #4]
 136:../Middlewares/stm32-vision-models-postprocessing/lib_vision_models_pp/Src/od_pp_yolov5.c **** 
 137:../Middlewares/stm32-vision-models-postprocessing/lib_vision_models_pp/Src/od_pp_yolov5.c ****   return (AI_OD_POSTPROCESS_ERROR_NO);
 448              		.loc 1 137 3 is_stmt 1 view .LVU129
 138:../Middlewares/stm32-vision-models-postprocessing/lib_vision_models_pp/Src/od_pp_yolov5.c **** }
 449              		.loc 1 138 1 is_stmt 0 view .LVU130
 450 001c 0020     		movs	r0, #0
 451              	.LVL40:
 452              		.loc 1 138 1 view .LVU131
 453 001e F0BD     		pop	{r4, r5, r6, r7, pc}
 454              	.LVL41:
 455              	.L42:
 456              	.LBB20:
 124:../Middlewares/stm32-vision-models-postprocessing/lib_vision_models_pp/Src/od_pp_yolov5.c ****     {
 457              		.loc 1 124 5 is_stmt 1 view .LVU132
 124:../Middlewares/stm32-vision-models-postprocessing/lib_vision_models_pp/Src/od_pp_yolov5.c ****     {
 458              		.loc 1 124 16 is_stmt 0 view .LVU133
 459 0020 0368     		ldr	r3, [r0]
 124:../Middlewares/stm32-vision-models-postprocessing/lib_vision_models_pp/Src/od_pp_yolov5.c ****     {
ARM GAS  /tmp/ccOerkoe.s 			page 13


 460              		.loc 1 124 8 view .LVU134
 461 0022 91ED037A 		vldr.32	s14, [r1, #12]
 124:../Middlewares/stm32-vision-models-postprocessing/lib_vision_models_pp/Src/od_pp_yolov5.c ****     {
 462              		.loc 1 124 26 view .LVU135
 463 0026 07FB0632 		mla	r2, r7, r6, r3
 124:../Middlewares/stm32-vision-models-postprocessing/lib_vision_models_pp/Src/od_pp_yolov5.c ****     {
 464              		.loc 1 124 29 view .LVU136
 465 002a D2ED047A 		vldr.32	s15, [r2, #16]
 124:../Middlewares/stm32-vision-models-postprocessing/lib_vision_models_pp/Src/od_pp_yolov5.c ****     {
 466              		.loc 1 124 8 view .LVU137
 467 002e F4EEC77A 		vcmpe.f32	s15, s14
 468 0032 F1EE10FA 		vmrs	APSR_nzcv, FPSCR
 469 0036 16DB     		blt	.L40
 126:../Middlewares/stm32-vision-models-postprocessing/lib_vision_models_pp/Src/od_pp_yolov5.c ****       pOutput->pOutBuff[det_count].y_center    = pOutput->pOutBuff[i].y_center;
 470              		.loc 1 126 7 is_stmt 1 view .LVU138
 126:../Middlewares/stm32-vision-models-postprocessing/lib_vision_models_pp/Src/od_pp_yolov5.c ****       pOutput->pOutBuff[det_count].y_center    = pOutput->pOutBuff[i].y_center;
 471              		.loc 1 126 24 is_stmt 0 view .LVU139
 472 0038 07FB0533 		mla	r3, r7, r5, r3
 126:../Middlewares/stm32-vision-models-postprocessing/lib_vision_models_pp/Src/od_pp_yolov5.c ****       pOutput->pOutBuff[det_count].y_center    = pOutput->pOutBuff[i].y_center;
 473              		.loc 1 126 70 view .LVU140
 474 003c D2F800C0 		ldr	ip, [r2]	@ float
 132:../Middlewares/stm32-vision-models-postprocessing/lib_vision_models_pp/Src/od_pp_yolov5.c ****     }
 475              		.loc 1 132 16 view .LVU141
 476 0040 0135     		adds	r5, r5, #1
 477              	.LVL42:
 126:../Middlewares/stm32-vision-models-postprocessing/lib_vision_models_pp/Src/od_pp_yolov5.c ****       pOutput->pOutBuff[det_count].y_center    = pOutput->pOutBuff[i].y_center;
 478              		.loc 1 126 48 view .LVU142
 479 0042 C3F800C0 		str	ip, [r3]	@ float
 127:../Middlewares/stm32-vision-models-postprocessing/lib_vision_models_pp/Src/od_pp_yolov5.c ****       pOutput->pOutBuff[det_count].width       = pOutput->pOutBuff[i].width;
 480              		.loc 1 127 7 is_stmt 1 view .LVU143
 127:../Middlewares/stm32-vision-models-postprocessing/lib_vision_models_pp/Src/od_pp_yolov5.c ****       pOutput->pOutBuff[det_count].width       = pOutput->pOutBuff[i].width;
 481              		.loc 1 127 70 is_stmt 0 view .LVU144
 482 0046 D2F804C0 		ldr	ip, [r2, #4]	@ float
 127:../Middlewares/stm32-vision-models-postprocessing/lib_vision_models_pp/Src/od_pp_yolov5.c ****       pOutput->pOutBuff[det_count].width       = pOutput->pOutBuff[i].width;
 483              		.loc 1 127 48 view .LVU145
 484 004a C3F804C0 		str	ip, [r3, #4]	@ float
 128:../Middlewares/stm32-vision-models-postprocessing/lib_vision_models_pp/Src/od_pp_yolov5.c ****       pOutput->pOutBuff[det_count].height      = pOutput->pOutBuff[i].height;
 485              		.loc 1 128 7 is_stmt 1 view .LVU146
 128:../Middlewares/stm32-vision-models-postprocessing/lib_vision_models_pp/Src/od_pp_yolov5.c ****       pOutput->pOutBuff[det_count].height      = pOutput->pOutBuff[i].height;
 486              		.loc 1 128 70 is_stmt 0 view .LVU147
 487 004e D2F808C0 		ldr	ip, [r2, #8]	@ float
 128:../Middlewares/stm32-vision-models-postprocessing/lib_vision_models_pp/Src/od_pp_yolov5.c ****       pOutput->pOutBuff[det_count].height      = pOutput->pOutBuff[i].height;
 488              		.loc 1 128 48 view .LVU148
 489 0052 C3F808C0 		str	ip, [r3, #8]	@ float
 129:../Middlewares/stm32-vision-models-postprocessing/lib_vision_models_pp/Src/od_pp_yolov5.c ****       pOutput->pOutBuff[det_count].conf        = pOutput->pOutBuff[i].conf;
 490              		.loc 1 129 7 is_stmt 1 view .LVU149
 129:../Middlewares/stm32-vision-models-postprocessing/lib_vision_models_pp/Src/od_pp_yolov5.c ****       pOutput->pOutBuff[det_count].conf        = pOutput->pOutBuff[i].conf;
 491              		.loc 1 129 70 is_stmt 0 view .LVU150
 492 0056 D2F80CC0 		ldr	ip, [r2, #12]	@ float
 130:../Middlewares/stm32-vision-models-postprocessing/lib_vision_models_pp/Src/od_pp_yolov5.c ****       pOutput->pOutBuff[det_count].class_index = pOutput->pOutBuff[i].class_index;
 493              		.loc 1 130 48 view .LVU151
 494 005a C3ED047A 		vstr.32	s15, [r3, #16]
 131:../Middlewares/stm32-vision-models-postprocessing/lib_vision_models_pp/Src/od_pp_yolov5.c ****       det_count++;
 495              		.loc 1 131 70 view .LVU152
 496 005e 5269     		ldr	r2, [r2, #20]
 129:../Middlewares/stm32-vision-models-postprocessing/lib_vision_models_pp/Src/od_pp_yolov5.c ****       pOutput->pOutBuff[det_count].conf        = pOutput->pOutBuff[i].conf;
 497              		.loc 1 129 48 view .LVU153
ARM GAS  /tmp/ccOerkoe.s 			page 14


 498 0060 C3F80CC0 		str	ip, [r3, #12]	@ float
 130:../Middlewares/stm32-vision-models-postprocessing/lib_vision_models_pp/Src/od_pp_yolov5.c ****       pOutput->pOutBuff[det_count].class_index = pOutput->pOutBuff[i].class_index;
 499              		.loc 1 130 7 is_stmt 1 view .LVU154
 131:../Middlewares/stm32-vision-models-postprocessing/lib_vision_models_pp/Src/od_pp_yolov5.c ****       det_count++;
 500              		.loc 1 131 7 view .LVU155
 131:../Middlewares/stm32-vision-models-postprocessing/lib_vision_models_pp/Src/od_pp_yolov5.c ****       det_count++;
 501              		.loc 1 131 48 is_stmt 0 view .LVU156
 502 0064 5A61     		str	r2, [r3, #20]
 132:../Middlewares/stm32-vision-models-postprocessing/lib_vision_models_pp/Src/od_pp_yolov5.c ****     }
 503              		.loc 1 132 7 is_stmt 1 view .LVU157
 504              	.LVL43:
 505              	.L40:
 122:../Middlewares/stm32-vision-models-postprocessing/lib_vision_models_pp/Src/od_pp_yolov5.c ****   {
 506              		.loc 1 122 60 discriminator 2 view .LVU158
 507 0066 0136     		adds	r6, r6, #1
 508              	.LVL44:
 122:../Middlewares/stm32-vision-models-postprocessing/lib_vision_models_pp/Src/od_pp_yolov5.c ****   {
 509              		.loc 1 122 60 is_stmt 0 discriminator 2 view .LVU159
 510 0068 D5E7     		b	.L39
 511              	.LBE20:
 512              		.cfi_endproc
 513              	.LFE776:
 515              		.section	.text.yolov5_pp_getNNBoxes_centroid,"ax",%progbits
 516              		.align	1
 517              		.global	yolov5_pp_getNNBoxes_centroid
 518              		.syntax unified
 519              		.thumb
 520              		.thumb_func
 522              	yolov5_pp_getNNBoxes_centroid:
 523              	.LVL45:
 524              	.LFB777:
 139:../Middlewares/stm32-vision-models-postprocessing/lib_vision_models_pp/Src/od_pp_yolov5.c **** 
 140:../Middlewares/stm32-vision-models-postprocessing/lib_vision_models_pp/Src/od_pp_yolov5.c **** 
 141:../Middlewares/stm32-vision-models-postprocessing/lib_vision_models_pp/Src/od_pp_yolov5.c **** int32_t yolov5_pp_getNNBoxes_centroid(od_yolov5_pp_in_centroid_t *pInput,
 142:../Middlewares/stm32-vision-models-postprocessing/lib_vision_models_pp/Src/od_pp_yolov5.c ****                                       od_pp_out_t *pOutput,
 143:../Middlewares/stm32-vision-models-postprocessing/lib_vision_models_pp/Src/od_pp_yolov5.c ****                                       od_yolov5_pp_static_param_t *pInput_static_param)
 144:../Middlewares/stm32-vision-models-postprocessing/lib_vision_models_pp/Src/od_pp_yolov5.c **** {
 525              		.loc 1 144 1 is_stmt 1 view -0
 526              		.cfi_startproc
 527              		@ args = 0, pretend = 0, frame = 16
 528              		@ frame_needed = 0, uses_anonymous_args = 0
 145:../Middlewares/stm32-vision-models-postprocessing/lib_vision_models_pp/Src/od_pp_yolov5.c ****   int32_t error   = AI_OD_POSTPROCESS_ERROR_NO;
 529              		.loc 1 145 3 view .LVU161
 146:../Middlewares/stm32-vision-models-postprocessing/lib_vision_models_pp/Src/od_pp_yolov5.c ****   float32_t best_score = 0;
 530              		.loc 1 146 3 view .LVU162
 144:../Middlewares/stm32-vision-models-postprocessing/lib_vision_models_pp/Src/od_pp_yolov5.c ****   int32_t error   = AI_OD_POSTPROCESS_ERROR_NO;
 531              		.loc 1 144 1 is_stmt 0 view .LVU163
 532 0000 2DE9F04F 		push	{r4, r5, r6, r7, r8, r9, r10, fp, lr}
 533              		.cfi_def_cfa_offset 36
 534              		.cfi_offset 4, -36
 535              		.cfi_offset 5, -32
 536              		.cfi_offset 6, -28
 537              		.cfi_offset 7, -24
 538              		.cfi_offset 8, -20
 539              		.cfi_offset 9, -16
 540              		.cfi_offset 10, -12
 541              		.cfi_offset 11, -8
ARM GAS  /tmp/ccOerkoe.s 			page 15


 542              		.cfi_offset 14, -4
 543              		.loc 1 146 13 view .LVU164
 544 0004 0023     		movs	r3, #0
 147:../Middlewares/stm32-vision-models-postprocessing/lib_vision_models_pp/Src/od_pp_yolov5.c ****   float32_t confidence = 0;
 148:../Middlewares/stm32-vision-models-postprocessing/lib_vision_models_pp/Src/od_pp_yolov5.c ****   uint32_t class_index = 0;
 545              		.loc 1 148 12 view .LVU165
 546 0006 0026     		movs	r6, #0
 144:../Middlewares/stm32-vision-models-postprocessing/lib_vision_models_pp/Src/od_pp_yolov5.c ****   int32_t error   = AI_OD_POSTPROCESS_ERROR_NO;
 547              		.loc 1 144 1 view .LVU166
 548 0008 1546     		mov	r5, r2
 549              	.LBB21:
 149:../Middlewares/stm32-vision-models-postprocessing/lib_vision_models_pp/Src/od_pp_yolov5.c ****   int32_t nb_classes = pInput_static_param->nb_classes;
 150:../Middlewares/stm32-vision-models-postprocessing/lib_vision_models_pp/Src/od_pp_yolov5.c ****   int32_t nb_total_boxes = pInput_static_param->nb_total_boxes;
 151:../Middlewares/stm32-vision-models-postprocessing/lib_vision_models_pp/Src/od_pp_yolov5.c ****   int32_t detection_len = pInput_static_param->nb_classes + AI_YOLOV5_PP_CLASSPROB;
 152:../Middlewares/stm32-vision-models-postprocessing/lib_vision_models_pp/Src/od_pp_yolov5.c ****   float32_t *pRaw_detections = (float32_t *)pInput->pRaw_detections;
 153:../Middlewares/stm32-vision-models-postprocessing/lib_vision_models_pp/Src/od_pp_yolov5.c **** 
 154:../Middlewares/stm32-vision-models-postprocessing/lib_vision_models_pp/Src/od_pp_yolov5.c ****   uint32_t nb_detect = pInput_static_param->nb_detect;
 155:../Middlewares/stm32-vision-models-postprocessing/lib_vision_models_pp/Src/od_pp_yolov5.c **** 
 156:../Middlewares/stm32-vision-models-postprocessing/lib_vision_models_pp/Src/od_pp_yolov5.c ****   for (int32_t i = 0; i < nb_total_boxes; i++)
 157:../Middlewares/stm32-vision-models-postprocessing/lib_vision_models_pp/Src/od_pp_yolov5.c ****   {
 158:../Middlewares/stm32-vision-models-postprocessing/lib_vision_models_pp/Src/od_pp_yolov5.c ****     confidence = pRaw_detections[i*detection_len + AI_YOLOV5_PP_CONFIDENCE];
 159:../Middlewares/stm32-vision-models-postprocessing/lib_vision_models_pp/Src/od_pp_yolov5.c ****     if (confidence >= pInput_static_param->conf_threshold)
 160:../Middlewares/stm32-vision-models-postprocessing/lib_vision_models_pp/Src/od_pp_yolov5.c ****     {
 161:../Middlewares/stm32-vision-models-postprocessing/lib_vision_models_pp/Src/od_pp_yolov5.c ****       vision_models_maxi_if32ou32(&pRaw_detections[i*detection_len + AI_YOLOV5_PP_CLASSPROB],
 162:../Middlewares/stm32-vision-models-postprocessing/lib_vision_models_pp/Src/od_pp_yolov5.c ****                                   nb_classes,
 163:../Middlewares/stm32-vision-models-postprocessing/lib_vision_models_pp/Src/od_pp_yolov5.c ****                                   &best_score,
 164:../Middlewares/stm32-vision-models-postprocessing/lib_vision_models_pp/Src/od_pp_yolov5.c ****                                   &class_index);
 165:../Middlewares/stm32-vision-models-postprocessing/lib_vision_models_pp/Src/od_pp_yolov5.c ****       if (best_score >= pInput_static_param->conf_threshold)
 166:../Middlewares/stm32-vision-models-postprocessing/lib_vision_models_pp/Src/od_pp_yolov5.c ****       {
 167:../Middlewares/stm32-vision-models-postprocessing/lib_vision_models_pp/Src/od_pp_yolov5.c ****         pOutput->pOutBuff[nb_detect].x_center    = pRaw_detections[i*detection_len + AI_YOLOV5_PP_X
 550              		.loc 1 167 26 view .LVU167
 551 000a 4FF0180B 		mov	fp, #24
 552 000e 0468     		ldr	r4, [r0]
 553              	.LBE21:
 144:../Middlewares/stm32-vision-models-postprocessing/lib_vision_models_pp/Src/od_pp_yolov5.c ****   int32_t error   = AI_OD_POSTPROCESS_ERROR_NO;
 554              		.loc 1 144 1 view .LVU168
 555 0010 85B0     		sub	sp, sp, #20
 556              		.cfi_def_cfa_offset 56
 144:../Middlewares/stm32-vision-models-postprocessing/lib_vision_models_pp/Src/od_pp_yolov5.c ****   int32_t error   = AI_OD_POSTPROCESS_ERROR_NO;
 557              		.loc 1 144 1 view .LVU169
 558 0012 8946     		mov	r9, r1
 150:../Middlewares/stm32-vision-models-postprocessing/lib_vision_models_pp/Src/od_pp_yolov5.c ****   int32_t detection_len = pInput_static_param->nb_classes + AI_YOLOV5_PP_CLASSPROB;
 559              		.loc 1 150 11 view .LVU170
 560 0014 D2E9001A 		ldrd	r1, r10, [r2]
 561              	.LVL46:
 154:../Middlewares/stm32-vision-models-postprocessing/lib_vision_models_pp/Src/od_pp_yolov5.c **** 
 562              		.loc 1 154 12 view .LVU171
 563 0018 D769     		ldr	r7, [r2, #28]
 151:../Middlewares/stm32-vision-models-postprocessing/lib_vision_models_pp/Src/od_pp_yolov5.c ****   float32_t *pRaw_detections = (float32_t *)pInput->pRaw_detections;
 564              		.loc 1 151 11 view .LVU172
 565 001a 01F10508 		add	r8, r1, #5
 146:../Middlewares/stm32-vision-models-postprocessing/lib_vision_models_pp/Src/od_pp_yolov5.c ****   float32_t confidence = 0;
 566              		.loc 1 146 13 view .LVU173
 567 001e 0293     		str	r3, [sp, #8]	@ float
 147:../Middlewares/stm32-vision-models-postprocessing/lib_vision_models_pp/Src/od_pp_yolov5.c ****   uint32_t class_index = 0;
 568              		.loc 1 147 3 is_stmt 1 view .LVU174
 569              	.LVL47:
ARM GAS  /tmp/ccOerkoe.s 			page 16


 148:../Middlewares/stm32-vision-models-postprocessing/lib_vision_models_pp/Src/od_pp_yolov5.c ****   int32_t nb_classes = pInput_static_param->nb_classes;
 570              		.loc 1 148 3 view .LVU175
 148:../Middlewares/stm32-vision-models-postprocessing/lib_vision_models_pp/Src/od_pp_yolov5.c ****   int32_t nb_classes = pInput_static_param->nb_classes;
 571              		.loc 1 148 12 is_stmt 0 view .LVU176
 572 0020 0396     		str	r6, [sp, #12]
 149:../Middlewares/stm32-vision-models-postprocessing/lib_vision_models_pp/Src/od_pp_yolov5.c ****   int32_t nb_total_boxes = pInput_static_param->nb_total_boxes;
 573              		.loc 1 149 3 is_stmt 1 view .LVU177
 574              	.LVL48:
 151:../Middlewares/stm32-vision-models-postprocessing/lib_vision_models_pp/Src/od_pp_yolov5.c ****   float32_t *pRaw_detections = (float32_t *)pInput->pRaw_detections;
 575              		.loc 1 151 3 view .LVU178
 152:../Middlewares/stm32-vision-models-postprocessing/lib_vision_models_pp/Src/od_pp_yolov5.c **** 
 576              		.loc 1 152 3 view .LVU179
 154:../Middlewares/stm32-vision-models-postprocessing/lib_vision_models_pp/Src/od_pp_yolov5.c **** 
 577              		.loc 1 154 3 view .LVU180
 156:../Middlewares/stm32-vision-models-postprocessing/lib_vision_models_pp/Src/od_pp_yolov5.c ****   {
 578              		.loc 1 156 3 view .LVU181
 579              	.LBB22:
 156:../Middlewares/stm32-vision-models-postprocessing/lib_vision_models_pp/Src/od_pp_yolov5.c ****   {
 580              		.loc 1 156 8 view .LVU182
 156:../Middlewares/stm32-vision-models-postprocessing/lib_vision_models_pp/Src/od_pp_yolov5.c ****   {
 581              		.loc 1 156 8 is_stmt 0 view .LVU183
 582 0022 4FEA8808 		lsl	r8, r8, #2
 583              	.LVL49:
 156:../Middlewares/stm32-vision-models-postprocessing/lib_vision_models_pp/Src/od_pp_yolov5.c ****   {
 584              		.loc 1 156 8 view .LVU184
 585 0026 1434     		adds	r4, r4, #20
 586              	.LVL50:
 587              	.L46:
 156:../Middlewares/stm32-vision-models-postprocessing/lib_vision_models_pp/Src/od_pp_yolov5.c ****   {
 588              		.loc 1 156 25 is_stmt 1 discriminator 1 view .LVU185
 589 0028 5645     		cmp	r6, r10
 590 002a 04DB     		blt	.L51
 156:../Middlewares/stm32-vision-models-postprocessing/lib_vision_models_pp/Src/od_pp_yolov5.c ****   {
 591              		.loc 1 156 25 is_stmt 0 discriminator 1 view .LVU186
 592              	.LBE22:
 168:../Middlewares/stm32-vision-models-postprocessing/lib_vision_models_pp/Src/od_pp_yolov5.c ****         pOutput->pOutBuff[nb_detect].y_center    = pRaw_detections[i*detection_len + AI_YOLOV5_PP_Y
 169:../Middlewares/stm32-vision-models-postprocessing/lib_vision_models_pp/Src/od_pp_yolov5.c ****         pOutput->pOutBuff[nb_detect].width       = pRaw_detections[i*detection_len + AI_YOLOV5_PP_W
 170:../Middlewares/stm32-vision-models-postprocessing/lib_vision_models_pp/Src/od_pp_yolov5.c ****         pOutput->pOutBuff[nb_detect].height      = pRaw_detections[i*detection_len + AI_YOLOV5_PP_H
 171:../Middlewares/stm32-vision-models-postprocessing/lib_vision_models_pp/Src/od_pp_yolov5.c ****         pOutput->pOutBuff[nb_detect].conf        = best_score;
 172:../Middlewares/stm32-vision-models-postprocessing/lib_vision_models_pp/Src/od_pp_yolov5.c ****         pOutput->pOutBuff[nb_detect].class_index = class_index;
 173:../Middlewares/stm32-vision-models-postprocessing/lib_vision_models_pp/Src/od_pp_yolov5.c ****         nb_detect++;
 174:../Middlewares/stm32-vision-models-postprocessing/lib_vision_models_pp/Src/od_pp_yolov5.c ****       }
 175:../Middlewares/stm32-vision-models-postprocessing/lib_vision_models_pp/Src/od_pp_yolov5.c ****     }
 176:../Middlewares/stm32-vision-models-postprocessing/lib_vision_models_pp/Src/od_pp_yolov5.c ****   }
 177:../Middlewares/stm32-vision-models-postprocessing/lib_vision_models_pp/Src/od_pp_yolov5.c **** 
 178:../Middlewares/stm32-vision-models-postprocessing/lib_vision_models_pp/Src/od_pp_yolov5.c ****   pInput_static_param->nb_detect = nb_detect;
 593              		.loc 1 178 3 is_stmt 1 view .LVU187
 179:../Middlewares/stm32-vision-models-postprocessing/lib_vision_models_pp/Src/od_pp_yolov5.c **** 
 180:../Middlewares/stm32-vision-models-postprocessing/lib_vision_models_pp/Src/od_pp_yolov5.c ****   return (error);
 181:../Middlewares/stm32-vision-models-postprocessing/lib_vision_models_pp/Src/od_pp_yolov5.c **** }
 594              		.loc 1 181 1 is_stmt 0 view .LVU188
 595 002c 0020     		movs	r0, #0
 178:../Middlewares/stm32-vision-models-postprocessing/lib_vision_models_pp/Src/od_pp_yolov5.c **** 
 596              		.loc 1 178 34 view .LVU189
 597 002e EF61     		str	r7, [r5, #28]
 180:../Middlewares/stm32-vision-models-postprocessing/lib_vision_models_pp/Src/od_pp_yolov5.c **** }
 598              		.loc 1 180 3 is_stmt 1 view .LVU190
ARM GAS  /tmp/ccOerkoe.s 			page 17


 599              		.loc 1 181 1 is_stmt 0 view .LVU191
 600 0030 05B0     		add	sp, sp, #20
 601              		.cfi_remember_state
 602              		.cfi_def_cfa_offset 36
 603              		@ sp needed
 604 0032 BDE8F08F 		pop	{r4, r5, r6, r7, r8, r9, r10, fp, pc}
 605              	.LVL51:
 606              	.L51:
 607              		.cfi_restore_state
 608              	.LBB23:
 158:../Middlewares/stm32-vision-models-postprocessing/lib_vision_models_pp/Src/od_pp_yolov5.c ****     if (confidence >= pInput_static_param->conf_threshold)
 609              		.loc 1 158 5 is_stmt 1 view .LVU192
 159:../Middlewares/stm32-vision-models-postprocessing/lib_vision_models_pp/Src/od_pp_yolov5.c ****     {
 610              		.loc 1 159 5 view .LVU193
 159:../Middlewares/stm32-vision-models-postprocessing/lib_vision_models_pp/Src/od_pp_yolov5.c ****     {
 611              		.loc 1 159 8 is_stmt 0 view .LVU194
 612 0036 95ED037A 		vldr.32	s14, [r5, #12]
 613 003a 54ED017A 		vldr.32	s15, [r4, #-4]
 614 003e B4EEE77A 		vcmpe.f32	s14, s15
 615 0042 F1EE10FA 		vmrs	APSR_nzcv, FPSCR
 616 0046 24D8     		bhi	.L50
 161:../Middlewares/stm32-vision-models-postprocessing/lib_vision_models_pp/Src/od_pp_yolov5.c ****                                   nb_classes,
 617              		.loc 1 161 7 is_stmt 1 view .LVU195
 618 0048 2046     		mov	r0, r4
 619 004a 03AB     		add	r3, sp, #12
 620 004c 02AA     		add	r2, sp, #8
 621 004e 0191     		str	r1, [sp, #4]
 622 0050 FFF7FEFF 		bl	vision_models_maxi_if32ou32
 623              	.LVL52:
 165:../Middlewares/stm32-vision-models-postprocessing/lib_vision_models_pp/Src/od_pp_yolov5.c ****       {
 624              		.loc 1 165 7 view .LVU196
 165:../Middlewares/stm32-vision-models-postprocessing/lib_vision_models_pp/Src/od_pp_yolov5.c ****       {
 625              		.loc 1 165 22 is_stmt 0 view .LVU197
 626 0054 DDED027A 		vldr.32	s15, [sp, #8]
 165:../Middlewares/stm32-vision-models-postprocessing/lib_vision_models_pp/Src/od_pp_yolov5.c ****       {
 627              		.loc 1 165 10 view .LVU198
 628 0058 95ED037A 		vldr.32	s14, [r5, #12]
 629 005c B4EEE77A 		vcmpe.f32	s14, s15
 630 0060 F1EE10FA 		vmrs	APSR_nzcv, FPSCR
 631 0064 0199     		ldr	r1, [sp, #4]
 632 0066 14D8     		bhi	.L50
 167:../Middlewares/stm32-vision-models-postprocessing/lib_vision_models_pp/Src/od_pp_yolov5.c ****         pOutput->pOutBuff[nb_detect].y_center    = pRaw_detections[i*detection_len + AI_YOLOV5_PP_Y
 633              		.loc 1 167 9 is_stmt 1 view .LVU199
 167:../Middlewares/stm32-vision-models-postprocessing/lib_vision_models_pp/Src/od_pp_yolov5.c ****         pOutput->pOutBuff[nb_detect].y_center    = pRaw_detections[i*detection_len + AI_YOLOV5_PP_Y
 634              		.loc 1 167 26 is_stmt 0 view .LVU200
 635 0068 D9F80030 		ldr	r3, [r9]
 167:../Middlewares/stm32-vision-models-postprocessing/lib_vision_models_pp/Src/od_pp_yolov5.c ****         pOutput->pOutBuff[nb_detect].y_center    = pRaw_detections[i*detection_len + AI_YOLOV5_PP_Y
 636              		.loc 1 167 67 view .LVU201
 637 006c 54F8142C 		ldr	r2, [r4, #-20]	@ float
 167:../Middlewares/stm32-vision-models-postprocessing/lib_vision_models_pp/Src/od_pp_yolov5.c ****         pOutput->pOutBuff[nb_detect].y_center    = pRaw_detections[i*detection_len + AI_YOLOV5_PP_Y
 638              		.loc 1 167 26 view .LVU202
 639 0070 0BFB0733 		mla	r3, fp, r7, r3
 167:../Middlewares/stm32-vision-models-postprocessing/lib_vision_models_pp/Src/od_pp_yolov5.c ****         pOutput->pOutBuff[nb_detect].y_center    = pRaw_detections[i*detection_len + AI_YOLOV5_PP_Y
 640              		.loc 1 167 50 view .LVU203
 641 0074 1A60     		str	r2, [r3]	@ float
 168:../Middlewares/stm32-vision-models-postprocessing/lib_vision_models_pp/Src/od_pp_yolov5.c ****         pOutput->pOutBuff[nb_detect].width       = pRaw_detections[i*detection_len + AI_YOLOV5_PP_W
 642              		.loc 1 168 9 is_stmt 1 view .LVU204
ARM GAS  /tmp/ccOerkoe.s 			page 18


 168:../Middlewares/stm32-vision-models-postprocessing/lib_vision_models_pp/Src/od_pp_yolov5.c ****         pOutput->pOutBuff[nb_detect].width       = pRaw_detections[i*detection_len + AI_YOLOV5_PP_W
 643              		.loc 1 168 67 is_stmt 0 view .LVU205
 644 0076 54F8102C 		ldr	r2, [r4, #-16]	@ float
 173:../Middlewares/stm32-vision-models-postprocessing/lib_vision_models_pp/Src/od_pp_yolov5.c ****       }
 645              		.loc 1 173 18 view .LVU206
 646 007a 0137     		adds	r7, r7, #1
 647              	.LVL53:
 168:../Middlewares/stm32-vision-models-postprocessing/lib_vision_models_pp/Src/od_pp_yolov5.c ****         pOutput->pOutBuff[nb_detect].width       = pRaw_detections[i*detection_len + AI_YOLOV5_PP_W
 648              		.loc 1 168 50 view .LVU207
 649 007c 5A60     		str	r2, [r3, #4]	@ float
 169:../Middlewares/stm32-vision-models-postprocessing/lib_vision_models_pp/Src/od_pp_yolov5.c ****         pOutput->pOutBuff[nb_detect].height      = pRaw_detections[i*detection_len + AI_YOLOV5_PP_H
 650              		.loc 1 169 9 is_stmt 1 view .LVU208
 169:../Middlewares/stm32-vision-models-postprocessing/lib_vision_models_pp/Src/od_pp_yolov5.c ****         pOutput->pOutBuff[nb_detect].height      = pRaw_detections[i*detection_len + AI_YOLOV5_PP_H
 651              		.loc 1 169 67 is_stmt 0 view .LVU209
 652 007e 54F80C2C 		ldr	r2, [r4, #-12]	@ float
 169:../Middlewares/stm32-vision-models-postprocessing/lib_vision_models_pp/Src/od_pp_yolov5.c ****         pOutput->pOutBuff[nb_detect].height      = pRaw_detections[i*detection_len + AI_YOLOV5_PP_H
 653              		.loc 1 169 50 view .LVU210
 654 0082 9A60     		str	r2, [r3, #8]	@ float
 170:../Middlewares/stm32-vision-models-postprocessing/lib_vision_models_pp/Src/od_pp_yolov5.c ****         pOutput->pOutBuff[nb_detect].conf        = best_score;
 655              		.loc 1 170 9 is_stmt 1 view .LVU211
 170:../Middlewares/stm32-vision-models-postprocessing/lib_vision_models_pp/Src/od_pp_yolov5.c ****         pOutput->pOutBuff[nb_detect].conf        = best_score;
 656              		.loc 1 170 67 is_stmt 0 view .LVU212
 657 0084 54F8082C 		ldr	r2, [r4, #-8]	@ float
 171:../Middlewares/stm32-vision-models-postprocessing/lib_vision_models_pp/Src/od_pp_yolov5.c ****         pOutput->pOutBuff[nb_detect].class_index = class_index;
 658              		.loc 1 171 50 view .LVU213
 659 0088 C3ED047A 		vstr.32	s15, [r3, #16]
 170:../Middlewares/stm32-vision-models-postprocessing/lib_vision_models_pp/Src/od_pp_yolov5.c ****         pOutput->pOutBuff[nb_detect].conf        = best_score;
 660              		.loc 1 170 50 view .LVU214
 661 008c DA60     		str	r2, [r3, #12]	@ float
 171:../Middlewares/stm32-vision-models-postprocessing/lib_vision_models_pp/Src/od_pp_yolov5.c ****         pOutput->pOutBuff[nb_detect].class_index = class_index;
 662              		.loc 1 171 9 is_stmt 1 view .LVU215
 172:../Middlewares/stm32-vision-models-postprocessing/lib_vision_models_pp/Src/od_pp_yolov5.c ****         nb_detect++;
 663              		.loc 1 172 9 view .LVU216
 172:../Middlewares/stm32-vision-models-postprocessing/lib_vision_models_pp/Src/od_pp_yolov5.c ****         nb_detect++;
 664              		.loc 1 172 50 is_stmt 0 view .LVU217
 665 008e 039A     		ldr	r2, [sp, #12]
 666 0090 5A61     		str	r2, [r3, #20]
 173:../Middlewares/stm32-vision-models-postprocessing/lib_vision_models_pp/Src/od_pp_yolov5.c ****       }
 667              		.loc 1 173 9 is_stmt 1 view .LVU218
 668              	.LVL54:
 669              	.L50:
 156:../Middlewares/stm32-vision-models-postprocessing/lib_vision_models_pp/Src/od_pp_yolov5.c ****   {
 670              		.loc 1 156 44 discriminator 2 view .LVU219
 671 0092 0136     		adds	r6, r6, #1
 672              	.LVL55:
 156:../Middlewares/stm32-vision-models-postprocessing/lib_vision_models_pp/Src/od_pp_yolov5.c ****   {
 673              		.loc 1 156 44 is_stmt 0 discriminator 2 view .LVU220
 674 0094 4444     		add	r4, r4, r8
 675 0096 C7E7     		b	.L46
 676              	.LBE23:
 677              		.cfi_endproc
 678              	.LFE777:
 680              		.section	.text.yolov5_pp_getNNBoxes_centroid_uint8,"ax",%progbits
 681              		.align	1
 682              		.global	yolov5_pp_getNNBoxes_centroid_uint8
 683              		.syntax unified
 684              		.thumb
ARM GAS  /tmp/ccOerkoe.s 			page 19


 685              		.thumb_func
 687              	yolov5_pp_getNNBoxes_centroid_uint8:
 688              	.LVL56:
 689              	.LFB778:
 182:../Middlewares/stm32-vision-models-postprocessing/lib_vision_models_pp/Src/od_pp_yolov5.c **** 
 183:../Middlewares/stm32-vision-models-postprocessing/lib_vision_models_pp/Src/od_pp_yolov5.c **** 
 184:../Middlewares/stm32-vision-models-postprocessing/lib_vision_models_pp/Src/od_pp_yolov5.c **** int32_t yolov5_pp_getNNBoxes_centroid_uint8(od_yolov5_pp_in_centroid_t *pInput,
 185:../Middlewares/stm32-vision-models-postprocessing/lib_vision_models_pp/Src/od_pp_yolov5.c ****                                             od_pp_out_t *pOutput,
 186:../Middlewares/stm32-vision-models-postprocessing/lib_vision_models_pp/Src/od_pp_yolov5.c ****                                             od_yolov5_pp_static_param_t *pInput_static_param)
 187:../Middlewares/stm32-vision-models-postprocessing/lib_vision_models_pp/Src/od_pp_yolov5.c **** {
 690              		.loc 1 187 1 is_stmt 1 view -0
 691              		.cfi_startproc
 692              		@ args = 0, pretend = 0, frame = 24
 693              		@ frame_needed = 0, uses_anonymous_args = 0
 188:../Middlewares/stm32-vision-models-postprocessing/lib_vision_models_pp/Src/od_pp_yolov5.c ****   int32_t error   = AI_OD_POSTPROCESS_ERROR_NO;
 694              		.loc 1 188 3 view .LVU222
 189:../Middlewares/stm32-vision-models-postprocessing/lib_vision_models_pp/Src/od_pp_yolov5.c ****   uint8_t best_score = 0;
 695              		.loc 1 189 3 view .LVU223
 187:../Middlewares/stm32-vision-models-postprocessing/lib_vision_models_pp/Src/od_pp_yolov5.c ****   int32_t error   = AI_OD_POSTPROCESS_ERROR_NO;
 696              		.loc 1 187 1 is_stmt 0 view .LVU224
 697 0000 2DE9F04F 		push	{r4, r5, r6, r7, r8, r9, r10, fp, lr}
 698              		.cfi_def_cfa_offset 36
 699              		.cfi_offset 4, -36
 700              		.cfi_offset 5, -32
 701              		.cfi_offset 6, -28
 702              		.cfi_offset 7, -24
 703              		.cfi_offset 8, -20
 704              		.cfi_offset 9, -16
 705              		.cfi_offset 10, -12
 706              		.cfi_offset 11, -8
 707              		.cfi_offset 14, -4
 708 0004 2DED028B 		vpush.64	{d8}
 709              		.cfi_def_cfa_offset 44
 710              		.cfi_offset 80, -44
 711              		.cfi_offset 81, -40
 190:../Middlewares/stm32-vision-models-postprocessing/lib_vision_models_pp/Src/od_pp_yolov5.c ****   uint8_t confidence = 0;
 191:../Middlewares/stm32-vision-models-postprocessing/lib_vision_models_pp/Src/od_pp_yolov5.c ****   uint8_t class_index = 0;
 192:../Middlewares/stm32-vision-models-postprocessing/lib_vision_models_pp/Src/od_pp_yolov5.c ****   int32_t nb_classes = pInput_static_param->nb_classes;
 193:../Middlewares/stm32-vision-models-postprocessing/lib_vision_models_pp/Src/od_pp_yolov5.c ****   int32_t nb_total_boxes = pInput_static_param->nb_total_boxes;
 194:../Middlewares/stm32-vision-models-postprocessing/lib_vision_models_pp/Src/od_pp_yolov5.c ****   int32_t detection_len = pInput_static_param->nb_classes + AI_YOLOV5_PP_CLASSPROB;
 195:../Middlewares/stm32-vision-models-postprocessing/lib_vision_models_pp/Src/od_pp_yolov5.c ****   uint8_t *pRaw_detections = (uint8_t *)pInput->pRaw_detections;
 196:../Middlewares/stm32-vision-models-postprocessing/lib_vision_models_pp/Src/od_pp_yolov5.c **** 
 197:../Middlewares/stm32-vision-models-postprocessing/lib_vision_models_pp/Src/od_pp_yolov5.c ****   uint8_t zero_point = pInput_static_param->raw_output_zero_point;
 198:../Middlewares/stm32-vision-models-postprocessing/lib_vision_models_pp/Src/od_pp_yolov5.c ****   float32_t scale = pInput_static_param->raw_output_scale;
 712              		.loc 1 198 13 view .LVU225
 713 0008 92ED058A 		vldr.32	s16, [r2, #20]
 199:../Middlewares/stm32-vision-models-postprocessing/lib_vision_models_pp/Src/od_pp_yolov5.c **** 
 200:../Middlewares/stm32-vision-models-postprocessing/lib_vision_models_pp/Src/od_pp_yolov5.c ****   uint32_t nb_detect = pInput_static_param->nb_detect;
 201:../Middlewares/stm32-vision-models-postprocessing/lib_vision_models_pp/Src/od_pp_yolov5.c **** 
 202:../Middlewares/stm32-vision-models-postprocessing/lib_vision_models_pp/Src/od_pp_yolov5.c ****   // scale must be strictly positive
 203:../Middlewares/stm32-vision-models-postprocessing/lib_vision_models_pp/Src/od_pp_yolov5.c ****   if (scale <= 0.0f) {
 714              		.loc 1 203 6 view .LVU226
 715 000c B5EEC08A 		vcmpe.f32	s16, #0
 189:../Middlewares/stm32-vision-models-postprocessing/lib_vision_models_pp/Src/od_pp_yolov5.c ****   uint8_t confidence = 0;
 716              		.loc 1 189 11 view .LVU227
 717 0010 0026     		movs	r6, #0
 718              		.loc 1 203 6 view .LVU228
ARM GAS  /tmp/ccOerkoe.s 			page 20


 719 0012 F1EE10FA 		vmrs	APSR_nzcv, FPSCR
 187:../Middlewares/stm32-vision-models-postprocessing/lib_vision_models_pp/Src/od_pp_yolov5.c ****   int32_t error   = AI_OD_POSTPROCESS_ERROR_NO;
 720              		.loc 1 187 1 view .LVU229
 721 0016 87B0     		sub	sp, sp, #28
 722              		.cfi_def_cfa_offset 72
 187:../Middlewares/stm32-vision-models-postprocessing/lib_vision_models_pp/Src/od_pp_yolov5.c ****   int32_t error   = AI_OD_POSTPROCESS_ERROR_NO;
 723              		.loc 1 187 1 view .LVU230
 724 0018 8946     		mov	r9, r1
 193:../Middlewares/stm32-vision-models-postprocessing/lib_vision_models_pp/Src/od_pp_yolov5.c ****   int32_t detection_len = pInput_static_param->nb_classes + AI_YOLOV5_PP_CLASSPROB;
 725              		.loc 1 193 11 view .LVU231
 726 001a D2E90013 		ldrd	r1, r3, [r2]
 727              	.LVL57:
 187:../Middlewares/stm32-vision-models-postprocessing/lib_vision_models_pp/Src/od_pp_yolov5.c ****   int32_t error   = AI_OD_POSTPROCESS_ERROR_NO;
 728              		.loc 1 187 1 view .LVU232
 729 001e 1546     		mov	r5, r2
 195:../Middlewares/stm32-vision-models-postprocessing/lib_vision_models_pp/Src/od_pp_yolov5.c **** 
 730              		.loc 1 195 12 view .LVU233
 731 0020 0068     		ldr	r0, [r0]
 732              	.LVL58:
 197:../Middlewares/stm32-vision-models-postprocessing/lib_vision_models_pp/Src/od_pp_yolov5.c ****   float32_t scale = pInput_static_param->raw_output_scale;
 733              		.loc 1 197 11 view .LVU234
 734 0022 177E     		ldrb	r7, [r2, #24]	@ zero_extendqisi2
 200:../Middlewares/stm32-vision-models-postprocessing/lib_vision_models_pp/Src/od_pp_yolov5.c **** 
 735              		.loc 1 200 12 view .LVU235
 736 0024 D2F81C80 		ldr	r8, [r2, #28]
 189:../Middlewares/stm32-vision-models-postprocessing/lib_vision_models_pp/Src/od_pp_yolov5.c ****   uint8_t confidence = 0;
 737              		.loc 1 189 11 view .LVU236
 738 0028 8DF81660 		strb	r6, [sp, #22]
 190:../Middlewares/stm32-vision-models-postprocessing/lib_vision_models_pp/Src/od_pp_yolov5.c ****   uint8_t class_index = 0;
 739              		.loc 1 190 3 is_stmt 1 view .LVU237
 740              	.LVL59:
 191:../Middlewares/stm32-vision-models-postprocessing/lib_vision_models_pp/Src/od_pp_yolov5.c ****   int32_t nb_classes = pInput_static_param->nb_classes;
 741              		.loc 1 191 3 view .LVU238
 191:../Middlewares/stm32-vision-models-postprocessing/lib_vision_models_pp/Src/od_pp_yolov5.c ****   int32_t nb_classes = pInput_static_param->nb_classes;
 742              		.loc 1 191 11 is_stmt 0 view .LVU239
 743 002c 8DF81760 		strb	r6, [sp, #23]
 192:../Middlewares/stm32-vision-models-postprocessing/lib_vision_models_pp/Src/od_pp_yolov5.c ****   int32_t nb_total_boxes = pInput_static_param->nb_total_boxes;
 744              		.loc 1 192 3 is_stmt 1 view .LVU240
 193:../Middlewares/stm32-vision-models-postprocessing/lib_vision_models_pp/Src/od_pp_yolov5.c ****   int32_t detection_len = pInput_static_param->nb_classes + AI_YOLOV5_PP_CLASSPROB;
 745              		.loc 1 193 11 is_stmt 0 view .LVU241
 746 0030 0193     		str	r3, [sp, #4]
 747              	.LVL60:
 194:../Middlewares/stm32-vision-models-postprocessing/lib_vision_models_pp/Src/od_pp_yolov5.c ****   uint8_t *pRaw_detections = (uint8_t *)pInput->pRaw_detections;
 748              		.loc 1 194 3 is_stmt 1 view .LVU242
 194:../Middlewares/stm32-vision-models-postprocessing/lib_vision_models_pp/Src/od_pp_yolov5.c ****   uint8_t *pRaw_detections = (uint8_t *)pInput->pRaw_detections;
 749              		.loc 1 194 11 is_stmt 0 view .LVU243
 750 0032 01F1050A 		add	r10, r1, #5
 751              	.LVL61:
 195:../Middlewares/stm32-vision-models-postprocessing/lib_vision_models_pp/Src/od_pp_yolov5.c **** 
 752              		.loc 1 195 3 is_stmt 1 view .LVU244
 197:../Middlewares/stm32-vision-models-postprocessing/lib_vision_models_pp/Src/od_pp_yolov5.c ****   float32_t scale = pInput_static_param->raw_output_scale;
 753              		.loc 1 197 3 view .LVU245
 198:../Middlewares/stm32-vision-models-postprocessing/lib_vision_models_pp/Src/od_pp_yolov5.c **** 
 754              		.loc 1 198 3 view .LVU246
 200:../Middlewares/stm32-vision-models-postprocessing/lib_vision_models_pp/Src/od_pp_yolov5.c **** 
 755              		.loc 1 200 3 view .LVU247
 756              		.loc 1 203 3 view .LVU248
ARM GAS  /tmp/ccOerkoe.s 			page 21


 757              		.loc 1 203 6 is_stmt 0 view .LVU249
 758 0036 7AD9     		bls	.L60
 204:../Middlewares/stm32-vision-models-postprocessing/lib_vision_models_pp/Src/od_pp_yolov5.c ****       return AI_OD_POSTPROCESS_ERROR;
 205:../Middlewares/stm32-vision-models-postprocessing/lib_vision_models_pp/Src/od_pp_yolov5.c ****   }
 206:../Middlewares/stm32-vision-models-postprocessing/lib_vision_models_pp/Src/od_pp_yolov5.c **** 
 207:../Middlewares/stm32-vision-models-postprocessing/lib_vision_models_pp/Src/od_pp_yolov5.c ****   uint8_t conf_threshold_u8 = MIN((uint32_t)(pInput_static_param->conf_threshold / scale + (int32_t
 759              		.loc 1 207 3 is_stmt 1 view .LVU250
 760              		.loc 1 207 31 is_stmt 0 view .LVU251
 761 0038 92ED037A 		vldr.32	s14, [r2, #12]
 762 003c C7EE087A 		vdiv.f32	s15, s14, s16
 763 0040 07EE107A 		vmov	s14, r7	@ int
 764 0044 B8EEC77A 		vcvt.f32.s32	s14, s14
 765 0048 77EE877A 		vadd.f32	s15, s15, s14
 766 004c B6EE007A 		vmov.f32	s14, #5.0e-1
 767 0050 77EE877A 		vadd.f32	s15, s15, s14
 768 0054 FCEEE77A 		vcvt.u32.f32	s15, s15
 769 0058 17EE904A 		vmov	r4, s15	@ int
 770 005c FF2C     		cmp	r4, #255
 771 005e 28BF     		it	cs
 772 0060 FF24     		movcs	r4, #255
 773              	.LBB24:
 208:../Middlewares/stm32-vision-models-postprocessing/lib_vision_models_pp/Src/od_pp_yolov5.c ****   for (int32_t i = 0; i < nb_total_boxes; i++)
 209:../Middlewares/stm32-vision-models-postprocessing/lib_vision_models_pp/Src/od_pp_yolov5.c ****   {
 210:../Middlewares/stm32-vision-models-postprocessing/lib_vision_models_pp/Src/od_pp_yolov5.c ****     confidence = pRaw_detections[ i*detection_len + AI_YOLOV5_PP_CONFIDENCE];
 211:../Middlewares/stm32-vision-models-postprocessing/lib_vision_models_pp/Src/od_pp_yolov5.c ****     if (confidence >= conf_threshold_u8)
 212:../Middlewares/stm32-vision-models-postprocessing/lib_vision_models_pp/Src/od_pp_yolov5.c ****     {
 213:../Middlewares/stm32-vision-models-postprocessing/lib_vision_models_pp/Src/od_pp_yolov5.c ****       vision_models_maxi_iu8ou8(&pRaw_detections[i*detection_len + AI_YOLOV5_PP_CLASSPROB],
 214:../Middlewares/stm32-vision-models-postprocessing/lib_vision_models_pp/Src/od_pp_yolov5.c ****                                 nb_classes,
 215:../Middlewares/stm32-vision-models-postprocessing/lib_vision_models_pp/Src/od_pp_yolov5.c ****                                 &best_score,
 216:../Middlewares/stm32-vision-models-postprocessing/lib_vision_models_pp/Src/od_pp_yolov5.c ****                                 &class_index);
 217:../Middlewares/stm32-vision-models-postprocessing/lib_vision_models_pp/Src/od_pp_yolov5.c **** 
 218:../Middlewares/stm32-vision-models-postprocessing/lib_vision_models_pp/Src/od_pp_yolov5.c ****       if (best_score >= conf_threshold_u8)
 219:../Middlewares/stm32-vision-models-postprocessing/lib_vision_models_pp/Src/od_pp_yolov5.c ****       {
 220:../Middlewares/stm32-vision-models-postprocessing/lib_vision_models_pp/Src/od_pp_yolov5.c ****         pOutput->pOutBuff[nb_detect].x_center    = scale * (float32_t)((int32_t)pRaw_detections[i*d
 774              		.loc 1 220 26 view .LVU252
 775 0062 4FF0180B 		mov	fp, #24
 776              	.LBE24:
 207:../Middlewares/stm32-vision-models-postprocessing/lib_vision_models_pp/Src/od_pp_yolov5.c ****   for (int32_t i = 0; i < nb_total_boxes; i++)
 777              		.loc 1 207 11 view .LVU253
 778 0066 E4B2     		uxtb	r4, r4
 779              	.LVL62:
 208:../Middlewares/stm32-vision-models-postprocessing/lib_vision_models_pp/Src/od_pp_yolov5.c ****   for (int32_t i = 0; i < nb_total_boxes; i++)
 780              		.loc 1 208 3 is_stmt 1 view .LVU254
 781              	.LBB25:
 208:../Middlewares/stm32-vision-models-postprocessing/lib_vision_models_pp/Src/od_pp_yolov5.c ****   for (int32_t i = 0; i < nb_total_boxes; i++)
 782              		.loc 1 208 8 view .LVU255
 208:../Middlewares/stm32-vision-models-postprocessing/lib_vision_models_pp/Src/od_pp_yolov5.c ****   for (int32_t i = 0; i < nb_total_boxes; i++)
 783              		.loc 1 208 8 is_stmt 0 view .LVU256
 784 0068 0530     		adds	r0, r0, #5
 785              	.LVL63:
 786              	.L55:
 208:../Middlewares/stm32-vision-models-postprocessing/lib_vision_models_pp/Src/od_pp_yolov5.c ****   for (int32_t i = 0; i < nb_total_boxes; i++)
 787              		.loc 1 208 25 is_stmt 1 discriminator 1 view .LVU257
 788 006a 019B     		ldr	r3, [sp, #4]
 789 006c 9E42     		cmp	r6, r3
 790 006e 07DB     		blt	.L59
 208:../Middlewares/stm32-vision-models-postprocessing/lib_vision_models_pp/Src/od_pp_yolov5.c ****   for (int32_t i = 0; i < nb_total_boxes; i++)
ARM GAS  /tmp/ccOerkoe.s 			page 22


 791              		.loc 1 208 25 is_stmt 0 discriminator 1 view .LVU258
 792              	.LBE25:
 221:../Middlewares/stm32-vision-models-postprocessing/lib_vision_models_pp/Src/od_pp_yolov5.c ****         pOutput->pOutBuff[nb_detect].y_center    = scale * (float32_t)((int32_t)pRaw_detections[i*d
 222:../Middlewares/stm32-vision-models-postprocessing/lib_vision_models_pp/Src/od_pp_yolov5.c ****         pOutput->pOutBuff[nb_detect].width       = scale * (float32_t)((int32_t)pRaw_detections[i*d
 223:../Middlewares/stm32-vision-models-postprocessing/lib_vision_models_pp/Src/od_pp_yolov5.c ****         pOutput->pOutBuff[nb_detect].height      = scale * (float32_t)((int32_t)pRaw_detections[i*d
 224:../Middlewares/stm32-vision-models-postprocessing/lib_vision_models_pp/Src/od_pp_yolov5.c ****         pOutput->pOutBuff[nb_detect].conf        = scale * (float32_t)((int32_t)best_score - (int32
 225:../Middlewares/stm32-vision-models-postprocessing/lib_vision_models_pp/Src/od_pp_yolov5.c ****         pOutput->pOutBuff[nb_detect].class_index = class_index;
 226:../Middlewares/stm32-vision-models-postprocessing/lib_vision_models_pp/Src/od_pp_yolov5.c ****         nb_detect++;
 227:../Middlewares/stm32-vision-models-postprocessing/lib_vision_models_pp/Src/od_pp_yolov5.c ****       }
 228:../Middlewares/stm32-vision-models-postprocessing/lib_vision_models_pp/Src/od_pp_yolov5.c **** 
 229:../Middlewares/stm32-vision-models-postprocessing/lib_vision_models_pp/Src/od_pp_yolov5.c ****     }
 230:../Middlewares/stm32-vision-models-postprocessing/lib_vision_models_pp/Src/od_pp_yolov5.c ****   }
 231:../Middlewares/stm32-vision-models-postprocessing/lib_vision_models_pp/Src/od_pp_yolov5.c ****   pInput_static_param->nb_detect = nb_detect;;
 793              		.loc 1 231 3 is_stmt 1 view .LVU259
 232:../Middlewares/stm32-vision-models-postprocessing/lib_vision_models_pp/Src/od_pp_yolov5.c **** 
 233:../Middlewares/stm32-vision-models-postprocessing/lib_vision_models_pp/Src/od_pp_yolov5.c ****   return (error);
 794              		.loc 1 233 10 is_stmt 0 view .LVU260
 795 0070 0020     		movs	r0, #0
 231:../Middlewares/stm32-vision-models-postprocessing/lib_vision_models_pp/Src/od_pp_yolov5.c **** 
 796              		.loc 1 231 34 view .LVU261
 797 0072 C5F81C80 		str	r8, [r5, #28]
 231:../Middlewares/stm32-vision-models-postprocessing/lib_vision_models_pp/Src/od_pp_yolov5.c **** 
 798              		.loc 1 231 46 is_stmt 1 view .LVU262
 799              		.loc 1 233 3 view .LVU263
 800              	.LVL64:
 801              	.L53:
 234:../Middlewares/stm32-vision-models-postprocessing/lib_vision_models_pp/Src/od_pp_yolov5.c **** }
 802              		.loc 1 234 1 is_stmt 0 view .LVU264
 803 0076 07B0     		add	sp, sp, #28
 804              		.cfi_remember_state
 805              		.cfi_def_cfa_offset 44
 806              		@ sp needed
 807 0078 BDEC028B 		vldm	sp!, {d8}
 808              		.cfi_restore 80
 809              		.cfi_restore 81
 810              		.cfi_def_cfa_offset 36
 811              	.LVL65:
 812              		.loc 1 234 1 view .LVU265
 813 007c BDE8F08F 		pop	{r4, r5, r6, r7, r8, r9, r10, fp, pc}
 814              	.LVL66:
 815              	.L59:
 816              		.cfi_restore_state
 817              	.LBB26:
 210:../Middlewares/stm32-vision-models-postprocessing/lib_vision_models_pp/Src/od_pp_yolov5.c ****     if (confidence >= conf_threshold_u8)
 818              		.loc 1 210 5 is_stmt 1 view .LVU266
 211:../Middlewares/stm32-vision-models-postprocessing/lib_vision_models_pp/Src/od_pp_yolov5.c ****     {
 819              		.loc 1 211 5 view .LVU267
 211:../Middlewares/stm32-vision-models-postprocessing/lib_vision_models_pp/Src/od_pp_yolov5.c ****     {
 820              		.loc 1 211 8 is_stmt 0 view .LVU268
 821 0080 10F8013C 		ldrb	r3, [r0, #-1]	@ zero_extendqisi2
 822 0084 A342     		cmp	r3, r4
 823 0086 4FD3     		bcc	.L58
 213:../Middlewares/stm32-vision-models-postprocessing/lib_vision_models_pp/Src/od_pp_yolov5.c ****                                 nb_classes,
 824              		.loc 1 213 7 is_stmt 1 view .LVU269
 825 0088 0DF11602 		add	r2, sp, #22
 826 008c 0DF11703 		add	r3, sp, #23
 827 0090 CDE90201 		strd	r0, r1, [sp, #8]
ARM GAS  /tmp/ccOerkoe.s 			page 23


 828 0094 FFF7FEFF 		bl	vision_models_maxi_iu8ou8
 829              	.LVL67:
 218:../Middlewares/stm32-vision-models-postprocessing/lib_vision_models_pp/Src/od_pp_yolov5.c ****       {
 830              		.loc 1 218 7 view .LVU270
 218:../Middlewares/stm32-vision-models-postprocessing/lib_vision_models_pp/Src/od_pp_yolov5.c ****       {
 831              		.loc 1 218 10 is_stmt 0 view .LVU271
 832 0098 DDE90201 		ldrd	r0, r1, [sp, #8]
 218:../Middlewares/stm32-vision-models-postprocessing/lib_vision_models_pp/Src/od_pp_yolov5.c ****       {
 833              		.loc 1 218 22 view .LVU272
 834 009c 9DF81620 		ldrb	r2, [sp, #22]	@ zero_extendqisi2
 218:../Middlewares/stm32-vision-models-postprocessing/lib_vision_models_pp/Src/od_pp_yolov5.c ****       {
 835              		.loc 1 218 10 view .LVU273
 836 00a0 A242     		cmp	r2, r4
 837 00a2 41D3     		bcc	.L58
 220:../Middlewares/stm32-vision-models-postprocessing/lib_vision_models_pp/Src/od_pp_yolov5.c ****         pOutput->pOutBuff[nb_detect].y_center    = scale * (float32_t)((int32_t)pRaw_detections[i*d
 838              		.loc 1 220 9 is_stmt 1 view .LVU274
 220:../Middlewares/stm32-vision-models-postprocessing/lib_vision_models_pp/Src/od_pp_yolov5.c ****         pOutput->pOutBuff[nb_detect].y_center    = scale * (float32_t)((int32_t)pRaw_detections[i*d
 839              		.loc 1 220 72 is_stmt 0 view .LVU275
 840 00a4 10F805CC 		ldrb	ip, [r0, #-5]	@ zero_extendqisi2
 220:../Middlewares/stm32-vision-models-postprocessing/lib_vision_models_pp/Src/od_pp_yolov5.c ****         pOutput->pOutBuff[nb_detect].y_center    = scale * (float32_t)((int32_t)pRaw_detections[i*d
 841              		.loc 1 220 26 view .LVU276
 842 00a8 D9F80030 		ldr	r3, [r9]
 220:../Middlewares/stm32-vision-models-postprocessing/lib_vision_models_pp/Src/od_pp_yolov5.c ****         pOutput->pOutBuff[nb_detect].y_center    = scale * (float32_t)((int32_t)pRaw_detections[i*d
 843              		.loc 1 220 140 view .LVU277
 844 00ac ACEB070C 		sub	ip, ip, r7
 845 00b0 07EE90CA 		vmov	s15, ip	@ int
 220:../Middlewares/stm32-vision-models-postprocessing/lib_vision_models_pp/Src/od_pp_yolov5.c ****         pOutput->pOutBuff[nb_detect].y_center    = scale * (float32_t)((int32_t)pRaw_detections[i*d
 846              		.loc 1 220 60 view .LVU278
 847 00b4 F8EEE77A 		vcvt.f32.s32	s15, s15
 220:../Middlewares/stm32-vision-models-postprocessing/lib_vision_models_pp/Src/od_pp_yolov5.c ****         pOutput->pOutBuff[nb_detect].y_center    = scale * (float32_t)((int32_t)pRaw_detections[i*d
 848              		.loc 1 220 58 view .LVU279
 849 00b8 67EE887A 		vmul.f32	s15, s15, s16
 220:../Middlewares/stm32-vision-models-postprocessing/lib_vision_models_pp/Src/od_pp_yolov5.c ****         pOutput->pOutBuff[nb_detect].y_center    = scale * (float32_t)((int32_t)pRaw_detections[i*d
 850              		.loc 1 220 26 view .LVU280
 851 00bc 0BFB0833 		mla	r3, fp, r8, r3
 220:../Middlewares/stm32-vision-models-postprocessing/lib_vision_models_pp/Src/od_pp_yolov5.c ****         pOutput->pOutBuff[nb_detect].y_center    = scale * (float32_t)((int32_t)pRaw_detections[i*d
 852              		.loc 1 220 50 view .LVU281
 853 00c0 C3ED007A 		vstr.32	s15, [r3]
 221:../Middlewares/stm32-vision-models-postprocessing/lib_vision_models_pp/Src/od_pp_yolov5.c ****         pOutput->pOutBuff[nb_detect].width       = scale * (float32_t)((int32_t)pRaw_detections[i*d
 854              		.loc 1 221 9 is_stmt 1 view .LVU282
 221:../Middlewares/stm32-vision-models-postprocessing/lib_vision_models_pp/Src/od_pp_yolov5.c ****         pOutput->pOutBuff[nb_detect].width       = scale * (float32_t)((int32_t)pRaw_detections[i*d
 855              		.loc 1 221 72 is_stmt 0 view .LVU283
 856 00c4 10F804CC 		ldrb	ip, [r0, #-4]	@ zero_extendqisi2
 224:../Middlewares/stm32-vision-models-postprocessing/lib_vision_models_pp/Src/od_pp_yolov5.c ****         pOutput->pOutBuff[nb_detect].class_index = class_index;
 857              		.loc 1 224 92 view .LVU284
 858 00c8 D21B     		subs	r2, r2, r7
 221:../Middlewares/stm32-vision-models-postprocessing/lib_vision_models_pp/Src/od_pp_yolov5.c ****         pOutput->pOutBuff[nb_detect].width       = scale * (float32_t)((int32_t)pRaw_detections[i*d
 859              		.loc 1 221 140 view .LVU285
 860 00ca ACEB070C 		sub	ip, ip, r7
 861 00ce 07EE90CA 		vmov	s15, ip	@ int
 221:../Middlewares/stm32-vision-models-postprocessing/lib_vision_models_pp/Src/od_pp_yolov5.c ****         pOutput->pOutBuff[nb_detect].width       = scale * (float32_t)((int32_t)pRaw_detections[i*d
 862              		.loc 1 221 60 view .LVU286
 863 00d2 F8EEE77A 		vcvt.f32.s32	s15, s15
 221:../Middlewares/stm32-vision-models-postprocessing/lib_vision_models_pp/Src/od_pp_yolov5.c ****         pOutput->pOutBuff[nb_detect].width       = scale * (float32_t)((int32_t)pRaw_detections[i*d
 864              		.loc 1 221 58 view .LVU287
 865 00d6 67EE887A 		vmul.f32	s15, s15, s16
 221:../Middlewares/stm32-vision-models-postprocessing/lib_vision_models_pp/Src/od_pp_yolov5.c ****         pOutput->pOutBuff[nb_detect].width       = scale * (float32_t)((int32_t)pRaw_detections[i*d
ARM GAS  /tmp/ccOerkoe.s 			page 24


 866              		.loc 1 221 50 view .LVU288
 867 00da C3ED017A 		vstr.32	s15, [r3, #4]
 222:../Middlewares/stm32-vision-models-postprocessing/lib_vision_models_pp/Src/od_pp_yolov5.c ****         pOutput->pOutBuff[nb_detect].height      = scale * (float32_t)((int32_t)pRaw_detections[i*d
 868              		.loc 1 222 9 is_stmt 1 view .LVU289
 222:../Middlewares/stm32-vision-models-postprocessing/lib_vision_models_pp/Src/od_pp_yolov5.c ****         pOutput->pOutBuff[nb_detect].height      = scale * (float32_t)((int32_t)pRaw_detections[i*d
 869              		.loc 1 222 72 is_stmt 0 view .LVU290
 870 00de 10F803CC 		ldrb	ip, [r0, #-3]	@ zero_extendqisi2
 226:../Middlewares/stm32-vision-models-postprocessing/lib_vision_models_pp/Src/od_pp_yolov5.c ****       }
 871              		.loc 1 226 18 view .LVU291
 872 00e2 08F10108 		add	r8, r8, #1
 873              	.LVL68:
 222:../Middlewares/stm32-vision-models-postprocessing/lib_vision_models_pp/Src/od_pp_yolov5.c ****         pOutput->pOutBuff[nb_detect].height      = scale * (float32_t)((int32_t)pRaw_detections[i*d
 874              		.loc 1 222 140 view .LVU292
 875 00e6 ACEB070C 		sub	ip, ip, r7
 876 00ea 07EE90CA 		vmov	s15, ip	@ int
 222:../Middlewares/stm32-vision-models-postprocessing/lib_vision_models_pp/Src/od_pp_yolov5.c ****         pOutput->pOutBuff[nb_detect].height      = scale * (float32_t)((int32_t)pRaw_detections[i*d
 877              		.loc 1 222 60 view .LVU293
 878 00ee F8EEE77A 		vcvt.f32.s32	s15, s15
 222:../Middlewares/stm32-vision-models-postprocessing/lib_vision_models_pp/Src/od_pp_yolov5.c ****         pOutput->pOutBuff[nb_detect].height      = scale * (float32_t)((int32_t)pRaw_detections[i*d
 879              		.loc 1 222 58 view .LVU294
 880 00f2 67EE887A 		vmul.f32	s15, s15, s16
 222:../Middlewares/stm32-vision-models-postprocessing/lib_vision_models_pp/Src/od_pp_yolov5.c ****         pOutput->pOutBuff[nb_detect].height      = scale * (float32_t)((int32_t)pRaw_detections[i*d
 881              		.loc 1 222 50 view .LVU295
 882 00f6 C3ED027A 		vstr.32	s15, [r3, #8]
 223:../Middlewares/stm32-vision-models-postprocessing/lib_vision_models_pp/Src/od_pp_yolov5.c ****         pOutput->pOutBuff[nb_detect].conf        = scale * (float32_t)((int32_t)best_score - (int32
 883              		.loc 1 223 9 is_stmt 1 view .LVU296
 223:../Middlewares/stm32-vision-models-postprocessing/lib_vision_models_pp/Src/od_pp_yolov5.c ****         pOutput->pOutBuff[nb_detect].conf        = scale * (float32_t)((int32_t)best_score - (int32
 884              		.loc 1 223 72 is_stmt 0 view .LVU297
 885 00fa 10F802CC 		ldrb	ip, [r0, #-2]	@ zero_extendqisi2
 223:../Middlewares/stm32-vision-models-postprocessing/lib_vision_models_pp/Src/od_pp_yolov5.c ****         pOutput->pOutBuff[nb_detect].conf        = scale * (float32_t)((int32_t)best_score - (int32
 886              		.loc 1 223 140 view .LVU298
 887 00fe ACEB070C 		sub	ip, ip, r7
 888 0102 07EE90CA 		vmov	s15, ip	@ int
 223:../Middlewares/stm32-vision-models-postprocessing/lib_vision_models_pp/Src/od_pp_yolov5.c ****         pOutput->pOutBuff[nb_detect].conf        = scale * (float32_t)((int32_t)best_score - (int32
 889              		.loc 1 223 60 view .LVU299
 890 0106 F8EEE77A 		vcvt.f32.s32	s15, s15
 223:../Middlewares/stm32-vision-models-postprocessing/lib_vision_models_pp/Src/od_pp_yolov5.c ****         pOutput->pOutBuff[nb_detect].conf        = scale * (float32_t)((int32_t)best_score - (int32
 891              		.loc 1 223 58 view .LVU300
 892 010a 67EE887A 		vmul.f32	s15, s15, s16
 223:../Middlewares/stm32-vision-models-postprocessing/lib_vision_models_pp/Src/od_pp_yolov5.c ****         pOutput->pOutBuff[nb_detect].conf        = scale * (float32_t)((int32_t)best_score - (int32
 893              		.loc 1 223 50 view .LVU301
 894 010e C3ED037A 		vstr.32	s15, [r3, #12]
 224:../Middlewares/stm32-vision-models-postprocessing/lib_vision_models_pp/Src/od_pp_yolov5.c ****         pOutput->pOutBuff[nb_detect].class_index = class_index;
 895              		.loc 1 224 9 is_stmt 1 view .LVU302
 224:../Middlewares/stm32-vision-models-postprocessing/lib_vision_models_pp/Src/od_pp_yolov5.c ****         pOutput->pOutBuff[nb_detect].class_index = class_index;
 896              		.loc 1 224 92 is_stmt 0 view .LVU303
 897 0112 07EE902A 		vmov	s15, r2	@ int
 224:../Middlewares/stm32-vision-models-postprocessing/lib_vision_models_pp/Src/od_pp_yolov5.c ****         pOutput->pOutBuff[nb_detect].class_index = class_index;
 898              		.loc 1 224 60 view .LVU304
 899 0116 F8EEE77A 		vcvt.f32.s32	s15, s15
 224:../Middlewares/stm32-vision-models-postprocessing/lib_vision_models_pp/Src/od_pp_yolov5.c ****         pOutput->pOutBuff[nb_detect].class_index = class_index;
 900              		.loc 1 224 58 view .LVU305
 901 011a 67EE887A 		vmul.f32	s15, s15, s16
 224:../Middlewares/stm32-vision-models-postprocessing/lib_vision_models_pp/Src/od_pp_yolov5.c ****         pOutput->pOutBuff[nb_detect].class_index = class_index;
 902              		.loc 1 224 50 view .LVU306
 903 011e C3ED047A 		vstr.32	s15, [r3, #16]
 225:../Middlewares/stm32-vision-models-postprocessing/lib_vision_models_pp/Src/od_pp_yolov5.c ****         nb_detect++;
ARM GAS  /tmp/ccOerkoe.s 			page 25


 904              		.loc 1 225 9 is_stmt 1 view .LVU307
 225:../Middlewares/stm32-vision-models-postprocessing/lib_vision_models_pp/Src/od_pp_yolov5.c ****         nb_detect++;
 905              		.loc 1 225 50 is_stmt 0 view .LVU308
 906 0122 9DF81720 		ldrb	r2, [sp, #23]	@ zero_extendqisi2
 907 0126 5A61     		str	r2, [r3, #20]
 226:../Middlewares/stm32-vision-models-postprocessing/lib_vision_models_pp/Src/od_pp_yolov5.c ****       }
 908              		.loc 1 226 9 is_stmt 1 view .LVU309
 909              	.LVL69:
 910              	.L58:
 208:../Middlewares/stm32-vision-models-postprocessing/lib_vision_models_pp/Src/od_pp_yolov5.c ****   {
 911              		.loc 1 208 44 discriminator 2 view .LVU310
 912 0128 0136     		adds	r6, r6, #1
 913              	.LVL70:
 208:../Middlewares/stm32-vision-models-postprocessing/lib_vision_models_pp/Src/od_pp_yolov5.c ****   {
 914              		.loc 1 208 44 is_stmt 0 discriminator 2 view .LVU311
 915 012a 5044     		add	r0, r0, r10
 916 012c 9DE7     		b	.L55
 917              	.LVL71:
 918              	.L60:
 208:../Middlewares/stm32-vision-models-postprocessing/lib_vision_models_pp/Src/od_pp_yolov5.c ****   {
 919              		.loc 1 208 44 discriminator 2 view .LVU312
 920              	.LBE26:
 204:../Middlewares/stm32-vision-models-postprocessing/lib_vision_models_pp/Src/od_pp_yolov5.c ****   }
 921              		.loc 1 204 14 view .LVU313
 922 012e 6FF00100 		mvn	r0, #1
 923              	.LVL72:
 204:../Middlewares/stm32-vision-models-postprocessing/lib_vision_models_pp/Src/od_pp_yolov5.c ****   }
 924              		.loc 1 204 14 view .LVU314
 925 0132 A0E7     		b	.L53
 926              		.cfi_endproc
 927              	.LFE778:
 929              		.section	.text.od_yolov5_pp_reset,"ax",%progbits
 930              		.align	1
 931              		.global	od_yolov5_pp_reset
 932              		.syntax unified
 933              		.thumb
 934              		.thumb_func
 936              	od_yolov5_pp_reset:
 937              	.LVL73:
 938              	.LFB779:
 235:../Middlewares/stm32-vision-models-postprocessing/lib_vision_models_pp/Src/od_pp_yolov5.c **** 
 236:../Middlewares/stm32-vision-models-postprocessing/lib_vision_models_pp/Src/od_pp_yolov5.c **** 
 237:../Middlewares/stm32-vision-models-postprocessing/lib_vision_models_pp/Src/od_pp_yolov5.c **** /* ----------------------       Exported routines      ---------------------- */
 238:../Middlewares/stm32-vision-models-postprocessing/lib_vision_models_pp/Src/od_pp_yolov5.c **** 
 239:../Middlewares/stm32-vision-models-postprocessing/lib_vision_models_pp/Src/od_pp_yolov5.c **** int32_t od_yolov5_pp_reset(od_yolov5_pp_static_param_t *pInput_static_param)
 240:../Middlewares/stm32-vision-models-postprocessing/lib_vision_models_pp/Src/od_pp_yolov5.c **** {
 939              		.loc 1 240 1 is_stmt 1 view -0
 940              		.cfi_startproc
 941              		@ args = 0, pretend = 0, frame = 0
 942              		@ frame_needed = 0, uses_anonymous_args = 0
 943              		@ link register save eliminated.
 241:../Middlewares/stm32-vision-models-postprocessing/lib_vision_models_pp/Src/od_pp_yolov5.c ****     /* Initializations */
 242:../Middlewares/stm32-vision-models-postprocessing/lib_vision_models_pp/Src/od_pp_yolov5.c ****     pInput_static_param->nb_detect = 0;
 944              		.loc 1 242 5 view .LVU316
 240:../Middlewares/stm32-vision-models-postprocessing/lib_vision_models_pp/Src/od_pp_yolov5.c ****     /* Initializations */
 945              		.loc 1 240 1 is_stmt 0 view .LVU317
 946 0000 0346     		mov	r3, r0
ARM GAS  /tmp/ccOerkoe.s 			page 26


 947              		.loc 1 242 36 view .LVU318
 948 0002 0020     		movs	r0, #0
 949              	.LVL74:
 950              		.loc 1 242 36 view .LVU319
 951 0004 D861     		str	r0, [r3, #28]
 243:../Middlewares/stm32-vision-models-postprocessing/lib_vision_models_pp/Src/od_pp_yolov5.c **** 
 244:../Middlewares/stm32-vision-models-postprocessing/lib_vision_models_pp/Src/od_pp_yolov5.c ****     return (AI_OD_POSTPROCESS_ERROR_NO);
 952              		.loc 1 244 5 is_stmt 1 view .LVU320
 245:../Middlewares/stm32-vision-models-postprocessing/lib_vision_models_pp/Src/od_pp_yolov5.c **** }
 953              		.loc 1 245 1 is_stmt 0 view .LVU321
 954 0006 7047     		bx	lr
 955              		.cfi_endproc
 956              	.LFE779:
 958              		.section	.text.od_yolov5_pp_process,"ax",%progbits
 959              		.align	1
 960              		.global	od_yolov5_pp_process
 961              		.syntax unified
 962              		.thumb
 963              		.thumb_func
 965              	od_yolov5_pp_process:
 966              	.LVL75:
 967              	.LFB780:
 246:../Middlewares/stm32-vision-models-postprocessing/lib_vision_models_pp/Src/od_pp_yolov5.c **** 
 247:../Middlewares/stm32-vision-models-postprocessing/lib_vision_models_pp/Src/od_pp_yolov5.c **** 
 248:../Middlewares/stm32-vision-models-postprocessing/lib_vision_models_pp/Src/od_pp_yolov5.c **** int32_t od_yolov5_pp_process(od_yolov5_pp_in_centroid_t *pInput,
 249:../Middlewares/stm32-vision-models-postprocessing/lib_vision_models_pp/Src/od_pp_yolov5.c ****                              od_pp_out_t *pOutput,
 250:../Middlewares/stm32-vision-models-postprocessing/lib_vision_models_pp/Src/od_pp_yolov5.c ****                              od_yolov5_pp_static_param_t *pInput_static_param)
 251:../Middlewares/stm32-vision-models-postprocessing/lib_vision_models_pp/Src/od_pp_yolov5.c **** {
 968              		.loc 1 251 1 is_stmt 1 view -0
 969              		.cfi_startproc
 970              		@ args = 0, pretend = 0, frame = 0
 971              		@ frame_needed = 0, uses_anonymous_args = 0
 252:../Middlewares/stm32-vision-models-postprocessing/lib_vision_models_pp/Src/od_pp_yolov5.c ****     int32_t error   = AI_OD_POSTPROCESS_ERROR_NO;
 972              		.loc 1 252 5 view .LVU323
 253:../Middlewares/stm32-vision-models-postprocessing/lib_vision_models_pp/Src/od_pp_yolov5.c **** 
 254:../Middlewares/stm32-vision-models-postprocessing/lib_vision_models_pp/Src/od_pp_yolov5.c ****     /* Call Get NN boxes first */
 255:../Middlewares/stm32-vision-models-postprocessing/lib_vision_models_pp/Src/od_pp_yolov5.c ****     error = yolov5_pp_getNNBoxes_centroid(pInput,
 973              		.loc 1 255 5 view .LVU324
 251:../Middlewares/stm32-vision-models-postprocessing/lib_vision_models_pp/Src/od_pp_yolov5.c ****     int32_t error   = AI_OD_POSTPROCESS_ERROR_NO;
 974              		.loc 1 251 1 is_stmt 0 view .LVU325
 975 0000 38B5     		push	{r3, r4, r5, lr}
 976              		.cfi_def_cfa_offset 16
 977              		.cfi_offset 3, -16
 978              		.cfi_offset 4, -12
 979              		.cfi_offset 5, -8
 980              		.cfi_offset 14, -4
 251:../Middlewares/stm32-vision-models-postprocessing/lib_vision_models_pp/Src/od_pp_yolov5.c ****     int32_t error   = AI_OD_POSTPROCESS_ERROR_NO;
 981              		.loc 1 251 1 view .LVU326
 982 0002 1546     		mov	r5, r2
 983 0004 0C46     		mov	r4, r1
 984              		.loc 1 255 13 view .LVU327
 985 0006 FFF7FEFF 		bl	yolov5_pp_getNNBoxes_centroid
 986              	.LVL76:
 256:../Middlewares/stm32-vision-models-postprocessing/lib_vision_models_pp/Src/od_pp_yolov5.c ****                                           pOutput,
 257:../Middlewares/stm32-vision-models-postprocessing/lib_vision_models_pp/Src/od_pp_yolov5.c ****                                           pInput_static_param);
 258:../Middlewares/stm32-vision-models-postprocessing/lib_vision_models_pp/Src/od_pp_yolov5.c ****     if (error != AI_OD_POSTPROCESS_ERROR_NO) return (error);
 987              		.loc 1 258 5 is_stmt 1 view .LVU328
ARM GAS  /tmp/ccOerkoe.s 			page 27


 259:../Middlewares/stm32-vision-models-postprocessing/lib_vision_models_pp/Src/od_pp_yolov5.c **** 
 260:../Middlewares/stm32-vision-models-postprocessing/lib_vision_models_pp/Src/od_pp_yolov5.c ****     /* Then NMS */
 261:../Middlewares/stm32-vision-models-postprocessing/lib_vision_models_pp/Src/od_pp_yolov5.c ****     error = yolov5_pp_nmsFiltering_centroid(pOutput,
 988              		.loc 1 261 5 view .LVU329
 989              		.loc 1 261 13 is_stmt 0 view .LVU330
 990 000a 2946     		mov	r1, r5
 991 000c 2046     		mov	r0, r4
 992 000e FFF7FEFF 		bl	yolov5_pp_nmsFiltering_centroid
 993              	.LVL77:
 262:../Middlewares/stm32-vision-models-postprocessing/lib_vision_models_pp/Src/od_pp_yolov5.c ****                                             pInput_static_param);
 263:../Middlewares/stm32-vision-models-postprocessing/lib_vision_models_pp/Src/od_pp_yolov5.c ****     if (error != AI_OD_POSTPROCESS_ERROR_NO) return (error);
 994              		.loc 1 263 5 is_stmt 1 view .LVU331
 264:../Middlewares/stm32-vision-models-postprocessing/lib_vision_models_pp/Src/od_pp_yolov5.c **** 
 265:../Middlewares/stm32-vision-models-postprocessing/lib_vision_models_pp/Src/od_pp_yolov5.c ****     /* And score re-filtering */
 266:../Middlewares/stm32-vision-models-postprocessing/lib_vision_models_pp/Src/od_pp_yolov5.c ****     error = yolov5_pp_scoreFiltering_centroid(pOutput,
 995              		.loc 1 266 5 view .LVU332
 996              		.loc 1 266 13 is_stmt 0 view .LVU333
 997 0012 2946     		mov	r1, r5
 998 0014 2046     		mov	r0, r4
 999 0016 FFF7FEFF 		bl	yolov5_pp_scoreFiltering_centroid
 1000              	.LVL78:
 267:../Middlewares/stm32-vision-models-postprocessing/lib_vision_models_pp/Src/od_pp_yolov5.c ****                                               pInput_static_param);
 268:../Middlewares/stm32-vision-models-postprocessing/lib_vision_models_pp/Src/od_pp_yolov5.c **** 
 269:../Middlewares/stm32-vision-models-postprocessing/lib_vision_models_pp/Src/od_pp_yolov5.c ****     return (error);
 1001              		.loc 1 269 5 is_stmt 1 view .LVU334
 270:../Middlewares/stm32-vision-models-postprocessing/lib_vision_models_pp/Src/od_pp_yolov5.c **** }
 1002              		.loc 1 270 1 is_stmt 0 view .LVU335
 1003 001a 0020     		movs	r0, #0
 1004 001c 38BD     		pop	{r3, r4, r5, pc}
 1005              		.loc 1 270 1 view .LVU336
 1006              		.cfi_endproc
 1007              	.LFE780:
 1009              		.section	.text.od_yolov5_pp_process_uint8,"ax",%progbits
 1010              		.align	1
 1011              		.global	od_yolov5_pp_process_uint8
 1012              		.syntax unified
 1013              		.thumb
 1014              		.thumb_func
 1016              	od_yolov5_pp_process_uint8:
 1017              	.LVL79:
 1018              	.LFB781:
 271:../Middlewares/stm32-vision-models-postprocessing/lib_vision_models_pp/Src/od_pp_yolov5.c **** 
 272:../Middlewares/stm32-vision-models-postprocessing/lib_vision_models_pp/Src/od_pp_yolov5.c **** 
 273:../Middlewares/stm32-vision-models-postprocessing/lib_vision_models_pp/Src/od_pp_yolov5.c **** int32_t od_yolov5_pp_process_uint8(od_yolov5_pp_in_centroid_t *pInput,
 274:../Middlewares/stm32-vision-models-postprocessing/lib_vision_models_pp/Src/od_pp_yolov5.c ****                                    od_pp_out_t *pOutput,
 275:../Middlewares/stm32-vision-models-postprocessing/lib_vision_models_pp/Src/od_pp_yolov5.c ****                                    od_yolov5_pp_static_param_t *pInput_static_param)
 276:../Middlewares/stm32-vision-models-postprocessing/lib_vision_models_pp/Src/od_pp_yolov5.c **** {
 1019              		.loc 1 276 1 is_stmt 1 view -0
 1020              		.cfi_startproc
 1021              		@ args = 0, pretend = 0, frame = 0
 1022              		@ frame_needed = 0, uses_anonymous_args = 0
 277:../Middlewares/stm32-vision-models-postprocessing/lib_vision_models_pp/Src/od_pp_yolov5.c ****     int32_t error   = AI_OD_POSTPROCESS_ERROR_NO;
 1023              		.loc 1 277 5 view .LVU338
 278:../Middlewares/stm32-vision-models-postprocessing/lib_vision_models_pp/Src/od_pp_yolov5.c **** 
 279:../Middlewares/stm32-vision-models-postprocessing/lib_vision_models_pp/Src/od_pp_yolov5.c ****     /* Call Get NN boxes first */
 280:../Middlewares/stm32-vision-models-postprocessing/lib_vision_models_pp/Src/od_pp_yolov5.c ****     error = yolov5_pp_getNNBoxes_centroid_uint8(pInput,
 1024              		.loc 1 280 5 view .LVU339
ARM GAS  /tmp/ccOerkoe.s 			page 28


 276:../Middlewares/stm32-vision-models-postprocessing/lib_vision_models_pp/Src/od_pp_yolov5.c ****     int32_t error   = AI_OD_POSTPROCESS_ERROR_NO;
 1025              		.loc 1 276 1 is_stmt 0 view .LVU340
 1026 0000 70B5     		push	{r4, r5, r6, lr}
 1027              		.cfi_def_cfa_offset 16
 1028              		.cfi_offset 4, -16
 1029              		.cfi_offset 5, -12
 1030              		.cfi_offset 6, -8
 1031              		.cfi_offset 14, -4
 276:../Middlewares/stm32-vision-models-postprocessing/lib_vision_models_pp/Src/od_pp_yolov5.c ****     int32_t error   = AI_OD_POSTPROCESS_ERROR_NO;
 1032              		.loc 1 276 1 view .LVU341
 1033 0002 0D46     		mov	r5, r1
 1034 0004 1646     		mov	r6, r2
 1035              		.loc 1 280 13 view .LVU342
 1036 0006 FFF7FEFF 		bl	yolov5_pp_getNNBoxes_centroid_uint8
 1037              	.LVL80:
 281:../Middlewares/stm32-vision-models-postprocessing/lib_vision_models_pp/Src/od_pp_yolov5.c ****                                                pOutput,
 282:../Middlewares/stm32-vision-models-postprocessing/lib_vision_models_pp/Src/od_pp_yolov5.c ****                                                pInput_static_param);
 283:../Middlewares/stm32-vision-models-postprocessing/lib_vision_models_pp/Src/od_pp_yolov5.c ****     if (error != AI_OD_POSTPROCESS_ERROR_NO) return (error);
 1038              		.loc 1 283 5 is_stmt 1 view .LVU343
 1039              		.loc 1 283 8 is_stmt 0 view .LVU344
 1040 000a 0446     		mov	r4, r0
 1041 000c 48B9     		cbnz	r0, .L65
 284:../Middlewares/stm32-vision-models-postprocessing/lib_vision_models_pp/Src/od_pp_yolov5.c **** 
 285:../Middlewares/stm32-vision-models-postprocessing/lib_vision_models_pp/Src/od_pp_yolov5.c ****     /* Then NMS */
 286:../Middlewares/stm32-vision-models-postprocessing/lib_vision_models_pp/Src/od_pp_yolov5.c ****     error = yolov5_pp_nmsFiltering_centroid(pOutput,
 1042              		.loc 1 286 5 is_stmt 1 view .LVU345
 1043              		.loc 1 286 13 is_stmt 0 view .LVU346
 1044 000e 3146     		mov	r1, r6
 1045 0010 2846     		mov	r0, r5
 1046              	.LVL81:
 1047              		.loc 1 286 13 view .LVU347
 1048 0012 FFF7FEFF 		bl	yolov5_pp_nmsFiltering_centroid
 1049              	.LVL82:
 287:../Middlewares/stm32-vision-models-postprocessing/lib_vision_models_pp/Src/od_pp_yolov5.c ****                                             pInput_static_param);
 288:../Middlewares/stm32-vision-models-postprocessing/lib_vision_models_pp/Src/od_pp_yolov5.c ****     if (error != AI_OD_POSTPROCESS_ERROR_NO) return (error);
 1050              		.loc 1 288 5 is_stmt 1 view .LVU348
 289:../Middlewares/stm32-vision-models-postprocessing/lib_vision_models_pp/Src/od_pp_yolov5.c **** 
 290:../Middlewares/stm32-vision-models-postprocessing/lib_vision_models_pp/Src/od_pp_yolov5.c ****     /* And score re-filtering */
 291:../Middlewares/stm32-vision-models-postprocessing/lib_vision_models_pp/Src/od_pp_yolov5.c ****     error = yolov5_pp_scoreFiltering_centroid(pOutput,
 1051              		.loc 1 291 5 view .LVU349
 1052              		.loc 1 291 13 is_stmt 0 view .LVU350
 1053 0016 3146     		mov	r1, r6
 1054 0018 2846     		mov	r0, r5
 1055 001a FFF7FEFF 		bl	yolov5_pp_scoreFiltering_centroid
 1056              	.LVL83:
 292:../Middlewares/stm32-vision-models-postprocessing/lib_vision_models_pp/Src/od_pp_yolov5.c ****                                               pInput_static_param);
 293:../Middlewares/stm32-vision-models-postprocessing/lib_vision_models_pp/Src/od_pp_yolov5.c **** 
 294:../Middlewares/stm32-vision-models-postprocessing/lib_vision_models_pp/Src/od_pp_yolov5.c ****     return (error);
 1057              		.loc 1 294 5 is_stmt 1 view .LVU351
 1058              	.L63:
 295:../Middlewares/stm32-vision-models-postprocessing/lib_vision_models_pp/Src/od_pp_yolov5.c **** }
 1059              		.loc 1 295 1 is_stmt 0 view .LVU352
 1060 001e 2046     		mov	r0, r4
 1061 0020 70BD     		pop	{r4, r5, r6, pc}
 1062              	.LVL84:
 1063              	.L65:
 283:../Middlewares/stm32-vision-models-postprocessing/lib_vision_models_pp/Src/od_pp_yolov5.c **** 
ARM GAS  /tmp/ccOerkoe.s 			page 29


 1064              		.loc 1 283 53 discriminator 1 view .LVU353
 1065 0022 6FF00104 		mvn	r4, #1
 1066 0026 FAE7     		b	.L63
 1067              		.cfi_endproc
 1068              	.LFE781:
 1070              		.section	.bss.AI_YOLOV5_PP_SORT_CLASS,"aw",%nobits
 1071              		.align	2
 1074              	AI_YOLOV5_PP_SORT_CLASS:
 1075 0000 00000000 		.space	4
 1076              		.text
 1077              	.Letext0:
 1078              		.file 2 "/opt/st/stm32cubeclt_1.21.0/GNU-tools-for-STM32/arm-none-eabi/include/machine/_default_ty
 1079              		.file 3 "/opt/st/stm32cubeclt_1.21.0/GNU-tools-for-STM32/arm-none-eabi/include/sys/_stdint.h"
 1080              		.file 4 "/opt/st/stm32cubeclt_1.21.0/GNU-tools-for-STM32/lib/gcc/arm-none-eabi/14.3.1/include/stdd
 1081              		.file 5 "/opt/st/stm32cubeclt_1.21.0/GNU-tools-for-STM32/lib/gcc/arm-none-eabi/14.3.1/include/arm_
 1082              		.file 6 "../Middlewares/stm32-vision-models-postprocessing/lib_vision_models_pp/Inc/od_pp_output_i
 1083              		.file 7 "../Middlewares/stm32-vision-models-postprocessing/lib_vision_models_pp/Inc/od_yolov5_pp_i
 1084              		.file 8 "../Middlewares/stm32-vision-models-postprocessing/lib_vision_models_pp/Src/vision_models_
ARM GAS  /tmp/ccOerkoe.s 			page 30

