ARM GAS  /tmp/ccF7Geq9.s 			page 1


   1              		.arch armv8.1-m.main
   2              		.fpu fpv5-d16
   3              		.arch_extension dsp
   4              		.arch_extension fp
   5              		.arch_extension fp.dp
   6              		.arch_extension mve
   7              		.arch_extension mve.fp
   8              		.eabi_attribute 5, "cortex-m55"
   9              		.eabi_attribute 28, 1
  10              		.eabi_attribute 20, 1
  11              		.eabi_attribute 21, 1
  12              		.eabi_attribute 23, 3
  13              		.eabi_attribute 24, 1
  14              		.eabi_attribute 25, 1
  15              		.eabi_attribute 26, 1
  16              		.eabi_attribute 30, 4
  17              		.eabi_attribute 34, 1
  18              		.eabi_attribute 38, 1
  19              		.eabi_attribute 18, 4
  20              		.file	"od_pp_ssd.c"
  21              		.text
  22              	.Ltext0:
  23              		.cfi_sections	.debug_frame
  24              		.file 1 "../Middlewares/stm32-vision-models-postprocessing/lib_vision_models_pp/Src/od_pp_ssd.c"
  25              		.section	.text.ssd_nms_comparator,"ax",%progbits
  26              		.align	1
  27              		.global	ssd_nms_comparator
  28              		.syntax unified
  29              		.thumb
  30              		.thumb_func
  32              	ssd_nms_comparator:
  33              	.LVL0:
  34              	.LFB774:
   1:../Middlewares/stm32-vision-models-postprocessing/lib_vision_models_pp/Src/od_pp_ssd.c **** /*---------------------------------------------------------------------------------------------
   2:../Middlewares/stm32-vision-models-postprocessing/lib_vision_models_pp/Src/od_pp_ssd.c ****  * Copyright (c) 2023 STMicroelectronics.
   3:../Middlewares/stm32-vision-models-postprocessing/lib_vision_models_pp/Src/od_pp_ssd.c ****  * All rights reserved.
   4:../Middlewares/stm32-vision-models-postprocessing/lib_vision_models_pp/Src/od_pp_ssd.c ****  *
   5:../Middlewares/stm32-vision-models-postprocessing/lib_vision_models_pp/Src/od_pp_ssd.c ****  * This software is licensed under terms that can be found in the LICENSE file in
   6:../Middlewares/stm32-vision-models-postprocessing/lib_vision_models_pp/Src/od_pp_ssd.c ****  * the root directory of this software component.
   7:../Middlewares/stm32-vision-models-postprocessing/lib_vision_models_pp/Src/od_pp_ssd.c ****  * If no LICENSE file comes with this software, it is provided AS-IS.
   8:../Middlewares/stm32-vision-models-postprocessing/lib_vision_models_pp/Src/od_pp_ssd.c ****  *--------------------------------------------------------------------------------------------*/
   9:../Middlewares/stm32-vision-models-postprocessing/lib_vision_models_pp/Src/od_pp_ssd.c **** 
  10:../Middlewares/stm32-vision-models-postprocessing/lib_vision_models_pp/Src/od_pp_ssd.c **** #include "od_pp_loc.h"
  11:../Middlewares/stm32-vision-models-postprocessing/lib_vision_models_pp/Src/od_pp_ssd.c **** #include "od_ssd_pp_if.h"
  12:../Middlewares/stm32-vision-models-postprocessing/lib_vision_models_pp/Src/od_pp_ssd.c **** #include "vision_models_pp.h"
  13:../Middlewares/stm32-vision-models-postprocessing/lib_vision_models_pp/Src/od_pp_ssd.c **** 
  14:../Middlewares/stm32-vision-models-postprocessing/lib_vision_models_pp/Src/od_pp_ssd.c **** /* Can't be removed if qsort is not re-written... */
  15:../Middlewares/stm32-vision-models-postprocessing/lib_vision_models_pp/Src/od_pp_ssd.c **** static int32_t AI_SSD_PP_SORT_CLASS;
  16:../Middlewares/stm32-vision-models-postprocessing/lib_vision_models_pp/Src/od_pp_ssd.c **** 
  17:../Middlewares/stm32-vision-models-postprocessing/lib_vision_models_pp/Src/od_pp_ssd.c **** int32_t ssd_nms_comparator(const void *pa, const void *pb)
  18:../Middlewares/stm32-vision-models-postprocessing/lib_vision_models_pp/Src/od_pp_ssd.c **** {
  35              		.loc 1 18 1 view -0
  36              		.cfi_startproc
  37              		@ args = 0, pretend = 0, frame = 0
  38              		@ frame_needed = 0, uses_anonymous_args = 0
  39              		@ link register save eliminated.
  19:../Middlewares/stm32-vision-models-postprocessing/lib_vision_models_pp/Src/od_pp_ssd.c ****   od_pp_outBuffer_t *pa_s = (od_pp_outBuffer_t *)pa;
ARM GAS  /tmp/ccF7Geq9.s 			page 2


  40              		.loc 1 19 3 view .LVU1
  20:../Middlewares/stm32-vision-models-postprocessing/lib_vision_models_pp/Src/od_pp_ssd.c ****   od_pp_outBuffer_t *pb_s = (od_pp_outBuffer_t *)pb;
  41              		.loc 1 20 3 view .LVU2
  21:../Middlewares/stm32-vision-models-postprocessing/lib_vision_models_pp/Src/od_pp_ssd.c ****   float32_t a = (pa_s->class_index == AI_SSD_PP_SORT_CLASS) ? pa_s->conf : 0;
  42              		.loc 1 21 3 view .LVU3
  43              		.loc 1 21 36 is_stmt 0 view .LVU4
  44 0000 0E4B     		ldr	r3, .L8
  45              		.loc 1 21 74 view .LVU5
  46 0002 4269     		ldr	r2, [r0, #20]
  47              		.loc 1 21 36 view .LVU6
  48 0004 1B68     		ldr	r3, [r3]
  49              		.loc 1 21 74 view .LVU7
  50 0006 9A42     		cmp	r2, r3
  22:../Middlewares/stm32-vision-models-postprocessing/lib_vision_models_pp/Src/od_pp_ssd.c ****   float32_t b = (pb_s->class_index == AI_SSD_PP_SORT_CLASS) ? pb_s->conf : 0;
  51              		.loc 1 22 74 view .LVU8
  52 0008 4A69     		ldr	r2, [r1, #20]
  21:../Middlewares/stm32-vision-models-postprocessing/lib_vision_models_pp/Src/od_pp_ssd.c ****   float32_t a = (pa_s->class_index == AI_SSD_PP_SORT_CLASS) ? pa_s->conf : 0;
  53              		.loc 1 21 74 discriminator 1 view .LVU9
  54 000a 0CBF     		ite	eq
  55 000c D0ED047A 		vldreq.32	s15, [r0, #16]
  21:../Middlewares/stm32-vision-models-postprocessing/lib_vision_models_pp/Src/od_pp_ssd.c ****   float32_t a = (pa_s->class_index == AI_SSD_PP_SORT_CLASS) ? pa_s->conf : 0;
  56              		.loc 1 21 74 discriminator 2 view .LVU10
  57 0010 DFED0B7A 		vldrne.32	s15, .L8+4
  58              	.LVL1:
  59              		.loc 1 22 3 is_stmt 1 view .LVU11
  60              		.loc 1 22 74 is_stmt 0 view .LVU12
  61 0014 9342     		cmp	r3, r2
  62              		.loc 1 22 74 discriminator 1 view .LVU13
  63 0016 0CBF     		ite	eq
  64 0018 91ED047A 		vldreq.32	s14, [r1, #16]
  65              		.loc 1 22 74 discriminator 2 view .LVU14
  66 001c 9FED087A 		vldrne.32	s14, .L8+4
  67              	.LVL2:
  23:../Middlewares/stm32-vision-models-postprocessing/lib_vision_models_pp/Src/od_pp_ssd.c ****   float32_t diff = 0;
  68              		.loc 1 23 3 is_stmt 1 view .LVU15
  24:../Middlewares/stm32-vision-models-postprocessing/lib_vision_models_pp/Src/od_pp_ssd.c **** 
  25:../Middlewares/stm32-vision-models-postprocessing/lib_vision_models_pp/Src/od_pp_ssd.c ****   diff = a - b;
  69              		.loc 1 25 3 view .LVU16
  70              		.loc 1 25 8 is_stmt 0 view .LVU17
  71 0020 77EEC77A 		vsub.f32	s15, s15, s14
  72              	.LVL3:
  26:../Middlewares/stm32-vision-models-postprocessing/lib_vision_models_pp/Src/od_pp_ssd.c **** 
  27:../Middlewares/stm32-vision-models-postprocessing/lib_vision_models_pp/Src/od_pp_ssd.c ****   if (diff < 0) return 1;
  73              		.loc 1 27 3 is_stmt 1 view .LVU18
  74              		.loc 1 27 6 is_stmt 0 view .LVU19
  75 0024 F5EEC07A 		vcmpe.f32	s15, #0
  76 0028 F1EE10FA 		vmrs	APSR_nzcv, FPSCR
  77 002c 04D4     		bmi	.L7
  78              	.LVL4:
  28:../Middlewares/stm32-vision-models-postprocessing/lib_vision_models_pp/Src/od_pp_ssd.c ****   else if (diff > 0) return -1;
  79              		.loc 1 28 8 is_stmt 1 view .LVU20
  80              		.loc 1 28 11 is_stmt 0 view .LVU21
  81 002e CCBF     		ite	gt
  82 0030 4FF0FF30 		movgt	r0, #-1
  83              	.LVL5:
  84              		.loc 1 28 11 view .LVU22
  85 0034 0020     		movle	r0, #0
ARM GAS  /tmp/ccF7Geq9.s 			page 3


  86 0036 7047     		bx	lr
  87              	.LVL6:
  88              	.L7:
  27:../Middlewares/stm32-vision-models-postprocessing/lib_vision_models_pp/Src/od_pp_ssd.c ****   else if (diff > 0) return -1;
  89              		.loc 1 27 24 discriminator 1 view .LVU23
  90 0038 0120     		movs	r0, #1
  91              	.LVL7:
  29:../Middlewares/stm32-vision-models-postprocessing/lib_vision_models_pp/Src/od_pp_ssd.c ****   return 0;
  30:../Middlewares/stm32-vision-models-postprocessing/lib_vision_models_pp/Src/od_pp_ssd.c **** }
  92              		.loc 1 30 1 view .LVU24
  93 003a 7047     		bx	lr
  94              	.L9:
  95              		.align	2
  96              	.L8:
  97 003c 00000000 		.word	AI_SSD_PP_SORT_CLASS
  98 0040 00000000 		.word	0
  99              		.cfi_endproc
 100              	.LFE774:
 102              		.section	.text.SSD_quick_sort_core.constprop.0,"ax",%progbits
 103              		.align	1
 104              		.syntax unified
 105              		.thumb
 106              		.thumb_func
 108              	SSD_quick_sort_core.constprop.0:
 109              	.LVL8:
 110              	.LFB787:
  31:../Middlewares/stm32-vision-models-postprocessing/lib_vision_models_pp/Src/od_pp_ssd.c **** 
  32:../Middlewares/stm32-vision-models-postprocessing/lib_vision_models_pp/Src/od_pp_ssd.c **** static int32_t SSD_quick_sort_partition(float32_t *pScores,
  33:../Middlewares/stm32-vision-models-postprocessing/lib_vision_models_pp/Src/od_pp_ssd.c ****                                         float32_t *pBoxes,
  34:../Middlewares/stm32-vision-models-postprocessing/lib_vision_models_pp/Src/od_pp_ssd.c ****                                         int32_t first,
  35:../Middlewares/stm32-vision-models-postprocessing/lib_vision_models_pp/Src/od_pp_ssd.c ****                                         int32_t last,
  36:../Middlewares/stm32-vision-models-postprocessing/lib_vision_models_pp/Src/od_pp_ssd.c ****                                         int32_t dir,
  37:../Middlewares/stm32-vision-models-postprocessing/lib_vision_models_pp/Src/od_pp_ssd.c ****                                         int32_t ssd_sort_class,
  38:../Middlewares/stm32-vision-models-postprocessing/lib_vision_models_pp/Src/od_pp_ssd.c ****                                         int32_t ssd_nb_classes)
  39:../Middlewares/stm32-vision-models-postprocessing/lib_vision_models_pp/Src/od_pp_ssd.c **** {
  40:../Middlewares/stm32-vision-models-postprocessing/lib_vision_models_pp/Src/od_pp_ssd.c ****     int32_t i, j, pivot_index;
  41:../Middlewares/stm32-vision-models-postprocessing/lib_vision_models_pp/Src/od_pp_ssd.c ****     float32_t pivot;
  42:../Middlewares/stm32-vision-models-postprocessing/lib_vision_models_pp/Src/od_pp_ssd.c ****     pivot_index = first;
  43:../Middlewares/stm32-vision-models-postprocessing/lib_vision_models_pp/Src/od_pp_ssd.c ****     pivot = pScores[pivot_index * ssd_nb_classes + ssd_sort_class];
  44:../Middlewares/stm32-vision-models-postprocessing/lib_vision_models_pp/Src/od_pp_ssd.c ****     i = first - 1;
  45:../Middlewares/stm32-vision-models-postprocessing/lib_vision_models_pp/Src/od_pp_ssd.c ****     j = last + 1;
  46:../Middlewares/stm32-vision-models-postprocessing/lib_vision_models_pp/Src/od_pp_ssd.c **** 
  47:../Middlewares/stm32-vision-models-postprocessing/lib_vision_models_pp/Src/od_pp_ssd.c ****     while (i < j)
  48:../Middlewares/stm32-vision-models-postprocessing/lib_vision_models_pp/Src/od_pp_ssd.c ****     {
  49:../Middlewares/stm32-vision-models-postprocessing/lib_vision_models_pp/Src/od_pp_ssd.c ****         if (dir)
  50:../Middlewares/stm32-vision-models-postprocessing/lib_vision_models_pp/Src/od_pp_ssd.c ****         {
  51:../Middlewares/stm32-vision-models-postprocessing/lib_vision_models_pp/Src/od_pp_ssd.c ****             do
  52:../Middlewares/stm32-vision-models-postprocessing/lib_vision_models_pp/Src/od_pp_ssd.c ****             {
  53:../Middlewares/stm32-vision-models-postprocessing/lib_vision_models_pp/Src/od_pp_ssd.c ****                 i++;
  54:../Middlewares/stm32-vision-models-postprocessing/lib_vision_models_pp/Src/od_pp_ssd.c ****             } while ((pScores[i * ssd_nb_classes + ssd_sort_class] < pivot) &&
  55:../Middlewares/stm32-vision-models-postprocessing/lib_vision_models_pp/Src/od_pp_ssd.c ****                      (i < last));
  56:../Middlewares/stm32-vision-models-postprocessing/lib_vision_models_pp/Src/od_pp_ssd.c ****             do
  57:../Middlewares/stm32-vision-models-postprocessing/lib_vision_models_pp/Src/od_pp_ssd.c ****             {
  58:../Middlewares/stm32-vision-models-postprocessing/lib_vision_models_pp/Src/od_pp_ssd.c ****                 j--;
  59:../Middlewares/stm32-vision-models-postprocessing/lib_vision_models_pp/Src/od_pp_ssd.c ****             } while (pScores[j * ssd_nb_classes + ssd_sort_class] > pivot);
  60:../Middlewares/stm32-vision-models-postprocessing/lib_vision_models_pp/Src/od_pp_ssd.c ****         }
  61:../Middlewares/stm32-vision-models-postprocessing/lib_vision_models_pp/Src/od_pp_ssd.c ****         else
ARM GAS  /tmp/ccF7Geq9.s 			page 4


  62:../Middlewares/stm32-vision-models-postprocessing/lib_vision_models_pp/Src/od_pp_ssd.c ****         {
  63:../Middlewares/stm32-vision-models-postprocessing/lib_vision_models_pp/Src/od_pp_ssd.c ****             do
  64:../Middlewares/stm32-vision-models-postprocessing/lib_vision_models_pp/Src/od_pp_ssd.c ****             {
  65:../Middlewares/stm32-vision-models-postprocessing/lib_vision_models_pp/Src/od_pp_ssd.c ****                 i++;
  66:../Middlewares/stm32-vision-models-postprocessing/lib_vision_models_pp/Src/od_pp_ssd.c ****             } while ((pScores[i * ssd_nb_classes + ssd_sort_class] > pivot) &&
  67:../Middlewares/stm32-vision-models-postprocessing/lib_vision_models_pp/Src/od_pp_ssd.c ****                      (i < last));
  68:../Middlewares/stm32-vision-models-postprocessing/lib_vision_models_pp/Src/od_pp_ssd.c ****             do
  69:../Middlewares/stm32-vision-models-postprocessing/lib_vision_models_pp/Src/od_pp_ssd.c ****             {
  70:../Middlewares/stm32-vision-models-postprocessing/lib_vision_models_pp/Src/od_pp_ssd.c ****                 j--;
  71:../Middlewares/stm32-vision-models-postprocessing/lib_vision_models_pp/Src/od_pp_ssd.c ****             } while (pScores[j * ssd_nb_classes + ssd_sort_class] < pivot);
  72:../Middlewares/stm32-vision-models-postprocessing/lib_vision_models_pp/Src/od_pp_ssd.c ****         }
  73:../Middlewares/stm32-vision-models-postprocessing/lib_vision_models_pp/Src/od_pp_ssd.c **** 
  74:../Middlewares/stm32-vision-models-postprocessing/lib_vision_models_pp/Src/od_pp_ssd.c ****         if (i < j)
  75:../Middlewares/stm32-vision-models-postprocessing/lib_vision_models_pp/Src/od_pp_ssd.c ****         {
  76:../Middlewares/stm32-vision-models-postprocessing/lib_vision_models_pp/Src/od_pp_ssd.c ****             for (int _i = 0; _i < AI_SSD_PP_BOX_STRIDE; _i++){
  77:../Middlewares/stm32-vision-models-postprocessing/lib_vision_models_pp/Src/od_pp_ssd.c ****               float32_t _tmp = pBoxes[i * AI_SSD_PP_BOX_STRIDE + _i];
  78:../Middlewares/stm32-vision-models-postprocessing/lib_vision_models_pp/Src/od_pp_ssd.c ****               pBoxes[i * AI_SSD_PP_BOX_STRIDE + _i] = pBoxes[j * AI_SSD_PP_BOX_STRIDE + _i];
  79:../Middlewares/stm32-vision-models-postprocessing/lib_vision_models_pp/Src/od_pp_ssd.c ****               pBoxes[j * AI_SSD_PP_BOX_STRIDE + _i] = _tmp;
  80:../Middlewares/stm32-vision-models-postprocessing/lib_vision_models_pp/Src/od_pp_ssd.c ****             }
  81:../Middlewares/stm32-vision-models-postprocessing/lib_vision_models_pp/Src/od_pp_ssd.c ****             for (int _i = 0; _i < ssd_nb_classes; _i++){
  82:../Middlewares/stm32-vision-models-postprocessing/lib_vision_models_pp/Src/od_pp_ssd.c ****               float32_t _tmp = pScores[i * ssd_nb_classes + _i];
  83:../Middlewares/stm32-vision-models-postprocessing/lib_vision_models_pp/Src/od_pp_ssd.c ****               pScores[i * ssd_nb_classes + _i] = pScores[j * ssd_nb_classes + _i];
  84:../Middlewares/stm32-vision-models-postprocessing/lib_vision_models_pp/Src/od_pp_ssd.c ****               pScores[j * ssd_nb_classes + _i] = _tmp;
  85:../Middlewares/stm32-vision-models-postprocessing/lib_vision_models_pp/Src/od_pp_ssd.c ****             }
  86:../Middlewares/stm32-vision-models-postprocessing/lib_vision_models_pp/Src/od_pp_ssd.c ****         }
  87:../Middlewares/stm32-vision-models-postprocessing/lib_vision_models_pp/Src/od_pp_ssd.c ****     }
  88:../Middlewares/stm32-vision-models-postprocessing/lib_vision_models_pp/Src/od_pp_ssd.c ****     return j;
  89:../Middlewares/stm32-vision-models-postprocessing/lib_vision_models_pp/Src/od_pp_ssd.c **** }
  90:../Middlewares/stm32-vision-models-postprocessing/lib_vision_models_pp/Src/od_pp_ssd.c **** 
  91:../Middlewares/stm32-vision-models-postprocessing/lib_vision_models_pp/Src/od_pp_ssd.c **** static void SSD_quick_sort_core(float32_t *pScores,
 111              		.loc 1 91 13 is_stmt 1 view -0
 112              		.cfi_startproc
 113              		@ args = 8, pretend = 0, frame = 16
 114              		@ frame_needed = 0, uses_anonymous_args = 0
 115              		.loc 1 91 13 is_stmt 0 view .LVU26
 116 0000 2DE9F04F 		push	{r4, r5, r6, r7, r8, r9, r10, fp, lr}
 117              		.cfi_def_cfa_offset 36
 118              		.cfi_offset 4, -36
 119              		.cfi_offset 5, -32
 120              		.cfi_offset 6, -28
 121              		.cfi_offset 7, -24
 122              		.cfi_offset 8, -20
 123              		.cfi_offset 9, -16
 124              		.cfi_offset 10, -12
 125              		.cfi_offset 11, -8
 126              		.cfi_offset 14, -4
 127 0004 87B0     		sub	sp, sp, #28
 128              		.cfi_def_cfa_offset 64
 129              		.loc 1 91 13 view .LVU27
 130 0006 DDE91084 		ldrd	r8, r4, [sp, #64]
 131 000a 1F46     		mov	r7, r3
 132 000c 4FEA8803 		lsl	r3, r8, #2
 133              	.LVL9:
 134              		.loc 1 91 13 view .LVU28
 135 0010 0493     		str	r3, [sp, #16]
 136 0012 6FF00303 		mvn	r3, #3
 137 0016 0646     		mov	r6, r0
ARM GAS  /tmp/ccF7Geq9.s 			page 5


 138 0018 8946     		mov	r9, r1
 139 001a 6343     		muls	r3, r4, r3
 140 001c 0393     		str	r3, [sp, #12]
 141              	.LVL10:
 142              	.L21:
  92:../Middlewares/stm32-vision-models-postprocessing/lib_vision_models_pp/Src/od_pp_ssd.c ****                                 float32_t *pBoxes,
  93:../Middlewares/stm32-vision-models-postprocessing/lib_vision_models_pp/Src/od_pp_ssd.c ****                                 int32_t first,
  94:../Middlewares/stm32-vision-models-postprocessing/lib_vision_models_pp/Src/od_pp_ssd.c ****                                 int32_t last,
  95:../Middlewares/stm32-vision-models-postprocessing/lib_vision_models_pp/Src/od_pp_ssd.c ****                                 int32_t dir,
  96:../Middlewares/stm32-vision-models-postprocessing/lib_vision_models_pp/Src/od_pp_ssd.c ****                                 int32_t ssd_sort_class,
  97:../Middlewares/stm32-vision-models-postprocessing/lib_vision_models_pp/Src/od_pp_ssd.c ****                                 int32_t ssd_nb_classes)
  98:../Middlewares/stm32-vision-models-postprocessing/lib_vision_models_pp/Src/od_pp_ssd.c **** {
  99:../Middlewares/stm32-vision-models-postprocessing/lib_vision_models_pp/Src/od_pp_ssd.c ****     /*
 100:../Middlewares/stm32-vision-models-postprocessing/lib_vision_models_pp/Src/od_pp_ssd.c ****      dir 0  : descending
 101:../Middlewares/stm32-vision-models-postprocessing/lib_vision_models_pp/Src/od_pp_ssd.c ****      dir 1  : ascending
 102:../Middlewares/stm32-vision-models-postprocessing/lib_vision_models_pp/Src/od_pp_ssd.c ****     */
 103:../Middlewares/stm32-vision-models-postprocessing/lib_vision_models_pp/Src/od_pp_ssd.c ****     if (first < last)
 143              		.loc 1 103 5 is_stmt 1 view .LVU29
 144              		.loc 1 103 8 is_stmt 0 view .LVU30
 145 001e BA42     		cmp	r2, r7
 146 0020 6ADA     		bge	.L10
 147              	.LBB14:
 104:../Middlewares/stm32-vision-models-postprocessing/lib_vision_models_pp/Src/od_pp_ssd.c ****     {
 105:../Middlewares/stm32-vision-models-postprocessing/lib_vision_models_pp/Src/od_pp_ssd.c ****         int32_t pivot;
 148              		.loc 1 105 9 is_stmt 1 view .LVU31
 106:../Middlewares/stm32-vision-models-postprocessing/lib_vision_models_pp/Src/od_pp_ssd.c ****         pivot = SSD_quick_sort_partition(pScores,
 149              		.loc 1 106 9 view .LVU32
 150              	.LVL11:
 151              	.LBB15:
 152              	.LBI15:
  32:../Middlewares/stm32-vision-models-postprocessing/lib_vision_models_pp/Src/od_pp_ssd.c ****                                         float32_t *pBoxes,
 153              		.loc 1 32 16 view .LVU33
 154              	.LBB16:
  40:../Middlewares/stm32-vision-models-postprocessing/lib_vision_models_pp/Src/od_pp_ssd.c ****     float32_t pivot;
 155              		.loc 1 40 5 view .LVU34
  41:../Middlewares/stm32-vision-models-postprocessing/lib_vision_models_pp/Src/od_pp_ssd.c ****     pivot_index = first;
 156              		.loc 1 41 5 view .LVU35
  42:../Middlewares/stm32-vision-models-postprocessing/lib_vision_models_pp/Src/od_pp_ssd.c ****     pivot = pScores[pivot_index * ssd_nb_classes + ssd_sort_class];
 157              		.loc 1 42 5 view .LVU36
  43:../Middlewares/stm32-vision-models-postprocessing/lib_vision_models_pp/Src/od_pp_ssd.c ****     i = first - 1;
 158              		.loc 1 43 5 view .LVU37
  43:../Middlewares/stm32-vision-models-postprocessing/lib_vision_models_pp/Src/od_pp_ssd.c ****     i = first - 1;
 159              		.loc 1 43 20 is_stmt 0 view .LVU38
 160 0022 04FB0283 		mla	r3, r4, r2, r8
  43:../Middlewares/stm32-vision-models-postprocessing/lib_vision_models_pp/Src/od_pp_ssd.c ****     i = first - 1;
 161              		.loc 1 43 11 view .LVU39
 162 0026 06EB8303 		add	r3, r6, r3, lsl #2
 163 002a D3ED007A 		vldr.32	s15, [r3]
 164              	.LVL12:
  44:../Middlewares/stm32-vision-models-postprocessing/lib_vision_models_pp/Src/od_pp_ssd.c ****     j = last + 1;
 165              		.loc 1 44 5 is_stmt 1 view .LVU40
  44:../Middlewares/stm32-vision-models-postprocessing/lib_vision_models_pp/Src/od_pp_ssd.c ****     j = last + 1;
 166              		.loc 1 44 7 is_stmt 0 view .LVU41
 167 002e 501E     		subs	r0, r2, #1
 168              	.LVL13:
  45:../Middlewares/stm32-vision-models-postprocessing/lib_vision_models_pp/Src/od_pp_ssd.c **** 
 169              		.loc 1 45 5 is_stmt 1 view .LVU42
ARM GAS  /tmp/ccF7Geq9.s 			page 6


  45:../Middlewares/stm32-vision-models-postprocessing/lib_vision_models_pp/Src/od_pp_ssd.c **** 
 170              		.loc 1 45 7 is_stmt 0 view .LVU43
 171 0030 7D1C     		adds	r5, r7, #1
 172              	.LVL14:
  47:../Middlewares/stm32-vision-models-postprocessing/lib_vision_models_pp/Src/od_pp_ssd.c ****     {
 173              		.loc 1 47 5 is_stmt 1 view .LVU44
 174              	.L12:
  47:../Middlewares/stm32-vision-models-postprocessing/lib_vision_models_pp/Src/od_pp_ssd.c ****     {
 175              		.loc 1 47 14 view .LVU45
 176 0032 A842     		cmp	r0, r5
 177 0034 08DB     		blt	.L20
 178              	.L29:
  88:../Middlewares/stm32-vision-models-postprocessing/lib_vision_models_pp/Src/od_pp_ssd.c **** }
 179              		.loc 1 88 5 view .LVU46
 180              	.LVL15:
  88:../Middlewares/stm32-vision-models-postprocessing/lib_vision_models_pp/Src/od_pp_ssd.c **** }
 181              		.loc 1 88 5 is_stmt 0 view .LVU47
 182              	.LBE16:
 183              	.LBE15:
 107:../Middlewares/stm32-vision-models-postprocessing/lib_vision_models_pp/Src/od_pp_ssd.c ****                                          pBoxes,
 108:../Middlewares/stm32-vision-models-postprocessing/lib_vision_models_pp/Src/od_pp_ssd.c ****                                          first,
 109:../Middlewares/stm32-vision-models-postprocessing/lib_vision_models_pp/Src/od_pp_ssd.c ****                                          last,
 110:../Middlewares/stm32-vision-models-postprocessing/lib_vision_models_pp/Src/od_pp_ssd.c ****                                          dir,
 111:../Middlewares/stm32-vision-models-postprocessing/lib_vision_models_pp/Src/od_pp_ssd.c ****                                          ssd_sort_class,
 112:../Middlewares/stm32-vision-models-postprocessing/lib_vision_models_pp/Src/od_pp_ssd.c ****                                          ssd_nb_classes);
 113:../Middlewares/stm32-vision-models-postprocessing/lib_vision_models_pp/Src/od_pp_ssd.c ****         SSD_quick_sort_core(pScores,
 184              		.loc 1 113 9 is_stmt 1 view .LVU48
 185 0036 2B46     		mov	r3, r5
 186 0038 4946     		mov	r1, r9
 187 003a 3046     		mov	r0, r6
 188 003c CDE90084 		strd	r8, r4, [sp]
 189 0040 FFF7DEFF 		bl	SSD_quick_sort_core.constprop.0
 190              	.LVL16:
 114:../Middlewares/stm32-vision-models-postprocessing/lib_vision_models_pp/Src/od_pp_ssd.c ****                             pBoxes,
 115:../Middlewares/stm32-vision-models-postprocessing/lib_vision_models_pp/Src/od_pp_ssd.c ****                             first,
 116:../Middlewares/stm32-vision-models-postprocessing/lib_vision_models_pp/Src/od_pp_ssd.c ****                             pivot,
 117:../Middlewares/stm32-vision-models-postprocessing/lib_vision_models_pp/Src/od_pp_ssd.c ****                             dir,
 118:../Middlewares/stm32-vision-models-postprocessing/lib_vision_models_pp/Src/od_pp_ssd.c ****                             ssd_sort_class,
 119:../Middlewares/stm32-vision-models-postprocessing/lib_vision_models_pp/Src/od_pp_ssd.c ****                             ssd_nb_classes);
 120:../Middlewares/stm32-vision-models-postprocessing/lib_vision_models_pp/Src/od_pp_ssd.c ****         SSD_quick_sort_core(pScores,
 191              		.loc 1 120 9 view .LVU49
 121:../Middlewares/stm32-vision-models-postprocessing/lib_vision_models_pp/Src/od_pp_ssd.c ****                             pBoxes,
 122:../Middlewares/stm32-vision-models-postprocessing/lib_vision_models_pp/Src/od_pp_ssd.c ****                             pivot + 1,
 192              		.loc 1 122 35 is_stmt 0 view .LVU50
 193 0044 6A1C     		adds	r2, r5, #1
 194 0046 EAE7     		b	.L21
 195              	.LVL17:
 196              	.L20:
 197              		.loc 1 122 35 view .LVU51
 198 0048 411C     		adds	r1, r0, #1
 199 004a B942     		cmp	r1, r7
 200 004c 00FB044C 		mla	ip, r0, r4, r4
 201 0050 A7EB0003 		sub	r3, r7, r0
 202 0054 02DC     		bgt	.L27
 203 0056 B7F1004F 		cmp	r7, #-2147483648
 204 005a 00D1     		bne	.L15
 205              	.L27:
ARM GAS  /tmp/ccF7Geq9.s 			page 7


 206 005c 0123     		movs	r3, #1
 207              	.L15:
 208              	.LBB22:
 209              	.LBB21:
  63:../Middlewares/stm32-vision-models-postprocessing/lib_vision_models_pp/Src/od_pp_ssd.c ****             {
 210              		.loc 1 63 13 is_stmt 1 view .LVU52
  65:../Middlewares/stm32-vision-models-postprocessing/lib_vision_models_pp/Src/od_pp_ssd.c ****             } while ((pScores[i * ssd_nb_classes + ssd_sort_class] > pivot) &&
 211              		.loc 1 65 17 view .LVU53
 212 005e 4FEA8C01 		lsl	r1, ip, #2
 213 0062 0591     		str	r1, [sp, #20]
  66:../Middlewares/stm32-vision-models-postprocessing/lib_vision_models_pp/Src/od_pp_ssd.c ****                      (i < last));
 214              		.loc 1 66 30 is_stmt 0 discriminator 2 view .LVU54
 215 0064 0499     		ldr	r1, [sp, #16]
  65:../Middlewares/stm32-vision-models-postprocessing/lib_vision_models_pp/Src/od_pp_ssd.c ****             } while ((pScores[i * ssd_nb_classes + ssd_sort_class] > pivot) &&
 216              		.loc 1 65 18 view .LVU55
 217 0066 0130     		adds	r0, r0, #1
 218              	.LVL18:
  66:../Middlewares/stm32-vision-models-postprocessing/lib_vision_models_pp/Src/od_pp_ssd.c ****                      (i < last));
 219              		.loc 1 66 77 is_stmt 1 discriminator 2 view .LVU56
  66:../Middlewares/stm32-vision-models-postprocessing/lib_vision_models_pp/Src/od_pp_ssd.c ****                      (i < last));
 220              		.loc 1 66 30 is_stmt 0 discriminator 2 view .LVU57
 221 0068 01EB8C0E 		add	lr, r1, ip, lsl #2
 222 006c B644     		add	lr, lr, r6
  66:../Middlewares/stm32-vision-models-postprocessing/lib_vision_models_pp/Src/od_pp_ssd.c ****                      (i < last));
 223              		.loc 1 66 77 discriminator 2 view .LVU58
 224 006e 9EED007A 		vldr.32	s14, [lr]
 225 0072 F4EEC77A 		vcmpe.f32	s15, s14
 226 0076 F1EE10FA 		vmrs	APSR_nzcv, FPSCR
 227 007a 02D5     		bpl	.L13
  66:../Middlewares/stm32-vision-models-postprocessing/lib_vision_models_pp/Src/od_pp_ssd.c ****                      (i < last));
 228              		.loc 1 66 77 discriminator 1 view .LVU59
 229 007c 013B     		subs	r3, r3, #1
 230 007e A444     		add	ip, ip, r4
 231 0080 EDD1     		bne	.L15
 232              	.L13:
  66:../Middlewares/stm32-vision-models-postprocessing/lib_vision_models_pp/Src/od_pp_ssd.c ****                      (i < last));
 233              		.loc 1 66 77 discriminator 1 view .LVU60
 234 0082 05F1FF3E 		add	lr, r5, #-1
 235 0086 04FB0EFE 		mul	lr, r4, lr
 236 008a 08EB0E0C 		add	ip, r8, lr
 237 008e 06EB8C0C 		add	ip, r6, ip, lsl #2
 238              	.L16:
  68:../Middlewares/stm32-vision-models-postprocessing/lib_vision_models_pp/Src/od_pp_ssd.c ****             {
 239              		.loc 1 68 13 is_stmt 1 view .LVU61
  70:../Middlewares/stm32-vision-models-postprocessing/lib_vision_models_pp/Src/od_pp_ssd.c ****             } while (pScores[j * ssd_nb_classes + ssd_sort_class] < pivot);
 240              		.loc 1 70 17 view .LVU62
  71:../Middlewares/stm32-vision-models-postprocessing/lib_vision_models_pp/Src/od_pp_ssd.c ****         }
 241              		.loc 1 71 29 is_stmt 0 discriminator 1 view .LVU63
 242 0092 9CED007A 		vldr.32	s14, [ip]
  71:../Middlewares/stm32-vision-models-postprocessing/lib_vision_models_pp/Src/od_pp_ssd.c ****         }
 243              		.loc 1 71 67 discriminator 1 view .LVU64
 244 0096 F4EEC77A 		vcmpe.f32	s15, s14
 245 009a F1EE10FA 		vmrs	APSR_nzcv, FPSCR
 246 009e 0399     		ldr	r1, [sp, #12]
 247 00a0 7346     		mov	r3, lr
  70:../Middlewares/stm32-vision-models-postprocessing/lib_vision_models_pp/Src/od_pp_ssd.c ****             } while (pScores[j * ssd_nb_classes + ssd_sort_class] < pivot);
 248              		.loc 1 70 18 view .LVU65
ARM GAS  /tmp/ccF7Geq9.s 			page 8


 249 00a2 05F1FF35 		add	r5, r5, #-1
 250              	.LVL19:
  71:../Middlewares/stm32-vision-models-postprocessing/lib_vision_models_pp/Src/od_pp_ssd.c ****         }
 251              		.loc 1 71 67 is_stmt 1 discriminator 1 view .LVU66
 252 00a6 AEEB040E 		sub	lr, lr, r4
 253 00aa 8C44     		add	ip, ip, r1
 254 00ac F1DC     		bgt	.L16
  74:../Middlewares/stm32-vision-models-postprocessing/lib_vision_models_pp/Src/od_pp_ssd.c ****         {
 255              		.loc 1 74 9 view .LVU67
  74:../Middlewares/stm32-vision-models-postprocessing/lib_vision_models_pp/Src/od_pp_ssd.c ****         {
 256              		.loc 1 74 12 is_stmt 0 view .LVU68
 257 00ae A842     		cmp	r0, r5
 258 00b0 C1DA     		bge	.L29
 259 00b2 4FF0040E 		mov	lr, #4
 260 00b6 4EF001E0 		dls	lr, lr
 261 00ba 09EB001A 		add	r10, r9, r0, lsl #4
 262 00be 09EB051C 		add	ip, r9, r5, lsl #4
 263              	.L18:
 264              	.LBB17:
 265              	.LBB18:
  77:../Middlewares/stm32-vision-models-postprocessing/lib_vision_models_pp/Src/od_pp_ssd.c ****               pBoxes[i * AI_SSD_PP_BOX_STRIDE + _i] = pBoxes[j * AI_SSD_PP_BOX_STRIDE + _i];
 266              		.loc 1 77 15 is_stmt 1 view .LVU69
  78:../Middlewares/stm32-vision-models-postprocessing/lib_vision_models_pp/Src/od_pp_ssd.c ****               pBoxes[j * AI_SSD_PP_BOX_STRIDE + _i] = _tmp;
 267              		.loc 1 78 53 is_stmt 0 view .LVU70
 268 00c2 9CED007A 		vldr.32	s14, [ip]
  77:../Middlewares/stm32-vision-models-postprocessing/lib_vision_models_pp/Src/od_pp_ssd.c ****               pBoxes[i * AI_SSD_PP_BOX_STRIDE + _i] = pBoxes[j * AI_SSD_PP_BOX_STRIDE + _i];
 269              		.loc 1 77 25 view .LVU71
 270 00c6 DAF800B0 		ldr	fp, [r10]	@ float
 271              	.LVL20:
  78:../Middlewares/stm32-vision-models-postprocessing/lib_vision_models_pp/Src/od_pp_ssd.c ****               pBoxes[j * AI_SSD_PP_BOX_STRIDE + _i] = _tmp;
 272              		.loc 1 78 15 is_stmt 1 view .LVU72
  78:../Middlewares/stm32-vision-models-postprocessing/lib_vision_models_pp/Src/od_pp_ssd.c ****               pBoxes[j * AI_SSD_PP_BOX_STRIDE + _i] = _tmp;
 273              		.loc 1 78 53 is_stmt 0 view .LVU73
 274 00ca AAEC017A 		vstmia.32	r10!, {s14}
  79:../Middlewares/stm32-vision-models-postprocessing/lib_vision_models_pp/Src/od_pp_ssd.c ****             }
 275              		.loc 1 79 15 is_stmt 1 view .LVU74
  79:../Middlewares/stm32-vision-models-postprocessing/lib_vision_models_pp/Src/od_pp_ssd.c ****             }
 276              		.loc 1 79 53 is_stmt 0 view .LVU75
 277 00ce 4CF804BB 		str	fp, [ip], #4	@ float
 278              	.LBE18:
  76:../Middlewares/stm32-vision-models-postprocessing/lib_vision_models_pp/Src/od_pp_ssd.c ****               float32_t _tmp = pBoxes[i * AI_SSD_PP_BOX_STRIDE + _i];
 279              		.loc 1 76 59 is_stmt 1 discriminator 3 view .LVU76
  76:../Middlewares/stm32-vision-models-postprocessing/lib_vision_models_pp/Src/od_pp_ssd.c ****               float32_t _tmp = pBoxes[i * AI_SSD_PP_BOX_STRIDE + _i];
 280              		.loc 1 76 33 discriminator 1 view .LVU77
 281 00d2 0FF00BC0 		le	lr, .L18
 282 00d6 44F001E0 		dls	lr, r4
 283 00da 0599     		ldr	r1, [sp, #20]
 284 00dc 06EB8303 		add	r3, r6, r3, lsl #2
 285 00e0 3144     		add	r1, r1, r6
 286              	.L19:
  76:../Middlewares/stm32-vision-models-postprocessing/lib_vision_models_pp/Src/od_pp_ssd.c ****               float32_t _tmp = pBoxes[i * AI_SSD_PP_BOX_STRIDE + _i];
 287              		.loc 1 76 33 is_stmt 0 discriminator 1 view .LVU78
 288              	.LBE17:
 289              	.LBB19:
 290              	.LBB20:
  82:../Middlewares/stm32-vision-models-postprocessing/lib_vision_models_pp/Src/od_pp_ssd.c ****               pScores[i * ssd_nb_classes + _i] = pScores[j * ssd_nb_classes + _i];
 291              		.loc 1 82 15 is_stmt 1 view .LVU79
ARM GAS  /tmp/ccF7Geq9.s 			page 9


  82:../Middlewares/stm32-vision-models-postprocessing/lib_vision_models_pp/Src/od_pp_ssd.c ****               pScores[i * ssd_nb_classes + _i] = pScores[j * ssd_nb_classes + _i];
 292              		.loc 1 82 25 is_stmt 0 view .LVU80
 293 00e2 D1F800C0 		ldr	ip, [r1]	@ float
 294              	.LVL21:
  83:../Middlewares/stm32-vision-models-postprocessing/lib_vision_models_pp/Src/od_pp_ssd.c ****               pScores[j * ssd_nb_classes + _i] = _tmp;
 295              		.loc 1 83 15 is_stmt 1 view .LVU81
  83:../Middlewares/stm32-vision-models-postprocessing/lib_vision_models_pp/Src/od_pp_ssd.c ****               pScores[j * ssd_nb_classes + _i] = _tmp;
 296              		.loc 1 83 57 is_stmt 0 view .LVU82
 297 00e6 D3F800A0 		ldr	r10, [r3]	@ float
  83:../Middlewares/stm32-vision-models-postprocessing/lib_vision_models_pp/Src/od_pp_ssd.c ****               pScores[j * ssd_nb_classes + _i] = _tmp;
 298              		.loc 1 83 48 view .LVU83
 299 00ea 41F804AB 		str	r10, [r1], #4	@ float
  84:../Middlewares/stm32-vision-models-postprocessing/lib_vision_models_pp/Src/od_pp_ssd.c ****             }
 300              		.loc 1 84 15 is_stmt 1 view .LVU84
  84:../Middlewares/stm32-vision-models-postprocessing/lib_vision_models_pp/Src/od_pp_ssd.c ****             }
 301              		.loc 1 84 48 is_stmt 0 view .LVU85
 302 00ee 43F804CB 		str	ip, [r3], #4	@ float
 303              	.LBE20:
  81:../Middlewares/stm32-vision-models-postprocessing/lib_vision_models_pp/Src/od_pp_ssd.c ****               float32_t _tmp = pScores[i * ssd_nb_classes + _i];
 304              		.loc 1 81 53 is_stmt 1 discriminator 3 view .LVU86
  81:../Middlewares/stm32-vision-models-postprocessing/lib_vision_models_pp/Src/od_pp_ssd.c ****               float32_t _tmp = pScores[i * ssd_nb_classes + _i];
 305              		.loc 1 81 33 discriminator 1 view .LVU87
 306 00f2 0FF00BC0 		le	lr, .L19
 307 00f6 9CE7     		b	.L12
 308              	.LVL22:
 309              	.L10:
  81:../Middlewares/stm32-vision-models-postprocessing/lib_vision_models_pp/Src/od_pp_ssd.c ****               float32_t _tmp = pScores[i * ssd_nb_classes + _i];
 310              		.loc 1 81 33 is_stmt 0 discriminator 1 view .LVU88
 311              	.LBE19:
 312              	.LBE21:
 313              	.LBE22:
 314              	.LBE14:
 123:../Middlewares/stm32-vision-models-postprocessing/lib_vision_models_pp/Src/od_pp_ssd.c ****                             last,
 124:../Middlewares/stm32-vision-models-postprocessing/lib_vision_models_pp/Src/od_pp_ssd.c ****                             dir,
 125:../Middlewares/stm32-vision-models-postprocessing/lib_vision_models_pp/Src/od_pp_ssd.c ****                             ssd_sort_class,
 126:../Middlewares/stm32-vision-models-postprocessing/lib_vision_models_pp/Src/od_pp_ssd.c ****                             ssd_nb_classes);
 127:../Middlewares/stm32-vision-models-postprocessing/lib_vision_models_pp/Src/od_pp_ssd.c ****     }
 128:../Middlewares/stm32-vision-models-postprocessing/lib_vision_models_pp/Src/od_pp_ssd.c **** }
 315              		.loc 1 128 1 view .LVU89
 316 00f8 07B0     		add	sp, sp, #28
 317              		.cfi_def_cfa_offset 36
 318              		@ sp needed
 319 00fa BDE8F08F 		pop	{r4, r5, r6, r7, r8, r9, r10, fp, pc}
 320              		.loc 1 128 1 view .LVU90
 321              		.cfi_endproc
 322              	.LFE787:
 324              		.section	.text.ssd_pp_getNNBoxes_in_place,"ax",%progbits
 325              		.align	1
 326              		.global	ssd_pp_getNNBoxes_in_place
 327              		.syntax unified
 328              		.thumb
 329              		.thumb_func
 331              	ssd_pp_getNNBoxes_in_place:
 332              	.LVL23:
 333              	.LFB777:
 129:../Middlewares/stm32-vision-models-postprocessing/lib_vision_models_pp/Src/od_pp_ssd.c **** 
 130:../Middlewares/stm32-vision-models-postprocessing/lib_vision_models_pp/Src/od_pp_ssd.c **** 
ARM GAS  /tmp/ccF7Geq9.s 			page 10


 131:../Middlewares/stm32-vision-models-postprocessing/lib_vision_models_pp/Src/od_pp_ssd.c **** 
 132:../Middlewares/stm32-vision-models-postprocessing/lib_vision_models_pp/Src/od_pp_ssd.c **** /**
 133:../Middlewares/stm32-vision-models-postprocessing/lib_vision_models_pp/Src/od_pp_ssd.c ****  *
 134:../Middlewares/stm32-vision-models-postprocessing/lib_vision_models_pp/Src/od_pp_ssd.c ****  * int32_t ssd_pp_getNNBoxes
 135:../Middlewares/stm32-vision-models-postprocessing/lib_vision_models_pp/Src/od_pp_ssd.c ****  *
 136:../Middlewares/stm32-vision-models-postprocessing/lib_vision_models_pp/Src/od_pp_ssd.c **** **/
 137:../Middlewares/stm32-vision-models-postprocessing/lib_vision_models_pp/Src/od_pp_ssd.c **** /* Overwrite inputs */
 138:../Middlewares/stm32-vision-models-postprocessing/lib_vision_models_pp/Src/od_pp_ssd.c **** int32_t ssd_pp_getNNBoxes_in_place(od_ssd_pp_in_centroid_t *pInput,
 139:../Middlewares/stm32-vision-models-postprocessing/lib_vision_models_pp/Src/od_pp_ssd.c ****                                    od_ssd_pp_static_param_t *pInput_static_param)
 140:../Middlewares/stm32-vision-models-postprocessing/lib_vision_models_pp/Src/od_pp_ssd.c **** {
 334              		.loc 1 140 1 is_stmt 1 view -0
 335              		.cfi_startproc
 336              		@ args = 0, pretend = 0, frame = 16
 337              		@ frame_needed = 0, uses_anonymous_args = 0
 141:../Middlewares/stm32-vision-models-postprocessing/lib_vision_models_pp/Src/od_pp_ssd.c ****   float32_t *pScoresIn  = (float32_t *)pInput->pScores;
 338              		.loc 1 141 3 view .LVU92
 140:../Middlewares/stm32-vision-models-postprocessing/lib_vision_models_pp/Src/od_pp_ssd.c ****   float32_t *pScoresIn  = (float32_t *)pInput->pScores;
 339              		.loc 1 140 1 is_stmt 0 view .LVU93
 340 0000 2DE9F04F 		push	{r4, r5, r6, r7, r8, r9, r10, fp, lr}
 341              		.cfi_def_cfa_offset 36
 342              		.cfi_offset 4, -36
 343              		.cfi_offset 5, -32
 344              		.cfi_offset 6, -28
 345              		.cfi_offset 7, -24
 346              		.cfi_offset 8, -20
 347              		.cfi_offset 9, -16
 348              		.cfi_offset 10, -12
 349              		.cfi_offset 11, -8
 350              		.cfi_offset 14, -4
 142:../Middlewares/stm32-vision-models-postprocessing/lib_vision_models_pp/Src/od_pp_ssd.c ****   float32_t *pScoresOut  = (float32_t *)pInput->pScores;
 143:../Middlewares/stm32-vision-models-postprocessing/lib_vision_models_pp/Src/od_pp_ssd.c ****   float32_t *pBoxesIn   = (float32_t *)pInput->pBoxes;
 351              		.loc 1 143 14 view .LVU94
 352 0004 D0E9007A 		ldrd	r7, r10, [r0]
 353              	.LVL24:
 144:../Middlewares/stm32-vision-models-postprocessing/lib_vision_models_pp/Src/od_pp_ssd.c ****   float32_t *pBoxesOut   = (float32_t *)pInput->pBoxes;
 354              		.loc 1 144 3 is_stmt 1 view .LVU95
 145:../Middlewares/stm32-vision-models-postprocessing/lib_vision_models_pp/Src/od_pp_ssd.c ****   float32_t *pAnchors = (float32_t *)pInput_static_param->pAnchors;
 355              		.loc 1 145 3 view .LVU96
 146:../Middlewares/stm32-vision-models-postprocessing/lib_vision_models_pp/Src/od_pp_ssd.c ****   uint32_t nb_detect = 0;
 356              		.loc 1 146 3 view .LVU97
 147:../Middlewares/stm32-vision-models-postprocessing/lib_vision_models_pp/Src/od_pp_ssd.c **** 
 148:../Middlewares/stm32-vision-models-postprocessing/lib_vision_models_pp/Src/od_pp_ssd.c ****   for (int32_t i = 0; i < pInput_static_param->nb_detections; i++)
 357              		.loc 1 148 3 view .LVU98
 358              	.LBB23:
 359              		.loc 1 148 8 view .LVU99
 360              		.loc 1 148 16 is_stmt 0 view .LVU100
 361 0008 4FF00009 		mov	r9, #0
 362              	.LBE23:
 140:../Middlewares/stm32-vision-models-postprocessing/lib_vision_models_pp/Src/od_pp_ssd.c ****   float32_t *pScoresIn  = (float32_t *)pInput->pScores;
 363              		.loc 1 140 1 view .LVU101
 364 000c 2DED068B 		vpush.64	{d8, d9, d10}
 365              		.cfi_def_cfa_offset 60
 366              		.cfi_offset 80, -60
 367              		.cfi_offset 81, -56
 368              		.cfi_offset 82, -52
 369              		.cfi_offset 83, -48
 370              		.cfi_offset 84, -44
ARM GAS  /tmp/ccF7Geq9.s 			page 11


 371              		.cfi_offset 85, -40
 372 0010 0C46     		mov	r4, r1
 141:../Middlewares/stm32-vision-models-postprocessing/lib_vision_models_pp/Src/od_pp_ssd.c ****   float32_t *pScoresOut  = (float32_t *)pInput->pScores;
 373              		.loc 1 141 14 view .LVU102
 374 0012 5646     		mov	r6, r10
 146:../Middlewares/stm32-vision-models-postprocessing/lib_vision_models_pp/Src/od_pp_ssd.c **** 
 375              		.loc 1 146 12 view .LVU103
 376 0014 CB46     		mov	fp, r9
 377 0016 0D6A     		ldr	r5, [r1, #32]
 140:../Middlewares/stm32-vision-models-postprocessing/lib_vision_models_pp/Src/od_pp_ssd.c ****   float32_t *pScoresIn  = (float32_t *)pInput->pScores;
 378              		.loc 1 140 1 view .LVU104
 379 0018 85B0     		sub	sp, sp, #20
 380              		.cfi_def_cfa_offset 80
 381 001a 07F11008 		add	r8, r7, #16
 382 001e 1035     		adds	r5, r5, #16
 383              	.LVL25:
 384              	.L31:
 385              	.LBB31:
 386              		.loc 1 148 25 is_stmt 1 discriminator 1 view .LVU105
 387 0020 6368     		ldr	r3, [r4, #4]
 388 0022 4B45     		cmp	r3, r9
 389 0024 07DC     		bgt	.L37
 390              		.loc 1 148 25 is_stmt 0 discriminator 1 view .LVU106
 391              	.LBE31:
 149:../Middlewares/stm32-vision-models-postprocessing/lib_vision_models_pp/Src/od_pp_ssd.c ****   {
 150:../Middlewares/stm32-vision-models-postprocessing/lib_vision_models_pp/Src/od_pp_ssd.c ****     // Max (removing first elements
 151:../Middlewares/stm32-vision-models-postprocessing/lib_vision_models_pp/Src/od_pp_ssd.c ****     float32_t best_score;
 152:../Middlewares/stm32-vision-models-postprocessing/lib_vision_models_pp/Src/od_pp_ssd.c ****     uint32_t class_index;
 153:../Middlewares/stm32-vision-models-postprocessing/lib_vision_models_pp/Src/od_pp_ssd.c ****     vision_models_maxi_if32ou32(pScoresIn + 1,
 154:../Middlewares/stm32-vision-models-postprocessing/lib_vision_models_pp/Src/od_pp_ssd.c ****                                 pInput_static_param->nb_classes - 1,
 155:../Middlewares/stm32-vision-models-postprocessing/lib_vision_models_pp/Src/od_pp_ssd.c ****                                 &best_score,
 156:../Middlewares/stm32-vision-models-postprocessing/lib_vision_models_pp/Src/od_pp_ssd.c ****                                 &class_index);
 157:../Middlewares/stm32-vision-models-postprocessing/lib_vision_models_pp/Src/od_pp_ssd.c ****     int bSkip = 0;
 158:../Middlewares/stm32-vision-models-postprocessing/lib_vision_models_pp/Src/od_pp_ssd.c ****     float32_t max = MAX(best_score, pScoresIn[0]);
 159:../Middlewares/stm32-vision-models-postprocessing/lib_vision_models_pp/Src/od_pp_ssd.c ****     if (expf(best_score - max) < pInput_static_param->conf_threshold * ( expf(best_score - max) + e
 160:../Middlewares/stm32-vision-models-postprocessing/lib_vision_models_pp/Src/od_pp_ssd.c ****       bSkip = 1;
 161:../Middlewares/stm32-vision-models-postprocessing/lib_vision_models_pp/Src/od_pp_ssd.c ****     }
 162:../Middlewares/stm32-vision-models-postprocessing/lib_vision_models_pp/Src/od_pp_ssd.c **** 
 163:../Middlewares/stm32-vision-models-postprocessing/lib_vision_models_pp/Src/od_pp_ssd.c ****     if (bSkip == 0)
 164:../Middlewares/stm32-vision-models-postprocessing/lib_vision_models_pp/Src/od_pp_ssd.c ****     {
 165:../Middlewares/stm32-vision-models-postprocessing/lib_vision_models_pp/Src/od_pp_ssd.c ****       class_index += 1;
 166:../Middlewares/stm32-vision-models-postprocessing/lib_vision_models_pp/Src/od_pp_ssd.c ****       // Softmax
 167:../Middlewares/stm32-vision-models-postprocessing/lib_vision_models_pp/Src/od_pp_ssd.c ****       vision_models_softmax_f(pScoresIn, pScoresIn, pInput_static_param->nb_classes, pScoresIn);
 168:../Middlewares/stm32-vision-models-postprocessing/lib_vision_models_pp/Src/od_pp_ssd.c ****       best_score = pScoresIn[class_index];
 169:../Middlewares/stm32-vision-models-postprocessing/lib_vision_models_pp/Src/od_pp_ssd.c **** 
 170:../Middlewares/stm32-vision-models-postprocessing/lib_vision_models_pp/Src/od_pp_ssd.c **** 
 171:../Middlewares/stm32-vision-models-postprocessing/lib_vision_models_pp/Src/od_pp_ssd.c ****       if (best_score >= pInput_static_param->conf_threshold)
 172:../Middlewares/stm32-vision-models-postprocessing/lib_vision_models_pp/Src/od_pp_ssd.c ****       {
 173:../Middlewares/stm32-vision-models-postprocessing/lib_vision_models_pp/Src/od_pp_ssd.c ****           // Discard class 0 (background)
 174:../Middlewares/stm32-vision-models-postprocessing/lib_vision_models_pp/Src/od_pp_ssd.c ****           pScoresOut[0] = 0.0f;
 175:../Middlewares/stm32-vision-models-postprocessing/lib_vision_models_pp/Src/od_pp_ssd.c ****           for (int32_t k = 1; k < pInput_static_param->nb_classes; ++k)
 176:../Middlewares/stm32-vision-models-postprocessing/lib_vision_models_pp/Src/od_pp_ssd.c ****           {
 177:../Middlewares/stm32-vision-models-postprocessing/lib_vision_models_pp/Src/od_pp_ssd.c ****               pScoresOut[k] = pScoresIn[k];
 178:../Middlewares/stm32-vision-models-postprocessing/lib_vision_models_pp/Src/od_pp_ssd.c ****           }
 179:../Middlewares/stm32-vision-models-postprocessing/lib_vision_models_pp/Src/od_pp_ssd.c ****           pBoxesOut[AI_SSD_PP_CENTROID_XCENTER]   =
 180:../Middlewares/stm32-vision-models-postprocessing/lib_vision_models_pp/Src/od_pp_ssd.c ****                 pBoxesIn[AI_SSD_PP_CENTROID_XCENTER] \
 181:../Middlewares/stm32-vision-models-postprocessing/lib_vision_models_pp/Src/od_pp_ssd.c ****                 * pInput_static_param->XY_inv_scale \
ARM GAS  /tmp/ccF7Geq9.s 			page 12


 182:../Middlewares/stm32-vision-models-postprocessing/lib_vision_models_pp/Src/od_pp_ssd.c ****                 * pAnchors[AI_SSD_PP_CENTROID_WIDTHREL] \
 183:../Middlewares/stm32-vision-models-postprocessing/lib_vision_models_pp/Src/od_pp_ssd.c ****                 + pAnchors[AI_SSD_PP_CENTROID_XCENTER];
 184:../Middlewares/stm32-vision-models-postprocessing/lib_vision_models_pp/Src/od_pp_ssd.c ****           pBoxesOut[AI_SSD_PP_CENTROID_YCENTER]   =
 185:../Middlewares/stm32-vision-models-postprocessing/lib_vision_models_pp/Src/od_pp_ssd.c ****                 pBoxesIn[AI_SSD_PP_CENTROID_YCENTER] \
 186:../Middlewares/stm32-vision-models-postprocessing/lib_vision_models_pp/Src/od_pp_ssd.c ****                 * pInput_static_param->XY_inv_scale \
 187:../Middlewares/stm32-vision-models-postprocessing/lib_vision_models_pp/Src/od_pp_ssd.c ****                 * pAnchors[AI_SSD_PP_CENTROID_HEIGHTREL] \
 188:../Middlewares/stm32-vision-models-postprocessing/lib_vision_models_pp/Src/od_pp_ssd.c ****                 + pAnchors[AI_SSD_PP_CENTROID_YCENTER];
 189:../Middlewares/stm32-vision-models-postprocessing/lib_vision_models_pp/Src/od_pp_ssd.c ****           pBoxesOut[AI_SSD_PP_CENTROID_WIDTHREL]  = expf(pBoxesIn[AI_SSD_PP_CENTROID_WIDTHREL] \
 190:../Middlewares/stm32-vision-models-postprocessing/lib_vision_models_pp/Src/od_pp_ssd.c ****                                                     * pInput_static_param->WH_inv_scale) \
 191:../Middlewares/stm32-vision-models-postprocessing/lib_vision_models_pp/Src/od_pp_ssd.c ****                                                     * pAnchors[AI_SSD_PP_CENTROID_WIDTHREL];
 192:../Middlewares/stm32-vision-models-postprocessing/lib_vision_models_pp/Src/od_pp_ssd.c ****           pBoxesOut[AI_SSD_PP_CENTROID_HEIGHTREL] = expf(pBoxesIn[AI_SSD_PP_CENTROID_HEIGHTREL] \
 193:../Middlewares/stm32-vision-models-postprocessing/lib_vision_models_pp/Src/od_pp_ssd.c ****                                                     * pInput_static_param->WH_inv_scale) \
 194:../Middlewares/stm32-vision-models-postprocessing/lib_vision_models_pp/Src/od_pp_ssd.c ****                                                     * pAnchors[AI_SSD_PP_CENTROID_HEIGHTREL];
 195:../Middlewares/stm32-vision-models-postprocessing/lib_vision_models_pp/Src/od_pp_ssd.c **** 
 196:../Middlewares/stm32-vision-models-postprocessing/lib_vision_models_pp/Src/od_pp_ssd.c ****           pBoxesOut  += AI_SSD_PP_BOX_STRIDE;
 197:../Middlewares/stm32-vision-models-postprocessing/lib_vision_models_pp/Src/od_pp_ssd.c ****           pScoresOut += pInput_static_param->nb_classes;
 198:../Middlewares/stm32-vision-models-postprocessing/lib_vision_models_pp/Src/od_pp_ssd.c ****           nb_detect++;
 199:../Middlewares/stm32-vision-models-postprocessing/lib_vision_models_pp/Src/od_pp_ssd.c ****       }
 200:../Middlewares/stm32-vision-models-postprocessing/lib_vision_models_pp/Src/od_pp_ssd.c ****     }
 201:../Middlewares/stm32-vision-models-postprocessing/lib_vision_models_pp/Src/od_pp_ssd.c ****     pBoxesIn  += AI_SSD_PP_BOX_STRIDE;
 202:../Middlewares/stm32-vision-models-postprocessing/lib_vision_models_pp/Src/od_pp_ssd.c ****     pAnchors  += AI_SSD_PP_BOX_STRIDE;
 203:../Middlewares/stm32-vision-models-postprocessing/lib_vision_models_pp/Src/od_pp_ssd.c ****     pScoresIn += pInput_static_param->nb_classes;
 204:../Middlewares/stm32-vision-models-postprocessing/lib_vision_models_pp/Src/od_pp_ssd.c ****   }
 205:../Middlewares/stm32-vision-models-postprocessing/lib_vision_models_pp/Src/od_pp_ssd.c ****   pInput_static_param->nb_detect = nb_detect;
 392              		.loc 1 205 3 is_stmt 1 view .LVU107
 206:../Middlewares/stm32-vision-models-postprocessing/lib_vision_models_pp/Src/od_pp_ssd.c **** 
 207:../Middlewares/stm32-vision-models-postprocessing/lib_vision_models_pp/Src/od_pp_ssd.c **** 
 208:../Middlewares/stm32-vision-models-postprocessing/lib_vision_models_pp/Src/od_pp_ssd.c ****   return (AI_OD_POSTPROCESS_ERROR_NO);
 209:../Middlewares/stm32-vision-models-postprocessing/lib_vision_models_pp/Src/od_pp_ssd.c **** }
 393              		.loc 1 209 1 is_stmt 0 view .LVU108
 394 0026 0020     		movs	r0, #0
 205:../Middlewares/stm32-vision-models-postprocessing/lib_vision_models_pp/Src/od_pp_ssd.c **** 
 395              		.loc 1 205 34 view .LVU109
 396 0028 C4F81CB0 		str	fp, [r4, #28]
 208:../Middlewares/stm32-vision-models-postprocessing/lib_vision_models_pp/Src/od_pp_ssd.c **** }
 397              		.loc 1 208 3 is_stmt 1 view .LVU110
 398              		.loc 1 209 1 is_stmt 0 view .LVU111
 399 002c 05B0     		add	sp, sp, #20
 400              		.cfi_remember_state
 401              		.cfi_def_cfa_offset 60
 402              		@ sp needed
 403 002e BDEC068B 		vldm	sp!, {d8-d10}
 404              		.cfi_restore 84
 405              		.cfi_restore 85
 406              		.cfi_restore 82
 407              		.cfi_restore 83
 408              		.cfi_restore 80
 409              		.cfi_restore 81
 410              		.cfi_def_cfa_offset 36
 411 0032 BDE8F08F 		pop	{r4, r5, r6, r7, r8, r9, r10, fp, pc}
 412              	.LVL26:
 413              	.L37:
 414              		.cfi_restore_state
 415              	.LBB32:
 416              	.LBB24:
 151:../Middlewares/stm32-vision-models-postprocessing/lib_vision_models_pp/Src/od_pp_ssd.c ****     uint32_t class_index;
 417              		.loc 1 151 5 is_stmt 1 view .LVU112
ARM GAS  /tmp/ccF7Geq9.s 			page 13


 152:../Middlewares/stm32-vision-models-postprocessing/lib_vision_models_pp/Src/od_pp_ssd.c ****     vision_models_maxi_if32ou32(pScoresIn + 1,
 418              		.loc 1 152 5 view .LVU113
 153:../Middlewares/stm32-vision-models-postprocessing/lib_vision_models_pp/Src/od_pp_ssd.c ****                                 pInput_static_param->nb_classes - 1,
 419              		.loc 1 153 5 view .LVU114
 154:../Middlewares/stm32-vision-models-postprocessing/lib_vision_models_pp/Src/od_pp_ssd.c ****                                 &best_score,
 420              		.loc 1 154 65 is_stmt 0 view .LVU115
 421 0036 2168     		ldr	r1, [r4]
 153:../Middlewares/stm32-vision-models-postprocessing/lib_vision_models_pp/Src/od_pp_ssd.c ****                                 pInput_static_param->nb_classes - 1,
 422              		.loc 1 153 5 view .LVU116
 423 0038 331D     		adds	r3, r6, #4
 424 003a 02AA     		add	r2, sp, #8
 425 003c 0139     		subs	r1, r1, #1
 426 003e 301D     		adds	r0, r6, #4
 427 0040 0193     		str	r3, [sp, #4]
 428 0042 03AB     		add	r3, sp, #12
 429 0044 FFF7FEFF 		bl	vision_models_maxi_if32ou32
 430              	.LVL27:
 157:../Middlewares/stm32-vision-models-postprocessing/lib_vision_models_pp/Src/od_pp_ssd.c ****     float32_t max = MAX(best_score, pScoresIn[0]);
 431              		.loc 1 157 5 is_stmt 1 view .LVU117
 158:../Middlewares/stm32-vision-models-postprocessing/lib_vision_models_pp/Src/od_pp_ssd.c ****     if (expf(best_score - max) < pInput_static_param->conf_threshold * ( expf(best_score - max) + e
 432              		.loc 1 158 5 view .LVU118
 158:../Middlewares/stm32-vision-models-postprocessing/lib_vision_models_pp/Src/od_pp_ssd.c ****     if (expf(best_score - max) < pInput_static_param->conf_threshold * ( expf(best_score - max) + e
 433              		.loc 1 158 21 is_stmt 0 view .LVU119
 434 0048 9DED020A 		vldr.32	s0, [sp, #8]
 435 004c 96ED009A 		vldr.32	s18, [r6]
 436 0050 B4EEC90A 		vcmpe.f32	s0, s18
 437 0054 F1EE10FA 		vmrs	APSR_nzcv, FPSCR
 438 0058 70FE099A 		vselgt.f32	s19, s0, s18
 439              	.LVL28:
 159:../Middlewares/stm32-vision-models-postprocessing/lib_vision_models_pp/Src/od_pp_ssd.c ****       bSkip = 1;
 440              		.loc 1 159 5 is_stmt 1 view .LVU120
 159:../Middlewares/stm32-vision-models-postprocessing/lib_vision_models_pp/Src/od_pp_ssd.c ****       bSkip = 1;
 441              		.loc 1 159 25 is_stmt 0 view .LVU121
 442 005c 30EE698A 		vsub.f32	s16, s0, s19
 159:../Middlewares/stm32-vision-models-postprocessing/lib_vision_models_pp/Src/od_pp_ssd.c ****       bSkip = 1;
 443              		.loc 1 159 9 view .LVU122
 444 0060 B0EE480A 		vmov.f32	s0, s16
 445 0064 FFF7FEFF 		bl	expf
 446              	.LVL29:
 447 0068 F0EE408A 		vmov.f32	s17, s0
 159:../Middlewares/stm32-vision-models-postprocessing/lib_vision_models_pp/Src/od_pp_ssd.c ****       bSkip = 1;
 448              		.loc 1 159 74 discriminator 1 view .LVU123
 449 006c B0EE480A 		vmov.f32	s0, s16
 159:../Middlewares/stm32-vision-models-postprocessing/lib_vision_models_pp/Src/od_pp_ssd.c ****       bSkip = 1;
 450              		.loc 1 159 53 discriminator 1 view .LVU124
 451 0070 94ED05AA 		vldr.32	s20, [r4, #20]
 159:../Middlewares/stm32-vision-models-postprocessing/lib_vision_models_pp/Src/od_pp_ssd.c ****       bSkip = 1;
 452              		.loc 1 159 74 discriminator 1 view .LVU125
 453 0074 FFF7FEFF 		bl	expf
 454              	.LVL30:
 455 0078 B0EE408A 		vmov.f32	s16, s0
 159:../Middlewares/stm32-vision-models-postprocessing/lib_vision_models_pp/Src/od_pp_ssd.c ****       bSkip = 1;
 456              		.loc 1 159 99 discriminator 2 view .LVU126
 457 007c 39EE690A 		vsub.f32	s0, s18, s19
 458 0080 FFF7FEFF 		bl	expf
 459              	.LVL31:
 159:../Middlewares/stm32-vision-models-postprocessing/lib_vision_models_pp/Src/od_pp_ssd.c ****       bSkip = 1;
ARM GAS  /tmp/ccF7Geq9.s 			page 14


 460              		.loc 1 159 97 discriminator 3 view .LVU127
 461 0084 38EE008A 		vadd.f32	s16, s16, s0
 159:../Middlewares/stm32-vision-models-postprocessing/lib_vision_models_pp/Src/od_pp_ssd.c ****       bSkip = 1;
 462              		.loc 1 159 70 discriminator 3 view .LVU128
 463 0088 28EE0A8A 		vmul.f32	s16, s16, s20
 159:../Middlewares/stm32-vision-models-postprocessing/lib_vision_models_pp/Src/od_pp_ssd.c ****       bSkip = 1;
 464              		.loc 1 159 8 discriminator 3 view .LVU129
 465 008c F4EEC88A 		vcmpe.f32	s17, s16
 466 0090 F1EE10FA 		vmrs	APSR_nzcv, FPSCR
 467 0094 66D4     		bmi	.L34
 163:../Middlewares/stm32-vision-models-postprocessing/lib_vision_models_pp/Src/od_pp_ssd.c ****     {
 468              		.loc 1 163 5 is_stmt 1 view .LVU130
 165:../Middlewares/stm32-vision-models-postprocessing/lib_vision_models_pp/Src/od_pp_ssd.c ****       // Softmax
 469              		.loc 1 165 7 view .LVU131
 165:../Middlewares/stm32-vision-models-postprocessing/lib_vision_models_pp/Src/od_pp_ssd.c ****       // Softmax
 470              		.loc 1 165 19 is_stmt 0 view .LVU132
 471 0096 039B     		ldr	r3, [sp, #12]
 167:../Middlewares/stm32-vision-models-postprocessing/lib_vision_models_pp/Src/od_pp_ssd.c ****       best_score = pScoresIn[class_index];
 472              		.loc 1 167 7 view .LVU133
 473 0098 3146     		mov	r1, r6
 165:../Middlewares/stm32-vision-models-postprocessing/lib_vision_models_pp/Src/od_pp_ssd.c ****       // Softmax
 474              		.loc 1 165 19 view .LVU134
 475 009a 0133     		adds	r3, r3, #1
 476 009c 0393     		str	r3, [sp, #12]
 167:../Middlewares/stm32-vision-models-postprocessing/lib_vision_models_pp/Src/od_pp_ssd.c ****       best_score = pScoresIn[class_index];
 477              		.loc 1 167 7 is_stmt 1 view .LVU135
 478 009e 3046     		mov	r0, r6
 479 00a0 3346     		mov	r3, r6
 480 00a2 2268     		ldr	r2, [r4]
 481 00a4 FFF7FEFF 		bl	vision_models_softmax_f
 482              	.LVL32:
 168:../Middlewares/stm32-vision-models-postprocessing/lib_vision_models_pp/Src/od_pp_ssd.c **** 
 483              		.loc 1 168 7 view .LVU136
 168:../Middlewares/stm32-vision-models-postprocessing/lib_vision_models_pp/Src/od_pp_ssd.c **** 
 484              		.loc 1 168 29 is_stmt 0 view .LVU137
 485 00a8 039B     		ldr	r3, [sp, #12]
 171:../Middlewares/stm32-vision-models-postprocessing/lib_vision_models_pp/Src/od_pp_ssd.c ****       {
 486              		.loc 1 171 10 view .LVU138
 487 00aa 94ED057A 		vldr.32	s14, [r4, #20]
 168:../Middlewares/stm32-vision-models-postprocessing/lib_vision_models_pp/Src/od_pp_ssd.c **** 
 488              		.loc 1 168 29 view .LVU139
 489 00ae 06EB8303 		add	r3, r6, r3, lsl #2
 490 00b2 D3ED007A 		vldr.32	s15, [r3]
 171:../Middlewares/stm32-vision-models-postprocessing/lib_vision_models_pp/Src/od_pp_ssd.c ****       {
 491              		.loc 1 171 10 view .LVU140
 492 00b6 F4EEC77A 		vcmpe.f32	s15, s14
 493 00ba F1EE10FA 		vmrs	APSR_nzcv, FPSCR
 168:../Middlewares/stm32-vision-models-postprocessing/lib_vision_models_pp/Src/od_pp_ssd.c **** 
 494              		.loc 1 168 18 view .LVU141
 495 00be CDED027A 		vstr.32	s15, [sp, #8]
 171:../Middlewares/stm32-vision-models-postprocessing/lib_vision_models_pp/Src/od_pp_ssd.c ****       {
 496              		.loc 1 171 7 is_stmt 1 view .LVU142
 171:../Middlewares/stm32-vision-models-postprocessing/lib_vision_models_pp/Src/od_pp_ssd.c ****       {
 497              		.loc 1 171 10 is_stmt 0 view .LVU143
 498 00c2 4FDB     		blt	.L34
 499              	.LBB25:
 175:../Middlewares/stm32-vision-models-postprocessing/lib_vision_models_pp/Src/od_pp_ssd.c ****           {
ARM GAS  /tmp/ccF7Geq9.s 			page 15


 500              		.loc 1 175 54 discriminator 1 view .LVU144
 501 00c4 2368     		ldr	r3, [r4]
 502              	.LBE25:
 174:../Middlewares/stm32-vision-models-postprocessing/lib_vision_models_pp/Src/od_pp_ssd.c ****           for (int32_t k = 1; k < pInput_static_param->nb_classes; ++k)
 503              		.loc 1 174 11 is_stmt 1 view .LVU145
 174:../Middlewares/stm32-vision-models-postprocessing/lib_vision_models_pp/Src/od_pp_ssd.c ****           for (int32_t k = 1; k < pInput_static_param->nb_classes; ++k)
 504              		.loc 1 174 25 is_stmt 0 view .LVU146
 505 00c6 0022     		movs	r2, #0
 506 00c8 002B     		cmp	r3, #0
 507              	.LBB26:
 175:../Middlewares/stm32-vision-models-postprocessing/lib_vision_models_pp/Src/od_pp_ssd.c ****           {
 508              		.loc 1 175 24 view .LVU147
 509 00ca 9E46     		mov	lr, r3
 510 00cc CCBF     		ite	gt
 511 00ce 9E46     		movgt	lr, r3
 512 00d0 4FF0010E 		movle	lr, #1
 513              	.LBE26:
 174:../Middlewares/stm32-vision-models-postprocessing/lib_vision_models_pp/Src/od_pp_ssd.c ****           for (int32_t k = 1; k < pInput_static_param->nb_classes; ++k)
 514              		.loc 1 174 25 view .LVU148
 515 00d4 5146     		mov	r1, r10
 516 00d6 4EF001E0 		dls	lr, lr
 517 00da 41F8042B 		str	r2, [r1], #4	@ float
 175:../Middlewares/stm32-vision-models-postprocessing/lib_vision_models_pp/Src/od_pp_ssd.c ****           {
 518              		.loc 1 175 11 is_stmt 1 view .LVU149
 519              	.LBB27:
 175:../Middlewares/stm32-vision-models-postprocessing/lib_vision_models_pp/Src/od_pp_ssd.c ****           {
 520              		.loc 1 175 16 view .LVU150
 521              	.LVL33:
 175:../Middlewares/stm32-vision-models-postprocessing/lib_vision_models_pp/Src/od_pp_ssd.c ****           {
 522              		.loc 1 175 16 is_stmt 0 view .LVU151
 523 00de 321D     		adds	r2, r6, #4
 524              	.LVL34:
 525              	.L35:
 175:../Middlewares/stm32-vision-models-postprocessing/lib_vision_models_pp/Src/od_pp_ssd.c ****           {
 526              		.loc 1 175 33 is_stmt 1 discriminator 1 view .LVU152
 527 00e0 BEF1010E 		subs	lr, #1;bne	.L36
 527      47D1
 528              	.LBE27:
 181:../Middlewares/stm32-vision-models-postprocessing/lib_vision_models_pp/Src/od_pp_ssd.c ****                 * pAnchors[AI_SSD_PP_CENTROID_WIDTHREL] \
 529              		.loc 1 181 17 is_stmt 0 view .LVU153
 530 00e6 D4ED027A 		vldr.32	s15, [r4, #8]
 531 00ea 18ED047A 		vldr.32	s14, [r8, #-16]
 183:../Middlewares/stm32-vision-models-postprocessing/lib_vision_models_pp/Src/od_pp_ssd.c ****           pBoxesOut[AI_SSD_PP_CENTROID_YCENTER]   =
 532              		.loc 1 183 17 view .LVU154
 533 00ee 55ED026A 		vldr.32	s13, [r5, #-8]
 181:../Middlewares/stm32-vision-models-postprocessing/lib_vision_models_pp/Src/od_pp_ssd.c ****                 * pAnchors[AI_SSD_PP_CENTROID_WIDTHREL] \
 534              		.loc 1 181 17 view .LVU155
 535 00f2 27EE277A 		vmul.f32	s14, s14, s15
 183:../Middlewares/stm32-vision-models-postprocessing/lib_vision_models_pp/Src/od_pp_ssd.c ****           pBoxesOut[AI_SSD_PP_CENTROID_YCENTER]   =
 536              		.loc 1 183 17 view .LVU156
 537 00f6 55ED047A 		vldr.32	s15, [r5, #-16]
 538 00fa E7EE267A 		vfma.f32	s15, s14, s13
 179:../Middlewares/stm32-vision-models-postprocessing/lib_vision_models_pp/Src/od_pp_ssd.c ****                 pBoxesIn[AI_SSD_PP_CENTROID_XCENTER] \
 539              		.loc 1 179 51 view .LVU157
 540 00fe C7ED007A 		vstr.32	s15, [r7]
 186:../Middlewares/stm32-vision-models-postprocessing/lib_vision_models_pp/Src/od_pp_ssd.c ****                 * pAnchors[AI_SSD_PP_CENTROID_HEIGHTREL] \
 541              		.loc 1 186 17 view .LVU158
ARM GAS  /tmp/ccF7Geq9.s 			page 16


 542 0102 D4ED027A 		vldr.32	s15, [r4, #8]
 543 0106 18ED037A 		vldr.32	s14, [r8, #-12]
 188:../Middlewares/stm32-vision-models-postprocessing/lib_vision_models_pp/Src/od_pp_ssd.c ****           pBoxesOut[AI_SSD_PP_CENTROID_WIDTHREL]  = expf(pBoxesIn[AI_SSD_PP_CENTROID_WIDTHREL] \
 544              		.loc 1 188 17 view .LVU159
 545 010a 55ED016A 		vldr.32	s13, [r5, #-4]
 186:../Middlewares/stm32-vision-models-postprocessing/lib_vision_models_pp/Src/od_pp_ssd.c ****                 * pAnchors[AI_SSD_PP_CENTROID_HEIGHTREL] \
 546              		.loc 1 186 17 view .LVU160
 547 010e 27EE277A 		vmul.f32	s14, s14, s15
 188:../Middlewares/stm32-vision-models-postprocessing/lib_vision_models_pp/Src/od_pp_ssd.c ****           pBoxesOut[AI_SSD_PP_CENTROID_WIDTHREL]  = expf(pBoxesIn[AI_SSD_PP_CENTROID_WIDTHREL] \
 548              		.loc 1 188 17 view .LVU161
 549 0112 55ED037A 		vldr.32	s15, [r5, #-12]
 550 0116 E7EE267A 		vfma.f32	s15, s14, s13
 184:../Middlewares/stm32-vision-models-postprocessing/lib_vision_models_pp/Src/od_pp_ssd.c ****                 pBoxesIn[AI_SSD_PP_CENTROID_YCENTER] \
 551              		.loc 1 184 51 view .LVU162
 552 011a C7ED017A 		vstr.32	s15, [r7, #4]
 190:../Middlewares/stm32-vision-models-postprocessing/lib_vision_models_pp/Src/od_pp_ssd.c ****                                                     * pAnchors[AI_SSD_PP_CENTROID_WIDTHREL];
 553              		.loc 1 190 53 view .LVU163
 554 011e D4ED037A 		vldr.32	s15, [r4, #12]
 555 0122 18ED020A 		vldr.32	s0, [r8, #-8]
 189:../Middlewares/stm32-vision-models-postprocessing/lib_vision_models_pp/Src/od_pp_ssd.c ****                                                     * pInput_static_param->WH_inv_scale) \
 556              		.loc 1 189 53 view .LVU164
 557 0126 20EE270A 		vmul.f32	s0, s0, s15
 558 012a 0193     		str	r3, [sp, #4]
 179:../Middlewares/stm32-vision-models-postprocessing/lib_vision_models_pp/Src/od_pp_ssd.c ****                 pBoxesIn[AI_SSD_PP_CENTROID_XCENTER] \
 559              		.loc 1 179 11 is_stmt 1 view .LVU165
 184:../Middlewares/stm32-vision-models-postprocessing/lib_vision_models_pp/Src/od_pp_ssd.c ****                 pBoxesIn[AI_SSD_PP_CENTROID_YCENTER] \
 560              		.loc 1 184 11 view .LVU166
 189:../Middlewares/stm32-vision-models-postprocessing/lib_vision_models_pp/Src/od_pp_ssd.c ****                                                     * pInput_static_param->WH_inv_scale) \
 561              		.loc 1 189 11 view .LVU167
 189:../Middlewares/stm32-vision-models-postprocessing/lib_vision_models_pp/Src/od_pp_ssd.c ****                                                     * pInput_static_param->WH_inv_scale) \
 562              		.loc 1 189 53 is_stmt 0 view .LVU168
 563 012c FFF7FEFF 		bl	expf
 564              	.LVL35:
 191:../Middlewares/stm32-vision-models-postprocessing/lib_vision_models_pp/Src/od_pp_ssd.c ****           pBoxesOut[AI_SSD_PP_CENTROID_HEIGHTREL] = expf(pBoxesIn[AI_SSD_PP_CENTROID_HEIGHTREL] \
 565              		.loc 1 191 53 view .LVU169
 566 0130 55ED027A 		vldr.32	s15, [r5, #-8]
 567 0134 67EE807A 		vmul.f32	s15, s15, s0
 189:../Middlewares/stm32-vision-models-postprocessing/lib_vision_models_pp/Src/od_pp_ssd.c ****                                                     * pInput_static_param->WH_inv_scale) \
 568              		.loc 1 189 51 view .LVU170
 569 0138 C7ED027A 		vstr.32	s15, [r7, #8]
 192:../Middlewares/stm32-vision-models-postprocessing/lib_vision_models_pp/Src/od_pp_ssd.c ****                                                     * pInput_static_param->WH_inv_scale) \
 570              		.loc 1 192 11 is_stmt 1 view .LVU171
 193:../Middlewares/stm32-vision-models-postprocessing/lib_vision_models_pp/Src/od_pp_ssd.c ****                                                     * pAnchors[AI_SSD_PP_CENTROID_HEIGHTREL];
 571              		.loc 1 193 53 is_stmt 0 view .LVU172
 572 013c D4ED037A 		vldr.32	s15, [r4, #12]
 573 0140 18ED010A 		vldr.32	s0, [r8, #-4]
 192:../Middlewares/stm32-vision-models-postprocessing/lib_vision_models_pp/Src/od_pp_ssd.c ****                                                     * pInput_static_param->WH_inv_scale) \
 574              		.loc 1 192 53 view .LVU173
 575 0144 20EE270A 		vmul.f32	s0, s0, s15
 576 0148 FFF7FEFF 		bl	expf
 577              	.LVL36:
 194:../Middlewares/stm32-vision-models-postprocessing/lib_vision_models_pp/Src/od_pp_ssd.c **** 
 578              		.loc 1 194 53 view .LVU174
 579 014c 55ED017A 		vldr.32	s15, [r5, #-4]
 580 0150 67EE807A 		vmul.f32	s15, s15, s0
 197:../Middlewares/stm32-vision-models-postprocessing/lib_vision_models_pp/Src/od_pp_ssd.c ****           nb_detect++;
 581              		.loc 1 197 22 view .LVU175
ARM GAS  /tmp/ccF7Geq9.s 			page 17


 582 0154 019B     		ldr	r3, [sp, #4]
 192:../Middlewares/stm32-vision-models-postprocessing/lib_vision_models_pp/Src/od_pp_ssd.c ****                                                     * pInput_static_param->WH_inv_scale) \
 583              		.loc 1 192 51 view .LVU176
 584 0156 C7ED037A 		vstr.32	s15, [r7, #12]
 196:../Middlewares/stm32-vision-models-postprocessing/lib_vision_models_pp/Src/od_pp_ssd.c ****           pScoresOut += pInput_static_param->nb_classes;
 585              		.loc 1 196 11 is_stmt 1 view .LVU177
 197:../Middlewares/stm32-vision-models-postprocessing/lib_vision_models_pp/Src/od_pp_ssd.c ****           nb_detect++;
 586              		.loc 1 197 22 is_stmt 0 view .LVU178
 587 015a 0AEB830A 		add	r10, r10, r3, lsl #2
 588              	.LVL37:
 196:../Middlewares/stm32-vision-models-postprocessing/lib_vision_models_pp/Src/od_pp_ssd.c ****           pScoresOut += pInput_static_param->nb_classes;
 589              		.loc 1 196 22 view .LVU179
 590 015e 1037     		adds	r7, r7, #16
 591              	.LVL38:
 197:../Middlewares/stm32-vision-models-postprocessing/lib_vision_models_pp/Src/od_pp_ssd.c ****           nb_detect++;
 592              		.loc 1 197 11 is_stmt 1 view .LVU180
 198:../Middlewares/stm32-vision-models-postprocessing/lib_vision_models_pp/Src/od_pp_ssd.c ****       }
 593              		.loc 1 198 11 view .LVU181
 198:../Middlewares/stm32-vision-models-postprocessing/lib_vision_models_pp/Src/od_pp_ssd.c ****       }
 594              		.loc 1 198 20 is_stmt 0 view .LVU182
 595 0160 0BF1010B 		add	fp, fp, #1
 596              	.LVL39:
 597              	.L34:
 201:../Middlewares/stm32-vision-models-postprocessing/lib_vision_models_pp/Src/od_pp_ssd.c ****     pAnchors  += AI_SSD_PP_BOX_STRIDE;
 598              		.loc 1 201 5 is_stmt 1 view .LVU183
 202:../Middlewares/stm32-vision-models-postprocessing/lib_vision_models_pp/Src/od_pp_ssd.c ****     pScoresIn += pInput_static_param->nb_classes;
 599              		.loc 1 202 5 view .LVU184
 203:../Middlewares/stm32-vision-models-postprocessing/lib_vision_models_pp/Src/od_pp_ssd.c ****   }
 600              		.loc 1 203 5 view .LVU185
 203:../Middlewares/stm32-vision-models-postprocessing/lib_vision_models_pp/Src/od_pp_ssd.c ****   }
 601              		.loc 1 203 15 is_stmt 0 view .LVU186
 602 0164 2368     		ldr	r3, [r4]
 603              	.LBE24:
 148:../Middlewares/stm32-vision-models-postprocessing/lib_vision_models_pp/Src/od_pp_ssd.c ****   {
 604              		.loc 1 148 64 discriminator 2 view .LVU187
 605 0166 09F10109 		add	r9, r9, #1
 606              	.LVL40:
 607              	.LBB29:
 203:../Middlewares/stm32-vision-models-postprocessing/lib_vision_models_pp/Src/od_pp_ssd.c ****   }
 608              		.loc 1 203 15 view .LVU188
 609 016a 06EB8306 		add	r6, r6, r3, lsl #2
 610              	.LVL41:
 203:../Middlewares/stm32-vision-models-postprocessing/lib_vision_models_pp/Src/od_pp_ssd.c ****   }
 611              		.loc 1 203 15 view .LVU189
 612              	.LBE29:
 148:../Middlewares/stm32-vision-models-postprocessing/lib_vision_models_pp/Src/od_pp_ssd.c ****   {
 613              		.loc 1 148 64 is_stmt 1 discriminator 2 view .LVU190
 148:../Middlewares/stm32-vision-models-postprocessing/lib_vision_models_pp/Src/od_pp_ssd.c ****   {
 614              		.loc 1 148 64 is_stmt 0 discriminator 2 view .LVU191
 615 016e 08F11008 		add	r8, r8, #16
 616              	.LVL42:
 148:../Middlewares/stm32-vision-models-postprocessing/lib_vision_models_pp/Src/od_pp_ssd.c ****   {
 617              		.loc 1 148 64 discriminator 2 view .LVU192
 618 0172 1035     		adds	r5, r5, #16
 619 0174 54E7     		b	.L31
 620              	.LVL43:
 621              	.L36:
ARM GAS  /tmp/ccF7Geq9.s 			page 18


 622              	.LBB30:
 623              	.LBB28:
 177:../Middlewares/stm32-vision-models-postprocessing/lib_vision_models_pp/Src/od_pp_ssd.c ****           }
 624              		.loc 1 177 15 is_stmt 1 view .LVU193
 177:../Middlewares/stm32-vision-models-postprocessing/lib_vision_models_pp/Src/od_pp_ssd.c ****           }
 625              		.loc 1 177 40 is_stmt 0 view .LVU194
 626 0176 52F8040B 		ldr	r0, [r2], #4	@ float
 177:../Middlewares/stm32-vision-models-postprocessing/lib_vision_models_pp/Src/od_pp_ssd.c ****           }
 627              		.loc 1 177 29 view .LVU195
 628 017a 41F8040B 		str	r0, [r1], #4	@ float
 175:../Middlewares/stm32-vision-models-postprocessing/lib_vision_models_pp/Src/od_pp_ssd.c ****           {
 629              		.loc 1 175 68 is_stmt 1 discriminator 3 view .LVU196
 630 017e AFE7     		b	.L35
 631              	.LBE28:
 632              	.LBE30:
 633              	.LBE32:
 634              		.cfi_endproc
 635              	.LFE777:
 637              		.section	.text.ssd_pp_getNNBoxes_scratchBuffer,"ax",%progbits
 638              		.align	1
 639              		.global	ssd_pp_getNNBoxes_scratchBuffer
 640              		.syntax unified
 641              		.thumb
 642              		.thumb_func
 644              	ssd_pp_getNNBoxes_scratchBuffer:
 645              	.LVL44:
 646              	.LFB778:
 210:../Middlewares/stm32-vision-models-postprocessing/lib_vision_models_pp/Src/od_pp_ssd.c **** 
 211:../Middlewares/stm32-vision-models-postprocessing/lib_vision_models_pp/Src/od_pp_ssd.c **** int32_t ssd_pp_getNNBoxes_scratchBuffer(od_ssd_pp_in_centroid_t *pInput,
 212:../Middlewares/stm32-vision-models-postprocessing/lib_vision_models_pp/Src/od_pp_ssd.c ****                                         od_pp_outBuffer_t *pScratchBufferIn,
 213:../Middlewares/stm32-vision-models-postprocessing/lib_vision_models_pp/Src/od_pp_ssd.c ****                                         od_ssd_pp_static_param_t *pInput_static_param)
 214:../Middlewares/stm32-vision-models-postprocessing/lib_vision_models_pp/Src/od_pp_ssd.c **** {
 647              		.loc 1 214 1 view -0
 648              		.cfi_startproc
 649              		@ args = 0, pretend = 0, frame = 8
 650              		@ frame_needed = 0, uses_anonymous_args = 0
 215:../Middlewares/stm32-vision-models-postprocessing/lib_vision_models_pp/Src/od_pp_ssd.c ****   float32_t * restrict pScoresIn = (float32_t *)pInput->pScores;
 651              		.loc 1 215 3 view .LVU198
 214:../Middlewares/stm32-vision-models-postprocessing/lib_vision_models_pp/Src/od_pp_ssd.c ****   float32_t * restrict pScoresIn = (float32_t *)pInput->pScores;
 652              		.loc 1 214 1 is_stmt 0 view .LVU199
 653 0000 2DE9F047 		push	{r4, r5, r6, r7, r8, r9, r10, lr}
 654              		.cfi_def_cfa_offset 32
 655              		.cfi_offset 4, -32
 656              		.cfi_offset 5, -28
 657              		.cfi_offset 6, -24
 658              		.cfi_offset 7, -20
 659              		.cfi_offset 8, -16
 660              		.cfi_offset 9, -12
 661              		.cfi_offset 10, -8
 662              		.cfi_offset 14, -4
 663 0004 D0E90037 		ldrd	r3, r7, [r0]
 664              	.LBB33:
 216:../Middlewares/stm32-vision-models-postprocessing/lib_vision_models_pp/Src/od_pp_ssd.c ****   float32_t * restrict pBoxesIn = (float32_t *)pInput->pBoxes;
 217:../Middlewares/stm32-vision-models-postprocessing/lib_vision_models_pp/Src/od_pp_ssd.c ****   float32_t * restrict pAnchors = (float32_t *)pInput_static_param->pAnchors;
 218:../Middlewares/stm32-vision-models-postprocessing/lib_vision_models_pp/Src/od_pp_ssd.c ****   uint32_t nb_detect = 0;
 219:../Middlewares/stm32-vision-models-postprocessing/lib_vision_models_pp/Src/od_pp_ssd.c ****   od_pp_outBuffer_t *pScratchBuffer = pScratchBufferIn;
 220:../Middlewares/stm32-vision-models-postprocessing/lib_vision_models_pp/Src/od_pp_ssd.c **** 
ARM GAS  /tmp/ccF7Geq9.s 			page 19


 221:../Middlewares/stm32-vision-models-postprocessing/lib_vision_models_pp/Src/od_pp_ssd.c **** 
 222:../Middlewares/stm32-vision-models-postprocessing/lib_vision_models_pp/Src/od_pp_ssd.c ****   for (int32_t i = 0; i < pInput_static_param->nb_detections; i++)
 665              		.loc 1 222 16 view .LVU200
 666 0008 4FF00009 		mov	r9, #0
 667              	.LBE33:
 214:../Middlewares/stm32-vision-models-postprocessing/lib_vision_models_pp/Src/od_pp_ssd.c ****   float32_t * restrict pScoresIn = (float32_t *)pInput->pScores;
 668              		.loc 1 214 1 view .LVU201
 669 000c 2DED068B 		vpush.64	{d8, d9, d10}
 670              		.cfi_def_cfa_offset 56
 671              		.cfi_offset 80, -56
 672              		.cfi_offset 81, -52
 673              		.cfi_offset 82, -48
 674              		.cfi_offset 83, -44
 675              		.cfi_offset 84, -40
 676              		.cfi_offset 85, -36
 677 0010 0E46     		mov	r6, r1
 678 0012 1446     		mov	r4, r2
 218:../Middlewares/stm32-vision-models-postprocessing/lib_vision_models_pp/Src/od_pp_ssd.c ****   od_pp_outBuffer_t *pScratchBuffer = pScratchBufferIn;
 679              		.loc 1 218 12 view .LVU202
 680 0014 CA46     		mov	r10, r9
 681 0016 156A     		ldr	r5, [r2, #32]
 214:../Middlewares/stm32-vision-models-postprocessing/lib_vision_models_pp/Src/od_pp_ssd.c ****   float32_t * restrict pScoresIn = (float32_t *)pInput->pScores;
 682              		.loc 1 214 1 view .LVU203
 683 0018 82B0     		sub	sp, sp, #8
 684              		.cfi_def_cfa_offset 64
 685 001a 03F11008 		add	r8, r3, #16
 686 001e 1035     		adds	r5, r5, #16
 687              	.LVL45:
 688              	.L40:
 689              	.LBB36:
 690              		.loc 1 222 25 is_stmt 1 discriminator 1 view .LVU204
 691 0020 6368     		ldr	r3, [r4, #4]
 692 0022 4B45     		cmp	r3, r9
 693 0024 07DC     		bgt	.L44
 694              	.LBE36:
 223:../Middlewares/stm32-vision-models-postprocessing/lib_vision_models_pp/Src/od_pp_ssd.c ****   {
 224:../Middlewares/stm32-vision-models-postprocessing/lib_vision_models_pp/Src/od_pp_ssd.c ****     float32_t best_score;
 225:../Middlewares/stm32-vision-models-postprocessing/lib_vision_models_pp/Src/od_pp_ssd.c ****     uint32_t class_index;
 226:../Middlewares/stm32-vision-models-postprocessing/lib_vision_models_pp/Src/od_pp_ssd.c ****     vision_models_maxi_if32ou32(pScoresIn + 1,
 227:../Middlewares/stm32-vision-models-postprocessing/lib_vision_models_pp/Src/od_pp_ssd.c ****                                 pInput_static_param->nb_classes-1,
 228:../Middlewares/stm32-vision-models-postprocessing/lib_vision_models_pp/Src/od_pp_ssd.c ****                                 &best_score,
 229:../Middlewares/stm32-vision-models-postprocessing/lib_vision_models_pp/Src/od_pp_ssd.c ****                                 &class_index);
 230:../Middlewares/stm32-vision-models-postprocessing/lib_vision_models_pp/Src/od_pp_ssd.c ****     int bSkip = 0;
 231:../Middlewares/stm32-vision-models-postprocessing/lib_vision_models_pp/Src/od_pp_ssd.c ****     float32_t max = MAX(best_score, pScoresIn[0]);
 232:../Middlewares/stm32-vision-models-postprocessing/lib_vision_models_pp/Src/od_pp_ssd.c ****     if (expf(best_score - max) < pInput_static_param->conf_threshold * ( expf(best_score - max) + e
 233:../Middlewares/stm32-vision-models-postprocessing/lib_vision_models_pp/Src/od_pp_ssd.c ****       bSkip = 1;
 234:../Middlewares/stm32-vision-models-postprocessing/lib_vision_models_pp/Src/od_pp_ssd.c ****     }
 235:../Middlewares/stm32-vision-models-postprocessing/lib_vision_models_pp/Src/od_pp_ssd.c **** 
 236:../Middlewares/stm32-vision-models-postprocessing/lib_vision_models_pp/Src/od_pp_ssd.c ****     if (bSkip == 0)
 237:../Middlewares/stm32-vision-models-postprocessing/lib_vision_models_pp/Src/od_pp_ssd.c ****     {
 238:../Middlewares/stm32-vision-models-postprocessing/lib_vision_models_pp/Src/od_pp_ssd.c ****       class_index+=1;
 239:../Middlewares/stm32-vision-models-postprocessing/lib_vision_models_pp/Src/od_pp_ssd.c ****       // Softmax
 240:../Middlewares/stm32-vision-models-postprocessing/lib_vision_models_pp/Src/od_pp_ssd.c ****       vision_models_softmax_f(pScoresIn, pScoresIn, pInput_static_param->nb_classes, pScoresIn);
 241:../Middlewares/stm32-vision-models-postprocessing/lib_vision_models_pp/Src/od_pp_ssd.c ****       best_score = pScoresIn[class_index];
 242:../Middlewares/stm32-vision-models-postprocessing/lib_vision_models_pp/Src/od_pp_ssd.c **** 
 243:../Middlewares/stm32-vision-models-postprocessing/lib_vision_models_pp/Src/od_pp_ssd.c ****       if (best_score >= pInput_static_param->conf_threshold)
 244:../Middlewares/stm32-vision-models-postprocessing/lib_vision_models_pp/Src/od_pp_ssd.c ****       {
ARM GAS  /tmp/ccF7Geq9.s 			page 20


 245:../Middlewares/stm32-vision-models-postprocessing/lib_vision_models_pp/Src/od_pp_ssd.c ****         pScratchBuffer->class_index = class_index;
 246:../Middlewares/stm32-vision-models-postprocessing/lib_vision_models_pp/Src/od_pp_ssd.c ****         pScratchBuffer->conf = best_score;
 247:../Middlewares/stm32-vision-models-postprocessing/lib_vision_models_pp/Src/od_pp_ssd.c ****         pScratchBuffer->x_center = pBoxesIn[AI_SSD_PP_CENTROID_XCENTER] \
 248:../Middlewares/stm32-vision-models-postprocessing/lib_vision_models_pp/Src/od_pp_ssd.c ****                                   * pInput_static_param->XY_inv_scale \
 249:../Middlewares/stm32-vision-models-postprocessing/lib_vision_models_pp/Src/od_pp_ssd.c ****                                   * pAnchors[AI_SSD_PP_CENTROID_WIDTHREL] \
 250:../Middlewares/stm32-vision-models-postprocessing/lib_vision_models_pp/Src/od_pp_ssd.c ****                                   + pAnchors[AI_SSD_PP_CENTROID_XCENTER];
 251:../Middlewares/stm32-vision-models-postprocessing/lib_vision_models_pp/Src/od_pp_ssd.c ****         pScratchBuffer->y_center = pBoxesIn[AI_SSD_PP_CENTROID_YCENTER] \
 252:../Middlewares/stm32-vision-models-postprocessing/lib_vision_models_pp/Src/od_pp_ssd.c ****                                   * pInput_static_param->XY_inv_scale \
 253:../Middlewares/stm32-vision-models-postprocessing/lib_vision_models_pp/Src/od_pp_ssd.c ****                                   * pAnchors[AI_SSD_PP_CENTROID_HEIGHTREL] \
 254:../Middlewares/stm32-vision-models-postprocessing/lib_vision_models_pp/Src/od_pp_ssd.c ****                                   + pAnchors[AI_SSD_PP_CENTROID_YCENTER];
 255:../Middlewares/stm32-vision-models-postprocessing/lib_vision_models_pp/Src/od_pp_ssd.c ****         pScratchBuffer->width  = expf(pBoxesIn[AI_SSD_PP_CENTROID_WIDTHREL] \
 256:../Middlewares/stm32-vision-models-postprocessing/lib_vision_models_pp/Src/od_pp_ssd.c ****                                       * pInput_static_param->WH_inv_scale) \
 257:../Middlewares/stm32-vision-models-postprocessing/lib_vision_models_pp/Src/od_pp_ssd.c ****                                       * pAnchors[AI_SSD_PP_CENTROID_WIDTHREL];
 258:../Middlewares/stm32-vision-models-postprocessing/lib_vision_models_pp/Src/od_pp_ssd.c ****         pScratchBuffer->height = expf(pBoxesIn[AI_SSD_PP_CENTROID_HEIGHTREL] \
 259:../Middlewares/stm32-vision-models-postprocessing/lib_vision_models_pp/Src/od_pp_ssd.c ****                                       * pInput_static_param->WH_inv_scale) \
 260:../Middlewares/stm32-vision-models-postprocessing/lib_vision_models_pp/Src/od_pp_ssd.c ****                                       * pAnchors[AI_SSD_PP_CENTROID_HEIGHTREL];
 261:../Middlewares/stm32-vision-models-postprocessing/lib_vision_models_pp/Src/od_pp_ssd.c **** 
 262:../Middlewares/stm32-vision-models-postprocessing/lib_vision_models_pp/Src/od_pp_ssd.c ****         pScratchBuffer++;
 263:../Middlewares/stm32-vision-models-postprocessing/lib_vision_models_pp/Src/od_pp_ssd.c ****         nb_detect++;
 264:../Middlewares/stm32-vision-models-postprocessing/lib_vision_models_pp/Src/od_pp_ssd.c ****       }
 265:../Middlewares/stm32-vision-models-postprocessing/lib_vision_models_pp/Src/od_pp_ssd.c ****     }
 266:../Middlewares/stm32-vision-models-postprocessing/lib_vision_models_pp/Src/od_pp_ssd.c ****     pBoxesIn  += AI_SSD_PP_BOX_STRIDE;
 267:../Middlewares/stm32-vision-models-postprocessing/lib_vision_models_pp/Src/od_pp_ssd.c ****     pAnchors  += AI_SSD_PP_BOX_STRIDE;
 268:../Middlewares/stm32-vision-models-postprocessing/lib_vision_models_pp/Src/od_pp_ssd.c ****     pScoresIn += pInput_static_param->nb_classes;
 269:../Middlewares/stm32-vision-models-postprocessing/lib_vision_models_pp/Src/od_pp_ssd.c **** 
 270:../Middlewares/stm32-vision-models-postprocessing/lib_vision_models_pp/Src/od_pp_ssd.c ****   }
 271:../Middlewares/stm32-vision-models-postprocessing/lib_vision_models_pp/Src/od_pp_ssd.c ****   pInput_static_param->nb_detect = nb_detect;
 695              		.loc 1 271 3 view .LVU205
 272:../Middlewares/stm32-vision-models-postprocessing/lib_vision_models_pp/Src/od_pp_ssd.c **** 
 273:../Middlewares/stm32-vision-models-postprocessing/lib_vision_models_pp/Src/od_pp_ssd.c ****   return (AI_OD_POSTPROCESS_ERROR_NO);
 274:../Middlewares/stm32-vision-models-postprocessing/lib_vision_models_pp/Src/od_pp_ssd.c **** }
 696              		.loc 1 274 1 is_stmt 0 view .LVU206
 697 0026 0020     		movs	r0, #0
 271:../Middlewares/stm32-vision-models-postprocessing/lib_vision_models_pp/Src/od_pp_ssd.c **** 
 698              		.loc 1 271 34 view .LVU207
 699 0028 C4F81CA0 		str	r10, [r4, #28]
 273:../Middlewares/stm32-vision-models-postprocessing/lib_vision_models_pp/Src/od_pp_ssd.c **** }
 700              		.loc 1 273 3 is_stmt 1 view .LVU208
 701              		.loc 1 274 1 is_stmt 0 view .LVU209
 702 002c 02B0     		add	sp, sp, #8
 703              		.cfi_remember_state
 704              		.cfi_def_cfa_offset 56
 705              		@ sp needed
 706 002e BDEC068B 		vldm	sp!, {d8-d10}
 707              		.cfi_restore 84
 708              		.cfi_restore 85
 709              		.cfi_restore 82
 710              		.cfi_restore 83
 711              		.cfi_restore 80
 712              		.cfi_restore 81
 713              		.cfi_def_cfa_offset 32
 714 0032 BDE8F087 		pop	{r4, r5, r6, r7, r8, r9, r10, pc}
 715              	.LVL46:
 716              	.L44:
 717              		.cfi_restore_state
 718              	.LBB37:
 719              	.LBB34:
ARM GAS  /tmp/ccF7Geq9.s 			page 21


 224:../Middlewares/stm32-vision-models-postprocessing/lib_vision_models_pp/Src/od_pp_ssd.c ****     uint32_t class_index;
 720              		.loc 1 224 5 is_stmt 1 view .LVU210
 225:../Middlewares/stm32-vision-models-postprocessing/lib_vision_models_pp/Src/od_pp_ssd.c ****     vision_models_maxi_if32ou32(pScoresIn + 1,
 721              		.loc 1 225 5 view .LVU211
 226:../Middlewares/stm32-vision-models-postprocessing/lib_vision_models_pp/Src/od_pp_ssd.c ****                                 pInput_static_param->nb_classes-1,
 722              		.loc 1 226 5 view .LVU212
 227:../Middlewares/stm32-vision-models-postprocessing/lib_vision_models_pp/Src/od_pp_ssd.c ****                                 &best_score,
 723              		.loc 1 227 64 is_stmt 0 view .LVU213
 724 0036 2168     		ldr	r1, [r4]
 226:../Middlewares/stm32-vision-models-postprocessing/lib_vision_models_pp/Src/od_pp_ssd.c ****                                 pInput_static_param->nb_classes-1,
 725              		.loc 1 226 5 view .LVU214
 726 0038 6A46     		mov	r2, sp
 727 003a 01AB     		add	r3, sp, #4
 728 003c 0139     		subs	r1, r1, #1
 729 003e 381D     		adds	r0, r7, #4
 730 0040 FFF7FEFF 		bl	vision_models_maxi_if32ou32
 731              	.LVL47:
 230:../Middlewares/stm32-vision-models-postprocessing/lib_vision_models_pp/Src/od_pp_ssd.c ****     float32_t max = MAX(best_score, pScoresIn[0]);
 732              		.loc 1 230 5 is_stmt 1 view .LVU215
 231:../Middlewares/stm32-vision-models-postprocessing/lib_vision_models_pp/Src/od_pp_ssd.c ****     if (expf(best_score - max) < pInput_static_param->conf_threshold * ( expf(best_score - max) + e
 733              		.loc 1 231 5 view .LVU216
 231:../Middlewares/stm32-vision-models-postprocessing/lib_vision_models_pp/Src/od_pp_ssd.c ****     if (expf(best_score - max) < pInput_static_param->conf_threshold * ( expf(best_score - max) + e
 734              		.loc 1 231 21 is_stmt 0 view .LVU217
 735 0044 9DED000A 		vldr.32	s0, [sp]
 736 0048 97ED009A 		vldr.32	s18, [r7]
 737 004c B4EEC90A 		vcmpe.f32	s0, s18
 738 0050 F1EE10FA 		vmrs	APSR_nzcv, FPSCR
 739 0054 70FE099A 		vselgt.f32	s19, s0, s18
 740              	.LVL48:
 232:../Middlewares/stm32-vision-models-postprocessing/lib_vision_models_pp/Src/od_pp_ssd.c ****       bSkip = 1;
 741              		.loc 1 232 5 is_stmt 1 view .LVU218
 232:../Middlewares/stm32-vision-models-postprocessing/lib_vision_models_pp/Src/od_pp_ssd.c ****       bSkip = 1;
 742              		.loc 1 232 25 is_stmt 0 view .LVU219
 743 0058 30EE698A 		vsub.f32	s16, s0, s19
 232:../Middlewares/stm32-vision-models-postprocessing/lib_vision_models_pp/Src/od_pp_ssd.c ****       bSkip = 1;
 744              		.loc 1 232 9 view .LVU220
 745 005c B0EE480A 		vmov.f32	s0, s16
 746 0060 FFF7FEFF 		bl	expf
 747              	.LVL49:
 748 0064 F0EE408A 		vmov.f32	s17, s0
 232:../Middlewares/stm32-vision-models-postprocessing/lib_vision_models_pp/Src/od_pp_ssd.c ****       bSkip = 1;
 749              		.loc 1 232 74 discriminator 1 view .LVU221
 750 0068 B0EE480A 		vmov.f32	s0, s16
 232:../Middlewares/stm32-vision-models-postprocessing/lib_vision_models_pp/Src/od_pp_ssd.c ****       bSkip = 1;
 751              		.loc 1 232 53 discriminator 1 view .LVU222
 752 006c 94ED05AA 		vldr.32	s20, [r4, #20]
 232:../Middlewares/stm32-vision-models-postprocessing/lib_vision_models_pp/Src/od_pp_ssd.c ****       bSkip = 1;
 753              		.loc 1 232 74 discriminator 1 view .LVU223
 754 0070 FFF7FEFF 		bl	expf
 755              	.LVL50:
 756 0074 B0EE408A 		vmov.f32	s16, s0
 232:../Middlewares/stm32-vision-models-postprocessing/lib_vision_models_pp/Src/od_pp_ssd.c ****       bSkip = 1;
 757              		.loc 1 232 99 discriminator 2 view .LVU224
 758 0078 39EE690A 		vsub.f32	s0, s18, s19
 759 007c FFF7FEFF 		bl	expf
 760              	.LVL51:
 232:../Middlewares/stm32-vision-models-postprocessing/lib_vision_models_pp/Src/od_pp_ssd.c ****       bSkip = 1;
ARM GAS  /tmp/ccF7Geq9.s 			page 22


 761              		.loc 1 232 97 discriminator 3 view .LVU225
 762 0080 38EE008A 		vadd.f32	s16, s16, s0
 232:../Middlewares/stm32-vision-models-postprocessing/lib_vision_models_pp/Src/od_pp_ssd.c ****       bSkip = 1;
 763              		.loc 1 232 70 discriminator 3 view .LVU226
 764 0084 28EE0A8A 		vmul.f32	s16, s16, s20
 232:../Middlewares/stm32-vision-models-postprocessing/lib_vision_models_pp/Src/od_pp_ssd.c ****       bSkip = 1;
 765              		.loc 1 232 8 discriminator 3 view .LVU227
 766 0088 F4EEC88A 		vcmpe.f32	s17, s16
 767 008c F1EE10FA 		vmrs	APSR_nzcv, FPSCR
 768 0090 50D4     		bmi	.L43
 236:../Middlewares/stm32-vision-models-postprocessing/lib_vision_models_pp/Src/od_pp_ssd.c ****     {
 769              		.loc 1 236 5 is_stmt 1 view .LVU228
 238:../Middlewares/stm32-vision-models-postprocessing/lib_vision_models_pp/Src/od_pp_ssd.c ****       // Softmax
 770              		.loc 1 238 7 view .LVU229
 238:../Middlewares/stm32-vision-models-postprocessing/lib_vision_models_pp/Src/od_pp_ssd.c ****       // Softmax
 771              		.loc 1 238 18 is_stmt 0 view .LVU230
 772 0092 019B     		ldr	r3, [sp, #4]
 240:../Middlewares/stm32-vision-models-postprocessing/lib_vision_models_pp/Src/od_pp_ssd.c ****       best_score = pScoresIn[class_index];
 773              		.loc 1 240 7 view .LVU231
 774 0094 2268     		ldr	r2, [r4]
 238:../Middlewares/stm32-vision-models-postprocessing/lib_vision_models_pp/Src/od_pp_ssd.c ****       // Softmax
 775              		.loc 1 238 18 view .LVU232
 776 0096 0133     		adds	r3, r3, #1
 777 0098 0193     		str	r3, [sp, #4]
 240:../Middlewares/stm32-vision-models-postprocessing/lib_vision_models_pp/Src/od_pp_ssd.c ****       best_score = pScoresIn[class_index];
 778              		.loc 1 240 7 is_stmt 1 view .LVU233
 779 009a 3946     		mov	r1, r7
 780 009c 3B46     		mov	r3, r7
 781 009e 3846     		mov	r0, r7
 782 00a0 FFF7FEFF 		bl	vision_models_softmax_f
 783              	.LVL52:
 241:../Middlewares/stm32-vision-models-postprocessing/lib_vision_models_pp/Src/od_pp_ssd.c **** 
 784              		.loc 1 241 7 view .LVU234
 241:../Middlewares/stm32-vision-models-postprocessing/lib_vision_models_pp/Src/od_pp_ssd.c **** 
 785              		.loc 1 241 29 is_stmt 0 view .LVU235
 786 00a4 019B     		ldr	r3, [sp, #4]
 243:../Middlewares/stm32-vision-models-postprocessing/lib_vision_models_pp/Src/od_pp_ssd.c ****       {
 787              		.loc 1 243 10 view .LVU236
 788 00a6 94ED057A 		vldr.32	s14, [r4, #20]
 241:../Middlewares/stm32-vision-models-postprocessing/lib_vision_models_pp/Src/od_pp_ssd.c **** 
 789              		.loc 1 241 29 view .LVU237
 790 00aa 07EB8302 		add	r2, r7, r3, lsl #2
 791 00ae D2ED007A 		vldr.32	s15, [r2]
 243:../Middlewares/stm32-vision-models-postprocessing/lib_vision_models_pp/Src/od_pp_ssd.c ****       {
 792              		.loc 1 243 10 view .LVU238
 793 00b2 F4EEC77A 		vcmpe.f32	s15, s14
 794 00b6 F1EE10FA 		vmrs	APSR_nzcv, FPSCR
 241:../Middlewares/stm32-vision-models-postprocessing/lib_vision_models_pp/Src/od_pp_ssd.c **** 
 795              		.loc 1 241 18 view .LVU239
 796 00ba CDED007A 		vstr.32	s15, [sp]
 243:../Middlewares/stm32-vision-models-postprocessing/lib_vision_models_pp/Src/od_pp_ssd.c ****       {
 797              		.loc 1 243 7 is_stmt 1 view .LVU240
 243:../Middlewares/stm32-vision-models-postprocessing/lib_vision_models_pp/Src/od_pp_ssd.c ****       {
 798              		.loc 1 243 10 is_stmt 0 view .LVU241
 799 00be 39DB     		blt	.L43
 245:../Middlewares/stm32-vision-models-postprocessing/lib_vision_models_pp/Src/od_pp_ssd.c ****         pScratchBuffer->conf = best_score;
 800              		.loc 1 245 9 is_stmt 1 view .LVU242
ARM GAS  /tmp/ccF7Geq9.s 			page 23


 246:../Middlewares/stm32-vision-models-postprocessing/lib_vision_models_pp/Src/od_pp_ssd.c ****         pScratchBuffer->x_center = pBoxesIn[AI_SSD_PP_CENTROID_XCENTER] \
 801              		.loc 1 246 30 is_stmt 0 view .LVU243
 802 00c0 C6ED047A 		vstr.32	s15, [r6, #16]
 248:../Middlewares/stm32-vision-models-postprocessing/lib_vision_models_pp/Src/od_pp_ssd.c ****                                   * pAnchors[AI_SSD_PP_CENTROID_WIDTHREL] \
 803              		.loc 1 248 56 view .LVU244
 804 00c4 D4ED027A 		vldr.32	s15, [r4, #8]
 248:../Middlewares/stm32-vision-models-postprocessing/lib_vision_models_pp/Src/od_pp_ssd.c ****                                   * pAnchors[AI_SSD_PP_CENTROID_WIDTHREL] \
 805              		.loc 1 248 35 view .LVU245
 806 00c8 58ED046A 		vldr.32	s13, [r8, #-16]
 250:../Middlewares/stm32-vision-models-postprocessing/lib_vision_models_pp/Src/od_pp_ssd.c ****         pScratchBuffer->y_center = pBoxesIn[AI_SSD_PP_CENTROID_YCENTER] \
 807              		.loc 1 250 35 view .LVU246
 808 00cc 15ED026A 		vldr.32	s12, [r5, #-8]
 809 00d0 15ED047A 		vldr.32	s14, [r5, #-16]
 248:../Middlewares/stm32-vision-models-postprocessing/lib_vision_models_pp/Src/od_pp_ssd.c ****                                   * pAnchors[AI_SSD_PP_CENTROID_WIDTHREL] \
 810              		.loc 1 248 35 view .LVU247
 811 00d4 67EEA66A 		vmul.f32	s13, s15, s13
 250:../Middlewares/stm32-vision-models-postprocessing/lib_vision_models_pp/Src/od_pp_ssd.c ****         pScratchBuffer->y_center = pBoxesIn[AI_SSD_PP_CENTROID_YCENTER] \
 812              		.loc 1 250 35 view .LVU248
 813 00d8 A6EE867A 		vfma.f32	s14, s13, s12
 247:../Middlewares/stm32-vision-models-postprocessing/lib_vision_models_pp/Src/od_pp_ssd.c ****                                   * pInput_static_param->XY_inv_scale \
 814              		.loc 1 247 34 view .LVU249
 815 00dc 86ED007A 		vstr.32	s14, [r6]
 252:../Middlewares/stm32-vision-models-postprocessing/lib_vision_models_pp/Src/od_pp_ssd.c ****                                   * pAnchors[AI_SSD_PP_CENTROID_HEIGHTREL] \
 816              		.loc 1 252 35 view .LVU250
 817 00e0 18ED037A 		vldr.32	s14, [r8, #-12]
 254:../Middlewares/stm32-vision-models-postprocessing/lib_vision_models_pp/Src/od_pp_ssd.c ****         pScratchBuffer->width  = expf(pBoxesIn[AI_SSD_PP_CENTROID_WIDTHREL] \
 818              		.loc 1 254 35 view .LVU251
 819 00e4 55ED016A 		vldr.32	s13, [r5, #-4]
 252:../Middlewares/stm32-vision-models-postprocessing/lib_vision_models_pp/Src/od_pp_ssd.c ****                                   * pAnchors[AI_SSD_PP_CENTROID_HEIGHTREL] \
 820              		.loc 1 252 35 view .LVU252
 821 00e8 67EE877A 		vmul.f32	s15, s15, s14
 254:../Middlewares/stm32-vision-models-postprocessing/lib_vision_models_pp/Src/od_pp_ssd.c ****         pScratchBuffer->width  = expf(pBoxesIn[AI_SSD_PP_CENTROID_WIDTHREL] \
 822              		.loc 1 254 35 view .LVU253
 823 00ec 15ED037A 		vldr.32	s14, [r5, #-12]
 824 00f0 A7EEA67A 		vfma.f32	s14, s15, s13
 251:../Middlewares/stm32-vision-models-postprocessing/lib_vision_models_pp/Src/od_pp_ssd.c ****                                   * pInput_static_param->XY_inv_scale \
 825              		.loc 1 251 34 view .LVU254
 826 00f4 86ED017A 		vstr.32	s14, [r6, #4]
 256:../Middlewares/stm32-vision-models-postprocessing/lib_vision_models_pp/Src/od_pp_ssd.c ****                                       * pAnchors[AI_SSD_PP_CENTROID_WIDTHREL];
 827              		.loc 1 256 60 view .LVU255
 828 00f8 94ED038A 		vldr.32	s16, [r4, #12]
 256:../Middlewares/stm32-vision-models-postprocessing/lib_vision_models_pp/Src/od_pp_ssd.c ****                                       * pAnchors[AI_SSD_PP_CENTROID_WIDTHREL];
 829              		.loc 1 256 39 view .LVU256
 830 00fc 18ED020A 		vldr.32	s0, [r8, #-8]
 245:../Middlewares/stm32-vision-models-postprocessing/lib_vision_models_pp/Src/od_pp_ssd.c ****         pScratchBuffer->conf = best_score;
 831              		.loc 1 245 37 view .LVU257
 832 0100 7361     		str	r3, [r6, #20]
 246:../Middlewares/stm32-vision-models-postprocessing/lib_vision_models_pp/Src/od_pp_ssd.c ****         pScratchBuffer->x_center = pBoxesIn[AI_SSD_PP_CENTROID_XCENTER] \
 833              		.loc 1 246 9 is_stmt 1 view .LVU258
 247:../Middlewares/stm32-vision-models-postprocessing/lib_vision_models_pp/Src/od_pp_ssd.c ****                                   * pInput_static_param->XY_inv_scale \
 834              		.loc 1 247 9 view .LVU259
 251:../Middlewares/stm32-vision-models-postprocessing/lib_vision_models_pp/Src/od_pp_ssd.c ****                                   * pInput_static_param->XY_inv_scale \
 835              		.loc 1 251 9 view .LVU260
 255:../Middlewares/stm32-vision-models-postprocessing/lib_vision_models_pp/Src/od_pp_ssd.c ****                                       * pInput_static_param->WH_inv_scale) \
 836              		.loc 1 255 9 view .LVU261
 255:../Middlewares/stm32-vision-models-postprocessing/lib_vision_models_pp/Src/od_pp_ssd.c ****                                       * pInput_static_param->WH_inv_scale) \
 837              		.loc 1 255 34 is_stmt 0 view .LVU262
ARM GAS  /tmp/ccF7Geq9.s 			page 24


 838 0102 28EE000A 		vmul.f32	s0, s16, s0
 839 0106 FFF7FEFF 		bl	expf
 840              	.LVL53:
 257:../Middlewares/stm32-vision-models-postprocessing/lib_vision_models_pp/Src/od_pp_ssd.c ****         pScratchBuffer->height = expf(pBoxesIn[AI_SSD_PP_CENTROID_HEIGHTREL] \
 841              		.loc 1 257 39 view .LVU263
 842 010a 55ED027A 		vldr.32	s15, [r5, #-8]
 843 010e 67EE807A 		vmul.f32	s15, s15, s0
 255:../Middlewares/stm32-vision-models-postprocessing/lib_vision_models_pp/Src/od_pp_ssd.c ****                                       * pInput_static_param->WH_inv_scale) \
 844              		.loc 1 255 32 view .LVU264
 845 0112 C6ED027A 		vstr.32	s15, [r6, #8]
 258:../Middlewares/stm32-vision-models-postprocessing/lib_vision_models_pp/Src/od_pp_ssd.c ****                                       * pInput_static_param->WH_inv_scale) \
 846              		.loc 1 258 9 is_stmt 1 view .LVU265
 259:../Middlewares/stm32-vision-models-postprocessing/lib_vision_models_pp/Src/od_pp_ssd.c ****                                       * pAnchors[AI_SSD_PP_CENTROID_HEIGHTREL];
 847              		.loc 1 259 39 is_stmt 0 view .LVU266
 848 0116 18ED010A 		vldr.32	s0, [r8, #-4]
 258:../Middlewares/stm32-vision-models-postprocessing/lib_vision_models_pp/Src/od_pp_ssd.c ****                                       * pInput_static_param->WH_inv_scale) \
 849              		.loc 1 258 34 view .LVU267
 850 011a 28EE000A 		vmul.f32	s0, s16, s0
 851 011e FFF7FEFF 		bl	expf
 852              	.LVL54:
 260:../Middlewares/stm32-vision-models-postprocessing/lib_vision_models_pp/Src/od_pp_ssd.c **** 
 853              		.loc 1 260 39 view .LVU268
 854 0122 55ED017A 		vldr.32	s15, [r5, #-4]
 855 0126 67EE807A 		vmul.f32	s15, s15, s0
 262:../Middlewares/stm32-vision-models-postprocessing/lib_vision_models_pp/Src/od_pp_ssd.c ****         nb_detect++;
 856              		.loc 1 262 23 view .LVU269
 857 012a 1836     		adds	r6, r6, #24
 858              	.LVL55:
 258:../Middlewares/stm32-vision-models-postprocessing/lib_vision_models_pp/Src/od_pp_ssd.c ****                                       * pInput_static_param->WH_inv_scale) \
 859              		.loc 1 258 32 view .LVU270
 860 012c 46ED037A 		vstr.32	s15, [r6, #-12]
 262:../Middlewares/stm32-vision-models-postprocessing/lib_vision_models_pp/Src/od_pp_ssd.c ****         nb_detect++;
 861              		.loc 1 262 9 is_stmt 1 view .LVU271
 862              	.LVL56:
 263:../Middlewares/stm32-vision-models-postprocessing/lib_vision_models_pp/Src/od_pp_ssd.c ****       }
 863              		.loc 1 263 9 view .LVU272
 263:../Middlewares/stm32-vision-models-postprocessing/lib_vision_models_pp/Src/od_pp_ssd.c ****       }
 864              		.loc 1 263 18 is_stmt 0 view .LVU273
 865 0130 0AF1010A 		add	r10, r10, #1
 866              	.LVL57:
 867              	.L43:
 266:../Middlewares/stm32-vision-models-postprocessing/lib_vision_models_pp/Src/od_pp_ssd.c ****     pAnchors  += AI_SSD_PP_BOX_STRIDE;
 868              		.loc 1 266 5 is_stmt 1 view .LVU274
 267:../Middlewares/stm32-vision-models-postprocessing/lib_vision_models_pp/Src/od_pp_ssd.c ****     pScoresIn += pInput_static_param->nb_classes;
 869              		.loc 1 267 5 view .LVU275
 268:../Middlewares/stm32-vision-models-postprocessing/lib_vision_models_pp/Src/od_pp_ssd.c **** 
 870              		.loc 1 268 5 view .LVU276
 268:../Middlewares/stm32-vision-models-postprocessing/lib_vision_models_pp/Src/od_pp_ssd.c **** 
 871              		.loc 1 268 15 is_stmt 0 view .LVU277
 872 0134 2368     		ldr	r3, [r4]
 873              	.LBE34:
 222:../Middlewares/stm32-vision-models-postprocessing/lib_vision_models_pp/Src/od_pp_ssd.c ****   {
 874              		.loc 1 222 64 discriminator 2 view .LVU278
 875 0136 09F10109 		add	r9, r9, #1
 876              	.LVL58:
 877              	.LBB35:
 268:../Middlewares/stm32-vision-models-postprocessing/lib_vision_models_pp/Src/od_pp_ssd.c **** 
ARM GAS  /tmp/ccF7Geq9.s 			page 25


 878              		.loc 1 268 15 view .LVU279
 879 013a 07EB8307 		add	r7, r7, r3, lsl #2
 880              	.LVL59:
 268:../Middlewares/stm32-vision-models-postprocessing/lib_vision_models_pp/Src/od_pp_ssd.c **** 
 881              		.loc 1 268 15 view .LVU280
 882              	.LBE35:
 222:../Middlewares/stm32-vision-models-postprocessing/lib_vision_models_pp/Src/od_pp_ssd.c ****   {
 883              		.loc 1 222 64 is_stmt 1 discriminator 2 view .LVU281
 222:../Middlewares/stm32-vision-models-postprocessing/lib_vision_models_pp/Src/od_pp_ssd.c ****   {
 884              		.loc 1 222 64 is_stmt 0 discriminator 2 view .LVU282
 885 013e 08F11008 		add	r8, r8, #16
 886              	.LVL60:
 222:../Middlewares/stm32-vision-models-postprocessing/lib_vision_models_pp/Src/od_pp_ssd.c ****   {
 887              		.loc 1 222 64 discriminator 2 view .LVU283
 888 0142 1035     		adds	r5, r5, #16
 889 0144 6CE7     		b	.L40
 890              	.LBE37:
 891              		.cfi_endproc
 892              	.LFE778:
 894              		.section	.text.ssd_pp_getNNBoxes_int8_scratchBuffer,"ax",%progbits
 895              		.align	1
 896              		.global	ssd_pp_getNNBoxes_int8_scratchBuffer
 897              		.syntax unified
 898              		.thumb
 899              		.thumb_func
 901              	ssd_pp_getNNBoxes_int8_scratchBuffer:
 902              	.LVL61:
 903              	.LFB779:
 275:../Middlewares/stm32-vision-models-postprocessing/lib_vision_models_pp/Src/od_pp_ssd.c **** 
 276:../Middlewares/stm32-vision-models-postprocessing/lib_vision_models_pp/Src/od_pp_ssd.c **** 
 277:../Middlewares/stm32-vision-models-postprocessing/lib_vision_models_pp/Src/od_pp_ssd.c **** int32_t ssd_pp_getNNBoxes_int8_scratchBuffer(od_ssd_pp_in_centroid_t *pInput,
 278:../Middlewares/stm32-vision-models-postprocessing/lib_vision_models_pp/Src/od_pp_ssd.c ****                                              od_pp_outBuffer_t *pScratchBuffer,
 279:../Middlewares/stm32-vision-models-postprocessing/lib_vision_models_pp/Src/od_pp_ssd.c ****                                              od_ssd_pp_static_param_t *pInput_static_param)
 280:../Middlewares/stm32-vision-models-postprocessing/lib_vision_models_pp/Src/od_pp_ssd.c **** {
 904              		.loc 1 280 1 is_stmt 1 view -0
 905              		.cfi_startproc
 906              		@ args = 0, pretend = 0, frame = 24
 907              		@ frame_needed = 0, uses_anonymous_args = 0
 281:../Middlewares/stm32-vision-models-postprocessing/lib_vision_models_pp/Src/od_pp_ssd.c ****   int8_t *pScoresIn = (int8_t *)pInput->pScores;
 908              		.loc 1 281 3 view .LVU285
 280:../Middlewares/stm32-vision-models-postprocessing/lib_vision_models_pp/Src/od_pp_ssd.c ****   int8_t *pScoresIn = (int8_t *)pInput->pScores;
 909              		.loc 1 280 1 is_stmt 0 view .LVU286
 910 0000 2DE9F04F 		push	{r4, r5, r6, r7, r8, r9, r10, fp, lr}
 911              		.cfi_def_cfa_offset 36
 912              		.cfi_offset 4, -36
 913              		.cfi_offset 5, -32
 914              		.cfi_offset 6, -28
 915              		.cfi_offset 7, -24
 916              		.cfi_offset 8, -20
 917              		.cfi_offset 9, -16
 918              		.cfi_offset 10, -12
 919              		.cfi_offset 11, -8
 920              		.cfi_offset 14, -4
 921              	.LBB38:
 282:../Middlewares/stm32-vision-models-postprocessing/lib_vision_models_pp/Src/od_pp_ssd.c ****   int8_t *pBoxesIn  = (int8_t *)pInput->pBoxes;
 283:../Middlewares/stm32-vision-models-postprocessing/lib_vision_models_pp/Src/od_pp_ssd.c ****   float32_t *pAnchors  = (float32_t *)pInput_static_param->pAnchors;
 284:../Middlewares/stm32-vision-models-postprocessing/lib_vision_models_pp/Src/od_pp_ssd.c ****   uint32_t nb_detect = 0;
ARM GAS  /tmp/ccF7Geq9.s 			page 26


 285:../Middlewares/stm32-vision-models-postprocessing/lib_vision_models_pp/Src/od_pp_ssd.c **** 
 286:../Middlewares/stm32-vision-models-postprocessing/lib_vision_models_pp/Src/od_pp_ssd.c ****   int8_t boxe_zp         = pInput_static_param->boxe_zero_point;
 287:../Middlewares/stm32-vision-models-postprocessing/lib_vision_models_pp/Src/od_pp_ssd.c ****   float32_t boxe_scale   = pInput_static_param->boxe_scale;
 288:../Middlewares/stm32-vision-models-postprocessing/lib_vision_models_pp/Src/od_pp_ssd.c **** 
 289:../Middlewares/stm32-vision-models-postprocessing/lib_vision_models_pp/Src/od_pp_ssd.c ****   int8_t score_zp        = pInput_static_param->score_zero_point;
 290:../Middlewares/stm32-vision-models-postprocessing/lib_vision_models_pp/Src/od_pp_ssd.c ****   float32_t score_scale  = pInput_static_param->score_scale;
 291:../Middlewares/stm32-vision-models-postprocessing/lib_vision_models_pp/Src/od_pp_ssd.c **** 
 292:../Middlewares/stm32-vision-models-postprocessing/lib_vision_models_pp/Src/od_pp_ssd.c ****   for (int32_t i = 0; i < pInput_static_param->nb_detections; i++)
 922              		.loc 1 292 16 view .LVU287
 923 0004 4FF00009 		mov	r9, #0
 924              	.LBE38:
 280:../Middlewares/stm32-vision-models-postprocessing/lib_vision_models_pp/Src/od_pp_ssd.c ****   int8_t *pScoresIn = (int8_t *)pInput->pScores;
 925              		.loc 1 280 1 view .LVU288
 926 0008 2DED068B 		vpush.64	{d8, d9, d10}
 927              		.cfi_def_cfa_offset 60
 928              		.cfi_offset 80, -60
 929              		.cfi_offset 81, -56
 930              		.cfi_offset 82, -52
 931              		.cfi_offset 83, -48
 932              		.cfi_offset 84, -44
 933              		.cfi_offset 85, -40
 934 000c 1446     		mov	r4, r2
 287:../Middlewares/stm32-vision-models-postprocessing/lib_vision_models_pp/Src/od_pp_ssd.c **** 
 935              		.loc 1 287 13 view .LVU289
 936 000e D2ED0B8A 		vldr.32	s17, [r2, #44]
 290:../Middlewares/stm32-vision-models-postprocessing/lib_vision_models_pp/Src/od_pp_ssd.c **** 
 937              		.loc 1 290 13 view .LVU290
 938 0012 92ED0C9A 		vldr.32	s18, [r2, #48]
 284:../Middlewares/stm32-vision-models-postprocessing/lib_vision_models_pp/Src/od_pp_ssd.c **** 
 939              		.loc 1 284 12 view .LVU291
 940 0016 C846     		mov	r8, r9
 289:../Middlewares/stm32-vision-models-postprocessing/lib_vision_models_pp/Src/od_pp_ssd.c ****   float32_t score_scale  = pInput_static_param->score_scale;
 941              		.loc 1 289 10 view .LVU292
 942 0018 92F93530 		ldrsb	r3, [r2, #53]
 943 001c 0568     		ldr	r5, [r0]
 944 001e 166A     		ldr	r6, [r2, #32]
 280:../Middlewares/stm32-vision-models-postprocessing/lib_vision_models_pp/Src/od_pp_ssd.c ****   int8_t *pScoresIn = (int8_t *)pInput->pScores;
 945              		.loc 1 280 1 view .LVU293
 946 0020 87B0     		sub	sp, sp, #28
 947              		.cfi_def_cfa_offset 88
 281:../Middlewares/stm32-vision-models-postprocessing/lib_vision_models_pp/Src/od_pp_ssd.c ****   int8_t *pBoxesIn  = (int8_t *)pInput->pBoxes;
 948              		.loc 1 281 11 view .LVU294
 949 0022 4768     		ldr	r7, [r0, #4]
 950              	.LVL62:
 282:../Middlewares/stm32-vision-models-postprocessing/lib_vision_models_pp/Src/od_pp_ssd.c ****   float32_t *pAnchors  = (float32_t *)pInput_static_param->pAnchors;
 951              		.loc 1 282 3 is_stmt 1 view .LVU295
 283:../Middlewares/stm32-vision-models-postprocessing/lib_vision_models_pp/Src/od_pp_ssd.c ****   uint32_t nb_detect = 0;
 952              		.loc 1 283 3 view .LVU296
 284:../Middlewares/stm32-vision-models-postprocessing/lib_vision_models_pp/Src/od_pp_ssd.c **** 
 953              		.loc 1 284 3 view .LVU297
 286:../Middlewares/stm32-vision-models-postprocessing/lib_vision_models_pp/Src/od_pp_ssd.c ****   float32_t boxe_scale   = pInput_static_param->boxe_scale;
 954              		.loc 1 286 3 view .LVU298
 286:../Middlewares/stm32-vision-models-postprocessing/lib_vision_models_pp/Src/od_pp_ssd.c ****   float32_t boxe_scale   = pInput_static_param->boxe_scale;
 955              		.loc 1 286 10 is_stmt 0 view .LVU299
 956 0024 92F934A0 		ldrsb	r10, [r2, #52]
 957              	.LVL63:
 287:../Middlewares/stm32-vision-models-postprocessing/lib_vision_models_pp/Src/od_pp_ssd.c **** 
ARM GAS  /tmp/ccF7Geq9.s 			page 27


 958              		.loc 1 287 3 is_stmt 1 view .LVU300
 289:../Middlewares/stm32-vision-models-postprocessing/lib_vision_models_pp/Src/od_pp_ssd.c ****   float32_t score_scale  = pInput_static_param->score_scale;
 959              		.loc 1 289 3 view .LVU301
 280:../Middlewares/stm32-vision-models-postprocessing/lib_vision_models_pp/Src/od_pp_ssd.c ****   int8_t *pScoresIn = (int8_t *)pInput->pScores;
 960              		.loc 1 280 1 is_stmt 0 view .LVU302
 961 0028 0291     		str	r1, [sp, #8]
 289:../Middlewares/stm32-vision-models-postprocessing/lib_vision_models_pp/Src/od_pp_ssd.c ****   float32_t score_scale  = pInput_static_param->score_scale;
 962              		.loc 1 289 10 view .LVU303
 963 002a 0193     		str	r3, [sp, #4]
 964              	.LVL64:
 290:../Middlewares/stm32-vision-models-postprocessing/lib_vision_models_pp/Src/od_pp_ssd.c **** 
 965              		.loc 1 290 3 is_stmt 1 view .LVU304
 966              		.loc 1 292 3 view .LVU305
 967              	.LBB50:
 968              		.loc 1 292 8 view .LVU306
 969              		.loc 1 292 8 is_stmt 0 view .LVU307
 970 002c 0435     		adds	r5, r5, #4
 971              	.LVL65:
 972              		.loc 1 292 8 view .LVU308
 973 002e 1036     		adds	r6, r6, #16
 974              	.LVL66:
 975              	.L46:
 976              		.loc 1 292 25 is_stmt 1 discriminator 1 view .LVU309
 977 0030 6368     		ldr	r3, [r4, #4]
 978 0032 4B45     		cmp	r3, r9
 979 0034 07DC     		bgt	.L52
 980              		.loc 1 292 25 is_stmt 0 discriminator 1 view .LVU310
 981              	.LBE50:
 293:../Middlewares/stm32-vision-models-postprocessing/lib_vision_models_pp/Src/od_pp_ssd.c ****   {
 294:../Middlewares/stm32-vision-models-postprocessing/lib_vision_models_pp/Src/od_pp_ssd.c ****     int8_t best_score_i8;
 295:../Middlewares/stm32-vision-models-postprocessing/lib_vision_models_pp/Src/od_pp_ssd.c ****     uint8_t class_index_u8;
 296:../Middlewares/stm32-vision-models-postprocessing/lib_vision_models_pp/Src/od_pp_ssd.c ****     float32_t best_score;
 297:../Middlewares/stm32-vision-models-postprocessing/lib_vision_models_pp/Src/od_pp_ssd.c **** 
 298:../Middlewares/stm32-vision-models-postprocessing/lib_vision_models_pp/Src/od_pp_ssd.c ****     // Max removing backrground
 299:../Middlewares/stm32-vision-models-postprocessing/lib_vision_models_pp/Src/od_pp_ssd.c ****     vision_models_maxi_is8ou8(pScoresIn+1,
 300:../Middlewares/stm32-vision-models-postprocessing/lib_vision_models_pp/Src/od_pp_ssd.c ****                               pInput_static_param->nb_classes-1,
 301:../Middlewares/stm32-vision-models-postprocessing/lib_vision_models_pp/Src/od_pp_ssd.c ****                               &best_score_i8,
 302:../Middlewares/stm32-vision-models-postprocessing/lib_vision_models_pp/Src/od_pp_ssd.c ****                               &class_index_u8);
 303:../Middlewares/stm32-vision-models-postprocessing/lib_vision_models_pp/Src/od_pp_ssd.c ****     // first rough check reduced softmax
 304:../Middlewares/stm32-vision-models-postprocessing/lib_vision_models_pp/Src/od_pp_ssd.c ****     // exp(x) / (exp(x) + exp(x0)) > threshold
 305:../Middlewares/stm32-vision-models-postprocessing/lib_vision_models_pp/Src/od_pp_ssd.c ****     int bSkip = 0;
 306:../Middlewares/stm32-vision-models-postprocessing/lib_vision_models_pp/Src/od_pp_ssd.c ****     int8_t max = MAX(best_score_i8, pScoresIn[0]);
 307:../Middlewares/stm32-vision-models-postprocessing/lib_vision_models_pp/Src/od_pp_ssd.c ****     if (expf((best_score_i8-max)*score_scale) < pInput_static_param->conf_threshold * ( expf((best_
 308:../Middlewares/stm32-vision-models-postprocessing/lib_vision_models_pp/Src/od_pp_ssd.c ****       bSkip = 1;
 309:../Middlewares/stm32-vision-models-postprocessing/lib_vision_models_pp/Src/od_pp_ssd.c ****     }
 310:../Middlewares/stm32-vision-models-postprocessing/lib_vision_models_pp/Src/od_pp_ssd.c **** 
 311:../Middlewares/stm32-vision-models-postprocessing/lib_vision_models_pp/Src/od_pp_ssd.c ****     if (bSkip == 0) {
 312:../Middlewares/stm32-vision-models-postprocessing/lib_vision_models_pp/Src/od_pp_ssd.c ****       class_index_u8 += 1;
 313:../Middlewares/stm32-vision-models-postprocessing/lib_vision_models_pp/Src/od_pp_ssd.c ****       float32_t *pScratch_buffer_float = pInput_static_param->pScratchBufferSoftMax;
 314:../Middlewares/stm32-vision-models-postprocessing/lib_vision_models_pp/Src/od_pp_ssd.c ****       // Dequantize
 315:../Middlewares/stm32-vision-models-postprocessing/lib_vision_models_pp/Src/od_pp_ssd.c ****       for (int e = 0; e < pInput_static_param->nb_classes; e++) {
 316:../Middlewares/stm32-vision-models-postprocessing/lib_vision_models_pp/Src/od_pp_ssd.c ****         pScratch_buffer_float[e] = (float32_t)((int32_t)pScoresIn[e] - score_zp) * score_scale;
 317:../Middlewares/stm32-vision-models-postprocessing/lib_vision_models_pp/Src/od_pp_ssd.c ****       }
 318:../Middlewares/stm32-vision-models-postprocessing/lib_vision_models_pp/Src/od_pp_ssd.c ****       // Softmax
 319:../Middlewares/stm32-vision-models-postprocessing/lib_vision_models_pp/Src/od_pp_ssd.c ****       vision_models_softmax_f(pScratch_buffer_float, pScratch_buffer_float, pInput_static_param->nb
 320:../Middlewares/stm32-vision-models-postprocessing/lib_vision_models_pp/Src/od_pp_ssd.c ****       best_score = pScratch_buffer_float[class_index_u8];
 321:../Middlewares/stm32-vision-models-postprocessing/lib_vision_models_pp/Src/od_pp_ssd.c **** 
ARM GAS  /tmp/ccF7Geq9.s 			page 28


 322:../Middlewares/stm32-vision-models-postprocessing/lib_vision_models_pp/Src/od_pp_ssd.c ****       if (best_score >= pInput_static_param->conf_threshold)
 323:../Middlewares/stm32-vision-models-postprocessing/lib_vision_models_pp/Src/od_pp_ssd.c ****       {
 324:../Middlewares/stm32-vision-models-postprocessing/lib_vision_models_pp/Src/od_pp_ssd.c ****         float32_t value, anchor_rel_x, anchor_rel_y, anchor_size_w, anchor_size_h;
 325:../Middlewares/stm32-vision-models-postprocessing/lib_vision_models_pp/Src/od_pp_ssd.c ****         pScratchBuffer[nb_detect].class_index = class_index_u8;
 326:../Middlewares/stm32-vision-models-postprocessing/lib_vision_models_pp/Src/od_pp_ssd.c ****         pScratchBuffer[nb_detect].conf = best_score;
 327:../Middlewares/stm32-vision-models-postprocessing/lib_vision_models_pp/Src/od_pp_ssd.c **** 
 328:../Middlewares/stm32-vision-models-postprocessing/lib_vision_models_pp/Src/od_pp_ssd.c ****         value         = (float32_t)((int32_t)  pBoxesIn[AI_SSD_PP_CENTROID_XCENTER]   - boxe_zp )  
 329:../Middlewares/stm32-vision-models-postprocessing/lib_vision_models_pp/Src/od_pp_ssd.c ****         anchor_rel_x  = (float32_t)pAnchors[AI_SSD_PP_CENTROID_XCENTER];
 330:../Middlewares/stm32-vision-models-postprocessing/lib_vision_models_pp/Src/od_pp_ssd.c ****         anchor_size_w = (float32_t)pAnchors[AI_SSD_PP_CENTROID_WIDTHREL];
 331:../Middlewares/stm32-vision-models-postprocessing/lib_vision_models_pp/Src/od_pp_ssd.c ****         pScratchBuffer[nb_detect].x_center =
 332:../Middlewares/stm32-vision-models-postprocessing/lib_vision_models_pp/Src/od_pp_ssd.c ****             value \
 333:../Middlewares/stm32-vision-models-postprocessing/lib_vision_models_pp/Src/od_pp_ssd.c ****             * pInput_static_param->XY_inv_scale \
 334:../Middlewares/stm32-vision-models-postprocessing/lib_vision_models_pp/Src/od_pp_ssd.c ****             * anchor_size_w \
 335:../Middlewares/stm32-vision-models-postprocessing/lib_vision_models_pp/Src/od_pp_ssd.c ****             + anchor_rel_x;
 336:../Middlewares/stm32-vision-models-postprocessing/lib_vision_models_pp/Src/od_pp_ssd.c **** 
 337:../Middlewares/stm32-vision-models-postprocessing/lib_vision_models_pp/Src/od_pp_ssd.c ****         value         = (float32_t)((int32_t)  pBoxesIn[AI_SSD_PP_CENTROID_YCENTER]   - boxe_zp )  
 338:../Middlewares/stm32-vision-models-postprocessing/lib_vision_models_pp/Src/od_pp_ssd.c ****         anchor_rel_y  = (float32_t)pAnchors[AI_SSD_PP_CENTROID_YCENTER];
 339:../Middlewares/stm32-vision-models-postprocessing/lib_vision_models_pp/Src/od_pp_ssd.c ****         anchor_size_h = (float32_t)pAnchors[AI_SSD_PP_CENTROID_HEIGHTREL];
 340:../Middlewares/stm32-vision-models-postprocessing/lib_vision_models_pp/Src/od_pp_ssd.c ****         pScratchBuffer[nb_detect].y_center = value * pInput_static_param->XY_inv_scale * anchor_siz
 341:../Middlewares/stm32-vision-models-postprocessing/lib_vision_models_pp/Src/od_pp_ssd.c **** 
 342:../Middlewares/stm32-vision-models-postprocessing/lib_vision_models_pp/Src/od_pp_ssd.c ****         value         = (float32_t)((int32_t)  pBoxesIn[AI_SSD_PP_CENTROID_WIDTHREL]  - boxe_zp )  
 343:../Middlewares/stm32-vision-models-postprocessing/lib_vision_models_pp/Src/od_pp_ssd.c ****         pScratchBuffer[nb_detect].width  = expf(value * pInput_static_param->WH_inv_scale) * anchor
 344:../Middlewares/stm32-vision-models-postprocessing/lib_vision_models_pp/Src/od_pp_ssd.c **** 
 345:../Middlewares/stm32-vision-models-postprocessing/lib_vision_models_pp/Src/od_pp_ssd.c ****         value         = (float32_t)((int32_t)  pBoxesIn[AI_SSD_PP_CENTROID_HEIGHTREL] - boxe_zp )  
 346:../Middlewares/stm32-vision-models-postprocessing/lib_vision_models_pp/Src/od_pp_ssd.c ****         pScratchBuffer[nb_detect].height = expf(value * pInput_static_param->WH_inv_scale) * anchor
 347:../Middlewares/stm32-vision-models-postprocessing/lib_vision_models_pp/Src/od_pp_ssd.c **** 
 348:../Middlewares/stm32-vision-models-postprocessing/lib_vision_models_pp/Src/od_pp_ssd.c ****         nb_detect++;
 349:../Middlewares/stm32-vision-models-postprocessing/lib_vision_models_pp/Src/od_pp_ssd.c ****       } // if > thrshold
 350:../Middlewares/stm32-vision-models-postprocessing/lib_vision_models_pp/Src/od_pp_ssd.c ****     }
 351:../Middlewares/stm32-vision-models-postprocessing/lib_vision_models_pp/Src/od_pp_ssd.c ****     pBoxesIn  += AI_SSD_PP_BOX_STRIDE;
 352:../Middlewares/stm32-vision-models-postprocessing/lib_vision_models_pp/Src/od_pp_ssd.c ****     pAnchors  += AI_SSD_PP_BOX_STRIDE;
 353:../Middlewares/stm32-vision-models-postprocessing/lib_vision_models_pp/Src/od_pp_ssd.c ****     pScoresIn += pInput_static_param->nb_classes;
 354:../Middlewares/stm32-vision-models-postprocessing/lib_vision_models_pp/Src/od_pp_ssd.c **** 
 355:../Middlewares/stm32-vision-models-postprocessing/lib_vision_models_pp/Src/od_pp_ssd.c ****   } // for i
 356:../Middlewares/stm32-vision-models-postprocessing/lib_vision_models_pp/Src/od_pp_ssd.c ****   pInput_static_param->nb_detect = nb_detect;
 982              		.loc 1 356 3 is_stmt 1 view .LVU311
 357:../Middlewares/stm32-vision-models-postprocessing/lib_vision_models_pp/Src/od_pp_ssd.c **** 
 358:../Middlewares/stm32-vision-models-postprocessing/lib_vision_models_pp/Src/od_pp_ssd.c ****   return (AI_OD_POSTPROCESS_ERROR_NO);
 359:../Middlewares/stm32-vision-models-postprocessing/lib_vision_models_pp/Src/od_pp_ssd.c **** }
 983              		.loc 1 359 1 is_stmt 0 view .LVU312
 984 0036 0020     		movs	r0, #0
 356:../Middlewares/stm32-vision-models-postprocessing/lib_vision_models_pp/Src/od_pp_ssd.c **** 
 985              		.loc 1 356 34 view .LVU313
 986 0038 C4F81C80 		str	r8, [r4, #28]
 358:../Middlewares/stm32-vision-models-postprocessing/lib_vision_models_pp/Src/od_pp_ssd.c **** }
 987              		.loc 1 358 3 is_stmt 1 view .LVU314
 988              		.loc 1 359 1 is_stmt 0 view .LVU315
 989 003c 07B0     		add	sp, sp, #28
 990              		.cfi_remember_state
 991              		.cfi_def_cfa_offset 60
 992              		@ sp needed
 993 003e BDEC068B 		vldm	sp!, {d8-d10}
 994              		.cfi_restore 84
 995              		.cfi_restore 85
 996              		.cfi_restore 82
 997              		.cfi_restore 83
 998              		.cfi_restore 80
ARM GAS  /tmp/ccF7Geq9.s 			page 29


 999              		.cfi_restore 81
 1000              		.cfi_def_cfa_offset 36
 1001              	.LVL67:
 1002              		.loc 1 359 1 view .LVU316
 1003 0042 BDE8F08F 		pop	{r4, r5, r6, r7, r8, r9, r10, fp, pc}
 1004              	.LVL68:
 1005              	.L52:
 1006              		.cfi_restore_state
 1007              	.LBB51:
 1008              	.LBB39:
 294:../Middlewares/stm32-vision-models-postprocessing/lib_vision_models_pp/Src/od_pp_ssd.c ****     uint8_t class_index_u8;
 1009              		.loc 1 294 5 is_stmt 1 view .LVU317
 295:../Middlewares/stm32-vision-models-postprocessing/lib_vision_models_pp/Src/od_pp_ssd.c ****     float32_t best_score;
 1010              		.loc 1 295 5 view .LVU318
 296:../Middlewares/stm32-vision-models-postprocessing/lib_vision_models_pp/Src/od_pp_ssd.c **** 
 1011              		.loc 1 296 5 view .LVU319
 299:../Middlewares/stm32-vision-models-postprocessing/lib_vision_models_pp/Src/od_pp_ssd.c ****                               pInput_static_param->nb_classes-1,
 1012              		.loc 1 299 5 view .LVU320
 300:../Middlewares/stm32-vision-models-postprocessing/lib_vision_models_pp/Src/od_pp_ssd.c ****                               &best_score_i8,
 1013              		.loc 1 300 62 is_stmt 0 view .LVU321
 1014 0046 2168     		ldr	r1, [r4]
 299:../Middlewares/stm32-vision-models-postprocessing/lib_vision_models_pp/Src/od_pp_ssd.c ****                               pInput_static_param->nb_classes-1,
 1015              		.loc 1 299 5 view .LVU322
 1016 0048 781C     		adds	r0, r7, #1
 1017 004a 0139     		subs	r1, r1, #1
 1018 004c 0DF11703 		add	r3, sp, #23
 1019 0050 0DF11602 		add	r2, sp, #22
 1020 0054 FFF7FEFF 		bl	vision_models_maxi_is8ou8
 1021              	.LVL69:
 305:../Middlewares/stm32-vision-models-postprocessing/lib_vision_models_pp/Src/od_pp_ssd.c ****     int8_t max = MAX(best_score_i8, pScoresIn[0]);
 1022              		.loc 1 305 5 is_stmt 1 view .LVU323
 306:../Middlewares/stm32-vision-models-postprocessing/lib_vision_models_pp/Src/od_pp_ssd.c ****     if (expf((best_score_i8-max)*score_scale) < pInput_static_param->conf_threshold * ( expf((best_
 1023              		.loc 1 306 5 view .LVU324
 306:../Middlewares/stm32-vision-models-postprocessing/lib_vision_models_pp/Src/od_pp_ssd.c ****     if (expf((best_score_i8-max)*score_scale) < pInput_static_param->conf_threshold * ( expf((best_
 1024              		.loc 1 306 18 is_stmt 0 view .LVU325
 1025 0058 97F90020 		ldrsb	r2, [r7]
 1026 005c 9DF91630 		ldrsb	r3, [sp, #22]
 1027              	.LVL70:
 307:../Middlewares/stm32-vision-models-postprocessing/lib_vision_models_pp/Src/od_pp_ssd.c ****       bSkip = 1;
 1028              		.loc 1 307 5 is_stmt 1 view .LVU326
 307:../Middlewares/stm32-vision-models-postprocessing/lib_vision_models_pp/Src/od_pp_ssd.c ****       bSkip = 1;
 1029              		.loc 1 307 28 is_stmt 0 view .LVU327
 1030 0060 9346     		mov	fp, r2
 1031 0062 9A42     		cmp	r2, r3
 1032 0064 B8BF     		it	lt
 1033 0066 9B46     		movlt	fp, r3
 1034 0068 A3EB0B03 		sub	r3, r3, fp
 1035              	.LVL71:
 307:../Middlewares/stm32-vision-models-postprocessing/lib_vision_models_pp/Src/od_pp_ssd.c ****       bSkip = 1;
 1036              		.loc 1 307 28 view .LVU328
 1037 006c 08EE103A 		vmov	s16, r3	@ int
 307:../Middlewares/stm32-vision-models-postprocessing/lib_vision_models_pp/Src/od_pp_ssd.c ****       bSkip = 1;
 1038              		.loc 1 307 9 view .LVU329
 1039 0070 B8EEC88A 		vcvt.f32.s32	s16, s16
 307:../Middlewares/stm32-vision-models-postprocessing/lib_vision_models_pp/Src/od_pp_ssd.c ****       bSkip = 1;
 1040              		.loc 1 307 33 view .LVU330
 1041 0074 28EE098A 		vmul.f32	s16, s16, s18
ARM GAS  /tmp/ccF7Geq9.s 			page 30


 307:../Middlewares/stm32-vision-models-postprocessing/lib_vision_models_pp/Src/od_pp_ssd.c ****       bSkip = 1;
 1042              		.loc 1 307 9 view .LVU331
 1043 0078 B0EE480A 		vmov.f32	s0, s16
 307:../Middlewares/stm32-vision-models-postprocessing/lib_vision_models_pp/Src/od_pp_ssd.c ****       bSkip = 1;
 1044              		.loc 1 307 28 view .LVU332
 1045 007c 0392     		str	r2, [sp, #12]
 307:../Middlewares/stm32-vision-models-postprocessing/lib_vision_models_pp/Src/od_pp_ssd.c ****       bSkip = 1;
 1046              		.loc 1 307 9 view .LVU333
 1047 007e FFF7FEFF 		bl	expf
 1048              	.LVL72:
 307:../Middlewares/stm32-vision-models-postprocessing/lib_vision_models_pp/Src/od_pp_ssd.c ****       bSkip = 1;
 1049              		.loc 1 307 9 view .LVU334
 1050 0082 F0EE409A 		vmov.f32	s19, s0
 307:../Middlewares/stm32-vision-models-postprocessing/lib_vision_models_pp/Src/od_pp_ssd.c ****       bSkip = 1;
 1051              		.loc 1 307 89 discriminator 1 view .LVU335
 1052 0086 B0EE480A 		vmov.f32	s0, s16
 307:../Middlewares/stm32-vision-models-postprocessing/lib_vision_models_pp/Src/od_pp_ssd.c ****       bSkip = 1;
 1053              		.loc 1 307 68 discriminator 1 view .LVU336
 1054 008a 94ED05AA 		vldr.32	s20, [r4, #20]
 307:../Middlewares/stm32-vision-models-postprocessing/lib_vision_models_pp/Src/od_pp_ssd.c ****       bSkip = 1;
 1055              		.loc 1 307 89 discriminator 1 view .LVU337
 1056 008e FFF7FEFF 		bl	expf
 1057              	.LVL73:
 307:../Middlewares/stm32-vision-models-postprocessing/lib_vision_models_pp/Src/od_pp_ssd.c ****       bSkip = 1;
 1058              		.loc 1 307 150 discriminator 2 view .LVU338
 1059 0092 039A     		ldr	r2, [sp, #12]
 307:../Middlewares/stm32-vision-models-postprocessing/lib_vision_models_pp/Src/od_pp_ssd.c ****       bSkip = 1;
 1060              		.loc 1 307 89 discriminator 1 view .LVU339
 1061 0094 B0EE408A 		vmov.f32	s16, s0
 307:../Middlewares/stm32-vision-models-postprocessing/lib_vision_models_pp/Src/od_pp_ssd.c ****       bSkip = 1;
 1062              		.loc 1 307 150 discriminator 2 view .LVU340
 1063 0098 A2EB0B02 		sub	r2, r2, fp
 307:../Middlewares/stm32-vision-models-postprocessing/lib_vision_models_pp/Src/od_pp_ssd.c ****       bSkip = 1;
 1064              		.loc 1 307 131 discriminator 2 view .LVU341
 1065 009c 07EE902A 		vmov	s15, r2	@ int
 1066 00a0 B8EEE70A 		vcvt.f32.s32	s0, s15
 1067 00a4 20EE090A 		vmul.f32	s0, s0, s18
 1068 00a8 FFF7FEFF 		bl	expf
 1069              	.LVL74:
 307:../Middlewares/stm32-vision-models-postprocessing/lib_vision_models_pp/Src/od_pp_ssd.c ****       bSkip = 1;
 1070              		.loc 1 307 129 discriminator 3 view .LVU342
 1071 00ac 38EE008A 		vadd.f32	s16, s16, s0
 307:../Middlewares/stm32-vision-models-postprocessing/lib_vision_models_pp/Src/od_pp_ssd.c ****       bSkip = 1;
 1072              		.loc 1 307 85 discriminator 3 view .LVU343
 1073 00b0 28EE0A8A 		vmul.f32	s16, s16, s20
 307:../Middlewares/stm32-vision-models-postprocessing/lib_vision_models_pp/Src/od_pp_ssd.c ****       bSkip = 1;
 1074              		.loc 1 307 8 discriminator 3 view .LVU344
 1075 00b4 F4EEC89A 		vcmpe.f32	s19, s16
 1076 00b8 F1EE10FA 		vmrs	APSR_nzcv, FPSCR
 1077 00bc 00F18180 		bmi	.L51
 1078              	.LBB40:
 1079              	.LBB41:
 315:../Middlewares/stm32-vision-models-postprocessing/lib_vision_models_pp/Src/od_pp_ssd.c ****         pScratch_buffer_float[e] = (float32_t)((int32_t)pScoresIn[e] - score_zp) * score_scale;
 1080              		.loc 1 315 16 view .LVU345
 1081 00c0 0020     		movs	r0, #0
 315:../Middlewares/stm32-vision-models-postprocessing/lib_vision_models_pp/Src/od_pp_ssd.c ****         pScratch_buffer_float[e] = (float32_t)((int32_t)pScoresIn[e] - score_zp) * score_scale;
 1082              		.loc 1 315 46 discriminator 1 view .LVU346
ARM GAS  /tmp/ccF7Geq9.s 			page 31


 1083 00c2 2268     		ldr	r2, [r4]
 315:../Middlewares/stm32-vision-models-postprocessing/lib_vision_models_pp/Src/od_pp_ssd.c ****         pScratch_buffer_float[e] = (float32_t)((int32_t)pScoresIn[e] - score_zp) * score_scale;
 1084              		.loc 1 315 46 discriminator 1 view .LVU347
 1085              	.LBE41:
 1086              	.LBE40:
 311:../Middlewares/stm32-vision-models-postprocessing/lib_vision_models_pp/Src/od_pp_ssd.c ****       class_index_u8 += 1;
 1087              		.loc 1 311 5 is_stmt 1 view .LVU348
 1088              	.LBB46:
 312:../Middlewares/stm32-vision-models-postprocessing/lib_vision_models_pp/Src/od_pp_ssd.c ****       float32_t *pScratch_buffer_float = pInput_static_param->pScratchBufferSoftMax;
 1089              		.loc 1 312 7 view .LVU349
 313:../Middlewares/stm32-vision-models-postprocessing/lib_vision_models_pp/Src/od_pp_ssd.c ****       // Dequantize
 1090              		.loc 1 313 18 is_stmt 0 view .LVU350
 1091 00c4 D4F828B0 		ldr	fp, [r4, #40]
 1092 00c8 8242     		cmp	r2, r0
 1093              	.LBB42:
 315:../Middlewares/stm32-vision-models-postprocessing/lib_vision_models_pp/Src/od_pp_ssd.c ****         pScratch_buffer_float[e] = (float32_t)((int32_t)pScoresIn[e] - score_zp) * score_scale;
 1094              		.loc 1 315 16 view .LVU351
 1095 00ca 02F1010E 		add	lr, r2, #1
 1096 00ce B8BF     		it	lt
 1097 00d0 4FF0010E 		movlt	lr, #1
 1098 00d4 DC46     		mov	ip, fp
 1099 00d6 4EF001E0 		dls	lr, lr
 1100              	.LBE42:
 312:../Middlewares/stm32-vision-models-postprocessing/lib_vision_models_pp/Src/od_pp_ssd.c ****       float32_t *pScratch_buffer_float = pInput_static_param->pScratchBufferSoftMax;
 1101              		.loc 1 312 22 view .LVU352
 1102 00da 9DF81730 		ldrb	r3, [sp, #23]	@ zero_extendqisi2
 1103 00de 0133     		adds	r3, r3, #1
 1104 00e0 8DF81730 		strb	r3, [sp, #23]
 313:../Middlewares/stm32-vision-models-postprocessing/lib_vision_models_pp/Src/od_pp_ssd.c ****       // Dequantize
 1105              		.loc 1 313 7 is_stmt 1 view .LVU353
 1106              	.LVL75:
 315:../Middlewares/stm32-vision-models-postprocessing/lib_vision_models_pp/Src/od_pp_ssd.c ****         pScratch_buffer_float[e] = (float32_t)((int32_t)pScoresIn[e] - score_zp) * score_scale;
 1107              		.loc 1 315 7 view .LVU354
 1108              	.LBB43:
 315:../Middlewares/stm32-vision-models-postprocessing/lib_vision_models_pp/Src/od_pp_ssd.c ****         pScratch_buffer_float[e] = (float32_t)((int32_t)pScoresIn[e] - score_zp) * score_scale;
 1109              		.loc 1 315 12 view .LVU355
 1110              	.L48:
 315:../Middlewares/stm32-vision-models-postprocessing/lib_vision_models_pp/Src/od_pp_ssd.c ****         pScratch_buffer_float[e] = (float32_t)((int32_t)pScoresIn[e] - score_zp) * score_scale;
 1111              		.loc 1 315 25 discriminator 1 view .LVU356
 1112 00e4 BEF1010E 		subs	lr, #1;bne	.L49
 1112      72D1
 1113              	.LBE43:
 319:../Middlewares/stm32-vision-models-postprocessing/lib_vision_models_pp/Src/od_pp_ssd.c ****       best_score = pScratch_buffer_float[class_index_u8];
 1114              		.loc 1 319 7 view .LVU357
 1115 00ea 5B46     		mov	r3, fp
 1116 00ec 5946     		mov	r1, fp
 1117 00ee 5846     		mov	r0, fp
 1118              	.LVL76:
 319:../Middlewares/stm32-vision-models-postprocessing/lib_vision_models_pp/Src/od_pp_ssd.c ****       best_score = pScratch_buffer_float[class_index_u8];
 1119              		.loc 1 319 7 is_stmt 0 view .LVU358
 1120 00f0 FFF7FEFF 		bl	vision_models_softmax_f
 1121              	.LVL77:
 320:../Middlewares/stm32-vision-models-postprocessing/lib_vision_models_pp/Src/od_pp_ssd.c **** 
 1122              		.loc 1 320 7 is_stmt 1 view .LVU359
 320:../Middlewares/stm32-vision-models-postprocessing/lib_vision_models_pp/Src/od_pp_ssd.c **** 
 1123              		.loc 1 320 41 is_stmt 0 view .LVU360
 1124 00f4 9DF81710 		ldrb	r1, [sp, #23]	@ zero_extendqisi2
ARM GAS  /tmp/ccF7Geq9.s 			page 32


 322:../Middlewares/stm32-vision-models-postprocessing/lib_vision_models_pp/Src/od_pp_ssd.c ****       {
 1125              		.loc 1 322 10 view .LVU361
 1126 00f8 94ED057A 		vldr.32	s14, [r4, #20]
 320:../Middlewares/stm32-vision-models-postprocessing/lib_vision_models_pp/Src/od_pp_ssd.c **** 
 1127              		.loc 1 320 18 view .LVU362
 1128 00fc 0BEB8103 		add	r3, fp, r1, lsl #2
 1129 0100 D3ED007A 		vldr.32	s15, [r3]
 1130              	.LVL78:
 322:../Middlewares/stm32-vision-models-postprocessing/lib_vision_models_pp/Src/od_pp_ssd.c ****       {
 1131              		.loc 1 322 7 is_stmt 1 view .LVU363
 322:../Middlewares/stm32-vision-models-postprocessing/lib_vision_models_pp/Src/od_pp_ssd.c ****       {
 1132              		.loc 1 322 10 is_stmt 0 view .LVU364
 1133 0104 B4EEE77A 		vcmpe.f32	s14, s15
 1134 0108 F1EE10FA 		vmrs	APSR_nzcv, FPSCR
 1135 010c 59D8     		bhi	.L51
 1136              	.LBB44:
 324:../Middlewares/stm32-vision-models-postprocessing/lib_vision_models_pp/Src/od_pp_ssd.c ****         pScratchBuffer[nb_detect].class_index = class_index_u8;
 1137              		.loc 1 324 9 is_stmt 1 view .LVU365
 325:../Middlewares/stm32-vision-models-postprocessing/lib_vision_models_pp/Src/od_pp_ssd.c ****         pScratchBuffer[nb_detect].conf = best_score;
 1138              		.loc 1 325 9 view .LVU366
 325:../Middlewares/stm32-vision-models-postprocessing/lib_vision_models_pp/Src/od_pp_ssd.c ****         pScratchBuffer[nb_detect].conf = best_score;
 1139              		.loc 1 325 23 is_stmt 0 view .LVU367
 1140 010e 1822     		movs	r2, #24
 1141 0110 029B     		ldr	r3, [sp, #8]
 333:../Middlewares/stm32-vision-models-postprocessing/lib_vision_models_pp/Src/od_pp_ssd.c ****             * anchor_size_w \
 1142              		.loc 1 333 34 view .LVU368
 1143 0112 D4ED026A 		vldr.32	s13, [r4, #8]
 325:../Middlewares/stm32-vision-models-postprocessing/lib_vision_models_pp/Src/od_pp_ssd.c ****         pScratchBuffer[nb_detect].conf = best_score;
 1144              		.loc 1 325 23 view .LVU369
 1145 0116 02FB083B 		mla	fp, r2, r8, r3
 1146              	.LVL79:
 326:../Middlewares/stm32-vision-models-postprocessing/lib_vision_models_pp/Src/od_pp_ssd.c **** 
 1147              		.loc 1 326 40 view .LVU370
 1148 011a CBED047A 		vstr.32	s15, [fp, #16]
 325:../Middlewares/stm32-vision-models-postprocessing/lib_vision_models_pp/Src/od_pp_ssd.c ****         pScratchBuffer[nb_detect].conf = best_score;
 1149              		.loc 1 325 47 view .LVU371
 1150 011e CBF81410 		str	r1, [fp, #20]
 326:../Middlewares/stm32-vision-models-postprocessing/lib_vision_models_pp/Src/od_pp_ssd.c **** 
 1151              		.loc 1 326 9 is_stmt 1 view .LVU372
 328:../Middlewares/stm32-vision-models-postprocessing/lib_vision_models_pp/Src/od_pp_ssd.c ****         anchor_rel_x  = (float32_t)pAnchors[AI_SSD_PP_CENTROID_XCENTER];
 1152              		.loc 1 328 9 view .LVU373
 1153              	.LVL80:
 329:../Middlewares/stm32-vision-models-postprocessing/lib_vision_models_pp/Src/od_pp_ssd.c ****         anchor_size_w = (float32_t)pAnchors[AI_SSD_PP_CENTROID_WIDTHREL];
 1154              		.loc 1 329 9 view .LVU374
 330:../Middlewares/stm32-vision-models-postprocessing/lib_vision_models_pp/Src/od_pp_ssd.c ****         pScratchBuffer[nb_detect].x_center =
 1155              		.loc 1 330 9 view .LVU375
 328:../Middlewares/stm32-vision-models-postprocessing/lib_vision_models_pp/Src/od_pp_ssd.c ****         anchor_rel_x  = (float32_t)pAnchors[AI_SSD_PP_CENTROID_XCENTER];
 1156              		.loc 1 328 37 is_stmt 0 view .LVU376
 1157 0122 15F9043C 		ldrsb	r3, [r5, #-4]
 330:../Middlewares/stm32-vision-models-postprocessing/lib_vision_models_pp/Src/od_pp_ssd.c ****         pScratchBuffer[nb_detect].x_center =
 1158              		.loc 1 330 23 view .LVU377
 1159 0126 16ED02AA 		vldr.32	s20, [r6, #-8]
 1160              	.LVL81:
 331:../Middlewares/stm32-vision-models-postprocessing/lib_vision_models_pp/Src/od_pp_ssd.c ****             value \
 1161              		.loc 1 331 9 is_stmt 1 view .LVU378
 328:../Middlewares/stm32-vision-models-postprocessing/lib_vision_models_pp/Src/od_pp_ssd.c ****         anchor_rel_x  = (float32_t)pAnchors[AI_SSD_PP_CENTROID_XCENTER];
 1162              		.loc 1 328 87 is_stmt 0 view .LVU379
ARM GAS  /tmp/ccF7Geq9.s 			page 33


 1163 012a A3EB0A03 		sub	r3, r3, r10
 1164 012e 07EE903A 		vmov	s15, r3	@ int
 1165              	.LVL82:
 328:../Middlewares/stm32-vision-models-postprocessing/lib_vision_models_pp/Src/od_pp_ssd.c ****         anchor_rel_x  = (float32_t)pAnchors[AI_SSD_PP_CENTROID_XCENTER];
 1166              		.loc 1 328 25 view .LVU380
 1167 0132 F8EEE77A 		vcvt.f32.s32	s15, s15
 328:../Middlewares/stm32-vision-models-postprocessing/lib_vision_models_pp/Src/od_pp_ssd.c ****         anchor_rel_x  = (float32_t)pAnchors[AI_SSD_PP_CENTROID_XCENTER];
 1168              		.loc 1 328 23 view .LVU381
 1169 0136 67EEA87A 		vmul.f32	s15, s15, s17
 335:../Middlewares/stm32-vision-models-postprocessing/lib_vision_models_pp/Src/od_pp_ssd.c **** 
 1170              		.loc 1 335 13 view .LVU382
 1171 013a 16ED047A 		vldr.32	s14, [r6, #-16]
 333:../Middlewares/stm32-vision-models-postprocessing/lib_vision_models_pp/Src/od_pp_ssd.c ****             * anchor_size_w \
 1172              		.loc 1 333 13 view .LVU383
 1173 013e 67EEA67A 		vmul.f32	s15, s15, s13
 335:../Middlewares/stm32-vision-models-postprocessing/lib_vision_models_pp/Src/od_pp_ssd.c **** 
 1174              		.loc 1 335 13 view .LVU384
 1175 0142 A7EE8A7A 		vfma.f32	s14, s15, s20
 331:../Middlewares/stm32-vision-models-postprocessing/lib_vision_models_pp/Src/od_pp_ssd.c ****             value \
 1176              		.loc 1 331 44 view .LVU385
 1177 0146 8BED007A 		vstr.32	s14, [fp]
 1178              	.LVL83:
 337:../Middlewares/stm32-vision-models-postprocessing/lib_vision_models_pp/Src/od_pp_ssd.c ****         anchor_rel_y  = (float32_t)pAnchors[AI_SSD_PP_CENTROID_YCENTER];
 1179              		.loc 1 337 9 is_stmt 1 view .LVU386
 338:../Middlewares/stm32-vision-models-postprocessing/lib_vision_models_pp/Src/od_pp_ssd.c ****         anchor_size_h = (float32_t)pAnchors[AI_SSD_PP_CENTROID_HEIGHTREL];
 1180              		.loc 1 338 9 view .LVU387
 339:../Middlewares/stm32-vision-models-postprocessing/lib_vision_models_pp/Src/od_pp_ssd.c ****         pScratchBuffer[nb_detect].y_center = value * pInput_static_param->XY_inv_scale * anchor_siz
 1181              		.loc 1 339 9 view .LVU388
 337:../Middlewares/stm32-vision-models-postprocessing/lib_vision_models_pp/Src/od_pp_ssd.c ****         anchor_rel_y  = (float32_t)pAnchors[AI_SSD_PP_CENTROID_YCENTER];
 1182              		.loc 1 337 37 is_stmt 0 view .LVU389
 1183 014a 15F9033C 		ldrsb	r3, [r5, #-3]
 339:../Middlewares/stm32-vision-models-postprocessing/lib_vision_models_pp/Src/od_pp_ssd.c ****         pScratchBuffer[nb_detect].y_center = value * pInput_static_param->XY_inv_scale * anchor_siz
 1184              		.loc 1 339 23 view .LVU390
 1185 014e 16ED018A 		vldr.32	s16, [r6, #-4]
 1186              	.LVL84:
 340:../Middlewares/stm32-vision-models-postprocessing/lib_vision_models_pp/Src/od_pp_ssd.c **** 
 1187              		.loc 1 340 9 is_stmt 1 view .LVU391
 337:../Middlewares/stm32-vision-models-postprocessing/lib_vision_models_pp/Src/od_pp_ssd.c ****         anchor_rel_y  = (float32_t)pAnchors[AI_SSD_PP_CENTROID_YCENTER];
 1188              		.loc 1 337 87 is_stmt 0 view .LVU392
 1189 0152 A3EB0A03 		sub	r3, r3, r10
 1190 0156 07EE903A 		vmov	s15, r3	@ int
 337:../Middlewares/stm32-vision-models-postprocessing/lib_vision_models_pp/Src/od_pp_ssd.c ****         anchor_rel_y  = (float32_t)pAnchors[AI_SSD_PP_CENTROID_YCENTER];
 1191              		.loc 1 337 25 view .LVU393
 1192 015a F8EEE77A 		vcvt.f32.s32	s15, s15
 337:../Middlewares/stm32-vision-models-postprocessing/lib_vision_models_pp/Src/od_pp_ssd.c ****         anchor_rel_y  = (float32_t)pAnchors[AI_SSD_PP_CENTROID_YCENTER];
 1193              		.loc 1 337 23 view .LVU394
 1194 015e 67EEA87A 		vmul.f32	s15, s15, s17
 340:../Middlewares/stm32-vision-models-postprocessing/lib_vision_models_pp/Src/od_pp_ssd.c **** 
 1195              		.loc 1 340 104 view .LVU395
 1196 0162 16ED037A 		vldr.32	s14, [r6, #-12]
 340:../Middlewares/stm32-vision-models-postprocessing/lib_vision_models_pp/Src/od_pp_ssd.c **** 
 1197              		.loc 1 340 52 view .LVU396
 1198 0166 67EEA67A 		vmul.f32	s15, s15, s13
 340:../Middlewares/stm32-vision-models-postprocessing/lib_vision_models_pp/Src/od_pp_ssd.c **** 
 1199              		.loc 1 340 104 view .LVU397
 1200 016a A7EE887A 		vfma.f32	s14, s15, s16
 340:../Middlewares/stm32-vision-models-postprocessing/lib_vision_models_pp/Src/od_pp_ssd.c **** 
ARM GAS  /tmp/ccF7Geq9.s 			page 34


 1201              		.loc 1 340 44 view .LVU398
 1202 016e 8BED017A 		vstr.32	s14, [fp, #4]
 1203              	.LVL85:
 342:../Middlewares/stm32-vision-models-postprocessing/lib_vision_models_pp/Src/od_pp_ssd.c ****         pScratchBuffer[nb_detect].width  = expf(value * pInput_static_param->WH_inv_scale) * anchor
 1204              		.loc 1 342 9 is_stmt 1 view .LVU399
 343:../Middlewares/stm32-vision-models-postprocessing/lib_vision_models_pp/Src/od_pp_ssd.c **** 
 1205              		.loc 1 343 9 view .LVU400
 342:../Middlewares/stm32-vision-models-postprocessing/lib_vision_models_pp/Src/od_pp_ssd.c ****         pScratchBuffer[nb_detect].width  = expf(value * pInput_static_param->WH_inv_scale) * anchor
 1206              		.loc 1 342 37 is_stmt 0 view .LVU401
 1207 0172 15F9023C 		ldrsb	r3, [r5, #-2]
 343:../Middlewares/stm32-vision-models-postprocessing/lib_vision_models_pp/Src/od_pp_ssd.c **** 
 1208              		.loc 1 343 76 view .LVU402
 1209 0176 D4ED039A 		vldr.32	s19, [r4, #12]
 342:../Middlewares/stm32-vision-models-postprocessing/lib_vision_models_pp/Src/od_pp_ssd.c ****         pScratchBuffer[nb_detect].width  = expf(value * pInput_static_param->WH_inv_scale) * anchor
 1210              		.loc 1 342 87 view .LVU403
 1211 017a A3EB0A03 		sub	r3, r3, r10
 1212 017e 00EE103A 		vmov	s0, r3	@ int
 342:../Middlewares/stm32-vision-models-postprocessing/lib_vision_models_pp/Src/od_pp_ssd.c ****         pScratchBuffer[nb_detect].width  = expf(value * pInput_static_param->WH_inv_scale) * anchor
 1213              		.loc 1 342 25 view .LVU404
 1214 0182 B8EEC00A 		vcvt.f32.s32	s0, s0
 342:../Middlewares/stm32-vision-models-postprocessing/lib_vision_models_pp/Src/od_pp_ssd.c ****         pScratchBuffer[nb_detect].width  = expf(value * pInput_static_param->WH_inv_scale) * anchor
 1215              		.loc 1 342 23 view .LVU405
 1216 0186 20EE280A 		vmul.f32	s0, s0, s17
 343:../Middlewares/stm32-vision-models-postprocessing/lib_vision_models_pp/Src/od_pp_ssd.c **** 
 1217              		.loc 1 343 44 view .LVU406
 1218 018a 20EE290A 		vmul.f32	s0, s0, s19
 1219 018e FFF7FEFF 		bl	expf
 1220              	.LVL86:
 343:../Middlewares/stm32-vision-models-postprocessing/lib_vision_models_pp/Src/od_pp_ssd.c **** 
 1221              		.loc 1 343 92 discriminator 1 view .LVU407
 1222 0192 20EE0A0A 		vmul.f32	s0, s0, s20
 343:../Middlewares/stm32-vision-models-postprocessing/lib_vision_models_pp/Src/od_pp_ssd.c **** 
 1223              		.loc 1 343 42 discriminator 1 view .LVU408
 1224 0196 8BED020A 		vstr.32	s0, [fp, #8]
 345:../Middlewares/stm32-vision-models-postprocessing/lib_vision_models_pp/Src/od_pp_ssd.c ****         pScratchBuffer[nb_detect].height = expf(value * pInput_static_param->WH_inv_scale) * anchor
 1225              		.loc 1 345 9 is_stmt 1 view .LVU409
 1226              	.LVL87:
 346:../Middlewares/stm32-vision-models-postprocessing/lib_vision_models_pp/Src/od_pp_ssd.c **** 
 1227              		.loc 1 346 9 view .LVU410
 345:../Middlewares/stm32-vision-models-postprocessing/lib_vision_models_pp/Src/od_pp_ssd.c ****         pScratchBuffer[nb_detect].height = expf(value * pInput_static_param->WH_inv_scale) * anchor
 1228              		.loc 1 345 37 is_stmt 0 view .LVU411
 1229 019a 15F9013C 		ldrsb	r3, [r5, #-1]
 348:../Middlewares/stm32-vision-models-postprocessing/lib_vision_models_pp/Src/od_pp_ssd.c ****       } // if > thrshold
 1230              		.loc 1 348 18 view .LVU412
 1231 019e 08F10108 		add	r8, r8, #1
 1232              	.LVL88:
 345:../Middlewares/stm32-vision-models-postprocessing/lib_vision_models_pp/Src/od_pp_ssd.c ****         pScratchBuffer[nb_detect].height = expf(value * pInput_static_param->WH_inv_scale) * anchor
 1233              		.loc 1 345 87 view .LVU413
 1234 01a2 A3EB0A03 		sub	r3, r3, r10
 1235 01a6 00EE103A 		vmov	s0, r3	@ int
 345:../Middlewares/stm32-vision-models-postprocessing/lib_vision_models_pp/Src/od_pp_ssd.c ****         pScratchBuffer[nb_detect].height = expf(value * pInput_static_param->WH_inv_scale) * anchor
 1236              		.loc 1 345 25 view .LVU414
 1237 01aa B8EEC00A 		vcvt.f32.s32	s0, s0
 345:../Middlewares/stm32-vision-models-postprocessing/lib_vision_models_pp/Src/od_pp_ssd.c ****         pScratchBuffer[nb_detect].height = expf(value * pInput_static_param->WH_inv_scale) * anchor
 1238              		.loc 1 345 23 view .LVU415
 1239 01ae 20EE280A 		vmul.f32	s0, s0, s17
 346:../Middlewares/stm32-vision-models-postprocessing/lib_vision_models_pp/Src/od_pp_ssd.c **** 
ARM GAS  /tmp/ccF7Geq9.s 			page 35


 1240              		.loc 1 346 44 view .LVU416
 1241 01b2 20EE290A 		vmul.f32	s0, s0, s19
 1242 01b6 FFF7FEFF 		bl	expf
 1243              	.LVL89:
 346:../Middlewares/stm32-vision-models-postprocessing/lib_vision_models_pp/Src/od_pp_ssd.c **** 
 1244              		.loc 1 346 92 discriminator 1 view .LVU417
 1245 01ba 20EE080A 		vmul.f32	s0, s0, s16
 346:../Middlewares/stm32-vision-models-postprocessing/lib_vision_models_pp/Src/od_pp_ssd.c **** 
 1246              		.loc 1 346 42 discriminator 1 view .LVU418
 1247 01be 8BED030A 		vstr.32	s0, [fp, #12]
 348:../Middlewares/stm32-vision-models-postprocessing/lib_vision_models_pp/Src/od_pp_ssd.c ****       } // if > thrshold
 1248              		.loc 1 348 9 is_stmt 1 view .LVU419
 1249              	.LVL90:
 1250              	.L51:
 348:../Middlewares/stm32-vision-models-postprocessing/lib_vision_models_pp/Src/od_pp_ssd.c ****       } // if > thrshold
 1251              		.loc 1 348 9 is_stmt 0 view .LVU420
 1252              	.LBE44:
 1253              	.LBE46:
 351:../Middlewares/stm32-vision-models-postprocessing/lib_vision_models_pp/Src/od_pp_ssd.c ****     pAnchors  += AI_SSD_PP_BOX_STRIDE;
 1254              		.loc 1 351 5 is_stmt 1 view .LVU421
 352:../Middlewares/stm32-vision-models-postprocessing/lib_vision_models_pp/Src/od_pp_ssd.c ****     pScoresIn += pInput_static_param->nb_classes;
 1255              		.loc 1 352 5 view .LVU422
 353:../Middlewares/stm32-vision-models-postprocessing/lib_vision_models_pp/Src/od_pp_ssd.c **** 
 1256              		.loc 1 353 5 view .LVU423
 353:../Middlewares/stm32-vision-models-postprocessing/lib_vision_models_pp/Src/od_pp_ssd.c **** 
 1257              		.loc 1 353 15 is_stmt 0 view .LVU424
 1258 01c2 2368     		ldr	r3, [r4]
 1259              	.LBE39:
 292:../Middlewares/stm32-vision-models-postprocessing/lib_vision_models_pp/Src/od_pp_ssd.c ****   {
 1260              		.loc 1 292 64 discriminator 2 view .LVU425
 1261 01c4 09F10109 		add	r9, r9, #1
 1262              	.LVL91:
 1263              	.LBB48:
 353:../Middlewares/stm32-vision-models-postprocessing/lib_vision_models_pp/Src/od_pp_ssd.c **** 
 1264              		.loc 1 353 15 view .LVU426
 1265 01c8 1F44     		add	r7, r7, r3
 1266              	.LVL92:
 353:../Middlewares/stm32-vision-models-postprocessing/lib_vision_models_pp/Src/od_pp_ssd.c **** 
 1267              		.loc 1 353 15 view .LVU427
 1268              	.LBE48:
 292:../Middlewares/stm32-vision-models-postprocessing/lib_vision_models_pp/Src/od_pp_ssd.c ****   {
 1269              		.loc 1 292 64 is_stmt 1 discriminator 2 view .LVU428
 292:../Middlewares/stm32-vision-models-postprocessing/lib_vision_models_pp/Src/od_pp_ssd.c ****   {
 1270              		.loc 1 292 64 is_stmt 0 discriminator 2 view .LVU429
 1271 01ca 0435     		adds	r5, r5, #4
 1272              	.LVL93:
 292:../Middlewares/stm32-vision-models-postprocessing/lib_vision_models_pp/Src/od_pp_ssd.c ****   {
 1273              		.loc 1 292 64 discriminator 2 view .LVU430
 1274 01cc 1036     		adds	r6, r6, #16
 1275              	.LVL94:
 292:../Middlewares/stm32-vision-models-postprocessing/lib_vision_models_pp/Src/od_pp_ssd.c ****   {
 1276              		.loc 1 292 64 discriminator 2 view .LVU431
 1277 01ce 2FE7     		b	.L46
 1278              	.LVL95:
 1279              	.L49:
 1280              	.LBB49:
 1281              	.LBB47:
ARM GAS  /tmp/ccF7Geq9.s 			page 36


 1282              	.LBB45:
 316:../Middlewares/stm32-vision-models-postprocessing/lib_vision_models_pp/Src/od_pp_ssd.c ****       }
 1283              		.loc 1 316 9 is_stmt 1 view .LVU432
 316:../Middlewares/stm32-vision-models-postprocessing/lib_vision_models_pp/Src/od_pp_ssd.c ****       }
 1284              		.loc 1 316 48 is_stmt 0 view .LVU433
 1285 01d0 3956     		ldrsb	r1, [r7, r0]
 316:../Middlewares/stm32-vision-models-postprocessing/lib_vision_models_pp/Src/od_pp_ssd.c ****       }
 1286              		.loc 1 316 70 view .LVU434
 1287 01d2 019B     		ldr	r3, [sp, #4]
 315:../Middlewares/stm32-vision-models-postprocessing/lib_vision_models_pp/Src/od_pp_ssd.c ****         pScratch_buffer_float[e] = (float32_t)((int32_t)pScoresIn[e] - score_zp) * score_scale;
 1288              		.loc 1 315 61 discriminator 3 view .LVU435
 1289 01d4 0130     		adds	r0, r0, #1
 1290              	.LVL96:
 316:../Middlewares/stm32-vision-models-postprocessing/lib_vision_models_pp/Src/od_pp_ssd.c ****       }
 1291              		.loc 1 316 70 view .LVU436
 1292 01d6 CB1A     		subs	r3, r1, r3
 1293 01d8 07EE903A 		vmov	s15, r3	@ int
 316:../Middlewares/stm32-vision-models-postprocessing/lib_vision_models_pp/Src/od_pp_ssd.c ****       }
 1294              		.loc 1 316 36 view .LVU437
 1295 01dc F8EEE77A 		vcvt.f32.s32	s15, s15
 316:../Middlewares/stm32-vision-models-postprocessing/lib_vision_models_pp/Src/od_pp_ssd.c ****       }
 1296              		.loc 1 316 82 view .LVU438
 1297 01e0 67EE897A 		vmul.f32	s15, s15, s18
 316:../Middlewares/stm32-vision-models-postprocessing/lib_vision_models_pp/Src/od_pp_ssd.c ****       }
 1298              		.loc 1 316 34 view .LVU439
 1299 01e4 ECEC017A 		vstmia.32	ip!, {s15}
 315:../Middlewares/stm32-vision-models-postprocessing/lib_vision_models_pp/Src/od_pp_ssd.c ****         pScratch_buffer_float[e] = (float32_t)((int32_t)pScoresIn[e] - score_zp) * score_scale;
 1300              		.loc 1 315 61 is_stmt 1 discriminator 3 view .LVU440
 1301 01e8 7CE7     		b	.L48
 1302              	.LBE45:
 1303              	.LBE47:
 1304              	.LBE49:
 1305              	.LBE51:
 1306              		.cfi_endproc
 1307              	.LFE779:
 1309              		.section	.text.ssd_pp_nms_filtering,"ax",%progbits
 1310              		.align	1
 1311              		.global	ssd_pp_nms_filtering
 1312              		.syntax unified
 1313              		.thumb
 1314              		.thumb_func
 1316              	ssd_pp_nms_filtering:
 1317              	.LVL97:
 1318              	.LFB780:
 360:../Middlewares/stm32-vision-models-postprocessing/lib_vision_models_pp/Src/od_pp_ssd.c **** 
 361:../Middlewares/stm32-vision-models-postprocessing/lib_vision_models_pp/Src/od_pp_ssd.c **** 
 362:../Middlewares/stm32-vision-models-postprocessing/lib_vision_models_pp/Src/od_pp_ssd.c **** 
 363:../Middlewares/stm32-vision-models-postprocessing/lib_vision_models_pp/Src/od_pp_ssd.c **** int32_t ssd_pp_nms_filtering(od_ssd_pp_in_centroid_t *pInput,
 364:../Middlewares/stm32-vision-models-postprocessing/lib_vision_models_pp/Src/od_pp_ssd.c ****                              od_ssd_pp_static_param_t *pInput_static_param)
 365:../Middlewares/stm32-vision-models-postprocessing/lib_vision_models_pp/Src/od_pp_ssd.c **** {
 1319              		.loc 1 365 1 view -0
 1320              		.cfi_startproc
 1321              		@ args = 0, pretend = 0, frame = 0
 1322              		@ frame_needed = 0, uses_anonymous_args = 0
 366:../Middlewares/stm32-vision-models-postprocessing/lib_vision_models_pp/Src/od_pp_ssd.c ****   int32_t i, j, k, limit_counter;
 1323              		.loc 1 366 3 view .LVU442
 367:../Middlewares/stm32-vision-models-postprocessing/lib_vision_models_pp/Src/od_pp_ssd.c ****   float32_t *pScores = (float32_t *)pInput->pScores;
ARM GAS  /tmp/ccF7Geq9.s 			page 37


 1324              		.loc 1 367 3 view .LVU443
 365:../Middlewares/stm32-vision-models-postprocessing/lib_vision_models_pp/Src/od_pp_ssd.c ****   int32_t i, j, k, limit_counter;
 1325              		.loc 1 365 1 is_stmt 0 view .LVU444
 1326 0000 2DE9F74F 		push	{r0, r1, r2, r4, r5, r6, r7, r8, r9, r10, fp, lr}
 1327              		.cfi_def_cfa_offset 48
 1328              		.cfi_offset 4, -36
 1329              		.cfi_offset 5, -32
 1330              		.cfi_offset 6, -28
 1331              		.cfi_offset 7, -24
 1332              		.cfi_offset 8, -20
 1333              		.cfi_offset 9, -16
 1334              		.cfi_offset 10, -12
 1335              		.cfi_offset 11, -8
 1336              		.cfi_offset 14, -4
 368:../Middlewares/stm32-vision-models-postprocessing/lib_vision_models_pp/Src/od_pp_ssd.c ****   float32_t *pBoxes = (float32_t *)pInput->pBoxes;
 1337              		.loc 1 368 14 view .LVU445
 1338 0004 D0E90087 		ldrd	r8, r7, [r0]
 1339              	.LVL98:
 369:../Middlewares/stm32-vision-models-postprocessing/lib_vision_models_pp/Src/od_pp_ssd.c **** 
 370:../Middlewares/stm32-vision-models-postprocessing/lib_vision_models_pp/Src/od_pp_ssd.c ****     for (k = 0; k < pInput_static_param->nb_classes; ++k)
 1340              		.loc 1 370 5 is_stmt 1 view .LVU446
 365:../Middlewares/stm32-vision-models-postprocessing/lib_vision_models_pp/Src/od_pp_ssd.c ****   int32_t i, j, k, limit_counter;
 1341              		.loc 1 365 1 is_stmt 0 view .LVU447
 1342 0008 0C46     		mov	r4, r1
 1343              		.loc 1 370 12 view .LVU448
 1344 000a 0025     		movs	r5, #0
 1345              	.LBB52:
 1346              	.LBB53:
 371:../Middlewares/stm32-vision-models-postprocessing/lib_vision_models_pp/Src/od_pp_ssd.c ****     {
 372:../Middlewares/stm32-vision-models-postprocessing/lib_vision_models_pp/Src/od_pp_ssd.c ****         limit_counter = 0;
 373:../Middlewares/stm32-vision-models-postprocessing/lib_vision_models_pp/Src/od_pp_ssd.c ****         AI_SSD_PP_SORT_CLASS = k;
 374:../Middlewares/stm32-vision-models-postprocessing/lib_vision_models_pp/Src/od_pp_ssd.c **** 
 375:../Middlewares/stm32-vision-models-postprocessing/lib_vision_models_pp/Src/od_pp_ssd.c ****         SSD_quick_sort_core(pScores,
 376:../Middlewares/stm32-vision-models-postprocessing/lib_vision_models_pp/Src/od_pp_ssd.c ****                             pBoxes,
 377:../Middlewares/stm32-vision-models-postprocessing/lib_vision_models_pp/Src/od_pp_ssd.c ****                             0,
 378:../Middlewares/stm32-vision-models-postprocessing/lib_vision_models_pp/Src/od_pp_ssd.c ****                             pInput_static_param->nb_detect - 1,
 379:../Middlewares/stm32-vision-models-postprocessing/lib_vision_models_pp/Src/od_pp_ssd.c ****                             0,
 380:../Middlewares/stm32-vision-models-postprocessing/lib_vision_models_pp/Src/od_pp_ssd.c ****                             AI_SSD_PP_SORT_CLASS,
 381:../Middlewares/stm32-vision-models-postprocessing/lib_vision_models_pp/Src/od_pp_ssd.c ****                             pInput_static_param->nb_classes);
 382:../Middlewares/stm32-vision-models-postprocessing/lib_vision_models_pp/Src/od_pp_ssd.c **** 
 383:../Middlewares/stm32-vision-models-postprocessing/lib_vision_models_pp/Src/od_pp_ssd.c ****         for (i = 0; i < pInput_static_param->nb_detect; ++i)
 384:../Middlewares/stm32-vision-models-postprocessing/lib_vision_models_pp/Src/od_pp_ssd.c ****         {
 385:../Middlewares/stm32-vision-models-postprocessing/lib_vision_models_pp/Src/od_pp_ssd.c ****             if (pScores[i * pInput_static_param->nb_classes + k] == 0)
 386:../Middlewares/stm32-vision-models-postprocessing/lib_vision_models_pp/Src/od_pp_ssd.c ****             {
 387:../Middlewares/stm32-vision-models-postprocessing/lib_vision_models_pp/Src/od_pp_ssd.c ****                 continue;
 388:../Middlewares/stm32-vision-models-postprocessing/lib_vision_models_pp/Src/od_pp_ssd.c ****             }
 389:../Middlewares/stm32-vision-models-postprocessing/lib_vision_models_pp/Src/od_pp_ssd.c ****             float32_t *pA = &(pBoxes[AI_SSD_PP_BOX_STRIDE * i + AI_SSD_PP_CENTROID_XCENTER]);
 390:../Middlewares/stm32-vision-models-postprocessing/lib_vision_models_pp/Src/od_pp_ssd.c ****             for (j = i + 1; j < pInput_static_param->nb_detect; ++j)
 391:../Middlewares/stm32-vision-models-postprocessing/lib_vision_models_pp/Src/od_pp_ssd.c ****             {
 392:../Middlewares/stm32-vision-models-postprocessing/lib_vision_models_pp/Src/od_pp_ssd.c ****                 float32_t *pB = &(pBoxes[AI_SSD_PP_BOX_STRIDE * j + AI_SSD_PP_CENTROID_XCENTER]);
 393:../Middlewares/stm32-vision-models-postprocessing/lib_vision_models_pp/Src/od_pp_ssd.c ****                 if (vision_models_box_iou(pA, pB) > pInput_static_param->iou_threshold)
 394:../Middlewares/stm32-vision-models-postprocessing/lib_vision_models_pp/Src/od_pp_ssd.c ****                 {
 395:../Middlewares/stm32-vision-models-postprocessing/lib_vision_models_pp/Src/od_pp_ssd.c ****                     pScores[j * pInput_static_param->nb_classes + k] = 0;
 1347              		.loc 1 395 70 view .LVU449
 1348 000c 4FF00009 		mov	r9, #0
 1349              	.LVL99:
 1350              	.L55:
ARM GAS  /tmp/ccF7Geq9.s 			page 38


 1351              		.loc 1 395 70 view .LVU450
 1352              	.LBE53:
 1353              	.LBE52:
 370:../Middlewares/stm32-vision-models-postprocessing/lib_vision_models_pp/Src/od_pp_ssd.c ****     {
 1354              		.loc 1 370 19 is_stmt 1 discriminator 1 view .LVU451
 370:../Middlewares/stm32-vision-models-postprocessing/lib_vision_models_pp/Src/od_pp_ssd.c ****     {
 1355              		.loc 1 370 40 is_stmt 0 discriminator 1 view .LVU452
 1356 0010 2268     		ldr	r2, [r4]
 370:../Middlewares/stm32-vision-models-postprocessing/lib_vision_models_pp/Src/od_pp_ssd.c ****     {
 1357              		.loc 1 370 19 discriminator 1 view .LVU453
 1358 0012 AA42     		cmp	r2, r5
 1359 0014 03DC     		bgt	.L68
 396:../Middlewares/stm32-vision-models-postprocessing/lib_vision_models_pp/Src/od_pp_ssd.c ****                 }
 397:../Middlewares/stm32-vision-models-postprocessing/lib_vision_models_pp/Src/od_pp_ssd.c ****             }
 398:../Middlewares/stm32-vision-models-postprocessing/lib_vision_models_pp/Src/od_pp_ssd.c ****         }
 399:../Middlewares/stm32-vision-models-postprocessing/lib_vision_models_pp/Src/od_pp_ssd.c **** 
 400:../Middlewares/stm32-vision-models-postprocessing/lib_vision_models_pp/Src/od_pp_ssd.c ****         for (int32_t it = 0; it < pInput_static_param->nb_detect; ++it)
 401:../Middlewares/stm32-vision-models-postprocessing/lib_vision_models_pp/Src/od_pp_ssd.c ****         {
 402:../Middlewares/stm32-vision-models-postprocessing/lib_vision_models_pp/Src/od_pp_ssd.c ****             if ((pScores[it * pInput_static_param->nb_classes + k] != 0) &&
 403:../Middlewares/stm32-vision-models-postprocessing/lib_vision_models_pp/Src/od_pp_ssd.c ****                 (limit_counter < pInput_static_param->max_boxes_limit))
 404:../Middlewares/stm32-vision-models-postprocessing/lib_vision_models_pp/Src/od_pp_ssd.c ****             {
 405:../Middlewares/stm32-vision-models-postprocessing/lib_vision_models_pp/Src/od_pp_ssd.c ****                 limit_counter++;
 406:../Middlewares/stm32-vision-models-postprocessing/lib_vision_models_pp/Src/od_pp_ssd.c ****             }
 407:../Middlewares/stm32-vision-models-postprocessing/lib_vision_models_pp/Src/od_pp_ssd.c ****             else
 408:../Middlewares/stm32-vision-models-postprocessing/lib_vision_models_pp/Src/od_pp_ssd.c ****             {
 409:../Middlewares/stm32-vision-models-postprocessing/lib_vision_models_pp/Src/od_pp_ssd.c ****                 pScores[it * pInput_static_param->nb_classes + k] = 0;
 410:../Middlewares/stm32-vision-models-postprocessing/lib_vision_models_pp/Src/od_pp_ssd.c ****             }
 411:../Middlewares/stm32-vision-models-postprocessing/lib_vision_models_pp/Src/od_pp_ssd.c ****         }
 412:../Middlewares/stm32-vision-models-postprocessing/lib_vision_models_pp/Src/od_pp_ssd.c ****     }
 413:../Middlewares/stm32-vision-models-postprocessing/lib_vision_models_pp/Src/od_pp_ssd.c **** 
 414:../Middlewares/stm32-vision-models-postprocessing/lib_vision_models_pp/Src/od_pp_ssd.c ****     return (AI_OD_POSTPROCESS_ERROR_NO);
 1360              		.loc 1 414 5 is_stmt 1 view .LVU454
 415:../Middlewares/stm32-vision-models-postprocessing/lib_vision_models_pp/Src/od_pp_ssd.c **** }
 1361              		.loc 1 415 1 is_stmt 0 view .LVU455
 1362 0016 0020     		movs	r0, #0
 1363 0018 03B0     		add	sp, sp, #12
 1364              		.cfi_remember_state
 1365              		.cfi_def_cfa_offset 36
 1366              		@ sp needed
 1367 001a BDE8F08F 		pop	{r4, r5, r6, r7, r8, r9, r10, fp, pc}
 1368              	.LVL100:
 1369              	.L68:
 1370              		.cfi_restore_state
 372:../Middlewares/stm32-vision-models-postprocessing/lib_vision_models_pp/Src/od_pp_ssd.c ****         AI_SSD_PP_SORT_CLASS = k;
 1371              		.loc 1 372 9 is_stmt 1 view .LVU456
 373:../Middlewares/stm32-vision-models-postprocessing/lib_vision_models_pp/Src/od_pp_ssd.c **** 
 1372              		.loc 1 373 9 view .LVU457
 373:../Middlewares/stm32-vision-models-postprocessing/lib_vision_models_pp/Src/od_pp_ssd.c **** 
 1373              		.loc 1 373 30 is_stmt 0 view .LVU458
 1374 001e 2D4B     		ldr	r3, .L71
 375:../Middlewares/stm32-vision-models-postprocessing/lib_vision_models_pp/Src/od_pp_ssd.c ****                             pBoxes,
 1375              		.loc 1 375 9 view .LVU459
 1376 0020 3846     		mov	r0, r7
 373:../Middlewares/stm32-vision-models-postprocessing/lib_vision_models_pp/Src/od_pp_ssd.c **** 
 1377              		.loc 1 373 30 view .LVU460
 1378 0022 1D60     		str	r5, [r3]
 375:../Middlewares/stm32-vision-models-postprocessing/lib_vision_models_pp/Src/od_pp_ssd.c ****                             pBoxes,
ARM GAS  /tmp/ccF7Geq9.s 			page 39


 1379              		.loc 1 375 9 is_stmt 1 view .LVU461
 378:../Middlewares/stm32-vision-models-postprocessing/lib_vision_models_pp/Src/od_pp_ssd.c ****                             0,
 1380              		.loc 1 378 60 is_stmt 0 view .LVU462
 1381 0024 E369     		ldr	r3, [r4, #28]
 375:../Middlewares/stm32-vision-models-postprocessing/lib_vision_models_pp/Src/od_pp_ssd.c ****                             pBoxes,
 1382              		.loc 1 375 9 view .LVU463
 1383 0026 4146     		mov	r1, r8
 1384 0028 CDE90052 		strd	r5, r2, [sp]
 1385 002c 013B     		subs	r3, r3, #1
 1386 002e 0022     		movs	r2, #0
 1387 0030 FFF7FEFF 		bl	SSD_quick_sort_core.constprop.0
 1388              	.LVL101:
 383:../Middlewares/stm32-vision-models-postprocessing/lib_vision_models_pp/Src/od_pp_ssd.c ****         {
 1389              		.loc 1 383 9 is_stmt 1 view .LVU464
 383:../Middlewares/stm32-vision-models-postprocessing/lib_vision_models_pp/Src/od_pp_ssd.c ****         {
 1390              		.loc 1 383 9 is_stmt 0 view .LVU465
 1391 0034 0020     		movs	r0, #0
 1392              	.LVL102:
 1393              	.L56:
 383:../Middlewares/stm32-vision-models-postprocessing/lib_vision_models_pp/Src/od_pp_ssd.c ****         {
 1394              		.loc 1 383 23 is_stmt 1 discriminator 1 view .LVU466
 383:../Middlewares/stm32-vision-models-postprocessing/lib_vision_models_pp/Src/od_pp_ssd.c ****         {
 1395              		.loc 1 383 44 is_stmt 0 discriminator 1 view .LVU467
 1396 0036 E669     		ldr	r6, [r4, #28]
 1397 0038 2368     		ldr	r3, [r4]
 383:../Middlewares/stm32-vision-models-postprocessing/lib_vision_models_pp/Src/od_pp_ssd.c ****         {
 1398              		.loc 1 383 23 discriminator 1 view .LVU468
 1399 003a 8642     		cmp	r6, r0
 1400 003c 0ADC     		bgt	.L63
 1401              	.LBB55:
 400:../Middlewares/stm32-vision-models-postprocessing/lib_vision_models_pp/Src/od_pp_ssd.c ****         {
 1402              		.loc 1 400 22 view .LVU469
 1403 003e 0021     		movs	r1, #0
 1404 0040 8E42     		cmp	r6, r1
 409:../Middlewares/stm32-vision-models-postprocessing/lib_vision_models_pp/Src/od_pp_ssd.c ****             }
 1405              		.loc 1 409 67 view .LVU470
 1406 0042 06F10102 		add	r2, r6, #1
 1407              	.LBE55:
 372:../Middlewares/stm32-vision-models-postprocessing/lib_vision_models_pp/Src/od_pp_ssd.c ****         AI_SSD_PP_SORT_CLASS = k;
 1408              		.loc 1 372 23 view .LVU471
 1409 0046 8C46     		mov	ip, r1
 1410 0048 B8BF     		it	lt
 1411 004a 0122     		movlt	r2, #1
 1412              	.LVL103:
 1413              	.L64:
 1414              	.LBB56:
 400:../Middlewares/stm32-vision-models-postprocessing/lib_vision_models_pp/Src/od_pp_ssd.c ****         {
 1415              		.loc 1 400 33 is_stmt 1 discriminator 1 view .LVU472
 1416 004c 013A     		subs	r2, r2, #1
 1417 004e 2CD1     		bne	.L67
 1418              	.LBE56:
 370:../Middlewares/stm32-vision-models-postprocessing/lib_vision_models_pp/Src/od_pp_ssd.c ****     {
 1419              		.loc 1 370 54 discriminator 2 view .LVU473
 1420 0050 0135     		adds	r5, r5, #1
 1421              	.LVL104:
 370:../Middlewares/stm32-vision-models-postprocessing/lib_vision_models_pp/Src/od_pp_ssd.c ****     {
 1422              		.loc 1 370 54 is_stmt 0 discriminator 2 view .LVU474
ARM GAS  /tmp/ccF7Geq9.s 			page 40


 1423 0052 DDE7     		b	.L55
 1424              	.LVL105:
 1425              	.L63:
 1426              	.LBB57:
 385:../Middlewares/stm32-vision-models-postprocessing/lib_vision_models_pp/Src/od_pp_ssd.c ****             {
 1427              		.loc 1 385 13 is_stmt 1 view .LVU475
 385:../Middlewares/stm32-vision-models-postprocessing/lib_vision_models_pp/Src/od_pp_ssd.c ****             {
 1428              		.loc 1 385 24 is_stmt 0 view .LVU476
 1429 0054 03FB0053 		mla	r3, r3, r0, r5
 1430 0058 07EB8303 		add	r3, r7, r3, lsl #2
 385:../Middlewares/stm32-vision-models-postprocessing/lib_vision_models_pp/Src/od_pp_ssd.c ****             {
 1431              		.loc 1 385 16 view .LVU477
 1432 005c D3ED007A 		vldr.32	s15, [r3]
 1433 0060 F5EE407A 		vcmp.f32	s15, #0
 1434 0064 F1EE10FA 		vmrs	APSR_nzcv, FPSCR
 1435 0068 00F1010B 		add	fp, r0, #1
 1436 006c 01D1     		bne	.L57
 1437              	.LVL106:
 1438              	.L62:
 385:../Middlewares/stm32-vision-models-postprocessing/lib_vision_models_pp/Src/od_pp_ssd.c ****             {
 1439              		.loc 1 385 16 view .LVU478
 1440              	.LBE57:
 383:../Middlewares/stm32-vision-models-postprocessing/lib_vision_models_pp/Src/od_pp_ssd.c ****         {
 1441              		.loc 1 383 57 is_stmt 1 discriminator 2 view .LVU479
 383:../Middlewares/stm32-vision-models-postprocessing/lib_vision_models_pp/Src/od_pp_ssd.c ****         {
 1442              		.loc 1 383 9 is_stmt 0 view .LVU480
 1443 006e 5846     		mov	r0, fp
 1444 0070 E1E7     		b	.L56
 1445              	.LVL107:
 1446              	.L57:
 1447              	.LBB58:
 390:../Middlewares/stm32-vision-models-postprocessing/lib_vision_models_pp/Src/od_pp_ssd.c ****             {
 1448              		.loc 1 390 20 view .LVU481
 1449 0072 DA46     		mov	r10, fp
 389:../Middlewares/stm32-vision-models-postprocessing/lib_vision_models_pp/Src/od_pp_ssd.c ****             for (j = i + 1; j < pInput_static_param->nb_detect; ++j)
 1450              		.loc 1 389 13 is_stmt 1 view .LVU482
 389:../Middlewares/stm32-vision-models-postprocessing/lib_vision_models_pp/Src/od_pp_ssd.c ****             for (j = i + 1; j < pInput_static_param->nb_detect; ++j)
 1451              		.loc 1 389 24 is_stmt 0 view .LVU483
 1452 0074 08EB0016 		add	r6, r8, r0, lsl #4
 1453              	.LVL108:
 390:../Middlewares/stm32-vision-models-postprocessing/lib_vision_models_pp/Src/od_pp_ssd.c ****             {
 1454              		.loc 1 390 13 is_stmt 1 view .LVU484
 1455              	.L58:
 390:../Middlewares/stm32-vision-models-postprocessing/lib_vision_models_pp/Src/od_pp_ssd.c ****             {
 1456              		.loc 1 390 31 discriminator 1 view .LVU485
 1457 0078 E369     		ldr	r3, [r4, #28]
 1458 007a 5345     		cmp	r3, r10
 1459 007c F7DD     		ble	.L62
 1460              	.LBB54:
 392:../Middlewares/stm32-vision-models-postprocessing/lib_vision_models_pp/Src/od_pp_ssd.c ****                 if (vision_models_box_iou(pA, pB) > pInput_static_param->iou_threshold)
 1461              		.loc 1 392 17 view .LVU486
 1462              	.LVL109:
 393:../Middlewares/stm32-vision-models-postprocessing/lib_vision_models_pp/Src/od_pp_ssd.c ****                 {
 1463              		.loc 1 393 17 view .LVU487
 393:../Middlewares/stm32-vision-models-postprocessing/lib_vision_models_pp/Src/od_pp_ssd.c ****                 {
 1464              		.loc 1 393 21 is_stmt 0 view .LVU488
 1465 007e 08EB0A11 		add	r1, r8, r10, lsl #4
ARM GAS  /tmp/ccF7Geq9.s 			page 41


 1466              	.LVL110:
 393:../Middlewares/stm32-vision-models-postprocessing/lib_vision_models_pp/Src/od_pp_ssd.c ****                 {
 1467              		.loc 1 393 21 view .LVU489
 1468 0082 3046     		mov	r0, r6
 1469 0084 FFF7FEFF 		bl	vision_models_box_iou
 1470              	.LVL111:
 393:../Middlewares/stm32-vision-models-postprocessing/lib_vision_models_pp/Src/od_pp_ssd.c ****                 {
 1471              		.loc 1 393 20 discriminator 1 view .LVU490
 1472 0088 D4ED067A 		vldr.32	s15, [r4, #24]
 1473 008c B4EEE70A 		vcmpe.f32	s0, s15
 1474 0090 F1EE10FA 		vmrs	APSR_nzcv, FPSCR
 395:../Middlewares/stm32-vision-models-postprocessing/lib_vision_models_pp/Src/od_pp_ssd.c ****                 }
 1475              		.loc 1 395 21 is_stmt 1 view .LVU491
 395:../Middlewares/stm32-vision-models-postprocessing/lib_vision_models_pp/Src/od_pp_ssd.c ****                 }
 1476              		.loc 1 395 31 is_stmt 0 view .LVU492
 1477 0094 C1BF     		itttt	gt
 1478 0096 2368     		ldrgt	r3, [r4]
 395:../Middlewares/stm32-vision-models-postprocessing/lib_vision_models_pp/Src/od_pp_ssd.c ****                 }
 1479              		.loc 1 395 28 view .LVU493
 1480 0098 03FB0A53 		mlagt	r3, r3, r10, r5
 395:../Middlewares/stm32-vision-models-postprocessing/lib_vision_models_pp/Src/od_pp_ssd.c ****                 }
 1481              		.loc 1 395 70 view .LVU494
 1482 009c 07EB8303 		addgt	r3, r7, r3, lsl #2
 1483 00a0 C3F80090 		strgt	r9, [r3]	@ float
 1484              	.LBE54:
 390:../Middlewares/stm32-vision-models-postprocessing/lib_vision_models_pp/Src/od_pp_ssd.c ****             {
 1485              		.loc 1 390 65 is_stmt 1 discriminator 2 view .LVU495
 1486 00a4 0AF1010A 		add	r10, r10, #1
 1487              	.LVL112:
 390:../Middlewares/stm32-vision-models-postprocessing/lib_vision_models_pp/Src/od_pp_ssd.c ****             {
 1488              		.loc 1 390 65 is_stmt 0 discriminator 2 view .LVU496
 1489 00a8 E6E7     		b	.L58
 1490              	.LVL113:
 1491              	.L67:
 390:../Middlewares/stm32-vision-models-postprocessing/lib_vision_models_pp/Src/od_pp_ssd.c ****             {
 1492              		.loc 1 390 65 discriminator 2 view .LVU497
 1493              	.LBE58:
 1494              	.LBB59:
 402:../Middlewares/stm32-vision-models-postprocessing/lib_vision_models_pp/Src/od_pp_ssd.c ****                 (limit_counter < pInput_static_param->max_boxes_limit))
 1495              		.loc 1 402 13 is_stmt 1 view .LVU498
 402:../Middlewares/stm32-vision-models-postprocessing/lib_vision_models_pp/Src/od_pp_ssd.c ****                 (limit_counter < pInput_static_param->max_boxes_limit))
 1496              		.loc 1 402 63 is_stmt 0 view .LVU499
 1497 00aa 03FB0156 		mla	r6, r3, r1, r5
 402:../Middlewares/stm32-vision-models-postprocessing/lib_vision_models_pp/Src/od_pp_ssd.c ****                 (limit_counter < pInput_static_param->max_boxes_limit))
 1498              		.loc 1 402 25 view .LVU500
 1499 00ae 07EB8606 		add	r6, r7, r6, lsl #2
 402:../Middlewares/stm32-vision-models-postprocessing/lib_vision_models_pp/Src/od_pp_ssd.c ****                 (limit_counter < pInput_static_param->max_boxes_limit))
 1500              		.loc 1 402 16 view .LVU501
 1501 00b2 D6ED007A 		vldr.32	s15, [r6]
 1502 00b6 F5EE407A 		vcmp.f32	s15, #0
 1503 00ba F1EE10FA 		vmrs	APSR_nzcv, FPSCR
 1504 00be 06D0     		beq	.L65
 402:../Middlewares/stm32-vision-models-postprocessing/lib_vision_models_pp/Src/od_pp_ssd.c ****                 (limit_counter < pInput_static_param->max_boxes_limit))
 1505              		.loc 1 402 74 discriminator 1 view .LVU502
 1506 00c0 2069     		ldr	r0, [r4, #16]
 1507 00c2 6045     		cmp	r0, ip
 1508 00c4 03DD     		ble	.L65
ARM GAS  /tmp/ccF7Geq9.s 			page 42


 405:../Middlewares/stm32-vision-models-postprocessing/lib_vision_models_pp/Src/od_pp_ssd.c ****             }
 1509              		.loc 1 405 17 is_stmt 1 view .LVU503
 405:../Middlewares/stm32-vision-models-postprocessing/lib_vision_models_pp/Src/od_pp_ssd.c ****             }
 1510              		.loc 1 405 30 is_stmt 0 view .LVU504
 1511 00c6 0CF1010C 		add	ip, ip, #1
 1512              	.LVL114:
 1513              	.L66:
 400:../Middlewares/stm32-vision-models-postprocessing/lib_vision_models_pp/Src/od_pp_ssd.c ****         {
 1514              		.loc 1 400 67 is_stmt 1 discriminator 2 view .LVU505
 1515 00ca 0131     		adds	r1, r1, #1
 1516              	.LVL115:
 400:../Middlewares/stm32-vision-models-postprocessing/lib_vision_models_pp/Src/od_pp_ssd.c ****         {
 1517              		.loc 1 400 67 is_stmt 0 discriminator 2 view .LVU506
 1518 00cc BEE7     		b	.L64
 1519              	.LVL116:
 1520              	.L65:
 409:../Middlewares/stm32-vision-models-postprocessing/lib_vision_models_pp/Src/od_pp_ssd.c ****             }
 1521              		.loc 1 409 17 is_stmt 1 view .LVU507
 409:../Middlewares/stm32-vision-models-postprocessing/lib_vision_models_pp/Src/od_pp_ssd.c ****             }
 1522              		.loc 1 409 67 is_stmt 0 view .LVU508
 1523 00ce C6F80090 		str	r9, [r6]	@ float
 1524 00d2 FAE7     		b	.L66
 1525              	.L72:
 1526              		.align	2
 1527              	.L71:
 1528 00d4 00000000 		.word	AI_SSD_PP_SORT_CLASS
 1529              	.LBE59:
 1530              		.cfi_endproc
 1531              	.LFE780:
 1533              		.section	.text.ssd_pp_nms_filtering_scratchBuffer,"ax",%progbits
 1534              		.align	1
 1535              		.global	ssd_pp_nms_filtering_scratchBuffer
 1536              		.syntax unified
 1537              		.thumb
 1538              		.thumb_func
 1540              	ssd_pp_nms_filtering_scratchBuffer:
 1541              	.LVL117:
 1542              	.LFB781:
 416:../Middlewares/stm32-vision-models-postprocessing/lib_vision_models_pp/Src/od_pp_ssd.c **** 
 417:../Middlewares/stm32-vision-models-postprocessing/lib_vision_models_pp/Src/od_pp_ssd.c **** int32_t ssd_pp_nms_filtering_scratchBuffer(od_pp_outBuffer_t *pScratchBuffer,
 418:../Middlewares/stm32-vision-models-postprocessing/lib_vision_models_pp/Src/od_pp_ssd.c ****                                            od_ssd_pp_static_param_t *pInput_static_param)
 419:../Middlewares/stm32-vision-models-postprocessing/lib_vision_models_pp/Src/od_pp_ssd.c **** {
 1543              		.loc 1 419 1 is_stmt 1 view -0
 1544              		.cfi_startproc
 1545              		@ args = 0, pretend = 0, frame = 16
 1546              		@ frame_needed = 0, uses_anonymous_args = 0
 420:../Middlewares/stm32-vision-models-postprocessing/lib_vision_models_pp/Src/od_pp_ssd.c ****   int32_t i, j, k, limit_counter;
 1547              		.loc 1 420 3 view .LVU510
 421:../Middlewares/stm32-vision-models-postprocessing/lib_vision_models_pp/Src/od_pp_ssd.c **** 
 422:../Middlewares/stm32-vision-models-postprocessing/lib_vision_models_pp/Src/od_pp_ssd.c ****     for (k = 0; k < pInput_static_param->nb_classes; ++k)
 1548              		.loc 1 422 5 view .LVU511
 419:../Middlewares/stm32-vision-models-postprocessing/lib_vision_models_pp/Src/od_pp_ssd.c ****   int32_t i, j, k, limit_counter;
 1549              		.loc 1 419 1 is_stmt 0 view .LVU512
 1550 0000 2DE9F04F 		push	{r4, r5, r6, r7, r8, r9, r10, fp, lr}
 1551              		.cfi_def_cfa_offset 36
 1552              		.cfi_offset 4, -36
 1553              		.cfi_offset 5, -32
ARM GAS  /tmp/ccF7Geq9.s 			page 43


 1554              		.cfi_offset 6, -28
 1555              		.cfi_offset 7, -24
 1556              		.cfi_offset 8, -20
 1557              		.cfi_offset 9, -16
 1558              		.cfi_offset 10, -12
 1559              		.cfi_offset 11, -8
 1560              		.cfi_offset 14, -4
 1561 0004 0546     		mov	r5, r0
 1562 0006 0E46     		mov	r6, r1
 1563              		.loc 1 422 12 view .LVU513
 1564 0008 0027     		movs	r7, #0
 1565              	.LBB60:
 1566              	.LBB61:
 1567              	.LBB62:
 423:../Middlewares/stm32-vision-models-postprocessing/lib_vision_models_pp/Src/od_pp_ssd.c ****     {
 424:../Middlewares/stm32-vision-models-postprocessing/lib_vision_models_pp/Src/od_pp_ssd.c ****         limit_counter = 0;
 425:../Middlewares/stm32-vision-models-postprocessing/lib_vision_models_pp/Src/od_pp_ssd.c ****         int32_t detections_per_class = 0;
 426:../Middlewares/stm32-vision-models-postprocessing/lib_vision_models_pp/Src/od_pp_ssd.c ****         AI_SSD_PP_SORT_CLASS = k;
 427:../Middlewares/stm32-vision-models-postprocessing/lib_vision_models_pp/Src/od_pp_ssd.c **** 
 428:../Middlewares/stm32-vision-models-postprocessing/lib_vision_models_pp/Src/od_pp_ssd.c ****         /* Counts the number of detections with class k */
 429:../Middlewares/stm32-vision-models-postprocessing/lib_vision_models_pp/Src/od_pp_ssd.c ****         for (int32_t i = 0; i < pInput_static_param->nb_detect ; i ++)
 430:../Middlewares/stm32-vision-models-postprocessing/lib_vision_models_pp/Src/od_pp_ssd.c ****         {
 431:../Middlewares/stm32-vision-models-postprocessing/lib_vision_models_pp/Src/od_pp_ssd.c ****             if(pScratchBuffer[i].class_index == k)
 432:../Middlewares/stm32-vision-models-postprocessing/lib_vision_models_pp/Src/od_pp_ssd.c ****             {
 433:../Middlewares/stm32-vision-models-postprocessing/lib_vision_models_pp/Src/od_pp_ssd.c ****                 detections_per_class++;
 434:../Middlewares/stm32-vision-models-postprocessing/lib_vision_models_pp/Src/od_pp_ssd.c ****             }
 435:../Middlewares/stm32-vision-models-postprocessing/lib_vision_models_pp/Src/od_pp_ssd.c ****         }
 436:../Middlewares/stm32-vision-models-postprocessing/lib_vision_models_pp/Src/od_pp_ssd.c **** 
 437:../Middlewares/stm32-vision-models-postprocessing/lib_vision_models_pp/Src/od_pp_ssd.c ****         if (detections_per_class > 0)
 438:../Middlewares/stm32-vision-models-postprocessing/lib_vision_models_pp/Src/od_pp_ssd.c ****         {
 439:../Middlewares/stm32-vision-models-postprocessing/lib_vision_models_pp/Src/od_pp_ssd.c **** 
 440:../Middlewares/stm32-vision-models-postprocessing/lib_vision_models_pp/Src/od_pp_ssd.c ****           qsort(pScratchBuffer,
 441:../Middlewares/stm32-vision-models-postprocessing/lib_vision_models_pp/Src/od_pp_ssd.c ****               pInput_static_param->nb_detect,
 442:../Middlewares/stm32-vision-models-postprocessing/lib_vision_models_pp/Src/od_pp_ssd.c ****               sizeof(od_pp_outBuffer_t),
 443:../Middlewares/stm32-vision-models-postprocessing/lib_vision_models_pp/Src/od_pp_ssd.c ****               (_Cmpfun *)ssd_nms_comparator);
 444:../Middlewares/stm32-vision-models-postprocessing/lib_vision_models_pp/Src/od_pp_ssd.c ****         for (i = 0; i < detections_per_class; i++)
 445:../Middlewares/stm32-vision-models-postprocessing/lib_vision_models_pp/Src/od_pp_ssd.c ****         {
 446:../Middlewares/stm32-vision-models-postprocessing/lib_vision_models_pp/Src/od_pp_ssd.c ****             if (pScratchBuffer[i].conf == 0.0)
 447:../Middlewares/stm32-vision-models-postprocessing/lib_vision_models_pp/Src/od_pp_ssd.c ****             {
 448:../Middlewares/stm32-vision-models-postprocessing/lib_vision_models_pp/Src/od_pp_ssd.c ****                 continue;
 449:../Middlewares/stm32-vision-models-postprocessing/lib_vision_models_pp/Src/od_pp_ssd.c ****             }
 450:../Middlewares/stm32-vision-models-postprocessing/lib_vision_models_pp/Src/od_pp_ssd.c ****             float32_t *pA = &(pScratchBuffer[i].x_center);
 451:../Middlewares/stm32-vision-models-postprocessing/lib_vision_models_pp/Src/od_pp_ssd.c ****             for (j = i + 1; j < detections_per_class; j++)
 452:../Middlewares/stm32-vision-models-postprocessing/lib_vision_models_pp/Src/od_pp_ssd.c ****             {
 453:../Middlewares/stm32-vision-models-postprocessing/lib_vision_models_pp/Src/od_pp_ssd.c ****                 if (pScratchBuffer[j].conf == 0.0)
 1568              		.loc 1 453 20 view .LVU514
 1569 000a 4FF00008 		mov	r8, #0
 1570              	.LBE62:
 1571              	.LBE61:
 1572              	.LBE60:
 419:../Middlewares/stm32-vision-models-postprocessing/lib_vision_models_pp/Src/od_pp_ssd.c ****   int32_t i, j, k, limit_counter;
 1573              		.loc 1 419 1 view .LVU515
 1574 000e 85B0     		sub	sp, sp, #20
 1575              		.cfi_def_cfa_offset 56
 1576              	.LVL118:
 1577              	.L74:
 422:../Middlewares/stm32-vision-models-postprocessing/lib_vision_models_pp/Src/od_pp_ssd.c ****     {
ARM GAS  /tmp/ccF7Geq9.s 			page 44


 1578              		.loc 1 422 19 is_stmt 1 discriminator 1 view .LVU516
 1579 0010 3368     		ldr	r3, [r6]
 1580 0012 BB42     		cmp	r3, r7
 1581 0014 03DC     		bgt	.L92
 454:../Middlewares/stm32-vision-models-postprocessing/lib_vision_models_pp/Src/od_pp_ssd.c ****                 {
 455:../Middlewares/stm32-vision-models-postprocessing/lib_vision_models_pp/Src/od_pp_ssd.c ****                   continue;
 456:../Middlewares/stm32-vision-models-postprocessing/lib_vision_models_pp/Src/od_pp_ssd.c ****                 }
 457:../Middlewares/stm32-vision-models-postprocessing/lib_vision_models_pp/Src/od_pp_ssd.c ****                 float32_t *pB = &(pScratchBuffer[j].x_center);
 458:../Middlewares/stm32-vision-models-postprocessing/lib_vision_models_pp/Src/od_pp_ssd.c ****                 if (vision_models_box_iou(pA, pB) > pInput_static_param->iou_threshold)
 459:../Middlewares/stm32-vision-models-postprocessing/lib_vision_models_pp/Src/od_pp_ssd.c ****                 {
 460:../Middlewares/stm32-vision-models-postprocessing/lib_vision_models_pp/Src/od_pp_ssd.c ****                     pScratchBuffer[j].conf = 0.0;
 461:../Middlewares/stm32-vision-models-postprocessing/lib_vision_models_pp/Src/od_pp_ssd.c ****                 }
 462:../Middlewares/stm32-vision-models-postprocessing/lib_vision_models_pp/Src/od_pp_ssd.c ****             }
 463:../Middlewares/stm32-vision-models-postprocessing/lib_vision_models_pp/Src/od_pp_ssd.c ****         }
 464:../Middlewares/stm32-vision-models-postprocessing/lib_vision_models_pp/Src/od_pp_ssd.c **** 
 465:../Middlewares/stm32-vision-models-postprocessing/lib_vision_models_pp/Src/od_pp_ssd.c ****         for (int32_t it = 0; it < detections_per_class; ++it)
 466:../Middlewares/stm32-vision-models-postprocessing/lib_vision_models_pp/Src/od_pp_ssd.c ****         {
 467:../Middlewares/stm32-vision-models-postprocessing/lib_vision_models_pp/Src/od_pp_ssd.c ****             if ((pScratchBuffer[it].conf != 0.0) &&
 468:../Middlewares/stm32-vision-models-postprocessing/lib_vision_models_pp/Src/od_pp_ssd.c ****                 (limit_counter < pInput_static_param->max_boxes_limit))
 469:../Middlewares/stm32-vision-models-postprocessing/lib_vision_models_pp/Src/od_pp_ssd.c ****             {
 470:../Middlewares/stm32-vision-models-postprocessing/lib_vision_models_pp/Src/od_pp_ssd.c ****                 limit_counter++;
 471:../Middlewares/stm32-vision-models-postprocessing/lib_vision_models_pp/Src/od_pp_ssd.c ****             }
 472:../Middlewares/stm32-vision-models-postprocessing/lib_vision_models_pp/Src/od_pp_ssd.c ****             else
 473:../Middlewares/stm32-vision-models-postprocessing/lib_vision_models_pp/Src/od_pp_ssd.c ****             {
 474:../Middlewares/stm32-vision-models-postprocessing/lib_vision_models_pp/Src/od_pp_ssd.c **** 
 475:../Middlewares/stm32-vision-models-postprocessing/lib_vision_models_pp/Src/od_pp_ssd.c ****                 pScratchBuffer[it].conf = 0.0;
 476:../Middlewares/stm32-vision-models-postprocessing/lib_vision_models_pp/Src/od_pp_ssd.c ****             }
 477:../Middlewares/stm32-vision-models-postprocessing/lib_vision_models_pp/Src/od_pp_ssd.c ****         }
 478:../Middlewares/stm32-vision-models-postprocessing/lib_vision_models_pp/Src/od_pp_ssd.c ****         } // if detections
 479:../Middlewares/stm32-vision-models-postprocessing/lib_vision_models_pp/Src/od_pp_ssd.c ****     } // for k in classes
 480:../Middlewares/stm32-vision-models-postprocessing/lib_vision_models_pp/Src/od_pp_ssd.c **** 
 481:../Middlewares/stm32-vision-models-postprocessing/lib_vision_models_pp/Src/od_pp_ssd.c ****     return (AI_OD_POSTPROCESS_ERROR_NO);
 1582              		.loc 1 481 5 view .LVU517
 482:../Middlewares/stm32-vision-models-postprocessing/lib_vision_models_pp/Src/od_pp_ssd.c **** }
 1583              		.loc 1 482 1 is_stmt 0 view .LVU518
 1584 0016 0020     		movs	r0, #0
 1585 0018 05B0     		add	sp, sp, #20
 1586              		.cfi_remember_state
 1587              		.cfi_def_cfa_offset 36
 1588              		@ sp needed
 1589 001a BDE8F08F 		pop	{r4, r5, r6, r7, r8, r9, r10, fp, pc}
 1590              	.LVL119:
 1591              	.L92:
 1592              		.cfi_restore_state
 1593              	.LBB72:
 424:../Middlewares/stm32-vision-models-postprocessing/lib_vision_models_pp/Src/od_pp_ssd.c ****         int32_t detections_per_class = 0;
 1594              		.loc 1 424 9 is_stmt 1 view .LVU519
 425:../Middlewares/stm32-vision-models-postprocessing/lib_vision_models_pp/Src/od_pp_ssd.c ****         AI_SSD_PP_SORT_CLASS = k;
 1595              		.loc 1 425 9 view .LVU520
 426:../Middlewares/stm32-vision-models-postprocessing/lib_vision_models_pp/Src/od_pp_ssd.c **** 
 1596              		.loc 1 426 9 view .LVU521
 1597              	.LBB64:
 429:../Middlewares/stm32-vision-models-postprocessing/lib_vision_models_pp/Src/od_pp_ssd.c ****         {
 1598              		.loc 1 429 22 is_stmt 0 view .LVU522
 1599 001e 0022     		movs	r2, #0
 429:../Middlewares/stm32-vision-models-postprocessing/lib_vision_models_pp/Src/od_pp_ssd.c ****         {
 1600              		.loc 1 429 52 discriminator 1 view .LVU523
ARM GAS  /tmp/ccF7Geq9.s 			page 45


 1601 0020 F169     		ldr	r1, [r6, #28]
 1602              	.LBE64:
 426:../Middlewares/stm32-vision-models-postprocessing/lib_vision_models_pp/Src/od_pp_ssd.c **** 
 1603              		.loc 1 426 30 view .LVU524
 1604 0022 394B     		ldr	r3, .L99
 1605 0024 9142     		cmp	r1, r2
 1606 0026 1F60     		str	r7, [r3]
 429:../Middlewares/stm32-vision-models-postprocessing/lib_vision_models_pp/Src/od_pp_ssd.c ****         {
 1607              		.loc 1 429 9 is_stmt 1 view .LVU525
 1608              	.LBB65:
 429:../Middlewares/stm32-vision-models-postprocessing/lib_vision_models_pp/Src/od_pp_ssd.c ****         {
 1609              		.loc 1 429 14 view .LVU526
 1610              	.LVL120:
 429:../Middlewares/stm32-vision-models-postprocessing/lib_vision_models_pp/Src/od_pp_ssd.c ****         {
 1611              		.loc 1 429 14 is_stmt 0 view .LVU527
 1612              	.LBE65:
 425:../Middlewares/stm32-vision-models-postprocessing/lib_vision_models_pp/Src/od_pp_ssd.c ****         AI_SSD_PP_SORT_CLASS = k;
 1613              		.loc 1 425 17 view .LVU528
 1614 0028 9246     		mov	r10, r2
 1615              	.LBB66:
 431:../Middlewares/stm32-vision-models-postprocessing/lib_vision_models_pp/Src/od_pp_ssd.c ****             {
 1616              		.loc 1 431 33 view .LVU529
 1617 002a 01F10103 		add	r3, r1, #1
 1618 002e 4FF01804 		mov	r4, #24
 1619 0032 B8BF     		it	lt
 1620 0034 0123     		movlt	r3, #1
 1621 0036 05F11400 		add	r0, r5, #20
 1622              	.LVL121:
 1623              	.L75:
 429:../Middlewares/stm32-vision-models-postprocessing/lib_vision_models_pp/Src/od_pp_ssd.c ****         {
 1624              		.loc 1 429 31 is_stmt 1 discriminator 1 view .LVU530
 1625 003a 013B     		subs	r3, r3, #1
 1626 003c 04D1     		bne	.L77
 1627              	.LBE66:
 437:../Middlewares/stm32-vision-models-postprocessing/lib_vision_models_pp/Src/od_pp_ssd.c ****         {
 1628              		.loc 1 437 9 view .LVU531
 437:../Middlewares/stm32-vision-models-postprocessing/lib_vision_models_pp/Src/od_pp_ssd.c ****         {
 1629              		.loc 1 437 12 is_stmt 0 view .LVU532
 1630 003e BAF1000F 		cmp	r10, #0
 1631 0042 0AD1     		bne	.L78
 1632              	.LVL122:
 1633              	.L91:
 437:../Middlewares/stm32-vision-models-postprocessing/lib_vision_models_pp/Src/od_pp_ssd.c ****         {
 1634              		.loc 1 437 12 view .LVU533
 1635              	.LBE72:
 422:../Middlewares/stm32-vision-models-postprocessing/lib_vision_models_pp/Src/od_pp_ssd.c ****     {
 1636              		.loc 1 422 54 is_stmt 1 discriminator 2 view .LVU534
 1637 0044 0137     		adds	r7, r7, #1
 1638              	.LVL123:
 422:../Middlewares/stm32-vision-models-postprocessing/lib_vision_models_pp/Src/od_pp_ssd.c ****     {
 1639              		.loc 1 422 54 is_stmt 0 discriminator 2 view .LVU535
 1640 0046 E3E7     		b	.L74
 1641              	.LVL124:
 1642              	.L77:
 1643              	.LBB73:
 1644              	.LBB67:
 431:../Middlewares/stm32-vision-models-postprocessing/lib_vision_models_pp/Src/od_pp_ssd.c ****             {
ARM GAS  /tmp/ccF7Geq9.s 			page 46


 1645              		.loc 1 431 13 is_stmt 1 view .LVU536
 431:../Middlewares/stm32-vision-models-postprocessing/lib_vision_models_pp/Src/od_pp_ssd.c ****             {
 1646              		.loc 1 431 33 is_stmt 0 view .LVU537
 1647 0048 04FB02FC 		mul	ip, r4, r2
 431:../Middlewares/stm32-vision-models-postprocessing/lib_vision_models_pp/Src/od_pp_ssd.c ****             {
 1648              		.loc 1 431 15 view .LVU538
 1649 004c 50F80CC0 		ldr	ip, [r0, ip]
 429:../Middlewares/stm32-vision-models-postprocessing/lib_vision_models_pp/Src/od_pp_ssd.c ****         {
 1650              		.loc 1 429 68 discriminator 2 view .LVU539
 1651 0050 0132     		adds	r2, r2, #1
 1652              	.LVL125:
 433:../Middlewares/stm32-vision-models-postprocessing/lib_vision_models_pp/Src/od_pp_ssd.c ****             }
 1653              		.loc 1 433 37 view .LVU540
 1654 0052 BC45     		cmp	ip, r7
 1655 0054 5AEA1A9A 		cinc	r10, r10, eq
 1656              	.LVL126:
 429:../Middlewares/stm32-vision-models-postprocessing/lib_vision_models_pp/Src/od_pp_ssd.c ****         {
 1657              		.loc 1 429 68 is_stmt 1 discriminator 2 view .LVU541
 1658 0058 EFE7     		b	.L75
 1659              	.LVL127:
 1660              	.L78:
 429:../Middlewares/stm32-vision-models-postprocessing/lib_vision_models_pp/Src/od_pp_ssd.c ****         {
 1661              		.loc 1 429 68 is_stmt 0 discriminator 2 view .LVU542
 1662              	.LBE67:
 440:../Middlewares/stm32-vision-models-postprocessing/lib_vision_models_pp/Src/od_pp_ssd.c ****               pInput_static_param->nb_detect,
 1663              		.loc 1 440 11 is_stmt 1 view .LVU543
 1664 005a 1822     		movs	r2, #24
 1665              	.LVL128:
 440:../Middlewares/stm32-vision-models-postprocessing/lib_vision_models_pp/Src/od_pp_ssd.c ****               pInput_static_param->nb_detect,
 1666              		.loc 1 440 11 is_stmt 0 view .LVU544
 1667 005c 2846     		mov	r0, r5
 1668 005e 2B4B     		ldr	r3, .L99+4
 1669 0060 FFF7FEFF 		bl	qsort
 1670              	.LVL129:
 444:../Middlewares/stm32-vision-models-postprocessing/lib_vision_models_pp/Src/od_pp_ssd.c ****         {
 1671              		.loc 1 444 9 is_stmt 1 view .LVU545
 444:../Middlewares/stm32-vision-models-postprocessing/lib_vision_models_pp/Src/od_pp_ssd.c ****         {
 1672              		.loc 1 444 23 discriminator 1 view .LVU546
 1673 0064 A946     		mov	r9, r5
 440:../Middlewares/stm32-vision-models-postprocessing/lib_vision_models_pp/Src/od_pp_ssd.c ****               pInput_static_param->nb_detect,
 1674              		.loc 1 440 11 is_stmt 0 view .LVU547
 1675 0066 AB46     		mov	fp, r5
 444:../Middlewares/stm32-vision-models-postprocessing/lib_vision_models_pp/Src/od_pp_ssd.c ****         {
 1676              		.loc 1 444 16 view .LVU548
 1677 0068 0024     		movs	r4, #0
 1678              	.LVL130:
 1679              	.L80:
 1680              	.LBB68:
 446:../Middlewares/stm32-vision-models-postprocessing/lib_vision_models_pp/Src/od_pp_ssd.c ****             {
 1681              		.loc 1 446 13 is_stmt 1 view .LVU549
 446:../Middlewares/stm32-vision-models-postprocessing/lib_vision_models_pp/Src/od_pp_ssd.c ****             {
 1682              		.loc 1 446 16 is_stmt 0 view .LVU550
 1683 006a DBED047A 		vldr.32	s15, [fp, #16]
 1684 006e F5EE407A 		vcmp.f32	s15, #0
 1685 0072 F1EE10FA 		vmrs	APSR_nzcv, FPSCR
 451:../Middlewares/stm32-vision-models-postprocessing/lib_vision_models_pp/Src/od_pp_ssd.c ****             {
 1686              		.loc 1 451 20 view .LVU551
ARM GAS  /tmp/ccF7Geq9.s 			page 47


 1687 0076 04F10104 		add	r4, r4, #1
 1688              	.LVL131:
 446:../Middlewares/stm32-vision-models-postprocessing/lib_vision_models_pp/Src/od_pp_ssd.c ****             {
 1689              		.loc 1 446 16 view .LVU552
 1690 007a 3FD1     		bne	.L93
 1691              	.L87:
 1692              	.LBE68:
 444:../Middlewares/stm32-vision-models-postprocessing/lib_vision_models_pp/Src/od_pp_ssd.c ****         {
 1693              		.loc 1 444 48 is_stmt 1 discriminator 2 view .LVU553
 1694              	.LVL132:
 444:../Middlewares/stm32-vision-models-postprocessing/lib_vision_models_pp/Src/od_pp_ssd.c ****         {
 1695              		.loc 1 444 23 discriminator 1 view .LVU554
 1696 007c 5445     		cmp	r4, r10
 1697 007e 0BF1180B 		add	fp, fp, #24
 1698 0082 F2D1     		bne	.L80
 1699 0084 1823     		movs	r3, #24
 424:../Middlewares/stm32-vision-models-postprocessing/lib_vision_models_pp/Src/od_pp_ssd.c ****         int32_t detections_per_class = 0;
 1700              		.loc 1 424 23 is_stmt 0 view .LVU555
 1701 0086 0022     		movs	r2, #0
 1702 0088 03FB0453 		mla	r3, r3, r4, r5
 1703              	.LBB69:
 475:../Middlewares/stm32-vision-models-postprocessing/lib_vision_models_pp/Src/od_pp_ssd.c ****             }
 1704              		.loc 1 475 41 view .LVU556
 1705 008c 5B1B     		subs	r3, r3, r5
 1706 008e 2049     		ldr	r1, .L99+8
 1707 0090 183B     		subs	r3, r3, #24
 1708 0092 DB08     		lsrs	r3, r3, #3
 1709 0094 4B43     		muls	r3, r1, r3
 1710 0096 23F06043 		bic	r3, r3, #-536870912
 1711 009a 0133     		adds	r3, r3, #1
 1712              	.LVL133:
 1713              	.L90:
 467:../Middlewares/stm32-vision-models-postprocessing/lib_vision_models_pp/Src/od_pp_ssd.c ****                 (limit_counter < pInput_static_param->max_boxes_limit))
 1714              		.loc 1 467 13 is_stmt 1 view .LVU557
 467:../Middlewares/stm32-vision-models-postprocessing/lib_vision_models_pp/Src/od_pp_ssd.c ****                 (limit_counter < pInput_static_param->max_boxes_limit))
 1715              		.loc 1 467 16 is_stmt 0 view .LVU558
 1716 009c D9ED047A 		vldr.32	s15, [r9, #16]
 1717 00a0 F5EE407A 		vcmp.f32	s15, #0
 1718 00a4 F1EE10FA 		vmrs	APSR_nzcv, FPSCR
 1719 00a8 2BD0     		beq	.L88
 467:../Middlewares/stm32-vision-models-postprocessing/lib_vision_models_pp/Src/od_pp_ssd.c ****                 (limit_counter < pInput_static_param->max_boxes_limit))
 1720              		.loc 1 467 50 discriminator 1 view .LVU559
 1721 00aa 3169     		ldr	r1, [r6, #16]
 1722 00ac 9142     		cmp	r1, r2
 1723 00ae 28DD     		ble	.L88
 470:../Middlewares/stm32-vision-models-postprocessing/lib_vision_models_pp/Src/od_pp_ssd.c ****             }
 1724              		.loc 1 470 17 is_stmt 1 view .LVU560
 470:../Middlewares/stm32-vision-models-postprocessing/lib_vision_models_pp/Src/od_pp_ssd.c ****             }
 1725              		.loc 1 470 30 is_stmt 0 view .LVU561
 1726 00b0 0132     		adds	r2, r2, #1
 1727              	.LVL134:
 1728              	.L89:
 465:../Middlewares/stm32-vision-models-postprocessing/lib_vision_models_pp/Src/od_pp_ssd.c ****         {
 1729              		.loc 1 465 57 is_stmt 1 discriminator 2 view .LVU562
 465:../Middlewares/stm32-vision-models-postprocessing/lib_vision_models_pp/Src/od_pp_ssd.c ****         {
 1730              		.loc 1 465 33 discriminator 1 view .LVU563
 1731 00b2 013B     		subs	r3, r3, #1
ARM GAS  /tmp/ccF7Geq9.s 			page 48


 1732 00b4 09F11809 		add	r9, r9, #24
 1733 00b8 F0D1     		bne	.L90
 465:../Middlewares/stm32-vision-models-postprocessing/lib_vision_models_pp/Src/od_pp_ssd.c ****         {
 1734              		.loc 1 465 33 is_stmt 0 discriminator 1 view .LVU564
 1735 00ba C3E7     		b	.L91
 1736              	.LVL135:
 1737              	.L86:
 465:../Middlewares/stm32-vision-models-postprocessing/lib_vision_models_pp/Src/od_pp_ssd.c ****         {
 1738              		.loc 1 465 33 discriminator 1 view .LVU565
 1739              	.LBE69:
 1740              	.LBB70:
 1741              	.LBB63:
 453:../Middlewares/stm32-vision-models-postprocessing/lib_vision_models_pp/Src/od_pp_ssd.c ****                 {
 1742              		.loc 1 453 17 is_stmt 1 view .LVU566
 453:../Middlewares/stm32-vision-models-postprocessing/lib_vision_models_pp/Src/od_pp_ssd.c ****                 {
 1743              		.loc 1 453 20 is_stmt 0 view .LVU567
 1744 00bc D3ED0A7A 		vldr.32	s15, [r3, #40]
 1745 00c0 F5EE407A 		vcmp.f32	s15, #0
 1746 00c4 F1EE10FA 		vmrs	APSR_nzcv, FPSCR
 1747 00c8 03F11801 		add	r1, r3, #24
 1748 00cc 0393     		str	r3, [sp, #12]
 1749 00ce 10D0     		beq	.L83
 458:../Middlewares/stm32-vision-models-postprocessing/lib_vision_models_pp/Src/od_pp_ssd.c ****                 {
 1750              		.loc 1 458 21 view .LVU568
 1751 00d0 5846     		mov	r0, fp
 1752 00d2 CDE90112 		strd	r1, r2, [sp, #4]
 1753 00d6 FFF7FEFF 		bl	vision_models_box_iou
 1754              	.LVL136:
 458:../Middlewares/stm32-vision-models-postprocessing/lib_vision_models_pp/Src/od_pp_ssd.c ****                 {
 1755              		.loc 1 458 20 discriminator 1 view .LVU569
 1756 00da DDE90112 		ldrd	r1, r2, [sp, #4]
 460:../Middlewares/stm32-vision-models-postprocessing/lib_vision_models_pp/Src/od_pp_ssd.c ****                 }
 1757              		.loc 1 460 21 is_stmt 1 view .LVU570
 458:../Middlewares/stm32-vision-models-postprocessing/lib_vision_models_pp/Src/od_pp_ssd.c ****                 {
 1758              		.loc 1 458 20 is_stmt 0 discriminator 1 view .LVU571
 1759 00de D6ED067A 		vldr.32	s15, [r6, #24]
 1760 00e2 B4EEE70A 		vcmpe.f32	s0, s15
 1761 00e6 F1EE10FA 		vmrs	APSR_nzcv, FPSCR
 460:../Middlewares/stm32-vision-models-postprocessing/lib_vision_models_pp/Src/od_pp_ssd.c ****                 }
 1762              		.loc 1 460 44 view .LVU572
 1763 00ea C4BF     		itt	gt
 1764 00ec 039B     		ldrgt	r3, [sp, #12]
 1765 00ee C3F82880 		strgt	r8, [r3, #40]	@ float
 1766              	.LVL137:
 1767              	.L83:
 460:../Middlewares/stm32-vision-models-postprocessing/lib_vision_models_pp/Src/od_pp_ssd.c ****                 }
 1768              		.loc 1 460 44 view .LVU573
 1769              	.LBE63:
 451:../Middlewares/stm32-vision-models-postprocessing/lib_vision_models_pp/Src/od_pp_ssd.c ****             {
 1770              		.loc 1 451 56 is_stmt 1 discriminator 2 view .LVU574
 1771 00f2 0B46     		mov	r3, r1
 1772 00f4 0132     		adds	r2, r2, #1
 1773              	.LVL138:
 1774              	.L79:
 451:../Middlewares/stm32-vision-models-postprocessing/lib_vision_models_pp/Src/od_pp_ssd.c ****             {
 1775              		.loc 1 451 31 discriminator 1 view .LVU575
 1776 00f6 5245     		cmp	r2, r10
ARM GAS  /tmp/ccF7Geq9.s 			page 49


 1777 00f8 E0DB     		blt	.L86
 1778 00fa BFE7     		b	.L87
 1779              	.LVL139:
 1780              	.L93:
 451:../Middlewares/stm32-vision-models-postprocessing/lib_vision_models_pp/Src/od_pp_ssd.c ****             {
 1781              		.loc 1 451 31 is_stmt 0 discriminator 1 view .LVU576
 1782 00fc 5B46     		mov	r3, fp
 451:../Middlewares/stm32-vision-models-postprocessing/lib_vision_models_pp/Src/od_pp_ssd.c ****             {
 1783              		.loc 1 451 20 view .LVU577
 1784 00fe 2246     		mov	r2, r4
 1785 0100 F9E7     		b	.L79
 1786              	.LVL140:
 1787              	.L88:
 451:../Middlewares/stm32-vision-models-postprocessing/lib_vision_models_pp/Src/od_pp_ssd.c ****             {
 1788              		.loc 1 451 20 view .LVU578
 1789              	.LBE70:
 1790              	.LBB71:
 475:../Middlewares/stm32-vision-models-postprocessing/lib_vision_models_pp/Src/od_pp_ssd.c ****             }
 1791              		.loc 1 475 17 is_stmt 1 view .LVU579
 475:../Middlewares/stm32-vision-models-postprocessing/lib_vision_models_pp/Src/od_pp_ssd.c ****             }
 1792              		.loc 1 475 41 is_stmt 0 view .LVU580
 1793 0102 C9F81080 		str	r8, [r9, #16]	@ float
 1794 0106 D4E7     		b	.L89
 1795              	.L100:
 1796              		.align	2
 1797              	.L99:
 1798 0108 00000000 		.word	AI_SSD_PP_SORT_CLASS
 1799 010c 00000000 		.word	ssd_nms_comparator
 1800 0110 ABAAAA0A 		.word	178956971
 1801              	.LBE71:
 1802              	.LBE73:
 1803              		.cfi_endproc
 1804              	.LFE781:
 1806              		.section	.text.ssd_pp_score_filtering,"ax",%progbits
 1807              		.align	1
 1808              		.global	ssd_pp_score_filtering
 1809              		.syntax unified
 1810              		.thumb
 1811              		.thumb_func
 1813              	ssd_pp_score_filtering:
 1814              	.LVL141:
 1815              	.LFB782:
 483:../Middlewares/stm32-vision-models-postprocessing/lib_vision_models_pp/Src/od_pp_ssd.c **** 
 484:../Middlewares/stm32-vision-models-postprocessing/lib_vision_models_pp/Src/od_pp_ssd.c **** 
 485:../Middlewares/stm32-vision-models-postprocessing/lib_vision_models_pp/Src/od_pp_ssd.c **** 
 486:../Middlewares/stm32-vision-models-postprocessing/lib_vision_models_pp/Src/od_pp_ssd.c **** 
 487:../Middlewares/stm32-vision-models-postprocessing/lib_vision_models_pp/Src/od_pp_ssd.c **** int32_t ssd_pp_score_filtering(od_ssd_pp_in_centroid_t *pInput,
 488:../Middlewares/stm32-vision-models-postprocessing/lib_vision_models_pp/Src/od_pp_ssd.c ****                                od_pp_out_t *pOutput,
 489:../Middlewares/stm32-vision-models-postprocessing/lib_vision_models_pp/Src/od_pp_ssd.c ****                                od_ssd_pp_static_param_t *pInput_static_param)
 490:../Middlewares/stm32-vision-models-postprocessing/lib_vision_models_pp/Src/od_pp_ssd.c **** {
 1816              		.loc 1 490 1 is_stmt 1 view -0
 1817              		.cfi_startproc
 1818              		@ args = 0, pretend = 0, frame = 8
 1819              		@ frame_needed = 0, uses_anonymous_args = 0
 491:../Middlewares/stm32-vision-models-postprocessing/lib_vision_models_pp/Src/od_pp_ssd.c ****   float32_t *pScores = (float32_t *)pInput->pScores;
 1820              		.loc 1 491 3 view .LVU582
 490:../Middlewares/stm32-vision-models-postprocessing/lib_vision_models_pp/Src/od_pp_ssd.c ****   float32_t *pScores = (float32_t *)pInput->pScores;
ARM GAS  /tmp/ccF7Geq9.s 			page 50


 1821              		.loc 1 490 1 is_stmt 0 view .LVU583
 1822 0000 2DE9F347 		push	{r0, r1, r4, r5, r6, r7, r8, r9, r10, lr}
 1823              		.cfi_def_cfa_offset 40
 1824              		.cfi_offset 4, -32
 1825              		.cfi_offset 5, -28
 1826              		.cfi_offset 6, -24
 1827              		.cfi_offset 7, -20
 1828              		.cfi_offset 8, -16
 1829              		.cfi_offset 9, -12
 1830              		.cfi_offset 10, -8
 1831              		.cfi_offset 14, -4
 1832 0004 D0E90049 		ldrd	r4, r9, [r0]
 1833              	.LBB74:
 492:../Middlewares/stm32-vision-models-postprocessing/lib_vision_models_pp/Src/od_pp_ssd.c ****   float32_t *pBoxes = (float32_t *)pInput->pBoxes;
 493:../Middlewares/stm32-vision-models-postprocessing/lib_vision_models_pp/Src/od_pp_ssd.c **** 
 494:../Middlewares/stm32-vision-models-postprocessing/lib_vision_models_pp/Src/od_pp_ssd.c **** 
 495:../Middlewares/stm32-vision-models-postprocessing/lib_vision_models_pp/Src/od_pp_ssd.c ****     int32_t count = 0;
 496:../Middlewares/stm32-vision-models-postprocessing/lib_vision_models_pp/Src/od_pp_ssd.c ****     for (int32_t i = 0; i < pInput_static_param->nb_detect; i++)
 1834              		.loc 1 496 18 view .LVU584
 1835 0008 4FF00008 		mov	r8, #0
 1836              	.LBE74:
 490:../Middlewares/stm32-vision-models-postprocessing/lib_vision_models_pp/Src/od_pp_ssd.c ****   float32_t *pScores = (float32_t *)pInput->pScores;
 1837              		.loc 1 490 1 view .LVU585
 1838 000c 0E46     		mov	r6, r1
 1839 000e 1546     		mov	r5, r2
 495:../Middlewares/stm32-vision-models-postprocessing/lib_vision_models_pp/Src/od_pp_ssd.c ****     for (int32_t i = 0; i < pInput_static_param->nb_detect; i++)
 1840              		.loc 1 495 13 view .LVU586
 1841 0010 4746     		mov	r7, r8
 1842              	.LBB78:
 1843              	.LBB75:
 497:../Middlewares/stm32-vision-models-postprocessing/lib_vision_models_pp/Src/od_pp_ssd.c ****     {
 498:../Middlewares/stm32-vision-models-postprocessing/lib_vision_models_pp/Src/od_pp_ssd.c ****       uint32_t class_index;
 499:../Middlewares/stm32-vision-models-postprocessing/lib_vision_models_pp/Src/od_pp_ssd.c ****       float32_t best_score;
 500:../Middlewares/stm32-vision-models-postprocessing/lib_vision_models_pp/Src/od_pp_ssd.c ****       vision_models_maxi_if32ou32(pScores + 1,
 501:../Middlewares/stm32-vision-models-postprocessing/lib_vision_models_pp/Src/od_pp_ssd.c ****                                   pInput_static_param->nb_classes-1,
 502:../Middlewares/stm32-vision-models-postprocessing/lib_vision_models_pp/Src/od_pp_ssd.c ****                                   &best_score,
 503:../Middlewares/stm32-vision-models-postprocessing/lib_vision_models_pp/Src/od_pp_ssd.c ****                                   &class_index);
 504:../Middlewares/stm32-vision-models-postprocessing/lib_vision_models_pp/Src/od_pp_ssd.c **** 
 505:../Middlewares/stm32-vision-models-postprocessing/lib_vision_models_pp/Src/od_pp_ssd.c ****       if (best_score >= pInput_static_param->conf_threshold)
 506:../Middlewares/stm32-vision-models-postprocessing/lib_vision_models_pp/Src/od_pp_ssd.c ****       {
 507:../Middlewares/stm32-vision-models-postprocessing/lib_vision_models_pp/Src/od_pp_ssd.c ****           pOutput->pOutBuff[count].class_index = class_index + 1;
 1844              		.loc 1 507 28 view .LVU587
 1845 0012 4FF0180A 		mov	r10, #24
 1846 0016 1034     		adds	r4, r4, #16
 1847              	.LVL142:
 1848              	.L102:
 1849              		.loc 1 507 28 view .LVU588
 1850              	.LBE75:
 496:../Middlewares/stm32-vision-models-postprocessing/lib_vision_models_pp/Src/od_pp_ssd.c ****     {
 1851              		.loc 1 496 27 is_stmt 1 discriminator 1 view .LVU589
 1852 0018 EB69     		ldr	r3, [r5, #28]
 1853 001a 4345     		cmp	r3, r8
 1854 001c 04DC     		bgt	.L105
 1855              	.LBE78:
 508:../Middlewares/stm32-vision-models-postprocessing/lib_vision_models_pp/Src/od_pp_ssd.c ****           pOutput->pOutBuff[count].conf = best_score ;
 509:../Middlewares/stm32-vision-models-postprocessing/lib_vision_models_pp/Src/od_pp_ssd.c ****           pOutput->pOutBuff[count].x_center = pBoxes[AI_SSD_PP_CENTROID_XCENTER];
 510:../Middlewares/stm32-vision-models-postprocessing/lib_vision_models_pp/Src/od_pp_ssd.c ****           pOutput->pOutBuff[count].y_center = pBoxes[AI_SSD_PP_CENTROID_YCENTER];
ARM GAS  /tmp/ccF7Geq9.s 			page 51


 511:../Middlewares/stm32-vision-models-postprocessing/lib_vision_models_pp/Src/od_pp_ssd.c ****           pOutput->pOutBuff[count].width    = pBoxes[AI_SSD_PP_CENTROID_WIDTHREL];
 512:../Middlewares/stm32-vision-models-postprocessing/lib_vision_models_pp/Src/od_pp_ssd.c ****           pOutput->pOutBuff[count].height   = pBoxes[AI_SSD_PP_CENTROID_HEIGHTREL];
 513:../Middlewares/stm32-vision-models-postprocessing/lib_vision_models_pp/Src/od_pp_ssd.c **** 
 514:../Middlewares/stm32-vision-models-postprocessing/lib_vision_models_pp/Src/od_pp_ssd.c ****           count++;
 515:../Middlewares/stm32-vision-models-postprocessing/lib_vision_models_pp/Src/od_pp_ssd.c ****       }
 516:../Middlewares/stm32-vision-models-postprocessing/lib_vision_models_pp/Src/od_pp_ssd.c ****       pBoxes+=AI_SSD_PP_BOX_STRIDE;
 517:../Middlewares/stm32-vision-models-postprocessing/lib_vision_models_pp/Src/od_pp_ssd.c ****       pScores+=pInput_static_param->nb_classes;
 518:../Middlewares/stm32-vision-models-postprocessing/lib_vision_models_pp/Src/od_pp_ssd.c **** 
 519:../Middlewares/stm32-vision-models-postprocessing/lib_vision_models_pp/Src/od_pp_ssd.c ****     }
 520:../Middlewares/stm32-vision-models-postprocessing/lib_vision_models_pp/Src/od_pp_ssd.c ****     pOutput->nb_detect = count;
 1856              		.loc 1 520 5 view .LVU590
 521:../Middlewares/stm32-vision-models-postprocessing/lib_vision_models_pp/Src/od_pp_ssd.c ****   return (AI_OD_POSTPROCESS_ERROR_NO);
 522:../Middlewares/stm32-vision-models-postprocessing/lib_vision_models_pp/Src/od_pp_ssd.c **** }
 1857              		.loc 1 522 1 is_stmt 0 view .LVU591
 1858 001e 0020     		movs	r0, #0
 520:../Middlewares/stm32-vision-models-postprocessing/lib_vision_models_pp/Src/od_pp_ssd.c ****   return (AI_OD_POSTPROCESS_ERROR_NO);
 1859              		.loc 1 520 24 view .LVU592
 1860 0020 7760     		str	r7, [r6, #4]
 521:../Middlewares/stm32-vision-models-postprocessing/lib_vision_models_pp/Src/od_pp_ssd.c ****   return (AI_OD_POSTPROCESS_ERROR_NO);
 1861              		.loc 1 521 3 is_stmt 1 view .LVU593
 1862              		.loc 1 522 1 is_stmt 0 view .LVU594
 1863 0022 02B0     		add	sp, sp, #8
 1864              		.cfi_remember_state
 1865              		.cfi_def_cfa_offset 32
 1866              		@ sp needed
 1867 0024 BDE8F087 		pop	{r4, r5, r6, r7, r8, r9, r10, pc}
 1868              	.LVL143:
 1869              	.L105:
 1870              		.cfi_restore_state
 1871              	.LBB79:
 1872              	.LBB76:
 498:../Middlewares/stm32-vision-models-postprocessing/lib_vision_models_pp/Src/od_pp_ssd.c ****       float32_t best_score;
 1873              		.loc 1 498 7 is_stmt 1 view .LVU595
 499:../Middlewares/stm32-vision-models-postprocessing/lib_vision_models_pp/Src/od_pp_ssd.c ****       vision_models_maxi_if32ou32(pScores + 1,
 1874              		.loc 1 499 7 view .LVU596
 500:../Middlewares/stm32-vision-models-postprocessing/lib_vision_models_pp/Src/od_pp_ssd.c ****                                   pInput_static_param->nb_classes-1,
 1875              		.loc 1 500 7 view .LVU597
 501:../Middlewares/stm32-vision-models-postprocessing/lib_vision_models_pp/Src/od_pp_ssd.c ****                                   &best_score,
 1876              		.loc 1 501 66 is_stmt 0 view .LVU598
 1877 0028 2968     		ldr	r1, [r5]
 500:../Middlewares/stm32-vision-models-postprocessing/lib_vision_models_pp/Src/od_pp_ssd.c ****                                   pInput_static_param->nb_classes-1,
 1878              		.loc 1 500 7 view .LVU599
 1879 002a 6B46     		mov	r3, sp
 1880 002c 01AA     		add	r2, sp, #4
 1881 002e 0139     		subs	r1, r1, #1
 1882 0030 09F10400 		add	r0, r9, #4
 1883 0034 FFF7FEFF 		bl	vision_models_maxi_if32ou32
 1884              	.LVL144:
 505:../Middlewares/stm32-vision-models-postprocessing/lib_vision_models_pp/Src/od_pp_ssd.c ****       {
 1885              		.loc 1 505 7 is_stmt 1 view .LVU600
 505:../Middlewares/stm32-vision-models-postprocessing/lib_vision_models_pp/Src/od_pp_ssd.c ****       {
 1886              		.loc 1 505 22 is_stmt 0 view .LVU601
 1887 0038 DDED017A 		vldr.32	s15, [sp, #4]
 505:../Middlewares/stm32-vision-models-postprocessing/lib_vision_models_pp/Src/od_pp_ssd.c ****       {
 1888              		.loc 1 505 10 view .LVU602
 1889 003c 95ED057A 		vldr.32	s14, [r5, #20]
 1890 0040 B4EEE77A 		vcmpe.f32	s14, s15
ARM GAS  /tmp/ccF7Geq9.s 			page 52


 1891 0044 F1EE10FA 		vmrs	APSR_nzcv, FPSCR
 1892 0048 14D8     		bhi	.L103
 507:../Middlewares/stm32-vision-models-postprocessing/lib_vision_models_pp/Src/od_pp_ssd.c ****           pOutput->pOutBuff[count].conf = best_score ;
 1893              		.loc 1 507 11 is_stmt 1 view .LVU603
 507:../Middlewares/stm32-vision-models-postprocessing/lib_vision_models_pp/Src/od_pp_ssd.c ****           pOutput->pOutBuff[count].conf = best_score ;
 1894              		.loc 1 507 28 is_stmt 0 view .LVU604
 1895 004a 3368     		ldr	r3, [r6]
 507:../Middlewares/stm32-vision-models-postprocessing/lib_vision_models_pp/Src/od_pp_ssd.c ****           pOutput->pOutBuff[count].conf = best_score ;
 1896              		.loc 1 507 62 view .LVU605
 1897 004c 009A     		ldr	r2, [sp]
 507:../Middlewares/stm32-vision-models-postprocessing/lib_vision_models_pp/Src/od_pp_ssd.c ****           pOutput->pOutBuff[count].conf = best_score ;
 1898              		.loc 1 507 28 view .LVU606
 1899 004e 0AFB0733 		mla	r3, r10, r7, r3
 508:../Middlewares/stm32-vision-models-postprocessing/lib_vision_models_pp/Src/od_pp_ssd.c ****           pOutput->pOutBuff[count].x_center = pBoxes[AI_SSD_PP_CENTROID_XCENTER];
 1900              		.loc 1 508 41 view .LVU607
 1901 0052 C3ED047A 		vstr.32	s15, [r3, #16]
 507:../Middlewares/stm32-vision-models-postprocessing/lib_vision_models_pp/Src/od_pp_ssd.c ****           pOutput->pOutBuff[count].conf = best_score ;
 1902              		.loc 1 507 62 view .LVU608
 1903 0056 0132     		adds	r2, r2, #1
 507:../Middlewares/stm32-vision-models-postprocessing/lib_vision_models_pp/Src/od_pp_ssd.c ****           pOutput->pOutBuff[count].conf = best_score ;
 1904              		.loc 1 507 48 view .LVU609
 1905 0058 5A61     		str	r2, [r3, #20]
 508:../Middlewares/stm32-vision-models-postprocessing/lib_vision_models_pp/Src/od_pp_ssd.c ****           pOutput->pOutBuff[count].x_center = pBoxes[AI_SSD_PP_CENTROID_XCENTER];
 1906              		.loc 1 508 11 is_stmt 1 view .LVU610
 509:../Middlewares/stm32-vision-models-postprocessing/lib_vision_models_pp/Src/od_pp_ssd.c ****           pOutput->pOutBuff[count].y_center = pBoxes[AI_SSD_PP_CENTROID_YCENTER];
 1907              		.loc 1 509 11 view .LVU611
 509:../Middlewares/stm32-vision-models-postprocessing/lib_vision_models_pp/Src/od_pp_ssd.c ****           pOutput->pOutBuff[count].y_center = pBoxes[AI_SSD_PP_CENTROID_YCENTER];
 1908              		.loc 1 509 53 is_stmt 0 view .LVU612
 1909 005a 54F8102C 		ldr	r2, [r4, #-16]	@ float
 514:../Middlewares/stm32-vision-models-postprocessing/lib_vision_models_pp/Src/od_pp_ssd.c ****       }
 1910              		.loc 1 514 16 view .LVU613
 1911 005e 0137     		adds	r7, r7, #1
 1912              	.LVL145:
 509:../Middlewares/stm32-vision-models-postprocessing/lib_vision_models_pp/Src/od_pp_ssd.c ****           pOutput->pOutBuff[count].y_center = pBoxes[AI_SSD_PP_CENTROID_YCENTER];
 1913              		.loc 1 509 45 view .LVU614
 1914 0060 1A60     		str	r2, [r3]	@ float
 510:../Middlewares/stm32-vision-models-postprocessing/lib_vision_models_pp/Src/od_pp_ssd.c ****           pOutput->pOutBuff[count].width    = pBoxes[AI_SSD_PP_CENTROID_WIDTHREL];
 1915              		.loc 1 510 11 is_stmt 1 view .LVU615
 510:../Middlewares/stm32-vision-models-postprocessing/lib_vision_models_pp/Src/od_pp_ssd.c ****           pOutput->pOutBuff[count].width    = pBoxes[AI_SSD_PP_CENTROID_WIDTHREL];
 1916              		.loc 1 510 45 is_stmt 0 view .LVU616
 1917 0062 54F80C2C 		ldr	r2, [r4, #-12]	@ float
 1918 0066 5A60     		str	r2, [r3, #4]	@ float
 511:../Middlewares/stm32-vision-models-postprocessing/lib_vision_models_pp/Src/od_pp_ssd.c ****           pOutput->pOutBuff[count].height   = pBoxes[AI_SSD_PP_CENTROID_HEIGHTREL];
 1919              		.loc 1 511 11 is_stmt 1 view .LVU617
 511:../Middlewares/stm32-vision-models-postprocessing/lib_vision_models_pp/Src/od_pp_ssd.c ****           pOutput->pOutBuff[count].height   = pBoxes[AI_SSD_PP_CENTROID_HEIGHTREL];
 1920              		.loc 1 511 45 is_stmt 0 view .LVU618
 1921 0068 54F8082C 		ldr	r2, [r4, #-8]	@ float
 1922 006c 9A60     		str	r2, [r3, #8]	@ float
 512:../Middlewares/stm32-vision-models-postprocessing/lib_vision_models_pp/Src/od_pp_ssd.c **** 
 1923              		.loc 1 512 11 is_stmt 1 view .LVU619
 512:../Middlewares/stm32-vision-models-postprocessing/lib_vision_models_pp/Src/od_pp_ssd.c **** 
 1924              		.loc 1 512 45 is_stmt 0 view .LVU620
 1925 006e 54F8042C 		ldr	r2, [r4, #-4]	@ float
 1926 0072 DA60     		str	r2, [r3, #12]	@ float
 514:../Middlewares/stm32-vision-models-postprocessing/lib_vision_models_pp/Src/od_pp_ssd.c ****       }
 1927              		.loc 1 514 11 is_stmt 1 view .LVU621
 1928              	.LVL146:
ARM GAS  /tmp/ccF7Geq9.s 			page 53


 1929              	.L103:
 516:../Middlewares/stm32-vision-models-postprocessing/lib_vision_models_pp/Src/od_pp_ssd.c ****       pScores+=pInput_static_param->nb_classes;
 1930              		.loc 1 516 7 view .LVU622
 517:../Middlewares/stm32-vision-models-postprocessing/lib_vision_models_pp/Src/od_pp_ssd.c **** 
 1931              		.loc 1 517 7 view .LVU623
 517:../Middlewares/stm32-vision-models-postprocessing/lib_vision_models_pp/Src/od_pp_ssd.c **** 
 1932              		.loc 1 517 14 is_stmt 0 view .LVU624
 1933 0074 2B68     		ldr	r3, [r5]
 1934              	.LBE76:
 496:../Middlewares/stm32-vision-models-postprocessing/lib_vision_models_pp/Src/od_pp_ssd.c ****     {
 1935              		.loc 1 496 62 discriminator 2 view .LVU625
 1936 0076 08F10108 		add	r8, r8, #1
 1937              	.LVL147:
 1938              	.LBB77:
 517:../Middlewares/stm32-vision-models-postprocessing/lib_vision_models_pp/Src/od_pp_ssd.c **** 
 1939              		.loc 1 517 14 view .LVU626
 1940 007a 09EB8309 		add	r9, r9, r3, lsl #2
 1941              	.LVL148:
 517:../Middlewares/stm32-vision-models-postprocessing/lib_vision_models_pp/Src/od_pp_ssd.c **** 
 1942              		.loc 1 517 14 view .LVU627
 1943              	.LBE77:
 496:../Middlewares/stm32-vision-models-postprocessing/lib_vision_models_pp/Src/od_pp_ssd.c ****     {
 1944              		.loc 1 496 62 is_stmt 1 discriminator 2 view .LVU628
 496:../Middlewares/stm32-vision-models-postprocessing/lib_vision_models_pp/Src/od_pp_ssd.c ****     {
 1945              		.loc 1 496 62 is_stmt 0 discriminator 2 view .LVU629
 1946 007e 1034     		adds	r4, r4, #16
 1947              	.LVL149:
 496:../Middlewares/stm32-vision-models-postprocessing/lib_vision_models_pp/Src/od_pp_ssd.c ****     {
 1948              		.loc 1 496 62 discriminator 2 view .LVU630
 1949 0080 CAE7     		b	.L102
 1950              	.LBE79:
 1951              		.cfi_endproc
 1952              	.LFE782:
 1954              		.section	.text.ssd_pp_score_filtering_scratchBuffer,"ax",%progbits
 1955              		.align	1
 1956              		.global	ssd_pp_score_filtering_scratchBuffer
 1957              		.syntax unified
 1958              		.thumb
 1959              		.thumb_func
 1961              	ssd_pp_score_filtering_scratchBuffer:
 1962              	.LVL150:
 1963              	.LFB783:
 523:../Middlewares/stm32-vision-models-postprocessing/lib_vision_models_pp/Src/od_pp_ssd.c **** 
 524:../Middlewares/stm32-vision-models-postprocessing/lib_vision_models_pp/Src/od_pp_ssd.c **** int32_t ssd_pp_score_filtering_scratchBuffer(od_pp_outBuffer_t *pScratch,
 525:../Middlewares/stm32-vision-models-postprocessing/lib_vision_models_pp/Src/od_pp_ssd.c ****                                od_pp_out_t *pOutput,
 526:../Middlewares/stm32-vision-models-postprocessing/lib_vision_models_pp/Src/od_pp_ssd.c ****                                od_ssd_pp_static_param_t *pInput_static_param)
 527:../Middlewares/stm32-vision-models-postprocessing/lib_vision_models_pp/Src/od_pp_ssd.c **** {
 1964              		.loc 1 527 1 is_stmt 1 view -0
 1965              		.cfi_startproc
 1966              		@ args = 0, pretend = 0, frame = 0
 1967              		@ frame_needed = 0, uses_anonymous_args = 0
 528:../Middlewares/stm32-vision-models-postprocessing/lib_vision_models_pp/Src/od_pp_ssd.c **** 
 529:../Middlewares/stm32-vision-models-postprocessing/lib_vision_models_pp/Src/od_pp_ssd.c ****   int32_t count = 0;
 1968              		.loc 1 529 3 view .LVU632
 530:../Middlewares/stm32-vision-models-postprocessing/lib_vision_models_pp/Src/od_pp_ssd.c ****   od_pp_outBuffer_t *pOutBuff = pOutput->pOutBuff;
 1969              		.loc 1 530 3 view .LVU633
 1970              	.LBB80:
ARM GAS  /tmp/ccF7Geq9.s 			page 54


 531:../Middlewares/stm32-vision-models-postprocessing/lib_vision_models_pp/Src/od_pp_ssd.c ****   for (int32_t i = 0; i < pInput_static_param->nb_detect; i++)
 1971              		.loc 1 531 16 is_stmt 0 view .LVU634
 1972 0000 0023     		movs	r3, #0
 1973              	.LBE80:
 527:../Middlewares/stm32-vision-models-postprocessing/lib_vision_models_pp/Src/od_pp_ssd.c **** 
 1974              		.loc 1 527 1 view .LVU635
 1975 0002 F0B5     		push	{r4, r5, r6, r7, lr}
 1976              		.cfi_def_cfa_offset 20
 1977              		.cfi_offset 4, -20
 1978              		.cfi_offset 5, -16
 1979              		.cfi_offset 6, -12
 1980              		.cfi_offset 7, -8
 1981              		.cfi_offset 14, -4
 529:../Middlewares/stm32-vision-models-postprocessing/lib_vision_models_pp/Src/od_pp_ssd.c ****   od_pp_outBuffer_t *pOutBuff = pOutput->pOutBuff;
 1982              		.loc 1 529 11 view .LVU636
 1983 0004 1C46     		mov	r4, r3
 530:../Middlewares/stm32-vision-models-postprocessing/lib_vision_models_pp/Src/od_pp_ssd.c ****   for (int32_t i = 0; i < pInput_static_param->nb_detect; i++)
 1984              		.loc 1 530 22 view .LVU637
 1985 0006 0D68     		ldr	r5, [r1]
 1986              	.LVL151:
 1987              		.loc 1 531 3 is_stmt 1 view .LVU638
 1988              	.LBB81:
 1989              		.loc 1 531 8 view .LVU639
 1990              	.L108:
 1991              		.loc 1 531 25 discriminator 1 view .LVU640
 1992 0008 D669     		ldr	r6, [r2, #28]
 1993 000a 9E42     		cmp	r6, r3
 1994 000c 02DC     		bgt	.L111
 1995              		.loc 1 531 25 is_stmt 0 discriminator 1 view .LVU641
 1996              	.LBE81:
 532:../Middlewares/stm32-vision-models-postprocessing/lib_vision_models_pp/Src/od_pp_ssd.c ****   {
 533:../Middlewares/stm32-vision-models-postprocessing/lib_vision_models_pp/Src/od_pp_ssd.c ****     if (pScratch->conf != 0.0)
 534:../Middlewares/stm32-vision-models-postprocessing/lib_vision_models_pp/Src/od_pp_ssd.c ****     {
 535:../Middlewares/stm32-vision-models-postprocessing/lib_vision_models_pp/Src/od_pp_ssd.c ****       memcpy(pOutBuff, pScratch, sizeof(od_pp_outBuffer_t));
 536:../Middlewares/stm32-vision-models-postprocessing/lib_vision_models_pp/Src/od_pp_ssd.c ****       pOutBuff++;
 537:../Middlewares/stm32-vision-models-postprocessing/lib_vision_models_pp/Src/od_pp_ssd.c ****       count++;
 538:../Middlewares/stm32-vision-models-postprocessing/lib_vision_models_pp/Src/od_pp_ssd.c ****     }
 539:../Middlewares/stm32-vision-models-postprocessing/lib_vision_models_pp/Src/od_pp_ssd.c ****     pScratch++;
 540:../Middlewares/stm32-vision-models-postprocessing/lib_vision_models_pp/Src/od_pp_ssd.c ****   }
 541:../Middlewares/stm32-vision-models-postprocessing/lib_vision_models_pp/Src/od_pp_ssd.c **** 
 542:../Middlewares/stm32-vision-models-postprocessing/lib_vision_models_pp/Src/od_pp_ssd.c ****   pOutput->nb_detect = count;
 1997              		.loc 1 542 3 is_stmt 1 view .LVU642
 543:../Middlewares/stm32-vision-models-postprocessing/lib_vision_models_pp/Src/od_pp_ssd.c ****   return (AI_OD_POSTPROCESS_ERROR_NO);
 544:../Middlewares/stm32-vision-models-postprocessing/lib_vision_models_pp/Src/od_pp_ssd.c **** }
 1998              		.loc 1 544 1 is_stmt 0 view .LVU643
 1999 000e 0020     		movs	r0, #0
 2000              	.LVL152:
 542:../Middlewares/stm32-vision-models-postprocessing/lib_vision_models_pp/Src/od_pp_ssd.c ****   return (AI_OD_POSTPROCESS_ERROR_NO);
 2001              		.loc 1 542 22 view .LVU644
 2002 0010 4C60     		str	r4, [r1, #4]
 543:../Middlewares/stm32-vision-models-postprocessing/lib_vision_models_pp/Src/od_pp_ssd.c ****   return (AI_OD_POSTPROCESS_ERROR_NO);
 2003              		.loc 1 543 3 is_stmt 1 view .LVU645
 2004              		.loc 1 544 1 is_stmt 0 view .LVU646
 2005 0012 F0BD     		pop	{r4, r5, r6, r7, pc}
 2006              	.LVL153:
 2007              	.L111:
 2008              	.LBB82:
ARM GAS  /tmp/ccF7Geq9.s 			page 55


 533:../Middlewares/stm32-vision-models-postprocessing/lib_vision_models_pp/Src/od_pp_ssd.c ****     {
 2009              		.loc 1 533 5 is_stmt 1 view .LVU647
 533:../Middlewares/stm32-vision-models-postprocessing/lib_vision_models_pp/Src/od_pp_ssd.c ****     {
 2010              		.loc 1 533 8 is_stmt 0 view .LVU648
 2011 0014 D0ED047A 		vldr.32	s15, [r0, #16]
 2012 0018 F5EE407A 		vcmp.f32	s15, #0
 2013 001c F1EE10FA 		vmrs	APSR_nzcv, FPSCR
 2014 0020 00F11807 		add	r7, r0, #24
 2015 0024 0CD0     		beq	.L109
 535:../Middlewares/stm32-vision-models-postprocessing/lib_vision_models_pp/Src/od_pp_ssd.c ****       pOutBuff++;
 2016              		.loc 1 535 7 is_stmt 1 view .LVU649
 2017 0026 4FF0060E 		mov	lr, #6
 2018 002a 2E46     		mov	r6, r5
 2019 002c 4EF001E0 		dls	lr, lr
 2020              	.LVL154:
 2021              	.L110:
 535:../Middlewares/stm32-vision-models-postprocessing/lib_vision_models_pp/Src/od_pp_ssd.c ****       pOutBuff++;
 2022              		.loc 1 535 7 is_stmt 0 view .LVU650
 2023 0030 50F804CB 		ldr	ip, [r0], #4	@ unaligned
 2024 0034 46F804CB 		str	ip, [r6], #4	@ unaligned
 2025 0038 0FF007C0 		le	lr, .L110
 536:../Middlewares/stm32-vision-models-postprocessing/lib_vision_models_pp/Src/od_pp_ssd.c ****       count++;
 2026              		.loc 1 536 7 is_stmt 1 view .LVU651
 536:../Middlewares/stm32-vision-models-postprocessing/lib_vision_models_pp/Src/od_pp_ssd.c ****       count++;
 2027              		.loc 1 536 15 is_stmt 0 view .LVU652
 2028 003c 1835     		adds	r5, r5, #24
 2029              	.LVL155:
 537:../Middlewares/stm32-vision-models-postprocessing/lib_vision_models_pp/Src/od_pp_ssd.c ****     }
 2030              		.loc 1 537 7 is_stmt 1 view .LVU653
 537:../Middlewares/stm32-vision-models-postprocessing/lib_vision_models_pp/Src/od_pp_ssd.c ****     }
 2031              		.loc 1 537 12 is_stmt 0 view .LVU654
 2032 003e 0134     		adds	r4, r4, #1
 2033              	.LVL156:
 2034              	.L109:
 539:../Middlewares/stm32-vision-models-postprocessing/lib_vision_models_pp/Src/od_pp_ssd.c ****   }
 2035              		.loc 1 539 5 is_stmt 1 view .LVU655
 539:../Middlewares/stm32-vision-models-postprocessing/lib_vision_models_pp/Src/od_pp_ssd.c ****   }
 2036              		.loc 1 539 13 is_stmt 0 view .LVU656
 2037 0040 3846     		mov	r0, r7
 2038              	.LVL157:
 531:../Middlewares/stm32-vision-models-postprocessing/lib_vision_models_pp/Src/od_pp_ssd.c ****   {
 2039              		.loc 1 531 60 is_stmt 1 discriminator 2 view .LVU657
 2040 0042 0133     		adds	r3, r3, #1
 2041              	.LVL158:
 531:../Middlewares/stm32-vision-models-postprocessing/lib_vision_models_pp/Src/od_pp_ssd.c ****   {
 2042              		.loc 1 531 60 is_stmt 0 discriminator 2 view .LVU658
 2043 0044 E0E7     		b	.L108
 2044              	.LBE82:
 2045              		.cfi_endproc
 2046              	.LFE783:
 2048              		.section	.text.od_ssd_pp_reset,"ax",%progbits
 2049              		.align	1
 2050              		.global	od_ssd_pp_reset
 2051              		.syntax unified
 2052              		.thumb
 2053              		.thumb_func
 2055              	od_ssd_pp_reset:
ARM GAS  /tmp/ccF7Geq9.s 			page 56


 2056              	.LVL159:
 2057              	.LFB784:
 545:../Middlewares/stm32-vision-models-postprocessing/lib_vision_models_pp/Src/od_pp_ssd.c **** 
 546:../Middlewares/stm32-vision-models-postprocessing/lib_vision_models_pp/Src/od_pp_ssd.c **** /* ----------------------       Exported routines      ---------------------- */
 547:../Middlewares/stm32-vision-models-postprocessing/lib_vision_models_pp/Src/od_pp_ssd.c **** 
 548:../Middlewares/stm32-vision-models-postprocessing/lib_vision_models_pp/Src/od_pp_ssd.c **** int32_t od_ssd_pp_reset(od_ssd_pp_static_param_t *pInput_static_param)
 549:../Middlewares/stm32-vision-models-postprocessing/lib_vision_models_pp/Src/od_pp_ssd.c **** {
 2058              		.loc 1 549 1 is_stmt 1 view -0
 2059              		.cfi_startproc
 2060              		@ args = 0, pretend = 0, frame = 0
 2061              		@ frame_needed = 0, uses_anonymous_args = 0
 2062              		@ link register save eliminated.
 550:../Middlewares/stm32-vision-models-postprocessing/lib_vision_models_pp/Src/od_pp_ssd.c ****     /* Initializations */
 551:../Middlewares/stm32-vision-models-postprocessing/lib_vision_models_pp/Src/od_pp_ssd.c ****     pInput_static_param->nb_detect = 0;
 2063              		.loc 1 551 5 view .LVU660
 549:../Middlewares/stm32-vision-models-postprocessing/lib_vision_models_pp/Src/od_pp_ssd.c ****     /* Initializations */
 2064              		.loc 1 549 1 is_stmt 0 view .LVU661
 2065 0000 0346     		mov	r3, r0
 2066              		.loc 1 551 36 view .LVU662
 2067 0002 0020     		movs	r0, #0
 2068              	.LVL160:
 2069              		.loc 1 551 36 view .LVU663
 2070 0004 D861     		str	r0, [r3, #28]
 552:../Middlewares/stm32-vision-models-postprocessing/lib_vision_models_pp/Src/od_pp_ssd.c **** 
 553:../Middlewares/stm32-vision-models-postprocessing/lib_vision_models_pp/Src/od_pp_ssd.c ****     return (AI_OD_POSTPROCESS_ERROR_NO);
 2071              		.loc 1 553 5 is_stmt 1 view .LVU664
 554:../Middlewares/stm32-vision-models-postprocessing/lib_vision_models_pp/Src/od_pp_ssd.c **** }
 2072              		.loc 1 554 1 is_stmt 0 view .LVU665
 2073 0006 7047     		bx	lr
 2074              		.cfi_endproc
 2075              	.LFE784:
 2077              		.section	.text.od_ssd_pp_process,"ax",%progbits
 2078              		.align	1
 2079              		.global	od_ssd_pp_process
 2080              		.syntax unified
 2081              		.thumb
 2082              		.thumb_func
 2084              	od_ssd_pp_process:
 2085              	.LVL161:
 2086              	.LFB785:
 555:../Middlewares/stm32-vision-models-postprocessing/lib_vision_models_pp/Src/od_pp_ssd.c **** 
 556:../Middlewares/stm32-vision-models-postprocessing/lib_vision_models_pp/Src/od_pp_ssd.c **** 
 557:../Middlewares/stm32-vision-models-postprocessing/lib_vision_models_pp/Src/od_pp_ssd.c **** int32_t od_ssd_pp_process(od_ssd_pp_in_centroid_t *pInput,
 558:../Middlewares/stm32-vision-models-postprocessing/lib_vision_models_pp/Src/od_pp_ssd.c ****                           od_pp_out_t *pOutput,
 559:../Middlewares/stm32-vision-models-postprocessing/lib_vision_models_pp/Src/od_pp_ssd.c ****                           od_ssd_pp_static_param_t *pInput_static_param)
 560:../Middlewares/stm32-vision-models-postprocessing/lib_vision_models_pp/Src/od_pp_ssd.c **** {
 2087              		.loc 1 560 1 is_stmt 1 view -0
 2088              		.cfi_startproc
 2089              		@ args = 0, pretend = 0, frame = 0
 2090              		@ frame_needed = 0, uses_anonymous_args = 0
 561:../Middlewares/stm32-vision-models-postprocessing/lib_vision_models_pp/Src/od_pp_ssd.c ****   int32_t error = AI_OD_POSTPROCESS_ERROR_NO;
 2091              		.loc 1 561 3 view .LVU667
 562:../Middlewares/stm32-vision-models-postprocessing/lib_vision_models_pp/Src/od_pp_ssd.c **** 
 563:../Middlewares/stm32-vision-models-postprocessing/lib_vision_models_pp/Src/od_pp_ssd.c ****   od_pp_outBuffer_t *pScratchBuffer = pInput_static_param->pScratchBuffer;
 2092              		.loc 1 563 3 view .LVU668
 560:../Middlewares/stm32-vision-models-postprocessing/lib_vision_models_pp/Src/od_pp_ssd.c ****   int32_t error = AI_OD_POSTPROCESS_ERROR_NO;
 2093              		.loc 1 560 1 is_stmt 0 view .LVU669
ARM GAS  /tmp/ccF7Geq9.s 			page 57


 2094 0000 F8B5     		push	{r3, r4, r5, r6, r7, lr}
 2095              		.cfi_def_cfa_offset 24
 2096              		.cfi_offset 3, -24
 2097              		.cfi_offset 4, -20
 2098              		.cfi_offset 5, -16
 2099              		.cfi_offset 6, -12
 2100              		.cfi_offset 7, -8
 2101              		.cfi_offset 14, -4
 2102              		.loc 1 563 22 view .LVU670
 2103 0002 576A     		ldr	r7, [r2, #36]
 2104              	.LVL162:
 564:../Middlewares/stm32-vision-models-postprocessing/lib_vision_models_pp/Src/od_pp_ssd.c ****   /* if no scratch buffer is specified and space enough in score array, use it as scratch buffer */
 565:../Middlewares/stm32-vision-models-postprocessing/lib_vision_models_pp/Src/od_pp_ssd.c ****   if (   (pScratchBuffer == NULL)
 2105              		.loc 1 565 3 is_stmt 1 view .LVU671
 560:../Middlewares/stm32-vision-models-postprocessing/lib_vision_models_pp/Src/od_pp_ssd.c ****   int32_t error = AI_OD_POSTPROCESS_ERROR_NO;
 2106              		.loc 1 560 1 is_stmt 0 view .LVU672
 2107 0004 0546     		mov	r5, r0
 2108 0006 0E46     		mov	r6, r1
 2109 0008 1446     		mov	r4, r2
 2110              		.loc 1 565 6 view .LVU673
 2111 000a 27B9     		cbnz	r7, .L115
 566:../Middlewares/stm32-vision-models-postprocessing/lib_vision_models_pp/Src/od_pp_ssd.c ****       && (pInput_static_param->nb_classes * sizeof(float32_t) >= sizeof(od_pp_outBuffer_t))) {
 2112              		.loc 1 566 43 view .LVU674
 2113 000c 1368     		ldr	r3, [r2]
 2114 000e 9B00     		lsls	r3, r3, #2
 2115              		.loc 1 566 7 view .LVU675
 2116 0010 172B     		cmp	r3, #23
 567:../Middlewares/stm32-vision-models-postprocessing/lib_vision_models_pp/Src/od_pp_ssd.c ****     pScratchBuffer = (od_pp_outBuffer_t *)pInput->pScores;
 2117              		.loc 1 567 5 is_stmt 1 view .LVU676
 2118              		.loc 1 567 20 is_stmt 0 view .LVU677
 2119 0012 88BF     		it	hi
 2120 0014 4768     		ldrhi	r7, [r0, #4]
 2121              	.LVL163:
 2122              	.L115:
 568:../Middlewares/stm32-vision-models-postprocessing/lib_vision_models_pp/Src/od_pp_ssd.c ****   }
 569:../Middlewares/stm32-vision-models-postprocessing/lib_vision_models_pp/Src/od_pp_ssd.c ****   if ( (pOutput->pOutBuff == NULL))
 2123              		.loc 1 569 3 is_stmt 1 view .LVU678
 2124              		.loc 1 569 6 is_stmt 0 view .LVU679
 2125 0016 3368     		ldr	r3, [r6]
 2126 0018 2BB9     		cbnz	r3, .L116
 570:../Middlewares/stm32-vision-models-postprocessing/lib_vision_models_pp/Src/od_pp_ssd.c ****   {
 571:../Middlewares/stm32-vision-models-postprocessing/lib_vision_models_pp/Src/od_pp_ssd.c ****     if (pInput_static_param->nb_classes * sizeof(float32_t) >= sizeof(od_pp_outBuffer_t))
 2127              		.loc 1 571 5 is_stmt 1 view .LVU680
 2128              		.loc 1 571 41 is_stmt 0 view .LVU681
 2129 001a 2368     		ldr	r3, [r4]
 2130 001c 9B00     		lsls	r3, r3, #2
 2131              		.loc 1 571 8 view .LVU682
 2132 001e 172B     		cmp	r3, #23
 2133 0020 20D9     		bls	.L120
 572:../Middlewares/stm32-vision-models-postprocessing/lib_vision_models_pp/Src/od_pp_ssd.c ****     {
 573:../Middlewares/stm32-vision-models-postprocessing/lib_vision_models_pp/Src/od_pp_ssd.c ****       pOutput->pOutBuff = (od_pp_outBuffer_t *)pInput->pScores;
 2134              		.loc 1 573 7 is_stmt 1 view .LVU683
 2135              		.loc 1 573 25 is_stmt 0 view .LVU684
 2136 0022 6B68     		ldr	r3, [r5, #4]
 2137 0024 3360     		str	r3, [r6]
 2138              	.L116:
 574:../Middlewares/stm32-vision-models-postprocessing/lib_vision_models_pp/Src/od_pp_ssd.c ****     }
ARM GAS  /tmp/ccF7Geq9.s 			page 58


 575:../Middlewares/stm32-vision-models-postprocessing/lib_vision_models_pp/Src/od_pp_ssd.c ****     else
 576:../Middlewares/stm32-vision-models-postprocessing/lib_vision_models_pp/Src/od_pp_ssd.c ****     {
 577:../Middlewares/stm32-vision-models-postprocessing/lib_vision_models_pp/Src/od_pp_ssd.c ****       return AI_OD_POSTPROCESS_ERROR;
 578:../Middlewares/stm32-vision-models-postprocessing/lib_vision_models_pp/Src/od_pp_ssd.c ****     }
 579:../Middlewares/stm32-vision-models-postprocessing/lib_vision_models_pp/Src/od_pp_ssd.c ****   }
 580:../Middlewares/stm32-vision-models-postprocessing/lib_vision_models_pp/Src/od_pp_ssd.c **** 
 581:../Middlewares/stm32-vision-models-postprocessing/lib_vision_models_pp/Src/od_pp_ssd.c ****   if (pScratchBuffer)
 2139              		.loc 1 581 3 is_stmt 1 view .LVU685
 2140              		.loc 1 581 6 is_stmt 0 view .LVU686
 2141 0026 7FB1     		cbz	r7, .L118
 582:../Middlewares/stm32-vision-models-postprocessing/lib_vision_models_pp/Src/od_pp_ssd.c ****   {
 583:../Middlewares/stm32-vision-models-postprocessing/lib_vision_models_pp/Src/od_pp_ssd.c ****     /* Calls Get NN boxes first */
 584:../Middlewares/stm32-vision-models-postprocessing/lib_vision_models_pp/Src/od_pp_ssd.c ****     error = ssd_pp_getNNBoxes_scratchBuffer(pInput,
 2142              		.loc 1 584 5 is_stmt 1 view .LVU687
 2143              		.loc 1 584 13 is_stmt 0 view .LVU688
 2144 0028 2246     		mov	r2, r4
 2145              	.LVL164:
 2146              		.loc 1 584 13 view .LVU689
 2147 002a 3946     		mov	r1, r7
 2148              	.LVL165:
 2149              		.loc 1 584 13 view .LVU690
 2150 002c 2846     		mov	r0, r5
 2151              	.LVL166:
 2152              		.loc 1 584 13 view .LVU691
 2153 002e FFF7FEFF 		bl	ssd_pp_getNNBoxes_scratchBuffer
 2154              	.LVL167:
 585:../Middlewares/stm32-vision-models-postprocessing/lib_vision_models_pp/Src/od_pp_ssd.c ****                                             pScratchBuffer,
 586:../Middlewares/stm32-vision-models-postprocessing/lib_vision_models_pp/Src/od_pp_ssd.c ****                                             pInput_static_param);
 587:../Middlewares/stm32-vision-models-postprocessing/lib_vision_models_pp/Src/od_pp_ssd.c ****     if (error != AI_OD_POSTPROCESS_ERROR_NO) return (error);
 2155              		.loc 1 587 5 is_stmt 1 view .LVU692
 588:../Middlewares/stm32-vision-models-postprocessing/lib_vision_models_pp/Src/od_pp_ssd.c **** 
 589:../Middlewares/stm32-vision-models-postprocessing/lib_vision_models_pp/Src/od_pp_ssd.c ****     /* Then NMS */
 590:../Middlewares/stm32-vision-models-postprocessing/lib_vision_models_pp/Src/od_pp_ssd.c ****     error = ssd_pp_nms_filtering_scratchBuffer(pScratchBuffer,
 2156              		.loc 1 590 5 view .LVU693
 2157              		.loc 1 590 13 is_stmt 0 view .LVU694
 2158 0032 2146     		mov	r1, r4
 2159 0034 3846     		mov	r0, r7
 2160 0036 FFF7FEFF 		bl	ssd_pp_nms_filtering_scratchBuffer
 2161              	.LVL168:
 591:../Middlewares/stm32-vision-models-postprocessing/lib_vision_models_pp/Src/od_pp_ssd.c ****                                                pInput_static_param);
 592:../Middlewares/stm32-vision-models-postprocessing/lib_vision_models_pp/Src/od_pp_ssd.c ****     if (error != AI_OD_POSTPROCESS_ERROR_NO) return (error);
 2162              		.loc 1 592 5 is_stmt 1 view .LVU695
 593:../Middlewares/stm32-vision-models-postprocessing/lib_vision_models_pp/Src/od_pp_ssd.c **** 
 594:../Middlewares/stm32-vision-models-postprocessing/lib_vision_models_pp/Src/od_pp_ssd.c ****     /* And score re-filtering */
 595:../Middlewares/stm32-vision-models-postprocessing/lib_vision_models_pp/Src/od_pp_ssd.c ****     error = ssd_pp_score_filtering_scratchBuffer(pScratchBuffer,
 2163              		.loc 1 595 5 view .LVU696
 2164              		.loc 1 595 13 is_stmt 0 view .LVU697
 2165 003a 2246     		mov	r2, r4
 2166 003c 3146     		mov	r1, r6
 2167 003e 3846     		mov	r0, r7
 2168 0040 FFF7FEFF 		bl	ssd_pp_score_filtering_scratchBuffer
 2169              	.LVL169:
 2170              	.L119:
 596:../Middlewares/stm32-vision-models-postprocessing/lib_vision_models_pp/Src/od_pp_ssd.c ****                                                  pOutput,
 597:../Middlewares/stm32-vision-models-postprocessing/lib_vision_models_pp/Src/od_pp_ssd.c ****                                                  pInput_static_param);
 598:../Middlewares/stm32-vision-models-postprocessing/lib_vision_models_pp/Src/od_pp_ssd.c **** 
 599:../Middlewares/stm32-vision-models-postprocessing/lib_vision_models_pp/Src/od_pp_ssd.c ****   }
ARM GAS  /tmp/ccF7Geq9.s 			page 59


 600:../Middlewares/stm32-vision-models-postprocessing/lib_vision_models_pp/Src/od_pp_ssd.c ****   else
 601:../Middlewares/stm32-vision-models-postprocessing/lib_vision_models_pp/Src/od_pp_ssd.c ****   {
 602:../Middlewares/stm32-vision-models-postprocessing/lib_vision_models_pp/Src/od_pp_ssd.c **** 
 603:../Middlewares/stm32-vision-models-postprocessing/lib_vision_models_pp/Src/od_pp_ssd.c ****   /* Calls Get NN boxes first */
 604:../Middlewares/stm32-vision-models-postprocessing/lib_vision_models_pp/Src/od_pp_ssd.c ****   error = ssd_pp_getNNBoxes_in_place(pInput,
 605:../Middlewares/stm32-vision-models-postprocessing/lib_vision_models_pp/Src/od_pp_ssd.c ****                                      pInput_static_param);
 606:../Middlewares/stm32-vision-models-postprocessing/lib_vision_models_pp/Src/od_pp_ssd.c ****   if (error != AI_OD_POSTPROCESS_ERROR_NO) return (error);
 607:../Middlewares/stm32-vision-models-postprocessing/lib_vision_models_pp/Src/od_pp_ssd.c **** 
 608:../Middlewares/stm32-vision-models-postprocessing/lib_vision_models_pp/Src/od_pp_ssd.c ****   /* Then NMS */
 609:../Middlewares/stm32-vision-models-postprocessing/lib_vision_models_pp/Src/od_pp_ssd.c ****   error = ssd_pp_nms_filtering(pInput,
 610:../Middlewares/stm32-vision-models-postprocessing/lib_vision_models_pp/Src/od_pp_ssd.c ****                                pInput_static_param);
 611:../Middlewares/stm32-vision-models-postprocessing/lib_vision_models_pp/Src/od_pp_ssd.c ****   if (error != AI_OD_POSTPROCESS_ERROR_NO) return (error);
 612:../Middlewares/stm32-vision-models-postprocessing/lib_vision_models_pp/Src/od_pp_ssd.c **** 
 613:../Middlewares/stm32-vision-models-postprocessing/lib_vision_models_pp/Src/od_pp_ssd.c ****   /* And score re-filtering */
 614:../Middlewares/stm32-vision-models-postprocessing/lib_vision_models_pp/Src/od_pp_ssd.c ****   error = ssd_pp_score_filtering(pInput,
 615:../Middlewares/stm32-vision-models-postprocessing/lib_vision_models_pp/Src/od_pp_ssd.c ****                                  pOutput,
 616:../Middlewares/stm32-vision-models-postprocessing/lib_vision_models_pp/Src/od_pp_ssd.c ****                                  pInput_static_param);
 617:../Middlewares/stm32-vision-models-postprocessing/lib_vision_models_pp/Src/od_pp_ssd.c **** 
 618:../Middlewares/stm32-vision-models-postprocessing/lib_vision_models_pp/Src/od_pp_ssd.c ****   }
 619:../Middlewares/stm32-vision-models-postprocessing/lib_vision_models_pp/Src/od_pp_ssd.c **** 
 620:../Middlewares/stm32-vision-models-postprocessing/lib_vision_models_pp/Src/od_pp_ssd.c ****   return (error);
 2171              		.loc 1 620 10 view .LVU698
 2172 0044 0020     		movs	r0, #0
 2173              	.LVL170:
 2174              	.L114:
 621:../Middlewares/stm32-vision-models-postprocessing/lib_vision_models_pp/Src/od_pp_ssd.c **** }
 2175              		.loc 1 621 1 view .LVU699
 2176 0046 F8BD     		pop	{r3, r4, r5, r6, r7, pc}
 2177              	.LVL171:
 2178              	.L118:
 604:../Middlewares/stm32-vision-models-postprocessing/lib_vision_models_pp/Src/od_pp_ssd.c ****                                      pInput_static_param);
 2179              		.loc 1 604 3 is_stmt 1 view .LVU700
 604:../Middlewares/stm32-vision-models-postprocessing/lib_vision_models_pp/Src/od_pp_ssd.c ****                                      pInput_static_param);
 2180              		.loc 1 604 11 is_stmt 0 view .LVU701
 2181 0048 2146     		mov	r1, r4
 2182              	.LVL172:
 604:../Middlewares/stm32-vision-models-postprocessing/lib_vision_models_pp/Src/od_pp_ssd.c ****                                      pInput_static_param);
 2183              		.loc 1 604 11 view .LVU702
 2184 004a 2846     		mov	r0, r5
 2185              	.LVL173:
 604:../Middlewares/stm32-vision-models-postprocessing/lib_vision_models_pp/Src/od_pp_ssd.c ****                                      pInput_static_param);
 2186              		.loc 1 604 11 view .LVU703
 2187 004c FFF7FEFF 		bl	ssd_pp_getNNBoxes_in_place
 2188              	.LVL174:
 606:../Middlewares/stm32-vision-models-postprocessing/lib_vision_models_pp/Src/od_pp_ssd.c **** 
 2189              		.loc 1 606 3 is_stmt 1 view .LVU704
 609:../Middlewares/stm32-vision-models-postprocessing/lib_vision_models_pp/Src/od_pp_ssd.c ****                                pInput_static_param);
 2190              		.loc 1 609 3 view .LVU705
 609:../Middlewares/stm32-vision-models-postprocessing/lib_vision_models_pp/Src/od_pp_ssd.c ****                                pInput_static_param);
 2191              		.loc 1 609 11 is_stmt 0 view .LVU706
