ARM GAS  /tmp/cc8dX4ay.s 			page 1


   1              		.arch armv8.1-m.main
   2              		.fpu fpv5-d16
   3              		.arch_extension dsp
   4              		.arch_extension fp
   5              		.arch_extension fp.dp
   6              		.arch_extension mve
   7              		.arch_extension mve.fp
   8              		.eabi_attribute 5, "cortex-m55"
   9              		.eabi_attribute 28, 1
  10              		.eabi_attribute 20, 1
  11              		.eabi_attribute 21, 1
  12              		.eabi_attribute 23, 3
  13              		.eabi_attribute 24, 1
  14              		.eabi_attribute 25, 1
  15              		.eabi_attribute 26, 1
  16              		.eabi_attribute 30, 4
  17              		.eabi_attribute 34, 1
  18              		.eabi_attribute 38, 1
  19              		.eabi_attribute 18, 4
  20              		.file	"od_pp_yolov8.c"
  21              		.text
  22              	.Ltext0:
  23              		.cfi_sections	.debug_frame
  24              		.file 1 "../Middlewares/stm32-vision-models-postprocessing/lib_vision_models_pp/Src/od_pp_yolov8.c
  25              		.section	.text.yolov8_nms_comparator,"ax",%progbits
  26              		.align	1
  27              		.global	yolov8_nms_comparator
  28              		.syntax unified
  29              		.thumb
  30              		.thumb_func
  32              	yolov8_nms_comparator:
  33              	.LVL0:
  34              	.LFB774:
   1:../Middlewares/stm32-vision-models-postprocessing/lib_vision_models_pp/Src/od_pp_yolov8.c **** /*---------------------------------------------------------------------------------------------
   2:../Middlewares/stm32-vision-models-postprocessing/lib_vision_models_pp/Src/od_pp_yolov8.c ****  * Copyright (c) 2023 STMicroelectronics.
   3:../Middlewares/stm32-vision-models-postprocessing/lib_vision_models_pp/Src/od_pp_yolov8.c ****  * All rights reserved.
   4:../Middlewares/stm32-vision-models-postprocessing/lib_vision_models_pp/Src/od_pp_yolov8.c ****  *
   5:../Middlewares/stm32-vision-models-postprocessing/lib_vision_models_pp/Src/od_pp_yolov8.c ****  * This software is licensed under terms that can be found in the LICENSE file in
   6:../Middlewares/stm32-vision-models-postprocessing/lib_vision_models_pp/Src/od_pp_yolov8.c ****  * the root directory of this software component.
   7:../Middlewares/stm32-vision-models-postprocessing/lib_vision_models_pp/Src/od_pp_yolov8.c ****  * If no LICENSE file comes with this software, it is provided AS-IS.
   8:../Middlewares/stm32-vision-models-postprocessing/lib_vision_models_pp/Src/od_pp_yolov8.c ****  *--------------------------------------------------------------------------------------------*/
   9:../Middlewares/stm32-vision-models-postprocessing/lib_vision_models_pp/Src/od_pp_yolov8.c **** 
  10:../Middlewares/stm32-vision-models-postprocessing/lib_vision_models_pp/Src/od_pp_yolov8.c **** #include "od_pp_loc.h"
  11:../Middlewares/stm32-vision-models-postprocessing/lib_vision_models_pp/Src/od_pp_yolov8.c **** #include "od_yolov8_pp_if.h"
  12:../Middlewares/stm32-vision-models-postprocessing/lib_vision_models_pp/Src/od_pp_yolov8.c **** #include "vision_models_pp.h"
  13:../Middlewares/stm32-vision-models-postprocessing/lib_vision_models_pp/Src/od_pp_yolov8.c **** 
  14:../Middlewares/stm32-vision-models-postprocessing/lib_vision_models_pp/Src/od_pp_yolov8.c **** 
  15:../Middlewares/stm32-vision-models-postprocessing/lib_vision_models_pp/Src/od_pp_yolov8.c **** /* Can't be removed if qsort is not re-written... */
  16:../Middlewares/stm32-vision-models-postprocessing/lib_vision_models_pp/Src/od_pp_yolov8.c **** static int32_t AI_YOLOV8_PP_SORT_CLASS;
  17:../Middlewares/stm32-vision-models-postprocessing/lib_vision_models_pp/Src/od_pp_yolov8.c **** 
  18:../Middlewares/stm32-vision-models-postprocessing/lib_vision_models_pp/Src/od_pp_yolov8.c **** typedef struct
  19:../Middlewares/stm32-vision-models-postprocessing/lib_vision_models_pp/Src/od_pp_yolov8.c **** {
  20:../Middlewares/stm32-vision-models-postprocessing/lib_vision_models_pp/Src/od_pp_yolov8.c ****   int8_t  x_center;
  21:../Middlewares/stm32-vision-models-postprocessing/lib_vision_models_pp/Src/od_pp_yolov8.c ****   int8_t  y_center;
  22:../Middlewares/stm32-vision-models-postprocessing/lib_vision_models_pp/Src/od_pp_yolov8.c ****   int8_t  width;
  23:../Middlewares/stm32-vision-models-postprocessing/lib_vision_models_pp/Src/od_pp_yolov8.c ****   int8_t  height;
  24:../Middlewares/stm32-vision-models-postprocessing/lib_vision_models_pp/Src/od_pp_yolov8.c ****   int8_t  conf;
ARM GAS  /tmp/cc8dX4ay.s 			page 2


  25:../Middlewares/stm32-vision-models-postprocessing/lib_vision_models_pp/Src/od_pp_yolov8.c ****   uint8_t class_index;
  26:../Middlewares/stm32-vision-models-postprocessing/lib_vision_models_pp/Src/od_pp_yolov8.c **** } od_yolov8_pp_scratch_s8_t;
  27:../Middlewares/stm32-vision-models-postprocessing/lib_vision_models_pp/Src/od_pp_yolov8.c **** 
  28:../Middlewares/stm32-vision-models-postprocessing/lib_vision_models_pp/Src/od_pp_yolov8.c **** int32_t yolov8_nms_comparator(const void *pa, const void *pb)
  29:../Middlewares/stm32-vision-models-postprocessing/lib_vision_models_pp/Src/od_pp_yolov8.c **** {
  35              		.loc 1 29 1 view -0
  36              		.cfi_startproc
  37              		@ args = 0, pretend = 0, frame = 0
  38              		@ frame_needed = 0, uses_anonymous_args = 0
  30:../Middlewares/stm32-vision-models-postprocessing/lib_vision_models_pp/Src/od_pp_yolov8.c ****   od_pp_outBuffer_t a = *(od_pp_outBuffer_t *)pa;
  39              		.loc 1 30 3 view .LVU1
  31:../Middlewares/stm32-vision-models-postprocessing/lib_vision_models_pp/Src/od_pp_yolov8.c ****   od_pp_outBuffer_t b = *(od_pp_outBuffer_t *)pb;
  40              		.loc 1 31 3 view .LVU2
  32:../Middlewares/stm32-vision-models-postprocessing/lib_vision_models_pp/Src/od_pp_yolov8.c **** 
  33:../Middlewares/stm32-vision-models-postprocessing/lib_vision_models_pp/Src/od_pp_yolov8.c ****   float32_t diff = 0.0;
  34:../Middlewares/stm32-vision-models-postprocessing/lib_vision_models_pp/Src/od_pp_yolov8.c ****   float32_t a_weighted_conf = 0.0;
  35:../Middlewares/stm32-vision-models-postprocessing/lib_vision_models_pp/Src/od_pp_yolov8.c ****   float32_t b_weighted_conf = 0.0;
  36:../Middlewares/stm32-vision-models-postprocessing/lib_vision_models_pp/Src/od_pp_yolov8.c **** 
  37:../Middlewares/stm32-vision-models-postprocessing/lib_vision_models_pp/Src/od_pp_yolov8.c ****   if (a.class_index == AI_YOLOV8_PP_SORT_CLASS)
  41              		.loc 1 37 21 is_stmt 0 view .LVU3
  42 0000 0F4B     		ldr	r3, .L8
  29:../Middlewares/stm32-vision-models-postprocessing/lib_vision_models_pp/Src/od_pp_yolov8.c ****   od_pp_outBuffer_t a = *(od_pp_outBuffer_t *)pa;
  43              		.loc 1 29 1 view .LVU4
  44 0002 10B5     		push	{r4, lr}
  45              		.cfi_def_cfa_offset 8
  46              		.cfi_offset 4, -8
  47              		.cfi_offset 14, -4
  48              		.loc 1 37 21 view .LVU5
  49 0004 1B68     		ldr	r3, [r3]
  50              		.loc 1 37 6 view .LVU6
  51 0006 4469     		ldr	r4, [r0, #20]
  31:../Middlewares/stm32-vision-models-postprocessing/lib_vision_models_pp/Src/od_pp_yolov8.c ****   od_pp_outBuffer_t b = *(od_pp_outBuffer_t *)pb;
  52              		.loc 1 31 21 view .LVU7
  53 0008 4A69     		ldr	r2, [r1, #20]
  54              	.LVL1:
  33:../Middlewares/stm32-vision-models-postprocessing/lib_vision_models_pp/Src/od_pp_yolov8.c ****   float32_t a_weighted_conf = 0.0;
  55              		.loc 1 33 3 is_stmt 1 view .LVU8
  34:../Middlewares/stm32-vision-models-postprocessing/lib_vision_models_pp/Src/od_pp_yolov8.c ****   float32_t b_weighted_conf = 0.0;
  56              		.loc 1 34 3 view .LVU9
  35:../Middlewares/stm32-vision-models-postprocessing/lib_vision_models_pp/Src/od_pp_yolov8.c **** 
  57              		.loc 1 35 3 view .LVU10
  58              		.loc 1 37 3 view .LVU11
  59              		.loc 1 37 6 is_stmt 0 view .LVU12
  60 000a A342     		cmp	r3, r4
  30:../Middlewares/stm32-vision-models-postprocessing/lib_vision_models_pp/Src/od_pp_yolov8.c ****   od_pp_outBuffer_t b = *(od_pp_outBuffer_t *)pb;
  61              		.loc 1 30 21 view .LVU13
  62 000c 0CBF     		ite	eq
  63 000e D0ED047A 		vldreq.32	s15, [r0, #16]
  38:../Middlewares/stm32-vision-models-postprocessing/lib_vision_models_pp/Src/od_pp_yolov8.c ****   {
  39:../Middlewares/stm32-vision-models-postprocessing/lib_vision_models_pp/Src/od_pp_yolov8.c ****     a_weighted_conf = a.conf;
  64              		.loc 1 39 5 is_stmt 1 view .LVU14
  65              	.LVL2:
  40:../Middlewares/stm32-vision-models-postprocessing/lib_vision_models_pp/Src/od_pp_yolov8.c ****   }
  41:../Middlewares/stm32-vision-models-postprocessing/lib_vision_models_pp/Src/od_pp_yolov8.c ****   else
  42:../Middlewares/stm32-vision-models-postprocessing/lib_vision_models_pp/Src/od_pp_yolov8.c ****   {
  43:../Middlewares/stm32-vision-models-postprocessing/lib_vision_models_pp/Src/od_pp_yolov8.c ****     a_weighted_conf = 0.0;
  66              		.loc 1 43 21 is_stmt 0 view .LVU15
ARM GAS  /tmp/cc8dX4ay.s 			page 3


  67 0012 DFED0C7A 		vldrne.32	s15, .L8+4
  68              	.LVL3:
  44:../Middlewares/stm32-vision-models-postprocessing/lib_vision_models_pp/Src/od_pp_yolov8.c ****   }
  45:../Middlewares/stm32-vision-models-postprocessing/lib_vision_models_pp/Src/od_pp_yolov8.c **** 
  46:../Middlewares/stm32-vision-models-postprocessing/lib_vision_models_pp/Src/od_pp_yolov8.c ****   if (b.class_index == AI_YOLOV8_PP_SORT_CLASS)
  69              		.loc 1 46 3 is_stmt 1 view .LVU16
  70              		.loc 1 46 6 is_stmt 0 view .LVU17
  71 0016 9342     		cmp	r3, r2
  31:../Middlewares/stm32-vision-models-postprocessing/lib_vision_models_pp/Src/od_pp_yolov8.c **** 
  72              		.loc 1 31 21 view .LVU18
  73 0018 0CBF     		ite	eq
  74 001a 91ED047A 		vldreq.32	s14, [r1, #16]
  47:../Middlewares/stm32-vision-models-postprocessing/lib_vision_models_pp/Src/od_pp_yolov8.c ****   {
  48:../Middlewares/stm32-vision-models-postprocessing/lib_vision_models_pp/Src/od_pp_yolov8.c ****     b_weighted_conf = b.conf;
  75              		.loc 1 48 5 is_stmt 1 view .LVU19
  76              	.LVL4:
  49:../Middlewares/stm32-vision-models-postprocessing/lib_vision_models_pp/Src/od_pp_yolov8.c ****   }
  50:../Middlewares/stm32-vision-models-postprocessing/lib_vision_models_pp/Src/od_pp_yolov8.c ****   else
  51:../Middlewares/stm32-vision-models-postprocessing/lib_vision_models_pp/Src/od_pp_yolov8.c ****   {
  52:../Middlewares/stm32-vision-models-postprocessing/lib_vision_models_pp/Src/od_pp_yolov8.c ****     b_weighted_conf = 0.0;
  77              		.loc 1 52 21 is_stmt 0 view .LVU20
  78 001e 9FED097A 		vldrne.32	s14, .L8+4
  79              	.LVL5:
  53:../Middlewares/stm32-vision-models-postprocessing/lib_vision_models_pp/Src/od_pp_yolov8.c ****   }
  54:../Middlewares/stm32-vision-models-postprocessing/lib_vision_models_pp/Src/od_pp_yolov8.c **** 
  55:../Middlewares/stm32-vision-models-postprocessing/lib_vision_models_pp/Src/od_pp_yolov8.c ****   diff = a_weighted_conf - b_weighted_conf;
  80              		.loc 1 55 3 is_stmt 1 view .LVU21
  81              		.loc 1 55 8 is_stmt 0 view .LVU22
  82 0022 77EEC77A 		vsub.f32	s15, s15, s14
  83              	.LVL6:
  56:../Middlewares/stm32-vision-models-postprocessing/lib_vision_models_pp/Src/od_pp_yolov8.c **** 
  57:../Middlewares/stm32-vision-models-postprocessing/lib_vision_models_pp/Src/od_pp_yolov8.c ****   if (diff < 0) return 1;
  84              		.loc 1 57 3 is_stmt 1 view .LVU23
  85              		.loc 1 57 6 is_stmt 0 view .LVU24
  86 0026 F5EEC07A 		vcmpe.f32	s15, #0
  87 002a F1EE10FA 		vmrs	APSR_nzcv, FPSCR
  88 002e 04D4     		bmi	.L7
  89              	.LVL7:
  58:../Middlewares/stm32-vision-models-postprocessing/lib_vision_models_pp/Src/od_pp_yolov8.c ****   else if (diff > 0) return -1;
  90              		.loc 1 58 8 is_stmt 1 view .LVU25
  91              		.loc 1 58 11 is_stmt 0 view .LVU26
  92 0030 CCBF     		ite	gt
  93 0032 4FF0FF30 		movgt	r0, #-1
  94              	.LVL8:
  95              		.loc 1 58 11 view .LVU27
  96 0036 0020     		movle	r0, #0
  97              	.LVL9:
  98              	.L1:
  59:../Middlewares/stm32-vision-models-postprocessing/lib_vision_models_pp/Src/od_pp_yolov8.c ****   return 0;
  60:../Middlewares/stm32-vision-models-postprocessing/lib_vision_models_pp/Src/od_pp_yolov8.c **** }
  99              		.loc 1 60 1 view .LVU28
 100 0038 10BD     		pop	{r4, pc}
 101              	.LVL10:
 102              	.L7:
  57:../Middlewares/stm32-vision-models-postprocessing/lib_vision_models_pp/Src/od_pp_yolov8.c ****   else if (diff > 0) return -1;
 103              		.loc 1 57 24 discriminator 1 view .LVU29
 104 003a 0120     		movs	r0, #1
ARM GAS  /tmp/cc8dX4ay.s 			page 4


 105              	.LVL11:
  57:../Middlewares/stm32-vision-models-postprocessing/lib_vision_models_pp/Src/od_pp_yolov8.c ****   else if (diff > 0) return -1;
 106              		.loc 1 57 24 discriminator 1 view .LVU30
 107 003c FCE7     		b	.L1
 108              	.L9:
 109 003e 00BF     		.align	2
 110              	.L8:
 111 0040 00000000 		.word	AI_YOLOV8_PP_SORT_CLASS
 112 0044 00000000 		.word	0
 113              		.cfi_endproc
 114              	.LFE774:
 116              		.section	.text.yolov8_nms_comparator_is8,"ax",%progbits
 117              		.align	1
 118              		.global	yolov8_nms_comparator_is8
 119              		.syntax unified
 120              		.thumb
 121              		.thumb_func
 123              	yolov8_nms_comparator_is8:
 124              	.LVL12:
 125              	.LFB775:
  61:../Middlewares/stm32-vision-models-postprocessing/lib_vision_models_pp/Src/od_pp_yolov8.c **** 
  62:../Middlewares/stm32-vision-models-postprocessing/lib_vision_models_pp/Src/od_pp_yolov8.c **** int32_t yolov8_nms_comparator_is8(const void *pa, const void *pb)
  63:../Middlewares/stm32-vision-models-postprocessing/lib_vision_models_pp/Src/od_pp_yolov8.c **** {
 126              		.loc 1 63 1 is_stmt 1 view -0
 127              		.cfi_startproc
 128              		@ args = 0, pretend = 0, frame = 0
 129              		@ frame_needed = 0, uses_anonymous_args = 0
  64:../Middlewares/stm32-vision-models-postprocessing/lib_vision_models_pp/Src/od_pp_yolov8.c ****   od_yolov8_pp_scratch_s8_t a = *(od_yolov8_pp_scratch_s8_t *)pa;
 130              		.loc 1 64 3 view .LVU32
  65:../Middlewares/stm32-vision-models-postprocessing/lib_vision_models_pp/Src/od_pp_yolov8.c ****   od_yolov8_pp_scratch_s8_t b = *(od_yolov8_pp_scratch_s8_t *)pb;
 131              		.loc 1 65 3 view .LVU33
  63:../Middlewares/stm32-vision-models-postprocessing/lib_vision_models_pp/Src/od_pp_yolov8.c ****   od_yolov8_pp_scratch_s8_t a = *(od_yolov8_pp_scratch_s8_t *)pa;
 132              		.loc 1 63 1 is_stmt 0 view .LVU34
 133 0000 10B5     		push	{r4, lr}
 134              		.cfi_def_cfa_offset 8
 135              		.cfi_offset 4, -8
 136              		.cfi_offset 14, -4
  66:../Middlewares/stm32-vision-models-postprocessing/lib_vision_models_pp/Src/od_pp_yolov8.c **** 
  67:../Middlewares/stm32-vision-models-postprocessing/lib_vision_models_pp/Src/od_pp_yolov8.c ****   int16_t diff = 0;
  68:../Middlewares/stm32-vision-models-postprocessing/lib_vision_models_pp/Src/od_pp_yolov8.c ****   int8_t a_weighted_conf = INT8_MIN;
  69:../Middlewares/stm32-vision-models-postprocessing/lib_vision_models_pp/Src/od_pp_yolov8.c ****   int8_t b_weighted_conf = INT8_MIN;
  70:../Middlewares/stm32-vision-models-postprocessing/lib_vision_models_pp/Src/od_pp_yolov8.c **** 
  71:../Middlewares/stm32-vision-models-postprocessing/lib_vision_models_pp/Src/od_pp_yolov8.c ****   if (a.class_index == AI_YOLOV8_PP_SORT_CLASS)
 137              		.loc 1 71 21 view .LVU35
 138 0002 0C4B     		ldr	r3, .L17
 139              		.loc 1 71 8 view .LVU36
 140 0004 4479     		ldrb	r4, [r0, #5]	@ zero_extendqisi2
 141              		.loc 1 71 21 view .LVU37
 142 0006 1B68     		ldr	r3, [r3]
  65:../Middlewares/stm32-vision-models-postprocessing/lib_vision_models_pp/Src/od_pp_yolov8.c **** 
 143              		.loc 1 65 29 view .LVU38
 144 0008 4A79     		ldrb	r2, [r1, #5]	@ zero_extendqisi2
 145              	.LVL13:
  67:../Middlewares/stm32-vision-models-postprocessing/lib_vision_models_pp/Src/od_pp_yolov8.c ****   int8_t a_weighted_conf = INT8_MIN;
 146              		.loc 1 67 3 is_stmt 1 view .LVU39
  68:../Middlewares/stm32-vision-models-postprocessing/lib_vision_models_pp/Src/od_pp_yolov8.c ****   int8_t b_weighted_conf = INT8_MIN;
 147              		.loc 1 68 3 view .LVU40
ARM GAS  /tmp/cc8dX4ay.s 			page 5


  69:../Middlewares/stm32-vision-models-postprocessing/lib_vision_models_pp/Src/od_pp_yolov8.c **** 
 148              		.loc 1 69 3 view .LVU41
 149              		.loc 1 71 3 view .LVU42
 150              		.loc 1 71 6 is_stmt 0 view .LVU43
 151 000a 9C42     		cmp	r4, r3
  72:../Middlewares/stm32-vision-models-postprocessing/lib_vision_models_pp/Src/od_pp_yolov8.c ****   {
  73:../Middlewares/stm32-vision-models-postprocessing/lib_vision_models_pp/Src/od_pp_yolov8.c ****     a_weighted_conf = a.conf;
  74:../Middlewares/stm32-vision-models-postprocessing/lib_vision_models_pp/Src/od_pp_yolov8.c ****   }
  75:../Middlewares/stm32-vision-models-postprocessing/lib_vision_models_pp/Src/od_pp_yolov8.c ****   else
  76:../Middlewares/stm32-vision-models-postprocessing/lib_vision_models_pp/Src/od_pp_yolov8.c ****   {
  77:../Middlewares/stm32-vision-models-postprocessing/lib_vision_models_pp/Src/od_pp_yolov8.c ****     a_weighted_conf = INT8_MIN;
 152              		.loc 1 77 21 view .LVU44
 153 000c 14BF     		ite	ne
 154 000e 6FF07F00 		mvnne	r0, #127
 155              	.LVL14:
  64:../Middlewares/stm32-vision-models-postprocessing/lib_vision_models_pp/Src/od_pp_yolov8.c ****   od_yolov8_pp_scratch_s8_t b = *(od_yolov8_pp_scratch_s8_t *)pb;
 156              		.loc 1 64 29 view .LVU45
 157 0012 90F90400 		ldrsbeq	r0, [r0, #4]
 158              	.LVL15:
  78:../Middlewares/stm32-vision-models-postprocessing/lib_vision_models_pp/Src/od_pp_yolov8.c ****   }
  79:../Middlewares/stm32-vision-models-postprocessing/lib_vision_models_pp/Src/od_pp_yolov8.c **** 
  80:../Middlewares/stm32-vision-models-postprocessing/lib_vision_models_pp/Src/od_pp_yolov8.c ****   if (b.class_index == AI_YOLOV8_PP_SORT_CLASS)
 159              		.loc 1 80 3 is_stmt 1 view .LVU46
 160              		.loc 1 80 6 is_stmt 0 view .LVU47
 161 0016 9342     		cmp	r3, r2
 162 0018 06D0     		beq	.L12
  81:../Middlewares/stm32-vision-models-postprocessing/lib_vision_models_pp/Src/od_pp_yolov8.c ****   {
  82:../Middlewares/stm32-vision-models-postprocessing/lib_vision_models_pp/Src/od_pp_yolov8.c ****     b_weighted_conf = b.conf;
  83:../Middlewares/stm32-vision-models-postprocessing/lib_vision_models_pp/Src/od_pp_yolov8.c ****   }
  84:../Middlewares/stm32-vision-models-postprocessing/lib_vision_models_pp/Src/od_pp_yolov8.c ****   else
  85:../Middlewares/stm32-vision-models-postprocessing/lib_vision_models_pp/Src/od_pp_yolov8.c ****   {
  86:../Middlewares/stm32-vision-models-postprocessing/lib_vision_models_pp/Src/od_pp_yolov8.c ****     b_weighted_conf = INT8_MIN;
  87:../Middlewares/stm32-vision-models-postprocessing/lib_vision_models_pp/Src/od_pp_yolov8.c ****   }
  88:../Middlewares/stm32-vision-models-postprocessing/lib_vision_models_pp/Src/od_pp_yolov8.c **** 
  89:../Middlewares/stm32-vision-models-postprocessing/lib_vision_models_pp/Src/od_pp_yolov8.c ****   diff = a_weighted_conf - b_weighted_conf;
 163              		.loc 1 89 3 is_stmt 1 view .LVU48
 164              		.loc 1 89 8 is_stmt 0 view .LVU49
 165 001a 8030     		adds	r0, r0, #128
 166              	.LVL16:
 167              		.loc 1 89 8 view .LVU50
 168 001c 00B2     		sxth	r0, r0
 169              	.LVL17:
  90:../Middlewares/stm32-vision-models-postprocessing/lib_vision_models_pp/Src/od_pp_yolov8.c **** 
  91:../Middlewares/stm32-vision-models-postprocessing/lib_vision_models_pp/Src/od_pp_yolov8.c ****   if (diff < 0) return 1;
 170              		.loc 1 91 3 is_stmt 1 view .LVU51
 171              	.L13:
  92:../Middlewares/stm32-vision-models-postprocessing/lib_vision_models_pp/Src/od_pp_yolov8.c ****   else if (diff > 0) return -1;
 172              		.loc 1 92 8 view .LVU52
 173              		.loc 1 92 11 is_stmt 0 view .LVU53
 174 001e 0038     		subs	r0, r0, #0
 175 0020 18BF     		it	ne
 176 0022 0120     		movne	r0, #1
 177 0024 4042     		rsbs	r0, r0, #0
 178              	.LVL18:
 179              	.L10:
  93:../Middlewares/stm32-vision-models-postprocessing/lib_vision_models_pp/Src/od_pp_yolov8.c ****   return 0;
  94:../Middlewares/stm32-vision-models-postprocessing/lib_vision_models_pp/Src/od_pp_yolov8.c **** }
ARM GAS  /tmp/cc8dX4ay.s 			page 6


 180              		.loc 1 94 1 view .LVU54
 181 0026 10BD     		pop	{r4, pc}
 182              	.LVL19:
 183              	.L12:
  82:../Middlewares/stm32-vision-models-postprocessing/lib_vision_models_pp/Src/od_pp_yolov8.c ****   }
 184              		.loc 1 82 5 is_stmt 1 view .LVU55
  89:../Middlewares/stm32-vision-models-postprocessing/lib_vision_models_pp/Src/od_pp_yolov8.c **** 
 185              		.loc 1 89 3 view .LVU56
  89:../Middlewares/stm32-vision-models-postprocessing/lib_vision_models_pp/Src/od_pp_yolov8.c **** 
 186              		.loc 1 89 26 is_stmt 0 view .LVU57
 187 0028 91F90430 		ldrsb	r3, [r1, #4]
 188              	.LVL20:
  91:../Middlewares/stm32-vision-models-postprocessing/lib_vision_models_pp/Src/od_pp_yolov8.c ****   else if (diff > 0) return -1;
 189              		.loc 1 91 3 is_stmt 1 view .LVU58
  91:../Middlewares/stm32-vision-models-postprocessing/lib_vision_models_pp/Src/od_pp_yolov8.c ****   else if (diff > 0) return -1;
 190              		.loc 1 91 6 is_stmt 0 view .LVU59
 191 002c C01A     		subs	r0, r0, r3
 192              	.LVL21:
  91:../Middlewares/stm32-vision-models-postprocessing/lib_vision_models_pp/Src/od_pp_yolov8.c ****   else if (diff > 0) return -1;
 193              		.loc 1 91 6 view .LVU60
 194 002e F6D5     		bpl	.L13
  91:../Middlewares/stm32-vision-models-postprocessing/lib_vision_models_pp/Src/od_pp_yolov8.c ****   else if (diff > 0) return -1;
 195              		.loc 1 91 24 discriminator 1 view .LVU61
 196 0030 0120     		movs	r0, #1
 197              	.LVL22:
  91:../Middlewares/stm32-vision-models-postprocessing/lib_vision_models_pp/Src/od_pp_yolov8.c ****   else if (diff > 0) return -1;
 198              		.loc 1 91 24 discriminator 1 view .LVU62
 199 0032 F8E7     		b	.L10
 200              	.L18:
 201              		.align	2
 202              	.L17:
 203 0034 00000000 		.word	AI_YOLOV8_PP_SORT_CLASS
 204              		.cfi_endproc
 205              	.LFE775:
 207              		.section	.text.yolov8_pp_nmsFiltering_centroid,"ax",%progbits
 208              		.align	1
 209              		.global	yolov8_pp_nmsFiltering_centroid
 210              		.syntax unified
 211              		.thumb
 212              		.thumb_func
 214              	yolov8_pp_nmsFiltering_centroid:
 215              	.LVL23:
 216              	.LFB776:
  95:../Middlewares/stm32-vision-models-postprocessing/lib_vision_models_pp/Src/od_pp_yolov8.c **** 
  96:../Middlewares/stm32-vision-models-postprocessing/lib_vision_models_pp/Src/od_pp_yolov8.c **** 
  97:../Middlewares/stm32-vision-models-postprocessing/lib_vision_models_pp/Src/od_pp_yolov8.c **** int32_t yolov8_pp_nmsFiltering_centroid(od_pp_out_t *pOutput,
  98:../Middlewares/stm32-vision-models-postprocessing/lib_vision_models_pp/Src/od_pp_yolov8.c ****                                         od_yolov8_pp_static_param_t *pInput_static_param)
  99:../Middlewares/stm32-vision-models-postprocessing/lib_vision_models_pp/Src/od_pp_yolov8.c **** {
 217              		.loc 1 99 1 is_stmt 1 view -0
 218              		.cfi_startproc
 219              		@ args = 0, pretend = 0, frame = 8
 220              		@ frame_needed = 0, uses_anonymous_args = 0
 100:../Middlewares/stm32-vision-models-postprocessing/lib_vision_models_pp/Src/od_pp_yolov8.c ****   int32_t j, k, limit_counter, detections_per_class;
 221              		.loc 1 100 3 view .LVU64
 101:../Middlewares/stm32-vision-models-postprocessing/lib_vision_models_pp/Src/od_pp_yolov8.c **** 
 102:../Middlewares/stm32-vision-models-postprocessing/lib_vision_models_pp/Src/od_pp_yolov8.c ****   for (k = 0; k < pInput_static_param->nb_classes; ++k)
 222              		.loc 1 102 3 view .LVU65
ARM GAS  /tmp/cc8dX4ay.s 			page 7


  99:../Middlewares/stm32-vision-models-postprocessing/lib_vision_models_pp/Src/od_pp_yolov8.c ****   int32_t j, k, limit_counter, detections_per_class;
 223              		.loc 1 99 1 is_stmt 0 view .LVU66
 224 0000 2DE9F74F 		push	{r0, r1, r2, r4, r5, r6, r7, r8, r9, r10, fp, lr}
 225              		.cfi_def_cfa_offset 48
 226              		.cfi_offset 4, -36
 227              		.cfi_offset 5, -32
 228              		.cfi_offset 6, -28
 229              		.cfi_offset 7, -24
 230              		.cfi_offset 8, -20
 231              		.cfi_offset 9, -16
 232              		.cfi_offset 10, -12
 233              		.cfi_offset 11, -8
 234              		.cfi_offset 14, -4
  99:../Middlewares/stm32-vision-models-postprocessing/lib_vision_models_pp/Src/od_pp_yolov8.c ****   int32_t j, k, limit_counter, detections_per_class;
 235              		.loc 1 99 1 view .LVU67
 236 0004 0546     		mov	r5, r0
 237 0006 0E46     		mov	r6, r1
 238              		.loc 1 102 10 view .LVU68
 239 0008 0027     		movs	r7, #0
 240              	.LBB2:
 241              	.LBB3:
 242              	.LBB4:
 103:../Middlewares/stm32-vision-models-postprocessing/lib_vision_models_pp/Src/od_pp_yolov8.c ****   {
 104:../Middlewares/stm32-vision-models-postprocessing/lib_vision_models_pp/Src/od_pp_yolov8.c ****     limit_counter = 0;
 105:../Middlewares/stm32-vision-models-postprocessing/lib_vision_models_pp/Src/od_pp_yolov8.c ****     detections_per_class = 0;
 106:../Middlewares/stm32-vision-models-postprocessing/lib_vision_models_pp/Src/od_pp_yolov8.c ****     AI_YOLOV8_PP_SORT_CLASS = k;
 107:../Middlewares/stm32-vision-models-postprocessing/lib_vision_models_pp/Src/od_pp_yolov8.c **** 
 108:../Middlewares/stm32-vision-models-postprocessing/lib_vision_models_pp/Src/od_pp_yolov8.c ****     /* Counts the number of detections with class k */
 109:../Middlewares/stm32-vision-models-postprocessing/lib_vision_models_pp/Src/od_pp_yolov8.c ****     for (int32_t i = 0; i < pInput_static_param->nb_detect ; i ++)
 110:../Middlewares/stm32-vision-models-postprocessing/lib_vision_models_pp/Src/od_pp_yolov8.c ****     {
 111:../Middlewares/stm32-vision-models-postprocessing/lib_vision_models_pp/Src/od_pp_yolov8.c ****       if(pOutput->pOutBuff[i].class_index == k)
 112:../Middlewares/stm32-vision-models-postprocessing/lib_vision_models_pp/Src/od_pp_yolov8.c ****       {
 113:../Middlewares/stm32-vision-models-postprocessing/lib_vision_models_pp/Src/od_pp_yolov8.c ****           detections_per_class++;
 114:../Middlewares/stm32-vision-models-postprocessing/lib_vision_models_pp/Src/od_pp_yolov8.c ****       }
 115:../Middlewares/stm32-vision-models-postprocessing/lib_vision_models_pp/Src/od_pp_yolov8.c ****     }
 116:../Middlewares/stm32-vision-models-postprocessing/lib_vision_models_pp/Src/od_pp_yolov8.c **** 
 117:../Middlewares/stm32-vision-models-postprocessing/lib_vision_models_pp/Src/od_pp_yolov8.c ****     if (detections_per_class > 0)
 118:../Middlewares/stm32-vision-models-postprocessing/lib_vision_models_pp/Src/od_pp_yolov8.c ****     {
 119:../Middlewares/stm32-vision-models-postprocessing/lib_vision_models_pp/Src/od_pp_yolov8.c ****       /* Sorts detections based on class k */
 120:../Middlewares/stm32-vision-models-postprocessing/lib_vision_models_pp/Src/od_pp_yolov8.c ****       qsort(pOutput->pOutBuff,
 121:../Middlewares/stm32-vision-models-postprocessing/lib_vision_models_pp/Src/od_pp_yolov8.c ****             pInput_static_param->nb_detect,
 122:../Middlewares/stm32-vision-models-postprocessing/lib_vision_models_pp/Src/od_pp_yolov8.c ****             sizeof(od_pp_outBuffer_t),
 123:../Middlewares/stm32-vision-models-postprocessing/lib_vision_models_pp/Src/od_pp_yolov8.c ****             yolov8_nms_comparator);
 124:../Middlewares/stm32-vision-models-postprocessing/lib_vision_models_pp/Src/od_pp_yolov8.c **** 
 125:../Middlewares/stm32-vision-models-postprocessing/lib_vision_models_pp/Src/od_pp_yolov8.c ****       for (int32_t i = 0; i < detections_per_class ; i ++)
 126:../Middlewares/stm32-vision-models-postprocessing/lib_vision_models_pp/Src/od_pp_yolov8.c ****       {
 127:../Middlewares/stm32-vision-models-postprocessing/lib_vision_models_pp/Src/od_pp_yolov8.c ****         if (pOutput->pOutBuff[i].conf == 0) continue; // Already filtered
 128:../Middlewares/stm32-vision-models-postprocessing/lib_vision_models_pp/Src/od_pp_yolov8.c ****         float32_t *a = &(pOutput->pOutBuff[i].x_center);
 129:../Middlewares/stm32-vision-models-postprocessing/lib_vision_models_pp/Src/od_pp_yolov8.c ****         for (j = i + 1; j < detections_per_class; j ++)
 130:../Middlewares/stm32-vision-models-postprocessing/lib_vision_models_pp/Src/od_pp_yolov8.c ****         {
 131:../Middlewares/stm32-vision-models-postprocessing/lib_vision_models_pp/Src/od_pp_yolov8.c ****           if (pOutput->pOutBuff[j].conf == 0) continue; // Already filtered
 243              		.loc 1 131 14 view .LVU69
 244 000a 4FF00009 		mov	r9, #0
 245              	.LVL24:
 246              	.L20:
 247              		.loc 1 131 14 view .LVU70
 248              	.LBE4:
ARM GAS  /tmp/cc8dX4ay.s 			page 8


 249              	.LBE3:
 250              	.LBE2:
 102:../Middlewares/stm32-vision-models-postprocessing/lib_vision_models_pp/Src/od_pp_yolov8.c ****   {
 251              		.loc 1 102 17 is_stmt 1 discriminator 1 view .LVU71
 252 000e 3368     		ldr	r3, [r6]
 253 0010 BB42     		cmp	r3, r7
 254 0012 03DC     		bgt	.L39
 132:../Middlewares/stm32-vision-models-postprocessing/lib_vision_models_pp/Src/od_pp_yolov8.c ****           float32_t *b = &(pOutput->pOutBuff[j].x_center);
 133:../Middlewares/stm32-vision-models-postprocessing/lib_vision_models_pp/Src/od_pp_yolov8.c ****           if (vision_models_box_iou(a, b) > pInput_static_param->iou_threshold)
 134:../Middlewares/stm32-vision-models-postprocessing/lib_vision_models_pp/Src/od_pp_yolov8.c ****           {
 135:../Middlewares/stm32-vision-models-postprocessing/lib_vision_models_pp/Src/od_pp_yolov8.c ****             pOutput->pOutBuff[j].conf = 0;
 136:../Middlewares/stm32-vision-models-postprocessing/lib_vision_models_pp/Src/od_pp_yolov8.c ****           }
 137:../Middlewares/stm32-vision-models-postprocessing/lib_vision_models_pp/Src/od_pp_yolov8.c ****         }
 138:../Middlewares/stm32-vision-models-postprocessing/lib_vision_models_pp/Src/od_pp_yolov8.c ****       }
 139:../Middlewares/stm32-vision-models-postprocessing/lib_vision_models_pp/Src/od_pp_yolov8.c **** 
 140:../Middlewares/stm32-vision-models-postprocessing/lib_vision_models_pp/Src/od_pp_yolov8.c ****       /* Limits detections count */
 141:../Middlewares/stm32-vision-models-postprocessing/lib_vision_models_pp/Src/od_pp_yolov8.c ****       for (int32_t i = 0; i < detections_per_class; i++)
 142:../Middlewares/stm32-vision-models-postprocessing/lib_vision_models_pp/Src/od_pp_yolov8.c ****       {
 143:../Middlewares/stm32-vision-models-postprocessing/lib_vision_models_pp/Src/od_pp_yolov8.c ****         if ((limit_counter < pInput_static_param->max_boxes_limit) &&
 144:../Middlewares/stm32-vision-models-postprocessing/lib_vision_models_pp/Src/od_pp_yolov8.c ****             (pOutput->pOutBuff[i].conf != 0))
 145:../Middlewares/stm32-vision-models-postprocessing/lib_vision_models_pp/Src/od_pp_yolov8.c ****         {
 146:../Middlewares/stm32-vision-models-postprocessing/lib_vision_models_pp/Src/od_pp_yolov8.c ****           limit_counter++;
 147:../Middlewares/stm32-vision-models-postprocessing/lib_vision_models_pp/Src/od_pp_yolov8.c ****         }
 148:../Middlewares/stm32-vision-models-postprocessing/lib_vision_models_pp/Src/od_pp_yolov8.c ****         else
 149:../Middlewares/stm32-vision-models-postprocessing/lib_vision_models_pp/Src/od_pp_yolov8.c ****         {
 150:../Middlewares/stm32-vision-models-postprocessing/lib_vision_models_pp/Src/od_pp_yolov8.c ****           pOutput->pOutBuff[i].conf = 0;
 151:../Middlewares/stm32-vision-models-postprocessing/lib_vision_models_pp/Src/od_pp_yolov8.c ****         }
 152:../Middlewares/stm32-vision-models-postprocessing/lib_vision_models_pp/Src/od_pp_yolov8.c ****       } // for detection_per_class
 153:../Middlewares/stm32-vision-models-postprocessing/lib_vision_models_pp/Src/od_pp_yolov8.c ****     } // if detection_per_class
 154:../Middlewares/stm32-vision-models-postprocessing/lib_vision_models_pp/Src/od_pp_yolov8.c ****   } // for nb_classes
 155:../Middlewares/stm32-vision-models-postprocessing/lib_vision_models_pp/Src/od_pp_yolov8.c ****   return (AI_OD_POSTPROCESS_ERROR_NO);
 255              		.loc 1 155 3 view .LVU72
 156:../Middlewares/stm32-vision-models-postprocessing/lib_vision_models_pp/Src/od_pp_yolov8.c **** }
 256              		.loc 1 156 1 is_stmt 0 view .LVU73
 257 0014 0020     		movs	r0, #0
 258 0016 03B0     		add	sp, sp, #12
 259              		.cfi_remember_state
 260              		.cfi_def_cfa_offset 36
 261              		@ sp needed
 262 0018 BDE8F08F 		pop	{r4, r5, r6, r7, r8, r9, r10, fp, pc}
 263              	.LVL25:
 264              	.L39:
 265              		.cfi_restore_state
 104:../Middlewares/stm32-vision-models-postprocessing/lib_vision_models_pp/Src/od_pp_yolov8.c ****     detections_per_class = 0;
 266              		.loc 1 104 5 is_stmt 1 view .LVU74
 105:../Middlewares/stm32-vision-models-postprocessing/lib_vision_models_pp/Src/od_pp_yolov8.c ****     AI_YOLOV8_PP_SORT_CLASS = k;
 267              		.loc 1 105 5 view .LVU75
 106:../Middlewares/stm32-vision-models-postprocessing/lib_vision_models_pp/Src/od_pp_yolov8.c **** 
 268              		.loc 1 106 5 view .LVU76
 269              	.LBB8:
 109:../Middlewares/stm32-vision-models-postprocessing/lib_vision_models_pp/Src/od_pp_yolov8.c ****     {
 270              		.loc 1 109 18 is_stmt 0 view .LVU77
 271 001c 0022     		movs	r2, #0
 109:../Middlewares/stm32-vision-models-postprocessing/lib_vision_models_pp/Src/od_pp_yolov8.c ****     {
 272              		.loc 1 109 48 discriminator 1 view .LVU78
 273 001e F169     		ldr	r1, [r6, #28]
 274              	.LBE8:
ARM GAS  /tmp/cc8dX4ay.s 			page 9


 106:../Middlewares/stm32-vision-models-postprocessing/lib_vision_models_pp/Src/od_pp_yolov8.c **** 
 275              		.loc 1 106 29 view .LVU79
 276 0020 354B     		ldr	r3, .L45
 277 0022 9142     		cmp	r1, r2
 278 0024 1F60     		str	r7, [r3]
 109:../Middlewares/stm32-vision-models-postprocessing/lib_vision_models_pp/Src/od_pp_yolov8.c ****     {
 279              		.loc 1 109 5 is_stmt 1 view .LVU80
 280              	.LBB9:
 109:../Middlewares/stm32-vision-models-postprocessing/lib_vision_models_pp/Src/od_pp_yolov8.c ****     {
 281              		.loc 1 109 10 view .LVU81
 282              	.LVL26:
 109:../Middlewares/stm32-vision-models-postprocessing/lib_vision_models_pp/Src/od_pp_yolov8.c ****     {
 283              		.loc 1 109 10 is_stmt 0 view .LVU82
 284              	.LBE9:
 105:../Middlewares/stm32-vision-models-postprocessing/lib_vision_models_pp/Src/od_pp_yolov8.c ****     AI_YOLOV8_PP_SORT_CLASS = k;
 285              		.loc 1 105 26 view .LVU83
 286 0026 1446     		mov	r4, r2
 287              	.LBB10:
 111:../Middlewares/stm32-vision-models-postprocessing/lib_vision_models_pp/Src/od_pp_yolov8.c ****       {
 288              		.loc 1 111 30 view .LVU84
 289 0028 01F10103 		add	r3, r1, #1
 290 002c 4FF0180C 		mov	ip, #24
 291 0030 B8BF     		it	lt
 292 0032 0123     		movlt	r3, #1
 293              	.LVL27:
 294              	.L21:
 109:../Middlewares/stm32-vision-models-postprocessing/lib_vision_models_pp/Src/od_pp_yolov8.c ****     {
 295              		.loc 1 109 27 is_stmt 1 discriminator 1 view .LVU85
 296 0034 013B     		subs	r3, r3, #1
 297 0036 02D1     		bne	.L23
 298              	.LBE10:
 117:../Middlewares/stm32-vision-models-postprocessing/lib_vision_models_pp/Src/od_pp_yolov8.c ****     {
 299              		.loc 1 117 5 view .LVU86
 117:../Middlewares/stm32-vision-models-postprocessing/lib_vision_models_pp/Src/od_pp_yolov8.c ****     {
 300              		.loc 1 117 8 is_stmt 0 view .LVU87
 301 0038 54B9     		cbnz	r4, .L24
 302              	.LVL28:
 303              	.L38:
 102:../Middlewares/stm32-vision-models-postprocessing/lib_vision_models_pp/Src/od_pp_yolov8.c ****   {
 304              		.loc 1 102 52 is_stmt 1 discriminator 2 view .LVU88
 305 003a 0137     		adds	r7, r7, #1
 306              	.LVL29:
 102:../Middlewares/stm32-vision-models-postprocessing/lib_vision_models_pp/Src/od_pp_yolov8.c ****   {
 307              		.loc 1 102 52 is_stmt 0 discriminator 2 view .LVU89
 308 003c E7E7     		b	.L20
 309              	.LVL30:
 310              	.L23:
 311              	.LBB11:
 111:../Middlewares/stm32-vision-models-postprocessing/lib_vision_models_pp/Src/od_pp_yolov8.c ****       {
 312              		.loc 1 111 7 is_stmt 1 view .LVU90
 111:../Middlewares/stm32-vision-models-postprocessing/lib_vision_models_pp/Src/od_pp_yolov8.c ****       {
 313              		.loc 1 111 30 is_stmt 0 view .LVU91
 314 003e 2868     		ldr	r0, [r5]
 315 0040 0CFB0200 		mla	r0, ip, r2, r0
 111:../Middlewares/stm32-vision-models-postprocessing/lib_vision_models_pp/Src/od_pp_yolov8.c ****       {
 316              		.loc 1 111 9 view .LVU92
 317 0044 4069     		ldr	r0, [r0, #20]
ARM GAS  /tmp/cc8dX4ay.s 			page 10


 109:../Middlewares/stm32-vision-models-postprocessing/lib_vision_models_pp/Src/od_pp_yolov8.c ****     {
 318              		.loc 1 109 64 discriminator 2 view .LVU93
 319 0046 0132     		adds	r2, r2, #1
 320              	.LVL31:
 113:../Middlewares/stm32-vision-models-postprocessing/lib_vision_models_pp/Src/od_pp_yolov8.c ****       }
 321              		.loc 1 113 31 view .LVU94
 322 0048 B842     		cmp	r0, r7
 323 004a 54EA1494 		cinc	r4, r4, eq
 324              	.LVL32:
 109:../Middlewares/stm32-vision-models-postprocessing/lib_vision_models_pp/Src/od_pp_yolov8.c ****     {
 325              		.loc 1 109 64 is_stmt 1 discriminator 2 view .LVU95
 326 004e F1E7     		b	.L21
 327              	.LVL33:
 328              	.L24:
 109:../Middlewares/stm32-vision-models-postprocessing/lib_vision_models_pp/Src/od_pp_yolov8.c ****     {
 329              		.loc 1 109 64 is_stmt 0 discriminator 2 view .LVU96
 330              	.LBE11:
 120:../Middlewares/stm32-vision-models-postprocessing/lib_vision_models_pp/Src/od_pp_yolov8.c ****             pInput_static_param->nb_detect,
 331              		.loc 1 120 7 is_stmt 1 view .LVU97
 332 0050 2A4B     		ldr	r3, .L45+4
 333 0052 1822     		movs	r2, #24
 334              	.LVL34:
 120:../Middlewares/stm32-vision-models-postprocessing/lib_vision_models_pp/Src/od_pp_yolov8.c ****             pInput_static_param->nb_detect,
 335              		.loc 1 120 7 is_stmt 0 view .LVU98
 336 0054 2868     		ldr	r0, [r5]
 337 0056 FFF7FEFF 		bl	qsort
 338              	.LVL35:
 125:../Middlewares/stm32-vision-models-postprocessing/lib_vision_models_pp/Src/od_pp_yolov8.c ****       {
 339              		.loc 1 125 7 is_stmt 1 view .LVU99
 340              	.LBB12:
 125:../Middlewares/stm32-vision-models-postprocessing/lib_vision_models_pp/Src/od_pp_yolov8.c ****       {
 341              		.loc 1 125 12 view .LVU100
 125:../Middlewares/stm32-vision-models-postprocessing/lib_vision_models_pp/Src/od_pp_yolov8.c ****       {
 342              		.loc 1 125 29 discriminator 1 view .LVU101
 125:../Middlewares/stm32-vision-models-postprocessing/lib_vision_models_pp/Src/od_pp_yolov8.c ****       {
 343              		.loc 1 125 20 is_stmt 0 view .LVU102
 344 005a 4FF00008 		mov	r8, #0
 345              	.LBB6:
 127:../Middlewares/stm32-vision-models-postprocessing/lib_vision_models_pp/Src/od_pp_yolov8.c ****         float32_t *a = &(pOutput->pOutBuff[i].x_center);
 346              		.loc 1 127 30 view .LVU103
 347 005e 1823     		movs	r3, #24
 348              	.LVL36:
 349              	.L26:
 127:../Middlewares/stm32-vision-models-postprocessing/lib_vision_models_pp/Src/od_pp_yolov8.c ****         float32_t *a = &(pOutput->pOutBuff[i].x_center);
 350              		.loc 1 127 9 is_stmt 1 view .LVU104
 127:../Middlewares/stm32-vision-models-postprocessing/lib_vision_models_pp/Src/od_pp_yolov8.c ****         float32_t *a = &(pOutput->pOutBuff[i].x_center);
 351              		.loc 1 127 30 is_stmt 0 view .LVU105
 352 0060 2A68     		ldr	r2, [r5]
 353 0062 03FB082B 		mla	fp, r3, r8, r2
 127:../Middlewares/stm32-vision-models-postprocessing/lib_vision_models_pp/Src/od_pp_yolov8.c ****         float32_t *a = &(pOutput->pOutBuff[i].x_center);
 354              		.loc 1 127 12 view .LVU106
 355 0066 DBED047A 		vldr.32	s15, [fp, #16]
 356 006a F5EE407A 		vcmp.f32	s15, #0
 357 006e F1EE10FA 		vmrs	APSR_nzcv, FPSCR
 129:../Middlewares/stm32-vision-models-postprocessing/lib_vision_models_pp/Src/od_pp_yolov8.c ****         {
 358              		.loc 1 129 16 view .LVU107
 359 0072 08F10108 		add	r8, r8, #1
ARM GAS  /tmp/cc8dX4ay.s 			page 11


 360              	.LVL37:
 127:../Middlewares/stm32-vision-models-postprocessing/lib_vision_models_pp/Src/od_pp_yolov8.c ****         float32_t *a = &(pOutput->pOutBuff[i].x_center);
 361              		.loc 1 127 12 view .LVU108
 362 0076 19D1     		bne	.L25
 363              	.L34:
 364              	.LBE6:
 125:../Middlewares/stm32-vision-models-postprocessing/lib_vision_models_pp/Src/od_pp_yolov8.c ****       {
 365              		.loc 1 125 56 is_stmt 1 discriminator 2 view .LVU109
 366              	.LVL38:
 125:../Middlewares/stm32-vision-models-postprocessing/lib_vision_models_pp/Src/od_pp_yolov8.c ****       {
 367              		.loc 1 125 29 discriminator 1 view .LVU110
 368 0078 4445     		cmp	r4, r8
 369 007a F1D1     		bne	.L26
 370              	.LBE12:
 371              	.LBB13:
 141:../Middlewares/stm32-vision-models-postprocessing/lib_vision_models_pp/Src/od_pp_yolov8.c ****       {
 372              		.loc 1 141 20 is_stmt 0 view .LVU111
 373 007c 0023     		movs	r3, #0
 144:../Middlewares/stm32-vision-models-postprocessing/lib_vision_models_pp/Src/od_pp_yolov8.c ****         {
 374              		.loc 1 144 31 view .LVU112
 375 007e 4FF0180E 		mov	lr, #24
 376              	.LBE13:
 104:../Middlewares/stm32-vision-models-postprocessing/lib_vision_models_pp/Src/od_pp_yolov8.c ****     detections_per_class = 0;
 377              		.loc 1 104 19 view .LVU113
 378 0082 1A46     		mov	r2, r3
 379              	.LBB14:
 143:../Middlewares/stm32-vision-models-postprocessing/lib_vision_models_pp/Src/od_pp_yolov8.c ****             (pOutput->pOutBuff[i].conf != 0))
 380              		.loc 1 143 49 view .LVU114
 381 0084 B068     		ldr	r0, [r6, #8]
 144:../Middlewares/stm32-vision-models-postprocessing/lib_vision_models_pp/Src/od_pp_yolov8.c ****         {
 382              		.loc 1 144 21 view .LVU115
 383 0086 D5F800C0 		ldr	ip, [r5]
 384              	.LVL39:
 385              	.L37:
 143:../Middlewares/stm32-vision-models-postprocessing/lib_vision_models_pp/Src/od_pp_yolov8.c ****             (pOutput->pOutBuff[i].conf != 0))
 386              		.loc 1 143 9 is_stmt 1 view .LVU116
 143:../Middlewares/stm32-vision-models-postprocessing/lib_vision_models_pp/Src/od_pp_yolov8.c ****             (pOutput->pOutBuff[i].conf != 0))
 387              		.loc 1 143 12 is_stmt 0 view .LVU117
 388 008a 9042     		cmp	r0, r2
 144:../Middlewares/stm32-vision-models-postprocessing/lib_vision_models_pp/Src/od_pp_yolov8.c ****         {
 389              		.loc 1 144 31 view .LVU118
 390 008c 0EFB03C1 		mla	r1, lr, r3, ip
 143:../Middlewares/stm32-vision-models-postprocessing/lib_vision_models_pp/Src/od_pp_yolov8.c ****             (pOutput->pOutBuff[i].conf != 0))
 391              		.loc 1 143 12 view .LVU119
 392 0090 2FDD     		ble	.L35
 143:../Middlewares/stm32-vision-models-postprocessing/lib_vision_models_pp/Src/od_pp_yolov8.c ****             (pOutput->pOutBuff[i].conf != 0))
 393              		.loc 1 143 68 discriminator 1 view .LVU120
 394 0092 D1ED047A 		vldr.32	s15, [r1, #16]
 395 0096 F5EE407A 		vcmp.f32	s15, #0
 396 009a F1EE10FA 		vmrs	APSR_nzcv, FPSCR
 397 009e 28D0     		beq	.L35
 146:../Middlewares/stm32-vision-models-postprocessing/lib_vision_models_pp/Src/od_pp_yolov8.c ****         }
 398              		.loc 1 146 11 is_stmt 1 view .LVU121
 146:../Middlewares/stm32-vision-models-postprocessing/lib_vision_models_pp/Src/od_pp_yolov8.c ****         }
 399              		.loc 1 146 24 is_stmt 0 view .LVU122
 400 00a0 0132     		adds	r2, r2, #1
 401              	.LVL40:
ARM GAS  /tmp/cc8dX4ay.s 			page 12


 402              	.L36:
 141:../Middlewares/stm32-vision-models-postprocessing/lib_vision_models_pp/Src/od_pp_yolov8.c ****       {
 403              		.loc 1 141 54 is_stmt 1 discriminator 2 view .LVU123
 141:../Middlewares/stm32-vision-models-postprocessing/lib_vision_models_pp/Src/od_pp_yolov8.c ****       {
 404              		.loc 1 141 29 is_stmt 0 discriminator 1 view .LVU124
 405 00a2 013C     		subs	r4, r4, #1
 141:../Middlewares/stm32-vision-models-postprocessing/lib_vision_models_pp/Src/od_pp_yolov8.c ****       {
 406              		.loc 1 141 54 discriminator 2 view .LVU125
 407 00a4 03F10103 		add	r3, r3, #1
 408              	.LVL41:
 141:../Middlewares/stm32-vision-models-postprocessing/lib_vision_models_pp/Src/od_pp_yolov8.c ****       {
 409              		.loc 1 141 29 is_stmt 1 discriminator 1 view .LVU126
 410 00a8 EFD1     		bne	.L37
 141:../Middlewares/stm32-vision-models-postprocessing/lib_vision_models_pp/Src/od_pp_yolov8.c ****       {
 411              		.loc 1 141 29 is_stmt 0 discriminator 1 view .LVU127
 412 00aa C6E7     		b	.L38
 413              	.LVL42:
 414              	.L25:
 141:../Middlewares/stm32-vision-models-postprocessing/lib_vision_models_pp/Src/od_pp_yolov8.c ****       {
 415              		.loc 1 141 29 discriminator 1 view .LVU128
 416              	.LBE14:
 417              	.LBB15:
 418              	.LBB7:
 128:../Middlewares/stm32-vision-models-postprocessing/lib_vision_models_pp/Src/od_pp_yolov8.c ****         for (j = i + 1; j < detections_per_class; j ++)
 419              		.loc 1 128 9 is_stmt 1 view .LVU129
 129:../Middlewares/stm32-vision-models-postprocessing/lib_vision_models_pp/Src/od_pp_yolov8.c ****         {
 420              		.loc 1 129 9 view .LVU130
 129:../Middlewares/stm32-vision-models-postprocessing/lib_vision_models_pp/Src/od_pp_yolov8.c ****         {
 421              		.loc 1 129 16 is_stmt 0 view .LVU131
 422 00ac C246     		mov	r10, r8
 423              	.LVL43:
 424              	.L28:
 129:../Middlewares/stm32-vision-models-postprocessing/lib_vision_models_pp/Src/od_pp_yolov8.c ****         {
 425              		.loc 1 129 27 is_stmt 1 discriminator 1 view .LVU132
 426 00ae A245     		cmp	r10, r4
 427 00b0 E2DA     		bge	.L34
 428              	.LBB5:
 131:../Middlewares/stm32-vision-models-postprocessing/lib_vision_models_pp/Src/od_pp_yolov8.c ****           float32_t *b = &(pOutput->pOutBuff[j].x_center);
 429              		.loc 1 131 11 view .LVU133
 430 00b2 03FB0AF2 		mul	r2, r3, r10
 131:../Middlewares/stm32-vision-models-postprocessing/lib_vision_models_pp/Src/od_pp_yolov8.c ****           float32_t *b = &(pOutput->pOutBuff[j].x_center);
 431              		.loc 1 131 32 is_stmt 0 view .LVU134
 432 00b6 2968     		ldr	r1, [r5]
 433 00b8 0192     		str	r2, [sp, #4]
 434 00ba 1144     		add	r1, r1, r2
 131:../Middlewares/stm32-vision-models-postprocessing/lib_vision_models_pp/Src/od_pp_yolov8.c ****           float32_t *b = &(pOutput->pOutBuff[j].x_center);
 435              		.loc 1 131 14 view .LVU135
 436 00bc D1ED047A 		vldr.32	s15, [r1, #16]
 437 00c0 F5EE407A 		vcmp.f32	s15, #0
 438 00c4 F1EE10FA 		vmrs	APSR_nzcv, FPSCR
 439 00c8 10D0     		beq	.L30
 132:../Middlewares/stm32-vision-models-postprocessing/lib_vision_models_pp/Src/od_pp_yolov8.c ****           if (vision_models_box_iou(a, b) > pInput_static_param->iou_threshold)
 440              		.loc 1 132 11 is_stmt 1 view .LVU136
 441              	.LVL44:
 133:../Middlewares/stm32-vision-models-postprocessing/lib_vision_models_pp/Src/od_pp_yolov8.c ****           {
 442              		.loc 1 133 11 view .LVU137
 133:../Middlewares/stm32-vision-models-postprocessing/lib_vision_models_pp/Src/od_pp_yolov8.c ****           {
ARM GAS  /tmp/cc8dX4ay.s 			page 13


 443              		.loc 1 133 15 is_stmt 0 view .LVU138
 444 00ca 5846     		mov	r0, fp
 445 00cc FFF7FEFF 		bl	vision_models_box_iou
 446              	.LVL45:
 133:../Middlewares/stm32-vision-models-postprocessing/lib_vision_models_pp/Src/od_pp_yolov8.c ****           {
 447              		.loc 1 133 14 discriminator 1 view .LVU139
 448 00d0 D6ED047A 		vldr.32	s15, [r6, #16]
 449 00d4 B4EEE70A 		vcmpe.f32	s0, s15
 450 00d8 F1EE10FA 		vmrs	APSR_nzcv, FPSCR
 451 00dc 4FF01803 		mov	r3, #24
 135:../Middlewares/stm32-vision-models-postprocessing/lib_vision_models_pp/Src/od_pp_yolov8.c ****           }
 452              		.loc 1 135 13 is_stmt 1 view .LVU140
 135:../Middlewares/stm32-vision-models-postprocessing/lib_vision_models_pp/Src/od_pp_yolov8.c ****           }
 453              		.loc 1 135 39 is_stmt 0 view .LVU141
 454 00e0 C1BF     		itttt	gt
 455 00e2 2968     		ldrgt	r1, [r5]
 456 00e4 019A     		ldrgt	r2, [sp, #4]
 457 00e6 8918     		addgt	r1, r1, r2
 458 00e8 C1F81090 		strgt	r9, [r1, #16]	@ float
 459              	.LVL46:
 460              	.L30:
 135:../Middlewares/stm32-vision-models-postprocessing/lib_vision_models_pp/Src/od_pp_yolov8.c ****           }
 461              		.loc 1 135 39 view .LVU142
 462              	.LBE5:
 129:../Middlewares/stm32-vision-models-postprocessing/lib_vision_models_pp/Src/od_pp_yolov8.c ****         {
 463              		.loc 1 129 53 is_stmt 1 discriminator 2 view .LVU143
 464 00ec 0AF1010A 		add	r10, r10, #1
 465              	.LVL47:
 129:../Middlewares/stm32-vision-models-postprocessing/lib_vision_models_pp/Src/od_pp_yolov8.c ****         {
 466              		.loc 1 129 53 is_stmt 0 discriminator 2 view .LVU144
 467 00f0 DDE7     		b	.L28
 468              	.LVL48:
 469              	.L35:
 129:../Middlewares/stm32-vision-models-postprocessing/lib_vision_models_pp/Src/od_pp_yolov8.c ****         {
 470              		.loc 1 129 53 discriminator 2 view .LVU145
 471              	.LBE7:
 472              	.LBE15:
 473              	.LBB16:
 150:../Middlewares/stm32-vision-models-postprocessing/lib_vision_models_pp/Src/od_pp_yolov8.c ****         }
 474              		.loc 1 150 11 is_stmt 1 view .LVU146
 150:../Middlewares/stm32-vision-models-postprocessing/lib_vision_models_pp/Src/od_pp_yolov8.c ****         }
 475              		.loc 1 150 37 is_stmt 0 view .LVU147
 476 00f2 C1F81090 		str	r9, [r1, #16]	@ float
 477 00f6 D4E7     		b	.L36
 478              	.L46:
 479              		.align	2
 480              	.L45:
 481 00f8 00000000 		.word	AI_YOLOV8_PP_SORT_CLASS
 482 00fc 00000000 		.word	yolov8_nms_comparator
 483              	.LBE16:
 484              		.cfi_endproc
 485              	.LFE776:
 487              		.section	.text.yolov8_pp_nmsFiltering_centroid_is8,"ax",%progbits
 488              		.align	1
 489              		.global	yolov8_pp_nmsFiltering_centroid_is8
 490              		.syntax unified
 491              		.thumb
ARM GAS  /tmp/cc8dX4ay.s 			page 14


 492              		.thumb_func
 494              	yolov8_pp_nmsFiltering_centroid_is8:
 495              	.LVL49:
 496              	.LFB777:
 157:../Middlewares/stm32-vision-models-postprocessing/lib_vision_models_pp/Src/od_pp_yolov8.c **** 
 158:../Middlewares/stm32-vision-models-postprocessing/lib_vision_models_pp/Src/od_pp_yolov8.c **** int32_t yolov8_pp_nmsFiltering_centroid_is8(od_yolov8_pp_scratch_s8_t *ptrScratch,
 159:../Middlewares/stm32-vision-models-postprocessing/lib_vision_models_pp/Src/od_pp_yolov8.c ****                                             od_yolov8_pp_static_param_t *pInput_static_param)
 160:../Middlewares/stm32-vision-models-postprocessing/lib_vision_models_pp/Src/od_pp_yolov8.c **** {
 497              		.loc 1 160 1 is_stmt 1 view -0
 498              		.cfi_startproc
 499              		@ args = 0, pretend = 0, frame = 16
 500              		@ frame_needed = 0, uses_anonymous_args = 0
 161:../Middlewares/stm32-vision-models-postprocessing/lib_vision_models_pp/Src/od_pp_yolov8.c ****   int32_t j, k, limit_counter, detections_per_class;
 501              		.loc 1 161 3 view .LVU149
 162:../Middlewares/stm32-vision-models-postprocessing/lib_vision_models_pp/Src/od_pp_yolov8.c **** 
 163:../Middlewares/stm32-vision-models-postprocessing/lib_vision_models_pp/Src/od_pp_yolov8.c ****   for (k = 0; k < pInput_static_param->nb_classes; ++k)
 502              		.loc 1 163 3 view .LVU150
 160:../Middlewares/stm32-vision-models-postprocessing/lib_vision_models_pp/Src/od_pp_yolov8.c ****   int32_t j, k, limit_counter, detections_per_class;
 503              		.loc 1 160 1 is_stmt 0 view .LVU151
 504 0000 2DE9F04F 		push	{r4, r5, r6, r7, r8, r9, r10, fp, lr}
 505              		.cfi_def_cfa_offset 36
 506              		.cfi_offset 4, -36
 507              		.cfi_offset 5, -32
 508              		.cfi_offset 6, -28
 509              		.cfi_offset 7, -24
 510              		.cfi_offset 8, -20
 511              		.cfi_offset 9, -16
 512              		.cfi_offset 10, -12
 513              		.cfi_offset 11, -8
 514              		.cfi_offset 14, -4
 515 0004 0546     		mov	r5, r0
 516 0006 0E46     		mov	r6, r1
 517              		.loc 1 163 10 view .LVU152
 518 0008 0027     		movs	r7, #0
 519              	.LBB17:
 520              	.LBB18:
 521              	.LBB19:
 164:../Middlewares/stm32-vision-models-postprocessing/lib_vision_models_pp/Src/od_pp_yolov8.c ****   {
 165:../Middlewares/stm32-vision-models-postprocessing/lib_vision_models_pp/Src/od_pp_yolov8.c ****     limit_counter = 0;
 166:../Middlewares/stm32-vision-models-postprocessing/lib_vision_models_pp/Src/od_pp_yolov8.c ****     detections_per_class = 0;
 167:../Middlewares/stm32-vision-models-postprocessing/lib_vision_models_pp/Src/od_pp_yolov8.c ****     AI_YOLOV8_PP_SORT_CLASS = k;
 168:../Middlewares/stm32-vision-models-postprocessing/lib_vision_models_pp/Src/od_pp_yolov8.c **** 
 169:../Middlewares/stm32-vision-models-postprocessing/lib_vision_models_pp/Src/od_pp_yolov8.c ****     /* Counts the number of detections with class k */
 170:../Middlewares/stm32-vision-models-postprocessing/lib_vision_models_pp/Src/od_pp_yolov8.c ****     for (int32_t i = 0; i < pInput_static_param->nb_detect ; i ++)
 171:../Middlewares/stm32-vision-models-postprocessing/lib_vision_models_pp/Src/od_pp_yolov8.c ****     {
 172:../Middlewares/stm32-vision-models-postprocessing/lib_vision_models_pp/Src/od_pp_yolov8.c ****       if(ptrScratch[i].class_index == k)
 173:../Middlewares/stm32-vision-models-postprocessing/lib_vision_models_pp/Src/od_pp_yolov8.c ****       {
 174:../Middlewares/stm32-vision-models-postprocessing/lib_vision_models_pp/Src/od_pp_yolov8.c ****         detections_per_class++;
 175:../Middlewares/stm32-vision-models-postprocessing/lib_vision_models_pp/Src/od_pp_yolov8.c ****       }
 176:../Middlewares/stm32-vision-models-postprocessing/lib_vision_models_pp/Src/od_pp_yolov8.c ****     }
 177:../Middlewares/stm32-vision-models-postprocessing/lib_vision_models_pp/Src/od_pp_yolov8.c **** 
 178:../Middlewares/stm32-vision-models-postprocessing/lib_vision_models_pp/Src/od_pp_yolov8.c ****     if (detections_per_class > 0)
 179:../Middlewares/stm32-vision-models-postprocessing/lib_vision_models_pp/Src/od_pp_yolov8.c ****     {
 180:../Middlewares/stm32-vision-models-postprocessing/lib_vision_models_pp/Src/od_pp_yolov8.c ****       /* Sorts detections based on class k */
 181:../Middlewares/stm32-vision-models-postprocessing/lib_vision_models_pp/Src/od_pp_yolov8.c ****       qsort(ptrScratch,
 182:../Middlewares/stm32-vision-models-postprocessing/lib_vision_models_pp/Src/od_pp_yolov8.c ****             pInput_static_param->nb_detect,
 183:../Middlewares/stm32-vision-models-postprocessing/lib_vision_models_pp/Src/od_pp_yolov8.c ****             sizeof(od_yolov8_pp_scratch_s8_t),
ARM GAS  /tmp/cc8dX4ay.s 			page 15


 184:../Middlewares/stm32-vision-models-postprocessing/lib_vision_models_pp/Src/od_pp_yolov8.c ****             yolov8_nms_comparator_is8);
 185:../Middlewares/stm32-vision-models-postprocessing/lib_vision_models_pp/Src/od_pp_yolov8.c **** 
 186:../Middlewares/stm32-vision-models-postprocessing/lib_vision_models_pp/Src/od_pp_yolov8.c ****       for (int32_t i = 0; i < detections_per_class ; i ++)
 187:../Middlewares/stm32-vision-models-postprocessing/lib_vision_models_pp/Src/od_pp_yolov8.c ****       {
 188:../Middlewares/stm32-vision-models-postprocessing/lib_vision_models_pp/Src/od_pp_yolov8.c ****         if (ptrScratch[i].conf == INT8_MIN) continue; // Already filtered
 189:../Middlewares/stm32-vision-models-postprocessing/lib_vision_models_pp/Src/od_pp_yolov8.c ****         int8_t *a = &(ptrScratch[i].x_center);
 190:../Middlewares/stm32-vision-models-postprocessing/lib_vision_models_pp/Src/od_pp_yolov8.c ****         for (j = i + 1; j < detections_per_class; j ++)
 191:../Middlewares/stm32-vision-models-postprocessing/lib_vision_models_pp/Src/od_pp_yolov8.c ****         {
 192:../Middlewares/stm32-vision-models-postprocessing/lib_vision_models_pp/Src/od_pp_yolov8.c ****           if (ptrScratch[j].conf == INT8_MIN) continue; // Already filtered
 193:../Middlewares/stm32-vision-models-postprocessing/lib_vision_models_pp/Src/od_pp_yolov8.c ****           int8_t *b = &(ptrScratch[j].x_center);
 194:../Middlewares/stm32-vision-models-postprocessing/lib_vision_models_pp/Src/od_pp_yolov8.c ****           if (vision_models_box_iou_is8(a, b, pInput_static_param->raw_output_zero_point) > pInput_
 195:../Middlewares/stm32-vision-models-postprocessing/lib_vision_models_pp/Src/od_pp_yolov8.c ****           {
 196:../Middlewares/stm32-vision-models-postprocessing/lib_vision_models_pp/Src/od_pp_yolov8.c ****             ptrScratch[j].conf = INT8_MIN;
 522              		.loc 1 196 32 view .LVU153
 523 000a 4FF08008 		mov	r8, #128
 524              	.LBE19:
 525              	.LBE18:
 526              	.LBE17:
 160:../Middlewares/stm32-vision-models-postprocessing/lib_vision_models_pp/Src/od_pp_yolov8.c ****   int32_t j, k, limit_counter, detections_per_class;
 527              		.loc 1 160 1 view .LVU154
 528 000e 85B0     		sub	sp, sp, #20
 529              		.cfi_def_cfa_offset 56
 530              	.LVL50:
 531              	.L48:
 163:../Middlewares/stm32-vision-models-postprocessing/lib_vision_models_pp/Src/od_pp_yolov8.c ****   {
 532              		.loc 1 163 17 is_stmt 1 discriminator 1 view .LVU155
 533 0010 3368     		ldr	r3, [r6]
 534 0012 BB42     		cmp	r3, r7
 535 0014 03DC     		bgt	.L66
 197:../Middlewares/stm32-vision-models-postprocessing/lib_vision_models_pp/Src/od_pp_yolov8.c ****           }
 198:../Middlewares/stm32-vision-models-postprocessing/lib_vision_models_pp/Src/od_pp_yolov8.c ****         }
 199:../Middlewares/stm32-vision-models-postprocessing/lib_vision_models_pp/Src/od_pp_yolov8.c ****       }
 200:../Middlewares/stm32-vision-models-postprocessing/lib_vision_models_pp/Src/od_pp_yolov8.c **** 
 201:../Middlewares/stm32-vision-models-postprocessing/lib_vision_models_pp/Src/od_pp_yolov8.c ****       /* Limits detections count */
 202:../Middlewares/stm32-vision-models-postprocessing/lib_vision_models_pp/Src/od_pp_yolov8.c ****       for (int32_t i = 0; i < detections_per_class; i++)
 203:../Middlewares/stm32-vision-models-postprocessing/lib_vision_models_pp/Src/od_pp_yolov8.c ****       {
 204:../Middlewares/stm32-vision-models-postprocessing/lib_vision_models_pp/Src/od_pp_yolov8.c ****         if ((limit_counter < pInput_static_param->max_boxes_limit) &&
 205:../Middlewares/stm32-vision-models-postprocessing/lib_vision_models_pp/Src/od_pp_yolov8.c ****             (ptrScratch[i].conf != INT8_MIN))
 206:../Middlewares/stm32-vision-models-postprocessing/lib_vision_models_pp/Src/od_pp_yolov8.c ****         {
 207:../Middlewares/stm32-vision-models-postprocessing/lib_vision_models_pp/Src/od_pp_yolov8.c ****           limit_counter++;
 208:../Middlewares/stm32-vision-models-postprocessing/lib_vision_models_pp/Src/od_pp_yolov8.c ****         }
 209:../Middlewares/stm32-vision-models-postprocessing/lib_vision_models_pp/Src/od_pp_yolov8.c ****         else
 210:../Middlewares/stm32-vision-models-postprocessing/lib_vision_models_pp/Src/od_pp_yolov8.c ****         {
 211:../Middlewares/stm32-vision-models-postprocessing/lib_vision_models_pp/Src/od_pp_yolov8.c ****           ptrScratch[i].conf = INT8_MIN;
 212:../Middlewares/stm32-vision-models-postprocessing/lib_vision_models_pp/Src/od_pp_yolov8.c ****         }
 213:../Middlewares/stm32-vision-models-postprocessing/lib_vision_models_pp/Src/od_pp_yolov8.c ****       } // for detection_per_class
 214:../Middlewares/stm32-vision-models-postprocessing/lib_vision_models_pp/Src/od_pp_yolov8.c ****     } // if detection_per_class
 215:../Middlewares/stm32-vision-models-postprocessing/lib_vision_models_pp/Src/od_pp_yolov8.c ****   } // for nb_classes
 216:../Middlewares/stm32-vision-models-postprocessing/lib_vision_models_pp/Src/od_pp_yolov8.c ****   return (AI_OD_POSTPROCESS_ERROR_NO);
 536              		.loc 1 216 3 view .LVU156
 217:../Middlewares/stm32-vision-models-postprocessing/lib_vision_models_pp/Src/od_pp_yolov8.c **** }
 537              		.loc 1 217 1 is_stmt 0 view .LVU157
 538 0016 0020     		movs	r0, #0
 539 0018 05B0     		add	sp, sp, #20
 540              		.cfi_remember_state
 541              		.cfi_def_cfa_offset 36
 542              		@ sp needed
ARM GAS  /tmp/cc8dX4ay.s 			page 16


 543 001a BDE8F08F 		pop	{r4, r5, r6, r7, r8, r9, r10, fp, pc}
 544              	.LVL51:
 545              	.L66:
 546              		.cfi_restore_state
 165:../Middlewares/stm32-vision-models-postprocessing/lib_vision_models_pp/Src/od_pp_yolov8.c ****     detections_per_class = 0;
 547              		.loc 1 165 5 is_stmt 1 view .LVU158
 166:../Middlewares/stm32-vision-models-postprocessing/lib_vision_models_pp/Src/od_pp_yolov8.c ****     AI_YOLOV8_PP_SORT_CLASS = k;
 548              		.loc 1 166 5 view .LVU159
 167:../Middlewares/stm32-vision-models-postprocessing/lib_vision_models_pp/Src/od_pp_yolov8.c **** 
 549              		.loc 1 167 5 view .LVU160
 550              	.LBB23:
 170:../Middlewares/stm32-vision-models-postprocessing/lib_vision_models_pp/Src/od_pp_yolov8.c ****     {
 551              		.loc 1 170 18 is_stmt 0 view .LVU161
 552 001e 0022     		movs	r2, #0
 170:../Middlewares/stm32-vision-models-postprocessing/lib_vision_models_pp/Src/od_pp_yolov8.c ****     {
 553              		.loc 1 170 48 discriminator 1 view .LVU162
 554 0020 F169     		ldr	r1, [r6, #28]
 555              	.LBE23:
 167:../Middlewares/stm32-vision-models-postprocessing/lib_vision_models_pp/Src/od_pp_yolov8.c **** 
 556              		.loc 1 167 29 view .LVU163
 557 0022 344B     		ldr	r3, .L76
 558 0024 9142     		cmp	r1, r2
 559 0026 1F60     		str	r7, [r3]
 170:../Middlewares/stm32-vision-models-postprocessing/lib_vision_models_pp/Src/od_pp_yolov8.c ****     {
 560              		.loc 1 170 5 is_stmt 1 view .LVU164
 561              	.LBB24:
 170:../Middlewares/stm32-vision-models-postprocessing/lib_vision_models_pp/Src/od_pp_yolov8.c ****     {
 562              		.loc 1 170 10 view .LVU165
 563              	.LVL52:
 170:../Middlewares/stm32-vision-models-postprocessing/lib_vision_models_pp/Src/od_pp_yolov8.c ****     {
 564              		.loc 1 170 10 is_stmt 0 view .LVU166
 565              	.LBE24:
 166:../Middlewares/stm32-vision-models-postprocessing/lib_vision_models_pp/Src/od_pp_yolov8.c ****     AI_YOLOV8_PP_SORT_CLASS = k;
 566              		.loc 1 166 26 view .LVU167
 567 0028 1446     		mov	r4, r2
 568              	.LBB25:
 172:../Middlewares/stm32-vision-models-postprocessing/lib_vision_models_pp/Src/od_pp_yolov8.c ****       {
 569              		.loc 1 172 23 view .LVU168
 570 002a 01F10103 		add	r3, r1, #1
 571 002e 4FF0060C 		mov	ip, #6
 572 0032 B8BF     		it	lt
 573 0034 0123     		movlt	r3, #1
 574 0036 681D     		adds	r0, r5, #5
 575              	.LVL53:
 576              	.L49:
 170:../Middlewares/stm32-vision-models-postprocessing/lib_vision_models_pp/Src/od_pp_yolov8.c ****     {
 577              		.loc 1 170 27 is_stmt 1 discriminator 1 view .LVU169
 578 0038 013B     		subs	r3, r3, #1
 579 003a 02D1     		bne	.L51
 580              	.LBE25:
 178:../Middlewares/stm32-vision-models-postprocessing/lib_vision_models_pp/Src/od_pp_yolov8.c ****     {
 581              		.loc 1 178 5 view .LVU170
 178:../Middlewares/stm32-vision-models-postprocessing/lib_vision_models_pp/Src/od_pp_yolov8.c ****     {
 582              		.loc 1 178 8 is_stmt 0 view .LVU171
 583 003c 54B9     		cbnz	r4, .L52
 584              	.LVL54:
 585              	.L65:
ARM GAS  /tmp/cc8dX4ay.s 			page 17


 163:../Middlewares/stm32-vision-models-postprocessing/lib_vision_models_pp/Src/od_pp_yolov8.c ****   {
 586              		.loc 1 163 52 is_stmt 1 discriminator 2 view .LVU172
 587 003e 0137     		adds	r7, r7, #1
 588              	.LVL55:
 163:../Middlewares/stm32-vision-models-postprocessing/lib_vision_models_pp/Src/od_pp_yolov8.c ****   {
 589              		.loc 1 163 52 is_stmt 0 discriminator 2 view .LVU173
 590 0040 E6E7     		b	.L48
 591              	.LVL56:
 592              	.L51:
 593              	.LBB26:
 172:../Middlewares/stm32-vision-models-postprocessing/lib_vision_models_pp/Src/od_pp_yolov8.c ****       {
 594              		.loc 1 172 7 is_stmt 1 view .LVU174
 172:../Middlewares/stm32-vision-models-postprocessing/lib_vision_models_pp/Src/od_pp_yolov8.c ****       {
 595              		.loc 1 172 23 is_stmt 0 view .LVU175
 596 0042 0CFB02FE 		mul	lr, ip, r2
 597 0046 10F80EE0 		ldrb	lr, [r0, lr]	@ zero_extendqisi2
 170:../Middlewares/stm32-vision-models-postprocessing/lib_vision_models_pp/Src/od_pp_yolov8.c ****     {
 598              		.loc 1 170 64 discriminator 2 view .LVU176
 599 004a 0132     		adds	r2, r2, #1
 600              	.LVL57:
 174:../Middlewares/stm32-vision-models-postprocessing/lib_vision_models_pp/Src/od_pp_yolov8.c ****       }
 601              		.loc 1 174 29 view .LVU177
 602 004c BE45     		cmp	lr, r7
 603 004e 54EA1494 		cinc	r4, r4, eq
 604              	.LVL58:
 170:../Middlewares/stm32-vision-models-postprocessing/lib_vision_models_pp/Src/od_pp_yolov8.c ****     {
 605              		.loc 1 170 64 is_stmt 1 discriminator 2 view .LVU178
 606 0052 F1E7     		b	.L49
 607              	.LVL59:
 608              	.L52:
 170:../Middlewares/stm32-vision-models-postprocessing/lib_vision_models_pp/Src/od_pp_yolov8.c ****     {
 609              		.loc 1 170 64 is_stmt 0 discriminator 2 view .LVU179
 610              	.LBE26:
 181:../Middlewares/stm32-vision-models-postprocessing/lib_vision_models_pp/Src/od_pp_yolov8.c ****             pInput_static_param->nb_detect,
 611              		.loc 1 181 7 is_stmt 1 view .LVU180
 612 0054 2846     		mov	r0, r5
 613 0056 0622     		movs	r2, #6
 614              	.LVL60:
 181:../Middlewares/stm32-vision-models-postprocessing/lib_vision_models_pp/Src/od_pp_yolov8.c ****             pInput_static_param->nb_detect,
 615              		.loc 1 181 7 is_stmt 0 view .LVU181
 616 0058 274B     		ldr	r3, .L76+4
 617 005a FFF7FEFF 		bl	qsort
 618              	.LVL61:
 186:../Middlewares/stm32-vision-models-postprocessing/lib_vision_models_pp/Src/od_pp_yolov8.c ****       {
 619              		.loc 1 186 7 is_stmt 1 view .LVU182
 620              	.LBB27:
 186:../Middlewares/stm32-vision-models-postprocessing/lib_vision_models_pp/Src/od_pp_yolov8.c ****       {
 621              		.loc 1 186 12 view .LVU183
 186:../Middlewares/stm32-vision-models-postprocessing/lib_vision_models_pp/Src/od_pp_yolov8.c ****       {
 622              		.loc 1 186 29 discriminator 1 view .LVU184
 623 005e A946     		mov	r9, r5
 624              	.LBE27:
 181:../Middlewares/stm32-vision-models-postprocessing/lib_vision_models_pp/Src/od_pp_yolov8.c ****             pInput_static_param->nb_detect,
 625              		.loc 1 181 7 is_stmt 0 view .LVU185
 626 0060 2846     		mov	r0, r5
 627              	.LBB28:
 186:../Middlewares/stm32-vision-models-postprocessing/lib_vision_models_pp/Src/od_pp_yolov8.c ****       {
ARM GAS  /tmp/cc8dX4ay.s 			page 18


 628              		.loc 1 186 20 view .LVU186
 629 0062 4FF0000A 		mov	r10, #0
 630              	.LVL62:
 631              	.L54:
 632              	.LBB21:
 188:../Middlewares/stm32-vision-models-postprocessing/lib_vision_models_pp/Src/od_pp_yolov8.c ****         int8_t *a = &(ptrScratch[i].x_center);
 633              		.loc 1 188 9 is_stmt 1 view .LVU187
 188:../Middlewares/stm32-vision-models-postprocessing/lib_vision_models_pp/Src/od_pp_yolov8.c ****         int8_t *a = &(ptrScratch[i].x_center);
 634              		.loc 1 188 12 is_stmt 0 view .LVU188
 635 0066 90F90430 		ldrsb	r3, [r0, #4]
 190:../Middlewares/stm32-vision-models-postprocessing/lib_vision_models_pp/Src/od_pp_yolov8.c ****         {
 636              		.loc 1 190 16 view .LVU189
 637 006a 0AF1010A 		add	r10, r10, #1
 638              	.LVL63:
 188:../Middlewares/stm32-vision-models-postprocessing/lib_vision_models_pp/Src/od_pp_yolov8.c ****         int8_t *a = &(ptrScratch[i].x_center);
 639              		.loc 1 188 12 view .LVU190
 640 006e 8033     		adds	r3, r3, #128
 641 0070 3AD1     		bne	.L67
 642              	.L61:
 643              	.LBE21:
 186:../Middlewares/stm32-vision-models-postprocessing/lib_vision_models_pp/Src/od_pp_yolov8.c ****       {
 644              		.loc 1 186 56 is_stmt 1 discriminator 2 view .LVU191
 645              	.LVL64:
 186:../Middlewares/stm32-vision-models-postprocessing/lib_vision_models_pp/Src/od_pp_yolov8.c ****       {
 646              		.loc 1 186 29 discriminator 1 view .LVU192
 647 0072 5445     		cmp	r4, r10
 648 0074 00F10600 		add	r0, r0, #6
 649 0078 F5D1     		bne	.L54
 650 007a 0623     		movs	r3, #6
 651              	.LBE28:
 165:../Middlewares/stm32-vision-models-postprocessing/lib_vision_models_pp/Src/od_pp_yolov8.c ****     detections_per_class = 0;
 652              		.loc 1 165 19 is_stmt 0 view .LVU193
 653 007c 0021     		movs	r1, #0
 654 007e 03FB0453 		mla	r3, r3, r4, r5
 655              	.LBB29:
 211:../Middlewares/stm32-vision-models-postprocessing/lib_vision_models_pp/Src/od_pp_yolov8.c ****         }
 656              		.loc 1 211 30 view .LVU194
 657 0082 5B1B     		subs	r3, r3, r5
 658 0084 1D48     		ldr	r0, .L76+8
 659 0086 063B     		subs	r3, r3, #6
 660 0088 5B08     		lsrs	r3, r3, #1
 661 008a 4343     		muls	r3, r0, r3
 204:../Middlewares/stm32-vision-models-postprocessing/lib_vision_models_pp/Src/od_pp_yolov8.c ****             (ptrScratch[i].conf != INT8_MIN))
 662              		.loc 1 204 49 view .LVU195
 663 008c B268     		ldr	r2, [r6, #8]
 211:../Middlewares/stm32-vision-models-postprocessing/lib_vision_models_pp/Src/od_pp_yolov8.c ****         }
 664              		.loc 1 211 30 view .LVU196
 665 008e 23F00043 		bic	r3, r3, #-2147483648
 666 0092 0133     		adds	r3, r3, #1
 667              	.LVL65:
 668              	.L64:
 204:../Middlewares/stm32-vision-models-postprocessing/lib_vision_models_pp/Src/od_pp_yolov8.c ****             (ptrScratch[i].conf != INT8_MIN))
 669              		.loc 1 204 9 is_stmt 1 view .LVU197
 204:../Middlewares/stm32-vision-models-postprocessing/lib_vision_models_pp/Src/od_pp_yolov8.c ****             (ptrScratch[i].conf != INT8_MIN))
 670              		.loc 1 204 12 is_stmt 0 view .LVU198
 671 0094 8A42     		cmp	r2, r1
 672 0096 2ADD     		ble	.L62
ARM GAS  /tmp/cc8dX4ay.s 			page 19


 204:../Middlewares/stm32-vision-models-postprocessing/lib_vision_models_pp/Src/od_pp_yolov8.c ****             (ptrScratch[i].conf != INT8_MIN))
 673              		.loc 1 204 68 discriminator 1 view .LVU199
 674 0098 99F90400 		ldrsb	r0, [r9, #4]
 675 009c 8030     		adds	r0, r0, #128
 676 009e 26D0     		beq	.L62
 207:../Middlewares/stm32-vision-models-postprocessing/lib_vision_models_pp/Src/od_pp_yolov8.c ****         }
 677              		.loc 1 207 11 is_stmt 1 view .LVU200
 207:../Middlewares/stm32-vision-models-postprocessing/lib_vision_models_pp/Src/od_pp_yolov8.c ****         }
 678              		.loc 1 207 24 is_stmt 0 view .LVU201
 679 00a0 0131     		adds	r1, r1, #1
 680              	.LVL66:
 681              	.L63:
 202:../Middlewares/stm32-vision-models-postprocessing/lib_vision_models_pp/Src/od_pp_yolov8.c ****       {
 682              		.loc 1 202 54 is_stmt 1 discriminator 2 view .LVU202
 202:../Middlewares/stm32-vision-models-postprocessing/lib_vision_models_pp/Src/od_pp_yolov8.c ****       {
 683              		.loc 1 202 29 discriminator 1 view .LVU203
 684 00a2 013B     		subs	r3, r3, #1
 685 00a4 09F10609 		add	r9, r9, #6
 686 00a8 F4D1     		bne	.L64
 202:../Middlewares/stm32-vision-models-postprocessing/lib_vision_models_pp/Src/od_pp_yolov8.c ****       {
 687              		.loc 1 202 29 is_stmt 0 discriminator 1 view .LVU204
 688 00aa C8E7     		b	.L65
 689              	.LVL67:
 690              	.L60:
 202:../Middlewares/stm32-vision-models-postprocessing/lib_vision_models_pp/Src/od_pp_yolov8.c ****       {
 691              		.loc 1 202 29 discriminator 1 view .LVU205
 692              	.LBE29:
 693              	.LBB30:
 694              	.LBB22:
 695              	.LBB20:
 192:../Middlewares/stm32-vision-models-postprocessing/lib_vision_models_pp/Src/od_pp_yolov8.c ****           int8_t *b = &(ptrScratch[j].x_center);
 696              		.loc 1 192 11 is_stmt 1 view .LVU206
 192:../Middlewares/stm32-vision-models-postprocessing/lib_vision_models_pp/Src/od_pp_yolov8.c ****           int8_t *b = &(ptrScratch[j].x_center);
 697              		.loc 1 192 14 is_stmt 0 view .LVU207
 698 00ac 9BF90A20 		ldrsb	r2, [fp, #10]
 699 00b0 0BF10601 		add	r1, fp, #6
 700 00b4 8032     		adds	r2, r2, #128
 701 00b6 12D0     		beq	.L57
 194:../Middlewares/stm32-vision-models-postprocessing/lib_vision_models_pp/Src/od_pp_yolov8.c ****           {
 702              		.loc 1 194 15 view .LVU208
 703 00b8 96F91820 		ldrsb	r2, [r6, #24]
 704 00bc CDE90101 		strd	r0, r1, [sp, #4]
 705 00c0 0393     		str	r3, [sp, #12]
 193:../Middlewares/stm32-vision-models-postprocessing/lib_vision_models_pp/Src/od_pp_yolov8.c ****           if (vision_models_box_iou_is8(a, b, pInput_static_param->raw_output_zero_point) > pInput_
 706              		.loc 1 193 11 is_stmt 1 view .LVU209
 707              	.LVL68:
 194:../Middlewares/stm32-vision-models-postprocessing/lib_vision_models_pp/Src/od_pp_yolov8.c ****           {
 708              		.loc 1 194 11 view .LVU210
 194:../Middlewares/stm32-vision-models-postprocessing/lib_vision_models_pp/Src/od_pp_yolov8.c ****           {
 709              		.loc 1 194 15 is_stmt 0 view .LVU211
 710 00c2 FFF7FEFF 		bl	vision_models_box_iou_is8
 711              	.LVL69:
 194:../Middlewares/stm32-vision-models-postprocessing/lib_vision_models_pp/Src/od_pp_yolov8.c ****           {
 712              		.loc 1 194 14 discriminator 1 view .LVU212
 713 00c6 DDE90101 		ldrd	r0, r1, [sp, #4]
 714 00ca D6ED047A 		vldr.32	s15, [r6, #16]
 715 00ce B4EEE70A 		vcmpe.f32	s0, s15
ARM GAS  /tmp/cc8dX4ay.s 			page 20


 716 00d2 F1EE10FA 		vmrs	APSR_nzcv, FPSCR
 717 00d6 039B     		ldr	r3, [sp, #12]
 196:../Middlewares/stm32-vision-models-postprocessing/lib_vision_models_pp/Src/od_pp_yolov8.c ****           }
 718              		.loc 1 196 13 is_stmt 1 view .LVU213
 196:../Middlewares/stm32-vision-models-postprocessing/lib_vision_models_pp/Src/od_pp_yolov8.c ****           }
 719              		.loc 1 196 32 is_stmt 0 view .LVU214
 720 00d8 C8BF     		it	gt
 721 00da 8BF80A80 		strbgt	r8, [fp, #10]
 722              	.LVL70:
 723              	.L57:
 196:../Middlewares/stm32-vision-models-postprocessing/lib_vision_models_pp/Src/od_pp_yolov8.c ****           }
 724              		.loc 1 196 32 view .LVU215
 725              	.LBE20:
 190:../Middlewares/stm32-vision-models-postprocessing/lib_vision_models_pp/Src/od_pp_yolov8.c ****         {
 726              		.loc 1 190 53 is_stmt 1 discriminator 2 view .LVU216
 727 00de 8B46     		mov	fp, r1
 728 00e0 0133     		adds	r3, r3, #1
 729              	.LVL71:
 730              	.L53:
 190:../Middlewares/stm32-vision-models-postprocessing/lib_vision_models_pp/Src/od_pp_yolov8.c ****         {
 731              		.loc 1 190 27 discriminator 1 view .LVU217
 732 00e2 A342     		cmp	r3, r4
 733 00e4 E2DB     		blt	.L60
 734 00e6 C4E7     		b	.L61
 735              	.LVL72:
 736              	.L67:
 190:../Middlewares/stm32-vision-models-postprocessing/lib_vision_models_pp/Src/od_pp_yolov8.c ****         {
 737              		.loc 1 190 27 is_stmt 0 discriminator 1 view .LVU218
 738 00e8 8346     		mov	fp, r0
 190:../Middlewares/stm32-vision-models-postprocessing/lib_vision_models_pp/Src/od_pp_yolov8.c ****         {
 739              		.loc 1 190 16 view .LVU219
 740 00ea 5346     		mov	r3, r10
 741 00ec F9E7     		b	.L53
 742              	.LVL73:
 743              	.L62:
 190:../Middlewares/stm32-vision-models-postprocessing/lib_vision_models_pp/Src/od_pp_yolov8.c ****         {
 744              		.loc 1 190 16 view .LVU220
 745              	.LBE22:
 746              	.LBE30:
 747              	.LBB31:
 211:../Middlewares/stm32-vision-models-postprocessing/lib_vision_models_pp/Src/od_pp_yolov8.c ****         }
 748              		.loc 1 211 11 is_stmt 1 view .LVU221
 211:../Middlewares/stm32-vision-models-postprocessing/lib_vision_models_pp/Src/od_pp_yolov8.c ****         }
 749              		.loc 1 211 30 is_stmt 0 view .LVU222
 750 00ee 89F80480 		strb	r8, [r9, #4]
 751 00f2 D6E7     		b	.L63
 752              	.L77:
 753              		.align	2
 754              	.L76:
 755 00f4 00000000 		.word	AI_YOLOV8_PP_SORT_CLASS
 756 00f8 00000000 		.word	yolov8_nms_comparator_is8
 757 00fc ABAAAA2A 		.word	715827883
 758              	.LBE31:
 759              		.cfi_endproc
 760              	.LFE777:
 762              		.section	.text.yolov8_pp_scoreFiltering_centroid,"ax",%progbits
 763              		.align	1
ARM GAS  /tmp/cc8dX4ay.s 			page 21


 764              		.global	yolov8_pp_scoreFiltering_centroid
 765              		.syntax unified
 766              		.thumb
 767              		.thumb_func
 769              	yolov8_pp_scoreFiltering_centroid:
 770              	.LVL74:
 771              	.LFB778:
 218:../Middlewares/stm32-vision-models-postprocessing/lib_vision_models_pp/Src/od_pp_yolov8.c **** 
 219:../Middlewares/stm32-vision-models-postprocessing/lib_vision_models_pp/Src/od_pp_yolov8.c **** int32_t yolov8_pp_scoreFiltering_centroid(od_pp_out_t *pOutput,
 220:../Middlewares/stm32-vision-models-postprocessing/lib_vision_models_pp/Src/od_pp_yolov8.c ****                                           od_yolov8_pp_static_param_t *pInput_static_param)
 221:../Middlewares/stm32-vision-models-postprocessing/lib_vision_models_pp/Src/od_pp_yolov8.c **** {
 772              		.loc 1 221 1 is_stmt 1 view -0
 773              		.cfi_startproc
 774              		@ args = 0, pretend = 0, frame = 0
 775              		@ frame_needed = 0, uses_anonymous_args = 0
 222:../Middlewares/stm32-vision-models-postprocessing/lib_vision_models_pp/Src/od_pp_yolov8.c ****   int32_t det_count = 0;
 776              		.loc 1 222 3 view .LVU224
 223:../Middlewares/stm32-vision-models-postprocessing/lib_vision_models_pp/Src/od_pp_yolov8.c **** 
 224:../Middlewares/stm32-vision-models-postprocessing/lib_vision_models_pp/Src/od_pp_yolov8.c ****   for (int32_t i = 0; i < pInput_static_param->nb_detect; i++)
 777              		.loc 1 224 3 view .LVU225
 778              	.LBB32:
 779              		.loc 1 224 8 view .LVU226
 780              		.loc 1 224 8 is_stmt 0 view .LVU227
 781              	.LBE32:
 221:../Middlewares/stm32-vision-models-postprocessing/lib_vision_models_pp/Src/od_pp_yolov8.c ****   int32_t det_count = 0;
 782              		.loc 1 221 1 view .LVU228
 783 0000 F0B5     		push	{r4, r5, r6, r7, lr}
 784              		.cfi_def_cfa_offset 20
 785              		.cfi_offset 4, -20
 786              		.cfi_offset 5, -16
 787              		.cfi_offset 6, -12
 788              		.cfi_offset 7, -8
 789              		.cfi_offset 14, -4
 790              	.LBB33:
 791              		.loc 1 224 16 view .LVU229
 792 0002 0026     		movs	r6, #0
 793              		.loc 1 224 46 discriminator 1 view .LVU230
 794 0004 CB69     		ldr	r3, [r1, #28]
 795              	.LBE33:
 222:../Middlewares/stm32-vision-models-postprocessing/lib_vision_models_pp/Src/od_pp_yolov8.c ****   int32_t det_count = 0;
 796              		.loc 1 222 11 view .LVU231
 797 0006 3546     		mov	r5, r6
 798 0008 B342     		cmp	r3, r6
 799              	.LBB34:
 225:../Middlewares/stm32-vision-models-postprocessing/lib_vision_models_pp/Src/od_pp_yolov8.c ****   {
 226:../Middlewares/stm32-vision-models-postprocessing/lib_vision_models_pp/Src/od_pp_yolov8.c ****     if (pOutput->pOutBuff[i].conf >= pInput_static_param->conf_threshold)
 800              		.loc 1 226 26 view .LVU232
 801 000a 03F10104 		add	r4, r3, #1
 802 000e 4FF01807 		mov	r7, #24
 803 0012 B8BF     		it	lt
 804 0014 0124     		movlt	r4, #1
 805              	.LVL75:
 806              	.L79:
 224:../Middlewares/stm32-vision-models-postprocessing/lib_vision_models_pp/Src/od_pp_yolov8.c ****   {
 807              		.loc 1 224 25 is_stmt 1 discriminator 1 view .LVU233
 808 0016 013C     		subs	r4, r4, #1
 809 0018 02D1     		bne	.L82
ARM GAS  /tmp/cc8dX4ay.s 			page 22


 810              	.LBE34:
 227:../Middlewares/stm32-vision-models-postprocessing/lib_vision_models_pp/Src/od_pp_yolov8.c ****     {
 228:../Middlewares/stm32-vision-models-postprocessing/lib_vision_models_pp/Src/od_pp_yolov8.c ****       pOutput->pOutBuff[det_count].x_center    = pOutput->pOutBuff[i].x_center;
 229:../Middlewares/stm32-vision-models-postprocessing/lib_vision_models_pp/Src/od_pp_yolov8.c ****       pOutput->pOutBuff[det_count].y_center    = pOutput->pOutBuff[i].y_center;
 230:../Middlewares/stm32-vision-models-postprocessing/lib_vision_models_pp/Src/od_pp_yolov8.c ****       pOutput->pOutBuff[det_count].width       = pOutput->pOutBuff[i].width;
 231:../Middlewares/stm32-vision-models-postprocessing/lib_vision_models_pp/Src/od_pp_yolov8.c ****       pOutput->pOutBuff[det_count].height      = pOutput->pOutBuff[i].height;
 232:../Middlewares/stm32-vision-models-postprocessing/lib_vision_models_pp/Src/od_pp_yolov8.c ****       pOutput->pOutBuff[det_count].conf        = pOutput->pOutBuff[i].conf;
 233:../Middlewares/stm32-vision-models-postprocessing/lib_vision_models_pp/Src/od_pp_yolov8.c ****       pOutput->pOutBuff[det_count].class_index = pOutput->pOutBuff[i].class_index;
 234:../Middlewares/stm32-vision-models-postprocessing/lib_vision_models_pp/Src/od_pp_yolov8.c ****       det_count++;
 235:../Middlewares/stm32-vision-models-postprocessing/lib_vision_models_pp/Src/od_pp_yolov8.c ****     }
 236:../Middlewares/stm32-vision-models-postprocessing/lib_vision_models_pp/Src/od_pp_yolov8.c ****   }
 237:../Middlewares/stm32-vision-models-postprocessing/lib_vision_models_pp/Src/od_pp_yolov8.c ****   pOutput->nb_detect = det_count;
 811              		.loc 1 237 3 view .LVU234
 812              		.loc 1 237 22 is_stmt 0 view .LVU235
 813 001a 4560     		str	r5, [r0, #4]
 238:../Middlewares/stm32-vision-models-postprocessing/lib_vision_models_pp/Src/od_pp_yolov8.c **** 
 239:../Middlewares/stm32-vision-models-postprocessing/lib_vision_models_pp/Src/od_pp_yolov8.c ****   return (AI_OD_POSTPROCESS_ERROR_NO);
 814              		.loc 1 239 3 is_stmt 1 view .LVU236
 240:../Middlewares/stm32-vision-models-postprocessing/lib_vision_models_pp/Src/od_pp_yolov8.c **** }
 815              		.loc 1 240 1 is_stmt 0 view .LVU237
 816 001c 0020     		movs	r0, #0
 817              	.LVL76:
 818              		.loc 1 240 1 view .LVU238
 819 001e F0BD     		pop	{r4, r5, r6, r7, pc}
 820              	.LVL77:
 821              	.L82:
 822              	.LBB35:
 226:../Middlewares/stm32-vision-models-postprocessing/lib_vision_models_pp/Src/od_pp_yolov8.c ****     {
 823              		.loc 1 226 5 is_stmt 1 view .LVU239
 226:../Middlewares/stm32-vision-models-postprocessing/lib_vision_models_pp/Src/od_pp_yolov8.c ****     {
 824              		.loc 1 226 16 is_stmt 0 view .LVU240
 825 0020 0368     		ldr	r3, [r0]
 226:../Middlewares/stm32-vision-models-postprocessing/lib_vision_models_pp/Src/od_pp_yolov8.c ****     {
 826              		.loc 1 226 8 view .LVU241
 827 0022 91ED037A 		vldr.32	s14, [r1, #12]
 226:../Middlewares/stm32-vision-models-postprocessing/lib_vision_models_pp/Src/od_pp_yolov8.c ****     {
 828              		.loc 1 226 26 view .LVU242
 829 0026 07FB0632 		mla	r2, r7, r6, r3
 226:../Middlewares/stm32-vision-models-postprocessing/lib_vision_models_pp/Src/od_pp_yolov8.c ****     {
 830              		.loc 1 226 29 view .LVU243
 831 002a D2ED047A 		vldr.32	s15, [r2, #16]
 226:../Middlewares/stm32-vision-models-postprocessing/lib_vision_models_pp/Src/od_pp_yolov8.c ****     {
 832              		.loc 1 226 8 view .LVU244
 833 002e F4EEC77A 		vcmpe.f32	s15, s14
 834 0032 F1EE10FA 		vmrs	APSR_nzcv, FPSCR
 835 0036 16DB     		blt	.L80
 228:../Middlewares/stm32-vision-models-postprocessing/lib_vision_models_pp/Src/od_pp_yolov8.c ****       pOutput->pOutBuff[det_count].y_center    = pOutput->pOutBuff[i].y_center;
 836              		.loc 1 228 7 is_stmt 1 view .LVU245
 228:../Middlewares/stm32-vision-models-postprocessing/lib_vision_models_pp/Src/od_pp_yolov8.c ****       pOutput->pOutBuff[det_count].y_center    = pOutput->pOutBuff[i].y_center;
 837              		.loc 1 228 24 is_stmt 0 view .LVU246
 838 0038 07FB0533 		mla	r3, r7, r5, r3
 228:../Middlewares/stm32-vision-models-postprocessing/lib_vision_models_pp/Src/od_pp_yolov8.c ****       pOutput->pOutBuff[det_count].y_center    = pOutput->pOutBuff[i].y_center;
 839              		.loc 1 228 70 view .LVU247
 840 003c D2F800C0 		ldr	ip, [r2]	@ float
 234:../Middlewares/stm32-vision-models-postprocessing/lib_vision_models_pp/Src/od_pp_yolov8.c ****     }
 841              		.loc 1 234 16 view .LVU248
 842 0040 0135     		adds	r5, r5, #1
ARM GAS  /tmp/cc8dX4ay.s 			page 23


 843              	.LVL78:
 228:../Middlewares/stm32-vision-models-postprocessing/lib_vision_models_pp/Src/od_pp_yolov8.c ****       pOutput->pOutBuff[det_count].y_center    = pOutput->pOutBuff[i].y_center;
 844              		.loc 1 228 48 view .LVU249
 845 0042 C3F800C0 		str	ip, [r3]	@ float
 229:../Middlewares/stm32-vision-models-postprocessing/lib_vision_models_pp/Src/od_pp_yolov8.c ****       pOutput->pOutBuff[det_count].width       = pOutput->pOutBuff[i].width;
 846              		.loc 1 229 7 is_stmt 1 view .LVU250
 229:../Middlewares/stm32-vision-models-postprocessing/lib_vision_models_pp/Src/od_pp_yolov8.c ****       pOutput->pOutBuff[det_count].width       = pOutput->pOutBuff[i].width;
 847              		.loc 1 229 70 is_stmt 0 view .LVU251
 848 0046 D2F804C0 		ldr	ip, [r2, #4]	@ float
 229:../Middlewares/stm32-vision-models-postprocessing/lib_vision_models_pp/Src/od_pp_yolov8.c ****       pOutput->pOutBuff[det_count].width       = pOutput->pOutBuff[i].width;
 849              		.loc 1 229 48 view .LVU252
 850 004a C3F804C0 		str	ip, [r3, #4]	@ float
 230:../Middlewares/stm32-vision-models-postprocessing/lib_vision_models_pp/Src/od_pp_yolov8.c ****       pOutput->pOutBuff[det_count].height      = pOutput->pOutBuff[i].height;
 851              		.loc 1 230 7 is_stmt 1 view .LVU253
 230:../Middlewares/stm32-vision-models-postprocessing/lib_vision_models_pp/Src/od_pp_yolov8.c ****       pOutput->pOutBuff[det_count].height      = pOutput->pOutBuff[i].height;
 852              		.loc 1 230 70 is_stmt 0 view .LVU254
 853 004e D2F808C0 		ldr	ip, [r2, #8]	@ float
 230:../Middlewares/stm32-vision-models-postprocessing/lib_vision_models_pp/Src/od_pp_yolov8.c ****       pOutput->pOutBuff[det_count].height      = pOutput->pOutBuff[i].height;
 854              		.loc 1 230 48 view .LVU255
 855 0052 C3F808C0 		str	ip, [r3, #8]	@ float
 231:../Middlewares/stm32-vision-models-postprocessing/lib_vision_models_pp/Src/od_pp_yolov8.c ****       pOutput->pOutBuff[det_count].conf        = pOutput->pOutBuff[i].conf;
 856              		.loc 1 231 7 is_stmt 1 view .LVU256
 231:../Middlewares/stm32-vision-models-postprocessing/lib_vision_models_pp/Src/od_pp_yolov8.c ****       pOutput->pOutBuff[det_count].conf        = pOutput->pOutBuff[i].conf;
 857              		.loc 1 231 70 is_stmt 0 view .LVU257
 858 0056 D2F80CC0 		ldr	ip, [r2, #12]	@ float
 232:../Middlewares/stm32-vision-models-postprocessing/lib_vision_models_pp/Src/od_pp_yolov8.c ****       pOutput->pOutBuff[det_count].class_index = pOutput->pOutBuff[i].class_index;
 859              		.loc 1 232 48 view .LVU258
 860 005a C3ED047A 		vstr.32	s15, [r3, #16]
 233:../Middlewares/stm32-vision-models-postprocessing/lib_vision_models_pp/Src/od_pp_yolov8.c ****       det_count++;
 861              		.loc 1 233 70 view .LVU259
 862 005e 5269     		ldr	r2, [r2, #20]
 231:../Middlewares/stm32-vision-models-postprocessing/lib_vision_models_pp/Src/od_pp_yolov8.c ****       pOutput->pOutBuff[det_count].conf        = pOutput->pOutBuff[i].conf;
 863              		.loc 1 231 48 view .LVU260
 864 0060 C3F80CC0 		str	ip, [r3, #12]	@ float
 232:../Middlewares/stm32-vision-models-postprocessing/lib_vision_models_pp/Src/od_pp_yolov8.c ****       pOutput->pOutBuff[det_count].class_index = pOutput->pOutBuff[i].class_index;
 865              		.loc 1 232 7 is_stmt 1 view .LVU261
 233:../Middlewares/stm32-vision-models-postprocessing/lib_vision_models_pp/Src/od_pp_yolov8.c ****       det_count++;
 866              		.loc 1 233 7 view .LVU262
 233:../Middlewares/stm32-vision-models-postprocessing/lib_vision_models_pp/Src/od_pp_yolov8.c ****       det_count++;
 867              		.loc 1 233 48 is_stmt 0 view .LVU263
 868 0064 5A61     		str	r2, [r3, #20]
 234:../Middlewares/stm32-vision-models-postprocessing/lib_vision_models_pp/Src/od_pp_yolov8.c ****     }
 869              		.loc 1 234 7 is_stmt 1 view .LVU264
 870              	.LVL79:
 871              	.L80:
 224:../Middlewares/stm32-vision-models-postprocessing/lib_vision_models_pp/Src/od_pp_yolov8.c ****   {
 872              		.loc 1 224 60 discriminator 2 view .LVU265
 873 0066 0136     		adds	r6, r6, #1
 874              	.LVL80:
 224:../Middlewares/stm32-vision-models-postprocessing/lib_vision_models_pp/Src/od_pp_yolov8.c ****   {
 875              		.loc 1 224 60 is_stmt 0 discriminator 2 view .LVU266
 876 0068 D5E7     		b	.L79
 877              	.LBE35:
 878              		.cfi_endproc
 879              	.LFE778:
 881              		.section	.text.yolov8_pp_scoreFiltering_centroid_is8,"ax",%progbits
 882              		.align	1
ARM GAS  /tmp/cc8dX4ay.s 			page 24


 883              		.global	yolov8_pp_scoreFiltering_centroid_is8
 884              		.syntax unified
 885              		.thumb
 886              		.thumb_func
 888              	yolov8_pp_scoreFiltering_centroid_is8:
 889              	.LVL81:
 890              	.LFB779:
 241:../Middlewares/stm32-vision-models-postprocessing/lib_vision_models_pp/Src/od_pp_yolov8.c **** 
 242:../Middlewares/stm32-vision-models-postprocessing/lib_vision_models_pp/Src/od_pp_yolov8.c **** int32_t yolov8_pp_scoreFiltering_centroid_is8(od_yolov8_pp_scratch_s8_t *ptrScratch,
 243:../Middlewares/stm32-vision-models-postprocessing/lib_vision_models_pp/Src/od_pp_yolov8.c ****                                               od_pp_out_t *pOutput,
 244:../Middlewares/stm32-vision-models-postprocessing/lib_vision_models_pp/Src/od_pp_yolov8.c ****                                               od_yolov8_pp_static_param_t *pInput_static_param)
 245:../Middlewares/stm32-vision-models-postprocessing/lib_vision_models_pp/Src/od_pp_yolov8.c **** {
 891              		.loc 1 245 1 is_stmt 1 view -0
 892              		.cfi_startproc
 893              		@ args = 0, pretend = 0, frame = 0
 894              		@ frame_needed = 0, uses_anonymous_args = 0
 246:../Middlewares/stm32-vision-models-postprocessing/lib_vision_models_pp/Src/od_pp_yolov8.c ****   int32_t det_count = 0;
 895              		.loc 1 246 3 view .LVU268
 247:../Middlewares/stm32-vision-models-postprocessing/lib_vision_models_pp/Src/od_pp_yolov8.c ****   int8_t zero_point = pInput_static_param->raw_output_zero_point;
 896              		.loc 1 247 3 view .LVU269
 248:../Middlewares/stm32-vision-models-postprocessing/lib_vision_models_pp/Src/od_pp_yolov8.c ****   float32_t scale = pInput_static_param->raw_output_scale;
 249:../Middlewares/stm32-vision-models-postprocessing/lib_vision_models_pp/Src/od_pp_yolov8.c ****   int8_t conf_threshold_s8 = (int8_t)(pInput_static_param->conf_threshold / scale + 0.5f) + zero_po
 897              		.loc 1 249 75 is_stmt 0 view .LVU270
 898 0000 D2ED036A 		vldr.32	s13, [r2, #12]
 248:../Middlewares/stm32-vision-models-postprocessing/lib_vision_models_pp/Src/od_pp_yolov8.c ****   float32_t scale = pInput_static_param->raw_output_scale;
 899              		.loc 1 248 13 view .LVU271
 900 0004 92ED057A 		vldr.32	s14, [r2, #20]
 901              		.loc 1 249 75 view .LVU272
 902 0008 C6EE877A 		vdiv.f32	s15, s13, s14
 903              		.loc 1 249 83 view .LVU273
 904 000c F6EE006A 		vmov.f32	s13, #5.0e-1
 905 0010 77EEA67A 		vadd.f32	s15, s15, s13
 906              		.loc 1 249 30 view .LVU274
 907 0014 FDEEE77A 		vcvt.s32.f32	s15, s15
 246:../Middlewares/stm32-vision-models-postprocessing/lib_vision_models_pp/Src/od_pp_yolov8.c ****   int8_t zero_point = pInput_static_param->raw_output_zero_point;
 908              		.loc 1 246 11 view .LVU275
 909 0018 4FF0000C 		mov	ip, #0
 245:../Middlewares/stm32-vision-models-postprocessing/lib_vision_models_pp/Src/od_pp_yolov8.c ****   int32_t det_count = 0;
 910              		.loc 1 245 1 view .LVU276
 911 001c F0B5     		push	{r4, r5, r6, r7, lr}
 912              		.cfi_def_cfa_offset 20
 913              		.cfi_offset 4, -20
 914              		.cfi_offset 5, -16
 915              		.cfi_offset 6, -12
 916              		.cfi_offset 7, -8
 917              		.cfi_offset 14, -4
 247:../Middlewares/stm32-vision-models-postprocessing/lib_vision_models_pp/Src/od_pp_yolov8.c ****   float32_t scale = pInput_static_param->raw_output_scale;
 918              		.loc 1 247 10 view .LVU277
 919 001e 92F91860 		ldrsb	r6, [r2, #24]
 920              	.LVL82:
 248:../Middlewares/stm32-vision-models-postprocessing/lib_vision_models_pp/Src/od_pp_yolov8.c ****   int8_t conf_threshold_s8 = (int8_t)(pInput_static_param->conf_threshold / scale + 0.5f) + zero_po
 921              		.loc 1 248 3 is_stmt 1 view .LVU278
 922              		.loc 1 249 3 view .LVU279
 923              	.LBB36:
 250:../Middlewares/stm32-vision-models-postprocessing/lib_vision_models_pp/Src/od_pp_yolov8.c **** 
 251:../Middlewares/stm32-vision-models-postprocessing/lib_vision_models_pp/Src/od_pp_yolov8.c ****   for (int32_t i = 0; i < pInput_static_param->nb_detect; i++)
 924              		.loc 1 251 46 is_stmt 0 discriminator 1 view .LVU280
ARM GAS  /tmp/cc8dX4ay.s 			page 25


 925 0022 D269     		ldr	r2, [r2, #28]
 926              	.LVL83:
 927              		.loc 1 251 46 discriminator 1 view .LVU281
 928              	.LBE36:
 249:../Middlewares/stm32-vision-models-postprocessing/lib_vision_models_pp/Src/od_pp_yolov8.c **** 
 929              		.loc 1 249 30 view .LVU282
 930 0024 17EE903A 		vmov	r3, s15	@ int
 931 0028 6245     		cmp	r2, ip
 932              	.LBB37:
 252:../Middlewares/stm32-vision-models-postprocessing/lib_vision_models_pp/Src/od_pp_yolov8.c ****   {
 253:../Middlewares/stm32-vision-models-postprocessing/lib_vision_models_pp/Src/od_pp_yolov8.c ****     if (ptrScratch[i].conf >= conf_threshold_s8)
 254:../Middlewares/stm32-vision-models-postprocessing/lib_vision_models_pp/Src/od_pp_yolov8.c ****     {
 255:../Middlewares/stm32-vision-models-postprocessing/lib_vision_models_pp/Src/od_pp_yolov8.c ****       pOutput->pOutBuff[det_count].x_center    = scale * (float32_t)((int32_t)ptrScratch[i].x_cente
 933              		.loc 1 255 24 view .LVU283
 934 002a 02F10107 		add	r7, r2, #1
 935 002e 4FF0180E 		mov	lr, #24
 936 0032 B8BF     		it	lt
 937 0034 0127     		movlt	r7, #1
 938              	.LBE37:
 249:../Middlewares/stm32-vision-models-postprocessing/lib_vision_models_pp/Src/od_pp_yolov8.c **** 
 939              		.loc 1 249 91 view .LVU284
 940 0036 3344     		add	r3, r3, r6
 249:../Middlewares/stm32-vision-models-postprocessing/lib_vision_models_pp/Src/od_pp_yolov8.c **** 
 941              		.loc 1 249 10 view .LVU285
 942 0038 5BB2     		sxtb	r3, r3
 943              	.LVL84:
 251:../Middlewares/stm32-vision-models-postprocessing/lib_vision_models_pp/Src/od_pp_yolov8.c ****   {
 944              		.loc 1 251 3 is_stmt 1 view .LVU286
 945              	.LBB38:
 251:../Middlewares/stm32-vision-models-postprocessing/lib_vision_models_pp/Src/od_pp_yolov8.c ****   {
 946              		.loc 1 251 8 view .LVU287
 947              	.L86:
 251:../Middlewares/stm32-vision-models-postprocessing/lib_vision_models_pp/Src/od_pp_yolov8.c ****   {
 948              		.loc 1 251 25 discriminator 1 view .LVU288
 949 003a 013F     		subs	r7, r7, #1
 950 003c 03D1     		bne	.L88
 951              	.LBE38:
 256:../Middlewares/stm32-vision-models-postprocessing/lib_vision_models_pp/Src/od_pp_yolov8.c ****       pOutput->pOutBuff[det_count].y_center    = scale * (float32_t)((int32_t)ptrScratch[i].y_cente
 257:../Middlewares/stm32-vision-models-postprocessing/lib_vision_models_pp/Src/od_pp_yolov8.c ****       pOutput->pOutBuff[det_count].width       = scale * (float32_t)((int32_t)ptrScratch[i].width  
 258:../Middlewares/stm32-vision-models-postprocessing/lib_vision_models_pp/Src/od_pp_yolov8.c ****       pOutput->pOutBuff[det_count].height      = scale * (float32_t)((int32_t)ptrScratch[i].height 
 259:../Middlewares/stm32-vision-models-postprocessing/lib_vision_models_pp/Src/od_pp_yolov8.c ****       pOutput->pOutBuff[det_count].conf        = scale * (float32_t)((int32_t)ptrScratch[i].conf   
 260:../Middlewares/stm32-vision-models-postprocessing/lib_vision_models_pp/Src/od_pp_yolov8.c ****       pOutput->pOutBuff[det_count].class_index = (int32_t)ptrScratch[i].class_index;
 261:../Middlewares/stm32-vision-models-postprocessing/lib_vision_models_pp/Src/od_pp_yolov8.c ****       det_count++;
 262:../Middlewares/stm32-vision-models-postprocessing/lib_vision_models_pp/Src/od_pp_yolov8.c ****     }
 263:../Middlewares/stm32-vision-models-postprocessing/lib_vision_models_pp/Src/od_pp_yolov8.c ****   }
 264:../Middlewares/stm32-vision-models-postprocessing/lib_vision_models_pp/Src/od_pp_yolov8.c ****   pOutput->nb_detect = det_count;
 952              		.loc 1 264 3 view .LVU289
 265:../Middlewares/stm32-vision-models-postprocessing/lib_vision_models_pp/Src/od_pp_yolov8.c **** 
 266:../Middlewares/stm32-vision-models-postprocessing/lib_vision_models_pp/Src/od_pp_yolov8.c ****   return (AI_OD_POSTPROCESS_ERROR_NO);
 267:../Middlewares/stm32-vision-models-postprocessing/lib_vision_models_pp/Src/od_pp_yolov8.c **** }
 953              		.loc 1 267 1 is_stmt 0 view .LVU290
 954 003e 0020     		movs	r0, #0
 264:../Middlewares/stm32-vision-models-postprocessing/lib_vision_models_pp/Src/od_pp_yolov8.c **** 
 955              		.loc 1 264 22 view .LVU291
 956 0040 C1F804C0 		str	ip, [r1, #4]
 266:../Middlewares/stm32-vision-models-postprocessing/lib_vision_models_pp/Src/od_pp_yolov8.c **** }
 957              		.loc 1 266 3 is_stmt 1 view .LVU292
ARM GAS  /tmp/cc8dX4ay.s 			page 26


 958              		.loc 1 267 1 is_stmt 0 view .LVU293
 959 0044 F0BD     		pop	{r4, r5, r6, r7, pc}
 960              	.LVL85:
 961              	.L88:
 962              	.LBB39:
 253:../Middlewares/stm32-vision-models-postprocessing/lib_vision_models_pp/Src/od_pp_yolov8.c ****     {
 963              		.loc 1 253 5 is_stmt 1 view .LVU294
 253:../Middlewares/stm32-vision-models-postprocessing/lib_vision_models_pp/Src/od_pp_yolov8.c ****     {
 964              		.loc 1 253 22 is_stmt 0 view .LVU295
 965 0046 90F90440 		ldrsb	r4, [r0, #4]
 253:../Middlewares/stm32-vision-models-postprocessing/lib_vision_models_pp/Src/od_pp_yolov8.c ****     {
 966              		.loc 1 253 8 view .LVU296
 967 004a 9C42     		cmp	r4, r3
 968 004c 3BDB     		blt	.L87
 255:../Middlewares/stm32-vision-models-postprocessing/lib_vision_models_pp/Src/od_pp_yolov8.c ****       pOutput->pOutBuff[det_count].y_center    = scale * (float32_t)((int32_t)ptrScratch[i].y_cente
 969              		.loc 1 255 7 is_stmt 1 view .LVU297
 255:../Middlewares/stm32-vision-models-postprocessing/lib_vision_models_pp/Src/od_pp_yolov8.c ****       pOutput->pOutBuff[det_count].y_center    = scale * (float32_t)((int32_t)ptrScratch[i].y_cente
 970              		.loc 1 255 70 is_stmt 0 view .LVU298
 971 004e 90F90050 		ldrsb	r5, [r0]
 255:../Middlewares/stm32-vision-models-postprocessing/lib_vision_models_pp/Src/od_pp_yolov8.c ****       pOutput->pOutBuff[det_count].y_center    = scale * (float32_t)((int32_t)ptrScratch[i].y_cente
 972              		.loc 1 255 24 view .LVU299
 973 0052 0A68     		ldr	r2, [r1]
 255:../Middlewares/stm32-vision-models-postprocessing/lib_vision_models_pp/Src/od_pp_yolov8.c ****       pOutput->pOutBuff[det_count].y_center    = scale * (float32_t)((int32_t)ptrScratch[i].y_cente
 974              		.loc 1 255 105 view .LVU300
 975 0054 AD1B     		subs	r5, r5, r6
 976 0056 07EE905A 		vmov	s15, r5	@ int
 255:../Middlewares/stm32-vision-models-postprocessing/lib_vision_models_pp/Src/od_pp_yolov8.c ****       pOutput->pOutBuff[det_count].y_center    = scale * (float32_t)((int32_t)ptrScratch[i].y_cente
 977              		.loc 1 255 58 view .LVU301
 978 005a F8EEE77A 		vcvt.f32.s32	s15, s15
 255:../Middlewares/stm32-vision-models-postprocessing/lib_vision_models_pp/Src/od_pp_yolov8.c ****       pOutput->pOutBuff[det_count].y_center    = scale * (float32_t)((int32_t)ptrScratch[i].y_cente
 979              		.loc 1 255 56 view .LVU302
 980 005e 67EE877A 		vmul.f32	s15, s15, s14
 255:../Middlewares/stm32-vision-models-postprocessing/lib_vision_models_pp/Src/od_pp_yolov8.c ****       pOutput->pOutBuff[det_count].y_center    = scale * (float32_t)((int32_t)ptrScratch[i].y_cente
 981              		.loc 1 255 24 view .LVU303
 982 0062 0EFB0C22 		mla	r2, lr, ip, r2
 255:../Middlewares/stm32-vision-models-postprocessing/lib_vision_models_pp/Src/od_pp_yolov8.c ****       pOutput->pOutBuff[det_count].y_center    = scale * (float32_t)((int32_t)ptrScratch[i].y_cente
 983              		.loc 1 255 48 view .LVU304
 984 0066 C2ED007A 		vstr.32	s15, [r2]
 256:../Middlewares/stm32-vision-models-postprocessing/lib_vision_models_pp/Src/od_pp_yolov8.c ****       pOutput->pOutBuff[det_count].width       = scale * (float32_t)((int32_t)ptrScratch[i].width  
 985              		.loc 1 256 7 is_stmt 1 view .LVU305
 256:../Middlewares/stm32-vision-models-postprocessing/lib_vision_models_pp/Src/od_pp_yolov8.c ****       pOutput->pOutBuff[det_count].width       = scale * (float32_t)((int32_t)ptrScratch[i].width  
 986              		.loc 1 256 70 is_stmt 0 view .LVU306
 987 006a 90F90150 		ldrsb	r5, [r0, #1]
 259:../Middlewares/stm32-vision-models-postprocessing/lib_vision_models_pp/Src/od_pp_yolov8.c ****       pOutput->pOutBuff[det_count].class_index = (int32_t)ptrScratch[i].class_index;
 988              		.loc 1 259 105 view .LVU307
 989 006e A41B     		subs	r4, r4, r6
 256:../Middlewares/stm32-vision-models-postprocessing/lib_vision_models_pp/Src/od_pp_yolov8.c ****       pOutput->pOutBuff[det_count].width       = scale * (float32_t)((int32_t)ptrScratch[i].width  
 990              		.loc 1 256 105 view .LVU308
 991 0070 AD1B     		subs	r5, r5, r6
 992 0072 07EE905A 		vmov	s15, r5	@ int
 256:../Middlewares/stm32-vision-models-postprocessing/lib_vision_models_pp/Src/od_pp_yolov8.c ****       pOutput->pOutBuff[det_count].width       = scale * (float32_t)((int32_t)ptrScratch[i].width  
 993              		.loc 1 256 58 view .LVU309
 994 0076 F8EEE77A 		vcvt.f32.s32	s15, s15
 256:../Middlewares/stm32-vision-models-postprocessing/lib_vision_models_pp/Src/od_pp_yolov8.c ****       pOutput->pOutBuff[det_count].width       = scale * (float32_t)((int32_t)ptrScratch[i].width  
 995              		.loc 1 256 56 view .LVU310
 996 007a 67EE877A 		vmul.f32	s15, s15, s14
 256:../Middlewares/stm32-vision-models-postprocessing/lib_vision_models_pp/Src/od_pp_yolov8.c ****       pOutput->pOutBuff[det_count].width       = scale * (float32_t)((int32_t)ptrScratch[i].width  
ARM GAS  /tmp/cc8dX4ay.s 			page 27


 997              		.loc 1 256 48 view .LVU311
 998 007e C2ED017A 		vstr.32	s15, [r2, #4]
 257:../Middlewares/stm32-vision-models-postprocessing/lib_vision_models_pp/Src/od_pp_yolov8.c ****       pOutput->pOutBuff[det_count].height      = scale * (float32_t)((int32_t)ptrScratch[i].height 
 999              		.loc 1 257 7 is_stmt 1 view .LVU312
 257:../Middlewares/stm32-vision-models-postprocessing/lib_vision_models_pp/Src/od_pp_yolov8.c ****       pOutput->pOutBuff[det_count].height      = scale * (float32_t)((int32_t)ptrScratch[i].height 
 1000              		.loc 1 257 70 is_stmt 0 view .LVU313
 1001 0082 90F90250 		ldrsb	r5, [r0, #2]
 261:../Middlewares/stm32-vision-models-postprocessing/lib_vision_models_pp/Src/od_pp_yolov8.c ****     }
 1002              		.loc 1 261 16 view .LVU314
 1003 0086 0CF1010C 		add	ip, ip, #1
 1004              	.LVL86:
 257:../Middlewares/stm32-vision-models-postprocessing/lib_vision_models_pp/Src/od_pp_yolov8.c ****       pOutput->pOutBuff[det_count].height      = scale * (float32_t)((int32_t)ptrScratch[i].height 
 1005              		.loc 1 257 105 view .LVU315
 1006 008a AD1B     		subs	r5, r5, r6
 1007 008c 07EE905A 		vmov	s15, r5	@ int
 257:../Middlewares/stm32-vision-models-postprocessing/lib_vision_models_pp/Src/od_pp_yolov8.c ****       pOutput->pOutBuff[det_count].height      = scale * (float32_t)((int32_t)ptrScratch[i].height 
 1008              		.loc 1 257 58 view .LVU316
 1009 0090 F8EEE77A 		vcvt.f32.s32	s15, s15
 257:../Middlewares/stm32-vision-models-postprocessing/lib_vision_models_pp/Src/od_pp_yolov8.c ****       pOutput->pOutBuff[det_count].height      = scale * (float32_t)((int32_t)ptrScratch[i].height 
 1010              		.loc 1 257 56 view .LVU317
 1011 0094 67EE877A 		vmul.f32	s15, s15, s14
 257:../Middlewares/stm32-vision-models-postprocessing/lib_vision_models_pp/Src/od_pp_yolov8.c ****       pOutput->pOutBuff[det_count].height      = scale * (float32_t)((int32_t)ptrScratch[i].height 
 1012              		.loc 1 257 48 view .LVU318
 1013 0098 C2ED027A 		vstr.32	s15, [r2, #8]
 258:../Middlewares/stm32-vision-models-postprocessing/lib_vision_models_pp/Src/od_pp_yolov8.c ****       pOutput->pOutBuff[det_count].conf        = scale * (float32_t)((int32_t)ptrScratch[i].conf   
 1014              		.loc 1 258 7 is_stmt 1 view .LVU319
 258:../Middlewares/stm32-vision-models-postprocessing/lib_vision_models_pp/Src/od_pp_yolov8.c ****       pOutput->pOutBuff[det_count].conf        = scale * (float32_t)((int32_t)ptrScratch[i].conf   
 1015              		.loc 1 258 70 is_stmt 0 view .LVU320
 1016 009c 90F90350 		ldrsb	r5, [r0, #3]
 258:../Middlewares/stm32-vision-models-postprocessing/lib_vision_models_pp/Src/od_pp_yolov8.c ****       pOutput->pOutBuff[det_count].conf        = scale * (float32_t)((int32_t)ptrScratch[i].conf   
 1017              		.loc 1 258 105 view .LVU321
 1018 00a0 AD1B     		subs	r5, r5, r6
 1019 00a2 07EE905A 		vmov	s15, r5	@ int
 258:../Middlewares/stm32-vision-models-postprocessing/lib_vision_models_pp/Src/od_pp_yolov8.c ****       pOutput->pOutBuff[det_count].conf        = scale * (float32_t)((int32_t)ptrScratch[i].conf   
 1020              		.loc 1 258 58 view .LVU322
 1021 00a6 F8EEE77A 		vcvt.f32.s32	s15, s15
 258:../Middlewares/stm32-vision-models-postprocessing/lib_vision_models_pp/Src/od_pp_yolov8.c ****       pOutput->pOutBuff[det_count].conf        = scale * (float32_t)((int32_t)ptrScratch[i].conf   
 1022              		.loc 1 258 56 view .LVU323
 1023 00aa 67EE877A 		vmul.f32	s15, s15, s14
 258:../Middlewares/stm32-vision-models-postprocessing/lib_vision_models_pp/Src/od_pp_yolov8.c ****       pOutput->pOutBuff[det_count].conf        = scale * (float32_t)((int32_t)ptrScratch[i].conf   
 1024              		.loc 1 258 48 view .LVU324
 1025 00ae C2ED037A 		vstr.32	s15, [r2, #12]
 259:../Middlewares/stm32-vision-models-postprocessing/lib_vision_models_pp/Src/od_pp_yolov8.c ****       pOutput->pOutBuff[det_count].class_index = (int32_t)ptrScratch[i].class_index;
 1026              		.loc 1 259 7 is_stmt 1 view .LVU325
 259:../Middlewares/stm32-vision-models-postprocessing/lib_vision_models_pp/Src/od_pp_yolov8.c ****       pOutput->pOutBuff[det_count].class_index = (int32_t)ptrScratch[i].class_index;
 1027              		.loc 1 259 105 is_stmt 0 view .LVU326
 1028 00b2 07EE904A 		vmov	s15, r4	@ int
 259:../Middlewares/stm32-vision-models-postprocessing/lib_vision_models_pp/Src/od_pp_yolov8.c ****       pOutput->pOutBuff[det_count].class_index = (int32_t)ptrScratch[i].class_index;
 1029              		.loc 1 259 58 view .LVU327
 1030 00b6 F8EEE77A 		vcvt.f32.s32	s15, s15
 259:../Middlewares/stm32-vision-models-postprocessing/lib_vision_models_pp/Src/od_pp_yolov8.c ****       pOutput->pOutBuff[det_count].class_index = (int32_t)ptrScratch[i].class_index;
 1031              		.loc 1 259 56 view .LVU328
 1032 00ba 67EE877A 		vmul.f32	s15, s15, s14
 259:../Middlewares/stm32-vision-models-postprocessing/lib_vision_models_pp/Src/od_pp_yolov8.c ****       pOutput->pOutBuff[det_count].class_index = (int32_t)ptrScratch[i].class_index;
 1033              		.loc 1 259 48 view .LVU329
 1034 00be C2ED047A 		vstr.32	s15, [r2, #16]
 260:../Middlewares/stm32-vision-models-postprocessing/lib_vision_models_pp/Src/od_pp_yolov8.c ****       det_count++;
ARM GAS  /tmp/cc8dX4ay.s 			page 28


 1035              		.loc 1 260 7 is_stmt 1 view .LVU330
 260:../Middlewares/stm32-vision-models-postprocessing/lib_vision_models_pp/Src/od_pp_yolov8.c ****       det_count++;
 1036              		.loc 1 260 50 is_stmt 0 view .LVU331
 1037 00c2 4479     		ldrb	r4, [r0, #5]	@ zero_extendqisi2
 1038 00c4 5461     		str	r4, [r2, #20]
 261:../Middlewares/stm32-vision-models-postprocessing/lib_vision_models_pp/Src/od_pp_yolov8.c ****     }
 1039              		.loc 1 261 7 is_stmt 1 view .LVU332
 1040              	.LVL87:
 1041              	.L87:
 251:../Middlewares/stm32-vision-models-postprocessing/lib_vision_models_pp/Src/od_pp_yolov8.c ****   {
 1042              		.loc 1 251 60 discriminator 2 view .LVU333
 1043 00c6 0630     		adds	r0, r0, #6
 1044 00c8 B7E7     		b	.L86
 1045              	.LBE39:
 1046              		.cfi_endproc
 1047              	.LFE779:
 1049              		.section	.text.yolov8_pp_getNNBoxes_centroid,"ax",%progbits
 1050              		.align	1
 1051              		.global	yolov8_pp_getNNBoxes_centroid
 1052              		.syntax unified
 1053              		.thumb
 1054              		.thumb_func
 1056              	yolov8_pp_getNNBoxes_centroid:
 1057              	.LVL88:
 1058              	.LFB780:
 268:../Middlewares/stm32-vision-models-postprocessing/lib_vision_models_pp/Src/od_pp_yolov8.c **** 
 269:../Middlewares/stm32-vision-models-postprocessing/lib_vision_models_pp/Src/od_pp_yolov8.c **** int32_t yolov8_pp_getNNBoxes_centroid(od_yolov8_pp_in_centroid_t *pInput,
 270:../Middlewares/stm32-vision-models-postprocessing/lib_vision_models_pp/Src/od_pp_yolov8.c ****                                       od_pp_out_t *pOutput,
 271:../Middlewares/stm32-vision-models-postprocessing/lib_vision_models_pp/Src/od_pp_yolov8.c ****                                       od_yolov8_pp_static_param_t *pInput_static_param)
 272:../Middlewares/stm32-vision-models-postprocessing/lib_vision_models_pp/Src/od_pp_yolov8.c **** {
 1059              		.loc 1 272 1 view -0
 1060              		.cfi_startproc
 1061              		@ args = 0, pretend = 0, frame = 56
 1062              		@ frame_needed = 0, uses_anonymous_args = 0
 273:../Middlewares/stm32-vision-models-postprocessing/lib_vision_models_pp/Src/od_pp_yolov8.c ****   int32_t error   = AI_OD_POSTPROCESS_ERROR_NO;
 1063              		.loc 1 273 3 view .LVU335
 274:../Middlewares/stm32-vision-models-postprocessing/lib_vision_models_pp/Src/od_pp_yolov8.c ****   int32_t nb_classes = pInput_static_param->nb_classes;
 1064              		.loc 1 274 3 view .LVU336
 272:../Middlewares/stm32-vision-models-postprocessing/lib_vision_models_pp/Src/od_pp_yolov8.c ****   int32_t error   = AI_OD_POSTPROCESS_ERROR_NO;
 1065              		.loc 1 272 1 is_stmt 0 view .LVU337
 1066 0000 2DE9F04F 		push	{r4, r5, r6, r7, r8, r9, r10, fp, lr}
 1067              		.cfi_def_cfa_offset 36
 1068              		.cfi_offset 4, -36
 1069              		.cfi_offset 5, -32
 1070              		.cfi_offset 6, -28
 1071              		.cfi_offset 7, -24
 1072              		.cfi_offset 8, -20
 1073              		.cfi_offset 9, -16
 1074              		.cfi_offset 10, -12
 1075              		.cfi_offset 11, -8
 1076              		.cfi_offset 14, -4
 1077              	.LBB40:
 275:../Middlewares/stm32-vision-models-postprocessing/lib_vision_models_pp/Src/od_pp_yolov8.c ****   int32_t nb_total_boxes = pInput_static_param->nb_total_boxes;
 276:../Middlewares/stm32-vision-models-postprocessing/lib_vision_models_pp/Src/od_pp_yolov8.c ****   float32_t *pRaw_detections = (float32_t *)pInput->pRaw_detections;
 277:../Middlewares/stm32-vision-models-postprocessing/lib_vision_models_pp/Src/od_pp_yolov8.c ****   int32_t remaining_boxes = nb_total_boxes;
 278:../Middlewares/stm32-vision-models-postprocessing/lib_vision_models_pp/Src/od_pp_yolov8.c **** 
 279:../Middlewares/stm32-vision-models-postprocessing/lib_vision_models_pp/Src/od_pp_yolov8.c ****   int32_t nb_detect = 0;
ARM GAS  /tmp/cc8dX4ay.s 			page 29


 280:../Middlewares/stm32-vision-models-postprocessing/lib_vision_models_pp/Src/od_pp_yolov8.c ****   od_pp_outBuffer_t *pOutBuff = (od_pp_outBuffer_t *)pOutput->pOutBuff;
 281:../Middlewares/stm32-vision-models-postprocessing/lib_vision_models_pp/Src/od_pp_yolov8.c **** 
 282:../Middlewares/stm32-vision-models-postprocessing/lib_vision_models_pp/Src/od_pp_yolov8.c ****   for (int32_t i = 0; i < nb_total_boxes; i+=4)
 1078              		.loc 1 282 16 view .LVU338
 1079 0004 0026     		movs	r6, #0
 1080              	.LBE40:
 274:../Middlewares/stm32-vision-models-postprocessing/lib_vision_models_pp/Src/od_pp_yolov8.c ****   int32_t nb_total_boxes = pInput_static_param->nb_total_boxes;
 1081              		.loc 1 274 11 view .LVU339
 1082 0006 1368     		ldr	r3, [r2]
 272:../Middlewares/stm32-vision-models-postprocessing/lib_vision_models_pp/Src/od_pp_yolov8.c ****   int32_t error   = AI_OD_POSTPROCESS_ERROR_NO;
 1083              		.loc 1 272 1 view .LVU340
 1084 0008 91B0     		sub	sp, sp, #68
 1085              		.cfi_def_cfa_offset 104
 275:../Middlewares/stm32-vision-models-postprocessing/lib_vision_models_pp/Src/od_pp_yolov8.c ****   int32_t nb_total_boxes = pInput_static_param->nb_total_boxes;
 1086              		.loc 1 275 11 view .LVU341
 1087 000a 5468     		ldr	r4, [r2, #4]
 274:../Middlewares/stm32-vision-models-postprocessing/lib_vision_models_pp/Src/od_pp_yolov8.c ****   int32_t nb_total_boxes = pInput_static_param->nb_total_boxes;
 1088              		.loc 1 274 11 view .LVU342
 1089 000c 0393     		str	r3, [sp, #12]
 1090              	.LVL89:
 275:../Middlewares/stm32-vision-models-postprocessing/lib_vision_models_pp/Src/od_pp_yolov8.c ****   int32_t nb_total_boxes = pInput_static_param->nb_total_boxes;
 1091              		.loc 1 275 3 is_stmt 1 view .LVU343
 276:../Middlewares/stm32-vision-models-postprocessing/lib_vision_models_pp/Src/od_pp_yolov8.c ****   int32_t remaining_boxes = nb_total_boxes;
 1092              		.loc 1 276 3 view .LVU344
 280:../Middlewares/stm32-vision-models-postprocessing/lib_vision_models_pp/Src/od_pp_yolov8.c **** 
 1093              		.loc 1 280 22 is_stmt 0 view .LVU345
 1094 000e 0B68     		ldr	r3, [r1]
 1095              	.LVL90:
 272:../Middlewares/stm32-vision-models-postprocessing/lib_vision_models_pp/Src/od_pp_yolov8.c ****   int32_t error   = AI_OD_POSTPROCESS_ERROR_NO;
 1096              		.loc 1 272 1 view .LVU346
 1097 0010 1546     		mov	r5, r2
 280:../Middlewares/stm32-vision-models-postprocessing/lib_vision_models_pp/Src/od_pp_yolov8.c **** 
 1098              		.loc 1 280 22 view .LVU347
 1099 0012 0493     		str	r3, [sp, #16]
 1100              	.LBB47:
 1101              	.LBB41:
 283:../Middlewares/stm32-vision-models-postprocessing/lib_vision_models_pp/Src/od_pp_yolov8.c ****   {
 284:../Middlewares/stm32-vision-models-postprocessing/lib_vision_models_pp/Src/od_pp_yolov8.c ****     float32_t best_score_array[4];
 285:../Middlewares/stm32-vision-models-postprocessing/lib_vision_models_pp/Src/od_pp_yolov8.c ****     uint32_t class_index_array[4];
 286:../Middlewares/stm32-vision-models-postprocessing/lib_vision_models_pp/Src/od_pp_yolov8.c **** 
 287:../Middlewares/stm32-vision-models-postprocessing/lib_vision_models_pp/Src/od_pp_yolov8.c ****     vision_models_maxi_tr_p_if32ou32(&pRaw_detections[i + AI_YOLOV8_PP_CLASSPROB * nb_total_boxes],
 1102              		.loc 1 287 82 view .LVU348
 1103 0014 A300     		lsls	r3, r4, #2
 1104 0016 0593     		str	r3, [sp, #20]
 1105 0018 E300     		lsls	r3, r4, #3
 1106 001a 0693     		str	r3, [sp, #24]
 1107 001c 0C23     		movs	r3, #12
 1108              	.LBE41:
 1109              	.LBE47:
 279:../Middlewares/stm32-vision-models-postprocessing/lib_vision_models_pp/Src/od_pp_yolov8.c ****   od_pp_outBuffer_t *pOutBuff = (od_pp_outBuffer_t *)pOutput->pOutBuff;
 1110              		.loc 1 279 11 view .LVU349
 1111 001e B046     		mov	r8, r6
 1112 0020 6343     		muls	r3, r4, r3
 276:../Middlewares/stm32-vision-models-postprocessing/lib_vision_models_pp/Src/od_pp_yolov8.c ****   int32_t remaining_boxes = nb_total_boxes;
 1113              		.loc 1 276 14 view .LVU350
 1114 0022 D0F800A0 		ldr	r10, [r0]
 1115              	.LVL91:
ARM GAS  /tmp/cc8dX4ay.s 			page 30


 277:../Middlewares/stm32-vision-models-postprocessing/lib_vision_models_pp/Src/od_pp_yolov8.c **** 
 1116              		.loc 1 277 3 is_stmt 1 view .LVU351
 279:../Middlewares/stm32-vision-models-postprocessing/lib_vision_models_pp/Src/od_pp_yolov8.c ****   od_pp_outBuffer_t *pOutBuff = (od_pp_outBuffer_t *)pOutput->pOutBuff;
 1117              		.loc 1 279 3 view .LVU352
 280:../Middlewares/stm32-vision-models-postprocessing/lib_vision_models_pp/Src/od_pp_yolov8.c **** 
 1118              		.loc 1 280 3 view .LVU353
 282:../Middlewares/stm32-vision-models-postprocessing/lib_vision_models_pp/Src/od_pp_yolov8.c ****   {
 1119              		.loc 1 282 3 view .LVU354
 1120              	.LBB48:
 282:../Middlewares/stm32-vision-models-postprocessing/lib_vision_models_pp/Src/od_pp_yolov8.c ****   {
 1121              		.loc 1 282 8 view .LVU355
 282:../Middlewares/stm32-vision-models-postprocessing/lib_vision_models_pp/Src/od_pp_yolov8.c ****   {
 1122              		.loc 1 282 8 is_stmt 0 view .LVU356
 1123 0026 0793     		str	r3, [sp, #28]
 1124 0028 0AEB0419 		add	r9, r10, r4, lsl #4
 1125              	.LBB44:
 1126              		.loc 1 287 5 view .LVU357
 1127 002c 08AB     		add	r3, sp, #32
 1128              	.LVL92:
 1129              	.L91:
 1130              		.loc 1 287 5 view .LVU358
 1131              	.LBE44:
 282:../Middlewares/stm32-vision-models-postprocessing/lib_vision_models_pp/Src/od_pp_yolov8.c ****   {
 1132              		.loc 1 282 25 discriminator 1 view .LVU359
 1133 002e A642     		cmp	r6, r4
 1134 0030 A4EB0607 		sub	r7, r4, r6
 1135              	.LVL93:
 282:../Middlewares/stm32-vision-models-postprocessing/lib_vision_models_pp/Src/od_pp_yolov8.c ****   {
 1136              		.loc 1 282 25 is_stmt 1 discriminator 1 view .LVU360
 1137 0034 05DB     		blt	.L96
 1138              	.LBE48:
 288:../Middlewares/stm32-vision-models-postprocessing/lib_vision_models_pp/Src/od_pp_yolov8.c ****                                      nb_classes,
 289:../Middlewares/stm32-vision-models-postprocessing/lib_vision_models_pp/Src/od_pp_yolov8.c ****                                      nb_total_boxes,
 290:../Middlewares/stm32-vision-models-postprocessing/lib_vision_models_pp/Src/od_pp_yolov8.c ****                                      best_score_array,
 291:../Middlewares/stm32-vision-models-postprocessing/lib_vision_models_pp/Src/od_pp_yolov8.c ****                                      class_index_array,
 292:../Middlewares/stm32-vision-models-postprocessing/lib_vision_models_pp/Src/od_pp_yolov8.c ****                                      remaining_boxes);
 293:../Middlewares/stm32-vision-models-postprocessing/lib_vision_models_pp/Src/od_pp_yolov8.c ****     for (int _i = 0; _i < ((remaining_boxes>4)?4:remaining_boxes); _i++)
 294:../Middlewares/stm32-vision-models-postprocessing/lib_vision_models_pp/Src/od_pp_yolov8.c ****     {
 295:../Middlewares/stm32-vision-models-postprocessing/lib_vision_models_pp/Src/od_pp_yolov8.c ****       if (best_score_array[_i] >= pInput_static_param->conf_threshold)
 296:../Middlewares/stm32-vision-models-postprocessing/lib_vision_models_pp/Src/od_pp_yolov8.c ****       {
 297:../Middlewares/stm32-vision-models-postprocessing/lib_vision_models_pp/Src/od_pp_yolov8.c ****         pOutBuff[nb_detect].x_center    = pRaw_detections[i + _i + AI_YOLOV8_PP_XCENTER   * nb_tota
 298:../Middlewares/stm32-vision-models-postprocessing/lib_vision_models_pp/Src/od_pp_yolov8.c ****         pOutBuff[nb_detect].y_center    = pRaw_detections[i + _i + AI_YOLOV8_PP_YCENTER   * nb_tota
 299:../Middlewares/stm32-vision-models-postprocessing/lib_vision_models_pp/Src/od_pp_yolov8.c ****         pOutBuff[nb_detect].width       = pRaw_detections[i + _i + AI_YOLOV8_PP_WIDTHREL  * nb_tota
 300:../Middlewares/stm32-vision-models-postprocessing/lib_vision_models_pp/Src/od_pp_yolov8.c ****         pOutBuff[nb_detect].height      = pRaw_detections[i + _i + AI_YOLOV8_PP_HEIGHTREL * nb_tota
 301:../Middlewares/stm32-vision-models-postprocessing/lib_vision_models_pp/Src/od_pp_yolov8.c ****         pOutBuff[nb_detect].conf        = best_score_array[_i];
 302:../Middlewares/stm32-vision-models-postprocessing/lib_vision_models_pp/Src/od_pp_yolov8.c ****         pOutBuff[nb_detect].class_index = class_index_array[_i];
 303:../Middlewares/stm32-vision-models-postprocessing/lib_vision_models_pp/Src/od_pp_yolov8.c ****         nb_detect++;
 304:../Middlewares/stm32-vision-models-postprocessing/lib_vision_models_pp/Src/od_pp_yolov8.c ****       }
 305:../Middlewares/stm32-vision-models-postprocessing/lib_vision_models_pp/Src/od_pp_yolov8.c ****     }
 306:../Middlewares/stm32-vision-models-postprocessing/lib_vision_models_pp/Src/od_pp_yolov8.c ****     remaining_boxes-=4;
 307:../Middlewares/stm32-vision-models-postprocessing/lib_vision_models_pp/Src/od_pp_yolov8.c ****   } // for nb_total_boxes
 308:../Middlewares/stm32-vision-models-postprocessing/lib_vision_models_pp/Src/od_pp_yolov8.c ****   pInput_static_param->nb_detect = nb_detect;
 1139              		.loc 1 308 3 view .LVU361
 309:../Middlewares/stm32-vision-models-postprocessing/lib_vision_models_pp/Src/od_pp_yolov8.c **** 
 310:../Middlewares/stm32-vision-models-postprocessing/lib_vision_models_pp/Src/od_pp_yolov8.c ****   return (error);
 311:../Middlewares/stm32-vision-models-postprocessing/lib_vision_models_pp/Src/od_pp_yolov8.c **** }
 1140              		.loc 1 311 1 is_stmt 0 view .LVU362
ARM GAS  /tmp/cc8dX4ay.s 			page 31


 1141 0036 0020     		movs	r0, #0
 308:../Middlewares/stm32-vision-models-postprocessing/lib_vision_models_pp/Src/od_pp_yolov8.c **** 
 1142              		.loc 1 308 34 view .LVU363
 1143 0038 C5F81C80 		str	r8, [r5, #28]
 310:../Middlewares/stm32-vision-models-postprocessing/lib_vision_models_pp/Src/od_pp_yolov8.c **** }
 1144              		.loc 1 310 3 is_stmt 1 view .LVU364
 1145              		.loc 1 311 1 is_stmt 0 view .LVU365
 1146 003c 11B0     		add	sp, sp, #68
 1147              		.cfi_remember_state
 1148              		.cfi_def_cfa_offset 36
 1149              		@ sp needed
 1150 003e BDE8F08F 		pop	{r4, r5, r6, r7, r8, r9, r10, fp, pc}
 1151              	.LVL94:
 1152              	.L96:
 1153              		.cfi_restore_state
 1154              	.LBB49:
 1155              	.LBB45:
 284:../Middlewares/stm32-vision-models-postprocessing/lib_vision_models_pp/Src/od_pp_yolov8.c ****     uint32_t class_index_array[4];
 1156              		.loc 1 284 5 is_stmt 1 view .LVU366
 285:../Middlewares/stm32-vision-models-postprocessing/lib_vision_models_pp/Src/od_pp_yolov8.c **** 
 1157              		.loc 1 285 5 view .LVU367
 287:../Middlewares/stm32-vision-models-postprocessing/lib_vision_models_pp/Src/od_pp_yolov8.c ****                                      nb_classes,
 1158              		.loc 1 287 5 view .LVU368
 1159 0042 0DF1300B 		add	fp, sp, #48
 1160 0046 2246     		mov	r2, r4
 1161 0048 4846     		mov	r0, r9
 1162 004a 0197     		str	r7, [sp, #4]
 1163 004c 0399     		ldr	r1, [sp, #12]
 1164 004e CDF800B0 		str	fp, [sp]
 1165 0052 FFF7FEFF 		bl	vision_models_maxi_tr_p_if32ou32
 1166              	.LVL95:
 293:../Middlewares/stm32-vision-models-postprocessing/lib_vision_models_pp/Src/od_pp_yolov8.c ****     {
 1167              		.loc 1 293 5 view .LVU369
 1168              	.LBB42:
 293:../Middlewares/stm32-vision-models-postprocessing/lib_vision_models_pp/Src/od_pp_yolov8.c ****     {
 1169              		.loc 1 293 10 view .LVU370
 293:../Middlewares/stm32-vision-models-postprocessing/lib_vision_models_pp/Src/od_pp_yolov8.c ****     {
 1170              		.loc 1 293 49 is_stmt 0 discriminator 1 view .LVU371
 1171 0056 042F     		cmp	r7, #4
 1172 0058 A8BF     		it	ge
 1173 005a 0427     		movge	r7, #4
 1174              	.LVL96:
 293:../Middlewares/stm32-vision-models-postprocessing/lib_vision_models_pp/Src/od_pp_yolov8.c ****     {
 1175              		.loc 1 293 14 view .LVU372
 1176 005c 0020     		movs	r0, #0
 1177 005e B842     		cmp	r0, r7
 1178 0060 0AEB8602 		add	r2, r10, r6, lsl #2
 302:../Middlewares/stm32-vision-models-postprocessing/lib_vision_models_pp/Src/od_pp_yolov8.c ****         nb_detect++;
 1179              		.loc 1 302 60 view .LVU373
 1180 0064 07F1010C 		add	ip, r7, #1
 1181 0068 08AB     		add	r3, sp, #32
 1182 006a 02DC     		bgt	.L98
 1183 006c B7F1004F 		cmp	r7, #-2147483648
 1184 0070 01D1     		bne	.L92
 1185              	.L98:
 1186 0072 4FF0010C 		mov	ip, #1
 1187              	.LVL97:
ARM GAS  /tmp/cc8dX4ay.s 			page 32


 1188              	.L92:
 293:../Middlewares/stm32-vision-models-postprocessing/lib_vision_models_pp/Src/od_pp_yolov8.c ****     {
 1189              		.loc 1 293 25 is_stmt 1 discriminator 1 view .LVU374
 1190 0076 BCF1010C 		subs	ip, ip, #1
 1191 007a 03D1     		bne	.L95
 293:../Middlewares/stm32-vision-models-postprocessing/lib_vision_models_pp/Src/od_pp_yolov8.c ****     {
 1192              		.loc 1 293 25 is_stmt 0 discriminator 1 view .LVU375
 1193              	.LBE42:
 306:../Middlewares/stm32-vision-models-postprocessing/lib_vision_models_pp/Src/od_pp_yolov8.c ****   } // for nb_total_boxes
 1194              		.loc 1 306 5 is_stmt 1 view .LVU376
 1195              	.LVL98:
 306:../Middlewares/stm32-vision-models-postprocessing/lib_vision_models_pp/Src/od_pp_yolov8.c ****   } // for nb_total_boxes
 1196              		.loc 1 306 5 is_stmt 0 view .LVU377
 1197              	.LBE45:
 282:../Middlewares/stm32-vision-models-postprocessing/lib_vision_models_pp/Src/od_pp_yolov8.c ****   {
 1198              		.loc 1 282 44 is_stmt 1 discriminator 2 view .LVU378
 1199 007c 0436     		adds	r6, r6, #4
 1200              	.LVL99:
 282:../Middlewares/stm32-vision-models-postprocessing/lib_vision_models_pp/Src/od_pp_yolov8.c ****   {
 1201              		.loc 1 282 44 is_stmt 0 discriminator 2 view .LVU379
 1202 007e 09F11009 		add	r9, r9, #16
 1203 0082 D4E7     		b	.L91
 1204              	.L95:
 1205              	.LBB46:
 1206              	.LBB43:
 295:../Middlewares/stm32-vision-models-postprocessing/lib_vision_models_pp/Src/od_pp_yolov8.c ****       {
 1207              		.loc 1 295 7 is_stmt 1 view .LVU380
 295:../Middlewares/stm32-vision-models-postprocessing/lib_vision_models_pp/Src/od_pp_yolov8.c ****       {
 1208              		.loc 1 295 27 is_stmt 0 view .LVU381
 1209 0084 03EB8001 		add	r1, r3, r0, lsl #2
 1210 0088 D1ED007A 		vldr.32	s15, [r1]
 295:../Middlewares/stm32-vision-models-postprocessing/lib_vision_models_pp/Src/od_pp_yolov8.c ****       {
 1211              		.loc 1 295 10 view .LVU382
 1212 008c 95ED037A 		vldr.32	s14, [r5, #12]
 1213 0090 F4EEC77A 		vcmpe.f32	s15, s14
 1214 0094 F1EE10FA 		vmrs	APSR_nzcv, FPSCR
 1215 0098 18DB     		blt	.L93
 297:../Middlewares/stm32-vision-models-postprocessing/lib_vision_models_pp/Src/od_pp_yolov8.c ****         pOutBuff[nb_detect].y_center    = pRaw_detections[i + _i + AI_YOLOV8_PP_YCENTER   * nb_tota
 1216              		.loc 1 297 9 is_stmt 1 view .LVU383
 297:../Middlewares/stm32-vision-models-postprocessing/lib_vision_models_pp/Src/od_pp_yolov8.c ****         pOutBuff[nb_detect].y_center    = pRaw_detections[i + _i + AI_YOLOV8_PP_YCENTER   * nb_tota
 1217              		.loc 1 297 17 is_stmt 0 view .LVU384
 1218 009a 1827     		movs	r7, #24
 1219 009c 0499     		ldr	r1, [sp, #16]
 1220 009e 07FB0811 		mla	r1, r7, r8, r1
 297:../Middlewares/stm32-vision-models-postprocessing/lib_vision_models_pp/Src/od_pp_yolov8.c ****         pOutBuff[nb_detect].y_center    = pRaw_detections[i + _i + AI_YOLOV8_PP_YCENTER   * nb_tota
 1221              		.loc 1 297 58 view .LVU385
 1222 00a2 1768     		ldr	r7, [r2]	@ float
 303:../Middlewares/stm32-vision-models-postprocessing/lib_vision_models_pp/Src/od_pp_yolov8.c ****       }
 1223              		.loc 1 303 18 view .LVU386
 1224 00a4 08F10108 		add	r8, r8, #1
 1225              	.LVL100:
 297:../Middlewares/stm32-vision-models-postprocessing/lib_vision_models_pp/Src/od_pp_yolov8.c ****         pOutBuff[nb_detect].y_center    = pRaw_detections[i + _i + AI_YOLOV8_PP_YCENTER   * nb_tota
 1226              		.loc 1 297 41 view .LVU387
 1227 00a8 0F60     		str	r7, [r1]	@ float
 298:../Middlewares/stm32-vision-models-postprocessing/lib_vision_models_pp/Src/od_pp_yolov8.c ****         pOutBuff[nb_detect].width       = pRaw_detections[i + _i + AI_YOLOV8_PP_WIDTHREL  * nb_tota
 1228              		.loc 1 298 9 is_stmt 1 view .LVU388
 298:../Middlewares/stm32-vision-models-postprocessing/lib_vision_models_pp/Src/od_pp_yolov8.c ****         pOutBuff[nb_detect].width       = pRaw_detections[i + _i + AI_YOLOV8_PP_WIDTHREL  * nb_tota
ARM GAS  /tmp/cc8dX4ay.s 			page 33


 1229              		.loc 1 298 58 is_stmt 0 view .LVU389
 1230 00aa 059F     		ldr	r7, [sp, #20]
 1231 00ac D719     		adds	r7, r2, r7
 1232 00ae 3F68     		ldr	r7, [r7]	@ float
 298:../Middlewares/stm32-vision-models-postprocessing/lib_vision_models_pp/Src/od_pp_yolov8.c ****         pOutBuff[nb_detect].width       = pRaw_detections[i + _i + AI_YOLOV8_PP_WIDTHREL  * nb_tota
 1233              		.loc 1 298 41 view .LVU390
 1234 00b0 4F60     		str	r7, [r1, #4]	@ float
 299:../Middlewares/stm32-vision-models-postprocessing/lib_vision_models_pp/Src/od_pp_yolov8.c ****         pOutBuff[nb_detect].height      = pRaw_detections[i + _i + AI_YOLOV8_PP_HEIGHTREL * nb_tota
 1235              		.loc 1 299 9 is_stmt 1 view .LVU391
 299:../Middlewares/stm32-vision-models-postprocessing/lib_vision_models_pp/Src/od_pp_yolov8.c ****         pOutBuff[nb_detect].height      = pRaw_detections[i + _i + AI_YOLOV8_PP_HEIGHTREL * nb_tota
 1236              		.loc 1 299 58 is_stmt 0 view .LVU392
 1237 00b2 069F     		ldr	r7, [sp, #24]
 1238 00b4 D719     		adds	r7, r2, r7
 1239 00b6 3F68     		ldr	r7, [r7]	@ float
 299:../Middlewares/stm32-vision-models-postprocessing/lib_vision_models_pp/Src/od_pp_yolov8.c ****         pOutBuff[nb_detect].height      = pRaw_detections[i + _i + AI_YOLOV8_PP_HEIGHTREL * nb_tota
 1240              		.loc 1 299 41 view .LVU393
 1241 00b8 8F60     		str	r7, [r1, #8]	@ float
 300:../Middlewares/stm32-vision-models-postprocessing/lib_vision_models_pp/Src/od_pp_yolov8.c ****         pOutBuff[nb_detect].conf        = best_score_array[_i];
 1242              		.loc 1 300 9 is_stmt 1 view .LVU394
 300:../Middlewares/stm32-vision-models-postprocessing/lib_vision_models_pp/Src/od_pp_yolov8.c ****         pOutBuff[nb_detect].conf        = best_score_array[_i];
 1243              		.loc 1 300 58 is_stmt 0 view .LVU395
 1244 00ba 079F     		ldr	r7, [sp, #28]
 1245 00bc D719     		adds	r7, r2, r7
 1246 00be 3F68     		ldr	r7, [r7]	@ float
 301:../Middlewares/stm32-vision-models-postprocessing/lib_vision_models_pp/Src/od_pp_yolov8.c ****         pOutBuff[nb_detect].class_index = class_index_array[_i];
 1247              		.loc 1 301 41 view .LVU396
 1248 00c0 C1ED047A 		vstr.32	s15, [r1, #16]
 300:../Middlewares/stm32-vision-models-postprocessing/lib_vision_models_pp/Src/od_pp_yolov8.c ****         pOutBuff[nb_detect].conf        = best_score_array[_i];
 1249              		.loc 1 300 41 view .LVU397
 1250 00c4 CF60     		str	r7, [r1, #12]	@ float
 301:../Middlewares/stm32-vision-models-postprocessing/lib_vision_models_pp/Src/od_pp_yolov8.c ****         pOutBuff[nb_detect].class_index = class_index_array[_i];
 1251              		.loc 1 301 9 is_stmt 1 view .LVU398
 302:../Middlewares/stm32-vision-models-postprocessing/lib_vision_models_pp/Src/od_pp_yolov8.c ****         nb_detect++;
 1252              		.loc 1 302 9 view .LVU399
 302:../Middlewares/stm32-vision-models-postprocessing/lib_vision_models_pp/Src/od_pp_yolov8.c ****         nb_detect++;
 1253              		.loc 1 302 41 is_stmt 0 view .LVU400
 1254 00c6 5BF82070 		ldr	r7, [fp, r0, lsl #2]
 1255 00ca 4F61     		str	r7, [r1, #20]
 303:../Middlewares/stm32-vision-models-postprocessing/lib_vision_models_pp/Src/od_pp_yolov8.c ****       }
 1256              		.loc 1 303 9 is_stmt 1 view .LVU401
 1257              	.LVL101:
 1258              	.L93:
 293:../Middlewares/stm32-vision-models-postprocessing/lib_vision_models_pp/Src/od_pp_yolov8.c ****     {
 1259              		.loc 1 293 70 discriminator 2 view .LVU402
 1260 00cc 0130     		adds	r0, r0, #1
 1261              	.LVL102:
 293:../Middlewares/stm32-vision-models-postprocessing/lib_vision_models_pp/Src/od_pp_yolov8.c ****     {
 1262              		.loc 1 293 70 is_stmt 0 discriminator 2 view .LVU403
 1263 00ce 0432     		adds	r2, r2, #4
 1264 00d0 D1E7     		b	.L92
 1265              	.LBE43:
 1266              	.LBE46:
 1267              	.LBE49:
 1268              		.cfi_endproc
 1269              	.LFE780:
 1271              		.section	.text.yolov8_pp_getNNBoxes_centroid_int8,"ax",%progbits
 1272              		.align	1
ARM GAS  /tmp/cc8dX4ay.s 			page 34


 1273              		.global	yolov8_pp_getNNBoxes_centroid_int8
 1274              		.syntax unified
 1275              		.thumb
 1276              		.thumb_func
 1278              	yolov8_pp_getNNBoxes_centroid_int8:
 1279              	.LVL103:
 1280              	.LFB781:
 312:../Middlewares/stm32-vision-models-postprocessing/lib_vision_models_pp/Src/od_pp_yolov8.c **** 
 313:../Middlewares/stm32-vision-models-postprocessing/lib_vision_models_pp/Src/od_pp_yolov8.c **** int32_t yolov8_pp_getNNBoxes_centroid_int8(od_yolov8_pp_in_centroid_t *pInput,
 314:../Middlewares/stm32-vision-models-postprocessing/lib_vision_models_pp/Src/od_pp_yolov8.c ****                                            od_pp_out_t *pOutput,
 315:../Middlewares/stm32-vision-models-postprocessing/lib_vision_models_pp/Src/od_pp_yolov8.c ****                                            od_yolov8_pp_static_param_t *pInput_static_param)
 316:../Middlewares/stm32-vision-models-postprocessing/lib_vision_models_pp/Src/od_pp_yolov8.c **** {
 1281              		.loc 1 316 1 is_stmt 1 view -0
 1282              		.cfi_startproc
 1283              		@ args = 0, pretend = 0, frame = 72
 1284              		@ frame_needed = 0, uses_anonymous_args = 0
 317:../Middlewares/stm32-vision-models-postprocessing/lib_vision_models_pp/Src/od_pp_yolov8.c ****   int32_t error   = AI_OD_POSTPROCESS_ERROR_NO;
 1285              		.loc 1 317 3 view .LVU405
 318:../Middlewares/stm32-vision-models-postprocessing/lib_vision_models_pp/Src/od_pp_yolov8.c ****   int32_t class_index = 0;
 1286              		.loc 1 318 3 view .LVU406
 319:../Middlewares/stm32-vision-models-postprocessing/lib_vision_models_pp/Src/od_pp_yolov8.c ****   int32_t nb_classes = pInput_static_param->nb_classes;
 1287              		.loc 1 319 3 view .LVU407
 316:../Middlewares/stm32-vision-models-postprocessing/lib_vision_models_pp/Src/od_pp_yolov8.c ****   int32_t error   = AI_OD_POSTPROCESS_ERROR_NO;
 1288              		.loc 1 316 1 is_stmt 0 view .LVU408
 1289 0000 2DE9F04F 		push	{r4, r5, r6, r7, r8, r9, r10, fp, lr}
 1290              		.cfi_def_cfa_offset 36
 1291              		.cfi_offset 4, -36
 1292              		.cfi_offset 5, -32
 1293              		.cfi_offset 6, -28
 1294              		.cfi_offset 7, -24
 1295              		.cfi_offset 8, -20
 1296              		.cfi_offset 9, -16
 1297              		.cfi_offset 10, -12
 1298              		.cfi_offset 11, -8
 1299              		.cfi_offset 14, -4
 320:../Middlewares/stm32-vision-models-postprocessing/lib_vision_models_pp/Src/od_pp_yolov8.c ****   int32_t nb_total_boxes = pInput_static_param->nb_total_boxes;
 321:../Middlewares/stm32-vision-models-postprocessing/lib_vision_models_pp/Src/od_pp_yolov8.c ****   int8_t *pRaw_detections = (int8_t *)pInput->pRaw_detections;
 322:../Middlewares/stm32-vision-models-postprocessing/lib_vision_models_pp/Src/od_pp_yolov8.c ****   int8_t zero_point = pInput_static_param->raw_output_zero_point;
 323:../Middlewares/stm32-vision-models-postprocessing/lib_vision_models_pp/Src/od_pp_yolov8.c ****   float32_t scale = pInput_static_param->raw_output_scale;
 324:../Middlewares/stm32-vision-models-postprocessing/lib_vision_models_pp/Src/od_pp_yolov8.c ****   float32_t best_score_f;
 325:../Middlewares/stm32-vision-models-postprocessing/lib_vision_models_pp/Src/od_pp_yolov8.c **** 
 326:../Middlewares/stm32-vision-models-postprocessing/lib_vision_models_pp/Src/od_pp_yolov8.c ****   int32_t remaining_boxes = nb_total_boxes;
 327:../Middlewares/stm32-vision-models-postprocessing/lib_vision_models_pp/Src/od_pp_yolov8.c ****   int32_t nb_detect = 0;
 328:../Middlewares/stm32-vision-models-postprocessing/lib_vision_models_pp/Src/od_pp_yolov8.c ****   int8_t conf_threshold_s8 = (int8_t)(pInput_static_param->conf_threshold / scale + 0.5f) + zero_po
 1300              		.loc 1 328 75 view .LVU409
 1301 0004 92ED037A 		vldr.32	s14, [r2, #12]
 316:../Middlewares/stm32-vision-models-postprocessing/lib_vision_models_pp/Src/od_pp_yolov8.c ****   int32_t error   = AI_OD_POSTPROCESS_ERROR_NO;
 1302              		.loc 1 316 1 view .LVU410
 1303 0008 2DED028B 		vpush.64	{d8}
 1304              		.cfi_def_cfa_offset 44
 1305              		.cfi_offset 80, -44
 1306              		.cfi_offset 81, -40
 323:../Middlewares/stm32-vision-models-postprocessing/lib_vision_models_pp/Src/od_pp_yolov8.c ****   float32_t best_score_f;
 1307              		.loc 1 323 13 view .LVU411
 1308 000c 92ED058A 		vldr.32	s16, [r2, #20]
 1309              		.loc 1 328 75 view .LVU412
 1310 0010 C7EE087A 		vdiv.f32	s15, s14, s16
ARM GAS  /tmp/cc8dX4ay.s 			page 35


 1311              		.loc 1 328 83 view .LVU413
 1312 0014 B6EE007A 		vmov.f32	s14, #5.0e-1
 1313 0018 77EE877A 		vadd.f32	s15, s15, s14
 1314              		.loc 1 328 30 view .LVU414
 1315 001c FDEEE77A 		vcvt.s32.f32	s15, s15
 319:../Middlewares/stm32-vision-models-postprocessing/lib_vision_models_pp/Src/od_pp_yolov8.c ****   int32_t nb_total_boxes = pInput_static_param->nb_total_boxes;
 1316              		.loc 1 319 11 view .LVU415
 1317 0020 1368     		ldr	r3, [r2]
 316:../Middlewares/stm32-vision-models-postprocessing/lib_vision_models_pp/Src/od_pp_yolov8.c ****   int32_t error   = AI_OD_POSTPROCESS_ERROR_NO;
 1318              		.loc 1 316 1 view .LVU416
 1319 0022 95B0     		sub	sp, sp, #84
 1320              		.cfi_def_cfa_offset 128
 319:../Middlewares/stm32-vision-models-postprocessing/lib_vision_models_pp/Src/od_pp_yolov8.c ****   int32_t nb_total_boxes = pInput_static_param->nb_total_boxes;
 1321              		.loc 1 319 11 view .LVU417
 1322 0024 0393     		str	r3, [sp, #12]
 1323              	.LVL104:
 320:../Middlewares/stm32-vision-models-postprocessing/lib_vision_models_pp/Src/od_pp_yolov8.c ****   int8_t *pRaw_detections = (int8_t *)pInput->pRaw_detections;
 1324              		.loc 1 320 3 is_stmt 1 view .LVU418
 1325              		.loc 1 328 30 is_stmt 0 view .LVU419
 1326 0026 17EE903A 		vmov	r3, s15	@ int
 1327              	.LVL105:
 322:../Middlewares/stm32-vision-models-postprocessing/lib_vision_models_pp/Src/od_pp_yolov8.c ****   float32_t scale = pInput_static_param->raw_output_scale;
 1328              		.loc 1 322 10 view .LVU420
 1329 002a 92F91850 		ldrsb	r5, [r2, #24]
 320:../Middlewares/stm32-vision-models-postprocessing/lib_vision_models_pp/Src/od_pp_yolov8.c ****   int8_t *pRaw_detections = (int8_t *)pInput->pRaw_detections;
 1330              		.loc 1 320 11 view .LVU421
 1331 002e 5468     		ldr	r4, [r2, #4]
 1332              	.LVL106:
 321:../Middlewares/stm32-vision-models-postprocessing/lib_vision_models_pp/Src/od_pp_yolov8.c ****   int8_t zero_point = pInput_static_param->raw_output_zero_point;
 1333              		.loc 1 321 3 is_stmt 1 view .LVU422
 1334              		.loc 1 328 91 is_stmt 0 view .LVU423
 1335 0030 2B44     		add	r3, r3, r5
 1336              		.loc 1 328 10 view .LVU424
 1337 0032 5BB2     		sxtb	r3, r3
 1338 0034 0493     		str	r3, [sp, #16]
 329:../Middlewares/stm32-vision-models-postprocessing/lib_vision_models_pp/Src/od_pp_yolov8.c **** 
 330:../Middlewares/stm32-vision-models-postprocessing/lib_vision_models_pp/Src/od_pp_yolov8.c ****   od_pp_outBuffer_t *pOutBuff = (od_pp_outBuffer_t *)pOutput->pOutBuff;
 1339              		.loc 1 330 22 view .LVU425
 1340 0036 0B68     		ldr	r3, [r1]
 321:../Middlewares/stm32-vision-models-postprocessing/lib_vision_models_pp/Src/od_pp_yolov8.c ****   int8_t zero_point = pInput_static_param->raw_output_zero_point;
 1341              		.loc 1 321 11 view .LVU426
 1342 0038 0668     		ldr	r6, [r0]
 1343              	.LVL107:
 322:../Middlewares/stm32-vision-models-postprocessing/lib_vision_models_pp/Src/od_pp_yolov8.c ****   float32_t scale = pInput_static_param->raw_output_scale;
 1344              		.loc 1 322 3 is_stmt 1 view .LVU427
 323:../Middlewares/stm32-vision-models-postprocessing/lib_vision_models_pp/Src/od_pp_yolov8.c ****   float32_t best_score_f;
 1345              		.loc 1 323 3 view .LVU428
 324:../Middlewares/stm32-vision-models-postprocessing/lib_vision_models_pp/Src/od_pp_yolov8.c **** 
 1346              		.loc 1 324 3 view .LVU429
 326:../Middlewares/stm32-vision-models-postprocessing/lib_vision_models_pp/Src/od_pp_yolov8.c ****   int32_t nb_detect = 0;
 1347              		.loc 1 326 3 view .LVU430
 327:../Middlewares/stm32-vision-models-postprocessing/lib_vision_models_pp/Src/od_pp_yolov8.c ****   int8_t conf_threshold_s8 = (int8_t)(pInput_static_param->conf_threshold / scale + 0.5f) + zero_po
 1348              		.loc 1 327 3 view .LVU431
 328:../Middlewares/stm32-vision-models-postprocessing/lib_vision_models_pp/Src/od_pp_yolov8.c **** 
 1349              		.loc 1 328 3 view .LVU432
 1350              		.loc 1 330 3 view .LVU433
 1351              		.loc 1 330 22 is_stmt 0 view .LVU434
ARM GAS  /tmp/cc8dX4ay.s 			page 36


 1352 003a 0593     		str	r3, [sp, #20]
 1353              	.LVL108:
 331:../Middlewares/stm32-vision-models-postprocessing/lib_vision_models_pp/Src/od_pp_yolov8.c ****   if (nb_classes < 256) {
 1354              		.loc 1 331 3 is_stmt 1 view .LVU435
 1355              		.loc 1 331 6 is_stmt 0 view .LVU436
 1356 003c 039B     		ldr	r3, [sp, #12]
 1357              	.LVL109:
 316:../Middlewares/stm32-vision-models-postprocessing/lib_vision_models_pp/Src/od_pp_yolov8.c ****   int32_t error   = AI_OD_POSTPROCESS_ERROR_NO;
 1358              		.loc 1 316 1 view .LVU437
 1359 003e 1746     		mov	r7, r2
 1360              		.loc 1 331 6 view .LVU438
 1361 0040 FF2B     		cmp	r3, #255
 1362 0042 06EB8403 		add	r3, r6, r4, lsl #2
 1363 0046 0793     		str	r3, [sp, #28]
 1364 0048 2EDD     		ble	.L101
 1365 004a 9B46     		mov	fp, r3
 326:../Middlewares/stm32-vision-models-postprocessing/lib_vision_models_pp/Src/od_pp_yolov8.c ****   int32_t nb_detect = 0;
 1366              		.loc 1 326 11 view .LVU439
 1367 004c A146     		mov	r9, r4
 327:../Middlewares/stm32-vision-models-postprocessing/lib_vision_models_pp/Src/od_pp_yolov8.c ****   int8_t conf_threshold_s8 = (int8_t)(pInput_static_param->conf_threshold / scale + 0.5f) + zero_po
 1368              		.loc 1 327 11 view .LVU440
 1369 004e 4FF00008 		mov	r8, #0
 1370 0052 2644     		add	r6, r6, r4
 1371              	.LVL110:
 327:../Middlewares/stm32-vision-models-postprocessing/lib_vision_models_pp/Src/od_pp_yolov8.c ****   int8_t conf_threshold_s8 = (int8_t)(pInput_static_param->conf_threshold / scale + 0.5f) + zero_po
 1372              		.loc 1 327 11 view .LVU441
 1373 0054 C4F1000A 		rsb	r10, r4, #0
 1374              	.LVL111:
 1375              	.L102:
 1376              	.LBB50:
 1377              	.LBB51:
 332:../Middlewares/stm32-vision-models-postprocessing/lib_vision_models_pp/Src/od_pp_yolov8.c ****     int8_t best_score_array[16];
 333:../Middlewares/stm32-vision-models-postprocessing/lib_vision_models_pp/Src/od_pp_yolov8.c ****     uint8_t class_index_array[16];
 334:../Middlewares/stm32-vision-models-postprocessing/lib_vision_models_pp/Src/od_pp_yolov8.c ****     for (int32_t i = 0; i < nb_total_boxes; i+=16)
 335:../Middlewares/stm32-vision-models-postprocessing/lib_vision_models_pp/Src/od_pp_yolov8.c ****     {
 336:../Middlewares/stm32-vision-models-postprocessing/lib_vision_models_pp/Src/od_pp_yolov8.c ****       vision_models_maxi_tr_p_is8ou8(&pRaw_detections[i + AI_YOLOV8_PP_CLASSPROB * nb_total_boxes],
 337:../Middlewares/stm32-vision-models-postprocessing/lib_vision_models_pp/Src/od_pp_yolov8.c ****                                      nb_classes,
 338:../Middlewares/stm32-vision-models-postprocessing/lib_vision_models_pp/Src/od_pp_yolov8.c ****                                      nb_total_boxes,
 339:../Middlewares/stm32-vision-models-postprocessing/lib_vision_models_pp/Src/od_pp_yolov8.c ****                                      best_score_array,
 340:../Middlewares/stm32-vision-models-postprocessing/lib_vision_models_pp/Src/od_pp_yolov8.c ****                                      class_index_array,
 341:../Middlewares/stm32-vision-models-postprocessing/lib_vision_models_pp/Src/od_pp_yolov8.c ****                                      remaining_boxes);
 342:../Middlewares/stm32-vision-models-postprocessing/lib_vision_models_pp/Src/od_pp_yolov8.c ****       for (int _i = 0; _i < ((remaining_boxes>16)?16:remaining_boxes); _i++)
 343:../Middlewares/stm32-vision-models-postprocessing/lib_vision_models_pp/Src/od_pp_yolov8.c ****       {
 344:../Middlewares/stm32-vision-models-postprocessing/lib_vision_models_pp/Src/od_pp_yolov8.c ****           if ( best_score_array[_i] >= conf_threshold_s8)
 345:../Middlewares/stm32-vision-models-postprocessing/lib_vision_models_pp/Src/od_pp_yolov8.c ****           {
 346:../Middlewares/stm32-vision-models-postprocessing/lib_vision_models_pp/Src/od_pp_yolov8.c ****             best_score_f = scale * (float32_t)(best_score_array[_i] - zero_point);
 347:../Middlewares/stm32-vision-models-postprocessing/lib_vision_models_pp/Src/od_pp_yolov8.c ****             class_index = class_index_array[_i];
 348:../Middlewares/stm32-vision-models-postprocessing/lib_vision_models_pp/Src/od_pp_yolov8.c ****             pOutBuff[nb_detect].x_center    = scale * (float32_t)((int32_t)pRaw_detections[i + _i +
 349:../Middlewares/stm32-vision-models-postprocessing/lib_vision_models_pp/Src/od_pp_yolov8.c ****             pOutBuff[nb_detect].y_center    = scale * (float32_t)((int32_t)pRaw_detections[i + _i +
 350:../Middlewares/stm32-vision-models-postprocessing/lib_vision_models_pp/Src/od_pp_yolov8.c ****             pOutBuff[nb_detect].width       = scale * (float32_t)((int32_t)pRaw_detections[i + _i +
 351:../Middlewares/stm32-vision-models-postprocessing/lib_vision_models_pp/Src/od_pp_yolov8.c ****             pOutBuff[nb_detect].height      = scale * (float32_t)((int32_t)pRaw_detections[i + _i +
 352:../Middlewares/stm32-vision-models-postprocessing/lib_vision_models_pp/Src/od_pp_yolov8.c ****             pOutBuff[nb_detect].conf        = best_score_f;
 353:../Middlewares/stm32-vision-models-postprocessing/lib_vision_models_pp/Src/od_pp_yolov8.c ****             pOutBuff[nb_detect].class_index = class_index;
 354:../Middlewares/stm32-vision-models-postprocessing/lib_vision_models_pp/Src/od_pp_yolov8.c ****             nb_detect++;
 355:../Middlewares/stm32-vision-models-postprocessing/lib_vision_models_pp/Src/od_pp_yolov8.c ****           }
 356:../Middlewares/stm32-vision-models-postprocessing/lib_vision_models_pp/Src/od_pp_yolov8.c ****       }
 357:../Middlewares/stm32-vision-models-postprocessing/lib_vision_models_pp/Src/od_pp_yolov8.c ****       remaining_boxes-=16;
ARM GAS  /tmp/cc8dX4ay.s 			page 37


 358:../Middlewares/stm32-vision-models-postprocessing/lib_vision_models_pp/Src/od_pp_yolov8.c ****     } // for nb_total_boxes
 359:../Middlewares/stm32-vision-models-postprocessing/lib_vision_models_pp/Src/od_pp_yolov8.c ****   } // if nb_classes < 256
 360:../Middlewares/stm32-vision-models-postprocessing/lib_vision_models_pp/Src/od_pp_yolov8.c ****   else
 361:../Middlewares/stm32-vision-models-postprocessing/lib_vision_models_pp/Src/od_pp_yolov8.c ****   {
 362:../Middlewares/stm32-vision-models-postprocessing/lib_vision_models_pp/Src/od_pp_yolov8.c ****     int8_t best_score_array[16];
 363:../Middlewares/stm32-vision-models-postprocessing/lib_vision_models_pp/Src/od_pp_yolov8.c ****     uint16_t class_index_array[16];
 364:../Middlewares/stm32-vision-models-postprocessing/lib_vision_models_pp/Src/od_pp_yolov8.c ****     for (int32_t i = 0; i < nb_total_boxes; i+=16)
 1378              		.loc 1 364 27 is_stmt 1 discriminator 1 view .LVU442
 1379 0058 A4EB0903 		sub	r3, r4, r9
 1380 005c 9C42     		cmp	r4, r3
 1381 005e 2DDD     		ble	.L108
 365:../Middlewares/stm32-vision-models-postprocessing/lib_vision_models_pp/Src/od_pp_yolov8.c ****     {
 366:../Middlewares/stm32-vision-models-postprocessing/lib_vision_models_pp/Src/od_pp_yolov8.c ****       vision_models_maxi_tr_p_is8ou16(&pRaw_detections[i + AI_YOLOV8_PP_CLASSPROB * nb_total_boxes]
 1382              		.loc 1 366 7 view .LVU443
 1383 0060 0CAB     		add	r3, sp, #48
 1384 0062 5846     		mov	r0, fp
 1385 0064 0093     		str	r3, [sp]
 1386 0066 2246     		mov	r2, r4
 1387 0068 08AB     		add	r3, sp, #32
 1388 006a 0399     		ldr	r1, [sp, #12]
 1389 006c CDF80490 		str	r9, [sp, #4]
 1390 0070 FFF7FEFF 		bl	vision_models_maxi_tr_p_is8ou16
 1391              	.LVL112:
 367:../Middlewares/stm32-vision-models-postprocessing/lib_vision_models_pp/Src/od_pp_yolov8.c ****                                       nb_classes,
 368:../Middlewares/stm32-vision-models-postprocessing/lib_vision_models_pp/Src/od_pp_yolov8.c ****                                       nb_total_boxes,
 369:../Middlewares/stm32-vision-models-postprocessing/lib_vision_models_pp/Src/od_pp_yolov8.c ****                                       best_score_array,
 370:../Middlewares/stm32-vision-models-postprocessing/lib_vision_models_pp/Src/od_pp_yolov8.c ****                                       class_index_array,
 371:../Middlewares/stm32-vision-models-postprocessing/lib_vision_models_pp/Src/od_pp_yolov8.c ****                                       remaining_boxes);
 372:../Middlewares/stm32-vision-models-postprocessing/lib_vision_models_pp/Src/od_pp_yolov8.c **** 
 373:../Middlewares/stm32-vision-models-postprocessing/lib_vision_models_pp/Src/od_pp_yolov8.c ****       for (int _i = 0; _i < ((remaining_boxes>16)?16:remaining_boxes); _i++)
 1392              		.loc 1 373 7 view .LVU444
 1393              	.LBB52:
 1394              		.loc 1 373 12 view .LVU445
 1395              		.loc 1 373 53 is_stmt 0 discriminator 1 view .LVU446
 1396 0074 4B46     		mov	r3, r9
 1397 0076 102B     		cmp	r3, #16
 1398 0078 A8BF     		it	ge
 1399 007a 1023     		movge	r3, #16
 1400              		.loc 1 373 16 view .LVU447
 1401 007c 0020     		movs	r0, #0
 1402 007e 9842     		cmp	r0, r3
 374:../Middlewares/stm32-vision-models-postprocessing/lib_vision_models_pp/Src/od_pp_yolov8.c ****       {
 375:../Middlewares/stm32-vision-models-postprocessing/lib_vision_models_pp/Src/od_pp_yolov8.c ****         if ( best_score_array[_i] >= conf_threshold_s8)
 376:../Middlewares/stm32-vision-models-postprocessing/lib_vision_models_pp/Src/od_pp_yolov8.c ****         {
 377:../Middlewares/stm32-vision-models-postprocessing/lib_vision_models_pp/Src/od_pp_yolov8.c ****           best_score_f = scale * (float32_t)(best_score_array[_i] - zero_point);
 378:../Middlewares/stm32-vision-models-postprocessing/lib_vision_models_pp/Src/od_pp_yolov8.c ****           class_index = class_index_array[_i];
 379:../Middlewares/stm32-vision-models-postprocessing/lib_vision_models_pp/Src/od_pp_yolov8.c ****           pOutBuff[nb_detect].x_center    = scale * (float32_t)((int32_t)pRaw_detections[i + AI_YOL
 1403              		.loc 1 379 19 view .LVU448
 1404 0080 4FF0180E 		mov	lr, #24
 1405 0084 03F1010C 		add	ip, r3, #1
 1406 0088 02DC     		bgt	.L113
 1407 008a B3F1004F 		cmp	r3, #-2147483648
 1408 008e 01D1     		bne	.L109
 1409              	.L113:
 1410 0090 4FF0010C 		mov	ip, #1
 1411              	.LVL113:
 1412              	.L109:
ARM GAS  /tmp/cc8dX4ay.s 			page 38


 373:../Middlewares/stm32-vision-models-postprocessing/lib_vision_models_pp/Src/od_pp_yolov8.c ****       {
 1413              		.loc 1 373 27 is_stmt 1 discriminator 1 view .LVU449
 1414 0094 BCF1010C 		subs	ip, ip, #1
 1415 0098 40F08880 		bne	.L111
 373:../Middlewares/stm32-vision-models-postprocessing/lib_vision_models_pp/Src/od_pp_yolov8.c ****       {
 1416              		.loc 1 373 27 is_stmt 0 discriminator 1 view .LVU450
 1417              	.LBE52:
 380:../Middlewares/stm32-vision-models-postprocessing/lib_vision_models_pp/Src/od_pp_yolov8.c ****           pOutBuff[nb_detect].y_center    = scale * (float32_t)((int32_t)pRaw_detections[i + AI_YOL
 381:../Middlewares/stm32-vision-models-postprocessing/lib_vision_models_pp/Src/od_pp_yolov8.c ****           pOutBuff[nb_detect].width       = scale * (float32_t)((int32_t)pRaw_detections[i + AI_YOL
 382:../Middlewares/stm32-vision-models-postprocessing/lib_vision_models_pp/Src/od_pp_yolov8.c ****           pOutBuff[nb_detect].height      = scale * (float32_t)((int32_t)pRaw_detections[i + AI_YOL
 383:../Middlewares/stm32-vision-models-postprocessing/lib_vision_models_pp/Src/od_pp_yolov8.c ****           pOutBuff[nb_detect].conf        = best_score_f;
 384:../Middlewares/stm32-vision-models-postprocessing/lib_vision_models_pp/Src/od_pp_yolov8.c ****           pOutBuff[nb_detect].class_index = class_index;
 385:../Middlewares/stm32-vision-models-postprocessing/lib_vision_models_pp/Src/od_pp_yolov8.c ****           nb_detect++;
 386:../Middlewares/stm32-vision-models-postprocessing/lib_vision_models_pp/Src/od_pp_yolov8.c ****         }
 387:../Middlewares/stm32-vision-models-postprocessing/lib_vision_models_pp/Src/od_pp_yolov8.c ****       }
 388:../Middlewares/stm32-vision-models-postprocessing/lib_vision_models_pp/Src/od_pp_yolov8.c ****       remaining_boxes-=16;
 1418              		.loc 1 388 7 is_stmt 1 view .LVU451
 1419              		.loc 1 388 22 is_stmt 0 view .LVU452
 1420 009c A9F11009 		sub	r9, r9, #16
 1421              	.LVL114:
 364:../Middlewares/stm32-vision-models-postprocessing/lib_vision_models_pp/Src/od_pp_yolov8.c ****     {
 1422              		.loc 1 364 46 is_stmt 1 discriminator 2 view .LVU453
 364:../Middlewares/stm32-vision-models-postprocessing/lib_vision_models_pp/Src/od_pp_yolov8.c ****     {
 1423              		.loc 1 364 46 is_stmt 0 discriminator 2 view .LVU454
 1424 00a0 0BF1100B 		add	fp, fp, #16
 364:../Middlewares/stm32-vision-models-postprocessing/lib_vision_models_pp/Src/od_pp_yolov8.c ****     {
 1425              		.loc 1 364 46 discriminator 2 view .LVU455
 1426 00a4 1036     		adds	r6, r6, #16
 1427 00a6 D7E7     		b	.L102
 1428              	.LVL115:
 1429              	.L101:
 364:../Middlewares/stm32-vision-models-postprocessing/lib_vision_models_pp/Src/od_pp_yolov8.c ****     {
 1430              		.loc 1 364 46 discriminator 2 view .LVU456
 1431              	.LBE51:
 1432              	.LBE50:
 1433              	.LBB55:
 1434              	.LBB56:
 334:../Middlewares/stm32-vision-models-postprocessing/lib_vision_models_pp/Src/od_pp_yolov8.c ****     {
 1435              		.loc 1 334 18 view .LVU457
 1436 00a8 4FF00009 		mov	r9, #0
 1437              	.LBE56:
 1438              	.LBE55:
 327:../Middlewares/stm32-vision-models-postprocessing/lib_vision_models_pp/Src/od_pp_yolov8.c ****   int8_t conf_threshold_s8 = (int8_t)(pInput_static_param->conf_threshold / scale + 0.5f) + zero_po
 1439              		.loc 1 327 11 view .LVU458
 1440 00ac C846     		mov	r8, r9
 1441 00ae 06EB4403 		add	r3, r6, r4, lsl #1
 1442 00b2 0693     		str	r3, [sp, #24]
 1443              	.LVL116:
 1444              	.L103:
 1445              	.LBB61:
 1446              	.LBB59:
 334:../Middlewares/stm32-vision-models-postprocessing/lib_vision_models_pp/Src/od_pp_yolov8.c ****     {
 1447              		.loc 1 334 27 discriminator 1 view .LVU459
 1448 00b4 A145     		cmp	r9, r4
 1449 00b6 A4EB090A 		sub	r10, r4, r9
 1450              	.LVL117:
 334:../Middlewares/stm32-vision-models-postprocessing/lib_vision_models_pp/Src/od_pp_yolov8.c ****     {
ARM GAS  /tmp/cc8dX4ay.s 			page 39


 1451              		.loc 1 334 27 is_stmt 1 discriminator 1 view .LVU460
 1452 00ba 07DB     		blt	.L107
 1453              	.LVL118:
 1454              	.L108:
 334:../Middlewares/stm32-vision-models-postprocessing/lib_vision_models_pp/Src/od_pp_yolov8.c ****     {
 1455              		.loc 1 334 27 is_stmt 0 discriminator 1 view .LVU461
 1456              	.LBE59:
 1457              	.LBE61:
 389:../Middlewares/stm32-vision-models-postprocessing/lib_vision_models_pp/Src/od_pp_yolov8.c ****     } // for nb_total_boxes
 390:../Middlewares/stm32-vision-models-postprocessing/lib_vision_models_pp/Src/od_pp_yolov8.c ****   } // else if nb_classes < 256
 391:../Middlewares/stm32-vision-models-postprocessing/lib_vision_models_pp/Src/od_pp_yolov8.c ****   pInput_static_param->nb_detect = nb_detect;
 1458              		.loc 1 391 3 is_stmt 1 view .LVU462
 392:../Middlewares/stm32-vision-models-postprocessing/lib_vision_models_pp/Src/od_pp_yolov8.c **** 
 393:../Middlewares/stm32-vision-models-postprocessing/lib_vision_models_pp/Src/od_pp_yolov8.c ****   return (error);
 394:../Middlewares/stm32-vision-models-postprocessing/lib_vision_models_pp/Src/od_pp_yolov8.c **** }
 1459              		.loc 1 394 1 is_stmt 0 view .LVU463
 1460 00bc 0020     		movs	r0, #0
 391:../Middlewares/stm32-vision-models-postprocessing/lib_vision_models_pp/Src/od_pp_yolov8.c **** 
 1461              		.loc 1 391 34 view .LVU464
 1462 00be C7F81C80 		str	r8, [r7, #28]
 393:../Middlewares/stm32-vision-models-postprocessing/lib_vision_models_pp/Src/od_pp_yolov8.c **** }
 1463              		.loc 1 393 3 is_stmt 1 view .LVU465
 1464              		.loc 1 394 1 is_stmt 0 view .LVU466
 1465 00c2 15B0     		add	sp, sp, #84
 1466              		.cfi_remember_state
 1467              		.cfi_def_cfa_offset 44
 1468              		@ sp needed
 1469 00c4 BDEC028B 		vldm	sp!, {d8}
 1470              		.cfi_restore 80
 1471              		.cfi_restore 81
 1472              		.cfi_def_cfa_offset 36
 1473              	.LVL119:
 1474              		.loc 1 394 1 view .LVU467
 1475 00c8 BDE8F08F 		pop	{r4, r5, r6, r7, r8, r9, r10, fp, pc}
 1476              	.LVL120:
 1477              	.L107:
 1478              		.cfi_restore_state
 1479              	.LBB62:
 1480              	.LBB60:
 336:../Middlewares/stm32-vision-models-postprocessing/lib_vision_models_pp/Src/od_pp_yolov8.c ****                                      nb_classes,
 1481              		.loc 1 336 7 is_stmt 1 view .LVU468
 1482 00cc 0798     		ldr	r0, [sp, #28]
 1483 00ce 0CAB     		add	r3, sp, #48
 1484 00d0 CDF804A0 		str	r10, [sp, #4]
 1485 00d4 0093     		str	r3, [sp]
 1486 00d6 4844     		add	r0, r9, r0
 1487 00d8 08AB     		add	r3, sp, #32
 1488 00da 2246     		mov	r2, r4
 1489 00dc 0399     		ldr	r1, [sp, #12]
 1490 00de FFF7FEFF 		bl	vision_models_maxi_tr_p_is8ou8
 1491              	.LVL121:
 342:../Middlewares/stm32-vision-models-postprocessing/lib_vision_models_pp/Src/od_pp_yolov8.c ****       {
 1492              		.loc 1 342 7 view .LVU469
 1493              	.LBB57:
 342:../Middlewares/stm32-vision-models-postprocessing/lib_vision_models_pp/Src/od_pp_yolov8.c ****       {
 1494              		.loc 1 342 12 view .LVU470
 342:../Middlewares/stm32-vision-models-postprocessing/lib_vision_models_pp/Src/od_pp_yolov8.c ****       {
ARM GAS  /tmp/cc8dX4ay.s 			page 40


 1495              		.loc 1 342 53 is_stmt 0 discriminator 1 view .LVU471
 1496 00e2 BAF1100F 		cmp	r10, #16
 1497 00e6 A8BF     		it	ge
 1498 00e8 4FF0100A 		movge	r10, #16
 1499              	.LVL122:
 342:../Middlewares/stm32-vision-models-postprocessing/lib_vision_models_pp/Src/od_pp_yolov8.c ****       {
 1500              		.loc 1 342 16 view .LVU472
 1501 00ec 0020     		movs	r0, #0
 1502 00ee 069B     		ldr	r3, [sp, #24]
 1503 00f0 5045     		cmp	r0, r10
 1504 00f2 06EB090E 		add	lr, r6, r9
 1505 00f6 03EB090B 		add	fp, r3, r9
 348:../Middlewares/stm32-vision-models-postprocessing/lib_vision_models_pp/Src/od_pp_yolov8.c ****             pOutBuff[nb_detect].y_center    = scale * (float32_t)((int32_t)pRaw_detections[i + _i +
 1506              		.loc 1 348 21 view .LVU473
 1507 00fa 0AF1010C 		add	ip, r10, #1
 1508 00fe 02DC     		bgt	.L114
 1509 0100 BAF1004F 		cmp	r10, #-2147483648
 1510 0104 01D1     		bne	.L104
 1511              	.L114:
 1512 0106 4FF0010C 		mov	ip, #1
 1513              	.LVL123:
 1514              	.L104:
 342:../Middlewares/stm32-vision-models-postprocessing/lib_vision_models_pp/Src/od_pp_yolov8.c ****       {
 1515              		.loc 1 342 27 is_stmt 1 discriminator 1 view .LVU474
 1516 010a BCF1010C 		subs	ip, ip, #1
 1517 010e 02D1     		bne	.L106
 342:../Middlewares/stm32-vision-models-postprocessing/lib_vision_models_pp/Src/od_pp_yolov8.c ****       {
 1518              		.loc 1 342 27 is_stmt 0 discriminator 1 view .LVU475
 1519              	.LBE57:
 357:../Middlewares/stm32-vision-models-postprocessing/lib_vision_models_pp/Src/od_pp_yolov8.c ****     } // for nb_total_boxes
 1520              		.loc 1 357 7 is_stmt 1 view .LVU476
 1521              	.LVL124:
 334:../Middlewares/stm32-vision-models-postprocessing/lib_vision_models_pp/Src/od_pp_yolov8.c ****     {
 1522              		.loc 1 334 46 discriminator 2 view .LVU477
 1523 0110 09F11009 		add	r9, r9, #16
 1524              	.LVL125:
 334:../Middlewares/stm32-vision-models-postprocessing/lib_vision_models_pp/Src/od_pp_yolov8.c ****     {
 1525              		.loc 1 334 46 is_stmt 0 discriminator 2 view .LVU478
 1526 0114 CEE7     		b	.L103
 1527              	.L106:
 1528              	.LBB58:
 344:../Middlewares/stm32-vision-models-postprocessing/lib_vision_models_pp/Src/od_pp_yolov8.c ****           {
 1529              		.loc 1 344 11 is_stmt 1 view .LVU479
 344:../Middlewares/stm32-vision-models-postprocessing/lib_vision_models_pp/Src/od_pp_yolov8.c ****           {
 1530              		.loc 1 344 32 is_stmt 0 view .LVU480
 1531 0116 08AB     		add	r3, sp, #32
 1532 0118 1B56     		ldrsb	r3, [r3, r0]
 344:../Middlewares/stm32-vision-models-postprocessing/lib_vision_models_pp/Src/od_pp_yolov8.c ****           {
 1533              		.loc 1 344 14 view .LVU481
 1534 011a 049A     		ldr	r2, [sp, #16]
 1535 011c 9342     		cmp	r3, r2
 1536 011e 3FDB     		blt	.L105
 346:../Middlewares/stm32-vision-models-postprocessing/lib_vision_models_pp/Src/od_pp_yolov8.c ****             class_index = class_index_array[_i];
 1537              		.loc 1 346 13 is_stmt 1 view .LVU482
 1538              	.LVL126:
 347:../Middlewares/stm32-vision-models-postprocessing/lib_vision_models_pp/Src/od_pp_yolov8.c ****             pOutBuff[nb_detect].x_center    = scale * (float32_t)((int32_t)pRaw_detections[i + _i +
 1539              		.loc 1 347 13 view .LVU483
ARM GAS  /tmp/cc8dX4ay.s 			page 41


 348:../Middlewares/stm32-vision-models-postprocessing/lib_vision_models_pp/Src/od_pp_yolov8.c ****             pOutBuff[nb_detect].y_center    = scale * (float32_t)((int32_t)pRaw_detections[i + _i +
 1540              		.loc 1 348 21 is_stmt 0 view .LVU484
 1541 0120 1821     		movs	r1, #24
 347:../Middlewares/stm32-vision-models-postprocessing/lib_vision_models_pp/Src/od_pp_yolov8.c ****             pOutBuff[nb_detect].x_center    = scale * (float32_t)((int32_t)pRaw_detections[i + _i +
 1542              		.loc 1 347 25 view .LVU485
 1543 0122 0CAA     		add	r2, sp, #48
 1544 0124 12F800A0 		ldrb	r10, [r2, r0]	@ zero_extendqisi2
 1545              	.LVL127:
 348:../Middlewares/stm32-vision-models-postprocessing/lib_vision_models_pp/Src/od_pp_yolov8.c ****             pOutBuff[nb_detect].y_center    = scale * (float32_t)((int32_t)pRaw_detections[i + _i +
 1546              		.loc 1 348 13 is_stmt 1 view .LVU486
 348:../Middlewares/stm32-vision-models-postprocessing/lib_vision_models_pp/Src/od_pp_yolov8.c ****             pOutBuff[nb_detect].y_center    = scale * (float32_t)((int32_t)pRaw_detections[i + _i +
 1547              		.loc 1 348 21 is_stmt 0 view .LVU487
 1548 0128 059A     		ldr	r2, [sp, #20]
 346:../Middlewares/stm32-vision-models-postprocessing/lib_vision_models_pp/Src/od_pp_yolov8.c ****             class_index = class_index_array[_i];
 1549              		.loc 1 346 69 view .LVU488
 1550 012a 5B1B     		subs	r3, r3, r5
 1551              	.LVL128:
 348:../Middlewares/stm32-vision-models-postprocessing/lib_vision_models_pp/Src/od_pp_yolov8.c ****             pOutBuff[nb_detect].y_center    = scale * (float32_t)((int32_t)pRaw_detections[i + _i +
 1552              		.loc 1 348 21 view .LVU489
 1553 012c 01FB0821 		mla	r1, r1, r8, r2
 348:../Middlewares/stm32-vision-models-postprocessing/lib_vision_models_pp/Src/od_pp_yolov8.c ****             pOutBuff[nb_detect].y_center    = scale * (float32_t)((int32_t)pRaw_detections[i + _i +
 1554              		.loc 1 348 67 view .LVU490
 1555 0130 9EF90020 		ldrsb	r2, [lr]
 354:../Middlewares/stm32-vision-models-postprocessing/lib_vision_models_pp/Src/od_pp_yolov8.c ****           }
 1556              		.loc 1 354 22 view .LVU491
 1557 0134 08F10108 		add	r8, r8, #1
 1558              	.LVL129:
 348:../Middlewares/stm32-vision-models-postprocessing/lib_vision_models_pp/Src/od_pp_yolov8.c ****             pOutBuff[nb_detect].y_center    = scale * (float32_t)((int32_t)pRaw_detections[i + _i +
 1559              		.loc 1 348 142 view .LVU492
 1560 0138 521B     		subs	r2, r2, r5
 1561 013a 07EE902A 		vmov	s15, r2	@ int
 348:../Middlewares/stm32-vision-models-postprocessing/lib_vision_models_pp/Src/od_pp_yolov8.c ****             pOutBuff[nb_detect].y_center    = scale * (float32_t)((int32_t)pRaw_detections[i + _i +
 1562              		.loc 1 348 55 view .LVU493
 1563 013e F8EEE77A 		vcvt.f32.s32	s15, s15
 348:../Middlewares/stm32-vision-models-postprocessing/lib_vision_models_pp/Src/od_pp_yolov8.c ****             pOutBuff[nb_detect].y_center    = scale * (float32_t)((int32_t)pRaw_detections[i + _i +
 1564              		.loc 1 348 53 view .LVU494
 1565 0142 67EE887A 		vmul.f32	s15, s15, s16
 348:../Middlewares/stm32-vision-models-postprocessing/lib_vision_models_pp/Src/od_pp_yolov8.c ****             pOutBuff[nb_detect].y_center    = scale * (float32_t)((int32_t)pRaw_detections[i + _i +
 1566              		.loc 1 348 45 view .LVU495
 1567 0146 C1ED007A 		vstr.32	s15, [r1]
 1568              	.LVL130:
 349:../Middlewares/stm32-vision-models-postprocessing/lib_vision_models_pp/Src/od_pp_yolov8.c ****             pOutBuff[nb_detect].width       = scale * (float32_t)((int32_t)pRaw_detections[i + _i +
 1569              		.loc 1 349 13 is_stmt 1 view .LVU496
 349:../Middlewares/stm32-vision-models-postprocessing/lib_vision_models_pp/Src/od_pp_yolov8.c ****             pOutBuff[nb_detect].width       = scale * (float32_t)((int32_t)pRaw_detections[i + _i +
 1570              		.loc 1 349 67 is_stmt 0 view .LVU497
 1571 014a 1EF90420 		ldrsb	r2, [lr, r4]
 349:../Middlewares/stm32-vision-models-postprocessing/lib_vision_models_pp/Src/od_pp_yolov8.c ****             pOutBuff[nb_detect].width       = scale * (float32_t)((int32_t)pRaw_detections[i + _i +
 1572              		.loc 1 349 142 view .LVU498
 1573 014e 521B     		subs	r2, r2, r5
 1574 0150 07EE902A 		vmov	s15, r2	@ int
 349:../Middlewares/stm32-vision-models-postprocessing/lib_vision_models_pp/Src/od_pp_yolov8.c ****             pOutBuff[nb_detect].width       = scale * (float32_t)((int32_t)pRaw_detections[i + _i +
 1575              		.loc 1 349 55 view .LVU499
 1576 0154 F8EEE77A 		vcvt.f32.s32	s15, s15
 349:../Middlewares/stm32-vision-models-postprocessing/lib_vision_models_pp/Src/od_pp_yolov8.c ****             pOutBuff[nb_detect].width       = scale * (float32_t)((int32_t)pRaw_detections[i + _i +
 1577              		.loc 1 349 53 view .LVU500
 1578 0158 67EE887A 		vmul.f32	s15, s15, s16
 349:../Middlewares/stm32-vision-models-postprocessing/lib_vision_models_pp/Src/od_pp_yolov8.c ****             pOutBuff[nb_detect].width       = scale * (float32_t)((int32_t)pRaw_detections[i + _i +
ARM GAS  /tmp/cc8dX4ay.s 			page 42


 1579              		.loc 1 349 45 view .LVU501
 1580 015c C1ED017A 		vstr.32	s15, [r1, #4]
 350:../Middlewares/stm32-vision-models-postprocessing/lib_vision_models_pp/Src/od_pp_yolov8.c ****             pOutBuff[nb_detect].height      = scale * (float32_t)((int32_t)pRaw_detections[i + _i +
 1581              		.loc 1 350 13 is_stmt 1 view .LVU502
 350:../Middlewares/stm32-vision-models-postprocessing/lib_vision_models_pp/Src/od_pp_yolov8.c ****             pOutBuff[nb_detect].height      = scale * (float32_t)((int32_t)pRaw_detections[i + _i +
 1582              		.loc 1 350 67 is_stmt 0 view .LVU503
 1583 0160 9BF90020 		ldrsb	r2, [fp]
 350:../Middlewares/stm32-vision-models-postprocessing/lib_vision_models_pp/Src/od_pp_yolov8.c ****             pOutBuff[nb_detect].height      = scale * (float32_t)((int32_t)pRaw_detections[i + _i +
 1584              		.loc 1 350 142 view .LVU504
 1585 0164 521B     		subs	r2, r2, r5
 1586 0166 07EE902A 		vmov	s15, r2	@ int
 350:../Middlewares/stm32-vision-models-postprocessing/lib_vision_models_pp/Src/od_pp_yolov8.c ****             pOutBuff[nb_detect].height      = scale * (float32_t)((int32_t)pRaw_detections[i + _i +
 1587              		.loc 1 350 55 view .LVU505
 1588 016a F8EEE77A 		vcvt.f32.s32	s15, s15
 350:../Middlewares/stm32-vision-models-postprocessing/lib_vision_models_pp/Src/od_pp_yolov8.c ****             pOutBuff[nb_detect].height      = scale * (float32_t)((int32_t)pRaw_detections[i + _i +
 1589              		.loc 1 350 53 view .LVU506
 1590 016e 67EE887A 		vmul.f32	s15, s15, s16
 350:../Middlewares/stm32-vision-models-postprocessing/lib_vision_models_pp/Src/od_pp_yolov8.c ****             pOutBuff[nb_detect].height      = scale * (float32_t)((int32_t)pRaw_detections[i + _i +
 1591              		.loc 1 350 45 view .LVU507
 1592 0172 C1ED027A 		vstr.32	s15, [r1, #8]
 351:../Middlewares/stm32-vision-models-postprocessing/lib_vision_models_pp/Src/od_pp_yolov8.c ****             pOutBuff[nb_detect].conf        = best_score_f;
 1593              		.loc 1 351 13 is_stmt 1 view .LVU508
 351:../Middlewares/stm32-vision-models-postprocessing/lib_vision_models_pp/Src/od_pp_yolov8.c ****             pOutBuff[nb_detect].conf        = best_score_f;
 1594              		.loc 1 351 67 is_stmt 0 view .LVU509
 1595 0176 1BF90420 		ldrsb	r2, [fp, r4]
 353:../Middlewares/stm32-vision-models-postprocessing/lib_vision_models_pp/Src/od_pp_yolov8.c ****             nb_detect++;
 1596              		.loc 1 353 45 view .LVU510
 1597 017a C1F814A0 		str	r10, [r1, #20]
 351:../Middlewares/stm32-vision-models-postprocessing/lib_vision_models_pp/Src/od_pp_yolov8.c ****             pOutBuff[nb_detect].conf        = best_score_f;
 1598              		.loc 1 351 142 view .LVU511
 1599 017e 521B     		subs	r2, r2, r5
 1600 0180 07EE902A 		vmov	s15, r2	@ int
 351:../Middlewares/stm32-vision-models-postprocessing/lib_vision_models_pp/Src/od_pp_yolov8.c ****             pOutBuff[nb_detect].conf        = best_score_f;
 1601              		.loc 1 351 55 view .LVU512
 1602 0184 F8EEE77A 		vcvt.f32.s32	s15, s15
 351:../Middlewares/stm32-vision-models-postprocessing/lib_vision_models_pp/Src/od_pp_yolov8.c ****             pOutBuff[nb_detect].conf        = best_score_f;
 1603              		.loc 1 351 53 view .LVU513
 1604 0188 67EE887A 		vmul.f32	s15, s15, s16
 351:../Middlewares/stm32-vision-models-postprocessing/lib_vision_models_pp/Src/od_pp_yolov8.c ****             pOutBuff[nb_detect].conf        = best_score_f;
 1605              		.loc 1 351 45 view .LVU514
 1606 018c C1ED037A 		vstr.32	s15, [r1, #12]
 352:../Middlewares/stm32-vision-models-postprocessing/lib_vision_models_pp/Src/od_pp_yolov8.c ****             pOutBuff[nb_detect].class_index = class_index;
 1607              		.loc 1 352 13 is_stmt 1 view .LVU515
 346:../Middlewares/stm32-vision-models-postprocessing/lib_vision_models_pp/Src/od_pp_yolov8.c ****             class_index = class_index_array[_i];
 1608              		.loc 1 346 69 is_stmt 0 view .LVU516
 1609 0190 07EE903A 		vmov	s15, r3	@ int
 346:../Middlewares/stm32-vision-models-postprocessing/lib_vision_models_pp/Src/od_pp_yolov8.c ****             class_index = class_index_array[_i];
 1610              		.loc 1 346 36 view .LVU517
 1611 0194 F8EEE77A 		vcvt.f32.s32	s15, s15
 346:../Middlewares/stm32-vision-models-postprocessing/lib_vision_models_pp/Src/od_pp_yolov8.c ****             class_index = class_index_array[_i];
 1612              		.loc 1 346 26 view .LVU518
 1613 0198 67EE887A 		vmul.f32	s15, s15, s16
 352:../Middlewares/stm32-vision-models-postprocessing/lib_vision_models_pp/Src/od_pp_yolov8.c ****             pOutBuff[nb_detect].class_index = class_index;
 1614              		.loc 1 352 45 view .LVU519
 1615 019c C1ED047A 		vstr.32	s15, [r1, #16]
 353:../Middlewares/stm32-vision-models-postprocessing/lib_vision_models_pp/Src/od_pp_yolov8.c ****             nb_detect++;
 1616              		.loc 1 353 13 is_stmt 1 view .LVU520
ARM GAS  /tmp/cc8dX4ay.s 			page 43


 354:../Middlewares/stm32-vision-models-postprocessing/lib_vision_models_pp/Src/od_pp_yolov8.c ****           }
 1617              		.loc 1 354 13 view .LVU521
 1618              	.LVL131:
 1619              	.L105:
 342:../Middlewares/stm32-vision-models-postprocessing/lib_vision_models_pp/Src/od_pp_yolov8.c ****       {
 1620              		.loc 1 342 74 discriminator 2 view .LVU522
 1621 01a0 0130     		adds	r0, r0, #1
 1622              	.LVL132:
 342:../Middlewares/stm32-vision-models-postprocessing/lib_vision_models_pp/Src/od_pp_yolov8.c ****       {
 1623              		.loc 1 342 74 is_stmt 0 discriminator 2 view .LVU523
 1624 01a2 0EF1010E 		add	lr, lr, #1
 1625 01a6 0BF1010B 		add	fp, fp, #1
 1626 01aa AEE7     		b	.L104
 1627              	.LVL133:
 1628              	.L111:
 342:../Middlewares/stm32-vision-models-postprocessing/lib_vision_models_pp/Src/od_pp_yolov8.c ****       {
 1629              		.loc 1 342 74 discriminator 2 view .LVU524
 1630              	.LBE58:
 1631              	.LBE60:
 1632              	.LBE62:
 1633              	.LBB63:
 1634              	.LBB54:
 1635              	.LBB53:
 375:../Middlewares/stm32-vision-models-postprocessing/lib_vision_models_pp/Src/od_pp_yolov8.c ****         {
 1636              		.loc 1 375 9 is_stmt 1 view .LVU525
 375:../Middlewares/stm32-vision-models-postprocessing/lib_vision_models_pp/Src/od_pp_yolov8.c ****         {
 1637              		.loc 1 375 30 is_stmt 0 view .LVU526
 1638 01ac 08AB     		add	r3, sp, #32
 1639 01ae 1B56     		ldrsb	r3, [r3, r0]
 375:../Middlewares/stm32-vision-models-postprocessing/lib_vision_models_pp/Src/od_pp_yolov8.c ****         {
 1640              		.loc 1 375 12 view .LVU527
 1641 01b0 049A     		ldr	r2, [sp, #16]
 1642 01b2 9342     		cmp	r3, r2
 1643 01b4 3EDB     		blt	.L110
 377:../Middlewares/stm32-vision-models-postprocessing/lib_vision_models_pp/Src/od_pp_yolov8.c ****           class_index = class_index_array[_i];
 1644              		.loc 1 377 11 is_stmt 1 view .LVU528
 1645              	.LVL134:
 378:../Middlewares/stm32-vision-models-postprocessing/lib_vision_models_pp/Src/od_pp_yolov8.c ****           pOutBuff[nb_detect].x_center    = scale * (float32_t)((int32_t)pRaw_detections[i + AI_YOL
 1646              		.loc 1 378 11 view .LVU529
 378:../Middlewares/stm32-vision-models-postprocessing/lib_vision_models_pp/Src/od_pp_yolov8.c ****           pOutBuff[nb_detect].x_center    = scale * (float32_t)((int32_t)pRaw_detections[i + AI_YOL
 1647              		.loc 1 378 23 is_stmt 0 view .LVU530
 1648 01b6 0CAA     		add	r2, sp, #48
 1649 01b8 32F81020 		ldrh	r2, [r2, r0, lsl #1]
 377:../Middlewares/stm32-vision-models-postprocessing/lib_vision_models_pp/Src/od_pp_yolov8.c ****           class_index = class_index_array[_i];
 1650              		.loc 1 377 67 view .LVU531
 1651 01bc 5B1B     		subs	r3, r3, r5
 1652              	.LVL135:
 378:../Middlewares/stm32-vision-models-postprocessing/lib_vision_models_pp/Src/od_pp_yolov8.c ****           pOutBuff[nb_detect].x_center    = scale * (float32_t)((int32_t)pRaw_detections[i + AI_YOL
 1653              		.loc 1 378 23 view .LVU532
 1654 01be 0692     		str	r2, [sp, #24]
 1655              	.LVL136:
 379:../Middlewares/stm32-vision-models-postprocessing/lib_vision_models_pp/Src/od_pp_yolov8.c ****           pOutBuff[nb_detect].y_center    = scale * (float32_t)((int32_t)pRaw_detections[i + AI_YOL
 1656              		.loc 1 379 11 is_stmt 1 view .LVU533
 379:../Middlewares/stm32-vision-models-postprocessing/lib_vision_models_pp/Src/od_pp_yolov8.c ****           pOutBuff[nb_detect].y_center    = scale * (float32_t)((int32_t)pRaw_detections[i + AI_YOL
 1657              		.loc 1 379 19 is_stmt 0 view .LVU534
 1658 01c0 059A     		ldr	r2, [sp, #20]
 1659              	.LVL137:
ARM GAS  /tmp/cc8dX4ay.s 			page 44


 379:../Middlewares/stm32-vision-models-postprocessing/lib_vision_models_pp/Src/od_pp_yolov8.c ****           pOutBuff[nb_detect].y_center    = scale * (float32_t)((int32_t)pRaw_detections[i + AI_YOL
 1660              		.loc 1 379 19 view .LVU535
 1661 01c2 0EFB0821 		mla	r1, lr, r8, r2
 379:../Middlewares/stm32-vision-models-postprocessing/lib_vision_models_pp/Src/od_pp_yolov8.c ****           pOutBuff[nb_detect].y_center    = scale * (float32_t)((int32_t)pRaw_detections[i + AI_YOL
 1662              		.loc 1 379 65 view .LVU536
 1663 01c6 16F90A20 		ldrsb	r2, [r6, r10]
 385:../Middlewares/stm32-vision-models-postprocessing/lib_vision_models_pp/Src/od_pp_yolov8.c ****         }
 1664              		.loc 1 385 20 view .LVU537
 1665 01ca 08F10108 		add	r8, r8, #1
 1666              	.LVL138:
 379:../Middlewares/stm32-vision-models-postprocessing/lib_vision_models_pp/Src/od_pp_yolov8.c ****           pOutBuff[nb_detect].y_center    = scale * (float32_t)((int32_t)pRaw_detections[i + AI_YOL
 1667              		.loc 1 379 135 view .LVU538
 1668 01ce 521B     		subs	r2, r2, r5
 1669 01d0 07EE902A 		vmov	s15, r2	@ int
 379:../Middlewares/stm32-vision-models-postprocessing/lib_vision_models_pp/Src/od_pp_yolov8.c ****           pOutBuff[nb_detect].y_center    = scale * (float32_t)((int32_t)pRaw_detections[i + AI_YOL
 1670              		.loc 1 379 53 view .LVU539
 1671 01d4 F8EEE77A 		vcvt.f32.s32	s15, s15
 379:../Middlewares/stm32-vision-models-postprocessing/lib_vision_models_pp/Src/od_pp_yolov8.c ****           pOutBuff[nb_detect].y_center    = scale * (float32_t)((int32_t)pRaw_detections[i + AI_YOL
 1672              		.loc 1 379 51 view .LVU540
 1673 01d8 67EE887A 		vmul.f32	s15, s15, s16
 379:../Middlewares/stm32-vision-models-postprocessing/lib_vision_models_pp/Src/od_pp_yolov8.c ****           pOutBuff[nb_detect].y_center    = scale * (float32_t)((int32_t)pRaw_detections[i + AI_YOL
 1674              		.loc 1 379 43 view .LVU541
 1675 01dc C1ED007A 		vstr.32	s15, [r1]
 1676              	.LVL139:
 380:../Middlewares/stm32-vision-models-postprocessing/lib_vision_models_pp/Src/od_pp_yolov8.c ****           pOutBuff[nb_detect].width       = scale * (float32_t)((int32_t)pRaw_detections[i + AI_YOL
 1677              		.loc 1 380 11 is_stmt 1 view .LVU542
 380:../Middlewares/stm32-vision-models-postprocessing/lib_vision_models_pp/Src/od_pp_yolov8.c ****           pOutBuff[nb_detect].width       = scale * (float32_t)((int32_t)pRaw_detections[i + AI_YOL
 1678              		.loc 1 380 65 is_stmt 0 view .LVU543
 1679 01e0 96F90020 		ldrsb	r2, [r6]
 380:../Middlewares/stm32-vision-models-postprocessing/lib_vision_models_pp/Src/od_pp_yolov8.c ****           pOutBuff[nb_detect].width       = scale * (float32_t)((int32_t)pRaw_detections[i + AI_YOL
 1680              		.loc 1 380 135 view .LVU544
 1681 01e4 521B     		subs	r2, r2, r5
 1682 01e6 07EE902A 		vmov	s15, r2	@ int
 380:../Middlewares/stm32-vision-models-postprocessing/lib_vision_models_pp/Src/od_pp_yolov8.c ****           pOutBuff[nb_detect].width       = scale * (float32_t)((int32_t)pRaw_detections[i + AI_YOL
 1683              		.loc 1 380 53 view .LVU545
 1684 01ea F8EEE77A 		vcvt.f32.s32	s15, s15
 380:../Middlewares/stm32-vision-models-postprocessing/lib_vision_models_pp/Src/od_pp_yolov8.c ****           pOutBuff[nb_detect].width       = scale * (float32_t)((int32_t)pRaw_detections[i + AI_YOL
 1685              		.loc 1 380 51 view .LVU546
 1686 01ee 67EE887A 		vmul.f32	s15, s15, s16
 380:../Middlewares/stm32-vision-models-postprocessing/lib_vision_models_pp/Src/od_pp_yolov8.c ****           pOutBuff[nb_detect].width       = scale * (float32_t)((int32_t)pRaw_detections[i + AI_YOL
 1687              		.loc 1 380 43 view .LVU547
 1688 01f2 C1ED017A 		vstr.32	s15, [r1, #4]
 381:../Middlewares/stm32-vision-models-postprocessing/lib_vision_models_pp/Src/od_pp_yolov8.c ****           pOutBuff[nb_detect].height      = scale * (float32_t)((int32_t)pRaw_detections[i + AI_YOL
 1689              		.loc 1 381 11 is_stmt 1 view .LVU548
 381:../Middlewares/stm32-vision-models-postprocessing/lib_vision_models_pp/Src/od_pp_yolov8.c ****           pOutBuff[nb_detect].height      = scale * (float32_t)((int32_t)pRaw_detections[i + AI_YOL
 1690              		.loc 1 381 65 is_stmt 0 view .LVU549
 1691 01f6 3257     		ldrsb	r2, [r6, r4]
 381:../Middlewares/stm32-vision-models-postprocessing/lib_vision_models_pp/Src/od_pp_yolov8.c ****           pOutBuff[nb_detect].height      = scale * (float32_t)((int32_t)pRaw_detections[i + AI_YOL
 1692              		.loc 1 381 135 view .LVU550
 1693 01f8 521B     		subs	r2, r2, r5
 1694 01fa 07EE902A 		vmov	s15, r2	@ int
 381:../Middlewares/stm32-vision-models-postprocessing/lib_vision_models_pp/Src/od_pp_yolov8.c ****           pOutBuff[nb_detect].height      = scale * (float32_t)((int32_t)pRaw_detections[i + AI_YOL
 1695              		.loc 1 381 53 view .LVU551
 1696 01fe F8EEE77A 		vcvt.f32.s32	s15, s15
 381:../Middlewares/stm32-vision-models-postprocessing/lib_vision_models_pp/Src/od_pp_yolov8.c ****           pOutBuff[nb_detect].height      = scale * (float32_t)((int32_t)pRaw_detections[i + AI_YOL
 1697              		.loc 1 381 51 view .LVU552
 1698 0202 67EE887A 		vmul.f32	s15, s15, s16
ARM GAS  /tmp/cc8dX4ay.s 			page 45


 381:../Middlewares/stm32-vision-models-postprocessing/lib_vision_models_pp/Src/od_pp_yolov8.c ****           pOutBuff[nb_detect].height      = scale * (float32_t)((int32_t)pRaw_detections[i + AI_YOL
 1699              		.loc 1 381 43 view .LVU553
 1700 0206 C1ED027A 		vstr.32	s15, [r1, #8]
 382:../Middlewares/stm32-vision-models-postprocessing/lib_vision_models_pp/Src/od_pp_yolov8.c ****           pOutBuff[nb_detect].conf        = best_score_f;
 1701              		.loc 1 382 11 is_stmt 1 view .LVU554
 382:../Middlewares/stm32-vision-models-postprocessing/lib_vision_models_pp/Src/od_pp_yolov8.c ****           pOutBuff[nb_detect].conf        = best_score_f;
 1702              		.loc 1 382 65 is_stmt 0 view .LVU555
 1703 020a 1BF90A20 		ldrsb	r2, [fp, r10]
 382:../Middlewares/stm32-vision-models-postprocessing/lib_vision_models_pp/Src/od_pp_yolov8.c ****           pOutBuff[nb_detect].conf        = best_score_f;
 1704              		.loc 1 382 135 view .LVU556
 1705 020e 521B     		subs	r2, r2, r5
 1706 0210 07EE902A 		vmov	s15, r2	@ int
 382:../Middlewares/stm32-vision-models-postprocessing/lib_vision_models_pp/Src/od_pp_yolov8.c ****           pOutBuff[nb_detect].conf        = best_score_f;
 1707              		.loc 1 382 53 view .LVU557
 1708 0214 F8EEE77A 		vcvt.f32.s32	s15, s15
 382:../Middlewares/stm32-vision-models-postprocessing/lib_vision_models_pp/Src/od_pp_yolov8.c ****           pOutBuff[nb_detect].conf        = best_score_f;
 1709              		.loc 1 382 51 view .LVU558
 1710 0218 67EE887A 		vmul.f32	s15, s15, s16
 382:../Middlewares/stm32-vision-models-postprocessing/lib_vision_models_pp/Src/od_pp_yolov8.c ****           pOutBuff[nb_detect].conf        = best_score_f;
 1711              		.loc 1 382 43 view .LVU559
 1712 021c C1ED037A 		vstr.32	s15, [r1, #12]
 383:../Middlewares/stm32-vision-models-postprocessing/lib_vision_models_pp/Src/od_pp_yolov8.c ****           pOutBuff[nb_detect].class_index = class_index;
 1713              		.loc 1 383 11 is_stmt 1 view .LVU560
 377:../Middlewares/stm32-vision-models-postprocessing/lib_vision_models_pp/Src/od_pp_yolov8.c ****           class_index = class_index_array[_i];
 1714              		.loc 1 377 67 is_stmt 0 view .LVU561
 1715 0220 07EE903A 		vmov	s15, r3	@ int
 377:../Middlewares/stm32-vision-models-postprocessing/lib_vision_models_pp/Src/od_pp_yolov8.c ****           class_index = class_index_array[_i];
 1716              		.loc 1 377 34 view .LVU562
 1717 0224 F8EEE77A 		vcvt.f32.s32	s15, s15
 377:../Middlewares/stm32-vision-models-postprocessing/lib_vision_models_pp/Src/od_pp_yolov8.c ****           class_index = class_index_array[_i];
 1718              		.loc 1 377 24 view .LVU563
 1719 0228 67EE887A 		vmul.f32	s15, s15, s16
 383:../Middlewares/stm32-vision-models-postprocessing/lib_vision_models_pp/Src/od_pp_yolov8.c ****           pOutBuff[nb_detect].class_index = class_index;
 1720              		.loc 1 383 43 view .LVU564
 1721 022c C1ED047A 		vstr.32	s15, [r1, #16]
 384:../Middlewares/stm32-vision-models-postprocessing/lib_vision_models_pp/Src/od_pp_yolov8.c ****           nb_detect++;
 1722              		.loc 1 384 11 is_stmt 1 view .LVU565
 384:../Middlewares/stm32-vision-models-postprocessing/lib_vision_models_pp/Src/od_pp_yolov8.c ****           nb_detect++;
 1723              		.loc 1 384 43 is_stmt 0 view .LVU566
 1724 0230 069B     		ldr	r3, [sp, #24]
 1725 0232 4B61     		str	r3, [r1, #20]
 385:../Middlewares/stm32-vision-models-postprocessing/lib_vision_models_pp/Src/od_pp_yolov8.c ****         }
 1726              		.loc 1 385 11 is_stmt 1 view .LVU567
 1727              	.LVL140:
 1728              	.L110:
 373:../Middlewares/stm32-vision-models-postprocessing/lib_vision_models_pp/Src/od_pp_yolov8.c ****       {
 1729              		.loc 1 373 74 discriminator 2 view .LVU568
 1730 0234 0130     		adds	r0, r0, #1
 1731              	.LVL141:
 373:../Middlewares/stm32-vision-models-postprocessing/lib_vision_models_pp/Src/od_pp_yolov8.c ****       {
 1732              		.loc 1 373 74 is_stmt 0 discriminator 2 view .LVU569
 1733 0236 2DE7     		b	.L109
 1734              	.LBE53:
 1735              	.LBE54:
 1736              	.LBE63:
 1737              		.cfi_endproc
 1738              	.LFE781:
ARM GAS  /tmp/cc8dX4ay.s 			page 46


 1740              		.section	.text.yolov8_pp_getNNBoxes_centroid_is8os8,"ax",%progbits
 1741              		.align	1
 1742              		.global	yolov8_pp_getNNBoxes_centroid_is8os8
 1743              		.syntax unified
 1744              		.thumb
 1745              		.thumb_func
 1747              	yolov8_pp_getNNBoxes_centroid_is8os8:
 1748              	.LVL142:
 1749              	.LFB782:
 395:../Middlewares/stm32-vision-models-postprocessing/lib_vision_models_pp/Src/od_pp_yolov8.c **** 
 396:../Middlewares/stm32-vision-models-postprocessing/lib_vision_models_pp/Src/od_pp_yolov8.c **** int32_t yolov8_pp_getNNBoxes_centroid_is8os8(od_yolov8_pp_in_centroid_t *pInput,
 397:../Middlewares/stm32-vision-models-postprocessing/lib_vision_models_pp/Src/od_pp_yolov8.c ****                                              od_yolov8_pp_scratch_s8_t *ptrScratch,
 398:../Middlewares/stm32-vision-models-postprocessing/lib_vision_models_pp/Src/od_pp_yolov8.c ****                                              od_yolov8_pp_static_param_t *pInput_static_param)
 399:../Middlewares/stm32-vision-models-postprocessing/lib_vision_models_pp/Src/od_pp_yolov8.c **** {
 1750              		.loc 1 399 1 is_stmt 1 view -0
 1751              		.cfi_startproc
 1752              		@ args = 0, pretend = 0, frame = 56
 1753              		@ frame_needed = 0, uses_anonymous_args = 0
 400:../Middlewares/stm32-vision-models-postprocessing/lib_vision_models_pp/Src/od_pp_yolov8.c ****   int32_t error   = AI_OD_POSTPROCESS_ERROR_NO;
 1754              		.loc 1 400 3 view .LVU571
 401:../Middlewares/stm32-vision-models-postprocessing/lib_vision_models_pp/Src/od_pp_yolov8.c ****   int32_t nb_classes = pInput_static_param->nb_classes;
 1755              		.loc 1 401 3 view .LVU572
 399:../Middlewares/stm32-vision-models-postprocessing/lib_vision_models_pp/Src/od_pp_yolov8.c ****   int32_t error   = AI_OD_POSTPROCESS_ERROR_NO;
 1756              		.loc 1 399 1 is_stmt 0 view .LVU573
 1757 0000 2DE9F04F 		push	{r4, r5, r6, r7, r8, r9, r10, fp, lr}
 1758              		.cfi_def_cfa_offset 36
 1759              		.cfi_offset 4, -36
 1760              		.cfi_offset 5, -32
 1761              		.cfi_offset 6, -28
 1762              		.cfi_offset 7, -24
 1763              		.cfi_offset 8, -20
 1764              		.cfi_offset 9, -16
 1765              		.cfi_offset 10, -12
 1766              		.cfi_offset 11, -8
 1767              		.cfi_offset 14, -4
 1768 0004 1446     		mov	r4, r2
 402:../Middlewares/stm32-vision-models-postprocessing/lib_vision_models_pp/Src/od_pp_yolov8.c ****   int32_t nb_total_boxes = pInput_static_param->nb_total_boxes;
 403:../Middlewares/stm32-vision-models-postprocessing/lib_vision_models_pp/Src/od_pp_yolov8.c ****   int8_t *pRaw_detections = (int8_t *)pInput->pRaw_detections;
 404:../Middlewares/stm32-vision-models-postprocessing/lib_vision_models_pp/Src/od_pp_yolov8.c ****   int8_t zero_point = pInput_static_param->raw_output_zero_point;
 405:../Middlewares/stm32-vision-models-postprocessing/lib_vision_models_pp/Src/od_pp_yolov8.c ****   float32_t scale = pInput_static_param->raw_output_scale;
 1769              		.loc 1 405 13 view .LVU574
 1770 0006 94ED057A 		vldr.32	s14, [r4, #20]
 406:../Middlewares/stm32-vision-models-postprocessing/lib_vision_models_pp/Src/od_pp_yolov8.c **** 
 407:../Middlewares/stm32-vision-models-postprocessing/lib_vision_models_pp/Src/od_pp_yolov8.c ****   pInput_static_param->nb_detect =0;
 408:../Middlewares/stm32-vision-models-postprocessing/lib_vision_models_pp/Src/od_pp_yolov8.c ****   int32_t remaining_boxes = nb_total_boxes;
 409:../Middlewares/stm32-vision-models-postprocessing/lib_vision_models_pp/Src/od_pp_yolov8.c ****   int8_t conf_threshold_s8 = (int8_t)(pInput_static_param->conf_threshold / scale + 0.5f) + zero_po
 1771              		.loc 1 409 75 view .LVU575
 1772 000a D4ED036A 		vldr.32	s13, [r4, #12]
 1773 000e C6EE877A 		vdiv.f32	s15, s13, s14
 1774              		.loc 1 409 83 view .LVU576
 1775 0012 B6EE007A 		vmov.f32	s14, #5.0e-1
 1776 0016 77EE877A 		vadd.f32	s15, s15, s14
 1777              		.loc 1 409 30 view .LVU577
 1778 001a FDEEE77A 		vcvt.s32.f32	s15, s15
 401:../Middlewares/stm32-vision-models-postprocessing/lib_vision_models_pp/Src/od_pp_yolov8.c ****   int32_t nb_total_boxes = pInput_static_param->nb_total_boxes;
 1779              		.loc 1 401 11 view .LVU578
 1780 001e 1368     		ldr	r3, [r2]
ARM GAS  /tmp/cc8dX4ay.s 			page 47


 399:../Middlewares/stm32-vision-models-postprocessing/lib_vision_models_pp/Src/od_pp_yolov8.c ****   int32_t error   = AI_OD_POSTPROCESS_ERROR_NO;
 1781              		.loc 1 399 1 view .LVU579
 1782 0020 91B0     		sub	sp, sp, #68
 1783              		.cfi_def_cfa_offset 104
 401:../Middlewares/stm32-vision-models-postprocessing/lib_vision_models_pp/Src/od_pp_yolov8.c ****   int32_t nb_total_boxes = pInput_static_param->nb_total_boxes;
 1784              		.loc 1 401 11 view .LVU580
 1785 0022 0493     		str	r3, [sp, #16]
 1786              	.LVL143:
 402:../Middlewares/stm32-vision-models-postprocessing/lib_vision_models_pp/Src/od_pp_yolov8.c ****   int8_t *pRaw_detections = (int8_t *)pInput->pRaw_detections;
 1787              		.loc 1 402 3 is_stmt 1 view .LVU581
 1788              		.loc 1 409 30 is_stmt 0 view .LVU582
 1789 0024 17EE903A 		vmov	r3, s15	@ int
 1790              	.LVL144:
 407:../Middlewares/stm32-vision-models-postprocessing/lib_vision_models_pp/Src/od_pp_yolov8.c ****   int32_t remaining_boxes = nb_total_boxes;
 1791              		.loc 1 407 34 view .LVU583
 1792 0028 0025     		movs	r5, #0
 399:../Middlewares/stm32-vision-models-postprocessing/lib_vision_models_pp/Src/od_pp_yolov8.c ****   int32_t error   = AI_OD_POSTPROCESS_ERROR_NO;
 1793              		.loc 1 399 1 view .LVU584
 1794 002a 8846     		mov	r8, r1
 402:../Middlewares/stm32-vision-models-postprocessing/lib_vision_models_pp/Src/od_pp_yolov8.c ****   int8_t *pRaw_detections = (int8_t *)pInput->pRaw_detections;
 1795              		.loc 1 402 11 view .LVU585
 1796 002c 5668     		ldr	r6, [r2, #4]
 1797              	.LVL145:
 403:../Middlewares/stm32-vision-models-postprocessing/lib_vision_models_pp/Src/od_pp_yolov8.c ****   int8_t zero_point = pInput_static_param->raw_output_zero_point;
 1798              		.loc 1 403 3 is_stmt 1 view .LVU586
 404:../Middlewares/stm32-vision-models-postprocessing/lib_vision_models_pp/Src/od_pp_yolov8.c ****   float32_t scale = pInput_static_param->raw_output_scale;
 1799              		.loc 1 404 10 is_stmt 0 view .LVU587
 1800 002e 92F91820 		ldrsb	r2, [r2, #24]
 1801              	.LVL146:
 403:../Middlewares/stm32-vision-models-postprocessing/lib_vision_models_pp/Src/od_pp_yolov8.c ****   int8_t zero_point = pInput_static_param->raw_output_zero_point;
 1802              		.loc 1 403 11 view .LVU588
 1803 0032 D0F800B0 		ldr	fp, [r0]
 1804              	.LVL147:
 404:../Middlewares/stm32-vision-models-postprocessing/lib_vision_models_pp/Src/od_pp_yolov8.c ****   float32_t scale = pInput_static_param->raw_output_scale;
 1805              		.loc 1 404 3 is_stmt 1 view .LVU589
 405:../Middlewares/stm32-vision-models-postprocessing/lib_vision_models_pp/Src/od_pp_yolov8.c **** 
 1806              		.loc 1 405 3 view .LVU590
 407:../Middlewares/stm32-vision-models-postprocessing/lib_vision_models_pp/Src/od_pp_yolov8.c ****   int32_t remaining_boxes = nb_total_boxes;
 1807              		.loc 1 407 3 view .LVU591
 1808              		.loc 1 409 91 is_stmt 0 view .LVU592
 1809 0036 1344     		add	r3, r3, r2
 1810              		.loc 1 409 10 view .LVU593
 1811 0038 5BB2     		sxtb	r3, r3
 1812 003a 0593     		str	r3, [sp, #20]
 1813              	.LBB64:
 1814              	.LBB65:
 410:../Middlewares/stm32-vision-models-postprocessing/lib_vision_models_pp/Src/od_pp_yolov8.c **** 
 411:../Middlewares/stm32-vision-models-postprocessing/lib_vision_models_pp/Src/od_pp_yolov8.c ****   int8_t best_score_array[16];
 412:../Middlewares/stm32-vision-models-postprocessing/lib_vision_models_pp/Src/od_pp_yolov8.c ****   uint8_t class_index_array[16];
 413:../Middlewares/stm32-vision-models-postprocessing/lib_vision_models_pp/Src/od_pp_yolov8.c **** 
 414:../Middlewares/stm32-vision-models-postprocessing/lib_vision_models_pp/Src/od_pp_yolov8.c ****   for (int32_t i = 0; i < nb_total_boxes; i+=16)
 415:../Middlewares/stm32-vision-models-postprocessing/lib_vision_models_pp/Src/od_pp_yolov8.c ****   {
 416:../Middlewares/stm32-vision-models-postprocessing/lib_vision_models_pp/Src/od_pp_yolov8.c ****     vision_models_maxi_tr_p_is8ou8(&pRaw_detections[i + AI_YOLOV8_PP_CLASSPROB * nb_total_boxes],
 417:../Middlewares/stm32-vision-models-postprocessing/lib_vision_models_pp/Src/od_pp_yolov8.c ****                                   nb_classes,
 418:../Middlewares/stm32-vision-models-postprocessing/lib_vision_models_pp/Src/od_pp_yolov8.c ****                                   nb_total_boxes,
 419:../Middlewares/stm32-vision-models-postprocessing/lib_vision_models_pp/Src/od_pp_yolov8.c ****                                   best_score_array,
 420:../Middlewares/stm32-vision-models-postprocessing/lib_vision_models_pp/Src/od_pp_yolov8.c ****                                   class_index_array,
ARM GAS  /tmp/cc8dX4ay.s 			page 48


 421:../Middlewares/stm32-vision-models-postprocessing/lib_vision_models_pp/Src/od_pp_yolov8.c ****                                   remaining_boxes);
 422:../Middlewares/stm32-vision-models-postprocessing/lib_vision_models_pp/Src/od_pp_yolov8.c ****     for (int _i = 0; _i < ((remaining_boxes>16)?16:remaining_boxes); _i++)
 423:../Middlewares/stm32-vision-models-postprocessing/lib_vision_models_pp/Src/od_pp_yolov8.c ****     {
 424:../Middlewares/stm32-vision-models-postprocessing/lib_vision_models_pp/Src/od_pp_yolov8.c ****       if ( best_score_array[_i] >= conf_threshold_s8)
 425:../Middlewares/stm32-vision-models-postprocessing/lib_vision_models_pp/Src/od_pp_yolov8.c ****       {
 426:../Middlewares/stm32-vision-models-postprocessing/lib_vision_models_pp/Src/od_pp_yolov8.c ****         ptrScratch[pInput_static_param->nb_detect].x_center    = pRaw_detections[i + _i + AI_YOLOV8
 427:../Middlewares/stm32-vision-models-postprocessing/lib_vision_models_pp/Src/od_pp_yolov8.c ****         ptrScratch[pInput_static_param->nb_detect].y_center    = pRaw_detections[i + _i + AI_YOLOV8
 428:../Middlewares/stm32-vision-models-postprocessing/lib_vision_models_pp/Src/od_pp_yolov8.c ****         ptrScratch[pInput_static_param->nb_detect].width       = pRaw_detections[i + _i + AI_YOLOV8
 429:../Middlewares/stm32-vision-models-postprocessing/lib_vision_models_pp/Src/od_pp_yolov8.c ****         ptrScratch[pInput_static_param->nb_detect].height      = pRaw_detections[i + _i + AI_YOLOV8
 1815              		.loc 1 429 114 view .LVU594
 1816 003c 06EB4603 		add	r3, r6, r6, lsl #1
 1817 0040 0693     		str	r3, [sp, #24]
 1818 0042 0BEB8603 		add	r3, fp, r6, lsl #2
 1819              	.LBE65:
 1820              	.LBE64:
 407:../Middlewares/stm32-vision-models-postprocessing/lib_vision_models_pp/Src/od_pp_yolov8.c ****   int32_t remaining_boxes = nb_total_boxes;
 1821              		.loc 1 407 34 view .LVU595
 1822 0046 E561     		str	r5, [r4, #28]
 408:../Middlewares/stm32-vision-models-postprocessing/lib_vision_models_pp/Src/od_pp_yolov8.c ****   int8_t conf_threshold_s8 = (int8_t)(pInput_static_param->conf_threshold / scale + 0.5f) + zero_po
 1823              		.loc 1 408 3 is_stmt 1 view .LVU596
 1824              	.LVL148:
 409:../Middlewares/stm32-vision-models-postprocessing/lib_vision_models_pp/Src/od_pp_yolov8.c **** 
 1825              		.loc 1 409 3 view .LVU597
 411:../Middlewares/stm32-vision-models-postprocessing/lib_vision_models_pp/Src/od_pp_yolov8.c ****   uint8_t class_index_array[16];
 1826              		.loc 1 411 3 view .LVU598
 412:../Middlewares/stm32-vision-models-postprocessing/lib_vision_models_pp/Src/od_pp_yolov8.c **** 
 1827              		.loc 1 412 3 view .LVU599
 414:../Middlewares/stm32-vision-models-postprocessing/lib_vision_models_pp/Src/od_pp_yolov8.c ****   {
 1828              		.loc 1 414 3 view .LVU600
 1829              	.LBB68:
 414:../Middlewares/stm32-vision-models-postprocessing/lib_vision_models_pp/Src/od_pp_yolov8.c ****   {
 1830              		.loc 1 414 8 view .LVU601
 414:../Middlewares/stm32-vision-models-postprocessing/lib_vision_models_pp/Src/od_pp_yolov8.c ****   {
 1831              		.loc 1 414 8 is_stmt 0 view .LVU602
 1832 0048 0793     		str	r3, [sp, #28]
 1833              	.LVL149:
 1834              	.L118:
 414:../Middlewares/stm32-vision-models-postprocessing/lib_vision_models_pp/Src/od_pp_yolov8.c ****   {
 1835              		.loc 1 414 25 discriminator 1 view .LVU603
 1836 004a B542     		cmp	r5, r6
 1837 004c A6EB0507 		sub	r7, r6, r5
 1838              	.LVL150:
 414:../Middlewares/stm32-vision-models-postprocessing/lib_vision_models_pp/Src/od_pp_yolov8.c ****   {
 1839              		.loc 1 414 25 is_stmt 1 discriminator 1 view .LVU604
 1840 0050 03DB     		blt	.L122
 1841              	.LBE68:
 430:../Middlewares/stm32-vision-models-postprocessing/lib_vision_models_pp/Src/od_pp_yolov8.c ****         ptrScratch[pInput_static_param->nb_detect].conf        = best_score_array[_i];
 431:../Middlewares/stm32-vision-models-postprocessing/lib_vision_models_pp/Src/od_pp_yolov8.c ****         ptrScratch[pInput_static_param->nb_detect].class_index = class_index_array[_i];
 432:../Middlewares/stm32-vision-models-postprocessing/lib_vision_models_pp/Src/od_pp_yolov8.c ****         pInput_static_param->nb_detect++;
 433:../Middlewares/stm32-vision-models-postprocessing/lib_vision_models_pp/Src/od_pp_yolov8.c ****       }
 434:../Middlewares/stm32-vision-models-postprocessing/lib_vision_models_pp/Src/od_pp_yolov8.c ****     }
 435:../Middlewares/stm32-vision-models-postprocessing/lib_vision_models_pp/Src/od_pp_yolov8.c ****     remaining_boxes-=16;
 436:../Middlewares/stm32-vision-models-postprocessing/lib_vision_models_pp/Src/od_pp_yolov8.c ****   } // for nb_total_boxes
 437:../Middlewares/stm32-vision-models-postprocessing/lib_vision_models_pp/Src/od_pp_yolov8.c ****   return (error);
 1842              		.loc 1 437 3 view .LVU605
 438:../Middlewares/stm32-vision-models-postprocessing/lib_vision_models_pp/Src/od_pp_yolov8.c **** }
 1843              		.loc 1 438 1 is_stmt 0 view .LVU606
ARM GAS  /tmp/cc8dX4ay.s 			page 49


 1844 0052 0020     		movs	r0, #0
 1845 0054 11B0     		add	sp, sp, #68
 1846              		.cfi_remember_state
 1847              		.cfi_def_cfa_offset 36
 1848              		@ sp needed
 1849 0056 BDE8F08F 		pop	{r4, r5, r6, r7, r8, r9, r10, fp, pc}
 1850              	.LVL151:
 1851              	.L122:
 1852              		.cfi_restore_state
 1853              	.LBB69:
 416:../Middlewares/stm32-vision-models-postprocessing/lib_vision_models_pp/Src/od_pp_yolov8.c ****                                   nb_classes,
 1854              		.loc 1 416 5 is_stmt 1 view .LVU607
 1855 005a 0798     		ldr	r0, [sp, #28]
 1856 005c 0DF13009 		add	r9, sp, #48
 1857 0060 3246     		mov	r2, r6
 1858 0062 0197     		str	r7, [sp, #4]
 1859 0064 08AB     		add	r3, sp, #32
 1860 0066 2818     		adds	r0, r5, r0
 1861 0068 0499     		ldr	r1, [sp, #16]
 1862 006a CDF80090 		str	r9, [sp]
 1863 006e FFF7FEFF 		bl	vision_models_maxi_tr_p_is8ou8
 1864              	.LVL152:
 422:../Middlewares/stm32-vision-models-postprocessing/lib_vision_models_pp/Src/od_pp_yolov8.c ****     {
 1865              		.loc 1 422 5 view .LVU608
 1866              	.LBB66:
 422:../Middlewares/stm32-vision-models-postprocessing/lib_vision_models_pp/Src/od_pp_yolov8.c ****     {
 1867              		.loc 1 422 10 view .LVU609
 422:../Middlewares/stm32-vision-models-postprocessing/lib_vision_models_pp/Src/od_pp_yolov8.c ****     {
 1868              		.loc 1 422 51 is_stmt 0 discriminator 1 view .LVU610
 1869 0072 102F     		cmp	r7, #16
 1870 0074 A8BF     		it	ge
 1871 0076 1027     		movge	r7, #16
 1872              	.LVL153:
 422:../Middlewares/stm32-vision-models-postprocessing/lib_vision_models_pp/Src/od_pp_yolov8.c ****     {
 1873              		.loc 1 422 14 view .LVU611
 1874 0078 0020     		movs	r0, #0
 431:../Middlewares/stm32-vision-models-postprocessing/lib_vision_models_pp/Src/od_pp_yolov8.c ****         pInput_static_param->nb_detect++;
 1875              		.loc 1 431 83 view .LVU612
 1876 007a 7A1C     		adds	r2, r7, #1
 1877 007c B842     		cmp	r0, r7
 1878 007e 0BEB0503 		add	r3, fp, r5
 1879 0082 0DF1200C 		add	ip, sp, #32
 1880 0086 0392     		str	r2, [sp, #12]
 1881 0088 02DC     		bgt	.L123
 1882 008a B7F1004F 		cmp	r7, #-2147483648
 1883 008e 01D1     		bne	.L119
 1884              	.L123:
 1885 0090 0122     		movs	r2, #1
 1886 0092 0392     		str	r2, [sp, #12]
 1887              	.LVL154:
 1888              	.L119:
 422:../Middlewares/stm32-vision-models-postprocessing/lib_vision_models_pp/Src/od_pp_yolov8.c ****     {
 1889              		.loc 1 422 25 is_stmt 1 discriminator 1 view .LVU613
 1890 0094 039A     		ldr	r2, [sp, #12]
 1891 0096 013A     		subs	r2, r2, #1
 1892 0098 0392     		str	r2, [sp, #12]
 1893 009a 01D1     		bne	.L121
ARM GAS  /tmp/cc8dX4ay.s 			page 50


 1894              	.LBE66:
 435:../Middlewares/stm32-vision-models-postprocessing/lib_vision_models_pp/Src/od_pp_yolov8.c ****   } // for nb_total_boxes
 1895              		.loc 1 435 5 view .LVU614
 1896              	.LVL155:
 414:../Middlewares/stm32-vision-models-postprocessing/lib_vision_models_pp/Src/od_pp_yolov8.c ****   {
 1897              		.loc 1 414 44 discriminator 2 view .LVU615
 1898 009c 1035     		adds	r5, r5, #16
 1899              	.LVL156:
 414:../Middlewares/stm32-vision-models-postprocessing/lib_vision_models_pp/Src/od_pp_yolov8.c ****   {
 1900              		.loc 1 414 44 is_stmt 0 discriminator 2 view .LVU616
 1901 009e D4E7     		b	.L118
 1902              	.L121:
 1903              	.LBB67:
 424:../Middlewares/stm32-vision-models-postprocessing/lib_vision_models_pp/Src/od_pp_yolov8.c ****       {
 1904              		.loc 1 424 7 is_stmt 1 view .LVU617
 424:../Middlewares/stm32-vision-models-postprocessing/lib_vision_models_pp/Src/od_pp_yolov8.c ****       {
 1905              		.loc 1 424 28 is_stmt 0 view .LVU618
 1906 00a0 1CF901EB 		ldrsb	lr, [ip], #1
 424:../Middlewares/stm32-vision-models-postprocessing/lib_vision_models_pp/Src/od_pp_yolov8.c ****       {
 1907              		.loc 1 424 10 view .LVU619
 1908 00a4 059A     		ldr	r2, [sp, #20]
 1909 00a6 9645     		cmp	lr, r2
 1910 00a8 1EDB     		blt	.L120
 426:../Middlewares/stm32-vision-models-postprocessing/lib_vision_models_pp/Src/od_pp_yolov8.c ****         ptrScratch[pInput_static_param->nb_detect].y_center    = pRaw_detections[i + _i + AI_YOLOV8
 1911              		.loc 1 426 9 is_stmt 1 view .LVU620
 426:../Middlewares/stm32-vision-models-postprocessing/lib_vision_models_pp/Src/od_pp_yolov8.c ****         ptrScratch[pInput_static_param->nb_detect].y_center    = pRaw_detections[i + _i + AI_YOLOV8
 1912              		.loc 1 426 19 is_stmt 0 view .LVU621
 1913 00aa 0622     		movs	r2, #6
 426:../Middlewares/stm32-vision-models-postprocessing/lib_vision_models_pp/Src/od_pp_yolov8.c ****         ptrScratch[pInput_static_param->nb_detect].y_center    = pRaw_detections[i + _i + AI_YOLOV8
 1914              		.loc 1 426 39 view .LVU622
 1915 00ac E769     		ldr	r7, [r4, #28]
 426:../Middlewares/stm32-vision-models-postprocessing/lib_vision_models_pp/Src/od_pp_yolov8.c ****         ptrScratch[pInput_static_param->nb_detect].y_center    = pRaw_detections[i + _i + AI_YOLOV8
 1916              		.loc 1 426 81 view .LVU623
 1917 00ae 93F90010 		ldrsb	r1, [r3]
 426:../Middlewares/stm32-vision-models-postprocessing/lib_vision_models_pp/Src/od_pp_yolov8.c ****         ptrScratch[pInput_static_param->nb_detect].y_center    = pRaw_detections[i + _i + AI_YOLOV8
 1918              		.loc 1 426 19 view .LVU624
 1919 00b2 02FB07FA 		mul	r10, r2, r7
 426:../Middlewares/stm32-vision-models-postprocessing/lib_vision_models_pp/Src/od_pp_yolov8.c ****         ptrScratch[pInput_static_param->nb_detect].y_center    = pRaw_detections[i + _i + AI_YOLOV8
 1920              		.loc 1 426 64 view .LVU625
 1921 00b6 08F80A10 		strb	r1, [r8, r10]
 427:../Middlewares/stm32-vision-models-postprocessing/lib_vision_models_pp/Src/od_pp_yolov8.c ****         ptrScratch[pInput_static_param->nb_detect].width       = pRaw_detections[i + _i + AI_YOLOV8
 1922              		.loc 1 427 9 is_stmt 1 view .LVU626
 426:../Middlewares/stm32-vision-models-postprocessing/lib_vision_models_pp/Src/od_pp_yolov8.c ****         ptrScratch[pInput_static_param->nb_detect].y_center    = pRaw_detections[i + _i + AI_YOLOV8
 1923              		.loc 1 426 19 is_stmt 0 view .LVU627
 1924 00ba 08EB0A02 		add	r2, r8, r10
 427:../Middlewares/stm32-vision-models-postprocessing/lib_vision_models_pp/Src/od_pp_yolov8.c ****         ptrScratch[pInput_static_param->nb_detect].width       = pRaw_detections[i + _i + AI_YOLOV8
 1925              		.loc 1 427 81 view .LVU628
 1926 00be 13F906A0 		ldrsb	r10, [r3, r6]
 429:../Middlewares/stm32-vision-models-postprocessing/lib_vision_models_pp/Src/od_pp_yolov8.c ****         ptrScratch[pInput_static_param->nb_detect].conf        = best_score_array[_i];
 1927              		.loc 1 429 81 view .LVU629
 1928 00c2 0699     		ldr	r1, [sp, #24]
 427:../Middlewares/stm32-vision-models-postprocessing/lib_vision_models_pp/Src/od_pp_yolov8.c ****         ptrScratch[pInput_static_param->nb_detect].width       = pRaw_detections[i + _i + AI_YOLOV8
 1929              		.loc 1 427 64 view .LVU630
 1930 00c4 82F801A0 		strb	r10, [r2, #1]
 428:../Middlewares/stm32-vision-models-postprocessing/lib_vision_models_pp/Src/od_pp_yolov8.c ****         ptrScratch[pInput_static_param->nb_detect].height      = pRaw_detections[i + _i + AI_YOLOV8
 1931              		.loc 1 428 9 is_stmt 1 view .LVU631
 428:../Middlewares/stm32-vision-models-postprocessing/lib_vision_models_pp/Src/od_pp_yolov8.c ****         ptrScratch[pInput_static_param->nb_detect].height      = pRaw_detections[i + _i + AI_YOLOV8
ARM GAS  /tmp/cc8dX4ay.s 			page 51


 1932              		.loc 1 428 81 is_stmt 0 view .LVU632
 1933 00c8 13F916A0 		ldrsb	r10, [r3, r6, lsl #1]
 432:../Middlewares/stm32-vision-models-postprocessing/lib_vision_models_pp/Src/od_pp_yolov8.c ****       }
 1934              		.loc 1 432 39 view .LVU633
 1935 00cc 0137     		adds	r7, r7, #1
 428:../Middlewares/stm32-vision-models-postprocessing/lib_vision_models_pp/Src/od_pp_yolov8.c ****         ptrScratch[pInput_static_param->nb_detect].height      = pRaw_detections[i + _i + AI_YOLOV8
 1936              		.loc 1 428 64 view .LVU634
 1937 00ce 82F802A0 		strb	r10, [r2, #2]
 429:../Middlewares/stm32-vision-models-postprocessing/lib_vision_models_pp/Src/od_pp_yolov8.c ****         ptrScratch[pInput_static_param->nb_detect].conf        = best_score_array[_i];
 1938              		.loc 1 429 9 is_stmt 1 view .LVU635
 429:../Middlewares/stm32-vision-models-postprocessing/lib_vision_models_pp/Src/od_pp_yolov8.c ****         ptrScratch[pInput_static_param->nb_detect].conf        = best_score_array[_i];
 1939              		.loc 1 429 81 is_stmt 0 view .LVU636
 1940 00d2 13F901A0 		ldrsb	r10, [r3, r1]
 430:../Middlewares/stm32-vision-models-postprocessing/lib_vision_models_pp/Src/od_pp_yolov8.c ****         ptrScratch[pInput_static_param->nb_detect].class_index = class_index_array[_i];
 1941              		.loc 1 430 64 view .LVU637
 1942 00d6 82F804E0 		strb	lr, [r2, #4]
 431:../Middlewares/stm32-vision-models-postprocessing/lib_vision_models_pp/Src/od_pp_yolov8.c ****         pInput_static_param->nb_detect++;
 1943              		.loc 1 431 64 view .LVU638
 1944 00da 19F800E0 		ldrb	lr, [r9, r0]	@ zero_extendqisi2
 429:../Middlewares/stm32-vision-models-postprocessing/lib_vision_models_pp/Src/od_pp_yolov8.c ****         ptrScratch[pInput_static_param->nb_detect].conf        = best_score_array[_i];
 1945              		.loc 1 429 64 view .LVU639
 1946 00de 82F803A0 		strb	r10, [r2, #3]
 430:../Middlewares/stm32-vision-models-postprocessing/lib_vision_models_pp/Src/od_pp_yolov8.c ****         ptrScratch[pInput_static_param->nb_detect].class_index = class_index_array[_i];
 1947              		.loc 1 430 9 is_stmt 1 view .LVU640
 431:../Middlewares/stm32-vision-models-postprocessing/lib_vision_models_pp/Src/od_pp_yolov8.c ****         pInput_static_param->nb_detect++;
 1948              		.loc 1 431 9 view .LVU641
 431:../Middlewares/stm32-vision-models-postprocessing/lib_vision_models_pp/Src/od_pp_yolov8.c ****         pInput_static_param->nb_detect++;
 1949              		.loc 1 431 64 is_stmt 0 view .LVU642
 1950 00e2 82F805E0 		strb	lr, [r2, #5]
 432:../Middlewares/stm32-vision-models-postprocessing/lib_vision_models_pp/Src/od_pp_yolov8.c ****       }
 1951              		.loc 1 432 9 is_stmt 1 view .LVU643
 432:../Middlewares/stm32-vision-models-postprocessing/lib_vision_models_pp/Src/od_pp_yolov8.c ****       }
 1952              		.loc 1 432 39 is_stmt 0 view .LVU644
 1953 00e6 E761     		str	r7, [r4, #28]
 1954              	.L120:
 422:../Middlewares/stm32-vision-models-postprocessing/lib_vision_models_pp/Src/od_pp_yolov8.c ****     {
 1955              		.loc 1 422 72 is_stmt 1 discriminator 2 view .LVU645
 1956 00e8 0130     		adds	r0, r0, #1
 1957              	.LVL157:
 422:../Middlewares/stm32-vision-models-postprocessing/lib_vision_models_pp/Src/od_pp_yolov8.c ****     {
 1958              		.loc 1 422 72 is_stmt 0 discriminator 2 view .LVU646
 1959 00ea 0133     		adds	r3, r3, #1
 1960 00ec D2E7     		b	.L119
 1961              	.LBE67:
 1962              	.LBE69:
 1963              		.cfi_endproc
 1964              	.LFE782:
 1966              		.section	.text.od_yolov8_pp_reset,"ax",%progbits
 1967              		.align	1
 1968              		.global	od_yolov8_pp_reset
 1969              		.syntax unified
 1970              		.thumb
 1971              		.thumb_func
 1973              	od_yolov8_pp_reset:
 1974              	.LVL158:
 1975              	.LFB783:
 439:../Middlewares/stm32-vision-models-postprocessing/lib_vision_models_pp/Src/od_pp_yolov8.c **** 
ARM GAS  /tmp/cc8dX4ay.s 			page 52


 440:../Middlewares/stm32-vision-models-postprocessing/lib_vision_models_pp/Src/od_pp_yolov8.c **** /* ----------------------       Exported routines      ---------------------- */
 441:../Middlewares/stm32-vision-models-postprocessing/lib_vision_models_pp/Src/od_pp_yolov8.c **** 
 442:../Middlewares/stm32-vision-models-postprocessing/lib_vision_models_pp/Src/od_pp_yolov8.c **** int32_t od_yolov8_pp_reset(od_yolov8_pp_static_param_t *pInput_static_param)
 443:../Middlewares/stm32-vision-models-postprocessing/lib_vision_models_pp/Src/od_pp_yolov8.c **** {
 1976              		.loc 1 443 1 is_stmt 1 view -0
 1977              		.cfi_startproc
 1978              		@ args = 0, pretend = 0, frame = 0
 1979              		@ frame_needed = 0, uses_anonymous_args = 0
 1980              		@ link register save eliminated.
 444:../Middlewares/stm32-vision-models-postprocessing/lib_vision_models_pp/Src/od_pp_yolov8.c ****   /* Initializations */
 445:../Middlewares/stm32-vision-models-postprocessing/lib_vision_models_pp/Src/od_pp_yolov8.c ****   pInput_static_param->nb_detect = 0;
 1981              		.loc 1 445 3 view .LVU648
 443:../Middlewares/stm32-vision-models-postprocessing/lib_vision_models_pp/Src/od_pp_yolov8.c ****   /* Initializations */
 1982              		.loc 1 443 1 is_stmt 0 view .LVU649
 1983 0000 0346     		mov	r3, r0
 1984              		.loc 1 445 34 view .LVU650
 1985 0002 0020     		movs	r0, #0
 1986              	.LVL159:
 1987              		.loc 1 445 34 view .LVU651
 1988 0004 D861     		str	r0, [r3, #28]
 446:../Middlewares/stm32-vision-models-postprocessing/lib_vision_models_pp/Src/od_pp_yolov8.c **** 
 447:../Middlewares/stm32-vision-models-postprocessing/lib_vision_models_pp/Src/od_pp_yolov8.c ****   return (AI_OD_POSTPROCESS_ERROR_NO);
 1989              		.loc 1 447 3 is_stmt 1 view .LVU652
 448:../Middlewares/stm32-vision-models-postprocessing/lib_vision_models_pp/Src/od_pp_yolov8.c **** }
 1990              		.loc 1 448 1 is_stmt 0 view .LVU653
 1991 0006 7047     		bx	lr
 1992              		.cfi_endproc
 1993              	.LFE783:
 1995              		.section	.text.od_yolov8_pp_process,"ax",%progbits
 1996              		.align	1
 1997              		.global	od_yolov8_pp_process
 1998              		.syntax unified
 1999              		.thumb
 2000              		.thumb_func
 2002              	od_yolov8_pp_process:
 2003              	.LVL160:
 2004              	.LFB784:
 449:../Middlewares/stm32-vision-models-postprocessing/lib_vision_models_pp/Src/od_pp_yolov8.c **** 
 450:../Middlewares/stm32-vision-models-postprocessing/lib_vision_models_pp/Src/od_pp_yolov8.c **** 
 451:../Middlewares/stm32-vision-models-postprocessing/lib_vision_models_pp/Src/od_pp_yolov8.c **** int32_t od_yolov8_pp_process(od_yolov8_pp_in_centroid_t *pInput,
 452:../Middlewares/stm32-vision-models-postprocessing/lib_vision_models_pp/Src/od_pp_yolov8.c ****                              od_pp_out_t *pOutput,
 453:../Middlewares/stm32-vision-models-postprocessing/lib_vision_models_pp/Src/od_pp_yolov8.c ****                              od_yolov8_pp_static_param_t *pInput_static_param)
 454:../Middlewares/stm32-vision-models-postprocessing/lib_vision_models_pp/Src/od_pp_yolov8.c **** {
 2005              		.loc 1 454 1 is_stmt 1 view -0
 2006              		.cfi_startproc
 2007              		@ args = 0, pretend = 0, frame = 0
 2008              		@ frame_needed = 0, uses_anonymous_args = 0
 455:../Middlewares/stm32-vision-models-postprocessing/lib_vision_models_pp/Src/od_pp_yolov8.c ****   int32_t error   = AI_OD_POSTPROCESS_ERROR_NO;
 2009              		.loc 1 455 3 view .LVU655
 456:../Middlewares/stm32-vision-models-postprocessing/lib_vision_models_pp/Src/od_pp_yolov8.c **** 
 457:../Middlewares/stm32-vision-models-postprocessing/lib_vision_models_pp/Src/od_pp_yolov8.c ****   /* Call Get NN boxes first */
 458:../Middlewares/stm32-vision-models-postprocessing/lib_vision_models_pp/Src/od_pp_yolov8.c ****   error = yolov8_pp_getNNBoxes_centroid(pInput,
 2010              		.loc 1 458 3 view .LVU656
 454:../Middlewares/stm32-vision-models-postprocessing/lib_vision_models_pp/Src/od_pp_yolov8.c ****   int32_t error   = AI_OD_POSTPROCESS_ERROR_NO;
 2011              		.loc 1 454 1 is_stmt 0 view .LVU657
 2012 0000 38B5     		push	{r3, r4, r5, lr}
 2013              		.cfi_def_cfa_offset 16
ARM GAS  /tmp/cc8dX4ay.s 			page 53


 2014              		.cfi_offset 3, -16
 2015              		.cfi_offset 4, -12
 2016              		.cfi_offset 5, -8
 2017              		.cfi_offset 14, -4
 454:../Middlewares/stm32-vision-models-postprocessing/lib_vision_models_pp/Src/od_pp_yolov8.c ****   int32_t error   = AI_OD_POSTPROCESS_ERROR_NO;
 2018              		.loc 1 454 1 view .LVU658
 2019 0002 1546     		mov	r5, r2
 2020 0004 0C46     		mov	r4, r1
 2021              		.loc 1 458 11 view .LVU659
 2022 0006 FFF7FEFF 		bl	yolov8_pp_getNNBoxes_centroid
 2023              	.LVL161:
 459:../Middlewares/stm32-vision-models-postprocessing/lib_vision_models_pp/Src/od_pp_yolov8.c ****                                         pOutput,
 460:../Middlewares/stm32-vision-models-postprocessing/lib_vision_models_pp/Src/od_pp_yolov8.c ****                                         pInput_static_param);
 461:../Middlewares/stm32-vision-models-postprocessing/lib_vision_models_pp/Src/od_pp_yolov8.c ****   if (error != AI_OD_POSTPROCESS_ERROR_NO) return (error);
 2024              		.loc 1 461 3 is_stmt 1 view .LVU660
 462:../Middlewares/stm32-vision-models-postprocessing/lib_vision_models_pp/Src/od_pp_yolov8.c **** 
 463:../Middlewares/stm32-vision-models-postprocessing/lib_vision_models_pp/Src/od_pp_yolov8.c ****   /* Then NMS */
 464:../Middlewares/stm32-vision-models-postprocessing/lib_vision_models_pp/Src/od_pp_yolov8.c ****   error = yolov8_pp_nmsFiltering_centroid(pOutput,
 2025              		.loc 1 464 3 view .LVU661
 2026              		.loc 1 464 11 is_stmt 0 view .LVU662
 2027 000a 2946     		mov	r1, r5
 2028 000c 2046     		mov	r0, r4
 2029 000e FFF7FEFF 		bl	yolov8_pp_nmsFiltering_centroid
 2030              	.LVL162:
 465:../Middlewares/stm32-vision-models-postprocessing/lib_vision_models_pp/Src/od_pp_yolov8.c ****                                           pInput_static_param);
 466:../Middlewares/stm32-vision-models-postprocessing/lib_vision_models_pp/Src/od_pp_yolov8.c ****   if (error != AI_OD_POSTPROCESS_ERROR_NO) return (error);
 2031              		.loc 1 466 3 is_stmt 1 view .LVU663
 467:../Middlewares/stm32-vision-models-postprocessing/lib_vision_models_pp/Src/od_pp_yolov8.c **** 
 468:../Middlewares/stm32-vision-models-postprocessing/lib_vision_models_pp/Src/od_pp_yolov8.c ****   /* And score re-filtering */
 469:../Middlewares/stm32-vision-models-postprocessing/lib_vision_models_pp/Src/od_pp_yolov8.c ****   error = yolov8_pp_scoreFiltering_centroid(pOutput,
 2032              		.loc 1 469 3 view .LVU664
 2033              		.loc 1 469 11 is_stmt 0 view .LVU665
 2034 0012 2946     		mov	r1, r5
 2035 0014 2046     		mov	r0, r4
 2036 0016 FFF7FEFF 		bl	yolov8_pp_scoreFiltering_centroid
 2037              	.LVL163:
 470:../Middlewares/stm32-vision-models-postprocessing/lib_vision_models_pp/Src/od_pp_yolov8.c ****                                             pInput_static_param);
 471:../Middlewares/stm32-vision-models-postprocessing/lib_vision_models_pp/Src/od_pp_yolov8.c **** 
 472:../Middlewares/stm32-vision-models-postprocessing/lib_vision_models_pp/Src/od_pp_yolov8.c ****   return (error);
 2038              		.loc 1 472 3 is_stmt 1 view .LVU666
 473:../Middlewares/stm32-vision-models-postprocessing/lib_vision_models_pp/Src/od_pp_yolov8.c **** }
 2039              		.loc 1 473 1 is_stmt 0 view .LVU667
 2040 001a 0020     		movs	r0, #0
 2041 001c 38BD     		pop	{r3, r4, r5, pc}
 2042              		.loc 1 473 1 view .LVU668
 2043              		.cfi_endproc
 2044              	.LFE784:
 2046              		.section	.text.od_yolov8_pp_process_int8,"ax",%progbits
 2047              		.align	1
 2048              		.global	od_yolov8_pp_process_int8
 2049              		.syntax unified
 2050              		.thumb
 2051              		.thumb_func
 2053              	od_yolov8_pp_process_int8:
 2054              	.LVL164:
 2055              	.LFB785:
 474:../Middlewares/stm32-vision-models-postprocessing/lib_vision_models_pp/Src/od_pp_yolov8.c **** 
ARM GAS  /tmp/cc8dX4ay.s 			page 54


 475:../Middlewares/stm32-vision-models-postprocessing/lib_vision_models_pp/Src/od_pp_yolov8.c **** 
 476:../Middlewares/stm32-vision-models-postprocessing/lib_vision_models_pp/Src/od_pp_yolov8.c **** int32_t od_yolov8_pp_process_int8(od_yolov8_pp_in_centroid_t *pInput,
 477:../Middlewares/stm32-vision-models-postprocessing/lib_vision_models_pp/Src/od_pp_yolov8.c ****                                   od_pp_out_t *pOutput,
 478:../Middlewares/stm32-vision-models-postprocessing/lib_vision_models_pp/Src/od_pp_yolov8.c ****                                   od_yolov8_pp_static_param_t *pInput_static_param)
 479:../Middlewares/stm32-vision-models-postprocessing/lib_vision_models_pp/Src/od_pp_yolov8.c **** {
 2056              		.loc 1 479 1 is_stmt 1 view -0
 2057              		.cfi_startproc
 2058              		@ args = 0, pretend = 0, frame = 0
 2059              		@ frame_needed = 0, uses_anonymous_args = 0
 480:../Middlewares/stm32-vision-models-postprocessing/lib_vision_models_pp/Src/od_pp_yolov8.c ****   int32_t error   = AI_OD_POSTPROCESS_ERROR_NO;
 2060              		.loc 1 480 3 view .LVU670
 481:../Middlewares/stm32-vision-models-postprocessing/lib_vision_models_pp/Src/od_pp_yolov8.c ****   od_yolov8_pp_scratch_s8_t *ptrScratch = pInput_static_param->pScratchBuff;
 2061              		.loc 1 481 3 view .LVU671
 479:../Middlewares/stm32-vision-models-postprocessing/lib_vision_models_pp/Src/od_pp_yolov8.c ****   int32_t error   = AI_OD_POSTPROCESS_ERROR_NO;
 2062              		.loc 1 479 1 is_stmt 0 view .LVU672
 2063 0000 70B5     		push	{r4, r5, r6, lr}
 2064              		.cfi_def_cfa_offset 16
 2065              		.cfi_offset 4, -16
 2066              		.cfi_offset 5, -12
 2067              		.cfi_offset 6, -8
 2068              		.cfi_offset 14, -4
 2069              		.loc 1 481 30 view .LVU673
 2070 0002 166A     		ldr	r6, [r2, #32]
 2071              	.LVL165:
 482:../Middlewares/stm32-vision-models-postprocessing/lib_vision_models_pp/Src/od_pp_yolov8.c **** 
 483:../Middlewares/stm32-vision-models-postprocessing/lib_vision_models_pp/Src/od_pp_yolov8.c ****   if (ptrScratch)
 2072              		.loc 1 483 3 is_stmt 1 view .LVU674
 479:../Middlewares/stm32-vision-models-postprocessing/lib_vision_models_pp/Src/od_pp_yolov8.c ****   int32_t error   = AI_OD_POSTPROCESS_ERROR_NO;
 2073              		.loc 1 479 1 is_stmt 0 view .LVU675
 2074 0004 0D46     		mov	r5, r1
 2075 0006 1446     		mov	r4, r2
 2076              		.loc 1 483 6 view .LVU676
 2077 0008 6EB1     		cbz	r6, .L128
 484:../Middlewares/stm32-vision-models-postprocessing/lib_vision_models_pp/Src/od_pp_yolov8.c ****   {
 485:../Middlewares/stm32-vision-models-postprocessing/lib_vision_models_pp/Src/od_pp_yolov8.c ****     /* Call Get NN boxes first */
 486:../Middlewares/stm32-vision-models-postprocessing/lib_vision_models_pp/Src/od_pp_yolov8.c ****     error = yolov8_pp_getNNBoxes_centroid_is8os8(pInput,
 2078              		.loc 1 486 5 is_stmt 1 view .LVU677
 2079              		.loc 1 486 13 is_stmt 0 view .LVU678
 2080 000a 3146     		mov	r1, r6
 2081              	.LVL166:
 2082              		.loc 1 486 13 view .LVU679
 2083 000c FFF7FEFF 		bl	yolov8_pp_getNNBoxes_centroid_is8os8
 2084              	.LVL167:
 487:../Middlewares/stm32-vision-models-postprocessing/lib_vision_models_pp/Src/od_pp_yolov8.c ****                                                  ptrScratch,
 488:../Middlewares/stm32-vision-models-postprocessing/lib_vision_models_pp/Src/od_pp_yolov8.c ****                                                  pInput_static_param);
 489:../Middlewares/stm32-vision-models-postprocessing/lib_vision_models_pp/Src/od_pp_yolov8.c ****     if (error != AI_OD_POSTPROCESS_ERROR_NO) return (error);
 2085              		.loc 1 489 5 is_stmt 1 view .LVU680
 490:../Middlewares/stm32-vision-models-postprocessing/lib_vision_models_pp/Src/od_pp_yolov8.c **** 
 491:../Middlewares/stm32-vision-models-postprocessing/lib_vision_models_pp/Src/od_pp_yolov8.c ****     /* Then NMS */
 492:../Middlewares/stm32-vision-models-postprocessing/lib_vision_models_pp/Src/od_pp_yolov8.c **** 
 493:../Middlewares/stm32-vision-models-postprocessing/lib_vision_models_pp/Src/od_pp_yolov8.c ****     error = yolov8_pp_nmsFiltering_centroid_is8(ptrScratch,
 2086              		.loc 1 493 5 view .LVU681
 2087              		.loc 1 493 13 is_stmt 0 view .LVU682
 2088 0010 2146     		mov	r1, r4
 2089 0012 3046     		mov	r0, r6
 2090 0014 FFF7FEFF 		bl	yolov8_pp_nmsFiltering_centroid_is8
 2091              	.LVL168:
ARM GAS  /tmp/cc8dX4ay.s 			page 55


 494:../Middlewares/stm32-vision-models-postprocessing/lib_vision_models_pp/Src/od_pp_yolov8.c ****                                                 pInput_static_param);
 495:../Middlewares/stm32-vision-models-postprocessing/lib_vision_models_pp/Src/od_pp_yolov8.c ****     if (error != AI_OD_POSTPROCESS_ERROR_NO) return (error);
 2092              		.loc 1 495 5 is_stmt 1 view .LVU683
 496:../Middlewares/stm32-vision-models-postprocessing/lib_vision_models_pp/Src/od_pp_yolov8.c **** 
 497:../Middlewares/stm32-vision-models-postprocessing/lib_vision_models_pp/Src/od_pp_yolov8.c ****     /* And score re-filtering */
 498:../Middlewares/stm32-vision-models-postprocessing/lib_vision_models_pp/Src/od_pp_yolov8.c ****     error = yolov8_pp_scoreFiltering_centroid_is8(ptrScratch,
 2093              		.loc 1 498 5 view .LVU684
 2094              		.loc 1 498 13 is_stmt 0 view .LVU685
 2095 0018 2246     		mov	r2, r4
 2096 001a 2946     		mov	r1, r5
 2097 001c 3046     		mov	r0, r6
 2098 001e FFF7FEFF 		bl	yolov8_pp_scoreFiltering_centroid_is8
 2099              	.LVL169:
 2100              	.L129:
 499:../Middlewares/stm32-vision-models-postprocessing/lib_vision_models_pp/Src/od_pp_yolov8.c ****                                                   pOutput,
 500:../Middlewares/stm32-vision-models-postprocessing/lib_vision_models_pp/Src/od_pp_yolov8.c ****                                                   pInput_static_param);
 501:../Middlewares/stm32-vision-models-postprocessing/lib_vision_models_pp/Src/od_pp_yolov8.c ****   }
 502:../Middlewares/stm32-vision-models-postprocessing/lib_vision_models_pp/Src/od_pp_yolov8.c ****   else
 503:../Middlewares/stm32-vision-models-postprocessing/lib_vision_models_pp/Src/od_pp_yolov8.c ****   {
 504:../Middlewares/stm32-vision-models-postprocessing/lib_vision_models_pp/Src/od_pp_yolov8.c ****     /* Call Get NN boxes first */
 505:../Middlewares/stm32-vision-models-postprocessing/lib_vision_models_pp/Src/od_pp_yolov8.c ****     error = yolov8_pp_getNNBoxes_centroid_int8(pInput,
 506:../Middlewares/stm32-vision-models-postprocessing/lib_vision_models_pp/Src/od_pp_yolov8.c ****                                                pOutput,
 507:../Middlewares/stm32-vision-models-postprocessing/lib_vision_models_pp/Src/od_pp_yolov8.c ****                                                pInput_static_param);
 508:../Middlewares/stm32-vision-models-postprocessing/lib_vision_models_pp/Src/od_pp_yolov8.c ****     if (error != AI_OD_POSTPROCESS_ERROR_NO) return (error);
 509:../Middlewares/stm32-vision-models-postprocessing/lib_vision_models_pp/Src/od_pp_yolov8.c **** 
 510:../Middlewares/stm32-vision-models-postprocessing/lib_vision_models_pp/Src/od_pp_yolov8.c ****     /* Then NMS */
 511:../Middlewares/stm32-vision-models-postprocessing/lib_vision_models_pp/Src/od_pp_yolov8.c **** 
 512:../Middlewares/stm32-vision-models-postprocessing/lib_vision_models_pp/Src/od_pp_yolov8.c ****     error = yolov8_pp_nmsFiltering_centroid(pOutput,
 513:../Middlewares/stm32-vision-models-postprocessing/lib_vision_models_pp/Src/od_pp_yolov8.c ****                                             pInput_static_param);
 514:../Middlewares/stm32-vision-models-postprocessing/lib_vision_models_pp/Src/od_pp_yolov8.c ****     if (error != AI_OD_POSTPROCESS_ERROR_NO) return (error);
 515:../Middlewares/stm32-vision-models-postprocessing/lib_vision_models_pp/Src/od_pp_yolov8.c **** 
 516:../Middlewares/stm32-vision-models-postprocessing/lib_vision_models_pp/Src/od_pp_yolov8.c ****     /* And score re-filtering */
 517:../Middlewares/stm32-vision-models-postprocessing/lib_vision_models_pp/Src/od_pp_yolov8.c ****     error = yolov8_pp_scoreFiltering_centroid(pOutput,
 518:../Middlewares/stm32-vision-models-postprocessing/lib_vision_models_pp/Src/od_pp_yolov8.c ****                                               pInput_static_param);
 519:../Middlewares/stm32-vision-models-postprocessing/lib_vision_models_pp/Src/od_pp_yolov8.c ****   }
 520:../Middlewares/stm32-vision-models-postprocessing/lib_vision_models_pp/Src/od_pp_yolov8.c ****   return (error);
 2101              		.loc 1 520 3 is_stmt 1 view .LVU686
 521:../Middlewares/stm32-vision-models-postprocessing/lib_vision_models_pp/Src/od_pp_yolov8.c **** }
 2102              		.loc 1 521 1 is_stmt 0 view .LVU687
 2103 0022 0020     		movs	r0, #0
 2104 0024 70BD     		pop	{r4, r5, r6, pc}
 2105              	.LVL170:
 2106              	.L128:
 505:../Middlewares/stm32-vision-models-postprocessing/lib_vision_models_pp/Src/od_pp_yolov8.c ****                                                pOutput,
 2107              		.loc 1 505 5 is_stmt 1 view .LVU688
 505:../Middlewares/stm32-vision-models-postprocessing/lib_vision_models_pp/Src/od_pp_yolov8.c ****                                                pOutput,
 2108              		.loc 1 505 13 is_stmt 0 view .LVU689
 2109 0026 FFF7FEFF 		bl	yolov8_pp_getNNBoxes_centroid_int8
 2110              	.LVL171:
 508:../Middlewares/stm32-vision-models-postprocessing/lib_vision_models_pp/Src/od_pp_yolov8.c **** 
 2111              		.loc 1 508 5 is_stmt 1 view .LVU690
 512:../Middlewares/stm32-vision-models-postprocessing/lib_vision_models_pp/Src/od_pp_yolov8.c ****                                             pInput_static_param);
 2112              		.loc 1 512 5 view .LVU691
 512:../Middlewares/stm32-vision-models-postprocessing/lib_vision_models_pp/Src/od_pp_yolov8.c ****                                             pInput_static_param);
 2113              		.loc 1 512 13 is_stmt 0 view .LVU692
 2114 002a 2146     		mov	r1, r4
 2115 002c 2846     		mov	r0, r5
ARM GAS  /tmp/cc8dX4ay.s 			page 56


 2116 002e FFF7FEFF 		bl	yolov8_pp_nmsFiltering_centroid
 2117              	.LVL172:
 514:../Middlewares/stm32-vision-models-postprocessing/lib_vision_models_pp/Src/od_pp_yolov8.c **** 
 2118              		.loc 1 514 5 is_stmt 1 view .LVU693
 517:../Middlewares/stm32-vision-models-postprocessing/lib_vision_models_pp/Src/od_pp_yolov8.c ****                                               pInput_static_param);
 2119              		.loc 1 517 5 view .LVU694
 517:../Middlewares/stm32-vision-models-postprocessing/lib_vision_models_pp/Src/od_pp_yolov8.c ****                                               pInput_static_param);
 2120              		.loc 1 517 13 is_stmt 0 view .LVU695
 2121 0032 2146     		mov	r1, r4
 2122 0034 2846     		mov	r0, r5
 2123 0036 FFF7FEFF 		bl	yolov8_pp_scoreFiltering_centroid
 2124              	.LVL173:
 2125 003a F2E7     		b	.L129
 2126              		.cfi_endproc
 2127              	.LFE785:
 2129              		.section	.bss.AI_YOLOV8_PP_SORT_CLASS,"aw",%nobits
 2130              		.align	2
 2133              	AI_YOLOV8_PP_SORT_CLASS:
 2134 0000 00000000 		.space	4
 2135              		.text
 2136              	.Letext0:
 2137              		.file 2 "/opt/st/stm32cubeclt_1.21.0/GNU-tools-for-STM32/arm-none-eabi/include/machine/_default_ty
 2138              		.file 3 "/opt/st/stm32cubeclt_1.21.0/GNU-tools-for-STM32/arm-none-eabi/include/sys/_stdint.h"
 2139              		.file 4 "/opt/st/stm32cubeclt_1.21.0/GNU-tools-for-STM32/lib/gcc/arm-none-eabi/14.3.1/include/stdd
 2140              		.file 5 "/opt/st/stm32cubeclt_1.21.0/GNU-tools-for-STM32/lib/gcc/arm-none-eabi/14.3.1/include/arm_
 2141              		.file 6 "../Middlewares/stm32-vision-models-postprocessing/lib_vision_models_pp/Inc/od_pp_output_i
 2142              		.file 7 "../Middlewares/stm32-vision-models-postprocessing/lib_vision_models_pp/Inc/od_yolov8_pp_i
 2143              		.file 8 "../Middlewares/stm32-vision-models-postprocessing/lib_vision_models_pp/Src/vision_models_
ARM GAS  /tmp/cc8dX4ay.s 			page 57

