ARM GAS  /tmp/cchEKUmB.s 			page 1


   1              		.arch armv8.1-m.main
   2              		.fpu fpv5-d16
   3              		.arch_extension dsp
   4              		.arch_extension fp
   5              		.arch_extension fp.dp
   6              		.arch_extension mve
   7              		.arch_extension mve.fp
   8              		.eabi_attribute 5, "cortex-m55"
   9              		.eabi_attribute 28, 1
  10              		.eabi_attribute 20, 1
  11              		.eabi_attribute 21, 1
  12              		.eabi_attribute 23, 3
  13              		.eabi_attribute 24, 1
  14              		.eabi_attribute 25, 1
  15              		.eabi_attribute 26, 1
  16              		.eabi_attribute 30, 4
  17              		.eabi_attribute 34, 1
  18              		.eabi_attribute 38, 1
  19              		.eabi_attribute 18, 4
  20              		.file	"pd_pp_model.c"
  21              		.text
  22              	.Ltext0:
  23              		.cfi_sections	.debug_frame
  24              		.file 1 "../Middlewares/stm32-vision-models-postprocessing/lib_vision_models_pp/Src/pd_pp_model.c"
  25              		.section	.text.pd_pp_nms_comparator,"ax",%progbits
  26              		.align	1
  27              		.syntax unified
  28              		.thumb
  29              		.thumb_func
  31              	pd_pp_nms_comparator:
  32              	.LVL0:
  33              	.LFB774:
   1:../Middlewares/stm32-vision-models-postprocessing/lib_vision_models_pp/Src/pd_pp_model.c **** /**
   2:../Middlewares/stm32-vision-models-postprocessing/lib_vision_models_pp/Src/pd_pp_model.c ****   ******************************************************************************
   3:../Middlewares/stm32-vision-models-postprocessing/lib_vision_models_pp/Src/pd_pp_model.c ****   * @file    pd_pp_model.c
   4:../Middlewares/stm32-vision-models-postprocessing/lib_vision_models_pp/Src/pd_pp_model.c ****   * @author  MDG Application Team
   5:../Middlewares/stm32-vision-models-postprocessing/lib_vision_models_pp/Src/pd_pp_model.c ****   ******************************************************************************
   6:../Middlewares/stm32-vision-models-postprocessing/lib_vision_models_pp/Src/pd_pp_model.c ****   * @attention
   7:../Middlewares/stm32-vision-models-postprocessing/lib_vision_models_pp/Src/pd_pp_model.c ****   *
   8:../Middlewares/stm32-vision-models-postprocessing/lib_vision_models_pp/Src/pd_pp_model.c ****   * Copyright (c) 2024 STMicroelectronics.
   9:../Middlewares/stm32-vision-models-postprocessing/lib_vision_models_pp/Src/pd_pp_model.c ****   * All rights reserved.
  10:../Middlewares/stm32-vision-models-postprocessing/lib_vision_models_pp/Src/pd_pp_model.c ****   *
  11:../Middlewares/stm32-vision-models-postprocessing/lib_vision_models_pp/Src/pd_pp_model.c ****   * This software is licensed under terms that can be found in the LICENSE file
  12:../Middlewares/stm32-vision-models-postprocessing/lib_vision_models_pp/Src/pd_pp_model.c ****   * in the root directory of this software component.
  13:../Middlewares/stm32-vision-models-postprocessing/lib_vision_models_pp/Src/pd_pp_model.c ****   * If no LICENSE file comes with this software, it is provided AS-IS.
  14:../Middlewares/stm32-vision-models-postprocessing/lib_vision_models_pp/Src/pd_pp_model.c ****   *
  15:../Middlewares/stm32-vision-models-postprocessing/lib_vision_models_pp/Src/pd_pp_model.c ****   ******************************************************************************
  16:../Middlewares/stm32-vision-models-postprocessing/lib_vision_models_pp/Src/pd_pp_model.c ****   */
  17:../Middlewares/stm32-vision-models-postprocessing/lib_vision_models_pp/Src/pd_pp_model.c **** 
  18:../Middlewares/stm32-vision-models-postprocessing/lib_vision_models_pp/Src/pd_pp_model.c **** #include "pd_model_pp_if.h"
  19:../Middlewares/stm32-vision-models-postprocessing/lib_vision_models_pp/Src/pd_pp_model.c **** #include "vision_models_pp.h"
  20:../Middlewares/stm32-vision-models-postprocessing/lib_vision_models_pp/Src/pd_pp_model.c **** #include "pd_pp_loc.h"
  21:../Middlewares/stm32-vision-models-postprocessing/lib_vision_models_pp/Src/pd_pp_model.c **** 
  22:../Middlewares/stm32-vision-models-postprocessing/lib_vision_models_pp/Src/pd_pp_model.c **** 
  23:../Middlewares/stm32-vision-models-postprocessing/lib_vision_models_pp/Src/pd_pp_model.c **** static int32_t pd_pp_nms_comparator(const void *arg1, const void *arg2)
  24:../Middlewares/stm32-vision-models-postprocessing/lib_vision_models_pp/Src/pd_pp_model.c **** {
  34              		.loc 1 24 1 view -0
ARM GAS  /tmp/cchEKUmB.s 			page 2


  35              		.cfi_startproc
  36              		@ args = 0, pretend = 0, frame = 0
  37              		@ frame_needed = 0, uses_anonymous_args = 0
  38              		@ link register save eliminated.
  25:../Middlewares/stm32-vision-models-postprocessing/lib_vision_models_pp/Src/pd_pp_model.c ****   const pd_pp_box_t *box1 = arg1;
  39              		.loc 1 25 3 view .LVU1
  26:../Middlewares/stm32-vision-models-postprocessing/lib_vision_models_pp/Src/pd_pp_model.c ****   const pd_pp_box_t *box2 = arg2;
  40              		.loc 1 26 3 view .LVU2
  27:../Middlewares/stm32-vision-models-postprocessing/lib_vision_models_pp/Src/pd_pp_model.c **** 
  28:../Middlewares/stm32-vision-models-postprocessing/lib_vision_models_pp/Src/pd_pp_model.c ****   if (box1->prob < box2->prob)
  41              		.loc 1 28 3 view .LVU3
  42              		.loc 1 28 11 is_stmt 0 view .LVU4
  43 0000 90ED007A 		vldr.32	s14, [r0]
  44              		.loc 1 28 24 view .LVU5
  45 0004 D1ED007A 		vldr.32	s15, [r1]
  46              		.loc 1 28 6 view .LVU6
  47 0008 B4EEE77A 		vcmpe.f32	s14, s15
  48 000c F1EE10FA 		vmrs	APSR_nzcv, FPSCR
  49 0010 04D4     		bmi	.L3
  29:../Middlewares/stm32-vision-models-postprocessing/lib_vision_models_pp/Src/pd_pp_model.c ****     return 1;
  30:../Middlewares/stm32-vision-models-postprocessing/lib_vision_models_pp/Src/pd_pp_model.c **** 
  31:../Middlewares/stm32-vision-models-postprocessing/lib_vision_models_pp/Src/pd_pp_model.c ****   if (box1->prob > box2->prob)
  50              		.loc 1 31 3 is_stmt 1 view .LVU7
  51              		.loc 1 31 6 is_stmt 0 view .LVU8
  52 0012 CCBF     		ite	gt
  53 0014 4FF0FF30 		movgt	r0, #-1
  54              	.LVL1:
  55              		.loc 1 31 6 view .LVU9
  56 0018 0020     		movle	r0, #0
  57 001a 7047     		bx	lr
  58              	.LVL2:
  59              	.L3:
  29:../Middlewares/stm32-vision-models-postprocessing/lib_vision_models_pp/Src/pd_pp_model.c ****     return 1;
  60              		.loc 1 29 12 view .LVU10
  61 001c 0120     		movs	r0, #1
  62              	.LVL3:
  32:../Middlewares/stm32-vision-models-postprocessing/lib_vision_models_pp/Src/pd_pp_model.c ****     return -1;
  33:../Middlewares/stm32-vision-models-postprocessing/lib_vision_models_pp/Src/pd_pp_model.c **** 
  34:../Middlewares/stm32-vision-models-postprocessing/lib_vision_models_pp/Src/pd_pp_model.c ****   return 0;
  35:../Middlewares/stm32-vision-models-postprocessing/lib_vision_models_pp/Src/pd_pp_model.c **** }
  63              		.loc 1 35 1 view .LVU11
  64 001e 7047     		bx	lr
  65              		.cfi_endproc
  66              	.LFE774:
  68              		.section	.text.pd_pp_nms.isra.0,"ax",%progbits
  69              		.align	1
  70              		.syntax unified
  71              		.thumb
  72              		.thumb_func
  74              	pd_pp_nms.isra.0:
  75              	.LVL4:
  76              	.LFB783:
  36:../Middlewares/stm32-vision-models-postprocessing/lib_vision_models_pp/Src/pd_pp_model.c **** 
  37:../Middlewares/stm32-vision-models-postprocessing/lib_vision_models_pp/Src/pd_pp_model.c **** static void pd_pp_compute_opposite_corners_from_box(pd_pp_box_t *box, pd_pp_point_t corners[2])
  38:../Middlewares/stm32-vision-models-postprocessing/lib_vision_models_pp/Src/pd_pp_model.c **** {
  39:../Middlewares/stm32-vision-models-postprocessing/lib_vision_models_pp/Src/pd_pp_model.c ****   corners[0].x = box->x_center - box->width / 2;
  40:../Middlewares/stm32-vision-models-postprocessing/lib_vision_models_pp/Src/pd_pp_model.c ****   corners[0].y = box->y_center - box->height / 2;
ARM GAS  /tmp/cchEKUmB.s 			page 3


  41:../Middlewares/stm32-vision-models-postprocessing/lib_vision_models_pp/Src/pd_pp_model.c ****   corners[1].x = box->x_center + box->width / 2;
  42:../Middlewares/stm32-vision-models-postprocessing/lib_vision_models_pp/Src/pd_pp_model.c ****   corners[1].y = box->y_center + box->height / 2;
  43:../Middlewares/stm32-vision-models-postprocessing/lib_vision_models_pp/Src/pd_pp_model.c **** }
  44:../Middlewares/stm32-vision-models-postprocessing/lib_vision_models_pp/Src/pd_pp_model.c **** 
  45:../Middlewares/stm32-vision-models-postprocessing/lib_vision_models_pp/Src/pd_pp_model.c **** static float pd_pp_compute_iou(pd_pp_box_t *box0, pd_pp_box_t *box1)
  46:../Middlewares/stm32-vision-models-postprocessing/lib_vision_models_pp/Src/pd_pp_model.c **** {
  47:../Middlewares/stm32-vision-models-postprocessing/lib_vision_models_pp/Src/pd_pp_model.c ****   pd_pp_point_t corners[2][2];
  48:../Middlewares/stm32-vision-models-postprocessing/lib_vision_models_pp/Src/pd_pp_model.c ****   float32_t intersect_xmin;
  49:../Middlewares/stm32-vision-models-postprocessing/lib_vision_models_pp/Src/pd_pp_model.c ****   float32_t intersect_ymin;
  50:../Middlewares/stm32-vision-models-postprocessing/lib_vision_models_pp/Src/pd_pp_model.c ****   float32_t intersect_xmax;
  51:../Middlewares/stm32-vision-models-postprocessing/lib_vision_models_pp/Src/pd_pp_model.c ****   float32_t intersect_ymax;
  52:../Middlewares/stm32-vision-models-postprocessing/lib_vision_models_pp/Src/pd_pp_model.c ****   float32_t intersect_area;
  53:../Middlewares/stm32-vision-models-postprocessing/lib_vision_models_pp/Src/pd_pp_model.c ****   float32_t area[2];
  54:../Middlewares/stm32-vision-models-postprocessing/lib_vision_models_pp/Src/pd_pp_model.c ****   float32_t xmin[2];
  55:../Middlewares/stm32-vision-models-postprocessing/lib_vision_models_pp/Src/pd_pp_model.c ****   float32_t xmax[2];
  56:../Middlewares/stm32-vision-models-postprocessing/lib_vision_models_pp/Src/pd_pp_model.c ****   float32_t ymin[2];
  57:../Middlewares/stm32-vision-models-postprocessing/lib_vision_models_pp/Src/pd_pp_model.c ****   float32_t ymax[2];
  58:../Middlewares/stm32-vision-models-postprocessing/lib_vision_models_pp/Src/pd_pp_model.c ****   int i;
  59:../Middlewares/stm32-vision-models-postprocessing/lib_vision_models_pp/Src/pd_pp_model.c **** 
  60:../Middlewares/stm32-vision-models-postprocessing/lib_vision_models_pp/Src/pd_pp_model.c ****   pd_pp_compute_opposite_corners_from_box(box0, corners[0]);
  61:../Middlewares/stm32-vision-models-postprocessing/lib_vision_models_pp/Src/pd_pp_model.c ****   pd_pp_compute_opposite_corners_from_box(box1, corners[1]);
  62:../Middlewares/stm32-vision-models-postprocessing/lib_vision_models_pp/Src/pd_pp_model.c **** 
  63:../Middlewares/stm32-vision-models-postprocessing/lib_vision_models_pp/Src/pd_pp_model.c ****   for (i = 0; i < 2; i++) {
  64:../Middlewares/stm32-vision-models-postprocessing/lib_vision_models_pp/Src/pd_pp_model.c ****     xmin[i] = MIN(corners[i][0].x, corners[i][1].x);
  65:../Middlewares/stm32-vision-models-postprocessing/lib_vision_models_pp/Src/pd_pp_model.c ****     xmax[i] = MAX(corners[i][0].x, corners[i][1].x);
  66:../Middlewares/stm32-vision-models-postprocessing/lib_vision_models_pp/Src/pd_pp_model.c ****     ymin[i] = MIN(corners[i][0].y, corners[i][1].y);
  67:../Middlewares/stm32-vision-models-postprocessing/lib_vision_models_pp/Src/pd_pp_model.c ****     ymax[i] = MAX(corners[i][0].y, corners[i][1].y);
  68:../Middlewares/stm32-vision-models-postprocessing/lib_vision_models_pp/Src/pd_pp_model.c ****   }
  69:../Middlewares/stm32-vision-models-postprocessing/lib_vision_models_pp/Src/pd_pp_model.c **** 
  70:../Middlewares/stm32-vision-models-postprocessing/lib_vision_models_pp/Src/pd_pp_model.c ****   for (i = 0; i < 2; i++) {
  71:../Middlewares/stm32-vision-models-postprocessing/lib_vision_models_pp/Src/pd_pp_model.c ****     area[i] = (ymax[i] - ymin[i]) * (xmax[i] - xmin[i]);
  72:../Middlewares/stm32-vision-models-postprocessing/lib_vision_models_pp/Src/pd_pp_model.c ****   }
  73:../Middlewares/stm32-vision-models-postprocessing/lib_vision_models_pp/Src/pd_pp_model.c ****   if (area[0] <= 0 || area[1] <= 0)
  74:../Middlewares/stm32-vision-models-postprocessing/lib_vision_models_pp/Src/pd_pp_model.c ****     return 0;
  75:../Middlewares/stm32-vision-models-postprocessing/lib_vision_models_pp/Src/pd_pp_model.c **** 
  76:../Middlewares/stm32-vision-models-postprocessing/lib_vision_models_pp/Src/pd_pp_model.c ****   intersect_xmin = MAX(xmin[0], xmin[1]);
  77:../Middlewares/stm32-vision-models-postprocessing/lib_vision_models_pp/Src/pd_pp_model.c ****   intersect_ymin = MAX(ymin[0], ymin[1]);
  78:../Middlewares/stm32-vision-models-postprocessing/lib_vision_models_pp/Src/pd_pp_model.c ****   intersect_xmax = MIN(xmax[0], xmax[1]);
  79:../Middlewares/stm32-vision-models-postprocessing/lib_vision_models_pp/Src/pd_pp_model.c ****   intersect_ymax = MIN(ymax[0], ymax[1]);
  80:../Middlewares/stm32-vision-models-postprocessing/lib_vision_models_pp/Src/pd_pp_model.c **** 
  81:../Middlewares/stm32-vision-models-postprocessing/lib_vision_models_pp/Src/pd_pp_model.c ****   intersect_area = MAX(intersect_ymax - intersect_ymin, 0.0f) * MAX(intersect_xmax - intersect_xmin
  82:../Middlewares/stm32-vision-models-postprocessing/lib_vision_models_pp/Src/pd_pp_model.c **** 
  83:../Middlewares/stm32-vision-models-postprocessing/lib_vision_models_pp/Src/pd_pp_model.c ****   return intersect_area / (area[0] + area[1] - intersect_area);
  84:../Middlewares/stm32-vision-models-postprocessing/lib_vision_models_pp/Src/pd_pp_model.c **** }
  85:../Middlewares/stm32-vision-models-postprocessing/lib_vision_models_pp/Src/pd_pp_model.c **** static int32_t pd_pp_decode(pd_model_pp_in_t *pInput,
  86:../Middlewares/stm32-vision-models-postprocessing/lib_vision_models_pp/Src/pd_pp_model.c ****                             pd_pp_out_t *pOutput,
  87:../Middlewares/stm32-vision-models-postprocessing/lib_vision_models_pp/Src/pd_pp_model.c ****                             pd_model_pp_static_param_t *pInput_static_param) {
  88:../Middlewares/stm32-vision-models-postprocessing/lib_vision_models_pp/Src/pd_pp_model.c **** 
  89:../Middlewares/stm32-vision-models-postprocessing/lib_vision_models_pp/Src/pd_pp_model.c ****   pOutput->box_nb = 0;
  90:../Middlewares/stm32-vision-models-postprocessing/lib_vision_models_pp/Src/pd_pp_model.c **** 
  91:../Middlewares/stm32-vision-models-postprocessing/lib_vision_models_pp/Src/pd_pp_model.c ****   pd_pp_box_t *pBoxes = (pd_pp_box_t *)pOutput->pOutData;
  92:../Middlewares/stm32-vision-models-postprocessing/lib_vision_models_pp/Src/pd_pp_model.c ****   float32_t width  = pInput_static_param->width;
  93:../Middlewares/stm32-vision-models-postprocessing/lib_vision_models_pp/Src/pd_pp_model.c ****   float32_t height = pInput_static_param->height;
  94:../Middlewares/stm32-vision-models-postprocessing/lib_vision_models_pp/Src/pd_pp_model.c ****   float32_t *pRawBoxes = (float32_t *)pInput->pBoxes;
  95:../Middlewares/stm32-vision-models-postprocessing/lib_vision_models_pp/Src/pd_pp_model.c ****   float32_t *pRawProbs = (float32_t *)pInput->pProbs;
  96:../Middlewares/stm32-vision-models-postprocessing/lib_vision_models_pp/Src/pd_pp_model.c ****   float32_t *pAnchors = (float32_t *)pInput_static_param->pAnchors;
  97:../Middlewares/stm32-vision-models-postprocessing/lib_vision_models_pp/Src/pd_pp_model.c ****   const size_t in_struct_size = (2 * pInput_static_param->nb_keypoints) + AI_PD_MODEL_PP_KEYPOINTS;
ARM GAS  /tmp/cchEKUmB.s 			page 4


  98:../Middlewares/stm32-vision-models-postprocessing/lib_vision_models_pp/Src/pd_pp_model.c ****   size_t box_nb = 0;
  99:../Middlewares/stm32-vision-models-postprocessing/lib_vision_models_pp/Src/pd_pp_model.c ****   float32_t computedThreshold = -logf( 1 / pInput_static_param->conf_threshold - 1);
 100:../Middlewares/stm32-vision-models-postprocessing/lib_vision_models_pp/Src/pd_pp_model.c **** 
 101:../Middlewares/stm32-vision-models-postprocessing/lib_vision_models_pp/Src/pd_pp_model.c ****   for (uint32_t i = 0; i < pInput_static_param->nb_total_boxes; i++) {
 102:../Middlewares/stm32-vision-models-postprocessing/lib_vision_models_pp/Src/pd_pp_model.c ****     pd_pp_box_t *pBox = &pBoxes[box_nb]; //&pd_boxes[box_nb];
 103:../Middlewares/stm32-vision-models-postprocessing/lib_vision_models_pp/Src/pd_pp_model.c **** 
 104:../Middlewares/stm32-vision-models-postprocessing/lib_vision_models_pp/Src/pd_pp_model.c ****     /* decode prob */
 105:../Middlewares/stm32-vision-models-postprocessing/lib_vision_models_pp/Src/pd_pp_model.c ****     if (pRawProbs[i] >= computedThreshold) {
 106:../Middlewares/stm32-vision-models-postprocessing/lib_vision_models_pp/Src/pd_pp_model.c ****       pBox->prob = 1.0f / (1.0f + expf(-pRawProbs[i]));
 107:../Middlewares/stm32-vision-models-postprocessing/lib_vision_models_pp/Src/pd_pp_model.c ****       /* decode palm box */
 108:../Middlewares/stm32-vision-models-postprocessing/lib_vision_models_pp/Src/pd_pp_model.c ****       pBox->x_center = (pAnchors[i*2+0] * width  + pRawBoxes[i * in_struct_size + AI_PD_MODEL_PP_XC
 109:../Middlewares/stm32-vision-models-postprocessing/lib_vision_models_pp/Src/pd_pp_model.c ****       pBox->y_center = (pAnchors[i*2+1] * height + pRawBoxes[i * in_struct_size + AI_PD_MODEL_PP_YC
 110:../Middlewares/stm32-vision-models-postprocessing/lib_vision_models_pp/Src/pd_pp_model.c ****       pBox->width = pRawBoxes[i * in_struct_size + AI_PD_MODEL_PP_WIDTHREL]  / width;
 111:../Middlewares/stm32-vision-models-postprocessing/lib_vision_models_pp/Src/pd_pp_model.c ****       pBox->height = pRawBoxes[i * in_struct_size + AI_PD_MODEL_PP_HEIGHTREL] / height;
 112:../Middlewares/stm32-vision-models-postprocessing/lib_vision_models_pp/Src/pd_pp_model.c **** 
 113:../Middlewares/stm32-vision-models-postprocessing/lib_vision_models_pp/Src/pd_pp_model.c ****       /* decode keypoints */
 114:../Middlewares/stm32-vision-models-postprocessing/lib_vision_models_pp/Src/pd_pp_model.c ****       for (uint32_t j = 0; j < pInput_static_param->nb_keypoints; j++) {
 115:../Middlewares/stm32-vision-models-postprocessing/lib_vision_models_pp/Src/pd_pp_model.c ****         pBox->pKps[j].x = (pAnchors[i*2+0] * width  + pRawBoxes[i * in_struct_size + AI_PD_MODEL_PP
 116:../Middlewares/stm32-vision-models-postprocessing/lib_vision_models_pp/Src/pd_pp_model.c ****         pBox->pKps[j].y = (pAnchors[i*2+1] * height + pRawBoxes[i * in_struct_size + AI_PD_MODEL_PP
 117:../Middlewares/stm32-vision-models-postprocessing/lib_vision_models_pp/Src/pd_pp_model.c ****      }
 118:../Middlewares/stm32-vision-models-postprocessing/lib_vision_models_pp/Src/pd_pp_model.c **** 
 119:../Middlewares/stm32-vision-models-postprocessing/lib_vision_models_pp/Src/pd_pp_model.c ****       box_nb++;
 120:../Middlewares/stm32-vision-models-postprocessing/lib_vision_models_pp/Src/pd_pp_model.c ****       if (box_nb >= pInput_static_param->max_boxes_limit) {
 121:../Middlewares/stm32-vision-models-postprocessing/lib_vision_models_pp/Src/pd_pp_model.c ****         break;
 122:../Middlewares/stm32-vision-models-postprocessing/lib_vision_models_pp/Src/pd_pp_model.c ****       }
 123:../Middlewares/stm32-vision-models-postprocessing/lib_vision_models_pp/Src/pd_pp_model.c ****     }
 124:../Middlewares/stm32-vision-models-postprocessing/lib_vision_models_pp/Src/pd_pp_model.c ****   }
 125:../Middlewares/stm32-vision-models-postprocessing/lib_vision_models_pp/Src/pd_pp_model.c **** 
 126:../Middlewares/stm32-vision-models-postprocessing/lib_vision_models_pp/Src/pd_pp_model.c ****   pOutput->box_nb = box_nb;
 127:../Middlewares/stm32-vision-models-postprocessing/lib_vision_models_pp/Src/pd_pp_model.c ****   return AI_PD_POSTPROCESS_ERROR_NO;
 128:../Middlewares/stm32-vision-models-postprocessing/lib_vision_models_pp/Src/pd_pp_model.c **** }
 129:../Middlewares/stm32-vision-models-postprocessing/lib_vision_models_pp/Src/pd_pp_model.c **** 
 130:../Middlewares/stm32-vision-models-postprocessing/lib_vision_models_pp/Src/pd_pp_model.c **** static int32_t pd_pp_decode_int8(pd_model_pp_in_t *pInput,
 131:../Middlewares/stm32-vision-models-postprocessing/lib_vision_models_pp/Src/pd_pp_model.c ****                             pd_pp_out_t *pOutput,
 132:../Middlewares/stm32-vision-models-postprocessing/lib_vision_models_pp/Src/pd_pp_model.c ****                             pd_model_pp_static_param_t *pInput_static_param) {
 133:../Middlewares/stm32-vision-models-postprocessing/lib_vision_models_pp/Src/pd_pp_model.c **** 
 134:../Middlewares/stm32-vision-models-postprocessing/lib_vision_models_pp/Src/pd_pp_model.c ****   pOutput->box_nb = 0;
 135:../Middlewares/stm32-vision-models-postprocessing/lib_vision_models_pp/Src/pd_pp_model.c **** 
 136:../Middlewares/stm32-vision-models-postprocessing/lib_vision_models_pp/Src/pd_pp_model.c ****   pd_pp_box_t *pBoxes = (pd_pp_box_t *)pOutput->pOutData;
 137:../Middlewares/stm32-vision-models-postprocessing/lib_vision_models_pp/Src/pd_pp_model.c ****   float32_t width  = pInput_static_param->width;
 138:../Middlewares/stm32-vision-models-postprocessing/lib_vision_models_pp/Src/pd_pp_model.c ****   float32_t height = pInput_static_param->height;
 139:../Middlewares/stm32-vision-models-postprocessing/lib_vision_models_pp/Src/pd_pp_model.c ****   int8_t *pRawBoxes = (int8_t *)pInput->pBoxes;
 140:../Middlewares/stm32-vision-models-postprocessing/lib_vision_models_pp/Src/pd_pp_model.c ****   int8_t *pRawProbs = (int8_t *)pInput->pProbs;
 141:../Middlewares/stm32-vision-models-postprocessing/lib_vision_models_pp/Src/pd_pp_model.c ****   float32_t *pAnchors  = (float32_t *)pInput_static_param->pAnchors;
 142:../Middlewares/stm32-vision-models-postprocessing/lib_vision_models_pp/Src/pd_pp_model.c **** 
 143:../Middlewares/stm32-vision-models-postprocessing/lib_vision_models_pp/Src/pd_pp_model.c ****   float32_t boxe_scale = pInput_static_param->boxe_scale;
 144:../Middlewares/stm32-vision-models-postprocessing/lib_vision_models_pp/Src/pd_pp_model.c ****   float32_t proba_scale = pInput_static_param->proba_scale;
 145:../Middlewares/stm32-vision-models-postprocessing/lib_vision_models_pp/Src/pd_pp_model.c ****   int8_t boxe_zp = pInput_static_param->boxe_zp;
 146:../Middlewares/stm32-vision-models-postprocessing/lib_vision_models_pp/Src/pd_pp_model.c ****   int8_t proba_zp = pInput_static_param->proba_zp;
 147:../Middlewares/stm32-vision-models-postprocessing/lib_vision_models_pp/Src/pd_pp_model.c **** 
 148:../Middlewares/stm32-vision-models-postprocessing/lib_vision_models_pp/Src/pd_pp_model.c ****   const size_t in_struct_size = (2 * pInput_static_param->nb_keypoints) + AI_PD_MODEL_PP_KEYPOINTS;
 149:../Middlewares/stm32-vision-models-postprocessing/lib_vision_models_pp/Src/pd_pp_model.c ****   size_t box_nb = 0;
 150:../Middlewares/stm32-vision-models-postprocessing/lib_vision_models_pp/Src/pd_pp_model.c ****   float32_t computedThreshold = -logf( 1.0f / pInput_static_param->conf_threshold - 1);
 151:../Middlewares/stm32-vision-models-postprocessing/lib_vision_models_pp/Src/pd_pp_model.c ****   int8_t threshold_s8  = (int8_t)(computedThreshold / proba_scale + 0.5f + proba_zp);
 152:../Middlewares/stm32-vision-models-postprocessing/lib_vision_models_pp/Src/pd_pp_model.c **** 
 153:../Middlewares/stm32-vision-models-postprocessing/lib_vision_models_pp/Src/pd_pp_model.c ****   for (uint32_t i = 0; i < pInput_static_param->nb_total_boxes; i++) {
 154:../Middlewares/stm32-vision-models-postprocessing/lib_vision_models_pp/Src/pd_pp_model.c ****     pd_pp_box_t *pBox = &pBoxes[box_nb]; //&pd_boxes[box_nb];
ARM GAS  /tmp/cchEKUmB.s 			page 5


 155:../Middlewares/stm32-vision-models-postprocessing/lib_vision_models_pp/Src/pd_pp_model.c **** 
 156:../Middlewares/stm32-vision-models-postprocessing/lib_vision_models_pp/Src/pd_pp_model.c ****     /* decode prob */
 157:../Middlewares/stm32-vision-models-postprocessing/lib_vision_models_pp/Src/pd_pp_model.c ****     if (pRawProbs[i] >= threshold_s8) {
 158:../Middlewares/stm32-vision-models-postprocessing/lib_vision_models_pp/Src/pd_pp_model.c ****       float32_t value = (float32_t)((int32_t)pRawProbs[i] - proba_zp) * proba_scale;
 159:../Middlewares/stm32-vision-models-postprocessing/lib_vision_models_pp/Src/pd_pp_model.c ****       pBox->prob = 1.0f / (1.0f + expf(-value));
 160:../Middlewares/stm32-vision-models-postprocessing/lib_vision_models_pp/Src/pd_pp_model.c ****       /* decode palm box */
 161:../Middlewares/stm32-vision-models-postprocessing/lib_vision_models_pp/Src/pd_pp_model.c ****       float32_t anchor_x, anchor_y;
 162:../Middlewares/stm32-vision-models-postprocessing/lib_vision_models_pp/Src/pd_pp_model.c **** 
 163:../Middlewares/stm32-vision-models-postprocessing/lib_vision_models_pp/Src/pd_pp_model.c ****       value = (float32_t)((int32_t)pRawBoxes[i * in_struct_size + AI_PD_MODEL_PP_XCENTER] - boxe_zp
 164:../Middlewares/stm32-vision-models-postprocessing/lib_vision_models_pp/Src/pd_pp_model.c ****       anchor_x = pAnchors[i*2+0];
 165:../Middlewares/stm32-vision-models-postprocessing/lib_vision_models_pp/Src/pd_pp_model.c **** 
 166:../Middlewares/stm32-vision-models-postprocessing/lib_vision_models_pp/Src/pd_pp_model.c ****       pBox->x_center = (anchor_x * width  + value) / width;
 167:../Middlewares/stm32-vision-models-postprocessing/lib_vision_models_pp/Src/pd_pp_model.c **** 
 168:../Middlewares/stm32-vision-models-postprocessing/lib_vision_models_pp/Src/pd_pp_model.c ****       value = (float32_t)((int32_t)pRawBoxes[i * in_struct_size + AI_PD_MODEL_PP_YCENTER] - boxe_zp
 169:../Middlewares/stm32-vision-models-postprocessing/lib_vision_models_pp/Src/pd_pp_model.c ****       anchor_y = pAnchors[i*2+1];
 170:../Middlewares/stm32-vision-models-postprocessing/lib_vision_models_pp/Src/pd_pp_model.c **** 
 171:../Middlewares/stm32-vision-models-postprocessing/lib_vision_models_pp/Src/pd_pp_model.c ****       pBox->y_center = (anchor_y * height + value) / height;
 172:../Middlewares/stm32-vision-models-postprocessing/lib_vision_models_pp/Src/pd_pp_model.c **** 
 173:../Middlewares/stm32-vision-models-postprocessing/lib_vision_models_pp/Src/pd_pp_model.c ****       value = (float32_t)((int32_t)pRawBoxes[i * in_struct_size + AI_PD_MODEL_PP_WIDTHREL] - boxe_z
 174:../Middlewares/stm32-vision-models-postprocessing/lib_vision_models_pp/Src/pd_pp_model.c ****       pBox->width = value  / width;
 175:../Middlewares/stm32-vision-models-postprocessing/lib_vision_models_pp/Src/pd_pp_model.c **** 
 176:../Middlewares/stm32-vision-models-postprocessing/lib_vision_models_pp/Src/pd_pp_model.c ****       value = (float32_t)((int32_t)pRawBoxes[i * in_struct_size + AI_PD_MODEL_PP_HEIGHTREL] - boxe_
 177:../Middlewares/stm32-vision-models-postprocessing/lib_vision_models_pp/Src/pd_pp_model.c ****       pBox->height = value / height;
 178:../Middlewares/stm32-vision-models-postprocessing/lib_vision_models_pp/Src/pd_pp_model.c **** 
 179:../Middlewares/stm32-vision-models-postprocessing/lib_vision_models_pp/Src/pd_pp_model.c ****       /* decode keypoints */
 180:../Middlewares/stm32-vision-models-postprocessing/lib_vision_models_pp/Src/pd_pp_model.c ****       for (uint32_t j = 0; j < pInput_static_param->nb_keypoints; j++) {
 181:../Middlewares/stm32-vision-models-postprocessing/lib_vision_models_pp/Src/pd_pp_model.c ****         value = (float32_t)((int32_t)pRawBoxes[i * in_struct_size + AI_PD_MODEL_PP_KEYPOINTS + (2 *
 182:../Middlewares/stm32-vision-models-postprocessing/lib_vision_models_pp/Src/pd_pp_model.c ****         pBox->pKps[j].x = (anchor_x * width  + value) / width;
 183:../Middlewares/stm32-vision-models-postprocessing/lib_vision_models_pp/Src/pd_pp_model.c **** 
 184:../Middlewares/stm32-vision-models-postprocessing/lib_vision_models_pp/Src/pd_pp_model.c ****         value = (float32_t)((int32_t)pRawBoxes[i * in_struct_size + AI_PD_MODEL_PP_KEYPOINTS + (2 *
 185:../Middlewares/stm32-vision-models-postprocessing/lib_vision_models_pp/Src/pd_pp_model.c ****         pBox->pKps[j].y = (anchor_y * height + value) / height;
 186:../Middlewares/stm32-vision-models-postprocessing/lib_vision_models_pp/Src/pd_pp_model.c ****       }
 187:../Middlewares/stm32-vision-models-postprocessing/lib_vision_models_pp/Src/pd_pp_model.c **** 
 188:../Middlewares/stm32-vision-models-postprocessing/lib_vision_models_pp/Src/pd_pp_model.c ****       box_nb++;
 189:../Middlewares/stm32-vision-models-postprocessing/lib_vision_models_pp/Src/pd_pp_model.c ****       if (box_nb >= pInput_static_param->max_boxes_limit) {
 190:../Middlewares/stm32-vision-models-postprocessing/lib_vision_models_pp/Src/pd_pp_model.c ****         break;
 191:../Middlewares/stm32-vision-models-postprocessing/lib_vision_models_pp/Src/pd_pp_model.c ****       }
 192:../Middlewares/stm32-vision-models-postprocessing/lib_vision_models_pp/Src/pd_pp_model.c ****     }
 193:../Middlewares/stm32-vision-models-postprocessing/lib_vision_models_pp/Src/pd_pp_model.c ****   }
 194:../Middlewares/stm32-vision-models-postprocessing/lib_vision_models_pp/Src/pd_pp_model.c **** 
 195:../Middlewares/stm32-vision-models-postprocessing/lib_vision_models_pp/Src/pd_pp_model.c ****   pOutput->box_nb = box_nb;
 196:../Middlewares/stm32-vision-models-postprocessing/lib_vision_models_pp/Src/pd_pp_model.c ****   return AI_PD_POSTPROCESS_ERROR_NO;
 197:../Middlewares/stm32-vision-models-postprocessing/lib_vision_models_pp/Src/pd_pp_model.c **** }
 198:../Middlewares/stm32-vision-models-postprocessing/lib_vision_models_pp/Src/pd_pp_model.c **** 
 199:../Middlewares/stm32-vision-models-postprocessing/lib_vision_models_pp/Src/pd_pp_model.c **** static int pd_pp_nms(pd_pp_out_t *pOutput,
  77              		.loc 1 199 12 is_stmt 1 view -0
  78              		.cfi_startproc
  79              		@ args = 0, pretend = 0, frame = 64
  80              		@ frame_needed = 0, uses_anonymous_args = 0
 200:../Middlewares/stm32-vision-models-postprocessing/lib_vision_models_pp/Src/pd_pp_model.c ****                      pd_model_pp_static_param_t *pInput_static_param)
 201:../Middlewares/stm32-vision-models-postprocessing/lib_vision_models_pp/Src/pd_pp_model.c **** {
 202:../Middlewares/stm32-vision-models-postprocessing/lib_vision_models_pp/Src/pd_pp_model.c ****   int hand_nb = 0;
  81              		.loc 1 202 3 view .LVU13
 203:../Middlewares/stm32-vision-models-postprocessing/lib_vision_models_pp/Src/pd_pp_model.c ****   int skip_box;
  82              		.loc 1 203 3 view .LVU14
 204:../Middlewares/stm32-vision-models-postprocessing/lib_vision_models_pp/Src/pd_pp_model.c ****   float iou;
  83              		.loc 1 204 3 view .LVU15
ARM GAS  /tmp/cchEKUmB.s 			page 6


 205:../Middlewares/stm32-vision-models-postprocessing/lib_vision_models_pp/Src/pd_pp_model.c ****   pd_pp_box_t *pd_boxes = (pd_pp_box_t *)pOutput->pOutData;
  84              		.loc 1 205 3 view .LVU16
 199:../Middlewares/stm32-vision-models-postprocessing/lib_vision_models_pp/Src/pd_pp_model.c ****                      pd_model_pp_static_param_t *pInput_static_param)
  85              		.loc 1 199 12 is_stmt 0 view .LVU17
  86 0000 2DE9F04F 		push	{r4, r5, r6, r7, r8, r9, r10, fp, lr}
  87              		.cfi_def_cfa_offset 36
  88              		.cfi_offset 4, -36
  89              		.cfi_offset 5, -32
  90              		.cfi_offset 6, -28
  91              		.cfi_offset 7, -24
  92              		.cfi_offset 8, -20
  93              		.cfi_offset 9, -16
  94              		.cfi_offset 10, -12
  95              		.cfi_offset 11, -8
  96              		.cfi_offset 14, -4
 206:../Middlewares/stm32-vision-models-postprocessing/lib_vision_models_pp/Src/pd_pp_model.c ****   size_t box_nb =  pOutput->box_nb;
  97              		.loc 1 206 10 view .LVU18
  98 0004 D0E90074 		ldrd	r7, r4, [r0]
  99              	.LVL5:
 207:../Middlewares/stm32-vision-models-postprocessing/lib_vision_models_pp/Src/pd_pp_model.c **** 
 208:../Middlewares/stm32-vision-models-postprocessing/lib_vision_models_pp/Src/pd_pp_model.c ****   /* first sort boxes by higher probability */
 209:../Middlewares/stm32-vision-models-postprocessing/lib_vision_models_pp/Src/pd_pp_model.c ****   qsort(pd_boxes, box_nb, sizeof(pd_pp_box_t), pd_pp_nms_comparator);
 100              		.loc 1 209 3 is_stmt 1 view .LVU19
 101 0008 7F4B     		ldr	r3, .L18
 199:../Middlewares/stm32-vision-models-postprocessing/lib_vision_models_pp/Src/pd_pp_model.c ****                      pd_model_pp_static_param_t *pInput_static_param)
 102              		.loc 1 199 12 is_stmt 0 view .LVU20
 103 000a 8846     		mov	r8, r1
 104              		.loc 1 209 3 view .LVU21
 105 000c 1822     		movs	r2, #24
 106 000e 2146     		mov	r1, r4
 107              	.LVL6:
 108              		.loc 1 209 3 view .LVU22
 109 0010 3846     		mov	r0, r7
 110              	.LVL7:
 199:../Middlewares/stm32-vision-models-postprocessing/lib_vision_models_pp/Src/pd_pp_model.c ****                      pd_model_pp_static_param_t *pInput_static_param)
 111              		.loc 1 199 12 view .LVU23
 112 0012 91B0     		sub	sp, sp, #68
 113              		.cfi_def_cfa_offset 104
 114              		.loc 1 209 3 view .LVU24
 115 0014 FFF7FEFF 		bl	qsort
 116              	.LVL8:
 210:../Middlewares/stm32-vision-models-postprocessing/lib_vision_models_pp/Src/pd_pp_model.c **** 
 211:../Middlewares/stm32-vision-models-postprocessing/lib_vision_models_pp/Src/pd_pp_model.c ****   /* then apply iou to filter them */
 212:../Middlewares/stm32-vision-models-postprocessing/lib_vision_models_pp/Src/pd_pp_model.c ****   for (size_t i = 0; i < box_nb; i++) {
 117              		.loc 1 212 3 is_stmt 1 view .LVU25
 118              	.LBB12:
 119              		.loc 1 212 8 view .LVU26
 120              		.loc 1 212 8 is_stmt 0 view .LVU27
 121 0018 1823     		movs	r3, #24
 122              		.loc 1 212 3 view .LVU28
 123 001a 3E46     		mov	r6, r7
 124              	.LBE12:
 202:../Middlewares/stm32-vision-models-postprocessing/lib_vision_models_pp/Src/pd_pp_model.c ****   int skip_box;
 125              		.loc 1 202 7 view .LVU29
 126 001c 4FF0000C 		mov	ip, #0
 127              	.LBB42:
 128              	.LBB13:
ARM GAS  /tmp/cchEKUmB.s 			page 7


 129              	.LBB14:
 130              	.LBB15:
 131              	.LBB16:
 132              	.LBB17:
  39:../Middlewares/stm32-vision-models-postprocessing/lib_vision_models_pp/Src/pd_pp_model.c ****   corners[0].y = box->y_center - box->height / 2;
 133              		.loc 1 39 32 view .LVU30
 134 0020 F6EE006A 		vmov.f32	s13, #5.0e-1
 135              	.LBE17:
 136              	.LBE16:
  73:../Middlewares/stm32-vision-models-postprocessing/lib_vision_models_pp/Src/pd_pp_model.c ****     return 0;
 137              		.loc 1 73 6 view .LVU31
 138 0024 DFED794A 		vldr.32	s9, .L18+4
 139 0028 03FB047E 		mla	lr, r3, r4, r7
 140              	.LVL9:
 141              	.L5:
  73:../Middlewares/stm32-vision-models-postprocessing/lib_vision_models_pp/Src/pd_pp_model.c ****     return 0;
 142              		.loc 1 73 6 view .LVU32
 143              	.LBE15:
 144              	.LBE14:
 145              	.LBE13:
 146              		.loc 1 212 24 is_stmt 1 discriminator 1 view .LVU33
 147 002c 7645     		cmp	r6, lr
 148 002e 40F0E880 		bne	.L14
 149              	.LBE42:
 213:../Middlewares/stm32-vision-models-postprocessing/lib_vision_models_pp/Src/pd_pp_model.c ****     skip_box = 0;
 214:../Middlewares/stm32-vision-models-postprocessing/lib_vision_models_pp/Src/pd_pp_model.c ****     for (int j = 0; j < hand_nb; j++) {
 215:../Middlewares/stm32-vision-models-postprocessing/lib_vision_models_pp/Src/pd_pp_model.c ****       iou = pd_pp_compute_iou(&pd_boxes[i], &pd_boxes[j]);
 216:../Middlewares/stm32-vision-models-postprocessing/lib_vision_models_pp/Src/pd_pp_model.c ****       if (iou >= pInput_static_param->iou_threshold) {
 217:../Middlewares/stm32-vision-models-postprocessing/lib_vision_models_pp/Src/pd_pp_model.c ****         skip_box = 1;
 218:../Middlewares/stm32-vision-models-postprocessing/lib_vision_models_pp/Src/pd_pp_model.c ****         break;
 219:../Middlewares/stm32-vision-models-postprocessing/lib_vision_models_pp/Src/pd_pp_model.c ****       }
 220:../Middlewares/stm32-vision-models-postprocessing/lib_vision_models_pp/Src/pd_pp_model.c ****     }
 221:../Middlewares/stm32-vision-models-postprocessing/lib_vision_models_pp/Src/pd_pp_model.c ****     if (skip_box)
 222:../Middlewares/stm32-vision-models-postprocessing/lib_vision_models_pp/Src/pd_pp_model.c ****       continue;
 223:../Middlewares/stm32-vision-models-postprocessing/lib_vision_models_pp/Src/pd_pp_model.c **** 
 224:../Middlewares/stm32-vision-models-postprocessing/lib_vision_models_pp/Src/pd_pp_model.c ****     pd_boxes[hand_nb++] = pd_boxes[i];
 225:../Middlewares/stm32-vision-models-postprocessing/lib_vision_models_pp/Src/pd_pp_model.c ****   }
 226:../Middlewares/stm32-vision-models-postprocessing/lib_vision_models_pp/Src/pd_pp_model.c **** 
 227:../Middlewares/stm32-vision-models-postprocessing/lib_vision_models_pp/Src/pd_pp_model.c ****   return hand_nb;
 228:../Middlewares/stm32-vision-models-postprocessing/lib_vision_models_pp/Src/pd_pp_model.c **** }
 150              		.loc 1 228 1 is_stmt 0 view .LVU34
 151 0032 11B0     		add	sp, sp, #68
 152              		.cfi_remember_state
 153              		.cfi_def_cfa_offset 36
 154              		@ sp needed
 155 0034 BDE8F08F 		pop	{r4, r5, r6, r7, r8, r9, r10, fp, pc}
 156              	.LVL10:
 157              	.L9:
 158              		.cfi_restore_state
 159              	.LBB43:
 160              	.LBB40:
 215:../Middlewares/stm32-vision-models-postprocessing/lib_vision_models_pp/Src/pd_pp_model.c ****       if (iou >= pInput_static_param->iou_threshold) {
 161              		.loc 1 215 7 is_stmt 1 view .LVU35
 162              	.LBB39:
 163              	.LBI14:
  45:../Middlewares/stm32-vision-models-postprocessing/lib_vision_models_pp/Src/pd_pp_model.c **** {
 164              		.loc 1 45 14 view .LVU36
ARM GAS  /tmp/cchEKUmB.s 			page 8


 165              	.LBB38:
  47:../Middlewares/stm32-vision-models-postprocessing/lib_vision_models_pp/Src/pd_pp_model.c ****   float32_t intersect_xmin;
 166              		.loc 1 47 3 view .LVU37
  48:../Middlewares/stm32-vision-models-postprocessing/lib_vision_models_pp/Src/pd_pp_model.c ****   float32_t intersect_ymin;
 167              		.loc 1 48 3 view .LVU38
  49:../Middlewares/stm32-vision-models-postprocessing/lib_vision_models_pp/Src/pd_pp_model.c ****   float32_t intersect_xmax;
 168              		.loc 1 49 3 view .LVU39
  50:../Middlewares/stm32-vision-models-postprocessing/lib_vision_models_pp/Src/pd_pp_model.c ****   float32_t intersect_ymax;
 169              		.loc 1 50 3 view .LVU40
  51:../Middlewares/stm32-vision-models-postprocessing/lib_vision_models_pp/Src/pd_pp_model.c ****   float32_t intersect_area;
 170              		.loc 1 51 3 view .LVU41
  52:../Middlewares/stm32-vision-models-postprocessing/lib_vision_models_pp/Src/pd_pp_model.c ****   float32_t area[2];
 171              		.loc 1 52 3 view .LVU42
  53:../Middlewares/stm32-vision-models-postprocessing/lib_vision_models_pp/Src/pd_pp_model.c ****   float32_t xmin[2];
 172              		.loc 1 53 3 view .LVU43
  54:../Middlewares/stm32-vision-models-postprocessing/lib_vision_models_pp/Src/pd_pp_model.c ****   float32_t xmax[2];
 173              		.loc 1 54 3 view .LVU44
  55:../Middlewares/stm32-vision-models-postprocessing/lib_vision_models_pp/Src/pd_pp_model.c ****   float32_t ymin[2];
 174              		.loc 1 55 3 view .LVU45
  56:../Middlewares/stm32-vision-models-postprocessing/lib_vision_models_pp/Src/pd_pp_model.c ****   float32_t ymax[2];
 175              		.loc 1 56 3 view .LVU46
  57:../Middlewares/stm32-vision-models-postprocessing/lib_vision_models_pp/Src/pd_pp_model.c ****   int i;
 176              		.loc 1 57 3 view .LVU47
  58:../Middlewares/stm32-vision-models-postprocessing/lib_vision_models_pp/Src/pd_pp_model.c **** 
 177              		.loc 1 58 3 view .LVU48
  60:../Middlewares/stm32-vision-models-postprocessing/lib_vision_models_pp/Src/pd_pp_model.c ****   pd_pp_compute_opposite_corners_from_box(box1, corners[1]);
 178              		.loc 1 60 3 view .LVU49
 179              	.LBB23:
 180              	.LBI16:
  37:../Middlewares/stm32-vision-models-postprocessing/lib_vision_models_pp/Src/pd_pp_model.c **** {
 181              		.loc 1 37 13 view .LVU50
 182              	.LBB18:
  39:../Middlewares/stm32-vision-models-postprocessing/lib_vision_models_pp/Src/pd_pp_model.c ****   corners[0].y = box->y_center - box->height / 2;
 183              		.loc 1 39 3 view .LVU51
  39:../Middlewares/stm32-vision-models-postprocessing/lib_vision_models_pp/Src/pd_pp_model.c ****   corners[0].y = box->y_center - box->height / 2;
 184              		.loc 1 39 21 is_stmt 0 view .LVU52
 185 0038 96ED017A 		vldr.32	s14, [r6, #4]
  39:../Middlewares/stm32-vision-models-postprocessing/lib_vision_models_pp/Src/pd_pp_model.c ****   corners[0].y = box->y_center - box->height / 2;
 186              		.loc 1 39 37 view .LVU53
 187 003c D6ED035A 		vldr.32	s11, [r6, #12]
  39:../Middlewares/stm32-vision-models-postprocessing/lib_vision_models_pp/Src/pd_pp_model.c ****   corners[0].y = box->y_center - box->height / 2;
 188              		.loc 1 39 32 view .LVU54
 189 0040 F0EE477A 		vmov.f32	s15, s14
 190 0044 E5EEE67A 		vfms.f32	s15, s11, s13
  40:../Middlewares/stm32-vision-models-postprocessing/lib_vision_models_pp/Src/pd_pp_model.c ****   corners[1].x = box->x_center + box->width / 2;
 191              		.loc 1 40 37 view .LVU55
 192 0048 96ED046A 		vldr.32	s12, [r6, #16]
  41:../Middlewares/stm32-vision-models-postprocessing/lib_vision_models_pp/Src/pd_pp_model.c ****   corners[1].y = box->y_center + box->height / 2;
 193              		.loc 1 41 32 view .LVU56
 194 004c A5EEA67A 		vfma.f32	s14, s11, s13
  39:../Middlewares/stm32-vision-models-postprocessing/lib_vision_models_pp/Src/pd_pp_model.c ****   corners[0].y = box->y_center - box->height / 2;
 195              		.loc 1 39 16 view .LVU57
 196 0050 CDED087A 		vstr.32	s15, [sp, #32]
  40:../Middlewares/stm32-vision-models-postprocessing/lib_vision_models_pp/Src/pd_pp_model.c ****   corners[1].x = box->x_center + box->width / 2;
 197              		.loc 1 40 3 is_stmt 1 view .LVU58
  40:../Middlewares/stm32-vision-models-postprocessing/lib_vision_models_pp/Src/pd_pp_model.c ****   corners[1].x = box->x_center + box->width / 2;
 198              		.loc 1 40 21 is_stmt 0 view .LVU59
ARM GAS  /tmp/cchEKUmB.s 			page 9


 199 0054 D6ED027A 		vldr.32	s15, [r6, #8]
  41:../Middlewares/stm32-vision-models-postprocessing/lib_vision_models_pp/Src/pd_pp_model.c ****   corners[1].y = box->y_center + box->height / 2;
 200              		.loc 1 41 16 view .LVU60
 201 0058 8DED0A7A 		vstr.32	s14, [sp, #40]
  40:../Middlewares/stm32-vision-models-postprocessing/lib_vision_models_pp/Src/pd_pp_model.c ****   corners[1].x = box->x_center + box->width / 2;
 202              		.loc 1 40 32 view .LVU61
 203 005c B0EE675A 		vmov.f32	s10, s15
 204              	.LBE18:
 205              	.LBE23:
 206              	.LBB24:
 207              	.LBB25:
  39:../Middlewares/stm32-vision-models-postprocessing/lib_vision_models_pp/Src/pd_pp_model.c ****   corners[0].y = box->y_center - box->height / 2;
 208              		.loc 1 39 21 view .LVU62
 209 0060 93ED017A 		vldr.32	s14, [r3, #4]
 210              	.LBE25:
 211              	.LBE24:
 212              	.LBB30:
 213              	.LBB19:
  42:../Middlewares/stm32-vision-models-postprocessing/lib_vision_models_pp/Src/pd_pp_model.c **** }
 214              		.loc 1 42 32 view .LVU63
 215 0064 E6EE267A 		vfma.f32	s15, s12, s13
 216              	.LBE19:
 217              	.LBE30:
 218              	.LBB31:
 219              	.LBB26:
  39:../Middlewares/stm32-vision-models-postprocessing/lib_vision_models_pp/Src/pd_pp_model.c ****   corners[0].y = box->y_center - box->height / 2;
 220              		.loc 1 39 37 view .LVU64
 221 0068 D3ED035A 		vldr.32	s11, [r3, #12]
 222              	.LBE26:
 223              	.LBE31:
 224              	.LBB32:
 225              	.LBB20:
  42:../Middlewares/stm32-vision-models-postprocessing/lib_vision_models_pp/Src/pd_pp_model.c **** }
 226              		.loc 1 42 16 view .LVU65
 227 006c CDED0B7A 		vstr.32	s15, [sp, #44]
 228              	.LBE20:
 229              	.LBE32:
 230              	.LBB33:
 231              	.LBB27:
  39:../Middlewares/stm32-vision-models-postprocessing/lib_vision_models_pp/Src/pd_pp_model.c ****   corners[0].y = box->y_center - box->height / 2;
 232              		.loc 1 39 32 view .LVU66
 233 0070 F0EE477A 		vmov.f32	s15, s14
 234 0074 E5EEE67A 		vfms.f32	s15, s11, s13
 235              	.LBE27:
 236              	.LBE33:
 237              	.LBB34:
 238              	.LBB21:
  40:../Middlewares/stm32-vision-models-postprocessing/lib_vision_models_pp/Src/pd_pp_model.c ****   corners[1].x = box->x_center + box->width / 2;
 239              		.loc 1 40 32 view .LVU67
 240 0078 A6EE665A 		vfms.f32	s10, s12, s13
 241              	.LBE21:
 242              	.LBE34:
 243              	.LBB35:
 244              	.LBB28:
  39:../Middlewares/stm32-vision-models-postprocessing/lib_vision_models_pp/Src/pd_pp_model.c ****   corners[0].y = box->y_center - box->height / 2;
 245              		.loc 1 39 16 view .LVU68
 246 007c CDED0C7A 		vstr.32	s15, [sp, #48]
ARM GAS  /tmp/cchEKUmB.s 			page 10


  40:../Middlewares/stm32-vision-models-postprocessing/lib_vision_models_pp/Src/pd_pp_model.c ****   corners[1].x = box->x_center + box->width / 2;
 247              		.loc 1 40 21 view .LVU69
 248 0080 D3ED027A 		vldr.32	s15, [r3, #8]
  40:../Middlewares/stm32-vision-models-postprocessing/lib_vision_models_pp/Src/pd_pp_model.c ****   corners[1].x = box->x_center + box->width / 2;
 249              		.loc 1 40 37 view .LVU70
 250 0084 93ED046A 		vldr.32	s12, [r3, #16]
 251              	.LBE28:
 252              	.LBE35:
 253              	.LBB36:
 254              	.LBB22:
  40:../Middlewares/stm32-vision-models-postprocessing/lib_vision_models_pp/Src/pd_pp_model.c ****   corners[1].x = box->x_center + box->width / 2;
 255              		.loc 1 40 16 view .LVU71
 256 0088 8DED095A 		vstr.32	s10, [sp, #36]
  41:../Middlewares/stm32-vision-models-postprocessing/lib_vision_models_pp/Src/pd_pp_model.c ****   corners[1].y = box->y_center + box->height / 2;
 257              		.loc 1 41 3 is_stmt 1 view .LVU72
  42:../Middlewares/stm32-vision-models-postprocessing/lib_vision_models_pp/Src/pd_pp_model.c **** }
 258              		.loc 1 42 3 view .LVU73
 259              	.LVL11:
  42:../Middlewares/stm32-vision-models-postprocessing/lib_vision_models_pp/Src/pd_pp_model.c **** }
 260              		.loc 1 42 3 is_stmt 0 view .LVU74
 261              	.LBE22:
 262              	.LBE36:
  61:../Middlewares/stm32-vision-models-postprocessing/lib_vision_models_pp/Src/pd_pp_model.c **** 
 263              		.loc 1 61 3 is_stmt 1 view .LVU75
 264              	.LBB37:
 265              	.LBI24:
  37:../Middlewares/stm32-vision-models-postprocessing/lib_vision_models_pp/Src/pd_pp_model.c **** {
 266              		.loc 1 37 13 view .LVU76
 267              	.LBB29:
  39:../Middlewares/stm32-vision-models-postprocessing/lib_vision_models_pp/Src/pd_pp_model.c ****   corners[0].y = box->y_center - box->height / 2;
 268              		.loc 1 39 3 view .LVU77
  40:../Middlewares/stm32-vision-models-postprocessing/lib_vision_models_pp/Src/pd_pp_model.c ****   corners[1].x = box->x_center + box->width / 2;
 269              		.loc 1 40 3 view .LVU78
  40:../Middlewares/stm32-vision-models-postprocessing/lib_vision_models_pp/Src/pd_pp_model.c ****   corners[1].x = box->x_center + box->width / 2;
 270              		.loc 1 40 32 is_stmt 0 view .LVU79
 271 008c B0EE675A 		vmov.f32	s10, s15
  41:../Middlewares/stm32-vision-models-postprocessing/lib_vision_models_pp/Src/pd_pp_model.c ****   corners[1].y = box->y_center + box->height / 2;
 272              		.loc 1 41 32 view .LVU80
 273 0090 A5EEA67A 		vfma.f32	s14, s11, s13
  40:../Middlewares/stm32-vision-models-postprocessing/lib_vision_models_pp/Src/pd_pp_model.c ****   corners[1].x = box->x_center + box->width / 2;
 274              		.loc 1 40 32 view .LVU81
 275 0094 A6EE665A 		vfms.f32	s10, s12, s13
  42:../Middlewares/stm32-vision-models-postprocessing/lib_vision_models_pp/Src/pd_pp_model.c **** }
 276              		.loc 1 42 32 view .LVU82
 277 0098 E6EE267A 		vfma.f32	s15, s12, s13
  40:../Middlewares/stm32-vision-models-postprocessing/lib_vision_models_pp/Src/pd_pp_model.c ****   corners[1].x = box->x_center + box->width / 2;
 278              		.loc 1 40 16 view .LVU83
 279 009c 8DED0D5A 		vstr.32	s10, [sp, #52]
  41:../Middlewares/stm32-vision-models-postprocessing/lib_vision_models_pp/Src/pd_pp_model.c ****   corners[1].y = box->y_center + box->height / 2;
 280              		.loc 1 41 3 is_stmt 1 view .LVU84
  41:../Middlewares/stm32-vision-models-postprocessing/lib_vision_models_pp/Src/pd_pp_model.c ****   corners[1].y = box->y_center + box->height / 2;
 281              		.loc 1 41 16 is_stmt 0 view .LVU85
 282 00a0 8DED0E7A 		vstr.32	s14, [sp, #56]
  42:../Middlewares/stm32-vision-models-postprocessing/lib_vision_models_pp/Src/pd_pp_model.c **** }
 283              		.loc 1 42 3 is_stmt 1 view .LVU86
  42:../Middlewares/stm32-vision-models-postprocessing/lib_vision_models_pp/Src/pd_pp_model.c **** }
 284              		.loc 1 42 16 is_stmt 0 view .LVU87
ARM GAS  /tmp/cchEKUmB.s 			page 11


 285 00a4 CDED0F7A 		vstr.32	s15, [sp, #60]
 286              	.LVL12:
  42:../Middlewares/stm32-vision-models-postprocessing/lib_vision_models_pp/Src/pd_pp_model.c **** }
 287              		.loc 1 42 16 view .LVU88
 288              	.LBE29:
 289              	.LBE37:
  63:../Middlewares/stm32-vision-models-postprocessing/lib_vision_models_pp/Src/pd_pp_model.c ****     xmin[i] = MIN(corners[i][0].x, corners[i][1].x);
 290              		.loc 1 63 3 is_stmt 1 view .LVU89
  63:../Middlewares/stm32-vision-models-postprocessing/lib_vision_models_pp/Src/pd_pp_model.c ****     xmin[i] = MIN(corners[i][0].x, corners[i][1].x);
 291              		.loc 1 63 17 discriminator 1 view .LVU90
 292 00a8 EA46     		mov	r10, sp
  63:../Middlewares/stm32-vision-models-postprocessing/lib_vision_models_pp/Src/pd_pp_model.c ****     xmin[i] = MIN(corners[i][0].x, corners[i][1].x);
 293              		.loc 1 63 10 is_stmt 0 view .LVU91
 294 00aa 0020     		movs	r0, #0
 295 00ac 08AA     		add	r2, sp, #32
 296 00ae 0DF10809 		add	r9, sp, #8
 297 00b2 04AD     		add	r5, sp, #16
 298 00b4 06AC     		add	r4, sp, #24
 299              	.LVL13:
 300              	.L6:
  64:../Middlewares/stm32-vision-models-postprocessing/lib_vision_models_pp/Src/pd_pp_model.c ****     xmax[i] = MAX(corners[i][0].x, corners[i][1].x);
 301              		.loc 1 64 5 is_stmt 1 view .LVU92
  64:../Middlewares/stm32-vision-models-postprocessing/lib_vision_models_pp/Src/pd_pp_model.c ****     xmax[i] = MAX(corners[i][0].x, corners[i][1].x);
 302              		.loc 1 64 15 is_stmt 0 view .LVU93
 303 00b6 92ED027A 		vldr.32	s14, [r2, #8]
 304 00ba D2ED007A 		vldr.32	s15, [r2]
  64:../Middlewares/stm32-vision-models-postprocessing/lib_vision_models_pp/Src/pd_pp_model.c ****     xmax[i] = MAX(corners[i][0].x, corners[i][1].x);
 305              		.loc 1 64 13 discriminator 4 view .LVU94
 306 00be B4EEE77A 		vcmpe.f32	s14, s15
 307 00c2 F1EE10FA 		vmrs	APSR_nzcv, FPSCR
  65:../Middlewares/stm32-vision-models-postprocessing/lib_vision_models_pp/Src/pd_pp_model.c ****     ymin[i] = MIN(corners[i][0].y, corners[i][1].y);
 308              		.loc 1 65 13 discriminator 4 view .LVU95
 309 00c6 F4EEC77A 		vcmpe.f32	s15, s14
  64:../Middlewares/stm32-vision-models-postprocessing/lib_vision_models_pp/Src/pd_pp_model.c ****     xmax[i] = MAX(corners[i][0].x, corners[i][1].x);
 310              		.loc 1 64 13 discriminator 4 view .LVU96
 311 00ca 37FE876A 		vselgt.f32	s12, s15, s14
  65:../Middlewares/stm32-vision-models-postprocessing/lib_vision_models_pp/Src/pd_pp_model.c ****     ymin[i] = MIN(corners[i][0].y, corners[i][1].y);
 312              		.loc 1 65 13 discriminator 4 view .LVU97
 313 00ce F1EE10FA 		vmrs	APSR_nzcv, FPSCR
 314 00d2 77FE877A 		vselgt.f32	s15, s15, s14
 315 00d6 E9EC017A 		vstmia.32	r9!, {s15}
  66:../Middlewares/stm32-vision-models-postprocessing/lib_vision_models_pp/Src/pd_pp_model.c ****     ymax[i] = MAX(corners[i][0].y, corners[i][1].y);
 316              		.loc 1 66 15 view .LVU98
 317 00da 92ED037A 		vldr.32	s14, [r2, #12]
 318 00de D2ED017A 		vldr.32	s15, [r2, #4]
  66:../Middlewares/stm32-vision-models-postprocessing/lib_vision_models_pp/Src/pd_pp_model.c ****     ymax[i] = MAX(corners[i][0].y, corners[i][1].y);
 319              		.loc 1 66 13 discriminator 4 view .LVU99
 320 00e2 B4EEE77A 		vcmpe.f32	s14, s15
 321 00e6 F1EE10FA 		vmrs	APSR_nzcv, FPSCR
  67:../Middlewares/stm32-vision-models-postprocessing/lib_vision_models_pp/Src/pd_pp_model.c ****   }
 322              		.loc 1 67 13 discriminator 4 view .LVU100
 323 00ea F4EEC77A 		vcmpe.f32	s15, s14
  64:../Middlewares/stm32-vision-models-postprocessing/lib_vision_models_pp/Src/pd_pp_model.c ****     xmax[i] = MAX(corners[i][0].x, corners[i][1].x);
 324              		.loc 1 64 13 discriminator 4 view .LVU101
 325 00ee AAEC016A 		vstmia.32	r10!, {s12}
  65:../Middlewares/stm32-vision-models-postprocessing/lib_vision_models_pp/Src/pd_pp_model.c ****     ymin[i] = MIN(corners[i][0].y, corners[i][1].y);
 326              		.loc 1 65 5 is_stmt 1 view .LVU102
ARM GAS  /tmp/cchEKUmB.s 			page 12


  66:../Middlewares/stm32-vision-models-postprocessing/lib_vision_models_pp/Src/pd_pp_model.c ****     ymax[i] = MAX(corners[i][0].y, corners[i][1].y);
 327              		.loc 1 66 5 view .LVU103
  66:../Middlewares/stm32-vision-models-postprocessing/lib_vision_models_pp/Src/pd_pp_model.c ****     ymax[i] = MAX(corners[i][0].y, corners[i][1].y);
 328              		.loc 1 66 13 is_stmt 0 discriminator 4 view .LVU104
 329 00f2 37FE876A 		vselgt.f32	s12, s15, s14
  67:../Middlewares/stm32-vision-models-postprocessing/lib_vision_models_pp/Src/pd_pp_model.c ****   }
 330              		.loc 1 67 13 discriminator 4 view .LVU105
 331 00f6 F1EE10FA 		vmrs	APSR_nzcv, FPSCR
 332 00fa 00F1010B 		add	fp, r0, #1
 333 00fe 77FE877A 		vselgt.f32	s15, s15, s14
  63:../Middlewares/stm32-vision-models-postprocessing/lib_vision_models_pp/Src/pd_pp_model.c ****     xmin[i] = MIN(corners[i][0].x, corners[i][1].x);
 334              		.loc 1 63 17 discriminator 1 view .LVU106
 335 0102 BBF1020F 		cmp	fp, #2
  66:../Middlewares/stm32-vision-models-postprocessing/lib_vision_models_pp/Src/pd_pp_model.c ****     ymax[i] = MAX(corners[i][0].y, corners[i][1].y);
 336              		.loc 1 66 13 discriminator 4 view .LVU107
 337 0106 A5EC016A 		vstmia.32	r5!, {s12}
  67:../Middlewares/stm32-vision-models-postprocessing/lib_vision_models_pp/Src/pd_pp_model.c ****   }
 338              		.loc 1 67 5 is_stmt 1 view .LVU108
  67:../Middlewares/stm32-vision-models-postprocessing/lib_vision_models_pp/Src/pd_pp_model.c ****   }
 339              		.loc 1 67 13 is_stmt 0 discriminator 4 view .LVU109
 340 010a E4EC017A 		vstmia.32	r4!, {s15}
  63:../Middlewares/stm32-vision-models-postprocessing/lib_vision_models_pp/Src/pd_pp_model.c ****     xmin[i] = MIN(corners[i][0].x, corners[i][1].x);
 341              		.loc 1 63 23 is_stmt 1 discriminator 2 view .LVU110
 342              	.LVL14:
  63:../Middlewares/stm32-vision-models-postprocessing/lib_vision_models_pp/Src/pd_pp_model.c ****     xmin[i] = MIN(corners[i][0].x, corners[i][1].x);
 343              		.loc 1 63 17 discriminator 1 view .LVU111
 344 010e 4FF00100 		mov	r0, #1
 345 0112 02F11002 		add	r2, r2, #16
 346 0116 CED1     		bne	.L6
 347              	.LVL15:
  70:../Middlewares/stm32-vision-models-postprocessing/lib_vision_models_pp/Src/pd_pp_model.c ****     area[i] = (ymax[i] - ymin[i]) * (xmax[i] - xmin[i]);
 348              		.loc 1 70 17 discriminator 1 view .LVU112
  71:../Middlewares/stm32-vision-models-postprocessing/lib_vision_models_pp/Src/pd_pp_model.c ****   }
 349              		.loc 1 71 5 view .LVU113
  71:../Middlewares/stm32-vision-models-postprocessing/lib_vision_models_pp/Src/pd_pp_model.c ****   }
 350              		.loc 1 71 20 is_stmt 0 view .LVU114
 351 0118 DDED067A 		vldr.32	s15, [sp, #24]
  71:../Middlewares/stm32-vision-models-postprocessing/lib_vision_models_pp/Src/pd_pp_model.c ****   }
 352              		.loc 1 71 30 view .LVU115
 353 011c 9DED045A 		vldr.32	s10, [sp, #16]
  71:../Middlewares/stm32-vision-models-postprocessing/lib_vision_models_pp/Src/pd_pp_model.c ****   }
 354              		.loc 1 71 42 view .LVU116
 355 0120 9DED027A 		vldr.32	s14, [sp, #8]
  71:../Middlewares/stm32-vision-models-postprocessing/lib_vision_models_pp/Src/pd_pp_model.c ****   }
 356              		.loc 1 71 52 view .LVU117
 357 0124 DDED005A 		vldr.32	s11, [sp]
  71:../Middlewares/stm32-vision-models-postprocessing/lib_vision_models_pp/Src/pd_pp_model.c ****   }
 358              		.loc 1 71 24 view .LVU118
 359 0128 37EEC56A 		vsub.f32	s12, s15, s10
  71:../Middlewares/stm32-vision-models-postprocessing/lib_vision_models_pp/Src/pd_pp_model.c ****   }
 360              		.loc 1 71 46 view .LVU119
 361 012c 37EE654A 		vsub.f32	s8, s14, s11
  71:../Middlewares/stm32-vision-models-postprocessing/lib_vision_models_pp/Src/pd_pp_model.c ****   }
 362              		.loc 1 71 35 view .LVU120
 363 0130 26EE046A 		vmul.f32	s12, s12, s8
  70:../Middlewares/stm32-vision-models-postprocessing/lib_vision_models_pp/Src/pd_pp_model.c ****     area[i] = (ymax[i] - ymin[i]) * (xmax[i] - xmin[i]);
 364              		.loc 1 70 23 is_stmt 1 discriminator 3 view .LVU121
ARM GAS  /tmp/cchEKUmB.s 			page 13


 365              	.LVL16:
  70:../Middlewares/stm32-vision-models-postprocessing/lib_vision_models_pp/Src/pd_pp_model.c ****     area[i] = (ymax[i] - ymin[i]) * (xmax[i] - xmin[i]);
 366              		.loc 1 70 17 discriminator 1 view .LVU122
  71:../Middlewares/stm32-vision-models-postprocessing/lib_vision_models_pp/Src/pd_pp_model.c ****   }
 367              		.loc 1 71 5 view .LVU123
  70:../Middlewares/stm32-vision-models-postprocessing/lib_vision_models_pp/Src/pd_pp_model.c ****     area[i] = (ymax[i] - ymin[i]) * (xmax[i] - xmin[i]);
 368              		.loc 1 70 23 discriminator 3 view .LVU124
  70:../Middlewares/stm32-vision-models-postprocessing/lib_vision_models_pp/Src/pd_pp_model.c ****     area[i] = (ymax[i] - ymin[i]) * (xmax[i] - xmin[i]);
 369              		.loc 1 70 17 discriminator 1 view .LVU125
  73:../Middlewares/stm32-vision-models-postprocessing/lib_vision_models_pp/Src/pd_pp_model.c ****     return 0;
 370              		.loc 1 73 3 view .LVU126
  73:../Middlewares/stm32-vision-models-postprocessing/lib_vision_models_pp/Src/pd_pp_model.c ****     return 0;
 371              		.loc 1 73 6 is_stmt 0 view .LVU127
 372 0134 B5EEC06A 		vcmpe.f32	s12, #0
 373 0138 F1EE10FA 		vmrs	APSR_nzcv, FPSCR
  74:../Middlewares/stm32-vision-models-postprocessing/lib_vision_models_pp/Src/pd_pp_model.c **** 
 374              		.loc 1 74 12 view .LVU128
 375 013c F0EE643A 		vmov.f32	s7, s9
  73:../Middlewares/stm32-vision-models-postprocessing/lib_vision_models_pp/Src/pd_pp_model.c ****     return 0;
 376              		.loc 1 73 6 view .LVU129
 377 0140 44D9     		bls	.L7
  71:../Middlewares/stm32-vision-models-postprocessing/lib_vision_models_pp/Src/pd_pp_model.c ****   }
 378              		.loc 1 71 20 view .LVU130
 379 0142 DDED071A 		vldr.32	s3, [sp, #28]
  71:../Middlewares/stm32-vision-models-postprocessing/lib_vision_models_pp/Src/pd_pp_model.c ****   }
 380              		.loc 1 71 30 view .LVU131
 381 0146 9DED052A 		vldr.32	s4, [sp, #20]
  71:../Middlewares/stm32-vision-models-postprocessing/lib_vision_models_pp/Src/pd_pp_model.c ****   }
 382              		.loc 1 71 42 view .LVU132
 383 014a DDED032A 		vldr.32	s5, [sp, #12]
  71:../Middlewares/stm32-vision-models-postprocessing/lib_vision_models_pp/Src/pd_pp_model.c ****   }
 384              		.loc 1 71 52 view .LVU133
 385 014e 9DED013A 		vldr.32	s6, [sp, #4]
  71:../Middlewares/stm32-vision-models-postprocessing/lib_vision_models_pp/Src/pd_pp_model.c ****   }
 386              		.loc 1 71 24 view .LVU134
 387 0152 31EEC24A 		vsub.f32	s8, s3, s4
  71:../Middlewares/stm32-vision-models-postprocessing/lib_vision_models_pp/Src/pd_pp_model.c ****   }
 388              		.loc 1 71 46 view .LVU135
 389 0156 72EEC33A 		vsub.f32	s7, s5, s6
  71:../Middlewares/stm32-vision-models-postprocessing/lib_vision_models_pp/Src/pd_pp_model.c ****   }
 390              		.loc 1 71 35 view .LVU136
 391 015a 24EE234A 		vmul.f32	s8, s8, s7
  73:../Middlewares/stm32-vision-models-postprocessing/lib_vision_models_pp/Src/pd_pp_model.c ****     return 0;
 392              		.loc 1 73 20 discriminator 1 view .LVU137
 393 015e B5EEC04A 		vcmpe.f32	s8, #0
 394 0162 F1EE10FA 		vmrs	APSR_nzcv, FPSCR
  74:../Middlewares/stm32-vision-models-postprocessing/lib_vision_models_pp/Src/pd_pp_model.c **** 
 395              		.loc 1 74 12 view .LVU138
 396 0166 F0EE643A 		vmov.f32	s7, s9
  73:../Middlewares/stm32-vision-models-postprocessing/lib_vision_models_pp/Src/pd_pp_model.c ****     return 0;
 397              		.loc 1 73 20 discriminator 1 view .LVU139
 398 016a 2FD9     		bls	.L7
  76:../Middlewares/stm32-vision-models-postprocessing/lib_vision_models_pp/Src/pd_pp_model.c ****   intersect_ymin = MAX(ymin[0], ymin[1]);
 399              		.loc 1 76 3 is_stmt 1 view .LVU140
 400              	.LVL17:
  77:../Middlewares/stm32-vision-models-postprocessing/lib_vision_models_pp/Src/pd_pp_model.c ****   intersect_xmax = MIN(xmax[0], xmax[1]);
 401              		.loc 1 77 3 view .LVU141
ARM GAS  /tmp/cchEKUmB.s 			page 14


  78:../Middlewares/stm32-vision-models-postprocessing/lib_vision_models_pp/Src/pd_pp_model.c ****   intersect_ymax = MIN(ymax[0], ymax[1]);
 402              		.loc 1 78 3 view .LVU142
  79:../Middlewares/stm32-vision-models-postprocessing/lib_vision_models_pp/Src/pd_pp_model.c **** 
 403              		.loc 1 79 3 view .LVU143
  81:../Middlewares/stm32-vision-models-postprocessing/lib_vision_models_pp/Src/pd_pp_model.c **** 
 404              		.loc 1 81 3 view .LVU144
  81:../Middlewares/stm32-vision-models-postprocessing/lib_vision_models_pp/Src/pd_pp_model.c **** 
 405              		.loc 1 81 20 is_stmt 0 view .LVU145
 406 016c F4EEE71A 		vcmpe.f32	s3, s15
 407 0170 F1EE10FA 		vmrs	APSR_nzcv, FPSCR
 408 0174 B4EEC25A 		vcmpe.f32	s10, s4
 409 0178 77FEA17A 		vselgt.f32	s15, s15, s3
 410              	.LVL18:
  81:../Middlewares/stm32-vision-models-postprocessing/lib_vision_models_pp/Src/pd_pp_model.c **** 
 411              		.loc 1 81 20 view .LVU146
 412 017c F1EE10FA 		vmrs	APSR_nzcv, FPSCR
  81:../Middlewares/stm32-vision-models-postprocessing/lib_vision_models_pp/Src/pd_pp_model.c **** 
 413              		.loc 1 81 65 discriminator 4 view .LVU147
 414 0180 F4EEC72A 		vcmpe.f32	s5, s14
  81:../Middlewares/stm32-vision-models-postprocessing/lib_vision_models_pp/Src/pd_pp_model.c **** 
 415              		.loc 1 81 20 view .LVU148
 416 0184 35FE025A 		vselgt.f32	s10, s10, s4
 417              	.LVL19:
  81:../Middlewares/stm32-vision-models-postprocessing/lib_vision_models_pp/Src/pd_pp_model.c **** 
 418              		.loc 1 81 65 discriminator 4 view .LVU149
 419 0188 F1EE10FA 		vmrs	APSR_nzcv, FPSCR
 420 018c F4EEC35A 		vcmpe.f32	s11, s6
 421 0190 37FE227A 		vselgt.f32	s14, s14, s5
 422              	.LVL20:
  81:../Middlewares/stm32-vision-models-postprocessing/lib_vision_models_pp/Src/pd_pp_model.c **** 
 423              		.loc 1 81 65 discriminator 4 view .LVU150
 424 0194 F1EE10FA 		vmrs	APSR_nzcv, FPSCR
  81:../Middlewares/stm32-vision-models-postprocessing/lib_vision_models_pp/Src/pd_pp_model.c **** 
 425              		.loc 1 81 20 view .LVU151
 426 0198 77EEC57A 		vsub.f32	s15, s15, s10
  81:../Middlewares/stm32-vision-models-postprocessing/lib_vision_models_pp/Src/pd_pp_model.c **** 
 427              		.loc 1 81 65 discriminator 4 view .LVU152
 428 019c 75FE835A 		vselgt.f32	s11, s11, s6
 429              	.LVL21:
  81:../Middlewares/stm32-vision-models-postprocessing/lib_vision_models_pp/Src/pd_pp_model.c **** 
 430              		.loc 1 81 18 discriminator 8 view .LVU153
 431 01a0 F5EEC07A 		vcmpe.f32	s15, #0
  81:../Middlewares/stm32-vision-models-postprocessing/lib_vision_models_pp/Src/pd_pp_model.c **** 
 432              		.loc 1 81 65 discriminator 4 view .LVU154
 433 01a4 37EE657A 		vsub.f32	s14, s14, s11
  81:../Middlewares/stm32-vision-models-postprocessing/lib_vision_models_pp/Src/pd_pp_model.c **** 
 434              		.loc 1 81 18 discriminator 8 view .LVU155
 435 01a8 F1EE10FA 		vmrs	APSR_nzcv, FPSCR
 436 01ac B5EEC07A 		vcmpe.f32	s14, #0
 437 01b0 77FEA47A 		vselgt.f32	s15, s15, s9
 438 01b4 F1EE10FA 		vmrs	APSR_nzcv, FPSCR
 439 01b8 37FE247A 		vselgt.f32	s14, s14, s9
 440 01bc 67EE877A 		vmul.f32	s15, s15, s14
 441              	.LVL22:
  83:../Middlewares/stm32-vision-models-postprocessing/lib_vision_models_pp/Src/pd_pp_model.c **** }
 442              		.loc 1 83 3 is_stmt 1 view .LVU156
  83:../Middlewares/stm32-vision-models-postprocessing/lib_vision_models_pp/Src/pd_pp_model.c **** }
ARM GAS  /tmp/cchEKUmB.s 			page 15


 443              		.loc 1 83 36 is_stmt 0 view .LVU157
 444 01c0 36EE046A 		vadd.f32	s12, s12, s8
  83:../Middlewares/stm32-vision-models-postprocessing/lib_vision_models_pp/Src/pd_pp_model.c **** }
 445              		.loc 1 83 46 view .LVU158
 446 01c4 36EE676A 		vsub.f32	s12, s12, s15
  83:../Middlewares/stm32-vision-models-postprocessing/lib_vision_models_pp/Src/pd_pp_model.c **** }
 447              		.loc 1 83 25 view .LVU159
 448 01c8 C7EE863A 		vdiv.f32	s7, s15, s12
 449              	.LVL23:
 450              	.L7:
  83:../Middlewares/stm32-vision-models-postprocessing/lib_vision_models_pp/Src/pd_pp_model.c **** }
 451              		.loc 1 83 25 view .LVU160
 452              	.LBE38:
 453              	.LBE39:
 216:../Middlewares/stm32-vision-models-postprocessing/lib_vision_models_pp/Src/pd_pp_model.c ****         skip_box = 1;
 454              		.loc 1 216 7 is_stmt 1 view .LVU161
 216:../Middlewares/stm32-vision-models-postprocessing/lib_vision_models_pp/Src/pd_pp_model.c ****         skip_box = 1;
 455              		.loc 1 216 10 is_stmt 0 view .LVU162
 456 01cc D8ED047A 		vldr.32	s15, [r8, #16]
 457 01d0 F4EEE37A 		vcmpe.f32	s15, s7
 458 01d4 F1EE10FA 		vmrs	APSR_nzcv, FPSCR
 459 01d8 03F11803 		add	r3, r3, #24
 460 01dc 0FD9     		bls	.L8
 214:../Middlewares/stm32-vision-models-postprocessing/lib_vision_models_pp/Src/pd_pp_model.c ****       iou = pd_pp_compute_iou(&pd_boxes[i], &pd_boxes[j]);
 461              		.loc 1 214 35 is_stmt 1 discriminator 2 view .LVU163
 462 01de 0131     		adds	r1, r1, #1
 463              	.LVL24:
 464              	.L11:
 214:../Middlewares/stm32-vision-models-postprocessing/lib_vision_models_pp/Src/pd_pp_model.c ****       iou = pd_pp_compute_iou(&pd_boxes[i], &pd_boxes[j]);
 465              		.loc 1 214 23 discriminator 1 view .LVU164
 466 01e0 6145     		cmp	r1, ip
 467 01e2 7FF429AF 		bne	.L9
 468              	.LVL25:
 214:../Middlewares/stm32-vision-models-postprocessing/lib_vision_models_pp/Src/pd_pp_model.c ****       iou = pd_pp_compute_iou(&pd_boxes[i], &pd_boxes[j]);
 469              		.loc 1 214 23 is_stmt 0 discriminator 1 view .LVU165
 470              	.LBE40:
 221:../Middlewares/stm32-vision-models-postprocessing/lib_vision_models_pp/Src/pd_pp_model.c ****       continue;
 471              		.loc 1 221 5 is_stmt 1 view .LVU166
 224:../Middlewares/stm32-vision-models-postprocessing/lib_vision_models_pp/Src/pd_pp_model.c ****   }
 472              		.loc 1 224 5 view .LVU167
 224:../Middlewares/stm32-vision-models-postprocessing/lib_vision_models_pp/Src/pd_pp_model.c ****   }
 473              		.loc 1 224 25 is_stmt 0 view .LVU168
 474 01e6 1824     		movs	r4, #24
 475 01e8 3546     		mov	r5, r6
 476 01ea 04FB0C74 		mla	r4, r4, ip, r7
 477 01ee 0FCD     		ldmia	r5!, {r0, r1, r2, r3}
 478              	.LVL26:
 224:../Middlewares/stm32-vision-models-postprocessing/lib_vision_models_pp/Src/pd_pp_model.c ****   }
 479              		.loc 1 224 25 view .LVU169
 480 01f0 0FC4     		stmia	r4!, {r0, r1, r2, r3}
 481 01f2 95E80300 		ldm	r5, {r0, r1}
 482 01f6 84E80300 		stm	r4, {r0, r1}
 224:../Middlewares/stm32-vision-models-postprocessing/lib_vision_models_pp/Src/pd_pp_model.c ****   }
 483              		.loc 1 224 21 view .LVU170
 484 01fa 0CF1010C 		add	ip, ip, #1
 485              	.LVL27:
 486              	.L8:
ARM GAS  /tmp/cchEKUmB.s 			page 16


 212:../Middlewares/stm32-vision-models-postprocessing/lib_vision_models_pp/Src/pd_pp_model.c ****     skip_box = 0;
 487              		.loc 1 212 35 is_stmt 1 discriminator 2 view .LVU171
 488 01fe 1836     		adds	r6, r6, #24
 489 0200 14E7     		b	.L5
 490              	.LVL28:
 491              	.L14:
 212:../Middlewares/stm32-vision-models-postprocessing/lib_vision_models_pp/Src/pd_pp_model.c ****     skip_box = 0;
 492              		.loc 1 212 35 is_stmt 0 discriminator 2 view .LVU172
 493 0202 3B46     		mov	r3, r7
 494              	.LBB41:
 214:../Middlewares/stm32-vision-models-postprocessing/lib_vision_models_pp/Src/pd_pp_model.c ****       iou = pd_pp_compute_iou(&pd_boxes[i], &pd_boxes[j]);
 495              		.loc 1 214 14 view .LVU173
 496 0204 0021     		movs	r1, #0
 497 0206 EBE7     		b	.L11
 498              	.L19:
 499              		.align	2
 500              	.L18:
 501 0208 00000000 		.word	pd_pp_nms_comparator
 502 020c 00000000 		.word	0
 503              	.LBE41:
 504              	.LBE43:
 505              		.cfi_endproc
 506              	.LFE783:
 508              		.section	.text.pd_model_pp_reset,"ax",%progbits
 509              		.align	1
 510              		.global	pd_model_pp_reset
 511              		.syntax unified
 512              		.thumb
 513              		.thumb_func
 515              	pd_model_pp_reset:
 516              	.LVL29:
 517              	.LFB780:
 229:../Middlewares/stm32-vision-models-postprocessing/lib_vision_models_pp/Src/pd_pp_model.c **** int32_t pd_model_pp_reset(pd_model_pp_static_param_t *pInput_static_param)
 230:../Middlewares/stm32-vision-models-postprocessing/lib_vision_models_pp/Src/pd_pp_model.c **** {
 518              		.loc 1 230 1 is_stmt 1 view -0
 519              		.cfi_startproc
 520              		@ args = 0, pretend = 0, frame = 0
 521              		@ frame_needed = 0, uses_anonymous_args = 0
 522              		@ link register save eliminated.
 231:../Middlewares/stm32-vision-models-postprocessing/lib_vision_models_pp/Src/pd_pp_model.c ****   return AI_PD_POSTPROCESS_ERROR_NO;
 523              		.loc 1 231 3 view .LVU175
 232:../Middlewares/stm32-vision-models-postprocessing/lib_vision_models_pp/Src/pd_pp_model.c **** }
 524              		.loc 1 232 1 is_stmt 0 view .LVU176
 525 0000 0020     		movs	r0, #0
 526              	.LVL30:
 527              		.loc 1 232 1 view .LVU177
 528 0002 7047     		bx	lr
 529              		.cfi_endproc
 530              	.LFE780:
 532              		.section	.text.pd_model_pp_process,"ax",%progbits
 533              		.align	1
 534              		.global	pd_model_pp_process
 535              		.syntax unified
 536              		.thumb
 537              		.thumb_func
 539              	pd_model_pp_process:
 540              	.LVL31:
ARM GAS  /tmp/cchEKUmB.s 			page 17


 541              	.LFB781:
 233:../Middlewares/stm32-vision-models-postprocessing/lib_vision_models_pp/Src/pd_pp_model.c **** 
 234:../Middlewares/stm32-vision-models-postprocessing/lib_vision_models_pp/Src/pd_pp_model.c **** 
 235:../Middlewares/stm32-vision-models-postprocessing/lib_vision_models_pp/Src/pd_pp_model.c **** int32_t pd_model_pp_process(pd_model_pp_in_t *pInput,
 236:../Middlewares/stm32-vision-models-postprocessing/lib_vision_models_pp/Src/pd_pp_model.c ****                             pd_pp_out_t *pOutput,
 237:../Middlewares/stm32-vision-models-postprocessing/lib_vision_models_pp/Src/pd_pp_model.c ****                             pd_model_pp_static_param_t *pInput_static_param)
 238:../Middlewares/stm32-vision-models-postprocessing/lib_vision_models_pp/Src/pd_pp_model.c **** {
 542              		.loc 1 238 1 is_stmt 1 view -0
 543              		.cfi_startproc
 544              		@ args = 0, pretend = 0, frame = 16
 545              		@ frame_needed = 0, uses_anonymous_args = 0
 239:../Middlewares/stm32-vision-models-postprocessing/lib_vision_models_pp/Src/pd_pp_model.c ****   int32_t ret = AI_PD_POSTPROCESS_ERROR;
 546              		.loc 1 239 3 view .LVU179
 240:../Middlewares/stm32-vision-models-postprocessing/lib_vision_models_pp/Src/pd_pp_model.c ****   ret = pd_pp_decode(pInput,
 547              		.loc 1 240 3 view .LVU180
 548              	.LBB52:
 549              	.LBI52:
  85:../Middlewares/stm32-vision-models-postprocessing/lib_vision_models_pp/Src/pd_pp_model.c ****                             pd_pp_out_t *pOutput,
 550              		.loc 1 85 16 view .LVU181
 551              	.LBB53:
  89:../Middlewares/stm32-vision-models-postprocessing/lib_vision_models_pp/Src/pd_pp_model.c **** 
 552              		.loc 1 89 3 view .LVU182
  92:../Middlewares/stm32-vision-models-postprocessing/lib_vision_models_pp/Src/pd_pp_model.c ****   float32_t height = pInput_static_param->height;
 553              		.loc 1 92 13 is_stmt 0 view .LVU183
 554 0000 D2ED007A 		vldr.32	s15, [r2]	@ int
 555              	.LBE53:
 556              	.LBE52:
 238:../Middlewares/stm32-vision-models-postprocessing/lib_vision_models_pp/Src/pd_pp_model.c ****   int32_t ret = AI_PD_POSTPROCESS_ERROR;
 557              		.loc 1 238 1 view .LVU184
 558 0004 2DE9F04F 		push	{r4, r5, r6, r7, r8, r9, r10, fp, lr}
 559              		.cfi_def_cfa_offset 36
 560              		.cfi_offset 4, -36
 561              		.cfi_offset 5, -32
 562              		.cfi_offset 6, -28
 563              		.cfi_offset 7, -24
 564              		.cfi_offset 8, -20
 565              		.cfi_offset 9, -16
 566              		.cfi_offset 10, -12
 567              		.cfi_offset 11, -8
 568              		.cfi_offset 14, -4
 569              	.LBB71:
 570              	.LBB64:
  95:../Middlewares/stm32-vision-models-postprocessing/lib_vision_models_pp/Src/pd_pp_model.c ****   float32_t *pAnchors = (float32_t *)pInput_static_param->pAnchors;
 571              		.loc 1 95 14 view .LVU185
 572 0008 D0E900B5 		ldrd	fp, r5, [r0]
 573              	.LBE64:
 574              	.LBE71:
 238:../Middlewares/stm32-vision-models-postprocessing/lib_vision_models_pp/Src/pd_pp_model.c ****   int32_t ret = AI_PD_POSTPROCESS_ERROR;
 575              		.loc 1 238 1 view .LVU186
 576 000c 2DED048B 		vpush.64	{d8, d9}
 577              		.cfi_def_cfa_offset 52
 578              		.cfi_offset 80, -52
 579              		.cfi_offset 81, -48
 580              		.cfi_offset 82, -44
 581              		.cfi_offset 83, -40
 582              	.LBB72:
 583              	.LBB65:
ARM GAS  /tmp/cchEKUmB.s 			page 18


  92:../Middlewares/stm32-vision-models-postprocessing/lib_vision_models_pp/Src/pd_pp_model.c ****   float32_t height = pInput_static_param->height;
 584              		.loc 1 92 13 view .LVU187
 585 0010 B8EE678A 		vcvt.f32.u32	s16, s15
  93:../Middlewares/stm32-vision-models-postprocessing/lib_vision_models_pp/Src/pd_pp_model.c ****   float32_t *pRawBoxes = (float32_t *)pInput->pBoxes;
 586              		.loc 1 93 13 view .LVU188
 587 0014 D2ED017A 		vldr.32	s15, [r2, #4]	@ int
  99:../Middlewares/stm32-vision-models-postprocessing/lib_vision_models_pp/Src/pd_pp_model.c **** 
 588              		.loc 1 99 42 view .LVU189
 589 0018 B7EE009A 		vmov.f32	s18, #1.0e+0
  93:../Middlewares/stm32-vision-models-postprocessing/lib_vision_models_pp/Src/pd_pp_model.c ****   float32_t *pRawBoxes = (float32_t *)pInput->pBoxes;
 590              		.loc 1 93 13 view .LVU190
 591 001c F8EE678A 		vcvt.f32.u32	s17, s15
  99:../Middlewares/stm32-vision-models-postprocessing/lib_vision_models_pp/Src/pd_pp_model.c **** 
 592              		.loc 1 99 42 view .LVU191
 593 0020 D2ED037A 		vldr.32	s15, [r2, #12]
  89:../Middlewares/stm32-vision-models-postprocessing/lib_vision_models_pp/Src/pd_pp_model.c **** 
 594              		.loc 1 89 19 view .LVU192
 595 0024 0027     		movs	r7, #0
  99:../Middlewares/stm32-vision-models-postprocessing/lib_vision_models_pp/Src/pd_pp_model.c **** 
 596              		.loc 1 99 42 view .LVU193
 597 0026 89EE270A 		vdiv.f32	s0, s18, s15
  91:../Middlewares/stm32-vision-models-postprocessing/lib_vision_models_pp/Src/pd_pp_model.c ****   float32_t width  = pInput_static_param->width;
 598              		.loc 1 91 16 view .LVU194
 599 002a 0B68     		ldr	r3, [r1]
 600              	.LBE65:
 601              	.LBE72:
 238:../Middlewares/stm32-vision-models-postprocessing/lib_vision_models_pp/Src/pd_pp_model.c ****   int32_t ret = AI_PD_POSTPROCESS_ERROR;
 602              		.loc 1 238 1 view .LVU195
 603 002c 85B0     		sub	sp, sp, #20
 604              		.cfi_def_cfa_offset 72
 605              	.LBB73:
 606              	.LBB66:
  99:../Middlewares/stm32-vision-models-postprocessing/lib_vision_models_pp/Src/pd_pp_model.c **** 
 607              		.loc 1 99 34 view .LVU196
 608 002e 30EE490A 		vsub.f32	s0, s0, s18
  89:../Middlewares/stm32-vision-models-postprocessing/lib_vision_models_pp/Src/pd_pp_model.c **** 
 609              		.loc 1 89 19 view .LVU197
 610 0032 4F60     		str	r7, [r1, #4]
  91:../Middlewares/stm32-vision-models-postprocessing/lib_vision_models_pp/Src/pd_pp_model.c ****   float32_t width  = pInput_static_param->width;
 611              		.loc 1 91 3 is_stmt 1 view .LVU198
  97:../Middlewares/stm32-vision-models-postprocessing/lib_vision_models_pp/Src/pd_pp_model.c ****   size_t box_nb = 0;
 612              		.loc 1 97 57 is_stmt 0 view .LVU199
 613 0034 D2F808A0 		ldr	r10, [r2, #8]
 614              	.LBE66:
 615              	.LBE73:
 238:../Middlewares/stm32-vision-models-postprocessing/lib_vision_models_pp/Src/pd_pp_model.c ****   int32_t ret = AI_PD_POSTPROCESS_ERROR;
 616              		.loc 1 238 1 view .LVU200
 617 0038 1446     		mov	r4, r2
 618              	.LBB74:
 619              	.LBB67:
  96:../Middlewares/stm32-vision-models-postprocessing/lib_vision_models_pp/Src/pd_pp_model.c ****   const size_t in_struct_size = (2 * pInput_static_param->nb_keypoints) + AI_PD_MODEL_PP_KEYPOINTS;
 620              		.loc 1 96 14 view .LVU201
 621 003a D669     		ldr	r6, [r2, #28]
  91:../Middlewares/stm32-vision-models-postprocessing/lib_vision_models_pp/Src/pd_pp_model.c ****   float32_t width  = pInput_static_param->width;
 622              		.loc 1 91 16 view .LVU202
 623 003c 0193     		str	r3, [sp, #4]
 624              	.LVL32:
ARM GAS  /tmp/cchEKUmB.s 			page 19


  92:../Middlewares/stm32-vision-models-postprocessing/lib_vision_models_pp/Src/pd_pp_model.c ****   float32_t height = pInput_static_param->height;
 625              		.loc 1 92 3 is_stmt 1 view .LVU203
  93:../Middlewares/stm32-vision-models-postprocessing/lib_vision_models_pp/Src/pd_pp_model.c ****   float32_t *pRawBoxes = (float32_t *)pInput->pBoxes;
 626              		.loc 1 93 3 view .LVU204
  94:../Middlewares/stm32-vision-models-postprocessing/lib_vision_models_pp/Src/pd_pp_model.c ****   float32_t *pRawProbs = (float32_t *)pInput->pProbs;
 627              		.loc 1 94 3 view .LVU205
  96:../Middlewares/stm32-vision-models-postprocessing/lib_vision_models_pp/Src/pd_pp_model.c ****   const size_t in_struct_size = (2 * pInput_static_param->nb_keypoints) + AI_PD_MODEL_PP_KEYPOINTS;
 628              		.loc 1 96 3 view .LVU206
  97:../Middlewares/stm32-vision-models-postprocessing/lib_vision_models_pp/Src/pd_pp_model.c ****   size_t box_nb = 0;
 629              		.loc 1 97 3 view .LVU207
  98:../Middlewares/stm32-vision-models-postprocessing/lib_vision_models_pp/Src/pd_pp_model.c ****   float32_t computedThreshold = -logf( 1 / pInput_static_param->conf_threshold - 1);
 630              		.loc 1 98 3 view .LVU208
  99:../Middlewares/stm32-vision-models-postprocessing/lib_vision_models_pp/Src/pd_pp_model.c **** 
 631              		.loc 1 99 3 view .LVU209
 632              	.LBE67:
 633              	.LBE74:
 238:../Middlewares/stm32-vision-models-postprocessing/lib_vision_models_pp/Src/pd_pp_model.c ****   int32_t ret = AI_PD_POSTPROCESS_ERROR;
 634              		.loc 1 238 1 is_stmt 0 view .LVU210
 635 003e 8846     		mov	r8, r1
 636              	.LBB75:
 637              	.LBB68:
  99:../Middlewares/stm32-vision-models-postprocessing/lib_vision_models_pp/Src/pd_pp_model.c **** 
 638              		.loc 1 99 34 view .LVU211
 639 0040 FFF7FEFF 		bl	logf
 640              	.LVL33:
  98:../Middlewares/stm32-vision-models-postprocessing/lib_vision_models_pp/Src/pd_pp_model.c ****   float32_t computedThreshold = -logf( 1 / pInput_static_param->conf_threshold - 1);
 641              		.loc 1 98 10 view .LVU212
 642 0044 B946     		mov	r9, r7
  99:../Middlewares/stm32-vision-models-postprocessing/lib_vision_models_pp/Src/pd_pp_model.c **** 
 643              		.loc 1 99 13 discriminator 1 view .LVU213
 644 0046 F1EE409A 		vneg.f32	s19, s0
 645              	.LVL34:
 101:../Middlewares/stm32-vision-models-postprocessing/lib_vision_models_pp/Src/pd_pp_model.c ****     pd_pp_box_t *pBox = &pBoxes[box_nb]; //&pd_boxes[box_nb];
 646              		.loc 1 101 3 is_stmt 1 view .LVU214
 647              	.LBB54:
 101:../Middlewares/stm32-vision-models-postprocessing/lib_vision_models_pp/Src/pd_pp_model.c ****     pd_pp_box_t *pBox = &pBoxes[box_nb]; //&pd_boxes[box_nb];
 648              		.loc 1 101 8 view .LVU215
 649              	.LBB55:
 102:../Middlewares/stm32-vision-models-postprocessing/lib_vision_models_pp/Src/pd_pp_model.c **** 
 650              		.loc 1 102 32 is_stmt 0 view .LVU216
 651 004a 1822     		movs	r2, #24
 652              	.LBE55:
 653              	.LBE54:
  97:../Middlewares/stm32-vision-models-postprocessing/lib_vision_models_pp/Src/pd_pp_model.c ****   size_t box_nb = 0;
 654              		.loc 1 97 73 view .LVU217
 655 004c 0AF10203 		add	r3, r10, #2
 656 0050 DB00     		lsls	r3, r3, #3
 657 0052 0293     		str	r3, [sp, #8]
 658              	.LVL35:
 659              	.L22:
 660              	.LBB62:
 101:../Middlewares/stm32-vision-models-postprocessing/lib_vision_models_pp/Src/pd_pp_model.c ****     pd_pp_box_t *pBox = &pBoxes[box_nb]; //&pd_boxes[box_nb];
 661              		.loc 1 101 26 is_stmt 1 discriminator 1 view .LVU218
 662 0054 6369     		ldr	r3, [r4, #20]
 663 0056 9F42     		cmp	r7, r3
 664 0058 0BD3     		bcc	.L28
 665              	.L27:
ARM GAS  /tmp/cchEKUmB.s 			page 20


 101:../Middlewares/stm32-vision-models-postprocessing/lib_vision_models_pp/Src/pd_pp_model.c ****     pd_pp_box_t *pBox = &pBoxes[box_nb]; //&pd_boxes[box_nb];
 666              		.loc 1 101 26 is_stmt 0 discriminator 1 view .LVU219
 667              	.LBE62:
 126:../Middlewares/stm32-vision-models-postprocessing/lib_vision_models_pp/Src/pd_pp_model.c ****   return AI_PD_POSTPROCESS_ERROR_NO;
 668              		.loc 1 126 3 is_stmt 1 view .LVU220
 669              	.LBE68:
 670              	.LBE75:
 241:../Middlewares/stm32-vision-models-postprocessing/lib_vision_models_pp/Src/pd_pp_model.c ****                      pOutput,
 242:../Middlewares/stm32-vision-models-postprocessing/lib_vision_models_pp/Src/pd_pp_model.c ****                      pInput_static_param);
 243:../Middlewares/stm32-vision-models-postprocessing/lib_vision_models_pp/Src/pd_pp_model.c **** 
 244:../Middlewares/stm32-vision-models-postprocessing/lib_vision_models_pp/Src/pd_pp_model.c ****   if (AI_PD_POSTPROCESS_ERROR_NO != ret) {
 245:../Middlewares/stm32-vision-models-postprocessing/lib_vision_models_pp/Src/pd_pp_model.c ****     return ret;
 246:../Middlewares/stm32-vision-models-postprocessing/lib_vision_models_pp/Src/pd_pp_model.c ****   }
 247:../Middlewares/stm32-vision-models-postprocessing/lib_vision_models_pp/Src/pd_pp_model.c ****   pd_pp_nms(pOutput,
 671              		.loc 1 247 3 is_stmt 0 view .LVU221
 672 005a 4046     		mov	r0, r8
 673 005c 2146     		mov	r1, r4
 674              	.LBB76:
 675              	.LBB69:
 126:../Middlewares/stm32-vision-models-postprocessing/lib_vision_models_pp/Src/pd_pp_model.c ****   return AI_PD_POSTPROCESS_ERROR_NO;
 676              		.loc 1 126 19 view .LVU222
 677 005e C8F80490 		str	r9, [r8, #4]
 127:../Middlewares/stm32-vision-models-postprocessing/lib_vision_models_pp/Src/pd_pp_model.c **** }
 678              		.loc 1 127 3 is_stmt 1 view .LVU223
 679              	.LVL36:
 127:../Middlewares/stm32-vision-models-postprocessing/lib_vision_models_pp/Src/pd_pp_model.c **** }
 680              		.loc 1 127 3 is_stmt 0 view .LVU224
 681              	.LBE69:
 682              	.LBE76:
 244:../Middlewares/stm32-vision-models-postprocessing/lib_vision_models_pp/Src/pd_pp_model.c ****     return ret;
 683              		.loc 1 244 3 is_stmt 1 view .LVU225
 684              		.loc 1 247 3 view .LVU226
 685 0062 FFF7FEFF 		bl	pd_pp_nms.isra.0
 686              	.LVL37:
 248:../Middlewares/stm32-vision-models-postprocessing/lib_vision_models_pp/Src/pd_pp_model.c ****             pInput_static_param);
 249:../Middlewares/stm32-vision-models-postprocessing/lib_vision_models_pp/Src/pd_pp_model.c **** 
 250:../Middlewares/stm32-vision-models-postprocessing/lib_vision_models_pp/Src/pd_pp_model.c ****   return ret;
 687              		.loc 1 250 3 view .LVU227
 251:../Middlewares/stm32-vision-models-postprocessing/lib_vision_models_pp/Src/pd_pp_model.c **** }
 688              		.loc 1 251 1 is_stmt 0 view .LVU228
 689 0066 0020     		movs	r0, #0
 690 0068 05B0     		add	sp, sp, #20
 691              		.cfi_remember_state
 692              		.cfi_def_cfa_offset 52
 693              		@ sp needed
 694 006a BDEC048B 		vldm	sp!, {d8-d9}
 695              		.cfi_restore 82
 696              		.cfi_restore 83
 697              		.cfi_restore 80
 698              		.cfi_restore 81
 699              		.cfi_def_cfa_offset 36
 700 006e BDE8F08F 		pop	{r4, r5, r6, r7, r8, r9, r10, fp, pc}
 701              	.LVL38:
 702              	.L28:
 703              		.cfi_restore_state
 704              	.LBB77:
 705              	.LBB70:
ARM GAS  /tmp/cchEKUmB.s 			page 21


 706              	.LBB63:
 707              	.LBB60:
 102:../Middlewares/stm32-vision-models-postprocessing/lib_vision_models_pp/Src/pd_pp_model.c **** 
 708              		.loc 1 102 5 is_stmt 1 view .LVU229
 105:../Middlewares/stm32-vision-models-postprocessing/lib_vision_models_pp/Src/pd_pp_model.c ****       pBox->prob = 1.0f / (1.0f + expf(-pRawProbs[i]));
 709              		.loc 1 105 5 view .LVU230
 105:../Middlewares/stm32-vision-models-postprocessing/lib_vision_models_pp/Src/pd_pp_model.c ****       pBox->prob = 1.0f / (1.0f + expf(-pRawProbs[i]));
 710              		.loc 1 105 18 is_stmt 0 view .LVU231
 711 0072 BBEC010A 		vldmia.32	fp!, {s0}
 105:../Middlewares/stm32-vision-models-postprocessing/lib_vision_models_pp/Src/pd_pp_model.c ****       pBox->prob = 1.0f / (1.0f + expf(-pRawProbs[i]));
 712              		.loc 1 105 8 view .LVU232
 713 0076 F4EEC09A 		vcmpe.f32	s19, s0
 714 007a F1EE10FA 		vmrs	APSR_nzcv, FPSCR
 715 007e 3FD8     		bhi	.L23
 102:../Middlewares/stm32-vision-models-postprocessing/lib_vision_models_pp/Src/pd_pp_model.c **** 
 716              		.loc 1 102 18 view .LVU233
 717 0080 019B     		ldr	r3, [sp, #4]
 106:../Middlewares/stm32-vision-models-postprocessing/lib_vision_models_pp/Src/pd_pp_model.c ****       /* decode palm box */
 718              		.loc 1 106 35 view .LVU234
 719 0082 B1EE400A 		vneg.f32	s0, s0
 102:../Middlewares/stm32-vision-models-postprocessing/lib_vision_models_pp/Src/pd_pp_model.c **** 
 720              		.loc 1 102 18 view .LVU235
 721 0086 02FB0931 		mla	r1, r2, r9, r3
 722 008a 0391     		str	r1, [sp, #12]
 106:../Middlewares/stm32-vision-models-postprocessing/lib_vision_models_pp/Src/pd_pp_model.c ****       /* decode palm box */
 723              		.loc 1 106 7 is_stmt 1 view .LVU236
 106:../Middlewares/stm32-vision-models-postprocessing/lib_vision_models_pp/Src/pd_pp_model.c ****       /* decode palm box */
 724              		.loc 1 106 35 is_stmt 0 view .LVU237
 725 008c FFF7FEFF 		bl	expf
 726              	.LVL39:
 106:../Middlewares/stm32-vision-models-postprocessing/lib_vision_models_pp/Src/pd_pp_model.c ****       /* decode palm box */
 727              		.loc 1 106 33 discriminator 1 view .LVU238
 728 0090 30EE090A 		vadd.f32	s0, s0, s18
 106:../Middlewares/stm32-vision-models-postprocessing/lib_vision_models_pp/Src/pd_pp_model.c ****       /* decode palm box */
 729              		.loc 1 106 25 discriminator 1 view .LVU239
 730 0094 C9EE007A 		vdiv.f32	s15, s18, s0
 106:../Middlewares/stm32-vision-models-postprocessing/lib_vision_models_pp/Src/pd_pp_model.c ****       /* decode palm box */
 731              		.loc 1 106 18 discriminator 1 view .LVU240
 732 0098 0399     		ldr	r1, [sp, #12]
 733              	.LBB56:
 114:../Middlewares/stm32-vision-models-postprocessing/lib_vision_models_pp/Src/pd_pp_model.c ****         pBox->pKps[j].x = (pAnchors[i*2+0] * width  + pRawBoxes[i * in_struct_size + AI_PD_MODEL_PP
 734              		.loc 1 114 21 view .LVU241
 735 009a 0AF1010E 		add	lr, r10, #1
 736              	.LBE56:
 106:../Middlewares/stm32-vision-models-postprocessing/lib_vision_models_pp/Src/pd_pp_model.c ****       /* decode palm box */
 737              		.loc 1 106 18 discriminator 1 view .LVU242
 738 009e C1ED007A 		vstr.32	s15, [r1]
 108:../Middlewares/stm32-vision-models-postprocessing/lib_vision_models_pp/Src/pd_pp_model.c ****       pBox->y_center = (pAnchors[i*2+1] * height + pRawBoxes[i * in_struct_size + AI_PD_MODEL_PP_YC
 739              		.loc 1 108 7 is_stmt 1 view .LVU243
 108:../Middlewares/stm32-vision-models-postprocessing/lib_vision_models_pp/Src/pd_pp_model.c ****       pBox->y_center = (pAnchors[i*2+1] * height + pRawBoxes[i * in_struct_size + AI_PD_MODEL_PP_YC
 740              		.loc 1 108 50 is_stmt 0 view .LVU244
 741 00a2 96ED007A 		vldr.32	s14, [r6]
 742 00a6 D5ED007A 		vldr.32	s15, [r5]
 743 00aa E8EE077A 		vfma.f32	s15, s16, s14
 108:../Middlewares/stm32-vision-models-postprocessing/lib_vision_models_pp/Src/pd_pp_model.c ****       pBox->y_center = (pAnchors[i*2+1] * height + pRawBoxes[i * in_struct_size + AI_PD_MODEL_PP_YC
 744              		.loc 1 108 108 view .LVU245
 745 00ae 87EE887A 		vdiv.f32	s14, s15, s16
ARM GAS  /tmp/cchEKUmB.s 			page 22


 108:../Middlewares/stm32-vision-models-postprocessing/lib_vision_models_pp/Src/pd_pp_model.c ****       pBox->y_center = (pAnchors[i*2+1] * height + pRawBoxes[i * in_struct_size + AI_PD_MODEL_PP_YC
 746              		.loc 1 108 22 view .LVU246
 747 00b2 81ED017A 		vstr.32	s14, [r1, #4]
 109:../Middlewares/stm32-vision-models-postprocessing/lib_vision_models_pp/Src/pd_pp_model.c ****       pBox->width = pRawBoxes[i * in_struct_size + AI_PD_MODEL_PP_WIDTHREL]  / width;
 748              		.loc 1 109 7 is_stmt 1 view .LVU247
 109:../Middlewares/stm32-vision-models-postprocessing/lib_vision_models_pp/Src/pd_pp_model.c ****       pBox->width = pRawBoxes[i * in_struct_size + AI_PD_MODEL_PP_WIDTHREL]  / width;
 749              		.loc 1 109 50 is_stmt 0 view .LVU248
 750 00b6 96ED017A 		vldr.32	s14, [r6, #4]
 751 00ba D5ED017A 		vldr.32	s15, [r5, #4]
 752 00be E8EE877A 		vfma.f32	s15, s17, s14
 109:../Middlewares/stm32-vision-models-postprocessing/lib_vision_models_pp/Src/pd_pp_model.c ****       pBox->width = pRawBoxes[i * in_struct_size + AI_PD_MODEL_PP_WIDTHREL]  / width;
 753              		.loc 1 109 108 view .LVU249
 754 00c2 87EEA87A 		vdiv.f32	s14, s15, s17
 109:../Middlewares/stm32-vision-models-postprocessing/lib_vision_models_pp/Src/pd_pp_model.c ****       pBox->width = pRawBoxes[i * in_struct_size + AI_PD_MODEL_PP_WIDTHREL]  / width;
 755              		.loc 1 109 22 view .LVU250
 756 00c6 81ED027A 		vstr.32	s14, [r1, #8]
 110:../Middlewares/stm32-vision-models-postprocessing/lib_vision_models_pp/Src/pd_pp_model.c ****       pBox->height = pRawBoxes[i * in_struct_size + AI_PD_MODEL_PP_HEIGHTREL] / height;
 757              		.loc 1 110 7 is_stmt 1 view .LVU251
 110:../Middlewares/stm32-vision-models-postprocessing/lib_vision_models_pp/Src/pd_pp_model.c ****       pBox->height = pRawBoxes[i * in_struct_size + AI_PD_MODEL_PP_HEIGHTREL] / height;
 758              		.loc 1 110 78 is_stmt 0 view .LVU252
 759 00ca 95ED027A 		vldr.32	s14, [r5, #8]
 760 00ce C7EE087A 		vdiv.f32	s15, s14, s16
 110:../Middlewares/stm32-vision-models-postprocessing/lib_vision_models_pp/Src/pd_pp_model.c ****       pBox->height = pRawBoxes[i * in_struct_size + AI_PD_MODEL_PP_HEIGHTREL] / height;
 761              		.loc 1 110 19 view .LVU253
 762 00d2 C1ED037A 		vstr.32	s15, [r1, #12]
 111:../Middlewares/stm32-vision-models-postprocessing/lib_vision_models_pp/Src/pd_pp_model.c **** 
 763              		.loc 1 111 7 is_stmt 1 view .LVU254
 111:../Middlewares/stm32-vision-models-postprocessing/lib_vision_models_pp/Src/pd_pp_model.c **** 
 764              		.loc 1 111 79 is_stmt 0 view .LVU255
 765 00d6 95ED037A 		vldr.32	s14, [r5, #12]
 766 00da C7EE287A 		vdiv.f32	s15, s14, s17
 767              	.LBB57:
 114:../Middlewares/stm32-vision-models-postprocessing/lib_vision_models_pp/Src/pd_pp_model.c ****         pBox->pKps[j].x = (pAnchors[i*2+0] * width  + pRawBoxes[i * in_struct_size + AI_PD_MODEL_PP
 768              		.loc 1 114 7 view .LVU256
 769 00de 2846     		mov	r0, r5
 770              	.LBE57:
 111:../Middlewares/stm32-vision-models-postprocessing/lib_vision_models_pp/Src/pd_pp_model.c **** 
 771              		.loc 1 111 20 view .LVU257
 772 00e0 C1ED047A 		vstr.32	s15, [r1, #16]
 114:../Middlewares/stm32-vision-models-postprocessing/lib_vision_models_pp/Src/pd_pp_model.c ****         pBox->pKps[j].x = (pAnchors[i*2+0] * width  + pRawBoxes[i * in_struct_size + AI_PD_MODEL_PP
 773              		.loc 1 114 7 is_stmt 1 view .LVU258
 774              	.LBB58:
 114:../Middlewares/stm32-vision-models-postprocessing/lib_vision_models_pp/Src/pd_pp_model.c ****         pBox->pKps[j].x = (pAnchors[i*2+0] * width  + pRawBoxes[i * in_struct_size + AI_PD_MODEL_PP
 775              		.loc 1 114 12 view .LVU259
 776              	.LVL40:
 114:../Middlewares/stm32-vision-models-postprocessing/lib_vision_models_pp/Src/pd_pp_model.c ****         pBox->pKps[j].x = (pAnchors[i*2+0] * width  + pRawBoxes[i * in_struct_size + AI_PD_MODEL_PP
 777              		.loc 1 114 21 is_stmt 0 view .LVU260
 778 00e4 4FF0000C 		mov	ip, #0
 779 00e8 4EF001E0 		dls	lr, lr
 114:../Middlewares/stm32-vision-models-postprocessing/lib_vision_models_pp/Src/pd_pp_model.c ****         pBox->pKps[j].x = (pAnchors[i*2+0] * width  + pRawBoxes[i * in_struct_size + AI_PD_MODEL_PP
 780              		.loc 1 114 7 view .LVU261
 781 00ec 1822     		movs	r2, #24
 782              	.LVL41:
 783              	.L25:
 114:../Middlewares/stm32-vision-models-postprocessing/lib_vision_models_pp/Src/pd_pp_model.c ****         pBox->pKps[j].x = (pAnchors[i*2+0] * width  + pRawBoxes[i * in_struct_size + AI_PD_MODEL_PP
 784              		.loc 1 114 30 is_stmt 1 discriminator 1 view .LVU262
 785 00ee 0830     		adds	r0, r0, #8
ARM GAS  /tmp/cchEKUmB.s 			page 23


 786 00f0 BEF1010E 		subs	lr, #1;bne	.L26
 786      09D1
 787              	.LBE58:
 119:../Middlewares/stm32-vision-models-postprocessing/lib_vision_models_pp/Src/pd_pp_model.c ****       if (box_nb >= pInput_static_param->max_boxes_limit) {
 788              		.loc 1 119 7 view .LVU263
 120:../Middlewares/stm32-vision-models-postprocessing/lib_vision_models_pp/Src/pd_pp_model.c ****         break;
 789              		.loc 1 120 10 is_stmt 0 view .LVU264
 790 00f6 A369     		ldr	r3, [r4, #24]
 119:../Middlewares/stm32-vision-models-postprocessing/lib_vision_models_pp/Src/pd_pp_model.c ****       if (box_nb >= pInput_static_param->max_boxes_limit) {
 791              		.loc 1 119 13 view .LVU265
 792 00f8 09F10109 		add	r9, r9, #1
 793              	.LVL42:
 120:../Middlewares/stm32-vision-models-postprocessing/lib_vision_models_pp/Src/pd_pp_model.c ****         break;
 794              		.loc 1 120 7 is_stmt 1 view .LVU266
 120:../Middlewares/stm32-vision-models-postprocessing/lib_vision_models_pp/Src/pd_pp_model.c ****         break;
 795              		.loc 1 120 10 is_stmt 0 view .LVU267
 796 00fc 9945     		cmp	r9, r3
 797 00fe ACD2     		bcs	.L27
 798              	.LVL43:
 799              	.L23:
 120:../Middlewares/stm32-vision-models-postprocessing/lib_vision_models_pp/Src/pd_pp_model.c ****         break;
 800              		.loc 1 120 10 view .LVU268
 801              	.LBE60:
 101:../Middlewares/stm32-vision-models-postprocessing/lib_vision_models_pp/Src/pd_pp_model.c ****     pd_pp_box_t *pBox = &pBoxes[box_nb]; //&pd_boxes[box_nb];
 802              		.loc 1 101 66 is_stmt 1 discriminator 2 view .LVU269
 803 0100 029B     		ldr	r3, [sp, #8]
 804 0102 0137     		adds	r7, r7, #1
 805              	.LVL44:
 101:../Middlewares/stm32-vision-models-postprocessing/lib_vision_models_pp/Src/pd_pp_model.c ****     pd_pp_box_t *pBox = &pBoxes[box_nb]; //&pd_boxes[box_nb];
 806              		.loc 1 101 66 is_stmt 0 discriminator 2 view .LVU270
 807 0104 1D44     		add	r5, r5, r3
 808 0106 0836     		adds	r6, r6, #8
 809 0108 A4E7     		b	.L22
 810              	.LVL45:
 811              	.L26:
 812              	.LBB61:
 813              	.LBB59:
 115:../Middlewares/stm32-vision-models-postprocessing/lib_vision_models_pp/Src/pd_pp_model.c ****         pBox->pKps[j].y = (pAnchors[i*2+1] * height + pRawBoxes[i * in_struct_size + AI_PD_MODEL_PP
 814              		.loc 1 115 9 is_stmt 1 view .LVU271
 115:../Middlewares/stm32-vision-models-postprocessing/lib_vision_models_pp/Src/pd_pp_model.c ****         pBox->pKps[j].y = (pAnchors[i*2+1] * height + pRawBoxes[i * in_struct_size + AI_PD_MODEL_PP
 815              		.loc 1 115 53 is_stmt 0 view .LVU272
 816 010a 96ED007A 		vldr.32	s14, [r6]
 817 010e D0ED027A 		vldr.32	s15, [r0, #8]
 818 0112 E8EE077A 		vfma.f32	s15, s16, s14
 115:../Middlewares/stm32-vision-models-postprocessing/lib_vision_models_pp/Src/pd_pp_model.c ****         pBox->pKps[j].y = (pAnchors[i*2+1] * height + pRawBoxes[i * in_struct_size + AI_PD_MODEL_PP
 819              		.loc 1 115 127 view .LVU273
 820 0116 87EE887A 		vdiv.f32	s14, s15, s16
 115:../Middlewares/stm32-vision-models-postprocessing/lib_vision_models_pp/Src/pd_pp_model.c ****         pBox->pKps[j].y = (pAnchors[i*2+1] * height + pRawBoxes[i * in_struct_size + AI_PD_MODEL_PP
 821              		.loc 1 115 19 view .LVU274
 822 011a 4B69     		ldr	r3, [r1, #20]
 823 011c 03EBCC03 		add	r3, r3, ip, lsl #3
 115:../Middlewares/stm32-vision-models-postprocessing/lib_vision_models_pp/Src/pd_pp_model.c ****         pBox->pKps[j].y = (pAnchors[i*2+1] * height + pRawBoxes[i * in_struct_size + AI_PD_MODEL_PP
 824              		.loc 1 115 25 view .LVU275
 825 0120 83ED007A 		vstr.32	s14, [r3]
 116:../Middlewares/stm32-vision-models-postprocessing/lib_vision_models_pp/Src/pd_pp_model.c ****      }
 826              		.loc 1 116 9 is_stmt 1 view .LVU276
 116:../Middlewares/stm32-vision-models-postprocessing/lib_vision_models_pp/Src/pd_pp_model.c ****      }
ARM GAS  /tmp/cchEKUmB.s 			page 24


 827              		.loc 1 116 53 is_stmt 0 view .LVU277
 828 0124 96ED017A 		vldr.32	s14, [r6, #4]
 829 0128 D0ED037A 		vldr.32	s15, [r0, #12]
 830 012c E8EE877A 		vfma.f32	s15, s17, s14
 116:../Middlewares/stm32-vision-models-postprocessing/lib_vision_models_pp/Src/pd_pp_model.c ****      }
 831              		.loc 1 116 127 view .LVU278
 832 0130 87EEA87A 		vdiv.f32	s14, s15, s17
 114:../Middlewares/stm32-vision-models-postprocessing/lib_vision_models_pp/Src/pd_pp_model.c ****         pBox->pKps[j].x = (pAnchors[i*2+0] * width  + pRawBoxes[i * in_struct_size + AI_PD_MODEL_PP
 833              		.loc 1 114 68 discriminator 3 view .LVU279
 834 0134 0CF1010C 		add	ip, ip, #1
 835              	.LVL46:
 116:../Middlewares/stm32-vision-models-postprocessing/lib_vision_models_pp/Src/pd_pp_model.c ****      }
 836              		.loc 1 116 25 view .LVU280
 837 0138 83ED017A 		vstr.32	s14, [r3, #4]
 114:../Middlewares/stm32-vision-models-postprocessing/lib_vision_models_pp/Src/pd_pp_model.c ****         pBox->pKps[j].x = (pAnchors[i*2+0] * width  + pRawBoxes[i * in_struct_size + AI_PD_MODEL_PP
 838              		.loc 1 114 68 is_stmt 1 discriminator 3 view .LVU281
 839 013c D7E7     		b	.L25
 840              	.LBE59:
 841              	.LBE61:
 842              	.LBE63:
 843              	.LBE70:
 844              	.LBE77:
 845              		.cfi_endproc
 846              	.LFE781:
 848              		.section	.text.pd_model_pp_process_int8,"ax",%progbits
 849              		.align	1
 850              		.global	pd_model_pp_process_int8
 851              		.syntax unified
 852              		.thumb
 853              		.thumb_func
 855              	pd_model_pp_process_int8:
 856              	.LVL47:
 857              	.LFB782:
 252:../Middlewares/stm32-vision-models-postprocessing/lib_vision_models_pp/Src/pd_pp_model.c **** 
 253:../Middlewares/stm32-vision-models-postprocessing/lib_vision_models_pp/Src/pd_pp_model.c **** int32_t pd_model_pp_process_int8(pd_model_pp_in_t *pInput,
 254:../Middlewares/stm32-vision-models-postprocessing/lib_vision_models_pp/Src/pd_pp_model.c ****                             pd_pp_out_t *pOutput,
 255:../Middlewares/stm32-vision-models-postprocessing/lib_vision_models_pp/Src/pd_pp_model.c ****                             pd_model_pp_static_param_t *pInput_static_param)
 256:../Middlewares/stm32-vision-models-postprocessing/lib_vision_models_pp/Src/pd_pp_model.c **** {
 858              		.loc 1 256 1 view -0
 859              		.cfi_startproc
 860              		@ args = 0, pretend = 0, frame = 24
 861              		@ frame_needed = 0, uses_anonymous_args = 0
 257:../Middlewares/stm32-vision-models-postprocessing/lib_vision_models_pp/Src/pd_pp_model.c ****   int32_t ret = AI_PD_POSTPROCESS_ERROR;
 862              		.loc 1 257 3 view .LVU283
 258:../Middlewares/stm32-vision-models-postprocessing/lib_vision_models_pp/Src/pd_pp_model.c ****   ret = pd_pp_decode_int8(pInput,
 863              		.loc 1 258 3 view .LVU284
 864              	.LBB88:
 865              	.LBI88:
 130:../Middlewares/stm32-vision-models-postprocessing/lib_vision_models_pp/Src/pd_pp_model.c ****                             pd_pp_out_t *pOutput,
 866              		.loc 1 130 16 view .LVU285
 867              	.LBB89:
 134:../Middlewares/stm32-vision-models-postprocessing/lib_vision_models_pp/Src/pd_pp_model.c **** 
 868              		.loc 1 134 3 view .LVU286
 137:../Middlewares/stm32-vision-models-postprocessing/lib_vision_models_pp/Src/pd_pp_model.c ****   float32_t height = pInput_static_param->height;
 869              		.loc 1 137 13 is_stmt 0 view .LVU287
 870 0000 D2ED007A 		vldr.32	s15, [r2]	@ int
 871              	.LBE89:
ARM GAS  /tmp/cchEKUmB.s 			page 25


 872              	.LBE88:
 256:../Middlewares/stm32-vision-models-postprocessing/lib_vision_models_pp/Src/pd_pp_model.c ****   int32_t ret = AI_PD_POSTPROCESS_ERROR;
 873              		.loc 1 256 1 view .LVU288
 874 0004 2DE9F04F 		push	{r4, r5, r6, r7, r8, r9, r10, fp, lr}
 875              		.cfi_def_cfa_offset 36
 876              		.cfi_offset 4, -36
 877              		.cfi_offset 5, -32
 878              		.cfi_offset 6, -28
 879              		.cfi_offset 7, -24
 880              		.cfi_offset 8, -20
 881              		.cfi_offset 9, -16
 882              		.cfi_offset 10, -12
 883              		.cfi_offset 11, -8
 884              		.cfi_offset 14, -4
 885 0008 2DED068B 		vpush.64	{d8, d9, d10}
 886              		.cfi_def_cfa_offset 60
 887              		.cfi_offset 80, -60
 888              		.cfi_offset 81, -56
 889              		.cfi_offset 82, -52
 890              		.cfi_offset 83, -48
 891              		.cfi_offset 84, -44
 892              		.cfi_offset 85, -40
 893              	.LBB109:
 894              	.LBB103:
 137:../Middlewares/stm32-vision-models-postprocessing/lib_vision_models_pp/Src/pd_pp_model.c ****   float32_t height = pInput_static_param->height;
 895              		.loc 1 137 13 view .LVU289
 896 000c B8EE678A 		vcvt.f32.u32	s16, s15
 138:../Middlewares/stm32-vision-models-postprocessing/lib_vision_models_pp/Src/pd_pp_model.c ****   int8_t *pRawBoxes = (int8_t *)pInput->pBoxes;
 897              		.loc 1 138 13 view .LVU290
 898 0010 D2ED017A 		vldr.32	s15, [r2, #4]	@ int
 150:../Middlewares/stm32-vision-models-postprocessing/lib_vision_models_pp/Src/pd_pp_model.c ****   int8_t threshold_s8  = (int8_t)(computedThreshold / proba_scale + 0.5f + proba_zp);
 899              		.loc 1 150 45 view .LVU291
 900 0014 F7EE00AA 		vmov.f32	s21, #1.0e+0
 138:../Middlewares/stm32-vision-models-postprocessing/lib_vision_models_pp/Src/pd_pp_model.c ****   int8_t *pRawBoxes = (int8_t *)pInput->pBoxes;
 901              		.loc 1 138 13 view .LVU292
 902 0018 F8EE678A 		vcvt.f32.u32	s17, s15
 150:../Middlewares/stm32-vision-models-postprocessing/lib_vision_models_pp/Src/pd_pp_model.c ****   int8_t threshold_s8  = (int8_t)(computedThreshold / proba_scale + 0.5f + proba_zp);
 903              		.loc 1 150 45 view .LVU293
 904 001c D2ED037A 		vldr.32	s15, [r2, #12]
 134:../Middlewares/stm32-vision-models-postprocessing/lib_vision_models_pp/Src/pd_pp_model.c **** 
 905              		.loc 1 134 19 view .LVU294
 906 0020 0026     		movs	r6, #0
 150:../Middlewares/stm32-vision-models-postprocessing/lib_vision_models_pp/Src/pd_pp_model.c ****   int8_t threshold_s8  = (int8_t)(computedThreshold / proba_scale + 0.5f + proba_zp);
 907              		.loc 1 150 45 view .LVU295
 908 0022 8AEEA70A 		vdiv.f32	s0, s21, s15
 136:../Middlewares/stm32-vision-models-postprocessing/lib_vision_models_pp/Src/pd_pp_model.c ****   float32_t width  = pInput_static_param->width;
 909              		.loc 1 136 16 view .LVU296
 910 0026 0B68     		ldr	r3, [r1]
 911              	.LBE103:
 912              	.LBE109:
 256:../Middlewares/stm32-vision-models-postprocessing/lib_vision_models_pp/Src/pd_pp_model.c ****   int32_t ret = AI_PD_POSTPROCESS_ERROR;
 913              		.loc 1 256 1 view .LVU297
 914 0028 87B0     		sub	sp, sp, #28
 915              		.cfi_def_cfa_offset 88
 916              	.LBB110:
 917              	.LBB104:
 134:../Middlewares/stm32-vision-models-postprocessing/lib_vision_models_pp/Src/pd_pp_model.c **** 
ARM GAS  /tmp/cchEKUmB.s 			page 26


 918              		.loc 1 134 19 view .LVU298
 919 002a 4E60     		str	r6, [r1, #4]
 136:../Middlewares/stm32-vision-models-postprocessing/lib_vision_models_pp/Src/pd_pp_model.c ****   float32_t width  = pInput_static_param->width;
 920              		.loc 1 136 3 is_stmt 1 view .LVU299
 136:../Middlewares/stm32-vision-models-postprocessing/lib_vision_models_pp/Src/pd_pp_model.c ****   float32_t width  = pInput_static_param->width;
 921              		.loc 1 136 16 is_stmt 0 view .LVU300
 922 002c 0193     		str	r3, [sp, #4]
 923              	.LVL48:
 137:../Middlewares/stm32-vision-models-postprocessing/lib_vision_models_pp/Src/pd_pp_model.c ****   float32_t height = pInput_static_param->height;
 924              		.loc 1 137 3 is_stmt 1 view .LVU301
 138:../Middlewares/stm32-vision-models-postprocessing/lib_vision_models_pp/Src/pd_pp_model.c ****   int8_t *pRawBoxes = (int8_t *)pInput->pBoxes;
 925              		.loc 1 138 3 view .LVU302
 139:../Middlewares/stm32-vision-models-postprocessing/lib_vision_models_pp/Src/pd_pp_model.c ****   int8_t *pRawProbs = (int8_t *)pInput->pProbs;
 926              		.loc 1 139 3 view .LVU303
 140:../Middlewares/stm32-vision-models-postprocessing/lib_vision_models_pp/Src/pd_pp_model.c ****   float32_t *pAnchors  = (float32_t *)pInput_static_param->pAnchors;
 927              		.loc 1 140 11 is_stmt 0 view .LVU304
 928 002e D0E90035 		ldrd	r3, r5, [r0]
 929              	.LVL49:
 140:../Middlewares/stm32-vision-models-postprocessing/lib_vision_models_pp/Src/pd_pp_model.c ****   float32_t *pAnchors  = (float32_t *)pInput_static_param->pAnchors;
 930              		.loc 1 140 11 view .LVU305
 931 0032 0293     		str	r3, [sp, #8]
 932              	.LVL50:
 141:../Middlewares/stm32-vision-models-postprocessing/lib_vision_models_pp/Src/pd_pp_model.c **** 
 933              		.loc 1 141 3 is_stmt 1 view .LVU306
 146:../Middlewares/stm32-vision-models-postprocessing/lib_vision_models_pp/Src/pd_pp_model.c **** 
 934              		.loc 1 146 10 is_stmt 0 view .LVU307
 935 0034 92F92930 		ldrsb	r3, [r2, #41]
 936              	.LVL51:
 150:../Middlewares/stm32-vision-models-postprocessing/lib_vision_models_pp/Src/pd_pp_model.c ****   int8_t threshold_s8  = (int8_t)(computedThreshold / proba_scale + 0.5f + proba_zp);
 937              		.loc 1 150 34 view .LVU308
 938 0038 30EE6A0A 		vsub.f32	s0, s0, s21
 144:../Middlewares/stm32-vision-models-postprocessing/lib_vision_models_pp/Src/pd_pp_model.c ****   int8_t boxe_zp = pInput_static_param->boxe_zp;
 939              		.loc 1 144 13 view .LVU309
 940 003c D2ED099A 		vldr.32	s19, [r2, #36]
 146:../Middlewares/stm32-vision-models-postprocessing/lib_vision_models_pp/Src/pd_pp_model.c **** 
 941              		.loc 1 146 10 view .LVU310
 942 0040 0AEE103A 		vmov	s20, r3	@ int
 148:../Middlewares/stm32-vision-models-postprocessing/lib_vision_models_pp/Src/pd_pp_model.c ****   size_t box_nb = 0;
 943              		.loc 1 148 57 view .LVU311
 944 0044 D2F808A0 		ldr	r10, [r2, #8]
 945              	.LBE104:
 946              	.LBE110:
 256:../Middlewares/stm32-vision-models-postprocessing/lib_vision_models_pp/Src/pd_pp_model.c ****   int32_t ret = AI_PD_POSTPROCESS_ERROR;
 947              		.loc 1 256 1 view .LVU312
 948 0048 1446     		mov	r4, r2
 949              	.LBB111:
 950              	.LBB105:
 143:../Middlewares/stm32-vision-models-postprocessing/lib_vision_models_pp/Src/pd_pp_model.c ****   float32_t proba_scale = pInput_static_param->proba_scale;
 951              		.loc 1 143 13 view .LVU313
 952 004a 92ED089A 		vldr.32	s18, [r2, #32]
 141:../Middlewares/stm32-vision-models-postprocessing/lib_vision_models_pp/Src/pd_pp_model.c **** 
 953              		.loc 1 141 14 view .LVU314
 954 004e D2F81C90 		ldr	r9, [r2, #28]
 955              	.LVL52:
 143:../Middlewares/stm32-vision-models-postprocessing/lib_vision_models_pp/Src/pd_pp_model.c ****   float32_t proba_scale = pInput_static_param->proba_scale;
 956              		.loc 1 143 3 is_stmt 1 view .LVU315
 144:../Middlewares/stm32-vision-models-postprocessing/lib_vision_models_pp/Src/pd_pp_model.c ****   int8_t boxe_zp = pInput_static_param->boxe_zp;
ARM GAS  /tmp/cchEKUmB.s 			page 27


 957              		.loc 1 144 3 view .LVU316
 145:../Middlewares/stm32-vision-models-postprocessing/lib_vision_models_pp/Src/pd_pp_model.c ****   int8_t proba_zp = pInput_static_param->proba_zp;
 958              		.loc 1 145 3 view .LVU317
 145:../Middlewares/stm32-vision-models-postprocessing/lib_vision_models_pp/Src/pd_pp_model.c ****   int8_t proba_zp = pInput_static_param->proba_zp;
 959              		.loc 1 145 10 is_stmt 0 view .LVU318
 960 0052 92F92880 		ldrsb	r8, [r2, #40]
 961              	.LVL53:
 146:../Middlewares/stm32-vision-models-postprocessing/lib_vision_models_pp/Src/pd_pp_model.c **** 
 962              		.loc 1 146 3 is_stmt 1 view .LVU319
 148:../Middlewares/stm32-vision-models-postprocessing/lib_vision_models_pp/Src/pd_pp_model.c ****   size_t box_nb = 0;
 963              		.loc 1 148 3 view .LVU320
 149:../Middlewares/stm32-vision-models-postprocessing/lib_vision_models_pp/Src/pd_pp_model.c ****   float32_t computedThreshold = -logf( 1.0f / pInput_static_param->conf_threshold - 1);
 964              		.loc 1 149 3 view .LVU321
 150:../Middlewares/stm32-vision-models-postprocessing/lib_vision_models_pp/Src/pd_pp_model.c ****   int8_t threshold_s8  = (int8_t)(computedThreshold / proba_scale + 0.5f + proba_zp);
 965              		.loc 1 150 3 view .LVU322
 966              	.LBE105:
 967              	.LBE111:
 256:../Middlewares/stm32-vision-models-postprocessing/lib_vision_models_pp/Src/pd_pp_model.c ****   int32_t ret = AI_PD_POSTPROCESS_ERROR;
 968              		.loc 1 256 1 is_stmt 0 view .LVU323
 969 0056 0F46     		mov	r7, r1
 970              	.LBB112:
 971              	.LBB106:
 150:../Middlewares/stm32-vision-models-postprocessing/lib_vision_models_pp/Src/pd_pp_model.c ****   int8_t threshold_s8  = (int8_t)(computedThreshold / proba_scale + 0.5f + proba_zp);
 972              		.loc 1 150 34 view .LVU324
 973 0058 FFF7FEFF 		bl	logf
 974              	.LVL54:
 151:../Middlewares/stm32-vision-models-postprocessing/lib_vision_models_pp/Src/pd_pp_model.c **** 
 975              		.loc 1 151 3 is_stmt 1 view .LVU325
 150:../Middlewares/stm32-vision-models-postprocessing/lib_vision_models_pp/Src/pd_pp_model.c ****   int8_t threshold_s8  = (int8_t)(computedThreshold / proba_scale + 0.5f + proba_zp);
 976              		.loc 1 150 13 is_stmt 0 discriminator 1 view .LVU326
 977 005c B1EE400A 		vneg.f32	s0, s0
 978              	.LVL55:
 151:../Middlewares/stm32-vision-models-postprocessing/lib_vision_models_pp/Src/pd_pp_model.c **** 
 979              		.loc 1 151 67 view .LVU327
 980 0060 B6EE007A 		vmov.f32	s14, #5.0e-1
 151:../Middlewares/stm32-vision-models-postprocessing/lib_vision_models_pp/Src/pd_pp_model.c **** 
 981              		.loc 1 151 53 view .LVU328
 982 0064 C0EE297A 		vdiv.f32	s15, s0, s19
 151:../Middlewares/stm32-vision-models-postprocessing/lib_vision_models_pp/Src/pd_pp_model.c **** 
 983              		.loc 1 151 67 view .LVU329
 984 0068 77EE877A 		vadd.f32	s15, s15, s14
 151:../Middlewares/stm32-vision-models-postprocessing/lib_vision_models_pp/Src/pd_pp_model.c **** 
 985              		.loc 1 151 74 view .LVU330
 986 006c B8EECA7A 		vcvt.f32.s32	s14, s20
 987 0070 77EE877A 		vadd.f32	s15, s15, s14
 151:../Middlewares/stm32-vision-models-postprocessing/lib_vision_models_pp/Src/pd_pp_model.c **** 
 988              		.loc 1 151 10 view .LVU331
 989 0074 FDEEE77A 		vcvt.s32.f32	s15, s15
 990 0078 CDED037A 		vstr.32	s15, [sp, #12]	@ int
 149:../Middlewares/stm32-vision-models-postprocessing/lib_vision_models_pp/Src/pd_pp_model.c ****   float32_t computedThreshold = -logf( 1.0f / pInput_static_param->conf_threshold - 1);
 991              		.loc 1 149 10 view .LVU332
 992 007c 3246     		mov	r2, r6
 151:../Middlewares/stm32-vision-models-postprocessing/lib_vision_models_pp/Src/pd_pp_model.c **** 
 993              		.loc 1 151 10 view .LVU333
 994 007e 9DF90C30 		ldrsb	r3, [sp, #12]
 995 0082 0393     		str	r3, [sp, #12]
 996              	.LVL56:
ARM GAS  /tmp/cchEKUmB.s 			page 28


 153:../Middlewares/stm32-vision-models-postprocessing/lib_vision_models_pp/Src/pd_pp_model.c ****     pd_pp_box_t *pBox = &pBoxes[box_nb]; //&pd_boxes[box_nb];
 997              		.loc 1 153 3 is_stmt 1 view .LVU334
 998              	.LBB90:
 153:../Middlewares/stm32-vision-models-postprocessing/lib_vision_models_pp/Src/pd_pp_model.c ****     pd_pp_box_t *pBox = &pBoxes[box_nb]; //&pd_boxes[box_nb];
 999              		.loc 1 153 8 view .LVU335
 153:../Middlewares/stm32-vision-models-postprocessing/lib_vision_models_pp/Src/pd_pp_model.c ****     pd_pp_box_t *pBox = &pBoxes[box_nb]; //&pd_boxes[box_nb];
 1000              		.loc 1 153 8 is_stmt 0 view .LVU336
 1001              	.LBE90:
 148:../Middlewares/stm32-vision-models-postprocessing/lib_vision_models_pp/Src/pd_pp_model.c ****   size_t box_nb = 0;
 1002              		.loc 1 148 73 view .LVU337
 1003 0084 0AF10203 		add	r3, r10, #2
 1004 0088 5B00     		lsls	r3, r3, #1
 1005              	.LVL57:
 148:../Middlewares/stm32-vision-models-postprocessing/lib_vision_models_pp/Src/pd_pp_model.c ****   size_t box_nb = 0;
 1006              		.loc 1 148 73 view .LVU338
 1007 008a 0493     		str	r3, [sp, #16]
 1008              	.LVL58:
 1009              	.L31:
 1010              	.LBB101:
 153:../Middlewares/stm32-vision-models-postprocessing/lib_vision_models_pp/Src/pd_pp_model.c ****     pd_pp_box_t *pBox = &pBoxes[box_nb]; //&pd_boxes[box_nb];
 1011              		.loc 1 153 26 is_stmt 1 discriminator 1 view .LVU339
 1012 008c 6369     		ldr	r3, [r4, #20]
 1013 008e 9E42     		cmp	r6, r3
 1014 0090 0AD3     		bcc	.L36
 1015              	.L35:
 153:../Middlewares/stm32-vision-models-postprocessing/lib_vision_models_pp/Src/pd_pp_model.c ****     pd_pp_box_t *pBox = &pBoxes[box_nb]; //&pd_boxes[box_nb];
 1016              		.loc 1 153 26 is_stmt 0 discriminator 1 view .LVU340
 1017              	.LBE101:
 195:../Middlewares/stm32-vision-models-postprocessing/lib_vision_models_pp/Src/pd_pp_model.c ****   return AI_PD_POSTPROCESS_ERROR_NO;
 1018              		.loc 1 195 3 is_stmt 1 view .LVU341
 1019              	.LBE106:
 1020              	.LBE112:
 259:../Middlewares/stm32-vision-models-postprocessing/lib_vision_models_pp/Src/pd_pp_model.c ****                           pOutput,
 260:../Middlewares/stm32-vision-models-postprocessing/lib_vision_models_pp/Src/pd_pp_model.c ****                           pInput_static_param);
 261:../Middlewares/stm32-vision-models-postprocessing/lib_vision_models_pp/Src/pd_pp_model.c **** 
 262:../Middlewares/stm32-vision-models-postprocessing/lib_vision_models_pp/Src/pd_pp_model.c ****   if (AI_PD_POSTPROCESS_ERROR_NO != ret) {
 263:../Middlewares/stm32-vision-models-postprocessing/lib_vision_models_pp/Src/pd_pp_model.c ****     return ret;
 264:../Middlewares/stm32-vision-models-postprocessing/lib_vision_models_pp/Src/pd_pp_model.c ****   }
 265:../Middlewares/stm32-vision-models-postprocessing/lib_vision_models_pp/Src/pd_pp_model.c ****   pd_pp_nms(pOutput,
 1021              		.loc 1 265 3 is_stmt 0 view .LVU342
 1022 0092 3846     		mov	r0, r7
 1023 0094 2146     		mov	r1, r4
 1024              	.LBB113:
 1025              	.LBB107:
 195:../Middlewares/stm32-vision-models-postprocessing/lib_vision_models_pp/Src/pd_pp_model.c ****   return AI_PD_POSTPROCESS_ERROR_NO;
 1026              		.loc 1 195 19 view .LVU343
 1027 0096 7A60     		str	r2, [r7, #4]
 196:../Middlewares/stm32-vision-models-postprocessing/lib_vision_models_pp/Src/pd_pp_model.c **** }
 1028              		.loc 1 196 3 is_stmt 1 view .LVU344
 1029              	.LVL59:
 196:../Middlewares/stm32-vision-models-postprocessing/lib_vision_models_pp/Src/pd_pp_model.c **** }
 1030              		.loc 1 196 3 is_stmt 0 view .LVU345
 1031              	.LBE107:
 1032              	.LBE113:
 262:../Middlewares/stm32-vision-models-postprocessing/lib_vision_models_pp/Src/pd_pp_model.c ****     return ret;
 1033              		.loc 1 262 3 is_stmt 1 view .LVU346
 1034              		.loc 1 265 3 view .LVU347
ARM GAS  /tmp/cchEKUmB.s 			page 29


 1035 0098 FFF7FEFF 		bl	pd_pp_nms.isra.0
 1036              	.LVL60:
 266:../Middlewares/stm32-vision-models-postprocessing/lib_vision_models_pp/Src/pd_pp_model.c ****             pInput_static_param);
 267:../Middlewares/stm32-vision-models-postprocessing/lib_vision_models_pp/Src/pd_pp_model.c **** 
 268:../Middlewares/stm32-vision-models-postprocessing/lib_vision_models_pp/Src/pd_pp_model.c ****   return ret;
 1037              		.loc 1 268 3 view .LVU348
 269:../Middlewares/stm32-vision-models-postprocessing/lib_vision_models_pp/Src/pd_pp_model.c **** }
 1038              		.loc 1 269 1 is_stmt 0 view .LVU349
 1039 009c 0020     		movs	r0, #0
 1040 009e 07B0     		add	sp, sp, #28
 1041              		.cfi_remember_state
 1042              		.cfi_def_cfa_offset 60
 1043              		@ sp needed
 1044 00a0 BDEC068B 		vldm	sp!, {d8-d10}
 1045              		.cfi_restore 84
 1046              		.cfi_restore 85
 1047              		.cfi_restore 82
 1048              		.cfi_restore 83
 1049              		.cfi_restore 80
 1050              		.cfi_restore 81
 1051              		.cfi_def_cfa_offset 36
 1052 00a4 BDE8F08F 		pop	{r4, r5, r6, r7, r8, r9, r10, fp, pc}
 1053              	.LVL61:
 1054              	.L36:
 1055              		.cfi_restore_state
 1056              	.LBB114:
 1057              	.LBB108:
 1058              	.LBB102:
 1059              	.LBB91:
 154:../Middlewares/stm32-vision-models-postprocessing/lib_vision_models_pp/Src/pd_pp_model.c **** 
 1060              		.loc 1 154 5 is_stmt 1 view .LVU350
 157:../Middlewares/stm32-vision-models-postprocessing/lib_vision_models_pp/Src/pd_pp_model.c ****       float32_t value = (float32_t)((int32_t)pRawProbs[i] - proba_zp) * proba_scale;
 1061              		.loc 1 157 5 view .LVU351
 157:../Middlewares/stm32-vision-models-postprocessing/lib_vision_models_pp/Src/pd_pp_model.c ****       float32_t value = (float32_t)((int32_t)pRawProbs[i] - proba_zp) * proba_scale;
 1062              		.loc 1 157 18 is_stmt 0 view .LVU352
 1063 00a8 029B     		ldr	r3, [sp, #8]
 157:../Middlewares/stm32-vision-models-postprocessing/lib_vision_models_pp/Src/pd_pp_model.c ****       float32_t value = (float32_t)((int32_t)pRawProbs[i] - proba_zp) * proba_scale;
 1064              		.loc 1 157 8 view .LVU353
 1065 00aa 0399     		ldr	r1, [sp, #12]
 157:../Middlewares/stm32-vision-models-postprocessing/lib_vision_models_pp/Src/pd_pp_model.c ****       float32_t value = (float32_t)((int32_t)pRawProbs[i] - proba_zp) * proba_scale;
 1066              		.loc 1 157 18 view .LVU354
 1067 00ac 9B57     		ldrsb	r3, [r3, r6]
 157:../Middlewares/stm32-vision-models-postprocessing/lib_vision_models_pp/Src/pd_pp_model.c ****       float32_t value = (float32_t)((int32_t)pRawProbs[i] - proba_zp) * proba_scale;
 1068              		.loc 1 157 8 view .LVU355
 1069 00ae 9942     		cmp	r1, r3
 1070 00b0 69DC     		bgt	.L32
 154:../Middlewares/stm32-vision-models-postprocessing/lib_vision_models_pp/Src/pd_pp_model.c **** 
 1071              		.loc 1 154 18 view .LVU356
 1072 00b2 1820     		movs	r0, #24
 1073 00b4 0199     		ldr	r1, [sp, #4]
 1074 00b6 0592     		str	r2, [sp, #20]
 1075              	.LBB92:
 158:../Middlewares/stm32-vision-models-postprocessing/lib_vision_models_pp/Src/pd_pp_model.c ****       pBox->prob = 1.0f / (1.0f + expf(-value));
 1076              		.loc 1 158 7 is_stmt 1 view .LVU357
 1077              	.LVL62:
 159:../Middlewares/stm32-vision-models-postprocessing/lib_vision_models_pp/Src/pd_pp_model.c ****       /* decode palm box */
 1078              		.loc 1 159 7 view .LVU358
ARM GAS  /tmp/cchEKUmB.s 			page 30


 1079              	.LBE92:
 154:../Middlewares/stm32-vision-models-postprocessing/lib_vision_models_pp/Src/pd_pp_model.c **** 
 1080              		.loc 1 154 18 is_stmt 0 view .LVU359
 1081 00b8 00FB021B 		mla	fp, r0, r2, r1
 1082              	.LBB98:
 158:../Middlewares/stm32-vision-models-postprocessing/lib_vision_models_pp/Src/pd_pp_model.c ****       pBox->prob = 1.0f / (1.0f + expf(-value));
 1083              		.loc 1 158 59 view .LVU360
 1084 00bc 1AEE102A 		vmov	r2, s20	@ int
 1085              	.LVL63:
 158:../Middlewares/stm32-vision-models-postprocessing/lib_vision_models_pp/Src/pd_pp_model.c ****       pBox->prob = 1.0f / (1.0f + expf(-value));
 1086              		.loc 1 158 59 view .LVU361
 1087 00c0 9B1A     		subs	r3, r3, r2
 1088              	.LVL64:
 158:../Middlewares/stm32-vision-models-postprocessing/lib_vision_models_pp/Src/pd_pp_model.c ****       pBox->prob = 1.0f / (1.0f + expf(-value));
 1089              		.loc 1 158 59 view .LVU362
 1090 00c2 00EE103A 		vmov	s0, r3	@ int
 158:../Middlewares/stm32-vision-models-postprocessing/lib_vision_models_pp/Src/pd_pp_model.c ****       pBox->prob = 1.0f / (1.0f + expf(-value));
 1091              		.loc 1 158 25 view .LVU363
 1092 00c6 B8EEC00A 		vcvt.f32.s32	s0, s0
 159:../Middlewares/stm32-vision-models-postprocessing/lib_vision_models_pp/Src/pd_pp_model.c ****       /* decode palm box */
 1093              		.loc 1 159 35 view .LVU364
 1094 00ca 29EEC00A 		vnmul.f32	s0, s19, s0
 1095 00ce FFF7FEFF 		bl	expf
 1096              	.LVL65:
 159:../Middlewares/stm32-vision-models-postprocessing/lib_vision_models_pp/Src/pd_pp_model.c ****       /* decode palm box */
 1097              		.loc 1 159 33 discriminator 1 view .LVU365
 1098 00d2 30EE2A0A 		vadd.f32	s0, s0, s21
 159:../Middlewares/stm32-vision-models-postprocessing/lib_vision_models_pp/Src/pd_pp_model.c ****       /* decode palm box */
 1099              		.loc 1 159 25 discriminator 1 view .LVU366
 1100 00d6 CAEE807A 		vdiv.f32	s15, s21, s0
 159:../Middlewares/stm32-vision-models-postprocessing/lib_vision_models_pp/Src/pd_pp_model.c ****       /* decode palm box */
 1101              		.loc 1 159 18 discriminator 1 view .LVU367
 1102 00da CBED007A 		vstr.32	s15, [fp]
 161:../Middlewares/stm32-vision-models-postprocessing/lib_vision_models_pp/Src/pd_pp_model.c **** 
 1103              		.loc 1 161 7 is_stmt 1 view .LVU368
 163:../Middlewares/stm32-vision-models-postprocessing/lib_vision_models_pp/Src/pd_pp_model.c ****       anchor_x = pAnchors[i*2+0];
 1104              		.loc 1 163 7 view .LVU369
 1105              	.LVL66:
 164:../Middlewares/stm32-vision-models-postprocessing/lib_vision_models_pp/Src/pd_pp_model.c **** 
 1106              		.loc 1 164 7 view .LVU370
 166:../Middlewares/stm32-vision-models-postprocessing/lib_vision_models_pp/Src/pd_pp_model.c **** 
 1107              		.loc 1 166 7 view .LVU371
 166:../Middlewares/stm32-vision-models-postprocessing/lib_vision_models_pp/Src/pd_pp_model.c **** 
 1108              		.loc 1 166 34 is_stmt 0 view .LVU372
 1109 00de 99ED007A 		vldr.32	s14, [r9]
 163:../Middlewares/stm32-vision-models-postprocessing/lib_vision_models_pp/Src/pd_pp_model.c ****       anchor_x = pAnchors[i*2+0];
 1110              		.loc 1 163 27 view .LVU373
 1111 00e2 95F90030 		ldrsb	r3, [r5]
 166:../Middlewares/stm32-vision-models-postprocessing/lib_vision_models_pp/Src/pd_pp_model.c **** 
 1112              		.loc 1 166 34 view .LVU374
 1113 00e6 28EE077A 		vmul.f32	s14, s16, s14
 163:../Middlewares/stm32-vision-models-postprocessing/lib_vision_models_pp/Src/pd_pp_model.c ****       anchor_x = pAnchors[i*2+0];
 1114              		.loc 1 163 91 view .LVU375
 1115 00ea A3EB0803 		sub	r3, r3, r8
 163:../Middlewares/stm32-vision-models-postprocessing/lib_vision_models_pp/Src/pd_pp_model.c ****       anchor_x = pAnchors[i*2+0];
 1116              		.loc 1 163 15 view .LVU376
 1117 00ee 07EE903A 		vmov	s15, r3	@ int
ARM GAS  /tmp/cchEKUmB.s 			page 31


 166:../Middlewares/stm32-vision-models-postprocessing/lib_vision_models_pp/Src/pd_pp_model.c **** 
 1118              		.loc 1 166 43 view .LVU377
 1119 00f2 F0EE476A 		vmov.f32	s13, s14
 163:../Middlewares/stm32-vision-models-postprocessing/lib_vision_models_pp/Src/pd_pp_model.c ****       anchor_x = pAnchors[i*2+0];
 1120              		.loc 1 163 15 view .LVU378
 1121 00f6 F8EEE77A 		vcvt.f32.s32	s15, s15
 166:../Middlewares/stm32-vision-models-postprocessing/lib_vision_models_pp/Src/pd_pp_model.c **** 
 1122              		.loc 1 166 43 view .LVU379
 1123 00fa E9EE276A 		vfma.f32	s13, s18, s15
 166:../Middlewares/stm32-vision-models-postprocessing/lib_vision_models_pp/Src/pd_pp_model.c **** 
 1124              		.loc 1 166 52 view .LVU380
 1125 00fe C6EE887A 		vdiv.f32	s15, s13, s16
 166:../Middlewares/stm32-vision-models-postprocessing/lib_vision_models_pp/Src/pd_pp_model.c **** 
 1126              		.loc 1 166 22 view .LVU381
 1127 0102 CBED017A 		vstr.32	s15, [fp, #4]
 1128              	.LVL67:
 168:../Middlewares/stm32-vision-models-postprocessing/lib_vision_models_pp/Src/pd_pp_model.c ****       anchor_y = pAnchors[i*2+1];
 1129              		.loc 1 168 7 is_stmt 1 view .LVU382
 169:../Middlewares/stm32-vision-models-postprocessing/lib_vision_models_pp/Src/pd_pp_model.c **** 
 1130              		.loc 1 169 7 view .LVU383
 171:../Middlewares/stm32-vision-models-postprocessing/lib_vision_models_pp/Src/pd_pp_model.c **** 
 1131              		.loc 1 171 7 view .LVU384
 171:../Middlewares/stm32-vision-models-postprocessing/lib_vision_models_pp/Src/pd_pp_model.c **** 
 1132              		.loc 1 171 34 is_stmt 0 view .LVU385
 1133 0106 D9ED016A 		vldr.32	s13, [r9, #4]
 168:../Middlewares/stm32-vision-models-postprocessing/lib_vision_models_pp/Src/pd_pp_model.c ****       anchor_y = pAnchors[i*2+1];
 1134              		.loc 1 168 27 view .LVU386
 1135 010a 95F90130 		ldrsb	r3, [r5, #1]
 171:../Middlewares/stm32-vision-models-postprocessing/lib_vision_models_pp/Src/pd_pp_model.c **** 
 1136              		.loc 1 171 34 view .LVU387
 1137 010e 68EEA66A 		vmul.f32	s13, s17, s13
 168:../Middlewares/stm32-vision-models-postprocessing/lib_vision_models_pp/Src/pd_pp_model.c ****       anchor_y = pAnchors[i*2+1];
 1138              		.loc 1 168 91 view .LVU388
 1139 0112 A3EB0803 		sub	r3, r3, r8
 168:../Middlewares/stm32-vision-models-postprocessing/lib_vision_models_pp/Src/pd_pp_model.c ****       anchor_y = pAnchors[i*2+1];
 1140              		.loc 1 168 15 view .LVU389
 1141 0116 07EE903A 		vmov	s15, r3	@ int
 171:../Middlewares/stm32-vision-models-postprocessing/lib_vision_models_pp/Src/pd_pp_model.c **** 
 1142              		.loc 1 171 43 view .LVU390
 1143 011a B0EE666A 		vmov.f32	s12, s13
 168:../Middlewares/stm32-vision-models-postprocessing/lib_vision_models_pp/Src/pd_pp_model.c ****       anchor_y = pAnchors[i*2+1];
 1144              		.loc 1 168 15 view .LVU391
 1145 011e F8EEE77A 		vcvt.f32.s32	s15, s15
 171:../Middlewares/stm32-vision-models-postprocessing/lib_vision_models_pp/Src/pd_pp_model.c **** 
 1146              		.loc 1 171 43 view .LVU392
 1147 0122 A9EE276A 		vfma.f32	s12, s18, s15
 171:../Middlewares/stm32-vision-models-postprocessing/lib_vision_models_pp/Src/pd_pp_model.c **** 
 1148              		.loc 1 171 52 view .LVU393
 1149 0126 C6EE287A 		vdiv.f32	s15, s12, s17
 171:../Middlewares/stm32-vision-models-postprocessing/lib_vision_models_pp/Src/pd_pp_model.c **** 
 1150              		.loc 1 171 22 view .LVU394
 1151 012a CBED027A 		vstr.32	s15, [fp, #8]
 1152              	.LVL68:
 173:../Middlewares/stm32-vision-models-postprocessing/lib_vision_models_pp/Src/pd_pp_model.c ****       pBox->width = value  / width;
 1153              		.loc 1 173 7 is_stmt 1 view .LVU395
 174:../Middlewares/stm32-vision-models-postprocessing/lib_vision_models_pp/Src/pd_pp_model.c **** 
 1154              		.loc 1 174 7 view .LVU396
ARM GAS  /tmp/cchEKUmB.s 			page 32


 173:../Middlewares/stm32-vision-models-postprocessing/lib_vision_models_pp/Src/pd_pp_model.c ****       pBox->width = value  / width;
 1155              		.loc 1 173 27 is_stmt 0 view .LVU397
 1156 012e 95F90230 		ldrsb	r3, [r5, #2]
 1157              	.LBB93:
 180:../Middlewares/stm32-vision-models-postprocessing/lib_vision_models_pp/Src/pd_pp_model.c ****         value = (float32_t)((int32_t)pRawBoxes[i * in_struct_size + AI_PD_MODEL_PP_KEYPOINTS + (2 *
 1158              		.loc 1 180 21 view .LVU398
 1159 0132 0AF1010E 		add	lr, r10, #1
 1160              	.LBE93:
 173:../Middlewares/stm32-vision-models-postprocessing/lib_vision_models_pp/Src/pd_pp_model.c ****       pBox->width = value  / width;
 1161              		.loc 1 173 92 view .LVU399
 1162 0136 A3EB0803 		sub	r3, r3, r8
 1163 013a 07EE903A 		vmov	s15, r3	@ int
 173:../Middlewares/stm32-vision-models-postprocessing/lib_vision_models_pp/Src/pd_pp_model.c ****       pBox->width = value  / width;
 1164              		.loc 1 173 15 view .LVU400
 1165 013e F8EEE77A 		vcvt.f32.s32	s15, s15
 173:../Middlewares/stm32-vision-models-postprocessing/lib_vision_models_pp/Src/pd_pp_model.c ****       pBox->width = value  / width;
 1166              		.loc 1 173 13 view .LVU401
 1167 0142 67EE897A 		vmul.f32	s15, s15, s18
 174:../Middlewares/stm32-vision-models-postprocessing/lib_vision_models_pp/Src/pd_pp_model.c **** 
 1168              		.loc 1 174 28 view .LVU402
 1169 0146 87EE886A 		vdiv.f32	s12, s15, s16
 174:../Middlewares/stm32-vision-models-postprocessing/lib_vision_models_pp/Src/pd_pp_model.c **** 
 1170              		.loc 1 174 19 view .LVU403
 1171 014a 8BED036A 		vstr.32	s12, [fp, #12]
 1172              	.LVL69:
 176:../Middlewares/stm32-vision-models-postprocessing/lib_vision_models_pp/Src/pd_pp_model.c ****       pBox->height = value / height;
 1173              		.loc 1 176 7 is_stmt 1 view .LVU404
 177:../Middlewares/stm32-vision-models-postprocessing/lib_vision_models_pp/Src/pd_pp_model.c **** 
 1174              		.loc 1 177 7 view .LVU405
 176:../Middlewares/stm32-vision-models-postprocessing/lib_vision_models_pp/Src/pd_pp_model.c ****       pBox->height = value / height;
 1175              		.loc 1 176 27 is_stmt 0 view .LVU406
 1176 014e 95F90330 		ldrsb	r3, [r5, #3]
 1177              	.LBB94:
 180:../Middlewares/stm32-vision-models-postprocessing/lib_vision_models_pp/Src/pd_pp_model.c ****         value = (float32_t)((int32_t)pRawBoxes[i * in_struct_size + AI_PD_MODEL_PP_KEYPOINTS + (2 *
 1178              		.loc 1 180 7 view .LVU407
 1179 0152 2846     		mov	r0, r5
 1180              	.LBE94:
 176:../Middlewares/stm32-vision-models-postprocessing/lib_vision_models_pp/Src/pd_pp_model.c ****       pBox->height = value / height;
 1181              		.loc 1 176 93 view .LVU408
 1182 0154 A3EB0803 		sub	r3, r3, r8
 1183 0158 07EE903A 		vmov	s15, r3	@ int
 176:../Middlewares/stm32-vision-models-postprocessing/lib_vision_models_pp/Src/pd_pp_model.c ****       pBox->height = value / height;
 1184              		.loc 1 176 15 view .LVU409
 1185 015c F8EEE77A 		vcvt.f32.s32	s15, s15
 176:../Middlewares/stm32-vision-models-postprocessing/lib_vision_models_pp/Src/pd_pp_model.c ****       pBox->height = value / height;
 1186              		.loc 1 176 13 view .LVU410
 1187 0160 67EE897A 		vmul.f32	s15, s15, s18
 177:../Middlewares/stm32-vision-models-postprocessing/lib_vision_models_pp/Src/pd_pp_model.c **** 
 1188              		.loc 1 177 28 view .LVU411
 1189 0164 87EEA86A 		vdiv.f32	s12, s15, s17
 1190              	.LBB95:
 180:../Middlewares/stm32-vision-models-postprocessing/lib_vision_models_pp/Src/pd_pp_model.c ****         value = (float32_t)((int32_t)pRawBoxes[i * in_struct_size + AI_PD_MODEL_PP_KEYPOINTS + (2 *
 1191              		.loc 1 180 21 view .LVU412
 1192 0168 4FF0000C 		mov	ip, #0
 1193              	.LBE95:
 177:../Middlewares/stm32-vision-models-postprocessing/lib_vision_models_pp/Src/pd_pp_model.c **** 
 1194              		.loc 1 177 20 view .LVU413
ARM GAS  /tmp/cchEKUmB.s 			page 33


 1195 016c 8BED046A 		vstr.32	s12, [fp, #16]
 1196              	.LVL70:
 180:../Middlewares/stm32-vision-models-postprocessing/lib_vision_models_pp/Src/pd_pp_model.c ****         value = (float32_t)((int32_t)pRawBoxes[i * in_struct_size + AI_PD_MODEL_PP_KEYPOINTS + (2 *
 1197              		.loc 1 180 7 is_stmt 1 view .LVU414
 1198              	.LBB96:
 180:../Middlewares/stm32-vision-models-postprocessing/lib_vision_models_pp/Src/pd_pp_model.c ****         value = (float32_t)((int32_t)pRawBoxes[i * in_struct_size + AI_PD_MODEL_PP_KEYPOINTS + (2 *
 1199              		.loc 1 180 12 view .LVU415
 180:../Middlewares/stm32-vision-models-postprocessing/lib_vision_models_pp/Src/pd_pp_model.c ****         value = (float32_t)((int32_t)pRawBoxes[i * in_struct_size + AI_PD_MODEL_PP_KEYPOINTS + (2 *
 1200              		.loc 1 180 21 is_stmt 0 view .LVU416
 1201 0170 4EF001E0 		dls	lr, lr
 180:../Middlewares/stm32-vision-models-postprocessing/lib_vision_models_pp/Src/pd_pp_model.c ****         value = (float32_t)((int32_t)pRawBoxes[i * in_struct_size + AI_PD_MODEL_PP_KEYPOINTS + (2 *
 1202              		.loc 1 180 7 view .LVU417
 1203 0174 059A     		ldr	r2, [sp, #20]
 1204              	.LVL71:
 1205              	.L33:
 180:../Middlewares/stm32-vision-models-postprocessing/lib_vision_models_pp/Src/pd_pp_model.c ****         value = (float32_t)((int32_t)pRawBoxes[i * in_struct_size + AI_PD_MODEL_PP_KEYPOINTS + (2 *
 1206              		.loc 1 180 30 is_stmt 1 discriminator 1 view .LVU418
 1207 0176 0230     		adds	r0, r0, #2
 1208 0178 BEF1010E 		subs	lr, #1;bne	.L34
 1208      09D1
 1209              	.LBE96:
 188:../Middlewares/stm32-vision-models-postprocessing/lib_vision_models_pp/Src/pd_pp_model.c ****       if (box_nb >= pInput_static_param->max_boxes_limit) {
 1210              		.loc 1 188 7 view .LVU419
 189:../Middlewares/stm32-vision-models-postprocessing/lib_vision_models_pp/Src/pd_pp_model.c ****         break;
 1211              		.loc 1 189 10 is_stmt 0 view .LVU420
 1212 017e A369     		ldr	r3, [r4, #24]
 188:../Middlewares/stm32-vision-models-postprocessing/lib_vision_models_pp/Src/pd_pp_model.c ****       if (box_nb >= pInput_static_param->max_boxes_limit) {
 1213              		.loc 1 188 13 view .LVU421
 1214 0180 0132     		adds	r2, r2, #1
 1215              	.LVL72:
 189:../Middlewares/stm32-vision-models-postprocessing/lib_vision_models_pp/Src/pd_pp_model.c ****         break;
 1216              		.loc 1 189 7 is_stmt 1 view .LVU422
 189:../Middlewares/stm32-vision-models-postprocessing/lib_vision_models_pp/Src/pd_pp_model.c ****         break;
 1217              		.loc 1 189 10 is_stmt 0 view .LVU423
 1218 0182 9A42     		cmp	r2, r3
 1219 0184 85D2     		bcs	.L35
 1220              	.LVL73:
 1221              	.L32:
 189:../Middlewares/stm32-vision-models-postprocessing/lib_vision_models_pp/Src/pd_pp_model.c ****         break;
 1222              		.loc 1 189 10 view .LVU424
 1223              	.LBE98:
 1224              	.LBE91:
 153:../Middlewares/stm32-vision-models-postprocessing/lib_vision_models_pp/Src/pd_pp_model.c ****     pd_pp_box_t *pBox = &pBoxes[box_nb]; //&pd_boxes[box_nb];
 1225              		.loc 1 153 66 is_stmt 1 discriminator 2 view .LVU425
 1226 0186 049B     		ldr	r3, [sp, #16]
 1227 0188 0136     		adds	r6, r6, #1
 1228              	.LVL74:
 153:../Middlewares/stm32-vision-models-postprocessing/lib_vision_models_pp/Src/pd_pp_model.c ****     pd_pp_box_t *pBox = &pBoxes[box_nb]; //&pd_boxes[box_nb];
 1229              		.loc 1 153 66 is_stmt 0 discriminator 2 view .LVU426
 1230 018a 1D44     		add	r5, r5, r3
 1231 018c 09F10809 		add	r9, r9, #8
 1232 0190 7CE7     		b	.L31
 1233              	.LVL75:
 1234              	.L34:
 1235              	.LBB100:
 1236              	.LBB99:
 1237              	.LBB97:
ARM GAS  /tmp/cchEKUmB.s 			page 34


 181:../Middlewares/stm32-vision-models-postprocessing/lib_vision_models_pp/Src/pd_pp_model.c ****         pBox->pKps[j].x = (anchor_x * width  + value) / width;
 1238              		.loc 1 181 9 is_stmt 1 view .LVU427
 182:../Middlewares/stm32-vision-models-postprocessing/lib_vision_models_pp/Src/pd_pp_model.c **** 
 1239              		.loc 1 182 9 view .LVU428
 181:../Middlewares/stm32-vision-models-postprocessing/lib_vision_models_pp/Src/pd_pp_model.c ****         pBox->pKps[j].x = (anchor_x * width  + value) / width;
 1240              		.loc 1 181 29 is_stmt 0 view .LVU429
 1241 0192 90F90230 		ldrsb	r3, [r0, #2]
 182:../Middlewares/stm32-vision-models-postprocessing/lib_vision_models_pp/Src/pd_pp_model.c **** 
 1242              		.loc 1 182 46 view .LVU430
 1243 0196 B0EE476A 		vmov.f32	s12, s14
 181:../Middlewares/stm32-vision-models-postprocessing/lib_vision_models_pp/Src/pd_pp_model.c ****         pBox->pKps[j].x = (anchor_x * width  + value) / width;
 1244              		.loc 1 181 109 view .LVU431
 1245 019a A3EB0803 		sub	r3, r3, r8
 181:../Middlewares/stm32-vision-models-postprocessing/lib_vision_models_pp/Src/pd_pp_model.c ****         pBox->pKps[j].x = (anchor_x * width  + value) / width;
 1246              		.loc 1 181 17 view .LVU432
 1247 019e 07EE903A 		vmov	s15, r3	@ int
 1248 01a2 F8EEE77A 		vcvt.f32.s32	s15, s15
 182:../Middlewares/stm32-vision-models-postprocessing/lib_vision_models_pp/Src/pd_pp_model.c **** 
 1249              		.loc 1 182 46 view .LVU433
 1250 01a6 A9EE276A 		vfma.f32	s12, s18, s15
 182:../Middlewares/stm32-vision-models-postprocessing/lib_vision_models_pp/Src/pd_pp_model.c **** 
 1251              		.loc 1 182 55 view .LVU434
 1252 01aa C6EE087A 		vdiv.f32	s15, s12, s16
 182:../Middlewares/stm32-vision-models-postprocessing/lib_vision_models_pp/Src/pd_pp_model.c **** 
 1253              		.loc 1 182 19 view .LVU435
 1254 01ae DBF81430 		ldr	r3, [fp, #20]
 185:../Middlewares/stm32-vision-models-postprocessing/lib_vision_models_pp/Src/pd_pp_model.c ****       }
 1255              		.loc 1 185 46 view .LVU436
 1256 01b2 B0EE666A 		vmov.f32	s12, s13
 182:../Middlewares/stm32-vision-models-postprocessing/lib_vision_models_pp/Src/pd_pp_model.c **** 
 1257              		.loc 1 182 19 view .LVU437
 1258 01b6 03EBCC03 		add	r3, r3, ip, lsl #3
 182:../Middlewares/stm32-vision-models-postprocessing/lib_vision_models_pp/Src/pd_pp_model.c **** 
 1259              		.loc 1 182 25 view .LVU438
 1260 01ba C3ED007A 		vstr.32	s15, [r3]
 1261              	.LVL76:
 184:../Middlewares/stm32-vision-models-postprocessing/lib_vision_models_pp/Src/pd_pp_model.c ****         pBox->pKps[j].y = (anchor_y * height + value) / height;
 1262              		.loc 1 184 9 is_stmt 1 view .LVU439
 185:../Middlewares/stm32-vision-models-postprocessing/lib_vision_models_pp/Src/pd_pp_model.c ****       }
 1263              		.loc 1 185 9 view .LVU440
 184:../Middlewares/stm32-vision-models-postprocessing/lib_vision_models_pp/Src/pd_pp_model.c ****         pBox->pKps[j].y = (anchor_y * height + value) / height;
 1264              		.loc 1 184 29 is_stmt 0 view .LVU441
 1265 01be 90F90310 		ldrsb	r1, [r0, #3]
 180:../Middlewares/stm32-vision-models-postprocessing/lib_vision_models_pp/Src/pd_pp_model.c ****         value = (float32_t)((int32_t)pRawBoxes[i * in_struct_size + AI_PD_MODEL_PP_KEYPOINTS + (2 *
 1266              		.loc 1 180 68 discriminator 3 view .LVU442
 1267 01c2 0CF1010C 		add	ip, ip, #1
 1268              	.LVL77:
 184:../Middlewares/stm32-vision-models-postprocessing/lib_vision_models_pp/Src/pd_pp_model.c ****         pBox->pKps[j].y = (anchor_y * height + value) / height;
 1269              		.loc 1 184 109 view .LVU443
 1270 01c6 A1EB0801 		sub	r1, r1, r8
 184:../Middlewares/stm32-vision-models-postprocessing/lib_vision_models_pp/Src/pd_pp_model.c ****         pBox->pKps[j].y = (anchor_y * height + value) / height;
 1271              		.loc 1 184 17 view .LVU444
 1272 01ca 07EE901A 		vmov	s15, r1	@ int
 1273 01ce F8EEE77A 		vcvt.f32.s32	s15, s15
 185:../Middlewares/stm32-vision-models-postprocessing/lib_vision_models_pp/Src/pd_pp_model.c ****       }
 1274              		.loc 1 185 46 view .LVU445
 1275 01d2 A9EE276A 		vfma.f32	s12, s18, s15
ARM GAS  /tmp/cchEKUmB.s 			page 35


 185:../Middlewares/stm32-vision-models-postprocessing/lib_vision_models_pp/Src/pd_pp_model.c ****       }
 1276              		.loc 1 185 55 view .LVU446
 1277 01d6 C6EE287A 		vdiv.f32	s15, s12, s17
 185:../Middlewares/stm32-vision-models-postprocessing/lib_vision_models_pp/Src/pd_pp_model.c ****       }
 1278              		.loc 1 185 25 view .LVU447
 1279 01da C3ED017A 		vstr.32	s15, [r3, #4]
 1280              	.LVL78:
 180:../Middlewares/stm32-vision-models-postprocessing/lib_vision_models_pp/Src/pd_pp_model.c ****         value = (float32_t)((int32_t)pRawBoxes[i * in_struct_size + AI_PD_MODEL_PP_KEYPOINTS + (2 *
 1281              		.loc 1 180 68 is_stmt 1 discriminator 3 view .LVU448
 1282 01de CAE7     		b	.L33
 1283              	.LBE97:
 1284              	.LBE99:
 1285              	.LBE100:
 1286              	.LBE102:
 1287              	.LBE108:
 1288              	.LBE114:
 1289              		.cfi_endproc
 1290              	.LFE782:
 1292              		.text
 1293              	.Letext0:
 1294              		.file 2 "/opt/st/stm32cubeclt_1.21.0/GNU-tools-for-STM32/arm-none-eabi/include/machine/_default_ty
 1295              		.file 3 "/opt/st/stm32cubeclt_1.21.0/GNU-tools-for-STM32/arm-none-eabi/include/sys/_stdint.h"
 1296              		.file 4 "/opt/st/stm32cubeclt_1.21.0/GNU-tools-for-STM32/lib/gcc/arm-none-eabi/14.3.1/include/stdd
 1297              		.file 5 "/opt/st/stm32cubeclt_1.21.0/GNU-tools-for-STM32/lib/gcc/arm-none-eabi/14.3.1/include/arm_
 1298              		.file 6 "../Middlewares/stm32-vision-models-postprocessing/lib_vision_models_pp/Inc/pd_pp_output_i
 1299              		.file 7 "../Middlewares/stm32-vision-models-postprocessing/lib_vision_models_pp/Inc/pd_model_pp_if
 1300              		.file 8 "../Middlewares/stm32-vision-models-postprocessing/lib_vision_models_pp/Src/vision_models_
 1301              		.file 9 "/opt/st/stm32cubeclt_1.21.0/GNU-tools-for-STM32/arm-none-eabi/include/math.h"
ARM GAS  /tmp/cchEKUmB.s 			page 36

