ARM GAS  /tmp/ccN2N8if.s 			page 1


   1              		.arch armv8.1-m.main
   2              		.fpu fpv5-d16
   3              		.arch_extension dsp
   4              		.arch_extension fp
   5              		.arch_extension fp.dp
   6              		.arch_extension mve
   7              		.arch_extension mve.fp
   8              		.eabi_attribute 5, "cortex-m55"
   9              		.eabi_attribute 28, 1
  10              		.eabi_attribute 20, 1
  11              		.eabi_attribute 21, 1
  12              		.eabi_attribute 23, 3
  13              		.eabi_attribute 24, 1
  14              		.eabi_attribute 25, 1
  15              		.eabi_attribute 26, 1
  16              		.eabi_attribute 30, 4
  17              		.eabi_attribute 34, 1
  18              		.eabi_attribute 38, 1
  19              		.eabi_attribute 18, 4
  20              		.file	"scrl_usb.c"
  21              		.text
  22              	.Ltext0:
  23              		.cfi_sections	.debug_frame
  24              		.file 1 "../Middlewares/screenl/Src/scrl_usb.c"
  25              		.section	.text.usb_frame_release_cb,"ax",%progbits
  26              		.align	1
  27              		.syntax unified
  28              		.thumb
  29              		.thumb_func
  31              	usb_frame_release_cb:
  32              	.LVL0:
  33              	.LFB893:
   1:../Middlewares/screenl/Src/scrl_usb.c **** /**
   2:../Middlewares/screenl/Src/scrl_usb.c ****  ******************************************************************************
   3:../Middlewares/screenl/Src/scrl_usb.c ****  * @file    scrl_usb.c
   4:../Middlewares/screenl/Src/scrl_usb.c ****  * @author  MDG Application Team
   5:../Middlewares/screenl/Src/scrl_usb.c ****  ******************************************************************************
   6:../Middlewares/screenl/Src/scrl_usb.c ****  * @attention
   7:../Middlewares/screenl/Src/scrl_usb.c ****  *
   8:../Middlewares/screenl/Src/scrl_usb.c ****  * Copyright (c) 2024 STMicroelectronics.
   9:../Middlewares/screenl/Src/scrl_usb.c ****  * All rights reserved.
  10:../Middlewares/screenl/Src/scrl_usb.c ****  *
  11:../Middlewares/screenl/Src/scrl_usb.c ****  * This software is licensed under terms that can be found in the LICENSE file
  12:../Middlewares/screenl/Src/scrl_usb.c ****  * in the root directory of this software component.
  13:../Middlewares/screenl/Src/scrl_usb.c ****  * If no LICENSE file comes with this software, it is provided AS-IS.
  14:../Middlewares/screenl/Src/scrl_usb.c ****  *
  15:../Middlewares/screenl/Src/scrl_usb.c ****  ******************************************************************************
  16:../Middlewares/screenl/Src/scrl_usb.c ****  */
  17:../Middlewares/screenl/Src/scrl_usb.c **** 
  18:../Middlewares/screenl/Src/scrl_usb.c **** #include "scrl.h"
  19:../Middlewares/screenl/Src/scrl_usb.c **** 
  20:../Middlewares/screenl/Src/scrl_usb.c **** #include <assert.h>
  21:../Middlewares/screenl/Src/scrl_usb.c **** #include <stdint.h>
  22:../Middlewares/screenl/Src/scrl_usb.c **** #include <stdio.h>
  23:../Middlewares/screenl/Src/scrl_usb.c **** 
  24:../Middlewares/screenl/Src/scrl_usb.c **** #include "stm32n6xx_hal.h"
  25:../Middlewares/screenl/Src/scrl_usb.c **** #include "stm32_lcd.h"
ARM GAS  /tmp/ccN2N8if.s 			page 2


  26:../Middlewares/screenl/Src/scrl_usb.c **** #ifdef SCR_LIB_USE_THREADX
  27:../Middlewares/screenl/Src/scrl_usb.c **** #include "tx_api.h"
  28:../Middlewares/screenl/Src/scrl_usb.c **** #endif
  29:../Middlewares/screenl/Src/scrl_usb.c **** #ifdef SCR_LIB_USE_FREERTOS
  30:../Middlewares/screenl/Src/scrl_usb.c **** #include "FreeRTOS.h"
  31:../Middlewares/screenl/Src/scrl_usb.c **** #include "task.h"
  32:../Middlewares/screenl/Src/scrl_usb.c **** #include "semphr.h"
  33:../Middlewares/screenl/Src/scrl_usb.c **** #endif
  34:../Middlewares/screenl/Src/scrl_usb.c **** #include "uvcl.h"
  35:../Middlewares/screenl/Src/scrl_usb.c **** #include "scrl_common.h"
  36:../Middlewares/screenl/Src/scrl_usb.c **** 
  37:../Middlewares/screenl/Src/scrl_usb.c **** #define container_of(ptr, type, member) (type *) ((unsigned char *)ptr - offsetof(type,member))
  38:../Middlewares/screenl/Src/scrl_usb.c **** 
  39:../Middlewares/screenl/Src/scrl_usb.c **** #ifndef MIN
  40:../Middlewares/screenl/Src/scrl_usb.c **** #define MIN(a, b)  (((a) < (b)) ? (a) : (b))
  41:../Middlewares/screenl/Src/scrl_usb.c **** #endif /* MIN */
  42:../Middlewares/screenl/Src/scrl_usb.c **** 
  43:../Middlewares/screenl/Src/scrl_usb.c **** #define CLAMP(v, v_min, v_max) do { \
  44:../Middlewares/screenl/Src/scrl_usb.c ****   v = v < v_min ? v_min : v; \
  45:../Middlewares/screenl/Src/scrl_usb.c ****   v = v > v_max ? v_max : v; \
  46:../Middlewares/screenl/Src/scrl_usb.c **** } while (0)
  47:../Middlewares/screenl/Src/scrl_usb.c **** 
  48:../Middlewares/screenl/Src/scrl_usb.c **** #define RGB_2_Y(r, g, b, y) do { \
  49:../Middlewares/screenl/Src/scrl_usb.c ****   y = SCRU_RED_Y_LUT[r] + SCRU_GREEN_Y_LUT[g] + SCRU_BLUE_Y_LUT[b]; \
  50:../Middlewares/screenl/Src/scrl_usb.c ****   CLAMP(y, 0, 255); \
  51:../Middlewares/screenl/Src/scrl_usb.c **** } while(0)
  52:../Middlewares/screenl/Src/scrl_usb.c **** 
  53:../Middlewares/screenl/Src/scrl_usb.c **** #define RGB_2_CR(r, g, b, cr) do { \
  54:../Middlewares/screenl/Src/scrl_usb.c ****   cr = SCRU_BLUE_CB_RED_CR_LUT[r] + SCRU_GREEN_CR_LUT[g] + SCRU_BLUE_CR_LUT[b] + 128; \
  55:../Middlewares/screenl/Src/scrl_usb.c ****   CLAMP(cr, 0, 255); \
  56:../Middlewares/screenl/Src/scrl_usb.c **** } while(0)
  57:../Middlewares/screenl/Src/scrl_usb.c **** 
  58:../Middlewares/screenl/Src/scrl_usb.c **** #define RGB_2_CB(r, g, b, cb) do { \
  59:../Middlewares/screenl/Src/scrl_usb.c ****   cb = SCRU_RED_CB_LUT[r] + SCRU_GREEN_CB_LUT[g] + SCRU_BLUE_CB_RED_CR_LUT[b] + 128; \
  60:../Middlewares/screenl/Src/scrl_usb.c ****   CLAMP(cb, 0, 255); \
  61:../Middlewares/screenl/Src/scrl_usb.c **** } while(0)
  62:../Middlewares/screenl/Src/scrl_usb.c **** 
  63:../Middlewares/screenl/Src/scrl_usb.c **** struct scrl_usb_ctx {
  64:../Middlewares/screenl/Src/scrl_usb.c ****   struct scrl_common_ctx common;
  65:../Middlewares/screenl/Src/scrl_usb.c ****   struct uvcl_callbacks usb_cbs;
  66:../Middlewares/screenl/Src/scrl_usb.c ****   int is_screen_ready_to_update;
  67:../Middlewares/screenl/Src/scrl_usb.c **** #ifdef SCR_LIB_USE_THREADX
  68:../Middlewares/screenl/Src/scrl_usb.c ****   TX_SEMAPHORE update_sem;
  69:../Middlewares/screenl/Src/scrl_usb.c ****   TX_SEMAPHORE dma2d_sem;
  70:../Middlewares/screenl/Src/scrl_usb.c ****   TX_THREAD update_thread;
  71:../Middlewares/screenl/Src/scrl_usb.c **** #endif
  72:../Middlewares/screenl/Src/scrl_usb.c **** #ifdef SCR_LIB_USE_FREERTOS
  73:../Middlewares/screenl/Src/scrl_usb.c ****   SemaphoreHandle_t update_sem;
  74:../Middlewares/screenl/Src/scrl_usb.c ****   StaticSemaphore_t update_sem_buffer;
  75:../Middlewares/screenl/Src/scrl_usb.c ****   SemaphoreHandle_t dma2d_sem;
  76:../Middlewares/screenl/Src/scrl_usb.c ****   StaticSemaphore_t dma2d_sem_buffer;
  77:../Middlewares/screenl/Src/scrl_usb.c ****   StaticTask_t update_thread;
  78:../Middlewares/screenl/Src/scrl_usb.c **** #endif
  79:../Middlewares/screenl/Src/scrl_usb.c **** };
  80:../Middlewares/screenl/Src/scrl_usb.c **** 
  81:../Middlewares/screenl/Src/scrl_usb.c **** static int32_t SCRU_RED_Y_LUT[256];
  82:../Middlewares/screenl/Src/scrl_usb.c **** static int32_t SCRU_RED_CB_LUT[256];
ARM GAS  /tmp/ccN2N8if.s 			page 3


  83:../Middlewares/screenl/Src/scrl_usb.c **** static int32_t SCRU_BLUE_CB_RED_CR_LUT[256];
  84:../Middlewares/screenl/Src/scrl_usb.c **** static int32_t SCRU_GREEN_Y_LUT[256];
  85:../Middlewares/screenl/Src/scrl_usb.c **** static int32_t SCRU_GREEN_CR_LUT[256];
  86:../Middlewares/screenl/Src/scrl_usb.c **** static int32_t SCRU_GREEN_CB_LUT[256];
  87:../Middlewares/screenl/Src/scrl_usb.c **** static int32_t SCRU_BLUE_Y_LUT[256];
  88:../Middlewares/screenl/Src/scrl_usb.c **** static int32_t SCRU_BLUE_CR_LUT[256];
  89:../Middlewares/screenl/Src/scrl_usb.c **** 
  90:../Middlewares/screenl/Src/scrl_usb.c **** static struct scrl_usb_ctx scrl_ctx;
  91:../Middlewares/screenl/Src/scrl_usb.c **** #ifdef SCR_LIB_USE_THREADX
  92:../Middlewares/screenl/Src/scrl_usb.c **** static uint8_t update_thread_stack[4096];
  93:../Middlewares/screenl/Src/scrl_usb.c **** #endif
  94:../Middlewares/screenl/Src/scrl_usb.c **** #ifdef SCR_LIB_USE_FREERTOS
  95:../Middlewares/screenl/Src/scrl_usb.c **** static StackType_t update_thread_stack[configMINIMAL_STACK_SIZE];
  96:../Middlewares/screenl/Src/scrl_usb.c **** #endif
  97:../Middlewares/screenl/Src/scrl_usb.c **** 
  98:../Middlewares/screenl/Src/scrl_usb.c **** static int cvt_uvcl_payload_format(SCRL_Format fmt)
  99:../Middlewares/screenl/Src/scrl_usb.c **** {
 100:../Middlewares/screenl/Src/scrl_usb.c ****   switch (fmt) {
 101:../Middlewares/screenl/Src/scrl_usb.c ****   case SCRL_RGB565:
 102:../Middlewares/screenl/Src/scrl_usb.c ****     return UVCL_PAYLOAD_FB_RGB565;
 103:../Middlewares/screenl/Src/scrl_usb.c ****   case SCRL_YUV422:
 104:../Middlewares/screenl/Src/scrl_usb.c ****     return UVCL_PAYLOAD_UNCOMPRESSED_YUY2;
 105:../Middlewares/screenl/Src/scrl_usb.c ****   default:
 106:../Middlewares/screenl/Src/scrl_usb.c ****     assert(0);
 107:../Middlewares/screenl/Src/scrl_usb.c ****   }
 108:../Middlewares/screenl/Src/scrl_usb.c **** 
 109:../Middlewares/screenl/Src/scrl_usb.c ****   return SCRL_RGB565;
 110:../Middlewares/screenl/Src/scrl_usb.c **** }
 111:../Middlewares/screenl/Src/scrl_usb.c **** 
 112:../Middlewares/screenl/Src/scrl_usb.c **** static int get_bpp(SCRL_Format fmt)
 113:../Middlewares/screenl/Src/scrl_usb.c **** {
 114:../Middlewares/screenl/Src/scrl_usb.c ****   switch (fmt) {
 115:../Middlewares/screenl/Src/scrl_usb.c ****   case SCRL_RGB565:
 116:../Middlewares/screenl/Src/scrl_usb.c ****     return 2;
 117:../Middlewares/screenl/Src/scrl_usb.c ****   case SCRL_ARGB4444:
 118:../Middlewares/screenl/Src/scrl_usb.c ****     return 2;
 119:../Middlewares/screenl/Src/scrl_usb.c ****   case SCRL_YUV422:
 120:../Middlewares/screenl/Src/scrl_usb.c ****     return 2;
 121:../Middlewares/screenl/Src/scrl_usb.c ****   case SCRL_BGR888:
 122:../Middlewares/screenl/Src/scrl_usb.c ****     return 3;
 123:../Middlewares/screenl/Src/scrl_usb.c ****   case SCRL_RGB888:
 124:../Middlewares/screenl/Src/scrl_usb.c ****     return 3;
 125:../Middlewares/screenl/Src/scrl_usb.c ****   default:
 126:../Middlewares/screenl/Src/scrl_usb.c ****     assert(0);
 127:../Middlewares/screenl/Src/scrl_usb.c ****   }
 128:../Middlewares/screenl/Src/scrl_usb.c **** 
 129:../Middlewares/screenl/Src/scrl_usb.c ****   return 2;
 130:../Middlewares/screenl/Src/scrl_usb.c **** }
 131:../Middlewares/screenl/Src/scrl_usb.c **** 
 132:../Middlewares/screenl/Src/scrl_usb.c **** static int get_screen_buffer_size(struct scrl_common_ctx *ctx)
 133:../Middlewares/screenl/Src/scrl_usb.c **** {
 134:../Middlewares/screenl/Src/scrl_usb.c ****   return ctx->screen.size.width * ctx->screen.size.height * get_bpp(ctx->screen.format);
 135:../Middlewares/screenl/Src/scrl_usb.c **** }
 136:../Middlewares/screenl/Src/scrl_usb.c **** 
 137:../Middlewares/screenl/Src/scrl_usb.c **** static void SCRU_cvt_dual_pel_rgb_to_yuv(uint8_t *r, uint8_t *g, uint8_t *b, int32_t *y, int32_t *c
 138:../Middlewares/screenl/Src/scrl_usb.c **** {
 139:../Middlewares/screenl/Src/scrl_usb.c ****   uint8_t red, green, blue;
ARM GAS  /tmp/ccN2N8if.s 			page 4


 140:../Middlewares/screenl/Src/scrl_usb.c **** 
 141:../Middlewares/screenl/Src/scrl_usb.c ****   RGB_2_Y(r[0], g[0], b[0], y[0]);
 142:../Middlewares/screenl/Src/scrl_usb.c ****   RGB_2_Y(r[1], g[1], b[1], y[1]);
 143:../Middlewares/screenl/Src/scrl_usb.c **** 
 144:../Middlewares/screenl/Src/scrl_usb.c ****   red = (r[0] + r[1] + 1) / 2;
 145:../Middlewares/screenl/Src/scrl_usb.c ****   green = (g[0] + g[1] + 1) / 2;
 146:../Middlewares/screenl/Src/scrl_usb.c ****   blue = (b[0] + b[1] + 1) / 2;
 147:../Middlewares/screenl/Src/scrl_usb.c **** 
 148:../Middlewares/screenl/Src/scrl_usb.c ****   RGB_2_CR(red, green, blue, cr[0]);
 149:../Middlewares/screenl/Src/scrl_usb.c ****   RGB_2_CB(red, green, blue, cb[0]);
 150:../Middlewares/screenl/Src/scrl_usb.c **** }
 151:../Middlewares/screenl/Src/scrl_usb.c **** 
 152:../Middlewares/screenl/Src/scrl_usb.c **** static void SCRU_cvt_rgb565_to_yuv422_internal(uint8_t *p_dst, uint8_t *p_src, int width, int heigh
 153:../Middlewares/screenl/Src/scrl_usb.c **** {
 154:../Middlewares/screenl/Src/scrl_usb.c ****   uint32_t *p_src_dual_rgb565 = (uint32_t *)p_src;
 155:../Middlewares/screenl/Src/scrl_usb.c ****   int32_t luma[2];
 156:../Middlewares/screenl/Src/scrl_usb.c ****   int32_t cb, cr;
 157:../Middlewares/screenl/Src/scrl_usb.c ****   uint8_t b[2];
 158:../Middlewares/screenl/Src/scrl_usb.c ****   uint8_t g[2];
 159:../Middlewares/screenl/Src/scrl_usb.c ****   uint8_t r[2];
 160:../Middlewares/screenl/Src/scrl_usb.c ****   int x, y;
 161:../Middlewares/screenl/Src/scrl_usb.c **** 
 162:../Middlewares/screenl/Src/scrl_usb.c ****   for (y = 0; y < height; y++)
 163:../Middlewares/screenl/Src/scrl_usb.c ****   {
 164:../Middlewares/screenl/Src/scrl_usb.c ****     for (x = 0; x < width; x += 2)
 165:../Middlewares/screenl/Src/scrl_usb.c ****     {
 166:../Middlewares/screenl/Src/scrl_usb.c ****       uint32_t p = p_src_dual_rgb565[x / 2];
 167:../Middlewares/screenl/Src/scrl_usb.c **** 
 168:../Middlewares/screenl/Src/scrl_usb.c ****       b[0] = (p >> 0) & 0x1f;
 169:../Middlewares/screenl/Src/scrl_usb.c ****       b[0] = (b[0] << 3) | (b[0] >> 2);
 170:../Middlewares/screenl/Src/scrl_usb.c ****       g[0] = (p >> 5) & 0x3f;
 171:../Middlewares/screenl/Src/scrl_usb.c ****       g[0] = (g[0] << 2) | (g[0] >> 4);
 172:../Middlewares/screenl/Src/scrl_usb.c ****       r[0] = (p >> 11) & 0x1f;
 173:../Middlewares/screenl/Src/scrl_usb.c ****       r[0] = (r[0] << 3) | (r[0] >> 2);
 174:../Middlewares/screenl/Src/scrl_usb.c ****       b[1] = (p >> 16) & 0x1f;
 175:../Middlewares/screenl/Src/scrl_usb.c ****       b[1] = (b[1] << 3) | (b[1] >> 2);
 176:../Middlewares/screenl/Src/scrl_usb.c ****       g[1] = (p >> 21) & 0x3f;
 177:../Middlewares/screenl/Src/scrl_usb.c ****       g[1] = (g[1] << 2) | (g[1] >> 4);
 178:../Middlewares/screenl/Src/scrl_usb.c ****       r[1] = (p >> 27) & 0x1f;
 179:../Middlewares/screenl/Src/scrl_usb.c ****       r[1] = (r[1] << 3) | (r[1] >> 2);
 180:../Middlewares/screenl/Src/scrl_usb.c **** 
 181:../Middlewares/screenl/Src/scrl_usb.c ****       SCRU_cvt_dual_pel_rgb_to_yuv(r, g, b, luma, &cb, &cr);
 182:../Middlewares/screenl/Src/scrl_usb.c ****       *p_dst++ = luma[0];
 183:../Middlewares/screenl/Src/scrl_usb.c ****       *p_dst++ = cb;
 184:../Middlewares/screenl/Src/scrl_usb.c ****       *p_dst++ = luma[1];
 185:../Middlewares/screenl/Src/scrl_usb.c ****       *p_dst++ = cr;
 186:../Middlewares/screenl/Src/scrl_usb.c ****     }
 187:../Middlewares/screenl/Src/scrl_usb.c ****     p_src_dual_rgb565 += width / 2;
 188:../Middlewares/screenl/Src/scrl_usb.c ****   }
 189:../Middlewares/screenl/Src/scrl_usb.c **** }
 190:../Middlewares/screenl/Src/scrl_usb.c **** 
 191:../Middlewares/screenl/Src/scrl_usb.c **** static void SCRU_cvt_rgb565_to_yuv422(struct scrl_common_ctx  *ctx_common)
 192:../Middlewares/screenl/Src/scrl_usb.c **** {
 193:../Middlewares/screenl/Src/scrl_usb.c ****   /* only convert layers area */
 194:../Middlewares/screenl/Src/scrl_usb.c ****   int stride = ctx_common->screen.size.width * 2;
 195:../Middlewares/screenl/Src/scrl_usb.c ****   int height = ctx_common->layers[0].size.height;
 196:../Middlewares/screenl/Src/scrl_usb.c ****   uint8_t *buffer = ctx_common->screen.address;
ARM GAS  /tmp/ccN2N8if.s 			page 5


 197:../Middlewares/screenl/Src/scrl_usb.c ****   int width = ctx_common->layers[0].size.width;
 198:../Middlewares/screenl/Src/scrl_usb.c ****   int y = ctx_common->layers[0].origin.y;
 199:../Middlewares/screenl/Src/scrl_usb.c ****   int x = ctx_common->layers[0].origin.x;
 200:../Middlewares/screenl/Src/scrl_usb.c ****   int r;
 201:../Middlewares/screenl/Src/scrl_usb.c **** 
 202:../Middlewares/screenl/Src/scrl_usb.c ****   buffer += y * stride + x * 2;
 203:../Middlewares/screenl/Src/scrl_usb.c **** 
 204:../Middlewares/screenl/Src/scrl_usb.c ****   for (r = 0; r < height; r++) {
 205:../Middlewares/screenl/Src/scrl_usb.c ****     SCRU_cvt_rgb565_to_yuv422_internal(buffer, buffer, width, 1);
 206:../Middlewares/screenl/Src/scrl_usb.c ****     buffer += stride;
 207:../Middlewares/screenl/Src/scrl_usb.c ****   }
 208:../Middlewares/screenl/Src/scrl_usb.c **** }
 209:../Middlewares/screenl/Src/scrl_usb.c **** 
 210:../Middlewares/screenl/Src/scrl_usb.c **** static void SCRU_uvcl_show_frame(struct scrl_usb_ctx *ctx)
 211:../Middlewares/screenl/Src/scrl_usb.c **** {
 212:../Middlewares/screenl/Src/scrl_usb.c ****   int ret;
 213:../Middlewares/screenl/Src/scrl_usb.c **** 
 214:../Middlewares/screenl/Src/scrl_usb.c ****   if (ctx->common.screen.format == SCRL_YUV422)
 215:../Middlewares/screenl/Src/scrl_usb.c ****     SCRU_cvt_rgb565_to_yuv422(&ctx->common);
 216:../Middlewares/screenl/Src/scrl_usb.c ****   ret = UVCL_ShowFrame(ctx->common.screen.address, get_screen_buffer_size(&ctx->common));
 217:../Middlewares/screenl/Src/scrl_usb.c ****   if (ret)
 218:../Middlewares/screenl/Src/scrl_usb.c ****     ctx->is_screen_ready_to_update = 1;
 219:../Middlewares/screenl/Src/scrl_usb.c **** }
 220:../Middlewares/screenl/Src/scrl_usb.c **** 
 221:../Middlewares/screenl/Src/scrl_usb.c **** #ifdef SCR_LIB_USE_THREADX
 222:../Middlewares/screenl/Src/scrl_usb.c **** void SCRC_Composition_Done_Callback(struct scrl_common_ctx *ctx_common)
 223:../Middlewares/screenl/Src/scrl_usb.c **** {
 224:../Middlewares/screenl/Src/scrl_usb.c ****   struct scrl_usb_ctx *ctx = container_of(ctx_common, struct scrl_usb_ctx, common);
 225:../Middlewares/screenl/Src/scrl_usb.c ****   int ret;
 226:../Middlewares/screenl/Src/scrl_usb.c **** 
 227:../Middlewares/screenl/Src/scrl_usb.c ****   ret = tx_semaphore_put(&ctx->dma2d_sem);
 228:../Middlewares/screenl/Src/scrl_usb.c ****   assert(ret == 0);
 229:../Middlewares/screenl/Src/scrl_usb.c **** }
 230:../Middlewares/screenl/Src/scrl_usb.c **** #elif defined(SCR_LIB_USE_FREERTOS)
 231:../Middlewares/screenl/Src/scrl_usb.c **** void SCRC_Composition_Done_Callback(struct scrl_common_ctx *ctx_common)
 232:../Middlewares/screenl/Src/scrl_usb.c **** {
 233:../Middlewares/screenl/Src/scrl_usb.c ****   struct scrl_usb_ctx *ctx = container_of(ctx_common, struct scrl_usb_ctx, common);
 234:../Middlewares/screenl/Src/scrl_usb.c ****   int ret;
 235:../Middlewares/screenl/Src/scrl_usb.c **** 
 236:../Middlewares/screenl/Src/scrl_usb.c ****   ret = xSemaphoreGive(ctx->dma2d_sem);
 237:../Middlewares/screenl/Src/scrl_usb.c ****   assert(ret == pdTRUE);
 238:../Middlewares/screenl/Src/scrl_usb.c **** }
 239:../Middlewares/screenl/Src/scrl_usb.c **** #else
 240:../Middlewares/screenl/Src/scrl_usb.c **** void SCRC_Composition_Done_Callback(struct scrl_common_ctx *ctx_common)
 241:../Middlewares/screenl/Src/scrl_usb.c **** {
 242:../Middlewares/screenl/Src/scrl_usb.c ****   struct scrl_usb_ctx *ctx = container_of(ctx_common, struct scrl_usb_ctx, common);
 243:../Middlewares/screenl/Src/scrl_usb.c **** 
 244:../Middlewares/screenl/Src/scrl_usb.c ****   SCRU_uvcl_show_frame(ctx);
 245:../Middlewares/screenl/Src/scrl_usb.c **** }
 246:../Middlewares/screenl/Src/scrl_usb.c **** #endif
 247:../Middlewares/screenl/Src/scrl_usb.c **** 
 248:../Middlewares/screenl/Src/scrl_usb.c **** #ifdef SCR_LIB_USE_THREADX
 249:../Middlewares/screenl/Src/scrl_usb.c **** static void update_thread_fct(ULONG arg)
 250:../Middlewares/screenl/Src/scrl_usb.c **** {
 251:../Middlewares/screenl/Src/scrl_usb.c ****   struct scrl_usb_ctx *ctx = (struct scrl_usb_ctx *) arg;
 252:../Middlewares/screenl/Src/scrl_usb.c ****   int ret;
 253:../Middlewares/screenl/Src/scrl_usb.c **** 
ARM GAS  /tmp/ccN2N8if.s 			page 6


 254:../Middlewares/screenl/Src/scrl_usb.c ****   while (1)
 255:../Middlewares/screenl/Src/scrl_usb.c ****   {
 256:../Middlewares/screenl/Src/scrl_usb.c ****     ret = tx_semaphore_get(&ctx->update_sem, TX_WAIT_FOREVER);
 257:../Middlewares/screenl/Src/scrl_usb.c ****     assert(ret == 0);
 258:../Middlewares/screenl/Src/scrl_usb.c **** 
 259:../Middlewares/screenl/Src/scrl_usb.c ****     if (!ctx->is_screen_ready_to_update)
 260:../Middlewares/screenl/Src/scrl_usb.c ****       continue;
 261:../Middlewares/screenl/Src/scrl_usb.c **** 
 262:../Middlewares/screenl/Src/scrl_usb.c ****     ctx->is_screen_ready_to_update = 0;
 263:../Middlewares/screenl/Src/scrl_usb.c ****     SCRC_Composition_Start(&ctx->common, 0);
 264:../Middlewares/screenl/Src/scrl_usb.c ****     ret = tx_semaphore_get(&ctx->dma2d_sem, TX_WAIT_FOREVER);
 265:../Middlewares/screenl/Src/scrl_usb.c ****     assert(ret == 0);
 266:../Middlewares/screenl/Src/scrl_usb.c ****     SCRU_uvcl_show_frame(ctx);
 267:../Middlewares/screenl/Src/scrl_usb.c ****   }
 268:../Middlewares/screenl/Src/scrl_usb.c **** }
 269:../Middlewares/screenl/Src/scrl_usb.c **** #elif defined(SCR_LIB_USE_FREERTOS)
 270:../Middlewares/screenl/Src/scrl_usb.c **** static void update_thread_fct(void *arg)
 271:../Middlewares/screenl/Src/scrl_usb.c **** {
 272:../Middlewares/screenl/Src/scrl_usb.c ****   struct scrl_usb_ctx *ctx = (struct scrl_usb_ctx *) arg;
 273:../Middlewares/screenl/Src/scrl_usb.c ****   int ret;
 274:../Middlewares/screenl/Src/scrl_usb.c **** 
 275:../Middlewares/screenl/Src/scrl_usb.c ****   while (1)
 276:../Middlewares/screenl/Src/scrl_usb.c ****   {
 277:../Middlewares/screenl/Src/scrl_usb.c ****     ret = xSemaphoreTake(ctx->update_sem, portMAX_DELAY);
 278:../Middlewares/screenl/Src/scrl_usb.c ****     assert(ret == pdTRUE);
 279:../Middlewares/screenl/Src/scrl_usb.c **** 
 280:../Middlewares/screenl/Src/scrl_usb.c ****     if (!ctx->is_screen_ready_to_update)
 281:../Middlewares/screenl/Src/scrl_usb.c ****       continue;
 282:../Middlewares/screenl/Src/scrl_usb.c **** 
 283:../Middlewares/screenl/Src/scrl_usb.c ****     ctx->is_screen_ready_to_update = 0;
 284:../Middlewares/screenl/Src/scrl_usb.c ****     SCRC_Composition_Start(&ctx->common, 0);
 285:../Middlewares/screenl/Src/scrl_usb.c ****     ret = xSemaphoreTake(ctx->dma2d_sem, portMAX_DELAY);
 286:../Middlewares/screenl/Src/scrl_usb.c ****     assert(ret == pdTRUE);
 287:../Middlewares/screenl/Src/scrl_usb.c **** 
 288:../Middlewares/screenl/Src/scrl_usb.c ****     SCRU_uvcl_show_frame(ctx);
 289:../Middlewares/screenl/Src/scrl_usb.c ****   }
 290:../Middlewares/screenl/Src/scrl_usb.c **** }
 291:../Middlewares/screenl/Src/scrl_usb.c **** #else
 292:../Middlewares/screenl/Src/scrl_usb.c **** static int start_composition(struct scrl_usb_ctx *ctx)
 293:../Middlewares/screenl/Src/scrl_usb.c **** {
 294:../Middlewares/screenl/Src/scrl_usb.c ****   if (!ctx->is_screen_ready_to_update)
 295:../Middlewares/screenl/Src/scrl_usb.c ****       return 0;
 296:../Middlewares/screenl/Src/scrl_usb.c **** 
 297:../Middlewares/screenl/Src/scrl_usb.c ****   ctx->is_screen_ready_to_update = 0;
 298:../Middlewares/screenl/Src/scrl_usb.c ****   SCRC_Composition_Start(&ctx->common, 0);
 299:../Middlewares/screenl/Src/scrl_usb.c **** 
 300:../Middlewares/screenl/Src/scrl_usb.c ****   return 0;
 301:../Middlewares/screenl/Src/scrl_usb.c **** }
 302:../Middlewares/screenl/Src/scrl_usb.c **** #endif
 303:../Middlewares/screenl/Src/scrl_usb.c **** 
 304:../Middlewares/screenl/Src/scrl_usb.c **** static void usb_frame_release_cb(struct uvcl_callbacks *cbs, void *frame)
 305:../Middlewares/screenl/Src/scrl_usb.c **** {
  34              		.loc 1 305 1 view -0
  35              		.cfi_startproc
  36              		@ args = 0, pretend = 0, frame = 0
  37              		@ frame_needed = 0, uses_anonymous_args = 0
  38              		@ link register save eliminated.
ARM GAS  /tmp/ccN2N8if.s 			page 7


 306:../Middlewares/screenl/Src/scrl_usb.c ****   struct scrl_usb_ctx *ctx = container_of(cbs, struct scrl_usb_ctx, usb_cbs);
  39              		.loc 1 306 3 view .LVU1
 307:../Middlewares/screenl/Src/scrl_usb.c **** 
 308:../Middlewares/screenl/Src/scrl_usb.c ****   ctx->is_screen_ready_to_update = 1;
  40              		.loc 1 308 3 view .LVU2
  41              		.loc 1 308 34 is_stmt 0 view .LVU3
  42 0000 0123     		movs	r3, #1
  43 0002 C360     		str	r3, [r0, #12]
 309:../Middlewares/screenl/Src/scrl_usb.c **** }
  44              		.loc 1 309 1 view .LVU4
  45 0004 7047     		bx	lr
  46              		.cfi_endproc
  47              	.LFE893:
  49              		.section	.rodata.SCRC_Composition_Done_Callback.str1.1,"aMS",%progbits,1
  50              	.LC0:
  51 0000 3000     		.ascii	"0\000"
  52              	.LC1:
  53 0002 2E2E2F4D 		.ascii	"../Middlewares/screenl/Src/scrl_usb.c\000"
  53      6964646C 
  53      65776172 
  53      65732F73 
  53      63726565 
  54              		.section	.text.SCRC_Composition_Done_Callback,"ax",%progbits
  55              		.align	1
  56              		.global	SCRC_Composition_Done_Callback
  57              		.syntax unified
  58              		.thumb
  59              		.thumb_func
  61              	SCRC_Composition_Done_Callback:
  62              	.LVL1:
  63              	.LFB891:
 241:../Middlewares/screenl/Src/scrl_usb.c ****   struct scrl_usb_ctx *ctx = container_of(ctx_common, struct scrl_usb_ctx, common);
  64              		.loc 1 241 1 is_stmt 1 view -0
  65              		.cfi_startproc
  66              		@ args = 0, pretend = 0, frame = 16
  67              		@ frame_needed = 0, uses_anonymous_args = 0
 242:../Middlewares/screenl/Src/scrl_usb.c **** 
  68              		.loc 1 242 3 view .LVU6
 244:../Middlewares/screenl/Src/scrl_usb.c **** }
  69              		.loc 1 244 3 view .LVU7
  70              	.LBB16:
  71              	.LBI16:
 210:../Middlewares/screenl/Src/scrl_usb.c **** {
  72              		.loc 1 210 13 view .LVU8
  73              	.LBB17:
 212:../Middlewares/screenl/Src/scrl_usb.c **** 
  74              		.loc 1 212 3 view .LVU9
 214:../Middlewares/screenl/Src/scrl_usb.c ****     SCRU_cvt_rgb565_to_yuv422(&ctx->common);
  75              		.loc 1 214 3 view .LVU10
  76              	.LBE17:
  77              	.LBE16:
 241:../Middlewares/screenl/Src/scrl_usb.c ****   struct scrl_usb_ctx *ctx = container_of(ctx_common, struct scrl_usb_ctx, common);
  78              		.loc 1 241 1 is_stmt 0 view .LVU11
  79 0000 2DE9F04F 		push	{r4, r5, r6, r7, r8, r9, r10, fp, lr}
  80              		.cfi_def_cfa_offset 36
  81              		.cfi_offset 4, -36
  82              		.cfi_offset 5, -32
ARM GAS  /tmp/ccN2N8if.s 			page 8


  83              		.cfi_offset 6, -28
  84              		.cfi_offset 7, -24
  85              		.cfi_offset 8, -20
  86              		.cfi_offset 9, -16
  87              		.cfi_offset 10, -12
  88              		.cfi_offset 11, -8
  89              		.cfi_offset 14, -4
  90              	.LBB56:
  91              	.LBB53:
 214:../Middlewares/screenl/Src/scrl_usb.c ****     SCRU_cvt_rgb565_to_yuv422(&ctx->common);
  92              		.loc 1 214 6 view .LVU12
  93 0004 90F82430 		ldrb	r3, [r0, #36]	@ zero_extendqisi2
  94              	.LBE53:
  95              	.LBE56:
 241:../Middlewares/screenl/Src/scrl_usb.c ****   struct scrl_usb_ctx *ctx = container_of(ctx_common, struct scrl_usb_ctx, common);
  96              		.loc 1 241 1 view .LVU13
  97 0008 0446     		mov	r4, r0
  98              	.LBB57:
  99              	.LBB54:
 214:../Middlewares/screenl/Src/scrl_usb.c ****     SCRU_cvt_rgb565_to_yuv422(&ctx->common);
 100              		.loc 1 214 6 view .LVU14
 101 000a 022B     		cmp	r3, #2
 102              	.LBE54:
 103              	.LBE57:
 241:../Middlewares/screenl/Src/scrl_usb.c ****   struct scrl_usb_ctx *ctx = container_of(ctx_common, struct scrl_usb_ctx, common);
 104              		.loc 1 241 1 view .LVU15
 105 000c 85B0     		sub	sp, sp, #20
 106              		.cfi_def_cfa_offset 56
 107              	.LBB58:
 108              	.LBB55:
 214:../Middlewares/screenl/Src/scrl_usb.c ****     SCRU_cvt_rgb565_to_yuv422(&ctx->common);
 109              		.loc 1 214 6 view .LVU16
 110 000e 40F0A280 		bne	.L3
 215:../Middlewares/screenl/Src/scrl_usb.c ****   ret = UVCL_ShowFrame(ctx->common.screen.address, get_screen_buffer_size(&ctx->common));
 111              		.loc 1 215 5 is_stmt 1 view .LVU17
 112              	.LVL2:
 113              	.LBB18:
 114              	.LBI18:
 191:../Middlewares/screenl/Src/scrl_usb.c **** {
 115              		.loc 1 191 13 view .LVU18
 116              	.LBB19:
 194:../Middlewares/screenl/Src/scrl_usb.c ****   int height = ctx_common->layers[0].size.height;
 117              		.loc 1 194 3 view .LVU19
 204:../Middlewares/screenl/Src/scrl_usb.c ****     SCRU_cvt_rgb565_to_yuv422_internal(buffer, buffer, width, 1);
 118              		.loc 1 204 10 is_stmt 0 view .LVU20
 119 0012 4FF0000A 		mov	r10, #0
 194:../Middlewares/screenl/Src/scrl_usb.c ****   int height = ctx_common->layers[0].size.height;
 120              		.loc 1 194 39 view .LVU21
 121 0016 038C     		ldrh	r3, [r0, #32]
 198:../Middlewares/screenl/Src/scrl_usb.c ****   int x = ctx_common->layers[0].origin.x;
 122              		.loc 1 198 7 view .LVU22
 123 0018 4288     		ldrh	r2, [r0, #2]
 194:../Middlewares/screenl/Src/scrl_usb.c ****   int height = ctx_common->layers[0].size.height;
 124              		.loc 1 194 7 view .LVU23
 125 001a 5B00     		lsls	r3, r3, #1
 126 001c 0093     		str	r3, [sp]
 127              	.LVL3:
ARM GAS  /tmp/ccN2N8if.s 			page 9


 195:../Middlewares/screenl/Src/scrl_usb.c ****   uint8_t *buffer = ctx_common->screen.address;
 128              		.loc 1 195 3 is_stmt 1 view .LVU24
 195:../Middlewares/screenl/Src/scrl_usb.c ****   uint8_t *buffer = ctx_common->screen.address;
 129              		.loc 1 195 7 is_stmt 0 view .LVU25
 130 001e C388     		ldrh	r3, [r0, #6]
 131              	.LVL4:
 202:../Middlewares/screenl/Src/scrl_usb.c **** 
 132              		.loc 1 202 24 view .LVU26
 133 0020 0099     		ldr	r1, [sp]
 195:../Middlewares/screenl/Src/scrl_usb.c ****   uint8_t *buffer = ctx_common->screen.address;
 134              		.loc 1 195 7 view .LVU27
 135 0022 0293     		str	r3, [sp, #8]
 136              	.LVL5:
 196:../Middlewares/screenl/Src/scrl_usb.c ****   int width = ctx_common->layers[0].size.width;
 137              		.loc 1 196 3 is_stmt 1 view .LVU28
 197:../Middlewares/screenl/Src/scrl_usb.c ****   int y = ctx_common->layers[0].origin.y;
 138              		.loc 1 197 3 view .LVU29
 197:../Middlewares/screenl/Src/scrl_usb.c ****   int y = ctx_common->layers[0].origin.y;
 139              		.loc 1 197 7 is_stmt 0 view .LVU30
 140 0024 8388     		ldrh	r3, [r0, #4]
 141              	.LVL6:
 197:../Middlewares/screenl/Src/scrl_usb.c ****   int y = ctx_common->layers[0].origin.y;
 142              		.loc 1 197 7 view .LVU31
 143 0026 0393     		str	r3, [sp, #12]
 144              	.LVL7:
 198:../Middlewares/screenl/Src/scrl_usb.c ****   int x = ctx_common->layers[0].origin.x;
 145              		.loc 1 198 3 is_stmt 1 view .LVU32
 199:../Middlewares/screenl/Src/scrl_usb.c ****   int r;
 146              		.loc 1 199 3 view .LVU33
 200:../Middlewares/screenl/Src/scrl_usb.c **** 
 147              		.loc 1 200 3 view .LVU34
 202:../Middlewares/screenl/Src/scrl_usb.c **** 
 148              		.loc 1 202 3 view .LVU35
 199:../Middlewares/screenl/Src/scrl_usb.c ****   int r;
 149              		.loc 1 199 7 is_stmt 0 view .LVU36
 150 0028 0388     		ldrh	r3, [r0]
 151              	.LVL8:
 202:../Middlewares/screenl/Src/scrl_usb.c **** 
 152              		.loc 1 202 10 view .LVU37
 153 002a 806A     		ldr	r0, [r0, #40]
 154              	.LVL9:
 202:../Middlewares/screenl/Src/scrl_usb.c **** 
 155              		.loc 1 202 28 view .LVU38
 156 002c 5B00     		lsls	r3, r3, #1
 157              	.LVL10:
 202:../Middlewares/screenl/Src/scrl_usb.c **** 
 158              		.loc 1 202 24 view .LVU39
 159 002e 01FB0233 		mla	r3, r1, r2, r3
 202:../Middlewares/screenl/Src/scrl_usb.c **** 
 160              		.loc 1 202 10 view .LVU40
 161 0032 1844     		add	r0, r0, r3
 162              	.LVL11:
 204:../Middlewares/screenl/Src/scrl_usb.c ****     SCRU_cvt_rgb565_to_yuv422_internal(buffer, buffer, width, 1);
 163              		.loc 1 204 3 is_stmt 1 view .LVU41
 164              	.L6:
 204:../Middlewares/screenl/Src/scrl_usb.c ****     SCRU_cvt_rgb565_to_yuv422_internal(buffer, buffer, width, 1);
 165              		.loc 1 204 17 discriminator 1 view .LVU42
ARM GAS  /tmp/ccN2N8if.s 			page 10


 166 0034 029B     		ldr	r3, [sp, #8]
 167 0036 5345     		cmp	r3, r10
 168 0038 40F38D80 		ble	.L3
 169              	.LBB20:
 170              	.LBB21:
 171              	.LBB22:
 172              	.LBB23:
 173              	.LBB24:
 149:../Middlewares/screenl/Src/scrl_usb.c **** }
 174              		.loc 1 149 3 is_stmt 0 view .LVU43
 175 003c 039B     		ldr	r3, [sp, #12]
 176 003e 0546     		mov	r5, r0
 177 0040 03F1010E 		add	lr, r3, #1
 178 0044 4FEA5E0E 		lsr	lr, lr, #1
 179 0048 0EF1010E 		add	lr, lr, #1
 180              	.LBE24:
 181              	.LBE23:
 182              	.LBE22:
 164:../Middlewares/screenl/Src/scrl_usb.c ****     {
 183              		.loc 1 164 12 view .LVU44
 184 004c 4FF0000B 		mov	fp, #0
 185 0050 4EF001E0 		dls	lr, lr
 186              	.L5:
 187              	.LVL12:
 164:../Middlewares/screenl/Src/scrl_usb.c ****     {
 188              		.loc 1 164 19 is_stmt 1 discriminator 1 view .LVU45
 189 0054 0435     		adds	r5, r5, #4
 190              	.LVL13:
 164:../Middlewares/screenl/Src/scrl_usb.c ****     {
 191              		.loc 1 164 19 is_stmt 0 discriminator 1 view .LVU46
 192 0056 BEF1010E 		subs	lr, #1;bne	.L13
 192      04D1
 187:../Middlewares/screenl/Src/scrl_usb.c ****   }
 193              		.loc 1 187 5 is_stmt 1 view .LVU47
 194              	.LVL14:
 162:../Middlewares/screenl/Src/scrl_usb.c ****   {
 195              		.loc 1 162 28 discriminator 2 view .LVU48
 162:../Middlewares/screenl/Src/scrl_usb.c ****   {
 196              		.loc 1 162 17 discriminator 1 view .LVU49
 162:../Middlewares/screenl/Src/scrl_usb.c ****   {
 197              		.loc 1 162 17 is_stmt 0 discriminator 1 view .LVU50
 198              	.LBE21:
 199              	.LBE20:
 206:../Middlewares/screenl/Src/scrl_usb.c ****   }
 200              		.loc 1 206 5 is_stmt 1 view .LVU51
 206:../Middlewares/screenl/Src/scrl_usb.c ****   }
 201              		.loc 1 206 12 is_stmt 0 view .LVU52
 202 005c 009B     		ldr	r3, [sp]
 204:../Middlewares/screenl/Src/scrl_usb.c ****     SCRU_cvt_rgb565_to_yuv422_internal(buffer, buffer, width, 1);
 203              		.loc 1 204 28 discriminator 3 view .LVU53
 204 005e 0AF1010A 		add	r10, r10, #1
 205              	.LVL15:
 206:../Middlewares/screenl/Src/scrl_usb.c ****   }
 206              		.loc 1 206 12 view .LVU54
 207 0062 1844     		add	r0, r0, r3
 208              	.LVL16:
 204:../Middlewares/screenl/Src/scrl_usb.c ****     SCRU_cvt_rgb565_to_yuv422_internal(buffer, buffer, width, 1);
ARM GAS  /tmp/ccN2N8if.s 			page 11


 209              		.loc 1 204 28 is_stmt 1 discriminator 3 view .LVU55
 210 0064 E6E7     		b	.L6
 211              	.LVL17:
 212              	.L13:
 213              	.LBB46:
 214              	.LBB45:
 215              	.LBB43:
 166:../Middlewares/screenl/Src/scrl_usb.c **** 
 216              		.loc 1 166 7 view .LVU56
 166:../Middlewares/screenl/Src/scrl_usb.c **** 
 217              		.loc 1 166 40 is_stmt 0 view .LVU57
 218 0066 4FEA6B03 		asr	r3, fp, #1
 166:../Middlewares/screenl/Src/scrl_usb.c **** 
 219              		.loc 1 166 16 view .LVU58
 220 006a 50F82330 		ldr	r3, [r0, r3, lsl #2]
 221              	.LVL18:
 168:../Middlewares/screenl/Src/scrl_usb.c ****       b[0] = (b[0] << 3) | (b[0] >> 2);
 222              		.loc 1 168 7 is_stmt 1 view .LVU59
 223              	.LBE43:
 164:../Middlewares/screenl/Src/scrl_usb.c ****     {
 224              		.loc 1 164 30 is_stmt 0 discriminator 3 view .LVU60
 225 006e 0BF1020B 		add	fp, fp, #2
 226              	.LVL19:
 227              	.LBB44:
 172:../Middlewares/screenl/Src/scrl_usb.c ****       r[0] = (r[0] << 3) | (r[0] >> 2);
 228              		.loc 1 172 24 view .LVU61
 229 0072 C3F3C427 		ubfx	r7, r3, #11, #5
 173:../Middlewares/screenl/Src/scrl_usb.c ****       b[1] = (p >> 16) & 0x1f;
 230              		.loc 1 173 26 view .LVU62
 231 0076 C3F3423C 		ubfx	ip, r3, #13, #3
 170:../Middlewares/screenl/Src/scrl_usb.c ****       g[0] = (g[0] << 2) | (g[0] >> 4);
 232              		.loc 1 170 23 view .LVU63
 233 007a C3F34516 		ubfx	r6, r3, #5, #6
 234              	.LBB34:
 235              	.LBB25:
 141:../Middlewares/screenl/Src/scrl_usb.c ****   RGB_2_Y(r[1], g[1], b[1], y[1]);
 236              		.loc 1 141 3 view .LVU64
 237 007e 4CEAC70C 		orr	ip, ip, r7, lsl #3
 238              	.LBE25:
 239              	.LBE34:
 171:../Middlewares/screenl/Src/scrl_usb.c ****       r[0] = (p >> 11) & 0x1f;
 240              		.loc 1 171 26 view .LVU65
 241 0082 C3F34127 		ubfx	r7, r3, #9, #2
 168:../Middlewares/screenl/Src/scrl_usb.c ****       b[0] = (b[0] << 3) | (b[0] >> 2);
 242              		.loc 1 168 23 view .LVU66
 243 0086 03F01F08 		and	r8, r3, #31
 169:../Middlewares/screenl/Src/scrl_usb.c ****       g[0] = (p >> 5) & 0x3f;
 244              		.loc 1 169 7 is_stmt 1 view .LVU67
 170:../Middlewares/screenl/Src/scrl_usb.c ****       g[0] = (g[0] << 2) | (g[0] >> 4);
 245              		.loc 1 170 7 view .LVU68
 171:../Middlewares/screenl/Src/scrl_usb.c ****       r[0] = (p >> 11) & 0x1f;
 246              		.loc 1 171 7 view .LVU69
 172:../Middlewares/screenl/Src/scrl_usb.c ****       r[0] = (r[0] << 3) | (r[0] >> 2);
 247              		.loc 1 172 7 view .LVU70
 173:../Middlewares/screenl/Src/scrl_usb.c ****       b[1] = (p >> 16) & 0x1f;
 248              		.loc 1 173 7 view .LVU71
 174:../Middlewares/screenl/Src/scrl_usb.c ****       b[1] = (b[1] << 3) | (b[1] >> 2);
ARM GAS  /tmp/ccN2N8if.s 			page 12


 249              		.loc 1 174 7 view .LVU72
 250              	.LBB35:
 251              	.LBB26:
 141:../Middlewares/screenl/Src/scrl_usb.c ****   RGB_2_Y(r[1], g[1], b[1], y[1]);
 252              		.loc 1 141 3 is_stmt 0 view .LVU73
 253 008a 47EA8607 		orr	r7, r7, r6, lsl #2
 254              	.LBE26:
 255              	.LBE35:
 178:../Middlewares/screenl/Src/scrl_usb.c ****       r[1] = (r[1] << 3) | (r[1] >> 2);
 256              		.loc 1 178 12 view .LVU74
 257 008e DA0E     		lsrs	r2, r3, #27
 169:../Middlewares/screenl/Src/scrl_usb.c ****       g[0] = (p >> 5) & 0x3f;
 258              		.loc 1 169 26 view .LVU75
 259 0090 C3F38206 		ubfx	r6, r3, #2, #3
 260              	.LBB36:
 261              	.LBB27:
 141:../Middlewares/screenl/Src/scrl_usb.c ****   RGB_2_Y(r[1], g[1], b[1], y[1]);
 262              		.loc 1 141 3 view .LVU76
 263 0094 46EAC806 		orr	r6, r6, r8, lsl #3
 264              	.LBE27:
 265              	.LBE36:
 179:../Middlewares/screenl/Src/scrl_usb.c **** 
 266              		.loc 1 179 26 view .LVU77
 267 0098 D200     		lsls	r2, r2, #3
 174:../Middlewares/screenl/Src/scrl_usb.c ****       b[1] = (b[1] << 3) | (b[1] >> 2);
 268              		.loc 1 174 24 view .LVU78
 269 009a C3F30441 		ubfx	r1, r3, #16, #5
 175:../Middlewares/screenl/Src/scrl_usb.c ****       g[1] = (p >> 21) & 0x3f;
 270              		.loc 1 175 7 is_stmt 1 view .LVU79
 176:../Middlewares/screenl/Src/scrl_usb.c ****       g[1] = (g[1] << 2) | (g[1] >> 4);
 271              		.loc 1 176 7 view .LVU80
 176:../Middlewares/screenl/Src/scrl_usb.c ****       g[1] = (g[1] << 2) | (g[1] >> 4);
 272              		.loc 1 176 24 is_stmt 0 view .LVU81
 273 009e C3F34559 		ubfx	r9, r3, #21, #6
 177:../Middlewares/screenl/Src/scrl_usb.c ****       r[1] = (p >> 27) & 0x1f;
 274              		.loc 1 177 7 is_stmt 1 view .LVU82
 178:../Middlewares/screenl/Src/scrl_usb.c ****       r[1] = (r[1] << 3) | (r[1] >> 2);
 275              		.loc 1 178 7 view .LVU83
 179:../Middlewares/screenl/Src/scrl_usb.c **** 
 276              		.loc 1 179 7 view .LVU84
 181:../Middlewares/screenl/Src/scrl_usb.c ****       *p_dst++ = luma[0];
 277              		.loc 1 181 7 view .LVU85
 278              	.LVL20:
 279              	.LBB37:
 280              	.LBI23:
 137:../Middlewares/screenl/Src/scrl_usb.c **** {
 281              		.loc 1 137 13 view .LVU86
 282              	.LBB28:
 139:../Middlewares/screenl/Src/scrl_usb.c **** 
 283              		.loc 1 139 3 view .LVU87
 141:../Middlewares/screenl/Src/scrl_usb.c ****   RGB_2_Y(r[1], g[1], b[1], y[1]);
 284              		.loc 1 141 3 view .LVU88
 141:../Middlewares/screenl/Src/scrl_usb.c ****   RGB_2_Y(r[1], g[1], b[1], y[1]);
 285              		.loc 1 141 3 view .LVU89
 286 00a2 0196     		str	r6, [sp, #4]
 141:../Middlewares/screenl/Src/scrl_usb.c ****   RGB_2_Y(r[1], g[1], b[1], y[1]);
 287              		.loc 1 141 3 view .LVU90
ARM GAS  /tmp/ccN2N8if.s 			page 13


 141:../Middlewares/screenl/Src/scrl_usb.c ****   RGB_2_Y(r[1], g[1], b[1], y[1]);
 288              		.loc 1 141 3 view .LVU91
 141:../Middlewares/screenl/Src/scrl_usb.c ****   RGB_2_Y(r[1], g[1], b[1], y[1]);
 289              		.loc 1 141 3 view .LVU92
 141:../Middlewares/screenl/Src/scrl_usb.c ****   RGB_2_Y(r[1], g[1], b[1], y[1]);
 290              		.loc 1 141 3 view .LVU93
 141:../Middlewares/screenl/Src/scrl_usb.c ****   RGB_2_Y(r[1], g[1], b[1], y[1]);
 291              		.loc 1 141 3 view .LVU94
 142:../Middlewares/screenl/Src/scrl_usb.c **** 
 292              		.loc 1 142 3 view .LVU95
 142:../Middlewares/screenl/Src/scrl_usb.c **** 
 293              		.loc 1 142 3 view .LVU96
 294              	.LBE28:
 295              	.LBE37:
 177:../Middlewares/screenl/Src/scrl_usb.c ****       r[1] = (p >> 27) & 0x1f;
 296              		.loc 1 177 26 is_stmt 0 view .LVU97
 297 00a4 C3F34168 		ubfx	r8, r3, #25, #2
 298              	.LBB38:
 299              	.LBB29:
 142:../Middlewares/screenl/Src/scrl_usb.c **** 
 300              		.loc 1 142 3 view .LVU98
 301 00a8 42EA5376 		orr	r6, r2, r3, lsr #29
 302              	.LBE29:
 303              	.LBE38:
 175:../Middlewares/screenl/Src/scrl_usb.c ****       g[1] = (p >> 21) & 0x3f;
 304              		.loc 1 175 26 view .LVU99
 305 00ac C3F38243 		ubfx	r3, r3, #18, #3
 306              	.LVL21:
 307              	.LBB39:
 308              	.LBB30:
 142:../Middlewares/screenl/Src/scrl_usb.c **** 
 309              		.loc 1 142 3 view .LVU100
 310 00b0 43EAC103 		orr	r3, r3, r1, lsl #3
 142:../Middlewares/screenl/Src/scrl_usb.c **** 
 311              		.loc 1 142 3 is_stmt 1 view .LVU101
 142:../Middlewares/screenl/Src/scrl_usb.c **** 
 312              		.loc 1 142 3 view .LVU102
 142:../Middlewares/screenl/Src/scrl_usb.c **** 
 313              		.loc 1 142 3 view .LVU103
 314 00b4 374A     		ldr	r2, .L17
 315 00b6 3849     		ldr	r1, .L17+4
 316 00b8 48EA8908 		orr	r8, r8, r9, lsl #2
 317 00bc 52F82820 		ldr	r2, [r2, r8, lsl #2]
 318 00c0 51F82610 		ldr	r1, [r1, r6, lsl #2]
 145:../Middlewares/screenl/Src/scrl_usb.c ****   blue = (b[0] + b[1] + 1) / 2;
 319              		.loc 1 145 17 is_stmt 0 view .LVU104
 320 00c4 B844     		add	r8, r8, r7
 142:../Middlewares/screenl/Src/scrl_usb.c **** 
 321              		.loc 1 142 3 view .LVU105
 322 00c6 1144     		add	r1, r1, r2
 323 00c8 344A     		ldr	r2, .L17+8
 145:../Middlewares/screenl/Src/scrl_usb.c ****   blue = (b[0] + b[1] + 1) / 2;
 324              		.loc 1 145 24 view .LVU106
 325 00ca 08F10108 		add	r8, r8, #1
 142:../Middlewares/screenl/Src/scrl_usb.c **** 
 326              		.loc 1 142 3 view .LVU107
 327 00ce 52F82320 		ldr	r2, [r2, r3, lsl #2]
ARM GAS  /tmp/ccN2N8if.s 			page 14


 145:../Middlewares/screenl/Src/scrl_usb.c ****   blue = (b[0] + b[1] + 1) / 2;
 328              		.loc 1 145 29 view .LVU108
 329 00d2 4FEA6808 		asr	r8, r8, #1
 142:../Middlewares/screenl/Src/scrl_usb.c **** 
 330              		.loc 1 142 3 view .LVU109
 331 00d6 01EB0209 		add	r9, r1, r2
 146:../Middlewares/screenl/Src/scrl_usb.c **** 
 332              		.loc 1 146 16 view .LVU110
 333 00da 0199     		ldr	r1, [sp, #4]
 144:../Middlewares/screenl/Src/scrl_usb.c ****   green = (g[0] + g[1] + 1) / 2;
 334              		.loc 1 144 15 view .LVU111
 335 00dc 06EB0C02 		add	r2, r6, ip
 146:../Middlewares/screenl/Src/scrl_usb.c **** 
 336              		.loc 1 146 16 view .LVU112
 337 00e0 0B44     		add	r3, r3, r1
 148:../Middlewares/screenl/Src/scrl_usb.c ****   RGB_2_CB(red, green, blue, cb[0]);
 338              		.loc 1 148 3 view .LVU113
 339 00e2 2F4E     		ldr	r6, .L17+12
 340 00e4 2F49     		ldr	r1, .L17+16
 144:../Middlewares/screenl/Src/scrl_usb.c ****   green = (g[0] + g[1] + 1) / 2;
 341              		.loc 1 144 22 view .LVU114
 342 00e6 0132     		adds	r2, r2, #1
 144:../Middlewares/screenl/Src/scrl_usb.c ****   green = (g[0] + g[1] + 1) / 2;
 343              		.loc 1 144 27 view .LVU115
 344 00e8 5210     		asrs	r2, r2, #1
 148:../Middlewares/screenl/Src/scrl_usb.c ****   RGB_2_CB(red, green, blue, cb[0]);
 345              		.loc 1 148 3 view .LVU116
 346 00ea 56F82860 		ldr	r6, [r6, r8, lsl #2]
 347 00ee 51F82210 		ldr	r1, [r1, r2, lsl #2]
 146:../Middlewares/screenl/Src/scrl_usb.c **** 
 348              		.loc 1 146 23 view .LVU117
 349 00f2 0133     		adds	r3, r3, #1
 148:../Middlewares/screenl/Src/scrl_usb.c ****   RGB_2_CB(red, green, blue, cb[0]);
 350              		.loc 1 148 3 view .LVU118
 351 00f4 3144     		add	r1, r1, r6
 352 00f6 2C4E     		ldr	r6, .L17+20
 146:../Middlewares/screenl/Src/scrl_usb.c **** 
 353              		.loc 1 146 28 view .LVU119
 354 00f8 5B10     		asrs	r3, r3, #1
 148:../Middlewares/screenl/Src/scrl_usb.c ****   RGB_2_CB(red, green, blue, cb[0]);
 355              		.loc 1 148 3 view .LVU120
 356 00fa 56F82360 		ldr	r6, [r6, r3, lsl #2]
 142:../Middlewares/screenl/Src/scrl_usb.c **** 
 357              		.loc 1 142 3 view .LVU121
 358 00fe 89F30809 		usat	r9, #8, r9
 142:../Middlewares/screenl/Src/scrl_usb.c **** 
 359              		.loc 1 142 3 is_stmt 1 view .LVU122
 142:../Middlewares/screenl/Src/scrl_usb.c **** 
 360              		.loc 1 142 3 view .LVU123
 144:../Middlewares/screenl/Src/scrl_usb.c ****   green = (g[0] + g[1] + 1) / 2;
 361              		.loc 1 144 3 view .LVU124
 362              	.LVL22:
 145:../Middlewares/screenl/Src/scrl_usb.c ****   blue = (b[0] + b[1] + 1) / 2;
 363              		.loc 1 145 3 view .LVU125
 146:../Middlewares/screenl/Src/scrl_usb.c **** 
 364              		.loc 1 146 3 view .LVU126
 148:../Middlewares/screenl/Src/scrl_usb.c ****   RGB_2_CB(red, green, blue, cb[0]);
ARM GAS  /tmp/ccN2N8if.s 			page 15


 365              		.loc 1 148 3 view .LVU127
 148:../Middlewares/screenl/Src/scrl_usb.c ****   RGB_2_CB(red, green, blue, cb[0]);
 366              		.loc 1 148 3 view .LVU128
 148:../Middlewares/screenl/Src/scrl_usb.c ****   RGB_2_CB(red, green, blue, cb[0]);
 367              		.loc 1 148 3 view .LVU129
 148:../Middlewares/screenl/Src/scrl_usb.c ****   RGB_2_CB(red, green, blue, cb[0]);
 368              		.loc 1 148 3 view .LVU130
 148:../Middlewares/screenl/Src/scrl_usb.c ****   RGB_2_CB(red, green, blue, cb[0]);
 369              		.loc 1 148 3 view .LVU131
 370 0102 3144     		add	r1, r1, r6
 149:../Middlewares/screenl/Src/scrl_usb.c **** }
 371              		.loc 1 149 3 is_stmt 0 view .LVU132
 372 0104 294E     		ldr	r6, .L17+24
 148:../Middlewares/screenl/Src/scrl_usb.c ****   RGB_2_CB(red, green, blue, cb[0]);
 373              		.loc 1 148 3 view .LVU133
 374 0106 8031     		adds	r1, r1, #128
 149:../Middlewares/screenl/Src/scrl_usb.c **** }
 375              		.loc 1 149 3 view .LVU134
 376 0108 56F82220 		ldr	r2, [r6, r2, lsl #2]
 377              	.LVL23:
 149:../Middlewares/screenl/Src/scrl_usb.c **** }
 378              		.loc 1 149 3 view .LVU135
 379 010c 284E     		ldr	r6, .L17+28
 148:../Middlewares/screenl/Src/scrl_usb.c ****   RGB_2_CB(red, green, blue, cb[0]);
 380              		.loc 1 148 3 view .LVU136
 381 010e 81F30801 		usat	r1, #8, r1
 382              	.LVL24:
 148:../Middlewares/screenl/Src/scrl_usb.c ****   RGB_2_CB(red, green, blue, cb[0]);
 383              		.loc 1 148 3 is_stmt 1 view .LVU137
 148:../Middlewares/screenl/Src/scrl_usb.c ****   RGB_2_CB(red, green, blue, cb[0]);
 384              		.loc 1 148 3 view .LVU138
 149:../Middlewares/screenl/Src/scrl_usb.c **** }
 385              		.loc 1 149 3 view .LVU139
 149:../Middlewares/screenl/Src/scrl_usb.c **** }
 386              		.loc 1 149 3 view .LVU140
 149:../Middlewares/screenl/Src/scrl_usb.c **** }
 387              		.loc 1 149 3 view .LVU141
 149:../Middlewares/screenl/Src/scrl_usb.c **** }
 388              		.loc 1 149 3 view .LVU142
 149:../Middlewares/screenl/Src/scrl_usb.c **** }
 389              		.loc 1 149 3 view .LVU143
 390 0112 56F82880 		ldr	r8, [r6, r8, lsl #2]
 391              	.LVL25:
 141:../Middlewares/screenl/Src/scrl_usb.c ****   RGB_2_Y(r[1], g[1], b[1], y[1]);
 392              		.loc 1 141 3 is_stmt 0 view .LVU144
 393 0116 019E     		ldr	r6, [sp, #4]
 149:../Middlewares/screenl/Src/scrl_usb.c **** }
 394              		.loc 1 149 3 view .LVU145
 395 0118 9044     		add	r8, r8, r2
 396 011a 224A     		ldr	r2, .L17+16
 397              	.LBE30:
 398              	.LBE39:
 184:../Middlewares/screenl/Src/scrl_usb.c ****       *p_dst++ = cr;
 399              		.loc 1 184 16 view .LVU146
 400 011c 05F8029C 		strb	r9, [r5, #-2]
 401              	.LVL26:
 402              	.LBB40:
ARM GAS  /tmp/ccN2N8if.s 			page 16


 403              	.LBB31:
 149:../Middlewares/screenl/Src/scrl_usb.c **** }
 404              		.loc 1 149 3 view .LVU147
 405 0120 52F82330 		ldr	r3, [r2, r3, lsl #2]
 406              	.LVL27:
 141:../Middlewares/screenl/Src/scrl_usb.c ****   RGB_2_Y(r[1], g[1], b[1], y[1]);
 407              		.loc 1 141 3 view .LVU148
 408 0124 1B4A     		ldr	r2, .L17
 149:../Middlewares/screenl/Src/scrl_usb.c **** }
 409              		.loc 1 149 3 view .LVU149
 410 0126 9844     		add	r8, r8, r3
 141:../Middlewares/screenl/Src/scrl_usb.c ****   RGB_2_Y(r[1], g[1], b[1], y[1]);
 411              		.loc 1 141 3 view .LVU150
 412 0128 1B4B     		ldr	r3, .L17+4
 413 012a 52F82720 		ldr	r2, [r2, r7, lsl #2]
 414 012e 53F82C30 		ldr	r3, [r3, ip, lsl #2]
 149:../Middlewares/screenl/Src/scrl_usb.c **** }
 415              		.loc 1 149 3 view .LVU151
 416 0132 08F18008 		add	r8, r8, #128
 141:../Middlewares/screenl/Src/scrl_usb.c ****   RGB_2_Y(r[1], g[1], b[1], y[1]);
 417              		.loc 1 141 3 view .LVU152
 418 0136 1A44     		add	r2, r2, r3
 419 0138 184B     		ldr	r3, .L17+8
 149:../Middlewares/screenl/Src/scrl_usb.c **** }
 420              		.loc 1 149 3 view .LVU153
 421 013a 88F30808 		usat	r8, #8, r8
 422              	.LVL28:
 149:../Middlewares/screenl/Src/scrl_usb.c **** }
 423              		.loc 1 149 3 is_stmt 1 view .LVU154
 149:../Middlewares/screenl/Src/scrl_usb.c **** }
 424              		.loc 1 149 3 view .LVU155
 149:../Middlewares/screenl/Src/scrl_usb.c **** }
 425              		.loc 1 149 3 is_stmt 0 view .LVU156
 426              	.LBE31:
 427              	.LBE40:
 182:../Middlewares/screenl/Src/scrl_usb.c ****       *p_dst++ = cb;
 428              		.loc 1 182 7 is_stmt 1 view .LVU157
 429              	.LBB41:
 430              	.LBB32:
 141:../Middlewares/screenl/Src/scrl_usb.c ****   RGB_2_Y(r[1], g[1], b[1], y[1]);
 431              		.loc 1 141 3 is_stmt 0 view .LVU158
 432 013e 53F82630 		ldr	r3, [r3, r6, lsl #2]
 433              	.LBE32:
 434              	.LBE41:
 183:../Middlewares/screenl/Src/scrl_usb.c ****       *p_dst++ = luma[1];
 435              		.loc 1 183 16 view .LVU159
 436 0142 05F8038C 		strb	r8, [r5, #-3]
 437              	.LBB42:
 438              	.LBB33:
 141:../Middlewares/screenl/Src/scrl_usb.c ****   RGB_2_Y(r[1], g[1], b[1], y[1]);
 439              		.loc 1 141 3 view .LVU160
 440 0146 1A44     		add	r2, r2, r3
 441 0148 82F30802 		usat	r2, #8, r2
 442              	.LBE33:
 443              	.LBE42:
 182:../Middlewares/screenl/Src/scrl_usb.c ****       *p_dst++ = cb;
 444              		.loc 1 182 16 view .LVU161
ARM GAS  /tmp/ccN2N8if.s 			page 17


 445 014c 05F8042C 		strb	r2, [r5, #-4]
 183:../Middlewares/screenl/Src/scrl_usb.c ****       *p_dst++ = luma[1];
 446              		.loc 1 183 7 is_stmt 1 view .LVU162
 447              	.LVL29:
 184:../Middlewares/screenl/Src/scrl_usb.c ****       *p_dst++ = cr;
 448              		.loc 1 184 7 view .LVU163
 185:../Middlewares/screenl/Src/scrl_usb.c ****     }
 449              		.loc 1 185 7 view .LVU164
 185:../Middlewares/screenl/Src/scrl_usb.c ****     }
 450              		.loc 1 185 16 is_stmt 0 view .LVU165
 451 0150 05F8011C 		strb	r1, [r5, #-1]
 452              	.LBE44:
 164:../Middlewares/screenl/Src/scrl_usb.c ****     {
 453              		.loc 1 164 30 is_stmt 1 discriminator 3 view .LVU166
 454              	.LVL30:
 164:../Middlewares/screenl/Src/scrl_usb.c ****     {
 455              		.loc 1 164 30 is_stmt 0 discriminator 3 view .LVU167
 456 0154 7EE7     		b	.L5
 457              	.LVL31:
 458              	.L3:
 164:../Middlewares/screenl/Src/scrl_usb.c ****     {
 459              		.loc 1 164 30 discriminator 3 view .LVU168
 460              	.LBE45:
 461              	.LBE46:
 462              	.LBE19:
 463              	.LBE18:
 216:../Middlewares/screenl/Src/scrl_usb.c ****   if (ret)
 464              		.loc 1 216 3 is_stmt 1 view .LVU169
 465              	.LBB47:
 466              	.LBB48:
 134:../Middlewares/screenl/Src/scrl_usb.c **** }
 467              		.loc 1 134 51 is_stmt 0 view .LVU170
 468 0156 638C     		ldrh	r3, [r4, #34]
 134:../Middlewares/screenl/Src/scrl_usb.c **** }
 469              		.loc 1 134 26 view .LVU171
 470 0158 228C     		ldrh	r2, [r4, #32]
 471              	.LBE48:
 472              	.LBE47:
 216:../Middlewares/screenl/Src/scrl_usb.c ****   if (ret)
 473              		.loc 1 216 9 view .LVU172
 474 015a A06A     		ldr	r0, [r4, #40]
 475              	.LVL32:
 476              	.LBB52:
 477              	.LBI47:
 132:../Middlewares/screenl/Src/scrl_usb.c **** {
 478              		.loc 1 132 12 is_stmt 1 view .LVU173
 479              	.LBB51:
 134:../Middlewares/screenl/Src/scrl_usb.c **** }
 480              		.loc 1 134 3 view .LVU174
 134:../Middlewares/screenl/Src/scrl_usb.c **** }
 481              		.loc 1 134 33 is_stmt 0 view .LVU175
 482 015c 5A43     		muls	r2, r3, r2
 134:../Middlewares/screenl/Src/scrl_usb.c **** }
 483              		.loc 1 134 61 view .LVU176
 484 015e 94F82430 		ldrb	r3, [r4, #36]	@ zero_extendqisi2
 485              	.LVL33:
 486              	.LBB49:
ARM GAS  /tmp/ccN2N8if.s 			page 18


 487              	.LBI49:
 112:../Middlewares/screenl/Src/scrl_usb.c **** {
 488              		.loc 1 112 12 is_stmt 1 view .LVU177
 489              	.LBB50:
 114:../Middlewares/screenl/Src/scrl_usb.c ****   case SCRL_RGB565:
 490              		.loc 1 114 3 view .LVU178
 491 0162 022B     		cmp	r3, #2
 492 0164 0AD9     		bls	.L9
 493 0166 043B     		subs	r3, r3, #4
 494              	.LVL34:
 114:../Middlewares/screenl/Src/scrl_usb.c ****   case SCRL_RGB565:
 495              		.loc 1 114 3 is_stmt 0 view .LVU179
 496 0168 012B     		cmp	r3, #1
 497 016a 4FF00301 		mov	r1, #3
 498 016e 06D9     		bls	.L7
 126:../Middlewares/screenl/Src/scrl_usb.c ****   }
 499              		.loc 1 126 5 is_stmt 1 view .LVU180
 500 0170 7E21     		movs	r1, #126
 501 0172 104B     		ldr	r3, .L17+32
 502              	.LVL35:
 126:../Middlewares/screenl/Src/scrl_usb.c ****   }
 503              		.loc 1 126 5 is_stmt 0 view .LVU181
 504 0174 104A     		ldr	r2, .L17+36
 505 0176 1148     		ldr	r0, .L17+40
 506 0178 FFF7FEFF 		bl	__assert_func
 507              	.LVL36:
 508              	.L9:
 116:../Middlewares/screenl/Src/scrl_usb.c ****   case SCRL_ARGB4444:
 509              		.loc 1 116 12 view .LVU182
 510 017c 0221     		movs	r1, #2
 511              	.LVL37:
 512              	.L7:
 116:../Middlewares/screenl/Src/scrl_usb.c ****   case SCRL_ARGB4444:
 513              		.loc 1 116 12 view .LVU183
 514              	.LBE50:
 515              	.LBE49:
 516              	.LBE51:
 517              	.LBE52:
 216:../Middlewares/screenl/Src/scrl_usb.c ****   if (ret)
 518              		.loc 1 216 9 discriminator 1 view .LVU184
 519 017e 5143     		muls	r1, r2, r1
 520 0180 FFF7FEFF 		bl	UVCL_ShowFrame
 521              	.LVL38:
 217:../Middlewares/screenl/Src/scrl_usb.c ****     ctx->is_screen_ready_to_update = 1;
 522              		.loc 1 217 3 is_stmt 1 view .LVU185
 217:../Middlewares/screenl/Src/scrl_usb.c ****     ctx->is_screen_ready_to_update = 1;
 523              		.loc 1 217 6 is_stmt 0 view .LVU186
 524 0184 10B1     		cbz	r0, .L2
 218:../Middlewares/screenl/Src/scrl_usb.c **** }
 525              		.loc 1 218 5 is_stmt 1 view .LVU187
 218:../Middlewares/screenl/Src/scrl_usb.c **** }
 526              		.loc 1 218 36 is_stmt 0 view .LVU188
 527 0186 0123     		movs	r3, #1
 528 0188 C4F8B830 		str	r3, [r4, #184]
 529              	.LVL39:
 530              	.L2:
 218:../Middlewares/screenl/Src/scrl_usb.c **** }
ARM GAS  /tmp/ccN2N8if.s 			page 19


 531              		.loc 1 218 36 view .LVU189
 532              	.LBE55:
 533              	.LBE58:
 245:../Middlewares/screenl/Src/scrl_usb.c **** #endif
 534              		.loc 1 245 1 view .LVU190
 535 018c 05B0     		add	sp, sp, #20
 536              		.cfi_def_cfa_offset 36
 537              		@ sp needed
 538 018e BDE8F08F 		pop	{r4, r5, r6, r7, r8, r9, r10, fp, pc}
 539              	.LVL40:
 540              	.L18:
 245:../Middlewares/screenl/Src/scrl_usb.c **** #endif
 541              		.loc 1 245 1 view .LVU191
 542 0192 00BF     		.align	2
 543              	.L17:
 544 0194 00000000 		.word	SCRU_GREEN_Y_LUT
 545 0198 00000000 		.word	SCRU_RED_Y_LUT
 546 019c 00000000 		.word	SCRU_BLUE_Y_LUT
 547 01a0 00000000 		.word	SCRU_GREEN_CR_LUT
 548 01a4 00000000 		.word	SCRU_BLUE_CB_RED_CR_LUT
 549 01a8 00000000 		.word	SCRU_BLUE_CR_LUT
 550 01ac 00000000 		.word	SCRU_RED_CB_LUT
 551 01b0 00000000 		.word	SCRU_GREEN_CB_LUT
 552 01b4 00000000 		.word	.LC0
 553 01b8 00000000 		.word	__func__.3
 554 01bc 02000000 		.word	.LC1
 555              		.cfi_endproc
 556              	.LFE891:
 558              		.section	.rodata.SCRL_Init.str1.1,"aMS",%progbits,1
 559              	.LC2:
 560 0000 72657420 		.ascii	"ret == 0\000"
 560      3D3D2030 
 560      00
 561              		.section	.text.SCRL_Init,"ax",%progbits
 562              		.align	1
 563              		.global	SCRL_Init
 564              		.syntax unified
 565              		.thumb
 566              		.thumb_func
 568              	SCRL_Init:
 569              	.LVL41:
 570              	.LFB899:
 310:../Middlewares/screenl/Src/scrl_usb.c **** 
 311:../Middlewares/screenl/Src/scrl_usb.c **** static void SCRU_usb_init(PCD_TypeDef *pcd_instance, struct scrl_usb_ctx *ctx)
 312:../Middlewares/screenl/Src/scrl_usb.c **** {
 313:../Middlewares/screenl/Src/scrl_usb.c ****   UVCL_Conf_t conf = { 0 };
 314:../Middlewares/screenl/Src/scrl_usb.c ****   int ret;
 315:../Middlewares/screenl/Src/scrl_usb.c **** 
 316:../Middlewares/screenl/Src/scrl_usb.c ****   conf.streams[0].width = ctx->common.screen.size.width;
 317:../Middlewares/screenl/Src/scrl_usb.c ****   conf.streams[0].height = ctx->common.screen.size.height;
 318:../Middlewares/screenl/Src/scrl_usb.c ****   conf.streams[0].fps = ctx->common.screen.fps;
 319:../Middlewares/screenl/Src/scrl_usb.c ****   conf.streams[0].payload_type = cvt_uvcl_payload_format(ctx->common.screen.format);
 320:../Middlewares/screenl/Src/scrl_usb.c ****   conf.streams_nb = 1;
 321:../Middlewares/screenl/Src/scrl_usb.c ****   conf.is_immediate_mode = 1;
 322:../Middlewares/screenl/Src/scrl_usb.c ****   ret = UVCL_Init(pcd_instance, &conf, &ctx->usb_cbs);
 323:../Middlewares/screenl/Src/scrl_usb.c ****   assert(ret == 0);
 324:../Middlewares/screenl/Src/scrl_usb.c **** }
ARM GAS  /tmp/ccN2N8if.s 			page 20


 325:../Middlewares/screenl/Src/scrl_usb.c **** 
 326:../Middlewares/screenl/Src/scrl_usb.c **** static int is_layer_format_valid(SCRL_Format fmt)
 327:../Middlewares/screenl/Src/scrl_usb.c **** {
 328:../Middlewares/screenl/Src/scrl_usb.c ****   switch (fmt) {
 329:../Middlewares/screenl/Src/scrl_usb.c ****   case SCRL_RGB565:
 330:../Middlewares/screenl/Src/scrl_usb.c ****   case SCRL_ARGB4444:
 331:../Middlewares/screenl/Src/scrl_usb.c ****   case SCRL_BGR888:
 332:../Middlewares/screenl/Src/scrl_usb.c ****   case SCRL_RGB888:
 333:../Middlewares/screenl/Src/scrl_usb.c ****     return 1;
 334:../Middlewares/screenl/Src/scrl_usb.c ****   default:
 335:../Middlewares/screenl/Src/scrl_usb.c ****     return 0;
 336:../Middlewares/screenl/Src/scrl_usb.c ****   }
 337:../Middlewares/screenl/Src/scrl_usb.c **** }
 338:../Middlewares/screenl/Src/scrl_usb.c **** 
 339:../Middlewares/screenl/Src/scrl_usb.c **** static int is_output_format_valid(SCRL_Format fmt)
 340:../Middlewares/screenl/Src/scrl_usb.c **** {
 341:../Middlewares/screenl/Src/scrl_usb.c ****   switch (fmt) {
 342:../Middlewares/screenl/Src/scrl_usb.c ****   case SCRL_RGB565:
 343:../Middlewares/screenl/Src/scrl_usb.c ****   case SCRL_YUV422:
 344:../Middlewares/screenl/Src/scrl_usb.c ****     return 1;
 345:../Middlewares/screenl/Src/scrl_usb.c ****   default:
 346:../Middlewares/screenl/Src/scrl_usb.c ****     return 0;
 347:../Middlewares/screenl/Src/scrl_usb.c ****   }
 348:../Middlewares/screenl/Src/scrl_usb.c **** }
 349:../Middlewares/screenl/Src/scrl_usb.c **** 
 350:../Middlewares/screenl/Src/scrl_usb.c **** static int SCRU_validate_parameters(SCRL_LayerConfig *layers_config[SCRL_LAYER_NB], SCRL_ScreenConf
 351:../Middlewares/screenl/Src/scrl_usb.c **** {
 352:../Middlewares/screenl/Src/scrl_usb.c ****   int i;
 353:../Middlewares/screenl/Src/scrl_usb.c **** 
 354:../Middlewares/screenl/Src/scrl_usb.c ****   /* First check for null pointer */
 355:../Middlewares/screenl/Src/scrl_usb.c ****   if (!screen_config)
 356:../Middlewares/screenl/Src/scrl_usb.c ****     return -1;
 357:../Middlewares/screenl/Src/scrl_usb.c ****   for (i = 0; i < SCRL_LAYER_NB; i++)
 358:../Middlewares/screenl/Src/scrl_usb.c ****     if (!layers_config[i])
 359:../Middlewares/screenl/Src/scrl_usb.c ****       return -1;
 360:../Middlewares/screenl/Src/scrl_usb.c **** 
 361:../Middlewares/screenl/Src/scrl_usb.c ****   /* Also for adresses */
 362:../Middlewares/screenl/Src/scrl_usb.c ****   if (!screen_config->address)
 363:../Middlewares/screenl/Src/scrl_usb.c ****     return -1;
 364:../Middlewares/screenl/Src/scrl_usb.c ****   for (i = 0; i < SCRL_LAYER_NB; i++)
 365:../Middlewares/screenl/Src/scrl_usb.c ****     if (!layers_config[i]->address)
 366:../Middlewares/screenl/Src/scrl_usb.c ****       return -1;
 367:../Middlewares/screenl/Src/scrl_usb.c **** 
 368:../Middlewares/screenl/Src/scrl_usb.c ****   /* All layers must have the same size ... */
 369:../Middlewares/screenl/Src/scrl_usb.c ****   for (i = 1; i < SCRL_LAYER_NB; i++) {
 370:../Middlewares/screenl/Src/scrl_usb.c ****     if (layers_config[i]->size.width != layers_config[0]->size.width)
 371:../Middlewares/screenl/Src/scrl_usb.c ****       return -1;
 372:../Middlewares/screenl/Src/scrl_usb.c ****     if (layers_config[i]->size.height != layers_config[0]->size.height)
 373:../Middlewares/screenl/Src/scrl_usb.c ****       return -1;
 374:../Middlewares/screenl/Src/scrl_usb.c ****   }
 375:../Middlewares/screenl/Src/scrl_usb.c **** 
 376:../Middlewares/screenl/Src/scrl_usb.c ****   /* ... and same origin */
 377:../Middlewares/screenl/Src/scrl_usb.c ****   for (i = 1; i < SCRL_LAYER_NB; i++) {
 378:../Middlewares/screenl/Src/scrl_usb.c ****     if (layers_config[i]->origin.x != layers_config[0]->origin.x)
 379:../Middlewares/screenl/Src/scrl_usb.c ****       return -1;
 380:../Middlewares/screenl/Src/scrl_usb.c ****     if (layers_config[i]->origin.y != layers_config[0]->origin.y)
 381:../Middlewares/screenl/Src/scrl_usb.c ****       return -1;
ARM GAS  /tmp/ccN2N8if.s 			page 21


 382:../Middlewares/screenl/Src/scrl_usb.c ****   }
 383:../Middlewares/screenl/Src/scrl_usb.c **** 
 384:../Middlewares/screenl/Src/scrl_usb.c ****   /* layers must fully fit in screen. Only check with layer0 since layers have same size and origin
 385:../Middlewares/screenl/Src/scrl_usb.c ****   if (layers_config[0]->size.width + layers_config[0]->origin.x > screen_config->size.width)
 386:../Middlewares/screenl/Src/scrl_usb.c ****     return -1;
 387:../Middlewares/screenl/Src/scrl_usb.c ****   if (layers_config[0]->size.height + layers_config[0]->origin.y > screen_config->size.height)
 388:../Middlewares/screenl/Src/scrl_usb.c ****     return -1;
 389:../Middlewares/screenl/Src/scrl_usb.c **** 
 390:../Middlewares/screenl/Src/scrl_usb.c ****   /* check input format */
 391:../Middlewares/screenl/Src/scrl_usb.c ****   for (i = 0; i < SCRL_LAYER_NB; i++)
 392:../Middlewares/screenl/Src/scrl_usb.c ****     if (!is_layer_format_valid(layers_config[i]->format))
 393:../Middlewares/screenl/Src/scrl_usb.c ****       return -1;
 394:../Middlewares/screenl/Src/scrl_usb.c **** 
 395:../Middlewares/screenl/Src/scrl_usb.c ****   /* check output format */
 396:../Middlewares/screenl/Src/scrl_usb.c ****   if (!is_output_format_valid(screen_config->format))
 397:../Middlewares/screenl/Src/scrl_usb.c ****     return -1;
 398:../Middlewares/screenl/Src/scrl_usb.c **** 
 399:../Middlewares/screenl/Src/scrl_usb.c ****   return 0;
 400:../Middlewares/screenl/Src/scrl_usb.c **** }
 401:../Middlewares/screenl/Src/scrl_usb.c **** 
 402:../Middlewares/screenl/Src/scrl_usb.c **** #ifdef SCR_LIB_USE_THREADX
 403:../Middlewares/screenl/Src/scrl_usb.c **** static void SCRL_Init_threadx(struct scrl_usb_ctx *ctx)
 404:../Middlewares/screenl/Src/scrl_usb.c **** {
 405:../Middlewares/screenl/Src/scrl_usb.c ****   const UINT update_thread_priority = TX_MAX_PRIORITIES / 2 + 2;
 406:../Middlewares/screenl/Src/scrl_usb.c ****   const ULONG time_slice = 10;
 407:../Middlewares/screenl/Src/scrl_usb.c ****   int ret;
 408:../Middlewares/screenl/Src/scrl_usb.c **** 
 409:../Middlewares/screenl/Src/scrl_usb.c ****   ret = tx_semaphore_create(&ctx->update_sem, NULL, 0);
 410:../Middlewares/screenl/Src/scrl_usb.c ****   assert(ret == 0);
 411:../Middlewares/screenl/Src/scrl_usb.c ****   ret = tx_semaphore_create(&ctx->dma2d_sem, NULL, 0);
 412:../Middlewares/screenl/Src/scrl_usb.c ****   assert(ret == 0);
 413:../Middlewares/screenl/Src/scrl_usb.c ****   ret = tx_thread_create(&ctx->update_thread, "ud", update_thread_fct, (ULONG) ctx, update_thread_s
 414:../Middlewares/screenl/Src/scrl_usb.c ****                          sizeof(update_thread_stack), update_thread_priority, update_thread_priorit
 415:../Middlewares/screenl/Src/scrl_usb.c ****                          TX_AUTO_START);
 416:../Middlewares/screenl/Src/scrl_usb.c ****   assert(ret == TX_SUCCESS);
 417:../Middlewares/screenl/Src/scrl_usb.c **** }
 418:../Middlewares/screenl/Src/scrl_usb.c **** #elif defined(SCR_LIB_USE_FREERTOS)
 419:../Middlewares/screenl/Src/scrl_usb.c **** static void SCRL_Init_freertos(struct scrl_usb_ctx *ctx)
 420:../Middlewares/screenl/Src/scrl_usb.c **** {
 421:../Middlewares/screenl/Src/scrl_usb.c ****   const int update_thread_priority = tskIDLE_PRIORITY + 20 - 2;
 422:../Middlewares/screenl/Src/scrl_usb.c ****   TaskHandle_t hdl;
 423:../Middlewares/screenl/Src/scrl_usb.c **** 
 424:../Middlewares/screenl/Src/scrl_usb.c ****   ctx->update_sem = xSemaphoreCreateCountingStatic(1, 0, &ctx->update_sem_buffer);
 425:../Middlewares/screenl/Src/scrl_usb.c ****   assert(ctx->update_sem);
 426:../Middlewares/screenl/Src/scrl_usb.c ****   ctx->dma2d_sem = xSemaphoreCreateCountingStatic(1, 0, &ctx->dma2d_sem_buffer);
 427:../Middlewares/screenl/Src/scrl_usb.c ****   assert(ctx->dma2d_sem);
 428:../Middlewares/screenl/Src/scrl_usb.c ****   hdl = xTaskCreateStatic(update_thread_fct, "ud", configMINIMAL_STACK_SIZE, ctx, update_thread_pri
 429:../Middlewares/screenl/Src/scrl_usb.c ****                           update_thread_stack, &ctx->update_thread);
 430:../Middlewares/screenl/Src/scrl_usb.c ****   assert(hdl);
 431:../Middlewares/screenl/Src/scrl_usb.c **** }
 432:../Middlewares/screenl/Src/scrl_usb.c **** #endif
 433:../Middlewares/screenl/Src/scrl_usb.c **** 
 434:../Middlewares/screenl/Src/scrl_usb.c **** static void SCRL_Init_Lut()
 435:../Middlewares/screenl/Src/scrl_usb.c **** {
 436:../Middlewares/screenl/Src/scrl_usb.c ****   int i;
 437:../Middlewares/screenl/Src/scrl_usb.c **** 
 438:../Middlewares/screenl/Src/scrl_usb.c ****   for (i = 0; i <= 255; i++)
ARM GAS  /tmp/ccN2N8if.s 			page 22


 439:../Middlewares/screenl/Src/scrl_usb.c ****   {
 440:../Middlewares/screenl/Src/scrl_usb.c ****     SCRU_RED_Y_LUT[i]           = ((  ((int32_t) ((0.299 )  * (1L << 16)))  * i) + ((int32_t) 1 << 
 441:../Middlewares/screenl/Src/scrl_usb.c ****     SCRU_GREEN_Y_LUT[i]         = ((  ((int32_t) ((0.587 )  * (1L << 16)))  * i) + ((int32_t) 1 << 
 442:../Middlewares/screenl/Src/scrl_usb.c ****     SCRU_BLUE_Y_LUT[i]          = ((  ((int32_t) ((0.114 )  * (1L << 16)))  * i) + ((int32_t) 1 << 
 443:../Middlewares/screenl/Src/scrl_usb.c ****     SCRU_RED_CB_LUT[i]          = (((-((int32_t) ((0.1687 ) * (1L << 16)))) * i) + ((int32_t) 1 << 
 444:../Middlewares/screenl/Src/scrl_usb.c ****     SCRU_GREEN_CB_LUT[i]        = (((-((int32_t) ((0.3313 ) * (1L << 16)))) * i) + ((int32_t) 1 << 
 445:../Middlewares/screenl/Src/scrl_usb.c ****     /* BLUE_CB_LUT and RED_CR_LUT are identical */
 446:../Middlewares/screenl/Src/scrl_usb.c ****     SCRU_BLUE_CB_RED_CR_LUT[i]  = ((  ((int32_t) ((0.5 )    * (1L << 16)))  * i) + ((int32_t) 1 << 
 447:../Middlewares/screenl/Src/scrl_usb.c ****     SCRU_GREEN_CR_LUT[i]        = (((-((int32_t) ((0.4187 ) * (1L << 16)))) * i) + ((int32_t) 1 << 
 448:../Middlewares/screenl/Src/scrl_usb.c ****     SCRU_BLUE_CR_LUT[i]         = (((-((int32_t) ((0.0813 ) * (1L << 16)))) * i) + ((int32_t) 1 << 
 449:../Middlewares/screenl/Src/scrl_usb.c ****   }
 450:../Middlewares/screenl/Src/scrl_usb.c **** }
 451:../Middlewares/screenl/Src/scrl_usb.c **** 
 452:../Middlewares/screenl/Src/scrl_usb.c **** int SCRL_Init(SCRL_LayerConfig *layers_config[SCRL_LAYER_NB], SCRL_ScreenConfig *screen_config)
 453:../Middlewares/screenl/Src/scrl_usb.c **** {
 571              		.loc 1 453 1 is_stmt 1 view -0
 572              		.cfi_startproc
 573              		@ args = 0, pretend = 0, frame = 168
 574              		@ frame_needed = 0, uses_anonymous_args = 0
 454:../Middlewares/screenl/Src/scrl_usb.c ****   struct scrl_usb_ctx *ctx = &scrl_ctx;
 575              		.loc 1 454 3 view .LVU193
 455:../Middlewares/screenl/Src/scrl_usb.c ****   int ret;
 576              		.loc 1 455 3 view .LVU194
 456:../Middlewares/screenl/Src/scrl_usb.c **** 
 457:../Middlewares/screenl/Src/scrl_usb.c ****   ret = SCRU_validate_parameters(layers_config, screen_config);
 577              		.loc 1 457 3 view .LVU195
 578              	.LBB71:
 579              	.LBI71:
 350:../Middlewares/screenl/Src/scrl_usb.c **** {
 580              		.loc 1 350 12 view .LVU196
 581              	.LBB72:
 352:../Middlewares/screenl/Src/scrl_usb.c **** 
 582              		.loc 1 352 3 view .LVU197
 355:../Middlewares/screenl/Src/scrl_usb.c ****     return -1;
 583              		.loc 1 355 3 view .LVU198
 584              	.LBE72:
 585              	.LBE71:
 453:../Middlewares/screenl/Src/scrl_usb.c ****   struct scrl_usb_ctx *ctx = &scrl_ctx;
 586              		.loc 1 453 1 is_stmt 0 view .LVU199
 587 0000 2DE9F04F 		push	{r4, r5, r6, r7, r8, r9, r10, fp, lr}
 588              		.cfi_def_cfa_offset 36
 589              		.cfi_offset 4, -36
 590              		.cfi_offset 5, -32
 591              		.cfi_offset 6, -28
 592              		.cfi_offset 7, -24
 593              		.cfi_offset 8, -20
 594              		.cfi_offset 9, -16
 595              		.cfi_offset 10, -12
 596              		.cfi_offset 11, -8
 597              		.cfi_offset 14, -4
 598 0004 ABB0     		sub	sp, sp, #172
 599              		.cfi_def_cfa_offset 208
 600              	.LBB80:
 601              	.LBB79:
 355:../Middlewares/screenl/Src/scrl_usb.c ****     return -1;
 602              		.loc 1 355 6 view .LVU200
 603 0006 0029     		cmp	r1, #0
ARM GAS  /tmp/ccN2N8if.s 			page 23


 604 0008 00F0E080 		beq	.L38
 605              	.LVL42:
 357:../Middlewares/screenl/Src/scrl_usb.c ****     if (!layers_config[i])
 606              		.loc 1 357 17 is_stmt 1 discriminator 1 view .LVU201
 358:../Middlewares/screenl/Src/scrl_usb.c ****       return -1;
 607              		.loc 1 358 5 view .LVU202
 358:../Middlewares/screenl/Src/scrl_usb.c ****       return -1;
 608              		.loc 1 358 23 is_stmt 0 view .LVU203
 609 000c 0268     		ldr	r2, [r0]
 358:../Middlewares/screenl/Src/scrl_usb.c ****       return -1;
 610              		.loc 1 358 8 view .LVU204
 611 000e 002A     		cmp	r2, #0
 612 0010 00F0DC80 		beq	.L38
 357:../Middlewares/screenl/Src/scrl_usb.c ****     if (!layers_config[i])
 613              		.loc 1 357 35 is_stmt 1 discriminator 2 view .LVU205
 614              	.LVL43:
 357:../Middlewares/screenl/Src/scrl_usb.c ****     if (!layers_config[i])
 615              		.loc 1 357 17 discriminator 1 view .LVU206
 358:../Middlewares/screenl/Src/scrl_usb.c ****       return -1;
 616              		.loc 1 358 5 view .LVU207
 358:../Middlewares/screenl/Src/scrl_usb.c ****       return -1;
 617              		.loc 1 358 23 is_stmt 0 view .LVU208
 618 0014 4368     		ldr	r3, [r0, #4]
 358:../Middlewares/screenl/Src/scrl_usb.c ****       return -1;
 619              		.loc 1 358 8 view .LVU209
 620 0016 002B     		cmp	r3, #0
 621 0018 00F0D880 		beq	.L38
 357:../Middlewares/screenl/Src/scrl_usb.c ****     if (!layers_config[i])
 622              		.loc 1 357 35 is_stmt 1 discriminator 2 view .LVU210
 623              	.LVL44:
 357:../Middlewares/screenl/Src/scrl_usb.c ****     if (!layers_config[i])
 624              		.loc 1 357 17 discriminator 1 view .LVU211
 362:../Middlewares/screenl/Src/scrl_usb.c ****     return -1;
 625              		.loc 1 362 3 view .LVU212
 362:../Middlewares/screenl/Src/scrl_usb.c ****     return -1;
 626              		.loc 1 362 6 is_stmt 0 view .LVU213
 627 001c 8C68     		ldr	r4, [r1, #8]
 628 001e 002C     		cmp	r4, #0
 629 0020 00F0D480 		beq	.L38
 630              	.LVL45:
 364:../Middlewares/screenl/Src/scrl_usb.c ****     if (!layers_config[i]->address)
 631              		.loc 1 364 17 is_stmt 1 discriminator 1 view .LVU214
 365:../Middlewares/screenl/Src/scrl_usb.c ****       return -1;
 632              		.loc 1 365 5 view .LVU215
 365:../Middlewares/screenl/Src/scrl_usb.c ****       return -1;
 633              		.loc 1 365 8 is_stmt 0 view .LVU216
 634 0024 D468     		ldr	r4, [r2, #12]
 635 0026 002C     		cmp	r4, #0
 636 0028 00F0D080 		beq	.L38
 364:../Middlewares/screenl/Src/scrl_usb.c ****     if (!layers_config[i]->address)
 637              		.loc 1 364 35 is_stmt 1 discriminator 2 view .LVU217
 638              	.LVL46:
 364:../Middlewares/screenl/Src/scrl_usb.c ****     if (!layers_config[i]->address)
 639              		.loc 1 364 17 discriminator 1 view .LVU218
 365:../Middlewares/screenl/Src/scrl_usb.c ****       return -1;
 640              		.loc 1 365 5 view .LVU219
 365:../Middlewares/screenl/Src/scrl_usb.c ****       return -1;
ARM GAS  /tmp/ccN2N8if.s 			page 24


 641              		.loc 1 365 8 is_stmt 0 view .LVU220
 642 002c DC68     		ldr	r4, [r3, #12]
 643 002e 002C     		cmp	r4, #0
 644 0030 00F0CC80 		beq	.L38
 370:../Middlewares/screenl/Src/scrl_usb.c ****       return -1;
 645              		.loc 1 370 5 is_stmt 1 view .LVU221
 370:../Middlewares/screenl/Src/scrl_usb.c ****       return -1;
 646              		.loc 1 370 63 is_stmt 0 view .LVU222
 647 0034 9588     		ldrh	r5, [r2, #4]
 370:../Middlewares/screenl/Src/scrl_usb.c ****       return -1;
 648              		.loc 1 370 8 view .LVU223
 649 0036 9C88     		ldrh	r4, [r3, #4]
 650 0038 AC42     		cmp	r4, r5
 651 003a 40F0C780 		bne	.L38
 372:../Middlewares/screenl/Src/scrl_usb.c ****       return -1;
 652              		.loc 1 372 5 is_stmt 1 view .LVU224
 372:../Middlewares/screenl/Src/scrl_usb.c ****       return -1;
 653              		.loc 1 372 64 is_stmt 0 view .LVU225
 654 003e D488     		ldrh	r4, [r2, #6]
 372:../Middlewares/screenl/Src/scrl_usb.c ****       return -1;
 655              		.loc 1 372 8 view .LVU226
 656 0040 DE88     		ldrh	r6, [r3, #6]
 657 0042 A642     		cmp	r6, r4
 658 0044 40F0C280 		bne	.L38
 659              	.LVL47:
 369:../Middlewares/screenl/Src/scrl_usb.c ****     if (layers_config[i]->size.width != layers_config[0]->size.width)
 660              		.loc 1 369 17 is_stmt 1 discriminator 1 view .LVU227
 378:../Middlewares/screenl/Src/scrl_usb.c ****       return -1;
 661              		.loc 1 378 5 view .LVU228
 378:../Middlewares/screenl/Src/scrl_usb.c ****       return -1;
 662              		.loc 1 378 63 is_stmt 0 view .LVU229
 663 0048 1788     		ldrh	r7, [r2]
 378:../Middlewares/screenl/Src/scrl_usb.c ****       return -1;
 664              		.loc 1 378 8 view .LVU230
 665 004a 1E88     		ldrh	r6, [r3]
 666 004c BE42     		cmp	r6, r7
 667 004e 40F0BD80 		bne	.L38
 380:../Middlewares/screenl/Src/scrl_usb.c ****       return -1;
 668              		.loc 1 380 5 is_stmt 1 view .LVU231
 380:../Middlewares/screenl/Src/scrl_usb.c ****       return -1;
 669              		.loc 1 380 63 is_stmt 0 view .LVU232
 670 0052 5688     		ldrh	r6, [r2, #2]
 380:../Middlewares/screenl/Src/scrl_usb.c ****       return -1;
 671              		.loc 1 380 8 view .LVU233
 672 0054 B3F802C0 		ldrh	ip, [r3, #2]
 673 0058 B445     		cmp	ip, r6
 674 005a 40F0B780 		bne	.L38
 675              	.LVL48:
 377:../Middlewares/screenl/Src/scrl_usb.c ****     if (layers_config[i]->origin.x != layers_config[0]->origin.x)
 676              		.loc 1 377 17 is_stmt 1 discriminator 1 view .LVU234
 385:../Middlewares/screenl/Src/scrl_usb.c ****     return -1;
 677              		.loc 1 385 3 view .LVU235
 385:../Middlewares/screenl/Src/scrl_usb.c ****     return -1;
 678              		.loc 1 385 36 is_stmt 0 view .LVU236
 679 005e 3D44     		add	r5, r5, r7
 385:../Middlewares/screenl/Src/scrl_usb.c ****     return -1;
 680              		.loc 1 385 86 view .LVU237
ARM GAS  /tmp/ccN2N8if.s 			page 25


 681 0060 0F88     		ldrh	r7, [r1]
 385:../Middlewares/screenl/Src/scrl_usb.c ****     return -1;
 682              		.loc 1 385 6 view .LVU238
 683 0062 BD42     		cmp	r5, r7
 684 0064 00F3B280 		bgt	.L38
 387:../Middlewares/screenl/Src/scrl_usb.c ****     return -1;
 685              		.loc 1 387 3 is_stmt 1 view .LVU239
 387:../Middlewares/screenl/Src/scrl_usb.c ****     return -1;
 686              		.loc 1 387 87 is_stmt 0 view .LVU240
 687 0068 4D88     		ldrh	r5, [r1, #2]
 387:../Middlewares/screenl/Src/scrl_usb.c ****     return -1;
 688              		.loc 1 387 37 view .LVU241
 689 006a 3444     		add	r4, r4, r6
 387:../Middlewares/screenl/Src/scrl_usb.c ****     return -1;
 690              		.loc 1 387 6 view .LVU242
 691 006c AC42     		cmp	r4, r5
 692 006e 00F3AD80 		bgt	.L38
 693              	.LVL49:
 391:../Middlewares/screenl/Src/scrl_usb.c ****     if (!is_layer_format_valid(layers_config[i]->format))
 694              		.loc 1 391 17 is_stmt 1 discriminator 1 view .LVU243
 392:../Middlewares/screenl/Src/scrl_usb.c ****       return -1;
 695              		.loc 1 392 5 view .LVU244
 696              	.LBB73:
 697              	.LBI73:
 326:../Middlewares/screenl/Src/scrl_usb.c **** {
 698              		.loc 1 326 12 view .LVU245
 699              	.LBB74:
 328:../Middlewares/screenl/Src/scrl_usb.c ****   case SCRL_RGB565:
 700              		.loc 1 328 3 view .LVU246
 701 0072 127A     		ldrb	r2, [r2, #8]	@ zero_extendqisi2
 702              	.LVL50:
 328:../Middlewares/screenl/Src/scrl_usb.c ****   case SCRL_RGB565:
 703              		.loc 1 328 3 is_stmt 0 view .LVU247
 704 0074 12F0FA0F 		tst	r2, #250
 705 0078 40F0A880 		bne	.L38
 706              	.LVL51:
 328:../Middlewares/screenl/Src/scrl_usb.c ****   case SCRL_RGB565:
 707              		.loc 1 328 3 view .LVU248
 708              	.LBE74:
 709              	.LBE73:
 391:../Middlewares/screenl/Src/scrl_usb.c ****     if (!is_layer_format_valid(layers_config[i]->format))
 710              		.loc 1 391 35 is_stmt 1 discriminator 2 view .LVU249
 391:../Middlewares/screenl/Src/scrl_usb.c ****     if (!is_layer_format_valid(layers_config[i]->format))
 711              		.loc 1 391 17 discriminator 1 view .LVU250
 392:../Middlewares/screenl/Src/scrl_usb.c ****       return -1;
 712              		.loc 1 392 5 view .LVU251
 713              	.LBB76:
 326:../Middlewares/screenl/Src/scrl_usb.c **** {
 714              		.loc 1 326 12 view .LVU252
 715              	.LBB75:
 328:../Middlewares/screenl/Src/scrl_usb.c ****   case SCRL_RGB565:
 716              		.loc 1 328 3 view .LVU253
 717 007c 1B7A     		ldrb	r3, [r3, #8]	@ zero_extendqisi2
 718              	.LVL52:
 328:../Middlewares/screenl/Src/scrl_usb.c ****   case SCRL_RGB565:
 719              		.loc 1 328 3 is_stmt 0 view .LVU254
 720 007e 13F0FA0F 		tst	r3, #250
ARM GAS  /tmp/ccN2N8if.s 			page 26


 721 0082 40F0A380 		bne	.L38
 722              	.LVL53:
 328:../Middlewares/screenl/Src/scrl_usb.c ****   case SCRL_RGB565:
 723              		.loc 1 328 3 view .LVU255
 724              	.LBE75:
 725              	.LBE76:
 391:../Middlewares/screenl/Src/scrl_usb.c ****     if (!is_layer_format_valid(layers_config[i]->format))
 726              		.loc 1 391 35 is_stmt 1 discriminator 2 view .LVU256
 391:../Middlewares/screenl/Src/scrl_usb.c ****     if (!is_layer_format_valid(layers_config[i]->format))
 727              		.loc 1 391 17 discriminator 1 view .LVU257
 396:../Middlewares/screenl/Src/scrl_usb.c ****     return -1;
 728              		.loc 1 396 3 view .LVU258
 729              	.LBB77:
 730              	.LBI77:
 339:../Middlewares/screenl/Src/scrl_usb.c **** {
 731              		.loc 1 339 12 view .LVU259
 732              	.LBB78:
 341:../Middlewares/screenl/Src/scrl_usb.c ****   case SCRL_RGB565:
 733              		.loc 1 341 3 view .LVU260
 734 0086 0B79     		ldrb	r3, [r1, #4]	@ zero_extendqisi2
 735 0088 13F0FD0F 		tst	r3, #253
 736 008c 40F09E80 		bne	.L38
 737 0090 4FF48073 		mov	r3, #256
 738              	.LBE78:
 739              	.LBE77:
 740              	.LBE79:
 741              	.LBE80:
 742              	.LBB81:
 743              	.LBB82:
 443:../Middlewares/screenl/Src/scrl_usb.c ****     SCRU_GREEN_CB_LUT[i]        = (((-((int32_t) ((0.3313 ) * (1L << 16)))) * i) + ((int32_t) 1 << 
 744              		.loc 1 443 82 is_stmt 0 view .LVU261
 745 0094 42F62F3B 		movw	fp, #11055
 448:../Middlewares/screenl/Src/scrl_usb.c ****   }
 746              		.loc 1 448 82 view .LVU262
 747 0098 43F001E0 		dls	lr, r3
 748 009c DFF878A1 		ldr	r10, .L45+68
 749 00a0 DFF87891 		ldr	r9, .L45+72
 750 00a4 DFF87881 		ldr	r8, .L45+76
 751 00a8 DFF878C1 		ldr	ip, .L45+80
 752 00ac 494F     		ldr	r7, .L45
 753 00ae 4A4E     		ldr	r6, .L45+4
 754 00b0 4A4D     		ldr	r5, .L45+8
 755 00b2 4B4C     		ldr	r4, .L45+12
 756              	.LVL54:
 757              	.L21:
 440:../Middlewares/screenl/Src/scrl_usb.c ****     SCRU_GREEN_Y_LUT[i]         = ((  ((int32_t) ((0.587 )  * (1L << 16)))  * i) + ((int32_t) 1 << 
 758              		.loc 1 440 5 is_stmt 1 view .LVU263
 440:../Middlewares/screenl/Src/scrl_usb.c ****     SCRU_GREEN_Y_LUT[i]         = ((  ((int32_t) ((0.587 )  * (1L << 16)))  * i) + ((int32_t) 1 << 
 759              		.loc 1 440 82 is_stmt 0 view .LVU264
 760 00b4 4B4A     		ldr	r2, .L45+16
 761 00b6 5A43     		muls	r2, r3, r2
 762 00b8 02F59A02 		add	r2, r2, #5046272
 763 00bc 02F53062 		add	r2, r2, #2816
 440:../Middlewares/screenl/Src/scrl_usb.c ****     SCRU_GREEN_Y_LUT[i]         = ((  ((int32_t) ((0.587 )  * (1L << 16)))  * i) + ((int32_t) 1 << 
 764              		.loc 1 440 111 view .LVU265
 765 00c0 1214     		asrs	r2, r2, #16
 440:../Middlewares/screenl/Src/scrl_usb.c ****     SCRU_GREEN_Y_LUT[i]         = ((  ((int32_t) ((0.587 )  * (1L << 16)))  * i) + ((int32_t) 1 << 
ARM GAS  /tmp/ccN2N8if.s 			page 27


 766              		.loc 1 440 33 view .LVU266
 767 00c2 4AF8042B 		str	r2, [r10], #4
 441:../Middlewares/screenl/Src/scrl_usb.c ****     SCRU_BLUE_Y_LUT[i]          = ((  ((int32_t) ((0.114 )  * (1L << 16)))  * i) + ((int32_t) 1 << 
 768              		.loc 1 441 5 is_stmt 1 view .LVU267
 441:../Middlewares/screenl/Src/scrl_usb.c ****     SCRU_BLUE_Y_LUT[i]          = ((  ((int32_t) ((0.114 )  * (1L << 16)))  * i) + ((int32_t) 1 << 
 769              		.loc 1 441 82 is_stmt 0 view .LVU268
 770 00c6 484A     		ldr	r2, .L45+20
 771 00c8 5A43     		muls	r2, r3, r2
 772 00ca 02F51602 		add	r2, r2, #9830400
 773 00ce 02F54542 		add	r2, r2, #50432
 441:../Middlewares/screenl/Src/scrl_usb.c ****     SCRU_BLUE_Y_LUT[i]          = ((  ((int32_t) ((0.114 )  * (1L << 16)))  * i) + ((int32_t) 1 << 
 774              		.loc 1 441 111 view .LVU269
 775 00d2 1214     		asrs	r2, r2, #16
 441:../Middlewares/screenl/Src/scrl_usb.c ****     SCRU_BLUE_Y_LUT[i]          = ((  ((int32_t) ((0.114 )  * (1L << 16)))  * i) + ((int32_t) 1 << 
 776              		.loc 1 441 33 view .LVU270
 777 00d4 49F8042B 		str	r2, [r9], #4
 442:../Middlewares/screenl/Src/scrl_usb.c ****     SCRU_RED_CB_LUT[i]          = (((-((int32_t) ((0.1687 ) * (1L << 16)))) * i) + ((int32_t) 1 << 
 778              		.loc 1 442 5 is_stmt 1 view .LVU271
 442:../Middlewares/screenl/Src/scrl_usb.c ****     SCRU_RED_CB_LUT[i]          = (((-((int32_t) ((0.1687 ) * (1L << 16)))) * i) + ((int32_t) 1 << 
 779              		.loc 1 442 82 is_stmt 0 view .LVU272
 780 00d8 444A     		ldr	r2, .L45+24
 781 00da 5A43     		muls	r2, r3, r2
 782 00dc 02F5ED12 		add	r2, r2, #1941504
 783 00e0 02F57062 		add	r2, r2, #3840
 442:../Middlewares/screenl/Src/scrl_usb.c ****     SCRU_RED_CB_LUT[i]          = (((-((int32_t) ((0.1687 ) * (1L << 16)))) * i) + ((int32_t) 1 << 
 784              		.loc 1 442 111 view .LVU273
 785 00e4 1214     		asrs	r2, r2, #16
 442:../Middlewares/screenl/Src/scrl_usb.c ****     SCRU_RED_CB_LUT[i]          = (((-((int32_t) ((0.1687 ) * (1L << 16)))) * i) + ((int32_t) 1 << 
 786              		.loc 1 442 33 view .LVU274
 787 00e6 48F8042B 		str	r2, [r8], #4
 443:../Middlewares/screenl/Src/scrl_usb.c ****     SCRU_GREEN_CB_LUT[i]        = (((-((int32_t) ((0.3313 ) * (1L << 16)))) * i) + ((int32_t) 1 << 
 788              		.loc 1 443 5 is_stmt 1 view .LVU275
 443:../Middlewares/screenl/Src/scrl_usb.c ****     SCRU_GREEN_CB_LUT[i]        = (((-((int32_t) ((0.3313 ) * (1L << 16)))) * i) + ((int32_t) 1 << 
 789              		.loc 1 443 82 is_stmt 0 view .LVU276
 790 00ea 0BFB03F2 		mul	r2, fp, r3
 791 00ee A2F52A12 		sub	r2, r2, #2785280
 792 00f2 A2F53C52 		sub	r2, r2, #12032
 443:../Middlewares/screenl/Src/scrl_usb.c ****     SCRU_GREEN_CB_LUT[i]        = (((-((int32_t) ((0.3313 ) * (1L << 16)))) * i) + ((int32_t) 1 << 
 793              		.loc 1 443 111 view .LVU277
 794 00f6 1214     		asrs	r2, r2, #16
 443:../Middlewares/screenl/Src/scrl_usb.c ****     SCRU_GREEN_CB_LUT[i]        = (((-((int32_t) ((0.3313 ) * (1L << 16)))) * i) + ((int32_t) 1 << 
 795              		.loc 1 443 33 view .LVU278
 796 00f8 4CF8042B 		str	r2, [ip], #4
 444:../Middlewares/screenl/Src/scrl_usb.c ****     /* BLUE_CB_LUT and RED_CR_LUT are identical */
 797              		.loc 1 444 5 is_stmt 1 view .LVU279
 444:../Middlewares/screenl/Src/scrl_usb.c ****     /* BLUE_CB_LUT and RED_CR_LUT are identical */
 798              		.loc 1 444 82 is_stmt 0 view .LVU280
 799 00fc 45F2D042 		movw	r2, #21712
 800 0100 5A43     		muls	r2, r3, r2
 801 0102 A2F5A802 		sub	r2, r2, #5505024
 802 0106 A2F5A042 		sub	r2, r2, #20480
 444:../Middlewares/screenl/Src/scrl_usb.c ****     /* BLUE_CB_LUT and RED_CR_LUT are identical */
 803              		.loc 1 444 111 view .LVU281
 804 010a 1214     		asrs	r2, r2, #16
 444:../Middlewares/screenl/Src/scrl_usb.c ****     /* BLUE_CB_LUT and RED_CR_LUT are identical */
 805              		.loc 1 444 33 view .LVU282
 806 010c 47F8042B 		str	r2, [r7], #4
ARM GAS  /tmp/ccN2N8if.s 			page 28


 446:../Middlewares/screenl/Src/scrl_usb.c ****     SCRU_GREEN_CR_LUT[i]        = (((-((int32_t) ((0.4187 ) * (1L << 16)))) * i) + ((int32_t) 1 << 
 807              		.loc 1 446 5 is_stmt 1 view .LVU283
 446:../Middlewares/screenl/Src/scrl_usb.c ****     SCRU_GREEN_CR_LUT[i]        = (((-((int32_t) ((0.4187 ) * (1L << 16)))) * i) + ((int32_t) 1 << 
 808              		.loc 1 446 82 is_stmt 0 view .LVU284
 809 0110 C3EB4342 		rsb	r2, r3, r3, lsl #17
 810 0114 D203     		lsls	r2, r2, #15
 811 0116 02F50002 		add	r2, r2, #8388608
 812 011a 02F50042 		add	r2, r2, #32768
 446:../Middlewares/screenl/Src/scrl_usb.c ****     SCRU_GREEN_CR_LUT[i]        = (((-((int32_t) ((0.4187 ) * (1L << 16)))) * i) + ((int32_t) 1 << 
 813              		.loc 1 446 111 view .LVU285
 814 011e 1214     		asrs	r2, r2, #16
 446:../Middlewares/screenl/Src/scrl_usb.c ****     SCRU_GREEN_CR_LUT[i]        = (((-((int32_t) ((0.4187 ) * (1L << 16)))) * i) + ((int32_t) 1 << 
 815              		.loc 1 446 33 view .LVU286
 816 0120 46F8042B 		str	r2, [r6], #4
 447:../Middlewares/screenl/Src/scrl_usb.c ****     SCRU_BLUE_CR_LUT[i]         = (((-((int32_t) ((0.0813 ) * (1L << 16)))) * i) + ((int32_t) 1 << 
 817              		.loc 1 447 5 is_stmt 1 view .LVU287
 447:../Middlewares/screenl/Src/scrl_usb.c ****     SCRU_BLUE_CR_LUT[i]         = (((-((int32_t) ((0.0813 ) * (1L << 16)))) * i) + ((int32_t) 1 << 
 818              		.loc 1 447 82 is_stmt 0 view .LVU288
 819 0124 46F62F32 		movw	r2, #27439
 820 0128 5A43     		muls	r2, r3, r2
 821 012a A2F5D502 		sub	r2, r2, #6979584
 822 012e A2F53C52 		sub	r2, r2, #12032
 447:../Middlewares/screenl/Src/scrl_usb.c ****     SCRU_BLUE_CR_LUT[i]         = (((-((int32_t) ((0.0813 ) * (1L << 16)))) * i) + ((int32_t) 1 << 
 823              		.loc 1 447 111 view .LVU289
 824 0132 1214     		asrs	r2, r2, #16
 447:../Middlewares/screenl/Src/scrl_usb.c ****     SCRU_BLUE_CR_LUT[i]         = (((-((int32_t) ((0.0813 ) * (1L << 16)))) * i) + ((int32_t) 1 << 
 825              		.loc 1 447 33 view .LVU290
 826 0134 45F8042B 		str	r2, [r5], #4
 448:../Middlewares/screenl/Src/scrl_usb.c ****   }
 827              		.loc 1 448 5 is_stmt 1 view .LVU291
 448:../Middlewares/screenl/Src/scrl_usb.c ****   }
 828              		.loc 1 448 82 is_stmt 0 view .LVU292
 829 0138 41F2D042 		movw	r2, #5328
 830 013c 5A43     		muls	r2, r3, r2
 831 013e A2F5A212 		sub	r2, r2, #1327104
 832 0142 A2F58052 		sub	r2, r2, #4096
 448:../Middlewares/screenl/Src/scrl_usb.c ****   }
 833              		.loc 1 448 111 view .LVU293
 834 0146 1214     		asrs	r2, r2, #16
 448:../Middlewares/screenl/Src/scrl_usb.c ****   }
 835              		.loc 1 448 33 view .LVU294
 836 0148 44F8042B 		str	r2, [r4], #4
 438:../Middlewares/screenl/Src/scrl_usb.c ****   {
 837              		.loc 1 438 26 is_stmt 1 discriminator 3 view .LVU295
 838              	.LVL55:
 438:../Middlewares/screenl/Src/scrl_usb.c ****   {
 839              		.loc 1 438 17 discriminator 1 view .LVU296
 840 014c 013B     		subs	r3, r3, #1
 841              	.LVL56:
 438:../Middlewares/screenl/Src/scrl_usb.c ****   {
 842              		.loc 1 438 17 is_stmt 0 discriminator 1 view .LVU297
 843 014e 0FF04FC8 		le	lr, .L21
 844              	.LVL57:
 438:../Middlewares/screenl/Src/scrl_usb.c ****   {
 845              		.loc 1 438 17 discriminator 1 view .LVU298
 846              	.LBE82:
 847              	.LBE81:
ARM GAS  /tmp/ccN2N8if.s 			page 29


 458:../Middlewares/screenl/Src/scrl_usb.c ****   if (ret)
 459:../Middlewares/screenl/Src/scrl_usb.c ****     return ret;
 460:../Middlewares/screenl/Src/scrl_usb.c **** 
 461:../Middlewares/screenl/Src/scrl_usb.c ****   SCRL_Init_Lut();
 462:../Middlewares/screenl/Src/scrl_usb.c **** 
 463:../Middlewares/screenl/Src/scrl_usb.c ****   ret = SCRC_Init(layers_config, screen_config, &ctx->common);
 848              		.loc 1 463 3 is_stmt 1 view .LVU299
 849              		.loc 1 463 9 is_stmt 0 view .LVU300
 850 0152 274D     		ldr	r5, .L45+28
 851 0154 2A46     		mov	r2, r5
 852 0156 FFF7FEFF 		bl	SCRC_Init
 853              	.LVL58:
 464:../Middlewares/screenl/Src/scrl_usb.c ****   if (ret)
 854              		.loc 1 464 3 is_stmt 1 view .LVU301
 855              		.loc 1 464 6 is_stmt 0 view .LVU302
 856 015a 0446     		mov	r4, r0
 857 015c 0028     		cmp	r0, #0
 858 015e 31D1     		bne	.L19
 465:../Middlewares/screenl/Src/scrl_usb.c ****     return ret;
 466:../Middlewares/screenl/Src/scrl_usb.c **** 
 467:../Middlewares/screenl/Src/scrl_usb.c ****   ctx->usb_cbs.frame_release = usb_frame_release_cb;
 859              		.loc 1 467 3 is_stmt 1 view .LVU303
 468:../Middlewares/screenl/Src/scrl_usb.c ****   ctx->is_screen_ready_to_update = 1;
 860              		.loc 1 468 34 is_stmt 0 view .LVU304
 861 0160 0126     		movs	r6, #1
 467:../Middlewares/screenl/Src/scrl_usb.c ****   ctx->is_screen_ready_to_update = 1;
 862              		.loc 1 467 30 view .LVU305
 863 0162 244B     		ldr	r3, .L45+32
 864              	.LBB83:
 865              	.LBB84:
 313:../Middlewares/screenl/Src/scrl_usb.c ****   int ret;
 866              		.loc 1 313 15 view .LVU306
 867 0164 0146     		mov	r1, r0
 868 0166 A822     		movs	r2, #168
 869 0168 6846     		mov	r0, sp
 870              	.LVL59:
 313:../Middlewares/screenl/Src/scrl_usb.c ****   int ret;
 871              		.loc 1 313 15 view .LVU307
 872              	.LBE84:
 873              	.LBE83:
 467:../Middlewares/screenl/Src/scrl_usb.c ****   ctx->is_screen_ready_to_update = 1;
 874              		.loc 1 467 30 view .LVU308
 875 016a C5F8B430 		str	r3, [r5, #180]
 876              		.loc 1 468 3 is_stmt 1 view .LVU309
 877              		.loc 1 468 34 is_stmt 0 view .LVU310
 878 016e C5F8B860 		str	r6, [r5, #184]
 469:../Middlewares/screenl/Src/scrl_usb.c **** 
 470:../Middlewares/screenl/Src/scrl_usb.c ****   SCRU_usb_init(USB1_OTG_HS, ctx);
 879              		.loc 1 470 3 is_stmt 1 view .LVU311
 880              	.LBB90:
 881              	.LBI83:
 311:../Middlewares/screenl/Src/scrl_usb.c **** {
 882              		.loc 1 311 13 view .LVU312
 883              	.LVL60:
 884              	.LBB89:
 313:../Middlewares/screenl/Src/scrl_usb.c ****   int ret;
 885              		.loc 1 313 3 view .LVU313
ARM GAS  /tmp/ccN2N8if.s 			page 30


 313:../Middlewares/screenl/Src/scrl_usb.c ****   int ret;
 886              		.loc 1 313 15 is_stmt 0 view .LVU314
 887 0172 FFF7FEFF 		bl	memset
 888              	.LVL61:
 314:../Middlewares/screenl/Src/scrl_usb.c **** 
 889              		.loc 1 314 3 is_stmt 1 view .LVU315
 316:../Middlewares/screenl/Src/scrl_usb.c ****   conf.streams[0].height = ctx->common.screen.size.height;
 890              		.loc 1 316 3 view .LVU316
 316:../Middlewares/screenl/Src/scrl_usb.c ****   conf.streams[0].height = ctx->common.screen.size.height;
 891              		.loc 1 316 50 is_stmt 0 view .LVU317
 892 0176 2B8C     		ldrh	r3, [r5, #32]
 893 0178 0193     		str	r3, [sp, #4]
 317:../Middlewares/screenl/Src/scrl_usb.c ****   conf.streams[0].fps = ctx->common.screen.fps;
 894              		.loc 1 317 3 is_stmt 1 view .LVU318
 317:../Middlewares/screenl/Src/scrl_usb.c ****   conf.streams[0].fps = ctx->common.screen.fps;
 895              		.loc 1 317 51 is_stmt 0 view .LVU319
 896 017a 6B8C     		ldrh	r3, [r5, #34]
 897 017c 0293     		str	r3, [sp, #8]
 318:../Middlewares/screenl/Src/scrl_usb.c ****   conf.streams[0].payload_type = cvt_uvcl_payload_format(ctx->common.screen.format);
 898              		.loc 1 318 3 is_stmt 1 view .LVU320
 318:../Middlewares/screenl/Src/scrl_usb.c ****   conf.streams[0].payload_type = cvt_uvcl_payload_format(ctx->common.screen.format);
 899              		.loc 1 318 43 is_stmt 0 view .LVU321
 900 017e AB8D     		ldrh	r3, [r5, #44]
 901 0180 0393     		str	r3, [sp, #12]
 319:../Middlewares/screenl/Src/scrl_usb.c ****   conf.streams_nb = 1;
 902              		.loc 1 319 3 is_stmt 1 view .LVU322
 319:../Middlewares/screenl/Src/scrl_usb.c ****   conf.streams_nb = 1;
 903              		.loc 1 319 34 is_stmt 0 view .LVU323
 904 0182 95F82430 		ldrb	r3, [r5, #36]	@ zero_extendqisi2
 905              	.LVL62:
 906              	.LBB85:
 907              	.LBI85:
  98:../Middlewares/screenl/Src/scrl_usb.c **** {
 908              		.loc 1 98 12 is_stmt 1 view .LVU324
 909              	.LBB86:
 100:../Middlewares/screenl/Src/scrl_usb.c ****   case SCRL_RGB565:
 910              		.loc 1 100 3 view .LVU325
 911 0186 3BB1     		cbz	r3, .L39
 912 0188 022B     		cmp	r3, #2
 913 018a 06D0     		beq	.L22
 106:../Middlewares/screenl/Src/scrl_usb.c ****   }
 914              		.loc 1 106 5 view .LVU326
 915 018c 6A21     		movs	r1, #106
 916 018e 1A4B     		ldr	r3, .L45+36
 917              	.LVL63:
 106:../Middlewares/screenl/Src/scrl_usb.c ****   }
 918              		.loc 1 106 5 is_stmt 0 view .LVU327
 919 0190 1A4A     		ldr	r2, .L45+40
 920              	.LVL64:
 921              	.L44:
 106:../Middlewares/screenl/Src/scrl_usb.c ****   }
 922              		.loc 1 106 5 view .LVU328
 923              	.LBE86:
 924              	.LBE85:
 323:../Middlewares/screenl/Src/scrl_usb.c **** }
 925              		.loc 1 323 3 discriminator 1 view .LVU329
 926 0192 1B48     		ldr	r0, .L45+44
ARM GAS  /tmp/ccN2N8if.s 			page 31


 927 0194 FFF7FEFF 		bl	__assert_func
 928              	.LVL65:
 929              	.L39:
 930              	.LBB88:
 931              	.LBB87:
 102:../Middlewares/screenl/Src/scrl_usb.c ****   case SCRL_YUV422:
 932              		.loc 1 102 12 view .LVU330
 933 0198 0224     		movs	r4, #2
 934              	.LVL66:
 935              	.L22:
 102:../Middlewares/screenl/Src/scrl_usb.c ****   case SCRL_YUV422:
 936              		.loc 1 102 12 view .LVU331
 937              	.LBE87:
 938              	.LBE88:
 322:../Middlewares/screenl/Src/scrl_usb.c ****   assert(ret == 0);
 939              		.loc 1 322 9 view .LVU332
 940 019a 6946     		mov	r1, sp
 941 019c 194A     		ldr	r2, .L45+48
 942 019e 1A48     		ldr	r0, .L45+52
 319:../Middlewares/screenl/Src/scrl_usb.c ****   conf.streams_nb = 1;
 943              		.loc 1 319 32 discriminator 1 view .LVU333
 944 01a0 0094     		str	r4, [sp]
 320:../Middlewares/screenl/Src/scrl_usb.c ****   conf.is_immediate_mode = 1;
 945              		.loc 1 320 3 is_stmt 1 view .LVU334
 321:../Middlewares/screenl/Src/scrl_usb.c ****   ret = UVCL_Init(pcd_instance, &conf, &ctx->usb_cbs);
 946              		.loc 1 321 26 is_stmt 0 view .LVU335
 947 01a2 CDE92866 		strd	r6, r6, [sp, #160]
 322:../Middlewares/screenl/Src/scrl_usb.c ****   assert(ret == 0);
 948              		.loc 1 322 3 is_stmt 1 view .LVU336
 322:../Middlewares/screenl/Src/scrl_usb.c ****   assert(ret == 0);
 949              		.loc 1 322 9 is_stmt 0 view .LVU337
 950 01a6 FFF7FEFF 		bl	UVCL_Init
 951              	.LVL67:
 323:../Middlewares/screenl/Src/scrl_usb.c **** }
 952              		.loc 1 323 3 is_stmt 1 view .LVU338
 953 01aa 0446     		mov	r4, r0
 954 01ac 20B1     		cbz	r0, .L23
 323:../Middlewares/screenl/Src/scrl_usb.c **** }
 955              		.loc 1 323 3 is_stmt 0 discriminator 1 view .LVU339
 956 01ae 40F24311 		movw	r1, #323
 957 01b2 164B     		ldr	r3, .L45+56
 958 01b4 164A     		ldr	r2, .L45+60
 959 01b6 ECE7     		b	.L44
 960              	.L23:
 961              	.LVL68:
 323:../Middlewares/screenl/Src/scrl_usb.c **** }
 962              		.loc 1 323 3 discriminator 1 view .LVU340
 963              	.LBE89:
 964              	.LBE90:
 471:../Middlewares/screenl/Src/scrl_usb.c **** 
 472:../Middlewares/screenl/Src/scrl_usb.c ****   UTIL_LCD_SetFuncDriver(&Common_Driver);
 965              		.loc 1 472 3 is_stmt 1 view .LVU341
 966 01b8 1648     		ldr	r0, .L45+64
 967 01ba FFF7FEFF 		bl	UTIL_LCD_SetFuncDriver
 968              	.LVL69:
 473:../Middlewares/screenl/Src/scrl_usb.c ****   UTIL_LCD_SetDevice((uint32_t) &ctx->common);
 969              		.loc 1 473 3 view .LVU342
ARM GAS  /tmp/ccN2N8if.s 			page 32


 970 01be 0C48     		ldr	r0, .L45+28
 971 01c0 FFF7FEFF 		bl	UTIL_LCD_SetDevice
 972              	.LVL70:
 474:../Middlewares/screenl/Src/scrl_usb.c **** 
 475:../Middlewares/screenl/Src/scrl_usb.c **** #ifdef SCR_LIB_USE_THREADX
 476:../Middlewares/screenl/Src/scrl_usb.c ****   SCRL_Init_threadx(ctx);
 477:../Middlewares/screenl/Src/scrl_usb.c **** #elif defined(SCR_LIB_USE_FREERTOS)
 478:../Middlewares/screenl/Src/scrl_usb.c ****   SCRL_Init_freertos(ctx);
 479:../Middlewares/screenl/Src/scrl_usb.c **** #endif
 480:../Middlewares/screenl/Src/scrl_usb.c **** 
 481:../Middlewares/screenl/Src/scrl_usb.c ****   return 0;
 973              		.loc 1 481 3 view .LVU343
 974              	.L19:
 482:../Middlewares/screenl/Src/scrl_usb.c **** }
 975              		.loc 1 482 1 is_stmt 0 view .LVU344
 976 01c4 2046     		mov	r0, r4
 977 01c6 2BB0     		add	sp, sp, #172
 978              		.cfi_remember_state
 979              		.cfi_def_cfa_offset 36
 980              		@ sp needed
 981 01c8 BDE8F08F 		pop	{r4, r5, r6, r7, r8, r9, r10, fp, pc}
 982              	.LVL71:
 983              	.L38:
 984              		.cfi_restore_state
 459:../Middlewares/screenl/Src/scrl_usb.c **** 
 985              		.loc 1 459 12 view .LVU345
 986 01cc 4FF0FF34 		mov	r4, #-1
 987              	.LVL72:
 459:../Middlewares/screenl/Src/scrl_usb.c **** 
 988              		.loc 1 459 12 view .LVU346
 989 01d0 F8E7     		b	.L19
 990              	.L46:
 991 01d2 00BF     		.align	2
 992              	.L45:
 993 01d4 00000000 		.word	SCRU_GREEN_CB_LUT
 994 01d8 00000000 		.word	SCRU_BLUE_CB_RED_CR_LUT
 995 01dc 00000000 		.word	SCRU_GREEN_CR_LUT
 996 01e0 00000000 		.word	SCRU_BLUE_CR_LUT
 997 01e4 75B3FFFF 		.word	-19595
 998 01e8 BB69FFFF 		.word	-38469
 999 01ec D1E2FFFF 		.word	-7471
 1000 01f0 00000000 		.word	scrl_ctx
 1001 01f4 00000000 		.word	usb_frame_release_cb
 1002 01f8 00000000 		.word	.LC0
 1003 01fc 00000000 		.word	__func__.1
 1004 0200 02000000 		.word	.LC1
 1005 0204 AC000000 		.word	scrl_ctx+172
 1006 0208 00000458 		.word	1476657152
 1007 020c 00000000 		.word	.LC2
 1008 0210 00000000 		.word	__func__.2
 1009 0214 00000000 		.word	Common_Driver
 1010 0218 00000000 		.word	SCRU_RED_Y_LUT
 1011 021c 00000000 		.word	SCRU_GREEN_Y_LUT
 1012 0220 00000000 		.word	SCRU_BLUE_Y_LUT
 1013 0224 00000000 		.word	SCRU_RED_CB_LUT
 1014              		.cfi_endproc
 1015              	.LFE899:
ARM GAS  /tmp/ccN2N8if.s 			page 33


 1017              		.section	.text.SCRL_SetAddress_NoReload,"ax",%progbits
 1018              		.align	1
 1019              		.global	SCRL_SetAddress_NoReload
 1020              		.syntax unified
 1021              		.thumb
 1022              		.thumb_func
 1024              	SCRL_SetAddress_NoReload:
 1025              	.LVL73:
 1026              	.LFB900:
 483:../Middlewares/screenl/Src/scrl_usb.c **** 
 484:../Middlewares/screenl/Src/scrl_usb.c **** int SCRL_SetAddress_NoReload(void *address, SCRL_Layer layer)
 485:../Middlewares/screenl/Src/scrl_usb.c **** {
 1027              		.loc 1 485 1 is_stmt 1 view -0
 1028              		.cfi_startproc
 1029              		@ args = 0, pretend = 0, frame = 0
 1030              		@ frame_needed = 0, uses_anonymous_args = 0
 1031              		@ link register save eliminated.
 486:../Middlewares/screenl/Src/scrl_usb.c ****   struct scrl_usb_ctx *ctx = &scrl_ctx;
 1032              		.loc 1 486 3 view .LVU348
 487:../Middlewares/screenl/Src/scrl_usb.c **** 
 488:../Middlewares/screenl/Src/scrl_usb.c ****   ctx->common.layers[layer].address = address;
 1033              		.loc 1 488 3 view .LVU349
 1034              		.loc 1 488 37 is_stmt 0 view .LVU350
 1035 0000 024B     		ldr	r3, .L48
 1036 0002 03EB0113 		add	r3, r3, r1, lsl #4
 1037 0006 D860     		str	r0, [r3, #12]
 489:../Middlewares/screenl/Src/scrl_usb.c **** 
 490:../Middlewares/screenl/Src/scrl_usb.c ****   return 0;
 1038              		.loc 1 490 3 is_stmt 1 view .LVU351
 491:../Middlewares/screenl/Src/scrl_usb.c **** }
 1039              		.loc 1 491 1 is_stmt 0 view .LVU352
 1040 0008 0020     		movs	r0, #0
 1041              	.LVL74:
 1042              		.loc 1 491 1 view .LVU353
 1043 000a 7047     		bx	lr
 1044              	.L49:
 1045              		.align	2
 1046              	.L48:
 1047 000c 00000000 		.word	scrl_ctx
 1048              		.cfi_endproc
 1049              	.LFE900:
 1051              		.section	.text.SCRL_ReloadLayer,"ax",%progbits
 1052              		.align	1
 1053              		.global	SCRL_ReloadLayer
 1054              		.syntax unified
 1055              		.thumb
 1056              		.thumb_func
 1058              	SCRL_ReloadLayer:
 1059              	.LVL75:
 1060              	.LFB901:
 492:../Middlewares/screenl/Src/scrl_usb.c **** 
 493:../Middlewares/screenl/Src/scrl_usb.c **** int SCRL_ReloadLayer(SCRL_Layer layer)
 494:../Middlewares/screenl/Src/scrl_usb.c **** {
 1061              		.loc 1 494 1 is_stmt 1 view -0
 1062              		.cfi_startproc
 1063              		@ args = 0, pretend = 0, frame = 0
 1064              		@ frame_needed = 0, uses_anonymous_args = 0
ARM GAS  /tmp/ccN2N8if.s 			page 34


 1065              		@ link register save eliminated.
 495:../Middlewares/screenl/Src/scrl_usb.c ****   struct scrl_usb_ctx *ctx = &scrl_ctx;
 1066              		.loc 1 495 3 view .LVU355
 496:../Middlewares/screenl/Src/scrl_usb.c **** 
 497:../Middlewares/screenl/Src/scrl_usb.c ****   ctx->common.display_address[layer] = ctx->common.layers[layer].address;
 1067              		.loc 1 497 3 view .LVU356
 1068              		.loc 1 497 38 is_stmt 0 view .LVU357
 1069 0000 044B     		ldr	r3, .L51
 1070 0002 03EB8002 		add	r2, r3, r0, lsl #2
 1071              		.loc 1 497 65 view .LVU358
 1072 0006 03EB0013 		add	r3, r3, r0, lsl #4
 1073              		.loc 1 497 38 view .LVU359
 1074 000a DB68     		ldr	r3, [r3, #12]
 498:../Middlewares/screenl/Src/scrl_usb.c **** 
 499:../Middlewares/screenl/Src/scrl_usb.c ****   return 0;
 500:../Middlewares/screenl/Src/scrl_usb.c **** }
 1075              		.loc 1 500 1 view .LVU360
 1076 000c 0020     		movs	r0, #0
 1077              	.LVL76:
 497:../Middlewares/screenl/Src/scrl_usb.c **** 
 1078              		.loc 1 497 38 view .LVU361
 1079 000e C2F8A430 		str	r3, [r2, #164]
 499:../Middlewares/screenl/Src/scrl_usb.c **** }
 1080              		.loc 1 499 3 is_stmt 1 view .LVU362
 1081              		.loc 1 500 1 is_stmt 0 view .LVU363
 1082 0012 7047     		bx	lr
 1083              	.L52:
 1084              		.align	2
 1085              	.L51:
 1086 0014 00000000 		.word	scrl_ctx
 1087              		.cfi_endproc
 1088              	.LFE901:
 1090              		.section	.text.SRCL_Update,"ax",%progbits
 1091              		.align	1
 1092              		.global	SRCL_Update
 1093              		.syntax unified
 1094              		.thumb
 1095              		.thumb_func
 1097              	SRCL_Update:
 1098              	.LFB902:
 501:../Middlewares/screenl/Src/scrl_usb.c **** 
 502:../Middlewares/screenl/Src/scrl_usb.c **** int SRCL_Update(void)
 503:../Middlewares/screenl/Src/scrl_usb.c **** {
 1099              		.loc 1 503 1 is_stmt 1 view -0
 1100              		.cfi_startproc
 1101              		@ args = 0, pretend = 0, frame = 0
 1102              		@ frame_needed = 0, uses_anonymous_args = 0
 504:../Middlewares/screenl/Src/scrl_usb.c ****   struct scrl_usb_ctx *ctx = &scrl_ctx;
 1103              		.loc 1 504 3 view .LVU365
 1104              	.LVL77:
 505:../Middlewares/screenl/Src/scrl_usb.c ****   int ret = 0;
 1105              		.loc 1 505 3 view .LVU366
 506:../Middlewares/screenl/Src/scrl_usb.c **** 
 507:../Middlewares/screenl/Src/scrl_usb.c **** #ifdef SCR_LIB_USE_THREADX
 508:../Middlewares/screenl/Src/scrl_usb.c ****   tx_semaphore_ceiling_put(&ctx->update_sem, 1);
 509:../Middlewares/screenl/Src/scrl_usb.c **** #elif defined(SCR_LIB_USE_FREERTOS)
 510:../Middlewares/screenl/Src/scrl_usb.c ****   xSemaphoreGive(ctx->update_sem);
ARM GAS  /tmp/ccN2N8if.s 			page 35


 511:../Middlewares/screenl/Src/scrl_usb.c **** #else
 512:../Middlewares/screenl/Src/scrl_usb.c ****   ret = start_composition(ctx);
 1106              		.loc 1 512 3 view .LVU367
 1107              	.LBB93:
 1108              	.LBI93:
 292:../Middlewares/screenl/Src/scrl_usb.c **** {
 1109              		.loc 1 292 12 view .LVU368
 1110              	.LBB94:
 294:../Middlewares/screenl/Src/scrl_usb.c ****       return 0;
 1111              		.loc 1 294 3 view .LVU369
 294:../Middlewares/screenl/Src/scrl_usb.c ****       return 0;
 1112              		.loc 1 294 11 is_stmt 0 view .LVU370
 1113 0000 0548     		ldr	r0, .L58
 1114              	.LBE94:
 1115              	.LBE93:
 503:../Middlewares/screenl/Src/scrl_usb.c ****   struct scrl_usb_ctx *ctx = &scrl_ctx;
 1116              		.loc 1 503 1 view .LVU371
 1117 0002 08B5     		push	{r3, lr}
 1118              		.cfi_def_cfa_offset 8
 1119              		.cfi_offset 3, -8
 1120              		.cfi_offset 14, -4
 1121              	.LBB96:
 1122              	.LBB95:
 294:../Middlewares/screenl/Src/scrl_usb.c ****       return 0;
 1123              		.loc 1 294 6 view .LVU372
 1124 0004 D0F8B830 		ldr	r3, [r0, #184]
 1125 0008 23B1     		cbz	r3, .L54
 297:../Middlewares/screenl/Src/scrl_usb.c ****   SCRC_Composition_Start(&ctx->common, 0);
 1126              		.loc 1 297 3 is_stmt 1 view .LVU373
 297:../Middlewares/screenl/Src/scrl_usb.c ****   SCRC_Composition_Start(&ctx->common, 0);
 1127              		.loc 1 297 34 is_stmt 0 view .LVU374
 1128 000a 0021     		movs	r1, #0
 1129 000c C0F8B810 		str	r1, [r0, #184]
 298:../Middlewares/screenl/Src/scrl_usb.c **** 
 1130              		.loc 1 298 3 is_stmt 1 view .LVU375
 1131 0010 FFF7FEFF 		bl	SCRC_Composition_Start
 1132              	.LVL78:
 300:../Middlewares/screenl/Src/scrl_usb.c **** }
 1133              		.loc 1 300 3 view .LVU376
 1134              	.L54:
 300:../Middlewares/screenl/Src/scrl_usb.c **** }
 1135              		.loc 1 300 3 is_stmt 0 view .LVU377
 1136              	.LBE95:
 1137              	.LBE96:
 513:../Middlewares/screenl/Src/scrl_usb.c **** #endif
 514:../Middlewares/screenl/Src/scrl_usb.c **** 
 515:../Middlewares/screenl/Src/scrl_usb.c ****   return ret;
 1138              		.loc 1 515 3 is_stmt 1 view .LVU378
 516:../Middlewares/screenl/Src/scrl_usb.c **** }
 1139              		.loc 1 516 1 is_stmt 0 view .LVU379
 1140 0014 0020     		movs	r0, #0
 1141 0016 08BD     		pop	{r3, pc}
 1142              	.L59:
 1143              		.align	2
 1144              	.L58:
 1145 0018 00000000 		.word	scrl_ctx
 1146              		.cfi_endproc
ARM GAS  /tmp/ccN2N8if.s 			page 36


 1147              	.LFE902:
 1149              		.section	.rodata.HAL_PCD_MspInit.str1.1,"aMS",%progbits,1
 1150              	.LC3:
 1151 0000 68706364 		.ascii	"hpcd == &uvcl_pcd_handle\000"
 1151      203D3D20 
 1151      26757663 
 1151      6C5F7063 
 1151      645F6861 
 1152              	.LC4:
 1153 0019 68706364 		.ascii	"hpcd->Instance == USB1_OTG_HS\000"
 1153      2D3E496E 
 1153      7374616E 
 1153      6365203D 
 1153      3D205553 
 1154              		.section	.text.HAL_PCD_MspInit,"ax",%progbits
 1155              		.align	1
 1156              		.global	HAL_PCD_MspInit
 1157              		.syntax unified
 1158              		.thumb
 1159              		.thumb_func
 1161              	HAL_PCD_MspInit:
 1162              	.LVL79:
 1163              	.LFB903:
 517:../Middlewares/screenl/Src/scrl_usb.c **** 
 518:../Middlewares/screenl/Src/scrl_usb.c **** void HAL_PCD_MspInit(PCD_HandleTypeDef *hpcd)
 519:../Middlewares/screenl/Src/scrl_usb.c **** {
 1164              		.loc 1 519 1 is_stmt 1 view -0
 1165              		.cfi_startproc
 1166              		@ args = 0, pretend = 0, frame = 24
 1167              		@ frame_needed = 0, uses_anonymous_args = 0
 520:../Middlewares/screenl/Src/scrl_usb.c ****   assert(hpcd == &uvcl_pcd_handle);
 1168              		.loc 1 520 3 view .LVU381
 519:../Middlewares/screenl/Src/scrl_usb.c ****   assert(hpcd == &uvcl_pcd_handle);
 1169              		.loc 1 519 1 is_stmt 0 view .LVU382
 1170 0000 10B5     		push	{r4, lr}
 1171              		.cfi_def_cfa_offset 8
 1172              		.cfi_offset 4, -8
 1173              		.cfi_offset 14, -4
 1174              		.loc 1 520 3 view .LVU383
 1175 0002 2D4B     		ldr	r3, .L67
 519:../Middlewares/screenl/Src/scrl_usb.c ****   assert(hpcd == &uvcl_pcd_handle);
 1176              		.loc 1 519 1 view .LVU384
 1177 0004 86B0     		sub	sp, sp, #24
 1178              		.cfi_def_cfa_offset 32
 1179              		.loc 1 520 3 view .LVU385
 1180 0006 9842     		cmp	r0, r3
 1181 0008 06D0     		beq	.L61
 1182              		.loc 1 520 3 discriminator 1 view .LVU386
 1183 000a 4FF40271 		mov	r1, #520
 1184 000e 2B4B     		ldr	r3, .L67+4
 1185 0010 2B4A     		ldr	r2, .L67+8
 1186              	.L66:
 521:../Middlewares/screenl/Src/scrl_usb.c ****   assert(hpcd->Instance == USB1_OTG_HS);
 1187              		.loc 1 521 3 discriminator 1 view .LVU387
 1188 0012 2C48     		ldr	r0, .L67+12
 1189              	.LVL80:
 1190              		.loc 1 521 3 discriminator 1 view .LVU388
ARM GAS  /tmp/ccN2N8if.s 			page 37


 1191 0014 FFF7FEFF 		bl	__assert_func
 1192              	.LVL81:
 1193              	.L61:
 1194              		.loc 1 521 3 is_stmt 1 view .LVU389
 1195 0018 0268     		ldr	r2, [r0]
 1196 001a 2B4B     		ldr	r3, .L67+16
 1197 001c 9A42     		cmp	r2, r3
 1198 001e 04D0     		beq	.L62
 1199              		.loc 1 521 3 is_stmt 0 discriminator 1 view .LVU390
 1200 0020 40F20921 		movw	r1, #521
 1201 0024 294B     		ldr	r3, .L67+20
 1202 0026 264A     		ldr	r2, .L67+8
 1203 0028 F3E7     		b	.L66
 1204              	.L62:
 522:../Middlewares/screenl/Src/scrl_usb.c **** 
 523:../Middlewares/screenl/Src/scrl_usb.c ****   __HAL_RCC_PWR_CLK_ENABLE();
 1205              		.loc 1 523 3 is_stmt 1 view .LVU391
 1206              	.LBB109:
 1207              	.LBI109:
 1208              		.file 2 "../STM32Cube_FW_N6/Drivers/STM32N6xx_HAL_Driver/Inc/stm32n6xx_ll_bus.h"
   1:../STM32Cube_FW_N6/Drivers/STM32N6xx_HAL_Driver/Inc/stm32n6xx_ll_bus.h **** /**
   2:../STM32Cube_FW_N6/Drivers/STM32N6xx_HAL_Driver/Inc/stm32n6xx_ll_bus.h ****   ******************************************************************************
   3:../STM32Cube_FW_N6/Drivers/STM32N6xx_HAL_Driver/Inc/stm32n6xx_ll_bus.h ****   * @file    stm32n6xx_ll_bus.h
   4:../STM32Cube_FW_N6/Drivers/STM32N6xx_HAL_Driver/Inc/stm32n6xx_ll_bus.h ****   * @author  MCD Application Team
   5:../STM32Cube_FW_N6/Drivers/STM32N6xx_HAL_Driver/Inc/stm32n6xx_ll_bus.h ****   * @brief   Header file of BUS LL module.
   6:../STM32Cube_FW_N6/Drivers/STM32N6xx_HAL_Driver/Inc/stm32n6xx_ll_bus.h ****   ******************************************************************************
   7:../STM32Cube_FW_N6/Drivers/STM32N6xx_HAL_Driver/Inc/stm32n6xx_ll_bus.h ****   * @attention
   8:../STM32Cube_FW_N6/Drivers/STM32N6xx_HAL_Driver/Inc/stm32n6xx_ll_bus.h ****   *
   9:../STM32Cube_FW_N6/Drivers/STM32N6xx_HAL_Driver/Inc/stm32n6xx_ll_bus.h ****   * Copyright (c) 2023 STMicroelectronics.
  10:../STM32Cube_FW_N6/Drivers/STM32N6xx_HAL_Driver/Inc/stm32n6xx_ll_bus.h ****   * All rights reserved.
  11:../STM32Cube_FW_N6/Drivers/STM32N6xx_HAL_Driver/Inc/stm32n6xx_ll_bus.h ****   *
  12:../STM32Cube_FW_N6/Drivers/STM32N6xx_HAL_Driver/Inc/stm32n6xx_ll_bus.h ****   * This software is licensed under terms that can be found in the LICENSE file
  13:../STM32Cube_FW_N6/Drivers/STM32N6xx_HAL_Driver/Inc/stm32n6xx_ll_bus.h ****   * in the root directory of this software component.
  14:../STM32Cube_FW_N6/Drivers/STM32N6xx_HAL_Driver/Inc/stm32n6xx_ll_bus.h ****   * If no LICENSE file comes with this software, it is provided AS-IS.
  15:../STM32Cube_FW_N6/Drivers/STM32N6xx_HAL_Driver/Inc/stm32n6xx_ll_bus.h ****   *
  16:../STM32Cube_FW_N6/Drivers/STM32N6xx_HAL_Driver/Inc/stm32n6xx_ll_bus.h ****   ******************************************************************************
  17:../STM32Cube_FW_N6/Drivers/STM32N6xx_HAL_Driver/Inc/stm32n6xx_ll_bus.h ****   @verbatim
  18:../STM32Cube_FW_N6/Drivers/STM32N6xx_HAL_Driver/Inc/stm32n6xx_ll_bus.h ****                       ##### RCC Limitations #####
  19:../STM32Cube_FW_N6/Drivers/STM32N6xx_HAL_Driver/Inc/stm32n6xx_ll_bus.h ****   ==============================================================================
  20:../STM32Cube_FW_N6/Drivers/STM32N6xx_HAL_Driver/Inc/stm32n6xx_ll_bus.h ****     [..]
  21:../STM32Cube_FW_N6/Drivers/STM32N6xx_HAL_Driver/Inc/stm32n6xx_ll_bus.h ****       A delay between an RCC peripheral clock enable and the effective peripheral
  22:../STM32Cube_FW_N6/Drivers/STM32N6xx_HAL_Driver/Inc/stm32n6xx_ll_bus.h ****       enabling should be taken into account in order to manage the peripheral read/write
  23:../STM32Cube_FW_N6/Drivers/STM32N6xx_HAL_Driver/Inc/stm32n6xx_ll_bus.h ****       from/to registers.
  24:../STM32Cube_FW_N6/Drivers/STM32N6xx_HAL_Driver/Inc/stm32n6xx_ll_bus.h ****       (+) This delay depends on the peripheral mapping.
  25:../STM32Cube_FW_N6/Drivers/STM32N6xx_HAL_Driver/Inc/stm32n6xx_ll_bus.h ****         (++) AHB & APB peripherals, 1 dummy read is necessary
  26:../STM32Cube_FW_N6/Drivers/STM32N6xx_HAL_Driver/Inc/stm32n6xx_ll_bus.h **** 
  27:../STM32Cube_FW_N6/Drivers/STM32N6xx_HAL_Driver/Inc/stm32n6xx_ll_bus.h ****     [..]
  28:../STM32Cube_FW_N6/Drivers/STM32N6xx_HAL_Driver/Inc/stm32n6xx_ll_bus.h ****       Workarounds:
  29:../STM32Cube_FW_N6/Drivers/STM32N6xx_HAL_Driver/Inc/stm32n6xx_ll_bus.h ****       (#) For AHB & APB peripherals, a dummy read to the peripheral register has been
  30:../STM32Cube_FW_N6/Drivers/STM32N6xx_HAL_Driver/Inc/stm32n6xx_ll_bus.h ****           inserted in each LL_{BUS}_GRP{x}_EnableClock() function.
  31:../STM32Cube_FW_N6/Drivers/STM32N6xx_HAL_Driver/Inc/stm32n6xx_ll_bus.h **** 
  32:../STM32Cube_FW_N6/Drivers/STM32N6xx_HAL_Driver/Inc/stm32n6xx_ll_bus.h ****   @endverbatim
  33:../STM32Cube_FW_N6/Drivers/STM32N6xx_HAL_Driver/Inc/stm32n6xx_ll_bus.h ****   ******************************************************************************
  34:../STM32Cube_FW_N6/Drivers/STM32N6xx_HAL_Driver/Inc/stm32n6xx_ll_bus.h ****   */
  35:../STM32Cube_FW_N6/Drivers/STM32N6xx_HAL_Driver/Inc/stm32n6xx_ll_bus.h **** 
  36:../STM32Cube_FW_N6/Drivers/STM32N6xx_HAL_Driver/Inc/stm32n6xx_ll_bus.h **** /* Define to prevent recursive inclusion -------------------------------------*/
  37:../STM32Cube_FW_N6/Drivers/STM32N6xx_HAL_Driver/Inc/stm32n6xx_ll_bus.h **** #ifndef STM32N6xx_LL_BUS_H
ARM GAS  /tmp/ccN2N8if.s 			page 38


  38:../STM32Cube_FW_N6/Drivers/STM32N6xx_HAL_Driver/Inc/stm32n6xx_ll_bus.h **** #define STM32N6xx_LL_BUS_H
  39:../STM32Cube_FW_N6/Drivers/STM32N6xx_HAL_Driver/Inc/stm32n6xx_ll_bus.h **** 
  40:../STM32Cube_FW_N6/Drivers/STM32N6xx_HAL_Driver/Inc/stm32n6xx_ll_bus.h **** #ifdef __cplusplus
  41:../STM32Cube_FW_N6/Drivers/STM32N6xx_HAL_Driver/Inc/stm32n6xx_ll_bus.h **** extern "C" {
  42:../STM32Cube_FW_N6/Drivers/STM32N6xx_HAL_Driver/Inc/stm32n6xx_ll_bus.h **** #endif
  43:../STM32Cube_FW_N6/Drivers/STM32N6xx_HAL_Driver/Inc/stm32n6xx_ll_bus.h **** 
  44:../STM32Cube_FW_N6/Drivers/STM32N6xx_HAL_Driver/Inc/stm32n6xx_ll_bus.h **** /* Includes ------------------------------------------------------------------*/
  45:../STM32Cube_FW_N6/Drivers/STM32N6xx_HAL_Driver/Inc/stm32n6xx_ll_bus.h **** #include "stm32n6xx.h"
  46:../STM32Cube_FW_N6/Drivers/STM32N6xx_HAL_Driver/Inc/stm32n6xx_ll_bus.h **** 
  47:../STM32Cube_FW_N6/Drivers/STM32N6xx_HAL_Driver/Inc/stm32n6xx_ll_bus.h **** /** @addtogroup STM32N6xx_LL_Driver
  48:../STM32Cube_FW_N6/Drivers/STM32N6xx_HAL_Driver/Inc/stm32n6xx_ll_bus.h ****   * @{
  49:../STM32Cube_FW_N6/Drivers/STM32N6xx_HAL_Driver/Inc/stm32n6xx_ll_bus.h ****   */
  50:../STM32Cube_FW_N6/Drivers/STM32N6xx_HAL_Driver/Inc/stm32n6xx_ll_bus.h **** #if defined(RCC)
  51:../STM32Cube_FW_N6/Drivers/STM32N6xx_HAL_Driver/Inc/stm32n6xx_ll_bus.h **** 
  52:../STM32Cube_FW_N6/Drivers/STM32N6xx_HAL_Driver/Inc/stm32n6xx_ll_bus.h **** /** @defgroup BUS_LL BUS
  53:../STM32Cube_FW_N6/Drivers/STM32N6xx_HAL_Driver/Inc/stm32n6xx_ll_bus.h ****   * @{
  54:../STM32Cube_FW_N6/Drivers/STM32N6xx_HAL_Driver/Inc/stm32n6xx_ll_bus.h ****   */
  55:../STM32Cube_FW_N6/Drivers/STM32N6xx_HAL_Driver/Inc/stm32n6xx_ll_bus.h **** 
  56:../STM32Cube_FW_N6/Drivers/STM32N6xx_HAL_Driver/Inc/stm32n6xx_ll_bus.h **** /* Private variables ---------------------------------------------------------*/
  57:../STM32Cube_FW_N6/Drivers/STM32N6xx_HAL_Driver/Inc/stm32n6xx_ll_bus.h **** 
  58:../STM32Cube_FW_N6/Drivers/STM32N6xx_HAL_Driver/Inc/stm32n6xx_ll_bus.h **** /* Private constants ---------------------------------------------------------*/
  59:../STM32Cube_FW_N6/Drivers/STM32N6xx_HAL_Driver/Inc/stm32n6xx_ll_bus.h **** 
  60:../STM32Cube_FW_N6/Drivers/STM32N6xx_HAL_Driver/Inc/stm32n6xx_ll_bus.h **** /* Private macros ------------------------------------------------------------*/
  61:../STM32Cube_FW_N6/Drivers/STM32N6xx_HAL_Driver/Inc/stm32n6xx_ll_bus.h **** 
  62:../STM32Cube_FW_N6/Drivers/STM32N6xx_HAL_Driver/Inc/stm32n6xx_ll_bus.h **** /* Exported types ------------------------------------------------------------*/
  63:../STM32Cube_FW_N6/Drivers/STM32N6xx_HAL_Driver/Inc/stm32n6xx_ll_bus.h **** 
  64:../STM32Cube_FW_N6/Drivers/STM32N6xx_HAL_Driver/Inc/stm32n6xx_ll_bus.h **** /* Exported constants --------------------------------------------------------*/
  65:../STM32Cube_FW_N6/Drivers/STM32N6xx_HAL_Driver/Inc/stm32n6xx_ll_bus.h **** /** @defgroup BUS_LL_Exported_Constants BUS Exported Constants
  66:../STM32Cube_FW_N6/Drivers/STM32N6xx_HAL_Driver/Inc/stm32n6xx_ll_bus.h ****   * @{
  67:../STM32Cube_FW_N6/Drivers/STM32N6xx_HAL_Driver/Inc/stm32n6xx_ll_bus.h ****   */
  68:../STM32Cube_FW_N6/Drivers/STM32N6xx_HAL_Driver/Inc/stm32n6xx_ll_bus.h **** 
  69:../STM32Cube_FW_N6/Drivers/STM32N6xx_HAL_Driver/Inc/stm32n6xx_ll_bus.h **** /** @defgroup BUS_LL_EC_AXI  AXI
  70:../STM32Cube_FW_N6/Drivers/STM32N6xx_HAL_Driver/Inc/stm32n6xx_ll_bus.h ****   * @{
  71:../STM32Cube_FW_N6/Drivers/STM32N6xx_HAL_Driver/Inc/stm32n6xx_ll_bus.h ****   */
  72:../STM32Cube_FW_N6/Drivers/STM32N6xx_HAL_Driver/Inc/stm32n6xx_ll_bus.h **** #define LL_ACLKN                           RCC_BUSENR_ACLKNEN
  73:../STM32Cube_FW_N6/Drivers/STM32N6xx_HAL_Driver/Inc/stm32n6xx_ll_bus.h **** #define LL_ACLKNC                          RCC_BUSENR_ACLKNCEN
  74:../STM32Cube_FW_N6/Drivers/STM32N6xx_HAL_Driver/Inc/stm32n6xx_ll_bus.h **** #define LL_AHBM                            RCC_BUSENR_AHBMEN
  75:../STM32Cube_FW_N6/Drivers/STM32N6xx_HAL_Driver/Inc/stm32n6xx_ll_bus.h **** #define LL_AHB1                            RCC_BUSENR_AHB1EN
  76:../STM32Cube_FW_N6/Drivers/STM32N6xx_HAL_Driver/Inc/stm32n6xx_ll_bus.h **** #define LL_AHB2                            RCC_BUSENR_AHB2EN
  77:../STM32Cube_FW_N6/Drivers/STM32N6xx_HAL_Driver/Inc/stm32n6xx_ll_bus.h **** #define LL_AHB3                            RCC_BUSENR_AHB3EN
  78:../STM32Cube_FW_N6/Drivers/STM32N6xx_HAL_Driver/Inc/stm32n6xx_ll_bus.h **** #define LL_AHB4                            RCC_BUSENR_AHB4EN
  79:../STM32Cube_FW_N6/Drivers/STM32N6xx_HAL_Driver/Inc/stm32n6xx_ll_bus.h **** #define LL_AHB5                            RCC_BUSENR_AHB5EN
  80:../STM32Cube_FW_N6/Drivers/STM32N6xx_HAL_Driver/Inc/stm32n6xx_ll_bus.h **** #define LL_APB1                            RCC_BUSENR_APB1EN
  81:../STM32Cube_FW_N6/Drivers/STM32N6xx_HAL_Driver/Inc/stm32n6xx_ll_bus.h **** #define LL_APB2                            RCC_BUSENR_APB2EN
  82:../STM32Cube_FW_N6/Drivers/STM32N6xx_HAL_Driver/Inc/stm32n6xx_ll_bus.h **** #define LL_APB3                            RCC_BUSENR_APB3EN
  83:../STM32Cube_FW_N6/Drivers/STM32N6xx_HAL_Driver/Inc/stm32n6xx_ll_bus.h **** #define LL_APB4                            RCC_BUSENR_APB4EN
  84:../STM32Cube_FW_N6/Drivers/STM32N6xx_HAL_Driver/Inc/stm32n6xx_ll_bus.h **** #define LL_APB5                            RCC_BUSENR_APB5EN
  85:../STM32Cube_FW_N6/Drivers/STM32N6xx_HAL_Driver/Inc/stm32n6xx_ll_bus.h **** /**
  86:../STM32Cube_FW_N6/Drivers/STM32N6xx_HAL_Driver/Inc/stm32n6xx_ll_bus.h ****   * @}
  87:../STM32Cube_FW_N6/Drivers/STM32N6xx_HAL_Driver/Inc/stm32n6xx_ll_bus.h ****   */
  88:../STM32Cube_FW_N6/Drivers/STM32N6xx_HAL_Driver/Inc/stm32n6xx_ll_bus.h **** 
  89:../STM32Cube_FW_N6/Drivers/STM32N6xx_HAL_Driver/Inc/stm32n6xx_ll_bus.h **** /** @defgroup BUS_LL_EC_MEM  MEM
  90:../STM32Cube_FW_N6/Drivers/STM32N6xx_HAL_Driver/Inc/stm32n6xx_ll_bus.h ****   * @{
  91:../STM32Cube_FW_N6/Drivers/STM32N6xx_HAL_Driver/Inc/stm32n6xx_ll_bus.h ****   */
  92:../STM32Cube_FW_N6/Drivers/STM32N6xx_HAL_Driver/Inc/stm32n6xx_ll_bus.h **** #define LL_MEM_AXISRAM1                    RCC_MEMENR_AXISRAM1EN
  93:../STM32Cube_FW_N6/Drivers/STM32N6xx_HAL_Driver/Inc/stm32n6xx_ll_bus.h **** #define LL_MEM_AXISRAM2                    RCC_MEMENR_AXISRAM2EN
  94:../STM32Cube_FW_N6/Drivers/STM32N6xx_HAL_Driver/Inc/stm32n6xx_ll_bus.h **** #define LL_MEM_AXISRAM3                    RCC_MEMENR_AXISRAM3EN
ARM GAS  /tmp/ccN2N8if.s 			page 39


  95:../STM32Cube_FW_N6/Drivers/STM32N6xx_HAL_Driver/Inc/stm32n6xx_ll_bus.h **** #define LL_MEM_AXISRAM4                    RCC_MEMENR_AXISRAM4EN
  96:../STM32Cube_FW_N6/Drivers/STM32N6xx_HAL_Driver/Inc/stm32n6xx_ll_bus.h **** #define LL_MEM_AXISRAM5                    RCC_MEMENR_AXISRAM5EN
  97:../STM32Cube_FW_N6/Drivers/STM32N6xx_HAL_Driver/Inc/stm32n6xx_ll_bus.h **** #define LL_MEM_AXISRAM6                    RCC_MEMENR_AXISRAM6EN
  98:../STM32Cube_FW_N6/Drivers/STM32N6xx_HAL_Driver/Inc/stm32n6xx_ll_bus.h **** #define LL_MEM_AHBSRAM1                    RCC_MEMENR_AHBSRAM1EN
  99:../STM32Cube_FW_N6/Drivers/STM32N6xx_HAL_Driver/Inc/stm32n6xx_ll_bus.h **** #define LL_MEM_AHBSRAM2                    RCC_MEMENR_AHBSRAM2EN
 100:../STM32Cube_FW_N6/Drivers/STM32N6xx_HAL_Driver/Inc/stm32n6xx_ll_bus.h **** #define LL_MEM_BKPSRAM                     RCC_MEMENR_BKPSRAMEN
 101:../STM32Cube_FW_N6/Drivers/STM32N6xx_HAL_Driver/Inc/stm32n6xx_ll_bus.h **** #define LL_MEM_FLEXRAM                     RCC_MEMENR_FLEXRAMEN
 102:../STM32Cube_FW_N6/Drivers/STM32N6xx_HAL_Driver/Inc/stm32n6xx_ll_bus.h **** #define LL_MEM_CACHEAXIRAM                 RCC_MEMENR_CACHEAXIRAMEN
 103:../STM32Cube_FW_N6/Drivers/STM32N6xx_HAL_Driver/Inc/stm32n6xx_ll_bus.h **** #define LL_MEM_VENCRAM                     RCC_MEMENR_VENCRAMEN
 104:../STM32Cube_FW_N6/Drivers/STM32N6xx_HAL_Driver/Inc/stm32n6xx_ll_bus.h **** #define LL_MEM_BOOTROM                     RCC_MEMENR_BOOTROMEN
 105:../STM32Cube_FW_N6/Drivers/STM32N6xx_HAL_Driver/Inc/stm32n6xx_ll_bus.h **** /**
 106:../STM32Cube_FW_N6/Drivers/STM32N6xx_HAL_Driver/Inc/stm32n6xx_ll_bus.h ****   * @}
 107:../STM32Cube_FW_N6/Drivers/STM32N6xx_HAL_Driver/Inc/stm32n6xx_ll_bus.h ****   */
 108:../STM32Cube_FW_N6/Drivers/STM32N6xx_HAL_Driver/Inc/stm32n6xx_ll_bus.h **** 
 109:../STM32Cube_FW_N6/Drivers/STM32N6xx_HAL_Driver/Inc/stm32n6xx_ll_bus.h **** /** @defgroup BUS_LL_EC_AHB1_GRP1_PERIPH  AHB1 GRP1 PERIPH
 110:../STM32Cube_FW_N6/Drivers/STM32N6xx_HAL_Driver/Inc/stm32n6xx_ll_bus.h ****   * @{
 111:../STM32Cube_FW_N6/Drivers/STM32N6xx_HAL_Driver/Inc/stm32n6xx_ll_bus.h ****   */
 112:../STM32Cube_FW_N6/Drivers/STM32N6xx_HAL_Driver/Inc/stm32n6xx_ll_bus.h **** #define LL_AHB1_GRP1_PERIPH_ADC12          RCC_AHB1ENR_ADC12EN
 113:../STM32Cube_FW_N6/Drivers/STM32N6xx_HAL_Driver/Inc/stm32n6xx_ll_bus.h **** #define LL_AHB1_GRP1_PERIPH_GPDMA1         RCC_AHB1ENR_GPDMA1EN
 114:../STM32Cube_FW_N6/Drivers/STM32N6xx_HAL_Driver/Inc/stm32n6xx_ll_bus.h **** #define LL_AHB1_GRP1_PERIPH_ALL            (LL_AHB1_GRP1_PERIPH_ADC12 | LL_AHB1_GRP1_PERIPH_GPDMA1)
 115:../STM32Cube_FW_N6/Drivers/STM32N6xx_HAL_Driver/Inc/stm32n6xx_ll_bus.h **** /**
 116:../STM32Cube_FW_N6/Drivers/STM32N6xx_HAL_Driver/Inc/stm32n6xx_ll_bus.h ****   * @}
 117:../STM32Cube_FW_N6/Drivers/STM32N6xx_HAL_Driver/Inc/stm32n6xx_ll_bus.h ****   */
 118:../STM32Cube_FW_N6/Drivers/STM32N6xx_HAL_Driver/Inc/stm32n6xx_ll_bus.h **** 
 119:../STM32Cube_FW_N6/Drivers/STM32N6xx_HAL_Driver/Inc/stm32n6xx_ll_bus.h **** /** @defgroup BUS_LL_EC_AHB2_GRP1_PERIPH  AHB2 GRP1 PERIPH
 120:../STM32Cube_FW_N6/Drivers/STM32N6xx_HAL_Driver/Inc/stm32n6xx_ll_bus.h ****   * @{
 121:../STM32Cube_FW_N6/Drivers/STM32N6xx_HAL_Driver/Inc/stm32n6xx_ll_bus.h ****   */
 122:../STM32Cube_FW_N6/Drivers/STM32N6xx_HAL_Driver/Inc/stm32n6xx_ll_bus.h **** #define LL_AHB2_GRP1_PERIPH_ADF1           RCC_AHB2ENR_ADF1EN
 123:../STM32Cube_FW_N6/Drivers/STM32N6xx_HAL_Driver/Inc/stm32n6xx_ll_bus.h **** #define LL_AHB2_GRP1_PERIPH_MDF1           RCC_AHB2ENR_MDF1EN
 124:../STM32Cube_FW_N6/Drivers/STM32N6xx_HAL_Driver/Inc/stm32n6xx_ll_bus.h **** #define LL_AHB2_GRP1_PERIPH_RAMCFG         RCC_AHB2ENR_RAMCFGEN
 125:../STM32Cube_FW_N6/Drivers/STM32N6xx_HAL_Driver/Inc/stm32n6xx_ll_bus.h **** #define LL_AHB2_GRP1_PERIPH_ALL            (LL_AHB2_GRP1_PERIPH_ADF1 | LL_AHB2_GRP1_PERIPH_MDF1 | \
 126:../STM32Cube_FW_N6/Drivers/STM32N6xx_HAL_Driver/Inc/stm32n6xx_ll_bus.h ****                                             LL_AHB2_GRP1_PERIPH_RAMCFG)
 127:../STM32Cube_FW_N6/Drivers/STM32N6xx_HAL_Driver/Inc/stm32n6xx_ll_bus.h **** /**
 128:../STM32Cube_FW_N6/Drivers/STM32N6xx_HAL_Driver/Inc/stm32n6xx_ll_bus.h ****   * @}
 129:../STM32Cube_FW_N6/Drivers/STM32N6xx_HAL_Driver/Inc/stm32n6xx_ll_bus.h ****   */
 130:../STM32Cube_FW_N6/Drivers/STM32N6xx_HAL_Driver/Inc/stm32n6xx_ll_bus.h **** 
 131:../STM32Cube_FW_N6/Drivers/STM32N6xx_HAL_Driver/Inc/stm32n6xx_ll_bus.h **** /** @defgroup BUS_LL_EC_AHB3_GRP1_PERIPH  AHB3 GRP1 PERIPH
 132:../STM32Cube_FW_N6/Drivers/STM32N6xx_HAL_Driver/Inc/stm32n6xx_ll_bus.h ****   * @{
 133:../STM32Cube_FW_N6/Drivers/STM32N6xx_HAL_Driver/Inc/stm32n6xx_ll_bus.h ****   */
 134:../STM32Cube_FW_N6/Drivers/STM32N6xx_HAL_Driver/Inc/stm32n6xx_ll_bus.h **** #if defined(CRYP)
 135:../STM32Cube_FW_N6/Drivers/STM32N6xx_HAL_Driver/Inc/stm32n6xx_ll_bus.h **** #define LL_AHB3_GRP1_PERIPH_CRYP           RCC_AHB3ENR_CRYPEN
 136:../STM32Cube_FW_N6/Drivers/STM32N6xx_HAL_Driver/Inc/stm32n6xx_ll_bus.h **** #else
 137:../STM32Cube_FW_N6/Drivers/STM32N6xx_HAL_Driver/Inc/stm32n6xx_ll_bus.h **** #define LL_AHB3_GRP1_PERIPH_CRYP
 138:../STM32Cube_FW_N6/Drivers/STM32N6xx_HAL_Driver/Inc/stm32n6xx_ll_bus.h **** #endif /* CRYP */
 139:../STM32Cube_FW_N6/Drivers/STM32N6xx_HAL_Driver/Inc/stm32n6xx_ll_bus.h **** #define LL_AHB3_GRP1_PERIPH_HASH           RCC_AHB3ENR_HASHEN
 140:../STM32Cube_FW_N6/Drivers/STM32N6xx_HAL_Driver/Inc/stm32n6xx_ll_bus.h **** #define LL_AHB3_GRP1_PERIPH_IAC            RCC_AHB3ENR_IACEN
 141:../STM32Cube_FW_N6/Drivers/STM32N6xx_HAL_Driver/Inc/stm32n6xx_ll_bus.h **** #if defined(PKA)
 142:../STM32Cube_FW_N6/Drivers/STM32N6xx_HAL_Driver/Inc/stm32n6xx_ll_bus.h **** #define LL_AHB3_GRP1_PERIPH_PKA            RCC_AHB3ENR_PKAEN
 143:../STM32Cube_FW_N6/Drivers/STM32N6xx_HAL_Driver/Inc/stm32n6xx_ll_bus.h **** #else
 144:../STM32Cube_FW_N6/Drivers/STM32N6xx_HAL_Driver/Inc/stm32n6xx_ll_bus.h **** #define LL_AHB3_GRP1_PERIPH_PKA
 145:../STM32Cube_FW_N6/Drivers/STM32N6xx_HAL_Driver/Inc/stm32n6xx_ll_bus.h **** #endif /* PKA */
 146:../STM32Cube_FW_N6/Drivers/STM32N6xx_HAL_Driver/Inc/stm32n6xx_ll_bus.h **** #define LL_AHB3_GRP1_PERIPH_RIFSC          RCC_AHB3ENR_RIFSCEN
 147:../STM32Cube_FW_N6/Drivers/STM32N6xx_HAL_Driver/Inc/stm32n6xx_ll_bus.h **** #define LL_AHB3_GRP1_PERIPH_RISAF          RCC_AHB3ENR_RISAFEN
 148:../STM32Cube_FW_N6/Drivers/STM32N6xx_HAL_Driver/Inc/stm32n6xx_ll_bus.h **** #define LL_AHB3_GRP1_PERIPH_RNG            RCC_AHB3ENR_RNGEN
 149:../STM32Cube_FW_N6/Drivers/STM32N6xx_HAL_Driver/Inc/stm32n6xx_ll_bus.h **** #if defined(SAES)
 150:../STM32Cube_FW_N6/Drivers/STM32N6xx_HAL_Driver/Inc/stm32n6xx_ll_bus.h **** #define LL_AHB3_GRP1_PERIPH_SAES           RCC_AHB3ENR_SAESEN
 151:../STM32Cube_FW_N6/Drivers/STM32N6xx_HAL_Driver/Inc/stm32n6xx_ll_bus.h **** #else
ARM GAS  /tmp/ccN2N8if.s 			page 40


 152:../STM32Cube_FW_N6/Drivers/STM32N6xx_HAL_Driver/Inc/stm32n6xx_ll_bus.h **** #define LL_AHB3_GRP1_PERIPH_SAES
 153:../STM32Cube_FW_N6/Drivers/STM32N6xx_HAL_Driver/Inc/stm32n6xx_ll_bus.h **** #endif /* SAES */
 154:../STM32Cube_FW_N6/Drivers/STM32N6xx_HAL_Driver/Inc/stm32n6xx_ll_bus.h **** #define LL_AHB3_GRP1_PERIPH_ALL            (LL_AHB3_GRP1_PERIPH_CRYP  | LL_AHB3_GRP1_PERIPH_HASH  |
 155:../STM32Cube_FW_N6/Drivers/STM32N6xx_HAL_Driver/Inc/stm32n6xx_ll_bus.h ****                                             LL_AHB3_GRP1_PERIPH_IAC   | LL_AHB3_GRP1_PERIPH_PKA   |
 156:../STM32Cube_FW_N6/Drivers/STM32N6xx_HAL_Driver/Inc/stm32n6xx_ll_bus.h ****                                             LL_AHB3_GRP1_PERIPH_RIFSC | LL_AHB3_GRP1_PERIPH_RISAF |
 157:../STM32Cube_FW_N6/Drivers/STM32N6xx_HAL_Driver/Inc/stm32n6xx_ll_bus.h ****                                             LL_AHB3_GRP1_PERIPH_RNG   | LL_AHB3_GRP1_PERIPH_SAES)
 158:../STM32Cube_FW_N6/Drivers/STM32N6xx_HAL_Driver/Inc/stm32n6xx_ll_bus.h **** /**
 159:../STM32Cube_FW_N6/Drivers/STM32N6xx_HAL_Driver/Inc/stm32n6xx_ll_bus.h ****   * @}
 160:../STM32Cube_FW_N6/Drivers/STM32N6xx_HAL_Driver/Inc/stm32n6xx_ll_bus.h ****   */
 161:../STM32Cube_FW_N6/Drivers/STM32N6xx_HAL_Driver/Inc/stm32n6xx_ll_bus.h **** 
 162:../STM32Cube_FW_N6/Drivers/STM32N6xx_HAL_Driver/Inc/stm32n6xx_ll_bus.h **** /** @defgroup BUS_LL_EC_AHB4_GRP1_PERIPH  AHB4 GRP1 PERIPH
 163:../STM32Cube_FW_N6/Drivers/STM32N6xx_HAL_Driver/Inc/stm32n6xx_ll_bus.h ****   * @{
 164:../STM32Cube_FW_N6/Drivers/STM32N6xx_HAL_Driver/Inc/stm32n6xx_ll_bus.h ****   */
 165:../STM32Cube_FW_N6/Drivers/STM32N6xx_HAL_Driver/Inc/stm32n6xx_ll_bus.h **** #define LL_AHB4_GRP1_PERIPH_CRC            RCC_AHB4ENR_CRCEN
 166:../STM32Cube_FW_N6/Drivers/STM32N6xx_HAL_Driver/Inc/stm32n6xx_ll_bus.h **** #define LL_AHB4_GRP1_PERIPH_GPIOA          RCC_AHB4ENR_GPIOAEN
 167:../STM32Cube_FW_N6/Drivers/STM32N6xx_HAL_Driver/Inc/stm32n6xx_ll_bus.h **** #define LL_AHB4_GRP1_PERIPH_GPIOB          RCC_AHB4ENR_GPIOBEN
 168:../STM32Cube_FW_N6/Drivers/STM32N6xx_HAL_Driver/Inc/stm32n6xx_ll_bus.h **** #define LL_AHB4_GRP1_PERIPH_GPIOC          RCC_AHB4ENR_GPIOCEN
 169:../STM32Cube_FW_N6/Drivers/STM32N6xx_HAL_Driver/Inc/stm32n6xx_ll_bus.h **** #define LL_AHB4_GRP1_PERIPH_GPIOD          RCC_AHB4ENR_GPIODEN
 170:../STM32Cube_FW_N6/Drivers/STM32N6xx_HAL_Driver/Inc/stm32n6xx_ll_bus.h **** #define LL_AHB4_GRP1_PERIPH_GPIOE          RCC_AHB4ENR_GPIOEEN
 171:../STM32Cube_FW_N6/Drivers/STM32N6xx_HAL_Driver/Inc/stm32n6xx_ll_bus.h **** #define LL_AHB4_GRP1_PERIPH_GPIOF          RCC_AHB4ENR_GPIOFEN
 172:../STM32Cube_FW_N6/Drivers/STM32N6xx_HAL_Driver/Inc/stm32n6xx_ll_bus.h **** #define LL_AHB4_GRP1_PERIPH_GPIOG          RCC_AHB4ENR_GPIOGEN
 173:../STM32Cube_FW_N6/Drivers/STM32N6xx_HAL_Driver/Inc/stm32n6xx_ll_bus.h **** #define LL_AHB4_GRP1_PERIPH_GPIOH          RCC_AHB4ENR_GPIOHEN
 174:../STM32Cube_FW_N6/Drivers/STM32N6xx_HAL_Driver/Inc/stm32n6xx_ll_bus.h **** #define LL_AHB4_GRP1_PERIPH_GPION          RCC_AHB4ENR_GPIONEN
 175:../STM32Cube_FW_N6/Drivers/STM32N6xx_HAL_Driver/Inc/stm32n6xx_ll_bus.h **** #define LL_AHB4_GRP1_PERIPH_GPIOO          RCC_AHB4ENR_GPIOOEN
 176:../STM32Cube_FW_N6/Drivers/STM32N6xx_HAL_Driver/Inc/stm32n6xx_ll_bus.h **** #define LL_AHB4_GRP1_PERIPH_GPIOP          RCC_AHB4ENR_GPIOPEN
 177:../STM32Cube_FW_N6/Drivers/STM32N6xx_HAL_Driver/Inc/stm32n6xx_ll_bus.h **** #define LL_AHB4_GRP1_PERIPH_GPIOQ          RCC_AHB4ENR_GPIOQEN
 178:../STM32Cube_FW_N6/Drivers/STM32N6xx_HAL_Driver/Inc/stm32n6xx_ll_bus.h **** #define LL_AHB4_GRP1_PERIPH_PWR            RCC_AHB4ENR_PWREN
 179:../STM32Cube_FW_N6/Drivers/STM32N6xx_HAL_Driver/Inc/stm32n6xx_ll_bus.h **** #define LL_AHB4_GRP1_PERIPH_ALL            (LL_AHB4_GRP1_PERIPH_CRC   | LL_AHB4_GRP1_PERIPH_GPIOA |
 180:../STM32Cube_FW_N6/Drivers/STM32N6xx_HAL_Driver/Inc/stm32n6xx_ll_bus.h ****                                             LL_AHB4_GRP1_PERIPH_GPIOB | LL_AHB4_GRP1_PERIPH_GPIOC |
 181:../STM32Cube_FW_N6/Drivers/STM32N6xx_HAL_Driver/Inc/stm32n6xx_ll_bus.h ****                                             LL_AHB4_GRP1_PERIPH_GPIOD | LL_AHB4_GRP1_PERIPH_GPIOE |
 182:../STM32Cube_FW_N6/Drivers/STM32N6xx_HAL_Driver/Inc/stm32n6xx_ll_bus.h ****                                             LL_AHB4_GRP1_PERIPH_GPIOF | LL_AHB4_GRP1_PERIPH_GPIOG |
 183:../STM32Cube_FW_N6/Drivers/STM32N6xx_HAL_Driver/Inc/stm32n6xx_ll_bus.h ****                                             LL_AHB4_GRP1_PERIPH_GPIOH | LL_AHB4_GRP1_PERIPH_GPION |
 184:../STM32Cube_FW_N6/Drivers/STM32N6xx_HAL_Driver/Inc/stm32n6xx_ll_bus.h ****                                             LL_AHB4_GRP1_PERIPH_GPIOO | LL_AHB4_GRP1_PERIPH_GPIOP |
 185:../STM32Cube_FW_N6/Drivers/STM32N6xx_HAL_Driver/Inc/stm32n6xx_ll_bus.h ****                                             LL_AHB4_GRP1_PERIPH_GPIOQ | LL_AHB4_GRP1_PERIPH_PWR)
 186:../STM32Cube_FW_N6/Drivers/STM32N6xx_HAL_Driver/Inc/stm32n6xx_ll_bus.h **** /**
 187:../STM32Cube_FW_N6/Drivers/STM32N6xx_HAL_Driver/Inc/stm32n6xx_ll_bus.h ****   * @}
 188:../STM32Cube_FW_N6/Drivers/STM32N6xx_HAL_Driver/Inc/stm32n6xx_ll_bus.h ****   */
 189:../STM32Cube_FW_N6/Drivers/STM32N6xx_HAL_Driver/Inc/stm32n6xx_ll_bus.h **** 
 190:../STM32Cube_FW_N6/Drivers/STM32N6xx_HAL_Driver/Inc/stm32n6xx_ll_bus.h **** /** @defgroup BUS_LL_EC_AHB5_GRP1_PERIPH  AHB5 GRP1 PERIPH
 191:../STM32Cube_FW_N6/Drivers/STM32N6xx_HAL_Driver/Inc/stm32n6xx_ll_bus.h ****   * @{
 192:../STM32Cube_FW_N6/Drivers/STM32N6xx_HAL_Driver/Inc/stm32n6xx_ll_bus.h ****   */
 193:../STM32Cube_FW_N6/Drivers/STM32N6xx_HAL_Driver/Inc/stm32n6xx_ll_bus.h **** #define LL_AHB5_GRP1_PERIPH_DMA2D             RCC_AHB5ENR_DMA2DEN
 194:../STM32Cube_FW_N6/Drivers/STM32N6xx_HAL_Driver/Inc/stm32n6xx_ll_bus.h **** #define LL_AHB5_GRP1_PERIPH_ETH1              RCC_AHB5ENR_ETH1EN
 195:../STM32Cube_FW_N6/Drivers/STM32N6xx_HAL_Driver/Inc/stm32n6xx_ll_bus.h **** #define LL_AHB5_GRP1_PERIPH_ETH1MAC           RCC_AHB5ENR_ETH1MACEN
 196:../STM32Cube_FW_N6/Drivers/STM32N6xx_HAL_Driver/Inc/stm32n6xx_ll_bus.h **** #define LL_AHB5_GRP1_PERIPH_ETH1TX            RCC_AHB5ENR_ETH1TXEN
 197:../STM32Cube_FW_N6/Drivers/STM32N6xx_HAL_Driver/Inc/stm32n6xx_ll_bus.h **** #define LL_AHB5_GRP1_PERIPH_ETH1RX            RCC_AHB5ENR_ETH1RXEN
 198:../STM32Cube_FW_N6/Drivers/STM32N6xx_HAL_Driver/Inc/stm32n6xx_ll_bus.h **** #define LL_AHB5_GRP1_PERIPH_FMC               RCC_AHB5ENR_FMCEN
 199:../STM32Cube_FW_N6/Drivers/STM32N6xx_HAL_Driver/Inc/stm32n6xx_ll_bus.h **** #define LL_AHB5_GRP1_PERIPH_GFXMMU            RCC_AHB5ENR_GFXMMUEN
 200:../STM32Cube_FW_N6/Drivers/STM32N6xx_HAL_Driver/Inc/stm32n6xx_ll_bus.h **** #define LL_AHB5_GRP1_PERIPH_GPU2D             RCC_AHB5ENR_GPU2DEN
 201:../STM32Cube_FW_N6/Drivers/STM32N6xx_HAL_Driver/Inc/stm32n6xx_ll_bus.h **** #define LL_AHB5_GRP1_PERIPH_HPDMA1            RCC_AHB5ENR_HPDMA1EN
 202:../STM32Cube_FW_N6/Drivers/STM32N6xx_HAL_Driver/Inc/stm32n6xx_ll_bus.h **** #define LL_AHB5_GRP1_PERIPH_XSPI1             RCC_AHB5ENR_XSPI1EN
 203:../STM32Cube_FW_N6/Drivers/STM32N6xx_HAL_Driver/Inc/stm32n6xx_ll_bus.h **** #define LL_AHB5_GRP1_PERIPH_XSPI2             RCC_AHB5ENR_XSPI2EN
 204:../STM32Cube_FW_N6/Drivers/STM32N6xx_HAL_Driver/Inc/stm32n6xx_ll_bus.h **** #define LL_AHB5_GRP1_PERIPH_XSPI3             RCC_AHB5ENR_XSPI3EN
 205:../STM32Cube_FW_N6/Drivers/STM32N6xx_HAL_Driver/Inc/stm32n6xx_ll_bus.h **** #define LL_AHB5_GRP1_PERIPH_XSPIM             RCC_AHB5ENR_XSPIMEN
 206:../STM32Cube_FW_N6/Drivers/STM32N6xx_HAL_Driver/Inc/stm32n6xx_ll_bus.h **** #define LL_AHB5_GRP1_PERIPH_JPEG              RCC_AHB5ENR_JPEGEN
 207:../STM32Cube_FW_N6/Drivers/STM32N6xx_HAL_Driver/Inc/stm32n6xx_ll_bus.h **** #define LL_AHB5_GRP1_PERIPH_MCE1              RCC_AHB5ENR_MCE1EN
 208:../STM32Cube_FW_N6/Drivers/STM32N6xx_HAL_Driver/Inc/stm32n6xx_ll_bus.h **** #define LL_AHB5_GRP1_PERIPH_MCE2              RCC_AHB5ENR_MCE2EN
ARM GAS  /tmp/ccN2N8if.s 			page 41


 209:../STM32Cube_FW_N6/Drivers/STM32N6xx_HAL_Driver/Inc/stm32n6xx_ll_bus.h **** #define LL_AHB5_GRP1_PERIPH_MCE3              RCC_AHB5ENR_MCE3EN
 210:../STM32Cube_FW_N6/Drivers/STM32N6xx_HAL_Driver/Inc/stm32n6xx_ll_bus.h **** #define LL_AHB5_GRP1_PERIPH_MCE4              RCC_AHB5ENR_MCE4EN
 211:../STM32Cube_FW_N6/Drivers/STM32N6xx_HAL_Driver/Inc/stm32n6xx_ll_bus.h **** #define LL_AHB5_GRP1_PERIPH_CACHEAXI          RCC_AHB5ENR_CACHEAXIEN
 212:../STM32Cube_FW_N6/Drivers/STM32N6xx_HAL_Driver/Inc/stm32n6xx_ll_bus.h **** #define LL_AHB5_GRP1_PERIPH_NPU               RCC_AHB5ENR_NPUEN
 213:../STM32Cube_FW_N6/Drivers/STM32N6xx_HAL_Driver/Inc/stm32n6xx_ll_bus.h **** #define LL_AHB5_GRP1_PERIPH_OTG1              RCC_AHB5ENR_OTG1EN
 214:../STM32Cube_FW_N6/Drivers/STM32N6xx_HAL_Driver/Inc/stm32n6xx_ll_bus.h **** #define LL_AHB5_GRP1_PERIPH_OTG2              RCC_AHB5ENR_OTG2EN
 215:../STM32Cube_FW_N6/Drivers/STM32N6xx_HAL_Driver/Inc/stm32n6xx_ll_bus.h **** #define LL_AHB5_GRP1_PERIPH_OTGPHY1           RCC_AHB5ENR_OTGPHY1EN
 216:../STM32Cube_FW_N6/Drivers/STM32N6xx_HAL_Driver/Inc/stm32n6xx_ll_bus.h **** #define LL_AHB5_GRP1_PERIPH_OTGPHY2           RCC_AHB5ENR_OTGPHY2EN
 217:../STM32Cube_FW_N6/Drivers/STM32N6xx_HAL_Driver/Inc/stm32n6xx_ll_bus.h **** #define LL_AHB5_GRP1_PERIPH_OTG1PHYCTL        RCC_AHB5RSTR_OTG1PHYCTLRST
 218:../STM32Cube_FW_N6/Drivers/STM32N6xx_HAL_Driver/Inc/stm32n6xx_ll_bus.h **** #define LL_AHB5_GRP1_PERIPH_OTG2PHYCTL        RCC_AHB5RSTR_OTG2PHYCTLRST
 219:../STM32Cube_FW_N6/Drivers/STM32N6xx_HAL_Driver/Inc/stm32n6xx_ll_bus.h **** #define LL_AHB5_GRP1_PERIPH_PSSI              RCC_AHB5ENR_PSSIEN
 220:../STM32Cube_FW_N6/Drivers/STM32N6xx_HAL_Driver/Inc/stm32n6xx_ll_bus.h **** #define LL_AHB5_GRP1_PERIPH_SDMMC1            RCC_AHB5ENR_SDMMC1EN
 221:../STM32Cube_FW_N6/Drivers/STM32N6xx_HAL_Driver/Inc/stm32n6xx_ll_bus.h **** #define LL_AHB5_GRP1_PERIPH_SDMMC2            RCC_AHB5ENR_SDMMC2EN
 222:../STM32Cube_FW_N6/Drivers/STM32N6xx_HAL_Driver/Inc/stm32n6xx_ll_bus.h **** #define LL_AHB5_GRP1_PERIPH_ALL            (LL_AHB5_GRP1_PERIPH_DMA2D    | LL_AHB5_GRP1_PERIPH_ETH1
 223:../STM32Cube_FW_N6/Drivers/STM32N6xx_HAL_Driver/Inc/stm32n6xx_ll_bus.h ****                                             LL_AHB5_GRP1_PERIPH_ETH1MAC  | LL_AHB5_GRP1_PERIPH_ETH1
 224:../STM32Cube_FW_N6/Drivers/STM32N6xx_HAL_Driver/Inc/stm32n6xx_ll_bus.h ****                                             LL_AHB5_GRP1_PERIPH_ETH1RX   | LL_AHB5_GRP1_PERIPH_FMC 
 225:../STM32Cube_FW_N6/Drivers/STM32N6xx_HAL_Driver/Inc/stm32n6xx_ll_bus.h ****                                             LL_AHB5_GRP1_PERIPH_GFXMMU   | LL_AHB5_GRP1_PERIPH_GPU2
 226:../STM32Cube_FW_N6/Drivers/STM32N6xx_HAL_Driver/Inc/stm32n6xx_ll_bus.h ****                                             LL_AHB5_GRP1_PERIPH_HPDMA1   | LL_AHB5_GRP1_PERIPH_XSPI
 227:../STM32Cube_FW_N6/Drivers/STM32N6xx_HAL_Driver/Inc/stm32n6xx_ll_bus.h ****                                             LL_AHB5_GRP1_PERIPH_XSPI2    | LL_AHB5_GRP1_PERIPH_XSPI
 228:../STM32Cube_FW_N6/Drivers/STM32N6xx_HAL_Driver/Inc/stm32n6xx_ll_bus.h ****                                             LL_AHB5_GRP1_PERIPH_XSPIM    | LL_AHB5_GRP1_PERIPH_JPEG
 229:../STM32Cube_FW_N6/Drivers/STM32N6xx_HAL_Driver/Inc/stm32n6xx_ll_bus.h ****                                             LL_AHB5_GRP1_PERIPH_MCE1     | LL_AHB5_GRP1_PERIPH_MCE2
 230:../STM32Cube_FW_N6/Drivers/STM32N6xx_HAL_Driver/Inc/stm32n6xx_ll_bus.h ****                                             LL_AHB5_GRP1_PERIPH_MCE3     | LL_AHB5_GRP1_PERIPH_MCE4
 231:../STM32Cube_FW_N6/Drivers/STM32N6xx_HAL_Driver/Inc/stm32n6xx_ll_bus.h ****                                             LL_AHB5_GRP1_PERIPH_CACHEAXI | LL_AHB5_GRP1_PERIPH_NPU 
 232:../STM32Cube_FW_N6/Drivers/STM32N6xx_HAL_Driver/Inc/stm32n6xx_ll_bus.h ****                                             LL_AHB5_GRP1_PERIPH_OTG1     | LL_AHB5_GRP1_PERIPH_OTG2
 233:../STM32Cube_FW_N6/Drivers/STM32N6xx_HAL_Driver/Inc/stm32n6xx_ll_bus.h ****                                             LL_AHB5_GRP1_PERIPH_OTGPHY1  | LL_AHB5_GRP1_PERIPH_OTGP
 234:../STM32Cube_FW_N6/Drivers/STM32N6xx_HAL_Driver/Inc/stm32n6xx_ll_bus.h ****                                             LL_AHB5_GRP1_PERIPH_PSSI     | LL_AHB5_GRP1_PERIPH_SDMM
 235:../STM32Cube_FW_N6/Drivers/STM32N6xx_HAL_Driver/Inc/stm32n6xx_ll_bus.h ****                                             LL_AHB5_GRP1_PERIPH_SDMMC2)
 236:../STM32Cube_FW_N6/Drivers/STM32N6xx_HAL_Driver/Inc/stm32n6xx_ll_bus.h **** /**
 237:../STM32Cube_FW_N6/Drivers/STM32N6xx_HAL_Driver/Inc/stm32n6xx_ll_bus.h ****   * @}
 238:../STM32Cube_FW_N6/Drivers/STM32N6xx_HAL_Driver/Inc/stm32n6xx_ll_bus.h ****   */
 239:../STM32Cube_FW_N6/Drivers/STM32N6xx_HAL_Driver/Inc/stm32n6xx_ll_bus.h **** 
 240:../STM32Cube_FW_N6/Drivers/STM32N6xx_HAL_Driver/Inc/stm32n6xx_ll_bus.h **** /** @defgroup BUS_LL_EC_APB1_GRP1_PERIPH  APB1 GRP1 PERIPH
 241:../STM32Cube_FW_N6/Drivers/STM32N6xx_HAL_Driver/Inc/stm32n6xx_ll_bus.h ****   * @{
 242:../STM32Cube_FW_N6/Drivers/STM32N6xx_HAL_Driver/Inc/stm32n6xx_ll_bus.h ****   */
 243:../STM32Cube_FW_N6/Drivers/STM32N6xx_HAL_Driver/Inc/stm32n6xx_ll_bus.h **** #define LL_APB1_GRP1_PERIPH_I2C1           RCC_APB1ENR1_I2C1EN
 244:../STM32Cube_FW_N6/Drivers/STM32N6xx_HAL_Driver/Inc/stm32n6xx_ll_bus.h **** #define LL_APB1_GRP1_PERIPH_I2C2           RCC_APB1ENR1_I2C2EN
 245:../STM32Cube_FW_N6/Drivers/STM32N6xx_HAL_Driver/Inc/stm32n6xx_ll_bus.h **** #define LL_APB1_GRP1_PERIPH_I2C3           RCC_APB1ENR1_I2C3EN
 246:../STM32Cube_FW_N6/Drivers/STM32N6xx_HAL_Driver/Inc/stm32n6xx_ll_bus.h **** #define LL_APB1_GRP1_PERIPH_I3C1           RCC_APB1ENR1_I3C1EN
 247:../STM32Cube_FW_N6/Drivers/STM32N6xx_HAL_Driver/Inc/stm32n6xx_ll_bus.h **** #define LL_APB1_GRP1_PERIPH_I3C2           RCC_APB1ENR1_I3C2EN
 248:../STM32Cube_FW_N6/Drivers/STM32N6xx_HAL_Driver/Inc/stm32n6xx_ll_bus.h **** #define LL_APB1_GRP1_PERIPH_LPTIM1         RCC_APB1ENR1_LPTIM1EN
 249:../STM32Cube_FW_N6/Drivers/STM32N6xx_HAL_Driver/Inc/stm32n6xx_ll_bus.h **** #define LL_APB1_GRP1_PERIPH_SPDIFRX1       RCC_APB1ENR1_SPDIFRX1EN
 250:../STM32Cube_FW_N6/Drivers/STM32N6xx_HAL_Driver/Inc/stm32n6xx_ll_bus.h **** #define LL_APB1_GRP1_PERIPH_SPI2           RCC_APB1ENR1_SPI2EN
 251:../STM32Cube_FW_N6/Drivers/STM32N6xx_HAL_Driver/Inc/stm32n6xx_ll_bus.h **** #define LL_APB1_GRP1_PERIPH_SPI3           RCC_APB1ENR1_SPI3EN
 252:../STM32Cube_FW_N6/Drivers/STM32N6xx_HAL_Driver/Inc/stm32n6xx_ll_bus.h **** #define LL_APB1_GRP1_PERIPH_TIM2           RCC_APB1ENR1_TIM2EN
 253:../STM32Cube_FW_N6/Drivers/STM32N6xx_HAL_Driver/Inc/stm32n6xx_ll_bus.h **** #define LL_APB1_GRP1_PERIPH_TIM3           RCC_APB1ENR1_TIM3EN
 254:../STM32Cube_FW_N6/Drivers/STM32N6xx_HAL_Driver/Inc/stm32n6xx_ll_bus.h **** #define LL_APB1_GRP1_PERIPH_TIM4           RCC_APB1ENR1_TIM4EN
 255:../STM32Cube_FW_N6/Drivers/STM32N6xx_HAL_Driver/Inc/stm32n6xx_ll_bus.h **** #define LL_APB1_GRP1_PERIPH_TIM5           RCC_APB1ENR1_TIM5EN
 256:../STM32Cube_FW_N6/Drivers/STM32N6xx_HAL_Driver/Inc/stm32n6xx_ll_bus.h **** #define LL_APB1_GRP1_PERIPH_TIM6           RCC_APB1ENR1_TIM6EN
 257:../STM32Cube_FW_N6/Drivers/STM32N6xx_HAL_Driver/Inc/stm32n6xx_ll_bus.h **** #define LL_APB1_GRP1_PERIPH_TIM7           RCC_APB1ENR1_TIM7EN
 258:../STM32Cube_FW_N6/Drivers/STM32N6xx_HAL_Driver/Inc/stm32n6xx_ll_bus.h **** #define LL_APB1_GRP1_PERIPH_TIM10          RCC_APB1ENR1_TIM10EN
 259:../STM32Cube_FW_N6/Drivers/STM32N6xx_HAL_Driver/Inc/stm32n6xx_ll_bus.h **** #define LL_APB1_GRP1_PERIPH_TIM11          RCC_APB1ENR1_TIM11EN
 260:../STM32Cube_FW_N6/Drivers/STM32N6xx_HAL_Driver/Inc/stm32n6xx_ll_bus.h **** #define LL_APB1_GRP1_PERIPH_TIM12          RCC_APB1ENR1_TIM12EN
 261:../STM32Cube_FW_N6/Drivers/STM32N6xx_HAL_Driver/Inc/stm32n6xx_ll_bus.h **** #define LL_APB1_GRP1_PERIPH_TIM13          RCC_APB1ENR1_TIM13EN
 262:../STM32Cube_FW_N6/Drivers/STM32N6xx_HAL_Driver/Inc/stm32n6xx_ll_bus.h **** #define LL_APB1_GRP1_PERIPH_TIM14          RCC_APB1ENR1_TIM14EN
 263:../STM32Cube_FW_N6/Drivers/STM32N6xx_HAL_Driver/Inc/stm32n6xx_ll_bus.h **** #define LL_APB1_GRP1_PERIPH_USART2         RCC_APB1ENR1_USART2EN
 264:../STM32Cube_FW_N6/Drivers/STM32N6xx_HAL_Driver/Inc/stm32n6xx_ll_bus.h **** #define LL_APB1_GRP1_PERIPH_USART3         RCC_APB1ENR1_USART3EN
 265:../STM32Cube_FW_N6/Drivers/STM32N6xx_HAL_Driver/Inc/stm32n6xx_ll_bus.h **** #define LL_APB1_GRP1_PERIPH_UART4          RCC_APB1ENR1_UART4EN
ARM GAS  /tmp/ccN2N8if.s 			page 42


 266:../STM32Cube_FW_N6/Drivers/STM32N6xx_HAL_Driver/Inc/stm32n6xx_ll_bus.h **** #define LL_APB1_GRP1_PERIPH_UART5          RCC_APB1ENR1_UART5EN
 267:../STM32Cube_FW_N6/Drivers/STM32N6xx_HAL_Driver/Inc/stm32n6xx_ll_bus.h **** #define LL_APB1_GRP1_PERIPH_UART7          RCC_APB1ENR1_UART7EN
 268:../STM32Cube_FW_N6/Drivers/STM32N6xx_HAL_Driver/Inc/stm32n6xx_ll_bus.h **** #define LL_APB1_GRP1_PERIPH_UART8          RCC_APB1ENR1_UART8EN
 269:../STM32Cube_FW_N6/Drivers/STM32N6xx_HAL_Driver/Inc/stm32n6xx_ll_bus.h **** #define LL_APB1_GRP1_PERIPH_WWDG           RCC_APB1ENR1_WWDGEN
 270:../STM32Cube_FW_N6/Drivers/STM32N6xx_HAL_Driver/Inc/stm32n6xx_ll_bus.h **** #define LL_APB1_GRP1_PERIPH_ALL            (LL_APB1_GRP1_PERIPH_I2C1     | LL_APB1_GRP1_PERIPH_I2C2
 271:../STM32Cube_FW_N6/Drivers/STM32N6xx_HAL_Driver/Inc/stm32n6xx_ll_bus.h ****                                             LL_APB1_GRP1_PERIPH_I2C3     | LL_APB1_GRP1_PERIPH_I3C1
 272:../STM32Cube_FW_N6/Drivers/STM32N6xx_HAL_Driver/Inc/stm32n6xx_ll_bus.h ****                                             LL_APB1_GRP1_PERIPH_I3C2     | LL_APB1_GRP1_PERIPH_LPTI
 273:../STM32Cube_FW_N6/Drivers/STM32N6xx_HAL_Driver/Inc/stm32n6xx_ll_bus.h ****                                             LL_APB1_GRP1_PERIPH_SPDIFRX1 | LL_APB1_GRP1_PERIPH_SPI2
 274:../STM32Cube_FW_N6/Drivers/STM32N6xx_HAL_Driver/Inc/stm32n6xx_ll_bus.h ****                                             LL_APB1_GRP1_PERIPH_SPI3     | LL_APB1_GRP1_PERIPH_TIM2
 275:../STM32Cube_FW_N6/Drivers/STM32N6xx_HAL_Driver/Inc/stm32n6xx_ll_bus.h ****                                             LL_APB1_GRP1_PERIPH_TIM3     | LL_APB1_GRP1_PERIPH_TIM4
 276:../STM32Cube_FW_N6/Drivers/STM32N6xx_HAL_Driver/Inc/stm32n6xx_ll_bus.h ****                                             LL_APB1_GRP1_PERIPH_TIM5     | LL_APB1_GRP1_PERIPH_TIM6
 277:../STM32Cube_FW_N6/Drivers/STM32N6xx_HAL_Driver/Inc/stm32n6xx_ll_bus.h ****                                             LL_APB1_GRP1_PERIPH_TIM7     | LL_APB1_GRP1_PERIPH_TIM1
 278:../STM32Cube_FW_N6/Drivers/STM32N6xx_HAL_Driver/Inc/stm32n6xx_ll_bus.h ****                                             LL_APB1_GRP1_PERIPH_TIM11    | LL_APB1_GRP1_PERIPH_TIM1
 279:../STM32Cube_FW_N6/Drivers/STM32N6xx_HAL_Driver/Inc/stm32n6xx_ll_bus.h ****                                             LL_APB1_GRP1_PERIPH_TIM13    | LL_APB1_GRP1_PERIPH_TIM1
 280:../STM32Cube_FW_N6/Drivers/STM32N6xx_HAL_Driver/Inc/stm32n6xx_ll_bus.h ****                                             LL_APB1_GRP1_PERIPH_USART2   | LL_APB1_GRP1_PERIPH_USAR
 281:../STM32Cube_FW_N6/Drivers/STM32N6xx_HAL_Driver/Inc/stm32n6xx_ll_bus.h ****                                             LL_APB1_GRP1_PERIPH_UART4    | LL_APB1_GRP1_PERIPH_UART
 282:../STM32Cube_FW_N6/Drivers/STM32N6xx_HAL_Driver/Inc/stm32n6xx_ll_bus.h ****                                             LL_APB1_GRP1_PERIPH_UART7    | LL_APB1_GRP1_PERIPH_UART
 283:../STM32Cube_FW_N6/Drivers/STM32N6xx_HAL_Driver/Inc/stm32n6xx_ll_bus.h ****                                             LL_APB1_GRP1_PERIPH_WWDG)
 284:../STM32Cube_FW_N6/Drivers/STM32N6xx_HAL_Driver/Inc/stm32n6xx_ll_bus.h **** /**
 285:../STM32Cube_FW_N6/Drivers/STM32N6xx_HAL_Driver/Inc/stm32n6xx_ll_bus.h ****   * @}
 286:../STM32Cube_FW_N6/Drivers/STM32N6xx_HAL_Driver/Inc/stm32n6xx_ll_bus.h ****   */
 287:../STM32Cube_FW_N6/Drivers/STM32N6xx_HAL_Driver/Inc/stm32n6xx_ll_bus.h **** 
 288:../STM32Cube_FW_N6/Drivers/STM32N6xx_HAL_Driver/Inc/stm32n6xx_ll_bus.h **** /** @defgroup BUS_LL_EC_APB1_GRP2_PERIPH  APB1 GRP2 PERIPH
 289:../STM32Cube_FW_N6/Drivers/STM32N6xx_HAL_Driver/Inc/stm32n6xx_ll_bus.h ****   * @{
 290:../STM32Cube_FW_N6/Drivers/STM32N6xx_HAL_Driver/Inc/stm32n6xx_ll_bus.h ****   */
 291:../STM32Cube_FW_N6/Drivers/STM32N6xx_HAL_Driver/Inc/stm32n6xx_ll_bus.h **** #define LL_APB1_GRP2_PERIPH_FDCAN          RCC_APB1ENR2_FDCANEN
 292:../STM32Cube_FW_N6/Drivers/STM32N6xx_HAL_Driver/Inc/stm32n6xx_ll_bus.h **** #define LL_APB1_GRP2_PERIPH_MDIOS          RCC_APB1ENR2_MDIOSEN
 293:../STM32Cube_FW_N6/Drivers/STM32N6xx_HAL_Driver/Inc/stm32n6xx_ll_bus.h **** #define LL_APB1_GRP2_PERIPH_UCPD1          RCC_APB1ENR2_UCPD1EN
 294:../STM32Cube_FW_N6/Drivers/STM32N6xx_HAL_Driver/Inc/stm32n6xx_ll_bus.h **** #define LL_APB1_GRP2_PERIPH_ALL            (LL_APB1_GRP2_PERIPH_FDCAN | LL_APB1_GRP2_PERIPH_MDIOS |
 295:../STM32Cube_FW_N6/Drivers/STM32N6xx_HAL_Driver/Inc/stm32n6xx_ll_bus.h ****                                             LL_APB1_GRP2_PERIPH_UCPD1)
 296:../STM32Cube_FW_N6/Drivers/STM32N6xx_HAL_Driver/Inc/stm32n6xx_ll_bus.h **** /**
 297:../STM32Cube_FW_N6/Drivers/STM32N6xx_HAL_Driver/Inc/stm32n6xx_ll_bus.h ****   * @}
 298:../STM32Cube_FW_N6/Drivers/STM32N6xx_HAL_Driver/Inc/stm32n6xx_ll_bus.h ****   */
 299:../STM32Cube_FW_N6/Drivers/STM32N6xx_HAL_Driver/Inc/stm32n6xx_ll_bus.h **** 
 300:../STM32Cube_FW_N6/Drivers/STM32N6xx_HAL_Driver/Inc/stm32n6xx_ll_bus.h **** /** @defgroup BUS_LL_EC_APB2_GRP1_PERIPH  APB2 GRP1 PERIPH
 301:../STM32Cube_FW_N6/Drivers/STM32N6xx_HAL_Driver/Inc/stm32n6xx_ll_bus.h ****   * @{
 302:../STM32Cube_FW_N6/Drivers/STM32N6xx_HAL_Driver/Inc/stm32n6xx_ll_bus.h ****   */
 303:../STM32Cube_FW_N6/Drivers/STM32N6xx_HAL_Driver/Inc/stm32n6xx_ll_bus.h **** #define LL_APB2_GRP1_PERIPH_SAI1           RCC_APB2ENR_SAI1EN
 304:../STM32Cube_FW_N6/Drivers/STM32N6xx_HAL_Driver/Inc/stm32n6xx_ll_bus.h **** #define LL_APB2_GRP1_PERIPH_SAI2           RCC_APB2ENR_SAI2EN
 305:../STM32Cube_FW_N6/Drivers/STM32N6xx_HAL_Driver/Inc/stm32n6xx_ll_bus.h **** #define LL_APB2_GRP1_PERIPH_SPI1           RCC_APB2ENR_SPI1EN
 306:../STM32Cube_FW_N6/Drivers/STM32N6xx_HAL_Driver/Inc/stm32n6xx_ll_bus.h **** #define LL_APB2_GRP1_PERIPH_SPI4           RCC_APB2ENR_SPI4EN
 307:../STM32Cube_FW_N6/Drivers/STM32N6xx_HAL_Driver/Inc/stm32n6xx_ll_bus.h **** #define LL_APB2_GRP1_PERIPH_SPI5           RCC_APB2ENR_SPI5EN
 308:../STM32Cube_FW_N6/Drivers/STM32N6xx_HAL_Driver/Inc/stm32n6xx_ll_bus.h **** #define LL_APB2_GRP1_PERIPH_TIM1           RCC_APB2ENR_TIM1EN
 309:../STM32Cube_FW_N6/Drivers/STM32N6xx_HAL_Driver/Inc/stm32n6xx_ll_bus.h **** #define LL_APB2_GRP1_PERIPH_TIM8           RCC_APB2ENR_TIM8EN
 310:../STM32Cube_FW_N6/Drivers/STM32N6xx_HAL_Driver/Inc/stm32n6xx_ll_bus.h **** #define LL_APB2_GRP1_PERIPH_TIM9           RCC_APB2ENR_TIM9EN
 311:../STM32Cube_FW_N6/Drivers/STM32N6xx_HAL_Driver/Inc/stm32n6xx_ll_bus.h **** #define LL_APB2_GRP1_PERIPH_TIM15          RCC_APB2ENR_TIM15EN
 312:../STM32Cube_FW_N6/Drivers/STM32N6xx_HAL_Driver/Inc/stm32n6xx_ll_bus.h **** #define LL_APB2_GRP1_PERIPH_TIM16          RCC_APB2ENR_TIM16EN
 313:../STM32Cube_FW_N6/Drivers/STM32N6xx_HAL_Driver/Inc/stm32n6xx_ll_bus.h **** #define LL_APB2_GRP1_PERIPH_TIM17          RCC_APB2ENR_TIM17EN
 314:../STM32Cube_FW_N6/Drivers/STM32N6xx_HAL_Driver/Inc/stm32n6xx_ll_bus.h **** #define LL_APB2_GRP1_PERIPH_TIM18          RCC_APB2ENR_TIM18EN
 315:../STM32Cube_FW_N6/Drivers/STM32N6xx_HAL_Driver/Inc/stm32n6xx_ll_bus.h **** #define LL_APB2_GRP1_PERIPH_USART1         RCC_APB2ENR_USART1EN
 316:../STM32Cube_FW_N6/Drivers/STM32N6xx_HAL_Driver/Inc/stm32n6xx_ll_bus.h **** #define LL_APB2_GRP1_PERIPH_USART6         RCC_APB2ENR_USART6EN
 317:../STM32Cube_FW_N6/Drivers/STM32N6xx_HAL_Driver/Inc/stm32n6xx_ll_bus.h **** #define LL_APB2_GRP1_PERIPH_UART9          RCC_APB2ENR_UART9EN
 318:../STM32Cube_FW_N6/Drivers/STM32N6xx_HAL_Driver/Inc/stm32n6xx_ll_bus.h **** #define LL_APB2_GRP1_PERIPH_USART10        RCC_APB2ENR_USART10EN
 319:../STM32Cube_FW_N6/Drivers/STM32N6xx_HAL_Driver/Inc/stm32n6xx_ll_bus.h **** #define LL_APB2_GRP1_PERIPH_ALL            (LL_APB2_GRP1_PERIPH_SAI1   | LL_APB2_GRP1_PERIPH_SAI2  
 320:../STM32Cube_FW_N6/Drivers/STM32N6xx_HAL_Driver/Inc/stm32n6xx_ll_bus.h ****                                             LL_APB2_GRP1_PERIPH_SPI1   | LL_APB2_GRP1_PERIPH_SPI4  
 321:../STM32Cube_FW_N6/Drivers/STM32N6xx_HAL_Driver/Inc/stm32n6xx_ll_bus.h ****                                             LL_APB2_GRP1_PERIPH_SPI5   | LL_APB2_GRP1_PERIPH_TIM1  
 322:../STM32Cube_FW_N6/Drivers/STM32N6xx_HAL_Driver/Inc/stm32n6xx_ll_bus.h ****                                             LL_APB2_GRP1_PERIPH_TIM8   | LL_APB2_GRP1_PERIPH_TIM9  
ARM GAS  /tmp/ccN2N8if.s 			page 43


 323:../STM32Cube_FW_N6/Drivers/STM32N6xx_HAL_Driver/Inc/stm32n6xx_ll_bus.h ****                                             LL_APB2_GRP1_PERIPH_TIM15  | LL_APB2_GRP1_PERIPH_TIM16 
 324:../STM32Cube_FW_N6/Drivers/STM32N6xx_HAL_Driver/Inc/stm32n6xx_ll_bus.h ****                                             LL_APB2_GRP1_PERIPH_TIM17  | LL_APB2_GRP1_PERIPH_TIM18 
 325:../STM32Cube_FW_N6/Drivers/STM32N6xx_HAL_Driver/Inc/stm32n6xx_ll_bus.h ****                                             LL_APB2_GRP1_PERIPH_USART1 | LL_APB2_GRP1_PERIPH_USART6
 326:../STM32Cube_FW_N6/Drivers/STM32N6xx_HAL_Driver/Inc/stm32n6xx_ll_bus.h ****                                             LL_APB2_GRP1_PERIPH_UART9  | LL_APB2_GRP1_PERIPH_USART1
 327:../STM32Cube_FW_N6/Drivers/STM32N6xx_HAL_Driver/Inc/stm32n6xx_ll_bus.h **** /**
 328:../STM32Cube_FW_N6/Drivers/STM32N6xx_HAL_Driver/Inc/stm32n6xx_ll_bus.h ****   * @}
 329:../STM32Cube_FW_N6/Drivers/STM32N6xx_HAL_Driver/Inc/stm32n6xx_ll_bus.h ****   */
 330:../STM32Cube_FW_N6/Drivers/STM32N6xx_HAL_Driver/Inc/stm32n6xx_ll_bus.h **** 
 331:../STM32Cube_FW_N6/Drivers/STM32N6xx_HAL_Driver/Inc/stm32n6xx_ll_bus.h **** /** @defgroup BUS_LL_EC_APB4_GRP1_PERIPH  APB4 GRP1 PERIPH
 332:../STM32Cube_FW_N6/Drivers/STM32N6xx_HAL_Driver/Inc/stm32n6xx_ll_bus.h ****   * @{
 333:../STM32Cube_FW_N6/Drivers/STM32N6xx_HAL_Driver/Inc/stm32n6xx_ll_bus.h ****   */
 334:../STM32Cube_FW_N6/Drivers/STM32N6xx_HAL_Driver/Inc/stm32n6xx_ll_bus.h **** #define LL_APB4_GRP1_PERIPH_HDP            RCC_APB4ENR1_HDPEN
 335:../STM32Cube_FW_N6/Drivers/STM32N6xx_HAL_Driver/Inc/stm32n6xx_ll_bus.h **** #define LL_APB4_GRP1_PERIPH_I2C4           RCC_APB4ENR1_I2C4EN
 336:../STM32Cube_FW_N6/Drivers/STM32N6xx_HAL_Driver/Inc/stm32n6xx_ll_bus.h **** #define LL_APB4_GRP1_PERIPH_LPTIM2         RCC_APB4ENR1_LPTIM2EN
 337:../STM32Cube_FW_N6/Drivers/STM32N6xx_HAL_Driver/Inc/stm32n6xx_ll_bus.h **** #define LL_APB4_GRP1_PERIPH_LPTIM3         RCC_APB4ENR1_LPTIM3EN
 338:../STM32Cube_FW_N6/Drivers/STM32N6xx_HAL_Driver/Inc/stm32n6xx_ll_bus.h **** #define LL_APB4_GRP1_PERIPH_LPTIM4         RCC_APB4ENR1_LPTIM4EN
 339:../STM32Cube_FW_N6/Drivers/STM32N6xx_HAL_Driver/Inc/stm32n6xx_ll_bus.h **** #define LL_APB4_GRP1_PERIPH_LPTIM5         RCC_APB4ENR1_LPTIM5EN
 340:../STM32Cube_FW_N6/Drivers/STM32N6xx_HAL_Driver/Inc/stm32n6xx_ll_bus.h **** #define LL_APB4_GRP1_PERIPH_LPUART1        RCC_APB4ENR1_LPUART1EN
 341:../STM32Cube_FW_N6/Drivers/STM32N6xx_HAL_Driver/Inc/stm32n6xx_ll_bus.h **** #define LL_APB4_GRP1_PERIPH_RTC            RCC_APB4ENR1_RTCEN
 342:../STM32Cube_FW_N6/Drivers/STM32N6xx_HAL_Driver/Inc/stm32n6xx_ll_bus.h **** #define LL_APB4_GRP1_PERIPH_RTCAPB         RCC_APB4ENR1_RTCAPBEN
 343:../STM32Cube_FW_N6/Drivers/STM32N6xx_HAL_Driver/Inc/stm32n6xx_ll_bus.h **** #define LL_APB4_GRP1_PERIPH_SPI6           RCC_APB4ENR1_SPI6EN
 344:../STM32Cube_FW_N6/Drivers/STM32N6xx_HAL_Driver/Inc/stm32n6xx_ll_bus.h **** #define LL_APB4_GRP1_PERIPH_VREFBUF        RCC_APB4ENR1_VREFBUFEN
 345:../STM32Cube_FW_N6/Drivers/STM32N6xx_HAL_Driver/Inc/stm32n6xx_ll_bus.h **** #define LL_APB4_GRP1_PERIPH_ALL            (LL_APB4_GRP1_PERIPH_HDP     | LL_APB4_GRP1_PERIPH_I2C4 
 346:../STM32Cube_FW_N6/Drivers/STM32N6xx_HAL_Driver/Inc/stm32n6xx_ll_bus.h ****                                             LL_APB4_GRP1_PERIPH_LPTIM2  | LL_APB4_GRP1_PERIPH_LPTIM
 347:../STM32Cube_FW_N6/Drivers/STM32N6xx_HAL_Driver/Inc/stm32n6xx_ll_bus.h ****                                             LL_APB4_GRP1_PERIPH_LPTIM4  | LL_APB4_GRP1_PERIPH_LPTIM
 348:../STM32Cube_FW_N6/Drivers/STM32N6xx_HAL_Driver/Inc/stm32n6xx_ll_bus.h ****                                             LL_APB4_GRP1_PERIPH_LPUART1 | LL_APB4_GRP1_PERIPH_RTC  
 349:../STM32Cube_FW_N6/Drivers/STM32N6xx_HAL_Driver/Inc/stm32n6xx_ll_bus.h ****                                             LL_APB4_GRP1_PERIPH_RTCAPB  | LL_APB4_GRP1_PERIPH_SPI6 
 350:../STM32Cube_FW_N6/Drivers/STM32N6xx_HAL_Driver/Inc/stm32n6xx_ll_bus.h ****                                             LL_APB4_GRP1_PERIPH_VREFBUF)
 351:../STM32Cube_FW_N6/Drivers/STM32N6xx_HAL_Driver/Inc/stm32n6xx_ll_bus.h **** /**
 352:../STM32Cube_FW_N6/Drivers/STM32N6xx_HAL_Driver/Inc/stm32n6xx_ll_bus.h ****   * @}
 353:../STM32Cube_FW_N6/Drivers/STM32N6xx_HAL_Driver/Inc/stm32n6xx_ll_bus.h ****   */
 354:../STM32Cube_FW_N6/Drivers/STM32N6xx_HAL_Driver/Inc/stm32n6xx_ll_bus.h **** 
 355:../STM32Cube_FW_N6/Drivers/STM32N6xx_HAL_Driver/Inc/stm32n6xx_ll_bus.h **** /** @defgroup BUS_LL_EC_APB4_GRP2_PERIPH  APB4 GRP2 PERIPH
 356:../STM32Cube_FW_N6/Drivers/STM32N6xx_HAL_Driver/Inc/stm32n6xx_ll_bus.h ****   * @{
 357:../STM32Cube_FW_N6/Drivers/STM32N6xx_HAL_Driver/Inc/stm32n6xx_ll_bus.h ****   */
 358:../STM32Cube_FW_N6/Drivers/STM32N6xx_HAL_Driver/Inc/stm32n6xx_ll_bus.h **** #define LL_APB4_GRP2_PERIPH_BSEC           RCC_APB4ENR2_BSECEN
 359:../STM32Cube_FW_N6/Drivers/STM32N6xx_HAL_Driver/Inc/stm32n6xx_ll_bus.h **** #define LL_APB4_GRP2_PERIPH_DTS            RCC_APB4ENR2_DTSEN
 360:../STM32Cube_FW_N6/Drivers/STM32N6xx_HAL_Driver/Inc/stm32n6xx_ll_bus.h **** #define LL_APB4_GRP2_PERIPH_SYSCFG         RCC_APB4ENR2_SYSCFGEN
 361:../STM32Cube_FW_N6/Drivers/STM32N6xx_HAL_Driver/Inc/stm32n6xx_ll_bus.h **** #define LL_APB4_GRP2_PERIPH_ALL            (LL_APB4_GRP2_PERIPH_BSEC | LL_APB4_GRP2_PERIPH_DTS | \
 362:../STM32Cube_FW_N6/Drivers/STM32N6xx_HAL_Driver/Inc/stm32n6xx_ll_bus.h ****                                             LL_APB4_GRP2_PERIPH_SYSCFG)
 363:../STM32Cube_FW_N6/Drivers/STM32N6xx_HAL_Driver/Inc/stm32n6xx_ll_bus.h **** /**
 364:../STM32Cube_FW_N6/Drivers/STM32N6xx_HAL_Driver/Inc/stm32n6xx_ll_bus.h ****   * @}
 365:../STM32Cube_FW_N6/Drivers/STM32N6xx_HAL_Driver/Inc/stm32n6xx_ll_bus.h ****   */
 366:../STM32Cube_FW_N6/Drivers/STM32N6xx_HAL_Driver/Inc/stm32n6xx_ll_bus.h **** 
 367:../STM32Cube_FW_N6/Drivers/STM32N6xx_HAL_Driver/Inc/stm32n6xx_ll_bus.h **** /** @defgroup BUS_LL_EC_APB5_GRP1_PERIPH  APB5 GRP1 PERIPH
 368:../STM32Cube_FW_N6/Drivers/STM32N6xx_HAL_Driver/Inc/stm32n6xx_ll_bus.h ****   * @{
 369:../STM32Cube_FW_N6/Drivers/STM32N6xx_HAL_Driver/Inc/stm32n6xx_ll_bus.h ****   */
 370:../STM32Cube_FW_N6/Drivers/STM32N6xx_HAL_Driver/Inc/stm32n6xx_ll_bus.h **** #define LL_APB5_GRP1_PERIPH_CSI            RCC_APB5ENR_CSIEN
 371:../STM32Cube_FW_N6/Drivers/STM32N6xx_HAL_Driver/Inc/stm32n6xx_ll_bus.h **** #define LL_APB5_GRP1_PERIPH_DCMIPP         RCC_APB5ENR_DCMIPPEN
 372:../STM32Cube_FW_N6/Drivers/STM32N6xx_HAL_Driver/Inc/stm32n6xx_ll_bus.h **** #define LL_APB5_GRP1_PERIPH_GFXTIM         RCC_APB5ENR_GFXTIMEN
 373:../STM32Cube_FW_N6/Drivers/STM32N6xx_HAL_Driver/Inc/stm32n6xx_ll_bus.h **** #define LL_APB5_GRP1_PERIPH_LTDC           RCC_APB5ENR_LTDCEN
 374:../STM32Cube_FW_N6/Drivers/STM32N6xx_HAL_Driver/Inc/stm32n6xx_ll_bus.h **** #if defined(VENC)
 375:../STM32Cube_FW_N6/Drivers/STM32N6xx_HAL_Driver/Inc/stm32n6xx_ll_bus.h **** #define LL_APB5_GRP1_PERIPH_VENC           RCC_APB5ENR_VENCEN
 376:../STM32Cube_FW_N6/Drivers/STM32N6xx_HAL_Driver/Inc/stm32n6xx_ll_bus.h **** #else
 377:../STM32Cube_FW_N6/Drivers/STM32N6xx_HAL_Driver/Inc/stm32n6xx_ll_bus.h **** #define LL_APB5_GRP1_PERIPH_VENC
 378:../STM32Cube_FW_N6/Drivers/STM32N6xx_HAL_Driver/Inc/stm32n6xx_ll_bus.h **** #endif /* VENC */
 379:../STM32Cube_FW_N6/Drivers/STM32N6xx_HAL_Driver/Inc/stm32n6xx_ll_bus.h **** #define LL_APB5_GRP1_PERIPH_ALL            (LL_APB5_GRP1_PERIPH_CSI    | LL_APB5_GRP1_PERIPH_DCMIPP
ARM GAS  /tmp/ccN2N8if.s 			page 44


 380:../STM32Cube_FW_N6/Drivers/STM32N6xx_HAL_Driver/Inc/stm32n6xx_ll_bus.h ****                                             LL_APB5_GRP1_PERIPH_GFXTIM | LL_APB5_GRP1_PERIPH_LTDC  
 381:../STM32Cube_FW_N6/Drivers/STM32N6xx_HAL_Driver/Inc/stm32n6xx_ll_bus.h ****                                             LL_APB5_GRP1_PERIPH_VENC)
 382:../STM32Cube_FW_N6/Drivers/STM32N6xx_HAL_Driver/Inc/stm32n6xx_ll_bus.h **** /**
 383:../STM32Cube_FW_N6/Drivers/STM32N6xx_HAL_Driver/Inc/stm32n6xx_ll_bus.h ****   * @}
 384:../STM32Cube_FW_N6/Drivers/STM32N6xx_HAL_Driver/Inc/stm32n6xx_ll_bus.h ****   */
 385:../STM32Cube_FW_N6/Drivers/STM32N6xx_HAL_Driver/Inc/stm32n6xx_ll_bus.h **** 
 386:../STM32Cube_FW_N6/Drivers/STM32N6xx_HAL_Driver/Inc/stm32n6xx_ll_bus.h **** /** @defgroup BUS_LL_EC_MISC  MISC
 387:../STM32Cube_FW_N6/Drivers/STM32N6xx_HAL_Driver/Inc/stm32n6xx_ll_bus.h ****   * @{
 388:../STM32Cube_FW_N6/Drivers/STM32N6xx_HAL_Driver/Inc/stm32n6xx_ll_bus.h ****   */
 389:../STM32Cube_FW_N6/Drivers/STM32N6xx_HAL_Driver/Inc/stm32n6xx_ll_bus.h **** #define LL_DBG                             RCC_MISCENR_DBGEN
 390:../STM32Cube_FW_N6/Drivers/STM32N6xx_HAL_Driver/Inc/stm32n6xx_ll_bus.h **** #define LL_MCO1                            RCC_MISCENR_MCO1EN
 391:../STM32Cube_FW_N6/Drivers/STM32N6xx_HAL_Driver/Inc/stm32n6xx_ll_bus.h **** #define LL_MCO2                            RCC_MISCENR_MCO2EN
 392:../STM32Cube_FW_N6/Drivers/STM32N6xx_HAL_Driver/Inc/stm32n6xx_ll_bus.h **** #define LL_XSPIPHYCOMP                     RCC_MISCENR_XSPIPHYCOMPEN
 393:../STM32Cube_FW_N6/Drivers/STM32N6xx_HAL_Driver/Inc/stm32n6xx_ll_bus.h **** #define LL_XSPIPHY1                        RCC_MISCRSTR_XSPIPHY1RST
 394:../STM32Cube_FW_N6/Drivers/STM32N6xx_HAL_Driver/Inc/stm32n6xx_ll_bus.h **** #define LL_XSPIPHY2                        RCC_MISCRSTR_XSPIPHY2RST
 395:../STM32Cube_FW_N6/Drivers/STM32N6xx_HAL_Driver/Inc/stm32n6xx_ll_bus.h **** #define LL_PER                             RCC_MISCENR_PEREN
 396:../STM32Cube_FW_N6/Drivers/STM32N6xx_HAL_Driver/Inc/stm32n6xx_ll_bus.h **** #define LL_SDMMC1DLL                       RCC_MISCRSTR_SDMMC1DLLRST
 397:../STM32Cube_FW_N6/Drivers/STM32N6xx_HAL_Driver/Inc/stm32n6xx_ll_bus.h **** #define LL_SDMMC2DLL                       RCC_MISCRSTR_SDMMC2DLLRST
 398:../STM32Cube_FW_N6/Drivers/STM32N6xx_HAL_Driver/Inc/stm32n6xx_ll_bus.h **** /**
 399:../STM32Cube_FW_N6/Drivers/STM32N6xx_HAL_Driver/Inc/stm32n6xx_ll_bus.h ****   * @}
 400:../STM32Cube_FW_N6/Drivers/STM32N6xx_HAL_Driver/Inc/stm32n6xx_ll_bus.h ****   */
 401:../STM32Cube_FW_N6/Drivers/STM32N6xx_HAL_Driver/Inc/stm32n6xx_ll_bus.h **** 
 402:../STM32Cube_FW_N6/Drivers/STM32N6xx_HAL_Driver/Inc/stm32n6xx_ll_bus.h **** /**
 403:../STM32Cube_FW_N6/Drivers/STM32N6xx_HAL_Driver/Inc/stm32n6xx_ll_bus.h ****   * @}
 404:../STM32Cube_FW_N6/Drivers/STM32N6xx_HAL_Driver/Inc/stm32n6xx_ll_bus.h ****   */
 405:../STM32Cube_FW_N6/Drivers/STM32N6xx_HAL_Driver/Inc/stm32n6xx_ll_bus.h **** 
 406:../STM32Cube_FW_N6/Drivers/STM32N6xx_HAL_Driver/Inc/stm32n6xx_ll_bus.h **** /* Exported macros -----------------------------------------------------------*/
 407:../STM32Cube_FW_N6/Drivers/STM32N6xx_HAL_Driver/Inc/stm32n6xx_ll_bus.h **** 
 408:../STM32Cube_FW_N6/Drivers/STM32N6xx_HAL_Driver/Inc/stm32n6xx_ll_bus.h **** /* Exported functions --------------------------------------------------------*/
 409:../STM32Cube_FW_N6/Drivers/STM32N6xx_HAL_Driver/Inc/stm32n6xx_ll_bus.h **** 
 410:../STM32Cube_FW_N6/Drivers/STM32N6xx_HAL_Driver/Inc/stm32n6xx_ll_bus.h **** /** @defgroup BUS_LL_Exported_Functions BUS Exported Functions
 411:../STM32Cube_FW_N6/Drivers/STM32N6xx_HAL_Driver/Inc/stm32n6xx_ll_bus.h ****   * @{
 412:../STM32Cube_FW_N6/Drivers/STM32N6xx_HAL_Driver/Inc/stm32n6xx_ll_bus.h ****   */
 413:../STM32Cube_FW_N6/Drivers/STM32N6xx_HAL_Driver/Inc/stm32n6xx_ll_bus.h **** 
 414:../STM32Cube_FW_N6/Drivers/STM32N6xx_HAL_Driver/Inc/stm32n6xx_ll_bus.h **** /** @defgroup BUS_LL_EF_BUS BUS
 415:../STM32Cube_FW_N6/Drivers/STM32N6xx_HAL_Driver/Inc/stm32n6xx_ll_bus.h ****   * @{
 416:../STM32Cube_FW_N6/Drivers/STM32N6xx_HAL_Driver/Inc/stm32n6xx_ll_bus.h ****   */
 417:../STM32Cube_FW_N6/Drivers/STM32N6xx_HAL_Driver/Inc/stm32n6xx_ll_bus.h **** 
 418:../STM32Cube_FW_N6/Drivers/STM32N6xx_HAL_Driver/Inc/stm32n6xx_ll_bus.h **** /**
 419:../STM32Cube_FW_N6/Drivers/STM32N6xx_HAL_Driver/Inc/stm32n6xx_ll_bus.h ****   * @brief  Enable AXI bus clock.
 420:../STM32Cube_FW_N6/Drivers/STM32N6xx_HAL_Driver/Inc/stm32n6xx_ll_bus.h ****   * @rmtoll BUSENSR      ACLKNENS      LL_BUS_EnableClock\n
 421:../STM32Cube_FW_N6/Drivers/STM32N6xx_HAL_Driver/Inc/stm32n6xx_ll_bus.h ****   *         BUSENSR      ACLKNCENS     LL_BUS_EnableClock\n
 422:../STM32Cube_FW_N6/Drivers/STM32N6xx_HAL_Driver/Inc/stm32n6xx_ll_bus.h ****   *         BUSENSR      AHBMENS       LL_BUS_EnableClock\n
 423:../STM32Cube_FW_N6/Drivers/STM32N6xx_HAL_Driver/Inc/stm32n6xx_ll_bus.h ****   *         BUSENSR      AHB1ENS       LL_BUS_EnableClock\n
 424:../STM32Cube_FW_N6/Drivers/STM32N6xx_HAL_Driver/Inc/stm32n6xx_ll_bus.h ****   *         BUSENSR      AHB2ENS       LL_BUS_EnableClock\n
 425:../STM32Cube_FW_N6/Drivers/STM32N6xx_HAL_Driver/Inc/stm32n6xx_ll_bus.h ****   *         BUSENSR      AHB3ENS       LL_BUS_EnableClock\n
 426:../STM32Cube_FW_N6/Drivers/STM32N6xx_HAL_Driver/Inc/stm32n6xx_ll_bus.h ****   *         BUSENSR      AHB4ENS       LL_BUS_EnableClock\n
 427:../STM32Cube_FW_N6/Drivers/STM32N6xx_HAL_Driver/Inc/stm32n6xx_ll_bus.h ****   *         BUSENSR      AHB5ENS       LL_BUS_EnableClock\n
 428:../STM32Cube_FW_N6/Drivers/STM32N6xx_HAL_Driver/Inc/stm32n6xx_ll_bus.h ****   *         BUSENSR      APB1ENS       LL_BUS_EnableClock\n
 429:../STM32Cube_FW_N6/Drivers/STM32N6xx_HAL_Driver/Inc/stm32n6xx_ll_bus.h ****   *         BUSENSR      APB2ENS       LL_BUS_EnableClock\n
 430:../STM32Cube_FW_N6/Drivers/STM32N6xx_HAL_Driver/Inc/stm32n6xx_ll_bus.h ****   *         BUSENSR      APB3ENS       LL_BUS_EnableClock\n
 431:../STM32Cube_FW_N6/Drivers/STM32N6xx_HAL_Driver/Inc/stm32n6xx_ll_bus.h ****   *         BUSENSR      APB4ENS       LL_BUS_EnableClock\n
 432:../STM32Cube_FW_N6/Drivers/STM32N6xx_HAL_Driver/Inc/stm32n6xx_ll_bus.h ****   *         BUSENSR      APB5ENS       LL_BUS_EnableClock
 433:../STM32Cube_FW_N6/Drivers/STM32N6xx_HAL_Driver/Inc/stm32n6xx_ll_bus.h ****   * @param  Bus This parameter can be a combination of the following values:
 434:../STM32Cube_FW_N6/Drivers/STM32N6xx_HAL_Driver/Inc/stm32n6xx_ll_bus.h ****   *         @arg @ref LL_ACLKN
 435:../STM32Cube_FW_N6/Drivers/STM32N6xx_HAL_Driver/Inc/stm32n6xx_ll_bus.h ****   *         @arg @ref LL_ACLKNC
 436:../STM32Cube_FW_N6/Drivers/STM32N6xx_HAL_Driver/Inc/stm32n6xx_ll_bus.h ****   *         @arg @ref LL_AHBM
ARM GAS  /tmp/ccN2N8if.s 			page 45


 437:../STM32Cube_FW_N6/Drivers/STM32N6xx_HAL_Driver/Inc/stm32n6xx_ll_bus.h ****   *         @arg @ref LL_AHB1
 438:../STM32Cube_FW_N6/Drivers/STM32N6xx_HAL_Driver/Inc/stm32n6xx_ll_bus.h ****   *         @arg @ref LL_AHB2
 439:../STM32Cube_FW_N6/Drivers/STM32N6xx_HAL_Driver/Inc/stm32n6xx_ll_bus.h ****   *         @arg @ref LL_AHB3
 440:../STM32Cube_FW_N6/Drivers/STM32N6xx_HAL_Driver/Inc/stm32n6xx_ll_bus.h ****   *         @arg @ref LL_AHB4
 441:../STM32Cube_FW_N6/Drivers/STM32N6xx_HAL_Driver/Inc/stm32n6xx_ll_bus.h ****   *         @arg @ref LL_AHB5
 442:../STM32Cube_FW_N6/Drivers/STM32N6xx_HAL_Driver/Inc/stm32n6xx_ll_bus.h ****   *         @arg @ref LL_APB1
 443:../STM32Cube_FW_N6/Drivers/STM32N6xx_HAL_Driver/Inc/stm32n6xx_ll_bus.h ****   *         @arg @ref LL_APB2
 444:../STM32Cube_FW_N6/Drivers/STM32N6xx_HAL_Driver/Inc/stm32n6xx_ll_bus.h ****   *         @arg @ref LL_APB3
 445:../STM32Cube_FW_N6/Drivers/STM32N6xx_HAL_Driver/Inc/stm32n6xx_ll_bus.h ****   *         @arg @ref LL_APB4
 446:../STM32Cube_FW_N6/Drivers/STM32N6xx_HAL_Driver/Inc/stm32n6xx_ll_bus.h ****   *         @arg @ref LL_APB5
 447:../STM32Cube_FW_N6/Drivers/STM32N6xx_HAL_Driver/Inc/stm32n6xx_ll_bus.h ****   * @retval None
 448:../STM32Cube_FW_N6/Drivers/STM32N6xx_HAL_Driver/Inc/stm32n6xx_ll_bus.h ****   */
 449:../STM32Cube_FW_N6/Drivers/STM32N6xx_HAL_Driver/Inc/stm32n6xx_ll_bus.h **** __STATIC_INLINE void LL_BUS_EnableClock(uint32_t Bus)
 450:../STM32Cube_FW_N6/Drivers/STM32N6xx_HAL_Driver/Inc/stm32n6xx_ll_bus.h **** {
 451:../STM32Cube_FW_N6/Drivers/STM32N6xx_HAL_Driver/Inc/stm32n6xx_ll_bus.h ****   __IO uint32_t tmpreg;
 452:../STM32Cube_FW_N6/Drivers/STM32N6xx_HAL_Driver/Inc/stm32n6xx_ll_bus.h ****   WRITE_REG(RCC->BUSENSR, Bus);
 453:../STM32Cube_FW_N6/Drivers/STM32N6xx_HAL_Driver/Inc/stm32n6xx_ll_bus.h ****   /* Delay after an RCC bus clock enabling */
 454:../STM32Cube_FW_N6/Drivers/STM32N6xx_HAL_Driver/Inc/stm32n6xx_ll_bus.h ****   tmpreg = READ_REG(RCC->BUSENR);
 455:../STM32Cube_FW_N6/Drivers/STM32N6xx_HAL_Driver/Inc/stm32n6xx_ll_bus.h ****   (void)tmpreg;
 456:../STM32Cube_FW_N6/Drivers/STM32N6xx_HAL_Driver/Inc/stm32n6xx_ll_bus.h **** }
 457:../STM32Cube_FW_N6/Drivers/STM32N6xx_HAL_Driver/Inc/stm32n6xx_ll_bus.h **** 
 458:../STM32Cube_FW_N6/Drivers/STM32N6xx_HAL_Driver/Inc/stm32n6xx_ll_bus.h **** /**
 459:../STM32Cube_FW_N6/Drivers/STM32N6xx_HAL_Driver/Inc/stm32n6xx_ll_bus.h ****   * @brief  Check if AXI bus clock is enabled or not
 460:../STM32Cube_FW_N6/Drivers/STM32N6xx_HAL_Driver/Inc/stm32n6xx_ll_bus.h ****   * @rmtoll BUSENR       ACLKNEN       LL_BUS_IsEnabledClock\n
 461:../STM32Cube_FW_N6/Drivers/STM32N6xx_HAL_Driver/Inc/stm32n6xx_ll_bus.h ****   *         BUSENR       ACLKNCEN      LL_BUS_IsEnabledClock\n
 462:../STM32Cube_FW_N6/Drivers/STM32N6xx_HAL_Driver/Inc/stm32n6xx_ll_bus.h ****   *         BUSENR       AHBMEN        LL_BUS_IsEnabledClock\n
 463:../STM32Cube_FW_N6/Drivers/STM32N6xx_HAL_Driver/Inc/stm32n6xx_ll_bus.h ****   *         BUSENR       AHB1EN        LL_BUS_IsEnabledClock\n
 464:../STM32Cube_FW_N6/Drivers/STM32N6xx_HAL_Driver/Inc/stm32n6xx_ll_bus.h ****   *         BUSENR       AHB2EN        LL_BUS_IsEnabledClock\n
 465:../STM32Cube_FW_N6/Drivers/STM32N6xx_HAL_Driver/Inc/stm32n6xx_ll_bus.h ****   *         BUSENR       AHB3EN        LL_BUS_IsEnabledClock\n
 466:../STM32Cube_FW_N6/Drivers/STM32N6xx_HAL_Driver/Inc/stm32n6xx_ll_bus.h ****   *         BUSENR       AHB4EN        LL_BUS_IsEnabledClock\n
 467:../STM32Cube_FW_N6/Drivers/STM32N6xx_HAL_Driver/Inc/stm32n6xx_ll_bus.h ****   *         BUSENR       AHB5EN        LL_BUS_IsEnabledClock\n
 468:../STM32Cube_FW_N6/Drivers/STM32N6xx_HAL_Driver/Inc/stm32n6xx_ll_bus.h ****   *         BUSENR       APB1EN        LL_BUS_IsEnabledClock\n
 469:../STM32Cube_FW_N6/Drivers/STM32N6xx_HAL_Driver/Inc/stm32n6xx_ll_bus.h ****   *         BUSENR       APB2EN        LL_BUS_IsEnabledClock\n
 470:../STM32Cube_FW_N6/Drivers/STM32N6xx_HAL_Driver/Inc/stm32n6xx_ll_bus.h ****   *         BUSENR       APB3EN        LL_BUS_IsEnabledClock\n
 471:../STM32Cube_FW_N6/Drivers/STM32N6xx_HAL_Driver/Inc/stm32n6xx_ll_bus.h ****   *         BUSENR       APB4EN        LL_BUS_IsEnabledClock\n
 472:../STM32Cube_FW_N6/Drivers/STM32N6xx_HAL_Driver/Inc/stm32n6xx_ll_bus.h ****   *         BUSENR       APB5EN        LL_BUS_IsEnabledClock
 473:../STM32Cube_FW_N6/Drivers/STM32N6xx_HAL_Driver/Inc/stm32n6xx_ll_bus.h ****   * @param  Bus This parameter can be a combination of the following values:
 474:../STM32Cube_FW_N6/Drivers/STM32N6xx_HAL_Driver/Inc/stm32n6xx_ll_bus.h ****   *         @arg @ref LL_ACLKN
 475:../STM32Cube_FW_N6/Drivers/STM32N6xx_HAL_Driver/Inc/stm32n6xx_ll_bus.h ****   *         @arg @ref LL_ACLKNC
 476:../STM32Cube_FW_N6/Drivers/STM32N6xx_HAL_Driver/Inc/stm32n6xx_ll_bus.h ****   *         @arg @ref LL_AHBM
 477:../STM32Cube_FW_N6/Drivers/STM32N6xx_HAL_Driver/Inc/stm32n6xx_ll_bus.h ****   *         @arg @ref LL_AHB1
 478:../STM32Cube_FW_N6/Drivers/STM32N6xx_HAL_Driver/Inc/stm32n6xx_ll_bus.h ****   *         @arg @ref LL_AHB2
 479:../STM32Cube_FW_N6/Drivers/STM32N6xx_HAL_Driver/Inc/stm32n6xx_ll_bus.h ****   *         @arg @ref LL_AHB3
 480:../STM32Cube_FW_N6/Drivers/STM32N6xx_HAL_Driver/Inc/stm32n6xx_ll_bus.h ****   *         @arg @ref LL_AHB4
 481:../STM32Cube_FW_N6/Drivers/STM32N6xx_HAL_Driver/Inc/stm32n6xx_ll_bus.h ****   *         @arg @ref LL_AHB5
 482:../STM32Cube_FW_N6/Drivers/STM32N6xx_HAL_Driver/Inc/stm32n6xx_ll_bus.h ****   *         @arg @ref LL_APB1
 483:../STM32Cube_FW_N6/Drivers/STM32N6xx_HAL_Driver/Inc/stm32n6xx_ll_bus.h ****   *         @arg @ref LL_APB2
 484:../STM32Cube_FW_N6/Drivers/STM32N6xx_HAL_Driver/Inc/stm32n6xx_ll_bus.h ****   *         @arg @ref LL_APB3
 485:../STM32Cube_FW_N6/Drivers/STM32N6xx_HAL_Driver/Inc/stm32n6xx_ll_bus.h ****   *         @arg @ref LL_APB4
 486:../STM32Cube_FW_N6/Drivers/STM32N6xx_HAL_Driver/Inc/stm32n6xx_ll_bus.h ****   *         @arg @ref LL_APB5
 487:../STM32Cube_FW_N6/Drivers/STM32N6xx_HAL_Driver/Inc/stm32n6xx_ll_bus.h ****   * @retval uint32_t
 488:../STM32Cube_FW_N6/Drivers/STM32N6xx_HAL_Driver/Inc/stm32n6xx_ll_bus.h ****   */
 489:../STM32Cube_FW_N6/Drivers/STM32N6xx_HAL_Driver/Inc/stm32n6xx_ll_bus.h **** __STATIC_INLINE uint32_t LL_BUS_IsEnabledClock(uint32_t Bus)
 490:../STM32Cube_FW_N6/Drivers/STM32N6xx_HAL_Driver/Inc/stm32n6xx_ll_bus.h **** {
 491:../STM32Cube_FW_N6/Drivers/STM32N6xx_HAL_Driver/Inc/stm32n6xx_ll_bus.h ****   return ((READ_BIT(RCC->BUSENR, Bus) == Bus) ? 1UL : 0UL);
 492:../STM32Cube_FW_N6/Drivers/STM32N6xx_HAL_Driver/Inc/stm32n6xx_ll_bus.h **** }
 493:../STM32Cube_FW_N6/Drivers/STM32N6xx_HAL_Driver/Inc/stm32n6xx_ll_bus.h **** 
ARM GAS  /tmp/ccN2N8if.s 			page 46


 494:../STM32Cube_FW_N6/Drivers/STM32N6xx_HAL_Driver/Inc/stm32n6xx_ll_bus.h **** /**
 495:../STM32Cube_FW_N6/Drivers/STM32N6xx_HAL_Driver/Inc/stm32n6xx_ll_bus.h ****   * @brief  Disable AXI bus clock.
 496:../STM32Cube_FW_N6/Drivers/STM32N6xx_HAL_Driver/Inc/stm32n6xx_ll_bus.h ****   * @rmtoll BUSENCR      ACLKNENC      LL_BUS_DisableClock\n
 497:../STM32Cube_FW_N6/Drivers/STM32N6xx_HAL_Driver/Inc/stm32n6xx_ll_bus.h ****   *         BUSENCR      ACLKNCENC     LL_BUS_DisableClock\n
 498:../STM32Cube_FW_N6/Drivers/STM32N6xx_HAL_Driver/Inc/stm32n6xx_ll_bus.h ****   *         BUSENCR      AHBMENC       LL_BUS_DisableClock\n
 499:../STM32Cube_FW_N6/Drivers/STM32N6xx_HAL_Driver/Inc/stm32n6xx_ll_bus.h ****   *         BUSENCR      AHB1ENC       LL_BUS_DisableClock\n
 500:../STM32Cube_FW_N6/Drivers/STM32N6xx_HAL_Driver/Inc/stm32n6xx_ll_bus.h ****   *         BUSENCR      AHB2ENC       LL_BUS_DisableClock\n
 501:../STM32Cube_FW_N6/Drivers/STM32N6xx_HAL_Driver/Inc/stm32n6xx_ll_bus.h ****   *         BUSENCR      AHB3ENC       LL_BUS_DisableClock\n
 502:../STM32Cube_FW_N6/Drivers/STM32N6xx_HAL_Driver/Inc/stm32n6xx_ll_bus.h ****   *         BUSENCR      AHB4ENC       LL_BUS_DisableClock\n
 503:../STM32Cube_FW_N6/Drivers/STM32N6xx_HAL_Driver/Inc/stm32n6xx_ll_bus.h ****   *         BUSENCR      AHB5ENC       LL_BUS_DisableClock\n
 504:../STM32Cube_FW_N6/Drivers/STM32N6xx_HAL_Driver/Inc/stm32n6xx_ll_bus.h ****   *         BUSENCR      APB1ENC       LL_BUS_DisableClock\n
 505:../STM32Cube_FW_N6/Drivers/STM32N6xx_HAL_Driver/Inc/stm32n6xx_ll_bus.h ****   *         BUSENCR      APB2ENC       LL_BUS_DisableClock\n
 506:../STM32Cube_FW_N6/Drivers/STM32N6xx_HAL_Driver/Inc/stm32n6xx_ll_bus.h ****   *         BUSENCR      APB3ENC       LL_BUS_DisableClock\n
 507:../STM32Cube_FW_N6/Drivers/STM32N6xx_HAL_Driver/Inc/stm32n6xx_ll_bus.h ****   *         BUSENCR      APB4ENC       LL_BUS_DisableClock\n
 508:../STM32Cube_FW_N6/Drivers/STM32N6xx_HAL_Driver/Inc/stm32n6xx_ll_bus.h ****   *         BUSENCR      APB5ENC       LL_BUS_DisableClock
 509:../STM32Cube_FW_N6/Drivers/STM32N6xx_HAL_Driver/Inc/stm32n6xx_ll_bus.h ****   * @param  Bus This parameter can be a combination of the following values:
 510:../STM32Cube_FW_N6/Drivers/STM32N6xx_HAL_Driver/Inc/stm32n6xx_ll_bus.h ****   *         @arg @ref LL_ACLKN
 511:../STM32Cube_FW_N6/Drivers/STM32N6xx_HAL_Driver/Inc/stm32n6xx_ll_bus.h ****   *         @arg @ref LL_ACLKNC
 512:../STM32Cube_FW_N6/Drivers/STM32N6xx_HAL_Driver/Inc/stm32n6xx_ll_bus.h ****   *         @arg @ref LL_AHBM
 513:../STM32Cube_FW_N6/Drivers/STM32N6xx_HAL_Driver/Inc/stm32n6xx_ll_bus.h ****   *         @arg @ref LL_AHB1
 514:../STM32Cube_FW_N6/Drivers/STM32N6xx_HAL_Driver/Inc/stm32n6xx_ll_bus.h ****   *         @arg @ref LL_AHB2
 515:../STM32Cube_FW_N6/Drivers/STM32N6xx_HAL_Driver/Inc/stm32n6xx_ll_bus.h ****   *         @arg @ref LL_AHB3
 516:../STM32Cube_FW_N6/Drivers/STM32N6xx_HAL_Driver/Inc/stm32n6xx_ll_bus.h ****   *         @arg @ref LL_AHB4
 517:../STM32Cube_FW_N6/Drivers/STM32N6xx_HAL_Driver/Inc/stm32n6xx_ll_bus.h ****   *         @arg @ref LL_AHB5
 518:../STM32Cube_FW_N6/Drivers/STM32N6xx_HAL_Driver/Inc/stm32n6xx_ll_bus.h ****   *         @arg @ref LL_APB1
 519:../STM32Cube_FW_N6/Drivers/STM32N6xx_HAL_Driver/Inc/stm32n6xx_ll_bus.h ****   *         @arg @ref LL_APB2
 520:../STM32Cube_FW_N6/Drivers/STM32N6xx_HAL_Driver/Inc/stm32n6xx_ll_bus.h ****   *         @arg @ref LL_APB3
 521:../STM32Cube_FW_N6/Drivers/STM32N6xx_HAL_Driver/Inc/stm32n6xx_ll_bus.h ****   *         @arg @ref LL_APB4
 522:../STM32Cube_FW_N6/Drivers/STM32N6xx_HAL_Driver/Inc/stm32n6xx_ll_bus.h ****   *         @arg @ref LL_APB5
 523:../STM32Cube_FW_N6/Drivers/STM32N6xx_HAL_Driver/Inc/stm32n6xx_ll_bus.h ****   * @retval None
 524:../STM32Cube_FW_N6/Drivers/STM32N6xx_HAL_Driver/Inc/stm32n6xx_ll_bus.h ****   */
 525:../STM32Cube_FW_N6/Drivers/STM32N6xx_HAL_Driver/Inc/stm32n6xx_ll_bus.h **** __STATIC_INLINE void LL_BUS_DisableClock(uint32_t Bus)
 526:../STM32Cube_FW_N6/Drivers/STM32N6xx_HAL_Driver/Inc/stm32n6xx_ll_bus.h **** {
 527:../STM32Cube_FW_N6/Drivers/STM32N6xx_HAL_Driver/Inc/stm32n6xx_ll_bus.h ****   WRITE_REG(RCC->BUSENCR, Bus);
 528:../STM32Cube_FW_N6/Drivers/STM32N6xx_HAL_Driver/Inc/stm32n6xx_ll_bus.h **** }
 529:../STM32Cube_FW_N6/Drivers/STM32N6xx_HAL_Driver/Inc/stm32n6xx_ll_bus.h **** 
 530:../STM32Cube_FW_N6/Drivers/STM32N6xx_HAL_Driver/Inc/stm32n6xx_ll_bus.h **** /**
 531:../STM32Cube_FW_N6/Drivers/STM32N6xx_HAL_Driver/Inc/stm32n6xx_ll_bus.h ****   * @brief  Enable AXI bus clock during Low Power mode.
 532:../STM32Cube_FW_N6/Drivers/STM32N6xx_HAL_Driver/Inc/stm32n6xx_ll_bus.h ****   * @rmtoll BUSLPENSR    ACLKNLPENS    LL_BUS_EnableClockLowPower\n
 533:../STM32Cube_FW_N6/Drivers/STM32N6xx_HAL_Driver/Inc/stm32n6xx_ll_bus.h ****   *         BUSLPENSR    ACLKNCLPENS   LL_BUS_EnableClockLowPower\n
 534:../STM32Cube_FW_N6/Drivers/STM32N6xx_HAL_Driver/Inc/stm32n6xx_ll_bus.h ****   *         BUSLPENSR    AHBMLPENS     LL_BUS_EnableClockLowPower\n
 535:../STM32Cube_FW_N6/Drivers/STM32N6xx_HAL_Driver/Inc/stm32n6xx_ll_bus.h ****   *         BUSLPENSR    AHB1LPENS     LL_BUS_EnableClockLowPower\n
 536:../STM32Cube_FW_N6/Drivers/STM32N6xx_HAL_Driver/Inc/stm32n6xx_ll_bus.h ****   *         BUSLPENSR    AHB2LPENS     LL_BUS_EnableClockLowPower\n
 537:../STM32Cube_FW_N6/Drivers/STM32N6xx_HAL_Driver/Inc/stm32n6xx_ll_bus.h ****   *         BUSLPENSR    AHB3LPENS     LL_BUS_EnableClockLowPower\n
 538:../STM32Cube_FW_N6/Drivers/STM32N6xx_HAL_Driver/Inc/stm32n6xx_ll_bus.h ****   *         BUSLPENSR    AHB4LPENS     LL_BUS_EnableClockLowPower\n
 539:../STM32Cube_FW_N6/Drivers/STM32N6xx_HAL_Driver/Inc/stm32n6xx_ll_bus.h ****   *         BUSLPENSR    AHB5LPENS     LL_BUS_EnableClockLowPower\n
 540:../STM32Cube_FW_N6/Drivers/STM32N6xx_HAL_Driver/Inc/stm32n6xx_ll_bus.h ****   *         BUSLPENSR    APB1LPENS     LL_BUS_EnableClockLowPower\n
 541:../STM32Cube_FW_N6/Drivers/STM32N6xx_HAL_Driver/Inc/stm32n6xx_ll_bus.h ****   *         BUSLPENSR    APB2LPENS     LL_BUS_EnableClockLowPower\n
 542:../STM32Cube_FW_N6/Drivers/STM32N6xx_HAL_Driver/Inc/stm32n6xx_ll_bus.h ****   *         BUSLPENSR    APB3LPENS     LL_BUS_EnableClockLowPower\n
 543:../STM32Cube_FW_N6/Drivers/STM32N6xx_HAL_Driver/Inc/stm32n6xx_ll_bus.h ****   *         BUSLPENSR    APB4LPENS     LL_BUS_EnableClockLowPower\n
 544:../STM32Cube_FW_N6/Drivers/STM32N6xx_HAL_Driver/Inc/stm32n6xx_ll_bus.h ****   *         BUSLPENSR    APB5LPENS     LL_BUS_EnableClockLowPower
 545:../STM32Cube_FW_N6/Drivers/STM32N6xx_HAL_Driver/Inc/stm32n6xx_ll_bus.h ****   * @param  Bus This parameter can be a combination of the following values:
 546:../STM32Cube_FW_N6/Drivers/STM32N6xx_HAL_Driver/Inc/stm32n6xx_ll_bus.h ****   *         @arg @ref LL_ACLKN
 547:../STM32Cube_FW_N6/Drivers/STM32N6xx_HAL_Driver/Inc/stm32n6xx_ll_bus.h ****   *         @arg @ref LL_ACLKNC
 548:../STM32Cube_FW_N6/Drivers/STM32N6xx_HAL_Driver/Inc/stm32n6xx_ll_bus.h ****   *         @arg @ref LL_AHBM
 549:../STM32Cube_FW_N6/Drivers/STM32N6xx_HAL_Driver/Inc/stm32n6xx_ll_bus.h ****   *         @arg @ref LL_AHB1
 550:../STM32Cube_FW_N6/Drivers/STM32N6xx_HAL_Driver/Inc/stm32n6xx_ll_bus.h ****   *         @arg @ref LL_AHB2
ARM GAS  /tmp/ccN2N8if.s 			page 47


 551:../STM32Cube_FW_N6/Drivers/STM32N6xx_HAL_Driver/Inc/stm32n6xx_ll_bus.h ****   *         @arg @ref LL_AHB3
 552:../STM32Cube_FW_N6/Drivers/STM32N6xx_HAL_Driver/Inc/stm32n6xx_ll_bus.h ****   *         @arg @ref LL_AHB4
 553:../STM32Cube_FW_N6/Drivers/STM32N6xx_HAL_Driver/Inc/stm32n6xx_ll_bus.h ****   *         @arg @ref LL_AHB5
 554:../STM32Cube_FW_N6/Drivers/STM32N6xx_HAL_Driver/Inc/stm32n6xx_ll_bus.h ****   *         @arg @ref LL_APB1
 555:../STM32Cube_FW_N6/Drivers/STM32N6xx_HAL_Driver/Inc/stm32n6xx_ll_bus.h ****   *         @arg @ref LL_APB2
 556:../STM32Cube_FW_N6/Drivers/STM32N6xx_HAL_Driver/Inc/stm32n6xx_ll_bus.h ****   *         @arg @ref LL_APB3
 557:../STM32Cube_FW_N6/Drivers/STM32N6xx_HAL_Driver/Inc/stm32n6xx_ll_bus.h ****   *         @arg @ref LL_APB4
 558:../STM32Cube_FW_N6/Drivers/STM32N6xx_HAL_Driver/Inc/stm32n6xx_ll_bus.h ****   *         @arg @ref LL_APB5
 559:../STM32Cube_FW_N6/Drivers/STM32N6xx_HAL_Driver/Inc/stm32n6xx_ll_bus.h ****   * @retval None
 560:../STM32Cube_FW_N6/Drivers/STM32N6xx_HAL_Driver/Inc/stm32n6xx_ll_bus.h ****   */
 561:../STM32Cube_FW_N6/Drivers/STM32N6xx_HAL_Driver/Inc/stm32n6xx_ll_bus.h **** __STATIC_INLINE void LL_BUS_EnableClockLowPower(uint32_t Bus)
 562:../STM32Cube_FW_N6/Drivers/STM32N6xx_HAL_Driver/Inc/stm32n6xx_ll_bus.h **** {
 563:../STM32Cube_FW_N6/Drivers/STM32N6xx_HAL_Driver/Inc/stm32n6xx_ll_bus.h ****   __IO uint32_t tmpreg;
 564:../STM32Cube_FW_N6/Drivers/STM32N6xx_HAL_Driver/Inc/stm32n6xx_ll_bus.h ****   WRITE_REG(RCC->BUSLPENSR, Bus);
 565:../STM32Cube_FW_N6/Drivers/STM32N6xx_HAL_Driver/Inc/stm32n6xx_ll_bus.h ****   /* Delay after an RCC bus clock enabling */
 566:../STM32Cube_FW_N6/Drivers/STM32N6xx_HAL_Driver/Inc/stm32n6xx_ll_bus.h ****   tmpreg = READ_REG(RCC->BUSLPENR);
 567:../STM32Cube_FW_N6/Drivers/STM32N6xx_HAL_Driver/Inc/stm32n6xx_ll_bus.h ****   (void)tmpreg;
 568:../STM32Cube_FW_N6/Drivers/STM32N6xx_HAL_Driver/Inc/stm32n6xx_ll_bus.h **** }
 569:../STM32Cube_FW_N6/Drivers/STM32N6xx_HAL_Driver/Inc/stm32n6xx_ll_bus.h **** 
 570:../STM32Cube_FW_N6/Drivers/STM32N6xx_HAL_Driver/Inc/stm32n6xx_ll_bus.h **** /**
 571:../STM32Cube_FW_N6/Drivers/STM32N6xx_HAL_Driver/Inc/stm32n6xx_ll_bus.h ****   * @brief  Check if AXI bus clock during Low Power mode is enabled or not
 572:../STM32Cube_FW_N6/Drivers/STM32N6xx_HAL_Driver/Inc/stm32n6xx_ll_bus.h ****   * @rmtoll BUSLPENR       ACLKNLPEN       LL_BUS_IsEnabledClockLowPower\n
 573:../STM32Cube_FW_N6/Drivers/STM32N6xx_HAL_Driver/Inc/stm32n6xx_ll_bus.h ****   *         BUSLPENR       ACLKNCLPEN      LL_BUS_IsEnabledClockLowPower\n
 574:../STM32Cube_FW_N6/Drivers/STM32N6xx_HAL_Driver/Inc/stm32n6xx_ll_bus.h ****   *         BUSLPENR       AHBMLPEN        LL_BUS_IsEnabledClockLowPower\n
 575:../STM32Cube_FW_N6/Drivers/STM32N6xx_HAL_Driver/Inc/stm32n6xx_ll_bus.h ****   *         BUSLPENR       AHB1LPEN        LL_BUS_IsEnabledClockLowPower\n
 576:../STM32Cube_FW_N6/Drivers/STM32N6xx_HAL_Driver/Inc/stm32n6xx_ll_bus.h ****   *         BUSLPENR       AHB2LPEN        LL_BUS_IsEnabledClockLowPower\n
 577:../STM32Cube_FW_N6/Drivers/STM32N6xx_HAL_Driver/Inc/stm32n6xx_ll_bus.h ****   *         BUSLPENR       AHB3LPEN        LL_BUS_IsEnabledClockLowPower\n
 578:../STM32Cube_FW_N6/Drivers/STM32N6xx_HAL_Driver/Inc/stm32n6xx_ll_bus.h ****   *         BUSLPENR       AHB4LPEN        LL_BUS_IsEnabledClockLowPower\n
 579:../STM32Cube_FW_N6/Drivers/STM32N6xx_HAL_Driver/Inc/stm32n6xx_ll_bus.h ****   *         BUSLPENR       AHB5LPEN        LL_BUS_IsEnabledClockLowPower\n
 580:../STM32Cube_FW_N6/Drivers/STM32N6xx_HAL_Driver/Inc/stm32n6xx_ll_bus.h ****   *         BUSLPENR       APB1LPEN        LL_BUS_IsEnabledClockLowPower\n
 581:../STM32Cube_FW_N6/Drivers/STM32N6xx_HAL_Driver/Inc/stm32n6xx_ll_bus.h ****   *         BUSLPENR       APB2LPEN        LL_BUS_IsEnabledClockLowPower\n
 582:../STM32Cube_FW_N6/Drivers/STM32N6xx_HAL_Driver/Inc/stm32n6xx_ll_bus.h ****   *         BUSLPENR       APB3LPEN        LL_BUS_IsEnabledClockLowPower\n
 583:../STM32Cube_FW_N6/Drivers/STM32N6xx_HAL_Driver/Inc/stm32n6xx_ll_bus.h ****   *         BUSLPENR       APB4LPEN        LL_BUS_IsEnabledClockLowPower\n
 584:../STM32Cube_FW_N6/Drivers/STM32N6xx_HAL_Driver/Inc/stm32n6xx_ll_bus.h ****   *         BUSLPENR       APB5LPEN        LL_BUS_IsEnabledClockLowPower
 585:../STM32Cube_FW_N6/Drivers/STM32N6xx_HAL_Driver/Inc/stm32n6xx_ll_bus.h ****   * @param  Bus This parameter can be a combination of the following values:
 586:../STM32Cube_FW_N6/Drivers/STM32N6xx_HAL_Driver/Inc/stm32n6xx_ll_bus.h ****   *         @arg @ref LL_ACLKN
 587:../STM32Cube_FW_N6/Drivers/STM32N6xx_HAL_Driver/Inc/stm32n6xx_ll_bus.h ****   *         @arg @ref LL_ACLKNC
 588:../STM32Cube_FW_N6/Drivers/STM32N6xx_HAL_Driver/Inc/stm32n6xx_ll_bus.h ****   *         @arg @ref LL_AHBM
 589:../STM32Cube_FW_N6/Drivers/STM32N6xx_HAL_Driver/Inc/stm32n6xx_ll_bus.h ****   *         @arg @ref LL_AHB1
 590:../STM32Cube_FW_N6/Drivers/STM32N6xx_HAL_Driver/Inc/stm32n6xx_ll_bus.h ****   *         @arg @ref LL_AHB2
 591:../STM32Cube_FW_N6/Drivers/STM32N6xx_HAL_Driver/Inc/stm32n6xx_ll_bus.h ****   *         @arg @ref LL_AHB3
 592:../STM32Cube_FW_N6/Drivers/STM32N6xx_HAL_Driver/Inc/stm32n6xx_ll_bus.h ****   *         @arg @ref LL_AHB4
 593:../STM32Cube_FW_N6/Drivers/STM32N6xx_HAL_Driver/Inc/stm32n6xx_ll_bus.h ****   *         @arg @ref LL_AHB5
 594:../STM32Cube_FW_N6/Drivers/STM32N6xx_HAL_Driver/Inc/stm32n6xx_ll_bus.h ****   *         @arg @ref LL_APB1
 595:../STM32Cube_FW_N6/Drivers/STM32N6xx_HAL_Driver/Inc/stm32n6xx_ll_bus.h ****   *         @arg @ref LL_APB2
 596:../STM32Cube_FW_N6/Drivers/STM32N6xx_HAL_Driver/Inc/stm32n6xx_ll_bus.h ****   *         @arg @ref LL_APB3
 597:../STM32Cube_FW_N6/Drivers/STM32N6xx_HAL_Driver/Inc/stm32n6xx_ll_bus.h ****   *         @arg @ref LL_APB4
 598:../STM32Cube_FW_N6/Drivers/STM32N6xx_HAL_Driver/Inc/stm32n6xx_ll_bus.h ****   *         @arg @ref LL_APB5
 599:../STM32Cube_FW_N6/Drivers/STM32N6xx_HAL_Driver/Inc/stm32n6xx_ll_bus.h ****   * @retval uint32_t
 600:../STM32Cube_FW_N6/Drivers/STM32N6xx_HAL_Driver/Inc/stm32n6xx_ll_bus.h ****   */
 601:../STM32Cube_FW_N6/Drivers/STM32N6xx_HAL_Driver/Inc/stm32n6xx_ll_bus.h **** __STATIC_INLINE uint32_t LL_BUS_IsEnabledClockLowPower(uint32_t Bus)
 602:../STM32Cube_FW_N6/Drivers/STM32N6xx_HAL_Driver/Inc/stm32n6xx_ll_bus.h **** {
 603:../STM32Cube_FW_N6/Drivers/STM32N6xx_HAL_Driver/Inc/stm32n6xx_ll_bus.h ****   return ((READ_BIT(RCC->BUSLPENR, Bus) == Bus) ? 1UL : 0UL);
 604:../STM32Cube_FW_N6/Drivers/STM32N6xx_HAL_Driver/Inc/stm32n6xx_ll_bus.h **** }
 605:../STM32Cube_FW_N6/Drivers/STM32N6xx_HAL_Driver/Inc/stm32n6xx_ll_bus.h **** 
 606:../STM32Cube_FW_N6/Drivers/STM32N6xx_HAL_Driver/Inc/stm32n6xx_ll_bus.h **** /**
 607:../STM32Cube_FW_N6/Drivers/STM32N6xx_HAL_Driver/Inc/stm32n6xx_ll_bus.h ****   * @brief  Disable AXI bus clock during Low Power mode.
ARM GAS  /tmp/ccN2N8if.s 			page 48


 608:../STM32Cube_FW_N6/Drivers/STM32N6xx_HAL_Driver/Inc/stm32n6xx_ll_bus.h ****   * @rmtoll BUSLPENCR    ACLKNLPENC    LL_BUS_DisableClockLowPower\n
 609:../STM32Cube_FW_N6/Drivers/STM32N6xx_HAL_Driver/Inc/stm32n6xx_ll_bus.h ****   *         BUSLPENCR    ACLKNCLPENC   LL_BUS_DisableClockLowPower\n
 610:../STM32Cube_FW_N6/Drivers/STM32N6xx_HAL_Driver/Inc/stm32n6xx_ll_bus.h ****   *         BUSLPENCR    AHBMLPENC     LL_BUS_DisableClockLowPower\n
 611:../STM32Cube_FW_N6/Drivers/STM32N6xx_HAL_Driver/Inc/stm32n6xx_ll_bus.h ****   *         BUSLPENCR    AHB1LPENC     LL_BUS_DisableClockLowPower\n
 612:../STM32Cube_FW_N6/Drivers/STM32N6xx_HAL_Driver/Inc/stm32n6xx_ll_bus.h ****   *         BUSLPENCR    AHB2LPENC     LL_BUS_DisableClockLowPower\n
 613:../STM32Cube_FW_N6/Drivers/STM32N6xx_HAL_Driver/Inc/stm32n6xx_ll_bus.h ****   *         BUSLPENCR    AHB3LPENC     LL_BUS_DisableClockLowPower\n
 614:../STM32Cube_FW_N6/Drivers/STM32N6xx_HAL_Driver/Inc/stm32n6xx_ll_bus.h ****   *         BUSLPENCR    AHB4LPENC     LL_BUS_DisableClockLowPower\n
 615:../STM32Cube_FW_N6/Drivers/STM32N6xx_HAL_Driver/Inc/stm32n6xx_ll_bus.h ****   *         BUSLPENCR    AHB5LPENC     LL_BUS_DisableClockLowPower\n
 616:../STM32Cube_FW_N6/Drivers/STM32N6xx_HAL_Driver/Inc/stm32n6xx_ll_bus.h ****   *         BUSLPENCR    APB1LPENC     LL_BUS_DisableClockLowPower\n
 617:../STM32Cube_FW_N6/Drivers/STM32N6xx_HAL_Driver/Inc/stm32n6xx_ll_bus.h ****   *         BUSLPENCR    APB2LPENC     LL_BUS_DisableClockLowPower\n
 618:../STM32Cube_FW_N6/Drivers/STM32N6xx_HAL_Driver/Inc/stm32n6xx_ll_bus.h ****   *         BUSLPENCR    APB3LPENC     LL_BUS_DisableClockLowPower\n
 619:../STM32Cube_FW_N6/Drivers/STM32N6xx_HAL_Driver/Inc/stm32n6xx_ll_bus.h ****   *         BUSLPENCR    APB4LPENC     LL_BUS_DisableClockLowPower\n
 620:../STM32Cube_FW_N6/Drivers/STM32N6xx_HAL_Driver/Inc/stm32n6xx_ll_bus.h ****   *         BUSLPENCR    APB5LPENC     LL_BUS_DisableClockLowPower
 621:../STM32Cube_FW_N6/Drivers/STM32N6xx_HAL_Driver/Inc/stm32n6xx_ll_bus.h ****   * @param  Bus This parameter can be a combination of the following values:
 622:../STM32Cube_FW_N6/Drivers/STM32N6xx_HAL_Driver/Inc/stm32n6xx_ll_bus.h ****   *         @arg @ref LL_ACLKN
 623:../STM32Cube_FW_N6/Drivers/STM32N6xx_HAL_Driver/Inc/stm32n6xx_ll_bus.h ****   *         @arg @ref LL_ACLKNC
 624:../STM32Cube_FW_N6/Drivers/STM32N6xx_HAL_Driver/Inc/stm32n6xx_ll_bus.h ****   *         @arg @ref LL_AHBM
 625:../STM32Cube_FW_N6/Drivers/STM32N6xx_HAL_Driver/Inc/stm32n6xx_ll_bus.h ****   *         @arg @ref LL_AHB1
 626:../STM32Cube_FW_N6/Drivers/STM32N6xx_HAL_Driver/Inc/stm32n6xx_ll_bus.h ****   *         @arg @ref LL_AHB2
 627:../STM32Cube_FW_N6/Drivers/STM32N6xx_HAL_Driver/Inc/stm32n6xx_ll_bus.h ****   *         @arg @ref LL_AHB3
 628:../STM32Cube_FW_N6/Drivers/STM32N6xx_HAL_Driver/Inc/stm32n6xx_ll_bus.h ****   *         @arg @ref LL_AHB4
 629:../STM32Cube_FW_N6/Drivers/STM32N6xx_HAL_Driver/Inc/stm32n6xx_ll_bus.h ****   *         @arg @ref LL_AHB5
 630:../STM32Cube_FW_N6/Drivers/STM32N6xx_HAL_Driver/Inc/stm32n6xx_ll_bus.h ****   *         @arg @ref LL_APB1
 631:../STM32Cube_FW_N6/Drivers/STM32N6xx_HAL_Driver/Inc/stm32n6xx_ll_bus.h ****   *         @arg @ref LL_APB2
 632:../STM32Cube_FW_N6/Drivers/STM32N6xx_HAL_Driver/Inc/stm32n6xx_ll_bus.h ****   *         @arg @ref LL_APB3
 633:../STM32Cube_FW_N6/Drivers/STM32N6xx_HAL_Driver/Inc/stm32n6xx_ll_bus.h ****   *         @arg @ref LL_APB4
 634:../STM32Cube_FW_N6/Drivers/STM32N6xx_HAL_Driver/Inc/stm32n6xx_ll_bus.h ****   *         @arg @ref LL_APB5
 635:../STM32Cube_FW_N6/Drivers/STM32N6xx_HAL_Driver/Inc/stm32n6xx_ll_bus.h ****   * @retval None
 636:../STM32Cube_FW_N6/Drivers/STM32N6xx_HAL_Driver/Inc/stm32n6xx_ll_bus.h ****   */
 637:../STM32Cube_FW_N6/Drivers/STM32N6xx_HAL_Driver/Inc/stm32n6xx_ll_bus.h **** __STATIC_INLINE void LL_BUS_DisableClockLowPower(uint32_t Bus)
 638:../STM32Cube_FW_N6/Drivers/STM32N6xx_HAL_Driver/Inc/stm32n6xx_ll_bus.h **** {
 639:../STM32Cube_FW_N6/Drivers/STM32N6xx_HAL_Driver/Inc/stm32n6xx_ll_bus.h ****   WRITE_REG(RCC->BUSLPENCR, Bus);
 640:../STM32Cube_FW_N6/Drivers/STM32N6xx_HAL_Driver/Inc/stm32n6xx_ll_bus.h **** }
 641:../STM32Cube_FW_N6/Drivers/STM32N6xx_HAL_Driver/Inc/stm32n6xx_ll_bus.h **** 
 642:../STM32Cube_FW_N6/Drivers/STM32N6xx_HAL_Driver/Inc/stm32n6xx_ll_bus.h **** /**
 643:../STM32Cube_FW_N6/Drivers/STM32N6xx_HAL_Driver/Inc/stm32n6xx_ll_bus.h ****   * @}
 644:../STM32Cube_FW_N6/Drivers/STM32N6xx_HAL_Driver/Inc/stm32n6xx_ll_bus.h ****   */
 645:../STM32Cube_FW_N6/Drivers/STM32N6xx_HAL_Driver/Inc/stm32n6xx_ll_bus.h **** 
 646:../STM32Cube_FW_N6/Drivers/STM32N6xx_HAL_Driver/Inc/stm32n6xx_ll_bus.h **** /** @defgroup BUS_LL_EF_MEM MEM
 647:../STM32Cube_FW_N6/Drivers/STM32N6xx_HAL_Driver/Inc/stm32n6xx_ll_bus.h ****   * @{
 648:../STM32Cube_FW_N6/Drivers/STM32N6xx_HAL_Driver/Inc/stm32n6xx_ll_bus.h ****   */
 649:../STM32Cube_FW_N6/Drivers/STM32N6xx_HAL_Driver/Inc/stm32n6xx_ll_bus.h **** 
 650:../STM32Cube_FW_N6/Drivers/STM32N6xx_HAL_Driver/Inc/stm32n6xx_ll_bus.h **** /**
 651:../STM32Cube_FW_N6/Drivers/STM32N6xx_HAL_Driver/Inc/stm32n6xx_ll_bus.h ****   * @brief  Enable memories clock.
 652:../STM32Cube_FW_N6/Drivers/STM32N6xx_HAL_Driver/Inc/stm32n6xx_ll_bus.h ****   * @rmtoll MEMENSR      AXISRAM1ENS   LL_MEM_EnableClock\n
 653:../STM32Cube_FW_N6/Drivers/STM32N6xx_HAL_Driver/Inc/stm32n6xx_ll_bus.h ****   *         MEMENSR      AXISRAM2ENS   LL_MEM_EnableClock\n
 654:../STM32Cube_FW_N6/Drivers/STM32N6xx_HAL_Driver/Inc/stm32n6xx_ll_bus.h ****   *         MEMENSR      AXISRAM3ENS   LL_MEM_EnableClock\n
 655:../STM32Cube_FW_N6/Drivers/STM32N6xx_HAL_Driver/Inc/stm32n6xx_ll_bus.h ****   *         MEMENSR      AXISRAM4ENS   LL_MEM_EnableClock\n
 656:../STM32Cube_FW_N6/Drivers/STM32N6xx_HAL_Driver/Inc/stm32n6xx_ll_bus.h ****   *         MEMENSR      AXISRAM5ENS   LL_MEM_EnableClock\n
 657:../STM32Cube_FW_N6/Drivers/STM32N6xx_HAL_Driver/Inc/stm32n6xx_ll_bus.h ****   *         MEMENSR      AXISRAM6ENS   LL_MEM_EnableClock\n
 658:../STM32Cube_FW_N6/Drivers/STM32N6xx_HAL_Driver/Inc/stm32n6xx_ll_bus.h ****   *         MEMENSR      AHBSRAM1ENS   LL_MEM_EnableClock\n
 659:../STM32Cube_FW_N6/Drivers/STM32N6xx_HAL_Driver/Inc/stm32n6xx_ll_bus.h ****   *         MEMENSR      AHBSRAM2ENS   LL_MEM_EnableClock\n
 660:../STM32Cube_FW_N6/Drivers/STM32N6xx_HAL_Driver/Inc/stm32n6xx_ll_bus.h ****   *         MEMENSR      BKPSRAMENS    LL_MEM_EnableClock\n
 661:../STM32Cube_FW_N6/Drivers/STM32N6xx_HAL_Driver/Inc/stm32n6xx_ll_bus.h ****   *         MEMENSR      FLEXRAMENS    LL_MEM_EnableClock\n
 662:../STM32Cube_FW_N6/Drivers/STM32N6xx_HAL_Driver/Inc/stm32n6xx_ll_bus.h ****   *         MEMENSR      CACHEAXIRAMENS LL_MEM_EnableClock\n
 663:../STM32Cube_FW_N6/Drivers/STM32N6xx_HAL_Driver/Inc/stm32n6xx_ll_bus.h ****   *         MEMENSR      VENCRAMENS    LL_MEM_EnableClock
 664:../STM32Cube_FW_N6/Drivers/STM32N6xx_HAL_Driver/Inc/stm32n6xx_ll_bus.h ****   * @param  Memories This parameter can be a combination of the following values:
ARM GAS  /tmp/ccN2N8if.s 			page 49


 665:../STM32Cube_FW_N6/Drivers/STM32N6xx_HAL_Driver/Inc/stm32n6xx_ll_bus.h ****   *         @arg @ref LL_MEM_AXISRAM1
 666:../STM32Cube_FW_N6/Drivers/STM32N6xx_HAL_Driver/Inc/stm32n6xx_ll_bus.h ****   *         @arg @ref LL_MEM_AXISRAM2
 667:../STM32Cube_FW_N6/Drivers/STM32N6xx_HAL_Driver/Inc/stm32n6xx_ll_bus.h ****   *         @arg @ref LL_MEM_AXISRAM3
 668:../STM32Cube_FW_N6/Drivers/STM32N6xx_HAL_Driver/Inc/stm32n6xx_ll_bus.h ****   *         @arg @ref LL_MEM_AXISRAM4
 669:../STM32Cube_FW_N6/Drivers/STM32N6xx_HAL_Driver/Inc/stm32n6xx_ll_bus.h ****   *         @arg @ref LL_MEM_AXISRAM5
 670:../STM32Cube_FW_N6/Drivers/STM32N6xx_HAL_Driver/Inc/stm32n6xx_ll_bus.h ****   *         @arg @ref LL_MEM_AXISRAM6
 671:../STM32Cube_FW_N6/Drivers/STM32N6xx_HAL_Driver/Inc/stm32n6xx_ll_bus.h ****   *         @arg @ref LL_MEM_AHBSRAM1
 672:../STM32Cube_FW_N6/Drivers/STM32N6xx_HAL_Driver/Inc/stm32n6xx_ll_bus.h ****   *         @arg @ref LL_MEM_AHBSRAM2
 673:../STM32Cube_FW_N6/Drivers/STM32N6xx_HAL_Driver/Inc/stm32n6xx_ll_bus.h ****   *         @arg @ref LL_MEM_BKPSRAM
 674:../STM32Cube_FW_N6/Drivers/STM32N6xx_HAL_Driver/Inc/stm32n6xx_ll_bus.h ****   *         @arg @ref LL_MEM_FLEXRAM
 675:../STM32Cube_FW_N6/Drivers/STM32N6xx_HAL_Driver/Inc/stm32n6xx_ll_bus.h ****   *         @arg @ref LL_MEM_CACHEAXIRAM
 676:../STM32Cube_FW_N6/Drivers/STM32N6xx_HAL_Driver/Inc/stm32n6xx_ll_bus.h ****   *         @arg @ref LL_MEM_VENCRAM
 677:../STM32Cube_FW_N6/Drivers/STM32N6xx_HAL_Driver/Inc/stm32n6xx_ll_bus.h ****   * @retval None
 678:../STM32Cube_FW_N6/Drivers/STM32N6xx_HAL_Driver/Inc/stm32n6xx_ll_bus.h ****   */
 679:../STM32Cube_FW_N6/Drivers/STM32N6xx_HAL_Driver/Inc/stm32n6xx_ll_bus.h **** __STATIC_INLINE void LL_MEM_EnableClock(uint32_t Memories)
 680:../STM32Cube_FW_N6/Drivers/STM32N6xx_HAL_Driver/Inc/stm32n6xx_ll_bus.h **** {
 681:../STM32Cube_FW_N6/Drivers/STM32N6xx_HAL_Driver/Inc/stm32n6xx_ll_bus.h ****   __IO uint32_t tmpreg;
 682:../STM32Cube_FW_N6/Drivers/STM32N6xx_HAL_Driver/Inc/stm32n6xx_ll_bus.h ****   WRITE_REG(RCC->MEMENSR, Memories);
 683:../STM32Cube_FW_N6/Drivers/STM32N6xx_HAL_Driver/Inc/stm32n6xx_ll_bus.h ****   /* Delay after an RCC memories clock enabling */
 684:../STM32Cube_FW_N6/Drivers/STM32N6xx_HAL_Driver/Inc/stm32n6xx_ll_bus.h ****   tmpreg = READ_REG(RCC->MEMENR);
 685:../STM32Cube_FW_N6/Drivers/STM32N6xx_HAL_Driver/Inc/stm32n6xx_ll_bus.h ****   (void)tmpreg;
 686:../STM32Cube_FW_N6/Drivers/STM32N6xx_HAL_Driver/Inc/stm32n6xx_ll_bus.h **** }
 687:../STM32Cube_FW_N6/Drivers/STM32N6xx_HAL_Driver/Inc/stm32n6xx_ll_bus.h **** 
 688:../STM32Cube_FW_N6/Drivers/STM32N6xx_HAL_Driver/Inc/stm32n6xx_ll_bus.h **** /**
 689:../STM32Cube_FW_N6/Drivers/STM32N6xx_HAL_Driver/Inc/stm32n6xx_ll_bus.h ****   * @brief  Check if memory clock is enabled or not
 690:../STM32Cube_FW_N6/Drivers/STM32N6xx_HAL_Driver/Inc/stm32n6xx_ll_bus.h ****   * @rmtoll MEMENR       AXISRAM1EN    LL_MEM_IsEnabledClock\n
 691:../STM32Cube_FW_N6/Drivers/STM32N6xx_HAL_Driver/Inc/stm32n6xx_ll_bus.h ****   *         MEMENR       AXISRAM2EN    LL_MEM_IsEnabledClock\n
 692:../STM32Cube_FW_N6/Drivers/STM32N6xx_HAL_Driver/Inc/stm32n6xx_ll_bus.h ****   *         MEMENR       AXISRAM3EN    LL_MEM_IsEnabledClock\n
 693:../STM32Cube_FW_N6/Drivers/STM32N6xx_HAL_Driver/Inc/stm32n6xx_ll_bus.h ****   *         MEMENR       AXISRAM4EN    LL_MEM_IsEnabledClock\n
 694:../STM32Cube_FW_N6/Drivers/STM32N6xx_HAL_Driver/Inc/stm32n6xx_ll_bus.h ****   *         MEMENR       AXISRAM5EN    LL_MEM_IsEnabledClock\n
 695:../STM32Cube_FW_N6/Drivers/STM32N6xx_HAL_Driver/Inc/stm32n6xx_ll_bus.h ****   *         MEMENR       AXISRAM6EN    LL_MEM_IsEnabledClock\n
 696:../STM32Cube_FW_N6/Drivers/STM32N6xx_HAL_Driver/Inc/stm32n6xx_ll_bus.h ****   *         MEMENR       AHBSRAM1EN    LL_MEM_IsEnabledClock\n
 697:../STM32Cube_FW_N6/Drivers/STM32N6xx_HAL_Driver/Inc/stm32n6xx_ll_bus.h ****   *         MEMENR       AHBSRAM2EN    LL_MEM_IsEnabledClock\n
 698:../STM32Cube_FW_N6/Drivers/STM32N6xx_HAL_Driver/Inc/stm32n6xx_ll_bus.h ****   *         MEMENR       BKPSRAMEN     LL_MEM_IsEnabledClock\n
 699:../STM32Cube_FW_N6/Drivers/STM32N6xx_HAL_Driver/Inc/stm32n6xx_ll_bus.h ****   *         MEMENR       FLEXRAMEN     LL_MEM_IsEnabledClock\n
 700:../STM32Cube_FW_N6/Drivers/STM32N6xx_HAL_Driver/Inc/stm32n6xx_ll_bus.h ****   *         MEMENR       CACHEAXIRAMEN LL_MEM_IsEnabledClock\n
 701:../STM32Cube_FW_N6/Drivers/STM32N6xx_HAL_Driver/Inc/stm32n6xx_ll_bus.h ****   *         MEMENR       VENCRAMEN     LL_MEM_IsEnabledClock
 702:../STM32Cube_FW_N6/Drivers/STM32N6xx_HAL_Driver/Inc/stm32n6xx_ll_bus.h ****   * @param  Memories This parameter can be a combination of the following values:
 703:../STM32Cube_FW_N6/Drivers/STM32N6xx_HAL_Driver/Inc/stm32n6xx_ll_bus.h ****   *         @arg @ref LL_MEM_AXISRAM1
 704:../STM32Cube_FW_N6/Drivers/STM32N6xx_HAL_Driver/Inc/stm32n6xx_ll_bus.h ****   *         @arg @ref LL_MEM_AXISRAM2
 705:../STM32Cube_FW_N6/Drivers/STM32N6xx_HAL_Driver/Inc/stm32n6xx_ll_bus.h ****   *         @arg @ref LL_MEM_AXISRAM3
 706:../STM32Cube_FW_N6/Drivers/STM32N6xx_HAL_Driver/Inc/stm32n6xx_ll_bus.h ****   *         @arg @ref LL_MEM_AXISRAM4
 707:../STM32Cube_FW_N6/Drivers/STM32N6xx_HAL_Driver/Inc/stm32n6xx_ll_bus.h ****   *         @arg @ref LL_MEM_AXISRAM5
 708:../STM32Cube_FW_N6/Drivers/STM32N6xx_HAL_Driver/Inc/stm32n6xx_ll_bus.h ****   *         @arg @ref LL_MEM_AXISRAM6
 709:../STM32Cube_FW_N6/Drivers/STM32N6xx_HAL_Driver/Inc/stm32n6xx_ll_bus.h ****   *         @arg @ref LL_MEM_AHBSRAM1
 710:../STM32Cube_FW_N6/Drivers/STM32N6xx_HAL_Driver/Inc/stm32n6xx_ll_bus.h ****   *         @arg @ref LL_MEM_AHBSRAM2
 711:../STM32Cube_FW_N6/Drivers/STM32N6xx_HAL_Driver/Inc/stm32n6xx_ll_bus.h ****   *         @arg @ref LL_MEM_BKPSRAM
 712:../STM32Cube_FW_N6/Drivers/STM32N6xx_HAL_Driver/Inc/stm32n6xx_ll_bus.h ****   *         @arg @ref LL_MEM_FLEXRAM
 713:../STM32Cube_FW_N6/Drivers/STM32N6xx_HAL_Driver/Inc/stm32n6xx_ll_bus.h ****   *         @arg @ref LL_MEM_CACHEAXIRAM
 714:../STM32Cube_FW_N6/Drivers/STM32N6xx_HAL_Driver/Inc/stm32n6xx_ll_bus.h ****   *         @arg @ref LL_MEM_VENCRAM
 715:../STM32Cube_FW_N6/Drivers/STM32N6xx_HAL_Driver/Inc/stm32n6xx_ll_bus.h ****   * @retval uint32_t
 716:../STM32Cube_FW_N6/Drivers/STM32N6xx_HAL_Driver/Inc/stm32n6xx_ll_bus.h ****   */
 717:../STM32Cube_FW_N6/Drivers/STM32N6xx_HAL_Driver/Inc/stm32n6xx_ll_bus.h **** __STATIC_INLINE uint32_t LL_MEM_IsEnabledClock(uint32_t Memories)
 718:../STM32Cube_FW_N6/Drivers/STM32N6xx_HAL_Driver/Inc/stm32n6xx_ll_bus.h **** {
 719:../STM32Cube_FW_N6/Drivers/STM32N6xx_HAL_Driver/Inc/stm32n6xx_ll_bus.h ****   return ((READ_BIT(RCC->MEMENR, Memories) == Memories) ? 1UL : 0UL);
 720:../STM32Cube_FW_N6/Drivers/STM32N6xx_HAL_Driver/Inc/stm32n6xx_ll_bus.h **** }
 721:../STM32Cube_FW_N6/Drivers/STM32N6xx_HAL_Driver/Inc/stm32n6xx_ll_bus.h **** 
ARM GAS  /tmp/ccN2N8if.s 			page 50


 722:../STM32Cube_FW_N6/Drivers/STM32N6xx_HAL_Driver/Inc/stm32n6xx_ll_bus.h **** /**
 723:../STM32Cube_FW_N6/Drivers/STM32N6xx_HAL_Driver/Inc/stm32n6xx_ll_bus.h ****   * @brief  Disable memories clock.
 724:../STM32Cube_FW_N6/Drivers/STM32N6xx_HAL_Driver/Inc/stm32n6xx_ll_bus.h ****   * @rmtoll MEMENCR      AXISRAM1ENC   LL_MEM_DisableClock\n
 725:../STM32Cube_FW_N6/Drivers/STM32N6xx_HAL_Driver/Inc/stm32n6xx_ll_bus.h ****   *         MEMENCR      AXISRAM2ENC   LL_MEM_DisableClock\n
 726:../STM32Cube_FW_N6/Drivers/STM32N6xx_HAL_Driver/Inc/stm32n6xx_ll_bus.h ****   *         MEMENCR      AXISRAM3ENC   LL_MEM_DisableClock\n
 727:../STM32Cube_FW_N6/Drivers/STM32N6xx_HAL_Driver/Inc/stm32n6xx_ll_bus.h ****   *         MEMENCR      AXISRAM4ENC   LL_MEM_DisableClock\n
 728:../STM32Cube_FW_N6/Drivers/STM32N6xx_HAL_Driver/Inc/stm32n6xx_ll_bus.h ****   *         MEMENCR      AXISRAM5ENC   LL_MEM_DisableClock\n
 729:../STM32Cube_FW_N6/Drivers/STM32N6xx_HAL_Driver/Inc/stm32n6xx_ll_bus.h ****   *         MEMENCR      AXISRAM6ENC   LL_MEM_DisableClock\n
 730:../STM32Cube_FW_N6/Drivers/STM32N6xx_HAL_Driver/Inc/stm32n6xx_ll_bus.h ****   *         MEMENCR      AHBSRAM1ENC   LL_MEM_DisableClock\n
 731:../STM32Cube_FW_N6/Drivers/STM32N6xx_HAL_Driver/Inc/stm32n6xx_ll_bus.h ****   *         MEMENCR      AHBSRAM2ENC   LL_MEM_DisableClock\n
 732:../STM32Cube_FW_N6/Drivers/STM32N6xx_HAL_Driver/Inc/stm32n6xx_ll_bus.h ****   *         MEMENCR      BKPSRAMENC    LL_MEM_DisableClock\n
 733:../STM32Cube_FW_N6/Drivers/STM32N6xx_HAL_Driver/Inc/stm32n6xx_ll_bus.h ****   *         MEMENCR      FLEXRAMENC    LL_MEM_DisableClock\n
 734:../STM32Cube_FW_N6/Drivers/STM32N6xx_HAL_Driver/Inc/stm32n6xx_ll_bus.h ****   *         MEMENCR      CACHEAXIRAMENC LL_MEM_DisableClock\n
 735:../STM32Cube_FW_N6/Drivers/STM32N6xx_HAL_Driver/Inc/stm32n6xx_ll_bus.h ****   *         MEMENCR      VENCRAMENC    LL_MEM_DisableClock
 736:../STM32Cube_FW_N6/Drivers/STM32N6xx_HAL_Driver/Inc/stm32n6xx_ll_bus.h ****   * @param  Memories This parameter can be a combination of the following values:
 737:../STM32Cube_FW_N6/Drivers/STM32N6xx_HAL_Driver/Inc/stm32n6xx_ll_bus.h ****   *         @arg @ref LL_MEM_AXISRAM1
 738:../STM32Cube_FW_N6/Drivers/STM32N6xx_HAL_Driver/Inc/stm32n6xx_ll_bus.h ****   *         @arg @ref LL_MEM_AXISRAM2
 739:../STM32Cube_FW_N6/Drivers/STM32N6xx_HAL_Driver/Inc/stm32n6xx_ll_bus.h ****   *         @arg @ref LL_MEM_AXISRAM3
 740:../STM32Cube_FW_N6/Drivers/STM32N6xx_HAL_Driver/Inc/stm32n6xx_ll_bus.h ****   *         @arg @ref LL_MEM_AXISRAM4
 741:../STM32Cube_FW_N6/Drivers/STM32N6xx_HAL_Driver/Inc/stm32n6xx_ll_bus.h ****   *         @arg @ref LL_MEM_AXISRAM5
 742:../STM32Cube_FW_N6/Drivers/STM32N6xx_HAL_Driver/Inc/stm32n6xx_ll_bus.h ****   *         @arg @ref LL_MEM_AXISRAM6
 743:../STM32Cube_FW_N6/Drivers/STM32N6xx_HAL_Driver/Inc/stm32n6xx_ll_bus.h ****   *         @arg @ref LL_MEM_AHBSRAM1
 744:../STM32Cube_FW_N6/Drivers/STM32N6xx_HAL_Driver/Inc/stm32n6xx_ll_bus.h ****   *         @arg @ref LL_MEM_AHBSRAM2
 745:../STM32Cube_FW_N6/Drivers/STM32N6xx_HAL_Driver/Inc/stm32n6xx_ll_bus.h ****   *         @arg @ref LL_MEM_BKPSRAM
 746:../STM32Cube_FW_N6/Drivers/STM32N6xx_HAL_Driver/Inc/stm32n6xx_ll_bus.h ****   *         @arg @ref LL_MEM_FLEXRAM
 747:../STM32Cube_FW_N6/Drivers/STM32N6xx_HAL_Driver/Inc/stm32n6xx_ll_bus.h ****   *         @arg @ref LL_MEM_CACHEAXIRAM
 748:../STM32Cube_FW_N6/Drivers/STM32N6xx_HAL_Driver/Inc/stm32n6xx_ll_bus.h ****   *         @arg @ref LL_MEM_VENCRAM
 749:../STM32Cube_FW_N6/Drivers/STM32N6xx_HAL_Driver/Inc/stm32n6xx_ll_bus.h ****   * @retval None
 750:../STM32Cube_FW_N6/Drivers/STM32N6xx_HAL_Driver/Inc/stm32n6xx_ll_bus.h ****   */
 751:../STM32Cube_FW_N6/Drivers/STM32N6xx_HAL_Driver/Inc/stm32n6xx_ll_bus.h **** __STATIC_INLINE void LL_MEM_DisableClock(uint32_t Memories)
 752:../STM32Cube_FW_N6/Drivers/STM32N6xx_HAL_Driver/Inc/stm32n6xx_ll_bus.h **** {
 753:../STM32Cube_FW_N6/Drivers/STM32N6xx_HAL_Driver/Inc/stm32n6xx_ll_bus.h ****   WRITE_REG(RCC->MEMENCR, Memories);
 754:../STM32Cube_FW_N6/Drivers/STM32N6xx_HAL_Driver/Inc/stm32n6xx_ll_bus.h **** }
 755:../STM32Cube_FW_N6/Drivers/STM32N6xx_HAL_Driver/Inc/stm32n6xx_ll_bus.h **** 
 756:../STM32Cube_FW_N6/Drivers/STM32N6xx_HAL_Driver/Inc/stm32n6xx_ll_bus.h **** /**
 757:../STM32Cube_FW_N6/Drivers/STM32N6xx_HAL_Driver/Inc/stm32n6xx_ll_bus.h ****   * @brief  Enable memories clock during Low Power mode.
 758:../STM32Cube_FW_N6/Drivers/STM32N6xx_HAL_Driver/Inc/stm32n6xx_ll_bus.h ****   * @rmtoll MEMLPENSR    AXISRAM1LPENS LL_MEM_EnableClockLowPower\n
 759:../STM32Cube_FW_N6/Drivers/STM32N6xx_HAL_Driver/Inc/stm32n6xx_ll_bus.h ****   *         MEMLPENSR    AXISRAM2LPENS LL_MEM_EnableClockLowPower\n
 760:../STM32Cube_FW_N6/Drivers/STM32N6xx_HAL_Driver/Inc/stm32n6xx_ll_bus.h ****   *         MEMLPENSR    AXISRAM3LPENS LL_MEM_EnableClockLowPower\n
 761:../STM32Cube_FW_N6/Drivers/STM32N6xx_HAL_Driver/Inc/stm32n6xx_ll_bus.h ****   *         MEMLPENSR    AXISRAM4LPENS LL_MEM_EnableClockLowPower\n
 762:../STM32Cube_FW_N6/Drivers/STM32N6xx_HAL_Driver/Inc/stm32n6xx_ll_bus.h ****   *         MEMLPENSR    AXISRAM5LPENS LL_MEM_EnableClockLowPower\n
 763:../STM32Cube_FW_N6/Drivers/STM32N6xx_HAL_Driver/Inc/stm32n6xx_ll_bus.h ****   *         MEMLPENSR    AXISRAM6LPENS LL_MEM_EnableClockLowPower\n
 764:../STM32Cube_FW_N6/Drivers/STM32N6xx_HAL_Driver/Inc/stm32n6xx_ll_bus.h ****   *         MEMLPENSR    AHBSRAM1LPENS LL_MEM_EnableClockLowPower\n
 765:../STM32Cube_FW_N6/Drivers/STM32N6xx_HAL_Driver/Inc/stm32n6xx_ll_bus.h ****   *         MEMLPENSR    AHBSRAM2LPENS LL_MEM_EnableClockLowPower\n
 766:../STM32Cube_FW_N6/Drivers/STM32N6xx_HAL_Driver/Inc/stm32n6xx_ll_bus.h ****   *         MEMLPENSR    BKPSRAMLPENS  LL_MEM_EnableClockLowPower\n
 767:../STM32Cube_FW_N6/Drivers/STM32N6xx_HAL_Driver/Inc/stm32n6xx_ll_bus.h ****   *         MEMLPENSR    FLEXRAMLPENS  LL_MEM_EnableClockLowPower\n
 768:../STM32Cube_FW_N6/Drivers/STM32N6xx_HAL_Driver/Inc/stm32n6xx_ll_bus.h ****   *         MEMLPENSR    CACHEAXIRAMLPENS LL_MEM_EnableClockLowPower\n
 769:../STM32Cube_FW_N6/Drivers/STM32N6xx_HAL_Driver/Inc/stm32n6xx_ll_bus.h ****   *         MEMLPENSR    VENCRAMLPENS  LL_MEM_EnableClockLowPower
 770:../STM32Cube_FW_N6/Drivers/STM32N6xx_HAL_Driver/Inc/stm32n6xx_ll_bus.h ****   * @param  Memories This parameter can be a combination of the following values:
 771:../STM32Cube_FW_N6/Drivers/STM32N6xx_HAL_Driver/Inc/stm32n6xx_ll_bus.h ****   *         @arg @ref LL_MEM_AXISRAM1
 772:../STM32Cube_FW_N6/Drivers/STM32N6xx_HAL_Driver/Inc/stm32n6xx_ll_bus.h ****   *         @arg @ref LL_MEM_AXISRAM2
 773:../STM32Cube_FW_N6/Drivers/STM32N6xx_HAL_Driver/Inc/stm32n6xx_ll_bus.h ****   *         @arg @ref LL_MEM_AXISRAM3
 774:../STM32Cube_FW_N6/Drivers/STM32N6xx_HAL_Driver/Inc/stm32n6xx_ll_bus.h ****   *         @arg @ref LL_MEM_AXISRAM4
 775:../STM32Cube_FW_N6/Drivers/STM32N6xx_HAL_Driver/Inc/stm32n6xx_ll_bus.h ****   *         @arg @ref LL_MEM_AXISRAM5
 776:../STM32Cube_FW_N6/Drivers/STM32N6xx_HAL_Driver/Inc/stm32n6xx_ll_bus.h ****   *         @arg @ref LL_MEM_AXISRAM6
 777:../STM32Cube_FW_N6/Drivers/STM32N6xx_HAL_Driver/Inc/stm32n6xx_ll_bus.h ****   *         @arg @ref LL_MEM_AHBSRAM1
 778:../STM32Cube_FW_N6/Drivers/STM32N6xx_HAL_Driver/Inc/stm32n6xx_ll_bus.h ****   *         @arg @ref LL_MEM_AHBSRAM2
ARM GAS  /tmp/ccN2N8if.s 			page 51


 779:../STM32Cube_FW_N6/Drivers/STM32N6xx_HAL_Driver/Inc/stm32n6xx_ll_bus.h ****   *         @arg @ref LL_MEM_BKPSRAM
 780:../STM32Cube_FW_N6/Drivers/STM32N6xx_HAL_Driver/Inc/stm32n6xx_ll_bus.h ****   *         @arg @ref LL_MEM_FLEXRAM
 781:../STM32Cube_FW_N6/Drivers/STM32N6xx_HAL_Driver/Inc/stm32n6xx_ll_bus.h ****   *         @arg @ref LL_MEM_CACHEAXIRAM
 782:../STM32Cube_FW_N6/Drivers/STM32N6xx_HAL_Driver/Inc/stm32n6xx_ll_bus.h ****   *         @arg @ref LL_MEM_VENCRAM
 783:../STM32Cube_FW_N6/Drivers/STM32N6xx_HAL_Driver/Inc/stm32n6xx_ll_bus.h ****   * @retval None
 784:../STM32Cube_FW_N6/Drivers/STM32N6xx_HAL_Driver/Inc/stm32n6xx_ll_bus.h ****   */
 785:../STM32Cube_FW_N6/Drivers/STM32N6xx_HAL_Driver/Inc/stm32n6xx_ll_bus.h **** __STATIC_INLINE void LL_MEM_EnableClockLowPower(uint32_t Memories)
 786:../STM32Cube_FW_N6/Drivers/STM32N6xx_HAL_Driver/Inc/stm32n6xx_ll_bus.h **** {
 787:../STM32Cube_FW_N6/Drivers/STM32N6xx_HAL_Driver/Inc/stm32n6xx_ll_bus.h ****   __IO uint32_t tmpreg;
 788:../STM32Cube_FW_N6/Drivers/STM32N6xx_HAL_Driver/Inc/stm32n6xx_ll_bus.h ****   WRITE_REG(RCC->MEMLPENSR, Memories);
 789:../STM32Cube_FW_N6/Drivers/STM32N6xx_HAL_Driver/Inc/stm32n6xx_ll_bus.h ****   /* Delay after an RCC memories clock enabling */
 790:../STM32Cube_FW_N6/Drivers/STM32N6xx_HAL_Driver/Inc/stm32n6xx_ll_bus.h ****   tmpreg = READ_REG(RCC->MEMLPENR);
 791:../STM32Cube_FW_N6/Drivers/STM32N6xx_HAL_Driver/Inc/stm32n6xx_ll_bus.h ****   (void)tmpreg;
 792:../STM32Cube_FW_N6/Drivers/STM32N6xx_HAL_Driver/Inc/stm32n6xx_ll_bus.h **** }
 793:../STM32Cube_FW_N6/Drivers/STM32N6xx_HAL_Driver/Inc/stm32n6xx_ll_bus.h **** 
 794:../STM32Cube_FW_N6/Drivers/STM32N6xx_HAL_Driver/Inc/stm32n6xx_ll_bus.h **** /**
 795:../STM32Cube_FW_N6/Drivers/STM32N6xx_HAL_Driver/Inc/stm32n6xx_ll_bus.h ****   * @brief  Check if memories clock during Low Power mode is enabled or not .
 796:../STM32Cube_FW_N6/Drivers/STM32N6xx_HAL_Driver/Inc/stm32n6xx_ll_bus.h ****   * @rmtoll MEMLPENR      AXISRAM1LPEN    LL_MEM_IsEnabledClockLowPower\n
 797:../STM32Cube_FW_N6/Drivers/STM32N6xx_HAL_Driver/Inc/stm32n6xx_ll_bus.h ****   *         MEMLPENR      AXISRAM2LPEN    LL_MEM_IsEnabledClockLowPower\n
 798:../STM32Cube_FW_N6/Drivers/STM32N6xx_HAL_Driver/Inc/stm32n6xx_ll_bus.h ****   *         MEMLPENR      AXISRAM3LPEN    LL_MEM_IsEnabledClockLowPower\n
 799:../STM32Cube_FW_N6/Drivers/STM32N6xx_HAL_Driver/Inc/stm32n6xx_ll_bus.h ****   *         MEMLPENR      AXISRAM4LPEN    LL_MEM_IsEnabledClockLowPower\n
 800:../STM32Cube_FW_N6/Drivers/STM32N6xx_HAL_Driver/Inc/stm32n6xx_ll_bus.h ****   *         MEMLPENR      AXISRAM5LPEN    LL_MEM_IsEnabledClockLowPower\n
 801:../STM32Cube_FW_N6/Drivers/STM32N6xx_HAL_Driver/Inc/stm32n6xx_ll_bus.h ****   *         MEMLPENR      AXISRAM6LPEN    LL_MEM_IsEnabledClockLowPower\n
 802:../STM32Cube_FW_N6/Drivers/STM32N6xx_HAL_Driver/Inc/stm32n6xx_ll_bus.h ****   *         MEMLPENR      AHBSRAM1LPEN    LL_MEM_IsEnabledClockLowPower\n
 803:../STM32Cube_FW_N6/Drivers/STM32N6xx_HAL_Driver/Inc/stm32n6xx_ll_bus.h ****   *         MEMLPENR      AHBSRAM2LPEN    LL_MEM_IsEnabledClockLowPower\n
 804:../STM32Cube_FW_N6/Drivers/STM32N6xx_HAL_Driver/Inc/stm32n6xx_ll_bus.h ****   *         MEMLPENR      BKPSRAMLPEN     LL_MEM_IsEnabledClockLowPower\n
 805:../STM32Cube_FW_N6/Drivers/STM32N6xx_HAL_Driver/Inc/stm32n6xx_ll_bus.h ****   *         MEMLPENR      FLEXRAMLPEN     LL_MEM_IsEnabledClockLowPower\n
 806:../STM32Cube_FW_N6/Drivers/STM32N6xx_HAL_Driver/Inc/stm32n6xx_ll_bus.h ****   *         MEMLPENR      CACHEAXIRAMLPEN LL_MEM_IsEnabledClockLowPower\n
 807:../STM32Cube_FW_N6/Drivers/STM32N6xx_HAL_Driver/Inc/stm32n6xx_ll_bus.h ****   *         MEMLPENR      VENCRAMLPEN     LL_MEM_IsEnabledClockLowPower
 808:../STM32Cube_FW_N6/Drivers/STM32N6xx_HAL_Driver/Inc/stm32n6xx_ll_bus.h ****   * @param  Memories This parameter can be a combination of the following values:
 809:../STM32Cube_FW_N6/Drivers/STM32N6xx_HAL_Driver/Inc/stm32n6xx_ll_bus.h ****   *         @arg @ref LL_MEM_AXISRAM1
 810:../STM32Cube_FW_N6/Drivers/STM32N6xx_HAL_Driver/Inc/stm32n6xx_ll_bus.h ****   *         @arg @ref LL_MEM_AXISRAM2
 811:../STM32Cube_FW_N6/Drivers/STM32N6xx_HAL_Driver/Inc/stm32n6xx_ll_bus.h ****   *         @arg @ref LL_MEM_AXISRAM3
 812:../STM32Cube_FW_N6/Drivers/STM32N6xx_HAL_Driver/Inc/stm32n6xx_ll_bus.h ****   *         @arg @ref LL_MEM_AXISRAM4
 813:../STM32Cube_FW_N6/Drivers/STM32N6xx_HAL_Driver/Inc/stm32n6xx_ll_bus.h ****   *         @arg @ref LL_MEM_AXISRAM5
 814:../STM32Cube_FW_N6/Drivers/STM32N6xx_HAL_Driver/Inc/stm32n6xx_ll_bus.h ****   *         @arg @ref LL_MEM_AXISRAM6
 815:../STM32Cube_FW_N6/Drivers/STM32N6xx_HAL_Driver/Inc/stm32n6xx_ll_bus.h ****   *         @arg @ref LL_MEM_AHBSRAM1
 816:../STM32Cube_FW_N6/Drivers/STM32N6xx_HAL_Driver/Inc/stm32n6xx_ll_bus.h ****   *         @arg @ref LL_MEM_AHBSRAM2
 817:../STM32Cube_FW_N6/Drivers/STM32N6xx_HAL_Driver/Inc/stm32n6xx_ll_bus.h ****   *         @arg @ref LL_MEM_BKPSRAM
 818:../STM32Cube_FW_N6/Drivers/STM32N6xx_HAL_Driver/Inc/stm32n6xx_ll_bus.h ****   *         @arg @ref LL_MEM_FLEXRAM
 819:../STM32Cube_FW_N6/Drivers/STM32N6xx_HAL_Driver/Inc/stm32n6xx_ll_bus.h ****   *         @arg @ref LL_MEM_CACHEAXIRAM
 820:../STM32Cube_FW_N6/Drivers/STM32N6xx_HAL_Driver/Inc/stm32n6xx_ll_bus.h ****   *         @arg @ref LL_MEM_VENCRAM
 821:../STM32Cube_FW_N6/Drivers/STM32N6xx_HAL_Driver/Inc/stm32n6xx_ll_bus.h ****   * @retval None
 822:../STM32Cube_FW_N6/Drivers/STM32N6xx_HAL_Driver/Inc/stm32n6xx_ll_bus.h ****   */
 823:../STM32Cube_FW_N6/Drivers/STM32N6xx_HAL_Driver/Inc/stm32n6xx_ll_bus.h **** __STATIC_INLINE uint32_t LL_MEM_IsEnabledClockLowPower(uint32_t Memories)
 824:../STM32Cube_FW_N6/Drivers/STM32N6xx_HAL_Driver/Inc/stm32n6xx_ll_bus.h **** {
 825:../STM32Cube_FW_N6/Drivers/STM32N6xx_HAL_Driver/Inc/stm32n6xx_ll_bus.h ****   return ((READ_BIT(RCC->MEMLPENR, Memories) == Memories) ? 1UL : 0UL);
 826:../STM32Cube_FW_N6/Drivers/STM32N6xx_HAL_Driver/Inc/stm32n6xx_ll_bus.h **** }
 827:../STM32Cube_FW_N6/Drivers/STM32N6xx_HAL_Driver/Inc/stm32n6xx_ll_bus.h **** 
 828:../STM32Cube_FW_N6/Drivers/STM32N6xx_HAL_Driver/Inc/stm32n6xx_ll_bus.h **** /**
 829:../STM32Cube_FW_N6/Drivers/STM32N6xx_HAL_Driver/Inc/stm32n6xx_ll_bus.h ****   * @brief  Disable memories clock during Low Power mode.
 830:../STM32Cube_FW_N6/Drivers/STM32N6xx_HAL_Driver/Inc/stm32n6xx_ll_bus.h ****   * @rmtoll MEMLPENCR    AXISRAM1LPENC LL_MEM_DisableClockLowPower\n
 831:../STM32Cube_FW_N6/Drivers/STM32N6xx_HAL_Driver/Inc/stm32n6xx_ll_bus.h ****   *         MEMLPENCR    AXISRAM2LPENC LL_MEM_DisableClockLowPower\n
 832:../STM32Cube_FW_N6/Drivers/STM32N6xx_HAL_Driver/Inc/stm32n6xx_ll_bus.h ****   *         MEMLPENCR    AXISRAM3LPENC LL_MEM_DisableClockLowPower\n
 833:../STM32Cube_FW_N6/Drivers/STM32N6xx_HAL_Driver/Inc/stm32n6xx_ll_bus.h ****   *         MEMLPENCR    AXISRAM4LPENC LL_MEM_DisableClockLowPower\n
 834:../STM32Cube_FW_N6/Drivers/STM32N6xx_HAL_Driver/Inc/stm32n6xx_ll_bus.h ****   *         MEMLPENCR    AXISRAM5LPENC LL_MEM_DisableClockLowPower\n
 835:../STM32Cube_FW_N6/Drivers/STM32N6xx_HAL_Driver/Inc/stm32n6xx_ll_bus.h ****   *         MEMLPENCR    AXISRAM6LPENC LL_MEM_DisableClockLowPower\n
ARM GAS  /tmp/ccN2N8if.s 			page 52


 836:../STM32Cube_FW_N6/Drivers/STM32N6xx_HAL_Driver/Inc/stm32n6xx_ll_bus.h ****   *         MEMLPENCR    AHBSRAM1LPENC LL_MEM_DisableClockLowPower\n
 837:../STM32Cube_FW_N6/Drivers/STM32N6xx_HAL_Driver/Inc/stm32n6xx_ll_bus.h ****   *         MEMLPENCR    AHBSRAM2LPENC LL_MEM_DisableClockLowPower\n
 838:../STM32Cube_FW_N6/Drivers/STM32N6xx_HAL_Driver/Inc/stm32n6xx_ll_bus.h ****   *         MEMLPENCR    BKPSRAMLPENC  LL_MEM_DisableClockLowPower\n
 839:../STM32Cube_FW_N6/Drivers/STM32N6xx_HAL_Driver/Inc/stm32n6xx_ll_bus.h ****   *         MEMLPENCR    FLEXRAMLPENC  LL_MEM_DisableClockLowPower\n
 840:../STM32Cube_FW_N6/Drivers/STM32N6xx_HAL_Driver/Inc/stm32n6xx_ll_bus.h ****   *         MEMLPENCR    CACHEAXIRAMLPENC LL_MEM_DisableClockLowPower\n
 841:../STM32Cube_FW_N6/Drivers/STM32N6xx_HAL_Driver/Inc/stm32n6xx_ll_bus.h ****   *         MEMLPENCR    VENCRAMLPENC  LL_MEM_DisableClockLowPower
 842:../STM32Cube_FW_N6/Drivers/STM32N6xx_HAL_Driver/Inc/stm32n6xx_ll_bus.h ****   * @param  Memories This parameter can be a combination of the following values:
 843:../STM32Cube_FW_N6/Drivers/STM32N6xx_HAL_Driver/Inc/stm32n6xx_ll_bus.h ****   *         @arg @ref LL_MEM_AXISRAM1
 844:../STM32Cube_FW_N6/Drivers/STM32N6xx_HAL_Driver/Inc/stm32n6xx_ll_bus.h ****   *         @arg @ref LL_MEM_AXISRAM2
 845:../STM32Cube_FW_N6/Drivers/STM32N6xx_HAL_Driver/Inc/stm32n6xx_ll_bus.h ****   *         @arg @ref LL_MEM_AXISRAM3
 846:../STM32Cube_FW_N6/Drivers/STM32N6xx_HAL_Driver/Inc/stm32n6xx_ll_bus.h ****   *         @arg @ref LL_MEM_AXISRAM4
 847:../STM32Cube_FW_N6/Drivers/STM32N6xx_HAL_Driver/Inc/stm32n6xx_ll_bus.h ****   *         @arg @ref LL_MEM_AXISRAM5
 848:../STM32Cube_FW_N6/Drivers/STM32N6xx_HAL_Driver/Inc/stm32n6xx_ll_bus.h ****   *         @arg @ref LL_MEM_AXISRAM6
 849:../STM32Cube_FW_N6/Drivers/STM32N6xx_HAL_Driver/Inc/stm32n6xx_ll_bus.h ****   *         @arg @ref LL_MEM_AHBSRAM1
 850:../STM32Cube_FW_N6/Drivers/STM32N6xx_HAL_Driver/Inc/stm32n6xx_ll_bus.h ****   *         @arg @ref LL_MEM_AHBSRAM2
 851:../STM32Cube_FW_N6/Drivers/STM32N6xx_HAL_Driver/Inc/stm32n6xx_ll_bus.h ****   *         @arg @ref LL_MEM_BKPSRAM
 852:../STM32Cube_FW_N6/Drivers/STM32N6xx_HAL_Driver/Inc/stm32n6xx_ll_bus.h ****   *         @arg @ref LL_MEM_FLEXRAM
 853:../STM32Cube_FW_N6/Drivers/STM32N6xx_HAL_Driver/Inc/stm32n6xx_ll_bus.h ****   *         @arg @ref LL_MEM_CACHEAXIRAM
 854:../STM32Cube_FW_N6/Drivers/STM32N6xx_HAL_Driver/Inc/stm32n6xx_ll_bus.h ****   *         @arg @ref LL_MEM_VENCRAM
 855:../STM32Cube_FW_N6/Drivers/STM32N6xx_HAL_Driver/Inc/stm32n6xx_ll_bus.h ****   * @retval None
 856:../STM32Cube_FW_N6/Drivers/STM32N6xx_HAL_Driver/Inc/stm32n6xx_ll_bus.h ****   */
 857:../STM32Cube_FW_N6/Drivers/STM32N6xx_HAL_Driver/Inc/stm32n6xx_ll_bus.h **** __STATIC_INLINE void LL_MEM_DisableClockLowPower(uint32_t Memories)
 858:../STM32Cube_FW_N6/Drivers/STM32N6xx_HAL_Driver/Inc/stm32n6xx_ll_bus.h **** {
 859:../STM32Cube_FW_N6/Drivers/STM32N6xx_HAL_Driver/Inc/stm32n6xx_ll_bus.h ****   WRITE_REG(RCC->MEMLPENCR, Memories);
 860:../STM32Cube_FW_N6/Drivers/STM32N6xx_HAL_Driver/Inc/stm32n6xx_ll_bus.h **** }
 861:../STM32Cube_FW_N6/Drivers/STM32N6xx_HAL_Driver/Inc/stm32n6xx_ll_bus.h **** 
 862:../STM32Cube_FW_N6/Drivers/STM32N6xx_HAL_Driver/Inc/stm32n6xx_ll_bus.h **** /**
 863:../STM32Cube_FW_N6/Drivers/STM32N6xx_HAL_Driver/Inc/stm32n6xx_ll_bus.h ****   * @}
 864:../STM32Cube_FW_N6/Drivers/STM32N6xx_HAL_Driver/Inc/stm32n6xx_ll_bus.h ****   */
 865:../STM32Cube_FW_N6/Drivers/STM32N6xx_HAL_Driver/Inc/stm32n6xx_ll_bus.h **** 
 866:../STM32Cube_FW_N6/Drivers/STM32N6xx_HAL_Driver/Inc/stm32n6xx_ll_bus.h **** /** @defgroup BUS_LL_EF_AHB1 AHB1
 867:../STM32Cube_FW_N6/Drivers/STM32N6xx_HAL_Driver/Inc/stm32n6xx_ll_bus.h ****   * @{
 868:../STM32Cube_FW_N6/Drivers/STM32N6xx_HAL_Driver/Inc/stm32n6xx_ll_bus.h ****   */
 869:../STM32Cube_FW_N6/Drivers/STM32N6xx_HAL_Driver/Inc/stm32n6xx_ll_bus.h **** 
 870:../STM32Cube_FW_N6/Drivers/STM32N6xx_HAL_Driver/Inc/stm32n6xx_ll_bus.h **** /**
 871:../STM32Cube_FW_N6/Drivers/STM32N6xx_HAL_Driver/Inc/stm32n6xx_ll_bus.h ****   * @brief  Enable AHB1 peripherals clock.
 872:../STM32Cube_FW_N6/Drivers/STM32N6xx_HAL_Driver/Inc/stm32n6xx_ll_bus.h ****   * @rmtoll AHB1ENSR     GPDMA1ENS     LL_AHB1_GRP1_EnableClock\n
 873:../STM32Cube_FW_N6/Drivers/STM32N6xx_HAL_Driver/Inc/stm32n6xx_ll_bus.h ****   *         AHB1ENSR     ADC12ENS      LL_AHB1_GRP1_EnableClock
 874:../STM32Cube_FW_N6/Drivers/STM32N6xx_HAL_Driver/Inc/stm32n6xx_ll_bus.h ****   * @param  Periphs This parameter can be a combination of the following values:
 875:../STM32Cube_FW_N6/Drivers/STM32N6xx_HAL_Driver/Inc/stm32n6xx_ll_bus.h ****   *         @arg @ref LL_AHB1_GRP1_PERIPH_GPDMA1
 876:../STM32Cube_FW_N6/Drivers/STM32N6xx_HAL_Driver/Inc/stm32n6xx_ll_bus.h ****   *         @arg @ref LL_AHB1_GRP1_PERIPH_ADC12
 877:../STM32Cube_FW_N6/Drivers/STM32N6xx_HAL_Driver/Inc/stm32n6xx_ll_bus.h ****   * @retval None
 878:../STM32Cube_FW_N6/Drivers/STM32N6xx_HAL_Driver/Inc/stm32n6xx_ll_bus.h ****   */
 879:../STM32Cube_FW_N6/Drivers/STM32N6xx_HAL_Driver/Inc/stm32n6xx_ll_bus.h **** __STATIC_INLINE void LL_AHB1_GRP1_EnableClock(uint32_t Periphs)
 880:../STM32Cube_FW_N6/Drivers/STM32N6xx_HAL_Driver/Inc/stm32n6xx_ll_bus.h **** {
 881:../STM32Cube_FW_N6/Drivers/STM32N6xx_HAL_Driver/Inc/stm32n6xx_ll_bus.h ****   __IO uint32_t tmpreg;
 882:../STM32Cube_FW_N6/Drivers/STM32N6xx_HAL_Driver/Inc/stm32n6xx_ll_bus.h ****   WRITE_REG(RCC->AHB1ENSR, Periphs);
 883:../STM32Cube_FW_N6/Drivers/STM32N6xx_HAL_Driver/Inc/stm32n6xx_ll_bus.h ****   /* Delay after an RCC peripheral clock enabling */
 884:../STM32Cube_FW_N6/Drivers/STM32N6xx_HAL_Driver/Inc/stm32n6xx_ll_bus.h ****   tmpreg = READ_REG(RCC->AHB1ENR);
 885:../STM32Cube_FW_N6/Drivers/STM32N6xx_HAL_Driver/Inc/stm32n6xx_ll_bus.h ****   (void)tmpreg;
 886:../STM32Cube_FW_N6/Drivers/STM32N6xx_HAL_Driver/Inc/stm32n6xx_ll_bus.h **** }
 887:../STM32Cube_FW_N6/Drivers/STM32N6xx_HAL_Driver/Inc/stm32n6xx_ll_bus.h **** 
 888:../STM32Cube_FW_N6/Drivers/STM32N6xx_HAL_Driver/Inc/stm32n6xx_ll_bus.h **** /**
 889:../STM32Cube_FW_N6/Drivers/STM32N6xx_HAL_Driver/Inc/stm32n6xx_ll_bus.h ****   * @brief  Check if AHB1 peripheral clock is enabled or not
 890:../STM32Cube_FW_N6/Drivers/STM32N6xx_HAL_Driver/Inc/stm32n6xx_ll_bus.h ****   * @rmtoll AHB1ENR      GPDMA1EN      LL_AHB1_GRP1_IsEnabledClock\n
 891:../STM32Cube_FW_N6/Drivers/STM32N6xx_HAL_Driver/Inc/stm32n6xx_ll_bus.h ****   *         AHB1ENR      ADC12EN       LL_AHB1_GRP1_IsEnabledClock
 892:../STM32Cube_FW_N6/Drivers/STM32N6xx_HAL_Driver/Inc/stm32n6xx_ll_bus.h ****   * @param  Periphs This parameter can be a combination of the following values:
ARM GAS  /tmp/ccN2N8if.s 			page 53


 893:../STM32Cube_FW_N6/Drivers/STM32N6xx_HAL_Driver/Inc/stm32n6xx_ll_bus.h ****   *         @arg @ref LL_AHB1_GRP1_PERIPH_GPDMA1
 894:../STM32Cube_FW_N6/Drivers/STM32N6xx_HAL_Driver/Inc/stm32n6xx_ll_bus.h ****   *         @arg @ref LL_AHB1_GRP1_PERIPH_ADC12
 895:../STM32Cube_FW_N6/Drivers/STM32N6xx_HAL_Driver/Inc/stm32n6xx_ll_bus.h ****   * @retval uint32_t
 896:../STM32Cube_FW_N6/Drivers/STM32N6xx_HAL_Driver/Inc/stm32n6xx_ll_bus.h ****   */
 897:../STM32Cube_FW_N6/Drivers/STM32N6xx_HAL_Driver/Inc/stm32n6xx_ll_bus.h **** __STATIC_INLINE uint32_t LL_AHB1_GRP1_IsEnabledClock(uint32_t Periphs)
 898:../STM32Cube_FW_N6/Drivers/STM32N6xx_HAL_Driver/Inc/stm32n6xx_ll_bus.h **** {
 899:../STM32Cube_FW_N6/Drivers/STM32N6xx_HAL_Driver/Inc/stm32n6xx_ll_bus.h ****   return ((READ_BIT(RCC->AHB1ENR, Periphs) == Periphs) ? 1UL : 0UL);
 900:../STM32Cube_FW_N6/Drivers/STM32N6xx_HAL_Driver/Inc/stm32n6xx_ll_bus.h **** }
 901:../STM32Cube_FW_N6/Drivers/STM32N6xx_HAL_Driver/Inc/stm32n6xx_ll_bus.h **** 
 902:../STM32Cube_FW_N6/Drivers/STM32N6xx_HAL_Driver/Inc/stm32n6xx_ll_bus.h **** /**
 903:../STM32Cube_FW_N6/Drivers/STM32N6xx_HAL_Driver/Inc/stm32n6xx_ll_bus.h ****   * @brief  Disable AHB1 peripherals clock.
 904:../STM32Cube_FW_N6/Drivers/STM32N6xx_HAL_Driver/Inc/stm32n6xx_ll_bus.h ****   * @rmtoll AHB1ENCR     GPDMA1ENC     LL_AHB1_GRP1_DisableClock\n
 905:../STM32Cube_FW_N6/Drivers/STM32N6xx_HAL_Driver/Inc/stm32n6xx_ll_bus.h ****   *         AHB1ENCR     ADC12ENC      LL_AHB1_GRP1_DisableClock
 906:../STM32Cube_FW_N6/Drivers/STM32N6xx_HAL_Driver/Inc/stm32n6xx_ll_bus.h ****   * @param  Periphs This parameter can be a combination of the following values:
 907:../STM32Cube_FW_N6/Drivers/STM32N6xx_HAL_Driver/Inc/stm32n6xx_ll_bus.h ****   *         @arg @ref LL_AHB1_GRP1_PERIPH_GPDMA1
 908:../STM32Cube_FW_N6/Drivers/STM32N6xx_HAL_Driver/Inc/stm32n6xx_ll_bus.h ****   *         @arg @ref LL_AHB1_GRP1_PERIPH_ADC12
 909:../STM32Cube_FW_N6/Drivers/STM32N6xx_HAL_Driver/Inc/stm32n6xx_ll_bus.h ****   * @retval None
 910:../STM32Cube_FW_N6/Drivers/STM32N6xx_HAL_Driver/Inc/stm32n6xx_ll_bus.h ****   */
 911:../STM32Cube_FW_N6/Drivers/STM32N6xx_HAL_Driver/Inc/stm32n6xx_ll_bus.h **** __STATIC_INLINE void LL_AHB1_GRP1_DisableClock(uint32_t Periphs)
 912:../STM32Cube_FW_N6/Drivers/STM32N6xx_HAL_Driver/Inc/stm32n6xx_ll_bus.h **** {
 913:../STM32Cube_FW_N6/Drivers/STM32N6xx_HAL_Driver/Inc/stm32n6xx_ll_bus.h ****   WRITE_REG(RCC->AHB1ENCR, Periphs);
 914:../STM32Cube_FW_N6/Drivers/STM32N6xx_HAL_Driver/Inc/stm32n6xx_ll_bus.h **** }
 915:../STM32Cube_FW_N6/Drivers/STM32N6xx_HAL_Driver/Inc/stm32n6xx_ll_bus.h **** 
 916:../STM32Cube_FW_N6/Drivers/STM32N6xx_HAL_Driver/Inc/stm32n6xx_ll_bus.h **** /**
 917:../STM32Cube_FW_N6/Drivers/STM32N6xx_HAL_Driver/Inc/stm32n6xx_ll_bus.h ****   * @brief  Force AHB1 peripherals reset.
 918:../STM32Cube_FW_N6/Drivers/STM32N6xx_HAL_Driver/Inc/stm32n6xx_ll_bus.h ****   * @rmtoll AHB1RSTSR    GPDMA1RSTS    LL_AHB1_GRP1_ForceReset\n
 919:../STM32Cube_FW_N6/Drivers/STM32N6xx_HAL_Driver/Inc/stm32n6xx_ll_bus.h ****   *         AHB1RSTSR    ADC12RSTS     LL_AHB1_GRP1_ForceReset
 920:../STM32Cube_FW_N6/Drivers/STM32N6xx_HAL_Driver/Inc/stm32n6xx_ll_bus.h ****   * @param  Periphs This parameter can be a combination of the following values:
 921:../STM32Cube_FW_N6/Drivers/STM32N6xx_HAL_Driver/Inc/stm32n6xx_ll_bus.h ****   *         @arg @ref LL_AHB1_GRP1_PERIPH_GPDMA1
 922:../STM32Cube_FW_N6/Drivers/STM32N6xx_HAL_Driver/Inc/stm32n6xx_ll_bus.h ****   *         @arg @ref LL_AHB1_GRP1_PERIPH_ADC12
 923:../STM32Cube_FW_N6/Drivers/STM32N6xx_HAL_Driver/Inc/stm32n6xx_ll_bus.h ****   * @retval None
 924:../STM32Cube_FW_N6/Drivers/STM32N6xx_HAL_Driver/Inc/stm32n6xx_ll_bus.h ****   */
 925:../STM32Cube_FW_N6/Drivers/STM32N6xx_HAL_Driver/Inc/stm32n6xx_ll_bus.h **** __STATIC_INLINE void LL_AHB1_GRP1_ForceReset(uint32_t Periphs)
 926:../STM32Cube_FW_N6/Drivers/STM32N6xx_HAL_Driver/Inc/stm32n6xx_ll_bus.h **** {
 927:../STM32Cube_FW_N6/Drivers/STM32N6xx_HAL_Driver/Inc/stm32n6xx_ll_bus.h ****   WRITE_REG(RCC->AHB1RSTSR, Periphs);
 928:../STM32Cube_FW_N6/Drivers/STM32N6xx_HAL_Driver/Inc/stm32n6xx_ll_bus.h **** }
 929:../STM32Cube_FW_N6/Drivers/STM32N6xx_HAL_Driver/Inc/stm32n6xx_ll_bus.h **** 
 930:../STM32Cube_FW_N6/Drivers/STM32N6xx_HAL_Driver/Inc/stm32n6xx_ll_bus.h **** /**
 931:../STM32Cube_FW_N6/Drivers/STM32N6xx_HAL_Driver/Inc/stm32n6xx_ll_bus.h ****   * @brief  Release AHB1 peripherals reset.
 932:../STM32Cube_FW_N6/Drivers/STM32N6xx_HAL_Driver/Inc/stm32n6xx_ll_bus.h ****   * @rmtoll AHB1RSTCR    GPDMA1RSTC    LL_AHB1_GRP1_ReleaseReset\n
 933:../STM32Cube_FW_N6/Drivers/STM32N6xx_HAL_Driver/Inc/stm32n6xx_ll_bus.h ****   *         AHB1RSTCR    ADC12RSTC     LL_AHB1_GRP1_ReleaseReset
 934:../STM32Cube_FW_N6/Drivers/STM32N6xx_HAL_Driver/Inc/stm32n6xx_ll_bus.h ****   * @param  Periphs This parameter can be a combination of the following values:
 935:../STM32Cube_FW_N6/Drivers/STM32N6xx_HAL_Driver/Inc/stm32n6xx_ll_bus.h ****   *         @arg @ref LL_AHB1_GRP1_PERIPH_GPDMA1
 936:../STM32Cube_FW_N6/Drivers/STM32N6xx_HAL_Driver/Inc/stm32n6xx_ll_bus.h ****   *         @arg @ref LL_AHB1_GRP1_PERIPH_ADC12
 937:../STM32Cube_FW_N6/Drivers/STM32N6xx_HAL_Driver/Inc/stm32n6xx_ll_bus.h ****   * @retval None
 938:../STM32Cube_FW_N6/Drivers/STM32N6xx_HAL_Driver/Inc/stm32n6xx_ll_bus.h ****   */
 939:../STM32Cube_FW_N6/Drivers/STM32N6xx_HAL_Driver/Inc/stm32n6xx_ll_bus.h **** __STATIC_INLINE void LL_AHB1_GRP1_ReleaseReset(uint32_t Periphs)
 940:../STM32Cube_FW_N6/Drivers/STM32N6xx_HAL_Driver/Inc/stm32n6xx_ll_bus.h **** {
 941:../STM32Cube_FW_N6/Drivers/STM32N6xx_HAL_Driver/Inc/stm32n6xx_ll_bus.h ****   WRITE_REG(RCC->AHB1RSTCR, Periphs);
 942:../STM32Cube_FW_N6/Drivers/STM32N6xx_HAL_Driver/Inc/stm32n6xx_ll_bus.h **** }
 943:../STM32Cube_FW_N6/Drivers/STM32N6xx_HAL_Driver/Inc/stm32n6xx_ll_bus.h **** 
 944:../STM32Cube_FW_N6/Drivers/STM32N6xx_HAL_Driver/Inc/stm32n6xx_ll_bus.h **** /**
 945:../STM32Cube_FW_N6/Drivers/STM32N6xx_HAL_Driver/Inc/stm32n6xx_ll_bus.h ****   * @brief  Enable AHB1 peripherals clock during Low Power mode.
 946:../STM32Cube_FW_N6/Drivers/STM32N6xx_HAL_Driver/Inc/stm32n6xx_ll_bus.h ****   * @rmtoll AHB1LPENSR   GPDMA1LPENS   LL_AHB1_GRP1_EnableClockLowPower\n
 947:../STM32Cube_FW_N6/Drivers/STM32N6xx_HAL_Driver/Inc/stm32n6xx_ll_bus.h ****   *         AHB1LPENSR   ADC12LPENS    LL_AHB1_GRP1_EnableClockLowPower
 948:../STM32Cube_FW_N6/Drivers/STM32N6xx_HAL_Driver/Inc/stm32n6xx_ll_bus.h ****   * @param  Periphs This parameter can be a combination of the following values:
 949:../STM32Cube_FW_N6/Drivers/STM32N6xx_HAL_Driver/Inc/stm32n6xx_ll_bus.h ****   *         @arg @ref LL_AHB1_GRP1_PERIPH_GPDMA1
ARM GAS  /tmp/ccN2N8if.s 			page 54


 950:../STM32Cube_FW_N6/Drivers/STM32N6xx_HAL_Driver/Inc/stm32n6xx_ll_bus.h ****   *         @arg @ref LL_AHB1_GRP1_PERIPH_ADC12
 951:../STM32Cube_FW_N6/Drivers/STM32N6xx_HAL_Driver/Inc/stm32n6xx_ll_bus.h ****   * @retval None
 952:../STM32Cube_FW_N6/Drivers/STM32N6xx_HAL_Driver/Inc/stm32n6xx_ll_bus.h ****   */
 953:../STM32Cube_FW_N6/Drivers/STM32N6xx_HAL_Driver/Inc/stm32n6xx_ll_bus.h **** __STATIC_INLINE void LL_AHB1_GRP1_EnableClockLowPower(uint32_t Periphs)
 954:../STM32Cube_FW_N6/Drivers/STM32N6xx_HAL_Driver/Inc/stm32n6xx_ll_bus.h **** {
 955:../STM32Cube_FW_N6/Drivers/STM32N6xx_HAL_Driver/Inc/stm32n6xx_ll_bus.h ****   __IO uint32_t tmpreg;
 956:../STM32Cube_FW_N6/Drivers/STM32N6xx_HAL_Driver/Inc/stm32n6xx_ll_bus.h ****   WRITE_REG(RCC->AHB1LPENSR, Periphs);
 957:../STM32Cube_FW_N6/Drivers/STM32N6xx_HAL_Driver/Inc/stm32n6xx_ll_bus.h ****   /* Delay after an RCC peripheral clock enabling */
 958:../STM32Cube_FW_N6/Drivers/STM32N6xx_HAL_Driver/Inc/stm32n6xx_ll_bus.h ****   tmpreg = READ_REG(RCC->AHB1LPENR);
 959:../STM32Cube_FW_N6/Drivers/STM32N6xx_HAL_Driver/Inc/stm32n6xx_ll_bus.h ****   (void)tmpreg;
 960:../STM32Cube_FW_N6/Drivers/STM32N6xx_HAL_Driver/Inc/stm32n6xx_ll_bus.h **** }
 961:../STM32Cube_FW_N6/Drivers/STM32N6xx_HAL_Driver/Inc/stm32n6xx_ll_bus.h **** 
 962:../STM32Cube_FW_N6/Drivers/STM32N6xx_HAL_Driver/Inc/stm32n6xx_ll_bus.h **** /**
 963:../STM32Cube_FW_N6/Drivers/STM32N6xx_HAL_Driver/Inc/stm32n6xx_ll_bus.h ****   * @brief  Check if AHB1 peripheral clock during Low Power mode is enabled or not .
 964:../STM32Cube_FW_N6/Drivers/STM32N6xx_HAL_Driver/Inc/stm32n6xx_ll_bus.h ****   * @rmtoll AHB1LPENR    GPDMA1LPEN    LL_AHB1_GRP1_IsEnabledClockLowPower\n
 965:../STM32Cube_FW_N6/Drivers/STM32N6xx_HAL_Driver/Inc/stm32n6xx_ll_bus.h ****   *         AHB1LPENR    ADC12LPEN     LL_AHB1_GRP1_IsEnabledClockLowPower
 966:../STM32Cube_FW_N6/Drivers/STM32N6xx_HAL_Driver/Inc/stm32n6xx_ll_bus.h ****   * @param  Periphs This parameter can be a combination of the following values:
 967:../STM32Cube_FW_N6/Drivers/STM32N6xx_HAL_Driver/Inc/stm32n6xx_ll_bus.h ****   *         @arg @ref LL_AHB1_GRP1_PERIPH_GPDMA1
 968:../STM32Cube_FW_N6/Drivers/STM32N6xx_HAL_Driver/Inc/stm32n6xx_ll_bus.h ****   *         @arg @ref LL_AHB1_GRP1_PERIPH_ADC12
 969:../STM32Cube_FW_N6/Drivers/STM32N6xx_HAL_Driver/Inc/stm32n6xx_ll_bus.h ****   * @retval uint32_t
 970:../STM32Cube_FW_N6/Drivers/STM32N6xx_HAL_Driver/Inc/stm32n6xx_ll_bus.h ****   */
 971:../STM32Cube_FW_N6/Drivers/STM32N6xx_HAL_Driver/Inc/stm32n6xx_ll_bus.h **** __STATIC_INLINE uint32_t LL_AHB1_GRP1_IsEnabledClockLowPower(uint32_t Periphs)
 972:../STM32Cube_FW_N6/Drivers/STM32N6xx_HAL_Driver/Inc/stm32n6xx_ll_bus.h **** {
 973:../STM32Cube_FW_N6/Drivers/STM32N6xx_HAL_Driver/Inc/stm32n6xx_ll_bus.h ****   return ((READ_BIT(RCC->AHB1LPENR, Periphs) == Periphs) ? 1UL : 0UL);
 974:../STM32Cube_FW_N6/Drivers/STM32N6xx_HAL_Driver/Inc/stm32n6xx_ll_bus.h **** }
 975:../STM32Cube_FW_N6/Drivers/STM32N6xx_HAL_Driver/Inc/stm32n6xx_ll_bus.h **** 
 976:../STM32Cube_FW_N6/Drivers/STM32N6xx_HAL_Driver/Inc/stm32n6xx_ll_bus.h **** /**
 977:../STM32Cube_FW_N6/Drivers/STM32N6xx_HAL_Driver/Inc/stm32n6xx_ll_bus.h ****   * @brief  Disable AHB1 peripherals clock during Low Power mode.
 978:../STM32Cube_FW_N6/Drivers/STM32N6xx_HAL_Driver/Inc/stm32n6xx_ll_bus.h ****   * @rmtoll AHB1LPENCR   GPDMA1LPENC   LL_AHB1_GRP1_DisableClockLowPower\n
 979:../STM32Cube_FW_N6/Drivers/STM32N6xx_HAL_Driver/Inc/stm32n6xx_ll_bus.h ****   *         AHB1LPENCR   ADC12LPENC    LL_AHB1_GRP1_DisableClockLowPower
 980:../STM32Cube_FW_N6/Drivers/STM32N6xx_HAL_Driver/Inc/stm32n6xx_ll_bus.h ****   * @param  Periphs This parameter can be a combination of the following values:
 981:../STM32Cube_FW_N6/Drivers/STM32N6xx_HAL_Driver/Inc/stm32n6xx_ll_bus.h ****   *         @arg @ref LL_AHB1_GRP1_PERIPH_GPDMA1
 982:../STM32Cube_FW_N6/Drivers/STM32N6xx_HAL_Driver/Inc/stm32n6xx_ll_bus.h ****   *         @arg @ref LL_AHB1_GRP1_PERIPH_ADC12
 983:../STM32Cube_FW_N6/Drivers/STM32N6xx_HAL_Driver/Inc/stm32n6xx_ll_bus.h ****   * @retval None
 984:../STM32Cube_FW_N6/Drivers/STM32N6xx_HAL_Driver/Inc/stm32n6xx_ll_bus.h ****   */
 985:../STM32Cube_FW_N6/Drivers/STM32N6xx_HAL_Driver/Inc/stm32n6xx_ll_bus.h **** __STATIC_INLINE void LL_AHB1_GRP1_DisableClockLowPower(uint32_t Periphs)
 986:../STM32Cube_FW_N6/Drivers/STM32N6xx_HAL_Driver/Inc/stm32n6xx_ll_bus.h **** {
 987:../STM32Cube_FW_N6/Drivers/STM32N6xx_HAL_Driver/Inc/stm32n6xx_ll_bus.h ****   WRITE_REG(RCC->AHB1LPENCR, Periphs);
 988:../STM32Cube_FW_N6/Drivers/STM32N6xx_HAL_Driver/Inc/stm32n6xx_ll_bus.h **** }
 989:../STM32Cube_FW_N6/Drivers/STM32N6xx_HAL_Driver/Inc/stm32n6xx_ll_bus.h **** 
 990:../STM32Cube_FW_N6/Drivers/STM32N6xx_HAL_Driver/Inc/stm32n6xx_ll_bus.h **** /**
 991:../STM32Cube_FW_N6/Drivers/STM32N6xx_HAL_Driver/Inc/stm32n6xx_ll_bus.h ****   * @}
 992:../STM32Cube_FW_N6/Drivers/STM32N6xx_HAL_Driver/Inc/stm32n6xx_ll_bus.h ****   */
 993:../STM32Cube_FW_N6/Drivers/STM32N6xx_HAL_Driver/Inc/stm32n6xx_ll_bus.h **** 
 994:../STM32Cube_FW_N6/Drivers/STM32N6xx_HAL_Driver/Inc/stm32n6xx_ll_bus.h **** /** @defgroup BUS_LL_EF_AHB2 AHB2
 995:../STM32Cube_FW_N6/Drivers/STM32N6xx_HAL_Driver/Inc/stm32n6xx_ll_bus.h ****   * @{
 996:../STM32Cube_FW_N6/Drivers/STM32N6xx_HAL_Driver/Inc/stm32n6xx_ll_bus.h ****   */
 997:../STM32Cube_FW_N6/Drivers/STM32N6xx_HAL_Driver/Inc/stm32n6xx_ll_bus.h **** 
 998:../STM32Cube_FW_N6/Drivers/STM32N6xx_HAL_Driver/Inc/stm32n6xx_ll_bus.h **** /**
 999:../STM32Cube_FW_N6/Drivers/STM32N6xx_HAL_Driver/Inc/stm32n6xx_ll_bus.h ****   * @brief  Enable AHB2 peripherals clock.
1000:../STM32Cube_FW_N6/Drivers/STM32N6xx_HAL_Driver/Inc/stm32n6xx_ll_bus.h ****   * @rmtoll AHB2ENSR     RAMCFGENS     LL_AHB2_GRP1_EnableClock\n
1001:../STM32Cube_FW_N6/Drivers/STM32N6xx_HAL_Driver/Inc/stm32n6xx_ll_bus.h ****   *         AHB2ENSR     MDF1ENS       LL_AHB2_GRP1_EnableClock\n
1002:../STM32Cube_FW_N6/Drivers/STM32N6xx_HAL_Driver/Inc/stm32n6xx_ll_bus.h ****   *         AHB2ENSR     ADF1ENS       LL_AHB2_GRP1_EnableClock
1003:../STM32Cube_FW_N6/Drivers/STM32N6xx_HAL_Driver/Inc/stm32n6xx_ll_bus.h ****   * @param  Periphs This parameter can be a combination of the following values:
1004:../STM32Cube_FW_N6/Drivers/STM32N6xx_HAL_Driver/Inc/stm32n6xx_ll_bus.h ****   *         @arg @ref LL_AHB2_GRP1_PERIPH_RAMCFG
1005:../STM32Cube_FW_N6/Drivers/STM32N6xx_HAL_Driver/Inc/stm32n6xx_ll_bus.h ****   *         @arg @ref LL_AHB2_GRP1_PERIPH_MDF1
1006:../STM32Cube_FW_N6/Drivers/STM32N6xx_HAL_Driver/Inc/stm32n6xx_ll_bus.h ****   *         @arg @ref LL_AHB2_GRP1_PERIPH_ADF1
ARM GAS  /tmp/ccN2N8if.s 			page 55


1007:../STM32Cube_FW_N6/Drivers/STM32N6xx_HAL_Driver/Inc/stm32n6xx_ll_bus.h ****   * @retval None
1008:../STM32Cube_FW_N6/Drivers/STM32N6xx_HAL_Driver/Inc/stm32n6xx_ll_bus.h ****   */
1009:../STM32Cube_FW_N6/Drivers/STM32N6xx_HAL_Driver/Inc/stm32n6xx_ll_bus.h **** __STATIC_INLINE void LL_AHB2_GRP1_EnableClock(uint32_t Periphs)
1010:../STM32Cube_FW_N6/Drivers/STM32N6xx_HAL_Driver/Inc/stm32n6xx_ll_bus.h **** {
1011:../STM32Cube_FW_N6/Drivers/STM32N6xx_HAL_Driver/Inc/stm32n6xx_ll_bus.h ****   __IO uint32_t tmpreg;
1012:../STM32Cube_FW_N6/Drivers/STM32N6xx_HAL_Driver/Inc/stm32n6xx_ll_bus.h ****   WRITE_REG(RCC->AHB2ENSR, Periphs);
1013:../STM32Cube_FW_N6/Drivers/STM32N6xx_HAL_Driver/Inc/stm32n6xx_ll_bus.h ****   /* Delay after an RCC peripheral clock enabling */
1014:../STM32Cube_FW_N6/Drivers/STM32N6xx_HAL_Driver/Inc/stm32n6xx_ll_bus.h ****   tmpreg = READ_REG(RCC->AHB2ENR);
1015:../STM32Cube_FW_N6/Drivers/STM32N6xx_HAL_Driver/Inc/stm32n6xx_ll_bus.h ****   (void)tmpreg;
1016:../STM32Cube_FW_N6/Drivers/STM32N6xx_HAL_Driver/Inc/stm32n6xx_ll_bus.h **** }
1017:../STM32Cube_FW_N6/Drivers/STM32N6xx_HAL_Driver/Inc/stm32n6xx_ll_bus.h **** 
1018:../STM32Cube_FW_N6/Drivers/STM32N6xx_HAL_Driver/Inc/stm32n6xx_ll_bus.h **** /**
1019:../STM32Cube_FW_N6/Drivers/STM32N6xx_HAL_Driver/Inc/stm32n6xx_ll_bus.h ****   * @brief  Check if AHB2 peripheral clock is enabled or not
1020:../STM32Cube_FW_N6/Drivers/STM32N6xx_HAL_Driver/Inc/stm32n6xx_ll_bus.h ****   * @rmtoll AHB2ENR      RAMCFGEN      LL_AHB2_GRP1_IsEnabledClock\n
1021:../STM32Cube_FW_N6/Drivers/STM32N6xx_HAL_Driver/Inc/stm32n6xx_ll_bus.h ****   *         AHB2ENR      MDF1EN        LL_AHB2_GRP1_IsEnabledClock\n
1022:../STM32Cube_FW_N6/Drivers/STM32N6xx_HAL_Driver/Inc/stm32n6xx_ll_bus.h ****   *         AHB2ENR      ADF1EN        LL_AHB2_GRP1_IsEnabledClock
1023:../STM32Cube_FW_N6/Drivers/STM32N6xx_HAL_Driver/Inc/stm32n6xx_ll_bus.h ****   * @param  Periphs This parameter can be a combination of the following values:
1024:../STM32Cube_FW_N6/Drivers/STM32N6xx_HAL_Driver/Inc/stm32n6xx_ll_bus.h ****   *         @arg @ref LL_AHB2_GRP1_PERIPH_RAMCFG
1025:../STM32Cube_FW_N6/Drivers/STM32N6xx_HAL_Driver/Inc/stm32n6xx_ll_bus.h ****   *         @arg @ref LL_AHB2_GRP1_PERIPH_MDF1
1026:../STM32Cube_FW_N6/Drivers/STM32N6xx_HAL_Driver/Inc/stm32n6xx_ll_bus.h ****   *         @arg @ref LL_AHB2_GRP1_PERIPH_ADF1
1027:../STM32Cube_FW_N6/Drivers/STM32N6xx_HAL_Driver/Inc/stm32n6xx_ll_bus.h ****   * @retval uint32_t
1028:../STM32Cube_FW_N6/Drivers/STM32N6xx_HAL_Driver/Inc/stm32n6xx_ll_bus.h ****   */
1029:../STM32Cube_FW_N6/Drivers/STM32N6xx_HAL_Driver/Inc/stm32n6xx_ll_bus.h **** __STATIC_INLINE uint32_t LL_AHB2_GRP1_IsEnabledClock(uint32_t Periphs)
1030:../STM32Cube_FW_N6/Drivers/STM32N6xx_HAL_Driver/Inc/stm32n6xx_ll_bus.h **** {
1031:../STM32Cube_FW_N6/Drivers/STM32N6xx_HAL_Driver/Inc/stm32n6xx_ll_bus.h ****   return ((READ_BIT(RCC->AHB2ENR, Periphs) == Periphs) ? 1UL : 0UL);
1032:../STM32Cube_FW_N6/Drivers/STM32N6xx_HAL_Driver/Inc/stm32n6xx_ll_bus.h **** }
1033:../STM32Cube_FW_N6/Drivers/STM32N6xx_HAL_Driver/Inc/stm32n6xx_ll_bus.h **** 
1034:../STM32Cube_FW_N6/Drivers/STM32N6xx_HAL_Driver/Inc/stm32n6xx_ll_bus.h **** /**
1035:../STM32Cube_FW_N6/Drivers/STM32N6xx_HAL_Driver/Inc/stm32n6xx_ll_bus.h ****   * @brief  Disable AHB2 peripherals clock.
1036:../STM32Cube_FW_N6/Drivers/STM32N6xx_HAL_Driver/Inc/stm32n6xx_ll_bus.h ****   * @rmtoll AHB2ENCR     RAMCFGENC     LL_AHB2_GRP1_DisableClock\n
1037:../STM32Cube_FW_N6/Drivers/STM32N6xx_HAL_Driver/Inc/stm32n6xx_ll_bus.h ****   *         AHB2ENCR     MDF1ENC       LL_AHB2_GRP1_DisableClock\n
1038:../STM32Cube_FW_N6/Drivers/STM32N6xx_HAL_Driver/Inc/stm32n6xx_ll_bus.h ****   *         AHB2ENCR     ADF1ENC       LL_AHB2_GRP1_DisableClock
1039:../STM32Cube_FW_N6/Drivers/STM32N6xx_HAL_Driver/Inc/stm32n6xx_ll_bus.h ****   * @param  Periphs This parameter can be a combination of the following values:
1040:../STM32Cube_FW_N6/Drivers/STM32N6xx_HAL_Driver/Inc/stm32n6xx_ll_bus.h ****   *         @arg @ref LL_AHB2_GRP1_PERIPH_RAMCFG
1041:../STM32Cube_FW_N6/Drivers/STM32N6xx_HAL_Driver/Inc/stm32n6xx_ll_bus.h ****   *         @arg @ref LL_AHB2_GRP1_PERIPH_MDF1
1042:../STM32Cube_FW_N6/Drivers/STM32N6xx_HAL_Driver/Inc/stm32n6xx_ll_bus.h ****   *         @arg @ref LL_AHB2_GRP1_PERIPH_ADF1
1043:../STM32Cube_FW_N6/Drivers/STM32N6xx_HAL_Driver/Inc/stm32n6xx_ll_bus.h ****   * @retval None
1044:../STM32Cube_FW_N6/Drivers/STM32N6xx_HAL_Driver/Inc/stm32n6xx_ll_bus.h ****   */
1045:../STM32Cube_FW_N6/Drivers/STM32N6xx_HAL_Driver/Inc/stm32n6xx_ll_bus.h **** __STATIC_INLINE void LL_AHB2_GRP1_DisableClock(uint32_t Periphs)
1046:../STM32Cube_FW_N6/Drivers/STM32N6xx_HAL_Driver/Inc/stm32n6xx_ll_bus.h **** {
1047:../STM32Cube_FW_N6/Drivers/STM32N6xx_HAL_Driver/Inc/stm32n6xx_ll_bus.h ****   WRITE_REG(RCC->AHB2ENCR, Periphs);
1048:../STM32Cube_FW_N6/Drivers/STM32N6xx_HAL_Driver/Inc/stm32n6xx_ll_bus.h **** }
1049:../STM32Cube_FW_N6/Drivers/STM32N6xx_HAL_Driver/Inc/stm32n6xx_ll_bus.h **** 
1050:../STM32Cube_FW_N6/Drivers/STM32N6xx_HAL_Driver/Inc/stm32n6xx_ll_bus.h **** /**
1051:../STM32Cube_FW_N6/Drivers/STM32N6xx_HAL_Driver/Inc/stm32n6xx_ll_bus.h ****   * @brief  Force AHB2 peripherals reset.
1052:../STM32Cube_FW_N6/Drivers/STM32N6xx_HAL_Driver/Inc/stm32n6xx_ll_bus.h ****   * @rmtoll AHB2RSTSR    RAMCFGRSTS     LL_AHB2_GRP1_ForceReset\n
1053:../STM32Cube_FW_N6/Drivers/STM32N6xx_HAL_Driver/Inc/stm32n6xx_ll_bus.h ****   *         AHB2RSTSR    MDF1RSTS       LL_AHB2_GRP1_ForceReset\n
1054:../STM32Cube_FW_N6/Drivers/STM32N6xx_HAL_Driver/Inc/stm32n6xx_ll_bus.h ****   *         AHB2RSTSR    ADF1RSTS       LL_AHB2_GRP1_ForceReset
1055:../STM32Cube_FW_N6/Drivers/STM32N6xx_HAL_Driver/Inc/stm32n6xx_ll_bus.h ****   * @param  Periphs This parameter can be a combination of the following values:
1056:../STM32Cube_FW_N6/Drivers/STM32N6xx_HAL_Driver/Inc/stm32n6xx_ll_bus.h ****   *         @arg @ref LL_AHB2_GRP1_PERIPH_RAMCFG
1057:../STM32Cube_FW_N6/Drivers/STM32N6xx_HAL_Driver/Inc/stm32n6xx_ll_bus.h ****   *         @arg @ref LL_AHB2_GRP1_PERIPH_MDF1
1058:../STM32Cube_FW_N6/Drivers/STM32N6xx_HAL_Driver/Inc/stm32n6xx_ll_bus.h ****   *         @arg @ref LL_AHB2_GRP1_PERIPH_ADF1
1059:../STM32Cube_FW_N6/Drivers/STM32N6xx_HAL_Driver/Inc/stm32n6xx_ll_bus.h ****   * @retval None
1060:../STM32Cube_FW_N6/Drivers/STM32N6xx_HAL_Driver/Inc/stm32n6xx_ll_bus.h ****   */
1061:../STM32Cube_FW_N6/Drivers/STM32N6xx_HAL_Driver/Inc/stm32n6xx_ll_bus.h **** __STATIC_INLINE void LL_AHB2_GRP1_ForceReset(uint32_t Periphs)
1062:../STM32Cube_FW_N6/Drivers/STM32N6xx_HAL_Driver/Inc/stm32n6xx_ll_bus.h **** {
1063:../STM32Cube_FW_N6/Drivers/STM32N6xx_HAL_Driver/Inc/stm32n6xx_ll_bus.h ****   WRITE_REG(RCC->AHB2RSTSR, Periphs);
ARM GAS  /tmp/ccN2N8if.s 			page 56


1064:../STM32Cube_FW_N6/Drivers/STM32N6xx_HAL_Driver/Inc/stm32n6xx_ll_bus.h **** }
1065:../STM32Cube_FW_N6/Drivers/STM32N6xx_HAL_Driver/Inc/stm32n6xx_ll_bus.h **** 
1066:../STM32Cube_FW_N6/Drivers/STM32N6xx_HAL_Driver/Inc/stm32n6xx_ll_bus.h **** /**
1067:../STM32Cube_FW_N6/Drivers/STM32N6xx_HAL_Driver/Inc/stm32n6xx_ll_bus.h ****   * @brief  Release AHB2 peripherals reset.
1068:../STM32Cube_FW_N6/Drivers/STM32N6xx_HAL_Driver/Inc/stm32n6xx_ll_bus.h ****   * @rmtoll AHB2RSTCR     RAMCFGRSTC    LL_AHB2_GRP1_ReleaseReset\n
1069:../STM32Cube_FW_N6/Drivers/STM32N6xx_HAL_Driver/Inc/stm32n6xx_ll_bus.h ****   *         AHB2RSTCR     MDF1RSTC      LL_AHB2_GRP1_ReleaseReset\n
1070:../STM32Cube_FW_N6/Drivers/STM32N6xx_HAL_Driver/Inc/stm32n6xx_ll_bus.h ****   *         AHB2RSTCR     ADF1RSTC      LL_AHB2_GRP1_ReleaseReset
1071:../STM32Cube_FW_N6/Drivers/STM32N6xx_HAL_Driver/Inc/stm32n6xx_ll_bus.h ****   * @param  Periphs This parameter can be a combination of the following values:
1072:../STM32Cube_FW_N6/Drivers/STM32N6xx_HAL_Driver/Inc/stm32n6xx_ll_bus.h ****   *         @arg @ref LL_AHB2_GRP1_PERIPH_RAMCFG
1073:../STM32Cube_FW_N6/Drivers/STM32N6xx_HAL_Driver/Inc/stm32n6xx_ll_bus.h ****   *         @arg @ref LL_AHB2_GRP1_PERIPH_MDF1
1074:../STM32Cube_FW_N6/Drivers/STM32N6xx_HAL_Driver/Inc/stm32n6xx_ll_bus.h ****   *         @arg @ref LL_AHB2_GRP1_PERIPH_ADF1
1075:../STM32Cube_FW_N6/Drivers/STM32N6xx_HAL_Driver/Inc/stm32n6xx_ll_bus.h ****   * @retval None
1076:../STM32Cube_FW_N6/Drivers/STM32N6xx_HAL_Driver/Inc/stm32n6xx_ll_bus.h ****   */
1077:../STM32Cube_FW_N6/Drivers/STM32N6xx_HAL_Driver/Inc/stm32n6xx_ll_bus.h **** __STATIC_INLINE void LL_AHB2_GRP1_ReleaseReset(uint32_t Periphs)
1078:../STM32Cube_FW_N6/Drivers/STM32N6xx_HAL_Driver/Inc/stm32n6xx_ll_bus.h **** {
1079:../STM32Cube_FW_N6/Drivers/STM32N6xx_HAL_Driver/Inc/stm32n6xx_ll_bus.h ****   WRITE_REG(RCC->AHB2RSTCR, Periphs);
1080:../STM32Cube_FW_N6/Drivers/STM32N6xx_HAL_Driver/Inc/stm32n6xx_ll_bus.h **** }
1081:../STM32Cube_FW_N6/Drivers/STM32N6xx_HAL_Driver/Inc/stm32n6xx_ll_bus.h **** 
1082:../STM32Cube_FW_N6/Drivers/STM32N6xx_HAL_Driver/Inc/stm32n6xx_ll_bus.h **** /**
1083:../STM32Cube_FW_N6/Drivers/STM32N6xx_HAL_Driver/Inc/stm32n6xx_ll_bus.h ****   * @brief  Enable AHB2 peripherals clock during Low Power mode.
1084:../STM32Cube_FW_N6/Drivers/STM32N6xx_HAL_Driver/Inc/stm32n6xx_ll_bus.h ****   * @rmtoll AHB2LPENSR   RAMCFGLPENC   LL_AHB2_GRP1_EnableClockLowPower\n
1085:../STM32Cube_FW_N6/Drivers/STM32N6xx_HAL_Driver/Inc/stm32n6xx_ll_bus.h ****   *         AHB2LPENSR   MDF1LPENC     LL_AHB2_GRP1_EnableClockLowPower\n
1086:../STM32Cube_FW_N6/Drivers/STM32N6xx_HAL_Driver/Inc/stm32n6xx_ll_bus.h ****   *         AHB2LPENSR   ADF1LPENC     LL_AHB2_GRP1_EnableClockLowPower
1087:../STM32Cube_FW_N6/Drivers/STM32N6xx_HAL_Driver/Inc/stm32n6xx_ll_bus.h ****   * @param  Periphs This parameter can be a combination of the following values:
1088:../STM32Cube_FW_N6/Drivers/STM32N6xx_HAL_Driver/Inc/stm32n6xx_ll_bus.h ****   *         @arg @ref LL_AHB2_GRP1_PERIPH_RAMCFG
1089:../STM32Cube_FW_N6/Drivers/STM32N6xx_HAL_Driver/Inc/stm32n6xx_ll_bus.h ****   *         @arg @ref LL_AHB2_GRP1_PERIPH_MDF1
1090:../STM32Cube_FW_N6/Drivers/STM32N6xx_HAL_Driver/Inc/stm32n6xx_ll_bus.h ****   *         @arg @ref LL_AHB2_GRP1_PERIPH_ADF1
1091:../STM32Cube_FW_N6/Drivers/STM32N6xx_HAL_Driver/Inc/stm32n6xx_ll_bus.h ****   * @retval None
1092:../STM32Cube_FW_N6/Drivers/STM32N6xx_HAL_Driver/Inc/stm32n6xx_ll_bus.h ****   */
1093:../STM32Cube_FW_N6/Drivers/STM32N6xx_HAL_Driver/Inc/stm32n6xx_ll_bus.h **** __STATIC_INLINE void LL_AHB2_GRP1_EnableClockLowPower(uint32_t Periphs)
1094:../STM32Cube_FW_N6/Drivers/STM32N6xx_HAL_Driver/Inc/stm32n6xx_ll_bus.h **** {
1095:../STM32Cube_FW_N6/Drivers/STM32N6xx_HAL_Driver/Inc/stm32n6xx_ll_bus.h ****   __IO uint32_t tmpreg;
1096:../STM32Cube_FW_N6/Drivers/STM32N6xx_HAL_Driver/Inc/stm32n6xx_ll_bus.h ****   WRITE_REG(RCC->AHB2LPENSR, Periphs);
1097:../STM32Cube_FW_N6/Drivers/STM32N6xx_HAL_Driver/Inc/stm32n6xx_ll_bus.h ****   /* Delay after an RCC peripheral clock enabling */
1098:../STM32Cube_FW_N6/Drivers/STM32N6xx_HAL_Driver/Inc/stm32n6xx_ll_bus.h ****   tmpreg = READ_REG(RCC->AHB2LPENR);
1099:../STM32Cube_FW_N6/Drivers/STM32N6xx_HAL_Driver/Inc/stm32n6xx_ll_bus.h ****   (void)tmpreg;
1100:../STM32Cube_FW_N6/Drivers/STM32N6xx_HAL_Driver/Inc/stm32n6xx_ll_bus.h **** }
1101:../STM32Cube_FW_N6/Drivers/STM32N6xx_HAL_Driver/Inc/stm32n6xx_ll_bus.h **** 
1102:../STM32Cube_FW_N6/Drivers/STM32N6xx_HAL_Driver/Inc/stm32n6xx_ll_bus.h **** /**
1103:../STM32Cube_FW_N6/Drivers/STM32N6xx_HAL_Driver/Inc/stm32n6xx_ll_bus.h ****   * @brief  Check if AHB2 peripheral clock during Low Power mode is enabled or not .
1104:../STM32Cube_FW_N6/Drivers/STM32N6xx_HAL_Driver/Inc/stm32n6xx_ll_bus.h ****   * @rmtoll AHB2LPENR    RAMCFGLPEN    LL_AHB2_GRP1_IsEnabledClockLowPower\n
1105:../STM32Cube_FW_N6/Drivers/STM32N6xx_HAL_Driver/Inc/stm32n6xx_ll_bus.h ****   *         AHB2LPENR    MDF1LPEN      LL_AHB2_GRP1_IsEnabledClockLowPower\n
1106:../STM32Cube_FW_N6/Drivers/STM32N6xx_HAL_Driver/Inc/stm32n6xx_ll_bus.h ****   *         AHB2LPENR    ADF1LPEN      LL_AHB2_GRP1_IsEnabledClockLowPower
1107:../STM32Cube_FW_N6/Drivers/STM32N6xx_HAL_Driver/Inc/stm32n6xx_ll_bus.h ****   * @param  Periphs This parameter can be a combination of the following values:
1108:../STM32Cube_FW_N6/Drivers/STM32N6xx_HAL_Driver/Inc/stm32n6xx_ll_bus.h ****   *         @arg @ref LL_AHB2_GRP1_PERIPH_RAMCFG
1109:../STM32Cube_FW_N6/Drivers/STM32N6xx_HAL_Driver/Inc/stm32n6xx_ll_bus.h ****   *         @arg @ref LL_AHB2_GRP1_PERIPH_MDF1
1110:../STM32Cube_FW_N6/Drivers/STM32N6xx_HAL_Driver/Inc/stm32n6xx_ll_bus.h ****   *         @arg @ref LL_AHB2_GRP1_PERIPH_ADF1
1111:../STM32Cube_FW_N6/Drivers/STM32N6xx_HAL_Driver/Inc/stm32n6xx_ll_bus.h ****   * @retval uint32_t
1112:../STM32Cube_FW_N6/Drivers/STM32N6xx_HAL_Driver/Inc/stm32n6xx_ll_bus.h ****   */
1113:../STM32Cube_FW_N6/Drivers/STM32N6xx_HAL_Driver/Inc/stm32n6xx_ll_bus.h **** __STATIC_INLINE uint32_t LL_AHB2_GRP1_IsEnabledClockLowPower(uint32_t Periphs)
1114:../STM32Cube_FW_N6/Drivers/STM32N6xx_HAL_Driver/Inc/stm32n6xx_ll_bus.h **** {
1115:../STM32Cube_FW_N6/Drivers/STM32N6xx_HAL_Driver/Inc/stm32n6xx_ll_bus.h ****   return ((READ_BIT(RCC->AHB2LPENR, Periphs) == Periphs) ? 1UL : 0UL);
1116:../STM32Cube_FW_N6/Drivers/STM32N6xx_HAL_Driver/Inc/stm32n6xx_ll_bus.h **** }
1117:../STM32Cube_FW_N6/Drivers/STM32N6xx_HAL_Driver/Inc/stm32n6xx_ll_bus.h **** 
1118:../STM32Cube_FW_N6/Drivers/STM32N6xx_HAL_Driver/Inc/stm32n6xx_ll_bus.h **** /**
1119:../STM32Cube_FW_N6/Drivers/STM32N6xx_HAL_Driver/Inc/stm32n6xx_ll_bus.h ****   * @brief  Disable AHB2 peripherals clock during Low Power mode.
1120:../STM32Cube_FW_N6/Drivers/STM32N6xx_HAL_Driver/Inc/stm32n6xx_ll_bus.h ****   * @rmtoll AHB2LPENCR   RAMCFGLPENC   LL_AHB2_GRP1_DisableClockLowPower\n
ARM GAS  /tmp/ccN2N8if.s 			page 57


1121:../STM32Cube_FW_N6/Drivers/STM32N6xx_HAL_Driver/Inc/stm32n6xx_ll_bus.h ****   *         AHB2LPENCR   MDF1LPENC     LL_AHB2_GRP1_DisableClockLowPower\n
1122:../STM32Cube_FW_N6/Drivers/STM32N6xx_HAL_Driver/Inc/stm32n6xx_ll_bus.h ****   *         AHB2LPENCR   ADF1LPENC     LL_AHB2_GRP1_DisableClockLowPower
1123:../STM32Cube_FW_N6/Drivers/STM32N6xx_HAL_Driver/Inc/stm32n6xx_ll_bus.h ****   * @param  Periphs This parameter can be a combination of the following values:
1124:../STM32Cube_FW_N6/Drivers/STM32N6xx_HAL_Driver/Inc/stm32n6xx_ll_bus.h ****   *         @arg @ref LL_AHB2_GRP1_PERIPH_RAMCFG
1125:../STM32Cube_FW_N6/Drivers/STM32N6xx_HAL_Driver/Inc/stm32n6xx_ll_bus.h ****   *         @arg @ref LL_AHB2_GRP1_PERIPH_MDF1
1126:../STM32Cube_FW_N6/Drivers/STM32N6xx_HAL_Driver/Inc/stm32n6xx_ll_bus.h ****   *         @arg @ref LL_AHB2_GRP1_PERIPH_ADF1
1127:../STM32Cube_FW_N6/Drivers/STM32N6xx_HAL_Driver/Inc/stm32n6xx_ll_bus.h ****   * @retval None
1128:../STM32Cube_FW_N6/Drivers/STM32N6xx_HAL_Driver/Inc/stm32n6xx_ll_bus.h ****   */
1129:../STM32Cube_FW_N6/Drivers/STM32N6xx_HAL_Driver/Inc/stm32n6xx_ll_bus.h **** __STATIC_INLINE void LL_AHB2_GRP1_DisableClockLowPower(uint32_t Periphs)
1130:../STM32Cube_FW_N6/Drivers/STM32N6xx_HAL_Driver/Inc/stm32n6xx_ll_bus.h **** {
1131:../STM32Cube_FW_N6/Drivers/STM32N6xx_HAL_Driver/Inc/stm32n6xx_ll_bus.h ****   WRITE_REG(RCC->AHB2LPENCR, Periphs);
1132:../STM32Cube_FW_N6/Drivers/STM32N6xx_HAL_Driver/Inc/stm32n6xx_ll_bus.h **** }
1133:../STM32Cube_FW_N6/Drivers/STM32N6xx_HAL_Driver/Inc/stm32n6xx_ll_bus.h **** 
1134:../STM32Cube_FW_N6/Drivers/STM32N6xx_HAL_Driver/Inc/stm32n6xx_ll_bus.h **** /**
1135:../STM32Cube_FW_N6/Drivers/STM32N6xx_HAL_Driver/Inc/stm32n6xx_ll_bus.h ****   * @}
1136:../STM32Cube_FW_N6/Drivers/STM32N6xx_HAL_Driver/Inc/stm32n6xx_ll_bus.h ****   */
1137:../STM32Cube_FW_N6/Drivers/STM32N6xx_HAL_Driver/Inc/stm32n6xx_ll_bus.h **** 
1138:../STM32Cube_FW_N6/Drivers/STM32N6xx_HAL_Driver/Inc/stm32n6xx_ll_bus.h **** /** @defgroup BUS_LL_EF_AHB3 AHB3
1139:../STM32Cube_FW_N6/Drivers/STM32N6xx_HAL_Driver/Inc/stm32n6xx_ll_bus.h ****   * @{
1140:../STM32Cube_FW_N6/Drivers/STM32N6xx_HAL_Driver/Inc/stm32n6xx_ll_bus.h ****   */
1141:../STM32Cube_FW_N6/Drivers/STM32N6xx_HAL_Driver/Inc/stm32n6xx_ll_bus.h **** 
1142:../STM32Cube_FW_N6/Drivers/STM32N6xx_HAL_Driver/Inc/stm32n6xx_ll_bus.h **** /**
1143:../STM32Cube_FW_N6/Drivers/STM32N6xx_HAL_Driver/Inc/stm32n6xx_ll_bus.h ****   * @brief  Enable AHB3 peripherals clock.
1144:../STM32Cube_FW_N6/Drivers/STM32N6xx_HAL_Driver/Inc/stm32n6xx_ll_bus.h ****   * @rmtoll AHB3ENSR     RNGENS        LL_AHB3_GRP1_EnableClock\n
1145:../STM32Cube_FW_N6/Drivers/STM32N6xx_HAL_Driver/Inc/stm32n6xx_ll_bus.h ****   *         AHB3ENSR     HASHENS       LL_AHB3_GRP1_EnableClock\n
1146:../STM32Cube_FW_N6/Drivers/STM32N6xx_HAL_Driver/Inc/stm32n6xx_ll_bus.h ****   *         AHB3ENSR     CRYPENS       LL_AHB3_GRP1_EnableClock\n  (*)
1147:../STM32Cube_FW_N6/Drivers/STM32N6xx_HAL_Driver/Inc/stm32n6xx_ll_bus.h ****   *         AHB3ENSR     SAESENS       LL_AHB3_GRP1_EnableClock\n  (*)
1148:../STM32Cube_FW_N6/Drivers/STM32N6xx_HAL_Driver/Inc/stm32n6xx_ll_bus.h ****   *         AHB3ENSR     PKAENS        LL_AHB3_GRP1_EnableClock\n
1149:../STM32Cube_FW_N6/Drivers/STM32N6xx_HAL_Driver/Inc/stm32n6xx_ll_bus.h ****   *         AHB3ENSR     RIFSCENS      LL_AHB3_GRP1_EnableClock\n
1150:../STM32Cube_FW_N6/Drivers/STM32N6xx_HAL_Driver/Inc/stm32n6xx_ll_bus.h ****   *         AHB3ENSR     RISAFENS      LL_AHB3_GRP1_EnableClock\n
1151:../STM32Cube_FW_N6/Drivers/STM32N6xx_HAL_Driver/Inc/stm32n6xx_ll_bus.h ****   *         AHB3ENSR     IACENS        LL_AHB3_GRP1_EnableClock
1152:../STM32Cube_FW_N6/Drivers/STM32N6xx_HAL_Driver/Inc/stm32n6xx_ll_bus.h ****   * @param  Periphs This parameter can be a combination of the following values:
1153:../STM32Cube_FW_N6/Drivers/STM32N6xx_HAL_Driver/Inc/stm32n6xx_ll_bus.h ****   *         @arg @ref LL_AHB3_GRP1_PERIPH_RNG
1154:../STM32Cube_FW_N6/Drivers/STM32N6xx_HAL_Driver/Inc/stm32n6xx_ll_bus.h ****   *         @arg @ref LL_AHB3_GRP1_PERIPH_HASH
1155:../STM32Cube_FW_N6/Drivers/STM32N6xx_HAL_Driver/Inc/stm32n6xx_ll_bus.h ****   *         @arg @ref LL_AHB3_GRP1_PERIPH_CRYP (*)
1156:../STM32Cube_FW_N6/Drivers/STM32N6xx_HAL_Driver/Inc/stm32n6xx_ll_bus.h ****   *         @arg @ref LL_AHB3_GRP1_PERIPH_SAES (*)
1157:../STM32Cube_FW_N6/Drivers/STM32N6xx_HAL_Driver/Inc/stm32n6xx_ll_bus.h ****   *         @arg @ref LL_AHB3_GRP1_PERIPH_PKA
1158:../STM32Cube_FW_N6/Drivers/STM32N6xx_HAL_Driver/Inc/stm32n6xx_ll_bus.h ****   *         @arg @ref LL_AHB3_GRP1_PERIPH_RIFSC
1159:../STM32Cube_FW_N6/Drivers/STM32N6xx_HAL_Driver/Inc/stm32n6xx_ll_bus.h ****   *         @arg @ref LL_AHB3_GRP1_PERIPH_RISAF
1160:../STM32Cube_FW_N6/Drivers/STM32N6xx_HAL_Driver/Inc/stm32n6xx_ll_bus.h ****   *         @arg @ref LL_AHB3_GRP1_PERIPH_IAC
1161:../STM32Cube_FW_N6/Drivers/STM32N6xx_HAL_Driver/Inc/stm32n6xx_ll_bus.h ****   *
1162:../STM32Cube_FW_N6/Drivers/STM32N6xx_HAL_Driver/Inc/stm32n6xx_ll_bus.h ****   *         (*) value not defined in all devices.
1163:../STM32Cube_FW_N6/Drivers/STM32N6xx_HAL_Driver/Inc/stm32n6xx_ll_bus.h ****   * @retval None
1164:../STM32Cube_FW_N6/Drivers/STM32N6xx_HAL_Driver/Inc/stm32n6xx_ll_bus.h ****   */
1165:../STM32Cube_FW_N6/Drivers/STM32N6xx_HAL_Driver/Inc/stm32n6xx_ll_bus.h **** __STATIC_INLINE void LL_AHB3_GRP1_EnableClock(uint32_t Periphs)
1166:../STM32Cube_FW_N6/Drivers/STM32N6xx_HAL_Driver/Inc/stm32n6xx_ll_bus.h **** {
1167:../STM32Cube_FW_N6/Drivers/STM32N6xx_HAL_Driver/Inc/stm32n6xx_ll_bus.h ****   __IO uint32_t tmpreg;
1168:../STM32Cube_FW_N6/Drivers/STM32N6xx_HAL_Driver/Inc/stm32n6xx_ll_bus.h ****   WRITE_REG(RCC->AHB3ENSR, Periphs);
1169:../STM32Cube_FW_N6/Drivers/STM32N6xx_HAL_Driver/Inc/stm32n6xx_ll_bus.h ****   /* Delay after an RCC peripheral clock enabling */
1170:../STM32Cube_FW_N6/Drivers/STM32N6xx_HAL_Driver/Inc/stm32n6xx_ll_bus.h ****   tmpreg = READ_REG(RCC->AHB3ENR);
1171:../STM32Cube_FW_N6/Drivers/STM32N6xx_HAL_Driver/Inc/stm32n6xx_ll_bus.h ****   (void)tmpreg;
1172:../STM32Cube_FW_N6/Drivers/STM32N6xx_HAL_Driver/Inc/stm32n6xx_ll_bus.h **** }
1173:../STM32Cube_FW_N6/Drivers/STM32N6xx_HAL_Driver/Inc/stm32n6xx_ll_bus.h **** 
1174:../STM32Cube_FW_N6/Drivers/STM32N6xx_HAL_Driver/Inc/stm32n6xx_ll_bus.h **** /**
1175:../STM32Cube_FW_N6/Drivers/STM32N6xx_HAL_Driver/Inc/stm32n6xx_ll_bus.h ****   * @brief  Check if AHB3 peripheral clock is enabled or not
1176:../STM32Cube_FW_N6/Drivers/STM32N6xx_HAL_Driver/Inc/stm32n6xx_ll_bus.h ****   * @rmtoll AHB3ENR      RNGEN         LL_AHB3_GRP1_IsEnabledClock\n
1177:../STM32Cube_FW_N6/Drivers/STM32N6xx_HAL_Driver/Inc/stm32n6xx_ll_bus.h ****   *         AHB3ENR      HASHEN        LL_AHB3_GRP1_IsEnabledClock\n
ARM GAS  /tmp/ccN2N8if.s 			page 58


1178:../STM32Cube_FW_N6/Drivers/STM32N6xx_HAL_Driver/Inc/stm32n6xx_ll_bus.h ****   *         AHB3ENR      CRYPEN        LL_AHB3_GRP1_IsEnabledClock\n  (*)
1179:../STM32Cube_FW_N6/Drivers/STM32N6xx_HAL_Driver/Inc/stm32n6xx_ll_bus.h ****   *         AHB3ENR      SAESEN        LL_AHB3_GRP1_IsEnabledClock\n  (*)
1180:../STM32Cube_FW_N6/Drivers/STM32N6xx_HAL_Driver/Inc/stm32n6xx_ll_bus.h ****   *         AHB3ENR      PKAEN         LL_AHB3_GRP1_IsEnabledClock\n
1181:../STM32Cube_FW_N6/Drivers/STM32N6xx_HAL_Driver/Inc/stm32n6xx_ll_bus.h ****   *         AHB3ENR      RIFSCEN       LL_AHB3_GRP1_IsEnabledClock\n
1182:../STM32Cube_FW_N6/Drivers/STM32N6xx_HAL_Driver/Inc/stm32n6xx_ll_bus.h ****   *         AHB3ENR      RISAFEN       LL_AHB3_GRP1_IsEnabledClock\n
1183:../STM32Cube_FW_N6/Drivers/STM32N6xx_HAL_Driver/Inc/stm32n6xx_ll_bus.h ****   *         AHB3ENR      IACEN         LL_AHB3_GRP1_IsEnabledClock
1184:../STM32Cube_FW_N6/Drivers/STM32N6xx_HAL_Driver/Inc/stm32n6xx_ll_bus.h ****   * @param  Periphs This parameter can be a combination of the following values:
1185:../STM32Cube_FW_N6/Drivers/STM32N6xx_HAL_Driver/Inc/stm32n6xx_ll_bus.h ****   *         @arg @ref LL_AHB3_GRP1_PERIPH_RNG
1186:../STM32Cube_FW_N6/Drivers/STM32N6xx_HAL_Driver/Inc/stm32n6xx_ll_bus.h ****   *         @arg @ref LL_AHB3_GRP1_PERIPH_HASH
1187:../STM32Cube_FW_N6/Drivers/STM32N6xx_HAL_Driver/Inc/stm32n6xx_ll_bus.h ****   *         @arg @ref LL_AHB3_GRP1_PERIPH_CRYP (*)
1188:../STM32Cube_FW_N6/Drivers/STM32N6xx_HAL_Driver/Inc/stm32n6xx_ll_bus.h ****   *         @arg @ref LL_AHB3_GRP1_PERIPH_SAES (*)
1189:../STM32Cube_FW_N6/Drivers/STM32N6xx_HAL_Driver/Inc/stm32n6xx_ll_bus.h ****   *         @arg @ref LL_AHB3_GRP1_PERIPH_PKA
1190:../STM32Cube_FW_N6/Drivers/STM32N6xx_HAL_Driver/Inc/stm32n6xx_ll_bus.h ****   *         @arg @ref LL_AHB3_GRP1_PERIPH_RIFSC
1191:../STM32Cube_FW_N6/Drivers/STM32N6xx_HAL_Driver/Inc/stm32n6xx_ll_bus.h ****   *         @arg @ref LL_AHB3_GRP1_PERIPH_RISAF
1192:../STM32Cube_FW_N6/Drivers/STM32N6xx_HAL_Driver/Inc/stm32n6xx_ll_bus.h ****   *         @arg @ref LL_AHB3_GRP1_PERIPH_IAC
1193:../STM32Cube_FW_N6/Drivers/STM32N6xx_HAL_Driver/Inc/stm32n6xx_ll_bus.h ****   *
1194:../STM32Cube_FW_N6/Drivers/STM32N6xx_HAL_Driver/Inc/stm32n6xx_ll_bus.h ****   *         (*) value not defined in all devices.
1195:../STM32Cube_FW_N6/Drivers/STM32N6xx_HAL_Driver/Inc/stm32n6xx_ll_bus.h ****   * @retval uint32_t
1196:../STM32Cube_FW_N6/Drivers/STM32N6xx_HAL_Driver/Inc/stm32n6xx_ll_bus.h ****   */
1197:../STM32Cube_FW_N6/Drivers/STM32N6xx_HAL_Driver/Inc/stm32n6xx_ll_bus.h **** __STATIC_INLINE uint32_t LL_AHB3_GRP1_IsEnabledClock(uint32_t Periphs)
1198:../STM32Cube_FW_N6/Drivers/STM32N6xx_HAL_Driver/Inc/stm32n6xx_ll_bus.h **** {
1199:../STM32Cube_FW_N6/Drivers/STM32N6xx_HAL_Driver/Inc/stm32n6xx_ll_bus.h ****   return ((READ_BIT(RCC->AHB3ENR, Periphs) == Periphs) ? 1UL : 0UL);
1200:../STM32Cube_FW_N6/Drivers/STM32N6xx_HAL_Driver/Inc/stm32n6xx_ll_bus.h **** }
1201:../STM32Cube_FW_N6/Drivers/STM32N6xx_HAL_Driver/Inc/stm32n6xx_ll_bus.h **** 
1202:../STM32Cube_FW_N6/Drivers/STM32N6xx_HAL_Driver/Inc/stm32n6xx_ll_bus.h **** /**
1203:../STM32Cube_FW_N6/Drivers/STM32N6xx_HAL_Driver/Inc/stm32n6xx_ll_bus.h ****   * @brief  Disable AHB3 peripherals clock.
1204:../STM32Cube_FW_N6/Drivers/STM32N6xx_HAL_Driver/Inc/stm32n6xx_ll_bus.h ****   * @rmtoll AHB3ENCR     RNGENC        LL_AHB3_GRP1_DisableClock\n
1205:../STM32Cube_FW_N6/Drivers/STM32N6xx_HAL_Driver/Inc/stm32n6xx_ll_bus.h ****   *         AHB3ENCR     HASHENC       LL_AHB3_GRP1_DisableClock\n
1206:../STM32Cube_FW_N6/Drivers/STM32N6xx_HAL_Driver/Inc/stm32n6xx_ll_bus.h ****   *         AHB3ENCR     CRYPENC       LL_AHB3_GRP1_DisableClock\n  (*)
1207:../STM32Cube_FW_N6/Drivers/STM32N6xx_HAL_Driver/Inc/stm32n6xx_ll_bus.h ****   *         AHB3ENCR     SAESENC       LL_AHB3_GRP1_DisableClock\n  (*)
1208:../STM32Cube_FW_N6/Drivers/STM32N6xx_HAL_Driver/Inc/stm32n6xx_ll_bus.h ****   *         AHB3ENCR     PKAENC        LL_AHB3_GRP1_DisableClock\n
1209:../STM32Cube_FW_N6/Drivers/STM32N6xx_HAL_Driver/Inc/stm32n6xx_ll_bus.h ****   *         AHB3ENCR     RIFSCENC      LL_AHB3_GRP1_DisableClock\n
1210:../STM32Cube_FW_N6/Drivers/STM32N6xx_HAL_Driver/Inc/stm32n6xx_ll_bus.h ****   *         AHB3ENCR     RISAFENC      LL_AHB3_GRP1_DisableClock\n
1211:../STM32Cube_FW_N6/Drivers/STM32N6xx_HAL_Driver/Inc/stm32n6xx_ll_bus.h ****   *         AHB3ENCR     IACENC        LL_AHB3_GRP1_DisableClock
1212:../STM32Cube_FW_N6/Drivers/STM32N6xx_HAL_Driver/Inc/stm32n6xx_ll_bus.h ****   * @param  Periphs This parameter can be a combination of the following values:
1213:../STM32Cube_FW_N6/Drivers/STM32N6xx_HAL_Driver/Inc/stm32n6xx_ll_bus.h ****   *         @arg @ref LL_AHB3_GRP1_PERIPH_RNG
1214:../STM32Cube_FW_N6/Drivers/STM32N6xx_HAL_Driver/Inc/stm32n6xx_ll_bus.h ****   *         @arg @ref LL_AHB3_GRP1_PERIPH_HASH
1215:../STM32Cube_FW_N6/Drivers/STM32N6xx_HAL_Driver/Inc/stm32n6xx_ll_bus.h ****   *         @arg @ref LL_AHB3_GRP1_PERIPH_CRYP (*)
1216:../STM32Cube_FW_N6/Drivers/STM32N6xx_HAL_Driver/Inc/stm32n6xx_ll_bus.h ****   *         @arg @ref LL_AHB3_GRP1_PERIPH_SAES (*)
1217:../STM32Cube_FW_N6/Drivers/STM32N6xx_HAL_Driver/Inc/stm32n6xx_ll_bus.h ****   *         @arg @ref LL_AHB3_GRP1_PERIPH_PKA
1218:../STM32Cube_FW_N6/Drivers/STM32N6xx_HAL_Driver/Inc/stm32n6xx_ll_bus.h ****   *         @arg @ref LL_AHB3_GRP1_PERIPH_RIFSC
1219:../STM32Cube_FW_N6/Drivers/STM32N6xx_HAL_Driver/Inc/stm32n6xx_ll_bus.h ****   *         @arg @ref LL_AHB3_GRP1_PERIPH_RISAF
1220:../STM32Cube_FW_N6/Drivers/STM32N6xx_HAL_Driver/Inc/stm32n6xx_ll_bus.h ****   *         @arg @ref LL_AHB3_GRP1_PERIPH_IAC
1221:../STM32Cube_FW_N6/Drivers/STM32N6xx_HAL_Driver/Inc/stm32n6xx_ll_bus.h ****   *
1222:../STM32Cube_FW_N6/Drivers/STM32N6xx_HAL_Driver/Inc/stm32n6xx_ll_bus.h ****   *         (*) value not defined in all devices.
1223:../STM32Cube_FW_N6/Drivers/STM32N6xx_HAL_Driver/Inc/stm32n6xx_ll_bus.h ****   * @retval None
1224:../STM32Cube_FW_N6/Drivers/STM32N6xx_HAL_Driver/Inc/stm32n6xx_ll_bus.h ****   */
1225:../STM32Cube_FW_N6/Drivers/STM32N6xx_HAL_Driver/Inc/stm32n6xx_ll_bus.h **** __STATIC_INLINE void LL_AHB3_GRP1_DisableClock(uint32_t Periphs)
1226:../STM32Cube_FW_N6/Drivers/STM32N6xx_HAL_Driver/Inc/stm32n6xx_ll_bus.h **** {
1227:../STM32Cube_FW_N6/Drivers/STM32N6xx_HAL_Driver/Inc/stm32n6xx_ll_bus.h ****   WRITE_REG(RCC->AHB3ENCR, Periphs);
1228:../STM32Cube_FW_N6/Drivers/STM32N6xx_HAL_Driver/Inc/stm32n6xx_ll_bus.h **** }
1229:../STM32Cube_FW_N6/Drivers/STM32N6xx_HAL_Driver/Inc/stm32n6xx_ll_bus.h **** 
1230:../STM32Cube_FW_N6/Drivers/STM32N6xx_HAL_Driver/Inc/stm32n6xx_ll_bus.h **** /**
1231:../STM32Cube_FW_N6/Drivers/STM32N6xx_HAL_Driver/Inc/stm32n6xx_ll_bus.h ****   * @brief  Force AHB3 peripherals reset.
1232:../STM32Cube_FW_N6/Drivers/STM32N6xx_HAL_Driver/Inc/stm32n6xx_ll_bus.h ****   * @rmtoll AHB3RSTSR    RNGRSTS       LL_AHB3_GRP1_ForceReset\n
1233:../STM32Cube_FW_N6/Drivers/STM32N6xx_HAL_Driver/Inc/stm32n6xx_ll_bus.h ****   *         AHB3RSTSR    HASHRSTS      LL_AHB3_GRP1_ForceReset\n
1234:../STM32Cube_FW_N6/Drivers/STM32N6xx_HAL_Driver/Inc/stm32n6xx_ll_bus.h ****   *         AHB3RSTSR    CRYPRSTS      LL_AHB3_GRP1_ForceReset\n  (*)
ARM GAS  /tmp/ccN2N8if.s 			page 59


1235:../STM32Cube_FW_N6/Drivers/STM32N6xx_HAL_Driver/Inc/stm32n6xx_ll_bus.h ****   *         AHB3RSTSR    SAESRSTS      LL_AHB3_GRP1_ForceReset\n  (*)
1236:../STM32Cube_FW_N6/Drivers/STM32N6xx_HAL_Driver/Inc/stm32n6xx_ll_bus.h ****   *         AHB3RSTSR    PKARSTS       LL_AHB3_GRP1_ForceReset\n
1237:../STM32Cube_FW_N6/Drivers/STM32N6xx_HAL_Driver/Inc/stm32n6xx_ll_bus.h ****   *         AHB3RSTSR    IACRSTS       LL_AHB3_GRP1_ForceReset
1238:../STM32Cube_FW_N6/Drivers/STM32N6xx_HAL_Driver/Inc/stm32n6xx_ll_bus.h ****   * @param  Periphs This parameter can be a combination of the following values:
1239:../STM32Cube_FW_N6/Drivers/STM32N6xx_HAL_Driver/Inc/stm32n6xx_ll_bus.h ****   *         @arg @ref LL_AHB3_GRP1_PERIPH_RNG
1240:../STM32Cube_FW_N6/Drivers/STM32N6xx_HAL_Driver/Inc/stm32n6xx_ll_bus.h ****   *         @arg @ref LL_AHB3_GRP1_PERIPH_HASH
1241:../STM32Cube_FW_N6/Drivers/STM32N6xx_HAL_Driver/Inc/stm32n6xx_ll_bus.h ****   *         @arg @ref LL_AHB3_GRP1_PERIPH_CRYP (*)
1242:../STM32Cube_FW_N6/Drivers/STM32N6xx_HAL_Driver/Inc/stm32n6xx_ll_bus.h ****   *         @arg @ref LL_AHB3_GRP1_PERIPH_SAES (*)
1243:../STM32Cube_FW_N6/Drivers/STM32N6xx_HAL_Driver/Inc/stm32n6xx_ll_bus.h ****   *         @arg @ref LL_AHB3_GRP1_PERIPH_PKA
1244:../STM32Cube_FW_N6/Drivers/STM32N6xx_HAL_Driver/Inc/stm32n6xx_ll_bus.h ****   *         @arg @ref LL_AHB3_GRP1_PERIPH_IAC
1245:../STM32Cube_FW_N6/Drivers/STM32N6xx_HAL_Driver/Inc/stm32n6xx_ll_bus.h ****   *
1246:../STM32Cube_FW_N6/Drivers/STM32N6xx_HAL_Driver/Inc/stm32n6xx_ll_bus.h ****   *         (*) value not defined in all devices.
1247:../STM32Cube_FW_N6/Drivers/STM32N6xx_HAL_Driver/Inc/stm32n6xx_ll_bus.h ****   * @retval None
1248:../STM32Cube_FW_N6/Drivers/STM32N6xx_HAL_Driver/Inc/stm32n6xx_ll_bus.h ****   */
1249:../STM32Cube_FW_N6/Drivers/STM32N6xx_HAL_Driver/Inc/stm32n6xx_ll_bus.h **** __STATIC_INLINE void LL_AHB3_GRP1_ForceReset(uint32_t Periphs)
1250:../STM32Cube_FW_N6/Drivers/STM32N6xx_HAL_Driver/Inc/stm32n6xx_ll_bus.h **** {
1251:../STM32Cube_FW_N6/Drivers/STM32N6xx_HAL_Driver/Inc/stm32n6xx_ll_bus.h ****   WRITE_REG(RCC->AHB3RSTSR, Periphs);
1252:../STM32Cube_FW_N6/Drivers/STM32N6xx_HAL_Driver/Inc/stm32n6xx_ll_bus.h **** }
1253:../STM32Cube_FW_N6/Drivers/STM32N6xx_HAL_Driver/Inc/stm32n6xx_ll_bus.h **** 
1254:../STM32Cube_FW_N6/Drivers/STM32N6xx_HAL_Driver/Inc/stm32n6xx_ll_bus.h **** /**
1255:../STM32Cube_FW_N6/Drivers/STM32N6xx_HAL_Driver/Inc/stm32n6xx_ll_bus.h ****   * @brief  Release AHB3 peripherals reset.
1256:../STM32Cube_FW_N6/Drivers/STM32N6xx_HAL_Driver/Inc/stm32n6xx_ll_bus.h ****   * @rmtoll AHB3RSTCR    RNGRSTC       LL_AHB3_GRP1_ReleaseReset\n
1257:../STM32Cube_FW_N6/Drivers/STM32N6xx_HAL_Driver/Inc/stm32n6xx_ll_bus.h ****   *         AHB3RSTCR    HASHRSTC      LL_AHB3_GRP1_ReleaseReset\n
1258:../STM32Cube_FW_N6/Drivers/STM32N6xx_HAL_Driver/Inc/stm32n6xx_ll_bus.h ****   *         AHB3RSTCR    CRYPRSTC      LL_AHB3_GRP1_ReleaseReset\n  (*)
1259:../STM32Cube_FW_N6/Drivers/STM32N6xx_HAL_Driver/Inc/stm32n6xx_ll_bus.h ****   *         AHB3RSTCR    SAESRSTC      LL_AHB3_GRP1_ReleaseReset\n  (*)
1260:../STM32Cube_FW_N6/Drivers/STM32N6xx_HAL_Driver/Inc/stm32n6xx_ll_bus.h ****   *         AHB3RSTCR    PKARSTC       LL_AHB3_GRP1_ReleaseReset\n
1261:../STM32Cube_FW_N6/Drivers/STM32N6xx_HAL_Driver/Inc/stm32n6xx_ll_bus.h ****   *         AHB3RSTCR    IACRSTC       LL_AHB3_GRP1_ReleaseReset
1262:../STM32Cube_FW_N6/Drivers/STM32N6xx_HAL_Driver/Inc/stm32n6xx_ll_bus.h ****   * @param  Periphs This parameter can be a combination of the following values:
1263:../STM32Cube_FW_N6/Drivers/STM32N6xx_HAL_Driver/Inc/stm32n6xx_ll_bus.h ****   *         @arg @ref LL_AHB3_GRP1_PERIPH_RNG
1264:../STM32Cube_FW_N6/Drivers/STM32N6xx_HAL_Driver/Inc/stm32n6xx_ll_bus.h ****   *         @arg @ref LL_AHB3_GRP1_PERIPH_HASH
1265:../STM32Cube_FW_N6/Drivers/STM32N6xx_HAL_Driver/Inc/stm32n6xx_ll_bus.h ****   *         @arg @ref LL_AHB3_GRP1_PERIPH_CRYP (*)
1266:../STM32Cube_FW_N6/Drivers/STM32N6xx_HAL_Driver/Inc/stm32n6xx_ll_bus.h ****   *         @arg @ref LL_AHB3_GRP1_PERIPH_SAES (*)
1267:../STM32Cube_FW_N6/Drivers/STM32N6xx_HAL_Driver/Inc/stm32n6xx_ll_bus.h ****   *         @arg @ref LL_AHB3_GRP1_PERIPH_PKA
1268:../STM32Cube_FW_N6/Drivers/STM32N6xx_HAL_Driver/Inc/stm32n6xx_ll_bus.h ****   *         @arg @ref LL_AHB3_GRP1_PERIPH_IAC
1269:../STM32Cube_FW_N6/Drivers/STM32N6xx_HAL_Driver/Inc/stm32n6xx_ll_bus.h ****   *
1270:../STM32Cube_FW_N6/Drivers/STM32N6xx_HAL_Driver/Inc/stm32n6xx_ll_bus.h ****   *         (*) value not defined in all devices.
1271:../STM32Cube_FW_N6/Drivers/STM32N6xx_HAL_Driver/Inc/stm32n6xx_ll_bus.h ****   * @retval None
1272:../STM32Cube_FW_N6/Drivers/STM32N6xx_HAL_Driver/Inc/stm32n6xx_ll_bus.h ****   */
1273:../STM32Cube_FW_N6/Drivers/STM32N6xx_HAL_Driver/Inc/stm32n6xx_ll_bus.h **** __STATIC_INLINE void LL_AHB3_GRP1_ReleaseReset(uint32_t Periphs)
1274:../STM32Cube_FW_N6/Drivers/STM32N6xx_HAL_Driver/Inc/stm32n6xx_ll_bus.h **** {
1275:../STM32Cube_FW_N6/Drivers/STM32N6xx_HAL_Driver/Inc/stm32n6xx_ll_bus.h ****   WRITE_REG(RCC->AHB3RSTCR, Periphs);
1276:../STM32Cube_FW_N6/Drivers/STM32N6xx_HAL_Driver/Inc/stm32n6xx_ll_bus.h **** }
1277:../STM32Cube_FW_N6/Drivers/STM32N6xx_HAL_Driver/Inc/stm32n6xx_ll_bus.h **** 
1278:../STM32Cube_FW_N6/Drivers/STM32N6xx_HAL_Driver/Inc/stm32n6xx_ll_bus.h **** /**
1279:../STM32Cube_FW_N6/Drivers/STM32N6xx_HAL_Driver/Inc/stm32n6xx_ll_bus.h ****   * @brief  Enable AHB3 peripherals clock during Low Power mode.
1280:../STM32Cube_FW_N6/Drivers/STM32N6xx_HAL_Driver/Inc/stm32n6xx_ll_bus.h ****   * @rmtoll AHB3LPENSR   RNGLPENS      LL_AHB3_GRP1_EnableClockLowPower\n
1281:../STM32Cube_FW_N6/Drivers/STM32N6xx_HAL_Driver/Inc/stm32n6xx_ll_bus.h ****   *         AHB3LPENSR   HASHLPENS     LL_AHB3_GRP1_EnableClockLowPower\n
1282:../STM32Cube_FW_N6/Drivers/STM32N6xx_HAL_Driver/Inc/stm32n6xx_ll_bus.h ****   *         AHB3LPENSR   CRYPLPENS     LL_AHB3_GRP1_EnableClockLowPower\n  (*)
1283:../STM32Cube_FW_N6/Drivers/STM32N6xx_HAL_Driver/Inc/stm32n6xx_ll_bus.h ****   *         AHB3LPENSR   SAESLPENS     LL_AHB3_GRP1_EnableClockLowPower\n  (*)
1284:../STM32Cube_FW_N6/Drivers/STM32N6xx_HAL_Driver/Inc/stm32n6xx_ll_bus.h ****   *         AHB3LPENSR   PKALPENS      LL_AHB3_GRP1_EnableClockLowPower\n
1285:../STM32Cube_FW_N6/Drivers/STM32N6xx_HAL_Driver/Inc/stm32n6xx_ll_bus.h ****   *         AHB3LPENSR   RIFSCLPENS    LL_AHB3_GRP1_EnableClockLowPower\n
1286:../STM32Cube_FW_N6/Drivers/STM32N6xx_HAL_Driver/Inc/stm32n6xx_ll_bus.h ****   *         AHB3LPENSR   RISAFLPENS    LL_AHB3_GRP1_EnableClockLowPower\n
1287:../STM32Cube_FW_N6/Drivers/STM32N6xx_HAL_Driver/Inc/stm32n6xx_ll_bus.h ****   *         AHB3LPENSR   IACLPENS      LL_AHB3_GRP1_EnableClockLowPower
1288:../STM32Cube_FW_N6/Drivers/STM32N6xx_HAL_Driver/Inc/stm32n6xx_ll_bus.h ****   * @param  Periphs This parameter can be a combination of the following values:
1289:../STM32Cube_FW_N6/Drivers/STM32N6xx_HAL_Driver/Inc/stm32n6xx_ll_bus.h ****   *         @arg @ref LL_AHB3_GRP1_PERIPH_RNG
1290:../STM32Cube_FW_N6/Drivers/STM32N6xx_HAL_Driver/Inc/stm32n6xx_ll_bus.h ****   *         @arg @ref LL_AHB3_GRP1_PERIPH_HASH
1291:../STM32Cube_FW_N6/Drivers/STM32N6xx_HAL_Driver/Inc/stm32n6xx_ll_bus.h ****   *         @arg @ref LL_AHB3_GRP1_PERIPH_CRYP (*)
ARM GAS  /tmp/ccN2N8if.s 			page 60


1292:../STM32Cube_FW_N6/Drivers/STM32N6xx_HAL_Driver/Inc/stm32n6xx_ll_bus.h ****   *         @arg @ref LL_AHB3_GRP1_PERIPH_SAES (*)
1293:../STM32Cube_FW_N6/Drivers/STM32N6xx_HAL_Driver/Inc/stm32n6xx_ll_bus.h ****   *         @arg @ref LL_AHB3_GRP1_PERIPH_PKA
1294:../STM32Cube_FW_N6/Drivers/STM32N6xx_HAL_Driver/Inc/stm32n6xx_ll_bus.h ****   *         @arg @ref LL_AHB3_GRP1_PERIPH_RIFSC
1295:../STM32Cube_FW_N6/Drivers/STM32N6xx_HAL_Driver/Inc/stm32n6xx_ll_bus.h ****   *         @arg @ref LL_AHB3_GRP1_PERIPH_RISAF
1296:../STM32Cube_FW_N6/Drivers/STM32N6xx_HAL_Driver/Inc/stm32n6xx_ll_bus.h ****   *         @arg @ref LL_AHB3_GRP1_PERIPH_IAC
1297:../STM32Cube_FW_N6/Drivers/STM32N6xx_HAL_Driver/Inc/stm32n6xx_ll_bus.h ****   *
1298:../STM32Cube_FW_N6/Drivers/STM32N6xx_HAL_Driver/Inc/stm32n6xx_ll_bus.h ****   *         (*) value not defined in all devices.
1299:../STM32Cube_FW_N6/Drivers/STM32N6xx_HAL_Driver/Inc/stm32n6xx_ll_bus.h ****   * @retval None
1300:../STM32Cube_FW_N6/Drivers/STM32N6xx_HAL_Driver/Inc/stm32n6xx_ll_bus.h ****   */
1301:../STM32Cube_FW_N6/Drivers/STM32N6xx_HAL_Driver/Inc/stm32n6xx_ll_bus.h **** __STATIC_INLINE void LL_AHB3_GRP1_EnableClockLowPower(uint32_t Periphs)
1302:../STM32Cube_FW_N6/Drivers/STM32N6xx_HAL_Driver/Inc/stm32n6xx_ll_bus.h **** {
1303:../STM32Cube_FW_N6/Drivers/STM32N6xx_HAL_Driver/Inc/stm32n6xx_ll_bus.h ****   __IO uint32_t tmpreg;
1304:../STM32Cube_FW_N6/Drivers/STM32N6xx_HAL_Driver/Inc/stm32n6xx_ll_bus.h ****   WRITE_REG(RCC->AHB3LPENSR, Periphs);
1305:../STM32Cube_FW_N6/Drivers/STM32N6xx_HAL_Driver/Inc/stm32n6xx_ll_bus.h ****   /* Delay after an RCC peripheral clock enabling */
1306:../STM32Cube_FW_N6/Drivers/STM32N6xx_HAL_Driver/Inc/stm32n6xx_ll_bus.h ****   tmpreg = READ_REG(RCC->AHB3LPENR);
1307:../STM32Cube_FW_N6/Drivers/STM32N6xx_HAL_Driver/Inc/stm32n6xx_ll_bus.h ****   (void)tmpreg;
1308:../STM32Cube_FW_N6/Drivers/STM32N6xx_HAL_Driver/Inc/stm32n6xx_ll_bus.h **** }
1309:../STM32Cube_FW_N6/Drivers/STM32N6xx_HAL_Driver/Inc/stm32n6xx_ll_bus.h **** 
1310:../STM32Cube_FW_N6/Drivers/STM32N6xx_HAL_Driver/Inc/stm32n6xx_ll_bus.h **** /**
1311:../STM32Cube_FW_N6/Drivers/STM32N6xx_HAL_Driver/Inc/stm32n6xx_ll_bus.h ****   * @brief  Check if AHB3 peripheral clock during Low Power mode is enabled or not .
1312:../STM32Cube_FW_N6/Drivers/STM32N6xx_HAL_Driver/Inc/stm32n6xx_ll_bus.h ****   * @rmtoll AHB3LPENR    RNGLPEN       LL_AHB3_GRP1_IsEnabledClockLowPower\n
1313:../STM32Cube_FW_N6/Drivers/STM32N6xx_HAL_Driver/Inc/stm32n6xx_ll_bus.h ****   *         AHB3LPENR    HASHLPEN      LL_AHB3_GRP1_IsEnabledClockLowPower\n
1314:../STM32Cube_FW_N6/Drivers/STM32N6xx_HAL_Driver/Inc/stm32n6xx_ll_bus.h ****   *         AHB3LPENR    CRYPLPEN      LL_AHB3_GRP1_IsEnabledClockLowPower\n  (*)
1315:../STM32Cube_FW_N6/Drivers/STM32N6xx_HAL_Driver/Inc/stm32n6xx_ll_bus.h ****   *         AHB3LPENR    SAESLPEN      LL_AHB3_GRP1_IsEnabledClockLowPower\n  (*)
1316:../STM32Cube_FW_N6/Drivers/STM32N6xx_HAL_Driver/Inc/stm32n6xx_ll_bus.h ****   *         AHB3LPENR    PKALPEN       LL_AHB3_GRP1_IsEnabledClockLowPower\n
1317:../STM32Cube_FW_N6/Drivers/STM32N6xx_HAL_Driver/Inc/stm32n6xx_ll_bus.h ****   *         AHB3LPENR    RIFSCLPEN     LL_AHB3_GRP1_IsEnabledClockLowPower\n
1318:../STM32Cube_FW_N6/Drivers/STM32N6xx_HAL_Driver/Inc/stm32n6xx_ll_bus.h ****   *         AHB3LPENR    RISAFLPEN     LL_AHB3_GRP1_IsEnabledClockLowPower\n
1319:../STM32Cube_FW_N6/Drivers/STM32N6xx_HAL_Driver/Inc/stm32n6xx_ll_bus.h ****   *         AHB3LPENR    IACLPEN       LL_AHB3_GRP1_IsEnabledClockLowPower
1320:../STM32Cube_FW_N6/Drivers/STM32N6xx_HAL_Driver/Inc/stm32n6xx_ll_bus.h ****   * @param  Periphs This parameter can be a combination of the following values:
1321:../STM32Cube_FW_N6/Drivers/STM32N6xx_HAL_Driver/Inc/stm32n6xx_ll_bus.h ****   *         @arg @ref LL_AHB3_GRP1_PERIPH_RNG
1322:../STM32Cube_FW_N6/Drivers/STM32N6xx_HAL_Driver/Inc/stm32n6xx_ll_bus.h ****   *         @arg @ref LL_AHB3_GRP1_PERIPH_HASH
1323:../STM32Cube_FW_N6/Drivers/STM32N6xx_HAL_Driver/Inc/stm32n6xx_ll_bus.h ****   *         @arg @ref LL_AHB3_GRP1_PERIPH_CRYP (*)
1324:../STM32Cube_FW_N6/Drivers/STM32N6xx_HAL_Driver/Inc/stm32n6xx_ll_bus.h ****   *         @arg @ref LL_AHB3_GRP1_PERIPH_SAES (*)
1325:../STM32Cube_FW_N6/Drivers/STM32N6xx_HAL_Driver/Inc/stm32n6xx_ll_bus.h ****   *         @arg @ref LL_AHB3_GRP1_PERIPH_PKA
1326:../STM32Cube_FW_N6/Drivers/STM32N6xx_HAL_Driver/Inc/stm32n6xx_ll_bus.h ****   *         @arg @ref LL_AHB3_GRP1_PERIPH_RIFSC
1327:../STM32Cube_FW_N6/Drivers/STM32N6xx_HAL_Driver/Inc/stm32n6xx_ll_bus.h ****   *         @arg @ref LL_AHB3_GRP1_PERIPH_RISAF
1328:../STM32Cube_FW_N6/Drivers/STM32N6xx_HAL_Driver/Inc/stm32n6xx_ll_bus.h ****   *         @arg @ref LL_AHB3_GRP1_PERIPH_IAC
1329:../STM32Cube_FW_N6/Drivers/STM32N6xx_HAL_Driver/Inc/stm32n6xx_ll_bus.h ****   *
1330:../STM32Cube_FW_N6/Drivers/STM32N6xx_HAL_Driver/Inc/stm32n6xx_ll_bus.h ****   *         (*) value not defined in all devices.
1331:../STM32Cube_FW_N6/Drivers/STM32N6xx_HAL_Driver/Inc/stm32n6xx_ll_bus.h ****   * @retval uint32_t
1332:../STM32Cube_FW_N6/Drivers/STM32N6xx_HAL_Driver/Inc/stm32n6xx_ll_bus.h ****   */
1333:../STM32Cube_FW_N6/Drivers/STM32N6xx_HAL_Driver/Inc/stm32n6xx_ll_bus.h **** __STATIC_INLINE uint32_t LL_AHB3_GRP1_IsEnabledClockLowPower(uint32_t Periphs)
1334:../STM32Cube_FW_N6/Drivers/STM32N6xx_HAL_Driver/Inc/stm32n6xx_ll_bus.h **** {
1335:../STM32Cube_FW_N6/Drivers/STM32N6xx_HAL_Driver/Inc/stm32n6xx_ll_bus.h ****   return ((READ_BIT(RCC->AHB3LPENR, Periphs) == Periphs) ? 1UL : 0UL);
1336:../STM32Cube_FW_N6/Drivers/STM32N6xx_HAL_Driver/Inc/stm32n6xx_ll_bus.h **** }
1337:../STM32Cube_FW_N6/Drivers/STM32N6xx_HAL_Driver/Inc/stm32n6xx_ll_bus.h **** 
1338:../STM32Cube_FW_N6/Drivers/STM32N6xx_HAL_Driver/Inc/stm32n6xx_ll_bus.h **** /**
1339:../STM32Cube_FW_N6/Drivers/STM32N6xx_HAL_Driver/Inc/stm32n6xx_ll_bus.h ****   * @brief  Disable AHB3 peripherals clock during Low Power mode.
1340:../STM32Cube_FW_N6/Drivers/STM32N6xx_HAL_Driver/Inc/stm32n6xx_ll_bus.h ****   * @rmtoll AHB3LPENCR   RNGLPENC      LL_AHB3_GRP1_DisableClockLowPower\n
1341:../STM32Cube_FW_N6/Drivers/STM32N6xx_HAL_Driver/Inc/stm32n6xx_ll_bus.h ****   *         AHB3LPENCR   HASHLPENC     LL_AHB3_GRP1_DisableClockLowPower\n
1342:../STM32Cube_FW_N6/Drivers/STM32N6xx_HAL_Driver/Inc/stm32n6xx_ll_bus.h ****   *         AHB3LPENCR   CRYPLPENC     LL_AHB3_GRP1_DisableClockLowPower\n  (*)
1343:../STM32Cube_FW_N6/Drivers/STM32N6xx_HAL_Driver/Inc/stm32n6xx_ll_bus.h ****   *         AHB3LPENCR   SAESLPENC     LL_AHB3_GRP1_DisableClockLowPower\n  (*)
1344:../STM32Cube_FW_N6/Drivers/STM32N6xx_HAL_Driver/Inc/stm32n6xx_ll_bus.h ****   *         AHB3LPENCR   PKALPENC      LL_AHB3_GRP1_DisableClockLowPower\n
1345:../STM32Cube_FW_N6/Drivers/STM32N6xx_HAL_Driver/Inc/stm32n6xx_ll_bus.h ****   *         AHB3LPENCR   RIFSCLPENC    LL_AHB3_GRP1_DisableClockLowPower\n
1346:../STM32Cube_FW_N6/Drivers/STM32N6xx_HAL_Driver/Inc/stm32n6xx_ll_bus.h ****   *         AHB3LPENCR   RISAFLPENC    LL_AHB3_GRP1_DisableClockLowPower\n
1347:../STM32Cube_FW_N6/Drivers/STM32N6xx_HAL_Driver/Inc/stm32n6xx_ll_bus.h ****   *         AHB3LPENCR   IACLPENC      LL_AHB3_GRP1_DisableClockLowPower
1348:../STM32Cube_FW_N6/Drivers/STM32N6xx_HAL_Driver/Inc/stm32n6xx_ll_bus.h ****   * @param  Periphs This parameter can be a combination of the following values:
ARM GAS  /tmp/ccN2N8if.s 			page 61


1349:../STM32Cube_FW_N6/Drivers/STM32N6xx_HAL_Driver/Inc/stm32n6xx_ll_bus.h ****   *         @arg @ref LL_AHB3_GRP1_PERIPH_RNG
1350:../STM32Cube_FW_N6/Drivers/STM32N6xx_HAL_Driver/Inc/stm32n6xx_ll_bus.h ****   *         @arg @ref LL_AHB3_GRP1_PERIPH_HASH
1351:../STM32Cube_FW_N6/Drivers/STM32N6xx_HAL_Driver/Inc/stm32n6xx_ll_bus.h ****   *         @arg @ref LL_AHB3_GRP1_PERIPH_CRYP (*)
1352:../STM32Cube_FW_N6/Drivers/STM32N6xx_HAL_Driver/Inc/stm32n6xx_ll_bus.h ****   *         @arg @ref LL_AHB3_GRP1_PERIPH_SAES (*)
1353:../STM32Cube_FW_N6/Drivers/STM32N6xx_HAL_Driver/Inc/stm32n6xx_ll_bus.h ****   *         @arg @ref LL_AHB3_GRP1_PERIPH_PKA
1354:../STM32Cube_FW_N6/Drivers/STM32N6xx_HAL_Driver/Inc/stm32n6xx_ll_bus.h ****   *         @arg @ref LL_AHB3_GRP1_PERIPH_RIFSC
1355:../STM32Cube_FW_N6/Drivers/STM32N6xx_HAL_Driver/Inc/stm32n6xx_ll_bus.h ****   *         @arg @ref LL_AHB3_GRP1_PERIPH_RISAF
1356:../STM32Cube_FW_N6/Drivers/STM32N6xx_HAL_Driver/Inc/stm32n6xx_ll_bus.h ****   *         @arg @ref LL_AHB3_GRP1_PERIPH_IAC
1357:../STM32Cube_FW_N6/Drivers/STM32N6xx_HAL_Driver/Inc/stm32n6xx_ll_bus.h ****   *
1358:../STM32Cube_FW_N6/Drivers/STM32N6xx_HAL_Driver/Inc/stm32n6xx_ll_bus.h ****   *         (*) value not defined in all devices.
1359:../STM32Cube_FW_N6/Drivers/STM32N6xx_HAL_Driver/Inc/stm32n6xx_ll_bus.h ****   * @retval None
1360:../STM32Cube_FW_N6/Drivers/STM32N6xx_HAL_Driver/Inc/stm32n6xx_ll_bus.h ****   */
1361:../STM32Cube_FW_N6/Drivers/STM32N6xx_HAL_Driver/Inc/stm32n6xx_ll_bus.h **** __STATIC_INLINE void LL_AHB3_GRP1_DisableClockLowPower(uint32_t Periphs)
1362:../STM32Cube_FW_N6/Drivers/STM32N6xx_HAL_Driver/Inc/stm32n6xx_ll_bus.h **** {
1363:../STM32Cube_FW_N6/Drivers/STM32N6xx_HAL_Driver/Inc/stm32n6xx_ll_bus.h ****   WRITE_REG(RCC->AHB3LPENCR, Periphs);
1364:../STM32Cube_FW_N6/Drivers/STM32N6xx_HAL_Driver/Inc/stm32n6xx_ll_bus.h **** }
1365:../STM32Cube_FW_N6/Drivers/STM32N6xx_HAL_Driver/Inc/stm32n6xx_ll_bus.h **** 
1366:../STM32Cube_FW_N6/Drivers/STM32N6xx_HAL_Driver/Inc/stm32n6xx_ll_bus.h **** /**
1367:../STM32Cube_FW_N6/Drivers/STM32N6xx_HAL_Driver/Inc/stm32n6xx_ll_bus.h ****   * @}
1368:../STM32Cube_FW_N6/Drivers/STM32N6xx_HAL_Driver/Inc/stm32n6xx_ll_bus.h ****   */
1369:../STM32Cube_FW_N6/Drivers/STM32N6xx_HAL_Driver/Inc/stm32n6xx_ll_bus.h **** 
1370:../STM32Cube_FW_N6/Drivers/STM32N6xx_HAL_Driver/Inc/stm32n6xx_ll_bus.h **** /** @defgroup BUS_LL_EF_AHB4 AHB4
1371:../STM32Cube_FW_N6/Drivers/STM32N6xx_HAL_Driver/Inc/stm32n6xx_ll_bus.h ****   * @{
1372:../STM32Cube_FW_N6/Drivers/STM32N6xx_HAL_Driver/Inc/stm32n6xx_ll_bus.h ****   */
1373:../STM32Cube_FW_N6/Drivers/STM32N6xx_HAL_Driver/Inc/stm32n6xx_ll_bus.h **** 
1374:../STM32Cube_FW_N6/Drivers/STM32N6xx_HAL_Driver/Inc/stm32n6xx_ll_bus.h **** /**
1375:../STM32Cube_FW_N6/Drivers/STM32N6xx_HAL_Driver/Inc/stm32n6xx_ll_bus.h ****   * @brief  Enable AHB4 peripherals clock.
1376:../STM32Cube_FW_N6/Drivers/STM32N6xx_HAL_Driver/Inc/stm32n6xx_ll_bus.h ****   * @rmtoll AHB4ENSR     GPIOAENS      LL_AHB4_GRP1_EnableClock\n
1377:../STM32Cube_FW_N6/Drivers/STM32N6xx_HAL_Driver/Inc/stm32n6xx_ll_bus.h ****   *         AHB4ENSR     GPIOBENS      LL_AHB4_GRP1_EnableClock\n
1378:../STM32Cube_FW_N6/Drivers/STM32N6xx_HAL_Driver/Inc/stm32n6xx_ll_bus.h ****   *         AHB4ENSR     GPIOCENS      LL_AHB4_GRP1_EnableClock\n
1379:../STM32Cube_FW_N6/Drivers/STM32N6xx_HAL_Driver/Inc/stm32n6xx_ll_bus.h ****   *         AHB4ENSR     GPIODENS      LL_AHB4_GRP1_EnableClock\n
1380:../STM32Cube_FW_N6/Drivers/STM32N6xx_HAL_Driver/Inc/stm32n6xx_ll_bus.h ****   *         AHB4ENSR     GPIOEENS      LL_AHB4_GRP1_EnableClock\n
1381:../STM32Cube_FW_N6/Drivers/STM32N6xx_HAL_Driver/Inc/stm32n6xx_ll_bus.h ****   *         AHB4ENSR     GPIOFENS      LL_AHB4_GRP1_EnableClock\n
1382:../STM32Cube_FW_N6/Drivers/STM32N6xx_HAL_Driver/Inc/stm32n6xx_ll_bus.h ****   *         AHB4ENSR     GPIOGENS      LL_AHB4_GRP1_EnableClock\n
1383:../STM32Cube_FW_N6/Drivers/STM32N6xx_HAL_Driver/Inc/stm32n6xx_ll_bus.h ****   *         AHB4ENSR     GPIOHENS      LL_AHB4_GRP1_EnableClock\n
1384:../STM32Cube_FW_N6/Drivers/STM32N6xx_HAL_Driver/Inc/stm32n6xx_ll_bus.h ****   *         AHB4ENSR     GPIONENS      LL_AHB4_GRP1_EnableClock\n
1385:../STM32Cube_FW_N6/Drivers/STM32N6xx_HAL_Driver/Inc/stm32n6xx_ll_bus.h ****   *         AHB4ENSR     GPIOOENS      LL_AHB4_GRP1_EnableClock\n
1386:../STM32Cube_FW_N6/Drivers/STM32N6xx_HAL_Driver/Inc/stm32n6xx_ll_bus.h ****   *         AHB4ENSR     GPIOPENS      LL_AHB4_GRP1_EnableClock\n
1387:../STM32Cube_FW_N6/Drivers/STM32N6xx_HAL_Driver/Inc/stm32n6xx_ll_bus.h ****   *         AHB4ENSR     GPIOQENS      LL_AHB4_GRP1_EnableClock\n
1388:../STM32Cube_FW_N6/Drivers/STM32N6xx_HAL_Driver/Inc/stm32n6xx_ll_bus.h ****   *         AHB4ENSR     PWRENS        LL_AHB4_GRP1_EnableClock\n
1389:../STM32Cube_FW_N6/Drivers/STM32N6xx_HAL_Driver/Inc/stm32n6xx_ll_bus.h ****   *         AHB4ENSR     CRCENS        LL_AHB4_GRP1_EnableClock
1390:../STM32Cube_FW_N6/Drivers/STM32N6xx_HAL_Driver/Inc/stm32n6xx_ll_bus.h ****   * @param  Periphs This parameter can be a combination of the following values:
1391:../STM32Cube_FW_N6/Drivers/STM32N6xx_HAL_Driver/Inc/stm32n6xx_ll_bus.h ****   *         @arg @ref LL_AHB4_GRP1_PERIPH_GPIOA
1392:../STM32Cube_FW_N6/Drivers/STM32N6xx_HAL_Driver/Inc/stm32n6xx_ll_bus.h ****   *         @arg @ref LL_AHB4_GRP1_PERIPH_GPIOB
1393:../STM32Cube_FW_N6/Drivers/STM32N6xx_HAL_Driver/Inc/stm32n6xx_ll_bus.h ****   *         @arg @ref LL_AHB4_GRP1_PERIPH_GPIOC
1394:../STM32Cube_FW_N6/Drivers/STM32N6xx_HAL_Driver/Inc/stm32n6xx_ll_bus.h ****   *         @arg @ref LL_AHB4_GRP1_PERIPH_GPIOD
1395:../STM32Cube_FW_N6/Drivers/STM32N6xx_HAL_Driver/Inc/stm32n6xx_ll_bus.h ****   *         @arg @ref LL_AHB4_GRP1_PERIPH_GPIOE
1396:../STM32Cube_FW_N6/Drivers/STM32N6xx_HAL_Driver/Inc/stm32n6xx_ll_bus.h ****   *         @arg @ref LL_AHB4_GRP1_PERIPH_GPIOF
1397:../STM32Cube_FW_N6/Drivers/STM32N6xx_HAL_Driver/Inc/stm32n6xx_ll_bus.h ****   *         @arg @ref LL_AHB4_GRP1_PERIPH_GPIOG
1398:../STM32Cube_FW_N6/Drivers/STM32N6xx_HAL_Driver/Inc/stm32n6xx_ll_bus.h ****   *         @arg @ref LL_AHB4_GRP1_PERIPH_GPIOH
1399:../STM32Cube_FW_N6/Drivers/STM32N6xx_HAL_Driver/Inc/stm32n6xx_ll_bus.h ****   *         @arg @ref LL_AHB4_GRP1_PERIPH_GPION
1400:../STM32Cube_FW_N6/Drivers/STM32N6xx_HAL_Driver/Inc/stm32n6xx_ll_bus.h ****   *         @arg @ref LL_AHB4_GRP1_PERIPH_GPIOO
1401:../STM32Cube_FW_N6/Drivers/STM32N6xx_HAL_Driver/Inc/stm32n6xx_ll_bus.h ****   *         @arg @ref LL_AHB4_GRP1_PERIPH_GPIOP
1402:../STM32Cube_FW_N6/Drivers/STM32N6xx_HAL_Driver/Inc/stm32n6xx_ll_bus.h ****   *         @arg @ref LL_AHB4_GRP1_PERIPH_GPIOQ
1403:../STM32Cube_FW_N6/Drivers/STM32N6xx_HAL_Driver/Inc/stm32n6xx_ll_bus.h ****   *         @arg @ref LL_AHB4_GRP1_PERIPH_PWR
1404:../STM32Cube_FW_N6/Drivers/STM32N6xx_HAL_Driver/Inc/stm32n6xx_ll_bus.h ****   *         @arg @ref LL_AHB4_GRP1_PERIPH_CRC
1405:../STM32Cube_FW_N6/Drivers/STM32N6xx_HAL_Driver/Inc/stm32n6xx_ll_bus.h ****   * @retval None
ARM GAS  /tmp/ccN2N8if.s 			page 62


1406:../STM32Cube_FW_N6/Drivers/STM32N6xx_HAL_Driver/Inc/stm32n6xx_ll_bus.h ****   */
1407:../STM32Cube_FW_N6/Drivers/STM32N6xx_HAL_Driver/Inc/stm32n6xx_ll_bus.h **** __STATIC_INLINE void LL_AHB4_GRP1_EnableClock(uint32_t Periphs)
 1209              		.loc 2 1407 22 view .LVU392
 1210              	.LVL82:
 1211              	.LBB110:
1408:../STM32Cube_FW_N6/Drivers/STM32N6xx_HAL_Driver/Inc/stm32n6xx_ll_bus.h **** {
1409:../STM32Cube_FW_N6/Drivers/STM32N6xx_HAL_Driver/Inc/stm32n6xx_ll_bus.h ****   __IO uint32_t tmpreg;
 1212              		.loc 2 1409 3 view .LVU393
1410:../STM32Cube_FW_N6/Drivers/STM32N6xx_HAL_Driver/Inc/stm32n6xx_ll_bus.h ****   WRITE_REG(RCC->AHB4ENSR, Periphs);
 1213              		.loc 2 1410 3 view .LVU394
 1214 002a 4FF48023 		mov	r3, #262144
 1215 002e 284C     		ldr	r4, .L67+24
 1216 0030 C4F85C3A 		str	r3, [r4, #2652]
1411:../STM32Cube_FW_N6/Drivers/STM32N6xx_HAL_Driver/Inc/stm32n6xx_ll_bus.h ****   /* Delay after an RCC peripheral clock enabling */
1412:../STM32Cube_FW_N6/Drivers/STM32N6xx_HAL_Driver/Inc/stm32n6xx_ll_bus.h ****   tmpreg = READ_REG(RCC->AHB4ENR);
 1217              		.loc 2 1412 3 view .LVU395
 1218              		.loc 2 1412 12 is_stmt 0 view .LVU396
 1219 0034 D4F85C22 		ldr	r2, [r4, #604]
 1220              		.loc 2 1412 10 view .LVU397
 1221 0038 0192     		str	r2, [sp, #4]
1413:../STM32Cube_FW_N6/Drivers/STM32N6xx_HAL_Driver/Inc/stm32n6xx_ll_bus.h ****   (void)tmpreg;
 1222              		.loc 2 1413 3 is_stmt 1 view .LVU398
 1223 003a 019A     		ldr	r2, [sp, #4]
 1224              	.LVL83:
 1225              		.loc 2 1413 3 is_stmt 0 view .LVU399
 1226              	.LBE110:
 1227              	.LBE109:
 524:../Middlewares/screenl/Src/scrl_usb.c ****   __HAL_RCC_PWR_CLK_SLEEP_ENABLE();
 1228              		.loc 1 524 3 is_stmt 1 view .LVU400
 1229              	.LBB111:
 1230              	.LBI111:
1414:../STM32Cube_FW_N6/Drivers/STM32N6xx_HAL_Driver/Inc/stm32n6xx_ll_bus.h **** }
1415:../STM32Cube_FW_N6/Drivers/STM32N6xx_HAL_Driver/Inc/stm32n6xx_ll_bus.h **** 
1416:../STM32Cube_FW_N6/Drivers/STM32N6xx_HAL_Driver/Inc/stm32n6xx_ll_bus.h **** /**
1417:../STM32Cube_FW_N6/Drivers/STM32N6xx_HAL_Driver/Inc/stm32n6xx_ll_bus.h ****   * @brief  Check if AHB4 peripheral clock is enabled or not
1418:../STM32Cube_FW_N6/Drivers/STM32N6xx_HAL_Driver/Inc/stm32n6xx_ll_bus.h ****   * @rmtoll AHB4ENR      GPIOAEN       LL_AHB4_GRP1_IsEnabledClock\n
1419:../STM32Cube_FW_N6/Drivers/STM32N6xx_HAL_Driver/Inc/stm32n6xx_ll_bus.h ****   *         AHB4ENR      GPIOBEN       LL_AHB4_GRP1_IsEnabledClock\n
1420:../STM32Cube_FW_N6/Drivers/STM32N6xx_HAL_Driver/Inc/stm32n6xx_ll_bus.h ****   *         AHB4ENR      GPIOCEN       LL_AHB4_GRP1_IsEnabledClock\n
1421:../STM32Cube_FW_N6/Drivers/STM32N6xx_HAL_Driver/Inc/stm32n6xx_ll_bus.h ****   *         AHB4ENR      GPIODEN       LL_AHB4_GRP1_IsEnabledClock\n
1422:../STM32Cube_FW_N6/Drivers/STM32N6xx_HAL_Driver/Inc/stm32n6xx_ll_bus.h ****   *         AHB4ENR      GPIOEEN       LL_AHB4_GRP1_IsEnabledClock\n
1423:../STM32Cube_FW_N6/Drivers/STM32N6xx_HAL_Driver/Inc/stm32n6xx_ll_bus.h ****   *         AHB4ENR      GPIOFEN       LL_AHB4_GRP1_IsEnabledClock\n
1424:../STM32Cube_FW_N6/Drivers/STM32N6xx_HAL_Driver/Inc/stm32n6xx_ll_bus.h ****   *         AHB4ENR      GPIOGEN       LL_AHB4_GRP1_IsEnabledClock\n
1425:../STM32Cube_FW_N6/Drivers/STM32N6xx_HAL_Driver/Inc/stm32n6xx_ll_bus.h ****   *         AHB4ENR      GPIOHEN       LL_AHB4_GRP1_IsEnabledClock\n
1426:../STM32Cube_FW_N6/Drivers/STM32N6xx_HAL_Driver/Inc/stm32n6xx_ll_bus.h ****   *         AHB4ENR      GPIONEN       LL_AHB4_GRP1_IsEnabledClock\n
1427:../STM32Cube_FW_N6/Drivers/STM32N6xx_HAL_Driver/Inc/stm32n6xx_ll_bus.h ****   *         AHB4ENR      GPIOOEN       LL_AHB4_GRP1_IsEnabledClock\n
1428:../STM32Cube_FW_N6/Drivers/STM32N6xx_HAL_Driver/Inc/stm32n6xx_ll_bus.h ****   *         AHB4ENR      GPIOPEN       LL_AHB4_GRP1_IsEnabledClock\n
1429:../STM32Cube_FW_N6/Drivers/STM32N6xx_HAL_Driver/Inc/stm32n6xx_ll_bus.h ****   *         AHB4ENR      GPIOQEN       LL_AHB4_GRP1_IsEnabledClock\n
1430:../STM32Cube_FW_N6/Drivers/STM32N6xx_HAL_Driver/Inc/stm32n6xx_ll_bus.h ****   *         AHB4ENR      PWREN         LL_AHB4_GRP1_IsEnabledClock\n
1431:../STM32Cube_FW_N6/Drivers/STM32N6xx_HAL_Driver/Inc/stm32n6xx_ll_bus.h ****   *         AHB4ENR      CRCEN         LL_AHB4_GRP1_IsEnabledClock
1432:../STM32Cube_FW_N6/Drivers/STM32N6xx_HAL_Driver/Inc/stm32n6xx_ll_bus.h ****   * @param  Periphs This parameter can be a combination of the following values:
1433:../STM32Cube_FW_N6/Drivers/STM32N6xx_HAL_Driver/Inc/stm32n6xx_ll_bus.h ****   *         @arg @ref LL_AHB4_GRP1_PERIPH_GPIOA
1434:../STM32Cube_FW_N6/Drivers/STM32N6xx_HAL_Driver/Inc/stm32n6xx_ll_bus.h ****   *         @arg @ref LL_AHB4_GRP1_PERIPH_GPIOB
1435:../STM32Cube_FW_N6/Drivers/STM32N6xx_HAL_Driver/Inc/stm32n6xx_ll_bus.h ****   *         @arg @ref LL_AHB4_GRP1_PERIPH_GPIOC
1436:../STM32Cube_FW_N6/Drivers/STM32N6xx_HAL_Driver/Inc/stm32n6xx_ll_bus.h ****   *         @arg @ref LL_AHB4_GRP1_PERIPH_GPIOD
1437:../STM32Cube_FW_N6/Drivers/STM32N6xx_HAL_Driver/Inc/stm32n6xx_ll_bus.h ****   *         @arg @ref LL_AHB4_GRP1_PERIPH_GPIOE
1438:../STM32Cube_FW_N6/Drivers/STM32N6xx_HAL_Driver/Inc/stm32n6xx_ll_bus.h ****   *         @arg @ref LL_AHB4_GRP1_PERIPH_GPIOF
1439:../STM32Cube_FW_N6/Drivers/STM32N6xx_HAL_Driver/Inc/stm32n6xx_ll_bus.h ****   *         @arg @ref LL_AHB4_GRP1_PERIPH_GPIOG
ARM GAS  /tmp/ccN2N8if.s 			page 63


1440:../STM32Cube_FW_N6/Drivers/STM32N6xx_HAL_Driver/Inc/stm32n6xx_ll_bus.h ****   *         @arg @ref LL_AHB4_GRP1_PERIPH_GPIOH
1441:../STM32Cube_FW_N6/Drivers/STM32N6xx_HAL_Driver/Inc/stm32n6xx_ll_bus.h ****   *         @arg @ref LL_AHB4_GRP1_PERIPH_GPION
1442:../STM32Cube_FW_N6/Drivers/STM32N6xx_HAL_Driver/Inc/stm32n6xx_ll_bus.h ****   *         @arg @ref LL_AHB4_GRP1_PERIPH_GPIOO
1443:../STM32Cube_FW_N6/Drivers/STM32N6xx_HAL_Driver/Inc/stm32n6xx_ll_bus.h ****   *         @arg @ref LL_AHB4_GRP1_PERIPH_GPIOP
1444:../STM32Cube_FW_N6/Drivers/STM32N6xx_HAL_Driver/Inc/stm32n6xx_ll_bus.h ****   *         @arg @ref LL_AHB4_GRP1_PERIPH_GPIOQ
1445:../STM32Cube_FW_N6/Drivers/STM32N6xx_HAL_Driver/Inc/stm32n6xx_ll_bus.h ****   *         @arg @ref LL_AHB4_GRP1_PERIPH_PWR
1446:../STM32Cube_FW_N6/Drivers/STM32N6xx_HAL_Driver/Inc/stm32n6xx_ll_bus.h ****   *         @arg @ref LL_AHB4_GRP1_PERIPH_CRC
1447:../STM32Cube_FW_N6/Drivers/STM32N6xx_HAL_Driver/Inc/stm32n6xx_ll_bus.h ****   * @retval uint32_t
1448:../STM32Cube_FW_N6/Drivers/STM32N6xx_HAL_Driver/Inc/stm32n6xx_ll_bus.h ****   */
1449:../STM32Cube_FW_N6/Drivers/STM32N6xx_HAL_Driver/Inc/stm32n6xx_ll_bus.h **** __STATIC_INLINE uint32_t LL_AHB4_GRP1_IsEnabledClock(uint32_t Periphs)
1450:../STM32Cube_FW_N6/Drivers/STM32N6xx_HAL_Driver/Inc/stm32n6xx_ll_bus.h **** {
1451:../STM32Cube_FW_N6/Drivers/STM32N6xx_HAL_Driver/Inc/stm32n6xx_ll_bus.h ****   return ((READ_BIT(RCC->AHB4ENR, Periphs) == Periphs) ? 1UL : 0UL);
1452:../STM32Cube_FW_N6/Drivers/STM32N6xx_HAL_Driver/Inc/stm32n6xx_ll_bus.h **** }
1453:../STM32Cube_FW_N6/Drivers/STM32N6xx_HAL_Driver/Inc/stm32n6xx_ll_bus.h **** 
1454:../STM32Cube_FW_N6/Drivers/STM32N6xx_HAL_Driver/Inc/stm32n6xx_ll_bus.h **** /**
1455:../STM32Cube_FW_N6/Drivers/STM32N6xx_HAL_Driver/Inc/stm32n6xx_ll_bus.h ****   * @brief  Disable AHB4 peripherals clock.
1456:../STM32Cube_FW_N6/Drivers/STM32N6xx_HAL_Driver/Inc/stm32n6xx_ll_bus.h ****   * @rmtoll AHB4ENCR     GPIOAENC      LL_AHB4_GRP1_DisableClock\n
1457:../STM32Cube_FW_N6/Drivers/STM32N6xx_HAL_Driver/Inc/stm32n6xx_ll_bus.h ****   *         AHB4ENCR     GPIOBENC      LL_AHB4_GRP1_DisableClock\n
1458:../STM32Cube_FW_N6/Drivers/STM32N6xx_HAL_Driver/Inc/stm32n6xx_ll_bus.h ****   *         AHB4ENCR     GPIOCENC      LL_AHB4_GRP1_DisableClock\n
1459:../STM32Cube_FW_N6/Drivers/STM32N6xx_HAL_Driver/Inc/stm32n6xx_ll_bus.h ****   *         AHB4ENCR     GPIODENC      LL_AHB4_GRP1_DisableClock\n
1460:../STM32Cube_FW_N6/Drivers/STM32N6xx_HAL_Driver/Inc/stm32n6xx_ll_bus.h ****   *         AHB4ENCR     GPIOEENC      LL_AHB4_GRP1_DisableClock\n
1461:../STM32Cube_FW_N6/Drivers/STM32N6xx_HAL_Driver/Inc/stm32n6xx_ll_bus.h ****   *         AHB4ENCR     GPIOFENC      LL_AHB4_GRP1_DisableClock\n
1462:../STM32Cube_FW_N6/Drivers/STM32N6xx_HAL_Driver/Inc/stm32n6xx_ll_bus.h ****   *         AHB4ENCR     GPIOGENC      LL_AHB4_GRP1_DisableClock\n
1463:../STM32Cube_FW_N6/Drivers/STM32N6xx_HAL_Driver/Inc/stm32n6xx_ll_bus.h ****   *         AHB4ENCR     GPIOHENC      LL_AHB4_GRP1_DisableClock\n
1464:../STM32Cube_FW_N6/Drivers/STM32N6xx_HAL_Driver/Inc/stm32n6xx_ll_bus.h ****   *         AHB4ENCR     GPIONENC      LL_AHB4_GRP1_DisableClock\n
1465:../STM32Cube_FW_N6/Drivers/STM32N6xx_HAL_Driver/Inc/stm32n6xx_ll_bus.h ****   *         AHB4ENCR     GPIOOENC      LL_AHB4_GRP1_DisableClock\n
1466:../STM32Cube_FW_N6/Drivers/STM32N6xx_HAL_Driver/Inc/stm32n6xx_ll_bus.h ****   *         AHB4ENCR     GPIOPENC      LL_AHB4_GRP1_DisableClock\n
1467:../STM32Cube_FW_N6/Drivers/STM32N6xx_HAL_Driver/Inc/stm32n6xx_ll_bus.h ****   *         AHB4ENCR     GPIOQENC      LL_AHB4_GRP1_DisableClock\n
1468:../STM32Cube_FW_N6/Drivers/STM32N6xx_HAL_Driver/Inc/stm32n6xx_ll_bus.h ****   *         AHB4ENCR     PWRENC        LL_AHB4_GRP1_DisableClock\n
1469:../STM32Cube_FW_N6/Drivers/STM32N6xx_HAL_Driver/Inc/stm32n6xx_ll_bus.h ****   *         AHB4ENCR     CRCENC        LL_AHB4_GRP1_DisableClock
1470:../STM32Cube_FW_N6/Drivers/STM32N6xx_HAL_Driver/Inc/stm32n6xx_ll_bus.h ****   * @param  Periphs This parameter can be a combination of the following values:
1471:../STM32Cube_FW_N6/Drivers/STM32N6xx_HAL_Driver/Inc/stm32n6xx_ll_bus.h ****   *         @arg @ref LL_AHB4_GRP1_PERIPH_GPIOA
1472:../STM32Cube_FW_N6/Drivers/STM32N6xx_HAL_Driver/Inc/stm32n6xx_ll_bus.h ****   *         @arg @ref LL_AHB4_GRP1_PERIPH_GPIOB
1473:../STM32Cube_FW_N6/Drivers/STM32N6xx_HAL_Driver/Inc/stm32n6xx_ll_bus.h ****   *         @arg @ref LL_AHB4_GRP1_PERIPH_GPIOC
1474:../STM32Cube_FW_N6/Drivers/STM32N6xx_HAL_Driver/Inc/stm32n6xx_ll_bus.h ****   *         @arg @ref LL_AHB4_GRP1_PERIPH_GPIOD
1475:../STM32Cube_FW_N6/Drivers/STM32N6xx_HAL_Driver/Inc/stm32n6xx_ll_bus.h ****   *         @arg @ref LL_AHB4_GRP1_PERIPH_GPIOE
1476:../STM32Cube_FW_N6/Drivers/STM32N6xx_HAL_Driver/Inc/stm32n6xx_ll_bus.h ****   *         @arg @ref LL_AHB4_GRP1_PERIPH_GPIOF
1477:../STM32Cube_FW_N6/Drivers/STM32N6xx_HAL_Driver/Inc/stm32n6xx_ll_bus.h ****   *         @arg @ref LL_AHB4_GRP1_PERIPH_GPIOG
1478:../STM32Cube_FW_N6/Drivers/STM32N6xx_HAL_Driver/Inc/stm32n6xx_ll_bus.h ****   *         @arg @ref LL_AHB4_GRP1_PERIPH_GPIOH
1479:../STM32Cube_FW_N6/Drivers/STM32N6xx_HAL_Driver/Inc/stm32n6xx_ll_bus.h ****   *         @arg @ref LL_AHB4_GRP1_PERIPH_GPION
1480:../STM32Cube_FW_N6/Drivers/STM32N6xx_HAL_Driver/Inc/stm32n6xx_ll_bus.h ****   *         @arg @ref LL_AHB4_GRP1_PERIPH_GPIOO
1481:../STM32Cube_FW_N6/Drivers/STM32N6xx_HAL_Driver/Inc/stm32n6xx_ll_bus.h ****   *         @arg @ref LL_AHB4_GRP1_PERIPH_GPIOP
1482:../STM32Cube_FW_N6/Drivers/STM32N6xx_HAL_Driver/Inc/stm32n6xx_ll_bus.h ****   *         @arg @ref LL_AHB4_GRP1_PERIPH_GPIOQ
1483:../STM32Cube_FW_N6/Drivers/STM32N6xx_HAL_Driver/Inc/stm32n6xx_ll_bus.h ****   *         @arg @ref LL_AHB4_GRP1_PERIPH_PWR
1484:../STM32Cube_FW_N6/Drivers/STM32N6xx_HAL_Driver/Inc/stm32n6xx_ll_bus.h ****   *         @arg @ref LL_AHB4_GRP1_PERIPH_CRC
1485:../STM32Cube_FW_N6/Drivers/STM32N6xx_HAL_Driver/Inc/stm32n6xx_ll_bus.h ****   * @retval None
1486:../STM32Cube_FW_N6/Drivers/STM32N6xx_HAL_Driver/Inc/stm32n6xx_ll_bus.h ****   */
1487:../STM32Cube_FW_N6/Drivers/STM32N6xx_HAL_Driver/Inc/stm32n6xx_ll_bus.h **** __STATIC_INLINE void LL_AHB4_GRP1_DisableClock(uint32_t Periphs)
1488:../STM32Cube_FW_N6/Drivers/STM32N6xx_HAL_Driver/Inc/stm32n6xx_ll_bus.h **** {
1489:../STM32Cube_FW_N6/Drivers/STM32N6xx_HAL_Driver/Inc/stm32n6xx_ll_bus.h ****   WRITE_REG(RCC->AHB4ENCR, Periphs);
1490:../STM32Cube_FW_N6/Drivers/STM32N6xx_HAL_Driver/Inc/stm32n6xx_ll_bus.h **** }
1491:../STM32Cube_FW_N6/Drivers/STM32N6xx_HAL_Driver/Inc/stm32n6xx_ll_bus.h **** 
1492:../STM32Cube_FW_N6/Drivers/STM32N6xx_HAL_Driver/Inc/stm32n6xx_ll_bus.h **** /**
1493:../STM32Cube_FW_N6/Drivers/STM32N6xx_HAL_Driver/Inc/stm32n6xx_ll_bus.h ****   * @brief  Force AHB4 peripherals reset.
1494:../STM32Cube_FW_N6/Drivers/STM32N6xx_HAL_Driver/Inc/stm32n6xx_ll_bus.h ****   * @rmtoll AHB4RSTSR     GPIOARSTS      LL_AHB4_GRP1_ForceReset\n
1495:../STM32Cube_FW_N6/Drivers/STM32N6xx_HAL_Driver/Inc/stm32n6xx_ll_bus.h ****   *         AHB4RSTSR     GPIOBRSTS      LL_AHB4_GRP1_ForceReset\n
1496:../STM32Cube_FW_N6/Drivers/STM32N6xx_HAL_Driver/Inc/stm32n6xx_ll_bus.h ****   *         AHB4RSTSR     GPIOCRSTS      LL_AHB4_GRP1_ForceReset\n
ARM GAS  /tmp/ccN2N8if.s 			page 64


1497:../STM32Cube_FW_N6/Drivers/STM32N6xx_HAL_Driver/Inc/stm32n6xx_ll_bus.h ****   *         AHB4RSTSR     GPIODRSTS      LL_AHB4_GRP1_ForceReset\n
1498:../STM32Cube_FW_N6/Drivers/STM32N6xx_HAL_Driver/Inc/stm32n6xx_ll_bus.h ****   *         AHB4RSTSR     GPIOERSTS      LL_AHB4_GRP1_ForceReset\n
1499:../STM32Cube_FW_N6/Drivers/STM32N6xx_HAL_Driver/Inc/stm32n6xx_ll_bus.h ****   *         AHB4RSTSR     GPIOFRSTS      LL_AHB4_GRP1_ForceReset\n
1500:../STM32Cube_FW_N6/Drivers/STM32N6xx_HAL_Driver/Inc/stm32n6xx_ll_bus.h ****   *         AHB4RSTSR     GPIOGRSTS      LL_AHB4_GRP1_ForceReset\n
1501:../STM32Cube_FW_N6/Drivers/STM32N6xx_HAL_Driver/Inc/stm32n6xx_ll_bus.h ****   *         AHB4RSTSR     GPIOHRSTS      LL_AHB4_GRP1_ForceReset\n
1502:../STM32Cube_FW_N6/Drivers/STM32N6xx_HAL_Driver/Inc/stm32n6xx_ll_bus.h ****   *         AHB4RSTSR     GPIONRSTS      LL_AHB4_GRP1_ForceReset\n
1503:../STM32Cube_FW_N6/Drivers/STM32N6xx_HAL_Driver/Inc/stm32n6xx_ll_bus.h ****   *         AHB4RSTSR     GPIOORSTS      LL_AHB4_GRP1_ForceReset\n
1504:../STM32Cube_FW_N6/Drivers/STM32N6xx_HAL_Driver/Inc/stm32n6xx_ll_bus.h ****   *         AHB4RSTSR     GPIOPRSTS      LL_AHB4_GRP1_ForceReset\n
1505:../STM32Cube_FW_N6/Drivers/STM32N6xx_HAL_Driver/Inc/stm32n6xx_ll_bus.h ****   *         AHB4RSTSR     GPIOQRSTS      LL_AHB4_GRP1_ForceReset\n
1506:../STM32Cube_FW_N6/Drivers/STM32N6xx_HAL_Driver/Inc/stm32n6xx_ll_bus.h ****   *         AHB4RSTSR     CRCRSTS        LL_AHB4_GRP1_ForceReset\n
1507:../STM32Cube_FW_N6/Drivers/STM32N6xx_HAL_Driver/Inc/stm32n6xx_ll_bus.h ****   *         AHB4RSTSR     BKPRAMRSTS     LL_AHB4_GRP1_ForceReset
1508:../STM32Cube_FW_N6/Drivers/STM32N6xx_HAL_Driver/Inc/stm32n6xx_ll_bus.h ****   * @param  Periphs This parameter can be a combination of the following values:
1509:../STM32Cube_FW_N6/Drivers/STM32N6xx_HAL_Driver/Inc/stm32n6xx_ll_bus.h ****   *         @arg @ref LL_AHB4_GRP1_PERIPH_GPIOA
1510:../STM32Cube_FW_N6/Drivers/STM32N6xx_HAL_Driver/Inc/stm32n6xx_ll_bus.h ****   *         @arg @ref LL_AHB4_GRP1_PERIPH_GPIOB
1511:../STM32Cube_FW_N6/Drivers/STM32N6xx_HAL_Driver/Inc/stm32n6xx_ll_bus.h ****   *         @arg @ref LL_AHB4_GRP1_PERIPH_GPIOC
1512:../STM32Cube_FW_N6/Drivers/STM32N6xx_HAL_Driver/Inc/stm32n6xx_ll_bus.h ****   *         @arg @ref LL_AHB4_GRP1_PERIPH_GPIOD
1513:../STM32Cube_FW_N6/Drivers/STM32N6xx_HAL_Driver/Inc/stm32n6xx_ll_bus.h ****   *         @arg @ref LL_AHB4_GRP1_PERIPH_GPIOE
1514:../STM32Cube_FW_N6/Drivers/STM32N6xx_HAL_Driver/Inc/stm32n6xx_ll_bus.h ****   *         @arg @ref LL_AHB4_GRP1_PERIPH_GPIOF
1515:../STM32Cube_FW_N6/Drivers/STM32N6xx_HAL_Driver/Inc/stm32n6xx_ll_bus.h ****   *         @arg @ref LL_AHB4_GRP1_PERIPH_GPIOG
1516:../STM32Cube_FW_N6/Drivers/STM32N6xx_HAL_Driver/Inc/stm32n6xx_ll_bus.h ****   *         @arg @ref LL_AHB4_GRP1_PERIPH_GPIOH
1517:../STM32Cube_FW_N6/Drivers/STM32N6xx_HAL_Driver/Inc/stm32n6xx_ll_bus.h ****   *         @arg @ref LL_AHB4_GRP1_PERIPH_GPION
1518:../STM32Cube_FW_N6/Drivers/STM32N6xx_HAL_Driver/Inc/stm32n6xx_ll_bus.h ****   *         @arg @ref LL_AHB4_GRP1_PERIPH_GPIOO
1519:../STM32Cube_FW_N6/Drivers/STM32N6xx_HAL_Driver/Inc/stm32n6xx_ll_bus.h ****   *         @arg @ref LL_AHB4_GRP1_PERIPH_GPIOP
1520:../STM32Cube_FW_N6/Drivers/STM32N6xx_HAL_Driver/Inc/stm32n6xx_ll_bus.h ****   *         @arg @ref LL_AHB4_GRP1_PERIPH_GPIOQ
1521:../STM32Cube_FW_N6/Drivers/STM32N6xx_HAL_Driver/Inc/stm32n6xx_ll_bus.h ****   *         @arg @ref LL_AHB4_GRP1_PERIPH_PWR
1522:../STM32Cube_FW_N6/Drivers/STM32N6xx_HAL_Driver/Inc/stm32n6xx_ll_bus.h ****   *         @arg @ref LL_AHB4_GRP1_PERIPH_CRC
1523:../STM32Cube_FW_N6/Drivers/STM32N6xx_HAL_Driver/Inc/stm32n6xx_ll_bus.h ****   * @retval None
1524:../STM32Cube_FW_N6/Drivers/STM32N6xx_HAL_Driver/Inc/stm32n6xx_ll_bus.h ****   */
1525:../STM32Cube_FW_N6/Drivers/STM32N6xx_HAL_Driver/Inc/stm32n6xx_ll_bus.h **** __STATIC_INLINE void LL_AHB4_GRP1_ForceReset(uint32_t Periphs)
1526:../STM32Cube_FW_N6/Drivers/STM32N6xx_HAL_Driver/Inc/stm32n6xx_ll_bus.h **** {
1527:../STM32Cube_FW_N6/Drivers/STM32N6xx_HAL_Driver/Inc/stm32n6xx_ll_bus.h ****   WRITE_REG(RCC->AHB4RSTSR, Periphs);
1528:../STM32Cube_FW_N6/Drivers/STM32N6xx_HAL_Driver/Inc/stm32n6xx_ll_bus.h **** }
1529:../STM32Cube_FW_N6/Drivers/STM32N6xx_HAL_Driver/Inc/stm32n6xx_ll_bus.h **** 
1530:../STM32Cube_FW_N6/Drivers/STM32N6xx_HAL_Driver/Inc/stm32n6xx_ll_bus.h **** /**
1531:../STM32Cube_FW_N6/Drivers/STM32N6xx_HAL_Driver/Inc/stm32n6xx_ll_bus.h ****   * @brief  Release AHB4 peripherals reset.
1532:../STM32Cube_FW_N6/Drivers/STM32N6xx_HAL_Driver/Inc/stm32n6xx_ll_bus.h ****   * @rmtoll AHB4RSTCR     GPIOARSTC      LL_AHB4_GRP1_ReleaseReset\n
1533:../STM32Cube_FW_N6/Drivers/STM32N6xx_HAL_Driver/Inc/stm32n6xx_ll_bus.h ****   *         AHB4RSTCR     GPIOBRSTC      LL_AHB4_GRP1_ReleaseReset\n
1534:../STM32Cube_FW_N6/Drivers/STM32N6xx_HAL_Driver/Inc/stm32n6xx_ll_bus.h ****   *         AHB4RSTCR     GPIOCRSTC      LL_AHB4_GRP1_ReleaseReset\n
1535:../STM32Cube_FW_N6/Drivers/STM32N6xx_HAL_Driver/Inc/stm32n6xx_ll_bus.h ****   *         AHB4RSTCR     GPIODRSTC      LL_AHB4_GRP1_ReleaseReset\n
1536:../STM32Cube_FW_N6/Drivers/STM32N6xx_HAL_Driver/Inc/stm32n6xx_ll_bus.h ****   *         AHB4RSTCR     GPIOERSTC      LL_AHB4_GRP1_ReleaseReset\n
1537:../STM32Cube_FW_N6/Drivers/STM32N6xx_HAL_Driver/Inc/stm32n6xx_ll_bus.h ****   *         AHB4RSTCR     GPIOFRSTC      LL_AHB4_GRP1_ReleaseReset\n
1538:../STM32Cube_FW_N6/Drivers/STM32N6xx_HAL_Driver/Inc/stm32n6xx_ll_bus.h ****   *         AHB4RSTCR     GPIOGRSTC      LL_AHB4_GRP1_ReleaseReset\n
1539:../STM32Cube_FW_N6/Drivers/STM32N6xx_HAL_Driver/Inc/stm32n6xx_ll_bus.h ****   *         AHB4RSTCR     GPIOHRSTC      LL_AHB4_GRP1_ReleaseReset\n
1540:../STM32Cube_FW_N6/Drivers/STM32N6xx_HAL_Driver/Inc/stm32n6xx_ll_bus.h ****   *         AHB4RSTCR     GPIONRSTC      LL_AHB4_GRP1_ReleaseReset\n
1541:../STM32Cube_FW_N6/Drivers/STM32N6xx_HAL_Driver/Inc/stm32n6xx_ll_bus.h ****   *         AHB4RSTCR     GPIOORSTC      LL_AHB4_GRP1_ReleaseReset\n
1542:../STM32Cube_FW_N6/Drivers/STM32N6xx_HAL_Driver/Inc/stm32n6xx_ll_bus.h ****   *         AHB4RSTCR     GPIOPRSTC      LL_AHB4_GRP1_ReleaseReset\n
1543:../STM32Cube_FW_N6/Drivers/STM32N6xx_HAL_Driver/Inc/stm32n6xx_ll_bus.h ****   *         AHB4RSTCR     GPIOQRSTC      LL_AHB4_GRP1_ReleaseReset\n
1544:../STM32Cube_FW_N6/Drivers/STM32N6xx_HAL_Driver/Inc/stm32n6xx_ll_bus.h ****   *         AHB4RSTCR     CRCRSTC        LL_AHB4_GRP1_ReleaseReset\n
1545:../STM32Cube_FW_N6/Drivers/STM32N6xx_HAL_Driver/Inc/stm32n6xx_ll_bus.h ****   *         AHB4RSTCR     BKPRAMRSTC     LL_AHB4_GRP1_ReleaseReset
1546:../STM32Cube_FW_N6/Drivers/STM32N6xx_HAL_Driver/Inc/stm32n6xx_ll_bus.h ****   * @param  Periphs This parameter can be a combination of the following values:
1547:../STM32Cube_FW_N6/Drivers/STM32N6xx_HAL_Driver/Inc/stm32n6xx_ll_bus.h ****   *         @arg @ref LL_AHB4_GRP1_PERIPH_GPIOA
1548:../STM32Cube_FW_N6/Drivers/STM32N6xx_HAL_Driver/Inc/stm32n6xx_ll_bus.h ****   *         @arg @ref LL_AHB4_GRP1_PERIPH_GPIOB
1549:../STM32Cube_FW_N6/Drivers/STM32N6xx_HAL_Driver/Inc/stm32n6xx_ll_bus.h ****   *         @arg @ref LL_AHB4_GRP1_PERIPH_GPIOC
1550:../STM32Cube_FW_N6/Drivers/STM32N6xx_HAL_Driver/Inc/stm32n6xx_ll_bus.h ****   *         @arg @ref LL_AHB4_GRP1_PERIPH_GPIOD
1551:../STM32Cube_FW_N6/Drivers/STM32N6xx_HAL_Driver/Inc/stm32n6xx_ll_bus.h ****   *         @arg @ref LL_AHB4_GRP1_PERIPH_GPIOE
1552:../STM32Cube_FW_N6/Drivers/STM32N6xx_HAL_Driver/Inc/stm32n6xx_ll_bus.h ****   *         @arg @ref LL_AHB4_GRP1_PERIPH_GPIOF
1553:../STM32Cube_FW_N6/Drivers/STM32N6xx_HAL_Driver/Inc/stm32n6xx_ll_bus.h ****   *         @arg @ref LL_AHB4_GRP1_PERIPH_GPIOG
ARM GAS  /tmp/ccN2N8if.s 			page 65


1554:../STM32Cube_FW_N6/Drivers/STM32N6xx_HAL_Driver/Inc/stm32n6xx_ll_bus.h ****   *         @arg @ref LL_AHB4_GRP1_PERIPH_GPIOH
1555:../STM32Cube_FW_N6/Drivers/STM32N6xx_HAL_Driver/Inc/stm32n6xx_ll_bus.h ****   *         @arg @ref LL_AHB4_GRP1_PERIPH_GPION
1556:../STM32Cube_FW_N6/Drivers/STM32N6xx_HAL_Driver/Inc/stm32n6xx_ll_bus.h ****   *         @arg @ref LL_AHB4_GRP1_PERIPH_GPIOO
1557:../STM32Cube_FW_N6/Drivers/STM32N6xx_HAL_Driver/Inc/stm32n6xx_ll_bus.h ****   *         @arg @ref LL_AHB4_GRP1_PERIPH_GPIOP
1558:../STM32Cube_FW_N6/Drivers/STM32N6xx_HAL_Driver/Inc/stm32n6xx_ll_bus.h ****   *         @arg @ref LL_AHB4_GRP1_PERIPH_GPIOQ
1559:../STM32Cube_FW_N6/Drivers/STM32N6xx_HAL_Driver/Inc/stm32n6xx_ll_bus.h ****   *         @arg @ref LL_AHB4_GRP1_PERIPH_PWR
1560:../STM32Cube_FW_N6/Drivers/STM32N6xx_HAL_Driver/Inc/stm32n6xx_ll_bus.h ****   *         @arg @ref LL_AHB4_GRP1_PERIPH_CRC
1561:../STM32Cube_FW_N6/Drivers/STM32N6xx_HAL_Driver/Inc/stm32n6xx_ll_bus.h ****   * @retval None
1562:../STM32Cube_FW_N6/Drivers/STM32N6xx_HAL_Driver/Inc/stm32n6xx_ll_bus.h ****   */
1563:../STM32Cube_FW_N6/Drivers/STM32N6xx_HAL_Driver/Inc/stm32n6xx_ll_bus.h **** __STATIC_INLINE void LL_AHB4_GRP1_ReleaseReset(uint32_t Periphs)
1564:../STM32Cube_FW_N6/Drivers/STM32N6xx_HAL_Driver/Inc/stm32n6xx_ll_bus.h **** {
1565:../STM32Cube_FW_N6/Drivers/STM32N6xx_HAL_Driver/Inc/stm32n6xx_ll_bus.h ****   WRITE_REG(RCC->AHB4RSTCR, Periphs);
1566:../STM32Cube_FW_N6/Drivers/STM32N6xx_HAL_Driver/Inc/stm32n6xx_ll_bus.h **** }
1567:../STM32Cube_FW_N6/Drivers/STM32N6xx_HAL_Driver/Inc/stm32n6xx_ll_bus.h **** 
1568:../STM32Cube_FW_N6/Drivers/STM32N6xx_HAL_Driver/Inc/stm32n6xx_ll_bus.h **** /**
1569:../STM32Cube_FW_N6/Drivers/STM32N6xx_HAL_Driver/Inc/stm32n6xx_ll_bus.h ****   * @brief  Enable AHB4 peripherals clock during Low Power mode.
1570:../STM32Cube_FW_N6/Drivers/STM32N6xx_HAL_Driver/Inc/stm32n6xx_ll_bus.h ****   * @rmtoll AHB4LPENSR    GPIOALPENS     LL_AHB4_GRP1_EnableClockLowPower\n
1571:../STM32Cube_FW_N6/Drivers/STM32N6xx_HAL_Driver/Inc/stm32n6xx_ll_bus.h ****   *         AHB4LPENSR    GPIOBLPENS     LL_AHB4_GRP1_EnableClockLowPower\n
1572:../STM32Cube_FW_N6/Drivers/STM32N6xx_HAL_Driver/Inc/stm32n6xx_ll_bus.h ****   *         AHB4LPENSR    GPIOCLPENS     LL_AHB4_GRP1_EnableClockLowPower\n
1573:../STM32Cube_FW_N6/Drivers/STM32N6xx_HAL_Driver/Inc/stm32n6xx_ll_bus.h ****   *         AHB4LPENSR    GPIODLPENS     LL_AHB4_GRP1_EnableClockLowPower\n
1574:../STM32Cube_FW_N6/Drivers/STM32N6xx_HAL_Driver/Inc/stm32n6xx_ll_bus.h ****   *         AHB4LPENSR    GPIOELPENS     LL_AHB4_GRP1_EnableClockLowPower\n
1575:../STM32Cube_FW_N6/Drivers/STM32N6xx_HAL_Driver/Inc/stm32n6xx_ll_bus.h ****   *         AHB4LPENSR    GPIOFLPENS     LL_AHB4_GRP1_EnableClockLowPower\n
1576:../STM32Cube_FW_N6/Drivers/STM32N6xx_HAL_Driver/Inc/stm32n6xx_ll_bus.h ****   *         AHB4LPENSR    GPIOGLPENS     LL_AHB4_GRP1_EnableClockLowPower\n
1577:../STM32Cube_FW_N6/Drivers/STM32N6xx_HAL_Driver/Inc/stm32n6xx_ll_bus.h ****   *         AHB4LPENSR    GPIOHLPENS     LL_AHB4_GRP1_EnableClockLowPower\n
1578:../STM32Cube_FW_N6/Drivers/STM32N6xx_HAL_Driver/Inc/stm32n6xx_ll_bus.h ****   *         AHB4LPENSR    GPIONLPENS     LL_AHB4_GRP1_EnableClockLowPower\n
1579:../STM32Cube_FW_N6/Drivers/STM32N6xx_HAL_Driver/Inc/stm32n6xx_ll_bus.h ****   *         AHB4LPENSR    GPIOOLPENS     LL_AHB4_GRP1_EnableClockLowPower\n
1580:../STM32Cube_FW_N6/Drivers/STM32N6xx_HAL_Driver/Inc/stm32n6xx_ll_bus.h ****   *         AHB4LPENSR    GPIOPLPENS     LL_AHB4_GRP1_EnableClockLowPower\n
1581:../STM32Cube_FW_N6/Drivers/STM32N6xx_HAL_Driver/Inc/stm32n6xx_ll_bus.h ****   *         AHB4LPENSR    GPIOQLPENS     LL_AHB4_GRP1_EnableClockLowPower\n
1582:../STM32Cube_FW_N6/Drivers/STM32N6xx_HAL_Driver/Inc/stm32n6xx_ll_bus.h ****   *         AHB4LPENSR    CRCLPENS       LL_AHB4_GRP1_EnableClockLowPower\n
1583:../STM32Cube_FW_N6/Drivers/STM32N6xx_HAL_Driver/Inc/stm32n6xx_ll_bus.h ****   *         AHB4LPENSR    BKPRAMLPENS    LL_AHB4_GRP1_EnableClockLowPower
1584:../STM32Cube_FW_N6/Drivers/STM32N6xx_HAL_Driver/Inc/stm32n6xx_ll_bus.h ****   * @param  Periphs This parameter can be a combination of the following values:
1585:../STM32Cube_FW_N6/Drivers/STM32N6xx_HAL_Driver/Inc/stm32n6xx_ll_bus.h ****   *         @arg @ref LL_AHB4_GRP1_PERIPH_GPIOA
1586:../STM32Cube_FW_N6/Drivers/STM32N6xx_HAL_Driver/Inc/stm32n6xx_ll_bus.h ****   *         @arg @ref LL_AHB4_GRP1_PERIPH_GPIOB
1587:../STM32Cube_FW_N6/Drivers/STM32N6xx_HAL_Driver/Inc/stm32n6xx_ll_bus.h ****   *         @arg @ref LL_AHB4_GRP1_PERIPH_GPIOC
1588:../STM32Cube_FW_N6/Drivers/STM32N6xx_HAL_Driver/Inc/stm32n6xx_ll_bus.h ****   *         @arg @ref LL_AHB4_GRP1_PERIPH_GPIOD
1589:../STM32Cube_FW_N6/Drivers/STM32N6xx_HAL_Driver/Inc/stm32n6xx_ll_bus.h ****   *         @arg @ref LL_AHB4_GRP1_PERIPH_GPIOE
1590:../STM32Cube_FW_N6/Drivers/STM32N6xx_HAL_Driver/Inc/stm32n6xx_ll_bus.h ****   *         @arg @ref LL_AHB4_GRP1_PERIPH_GPIOF
1591:../STM32Cube_FW_N6/Drivers/STM32N6xx_HAL_Driver/Inc/stm32n6xx_ll_bus.h ****   *         @arg @ref LL_AHB4_GRP1_PERIPH_GPIOG
1592:../STM32Cube_FW_N6/Drivers/STM32N6xx_HAL_Driver/Inc/stm32n6xx_ll_bus.h ****   *         @arg @ref LL_AHB4_GRP1_PERIPH_GPIOH
1593:../STM32Cube_FW_N6/Drivers/STM32N6xx_HAL_Driver/Inc/stm32n6xx_ll_bus.h ****   *         @arg @ref LL_AHB4_GRP1_PERIPH_GPION
1594:../STM32Cube_FW_N6/Drivers/STM32N6xx_HAL_Driver/Inc/stm32n6xx_ll_bus.h ****   *         @arg @ref LL_AHB4_GRP1_PERIPH_GPIOO
1595:../STM32Cube_FW_N6/Drivers/STM32N6xx_HAL_Driver/Inc/stm32n6xx_ll_bus.h ****   *         @arg @ref LL_AHB4_GRP1_PERIPH_GPIOP
1596:../STM32Cube_FW_N6/Drivers/STM32N6xx_HAL_Driver/Inc/stm32n6xx_ll_bus.h ****   *         @arg @ref LL_AHB4_GRP1_PERIPH_GPIOQ
1597:../STM32Cube_FW_N6/Drivers/STM32N6xx_HAL_Driver/Inc/stm32n6xx_ll_bus.h ****   *         @arg @ref LL_AHB4_GRP1_PERIPH_PWR
1598:../STM32Cube_FW_N6/Drivers/STM32N6xx_HAL_Driver/Inc/stm32n6xx_ll_bus.h ****   *         @arg @ref LL_AHB4_GRP1_PERIPH_CRC
1599:../STM32Cube_FW_N6/Drivers/STM32N6xx_HAL_Driver/Inc/stm32n6xx_ll_bus.h ****   * @retval None
1600:../STM32Cube_FW_N6/Drivers/STM32N6xx_HAL_Driver/Inc/stm32n6xx_ll_bus.h ****   */
1601:../STM32Cube_FW_N6/Drivers/STM32N6xx_HAL_Driver/Inc/stm32n6xx_ll_bus.h **** __STATIC_INLINE void LL_AHB4_GRP1_EnableClockLowPower(uint32_t Periphs)
 1231              		.loc 2 1601 22 view .LVU401
 1232              	.LBB112:
1602:../STM32Cube_FW_N6/Drivers/STM32N6xx_HAL_Driver/Inc/stm32n6xx_ll_bus.h **** {
1603:../STM32Cube_FW_N6/Drivers/STM32N6xx_HAL_Driver/Inc/stm32n6xx_ll_bus.h ****   __IO uint32_t tmpreg;
 1233              		.loc 2 1603 3 view .LVU402
1604:../STM32Cube_FW_N6/Drivers/STM32N6xx_HAL_Driver/Inc/stm32n6xx_ll_bus.h ****   WRITE_REG(RCC->AHB4LPENSR, Periphs);
 1234              		.loc 2 1604 3 view .LVU403
 1235 003c C4F89C3A 		str	r3, [r4, #2716]
1605:../STM32Cube_FW_N6/Drivers/STM32N6xx_HAL_Driver/Inc/stm32n6xx_ll_bus.h ****   /* Delay after an RCC peripheral clock enabling */
ARM GAS  /tmp/ccN2N8if.s 			page 66


1606:../STM32Cube_FW_N6/Drivers/STM32N6xx_HAL_Driver/Inc/stm32n6xx_ll_bus.h ****   tmpreg = READ_REG(RCC->AHB4LPENR);
 1236              		.loc 2 1606 3 view .LVU404
 1237              		.loc 2 1606 12 is_stmt 0 view .LVU405
 1238 0040 D4F89C32 		ldr	r3, [r4, #668]
 1239              		.loc 2 1606 10 view .LVU406
 1240 0044 0093     		str	r3, [sp]
1607:../STM32Cube_FW_N6/Drivers/STM32N6xx_HAL_Driver/Inc/stm32n6xx_ll_bus.h ****   (void)tmpreg;
 1241              		.loc 2 1607 3 is_stmt 1 view .LVU407
 1242 0046 009B     		ldr	r3, [sp]
 1243              	.LVL84:
 1244              		.loc 2 1607 3 is_stmt 0 view .LVU408
 1245              	.LBE112:
 1246              	.LBE111:
 525:../Middlewares/screenl/Src/scrl_usb.c **** 
 526:../Middlewares/screenl/Src/scrl_usb.c ****   /* Enable the VDD33USB independent USB 33 voltage monitor */
 527:../Middlewares/screenl/Src/scrl_usb.c ****   HAL_PWREx_EnableVddUSBVMEN();
 1247              		.loc 1 527 3 is_stmt 1 view .LVU409
 1248 0048 FFF7FEFF 		bl	HAL_PWREx_EnableVddUSBVMEN
 1249              	.LVL85:
 528:../Middlewares/screenl/Src/scrl_usb.c **** 
 529:../Middlewares/screenl/Src/scrl_usb.c ****   /* Wait until VDD33USB is ready */
 530:../Middlewares/screenl/Src/scrl_usb.c ****   while (__HAL_PWR_GET_FLAG(PWR_FLAG_USB33RDY) == 0U);
 1250              		.loc 1 530 3 view .LVU410
 1251              		.loc 1 530 10 is_stmt 0 discriminator 1 view .LVU411
 1252 004c 214A     		ldr	r2, .L67+28
 1253              	.L63:
 1254              		.loc 1 530 48 is_stmt 1 discriminator 1 view .LVU412
 1255              		.loc 1 530 10 is_stmt 0 discriminator 1 view .LVU413
 1256 004e D36B     		ldr	r3, [r2, #60]
 1257              		.loc 1 530 48 discriminator 1 view .LVU414
 1258 0050 5B03     		lsls	r3, r3, #13
 1259 0052 FCD5     		bpl	.L63
 531:../Middlewares/screenl/Src/scrl_usb.c **** 
 532:../Middlewares/screenl/Src/scrl_usb.c ****   /* Enable VDDUSB supply */
 533:../Middlewares/screenl/Src/scrl_usb.c ****   HAL_PWREx_EnableVddUSB();
 1260              		.loc 1 533 3 is_stmt 1 view .LVU415
 1261 0054 FFF7FEFF 		bl	HAL_PWREx_EnableVddUSB
 1262              	.LVL86:
 534:../Middlewares/screenl/Src/scrl_usb.c **** 
 535:../Middlewares/screenl/Src/scrl_usb.c ****   /* Enable USB1 OTG clock */
 536:../Middlewares/screenl/Src/scrl_usb.c ****   __HAL_RCC_USB1_OTG_HS_CLK_ENABLE();
 1263              		.loc 1 536 3 view .LVU416
 1264              	.LBB113:
 1265              	.LBI113:
1608:../STM32Cube_FW_N6/Drivers/STM32N6xx_HAL_Driver/Inc/stm32n6xx_ll_bus.h **** }
1609:../STM32Cube_FW_N6/Drivers/STM32N6xx_HAL_Driver/Inc/stm32n6xx_ll_bus.h **** 
1610:../STM32Cube_FW_N6/Drivers/STM32N6xx_HAL_Driver/Inc/stm32n6xx_ll_bus.h **** /**
1611:../STM32Cube_FW_N6/Drivers/STM32N6xx_HAL_Driver/Inc/stm32n6xx_ll_bus.h ****   * @brief  Check if AHB4 peripheral clock during Low Power mode is enabled or not .
1612:../STM32Cube_FW_N6/Drivers/STM32N6xx_HAL_Driver/Inc/stm32n6xx_ll_bus.h ****   * @rmtoll AHB4LPENR     GPIOALPEN      LL_AHB4_GRP1_IsEnabledClockLowPower\n
1613:../STM32Cube_FW_N6/Drivers/STM32N6xx_HAL_Driver/Inc/stm32n6xx_ll_bus.h ****   *         AHB4LPENR     GPIOBLPEN      LL_AHB4_GRP1_IsEnabledClockLowPower\n
1614:../STM32Cube_FW_N6/Drivers/STM32N6xx_HAL_Driver/Inc/stm32n6xx_ll_bus.h ****   *         AHB4LPENR     GPIOCLPEN      LL_AHB4_GRP1_IsEnabledClockLowPower\n
1615:../STM32Cube_FW_N6/Drivers/STM32N6xx_HAL_Driver/Inc/stm32n6xx_ll_bus.h ****   *         AHB4LPENR     GPIODLPEN      LL_AHB4_GRP1_IsEnabledClockLowPower\n
1616:../STM32Cube_FW_N6/Drivers/STM32N6xx_HAL_Driver/Inc/stm32n6xx_ll_bus.h ****   *         AHB4LPENR     GPIOELPEN      LL_AHB4_GRP1_IsEnabledClockLowPower\n
1617:../STM32Cube_FW_N6/Drivers/STM32N6xx_HAL_Driver/Inc/stm32n6xx_ll_bus.h ****   *         AHB4LPENR     GPIOFLPEN      LL_AHB4_GRP1_IsEnabledClockLowPower\n
1618:../STM32Cube_FW_N6/Drivers/STM32N6xx_HAL_Driver/Inc/stm32n6xx_ll_bus.h ****   *         AHB4LPENR     GPIOGLPEN      LL_AHB4_GRP1_IsEnabledClockLowPower\n
1619:../STM32Cube_FW_N6/Drivers/STM32N6xx_HAL_Driver/Inc/stm32n6xx_ll_bus.h ****   *         AHB4LPENR     GPIOHLPEN      LL_AHB4_GRP1_IsEnabledClockLowPower\n
1620:../STM32Cube_FW_N6/Drivers/STM32N6xx_HAL_Driver/Inc/stm32n6xx_ll_bus.h ****   *         AHB4LPENR     GPIONLPEN      LL_AHB4_GRP1_IsEnabledClockLowPower\n
ARM GAS  /tmp/ccN2N8if.s 			page 67


1621:../STM32Cube_FW_N6/Drivers/STM32N6xx_HAL_Driver/Inc/stm32n6xx_ll_bus.h ****   *         AHB4LPENR     GPIOOLPEN      LL_AHB4_GRP1_IsEnabledClockLowPower\n
1622:../STM32Cube_FW_N6/Drivers/STM32N6xx_HAL_Driver/Inc/stm32n6xx_ll_bus.h ****   *         AHB4LPENR     GPIOPLPEN      LL_AHB4_GRP1_IsEnabledClockLowPower\n
1623:../STM32Cube_FW_N6/Drivers/STM32N6xx_HAL_Driver/Inc/stm32n6xx_ll_bus.h ****   *         AHB4LPENR     GPIOQLPEN      LL_AHB4_GRP1_IsEnabledClockLowPower\n
1624:../STM32Cube_FW_N6/Drivers/STM32N6xx_HAL_Driver/Inc/stm32n6xx_ll_bus.h ****   *         AHB4LPENR     PWRLPEN        LL_AHB4_GRP1_IsEnabledClockLowPower\n
1625:../STM32Cube_FW_N6/Drivers/STM32N6xx_HAL_Driver/Inc/stm32n6xx_ll_bus.h ****   *         AHB4LPENR     CRCLPEN        LL_AHB4_GRP1_IsEnabledClockLowPower
1626:../STM32Cube_FW_N6/Drivers/STM32N6xx_HAL_Driver/Inc/stm32n6xx_ll_bus.h ****   * @param  Periphs This parameter can be a combination of the following values:
1627:../STM32Cube_FW_N6/Drivers/STM32N6xx_HAL_Driver/Inc/stm32n6xx_ll_bus.h ****   *         @arg @ref LL_AHB4_GRP1_PERIPH_GPIOA
1628:../STM32Cube_FW_N6/Drivers/STM32N6xx_HAL_Driver/Inc/stm32n6xx_ll_bus.h ****   *         @arg @ref LL_AHB4_GRP1_PERIPH_GPIOB
1629:../STM32Cube_FW_N6/Drivers/STM32N6xx_HAL_Driver/Inc/stm32n6xx_ll_bus.h ****   *         @arg @ref LL_AHB4_GRP1_PERIPH_GPIOC
1630:../STM32Cube_FW_N6/Drivers/STM32N6xx_HAL_Driver/Inc/stm32n6xx_ll_bus.h ****   *         @arg @ref LL_AHB4_GRP1_PERIPH_GPIOD
1631:../STM32Cube_FW_N6/Drivers/STM32N6xx_HAL_Driver/Inc/stm32n6xx_ll_bus.h ****   *         @arg @ref LL_AHB4_GRP1_PERIPH_GPIOE
1632:../STM32Cube_FW_N6/Drivers/STM32N6xx_HAL_Driver/Inc/stm32n6xx_ll_bus.h ****   *         @arg @ref LL_AHB4_GRP1_PERIPH_GPIOF
1633:../STM32Cube_FW_N6/Drivers/STM32N6xx_HAL_Driver/Inc/stm32n6xx_ll_bus.h ****   *         @arg @ref LL_AHB4_GRP1_PERIPH_GPIOG
1634:../STM32Cube_FW_N6/Drivers/STM32N6xx_HAL_Driver/Inc/stm32n6xx_ll_bus.h ****   *         @arg @ref LL_AHB4_GRP1_PERIPH_GPIOH
1635:../STM32Cube_FW_N6/Drivers/STM32N6xx_HAL_Driver/Inc/stm32n6xx_ll_bus.h ****   *         @arg @ref LL_AHB4_GRP1_PERIPH_GPION
1636:../STM32Cube_FW_N6/Drivers/STM32N6xx_HAL_Driver/Inc/stm32n6xx_ll_bus.h ****   *         @arg @ref LL_AHB4_GRP1_PERIPH_GPIOO
1637:../STM32Cube_FW_N6/Drivers/STM32N6xx_HAL_Driver/Inc/stm32n6xx_ll_bus.h ****   *         @arg @ref LL_AHB4_GRP1_PERIPH_GPIOP
1638:../STM32Cube_FW_N6/Drivers/STM32N6xx_HAL_Driver/Inc/stm32n6xx_ll_bus.h ****   *         @arg @ref LL_AHB4_GRP1_PERIPH_GPIOQ
1639:../STM32Cube_FW_N6/Drivers/STM32N6xx_HAL_Driver/Inc/stm32n6xx_ll_bus.h ****   *         @arg @ref LL_AHB4_GRP1_PERIPH_PWR
1640:../STM32Cube_FW_N6/Drivers/STM32N6xx_HAL_Driver/Inc/stm32n6xx_ll_bus.h ****   *         @arg @ref LL_AHB4_GRP1_PERIPH_CRC
1641:../STM32Cube_FW_N6/Drivers/STM32N6xx_HAL_Driver/Inc/stm32n6xx_ll_bus.h ****   * @retval uint32_t
1642:../STM32Cube_FW_N6/Drivers/STM32N6xx_HAL_Driver/Inc/stm32n6xx_ll_bus.h ****   */
1643:../STM32Cube_FW_N6/Drivers/STM32N6xx_HAL_Driver/Inc/stm32n6xx_ll_bus.h **** __STATIC_INLINE uint32_t LL_AHB4_GRP1_IsEnabledClockLowPower(uint32_t Periphs)
1644:../STM32Cube_FW_N6/Drivers/STM32N6xx_HAL_Driver/Inc/stm32n6xx_ll_bus.h **** {
1645:../STM32Cube_FW_N6/Drivers/STM32N6xx_HAL_Driver/Inc/stm32n6xx_ll_bus.h ****   return ((READ_BIT(RCC->AHB4LPENR, Periphs) == Periphs) ? 1UL : 0UL);
1646:../STM32Cube_FW_N6/Drivers/STM32N6xx_HAL_Driver/Inc/stm32n6xx_ll_bus.h **** }
1647:../STM32Cube_FW_N6/Drivers/STM32N6xx_HAL_Driver/Inc/stm32n6xx_ll_bus.h **** 
1648:../STM32Cube_FW_N6/Drivers/STM32N6xx_HAL_Driver/Inc/stm32n6xx_ll_bus.h **** /**
1649:../STM32Cube_FW_N6/Drivers/STM32N6xx_HAL_Driver/Inc/stm32n6xx_ll_bus.h ****   * @brief  Disable AHB4 peripherals clock during Low Power mode.
1650:../STM32Cube_FW_N6/Drivers/STM32N6xx_HAL_Driver/Inc/stm32n6xx_ll_bus.h ****   * @rmtoll AHB4LPENCR    GPIOALPENC     LL_AHB4_GRP1_DisableClockLowPower\n
1651:../STM32Cube_FW_N6/Drivers/STM32N6xx_HAL_Driver/Inc/stm32n6xx_ll_bus.h ****   *         AHB4LPENCR    GPIOBLPENC     LL_AHB4_GRP1_DisableClockLowPower\n
1652:../STM32Cube_FW_N6/Drivers/STM32N6xx_HAL_Driver/Inc/stm32n6xx_ll_bus.h ****   *         AHB4LPENCR    GPIOCLPENC     LL_AHB4_GRP1_DisableClockLowPower\n
1653:../STM32Cube_FW_N6/Drivers/STM32N6xx_HAL_Driver/Inc/stm32n6xx_ll_bus.h ****   *         AHB4LPENCR    GPIODLPENC     LL_AHB4_GRP1_DisableClockLowPower\n
1654:../STM32Cube_FW_N6/Drivers/STM32N6xx_HAL_Driver/Inc/stm32n6xx_ll_bus.h ****   *         AHB4LPENCR    GPIOELPENC     LL_AHB4_GRP1_DisableClockLowPower\n
1655:../STM32Cube_FW_N6/Drivers/STM32N6xx_HAL_Driver/Inc/stm32n6xx_ll_bus.h ****   *         AHB4LPENCR    GPIOFLPENC     LL_AHB4_GRP1_DisableClockLowPower\n
1656:../STM32Cube_FW_N6/Drivers/STM32N6xx_HAL_Driver/Inc/stm32n6xx_ll_bus.h ****   *         AHB4LPENCR    GPIOGLPENC     LL_AHB4_GRP1_DisableClockLowPower\n
1657:../STM32Cube_FW_N6/Drivers/STM32N6xx_HAL_Driver/Inc/stm32n6xx_ll_bus.h ****   *         AHB4LPENCR    GPIOHLPENC     LL_AHB4_GRP1_DisableClockLowPower\n
1658:../STM32Cube_FW_N6/Drivers/STM32N6xx_HAL_Driver/Inc/stm32n6xx_ll_bus.h ****   *         AHB4LPENCR    GPIONLPENC     LL_AHB4_GRP1_DisableClockLowPower\n
1659:../STM32Cube_FW_N6/Drivers/STM32N6xx_HAL_Driver/Inc/stm32n6xx_ll_bus.h ****   *         AHB4LPENCR    GPIOOLPENC     LL_AHB4_GRP1_DisableClockLowPower\n
1660:../STM32Cube_FW_N6/Drivers/STM32N6xx_HAL_Driver/Inc/stm32n6xx_ll_bus.h ****   *         AHB4LPENCR    GPIOPLPENC     LL_AHB4_GRP1_DisableClockLowPower\n
1661:../STM32Cube_FW_N6/Drivers/STM32N6xx_HAL_Driver/Inc/stm32n6xx_ll_bus.h ****   *         AHB4LPENCR    GPIOQLPENC     LL_AHB4_GRP1_DisableClockLowPower\n
1662:../STM32Cube_FW_N6/Drivers/STM32N6xx_HAL_Driver/Inc/stm32n6xx_ll_bus.h ****   *         AHB4LPENCR    PWRLPENC       LL_AHB4_GRP1_DisableClockLowPower\n
1663:../STM32Cube_FW_N6/Drivers/STM32N6xx_HAL_Driver/Inc/stm32n6xx_ll_bus.h ****   *         AHB4LPENCR    CRCLPENC       LL_AHB4_GRP1_DisableClockLowPower
1664:../STM32Cube_FW_N6/Drivers/STM32N6xx_HAL_Driver/Inc/stm32n6xx_ll_bus.h ****   * @param  Periphs This parameter can be a combination of the following values:
1665:../STM32Cube_FW_N6/Drivers/STM32N6xx_HAL_Driver/Inc/stm32n6xx_ll_bus.h ****   *         @arg @ref LL_AHB4_GRP1_PERIPH_GPIOA
1666:../STM32Cube_FW_N6/Drivers/STM32N6xx_HAL_Driver/Inc/stm32n6xx_ll_bus.h ****   *         @arg @ref LL_AHB4_GRP1_PERIPH_GPIOB
1667:../STM32Cube_FW_N6/Drivers/STM32N6xx_HAL_Driver/Inc/stm32n6xx_ll_bus.h ****   *         @arg @ref LL_AHB4_GRP1_PERIPH_GPIOC
1668:../STM32Cube_FW_N6/Drivers/STM32N6xx_HAL_Driver/Inc/stm32n6xx_ll_bus.h ****   *         @arg @ref LL_AHB4_GRP1_PERIPH_GPIOD
1669:../STM32Cube_FW_N6/Drivers/STM32N6xx_HAL_Driver/Inc/stm32n6xx_ll_bus.h ****   *         @arg @ref LL_AHB4_GRP1_PERIPH_GPIOE
1670:../STM32Cube_FW_N6/Drivers/STM32N6xx_HAL_Driver/Inc/stm32n6xx_ll_bus.h ****   *         @arg @ref LL_AHB4_GRP1_PERIPH_GPIOF
1671:../STM32Cube_FW_N6/Drivers/STM32N6xx_HAL_Driver/Inc/stm32n6xx_ll_bus.h ****   *         @arg @ref LL_AHB4_GRP1_PERIPH_GPIOG
1672:../STM32Cube_FW_N6/Drivers/STM32N6xx_HAL_Driver/Inc/stm32n6xx_ll_bus.h ****   *         @arg @ref LL_AHB4_GRP1_PERIPH_GPIOH
1673:../STM32Cube_FW_N6/Drivers/STM32N6xx_HAL_Driver/Inc/stm32n6xx_ll_bus.h ****   *         @arg @ref LL_AHB4_GRP1_PERIPH_GPION
1674:../STM32Cube_FW_N6/Drivers/STM32N6xx_HAL_Driver/Inc/stm32n6xx_ll_bus.h ****   *         @arg @ref LL_AHB4_GRP1_PERIPH_GPIOO
1675:../STM32Cube_FW_N6/Drivers/STM32N6xx_HAL_Driver/Inc/stm32n6xx_ll_bus.h ****   *         @arg @ref LL_AHB4_GRP1_PERIPH_GPIOP
1676:../STM32Cube_FW_N6/Drivers/STM32N6xx_HAL_Driver/Inc/stm32n6xx_ll_bus.h ****   *         @arg @ref LL_AHB4_GRP1_PERIPH_GPIOQ
1677:../STM32Cube_FW_N6/Drivers/STM32N6xx_HAL_Driver/Inc/stm32n6xx_ll_bus.h ****   *         @arg @ref LL_AHB4_GRP1_PERIPH_PWR
ARM GAS  /tmp/ccN2N8if.s 			page 68


1678:../STM32Cube_FW_N6/Drivers/STM32N6xx_HAL_Driver/Inc/stm32n6xx_ll_bus.h ****   *         @arg @ref LL_AHB4_GRP1_PERIPH_CRC
1679:../STM32Cube_FW_N6/Drivers/STM32N6xx_HAL_Driver/Inc/stm32n6xx_ll_bus.h ****   * @retval None
1680:../STM32Cube_FW_N6/Drivers/STM32N6xx_HAL_Driver/Inc/stm32n6xx_ll_bus.h ****   */
1681:../STM32Cube_FW_N6/Drivers/STM32N6xx_HAL_Driver/Inc/stm32n6xx_ll_bus.h **** __STATIC_INLINE void LL_AHB4_GRP1_DisableClockLowPower(uint32_t Periphs)
1682:../STM32Cube_FW_N6/Drivers/STM32N6xx_HAL_Driver/Inc/stm32n6xx_ll_bus.h **** {
1683:../STM32Cube_FW_N6/Drivers/STM32N6xx_HAL_Driver/Inc/stm32n6xx_ll_bus.h ****   WRITE_REG(RCC->AHB4LPENCR, Periphs);
1684:../STM32Cube_FW_N6/Drivers/STM32N6xx_HAL_Driver/Inc/stm32n6xx_ll_bus.h **** }
1685:../STM32Cube_FW_N6/Drivers/STM32N6xx_HAL_Driver/Inc/stm32n6xx_ll_bus.h **** 
1686:../STM32Cube_FW_N6/Drivers/STM32N6xx_HAL_Driver/Inc/stm32n6xx_ll_bus.h **** /**
1687:../STM32Cube_FW_N6/Drivers/STM32N6xx_HAL_Driver/Inc/stm32n6xx_ll_bus.h ****   * @}
1688:../STM32Cube_FW_N6/Drivers/STM32N6xx_HAL_Driver/Inc/stm32n6xx_ll_bus.h ****   */
1689:../STM32Cube_FW_N6/Drivers/STM32N6xx_HAL_Driver/Inc/stm32n6xx_ll_bus.h **** 
1690:../STM32Cube_FW_N6/Drivers/STM32N6xx_HAL_Driver/Inc/stm32n6xx_ll_bus.h **** /** @defgroup BUS_LL_EF_AHB5 AHB5
1691:../STM32Cube_FW_N6/Drivers/STM32N6xx_HAL_Driver/Inc/stm32n6xx_ll_bus.h ****   * @{
1692:../STM32Cube_FW_N6/Drivers/STM32N6xx_HAL_Driver/Inc/stm32n6xx_ll_bus.h ****   */
1693:../STM32Cube_FW_N6/Drivers/STM32N6xx_HAL_Driver/Inc/stm32n6xx_ll_bus.h **** 
1694:../STM32Cube_FW_N6/Drivers/STM32N6xx_HAL_Driver/Inc/stm32n6xx_ll_bus.h **** /**
1695:../STM32Cube_FW_N6/Drivers/STM32N6xx_HAL_Driver/Inc/stm32n6xx_ll_bus.h ****   * @brief  Enable AHB5 peripherals clock.
1696:../STM32Cube_FW_N6/Drivers/STM32N6xx_HAL_Driver/Inc/stm32n6xx_ll_bus.h ****   * @rmtoll AHB5ENSR     HPDMA1ENS     LL_AHB5_GRP1_EnableClock\n
1697:../STM32Cube_FW_N6/Drivers/STM32N6xx_HAL_Driver/Inc/stm32n6xx_ll_bus.h ****   *         AHB5ENSR     DMA2DENS      LL_AHB5_GRP1_EnableClock\n
1698:../STM32Cube_FW_N6/Drivers/STM32N6xx_HAL_Driver/Inc/stm32n6xx_ll_bus.h ****   *         AHB5ENSR     JPEGENS       LL_AHB5_GRP1_EnableClock\n
1699:../STM32Cube_FW_N6/Drivers/STM32N6xx_HAL_Driver/Inc/stm32n6xx_ll_bus.h ****   *         AHB5ENSR     FMCENS        LL_AHB5_GRP1_EnableClock\n
1700:../STM32Cube_FW_N6/Drivers/STM32N6xx_HAL_Driver/Inc/stm32n6xx_ll_bus.h ****   *         AHB5ENSR     XSPI1ENS      LL_AHB5_GRP1_EnableClock\n
1701:../STM32Cube_FW_N6/Drivers/STM32N6xx_HAL_Driver/Inc/stm32n6xx_ll_bus.h ****   *         AHB5ENSR     PSSIENS       LL_AHB5_GRP1_EnableClock\n
1702:../STM32Cube_FW_N6/Drivers/STM32N6xx_HAL_Driver/Inc/stm32n6xx_ll_bus.h ****   *         AHB5ENSR     SDMMC2ENS     LL_AHB5_GRP1_EnableClock\n
1703:../STM32Cube_FW_N6/Drivers/STM32N6xx_HAL_Driver/Inc/stm32n6xx_ll_bus.h ****   *         AHB5ENSR     SDMMC1ENS     LL_AHB5_GRP1_EnableClock\n
1704:../STM32Cube_FW_N6/Drivers/STM32N6xx_HAL_Driver/Inc/stm32n6xx_ll_bus.h ****   *         AHB5ENSR     XSPI2ENS      LL_AHB5_GRP1_EnableClock\n
1705:../STM32Cube_FW_N6/Drivers/STM32N6xx_HAL_Driver/Inc/stm32n6xx_ll_bus.h ****   *         AHB5ENSR     XSPIMENS      LL_AHB5_GRP1_EnableClock\n
1706:../STM32Cube_FW_N6/Drivers/STM32N6xx_HAL_Driver/Inc/stm32n6xx_ll_bus.h ****   *         AHB5ENSR     MCE1ENS       LL_AHB5_GRP1_EnableClock\n (*)
1707:../STM32Cube_FW_N6/Drivers/STM32N6xx_HAL_Driver/Inc/stm32n6xx_ll_bus.h ****   *         AHB5ENSR     MCE2ENS       LL_AHB5_GRP1_EnableClock\n (*)
1708:../STM32Cube_FW_N6/Drivers/STM32N6xx_HAL_Driver/Inc/stm32n6xx_ll_bus.h ****   *         AHB5ENSR     MCE3ENS       LL_AHB5_GRP1_EnableClock\n (*)
1709:../STM32Cube_FW_N6/Drivers/STM32N6xx_HAL_Driver/Inc/stm32n6xx_ll_bus.h ****   *         AHB5ENSR     XSPI3ENS      LL_AHB5_GRP1_EnableClock\n
1710:../STM32Cube_FW_N6/Drivers/STM32N6xx_HAL_Driver/Inc/stm32n6xx_ll_bus.h ****   *         AHB5ENSR     MCE4ENS       LL_AHB5_GRP1_EnableClock\n (*)
1711:../STM32Cube_FW_N6/Drivers/STM32N6xx_HAL_Driver/Inc/stm32n6xx_ll_bus.h ****   *         AHB5ENSR     GFXMMUENS     LL_AHB5_GRP1_EnableClock\n
1712:../STM32Cube_FW_N6/Drivers/STM32N6xx_HAL_Driver/Inc/stm32n6xx_ll_bus.h ****   *         AHB5ENSR     GPU2DENS      LL_AHB5_GRP1_EnableClock\n
1713:../STM32Cube_FW_N6/Drivers/STM32N6xx_HAL_Driver/Inc/stm32n6xx_ll_bus.h ****   *         AHB5ENSR     ETH1MACENS    LL_AHB5_GRP1_EnableClock\n
1714:../STM32Cube_FW_N6/Drivers/STM32N6xx_HAL_Driver/Inc/stm32n6xx_ll_bus.h ****   *         AHB5ENSR     ETH1TXENS     LL_AHB5_GRP1_EnableClock\n
1715:../STM32Cube_FW_N6/Drivers/STM32N6xx_HAL_Driver/Inc/stm32n6xx_ll_bus.h ****   *         AHB5ENSR     ETH1RXENS     LL_AHB5_GRP1_EnableClock\n
1716:../STM32Cube_FW_N6/Drivers/STM32N6xx_HAL_Driver/Inc/stm32n6xx_ll_bus.h ****   *         AHB5ENSR     ETH1ENS       LL_AHB5_GRP1_EnableClock\n
1717:../STM32Cube_FW_N6/Drivers/STM32N6xx_HAL_Driver/Inc/stm32n6xx_ll_bus.h ****   *         AHB5ENSR     OTG1ENS       LL_AHB5_GRP1_EnableClock\n
1718:../STM32Cube_FW_N6/Drivers/STM32N6xx_HAL_Driver/Inc/stm32n6xx_ll_bus.h ****   *         AHB5ENSR     OTGPHY1ENS    LL_AHB5_GRP1_EnableClock\n
1719:../STM32Cube_FW_N6/Drivers/STM32N6xx_HAL_Driver/Inc/stm32n6xx_ll_bus.h ****   *         AHB5ENSR     OTGPHY2ENS    LL_AHB5_GRP1_EnableClock\n
1720:../STM32Cube_FW_N6/Drivers/STM32N6xx_HAL_Driver/Inc/stm32n6xx_ll_bus.h ****   *         AHB5ENSR     OTG2ENS       LL_AHB5_GRP1_EnableClock\n
1721:../STM32Cube_FW_N6/Drivers/STM32N6xx_HAL_Driver/Inc/stm32n6xx_ll_bus.h ****   *         AHB5ENSR     CACHEAXIENS   LL_AHB5_GRP1_EnableClock\n
1722:../STM32Cube_FW_N6/Drivers/STM32N6xx_HAL_Driver/Inc/stm32n6xx_ll_bus.h ****   *         AHB5ENSR     NPUENS        LL_AHB5_GRP1_EnableClock
1723:../STM32Cube_FW_N6/Drivers/STM32N6xx_HAL_Driver/Inc/stm32n6xx_ll_bus.h ****   * @param  Periphs This parameter can be a combination of the following values:
1724:../STM32Cube_FW_N6/Drivers/STM32N6xx_HAL_Driver/Inc/stm32n6xx_ll_bus.h ****   *         @arg @ref LL_AHB5_GRP1_PERIPH_HPDMA1
1725:../STM32Cube_FW_N6/Drivers/STM32N6xx_HAL_Driver/Inc/stm32n6xx_ll_bus.h ****   *         @arg @ref LL_AHB5_GRP1_PERIPH_DMA2D
1726:../STM32Cube_FW_N6/Drivers/STM32N6xx_HAL_Driver/Inc/stm32n6xx_ll_bus.h ****   *         @arg @ref LL_AHB5_GRP1_PERIPH_JPEG
1727:../STM32Cube_FW_N6/Drivers/STM32N6xx_HAL_Driver/Inc/stm32n6xx_ll_bus.h ****   *         @arg @ref LL_AHB5_GRP1_PERIPH_FMC
1728:../STM32Cube_FW_N6/Drivers/STM32N6xx_HAL_Driver/Inc/stm32n6xx_ll_bus.h ****   *         @arg @ref LL_AHB5_GRP1_PERIPH_XSPI1
1729:../STM32Cube_FW_N6/Drivers/STM32N6xx_HAL_Driver/Inc/stm32n6xx_ll_bus.h ****   *         @arg @ref LL_AHB5_GRP1_PERIPH_XSPI2
1730:../STM32Cube_FW_N6/Drivers/STM32N6xx_HAL_Driver/Inc/stm32n6xx_ll_bus.h ****   *         @arg @ref LL_AHB5_GRP1_PERIPH_XSPI3
1731:../STM32Cube_FW_N6/Drivers/STM32N6xx_HAL_Driver/Inc/stm32n6xx_ll_bus.h ****   *         @arg @ref LL_AHB5_GRP1_PERIPH_XSPIM
1732:../STM32Cube_FW_N6/Drivers/STM32N6xx_HAL_Driver/Inc/stm32n6xx_ll_bus.h ****   *         @arg @ref LL_AHB5_GRP1_PERIPH_PSSI
1733:../STM32Cube_FW_N6/Drivers/STM32N6xx_HAL_Driver/Inc/stm32n6xx_ll_bus.h ****   *         @arg @ref LL_AHB5_GRP1_PERIPH_SDMMC1
1734:../STM32Cube_FW_N6/Drivers/STM32N6xx_HAL_Driver/Inc/stm32n6xx_ll_bus.h ****   *         @arg @ref LL_AHB5_GRP1_PERIPH_SDMMC2
ARM GAS  /tmp/ccN2N8if.s 			page 69


1735:../STM32Cube_FW_N6/Drivers/STM32N6xx_HAL_Driver/Inc/stm32n6xx_ll_bus.h ****   *         @arg @ref LL_AHB5_GRP1_PERIPH_MCE1 (*)
1736:../STM32Cube_FW_N6/Drivers/STM32N6xx_HAL_Driver/Inc/stm32n6xx_ll_bus.h ****   *         @arg @ref LL_AHB5_GRP1_PERIPH_MCE2 (*)
1737:../STM32Cube_FW_N6/Drivers/STM32N6xx_HAL_Driver/Inc/stm32n6xx_ll_bus.h ****   *         @arg @ref LL_AHB5_GRP1_PERIPH_MCE3 (*)
1738:../STM32Cube_FW_N6/Drivers/STM32N6xx_HAL_Driver/Inc/stm32n6xx_ll_bus.h ****   *         @arg @ref LL_AHB5_GRP1_PERIPH_MCE4 (*)
1739:../STM32Cube_FW_N6/Drivers/STM32N6xx_HAL_Driver/Inc/stm32n6xx_ll_bus.h ****   *         @arg @ref LL_AHB5_GRP1_PERIPH_GFXMMU
1740:../STM32Cube_FW_N6/Drivers/STM32N6xx_HAL_Driver/Inc/stm32n6xx_ll_bus.h ****   *         @arg @ref LL_AHB5_GRP1_PERIPH_GPU2D
1741:../STM32Cube_FW_N6/Drivers/STM32N6xx_HAL_Driver/Inc/stm32n6xx_ll_bus.h ****   *         @arg @ref LL_AHB5_GRP1_PERIPH_ETH1
1742:../STM32Cube_FW_N6/Drivers/STM32N6xx_HAL_Driver/Inc/stm32n6xx_ll_bus.h ****   *         @arg @ref LL_AHB5_GRP1_PERIPH_ETH1MAC
1743:../STM32Cube_FW_N6/Drivers/STM32N6xx_HAL_Driver/Inc/stm32n6xx_ll_bus.h ****   *         @arg @ref LL_AHB5_GRP1_PERIPH_ETH1TX
1744:../STM32Cube_FW_N6/Drivers/STM32N6xx_HAL_Driver/Inc/stm32n6xx_ll_bus.h ****   *         @arg @ref LL_AHB5_GRP1_PERIPH_ETH1RX
1745:../STM32Cube_FW_N6/Drivers/STM32N6xx_HAL_Driver/Inc/stm32n6xx_ll_bus.h ****   *         @arg @ref LL_AHB5_GRP1_PERIPH_OTG1
1746:../STM32Cube_FW_N6/Drivers/STM32N6xx_HAL_Driver/Inc/stm32n6xx_ll_bus.h ****   *         @arg @ref LL_AHB5_GRP1_PERIPH_OTG2
1747:../STM32Cube_FW_N6/Drivers/STM32N6xx_HAL_Driver/Inc/stm32n6xx_ll_bus.h ****   *         @arg @ref LL_AHB5_GRP1_PERIPH_OTGPHY1
1748:../STM32Cube_FW_N6/Drivers/STM32N6xx_HAL_Driver/Inc/stm32n6xx_ll_bus.h ****   *         @arg @ref LL_AHB5_GRP1_PERIPH_OTGPHY2
1749:../STM32Cube_FW_N6/Drivers/STM32N6xx_HAL_Driver/Inc/stm32n6xx_ll_bus.h ****   *         @arg @ref LL_AHB5_GRP1_PERIPH_CACHEAXI
1750:../STM32Cube_FW_N6/Drivers/STM32N6xx_HAL_Driver/Inc/stm32n6xx_ll_bus.h ****   *         @arg @ref LL_AHB5_GRP1_PERIPH_NPU
1751:../STM32Cube_FW_N6/Drivers/STM32N6xx_HAL_Driver/Inc/stm32n6xx_ll_bus.h ****   *
1752:../STM32Cube_FW_N6/Drivers/STM32N6xx_HAL_Driver/Inc/stm32n6xx_ll_bus.h ****   *         (*) value not defined in all devices.
1753:../STM32Cube_FW_N6/Drivers/STM32N6xx_HAL_Driver/Inc/stm32n6xx_ll_bus.h ****   * @retval None
1754:../STM32Cube_FW_N6/Drivers/STM32N6xx_HAL_Driver/Inc/stm32n6xx_ll_bus.h ****   */
1755:../STM32Cube_FW_N6/Drivers/STM32N6xx_HAL_Driver/Inc/stm32n6xx_ll_bus.h **** __STATIC_INLINE void LL_AHB5_GRP1_EnableClock(uint32_t Periphs)
 1266              		.loc 2 1755 22 view .LVU417
 1267              	.LBB114:
1756:../STM32Cube_FW_N6/Drivers/STM32N6xx_HAL_Driver/Inc/stm32n6xx_ll_bus.h **** {
1757:../STM32Cube_FW_N6/Drivers/STM32N6xx_HAL_Driver/Inc/stm32n6xx_ll_bus.h ****   __IO uint32_t tmpreg;
 1268              		.loc 2 1757 3 view .LVU418
1758:../STM32Cube_FW_N6/Drivers/STM32N6xx_HAL_Driver/Inc/stm32n6xx_ll_bus.h ****   WRITE_REG(RCC->AHB5ENSR, Periphs);
 1269              		.loc 2 1758 3 view .LVU419
 1270 0058 4FF08063 		mov	r3, #67108864
 1271 005c C4F8603A 		str	r3, [r4, #2656]
1759:../STM32Cube_FW_N6/Drivers/STM32N6xx_HAL_Driver/Inc/stm32n6xx_ll_bus.h ****   /* Delay after an RCC peripheral clock enabling */
1760:../STM32Cube_FW_N6/Drivers/STM32N6xx_HAL_Driver/Inc/stm32n6xx_ll_bus.h ****   tmpreg = READ_REG(RCC->AHB5ENR);
 1272              		.loc 2 1760 3 view .LVU420
 1273              		.loc 2 1760 12 is_stmt 0 view .LVU421
 1274 0060 D4F86022 		ldr	r2, [r4, #608]
 1275              	.LBE114:
 1276              	.LBE113:
 537:../Middlewares/screenl/Src/scrl_usb.c ****   __HAL_RCC_USB1_OTG_HS_CLK_SLEEP_ENABLE();
 538:../Middlewares/screenl/Src/scrl_usb.c **** 
 539:../Middlewares/screenl/Src/scrl_usb.c ****   /* Set FSEL to 24 Mhz */
 540:../Middlewares/screenl/Src/scrl_usb.c ****   USB1_HS_PHYC->USBPHYC_CR &= ~(0x7U << 0x4U);
 541:../Middlewares/screenl/Src/scrl_usb.c ****   USB1_HS_PHYC->USBPHYC_CR |= (0x2U << 0x4U);
 542:../Middlewares/screenl/Src/scrl_usb.c **** 
 543:../Middlewares/screenl/Src/scrl_usb.c ****   /* Enable USB1 OTG PHY clock */
 544:../Middlewares/screenl/Src/scrl_usb.c ****   __HAL_RCC_USB1_OTG_HS_PHY_CLK_ENABLE();
 545:../Middlewares/screenl/Src/scrl_usb.c ****   __HAL_RCC_USB1_OTG_HS_PHY_CLK_SLEEP_ENABLE();
 546:../Middlewares/screenl/Src/scrl_usb.c **** 
 547:../Middlewares/screenl/Src/scrl_usb.c ****   HAL_NVIC_SetPriority(USB1_OTG_HS_IRQn, 6U, 0U);
 1277              		.loc 1 547 3 view .LVU422
 1278 0064 0621     		movs	r1, #6
 1279              	.LBB116:
 1280              	.LBB115:
 1281              		.loc 2 1760 10 view .LVU423
 1282 0066 0592     		str	r2, [sp, #20]
1761:../STM32Cube_FW_N6/Drivers/STM32N6xx_HAL_Driver/Inc/stm32n6xx_ll_bus.h ****   (void)tmpreg;
 1283              		.loc 2 1761 3 is_stmt 1 view .LVU424
 1284 0068 059A     		ldr	r2, [sp, #20]
ARM GAS  /tmp/ccN2N8if.s 			page 70


 1285              	.LVL87:
 1286              		.loc 2 1761 3 is_stmt 0 view .LVU425
 1287              	.LBE115:
 1288              	.LBE116:
 537:../Middlewares/screenl/Src/scrl_usb.c ****   __HAL_RCC_USB1_OTG_HS_CLK_SLEEP_ENABLE();
 1289              		.loc 1 537 3 is_stmt 1 view .LVU426
 1290              	.LBB117:
 1291              	.LBI117:
1762:../STM32Cube_FW_N6/Drivers/STM32N6xx_HAL_Driver/Inc/stm32n6xx_ll_bus.h **** }
1763:../STM32Cube_FW_N6/Drivers/STM32N6xx_HAL_Driver/Inc/stm32n6xx_ll_bus.h **** 
1764:../STM32Cube_FW_N6/Drivers/STM32N6xx_HAL_Driver/Inc/stm32n6xx_ll_bus.h **** /**
1765:../STM32Cube_FW_N6/Drivers/STM32N6xx_HAL_Driver/Inc/stm32n6xx_ll_bus.h ****   * @brief  Check if AHB5 peripheral clock is enabled or not
1766:../STM32Cube_FW_N6/Drivers/STM32N6xx_HAL_Driver/Inc/stm32n6xx_ll_bus.h ****   * @rmtoll AHB5ENR      HPDMA1EN      LL_AHB5_GRP1_IsEnabledClock\n
1767:../STM32Cube_FW_N6/Drivers/STM32N6xx_HAL_Driver/Inc/stm32n6xx_ll_bus.h ****   *         AHB5ENR      DMA2DEN       LL_AHB5_GRP1_IsEnabledClock\n
1768:../STM32Cube_FW_N6/Drivers/STM32N6xx_HAL_Driver/Inc/stm32n6xx_ll_bus.h ****   *         AHB5ENR      JPEGEN        LL_AHB5_GRP1_IsEnabledClock\n
1769:../STM32Cube_FW_N6/Drivers/STM32N6xx_HAL_Driver/Inc/stm32n6xx_ll_bus.h ****   *         AHB5ENR      FMCEN         LL_AHB5_GRP1_IsEnabledClock\n
1770:../STM32Cube_FW_N6/Drivers/STM32N6xx_HAL_Driver/Inc/stm32n6xx_ll_bus.h ****   *         AHB5ENR      XSPI1EN       LL_AHB5_GRP1_IsEnabledClock\n
1771:../STM32Cube_FW_N6/Drivers/STM32N6xx_HAL_Driver/Inc/stm32n6xx_ll_bus.h ****   *         AHB5ENR      PSSIEN        LL_AHB5_GRP1_IsEnabledClock\n
1772:../STM32Cube_FW_N6/Drivers/STM32N6xx_HAL_Driver/Inc/stm32n6xx_ll_bus.h ****   *         AHB5ENR      SDMMC2EN      LL_AHB5_GRP1_IsEnabledClock\n
1773:../STM32Cube_FW_N6/Drivers/STM32N6xx_HAL_Driver/Inc/stm32n6xx_ll_bus.h ****   *         AHB5ENR      SDMMC1EN      LL_AHB5_GRP1_IsEnabledClock\n
1774:../STM32Cube_FW_N6/Drivers/STM32N6xx_HAL_Driver/Inc/stm32n6xx_ll_bus.h ****   *         AHB5ENR      XSPI2EN       LL_AHB5_GRP1_IsEnabledClock\n
1775:../STM32Cube_FW_N6/Drivers/STM32N6xx_HAL_Driver/Inc/stm32n6xx_ll_bus.h ****   *         AHB5ENR      XSPIMEN       LL_AHB5_GRP1_IsEnabledClock\n
1776:../STM32Cube_FW_N6/Drivers/STM32N6xx_HAL_Driver/Inc/stm32n6xx_ll_bus.h ****   *         AHB5ENR      MCE1EN        LL_AHB5_GRP1_IsEnabledClock\n (*)
1777:../STM32Cube_FW_N6/Drivers/STM32N6xx_HAL_Driver/Inc/stm32n6xx_ll_bus.h ****   *         AHB5ENR      MCE2EN        LL_AHB5_GRP1_IsEnabledClock\n (*)
1778:../STM32Cube_FW_N6/Drivers/STM32N6xx_HAL_Driver/Inc/stm32n6xx_ll_bus.h ****   *         AHB5ENR      MCE3EN        LL_AHB5_GRP1_IsEnabledClock\n (*)
1779:../STM32Cube_FW_N6/Drivers/STM32N6xx_HAL_Driver/Inc/stm32n6xx_ll_bus.h ****   *         AHB5ENR      XSPI3EN       LL_AHB5_GRP1_IsEnabledClock\n
1780:../STM32Cube_FW_N6/Drivers/STM32N6xx_HAL_Driver/Inc/stm32n6xx_ll_bus.h ****   *         AHB5ENR      MCE4EN        LL_AHB5_GRP1_IsEnabledClock\n (*)
1781:../STM32Cube_FW_N6/Drivers/STM32N6xx_HAL_Driver/Inc/stm32n6xx_ll_bus.h ****   *         AHB5ENR      GFXMMUEN      LL_AHB5_GRP1_IsEnabledClock\n
1782:../STM32Cube_FW_N6/Drivers/STM32N6xx_HAL_Driver/Inc/stm32n6xx_ll_bus.h ****   *         AHB5ENR      GPU2DEN       LL_AHB5_GRP1_IsEnabledClock\n
1783:../STM32Cube_FW_N6/Drivers/STM32N6xx_HAL_Driver/Inc/stm32n6xx_ll_bus.h ****   *         AHB5ENR      ETH1MACEN     LL_AHB5_GRP1_IsEnabledClock\n
1784:../STM32Cube_FW_N6/Drivers/STM32N6xx_HAL_Driver/Inc/stm32n6xx_ll_bus.h ****   *         AHB5ENR      ETH1TXEN      LL_AHB5_GRP1_IsEnabledClock\n
1785:../STM32Cube_FW_N6/Drivers/STM32N6xx_HAL_Driver/Inc/stm32n6xx_ll_bus.h ****   *         AHB5ENR      ETH1RXEN      LL_AHB5_GRP1_IsEnabledClock\n
1786:../STM32Cube_FW_N6/Drivers/STM32N6xx_HAL_Driver/Inc/stm32n6xx_ll_bus.h ****   *         AHB5ENR      ETH1EN        LL_AHB5_GRP1_IsEnabledClock\n
1787:../STM32Cube_FW_N6/Drivers/STM32N6xx_HAL_Driver/Inc/stm32n6xx_ll_bus.h ****   *         AHB5ENR      OTG1EN        LL_AHB5_GRP1_IsEnabledClock\n
1788:../STM32Cube_FW_N6/Drivers/STM32N6xx_HAL_Driver/Inc/stm32n6xx_ll_bus.h ****   *         AHB5ENR      OTGPHY1EN     LL_AHB5_GRP1_IsEnabledClock\n
1789:../STM32Cube_FW_N6/Drivers/STM32N6xx_HAL_Driver/Inc/stm32n6xx_ll_bus.h ****   *         AHB5ENR      OTGPHY2EN     LL_AHB5_GRP1_IsEnabledClock\n
1790:../STM32Cube_FW_N6/Drivers/STM32N6xx_HAL_Driver/Inc/stm32n6xx_ll_bus.h ****   *         AHB5ENR      OTG2EN        LL_AHB5_GRP1_IsEnabledClock\n
1791:../STM32Cube_FW_N6/Drivers/STM32N6xx_HAL_Driver/Inc/stm32n6xx_ll_bus.h ****   *         AHB5ENR      CACHEAXIEN    LL_AHB5_GRP1_IsEnabledClock\n
1792:../STM32Cube_FW_N6/Drivers/STM32N6xx_HAL_Driver/Inc/stm32n6xx_ll_bus.h ****   *         AHB5ENR      NPUEN         LL_AHB5_GRP1_IsEnabledClock
1793:../STM32Cube_FW_N6/Drivers/STM32N6xx_HAL_Driver/Inc/stm32n6xx_ll_bus.h ****   * @param  Periphs This parameter can be a combination of the following values:
1794:../STM32Cube_FW_N6/Drivers/STM32N6xx_HAL_Driver/Inc/stm32n6xx_ll_bus.h ****   *         @arg @ref LL_AHB5_GRP1_PERIPH_HPDMA1
1795:../STM32Cube_FW_N6/Drivers/STM32N6xx_HAL_Driver/Inc/stm32n6xx_ll_bus.h ****   *         @arg @ref LL_AHB5_GRP1_PERIPH_DMA2D
1796:../STM32Cube_FW_N6/Drivers/STM32N6xx_HAL_Driver/Inc/stm32n6xx_ll_bus.h ****   *         @arg @ref LL_AHB5_GRP1_PERIPH_JPEG
1797:../STM32Cube_FW_N6/Drivers/STM32N6xx_HAL_Driver/Inc/stm32n6xx_ll_bus.h ****   *         @arg @ref LL_AHB5_GRP1_PERIPH_FMC
1798:../STM32Cube_FW_N6/Drivers/STM32N6xx_HAL_Driver/Inc/stm32n6xx_ll_bus.h ****   *         @arg @ref LL_AHB5_GRP1_PERIPH_XSPI1
1799:../STM32Cube_FW_N6/Drivers/STM32N6xx_HAL_Driver/Inc/stm32n6xx_ll_bus.h ****   *         @arg @ref LL_AHB5_GRP1_PERIPH_XSPI2
1800:../STM32Cube_FW_N6/Drivers/STM32N6xx_HAL_Driver/Inc/stm32n6xx_ll_bus.h ****   *         @arg @ref LL_AHB5_GRP1_PERIPH_XSPI3
1801:../STM32Cube_FW_N6/Drivers/STM32N6xx_HAL_Driver/Inc/stm32n6xx_ll_bus.h ****   *         @arg @ref LL_AHB5_GRP1_PERIPH_XSPIM
1802:../STM32Cube_FW_N6/Drivers/STM32N6xx_HAL_Driver/Inc/stm32n6xx_ll_bus.h ****   *         @arg @ref LL_AHB5_GRP1_PERIPH_PSSI
1803:../STM32Cube_FW_N6/Drivers/STM32N6xx_HAL_Driver/Inc/stm32n6xx_ll_bus.h ****   *         @arg @ref LL_AHB5_GRP1_PERIPH_SDMMC1
1804:../STM32Cube_FW_N6/Drivers/STM32N6xx_HAL_Driver/Inc/stm32n6xx_ll_bus.h ****   *         @arg @ref LL_AHB5_GRP1_PERIPH_SDMMC2
1805:../STM32Cube_FW_N6/Drivers/STM32N6xx_HAL_Driver/Inc/stm32n6xx_ll_bus.h ****   *         @arg @ref LL_AHB5_GRP1_PERIPH_MCE1 (*)
1806:../STM32Cube_FW_N6/Drivers/STM32N6xx_HAL_Driver/Inc/stm32n6xx_ll_bus.h ****   *         @arg @ref LL_AHB5_GRP1_PERIPH_MCE2 (*)
1807:../STM32Cube_FW_N6/Drivers/STM32N6xx_HAL_Driver/Inc/stm32n6xx_ll_bus.h ****   *         @arg @ref LL_AHB5_GRP1_PERIPH_MCE3 (*)
1808:../STM32Cube_FW_N6/Drivers/STM32N6xx_HAL_Driver/Inc/stm32n6xx_ll_bus.h ****   *         @arg @ref LL_AHB5_GRP1_PERIPH_MCE4 (*)
1809:../STM32Cube_FW_N6/Drivers/STM32N6xx_HAL_Driver/Inc/stm32n6xx_ll_bus.h ****   *         @arg @ref LL_AHB5_GRP1_PERIPH_GFXMMU
1810:../STM32Cube_FW_N6/Drivers/STM32N6xx_HAL_Driver/Inc/stm32n6xx_ll_bus.h ****   *         @arg @ref LL_AHB5_GRP1_PERIPH_GPU2D
ARM GAS  /tmp/ccN2N8if.s 			page 71


1811:../STM32Cube_FW_N6/Drivers/STM32N6xx_HAL_Driver/Inc/stm32n6xx_ll_bus.h ****   *         @arg @ref LL_AHB5_GRP1_PERIPH_ETH1
1812:../STM32Cube_FW_N6/Drivers/STM32N6xx_HAL_Driver/Inc/stm32n6xx_ll_bus.h ****   *         @arg @ref LL_AHB5_GRP1_PERIPH_ETH1MAC
1813:../STM32Cube_FW_N6/Drivers/STM32N6xx_HAL_Driver/Inc/stm32n6xx_ll_bus.h ****   *         @arg @ref LL_AHB5_GRP1_PERIPH_ETH1TX
1814:../STM32Cube_FW_N6/Drivers/STM32N6xx_HAL_Driver/Inc/stm32n6xx_ll_bus.h ****   *         @arg @ref LL_AHB5_GRP1_PERIPH_ETH1RX
1815:../STM32Cube_FW_N6/Drivers/STM32N6xx_HAL_Driver/Inc/stm32n6xx_ll_bus.h ****   *         @arg @ref LL_AHB5_GRP1_PERIPH_OTG1
1816:../STM32Cube_FW_N6/Drivers/STM32N6xx_HAL_Driver/Inc/stm32n6xx_ll_bus.h ****   *         @arg @ref LL_AHB5_GRP1_PERIPH_OTG2
1817:../STM32Cube_FW_N6/Drivers/STM32N6xx_HAL_Driver/Inc/stm32n6xx_ll_bus.h ****   *         @arg @ref LL_AHB5_GRP1_PERIPH_OTGPHY1
1818:../STM32Cube_FW_N6/Drivers/STM32N6xx_HAL_Driver/Inc/stm32n6xx_ll_bus.h ****   *         @arg @ref LL_AHB5_GRP1_PERIPH_OTGPHY2
1819:../STM32Cube_FW_N6/Drivers/STM32N6xx_HAL_Driver/Inc/stm32n6xx_ll_bus.h ****   *         @arg @ref LL_AHB5_GRP1_PERIPH_CACHEAXI
1820:../STM32Cube_FW_N6/Drivers/STM32N6xx_HAL_Driver/Inc/stm32n6xx_ll_bus.h ****   *         @arg @ref LL_AHB5_GRP1_PERIPH_NPU
1821:../STM32Cube_FW_N6/Drivers/STM32N6xx_HAL_Driver/Inc/stm32n6xx_ll_bus.h ****   *
1822:../STM32Cube_FW_N6/Drivers/STM32N6xx_HAL_Driver/Inc/stm32n6xx_ll_bus.h ****   *         (*) value not defined in all devices.
1823:../STM32Cube_FW_N6/Drivers/STM32N6xx_HAL_Driver/Inc/stm32n6xx_ll_bus.h ****   * @retval uint32_t
1824:../STM32Cube_FW_N6/Drivers/STM32N6xx_HAL_Driver/Inc/stm32n6xx_ll_bus.h ****   */
1825:../STM32Cube_FW_N6/Drivers/STM32N6xx_HAL_Driver/Inc/stm32n6xx_ll_bus.h **** __STATIC_INLINE uint32_t LL_AHB5_GRP1_IsEnabledClock(uint32_t Periphs)
1826:../STM32Cube_FW_N6/Drivers/STM32N6xx_HAL_Driver/Inc/stm32n6xx_ll_bus.h **** {
1827:../STM32Cube_FW_N6/Drivers/STM32N6xx_HAL_Driver/Inc/stm32n6xx_ll_bus.h ****   return ((READ_BIT(RCC->AHB5ENR, Periphs) == Periphs) ? 1UL : 0UL);
1828:../STM32Cube_FW_N6/Drivers/STM32N6xx_HAL_Driver/Inc/stm32n6xx_ll_bus.h **** }
1829:../STM32Cube_FW_N6/Drivers/STM32N6xx_HAL_Driver/Inc/stm32n6xx_ll_bus.h **** 
1830:../STM32Cube_FW_N6/Drivers/STM32N6xx_HAL_Driver/Inc/stm32n6xx_ll_bus.h **** /**
1831:../STM32Cube_FW_N6/Drivers/STM32N6xx_HAL_Driver/Inc/stm32n6xx_ll_bus.h ****   * @brief  Disable AHB5 peripherals clock.
1832:../STM32Cube_FW_N6/Drivers/STM32N6xx_HAL_Driver/Inc/stm32n6xx_ll_bus.h ****   * @rmtoll AHB5ENCR     HPDMA1ENC     LL_AHB5_GRP1_DisableClock\n
1833:../STM32Cube_FW_N6/Drivers/STM32N6xx_HAL_Driver/Inc/stm32n6xx_ll_bus.h ****   *         AHB5ENCR     DMA2DENC      LL_AHB5_GRP1_DisableClock\n
1834:../STM32Cube_FW_N6/Drivers/STM32N6xx_HAL_Driver/Inc/stm32n6xx_ll_bus.h ****   *         AHB5ENCR     JPEGENC       LL_AHB5_GRP1_DisableClock\n
1835:../STM32Cube_FW_N6/Drivers/STM32N6xx_HAL_Driver/Inc/stm32n6xx_ll_bus.h ****   *         AHB5ENCR     FMCENC        LL_AHB5_GRP1_DisableClock\n
1836:../STM32Cube_FW_N6/Drivers/STM32N6xx_HAL_Driver/Inc/stm32n6xx_ll_bus.h ****   *         AHB5ENCR     XSPI1ENC      LL_AHB5_GRP1_DisableClock\n
1837:../STM32Cube_FW_N6/Drivers/STM32N6xx_HAL_Driver/Inc/stm32n6xx_ll_bus.h ****   *         AHB5ENCR     PSSIENC       LL_AHB5_GRP1_DisableClock\n
1838:../STM32Cube_FW_N6/Drivers/STM32N6xx_HAL_Driver/Inc/stm32n6xx_ll_bus.h ****   *         AHB5ENCR     SDMMC2ENC     LL_AHB5_GRP1_DisableClock\n
1839:../STM32Cube_FW_N6/Drivers/STM32N6xx_HAL_Driver/Inc/stm32n6xx_ll_bus.h ****   *         AHB5ENCR     SDMMC1ENC     LL_AHB5_GRP1_DisableClock\n
1840:../STM32Cube_FW_N6/Drivers/STM32N6xx_HAL_Driver/Inc/stm32n6xx_ll_bus.h ****   *         AHB5ENCR     XSPI2ENC      LL_AHB5_GRP1_DisableClock\n
1841:../STM32Cube_FW_N6/Drivers/STM32N6xx_HAL_Driver/Inc/stm32n6xx_ll_bus.h ****   *         AHB5ENCR     XSPIMENC      LL_AHB5_GRP1_DisableClock\n
1842:../STM32Cube_FW_N6/Drivers/STM32N6xx_HAL_Driver/Inc/stm32n6xx_ll_bus.h ****   *         AHB5ENCR     MCE1ENC       LL_AHB5_GRP1_DisableClock\n (*)
1843:../STM32Cube_FW_N6/Drivers/STM32N6xx_HAL_Driver/Inc/stm32n6xx_ll_bus.h ****   *         AHB5ENCR     MCE2ENC       LL_AHB5_GRP1_DisableClock\n (*)
1844:../STM32Cube_FW_N6/Drivers/STM32N6xx_HAL_Driver/Inc/stm32n6xx_ll_bus.h ****   *         AHB5ENCR     MCE3ENC       LL_AHB5_GRP1_DisableClock\n (*)
1845:../STM32Cube_FW_N6/Drivers/STM32N6xx_HAL_Driver/Inc/stm32n6xx_ll_bus.h ****   *         AHB5ENCR     XSPI3ENC      LL_AHB5_GRP1_DisableClock\n
1846:../STM32Cube_FW_N6/Drivers/STM32N6xx_HAL_Driver/Inc/stm32n6xx_ll_bus.h ****   *         AHB5ENCR     MCE4ENC       LL_AHB5_GRP1_DisableClock\n (*)
1847:../STM32Cube_FW_N6/Drivers/STM32N6xx_HAL_Driver/Inc/stm32n6xx_ll_bus.h ****   *         AHB5ENCR     GFXMMUENC     LL_AHB5_GRP1_DisableClock\n
1848:../STM32Cube_FW_N6/Drivers/STM32N6xx_HAL_Driver/Inc/stm32n6xx_ll_bus.h ****   *         AHB5ENCR     GPU2DENC      LL_AHB5_GRP1_DisableClock\n
1849:../STM32Cube_FW_N6/Drivers/STM32N6xx_HAL_Driver/Inc/stm32n6xx_ll_bus.h ****   *         AHB5ENCR     ETH1MACENC    LL_AHB5_GRP1_DisableClock\n
1850:../STM32Cube_FW_N6/Drivers/STM32N6xx_HAL_Driver/Inc/stm32n6xx_ll_bus.h ****   *         AHB5ENCR     ETH1TXENC     LL_AHB5_GRP1_DisableClock\n
1851:../STM32Cube_FW_N6/Drivers/STM32N6xx_HAL_Driver/Inc/stm32n6xx_ll_bus.h ****   *         AHB5ENCR     ETH1RXENC     LL_AHB5_GRP1_DisableClock\n
1852:../STM32Cube_FW_N6/Drivers/STM32N6xx_HAL_Driver/Inc/stm32n6xx_ll_bus.h ****   *         AHB5ENCR     ETH1ENC       LL_AHB5_GRP1_DisableClock\n
1853:../STM32Cube_FW_N6/Drivers/STM32N6xx_HAL_Driver/Inc/stm32n6xx_ll_bus.h ****   *         AHB5ENCR     OTG1ENC       LL_AHB5_GRP1_DisableClock\n
1854:../STM32Cube_FW_N6/Drivers/STM32N6xx_HAL_Driver/Inc/stm32n6xx_ll_bus.h ****   *         AHB5ENCR     OTGPHY1ENC    LL_AHB5_GRP1_DisableClock\n
1855:../STM32Cube_FW_N6/Drivers/STM32N6xx_HAL_Driver/Inc/stm32n6xx_ll_bus.h ****   *         AHB5ENCR     OTGPHY2ENC    LL_AHB5_GRP1_DisableClock\n
1856:../STM32Cube_FW_N6/Drivers/STM32N6xx_HAL_Driver/Inc/stm32n6xx_ll_bus.h ****   *         AHB5ENCR     OTG2ENC       LL_AHB5_GRP1_DisableClock\n
1857:../STM32Cube_FW_N6/Drivers/STM32N6xx_HAL_Driver/Inc/stm32n6xx_ll_bus.h ****   *         AHB5ENCR     CACHEAXIENC   LL_AHB5_GRP1_DisableClock\n
1858:../STM32Cube_FW_N6/Drivers/STM32N6xx_HAL_Driver/Inc/stm32n6xx_ll_bus.h ****   *         AHB5ENCR     NPUENC        LL_AHB5_GRP1_DisableClock
1859:../STM32Cube_FW_N6/Drivers/STM32N6xx_HAL_Driver/Inc/stm32n6xx_ll_bus.h ****   * @param  Periphs This parameter can be a combination of the following values:
1860:../STM32Cube_FW_N6/Drivers/STM32N6xx_HAL_Driver/Inc/stm32n6xx_ll_bus.h ****   *         @arg @ref LL_AHB5_GRP1_PERIPH_HPDMA1
1861:../STM32Cube_FW_N6/Drivers/STM32N6xx_HAL_Driver/Inc/stm32n6xx_ll_bus.h ****   *         @arg @ref LL_AHB5_GRP1_PERIPH_DMA2D
1862:../STM32Cube_FW_N6/Drivers/STM32N6xx_HAL_Driver/Inc/stm32n6xx_ll_bus.h ****   *         @arg @ref LL_AHB5_GRP1_PERIPH_JPEG
1863:../STM32Cube_FW_N6/Drivers/STM32N6xx_HAL_Driver/Inc/stm32n6xx_ll_bus.h ****   *         @arg @ref LL_AHB5_GRP1_PERIPH_FMC
1864:../STM32Cube_FW_N6/Drivers/STM32N6xx_HAL_Driver/Inc/stm32n6xx_ll_bus.h ****   *         @arg @ref LL_AHB5_GRP1_PERIPH_XSPI1
1865:../STM32Cube_FW_N6/Drivers/STM32N6xx_HAL_Driver/Inc/stm32n6xx_ll_bus.h ****   *         @arg @ref LL_AHB5_GRP1_PERIPH_XSPI2
1866:../STM32Cube_FW_N6/Drivers/STM32N6xx_HAL_Driver/Inc/stm32n6xx_ll_bus.h ****   *         @arg @ref LL_AHB5_GRP1_PERIPH_XSPI3
1867:../STM32Cube_FW_N6/Drivers/STM32N6xx_HAL_Driver/Inc/stm32n6xx_ll_bus.h ****   *         @arg @ref LL_AHB5_GRP1_PERIPH_XSPIM
ARM GAS  /tmp/ccN2N8if.s 			page 72


1868:../STM32Cube_FW_N6/Drivers/STM32N6xx_HAL_Driver/Inc/stm32n6xx_ll_bus.h ****   *         @arg @ref LL_AHB5_GRP1_PERIPH_PSSI
1869:../STM32Cube_FW_N6/Drivers/STM32N6xx_HAL_Driver/Inc/stm32n6xx_ll_bus.h ****   *         @arg @ref LL_AHB5_GRP1_PERIPH_SDMMC1
1870:../STM32Cube_FW_N6/Drivers/STM32N6xx_HAL_Driver/Inc/stm32n6xx_ll_bus.h ****   *         @arg @ref LL_AHB5_GRP1_PERIPH_SDMMC2
1871:../STM32Cube_FW_N6/Drivers/STM32N6xx_HAL_Driver/Inc/stm32n6xx_ll_bus.h ****   *         @arg @ref LL_AHB5_GRP1_PERIPH_MCE1 (*)
1872:../STM32Cube_FW_N6/Drivers/STM32N6xx_HAL_Driver/Inc/stm32n6xx_ll_bus.h ****   *         @arg @ref LL_AHB5_GRP1_PERIPH_MCE2 (*)
1873:../STM32Cube_FW_N6/Drivers/STM32N6xx_HAL_Driver/Inc/stm32n6xx_ll_bus.h ****   *         @arg @ref LL_AHB5_GRP1_PERIPH_MCE3 (*)
1874:../STM32Cube_FW_N6/Drivers/STM32N6xx_HAL_Driver/Inc/stm32n6xx_ll_bus.h ****   *         @arg @ref LL_AHB5_GRP1_PERIPH_MCE4 (*)
1875:../STM32Cube_FW_N6/Drivers/STM32N6xx_HAL_Driver/Inc/stm32n6xx_ll_bus.h ****   *         @arg @ref LL_AHB5_GRP1_PERIPH_GFXMMU
1876:../STM32Cube_FW_N6/Drivers/STM32N6xx_HAL_Driver/Inc/stm32n6xx_ll_bus.h ****   *         @arg @ref LL_AHB5_GRP1_PERIPH_GPU2D
1877:../STM32Cube_FW_N6/Drivers/STM32N6xx_HAL_Driver/Inc/stm32n6xx_ll_bus.h ****   *         @arg @ref LL_AHB5_GRP1_PERIPH_ETH1
1878:../STM32Cube_FW_N6/Drivers/STM32N6xx_HAL_Driver/Inc/stm32n6xx_ll_bus.h ****   *         @arg @ref LL_AHB5_GRP1_PERIPH_ETH1MAC
1879:../STM32Cube_FW_N6/Drivers/STM32N6xx_HAL_Driver/Inc/stm32n6xx_ll_bus.h ****   *         @arg @ref LL_AHB5_GRP1_PERIPH_ETH1TX
1880:../STM32Cube_FW_N6/Drivers/STM32N6xx_HAL_Driver/Inc/stm32n6xx_ll_bus.h ****   *         @arg @ref LL_AHB5_GRP1_PERIPH_ETH1RX
1881:../STM32Cube_FW_N6/Drivers/STM32N6xx_HAL_Driver/Inc/stm32n6xx_ll_bus.h ****   *         @arg @ref LL_AHB5_GRP1_PERIPH_OTG1
1882:../STM32Cube_FW_N6/Drivers/STM32N6xx_HAL_Driver/Inc/stm32n6xx_ll_bus.h ****   *         @arg @ref LL_AHB5_GRP1_PERIPH_OTG2
1883:../STM32Cube_FW_N6/Drivers/STM32N6xx_HAL_Driver/Inc/stm32n6xx_ll_bus.h ****   *         @arg @ref LL_AHB5_GRP1_PERIPH_OTGPHY1
1884:../STM32Cube_FW_N6/Drivers/STM32N6xx_HAL_Driver/Inc/stm32n6xx_ll_bus.h ****   *         @arg @ref LL_AHB5_GRP1_PERIPH_OTGPHY2
1885:../STM32Cube_FW_N6/Drivers/STM32N6xx_HAL_Driver/Inc/stm32n6xx_ll_bus.h ****   *         @arg @ref LL_AHB5_GRP1_PERIPH_CACHEAXI
1886:../STM32Cube_FW_N6/Drivers/STM32N6xx_HAL_Driver/Inc/stm32n6xx_ll_bus.h ****   *         @arg @ref LL_AHB5_GRP1_PERIPH_NPU
1887:../STM32Cube_FW_N6/Drivers/STM32N6xx_HAL_Driver/Inc/stm32n6xx_ll_bus.h ****   *
1888:../STM32Cube_FW_N6/Drivers/STM32N6xx_HAL_Driver/Inc/stm32n6xx_ll_bus.h ****   *         (*) value not defined in all devices.
1889:../STM32Cube_FW_N6/Drivers/STM32N6xx_HAL_Driver/Inc/stm32n6xx_ll_bus.h ****   * @retval None
1890:../STM32Cube_FW_N6/Drivers/STM32N6xx_HAL_Driver/Inc/stm32n6xx_ll_bus.h ****   */
1891:../STM32Cube_FW_N6/Drivers/STM32N6xx_HAL_Driver/Inc/stm32n6xx_ll_bus.h **** __STATIC_INLINE void LL_AHB5_GRP1_DisableClock(uint32_t Periphs)
1892:../STM32Cube_FW_N6/Drivers/STM32N6xx_HAL_Driver/Inc/stm32n6xx_ll_bus.h **** {
1893:../STM32Cube_FW_N6/Drivers/STM32N6xx_HAL_Driver/Inc/stm32n6xx_ll_bus.h ****   WRITE_REG(RCC->AHB5ENCR, Periphs);
1894:../STM32Cube_FW_N6/Drivers/STM32N6xx_HAL_Driver/Inc/stm32n6xx_ll_bus.h **** }
1895:../STM32Cube_FW_N6/Drivers/STM32N6xx_HAL_Driver/Inc/stm32n6xx_ll_bus.h **** 
1896:../STM32Cube_FW_N6/Drivers/STM32N6xx_HAL_Driver/Inc/stm32n6xx_ll_bus.h **** /**
1897:../STM32Cube_FW_N6/Drivers/STM32N6xx_HAL_Driver/Inc/stm32n6xx_ll_bus.h ****   * @brief  Force AHB5 peripherals reset.
1898:../STM32Cube_FW_N6/Drivers/STM32N6xx_HAL_Driver/Inc/stm32n6xx_ll_bus.h ****   * @rmtoll AHB5RSTSR    HPDMA1RSTS      LL_AHB5_GRP1_ForceReset\n
1899:../STM32Cube_FW_N6/Drivers/STM32N6xx_HAL_Driver/Inc/stm32n6xx_ll_bus.h ****   *         AHB5RSTSR    DMA2DRSTS       LL_AHB5_GRP1_ForceReset\n
1900:../STM32Cube_FW_N6/Drivers/STM32N6xx_HAL_Driver/Inc/stm32n6xx_ll_bus.h ****   *         AHB5RSTSR    JPEGRSTS        LL_AHB5_GRP1_ForceReset\n
1901:../STM32Cube_FW_N6/Drivers/STM32N6xx_HAL_Driver/Inc/stm32n6xx_ll_bus.h ****   *         AHB5RSTSR    FMCRSTS         LL_AHB5_GRP1_ForceReset\n
1902:../STM32Cube_FW_N6/Drivers/STM32N6xx_HAL_Driver/Inc/stm32n6xx_ll_bus.h ****   *         AHB5RSTSR    XSPI1RSTS       LL_AHB5_GRP1_ForceReset\n
1903:../STM32Cube_FW_N6/Drivers/STM32N6xx_HAL_Driver/Inc/stm32n6xx_ll_bus.h ****   *         AHB5RSTSR    PSSIRSTS        LL_AHB5_GRP1_ForceReset\n
1904:../STM32Cube_FW_N6/Drivers/STM32N6xx_HAL_Driver/Inc/stm32n6xx_ll_bus.h ****   *         AHB5RSTSR    SDMMC2RSTS      LL_AHB5_GRP1_ForceReset\n
1905:../STM32Cube_FW_N6/Drivers/STM32N6xx_HAL_Driver/Inc/stm32n6xx_ll_bus.h ****   *         AHB5RSTSR    SDMMC1RSTS      LL_AHB5_GRP1_ForceReset\n
1906:../STM32Cube_FW_N6/Drivers/STM32N6xx_HAL_Driver/Inc/stm32n6xx_ll_bus.h ****   *         AHB5RSTSR    XSPI2RSTS       LL_AHB5_GRP1_ForceReset\n
1907:../STM32Cube_FW_N6/Drivers/STM32N6xx_HAL_Driver/Inc/stm32n6xx_ll_bus.h ****   *         AHB5RSTSR    XSPIMRSTS       LL_AHB5_GRP1_ForceReset\n
1908:../STM32Cube_FW_N6/Drivers/STM32N6xx_HAL_Driver/Inc/stm32n6xx_ll_bus.h ****   *         AHB5RSTSR    XSPI3RSTS       LL_AHB5_GRP1_ForceReset\n
1909:../STM32Cube_FW_N6/Drivers/STM32N6xx_HAL_Driver/Inc/stm32n6xx_ll_bus.h ****   *         AHB5RSTSR    GFXMMURSTS      LL_AHB5_GRP1_ForceReset\n
1910:../STM32Cube_FW_N6/Drivers/STM32N6xx_HAL_Driver/Inc/stm32n6xx_ll_bus.h ****   *         AHB5RSTSR    GPU2DRSTS       LL_AHB5_GRP1_ForceReset\n
1911:../STM32Cube_FW_N6/Drivers/STM32N6xx_HAL_Driver/Inc/stm32n6xx_ll_bus.h ****   *         AHB5RSTSR    OTG1PHYCTLRSTS  LL_AHB5_GRP1_ForceReset\n
1912:../STM32Cube_FW_N6/Drivers/STM32N6xx_HAL_Driver/Inc/stm32n6xx_ll_bus.h ****   *         AHB5RSTSR    OTG2PHYCTLRSTS  LL_AHB5_GRP1_ForceReset\n
1913:../STM32Cube_FW_N6/Drivers/STM32N6xx_HAL_Driver/Inc/stm32n6xx_ll_bus.h ****   *         AHB5RSTSR    ETH1RSTS        LL_AHB5_GRP1_ForceReset\n
1914:../STM32Cube_FW_N6/Drivers/STM32N6xx_HAL_Driver/Inc/stm32n6xx_ll_bus.h ****   *         AHB5RSTSR    OTG1RSTS        LL_AHB5_GRP1_ForceReset\n
1915:../STM32Cube_FW_N6/Drivers/STM32N6xx_HAL_Driver/Inc/stm32n6xx_ll_bus.h ****   *         AHB5RSTSR    OTGPHY1RSTS     LL_AHB5_GRP1_ForceReset\n
1916:../STM32Cube_FW_N6/Drivers/STM32N6xx_HAL_Driver/Inc/stm32n6xx_ll_bus.h ****   *         AHB5RSTSR    OTGPHY2RSTS     LL_AHB5_GRP1_ForceReset\n
1917:../STM32Cube_FW_N6/Drivers/STM32N6xx_HAL_Driver/Inc/stm32n6xx_ll_bus.h ****   *         AHB5RSTSR    OTG2RSTS        LL_AHB5_GRP1_ForceReset\n
1918:../STM32Cube_FW_N6/Drivers/STM32N6xx_HAL_Driver/Inc/stm32n6xx_ll_bus.h ****   *         AHB5RSTSR    CACHEAXIRSTS    LL_AHB5_GRP1_ForceReset\n
1919:../STM32Cube_FW_N6/Drivers/STM32N6xx_HAL_Driver/Inc/stm32n6xx_ll_bus.h ****   *         AHB5RSTSR    NPURSTS         LL_AHB5_GRP1_ForceReset
1920:../STM32Cube_FW_N6/Drivers/STM32N6xx_HAL_Driver/Inc/stm32n6xx_ll_bus.h ****   * @param  Periphs This parameter can be a combination of the following values:
1921:../STM32Cube_FW_N6/Drivers/STM32N6xx_HAL_Driver/Inc/stm32n6xx_ll_bus.h ****   *         @arg @ref LL_AHB5_GRP1_PERIPH_HPDMA1
1922:../STM32Cube_FW_N6/Drivers/STM32N6xx_HAL_Driver/Inc/stm32n6xx_ll_bus.h ****   *         @arg @ref LL_AHB5_GRP1_PERIPH_DMA2D
1923:../STM32Cube_FW_N6/Drivers/STM32N6xx_HAL_Driver/Inc/stm32n6xx_ll_bus.h ****   *         @arg @ref LL_AHB5_GRP1_PERIPH_JPEG
1924:../STM32Cube_FW_N6/Drivers/STM32N6xx_HAL_Driver/Inc/stm32n6xx_ll_bus.h ****   *         @arg @ref LL_AHB5_GRP1_PERIPH_FMC
ARM GAS  /tmp/ccN2N8if.s 			page 73


1925:../STM32Cube_FW_N6/Drivers/STM32N6xx_HAL_Driver/Inc/stm32n6xx_ll_bus.h ****   *         @arg @ref LL_AHB5_GRP1_PERIPH_XSPI1
1926:../STM32Cube_FW_N6/Drivers/STM32N6xx_HAL_Driver/Inc/stm32n6xx_ll_bus.h ****   *         @arg @ref LL_AHB5_GRP1_PERIPH_XSPI2
1927:../STM32Cube_FW_N6/Drivers/STM32N6xx_HAL_Driver/Inc/stm32n6xx_ll_bus.h ****   *         @arg @ref LL_AHB5_GRP1_PERIPH_XSPI3
1928:../STM32Cube_FW_N6/Drivers/STM32N6xx_HAL_Driver/Inc/stm32n6xx_ll_bus.h ****   *         @arg @ref LL_AHB5_GRP1_PERIPH_XSPIM
1929:../STM32Cube_FW_N6/Drivers/STM32N6xx_HAL_Driver/Inc/stm32n6xx_ll_bus.h ****   *         @arg @ref LL_AHB5_GRP1_PERIPH_PSSI
1930:../STM32Cube_FW_N6/Drivers/STM32N6xx_HAL_Driver/Inc/stm32n6xx_ll_bus.h ****   *         @arg @ref LL_AHB5_GRP1_PERIPH_SDMMC1
1931:../STM32Cube_FW_N6/Drivers/STM32N6xx_HAL_Driver/Inc/stm32n6xx_ll_bus.h ****   *         @arg @ref LL_AHB5_GRP1_PERIPH_SDMMC2
1932:../STM32Cube_FW_N6/Drivers/STM32N6xx_HAL_Driver/Inc/stm32n6xx_ll_bus.h ****   *         @arg @ref LL_AHB5_GRP1_PERIPH_GFXMMU
1933:../STM32Cube_FW_N6/Drivers/STM32N6xx_HAL_Driver/Inc/stm32n6xx_ll_bus.h ****   *         @arg @ref LL_AHB5_GRP1_PERIPH_GPU2D
1934:../STM32Cube_FW_N6/Drivers/STM32N6xx_HAL_Driver/Inc/stm32n6xx_ll_bus.h ****   *         @arg @ref LL_AHB5_GRP1_PERIPH_OTG1PHYCTL
1935:../STM32Cube_FW_N6/Drivers/STM32N6xx_HAL_Driver/Inc/stm32n6xx_ll_bus.h ****   *         @arg @ref LL_AHB5_GRP1_PERIPH_OTG2PHYCTL
1936:../STM32Cube_FW_N6/Drivers/STM32N6xx_HAL_Driver/Inc/stm32n6xx_ll_bus.h ****   *         @arg @ref LL_AHB5_GRP1_PERIPH_ETH1
1937:../STM32Cube_FW_N6/Drivers/STM32N6xx_HAL_Driver/Inc/stm32n6xx_ll_bus.h ****   *         @arg @ref LL_AHB5_GRP1_PERIPH_OTG1
1938:../STM32Cube_FW_N6/Drivers/STM32N6xx_HAL_Driver/Inc/stm32n6xx_ll_bus.h ****   *         @arg @ref LL_AHB5_GRP1_PERIPH_OTG2
1939:../STM32Cube_FW_N6/Drivers/STM32N6xx_HAL_Driver/Inc/stm32n6xx_ll_bus.h ****   *         @arg @ref LL_AHB5_GRP1_PERIPH_OTGPHY1
1940:../STM32Cube_FW_N6/Drivers/STM32N6xx_HAL_Driver/Inc/stm32n6xx_ll_bus.h ****   *         @arg @ref LL_AHB5_GRP1_PERIPH_OTGPHY2
1941:../STM32Cube_FW_N6/Drivers/STM32N6xx_HAL_Driver/Inc/stm32n6xx_ll_bus.h ****   *         @arg @ref LL_AHB5_GRP1_PERIPH_CACHEAXI
1942:../STM32Cube_FW_N6/Drivers/STM32N6xx_HAL_Driver/Inc/stm32n6xx_ll_bus.h ****   *         @arg @ref LL_AHB5_GRP1_PERIPH_NPU
1943:../STM32Cube_FW_N6/Drivers/STM32N6xx_HAL_Driver/Inc/stm32n6xx_ll_bus.h ****   * @retval None
1944:../STM32Cube_FW_N6/Drivers/STM32N6xx_HAL_Driver/Inc/stm32n6xx_ll_bus.h ****   */
1945:../STM32Cube_FW_N6/Drivers/STM32N6xx_HAL_Driver/Inc/stm32n6xx_ll_bus.h **** __STATIC_INLINE void LL_AHB5_GRP1_ForceReset(uint32_t Periphs)
1946:../STM32Cube_FW_N6/Drivers/STM32N6xx_HAL_Driver/Inc/stm32n6xx_ll_bus.h **** {
1947:../STM32Cube_FW_N6/Drivers/STM32N6xx_HAL_Driver/Inc/stm32n6xx_ll_bus.h ****   WRITE_REG(RCC->AHB5RSTSR, Periphs);
1948:../STM32Cube_FW_N6/Drivers/STM32N6xx_HAL_Driver/Inc/stm32n6xx_ll_bus.h **** }
1949:../STM32Cube_FW_N6/Drivers/STM32N6xx_HAL_Driver/Inc/stm32n6xx_ll_bus.h **** 
1950:../STM32Cube_FW_N6/Drivers/STM32N6xx_HAL_Driver/Inc/stm32n6xx_ll_bus.h **** /**
1951:../STM32Cube_FW_N6/Drivers/STM32N6xx_HAL_Driver/Inc/stm32n6xx_ll_bus.h ****   * @brief  Release AHB5 peripherals reset.
1952:../STM32Cube_FW_N6/Drivers/STM32N6xx_HAL_Driver/Inc/stm32n6xx_ll_bus.h ****   * @rmtoll AHB5RSTCR    HPDMA1RSTC      LL_AHB5_GRP1_ReleaseReset\n
1953:../STM32Cube_FW_N6/Drivers/STM32N6xx_HAL_Driver/Inc/stm32n6xx_ll_bus.h ****   *         AHB5RSTCR    DMA2DRSTC       LL_AHB5_GRP1_ReleaseReset\n
1954:../STM32Cube_FW_N6/Drivers/STM32N6xx_HAL_Driver/Inc/stm32n6xx_ll_bus.h ****   *         AHB5RSTCR    JPEGRSTC        LL_AHB5_GRP1_ReleaseReset\n
1955:../STM32Cube_FW_N6/Drivers/STM32N6xx_HAL_Driver/Inc/stm32n6xx_ll_bus.h ****   *         AHB5RSTCR    FMCRSTC         LL_AHB5_GRP1_ReleaseReset\n
1956:../STM32Cube_FW_N6/Drivers/STM32N6xx_HAL_Driver/Inc/stm32n6xx_ll_bus.h ****   *         AHB5RSTCR    XSPI1RSTC       LL_AHB5_GRP1_ReleaseReset\n
1957:../STM32Cube_FW_N6/Drivers/STM32N6xx_HAL_Driver/Inc/stm32n6xx_ll_bus.h ****   *         AHB5RSTCR    PSSIRSTC        LL_AHB5_GRP1_ReleaseReset\n
1958:../STM32Cube_FW_N6/Drivers/STM32N6xx_HAL_Driver/Inc/stm32n6xx_ll_bus.h ****   *         AHB5RSTCR    SDMMC2RSTC      LL_AHB5_GRP1_ReleaseReset\n
1959:../STM32Cube_FW_N6/Drivers/STM32N6xx_HAL_Driver/Inc/stm32n6xx_ll_bus.h ****   *         AHB5RSTCR    SDMMC1RSTC      LL_AHB5_GRP1_ReleaseReset\n
1960:../STM32Cube_FW_N6/Drivers/STM32N6xx_HAL_Driver/Inc/stm32n6xx_ll_bus.h ****   *         AHB5RSTCR    XSPI2RSTC       LL_AHB5_GRP1_ReleaseReset\n
1961:../STM32Cube_FW_N6/Drivers/STM32N6xx_HAL_Driver/Inc/stm32n6xx_ll_bus.h ****   *         AHB5RSTCR    XSPIMRSTC       LL_AHB5_GRP1_ReleaseReset\n
1962:../STM32Cube_FW_N6/Drivers/STM32N6xx_HAL_Driver/Inc/stm32n6xx_ll_bus.h ****   *         AHB5RSTCR    XSPI3RSTC       LL_AHB5_GRP1_ReleaseReset\n
1963:../STM32Cube_FW_N6/Drivers/STM32N6xx_HAL_Driver/Inc/stm32n6xx_ll_bus.h ****   *         AHB5RSTCR    GFXMMURSTC      LL_AHB5_GRP1_ReleaseReset\n
1964:../STM32Cube_FW_N6/Drivers/STM32N6xx_HAL_Driver/Inc/stm32n6xx_ll_bus.h ****   *         AHB5RSTCR    GPU2DRSTC       LL_AHB5_GRP1_ReleaseReset\n
1965:../STM32Cube_FW_N6/Drivers/STM32N6xx_HAL_Driver/Inc/stm32n6xx_ll_bus.h ****   *         AHB5RSTCR    OTG1PHYCTLRSTC  LL_AHB5_GRP1_ReleaseReset\n
1966:../STM32Cube_FW_N6/Drivers/STM32N6xx_HAL_Driver/Inc/stm32n6xx_ll_bus.h ****   *         AHB5RSTCR    OTG2PHYCTLRSTC  LL_AHB5_GRP1_ReleaseReset\n
1967:../STM32Cube_FW_N6/Drivers/STM32N6xx_HAL_Driver/Inc/stm32n6xx_ll_bus.h ****   *         AHB5RSTCR    ETH1RSTC        LL_AHB5_GRP1_ReleaseReset\n
1968:../STM32Cube_FW_N6/Drivers/STM32N6xx_HAL_Driver/Inc/stm32n6xx_ll_bus.h ****   *         AHB5RSTCR    OTG1RSTC        LL_AHB5_GRP1_ReleaseReset\n
1969:../STM32Cube_FW_N6/Drivers/STM32N6xx_HAL_Driver/Inc/stm32n6xx_ll_bus.h ****   *         AHB5RSTCR    OTGPHY1RSTC     LL_AHB5_GRP1_ReleaseReset\n
1970:../STM32Cube_FW_N6/Drivers/STM32N6xx_HAL_Driver/Inc/stm32n6xx_ll_bus.h ****   *         AHB5RSTCR    OTGPHY2RSTC     LL_AHB5_GRP1_ReleaseReset\n
1971:../STM32Cube_FW_N6/Drivers/STM32N6xx_HAL_Driver/Inc/stm32n6xx_ll_bus.h ****   *         AHB5RSTCR    OTG2RSTC        LL_AHB5_GRP1_ReleaseReset\n
1972:../STM32Cube_FW_N6/Drivers/STM32N6xx_HAL_Driver/Inc/stm32n6xx_ll_bus.h ****   *         AHB5RSTCR    CACHEAXIRSTC    LL_AHB5_GRP1_ReleaseReset\n
1973:../STM32Cube_FW_N6/Drivers/STM32N6xx_HAL_Driver/Inc/stm32n6xx_ll_bus.h ****   *         AHB5RSTCR    NPURSTS         LL_AHB5_GRP1_ReleaseReset
1974:../STM32Cube_FW_N6/Drivers/STM32N6xx_HAL_Driver/Inc/stm32n6xx_ll_bus.h ****   * @param  Periphs This parameter can be a combination of the following values:
1975:../STM32Cube_FW_N6/Drivers/STM32N6xx_HAL_Driver/Inc/stm32n6xx_ll_bus.h ****   *         @arg @ref LL_AHB5_GRP1_PERIPH_HPDMA1
1976:../STM32Cube_FW_N6/Drivers/STM32N6xx_HAL_Driver/Inc/stm32n6xx_ll_bus.h ****   *         @arg @ref LL_AHB5_GRP1_PERIPH_DMA2D
1977:../STM32Cube_FW_N6/Drivers/STM32N6xx_HAL_Driver/Inc/stm32n6xx_ll_bus.h ****   *         @arg @ref LL_AHB5_GRP1_PERIPH_JPEG
1978:../STM32Cube_FW_N6/Drivers/STM32N6xx_HAL_Driver/Inc/stm32n6xx_ll_bus.h ****   *         @arg @ref LL_AHB5_GRP1_PERIPH_FMC
1979:../STM32Cube_FW_N6/Drivers/STM32N6xx_HAL_Driver/Inc/stm32n6xx_ll_bus.h ****   *         @arg @ref LL_AHB5_GRP1_PERIPH_XSPI1
1980:../STM32Cube_FW_N6/Drivers/STM32N6xx_HAL_Driver/Inc/stm32n6xx_ll_bus.h ****   *         @arg @ref LL_AHB5_GRP1_PERIPH_XSPI2
1981:../STM32Cube_FW_N6/Drivers/STM32N6xx_HAL_Driver/Inc/stm32n6xx_ll_bus.h ****   *         @arg @ref LL_AHB5_GRP1_PERIPH_XSPI3
ARM GAS  /tmp/ccN2N8if.s 			page 74


1982:../STM32Cube_FW_N6/Drivers/STM32N6xx_HAL_Driver/Inc/stm32n6xx_ll_bus.h ****   *         @arg @ref LL_AHB5_GRP1_PERIPH_XSPIM
1983:../STM32Cube_FW_N6/Drivers/STM32N6xx_HAL_Driver/Inc/stm32n6xx_ll_bus.h ****   *         @arg @ref LL_AHB5_GRP1_PERIPH_PSSI
1984:../STM32Cube_FW_N6/Drivers/STM32N6xx_HAL_Driver/Inc/stm32n6xx_ll_bus.h ****   *         @arg @ref LL_AHB5_GRP1_PERIPH_SDMMC1
1985:../STM32Cube_FW_N6/Drivers/STM32N6xx_HAL_Driver/Inc/stm32n6xx_ll_bus.h ****   *         @arg @ref LL_AHB5_GRP1_PERIPH_SDMMC2
1986:../STM32Cube_FW_N6/Drivers/STM32N6xx_HAL_Driver/Inc/stm32n6xx_ll_bus.h ****   *         @arg @ref LL_AHB5_GRP1_PERIPH_GFXMMU
1987:../STM32Cube_FW_N6/Drivers/STM32N6xx_HAL_Driver/Inc/stm32n6xx_ll_bus.h ****   *         @arg @ref LL_AHB5_GRP1_PERIPH_GPU2D
1988:../STM32Cube_FW_N6/Drivers/STM32N6xx_HAL_Driver/Inc/stm32n6xx_ll_bus.h ****   *         @arg @ref LL_AHB5_GRP1_PERIPH_OTG1PHYCTL
1989:../STM32Cube_FW_N6/Drivers/STM32N6xx_HAL_Driver/Inc/stm32n6xx_ll_bus.h ****   *         @arg @ref LL_AHB5_GRP1_PERIPH_OTG2PHYCTL
1990:../STM32Cube_FW_N6/Drivers/STM32N6xx_HAL_Driver/Inc/stm32n6xx_ll_bus.h ****   *         @arg @ref LL_AHB5_GRP1_PERIPH_ETH1
1991:../STM32Cube_FW_N6/Drivers/STM32N6xx_HAL_Driver/Inc/stm32n6xx_ll_bus.h ****   *         @arg @ref LL_AHB5_GRP1_PERIPH_OTG1
1992:../STM32Cube_FW_N6/Drivers/STM32N6xx_HAL_Driver/Inc/stm32n6xx_ll_bus.h ****   *         @arg @ref LL_AHB5_GRP1_PERIPH_OTG2
1993:../STM32Cube_FW_N6/Drivers/STM32N6xx_HAL_Driver/Inc/stm32n6xx_ll_bus.h ****   *         @arg @ref LL_AHB5_GRP1_PERIPH_OTGPHY1
1994:../STM32Cube_FW_N6/Drivers/STM32N6xx_HAL_Driver/Inc/stm32n6xx_ll_bus.h ****   *         @arg @ref LL_AHB5_GRP1_PERIPH_OTGPHY2
1995:../STM32Cube_FW_N6/Drivers/STM32N6xx_HAL_Driver/Inc/stm32n6xx_ll_bus.h ****   *         @arg @ref LL_AHB5_GRP1_PERIPH_CACHEAXI
1996:../STM32Cube_FW_N6/Drivers/STM32N6xx_HAL_Driver/Inc/stm32n6xx_ll_bus.h ****   *         @arg @ref LL_AHB5_GRP1_PERIPH_NPU
1997:../STM32Cube_FW_N6/Drivers/STM32N6xx_HAL_Driver/Inc/stm32n6xx_ll_bus.h ****   * @retval None
1998:../STM32Cube_FW_N6/Drivers/STM32N6xx_HAL_Driver/Inc/stm32n6xx_ll_bus.h ****   */
1999:../STM32Cube_FW_N6/Drivers/STM32N6xx_HAL_Driver/Inc/stm32n6xx_ll_bus.h **** __STATIC_INLINE void LL_AHB5_GRP1_ReleaseReset(uint32_t Periphs)
2000:../STM32Cube_FW_N6/Drivers/STM32N6xx_HAL_Driver/Inc/stm32n6xx_ll_bus.h **** {
2001:../STM32Cube_FW_N6/Drivers/STM32N6xx_HAL_Driver/Inc/stm32n6xx_ll_bus.h ****   WRITE_REG(RCC->AHB5RSTCR, Periphs);
2002:../STM32Cube_FW_N6/Drivers/STM32N6xx_HAL_Driver/Inc/stm32n6xx_ll_bus.h **** }
2003:../STM32Cube_FW_N6/Drivers/STM32N6xx_HAL_Driver/Inc/stm32n6xx_ll_bus.h **** 
2004:../STM32Cube_FW_N6/Drivers/STM32N6xx_HAL_Driver/Inc/stm32n6xx_ll_bus.h **** /**
2005:../STM32Cube_FW_N6/Drivers/STM32N6xx_HAL_Driver/Inc/stm32n6xx_ll_bus.h ****   * @brief  Enable AHB5 peripherals clock during Low Power mode.
2006:../STM32Cube_FW_N6/Drivers/STM32N6xx_HAL_Driver/Inc/stm32n6xx_ll_bus.h ****   * @rmtoll AHB5LPENSR   HPDMA1LPENS   LL_AHB5_GRP1_EnableClockLowPower\n
2007:../STM32Cube_FW_N6/Drivers/STM32N6xx_HAL_Driver/Inc/stm32n6xx_ll_bus.h ****   *         AHB5LPENSR   DMA2DLPENS    LL_AHB5_GRP1_EnableClockLowPower\n
2008:../STM32Cube_FW_N6/Drivers/STM32N6xx_HAL_Driver/Inc/stm32n6xx_ll_bus.h ****   *         AHB5LPENSR   JPEGLPENS     LL_AHB5_GRP1_EnableClockLowPower\n
2009:../STM32Cube_FW_N6/Drivers/STM32N6xx_HAL_Driver/Inc/stm32n6xx_ll_bus.h ****   *         AHB5LPENSR   FMCLPENS      LL_AHB5_GRP1_EnableClockLowPower\n
2010:../STM32Cube_FW_N6/Drivers/STM32N6xx_HAL_Driver/Inc/stm32n6xx_ll_bus.h ****   *         AHB5LPENSR   XSPI1LPENS    LL_AHB5_GRP1_EnableClockLowPower\n
2011:../STM32Cube_FW_N6/Drivers/STM32N6xx_HAL_Driver/Inc/stm32n6xx_ll_bus.h ****   *         AHB5LPENSR   PSSILPENS     LL_AHB5_GRP1_EnableClockLowPower\n
2012:../STM32Cube_FW_N6/Drivers/STM32N6xx_HAL_Driver/Inc/stm32n6xx_ll_bus.h ****   *         AHB5LPENSR   SDMMC2LPENS   LL_AHB5_GRP1_EnableClockLowPower\n
2013:../STM32Cube_FW_N6/Drivers/STM32N6xx_HAL_Driver/Inc/stm32n6xx_ll_bus.h ****   *         AHB5LPENSR   SDMMC1LPENS   LL_AHB5_GRP1_EnableClockLowPower\n
2014:../STM32Cube_FW_N6/Drivers/STM32N6xx_HAL_Driver/Inc/stm32n6xx_ll_bus.h ****   *         AHB5LPENSR   XSPI2LPENS    LL_AHB5_GRP1_EnableClockLowPower\n
2015:../STM32Cube_FW_N6/Drivers/STM32N6xx_HAL_Driver/Inc/stm32n6xx_ll_bus.h ****   *         AHB5LPENSR   XSPIMLPENS    LL_AHB5_GRP1_EnableClockLowPower\n
2016:../STM32Cube_FW_N6/Drivers/STM32N6xx_HAL_Driver/Inc/stm32n6xx_ll_bus.h ****   *         AHB5LPENSR   MCE1LPENS     LL_AHB5_GRP1_EnableClockLowPower\n (*)
2017:../STM32Cube_FW_N6/Drivers/STM32N6xx_HAL_Driver/Inc/stm32n6xx_ll_bus.h ****   *         AHB5LPENSR   MCE2LPENS     LL_AHB5_GRP1_EnableClockLowPower\n (*)
2018:../STM32Cube_FW_N6/Drivers/STM32N6xx_HAL_Driver/Inc/stm32n6xx_ll_bus.h ****   *         AHB5LPENSR   MCE3LPENS     LL_AHB5_GRP1_EnableClockLowPower\n (*)
2019:../STM32Cube_FW_N6/Drivers/STM32N6xx_HAL_Driver/Inc/stm32n6xx_ll_bus.h ****   *         AHB5LPENSR   XSPI3LPENS    LL_AHB5_GRP1_EnableClockLowPower\n
2020:../STM32Cube_FW_N6/Drivers/STM32N6xx_HAL_Driver/Inc/stm32n6xx_ll_bus.h ****   *         AHB5LPENSR   MCE4LPENS     LL_AHB5_GRP1_EnableClockLowPower\n (*)
2021:../STM32Cube_FW_N6/Drivers/STM32N6xx_HAL_Driver/Inc/stm32n6xx_ll_bus.h ****   *         AHB5LPENSR   GFXMMULPENS   LL_AHB5_GRP1_EnableClockLowPower\n
2022:../STM32Cube_FW_N6/Drivers/STM32N6xx_HAL_Driver/Inc/stm32n6xx_ll_bus.h ****   *         AHB5LPENSR   GPU2DLPENS    LL_AHB5_GRP1_EnableClockLowPower\n
2023:../STM32Cube_FW_N6/Drivers/STM32N6xx_HAL_Driver/Inc/stm32n6xx_ll_bus.h ****   *         AHB5LPENSR   ETH1MACLPENS  LL_AHB5_GRP1_EnableClockLowPower\n
2024:../STM32Cube_FW_N6/Drivers/STM32N6xx_HAL_Driver/Inc/stm32n6xx_ll_bus.h ****   *         AHB5LPENSR   ETH1TXLPENS   LL_AHB5_GRP1_EnableClockLowPower\n
2025:../STM32Cube_FW_N6/Drivers/STM32N6xx_HAL_Driver/Inc/stm32n6xx_ll_bus.h ****   *         AHB5LPENSR   ETH1RXLPENS   LL_AHB5_GRP1_EnableClockLowPower\n
2026:../STM32Cube_FW_N6/Drivers/STM32N6xx_HAL_Driver/Inc/stm32n6xx_ll_bus.h ****   *         AHB5LPENSR   ETH1LPENS     LL_AHB5_GRP1_EnableClockLowPower\n
2027:../STM32Cube_FW_N6/Drivers/STM32N6xx_HAL_Driver/Inc/stm32n6xx_ll_bus.h ****   *         AHB5LPENSR   OTG1LPENS     LL_AHB5_GRP1_EnableClockLowPower\n
2028:../STM32Cube_FW_N6/Drivers/STM32N6xx_HAL_Driver/Inc/stm32n6xx_ll_bus.h ****   *         AHB5LPENSR   OTGPHY1LPENS  LL_AHB5_GRP1_EnableClockLowPower\n
2029:../STM32Cube_FW_N6/Drivers/STM32N6xx_HAL_Driver/Inc/stm32n6xx_ll_bus.h ****   *         AHB5LPENSR   OTGPHY2LPENS  LL_AHB5_GRP1_EnableClockLowPower\n
2030:../STM32Cube_FW_N6/Drivers/STM32N6xx_HAL_Driver/Inc/stm32n6xx_ll_bus.h ****   *         AHB5LPENSR   OTG2LPENS     LL_AHB5_GRP1_EnableClockLowPower\n
2031:../STM32Cube_FW_N6/Drivers/STM32N6xx_HAL_Driver/Inc/stm32n6xx_ll_bus.h ****   *         AHB5LPENSR   CACHEAXILPENS LL_AHB5_GRP1_EnableClockLowPower\n
2032:../STM32Cube_FW_N6/Drivers/STM32N6xx_HAL_Driver/Inc/stm32n6xx_ll_bus.h ****   *         AHB5LPENSR   NPULPENS      LL_AHB5_GRP1_EnableClockLowPower
2033:../STM32Cube_FW_N6/Drivers/STM32N6xx_HAL_Driver/Inc/stm32n6xx_ll_bus.h ****   * @param  Periphs This parameter can be a combination of the following values:
2034:../STM32Cube_FW_N6/Drivers/STM32N6xx_HAL_Driver/Inc/stm32n6xx_ll_bus.h ****   *         @arg @ref LL_AHB5_GRP1_PERIPH_HPDMA1
2035:../STM32Cube_FW_N6/Drivers/STM32N6xx_HAL_Driver/Inc/stm32n6xx_ll_bus.h ****   *         @arg @ref LL_AHB5_GRP1_PERIPH_DMA2D
2036:../STM32Cube_FW_N6/Drivers/STM32N6xx_HAL_Driver/Inc/stm32n6xx_ll_bus.h ****   *         @arg @ref LL_AHB5_GRP1_PERIPH_JPEG
2037:../STM32Cube_FW_N6/Drivers/STM32N6xx_HAL_Driver/Inc/stm32n6xx_ll_bus.h ****   *         @arg @ref LL_AHB5_GRP1_PERIPH_FMC
2038:../STM32Cube_FW_N6/Drivers/STM32N6xx_HAL_Driver/Inc/stm32n6xx_ll_bus.h ****   *         @arg @ref LL_AHB5_GRP1_PERIPH_XSPI1
ARM GAS  /tmp/ccN2N8if.s 			page 75


2039:../STM32Cube_FW_N6/Drivers/STM32N6xx_HAL_Driver/Inc/stm32n6xx_ll_bus.h ****   *         @arg @ref LL_AHB5_GRP1_PERIPH_XSPI2
2040:../STM32Cube_FW_N6/Drivers/STM32N6xx_HAL_Driver/Inc/stm32n6xx_ll_bus.h ****   *         @arg @ref LL_AHB5_GRP1_PERIPH_XSPI3
2041:../STM32Cube_FW_N6/Drivers/STM32N6xx_HAL_Driver/Inc/stm32n6xx_ll_bus.h ****   *         @arg @ref LL_AHB5_GRP1_PERIPH_XSPIM
2042:../STM32Cube_FW_N6/Drivers/STM32N6xx_HAL_Driver/Inc/stm32n6xx_ll_bus.h ****   *         @arg @ref LL_AHB5_GRP1_PERIPH_PSSI
2043:../STM32Cube_FW_N6/Drivers/STM32N6xx_HAL_Driver/Inc/stm32n6xx_ll_bus.h ****   *         @arg @ref LL_AHB5_GRP1_PERIPH_SDMMC1
2044:../STM32Cube_FW_N6/Drivers/STM32N6xx_HAL_Driver/Inc/stm32n6xx_ll_bus.h ****   *         @arg @ref LL_AHB5_GRP1_PERIPH_SDMMC2
2045:../STM32Cube_FW_N6/Drivers/STM32N6xx_HAL_Driver/Inc/stm32n6xx_ll_bus.h ****   *         @arg @ref LL_AHB5_GRP1_PERIPH_MCE1 (*)
2046:../STM32Cube_FW_N6/Drivers/STM32N6xx_HAL_Driver/Inc/stm32n6xx_ll_bus.h ****   *         @arg @ref LL_AHB5_GRP1_PERIPH_MCE2 (*)
2047:../STM32Cube_FW_N6/Drivers/STM32N6xx_HAL_Driver/Inc/stm32n6xx_ll_bus.h ****   *         @arg @ref LL_AHB5_GRP1_PERIPH_MCE3 (*)
2048:../STM32Cube_FW_N6/Drivers/STM32N6xx_HAL_Driver/Inc/stm32n6xx_ll_bus.h ****   *         @arg @ref LL_AHB5_GRP1_PERIPH_MCE4 (*)
2049:../STM32Cube_FW_N6/Drivers/STM32N6xx_HAL_Driver/Inc/stm32n6xx_ll_bus.h ****   *         @arg @ref LL_AHB5_GRP1_PERIPH_GFXMMU
2050:../STM32Cube_FW_N6/Drivers/STM32N6xx_HAL_Driver/Inc/stm32n6xx_ll_bus.h ****   *         @arg @ref LL_AHB5_GRP1_PERIPH_GPU2D
2051:../STM32Cube_FW_N6/Drivers/STM32N6xx_HAL_Driver/Inc/stm32n6xx_ll_bus.h ****   *         @arg @ref LL_AHB5_GRP1_PERIPH_ETH1
2052:../STM32Cube_FW_N6/Drivers/STM32N6xx_HAL_Driver/Inc/stm32n6xx_ll_bus.h ****   *         @arg @ref LL_AHB5_GRP1_PERIPH_ETH1MAC
2053:../STM32Cube_FW_N6/Drivers/STM32N6xx_HAL_Driver/Inc/stm32n6xx_ll_bus.h ****   *         @arg @ref LL_AHB5_GRP1_PERIPH_ETH1TX
2054:../STM32Cube_FW_N6/Drivers/STM32N6xx_HAL_Driver/Inc/stm32n6xx_ll_bus.h ****   *         @arg @ref LL_AHB5_GRP1_PERIPH_ETH1RX
2055:../STM32Cube_FW_N6/Drivers/STM32N6xx_HAL_Driver/Inc/stm32n6xx_ll_bus.h ****   *         @arg @ref LL_AHB5_GRP1_PERIPH_OTG1
2056:../STM32Cube_FW_N6/Drivers/STM32N6xx_HAL_Driver/Inc/stm32n6xx_ll_bus.h ****   *         @arg @ref LL_AHB5_GRP1_PERIPH_OTG2
2057:../STM32Cube_FW_N6/Drivers/STM32N6xx_HAL_Driver/Inc/stm32n6xx_ll_bus.h ****   *         @arg @ref LL_AHB5_GRP1_PERIPH_OTGPHY1
2058:../STM32Cube_FW_N6/Drivers/STM32N6xx_HAL_Driver/Inc/stm32n6xx_ll_bus.h ****   *         @arg @ref LL_AHB5_GRP1_PERIPH_OTGPHY2
2059:../STM32Cube_FW_N6/Drivers/STM32N6xx_HAL_Driver/Inc/stm32n6xx_ll_bus.h ****   *         @arg @ref LL_AHB5_GRP1_PERIPH_CACHEAXI
2060:../STM32Cube_FW_N6/Drivers/STM32N6xx_HAL_Driver/Inc/stm32n6xx_ll_bus.h ****   *         @arg @ref LL_AHB5_GRP1_PERIPH_NPU
2061:../STM32Cube_FW_N6/Drivers/STM32N6xx_HAL_Driver/Inc/stm32n6xx_ll_bus.h ****   *
2062:../STM32Cube_FW_N6/Drivers/STM32N6xx_HAL_Driver/Inc/stm32n6xx_ll_bus.h ****   *         (*) value not defined in all devices.
2063:../STM32Cube_FW_N6/Drivers/STM32N6xx_HAL_Driver/Inc/stm32n6xx_ll_bus.h ****   * @retval None
2064:../STM32Cube_FW_N6/Drivers/STM32N6xx_HAL_Driver/Inc/stm32n6xx_ll_bus.h ****   */
2065:../STM32Cube_FW_N6/Drivers/STM32N6xx_HAL_Driver/Inc/stm32n6xx_ll_bus.h **** __STATIC_INLINE void LL_AHB5_GRP1_EnableClockLowPower(uint32_t Periphs)
 1292              		.loc 2 2065 22 view .LVU427
 1293              	.LBB118:
2066:../STM32Cube_FW_N6/Drivers/STM32N6xx_HAL_Driver/Inc/stm32n6xx_ll_bus.h **** {
2067:../STM32Cube_FW_N6/Drivers/STM32N6xx_HAL_Driver/Inc/stm32n6xx_ll_bus.h ****   __IO uint32_t tmpreg;
 1294              		.loc 2 2067 3 view .LVU428
2068:../STM32Cube_FW_N6/Drivers/STM32N6xx_HAL_Driver/Inc/stm32n6xx_ll_bus.h ****   WRITE_REG(RCC->AHB5LPENSR, Periphs);
 1295              		.loc 2 2068 3 view .LVU429
 1296 006a C4F8A03A 		str	r3, [r4, #2720]
2069:../STM32Cube_FW_N6/Drivers/STM32N6xx_HAL_Driver/Inc/stm32n6xx_ll_bus.h ****   /* Delay after an RCC peripheral clock enabling */
2070:../STM32Cube_FW_N6/Drivers/STM32N6xx_HAL_Driver/Inc/stm32n6xx_ll_bus.h ****   tmpreg = READ_REG(RCC->AHB5LPENR);
 1297              		.loc 2 2070 3 view .LVU430
 1298              		.loc 2 2070 12 is_stmt 0 view .LVU431
 1299 006e D4F8A032 		ldr	r3, [r4, #672]
 1300              	.LBE118:
 1301              	.LBE117:
 1302              		.loc 1 547 3 view .LVU432
 1303 0072 B120     		movs	r0, #177
 1304              	.LBB120:
 1305              	.LBB119:
 1306              		.loc 2 2070 10 view .LVU433
 1307 0074 0493     		str	r3, [sp, #16]
2071:../STM32Cube_FW_N6/Drivers/STM32N6xx_HAL_Driver/Inc/stm32n6xx_ll_bus.h ****   (void)tmpreg;
 1308              		.loc 2 2071 3 is_stmt 1 view .LVU434
 1309 0076 049B     		ldr	r3, [sp, #16]
 1310              	.LVL88:
 1311              		.loc 2 2071 3 is_stmt 0 view .LVU435
 1312              	.LBE119:
 1313              	.LBE120:
 540:../Middlewares/screenl/Src/scrl_usb.c ****   USB1_HS_PHYC->USBPHYC_CR |= (0x2U << 0x4U);
 1314              		.loc 1 540 3 is_stmt 1 view .LVU436
ARM GAS  /tmp/ccN2N8if.s 			page 76


 540:../Middlewares/screenl/Src/scrl_usb.c ****   USB1_HS_PHYC->USBPHYC_CR |= (0x2U << 0x4U);
 1315              		.loc 1 540 15 is_stmt 0 view .LVU437
 1316 0078 174B     		ldr	r3, .L67+32
 1317 007a 1A68     		ldr	r2, [r3]
 540:../Middlewares/screenl/Src/scrl_usb.c ****   USB1_HS_PHYC->USBPHYC_CR |= (0x2U << 0x4U);
 1318              		.loc 1 540 28 view .LVU438
 1319 007c 22F07002 		bic	r2, r2, #112
 1320 0080 1A60     		str	r2, [r3]
 541:../Middlewares/screenl/Src/scrl_usb.c **** 
 1321              		.loc 1 541 3 is_stmt 1 view .LVU439
 541:../Middlewares/screenl/Src/scrl_usb.c **** 
 1322              		.loc 1 541 15 is_stmt 0 view .LVU440
 1323 0082 1A68     		ldr	r2, [r3]
 541:../Middlewares/screenl/Src/scrl_usb.c **** 
 1324              		.loc 1 541 28 view .LVU441
 1325 0084 42F02002 		orr	r2, r2, #32
 1326 0088 1A60     		str	r2, [r3]
 544:../Middlewares/screenl/Src/scrl_usb.c ****   __HAL_RCC_USB1_OTG_HS_PHY_CLK_SLEEP_ENABLE();
 1327              		.loc 1 544 3 is_stmt 1 view .LVU442
 1328              	.LVL89:
 1329              	.LBB121:
 1330              	.LBI121:
1755:../STM32Cube_FW_N6/Drivers/STM32N6xx_HAL_Driver/Inc/stm32n6xx_ll_bus.h **** {
 1331              		.loc 2 1755 22 view .LVU443
 1332              	.LBB122:
1757:../STM32Cube_FW_N6/Drivers/STM32N6xx_HAL_Driver/Inc/stm32n6xx_ll_bus.h ****   WRITE_REG(RCC->AHB5ENSR, Periphs);
 1333              		.loc 2 1757 3 view .LVU444
1758:../STM32Cube_FW_N6/Drivers/STM32N6xx_HAL_Driver/Inc/stm32n6xx_ll_bus.h ****   /* Delay after an RCC peripheral clock enabling */
 1334              		.loc 2 1758 3 view .LVU445
 1335 008a 4FF00063 		mov	r3, #134217728
 1336 008e C4F8603A 		str	r3, [r4, #2656]
1760:../STM32Cube_FW_N6/Drivers/STM32N6xx_HAL_Driver/Inc/stm32n6xx_ll_bus.h ****   (void)tmpreg;
 1337              		.loc 2 1760 3 view .LVU446
1760:../STM32Cube_FW_N6/Drivers/STM32N6xx_HAL_Driver/Inc/stm32n6xx_ll_bus.h ****   (void)tmpreg;
 1338              		.loc 2 1760 12 is_stmt 0 view .LVU447
 1339 0092 D4F86022 		ldr	r2, [r4, #608]
1760:../STM32Cube_FW_N6/Drivers/STM32N6xx_HAL_Driver/Inc/stm32n6xx_ll_bus.h ****   (void)tmpreg;
 1340              		.loc 2 1760 10 view .LVU448
 1341 0096 0392     		str	r2, [sp, #12]
1761:../STM32Cube_FW_N6/Drivers/STM32N6xx_HAL_Driver/Inc/stm32n6xx_ll_bus.h **** }
 1342              		.loc 2 1761 3 is_stmt 1 view .LVU449
 1343 0098 039A     		ldr	r2, [sp, #12]
 1344              	.LVL90:
1761:../STM32Cube_FW_N6/Drivers/STM32N6xx_HAL_Driver/Inc/stm32n6xx_ll_bus.h **** }
 1345              		.loc 2 1761 3 is_stmt 0 view .LVU450
 1346              	.LBE122:
 1347              	.LBE121:
 545:../Middlewares/screenl/Src/scrl_usb.c **** 
 1348              		.loc 1 545 3 is_stmt 1 view .LVU451
 1349              	.LBB123:
 1350              	.LBI123:
2065:../STM32Cube_FW_N6/Drivers/STM32N6xx_HAL_Driver/Inc/stm32n6xx_ll_bus.h **** {
 1351              		.loc 2 2065 22 view .LVU452
 1352              	.LBB124:
2067:../STM32Cube_FW_N6/Drivers/STM32N6xx_HAL_Driver/Inc/stm32n6xx_ll_bus.h ****   WRITE_REG(RCC->AHB5LPENSR, Periphs);
 1353              		.loc 2 2067 3 view .LVU453
2068:../STM32Cube_FW_N6/Drivers/STM32N6xx_HAL_Driver/Inc/stm32n6xx_ll_bus.h ****   /* Delay after an RCC peripheral clock enabling */
ARM GAS  /tmp/ccN2N8if.s 			page 77


 1354              		.loc 2 2068 3 view .LVU454
 1355 009a C4F8A03A 		str	r3, [r4, #2720]
2070:../STM32Cube_FW_N6/Drivers/STM32N6xx_HAL_Driver/Inc/stm32n6xx_ll_bus.h ****   (void)tmpreg;
 1356              		.loc 2 2070 3 view .LVU455
2070:../STM32Cube_FW_N6/Drivers/STM32N6xx_HAL_Driver/Inc/stm32n6xx_ll_bus.h ****   (void)tmpreg;
 1357              		.loc 2 2070 12 is_stmt 0 view .LVU456
 1358 009e D4F8A032 		ldr	r3, [r4, #672]
 1359              	.LBE124:
 1360              	.LBE123:
 1361              		.loc 1 547 3 view .LVU457
 1362 00a2 0022     		movs	r2, #0
 1363              	.LBB126:
 1364              	.LBB125:
2070:../STM32Cube_FW_N6/Drivers/STM32N6xx_HAL_Driver/Inc/stm32n6xx_ll_bus.h ****   (void)tmpreg;
 1365              		.loc 2 2070 10 view .LVU458
 1366 00a4 0293     		str	r3, [sp, #8]
 1367              		.loc 2 2071 3 is_stmt 1 view .LVU459
 1368 00a6 029B     		ldr	r3, [sp, #8]
 1369              	.LVL91:
 1370              		.loc 2 2071 3 is_stmt 0 view .LVU460
 1371              	.LBE125:
 1372              	.LBE126:
 1373              		.loc 1 547 3 is_stmt 1 view .LVU461
 1374 00a8 FFF7FEFF 		bl	HAL_NVIC_SetPriority
 1375              	.LVL92:
 548:../Middlewares/screenl/Src/scrl_usb.c **** 
 549:../Middlewares/screenl/Src/scrl_usb.c ****   /* Enable USB OTG interrupt */
 550:../Middlewares/screenl/Src/scrl_usb.c ****   HAL_NVIC_EnableIRQ(USB1_OTG_HS_IRQn);
 1376              		.loc 1 550 3 view .LVU462
 1377 00ac B120     		movs	r0, #177
 551:../Middlewares/screenl/Src/scrl_usb.c **** }
 1378              		.loc 1 551 1 is_stmt 0 view .LVU463
 1379 00ae 06B0     		add	sp, sp, #24
 1380              		.cfi_def_cfa_offset 8
 1381              		@ sp needed
 1382 00b0 BDE81040 		pop	{r4, lr}
 1383              		.cfi_restore 14
 1384              		.cfi_restore 4
 1385              		.cfi_def_cfa_offset 0
 550:../Middlewares/screenl/Src/scrl_usb.c **** }
 1386              		.loc 1 550 3 view .LVU464
 1387 00b4 FFF7FEBF 		b	HAL_NVIC_EnableIRQ
 1388              	.LVL93:
 1389              	.L68:
 1390              		.align	2
 1391              	.L67:
 1392 00b8 00000000 		.word	uvcl_pcd_handle
 1393 00bc 00000000 		.word	.LC3
 1394 00c0 00000000 		.word	__func__.0
 1395 00c4 02000000 		.word	.LC1
 1396 00c8 00000458 		.word	1476657152
 1397 00cc 19000000 		.word	.LC4
 1398 00d0 00800256 		.word	1443004416
 1399 00d4 00480256 		.word	1442990080
 1400 00d8 00FC0358 		.word	1476656128
 1401              		.cfi_endproc
 1402              	.LFE903:
ARM GAS  /tmp/ccN2N8if.s 			page 78


 1404              		.section	.text.USB1_OTG_HS_IRQHandler,"ax",%progbits
 1405              		.align	1
 1406              		.global	USB1_OTG_HS_IRQHandler
 1407              		.syntax unified
 1408              		.thumb
 1409              		.thumb_func
 1411              	USB1_OTG_HS_IRQHandler:
 1412              	.LFB904:
 552:../Middlewares/screenl/Src/scrl_usb.c **** 
 553:../Middlewares/screenl/Src/scrl_usb.c **** void USB1_OTG_HS_IRQHandler(void)
 554:../Middlewares/screenl/Src/scrl_usb.c **** {
 1413              		.loc 1 554 1 is_stmt 1 view -0
 1414              		.cfi_startproc
 1415              		@ args = 0, pretend = 0, frame = 0
 1416              		@ frame_needed = 0, uses_anonymous_args = 0
 1417              		@ link register save eliminated.
 555:../Middlewares/screenl/Src/scrl_usb.c ****   UVCL_IRQHandler();
 1418              		.loc 1 555 3 view .LVU466
 1419 0000 FFF7FEBF 		b	UVCL_IRQHandler
 1420              	.LVL94:
 1421              		.cfi_endproc
 1422              	.LFE904:
 1424              		.section	.rodata.__func__.0,"a"
 1427              	__func__.0:
 1428 0000 48414C5F 		.ascii	"HAL_PCD_MspInit\000"
 1428      5043445F 
 1428      4D737049 
 1428      6E697400 
 1429              		.section	.rodata.__func__.1,"a"
 1432              	__func__.1:
 1433 0000 6376745F 		.ascii	"cvt_uvcl_payload_format\000"
 1433      7576636C 
 1433      5F706179 
 1433      6C6F6164 
 1433      5F666F72 
 1434              		.section	.rodata.__func__.2,"a"
 1437              	__func__.2:
 1438 0000 53435255 		.ascii	"SCRU_usb_init\000"
 1438      5F757362 
 1438      5F696E69 
 1438      7400
 1439              		.section	.rodata.__func__.3,"a"
 1442              	__func__.3:
 1443 0000 6765745F 		.ascii	"get_bpp\000"
 1443      62707000 
 1444              		.section	.bss.scrl_ctx,"aw",%nobits
 1445              		.align	2
 1448              	scrl_ctx:
 1449 0000 00000000 		.space	188
 1449      00000000 
 1449      00000000 
 1449      00000000 
 1449      00000000 
 1450              		.section	.bss.SCRU_BLUE_CR_LUT,"aw",%nobits
 1451              		.align	2
 1454              	SCRU_BLUE_CR_LUT:
 1455 0000 00000000 		.space	1024
ARM GAS  /tmp/ccN2N8if.s 			page 79


 1455      00000000 
 1455      00000000 
 1455      00000000 
 1455      00000000 
 1456              		.section	.bss.SCRU_BLUE_Y_LUT,"aw",%nobits
 1457              		.align	2
 1460              	SCRU_BLUE_Y_LUT:
 1461 0000 00000000 		.space	1024
 1461      00000000 
 1461      00000000 
 1461      00000000 
 1461      00000000 
 1462              		.section	.bss.SCRU_GREEN_CB_LUT,"aw",%nobits
 1463              		.align	2
 1466              	SCRU_GREEN_CB_LUT:
 1467 0000 00000000 		.space	1024
 1467      00000000 
 1467      00000000 
 1467      00000000 
 1467      00000000 
 1468              		.section	.bss.SCRU_GREEN_CR_LUT,"aw",%nobits
 1469              		.align	2
 1472              	SCRU_GREEN_CR_LUT:
 1473 0000 00000000 		.space	1024
 1473      00000000 
 1473      00000000 
 1473      00000000 
 1473      00000000 
 1474              		.section	.bss.SCRU_GREEN_Y_LUT,"aw",%nobits
 1475              		.align	2
 1478              	SCRU_GREEN_Y_LUT:
 1479 0000 00000000 		.space	1024
 1479      00000000 
 1479      00000000 
 1479      00000000 
 1479      00000000 
 1480              		.section	.bss.SCRU_BLUE_CB_RED_CR_LUT,"aw",%nobits
 1481              		.align	2
 1484              	SCRU_BLUE_CB_RED_CR_LUT:
 1485 0000 00000000 		.space	1024
 1485      00000000 
 1485      00000000 
 1485      00000000 
 1485      00000000 
 1486              		.section	.bss.SCRU_RED_CB_LUT,"aw",%nobits
 1487              		.align	2
 1490              	SCRU_RED_CB_LUT:
 1491 0000 00000000 		.space	1024
 1491      00000000 
 1491      00000000 
 1491      00000000 
 1491      00000000 
 1492              		.section	.bss.SCRU_RED_Y_LUT,"aw",%nobits
 1493              		.align	2
 1496              	SCRU_RED_Y_LUT:
 1497 0000 00000000 		.space	1024
 1497      00000000 
ARM GAS  /tmp/ccN2N8if.s 			page 80


 1497      00000000 
 1497      00000000 
 1497      00000000 
 1498              		.text
 1499              	.Letext0:
 1500              		.file 3 "/opt/st/stm32cubeclt_1.21.0/GNU-tools-for-STM32/arm-none-eabi/include/machine/_default_ty
 1501              		.file 4 "/opt/st/stm32cubeclt_1.21.0/GNU-tools-for-STM32/arm-none-eabi/include/sys/_stdint.h"
 1502              		.file 5 "../Middlewares/screenl/Inc/scrl.h"
 1503              		.file 6 "../STM32Cube_FW_N6/Drivers/CMSIS/Device/ST/STM32N6xx/Include/stm32n657xx.h"
 1504              		.file 7 "../STM32Cube_FW_N6/Drivers/STM32N6xx_HAL_Driver/Inc/stm32n6xx_hal_def.h"
 1505              		.file 8 "../STM32Cube_FW_N6/Drivers/STM32N6xx_HAL_Driver/Inc/stm32n6xx_hal_dma2d.h"
 1506              		.file 9 "../STM32Cube_FW_N6/Drivers/STM32N6xx_HAL_Driver/Inc/stm32n6xx_ll_usb.h"
 1507              		.file 10 "../STM32Cube_FW_N6/Drivers/STM32N6xx_HAL_Driver/Inc/stm32n6xx_hal_pcd.h"
 1508              		.file 11 "../STM32Cube_FW_N6/Drivers/BSP/Components/Common/lcd.h"
 1509              		.file 12 "../Middlewares/screenl/uvcl/Inc/uvcl.h"
 1510              		.file 13 "../Middlewares/screenl/Src/scrl_common.h"
 1511              		.file 14 "../STM32Cube_FW_N6/Drivers/STM32N6xx_HAL_Driver/Inc/stm32n6xx_hal_cortex.h"
 1512              		.file 15 "../STM32Cube_FW_N6/Drivers/STM32N6xx_HAL_Driver/Inc/stm32n6xx_hal_pwr_ex.h"
 1513              		.file 16 "../STM32Cube_FW_N6/Utilities/lcd/stm32_lcd.h"
 1514              		.file 17 "/opt/st/stm32cubeclt_1.21.0/GNU-tools-for-STM32/arm-none-eabi/include/assert.h"
 1515              		.file 18 "<built-in>"
ARM GAS  /tmp/ccN2N8if.s 			page 81


DEFINED SYMBOLS
                            *ABS*:00000000 scrl_usb.c
     /tmp/ccN2N8if.s:26     .text.usb_frame_release_cb:00000000 $t
     /tmp/ccN2N8if.s:31     .text.usb_frame_release_cb:00000000 usb_frame_release_cb
     /tmp/ccN2N8if.s:55     .text.SCRC_Composition_Done_Callback:00000000 $t
     /tmp/ccN2N8if.s:61     .text.SCRC_Composition_Done_Callback:00000000 SCRC_Composition_Done_Callback
     /tmp/ccN2N8if.s:544    .text.SCRC_Composition_Done_Callback:00000194 $d
     /tmp/ccN2N8if.s:1478   .bss.SCRU_GREEN_Y_LUT:00000000 SCRU_GREEN_Y_LUT
     /tmp/ccN2N8if.s:1496   .bss.SCRU_RED_Y_LUT:00000000 SCRU_RED_Y_LUT
     /tmp/ccN2N8if.s:1460   .bss.SCRU_BLUE_Y_LUT:00000000 SCRU_BLUE_Y_LUT
     /tmp/ccN2N8if.s:1472   .bss.SCRU_GREEN_CR_LUT:00000000 SCRU_GREEN_CR_LUT
     /tmp/ccN2N8if.s:1484   .bss.SCRU_BLUE_CB_RED_CR_LUT:00000000 SCRU_BLUE_CB_RED_CR_LUT
     /tmp/ccN2N8if.s:1454   .bss.SCRU_BLUE_CR_LUT:00000000 SCRU_BLUE_CR_LUT
     /tmp/ccN2N8if.s:1490   .bss.SCRU_RED_CB_LUT:00000000 SCRU_RED_CB_LUT
     /tmp/ccN2N8if.s:1466   .bss.SCRU_GREEN_CB_LUT:00000000 SCRU_GREEN_CB_LUT
     /tmp/ccN2N8if.s:1442   .rodata.__func__.3:00000000 __func__.3
     /tmp/ccN2N8if.s:562    .text.SCRL_Init:00000000 $t
     /tmp/ccN2N8if.s:568    .text.SCRL_Init:00000000 SCRL_Init
     /tmp/ccN2N8if.s:993    .text.SCRL_Init:000001d4 $d
     /tmp/ccN2N8if.s:1448   .bss.scrl_ctx:00000000 scrl_ctx
     /tmp/ccN2N8if.s:1432   .rodata.__func__.1:00000000 __func__.1
     /tmp/ccN2N8if.s:1437   .rodata.__func__.2:00000000 __func__.2
     /tmp/ccN2N8if.s:1018   .text.SCRL_SetAddress_NoReload:00000000 $t
     /tmp/ccN2N8if.s:1024   .text.SCRL_SetAddress_NoReload:00000000 SCRL_SetAddress_NoReload
     /tmp/ccN2N8if.s:1047   .text.SCRL_SetAddress_NoReload:0000000c $d
     /tmp/ccN2N8if.s:1052   .text.SCRL_ReloadLayer:00000000 $t
     /tmp/ccN2N8if.s:1058   .text.SCRL_ReloadLayer:00000000 SCRL_ReloadLayer
     /tmp/ccN2N8if.s:1086   .text.SCRL_ReloadLayer:00000014 $d
     /tmp/ccN2N8if.s:1091   .text.SRCL_Update:00000000 $t
     /tmp/ccN2N8if.s:1097   .text.SRCL_Update:00000000 SRCL_Update
     /tmp/ccN2N8if.s:1145   .text.SRCL_Update:00000018 $d
     /tmp/ccN2N8if.s:1155   .text.HAL_PCD_MspInit:00000000 $t
     /tmp/ccN2N8if.s:1161   .text.HAL_PCD_MspInit:00000000 HAL_PCD_MspInit
     /tmp/ccN2N8if.s:1392   .text.HAL_PCD_MspInit:000000b8 $d
     /tmp/ccN2N8if.s:1427   .rodata.__func__.0:00000000 __func__.0
     /tmp/ccN2N8if.s:1405   .text.USB1_OTG_HS_IRQHandler:00000000 $t
     /tmp/ccN2N8if.s:1411   .text.USB1_OTG_HS_IRQHandler:00000000 USB1_OTG_HS_IRQHandler
     /tmp/ccN2N8if.s:1445   .bss.scrl_ctx:00000000 $d
     /tmp/ccN2N8if.s:1451   .bss.SCRU_BLUE_CR_LUT:00000000 $d
     /tmp/ccN2N8if.s:1457   .bss.SCRU_BLUE_Y_LUT:00000000 $d
     /tmp/ccN2N8if.s:1463   .bss.SCRU_GREEN_CB_LUT:00000000 $d
     /tmp/ccN2N8if.s:1469   .bss.SCRU_GREEN_CR_LUT:00000000 $d
     /tmp/ccN2N8if.s:1475   .bss.SCRU_GREEN_Y_LUT:00000000 $d
     /tmp/ccN2N8if.s:1481   .bss.SCRU_BLUE_CB_RED_CR_LUT:00000000 $d
     /tmp/ccN2N8if.s:1487   .bss.SCRU_RED_CB_LUT:00000000 $d
     /tmp/ccN2N8if.s:1493   .bss.SCRU_RED_Y_LUT:00000000 $d
                           .group:00000000 wm4.0.43608cab4da50df6ba2dfee95636a2b5
                           .group:00000000 wm4._newlib_version.h.4.0eb654b64686e2bd29646258853f6c22
                           .group:00000000 wm4.features.h.33.d554620bb17bd3b714c3fb5c268772bc
                           .group:00000000 wm4._default_types.h.15.247e5cd201eca3442cbf5404108c4935
                           .group:00000000 wm4._intsup.h.10.48bafbb683905c4daa4565a85aeeb264
                           .group:00000000 wm4._stdint.h.10.c24fa3af3bc1706662bb5593a907e841
                           .group:00000000 wm4.stdint.h.23.d53047a68f4a85177f80b422d52785ed
                           .group:00000000 wm4.newlib.h.7.decd5b9657e2c5df625d9eac6e10520c
                           .group:00000000 wm4.ieeefp.h.77.99029d7b8220a2cd73dd257e2bbe825d
                           .group:00000000 wm4.config.h.224.10ee1ad185d877c6e334e6581faab44d
                           .group:00000000 wm4._ansi.h.31.de524f58584151836e90d8620a16f8e8
ARM GAS  /tmp/ccN2N8if.s 			page 82


                           .group:00000000 wm4.assert.h.11.db24e541f16414db224bf986d21017e2
                           .group:00000000 wm4.stdio.h.27.3fc80220048df77954e38daec3bb9670
                           .group:00000000 wm4.stddef.h.200.ddb4176c6beb7e84f4fc90107f5448c9
                           .group:00000000 wm4.cdefs.h.49.56fd742369e655e7e8a7e365e706e208
                           .group:00000000 wm4.stddef.h.39.1701de33ba710abd106167c689c6bc7c
                           .group:00000000 wm4.stdarg.h.34.3a23a216c0c293b3d2ea2e89281481e6
                           .group:00000000 wm4._types.h.20.dd0d04dca3800a0d2a6129b87f3adbb2
                           .group:00000000 wm4.stddef.h.173.4903093a50a8482cb062b176ea61fac3
                           .group:00000000 wm4._types.h.127.3bdfe3ff8ea2d0985b03d9cbe93480e3
                           .group:00000000 wm4.reent.h.18.25503cdc8b7e55dd0d6ea7b3e5af7a03
                           .group:00000000 wm4.lock.h.2.1461d1fff82dffe8bfddc23307f6484f
                           .group:00000000 wm4.reent.h.78.6d702f69a6d6435d2dbe915b10150b1a
                           .group:00000000 wm4.stdio.h.67.0cf8a9c281ab0b348aef5c02e7e48825
                           .group:00000000 wm4.stdio.h.2.4aa87247282eca6c8f36f9de33d8df1a
                           .group:00000000 wm4.stdio.h.87.a1e20d2651f9bfb66e51bfbe849db00a
                           .group:00000000 wm4.stm32n6xx_hal_conf.h.21.d32f04f7ae387b70d8c80735cac3eea9
                           .group:00000000 wm4.arm_cmse.h.103.a0d15a79c4c9a67da8d5831704d7248e
                           .group:00000000 wm4.stm32n6xx.h.34.c523a1ffdf274a69e8802892c6776332
                           .group:00000000 wm4.stm32n657xx.h.26.acd272cb67318cc1a4791ce2f0720ca6
                           .group:00000000 wm4.cmsis_version.h.30.d128735bf87720f7436b74fefeb5043c
                           .group:00000000 wm4.core_cm55.h.67.25006a3ce7048d64bcddd2996d5fac93
                           .group:00000000 wm4.arm_acle.h.28.a0697f530ff2dbf8c463bef049b82760
                           .group:00000000 wm4.cmsis_gcc.h.39.eba7438bc45fd1a6e6376b63ffe44436
                           .group:00000000 wm4.cmsis_gcc_m.h.24.e590ec51aeda3a1242400351d73f5dce
                           .group:00000000 wm4.core_cm55.h.213.0528f46a674315ef8d35c4477e230358
                           .group:00000000 wm4.armv8m_mpu.h.24.bf28cc25bee30a7ff9d2f7a44a5e2230
                           .group:00000000 wm4.armv8m_pmu.h.24.6ded195d2625055391fd378c0e1d2519
                           .group:00000000 wm4.core_cm55.h.4477.396e822ef855bcfb932819ad48de1c4c
                           .group:00000000 wm4.armv7m_cachel1.h.24.936dd92d6e204a8d0b17d5e4ea4a356e
                           .group:00000000 wm4.stm32n657xx.h.575.78d331c417ec710388ced647138f735f
                           .group:00000000 wm4.stm32n6xx.h.116.b4247d9785590e7c5ec9234ffb2153bf
                           .group:00000000 wm4.stm32_hal_legacy.h.22.e62aae2fd3ae33360b6781c8a72e5b18
                           .group:00000000 wm4.math.h.13.47cfc34cae8a1153323939c4d32cf7c2
                           .group:00000000 wm4.stm32n6xx_hal_def.h.63.3a8f01490e8852464e9fcb69092e9c75
                           .group:00000000 wm4.stm32n6xx_ll_bus.h.38.2366a295ee4cdb04833997d3787fcd2d
                           .group:00000000 wm4.stm32n6xx_ll_rcc.h.21.656bd5637db608589ad16ea57d39430c
                           .group:00000000 wm4.stm32n6xx_hal_rcc.h.194.69b522b1afdf59a82d05a1f71efe03c7
                           .group:00000000 wm4.stm32n6xx_hal_rcc_ex.h.21.cc6be0a7d168882a1a6f470236ba784c
                           .group:00000000 wm4.stm32n6xx_hal_rcc.h.4361.4b490a4a19722e68c21f88cb8a774a30
                           .group:00000000 wm4.stm32n6xx_hal_gpio.h.21.89d54af663b98eb8fc098192053f7eeb
                           .group:00000000 wm4.stm32n6xx_hal_gpio_ex.h.22.f7e795fb05a69a19b87d946b47c8db8b
                           .group:00000000 wm4.stm32n6xx_hal_rif.h.21.33f2c553a8a3fc14dca8c470b213ab19
                           .group:00000000 wm4.stm32n6xx_hal_dma.h.21.61e48c5c2e8d25d22177834b232fe45c
                           .group:00000000 wm4.stm32n6xx_hal_dma_ex.h.21.82f854ecdb6a463b06d0b4e5c217c368
                           .group:00000000 wm4.stm32n6xx_hal_dma.h.1020.87e2180c009560b617c1f8208140c950
                           .group:00000000 wm4.stm32n6xx_hal_cortex.h.21.f493623cc58f9454ab4eae41e395c5cc
                           .group:00000000 wm4.stm32n6xx_hal_bsec.h.21.1ee89319140541f82434908b4267aa30
                           .group:00000000 wm4.stm32n6xx_hal_dcmipp.h.21.e2b87dce83d7d722d696a597f6ac56bf
                           .group:00000000 wm4.stm32n6xx_hal_dma2d.h.21.75c8d46cdbb72970123b3f34ae2043d7
                           .group:00000000 wm4.stm32n6xx_hal_exti.h.21.e0efb23591051684dc14f1f2431c6aab
                           .group:00000000 wm4.stm32n6xx_hal_i2c.h.21.3f483626ff64c5bf027265bb2e1d1331
                           .group:00000000 wm4.stm32n6xx_hal_i2c_ex.h.21.79e9196c22282cdaf6b4047893638c45
                           .group:00000000 wm4.stm32n6xx_hal_i2c.h.741.1084702632703acc669e4282b3043372
                           .group:00000000 wm4.stm32n6xx_hal_ltdc.h.21.ae1eb09930e7e550e48e418ac5849e4d
                           .group:00000000 wm4.stm32n6xx_hal_ltdc.h.1002.b13ede7fc94ed5ad1c6768a157d2149a
                           .group:00000000 wm4.stm32n6xx_ll_usb.h.21.daaf86158046f2cf02166c495d637480
                           .group:00000000 wm4.stm32n6xx_hal_pcd.h.155.27040aac6844effe2af8c180caf1dd2e
ARM GAS  /tmp/ccN2N8if.s 			page 83


                           .group:00000000 wm4.stm32n6xx_hal_pwr.h.21.cdb73e4869c3fed3fc84f901ec0e5f0a
                           .group:00000000 wm4.stm32n6xx_hal_pwr_ex.h.21.1a673224a58b0c1e5fad8eeda6514208
                           .group:00000000 wm4.stm32n6xx_hal_ramcfg.h.21.a62dfbb4d2c14e9a8c634a215e37bd3d
                           .group:00000000 wm4.stm32n6xx_hal_spi.h.21.9f810303326e2d91749800e9911f8e4d
                           .group:00000000 wm4.stm32n6xx_hal_spi.h.906.8ad9375f39dce09dc0a4db0025ee7a76
                           .group:00000000 wm4.stm32n6xx_hal_uart.h.21.230f549bfa0d5ebfd77bfb311b2aca15
                           .group:00000000 wm4.stm32n6xx_hal_uart_ex.h.21.a0d5511e1d0703b7b5278c8f5472b96d
                           .group:00000000 wm4.stm32n6xx_hal_xspi.h.21.7fd922d3bdb871475cf18436a68935bb
                           .group:00000000 wm4.stm32n6xx_hal_cacheaxi.h.21.7c3375b7903ec42376e4883320997f74
                           .group:00000000 wm4.stm32n6xx_hal.h.81.e79d59262ba173c33cf1d69281830d15
                           .group:00000000 wm4.lcd.h.21.98701c105e66fef2e089854e5bc0fe32
                           .group:00000000 wm4.stm32_lcd.h.55.1a04e503950bf34ef3721d2ebb9542fc
                           .group:00000000 wm4.uvcl.h.19.7bda141a09e83dc1cc474aa1d712303c

UNDEFINED SYMBOLS
__assert_func
UVCL_ShowFrame
SCRC_Init
memset
UVCL_Init
UTIL_LCD_SetFuncDriver
UTIL_LCD_SetDevice
Common_Driver
SCRC_Composition_Start
HAL_PWREx_EnableVddUSBVMEN
HAL_PWREx_EnableVddUSB
HAL_NVIC_SetPriority
HAL_NVIC_EnableIRQ
uvcl_pcd_handle
UVCL_IRQHandler
