ARM GAS  /tmp/ccjUXYiQ.s 			page 1


   1              		.arch armv8.1-m.main
   2              		.fpu fpv5-d16
   3              		.arch_extension dsp
   4              		.arch_extension fp
   5              		.arch_extension fp.dp
   6              		.arch_extension mve
   7              		.arch_extension mve.fp
   8              		.eabi_attribute 5, "cortex-m55"
   9              		.eabi_attribute 28, 1
  10              		.eabi_attribute 20, 1
  11              		.eabi_attribute 21, 1
  12              		.eabi_attribute 23, 3
  13              		.eabi_attribute 24, 1
  14              		.eabi_attribute 25, 1
  15              		.eabi_attribute 26, 1
  16              		.eabi_attribute 30, 4
  17              		.eabi_attribute 34, 1
  18              		.eabi_attribute 38, 1
  19              		.eabi_attribute 18, 4
  20              		.file	"spe_movenet_pp.c"
  21              		.text
  22              	.Ltext0:
  23              		.cfi_sections	.debug_frame
  24              		.file 1 "../Middlewares/stm32-vision-models-postprocessing/lib_vision_models_pp/Src/spe_movenet_pp
  25              		.section	.text.movenet_heatmap_max,"ax",%progbits
  26              		.align	1
  27              		.global	movenet_heatmap_max
  28              		.syntax unified
  29              		.thumb
  30              		.thumb_func
  32              	movenet_heatmap_max:
  33              	.LVL0:
  34              	.LFB777:
   1:../Middlewares/stm32-vision-models-postprocessing/lib_vision_models_pp/Src/spe_movenet_pp.c **** /*---------------------------------------------------------------------------------------------
   2:../Middlewares/stm32-vision-models-postprocessing/lib_vision_models_pp/Src/spe_movenet_pp.c **** #  * Copyright (c) 2023 STMicroelectronics.
   3:../Middlewares/stm32-vision-models-postprocessing/lib_vision_models_pp/Src/spe_movenet_pp.c **** #  * All rights reserved.
   4:../Middlewares/stm32-vision-models-postprocessing/lib_vision_models_pp/Src/spe_movenet_pp.c **** #  *
   5:../Middlewares/stm32-vision-models-postprocessing/lib_vision_models_pp/Src/spe_movenet_pp.c **** #  * This software is licensed under terms that can be found in the LICENSE file in
   6:../Middlewares/stm32-vision-models-postprocessing/lib_vision_models_pp/Src/spe_movenet_pp.c **** #  * the root directory of this software component.
   7:../Middlewares/stm32-vision-models-postprocessing/lib_vision_models_pp/Src/spe_movenet_pp.c **** #  * If no LICENSE file comes with this software, it is provided AS-IS.
   8:../Middlewares/stm32-vision-models-postprocessing/lib_vision_models_pp/Src/spe_movenet_pp.c **** #  *--------------------------------------------------------------------------------------------*/
   9:../Middlewares/stm32-vision-models-postprocessing/lib_vision_models_pp/Src/spe_movenet_pp.c **** 
  10:../Middlewares/stm32-vision-models-postprocessing/lib_vision_models_pp/Src/spe_movenet_pp.c **** #include "spe_movenet_pp_loc.h"
  11:../Middlewares/stm32-vision-models-postprocessing/lib_vision_models_pp/Src/spe_movenet_pp.c **** #include "spe_movenet_pp_if.h"
  12:../Middlewares/stm32-vision-models-postprocessing/lib_vision_models_pp/Src/spe_movenet_pp.c **** #include "vision_models_pp.h"
  13:../Middlewares/stm32-vision-models-postprocessing/lib_vision_models_pp/Src/spe_movenet_pp.c **** 
  14:../Middlewares/stm32-vision-models-postprocessing/lib_vision_models_pp/Src/spe_movenet_pp.c **** 
  15:../Middlewares/stm32-vision-models-postprocessing/lib_vision_models_pp/Src/spe_movenet_pp.c **** #include "stdio.h"
  16:../Middlewares/stm32-vision-models-postprocessing/lib_vision_models_pp/Src/spe_movenet_pp.c **** 
  17:../Middlewares/stm32-vision-models-postprocessing/lib_vision_models_pp/Src/spe_movenet_pp.c **** int32_t movenet_heatmap_max(spe_movenet_pp_in_t *pInput,
  18:../Middlewares/stm32-vision-models-postprocessing/lib_vision_models_pp/Src/spe_movenet_pp.c ****                             spe_pp_out_t *pOutput,
  19:../Middlewares/stm32-vision-models-postprocessing/lib_vision_models_pp/Src/spe_movenet_pp.c ****                             spe_movenet_pp_static_param_t *pInput_static_param)
  20:../Middlewares/stm32-vision-models-postprocessing/lib_vision_models_pp/Src/spe_movenet_pp.c **** {
  35              		.loc 1 20 1 view -0
  36              		.cfi_startproc
  37              		@ args = 0, pretend = 0, frame = 32
  38              		@ frame_needed = 0, uses_anonymous_args = 0
ARM GAS  /tmp/ccjUXYiQ.s 			page 2


  21:../Middlewares/stm32-vision-models-postprocessing/lib_vision_models_pp/Src/spe_movenet_pp.c ****   uint32_t i;
  39              		.loc 1 21 3 view .LVU1
  22:../Middlewares/stm32-vision-models-postprocessing/lib_vision_models_pp/Src/spe_movenet_pp.c ****   float32_t x_center;
  40              		.loc 1 22 3 view .LVU2
  23:../Middlewares/stm32-vision-models-postprocessing/lib_vision_models_pp/Src/spe_movenet_pp.c ****   float32_t y_center;
  41              		.loc 1 23 3 view .LVU3
  24:../Middlewares/stm32-vision-models-postprocessing/lib_vision_models_pp/Src/spe_movenet_pp.c ****   float32_t proba;
  42              		.loc 1 24 3 view .LVU4
  25:../Middlewares/stm32-vision-models-postprocessing/lib_vision_models_pp/Src/spe_movenet_pp.c ****   uint32_t index;
  43              		.loc 1 25 3 view .LVU5
  26:../Middlewares/stm32-vision-models-postprocessing/lib_vision_models_pp/Src/spe_movenet_pp.c ****   uint32_t width = pInput_static_param->heatmap_width;
  44              		.loc 1 26 3 view .LVU6
  20:../Middlewares/stm32-vision-models-postprocessing/lib_vision_models_pp/Src/spe_movenet_pp.c ****   uint32_t i;
  45              		.loc 1 20 1 is_stmt 0 view .LVU7
  46 0000 2DE9F04F 		push	{r4, r5, r6, r7, r8, r9, r10, fp, lr}
  47              		.cfi_def_cfa_offset 36
  48              		.cfi_offset 4, -36
  49              		.cfi_offset 5, -32
  50              		.cfi_offset 6, -28
  51              		.cfi_offset 7, -24
  52              		.cfi_offset 8, -20
  53              		.cfi_offset 9, -16
  54              		.cfi_offset 10, -12
  55              		.cfi_offset 11, -8
  56              		.cfi_offset 14, -4
  57 0004 2DED028B 		vpush.64	{d8}
  58              		.cfi_def_cfa_offset 44
  59              		.cfi_offset 80, -44
  60              		.cfi_offset 81, -40
  61              		.loc 1 26 12 view .LVU8
  62 0008 92ED008A 		vldr.32	s16, [r2]	@ int
  63              	.LVL1:
  27:../Middlewares/stm32-vision-models-postprocessing/lib_vision_models_pp/Src/spe_movenet_pp.c ****   uint32_t height = pInput_static_param->heatmap_height;
  64              		.loc 1 27 3 is_stmt 1 view .LVU9
  65              	.LBB2:
  28:../Middlewares/stm32-vision-models-postprocessing/lib_vision_models_pp/Src/spe_movenet_pp.c ****   float32_t *pInputData = (float32_t *)pInput->inBuff;
  29:../Middlewares/stm32-vision-models-postprocessing/lib_vision_models_pp/Src/spe_movenet_pp.c **** 
  30:../Middlewares/stm32-vision-models-postprocessing/lib_vision_models_pp/Src/spe_movenet_pp.c ****   for (i = 0; i < pInput_static_param->nb_keypoints; i+=4)
  31:../Middlewares/stm32-vision-models-postprocessing/lib_vision_models_pp/Src/spe_movenet_pp.c ****   {
  32:../Middlewares/stm32-vision-models-postprocessing/lib_vision_models_pp/Src/spe_movenet_pp.c ****     float32_t *pInputKp = &(pInputData[i]);
  33:../Middlewares/stm32-vision-models-postprocessing/lib_vision_models_pp/Src/spe_movenet_pp.c ****     float32_t proba_array[4];
  34:../Middlewares/stm32-vision-models-postprocessing/lib_vision_models_pp/Src/spe_movenet_pp.c ****     uint32_t index_array[4];
  35:../Middlewares/stm32-vision-models-postprocessing/lib_vision_models_pp/Src/spe_movenet_pp.c ****     vision_models_maxi_tr_p_if32ou32((float32_t *) pInputKp,
  36:../Middlewares/stm32-vision-models-postprocessing/lib_vision_models_pp/Src/spe_movenet_pp.c ****                                    (uint32_t) width * height,
  66              		.loc 1 36 53 is_stmt 0 view .LVU10
  67 000c 18EE103A 		vmov	r3, s16	@ int
  68              	.LBE2:
  20:../Middlewares/stm32-vision-models-postprocessing/lib_vision_models_pp/Src/spe_movenet_pp.c ****   uint32_t i;
  69              		.loc 1 20 1 view .LVU11
  70 0010 0F46     		mov	r7, r1
  71 0012 1546     		mov	r5, r2
  30:../Middlewares/stm32-vision-models-postprocessing/lib_vision_models_pp/Src/spe_movenet_pp.c ****   {
  72              		.loc 1 30 10 view .LVU12
  73 0014 0024     		movs	r4, #0
  74              	.LBB6:
  75              	.LBB3:
  37:../Middlewares/stm32-vision-models-postprocessing/lib_vision_models_pp/Src/spe_movenet_pp.c ****                                    pInput_static_param->nb_keypoints,
ARM GAS  /tmp/ccjUXYiQ.s 			page 3


  38:../Middlewares/stm32-vision-models-postprocessing/lib_vision_models_pp/Src/spe_movenet_pp.c ****                                    (float32_t *) &proba_array,
  39:../Middlewares/stm32-vision-models-postprocessing/lib_vision_models_pp/Src/spe_movenet_pp.c ****                                    (uint32_t *) &index_array,
  40:../Middlewares/stm32-vision-models-postprocessing/lib_vision_models_pp/Src/spe_movenet_pp.c ****                                    pInput_static_param->nb_keypoints-i);
  41:../Middlewares/stm32-vision-models-postprocessing/lib_vision_models_pp/Src/spe_movenet_pp.c **** 
  42:../Middlewares/stm32-vision-models-postprocessing/lib_vision_models_pp/Src/spe_movenet_pp.c ****     for (uint32_t _i = 0; _i < MIN(pInput_static_param->nb_keypoints-i,4); _i++) {
  43:../Middlewares/stm32-vision-models-postprocessing/lib_vision_models_pp/Src/spe_movenet_pp.c ****       index = index_array[_i];
  44:../Middlewares/stm32-vision-models-postprocessing/lib_vision_models_pp/Src/spe_movenet_pp.c ****       proba = proba_array[_i];
  45:../Middlewares/stm32-vision-models-postprocessing/lib_vision_models_pp/Src/spe_movenet_pp.c ****      /* This is not cartesian referential, to be aligned with Python code */
  46:../Middlewares/stm32-vision-models-postprocessing/lib_vision_models_pp/Src/spe_movenet_pp.c ****       y_center = ((index % height + 0.5f) / height);
  76              		.loc 1 46 35 view .LVU13
  77 0016 F6EE008A 		vmov.f32	s17, #5.0e-1
  78              	.LBE3:
  79              	.LBE6:
  27:../Middlewares/stm32-vision-models-postprocessing/lib_vision_models_pp/Src/spe_movenet_pp.c ****   float32_t *pInputData = (float32_t *)pInput->inBuff;
  80              		.loc 1 27 12 view .LVU14
  81 001a 5668     		ldr	r6, [r2, #4]
  82              	.LVL2:
  28:../Middlewares/stm32-vision-models-postprocessing/lib_vision_models_pp/Src/spe_movenet_pp.c **** 
  83              		.loc 1 28 3 is_stmt 1 view .LVU15
  28:../Middlewares/stm32-vision-models-postprocessing/lib_vision_models_pp/Src/spe_movenet_pp.c **** 
  84              		.loc 1 28 14 is_stmt 0 view .LVU16
  85 001c D0F80080 		ldr	r8, [r0]
  86              	.LVL3:
  30:../Middlewares/stm32-vision-models-postprocessing/lib_vision_models_pp/Src/spe_movenet_pp.c ****   {
  87              		.loc 1 30 3 is_stmt 1 view .LVU17
  88              	.LBB7:
  36:../Middlewares/stm32-vision-models-postprocessing/lib_vision_models_pp/Src/spe_movenet_pp.c ****                                    pInput_static_param->nb_keypoints,
  89              		.loc 1 36 53 is_stmt 0 view .LVU18
  90 0020 06FB03F9 		mul	r9, r6, r3
  91              	.LBE7:
  20:../Middlewares/stm32-vision-models-postprocessing/lib_vision_models_pp/Src/spe_movenet_pp.c ****   uint32_t i;
  92              		.loc 1 20 1 view .LVU19
  93 0024 8BB0     		sub	sp, sp, #44
  94              		.cfi_def_cfa_offset 88
  95              	.LVL4:
  96              	.L2:
  30:../Middlewares/stm32-vision-models-postprocessing/lib_vision_models_pp/Src/spe_movenet_pp.c ****   {
  97              		.loc 1 30 17 is_stmt 1 discriminator 1 view .LVU20
  30:../Middlewares/stm32-vision-models-postprocessing/lib_vision_models_pp/Src/spe_movenet_pp.c ****   {
  98              		.loc 1 30 38 is_stmt 0 discriminator 1 view .LVU21
  99 0026 AA68     		ldr	r2, [r5, #8]
  30:../Middlewares/stm32-vision-models-postprocessing/lib_vision_models_pp/Src/spe_movenet_pp.c ****   {
 100              		.loc 1 30 17 discriminator 1 view .LVU22
 101 0028 A242     		cmp	r2, r4
 102 002a 05D8     		bhi	.L5
  47:../Middlewares/stm32-vision-models-postprocessing/lib_vision_models_pp/Src/spe_movenet_pp.c ****       x_center = ((index / height + 0.5f) / width);
  48:../Middlewares/stm32-vision-models-postprocessing/lib_vision_models_pp/Src/spe_movenet_pp.c **** 
  49:../Middlewares/stm32-vision-models-postprocessing/lib_vision_models_pp/Src/spe_movenet_pp.c ****       /* Coordinates inversion for the application code that uses cartesian referential */
  50:../Middlewares/stm32-vision-models-postprocessing/lib_vision_models_pp/Src/spe_movenet_pp.c ****       pOutput->pOutBuff[i+_i].x_center = y_center;
  51:../Middlewares/stm32-vision-models-postprocessing/lib_vision_models_pp/Src/spe_movenet_pp.c ****       pOutput->pOutBuff[i+_i].y_center = x_center;
  52:../Middlewares/stm32-vision-models-postprocessing/lib_vision_models_pp/Src/spe_movenet_pp.c ****       pOutput->pOutBuff[i+_i].proba = proba;
  53:../Middlewares/stm32-vision-models-postprocessing/lib_vision_models_pp/Src/spe_movenet_pp.c ****     }
  54:../Middlewares/stm32-vision-models-postprocessing/lib_vision_models_pp/Src/spe_movenet_pp.c ****   }
  55:../Middlewares/stm32-vision-models-postprocessing/lib_vision_models_pp/Src/spe_movenet_pp.c **** 
  56:../Middlewares/stm32-vision-models-postprocessing/lib_vision_models_pp/Src/spe_movenet_pp.c ****   return (AI_SPE_POSTPROCESS_ERROR_NO);
 103              		.loc 1 56 3 is_stmt 1 view .LVU23
  57:../Middlewares/stm32-vision-models-postprocessing/lib_vision_models_pp/Src/spe_movenet_pp.c **** }
ARM GAS  /tmp/ccjUXYiQ.s 			page 4


 104              		.loc 1 57 1 is_stmt 0 view .LVU24
 105 002c 0020     		movs	r0, #0
 106 002e 0BB0     		add	sp, sp, #44
 107              		.cfi_remember_state
 108              		.cfi_def_cfa_offset 44
 109              		@ sp needed
 110 0030 BDEC028B 		vldm	sp!, {d8}
 111              		.cfi_restore 80
 112              		.cfi_restore 81
 113              		.cfi_def_cfa_offset 36
 114              	.LVL5:
 115              		.loc 1 57 1 view .LVU25
 116 0034 BDE8F08F 		pop	{r4, r5, r6, r7, r8, r9, r10, fp, pc}
 117              	.LVL6:
 118              	.L5:
 119              		.cfi_restore_state
 120              	.LBB8:
  32:../Middlewares/stm32-vision-models-postprocessing/lib_vision_models_pp/Src/spe_movenet_pp.c ****     float32_t proba_array[4];
 121              		.loc 1 32 5 is_stmt 1 view .LVU26
  33:../Middlewares/stm32-vision-models-postprocessing/lib_vision_models_pp/Src/spe_movenet_pp.c ****     uint32_t index_array[4];
 122              		.loc 1 33 5 view .LVU27
  34:../Middlewares/stm32-vision-models-postprocessing/lib_vision_models_pp/Src/spe_movenet_pp.c ****     vision_models_maxi_tr_p_if32ou32((float32_t *) pInputKp,
 123              		.loc 1 34 5 view .LVU28
  35:../Middlewares/stm32-vision-models-postprocessing/lib_vision_models_pp/Src/spe_movenet_pp.c ****                                    (uint32_t) width * height,
 124              		.loc 1 35 5 view .LVU29
 125 0038 131B     		subs	r3, r2, r4
 126 003a 0DF1180A 		add	r10, sp, #24
 127 003e 4946     		mov	r1, r9
 128 0040 0193     		str	r3, [sp, #4]
 129 0042 08EB8400 		add	r0, r8, r4, lsl #2
 130              	.LVL7:
  35:../Middlewares/stm32-vision-models-postprocessing/lib_vision_models_pp/Src/spe_movenet_pp.c ****                                    (uint32_t) width * height,
 131              		.loc 1 35 5 is_stmt 0 view .LVU30
 132 0046 02AB     		add	r3, sp, #8
 133 0048 CDF800A0 		str	r10, [sp]
 134 004c FFF7FEFF 		bl	vision_models_maxi_tr_p_if32ou32
 135              	.LVL8:
  42:../Middlewares/stm32-vision-models-postprocessing/lib_vision_models_pp/Src/spe_movenet_pp.c ****       index = index_array[_i];
 136              		.loc 1 42 5 is_stmt 1 view .LVU31
 137              	.LBB4:
  42:../Middlewares/stm32-vision-models-postprocessing/lib_vision_models_pp/Src/spe_movenet_pp.c ****       index = index_array[_i];
 138              		.loc 1 42 10 view .LVU32
  42:../Middlewares/stm32-vision-models-postprocessing/lib_vision_models_pp/Src/spe_movenet_pp.c ****       index = index_array[_i];
 139              		.loc 1 42 32 is_stmt 0 discriminator 1 view .LVU33
 140 0050 AA68     		ldr	r2, [r5, #8]
 141 0052 4FF00C0C 		mov	ip, #12
 142 0056 121B     		subs	r2, r2, r4
 143 0058 042A     		cmp	r2, #4
 144 005a 94BF     		ite	ls
 145 005c 04EB020E 		addls	lr, r4, r2
 146 0060 04F1040E 		addhi	lr, r4, #4
 147 0064 0CFB04F1 		mul	r1, ip, r4
 148 0068 0CFB0EFE 		mul	lr, ip, lr
  46:../Middlewares/stm32-vision-models-postprocessing/lib_vision_models_pp/Src/spe_movenet_pp.c ****       x_center = ((index / height + 0.5f) / width);
 149              		.loc 1 46 35 view .LVU34
 150 006c 1D4A     		ldr	r2, .L6
 151 006e AEEB010E 		sub	lr, lr, r1
ARM GAS  /tmp/ccjUXYiQ.s 			page 5


 152 0072 4FEA9E0E 		lsr	lr, lr, #2
 153 0076 02FB0EFE 		mul	lr, r2, lr
 154 007a 2EF0404E 		bic	lr, lr, #-1073741824
 155 007e 0EF1010E 		add	lr, lr, #1
 156 0082 5346     		mov	r3, r10
 157 0084 4EF001E0 		dls	lr, lr
 158 0088 02A8     		add	r0, sp, #8
 159              	.LVL9:
 160              	.L3:
  42:../Middlewares/stm32-vision-models-postprocessing/lib_vision_models_pp/Src/spe_movenet_pp.c ****       index = index_array[_i];
 161              		.loc 1 42 30 is_stmt 1 discriminator 1 view .LVU35
 162 008a BEF1010E 		subs	lr, #1;bne	.L4
 162      01D1
 163              	.LBE4:
 164              	.LBE8:
  30:../Middlewares/stm32-vision-models-postprocessing/lib_vision_models_pp/Src/spe_movenet_pp.c ****   {
 165              		.loc 1 30 55 discriminator 2 view .LVU36
 166 0090 0434     		adds	r4, r4, #4
 167              	.LVL10:
  30:../Middlewares/stm32-vision-models-postprocessing/lib_vision_models_pp/Src/spe_movenet_pp.c ****   {
 168              		.loc 1 30 55 is_stmt 0 discriminator 2 view .LVU37
 169 0092 C8E7     		b	.L2
 170              	.LVL11:
 171              	.L4:
 172              	.LBB9:
 173              	.LBB5:
  43:../Middlewares/stm32-vision-models-postprocessing/lib_vision_models_pp/Src/spe_movenet_pp.c ****       proba = proba_array[_i];
 174              		.loc 1 43 7 is_stmt 1 view .LVU38
  43:../Middlewares/stm32-vision-models-postprocessing/lib_vision_models_pp/Src/spe_movenet_pp.c ****       proba = proba_array[_i];
 175              		.loc 1 43 13 is_stmt 0 view .LVU39
 176 0094 53F804CB 		ldr	ip, [r3], #4
 177              	.LVL12:
  44:../Middlewares/stm32-vision-models-postprocessing/lib_vision_models_pp/Src/spe_movenet_pp.c ****      /* This is not cartesian referential, to be aligned with Python code */
 178              		.loc 1 44 7 is_stmt 1 view .LVU40
  46:../Middlewares/stm32-vision-models-postprocessing/lib_vision_models_pp/Src/spe_movenet_pp.c ****       x_center = ((index / height + 0.5f) / width);
 179              		.loc 1 46 43 is_stmt 0 view .LVU41
 180 0098 07EE106A 		vmov	s14, r6	@ int
  46:../Middlewares/stm32-vision-models-postprocessing/lib_vision_models_pp/Src/spe_movenet_pp.c ****       x_center = ((index / height + 0.5f) / width);
 181              		.loc 1 46 26 view .LVU42
 182 009c BCFBF6FB 		udiv	fp, ip, r6
 183 00a0 06FB1BCC 		mls	ip, r6, fp, ip
 184              	.LVL13:
  46:../Middlewares/stm32-vision-models-postprocessing/lib_vision_models_pp/Src/spe_movenet_pp.c ****       x_center = ((index / height + 0.5f) / width);
 185              		.loc 1 46 26 view .LVU43
 186 00a4 07EE90CA 		vmov	s15, ip	@ int
  46:../Middlewares/stm32-vision-models-postprocessing/lib_vision_models_pp/Src/spe_movenet_pp.c ****       x_center = ((index / height + 0.5f) / width);
 187              		.loc 1 46 35 view .LVU44
 188 00a8 F8EE677A 		vcvt.f32.u32	s15, s15
  46:../Middlewares/stm32-vision-models-postprocessing/lib_vision_models_pp/Src/spe_movenet_pp.c ****       x_center = ((index / height + 0.5f) / width);
 189              		.loc 1 46 43 view .LVU45
 190 00ac F8EE476A 		vcvt.f32.u32	s13, s14
  46:../Middlewares/stm32-vision-models-postprocessing/lib_vision_models_pp/Src/spe_movenet_pp.c ****       x_center = ((index / height + 0.5f) / width);
 191              		.loc 1 46 35 view .LVU46
 192 00b0 77EEA87A 		vadd.f32	s15, s15, s17
  46:../Middlewares/stm32-vision-models-postprocessing/lib_vision_models_pp/Src/spe_movenet_pp.c ****       x_center = ((index / height + 0.5f) / width);
 193              		.loc 1 46 16 view .LVU47
 194 00b4 87EEA67A 		vdiv.f32	s14, s15, s13
ARM GAS  /tmp/ccjUXYiQ.s 			page 6


  47:../Middlewares/stm32-vision-models-postprocessing/lib_vision_models_pp/Src/spe_movenet_pp.c **** 
 195              		.loc 1 47 35 view .LVU48
 196 00b8 07EE90BA 		vmov	s15, fp	@ int
 197 00bc F8EE677A 		vcvt.f32.u32	s15, s15
  47:../Middlewares/stm32-vision-models-postprocessing/lib_vision_models_pp/Src/spe_movenet_pp.c **** 
 198              		.loc 1 47 43 view .LVU49
 199 00c0 F8EE486A 		vcvt.f32.u32	s13, s16
  47:../Middlewares/stm32-vision-models-postprocessing/lib_vision_models_pp/Src/spe_movenet_pp.c **** 
 200              		.loc 1 47 35 view .LVU50
 201 00c4 77EEA87A 		vadd.f32	s15, s15, s17
  50:../Middlewares/stm32-vision-models-postprocessing/lib_vision_models_pp/Src/spe_movenet_pp.c ****       pOutput->pOutBuff[i+_i].y_center = x_center;
 202              		.loc 1 50 24 view .LVU51
 203 00c8 3A68     		ldr	r2, [r7]
  44:../Middlewares/stm32-vision-models-postprocessing/lib_vision_models_pp/Src/spe_movenet_pp.c ****      /* This is not cartesian referential, to be aligned with Python code */
 204              		.loc 1 44 13 view .LVU52
 205 00ca 50F804AB 		ldr	r10, [r0], #4	@ float
 206              	.LVL14:
  46:../Middlewares/stm32-vision-models-postprocessing/lib_vision_models_pp/Src/spe_movenet_pp.c ****       x_center = ((index / height + 0.5f) / width);
 207              		.loc 1 46 7 is_stmt 1 view .LVU53
  47:../Middlewares/stm32-vision-models-postprocessing/lib_vision_models_pp/Src/spe_movenet_pp.c **** 
 208              		.loc 1 47 7 view .LVU54
  50:../Middlewares/stm32-vision-models-postprocessing/lib_vision_models_pp/Src/spe_movenet_pp.c ****       pOutput->pOutBuff[i+_i].y_center = x_center;
 209              		.loc 1 50 7 view .LVU55
  50:../Middlewares/stm32-vision-models-postprocessing/lib_vision_models_pp/Src/spe_movenet_pp.c ****       pOutput->pOutBuff[i+_i].y_center = x_center;
 210              		.loc 1 50 24 is_stmt 0 view .LVU56
 211 00ce 0A44     		add	r2, r2, r1
  50:../Middlewares/stm32-vision-models-postprocessing/lib_vision_models_pp/Src/spe_movenet_pp.c ****       pOutput->pOutBuff[i+_i].y_center = x_center;
 212              		.loc 1 50 40 view .LVU57
 213 00d0 82ED007A 		vstr.32	s14, [r2]
  51:../Middlewares/stm32-vision-models-postprocessing/lib_vision_models_pp/Src/spe_movenet_pp.c ****       pOutput->pOutBuff[i+_i].proba = proba;
 214              		.loc 1 51 7 is_stmt 1 view .LVU58
  47:../Middlewares/stm32-vision-models-postprocessing/lib_vision_models_pp/Src/spe_movenet_pp.c **** 
 215              		.loc 1 47 16 is_stmt 0 view .LVU59
 216 00d4 87EEA67A 		vdiv.f32	s14, s15, s13
  52:../Middlewares/stm32-vision-models-postprocessing/lib_vision_models_pp/Src/spe_movenet_pp.c ****     }
 217              		.loc 1 52 37 view .LVU60
 218 00d8 C2F808A0 		str	r10, [r2, #8]	@ float
  51:../Middlewares/stm32-vision-models-postprocessing/lib_vision_models_pp/Src/spe_movenet_pp.c ****       pOutput->pOutBuff[i+_i].proba = proba;
 219              		.loc 1 51 40 view .LVU61
 220 00dc 82ED017A 		vstr.32	s14, [r2, #4]
  52:../Middlewares/stm32-vision-models-postprocessing/lib_vision_models_pp/Src/spe_movenet_pp.c ****     }
 221              		.loc 1 52 7 is_stmt 1 view .LVU62
  42:../Middlewares/stm32-vision-models-postprocessing/lib_vision_models_pp/Src/spe_movenet_pp.c ****       index = index_array[_i];
 222              		.loc 1 42 78 discriminator 3 view .LVU63
 223 00e0 0C31     		adds	r1, r1, #12
 224 00e2 D2E7     		b	.L3
 225              	.L7:
 226              		.align	2
 227              	.L6:
 228 00e4 ABAAAA2A 		.word	715827883
 229              	.LBE5:
 230              	.LBE9:
 231              		.cfi_endproc
 232              	.LFE777:
 234              		.section	.text.movenet_heatmap_max_int8,"ax",%progbits
 235              		.align	1
 236              		.global	movenet_heatmap_max_int8
ARM GAS  /tmp/ccjUXYiQ.s 			page 7


 237              		.syntax unified
 238              		.thumb
 239              		.thumb_func
 241              	movenet_heatmap_max_int8:
 242              	.LVL15:
 243              	.LFB778:
  58:../Middlewares/stm32-vision-models-postprocessing/lib_vision_models_pp/Src/spe_movenet_pp.c **** 
  59:../Middlewares/stm32-vision-models-postprocessing/lib_vision_models_pp/Src/spe_movenet_pp.c **** int32_t movenet_heatmap_max_int8(spe_movenet_pp_in_t *pInput,
  60:../Middlewares/stm32-vision-models-postprocessing/lib_vision_models_pp/Src/spe_movenet_pp.c ****                                  spe_pp_out_t *pOutput,
  61:../Middlewares/stm32-vision-models-postprocessing/lib_vision_models_pp/Src/spe_movenet_pp.c ****                                  spe_movenet_pp_static_param_t *pInput_static_param)
  62:../Middlewares/stm32-vision-models-postprocessing/lib_vision_models_pp/Src/spe_movenet_pp.c **** {
 244              		.loc 1 62 1 view -0
 245              		.cfi_startproc
 246              		@ args = 0, pretend = 0, frame = 88
 247              		@ frame_needed = 0, uses_anonymous_args = 0
  63:../Middlewares/stm32-vision-models-postprocessing/lib_vision_models_pp/Src/spe_movenet_pp.c ****   uint32_t i;
 248              		.loc 1 63 3 view .LVU65
  64:../Middlewares/stm32-vision-models-postprocessing/lib_vision_models_pp/Src/spe_movenet_pp.c ****   float32_t x_center;
 249              		.loc 1 64 3 view .LVU66
  65:../Middlewares/stm32-vision-models-postprocessing/lib_vision_models_pp/Src/spe_movenet_pp.c ****   float32_t y_center;
 250              		.loc 1 65 3 view .LVU67
  66:../Middlewares/stm32-vision-models-postprocessing/lib_vision_models_pp/Src/spe_movenet_pp.c ****   int8_t proba;
 251              		.loc 1 66 3 view .LVU68
  67:../Middlewares/stm32-vision-models-postprocessing/lib_vision_models_pp/Src/spe_movenet_pp.c ****   uint32_t index;
 252              		.loc 1 67 3 view .LVU69
  68:../Middlewares/stm32-vision-models-postprocessing/lib_vision_models_pp/Src/spe_movenet_pp.c ****   uint32_t width = pInput_static_param->heatmap_width;
 253              		.loc 1 68 3 view .LVU70
  62:../Middlewares/stm32-vision-models-postprocessing/lib_vision_models_pp/Src/spe_movenet_pp.c ****   uint32_t i;
 254              		.loc 1 62 1 is_stmt 0 view .LVU71
 255 0000 2DE9F04F 		push	{r4, r5, r6, r7, r8, r9, r10, fp, lr}
 256              		.cfi_def_cfa_offset 36
 257              		.cfi_offset 4, -36
 258              		.cfi_offset 5, -32
 259              		.cfi_offset 6, -28
 260              		.cfi_offset 7, -24
 261              		.cfi_offset 8, -20
 262              		.cfi_offset 9, -16
 263              		.cfi_offset 10, -12
 264              		.cfi_offset 11, -8
 265              		.cfi_offset 14, -4
 266 0004 2DED048B 		vpush.64	{d8, d9}
 267              		.cfi_def_cfa_offset 52
 268              		.cfi_offset 80, -52
 269              		.cfi_offset 81, -48
 270              		.cfi_offset 82, -44
 271              		.cfi_offset 83, -40
 272              		.loc 1 68 12 view .LVU72
 273 0008 92ED008A 		vldr.32	s16, [r2]	@ int
 274              	.LVL16:
  69:../Middlewares/stm32-vision-models-postprocessing/lib_vision_models_pp/Src/spe_movenet_pp.c ****   uint32_t height = pInput_static_param->heatmap_height;
 275              		.loc 1 69 3 is_stmt 1 view .LVU73
 276              	.LBB10:
  70:../Middlewares/stm32-vision-models-postprocessing/lib_vision_models_pp/Src/spe_movenet_pp.c ****   int8_t *pInputData = (int8_t *)pInput->inBuff;
  71:../Middlewares/stm32-vision-models-postprocessing/lib_vision_models_pp/Src/spe_movenet_pp.c ****   int8_t zero_point = pInput_static_param->raw_zero_point;
  72:../Middlewares/stm32-vision-models-postprocessing/lib_vision_models_pp/Src/spe_movenet_pp.c ****   float32_t scale = pInput_static_param->raw_scale;
  73:../Middlewares/stm32-vision-models-postprocessing/lib_vision_models_pp/Src/spe_movenet_pp.c **** 
  74:../Middlewares/stm32-vision-models-postprocessing/lib_vision_models_pp/Src/spe_movenet_pp.c ****   for (i = 0; i < pInput_static_param->nb_keypoints; i+=16)
ARM GAS  /tmp/ccjUXYiQ.s 			page 8


  75:../Middlewares/stm32-vision-models-postprocessing/lib_vision_models_pp/Src/spe_movenet_pp.c ****   {
  76:../Middlewares/stm32-vision-models-postprocessing/lib_vision_models_pp/Src/spe_movenet_pp.c ****     int8_t *pInputKp = &(pInputData[i]);
  77:../Middlewares/stm32-vision-models-postprocessing/lib_vision_models_pp/Src/spe_movenet_pp.c ****     int8_t proba_array[16];
  78:../Middlewares/stm32-vision-models-postprocessing/lib_vision_models_pp/Src/spe_movenet_pp.c ****     uint32_t index_array[16];
  79:../Middlewares/stm32-vision-models-postprocessing/lib_vision_models_pp/Src/spe_movenet_pp.c ****     vision_models_maxi_tr_p_is8ou32((int8_t *) pInputKp,
  80:../Middlewares/stm32-vision-models-postprocessing/lib_vision_models_pp/Src/spe_movenet_pp.c ****                                     (uint32_t) width * height,
 277              		.loc 1 80 54 is_stmt 0 view .LVU74
 278 000c 18EE103A 		vmov	r3, s16	@ int
 279              	.LBE10:
  62:../Middlewares/stm32-vision-models-postprocessing/lib_vision_models_pp/Src/spe_movenet_pp.c ****   uint32_t i;
 280              		.loc 1 62 1 view .LVU75
 281 0010 0F46     		mov	r7, r1
 282 0012 1546     		mov	r5, r2
  72:../Middlewares/stm32-vision-models-postprocessing/lib_vision_models_pp/Src/spe_movenet_pp.c **** 
 283              		.loc 1 72 13 view .LVU76
 284 0014 92ED039A 		vldr.32	s18, [r2, #12]
  74:../Middlewares/stm32-vision-models-postprocessing/lib_vision_models_pp/Src/spe_movenet_pp.c ****   {
 285              		.loc 1 74 10 view .LVU77
 286 0018 0024     		movs	r4, #0
 287              	.LBB14:
 288              	.LBB11:
  81:../Middlewares/stm32-vision-models-postprocessing/lib_vision_models_pp/Src/spe_movenet_pp.c ****                                     pInput_static_param->nb_keypoints,
  82:../Middlewares/stm32-vision-models-postprocessing/lib_vision_models_pp/Src/spe_movenet_pp.c ****                                     (int8_t *) proba_array,
  83:../Middlewares/stm32-vision-models-postprocessing/lib_vision_models_pp/Src/spe_movenet_pp.c ****                                     (uint32_t *) index_array,
  84:../Middlewares/stm32-vision-models-postprocessing/lib_vision_models_pp/Src/spe_movenet_pp.c ****                                     MIN(pInput_static_param->nb_keypoints-i,16));
  85:../Middlewares/stm32-vision-models-postprocessing/lib_vision_models_pp/Src/spe_movenet_pp.c **** 
  86:../Middlewares/stm32-vision-models-postprocessing/lib_vision_models_pp/Src/spe_movenet_pp.c ****     for (uint32_t _i = 0; _i <  MIN(pInput_static_param->nb_keypoints-i,16); _i++) {
  87:../Middlewares/stm32-vision-models-postprocessing/lib_vision_models_pp/Src/spe_movenet_pp.c ****       index = index_array[_i];
  88:../Middlewares/stm32-vision-models-postprocessing/lib_vision_models_pp/Src/spe_movenet_pp.c ****       proba = proba_array[_i];
  89:../Middlewares/stm32-vision-models-postprocessing/lib_vision_models_pp/Src/spe_movenet_pp.c ****       /* This is not cartesian referential, to be aligned with Python code */
  90:../Middlewares/stm32-vision-models-postprocessing/lib_vision_models_pp/Src/spe_movenet_pp.c ****       y_center = ((index % height + 0.5f) / height);
 289              		.loc 1 90 35 view .LVU78
 290 001a F6EE008A 		vmov.f32	s17, #5.0e-1
 291              	.LBE11:
 292              	.LBE14:
  69:../Middlewares/stm32-vision-models-postprocessing/lib_vision_models_pp/Src/spe_movenet_pp.c ****   int8_t *pInputData = (int8_t *)pInput->inBuff;
 293              		.loc 1 69 12 view .LVU79
 294 001e 5668     		ldr	r6, [r2, #4]
 295              	.LVL17:
  70:../Middlewares/stm32-vision-models-postprocessing/lib_vision_models_pp/Src/spe_movenet_pp.c ****   int8_t zero_point = pInput_static_param->raw_zero_point;
 296              		.loc 1 70 3 is_stmt 1 view .LVU80
  70:../Middlewares/stm32-vision-models-postprocessing/lib_vision_models_pp/Src/spe_movenet_pp.c ****   int8_t zero_point = pInput_static_param->raw_zero_point;
 297              		.loc 1 70 11 is_stmt 0 view .LVU81
 298 0020 D0F80080 		ldr	r8, [r0]
 299              	.LVL18:
  71:../Middlewares/stm32-vision-models-postprocessing/lib_vision_models_pp/Src/spe_movenet_pp.c ****   float32_t scale = pInput_static_param->raw_scale;
 300              		.loc 1 71 3 is_stmt 1 view .LVU82
 301              	.LBB15:
  80:../Middlewares/stm32-vision-models-postprocessing/lib_vision_models_pp/Src/spe_movenet_pp.c ****                                     pInput_static_param->nb_keypoints,
 302              		.loc 1 80 54 is_stmt 0 view .LVU83
 303 0024 06FB03FA 		mul	r10, r6, r3
 304              	.LBE15:
  71:../Middlewares/stm32-vision-models-postprocessing/lib_vision_models_pp/Src/spe_movenet_pp.c ****   float32_t scale = pInput_static_param->raw_scale;
 305              		.loc 1 71 10 view .LVU84
 306 0028 92F91090 		ldrsb	r9, [r2, #16]
 307              	.LVL19:
  72:../Middlewares/stm32-vision-models-postprocessing/lib_vision_models_pp/Src/spe_movenet_pp.c **** 
ARM GAS  /tmp/ccjUXYiQ.s 			page 9


 308              		.loc 1 72 3 is_stmt 1 view .LVU85
  74:../Middlewares/stm32-vision-models-postprocessing/lib_vision_models_pp/Src/spe_movenet_pp.c ****   {
 309              		.loc 1 74 3 view .LVU86
  62:../Middlewares/stm32-vision-models-postprocessing/lib_vision_models_pp/Src/spe_movenet_pp.c ****   uint32_t i;
 310              		.loc 1 62 1 is_stmt 0 view .LVU87
 311 002c 99B0     		sub	sp, sp, #100
 312              		.cfi_def_cfa_offset 152
 313              	.LVL20:
 314              	.L9:
  74:../Middlewares/stm32-vision-models-postprocessing/lib_vision_models_pp/Src/spe_movenet_pp.c ****   {
 315              		.loc 1 74 17 is_stmt 1 discriminator 1 view .LVU88
  74:../Middlewares/stm32-vision-models-postprocessing/lib_vision_models_pp/Src/spe_movenet_pp.c ****   {
 316              		.loc 1 74 38 is_stmt 0 discriminator 1 view .LVU89
 317 002e AA68     		ldr	r2, [r5, #8]
  74:../Middlewares/stm32-vision-models-postprocessing/lib_vision_models_pp/Src/spe_movenet_pp.c ****   {
 318              		.loc 1 74 17 discriminator 1 view .LVU90
 319 0030 A242     		cmp	r2, r4
 320 0032 05D8     		bhi	.L12
  91:../Middlewares/stm32-vision-models-postprocessing/lib_vision_models_pp/Src/spe_movenet_pp.c ****       x_center = ((index / height + 0.5f) / width);
  92:../Middlewares/stm32-vision-models-postprocessing/lib_vision_models_pp/Src/spe_movenet_pp.c **** 
  93:../Middlewares/stm32-vision-models-postprocessing/lib_vision_models_pp/Src/spe_movenet_pp.c ****       /* Coordinates inversion for the application code that uses cartesian referential */
  94:../Middlewares/stm32-vision-models-postprocessing/lib_vision_models_pp/Src/spe_movenet_pp.c ****       pOutput->pOutBuff[i+_i].x_center = y_center;
  95:../Middlewares/stm32-vision-models-postprocessing/lib_vision_models_pp/Src/spe_movenet_pp.c ****       pOutput->pOutBuff[i+_i].y_center = x_center;
  96:../Middlewares/stm32-vision-models-postprocessing/lib_vision_models_pp/Src/spe_movenet_pp.c ****       pOutput->pOutBuff[i+_i].proba = scale *(float32_t)((int32_t)proba - (int32_t)zero_point);
  97:../Middlewares/stm32-vision-models-postprocessing/lib_vision_models_pp/Src/spe_movenet_pp.c ****     }
  98:../Middlewares/stm32-vision-models-postprocessing/lib_vision_models_pp/Src/spe_movenet_pp.c ****   }
  99:../Middlewares/stm32-vision-models-postprocessing/lib_vision_models_pp/Src/spe_movenet_pp.c **** 
 100:../Middlewares/stm32-vision-models-postprocessing/lib_vision_models_pp/Src/spe_movenet_pp.c ****   return (AI_SPE_POSTPROCESS_ERROR_NO);
 321              		.loc 1 100 3 is_stmt 1 view .LVU91
 101:../Middlewares/stm32-vision-models-postprocessing/lib_vision_models_pp/Src/spe_movenet_pp.c **** }
 322              		.loc 1 101 1 is_stmt 0 view .LVU92
 323 0034 0020     		movs	r0, #0
 324 0036 19B0     		add	sp, sp, #100
 325              		.cfi_remember_state
 326              		.cfi_def_cfa_offset 52
 327              		@ sp needed
 328 0038 BDEC048B 		vldm	sp!, {d8-d9}
 329              		.cfi_restore 82
 330              		.cfi_restore 83
 331              		.cfi_restore 80
 332              		.cfi_restore 81
 333              		.cfi_def_cfa_offset 36
 334              	.LVL21:
 335              		.loc 1 101 1 view .LVU93
 336 003c BDE8F08F 		pop	{r4, r5, r6, r7, r8, r9, r10, fp, pc}
 337              	.LVL22:
 338              	.L12:
 339              		.cfi_restore_state
 340              	.LBB16:
  76:../Middlewares/stm32-vision-models-postprocessing/lib_vision_models_pp/Src/spe_movenet_pp.c ****     int8_t proba_array[16];
 341              		.loc 1 76 5 is_stmt 1 view .LVU94
  77:../Middlewares/stm32-vision-models-postprocessing/lib_vision_models_pp/Src/spe_movenet_pp.c ****     uint32_t index_array[16];
 342              		.loc 1 77 5 view .LVU95
  78:../Middlewares/stm32-vision-models-postprocessing/lib_vision_models_pp/Src/spe_movenet_pp.c ****     vision_models_maxi_tr_p_is8ou32((int8_t *) pInputKp,
 343              		.loc 1 78 5 view .LVU96
  79:../Middlewares/stm32-vision-models-postprocessing/lib_vision_models_pp/Src/spe_movenet_pp.c ****                                     (uint32_t) width * height,
 344              		.loc 1 79 5 view .LVU97
ARM GAS  /tmp/ccjUXYiQ.s 			page 10


  84:../Middlewares/stm32-vision-models-postprocessing/lib_vision_models_pp/Src/spe_movenet_pp.c **** 
 345              		.loc 1 84 37 is_stmt 0 view .LVU98
 346 0040 131B     		subs	r3, r2, r4
  79:../Middlewares/stm32-vision-models-postprocessing/lib_vision_models_pp/Src/spe_movenet_pp.c ****                                     (uint32_t) width * height,
 347              		.loc 1 79 5 view .LVU99
 348 0042 102B     		cmp	r3, #16
 349 0044 28BF     		it	cs
 350 0046 1023     		movcs	r3, #16
 351 0048 0DF1200B 		add	fp, sp, #32
 352 004c 5146     		mov	r1, r10
 353 004e 0193     		str	r3, [sp, #4]
 354 0050 08EB0400 		add	r0, r8, r4
 355              	.LVL23:
  79:../Middlewares/stm32-vision-models-postprocessing/lib_vision_models_pp/Src/spe_movenet_pp.c ****                                     (uint32_t) width * height,
 356              		.loc 1 79 5 view .LVU100
 357 0054 CDF800B0 		str	fp, [sp]
 358 0058 04AB     		add	r3, sp, #16
 359 005a FFF7FEFF 		bl	vision_models_maxi_tr_p_is8ou32
 360              	.LVL24:
  86:../Middlewares/stm32-vision-models-postprocessing/lib_vision_models_pp/Src/spe_movenet_pp.c ****       index = index_array[_i];
 361              		.loc 1 86 5 is_stmt 1 view .LVU101
 362              	.LBB12:
  86:../Middlewares/stm32-vision-models-postprocessing/lib_vision_models_pp/Src/spe_movenet_pp.c ****       index = index_array[_i];
 363              		.loc 1 86 10 view .LVU102
  86:../Middlewares/stm32-vision-models-postprocessing/lib_vision_models_pp/Src/spe_movenet_pp.c ****       index = index_array[_i];
 364              		.loc 1 86 33 is_stmt 0 discriminator 1 view .LVU103
 365 005e AA68     		ldr	r2, [r5, #8]
 366 0060 4FF00C0C 		mov	ip, #12
 367 0064 121B     		subs	r2, r2, r4
 368 0066 102A     		cmp	r2, #16
 369 0068 94BF     		ite	ls
 370 006a 04EB020E 		addls	lr, r4, r2
 371 006e 04F1100E 		addhi	lr, r4, #16
 372 0072 0CFB04F1 		mul	r1, ip, r4
 373 0076 0CFB0EFE 		mul	lr, ip, lr
  90:../Middlewares/stm32-vision-models-postprocessing/lib_vision_models_pp/Src/spe_movenet_pp.c ****       x_center = ((index / height + 0.5f) / width);
 374              		.loc 1 90 35 view .LVU104
 375 007a 234A     		ldr	r2, .L13
 376 007c AEEB010E 		sub	lr, lr, r1
 377 0080 4FEA9E0E 		lsr	lr, lr, #2
 378 0084 02FB0EFE 		mul	lr, r2, lr
 379 0088 2EF0404E 		bic	lr, lr, #-1073741824
 380 008c 0EF1010E 		add	lr, lr, #1
 381 0090 4EF001E0 		dls	lr, lr
 382 0094 CDF80CB0 		str	fp, [sp, #12]
 383 0098 04A8     		add	r0, sp, #16
 384              	.LVL25:
 385              	.L10:
  86:../Middlewares/stm32-vision-models-postprocessing/lib_vision_models_pp/Src/spe_movenet_pp.c ****       index = index_array[_i];
 386              		.loc 1 86 30 is_stmt 1 discriminator 1 view .LVU105
 387 009a BEF1010E 		subs	lr, #1;bne	.L11
 387      01D1
 388              	.LBE12:
 389              	.LBE16:
  74:../Middlewares/stm32-vision-models-postprocessing/lib_vision_models_pp/Src/spe_movenet_pp.c ****   {
 390              		.loc 1 74 55 discriminator 2 view .LVU106
 391 00a0 1034     		adds	r4, r4, #16
ARM GAS  /tmp/ccjUXYiQ.s 			page 11


 392              	.LVL26:
  74:../Middlewares/stm32-vision-models-postprocessing/lib_vision_models_pp/Src/spe_movenet_pp.c ****   {
 393              		.loc 1 74 55 is_stmt 0 discriminator 2 view .LVU107
 394 00a2 C4E7     		b	.L9
 395              	.LVL27:
 396              	.L11:
 397              	.LBB17:
 398              	.LBB13:
  87:../Middlewares/stm32-vision-models-postprocessing/lib_vision_models_pp/Src/spe_movenet_pp.c ****       proba = proba_array[_i];
 399              		.loc 1 87 7 is_stmt 1 view .LVU108
  87:../Middlewares/stm32-vision-models-postprocessing/lib_vision_models_pp/Src/spe_movenet_pp.c ****       proba = proba_array[_i];
 400              		.loc 1 87 13 is_stmt 0 view .LVU109
 401 00a4 039B     		ldr	r3, [sp, #12]
  90:../Middlewares/stm32-vision-models-postprocessing/lib_vision_models_pp/Src/spe_movenet_pp.c ****       x_center = ((index / height + 0.5f) / width);
 402              		.loc 1 90 43 view .LVU110
 403 00a6 06EE906A 		vmov	s13, r6	@ int
  87:../Middlewares/stm32-vision-models-postprocessing/lib_vision_models_pp/Src/spe_movenet_pp.c ****       proba = proba_array[_i];
 404              		.loc 1 87 13 view .LVU111
 405 00aa 53F804CB 		ldr	ip, [r3], #4
  90:../Middlewares/stm32-vision-models-postprocessing/lib_vision_models_pp/Src/spe_movenet_pp.c ****       x_center = ((index / height + 0.5f) / width);
 406              		.loc 1 90 43 view .LVU112
 407 00ae B8EE666A 		vcvt.f32.u32	s12, s13
  87:../Middlewares/stm32-vision-models-postprocessing/lib_vision_models_pp/Src/spe_movenet_pp.c ****       proba = proba_array[_i];
 408              		.loc 1 87 13 view .LVU113
 409 00b2 0393     		str	r3, [sp, #12]
 410              	.LVL28:
  88:../Middlewares/stm32-vision-models-postprocessing/lib_vision_models_pp/Src/spe_movenet_pp.c ****       /* This is not cartesian referential, to be aligned with Python code */
 411              		.loc 1 88 7 is_stmt 1 view .LVU114
  90:../Middlewares/stm32-vision-models-postprocessing/lib_vision_models_pp/Src/spe_movenet_pp.c ****       x_center = ((index / height + 0.5f) / width);
 412              		.loc 1 90 26 is_stmt 0 view .LVU115
 413 00b4 BCFBF6F3 		udiv	r3, ip, r6
 414 00b8 07EE103A 		vmov	s14, r3	@ int
 415 00bc 06FB13C3 		mls	r3, r6, r3, ip
 416 00c0 07EE903A 		vmov	s15, r3	@ int
  90:../Middlewares/stm32-vision-models-postprocessing/lib_vision_models_pp/Src/spe_movenet_pp.c ****       x_center = ((index / height + 0.5f) / width);
 417              		.loc 1 90 35 view .LVU116
 418 00c4 F8EE677A 		vcvt.f32.u32	s15, s15
 419 00c8 77EEA87A 		vadd.f32	s15, s15, s17
  91:../Middlewares/stm32-vision-models-postprocessing/lib_vision_models_pp/Src/spe_movenet_pp.c **** 
 420              		.loc 1 91 35 view .LVU117
 421 00cc B8EE477A 		vcvt.f32.u32	s14, s14
  90:../Middlewares/stm32-vision-models-postprocessing/lib_vision_models_pp/Src/spe_movenet_pp.c ****       x_center = ((index / height + 0.5f) / width);
 422              		.loc 1 90 16 view .LVU118
 423 00d0 C7EE866A 		vdiv.f32	s13, s15, s12
  94:../Middlewares/stm32-vision-models-postprocessing/lib_vision_models_pp/Src/spe_movenet_pp.c ****       pOutput->pOutBuff[i+_i].y_center = x_center;
 424              		.loc 1 94 24 view .LVU119
 425 00d4 3A68     		ldr	r2, [r7]
  88:../Middlewares/stm32-vision-models-postprocessing/lib_vision_models_pp/Src/spe_movenet_pp.c ****       /* This is not cartesian referential, to be aligned with Python code */
 426              		.loc 1 88 13 view .LVU120
 427 00d6 10F901BB 		ldrsb	fp, [r0], #1
 428              	.LVL29:
  90:../Middlewares/stm32-vision-models-postprocessing/lib_vision_models_pp/Src/spe_movenet_pp.c ****       x_center = ((index / height + 0.5f) / width);
 429              		.loc 1 90 7 is_stmt 1 view .LVU121
  91:../Middlewares/stm32-vision-models-postprocessing/lib_vision_models_pp/Src/spe_movenet_pp.c **** 
 430              		.loc 1 91 7 view .LVU122
  94:../Middlewares/stm32-vision-models-postprocessing/lib_vision_models_pp/Src/spe_movenet_pp.c ****       pOutput->pOutBuff[i+_i].y_center = x_center;
 431              		.loc 1 94 7 view .LVU123
ARM GAS  /tmp/ccjUXYiQ.s 			page 12


  94:../Middlewares/stm32-vision-models-postprocessing/lib_vision_models_pp/Src/spe_movenet_pp.c ****       pOutput->pOutBuff[i+_i].y_center = x_center;
 432              		.loc 1 94 24 is_stmt 0 view .LVU124
 433 00da 0A44     		add	r2, r2, r1
  94:../Middlewares/stm32-vision-models-postprocessing/lib_vision_models_pp/Src/spe_movenet_pp.c ****       pOutput->pOutBuff[i+_i].y_center = x_center;
 434              		.loc 1 94 40 view .LVU125
 435 00dc C2ED006A 		vstr.32	s13, [r2]
  95:../Middlewares/stm32-vision-models-postprocessing/lib_vision_models_pp/Src/spe_movenet_pp.c ****       pOutput->pOutBuff[i+_i].proba = scale *(float32_t)((int32_t)proba - (int32_t)zero_point);
 436              		.loc 1 95 7 is_stmt 1 view .LVU126
  91:../Middlewares/stm32-vision-models-postprocessing/lib_vision_models_pp/Src/spe_movenet_pp.c **** 
 437              		.loc 1 91 35 is_stmt 0 view .LVU127
 438 00e0 37EE287A 		vadd.f32	s14, s14, s17
  91:../Middlewares/stm32-vision-models-postprocessing/lib_vision_models_pp/Src/spe_movenet_pp.c **** 
 439              		.loc 1 91 43 view .LVU128
 440 00e4 F8EE486A 		vcvt.f32.u32	s13, s16
  91:../Middlewares/stm32-vision-models-postprocessing/lib_vision_models_pp/Src/spe_movenet_pp.c **** 
 441              		.loc 1 91 16 view .LVU129
 442 00e8 C7EE267A 		vdiv.f32	s15, s14, s13
  96:../Middlewares/stm32-vision-models-postprocessing/lib_vision_models_pp/Src/spe_movenet_pp.c ****     }
 443              		.loc 1 96 73 view .LVU130
 444 00ec ABEB0903 		sub	r3, fp, r9
  95:../Middlewares/stm32-vision-models-postprocessing/lib_vision_models_pp/Src/spe_movenet_pp.c ****       pOutput->pOutBuff[i+_i].proba = scale *(float32_t)((int32_t)proba - (int32_t)zero_point);
 445              		.loc 1 95 40 view .LVU131
 446 00f0 C2ED017A 		vstr.32	s15, [r2, #4]
  96:../Middlewares/stm32-vision-models-postprocessing/lib_vision_models_pp/Src/spe_movenet_pp.c ****     }
 447              		.loc 1 96 7 is_stmt 1 view .LVU132
  96:../Middlewares/stm32-vision-models-postprocessing/lib_vision_models_pp/Src/spe_movenet_pp.c ****     }
 448              		.loc 1 96 73 is_stmt 0 view .LVU133
 449 00f4 07EE903A 		vmov	s15, r3	@ int
  96:../Middlewares/stm32-vision-models-postprocessing/lib_vision_models_pp/Src/spe_movenet_pp.c ****     }
 450              		.loc 1 96 46 view .LVU134
 451 00f8 F8EEE77A 		vcvt.f32.s32	s15, s15
  96:../Middlewares/stm32-vision-models-postprocessing/lib_vision_models_pp/Src/spe_movenet_pp.c ****     }
 452              		.loc 1 96 45 view .LVU135
 453 00fc 67EE897A 		vmul.f32	s15, s15, s18
 454 0100 0C31     		adds	r1, r1, #12
  96:../Middlewares/stm32-vision-models-postprocessing/lib_vision_models_pp/Src/spe_movenet_pp.c ****     }
 455              		.loc 1 96 37 view .LVU136
 456 0102 C2ED027A 		vstr.32	s15, [r2, #8]
  86:../Middlewares/stm32-vision-models-postprocessing/lib_vision_models_pp/Src/spe_movenet_pp.c ****       index = index_array[_i];
 457              		.loc 1 86 80 is_stmt 1 discriminator 3 view .LVU137
 458              	.LVL30:
  86:../Middlewares/stm32-vision-models-postprocessing/lib_vision_models_pp/Src/spe_movenet_pp.c ****       index = index_array[_i];
 459              		.loc 1 86 80 is_stmt 0 discriminator 3 view .LVU138
 460 0106 C8E7     		b	.L10
 461              	.L14:
 462              		.align	2
 463              	.L13:
 464 0108 ABAAAA2A 		.word	715827883
 465              	.LBE13:
 466              	.LBE17:
 467              		.cfi_endproc
 468              	.LFE778:
 470              		.section	.text.spe_movenet_pp_reset,"ax",%progbits
 471              		.align	1
 472              		.global	spe_movenet_pp_reset
 473              		.syntax unified
 474              		.thumb
ARM GAS  /tmp/ccjUXYiQ.s 			page 13


 475              		.thumb_func
 477              	spe_movenet_pp_reset:
 478              	.LVL31:
 479              	.LFB779:
 102:../Middlewares/stm32-vision-models-postprocessing/lib_vision_models_pp/Src/spe_movenet_pp.c **** 
 103:../Middlewares/stm32-vision-models-postprocessing/lib_vision_models_pp/Src/spe_movenet_pp.c **** 
 104:../Middlewares/stm32-vision-models-postprocessing/lib_vision_models_pp/Src/spe_movenet_pp.c **** /* ----------------------       Exported routines      ---------------------- */
 105:../Middlewares/stm32-vision-models-postprocessing/lib_vision_models_pp/Src/spe_movenet_pp.c **** 
 106:../Middlewares/stm32-vision-models-postprocessing/lib_vision_models_pp/Src/spe_movenet_pp.c **** int32_t spe_movenet_pp_reset(spe_movenet_pp_static_param_t *pInput_static_param)
 107:../Middlewares/stm32-vision-models-postprocessing/lib_vision_models_pp/Src/spe_movenet_pp.c **** {
 480              		.loc 1 107 1 is_stmt 1 view -0
 481              		.cfi_startproc
 482              		@ args = 0, pretend = 0, frame = 0
 483              		@ frame_needed = 0, uses_anonymous_args = 0
 484              		@ link register save eliminated.
 108:../Middlewares/stm32-vision-models-postprocessing/lib_vision_models_pp/Src/spe_movenet_pp.c ****   /* Initializations */
 109:../Middlewares/stm32-vision-models-postprocessing/lib_vision_models_pp/Src/spe_movenet_pp.c ****   // pInput_static_param->... no initialization
 110:../Middlewares/stm32-vision-models-postprocessing/lib_vision_models_pp/Src/spe_movenet_pp.c **** 
 111:../Middlewares/stm32-vision-models-postprocessing/lib_vision_models_pp/Src/spe_movenet_pp.c **** 	return (AI_SPE_POSTPROCESS_ERROR_NO);
 485              		.loc 1 111 2 view .LVU140
 112:../Middlewares/stm32-vision-models-postprocessing/lib_vision_models_pp/Src/spe_movenet_pp.c **** }
 486              		.loc 1 112 1 is_stmt 0 view .LVU141
 487 0000 0020     		movs	r0, #0
 488              	.LVL32:
 489              		.loc 1 112 1 view .LVU142
 490 0002 7047     		bx	lr
 491              		.cfi_endproc
 492              	.LFE779:
 494              		.section	.text.spe_movenet_pp_process,"ax",%progbits
 495              		.align	1
 496              		.global	spe_movenet_pp_process
 497              		.syntax unified
 498              		.thumb
 499              		.thumb_func
 501              	spe_movenet_pp_process:
 502              	.LVL33:
 503              	.LFB780:
 113:../Middlewares/stm32-vision-models-postprocessing/lib_vision_models_pp/Src/spe_movenet_pp.c **** 
 114:../Middlewares/stm32-vision-models-postprocessing/lib_vision_models_pp/Src/spe_movenet_pp.c **** 
 115:../Middlewares/stm32-vision-models-postprocessing/lib_vision_models_pp/Src/spe_movenet_pp.c **** int32_t spe_movenet_pp_process(spe_movenet_pp_in_t *pInput,
 116:../Middlewares/stm32-vision-models-postprocessing/lib_vision_models_pp/Src/spe_movenet_pp.c ****                                      spe_pp_out_t *pOutput,
 117:../Middlewares/stm32-vision-models-postprocessing/lib_vision_models_pp/Src/spe_movenet_pp.c ****                                      spe_movenet_pp_static_param_t *pInput_static_param)
 118:../Middlewares/stm32-vision-models-postprocessing/lib_vision_models_pp/Src/spe_movenet_pp.c **** {
 504              		.loc 1 118 1 is_stmt 1 view -0
 505              		.cfi_startproc
 506              		@ args = 0, pretend = 0, frame = 0
 507              		@ frame_needed = 0, uses_anonymous_args = 0
 119:../Middlewares/stm32-vision-models-postprocessing/lib_vision_models_pp/Src/spe_movenet_pp.c ****     int32_t error   = AI_SPE_POSTPROCESS_ERROR_NO;
 508              		.loc 1 119 5 view .LVU144
 120:../Middlewares/stm32-vision-models-postprocessing/lib_vision_models_pp/Src/spe_movenet_pp.c **** 
 121:../Middlewares/stm32-vision-models-postprocessing/lib_vision_models_pp/Src/spe_movenet_pp.c ****      /* Extracts max value and indexes of each heatmap */
 122:../Middlewares/stm32-vision-models-postprocessing/lib_vision_models_pp/Src/spe_movenet_pp.c ****     error = movenet_heatmap_max(pInput,
 509              		.loc 1 122 5 view .LVU145
 118:../Middlewares/stm32-vision-models-postprocessing/lib_vision_models_pp/Src/spe_movenet_pp.c ****     int32_t error   = AI_SPE_POSTPROCESS_ERROR_NO;
 510              		.loc 1 118 1 is_stmt 0 view .LVU146
 511 0000 08B5     		push	{r3, lr}
 512              		.cfi_def_cfa_offset 8
ARM GAS  /tmp/ccjUXYiQ.s 			page 14


 513              		.cfi_offset 3, -8
 514              		.cfi_offset 14, -4
 515              		.loc 1 122 13 view .LVU147
 516 0002 FFF7FEFF 		bl	movenet_heatmap_max
 517              	.LVL34:
 123:../Middlewares/stm32-vision-models-postprocessing/lib_vision_models_pp/Src/spe_movenet_pp.c ****                                 pOutput,
 124:../Middlewares/stm32-vision-models-postprocessing/lib_vision_models_pp/Src/spe_movenet_pp.c ****                                 pInput_static_param);
 125:../Middlewares/stm32-vision-models-postprocessing/lib_vision_models_pp/Src/spe_movenet_pp.c **** 
 126:../Middlewares/stm32-vision-models-postprocessing/lib_vision_models_pp/Src/spe_movenet_pp.c ****     return (error);
 518              		.loc 1 126 5 is_stmt 1 view .LVU148
 127:../Middlewares/stm32-vision-models-postprocessing/lib_vision_models_pp/Src/spe_movenet_pp.c **** }
 519              		.loc 1 127 1 is_stmt 0 view .LVU149
 520 0006 0020     		movs	r0, #0
 521 0008 08BD     		pop	{r3, pc}
 522              		.cfi_endproc
 523              	.LFE780:
 525              		.section	.text.spe_movenet_pp_process_int8,"ax",%progbits
 526              		.align	1
 527              		.global	spe_movenet_pp_process_int8
 528              		.syntax unified
 529              		.thumb
 530              		.thumb_func
 532              	spe_movenet_pp_process_int8:
 533              	.LVL35:
 534              	.LFB781:
 128:../Middlewares/stm32-vision-models-postprocessing/lib_vision_models_pp/Src/spe_movenet_pp.c **** 
 129:../Middlewares/stm32-vision-models-postprocessing/lib_vision_models_pp/Src/spe_movenet_pp.c **** int32_t spe_movenet_pp_process_int8(spe_movenet_pp_in_t *pInput,
 130:../Middlewares/stm32-vision-models-postprocessing/lib_vision_models_pp/Src/spe_movenet_pp.c ****                                      spe_pp_out_t *pOutput,
 131:../Middlewares/stm32-vision-models-postprocessing/lib_vision_models_pp/Src/spe_movenet_pp.c ****                                      spe_movenet_pp_static_param_t *pInput_static_param)
 132:../Middlewares/stm32-vision-models-postprocessing/lib_vision_models_pp/Src/spe_movenet_pp.c **** {
 535              		.loc 1 132 1 is_stmt 1 view -0
 536              		.cfi_startproc
 537              		@ args = 0, pretend = 0, frame = 0
 538              		@ frame_needed = 0, uses_anonymous_args = 0
 133:../Middlewares/stm32-vision-models-postprocessing/lib_vision_models_pp/Src/spe_movenet_pp.c ****     int32_t error   = AI_SPE_POSTPROCESS_ERROR_NO;
 539              		.loc 1 133 5 view .LVU151
 134:../Middlewares/stm32-vision-models-postprocessing/lib_vision_models_pp/Src/spe_movenet_pp.c **** 
 135:../Middlewares/stm32-vision-models-postprocessing/lib_vision_models_pp/Src/spe_movenet_pp.c ****      /* Extracts max value and indexes of each heatmap */
 136:../Middlewares/stm32-vision-models-postprocessing/lib_vision_models_pp/Src/spe_movenet_pp.c ****     error = movenet_heatmap_max_int8(pInput,
 540              		.loc 1 136 5 view .LVU152
 132:../Middlewares/stm32-vision-models-postprocessing/lib_vision_models_pp/Src/spe_movenet_pp.c ****     int32_t error   = AI_SPE_POSTPROCESS_ERROR_NO;
 541              		.loc 1 132 1 is_stmt 0 view .LVU153
 542 0000 08B5     		push	{r3, lr}
 543              		.cfi_def_cfa_offset 8
 544              		.cfi_offset 3, -8
 545              		.cfi_offset 14, -4
 546              		.loc 1 136 13 view .LVU154
 547 0002 FFF7FEFF 		bl	movenet_heatmap_max_int8
 548              	.LVL36:
 137:../Middlewares/stm32-vision-models-postprocessing/lib_vision_models_pp/Src/spe_movenet_pp.c ****                                 pOutput,
 138:../Middlewares/stm32-vision-models-postprocessing/lib_vision_models_pp/Src/spe_movenet_pp.c ****                                 pInput_static_param);
 139:../Middlewares/stm32-vision-models-postprocessing/lib_vision_models_pp/Src/spe_movenet_pp.c **** 
 140:../Middlewares/stm32-vision-models-postprocessing/lib_vision_models_pp/Src/spe_movenet_pp.c ****     return (error);
 549              		.loc 1 140 5 is_stmt 1 view .LVU155
 141:../Middlewares/stm32-vision-models-postprocessing/lib_vision_models_pp/Src/spe_movenet_pp.c **** }
 550              		.loc 1 141 1 is_stmt 0 view .LVU156
 551 0006 0020     		movs	r0, #0
ARM GAS  /tmp/ccjUXYiQ.s 			page 15


 552 0008 08BD     		pop	{r3, pc}
 553              		.cfi_endproc
 554              	.LFE781:
 556              		.text
 557              	.Letext0:
 558              		.file 2 "/opt/st/stm32cubeclt_1.21.0/GNU-tools-for-STM32/arm-none-eabi/include/machine/_default_ty
 559              		.file 3 "/opt/st/stm32cubeclt_1.21.0/GNU-tools-for-STM32/arm-none-eabi/include/sys/_stdint.h"
 560              		.file 4 "/opt/st/stm32cubeclt_1.21.0/GNU-tools-for-STM32/lib/gcc/arm-none-eabi/14.3.1/include/arm_
 561              		.file 5 "../Middlewares/stm32-vision-models-postprocessing/lib_vision_models_pp/Inc/spe_pp_output_
 562              		.file 6 "../Middlewares/stm32-vision-models-postprocessing/lib_vision_models_pp/Inc/spe_movenet_pp
 563              		.file 7 "../Middlewares/stm32-vision-models-postprocessing/lib_vision_models_pp/Src/vision_models_
ARM GAS  /tmp/ccjUXYiQ.s 			page 16

