ARM GAS  /tmp/ccHKmbxS.s 			page 1


   1              		.arch armv8.1-m.main
   2              		.fpu fpv5-d16
   3              		.arch_extension dsp
   4              		.arch_extension fp
   5              		.arch_extension fp.dp
   6              		.arch_extension mve
   7              		.arch_extension mve.fp
   8              		.eabi_attribute 5, "cortex-m55"
   9              		.eabi_attribute 28, 1
  10              		.eabi_attribute 20, 1
  11              		.eabi_attribute 21, 1
  12              		.eabi_attribute 23, 3
  13              		.eabi_attribute 24, 1
  14              		.eabi_attribute 25, 1
  15              		.eabi_attribute 26, 1
  16              		.eabi_attribute 30, 4
  17              		.eabi_attribute 34, 1
  18              		.eabi_attribute 38, 1
  19              		.eabi_attribute 18, 4
  20              		.file	"stm32n6xx_hal_rif.c"
  21              		.text
  22              	.Ltext0:
  23              		.cfi_sections	.debug_frame
  24              		.file 1 "../STM32Cube_FW_N6/Drivers/STM32N6xx_HAL_Driver/Src/stm32n6xx_hal_rif.c"
  25              		.section	.text.HAL_RIF_RIMC_Lock,"ax",%progbits
  26              		.align	1
  27              		.global	HAL_RIF_RIMC_Lock
  28              		.syntax unified
  29              		.thumb
  30              		.thumb_func
  32              	HAL_RIF_RIMC_Lock:
  33              	.LFB881:
   1:../STM32Cube_FW_N6/Drivers/STM32N6xx_HAL_Driver/Src/stm32n6xx_hal_rif.c **** /**
   2:../STM32Cube_FW_N6/Drivers/STM32N6xx_HAL_Driver/Src/stm32n6xx_hal_rif.c ****   ******************************************************************************
   3:../STM32Cube_FW_N6/Drivers/STM32N6xx_HAL_Driver/Src/stm32n6xx_hal_rif.c ****   * @file    stm32n6xx_hal_rif.c
   4:../STM32Cube_FW_N6/Drivers/STM32N6xx_HAL_Driver/Src/stm32n6xx_hal_rif.c ****   * @author  MCD Application Team
   5:../STM32Cube_FW_N6/Drivers/STM32N6xx_HAL_Driver/Src/stm32n6xx_hal_rif.c ****   * @brief   RIF HAL module driver.
   6:../STM32Cube_FW_N6/Drivers/STM32N6xx_HAL_Driver/Src/stm32n6xx_hal_rif.c ****   *          This file provides firmware functions to manage the following
   7:../STM32Cube_FW_N6/Drivers/STM32N6xx_HAL_Driver/Src/stm32n6xx_hal_rif.c ****   *          functionalities of the Resource Isolation Framework (RIF) peripheral:
   8:../STM32Cube_FW_N6/Drivers/STM32N6xx_HAL_Driver/Src/stm32n6xx_hal_rif.c ****   *           + Initialization and de-initialization functions
   9:../STM32Cube_FW_N6/Drivers/STM32N6xx_HAL_Driver/Src/stm32n6xx_hal_rif.c ****   *           + Peripheral Control functions
  10:../STM32Cube_FW_N6/Drivers/STM32N6xx_HAL_Driver/Src/stm32n6xx_hal_rif.c ****   *
  11:../STM32Cube_FW_N6/Drivers/STM32N6xx_HAL_Driver/Src/stm32n6xx_hal_rif.c ****   ******************************************************************************
  12:../STM32Cube_FW_N6/Drivers/STM32N6xx_HAL_Driver/Src/stm32n6xx_hal_rif.c ****   * @attention
  13:../STM32Cube_FW_N6/Drivers/STM32N6xx_HAL_Driver/Src/stm32n6xx_hal_rif.c ****   *
  14:../STM32Cube_FW_N6/Drivers/STM32N6xx_HAL_Driver/Src/stm32n6xx_hal_rif.c ****   * Copyright (c) 2023 STMicroelectronics.
  15:../STM32Cube_FW_N6/Drivers/STM32N6xx_HAL_Driver/Src/stm32n6xx_hal_rif.c ****   * All rights reserved.
  16:../STM32Cube_FW_N6/Drivers/STM32N6xx_HAL_Driver/Src/stm32n6xx_hal_rif.c ****   *
  17:../STM32Cube_FW_N6/Drivers/STM32N6xx_HAL_Driver/Src/stm32n6xx_hal_rif.c ****   * This software is licensed under terms that can be found in the LICENSE file
  18:../STM32Cube_FW_N6/Drivers/STM32N6xx_HAL_Driver/Src/stm32n6xx_hal_rif.c ****   * in the root directory of this software component.
  19:../STM32Cube_FW_N6/Drivers/STM32N6xx_HAL_Driver/Src/stm32n6xx_hal_rif.c ****   * If no LICENSE file comes with this software, it is provided AS-IS.
  20:../STM32Cube_FW_N6/Drivers/STM32N6xx_HAL_Driver/Src/stm32n6xx_hal_rif.c ****   *
  21:../STM32Cube_FW_N6/Drivers/STM32N6xx_HAL_Driver/Src/stm32n6xx_hal_rif.c ****   ******************************************************************************
  22:../STM32Cube_FW_N6/Drivers/STM32N6xx_HAL_Driver/Src/stm32n6xx_hal_rif.c ****   @verbatim
  23:../STM32Cube_FW_N6/Drivers/STM32N6xx_HAL_Driver/Src/stm32n6xx_hal_rif.c ****   ==============================================================================
  24:../STM32Cube_FW_N6/Drivers/STM32N6xx_HAL_Driver/Src/stm32n6xx_hal_rif.c ****                 ##### RIF main features #####
  25:../STM32Cube_FW_N6/Drivers/STM32N6xx_HAL_Driver/Src/stm32n6xx_hal_rif.c ****   ==============================================================================
ARM GAS  /tmp/ccHKmbxS.s 			page 2


  26:../STM32Cube_FW_N6/Drivers/STM32N6xx_HAL_Driver/Src/stm32n6xx_hal_rif.c ****   [..]
  27:../STM32Cube_FW_N6/Drivers/STM32N6xx_HAL_Driver/Src/stm32n6xx_hal_rif.c ****     (+) Resource Isolation framework (RIF) is a comprehensive set of hardware
  28:../STM32Cube_FW_N6/Drivers/STM32N6xx_HAL_Driver/Src/stm32n6xx_hal_rif.c ****     blocks designed to enforce and manage isolation of STM32 hardware resources
  29:../STM32Cube_FW_N6/Drivers/STM32N6xx_HAL_Driver/Src/stm32n6xx_hal_rif.c ****     like memory and peripherals.
  30:../STM32Cube_FW_N6/Drivers/STM32N6xx_HAL_Driver/Src/stm32n6xx_hal_rif.c **** 
  31:../STM32Cube_FW_N6/Drivers/STM32N6xx_HAL_Driver/Src/stm32n6xx_hal_rif.c ****     (+) Resource Isolation Framework (RIF) composed of the following sub-blocks:
  32:../STM32Cube_FW_N6/Drivers/STM32N6xx_HAL_Driver/Src/stm32n6xx_hal_rif.c ****       (++) RIMC:  Resource Isolation Master Controller
  33:../STM32Cube_FW_N6/Drivers/STM32N6xx_HAL_Driver/Src/stm32n6xx_hal_rif.c ****                   This sub-block assigns all non RIF-aware bus master to one
  34:../STM32Cube_FW_N6/Drivers/STM32N6xx_HAL_Driver/Src/stm32n6xx_hal_rif.c ****                   security domain by setting secure, privileged and compartment
  35:../STM32Cube_FW_N6/Drivers/STM32N6xx_HAL_Driver/Src/stm32n6xx_hal_rif.c ****                   information on the system bus.
  36:../STM32Cube_FW_N6/Drivers/STM32N6xx_HAL_Driver/Src/stm32n6xx_hal_rif.c ****                   Note that if non-secure software is permitted to configure one of
  37:../STM32Cube_FW_N6/Drivers/STM32N6xx_HAL_Driver/Src/stm32n6xx_hal_rif.c ****                   these peripherals, then this setting is ignored and all accesses
  38:../STM32Cube_FW_N6/Drivers/STM32N6xx_HAL_Driver/Src/stm32n6xx_hal_rif.c ****                   initiated by the peripheral are forced to be non-secure.
  39:../STM32Cube_FW_N6/Drivers/STM32N6xx_HAL_Driver/Src/stm32n6xx_hal_rif.c ****       (++) RISC:  Resource Isolation Slave Controller
  40:../STM32Cube_FW_N6/Drivers/STM32N6xx_HAL_Driver/Src/stm32n6xx_hal_rif.c ****                   This sub-block assigns all non-RIF aware peripherals to zero,
  41:../STM32Cube_FW_N6/Drivers/STM32N6xx_HAL_Driver/Src/stm32n6xx_hal_rif.c ****                   one or any security domains (secure, privilege, compartment).
  42:../STM32Cube_FW_N6/Drivers/STM32N6xx_HAL_Driver/Src/stm32n6xx_hal_rif.c ****       (++) RISAF: Resource Isolation Slave unit for Address space (Full version)
  43:../STM32Cube_FW_N6/Drivers/STM32N6xx_HAL_Driver/Src/stm32n6xx_hal_rif.c ****                   This sub-block assigns memory regions and subregions to one or
  44:../STM32Cube_FW_N6/Drivers/STM32N6xx_HAL_Driver/Src/stm32n6xx_hal_rif.c ****                   more security domains (secure, privilege, compartment).
  45:../STM32Cube_FW_N6/Drivers/STM32N6xx_HAL_Driver/Src/stm32n6xx_hal_rif.c ****       (++) IAC:   Illegal Access Controller
  46:../STM32Cube_FW_N6/Drivers/STM32N6xx_HAL_Driver/Src/stm32n6xx_hal_rif.c ****                   This sub-block centralizes detection of RIF-related accesses,
  47:../STM32Cube_FW_N6/Drivers/STM32N6xx_HAL_Driver/Src/stm32n6xx_hal_rif.c ****                   managed by a secure application. Supported illegal accesses are:
  48:../STM32Cube_FW_N6/Drivers/STM32N6xx_HAL_Driver/Src/stm32n6xx_hal_rif.c ****                   secure, privileged.
  49:../STM32Cube_FW_N6/Drivers/STM32N6xx_HAL_Driver/Src/stm32n6xx_hal_rif.c **** 
  50:../STM32Cube_FW_N6/Drivers/STM32N6xx_HAL_Driver/Src/stm32n6xx_hal_rif.c ****   [..]
  51:../STM32Cube_FW_N6/Drivers/STM32N6xx_HAL_Driver/Src/stm32n6xx_hal_rif.c ****     (+) All the setter functions are protected under the CPU_AS_TRUSTED_DOMAIN
  52:../STM32Cube_FW_N6/Drivers/STM32N6xx_HAL_Driver/Src/stm32n6xx_hal_rif.c ****         directive.
  53:../STM32Cube_FW_N6/Drivers/STM32N6xx_HAL_Driver/Src/stm32n6xx_hal_rif.c ****         It ensures that only the trusted domain can manage the critical
  54:../STM32Cube_FW_N6/Drivers/STM32N6xx_HAL_Driver/Src/stm32n6xx_hal_rif.c ****         configurations of the RIF.
  55:../STM32Cube_FW_N6/Drivers/STM32N6xx_HAL_Driver/Src/stm32n6xx_hal_rif.c ****         This directive is defined in the CMSIS file.
  56:../STM32Cube_FW_N6/Drivers/STM32N6xx_HAL_Driver/Src/stm32n6xx_hal_rif.c **** 
  57:../STM32Cube_FW_N6/Drivers/STM32N6xx_HAL_Driver/Src/stm32n6xx_hal_rif.c ****  ===============================================================================
  58:../STM32Cube_FW_N6/Drivers/STM32N6xx_HAL_Driver/Src/stm32n6xx_hal_rif.c ****                      ##### How to use this driver #####
  59:../STM32Cube_FW_N6/Drivers/STM32N6xx_HAL_Driver/Src/stm32n6xx_hal_rif.c ****  ===============================================================================
  60:../STM32Cube_FW_N6/Drivers/STM32N6xx_HAL_Driver/Src/stm32n6xx_hal_rif.c ****   [..]
  61:../STM32Cube_FW_N6/Drivers/STM32N6xx_HAL_Driver/Src/stm32n6xx_hal_rif.c ****     *** Locking RIF components configuration ***
  62:../STM32Cube_FW_N6/Drivers/STM32N6xx_HAL_Driver/Src/stm32n6xx_hal_rif.c ****     ============================================================
  63:../STM32Cube_FW_N6/Drivers/STM32N6xx_HAL_Driver/Src/stm32n6xx_hal_rif.c ****     [..]
  64:../STM32Cube_FW_N6/Drivers/STM32N6xx_HAL_Driver/Src/stm32n6xx_hal_rif.c ****     (#) Lock and get the lock configuration of RIMC registers until next reset
  65:../STM32Cube_FW_N6/Drivers/STM32N6xx_HAL_Driver/Src/stm32n6xx_hal_rif.c ****         with HAL_RIF_RIMC_Lock / HAL_RIF_RIMC_GetLock.
  66:../STM32Cube_FW_N6/Drivers/STM32N6xx_HAL_Driver/Src/stm32n6xx_hal_rif.c ****     (#) Lock and get the lock configuration of RISC registers until next reset
  67:../STM32Cube_FW_N6/Drivers/STM32N6xx_HAL_Driver/Src/stm32n6xx_hal_rif.c ****         with HAL_RIF_RISC_Lock / HAL_RIF_RISC_GetLock.
  68:../STM32Cube_FW_N6/Drivers/STM32N6xx_HAL_Driver/Src/stm32n6xx_hal_rif.c ****     (#) Lock and get the lock configuration of slave resources registers until
  69:../STM32Cube_FW_N6/Drivers/STM32N6xx_HAL_Driver/Src/stm32n6xx_hal_rif.c ****         next reset with HAL_RIF_RISC_SlaveConfigLock / HAL_RIF_RISC_GetSlaveConfigLock.
  70:../STM32Cube_FW_N6/Drivers/STM32N6xx_HAL_Driver/Src/stm32n6xx_hal_rif.c ****     (#) Lock and get the lock configuration of RISAF registers until next reset
  71:../STM32Cube_FW_N6/Drivers/STM32N6xx_HAL_Driver/Src/stm32n6xx_hal_rif.c ****         with HAL_RIF_RISAF_Lock / HAL_RIF_RISAF_GetLock.
  72:../STM32Cube_FW_N6/Drivers/STM32N6xx_HAL_Driver/Src/stm32n6xx_hal_rif.c **** 
  73:../STM32Cube_FW_N6/Drivers/STM32N6xx_HAL_Driver/Src/stm32n6xx_hal_rif.c ****     *** Context-related functions ***
  74:../STM32Cube_FW_N6/Drivers/STM32N6xx_HAL_Driver/Src/stm32n6xx_hal_rif.c ****     ============================================================
  75:../STM32Cube_FW_N6/Drivers/STM32N6xx_HAL_Driver/Src/stm32n6xx_hal_rif.c ****     [..]
  76:../STM32Cube_FW_N6/Drivers/STM32N6xx_HAL_Driver/Src/stm32n6xx_hal_rif.c ****     (#) Set or get Debugger Access Port Compartment ID with HAL_RIF_RIMC_SetDebugAccessPortCID /
  77:../STM32Cube_FW_N6/Drivers/STM32N6xx_HAL_Driver/Src/stm32n6xx_hal_rif.c ****         HAL_RIF_RIMC_GetDebugAccessPortCID functions.
  78:../STM32Cube_FW_N6/Drivers/STM32N6xx_HAL_Driver/Src/stm32n6xx_hal_rif.c ****     (#) Check the Debug Domain and Global Debug Domain status with
  79:../STM32Cube_FW_N6/Drivers/STM32N6xx_HAL_Driver/Src/stm32n6xx_hal_rif.c ****         HAL_RIF_RIMC_GetDebugStatus.
  80:../STM32Cube_FW_N6/Drivers/STM32N6xx_HAL_Driver/Src/stm32n6xx_hal_rif.c **** 
  81:../STM32Cube_FW_N6/Drivers/STM32N6xx_HAL_Driver/Src/stm32n6xx_hal_rif.c **** #if defined(GENERATOR_RIF_FEATURE_ENCRYPTION_IMPLEMENTED)
  82:../STM32Cube_FW_N6/Drivers/STM32N6xx_HAL_Driver/Src/stm32n6xx_hal_rif.c ****     *** Encryption-related functions ***
ARM GAS  /tmp/ccHKmbxS.s 			page 3


  83:../STM32Cube_FW_N6/Drivers/STM32N6xx_HAL_Driver/Src/stm32n6xx_hal_rif.c ****     ============================================================
  84:../STM32Cube_FW_N6/Drivers/STM32N6xx_HAL_Driver/Src/stm32n6xx_hal_rif.c ****     [..]
  85:../STM32Cube_FW_N6/Drivers/STM32N6xx_HAL_Driver/Src/stm32n6xx_hal_rif.c ****     (#) Read of write RISAF encryption keys and related flags.
  86:../STM32Cube_FW_N6/Drivers/STM32N6xx_HAL_Driver/Src/stm32n6xx_hal_rif.c **** 
  87:../STM32Cube_FW_N6/Drivers/STM32N6xx_HAL_Driver/Src/stm32n6xx_hal_rif.c **** #endif
  88:../STM32Cube_FW_N6/Drivers/STM32N6xx_HAL_Driver/Src/stm32n6xx_hal_rif.c ****      *** Configuration of master-related attributes ***
  89:../STM32Cube_FW_N6/Drivers/STM32N6xx_HAL_Driver/Src/stm32n6xx_hal_rif.c ****     ============================================================
  90:../STM32Cube_FW_N6/Drivers/STM32N6xx_HAL_Driver/Src/stm32n6xx_hal_rif.c ****     [..]
  91:../STM32Cube_FW_N6/Drivers/STM32N6xx_HAL_Driver/Src/stm32n6xx_hal_rif.c ****     (#) Set or get the secure, privilege and compartment configuration of a
  92:../STM32Cube_FW_N6/Drivers/STM32N6xx_HAL_Driver/Src/stm32n6xx_hal_rif.c ****         bus master thanks to the HAL_RIF_RIMC_ConfigMasterAttributes /
  93:../STM32Cube_FW_N6/Drivers/STM32N6xx_HAL_Driver/Src/stm32n6xx_hal_rif.c ****         HAL_RIF_RIMC_GetConfigMasterAttributes functions.
  94:../STM32Cube_FW_N6/Drivers/STM32N6xx_HAL_Driver/Src/stm32n6xx_hal_rif.c ****     (#) Lock and get lock status the bus master attributes configuration until
  95:../STM32Cube_FW_N6/Drivers/STM32N6xx_HAL_Driver/Src/stm32n6xx_hal_rif.c ****         next system reset using HAL_RIF_RIMC_Lock.
  96:../STM32Cube_FW_N6/Drivers/STM32N6xx_HAL_Driver/Src/stm32n6xx_hal_rif.c **** 
  97:../STM32Cube_FW_N6/Drivers/STM32N6xx_HAL_Driver/Src/stm32n6xx_hal_rif.c ****      *** Configuration of slave-related attributes ***
  98:../STM32Cube_FW_N6/Drivers/STM32N6xx_HAL_Driver/Src/stm32n6xx_hal_rif.c ****     ============================================================
  99:../STM32Cube_FW_N6/Drivers/STM32N6xx_HAL_Driver/Src/stm32n6xx_hal_rif.c ****     [..]
 100:../STM32Cube_FW_N6/Drivers/STM32N6xx_HAL_Driver/Src/stm32n6xx_hal_rif.c ****     (#) Set or get the secure and privilege configuration of a bus slave
 101:../STM32Cube_FW_N6/Drivers/STM32N6xx_HAL_Driver/Src/stm32n6xx_hal_rif.c ****         thanks to the HAL_RIF_RISC_SetSlaveSecureAttributes /
 102:../STM32Cube_FW_N6/Drivers/STM32N6xx_HAL_Driver/Src/stm32n6xx_hal_rif.c ****         HAL_RIF_RISC_GetSlaveSecureAttributes functions.
 103:../STM32Cube_FW_N6/Drivers/STM32N6xx_HAL_Driver/Src/stm32n6xx_hal_rif.c ****     (#) Lock and get lock status each bus slave attributes configuration using
 104:../STM32Cube_FW_N6/Drivers/STM32N6xx_HAL_Driver/Src/stm32n6xx_hal_rif.c ****         HAL_RIF_RISC_SlaveConfigLock or lock the whole RISC configuration with
 105:../STM32Cube_FW_N6/Drivers/STM32N6xx_HAL_Driver/Src/stm32n6xx_hal_rif.c ****         HAL_RIF_RISC_Lock until next system reset.
 106:../STM32Cube_FW_N6/Drivers/STM32N6xx_HAL_Driver/Src/stm32n6xx_hal_rif.c **** 
 107:../STM32Cube_FW_N6/Drivers/STM32N6xx_HAL_Driver/Src/stm32n6xx_hal_rif.c ****      *** Configuration of RISAF attributes ***
 108:../STM32Cube_FW_N6/Drivers/STM32N6xx_HAL_Driver/Src/stm32n6xx_hal_rif.c ****     ============================================================
 109:../STM32Cube_FW_N6/Drivers/STM32N6xx_HAL_Driver/Src/stm32n6xx_hal_rif.c ****     [..]
 110:../STM32Cube_FW_N6/Drivers/STM32N6xx_HAL_Driver/Src/stm32n6xx_hal_rif.c ****     (#) Set or get a base region configuration with HAL_RIF_RISAF_ConfigBaseRegion /
 111:../STM32Cube_FW_N6/Drivers/STM32N6xx_HAL_Driver/Src/stm32n6xx_hal_rif.c ****         HAL_RIF_RISAF_GetConfigBaseRegion.
 112:../STM32Cube_FW_N6/Drivers/STM32N6xx_HAL_Driver/Src/stm32n6xx_hal_rif.c ****     (#) Set or get a subregion configuration with HAL_RIF_RISAF_ConfigSubRegion /
 113:../STM32Cube_FW_N6/Drivers/STM32N6xx_HAL_Driver/Src/stm32n6xx_hal_rif.c ****         HAL_RIF_RISAF_GetConfigSubRegion.
 114:../STM32Cube_FW_N6/Drivers/STM32N6xx_HAL_Driver/Src/stm32n6xx_hal_rif.c ****     (#) Delegate a subregion configuration to another CID with HAL_RIF_RISAF_ConfigSubRegionDelegat
 115:../STM32Cube_FW_N6/Drivers/STM32N6xx_HAL_Driver/Src/stm32n6xx_hal_rif.c ****     (#) Get the data from an illegal access to a protected memory region with
 116:../STM32Cube_FW_N6/Drivers/STM32N6xx_HAL_Driver/Src/stm32n6xx_hal_rif.c ****         HAL_RIF_RISAF_GetIllegalAccess.
 117:../STM32Cube_FW_N6/Drivers/STM32N6xx_HAL_Driver/Src/stm32n6xx_hal_rif.c **** 
 118:../STM32Cube_FW_N6/Drivers/STM32N6xx_HAL_Driver/Src/stm32n6xx_hal_rif.c ****      *** IAC related functions ***
 119:../STM32Cube_FW_N6/Drivers/STM32N6xx_HAL_Driver/Src/stm32n6xx_hal_rif.c ****     ============================================================
 120:../STM32Cube_FW_N6/Drivers/STM32N6xx_HAL_Driver/Src/stm32n6xx_hal_rif.c ****     [..]
 121:../STM32Cube_FW_N6/Drivers/STM32N6xx_HAL_Driver/Src/stm32n6xx_hal_rif.c ****     (#) Enable or disable peripheral illegal access detection with HAL_RIF_IAC_EnableIT /
 122:../STM32Cube_FW_N6/Drivers/STM32N6xx_HAL_Driver/Src/stm32n6xx_hal_rif.c ****         HAL_RIF_IAC_DisableIT.
 123:../STM32Cube_FW_N6/Drivers/STM32N6xx_HAL_Driver/Src/stm32n6xx_hal_rif.c ****     (#) Retrieve an illegal access flag from a designated peripheral with HAL_RIF_IAC_GetFlag
 124:../STM32Cube_FW_N6/Drivers/STM32N6xx_HAL_Driver/Src/stm32n6xx_hal_rif.c ****         or clear it with HAL_RIF_IAC_ClearFlag.
 125:../STM32Cube_FW_N6/Drivers/STM32N6xx_HAL_Driver/Src/stm32n6xx_hal_rif.c ****     (#) Illegal access interrupt service routines are served by HAL_RIF_IRQHandler()
 126:../STM32Cube_FW_N6/Drivers/STM32N6xx_HAL_Driver/Src/stm32n6xx_hal_rif.c ****         and user can add his own code using HAL_RIF_ILA_Callback().
 127:../STM32Cube_FW_N6/Drivers/STM32N6xx_HAL_Driver/Src/stm32n6xx_hal_rif.c **** 
 128:../STM32Cube_FW_N6/Drivers/STM32N6xx_HAL_Driver/Src/stm32n6xx_hal_rif.c ****   @endverbatim
 129:../STM32Cube_FW_N6/Drivers/STM32N6xx_HAL_Driver/Src/stm32n6xx_hal_rif.c ****   ******************************************************************************
 130:../STM32Cube_FW_N6/Drivers/STM32N6xx_HAL_Driver/Src/stm32n6xx_hal_rif.c ****   */
 131:../STM32Cube_FW_N6/Drivers/STM32N6xx_HAL_Driver/Src/stm32n6xx_hal_rif.c **** 
 132:../STM32Cube_FW_N6/Drivers/STM32N6xx_HAL_Driver/Src/stm32n6xx_hal_rif.c **** /* Includes ------------------------------------------------------------------*/
 133:../STM32Cube_FW_N6/Drivers/STM32N6xx_HAL_Driver/Src/stm32n6xx_hal_rif.c **** #include "stm32n6xx_hal.h"
 134:../STM32Cube_FW_N6/Drivers/STM32N6xx_HAL_Driver/Src/stm32n6xx_hal_rif.c **** 
 135:../STM32Cube_FW_N6/Drivers/STM32N6xx_HAL_Driver/Src/stm32n6xx_hal_rif.c **** /** @addtogroup STM32N6xx_HAL_Driver
 136:../STM32Cube_FW_N6/Drivers/STM32N6xx_HAL_Driver/Src/stm32n6xx_hal_rif.c ****   * @{
 137:../STM32Cube_FW_N6/Drivers/STM32N6xx_HAL_Driver/Src/stm32n6xx_hal_rif.c ****   */
 138:../STM32Cube_FW_N6/Drivers/STM32N6xx_HAL_Driver/Src/stm32n6xx_hal_rif.c **** 
 139:../STM32Cube_FW_N6/Drivers/STM32N6xx_HAL_Driver/Src/stm32n6xx_hal_rif.c **** /** @defgroup RIF RIF
ARM GAS  /tmp/ccHKmbxS.s 			page 4


 140:../STM32Cube_FW_N6/Drivers/STM32N6xx_HAL_Driver/Src/stm32n6xx_hal_rif.c ****   * @brief RIF HAL module driver.
 141:../STM32Cube_FW_N6/Drivers/STM32N6xx_HAL_Driver/Src/stm32n6xx_hal_rif.c ****   * @{
 142:../STM32Cube_FW_N6/Drivers/STM32N6xx_HAL_Driver/Src/stm32n6xx_hal_rif.c ****   */
 143:../STM32Cube_FW_N6/Drivers/STM32N6xx_HAL_Driver/Src/stm32n6xx_hal_rif.c **** 
 144:../STM32Cube_FW_N6/Drivers/STM32N6xx_HAL_Driver/Src/stm32n6xx_hal_rif.c **** #ifdef HAL_RIF_MODULE_ENABLED
 145:../STM32Cube_FW_N6/Drivers/STM32N6xx_HAL_Driver/Src/stm32n6xx_hal_rif.c **** 
 146:../STM32Cube_FW_N6/Drivers/STM32N6xx_HAL_Driver/Src/stm32n6xx_hal_rif.c **** /* Private typedef -----------------------------------------------------------*/
 147:../STM32Cube_FW_N6/Drivers/STM32N6xx_HAL_Driver/Src/stm32n6xx_hal_rif.c **** /* Private defines ------------------------------------------------------------*/
 148:../STM32Cube_FW_N6/Drivers/STM32N6xx_HAL_Driver/Src/stm32n6xx_hal_rif.c **** /** @addtogroup RIF_Private_Defines RIF Private Defines
 149:../STM32Cube_FW_N6/Drivers/STM32N6xx_HAL_Driver/Src/stm32n6xx_hal_rif.c ****   * @{
 150:../STM32Cube_FW_N6/Drivers/STM32N6xx_HAL_Driver/Src/stm32n6xx_hal_rif.c ****   */
 151:../STM32Cube_FW_N6/Drivers/STM32N6xx_HAL_Driver/Src/stm32n6xx_hal_rif.c **** #define RIF_PERIPH_IAC_REG_MAX             4U
 152:../STM32Cube_FW_N6/Drivers/STM32N6xx_HAL_Driver/Src/stm32n6xx_hal_rif.c **** /**
 153:../STM32Cube_FW_N6/Drivers/STM32N6xx_HAL_Driver/Src/stm32n6xx_hal_rif.c ****   * @}
 154:../STM32Cube_FW_N6/Drivers/STM32N6xx_HAL_Driver/Src/stm32n6xx_hal_rif.c ****   */
 155:../STM32Cube_FW_N6/Drivers/STM32N6xx_HAL_Driver/Src/stm32n6xx_hal_rif.c **** 
 156:../STM32Cube_FW_N6/Drivers/STM32N6xx_HAL_Driver/Src/stm32n6xx_hal_rif.c **** /* Private macro -------------------------------------------------------------*/
 157:../STM32Cube_FW_N6/Drivers/STM32N6xx_HAL_Driver/Src/stm32n6xx_hal_rif.c **** /* Private variables ---------------------------------------------------------*/
 158:../STM32Cube_FW_N6/Drivers/STM32N6xx_HAL_Driver/Src/stm32n6xx_hal_rif.c **** /* Private function prototypes -----------------------------------------------*/
 159:../STM32Cube_FW_N6/Drivers/STM32N6xx_HAL_Driver/Src/stm32n6xx_hal_rif.c **** /* Exported functions --------------------------------------------------------*/
 160:../STM32Cube_FW_N6/Drivers/STM32N6xx_HAL_Driver/Src/stm32n6xx_hal_rif.c **** 
 161:../STM32Cube_FW_N6/Drivers/STM32N6xx_HAL_Driver/Src/stm32n6xx_hal_rif.c **** /** @defgroup RIF_Exported_Functions RIF Exported Functions
 162:../STM32Cube_FW_N6/Drivers/STM32N6xx_HAL_Driver/Src/stm32n6xx_hal_rif.c ****   *  @{
 163:../STM32Cube_FW_N6/Drivers/STM32N6xx_HAL_Driver/Src/stm32n6xx_hal_rif.c ****   */
 164:../STM32Cube_FW_N6/Drivers/STM32N6xx_HAL_Driver/Src/stm32n6xx_hal_rif.c **** 
 165:../STM32Cube_FW_N6/Drivers/STM32N6xx_HAL_Driver/Src/stm32n6xx_hal_rif.c **** /** @defgroup RIF_Exported_Functions_Group1  RIMC Configuration functions
 166:../STM32Cube_FW_N6/Drivers/STM32N6xx_HAL_Driver/Src/stm32n6xx_hal_rif.c ****   *  @brief    RIMC Configuration functions
 167:../STM32Cube_FW_N6/Drivers/STM32N6xx_HAL_Driver/Src/stm32n6xx_hal_rif.c ****   *
 168:../STM32Cube_FW_N6/Drivers/STM32N6xx_HAL_Driver/Src/stm32n6xx_hal_rif.c **** @verbatim
 169:../STM32Cube_FW_N6/Drivers/STM32N6xx_HAL_Driver/Src/stm32n6xx_hal_rif.c ****   ==============================================================================
 170:../STM32Cube_FW_N6/Drivers/STM32N6xx_HAL_Driver/Src/stm32n6xx_hal_rif.c ****             ##### RIMC Configuration functions #####
 171:../STM32Cube_FW_N6/Drivers/STM32N6xx_HAL_Driver/Src/stm32n6xx_hal_rif.c ****   ==============================================================================
 172:../STM32Cube_FW_N6/Drivers/STM32N6xx_HAL_Driver/Src/stm32n6xx_hal_rif.c ****   [..]
 173:../STM32Cube_FW_N6/Drivers/STM32N6xx_HAL_Driver/Src/stm32n6xx_hal_rif.c ****     This section provides functions allowing to configure RIMC
 174:../STM32Cube_FW_N6/Drivers/STM32N6xx_HAL_Driver/Src/stm32n6xx_hal_rif.c ****     RIMC is Resource Isolation Master Controller
 175:../STM32Cube_FW_N6/Drivers/STM32N6xx_HAL_Driver/Src/stm32n6xx_hal_rif.c **** @endverbatim
 176:../STM32Cube_FW_N6/Drivers/STM32N6xx_HAL_Driver/Src/stm32n6xx_hal_rif.c ****   * @{
 177:../STM32Cube_FW_N6/Drivers/STM32N6xx_HAL_Driver/Src/stm32n6xx_hal_rif.c ****   */
 178:../STM32Cube_FW_N6/Drivers/STM32N6xx_HAL_Driver/Src/stm32n6xx_hal_rif.c **** #if defined(CPU_AS_TRUSTED_DOMAIN) && defined(CPU_IN_SECURE_STATE)
 179:../STM32Cube_FW_N6/Drivers/STM32N6xx_HAL_Driver/Src/stm32n6xx_hal_rif.c **** /**
 180:../STM32Cube_FW_N6/Drivers/STM32N6xx_HAL_Driver/Src/stm32n6xx_hal_rif.c ****   * @brief  Lock overall configuration of RIMC.
 181:../STM32Cube_FW_N6/Drivers/STM32N6xx_HAL_Driver/Src/stm32n6xx_hal_rif.c ****   * @note   Once set, the overall configuration of RIMC cannot be modified
 182:../STM32Cube_FW_N6/Drivers/STM32N6xx_HAL_Driver/Src/stm32n6xx_hal_rif.c ****   *         upon next system reset.
 183:../STM32Cube_FW_N6/Drivers/STM32N6xx_HAL_Driver/Src/stm32n6xx_hal_rif.c ****   * @note   This API is protected by the Trusted Domain compilation directive.
 184:../STM32Cube_FW_N6/Drivers/STM32N6xx_HAL_Driver/Src/stm32n6xx_hal_rif.c ****   * @note   This API is protected by the TrustZone Enabled compilation directive.
 185:../STM32Cube_FW_N6/Drivers/STM32N6xx_HAL_Driver/Src/stm32n6xx_hal_rif.c ****   * @retval None
 186:../STM32Cube_FW_N6/Drivers/STM32N6xx_HAL_Driver/Src/stm32n6xx_hal_rif.c ****   */
 187:../STM32Cube_FW_N6/Drivers/STM32N6xx_HAL_Driver/Src/stm32n6xx_hal_rif.c **** void HAL_RIF_RIMC_Lock(void)
 188:../STM32Cube_FW_N6/Drivers/STM32N6xx_HAL_Driver/Src/stm32n6xx_hal_rif.c **** {
  34              		.loc 1 188 1 view -0
  35              		.cfi_startproc
  36              		@ args = 0, pretend = 0, frame = 0
  37              		@ frame_needed = 0, uses_anonymous_args = 0
  38              		@ link register save eliminated.
 189:../STM32Cube_FW_N6/Drivers/STM32N6xx_HAL_Driver/Src/stm32n6xx_hal_rif.c ****   /* Set RIMC Lock bit */
 190:../STM32Cube_FW_N6/Drivers/STM32N6xx_HAL_Driver/Src/stm32n6xx_hal_rif.c ****   RIFSC->RIMC_CR |= RIFSC_RIMC_CR_GLOCK;
  39              		.loc 1 190 3 view .LVU1
ARM GAS  /tmp/ccHKmbxS.s 			page 5


  40              		.loc 1 190 8 is_stmt 0 view .LVU2
  41 0000 034A     		ldr	r2, .L2
  42 0002 D2F8003C 		ldr	r3, [r2, #3072]
  43              		.loc 1 190 18 view .LVU3
  44 0006 43F00103 		orr	r3, r3, #1
  45 000a C2F8003C 		str	r3, [r2, #3072]
 191:../STM32Cube_FW_N6/Drivers/STM32N6xx_HAL_Driver/Src/stm32n6xx_hal_rif.c **** }
  46              		.loc 1 191 1 view .LVU4
  47 000e 7047     		bx	lr
  48              	.L3:
  49              		.align	2
  50              	.L2:
  51 0010 00400254 		.word	1409433600
  52              		.cfi_endproc
  53              	.LFE881:
  55              		.section	.text.HAL_RIF_RIMC_GetLock,"ax",%progbits
  56              		.align	1
  57              		.global	HAL_RIF_RIMC_GetLock
  58              		.syntax unified
  59              		.thumb
  60              		.thumb_func
  62              	HAL_RIF_RIMC_GetLock:
  63              	.LFB882:
 192:../STM32Cube_FW_N6/Drivers/STM32N6xx_HAL_Driver/Src/stm32n6xx_hal_rif.c **** #endif /* defined(CPU_AS_TRUSTED_DOMAIN) && defined(CPU_IN_SECURE_STATE) */
 193:../STM32Cube_FW_N6/Drivers/STM32N6xx_HAL_Driver/Src/stm32n6xx_hal_rif.c **** 
 194:../STM32Cube_FW_N6/Drivers/STM32N6xx_HAL_Driver/Src/stm32n6xx_hal_rif.c **** /**
 195:../STM32Cube_FW_N6/Drivers/STM32N6xx_HAL_Driver/Src/stm32n6xx_hal_rif.c ****   * @brief  Get RIMC global lock status.
 196:../STM32Cube_FW_N6/Drivers/STM32N6xx_HAL_Driver/Src/stm32n6xx_hal_rif.c ****   * @retval RIF_LOCK_ENABLE if RIMC configuration is locked, else RIF_LOCK_DISABLE
 197:../STM32Cube_FW_N6/Drivers/STM32N6xx_HAL_Driver/Src/stm32n6xx_hal_rif.c ****   */
 198:../STM32Cube_FW_N6/Drivers/STM32N6xx_HAL_Driver/Src/stm32n6xx_hal_rif.c **** uint32_t HAL_RIF_RIMC_GetLock(void)
 199:../STM32Cube_FW_N6/Drivers/STM32N6xx_HAL_Driver/Src/stm32n6xx_hal_rif.c **** {
  64              		.loc 1 199 1 is_stmt 1 view -0
  65              		.cfi_startproc
  66              		@ args = 0, pretend = 0, frame = 0
  67              		@ frame_needed = 0, uses_anonymous_args = 0
  68              		@ link register save eliminated.
 200:../STM32Cube_FW_N6/Drivers/STM32N6xx_HAL_Driver/Src/stm32n6xx_hal_rif.c ****   uint32_t lock_status;
  69              		.loc 1 200 3 view .LVU6
 201:../STM32Cube_FW_N6/Drivers/STM32N6xx_HAL_Driver/Src/stm32n6xx_hal_rif.c **** 
 202:../STM32Cube_FW_N6/Drivers/STM32N6xx_HAL_Driver/Src/stm32n6xx_hal_rif.c ****   /* Read RIMC lock bit */
 203:../STM32Cube_FW_N6/Drivers/STM32N6xx_HAL_Driver/Src/stm32n6xx_hal_rif.c ****   lock_status = (RIFSC->RIMC_CR & RIF_LOCK_ENABLE);
  70              		.loc 1 203 3 view .LVU7
  71              		.loc 1 203 23 is_stmt 0 view .LVU8
  72 0000 024B     		ldr	r3, .L5
  73 0002 D3F8000C 		ldr	r0, [r3, #3072]
  74              	.LVL0:
 204:../STM32Cube_FW_N6/Drivers/STM32N6xx_HAL_Driver/Src/stm32n6xx_hal_rif.c **** 
 205:../STM32Cube_FW_N6/Drivers/STM32N6xx_HAL_Driver/Src/stm32n6xx_hal_rif.c ****   return lock_status;
  75              		.loc 1 205 3 is_stmt 1 view .LVU9
 206:../STM32Cube_FW_N6/Drivers/STM32N6xx_HAL_Driver/Src/stm32n6xx_hal_rif.c **** }
  76              		.loc 1 206 1 is_stmt 0 view .LVU10
  77 0006 00F00100 		and	r0, r0, #1
  78              	.LVL1:
  79              		.loc 1 206 1 view .LVU11
  80 000a 7047     		bx	lr
  81              	.L6:
  82              		.align	2
ARM GAS  /tmp/ccHKmbxS.s 			page 6


  83              	.L5:
  84 000c 00400254 		.word	1409433600
  85              		.cfi_endproc
  86              	.LFE882:
  88              		.section	.rodata.HAL_RIF_RIMC_SetDebugAccessPortCID.str1.1,"aMS",%progbits,1
  89              	.LC0:
  90 0000 2E2E2F53 		.ascii	"../STM32Cube_FW_N6/Drivers/STM32N6xx_HAL_Driver/Src"
  90      544D3332 
  90      43756265 
  90      5F46575F 
  90      4E362F44 
  91 0033 2F73746D 		.ascii	"/stm32n6xx_hal_rif.c\000"
  91      33326E36 
  91      78785F68 
  91      616C5F72 
  91      69662E63 
  92              		.section	.text.HAL_RIF_RIMC_SetDebugAccessPortCID,"ax",%progbits
  93              		.align	1
  94              		.global	HAL_RIF_RIMC_SetDebugAccessPortCID
  95              		.syntax unified
  96              		.thumb
  97              		.thumb_func
  99              	HAL_RIF_RIMC_SetDebugAccessPortCID:
 100              	.LVL2:
 101              	.LFB883:
 207:../STM32Cube_FW_N6/Drivers/STM32N6xx_HAL_Driver/Src/stm32n6xx_hal_rif.c **** 
 208:../STM32Cube_FW_N6/Drivers/STM32N6xx_HAL_Driver/Src/stm32n6xx_hal_rif.c **** #if defined(CPU_AS_TRUSTED_DOMAIN) && defined(CPU_IN_SECURE_STATE)
 209:../STM32Cube_FW_N6/Drivers/STM32N6xx_HAL_Driver/Src/stm32n6xx_hal_rif.c **** /**
 210:../STM32Cube_FW_N6/Drivers/STM32N6xx_HAL_Driver/Src/stm32n6xx_hal_rif.c ****   * @brief  Change the Debugger Access Port ID
 211:../STM32Cube_FW_N6/Drivers/STM32N6xx_HAL_Driver/Src/stm32n6xx_hal_rif.c ****   * @note   This API is protected by the Trusted Domain compilation directive.
 212:../STM32Cube_FW_N6/Drivers/STM32N6xx_HAL_Driver/Src/stm32n6xx_hal_rif.c ****   * @note   This API is protected by the TrustZone Enabled compilation directive.
 213:../STM32Cube_FW_N6/Drivers/STM32N6xx_HAL_Driver/Src/stm32n6xx_hal_rif.c ****   * @param  CID  specifies the Debugger Access Port CID
 214:../STM32Cube_FW_N6/Drivers/STM32N6xx_HAL_Driver/Src/stm32n6xx_hal_rif.c ****   *         This parameter can be a combination of following values:
 215:../STM32Cube_FW_N6/Drivers/STM32N6xx_HAL_Driver/Src/stm32n6xx_hal_rif.c ****   *           @arg @ref RIF_CID_0    Compartment 0 ID selected as Debug access port ID
 216:../STM32Cube_FW_N6/Drivers/STM32N6xx_HAL_Driver/Src/stm32n6xx_hal_rif.c ****   *           @arg @ref RIF_CID_1    Compartment 1 ID selected as Debug access port ID
 217:../STM32Cube_FW_N6/Drivers/STM32N6xx_HAL_Driver/Src/stm32n6xx_hal_rif.c ****   *           @arg @ref RIF_CID_2    Compartment 2 ID selected as Debug access port ID
 218:../STM32Cube_FW_N6/Drivers/STM32N6xx_HAL_Driver/Src/stm32n6xx_hal_rif.c ****   *           @arg @ref RIF_CID_3    Compartment 3 ID selected as Debug access port ID
 219:../STM32Cube_FW_N6/Drivers/STM32N6xx_HAL_Driver/Src/stm32n6xx_hal_rif.c ****   *           @arg @ref RIF_CID_4    Compartment 4 ID selected as Debug access port ID
 220:../STM32Cube_FW_N6/Drivers/STM32N6xx_HAL_Driver/Src/stm32n6xx_hal_rif.c ****   *           @arg @ref RIF_CID_5    Compartment 5 ID selected as Debug access port ID
 221:../STM32Cube_FW_N6/Drivers/STM32N6xx_HAL_Driver/Src/stm32n6xx_hal_rif.c ****   *           @arg @ref RIF_CID_6    Compartment 6 ID selected as Debug access port ID
 222:../STM32Cube_FW_N6/Drivers/STM32N6xx_HAL_Driver/Src/stm32n6xx_hal_rif.c ****   *           @arg @ref RIF_CID_7    Compartment 7 ID selected as Debug access port ID
 223:../STM32Cube_FW_N6/Drivers/STM32N6xx_HAL_Driver/Src/stm32n6xx_hal_rif.c ****   * @retval None
 224:../STM32Cube_FW_N6/Drivers/STM32N6xx_HAL_Driver/Src/stm32n6xx_hal_rif.c ****   */
 225:../STM32Cube_FW_N6/Drivers/STM32N6xx_HAL_Driver/Src/stm32n6xx_hal_rif.c **** void HAL_RIF_RIMC_SetDebugAccessPortCID(uint32_t CID)
 226:../STM32Cube_FW_N6/Drivers/STM32N6xx_HAL_Driver/Src/stm32n6xx_hal_rif.c **** {
 102              		.loc 1 226 1 is_stmt 1 view -0
 103              		.cfi_startproc
 104              		@ args = 0, pretend = 0, frame = 0
 105              		@ frame_needed = 0, uses_anonymous_args = 0
 227:../STM32Cube_FW_N6/Drivers/STM32N6xx_HAL_Driver/Src/stm32n6xx_hal_rif.c ****   uint32_t dap_cid;
 106              		.loc 1 227 3 view .LVU13
 228:../STM32Cube_FW_N6/Drivers/STM32N6xx_HAL_Driver/Src/stm32n6xx_hal_rif.c ****   uint32_t rimc_cr_reg;
 107              		.loc 1 228 3 view .LVU14
 229:../STM32Cube_FW_N6/Drivers/STM32N6xx_HAL_Driver/Src/stm32n6xx_hal_rif.c **** 
 230:../STM32Cube_FW_N6/Drivers/STM32N6xx_HAL_Driver/Src/stm32n6xx_hal_rif.c ****   /* Check the parameter */
 231:../STM32Cube_FW_N6/Drivers/STM32N6xx_HAL_Driver/Src/stm32n6xx_hal_rif.c ****   assert_param(IS_RIF_SINGLE_CID(CID));
 108              		.loc 1 231 3 view .LVU15
ARM GAS  /tmp/ccHKmbxS.s 			page 7


 109 0000 2028     		cmp	r0, #32
 226:../STM32Cube_FW_N6/Drivers/STM32N6xx_HAL_Driver/Src/stm32n6xx_hal_rif.c ****   uint32_t dap_cid;
 110              		.loc 1 226 1 is_stmt 0 view .LVU16
 111 0002 10B5     		push	{r4, lr}
 112              		.cfi_def_cfa_offset 8
 113              		.cfi_offset 4, -8
 114              		.cfi_offset 14, -4
 226:../STM32Cube_FW_N6/Drivers/STM32N6xx_HAL_Driver/Src/stm32n6xx_hal_rif.c ****   uint32_t dap_cid;
 115              		.loc 1 226 1 view .LVU17
 116 0004 0446     		mov	r4, r0
 117 0006 1CD8     		bhi	.L8
 118 0008 0328     		cmp	r0, #3
 119 000a 10D8     		bhi	.L9
 120 000c 431E     		subs	r3, r0, #1
 121 000e 012B     		cmp	r3, #1
 122 0010 12D8     		bhi	.L10
 123              	.LVL3:
 124              	.L11:
 232:../STM32Cube_FW_N6/Drivers/STM32N6xx_HAL_Driver/Src/stm32n6xx_hal_rif.c **** 
 233:../STM32Cube_FW_N6/Drivers/STM32N6xx_HAL_Driver/Src/stm32n6xx_hal_rif.c ****   /* Set Debug Access Port CID bits */
 234:../STM32Cube_FW_N6/Drivers/STM32N6xx_HAL_Driver/Src/stm32n6xx_hal_rif.c ****   dap_cid = POSITION_VAL(CID);
 125              		.loc 1 234 3 is_stmt 1 view .LVU18
 126              	.LBB18:
 127              	.LBI18:
 128              		.file 2 "../STM32Cube_FW_N6/Drivers/CMSIS/Include/cmsis_gcc.h"
   1:../STM32Cube_FW_N6/Drivers/CMSIS/Include/cmsis_gcc.h **** /**************************************************************************//**
   2:../STM32Cube_FW_N6/Drivers/CMSIS/Include/cmsis_gcc.h ****  * @file     cmsis_gcc.h
   3:../STM32Cube_FW_N6/Drivers/CMSIS/Include/cmsis_gcc.h ****  * @brief    CMSIS compiler GCC header file
   4:../STM32Cube_FW_N6/Drivers/CMSIS/Include/cmsis_gcc.h ****  * @version  V6.0.0
   5:../STM32Cube_FW_N6/Drivers/CMSIS/Include/cmsis_gcc.h ****  * @date     27. July 2024
   6:../STM32Cube_FW_N6/Drivers/CMSIS/Include/cmsis_gcc.h ****  ******************************************************************************/
   7:../STM32Cube_FW_N6/Drivers/CMSIS/Include/cmsis_gcc.h **** /*
   8:../STM32Cube_FW_N6/Drivers/CMSIS/Include/cmsis_gcc.h ****  * Copyright (c) 2009-2023 Arm Limited. All rights reserved.
   9:../STM32Cube_FW_N6/Drivers/CMSIS/Include/cmsis_gcc.h ****  *
  10:../STM32Cube_FW_N6/Drivers/CMSIS/Include/cmsis_gcc.h ****  * SPDX-License-Identifier: Apache-2.0
  11:../STM32Cube_FW_N6/Drivers/CMSIS/Include/cmsis_gcc.h ****  *
  12:../STM32Cube_FW_N6/Drivers/CMSIS/Include/cmsis_gcc.h ****  * Licensed under the Apache License, Version 2.0 (the License); you may
  13:../STM32Cube_FW_N6/Drivers/CMSIS/Include/cmsis_gcc.h ****  * not use this file except in compliance with the License.
  14:../STM32Cube_FW_N6/Drivers/CMSIS/Include/cmsis_gcc.h ****  * You may obtain a copy of the License at
  15:../STM32Cube_FW_N6/Drivers/CMSIS/Include/cmsis_gcc.h ****  *
  16:../STM32Cube_FW_N6/Drivers/CMSIS/Include/cmsis_gcc.h ****  * www.apache.org/licenses/LICENSE-2.0
  17:../STM32Cube_FW_N6/Drivers/CMSIS/Include/cmsis_gcc.h ****  *
  18:../STM32Cube_FW_N6/Drivers/CMSIS/Include/cmsis_gcc.h ****  * Unless required by applicable law or agreed to in writing, software
  19:../STM32Cube_FW_N6/Drivers/CMSIS/Include/cmsis_gcc.h ****  * distributed under the License is distributed on an AS IS BASIS, WITHOUT
  20:../STM32Cube_FW_N6/Drivers/CMSIS/Include/cmsis_gcc.h ****  * WARRANTIES OR CONDITIONS OF ANY KIND, either express or implied.
  21:../STM32Cube_FW_N6/Drivers/CMSIS/Include/cmsis_gcc.h ****  * See the License for the specific language governing permissions and
  22:../STM32Cube_FW_N6/Drivers/CMSIS/Include/cmsis_gcc.h ****  * limitations under the License.
  23:../STM32Cube_FW_N6/Drivers/CMSIS/Include/cmsis_gcc.h ****  */
  24:../STM32Cube_FW_N6/Drivers/CMSIS/Include/cmsis_gcc.h **** 
  25:../STM32Cube_FW_N6/Drivers/CMSIS/Include/cmsis_gcc.h **** #ifndef __CMSIS_GCC_H
  26:../STM32Cube_FW_N6/Drivers/CMSIS/Include/cmsis_gcc.h **** #define __CMSIS_GCC_H
  27:../STM32Cube_FW_N6/Drivers/CMSIS/Include/cmsis_gcc.h **** 
  28:../STM32Cube_FW_N6/Drivers/CMSIS/Include/cmsis_gcc.h **** #pragma GCC system_header   /* treat file as system include file */
  29:../STM32Cube_FW_N6/Drivers/CMSIS/Include/cmsis_gcc.h **** 
  30:../STM32Cube_FW_N6/Drivers/CMSIS/Include/cmsis_gcc.h **** #include <arm_acle.h>
  31:../STM32Cube_FW_N6/Drivers/CMSIS/Include/cmsis_gcc.h **** 
  32:../STM32Cube_FW_N6/Drivers/CMSIS/Include/cmsis_gcc.h **** /* Fallback for __has_builtin */
ARM GAS  /tmp/ccHKmbxS.s 			page 8


  33:../STM32Cube_FW_N6/Drivers/CMSIS/Include/cmsis_gcc.h **** #ifndef __has_builtin
  34:../STM32Cube_FW_N6/Drivers/CMSIS/Include/cmsis_gcc.h ****   #define __has_builtin(x) (0)
  35:../STM32Cube_FW_N6/Drivers/CMSIS/Include/cmsis_gcc.h **** #endif
  36:../STM32Cube_FW_N6/Drivers/CMSIS/Include/cmsis_gcc.h **** 
  37:../STM32Cube_FW_N6/Drivers/CMSIS/Include/cmsis_gcc.h **** /* CMSIS compiler specific defines */
  38:../STM32Cube_FW_N6/Drivers/CMSIS/Include/cmsis_gcc.h **** #ifndef   __ASM
  39:../STM32Cube_FW_N6/Drivers/CMSIS/Include/cmsis_gcc.h ****   #define __ASM                                  __asm
  40:../STM32Cube_FW_N6/Drivers/CMSIS/Include/cmsis_gcc.h **** #endif
  41:../STM32Cube_FW_N6/Drivers/CMSIS/Include/cmsis_gcc.h **** #ifndef   __INLINE
  42:../STM32Cube_FW_N6/Drivers/CMSIS/Include/cmsis_gcc.h ****   #define __INLINE                               inline
  43:../STM32Cube_FW_N6/Drivers/CMSIS/Include/cmsis_gcc.h **** #endif
  44:../STM32Cube_FW_N6/Drivers/CMSIS/Include/cmsis_gcc.h **** #ifndef   __STATIC_INLINE
  45:../STM32Cube_FW_N6/Drivers/CMSIS/Include/cmsis_gcc.h ****   #define __STATIC_INLINE                        static inline
  46:../STM32Cube_FW_N6/Drivers/CMSIS/Include/cmsis_gcc.h **** #endif
  47:../STM32Cube_FW_N6/Drivers/CMSIS/Include/cmsis_gcc.h **** #ifndef   __STATIC_FORCEINLINE
  48:../STM32Cube_FW_N6/Drivers/CMSIS/Include/cmsis_gcc.h ****   #define __STATIC_FORCEINLINE                   __attribute__((always_inline)) static inline
  49:../STM32Cube_FW_N6/Drivers/CMSIS/Include/cmsis_gcc.h **** #endif
  50:../STM32Cube_FW_N6/Drivers/CMSIS/Include/cmsis_gcc.h **** #ifndef   __NO_RETURN
  51:../STM32Cube_FW_N6/Drivers/CMSIS/Include/cmsis_gcc.h ****   #define __NO_RETURN                            __attribute__((__noreturn__))
  52:../STM32Cube_FW_N6/Drivers/CMSIS/Include/cmsis_gcc.h **** #endif
  53:../STM32Cube_FW_N6/Drivers/CMSIS/Include/cmsis_gcc.h **** #ifndef   CMSIS_DEPRECATED
  54:../STM32Cube_FW_N6/Drivers/CMSIS/Include/cmsis_gcc.h ****   #define CMSIS_DEPRECATED                       __attribute__((deprecated))
  55:../STM32Cube_FW_N6/Drivers/CMSIS/Include/cmsis_gcc.h **** #endif
  56:../STM32Cube_FW_N6/Drivers/CMSIS/Include/cmsis_gcc.h **** #ifndef   __USED
  57:../STM32Cube_FW_N6/Drivers/CMSIS/Include/cmsis_gcc.h ****   #define __USED                                 __attribute__((used))
  58:../STM32Cube_FW_N6/Drivers/CMSIS/Include/cmsis_gcc.h **** #endif
  59:../STM32Cube_FW_N6/Drivers/CMSIS/Include/cmsis_gcc.h **** #ifndef   __WEAK
  60:../STM32Cube_FW_N6/Drivers/CMSIS/Include/cmsis_gcc.h ****   #define __WEAK                                 __attribute__((weak))
  61:../STM32Cube_FW_N6/Drivers/CMSIS/Include/cmsis_gcc.h **** #endif
  62:../STM32Cube_FW_N6/Drivers/CMSIS/Include/cmsis_gcc.h **** #ifndef   __PACKED
  63:../STM32Cube_FW_N6/Drivers/CMSIS/Include/cmsis_gcc.h ****   #define __PACKED                               __attribute__((packed, aligned(1)))
  64:../STM32Cube_FW_N6/Drivers/CMSIS/Include/cmsis_gcc.h **** #endif
  65:../STM32Cube_FW_N6/Drivers/CMSIS/Include/cmsis_gcc.h **** #ifndef   __PACKED_STRUCT
  66:../STM32Cube_FW_N6/Drivers/CMSIS/Include/cmsis_gcc.h ****   #define __PACKED_STRUCT                        struct __attribute__((packed, aligned(1)))
  67:../STM32Cube_FW_N6/Drivers/CMSIS/Include/cmsis_gcc.h **** #endif
  68:../STM32Cube_FW_N6/Drivers/CMSIS/Include/cmsis_gcc.h **** #ifndef   __PACKED_UNION
  69:../STM32Cube_FW_N6/Drivers/CMSIS/Include/cmsis_gcc.h ****   #define __PACKED_UNION                         union __attribute__((packed, aligned(1)))
  70:../STM32Cube_FW_N6/Drivers/CMSIS/Include/cmsis_gcc.h **** #endif
  71:../STM32Cube_FW_N6/Drivers/CMSIS/Include/cmsis_gcc.h **** #ifndef   __UNALIGNED_UINT16_WRITE
  72:../STM32Cube_FW_N6/Drivers/CMSIS/Include/cmsis_gcc.h ****   #pragma GCC diagnostic push
  73:../STM32Cube_FW_N6/Drivers/CMSIS/Include/cmsis_gcc.h ****   #pragma GCC diagnostic ignored "-Wpacked"
  74:../STM32Cube_FW_N6/Drivers/CMSIS/Include/cmsis_gcc.h ****   #pragma GCC diagnostic ignored "-Wattributes"
  75:../STM32Cube_FW_N6/Drivers/CMSIS/Include/cmsis_gcc.h ****   __PACKED_STRUCT T_UINT16_WRITE { uint16_t v; };
  76:../STM32Cube_FW_N6/Drivers/CMSIS/Include/cmsis_gcc.h ****   #pragma GCC diagnostic pop
  77:../STM32Cube_FW_N6/Drivers/CMSIS/Include/cmsis_gcc.h ****   #define __UNALIGNED_UINT16_WRITE(addr, val)    (void)((((struct T_UINT16_WRITE *)(void *)(addr))-
  78:../STM32Cube_FW_N6/Drivers/CMSIS/Include/cmsis_gcc.h **** #endif
  79:../STM32Cube_FW_N6/Drivers/CMSIS/Include/cmsis_gcc.h **** #ifndef   __UNALIGNED_UINT16_READ
  80:../STM32Cube_FW_N6/Drivers/CMSIS/Include/cmsis_gcc.h ****   #pragma GCC diagnostic push
  81:../STM32Cube_FW_N6/Drivers/CMSIS/Include/cmsis_gcc.h ****   #pragma GCC diagnostic ignored "-Wpacked"
  82:../STM32Cube_FW_N6/Drivers/CMSIS/Include/cmsis_gcc.h ****   #pragma GCC diagnostic ignored "-Wattributes"
  83:../STM32Cube_FW_N6/Drivers/CMSIS/Include/cmsis_gcc.h ****   __PACKED_STRUCT T_UINT16_READ { uint16_t v; };
  84:../STM32Cube_FW_N6/Drivers/CMSIS/Include/cmsis_gcc.h ****   #pragma GCC diagnostic pop
  85:../STM32Cube_FW_N6/Drivers/CMSIS/Include/cmsis_gcc.h ****   #define __UNALIGNED_UINT16_READ(addr)          (((const struct T_UINT16_READ *)(const void *)(add
  86:../STM32Cube_FW_N6/Drivers/CMSIS/Include/cmsis_gcc.h **** #endif
  87:../STM32Cube_FW_N6/Drivers/CMSIS/Include/cmsis_gcc.h **** #ifndef   __UNALIGNED_UINT32_WRITE
  88:../STM32Cube_FW_N6/Drivers/CMSIS/Include/cmsis_gcc.h ****   #pragma GCC diagnostic push
  89:../STM32Cube_FW_N6/Drivers/CMSIS/Include/cmsis_gcc.h ****   #pragma GCC diagnostic ignored "-Wpacked"
ARM GAS  /tmp/ccHKmbxS.s 			page 9


  90:../STM32Cube_FW_N6/Drivers/CMSIS/Include/cmsis_gcc.h ****   #pragma GCC diagnostic ignored "-Wattributes"
  91:../STM32Cube_FW_N6/Drivers/CMSIS/Include/cmsis_gcc.h ****   __PACKED_STRUCT T_UINT32_WRITE { uint32_t v; };
  92:../STM32Cube_FW_N6/Drivers/CMSIS/Include/cmsis_gcc.h ****   #pragma GCC diagnostic pop
  93:../STM32Cube_FW_N6/Drivers/CMSIS/Include/cmsis_gcc.h ****   #define __UNALIGNED_UINT32_WRITE(addr, val)    (void)((((struct T_UINT32_WRITE *)(void *)(addr))-
  94:../STM32Cube_FW_N6/Drivers/CMSIS/Include/cmsis_gcc.h **** #endif
  95:../STM32Cube_FW_N6/Drivers/CMSIS/Include/cmsis_gcc.h **** #ifndef   __UNALIGNED_UINT32_READ
  96:../STM32Cube_FW_N6/Drivers/CMSIS/Include/cmsis_gcc.h ****   #pragma GCC diagnostic push
  97:../STM32Cube_FW_N6/Drivers/CMSIS/Include/cmsis_gcc.h ****   #pragma GCC diagnostic ignored "-Wpacked"
  98:../STM32Cube_FW_N6/Drivers/CMSIS/Include/cmsis_gcc.h ****   #pragma GCC diagnostic ignored "-Wattributes"
  99:../STM32Cube_FW_N6/Drivers/CMSIS/Include/cmsis_gcc.h ****   __PACKED_STRUCT T_UINT32_READ { uint32_t v; };
 100:../STM32Cube_FW_N6/Drivers/CMSIS/Include/cmsis_gcc.h ****   #pragma GCC diagnostic pop
 101:../STM32Cube_FW_N6/Drivers/CMSIS/Include/cmsis_gcc.h ****   #define __UNALIGNED_UINT32_READ(addr)          (((const struct T_UINT32_READ *)(const void *)(add
 102:../STM32Cube_FW_N6/Drivers/CMSIS/Include/cmsis_gcc.h **** #endif
 103:../STM32Cube_FW_N6/Drivers/CMSIS/Include/cmsis_gcc.h **** #ifndef   __ALIGNED
 104:../STM32Cube_FW_N6/Drivers/CMSIS/Include/cmsis_gcc.h ****   #define __ALIGNED(x)                           __attribute__((aligned(x)))
 105:../STM32Cube_FW_N6/Drivers/CMSIS/Include/cmsis_gcc.h **** #endif
 106:../STM32Cube_FW_N6/Drivers/CMSIS/Include/cmsis_gcc.h **** #ifndef   __RESTRICT
 107:../STM32Cube_FW_N6/Drivers/CMSIS/Include/cmsis_gcc.h ****   #define __RESTRICT                             __restrict
 108:../STM32Cube_FW_N6/Drivers/CMSIS/Include/cmsis_gcc.h **** #endif
 109:../STM32Cube_FW_N6/Drivers/CMSIS/Include/cmsis_gcc.h **** #ifndef   __COMPILER_BARRIER
 110:../STM32Cube_FW_N6/Drivers/CMSIS/Include/cmsis_gcc.h ****   #define __COMPILER_BARRIER()                   __ASM volatile("":::"memory")
 111:../STM32Cube_FW_N6/Drivers/CMSIS/Include/cmsis_gcc.h **** #endif
 112:../STM32Cube_FW_N6/Drivers/CMSIS/Include/cmsis_gcc.h **** #ifndef __NO_INIT
 113:../STM32Cube_FW_N6/Drivers/CMSIS/Include/cmsis_gcc.h ****   #define __NO_INIT                              __attribute__ ((section (".noinit")))
 114:../STM32Cube_FW_N6/Drivers/CMSIS/Include/cmsis_gcc.h **** #endif
 115:../STM32Cube_FW_N6/Drivers/CMSIS/Include/cmsis_gcc.h **** #ifndef __ALIAS
 116:../STM32Cube_FW_N6/Drivers/CMSIS/Include/cmsis_gcc.h ****   #define __ALIAS(x)                             __attribute__ ((alias(x)))
 117:../STM32Cube_FW_N6/Drivers/CMSIS/Include/cmsis_gcc.h **** #endif
 118:../STM32Cube_FW_N6/Drivers/CMSIS/Include/cmsis_gcc.h **** 
 119:../STM32Cube_FW_N6/Drivers/CMSIS/Include/cmsis_gcc.h **** /* ##########################  Core Instruction Access  ######################### */
 120:../STM32Cube_FW_N6/Drivers/CMSIS/Include/cmsis_gcc.h **** /** \defgroup CMSIS_Core_InstructionInterface CMSIS Core Instruction Interface
 121:../STM32Cube_FW_N6/Drivers/CMSIS/Include/cmsis_gcc.h ****   Access to dedicated instructions
 122:../STM32Cube_FW_N6/Drivers/CMSIS/Include/cmsis_gcc.h ****   @{
 123:../STM32Cube_FW_N6/Drivers/CMSIS/Include/cmsis_gcc.h **** */
 124:../STM32Cube_FW_N6/Drivers/CMSIS/Include/cmsis_gcc.h **** 
 125:../STM32Cube_FW_N6/Drivers/CMSIS/Include/cmsis_gcc.h **** /* Define macros for porting to both thumb1 and thumb2.
 126:../STM32Cube_FW_N6/Drivers/CMSIS/Include/cmsis_gcc.h ****  * For thumb1, use low register (r0-r7), specified by constraint "l"
 127:../STM32Cube_FW_N6/Drivers/CMSIS/Include/cmsis_gcc.h ****  * Otherwise, use general registers, specified by constraint "r" */
 128:../STM32Cube_FW_N6/Drivers/CMSIS/Include/cmsis_gcc.h **** #if defined (__thumb__) && !defined (__thumb2__)
 129:../STM32Cube_FW_N6/Drivers/CMSIS/Include/cmsis_gcc.h **** #define __CMSIS_GCC_OUT_REG(r) "=l" (r)
 130:../STM32Cube_FW_N6/Drivers/CMSIS/Include/cmsis_gcc.h **** #define __CMSIS_GCC_RW_REG(r) "+l" (r)
 131:../STM32Cube_FW_N6/Drivers/CMSIS/Include/cmsis_gcc.h **** #define __CMSIS_GCC_USE_REG(r) "l" (r)
 132:../STM32Cube_FW_N6/Drivers/CMSIS/Include/cmsis_gcc.h **** #else
 133:../STM32Cube_FW_N6/Drivers/CMSIS/Include/cmsis_gcc.h **** #define __CMSIS_GCC_OUT_REG(r) "=r" (r)
 134:../STM32Cube_FW_N6/Drivers/CMSIS/Include/cmsis_gcc.h **** #define __CMSIS_GCC_RW_REG(r) "+r" (r)
 135:../STM32Cube_FW_N6/Drivers/CMSIS/Include/cmsis_gcc.h **** #define __CMSIS_GCC_USE_REG(r) "r" (r)
 136:../STM32Cube_FW_N6/Drivers/CMSIS/Include/cmsis_gcc.h **** #endif
 137:../STM32Cube_FW_N6/Drivers/CMSIS/Include/cmsis_gcc.h **** 
 138:../STM32Cube_FW_N6/Drivers/CMSIS/Include/cmsis_gcc.h **** /**
 139:../STM32Cube_FW_N6/Drivers/CMSIS/Include/cmsis_gcc.h ****   \brief   No Operation
 140:../STM32Cube_FW_N6/Drivers/CMSIS/Include/cmsis_gcc.h ****   \details No Operation does nothing. This instruction can be used for code alignment purposes.
 141:../STM32Cube_FW_N6/Drivers/CMSIS/Include/cmsis_gcc.h ****  */
 142:../STM32Cube_FW_N6/Drivers/CMSIS/Include/cmsis_gcc.h **** #define __NOP()         __ASM volatile ("nop")
 143:../STM32Cube_FW_N6/Drivers/CMSIS/Include/cmsis_gcc.h **** 
 144:../STM32Cube_FW_N6/Drivers/CMSIS/Include/cmsis_gcc.h **** 
 145:../STM32Cube_FW_N6/Drivers/CMSIS/Include/cmsis_gcc.h **** /**
 146:../STM32Cube_FW_N6/Drivers/CMSIS/Include/cmsis_gcc.h ****   \brief   Wait For Interrupt
ARM GAS  /tmp/ccHKmbxS.s 			page 10


 147:../STM32Cube_FW_N6/Drivers/CMSIS/Include/cmsis_gcc.h ****   \details Wait For Interrupt is a hint instruction that suspends execution until one of a number o
 148:../STM32Cube_FW_N6/Drivers/CMSIS/Include/cmsis_gcc.h ****  */
 149:../STM32Cube_FW_N6/Drivers/CMSIS/Include/cmsis_gcc.h **** #define __WFI()         __ASM volatile ("wfi":::"memory")
 150:../STM32Cube_FW_N6/Drivers/CMSIS/Include/cmsis_gcc.h **** 
 151:../STM32Cube_FW_N6/Drivers/CMSIS/Include/cmsis_gcc.h **** 
 152:../STM32Cube_FW_N6/Drivers/CMSIS/Include/cmsis_gcc.h **** /**
 153:../STM32Cube_FW_N6/Drivers/CMSIS/Include/cmsis_gcc.h ****   \brief   Wait For Event
 154:../STM32Cube_FW_N6/Drivers/CMSIS/Include/cmsis_gcc.h ****   \details Wait For Event is a hint instruction that permits the processor to enter
 155:../STM32Cube_FW_N6/Drivers/CMSIS/Include/cmsis_gcc.h ****            a low-power state until one of a number of events occurs.
 156:../STM32Cube_FW_N6/Drivers/CMSIS/Include/cmsis_gcc.h ****  */
 157:../STM32Cube_FW_N6/Drivers/CMSIS/Include/cmsis_gcc.h **** #define __WFE()         __ASM volatile ("wfe":::"memory")
 158:../STM32Cube_FW_N6/Drivers/CMSIS/Include/cmsis_gcc.h **** 
 159:../STM32Cube_FW_N6/Drivers/CMSIS/Include/cmsis_gcc.h **** 
 160:../STM32Cube_FW_N6/Drivers/CMSIS/Include/cmsis_gcc.h **** /**
 161:../STM32Cube_FW_N6/Drivers/CMSIS/Include/cmsis_gcc.h ****   \brief   Send Event
 162:../STM32Cube_FW_N6/Drivers/CMSIS/Include/cmsis_gcc.h ****   \details Send Event is a hint instruction. It causes an event to be signaled to the CPU.
 163:../STM32Cube_FW_N6/Drivers/CMSIS/Include/cmsis_gcc.h ****  */
 164:../STM32Cube_FW_N6/Drivers/CMSIS/Include/cmsis_gcc.h **** #define __SEV()         __ASM volatile ("sev")
 165:../STM32Cube_FW_N6/Drivers/CMSIS/Include/cmsis_gcc.h **** 
 166:../STM32Cube_FW_N6/Drivers/CMSIS/Include/cmsis_gcc.h **** 
 167:../STM32Cube_FW_N6/Drivers/CMSIS/Include/cmsis_gcc.h **** /**
 168:../STM32Cube_FW_N6/Drivers/CMSIS/Include/cmsis_gcc.h ****   \brief   Instruction Synchronization Barrier
 169:../STM32Cube_FW_N6/Drivers/CMSIS/Include/cmsis_gcc.h ****   \details Instruction Synchronization Barrier flushes the pipeline in the processor,
 170:../STM32Cube_FW_N6/Drivers/CMSIS/Include/cmsis_gcc.h ****            so that all instructions following the ISB are fetched from cache or memory,
 171:../STM32Cube_FW_N6/Drivers/CMSIS/Include/cmsis_gcc.h ****            after the instruction has been completed.
 172:../STM32Cube_FW_N6/Drivers/CMSIS/Include/cmsis_gcc.h ****  */
 173:../STM32Cube_FW_N6/Drivers/CMSIS/Include/cmsis_gcc.h **** __STATIC_FORCEINLINE void __ISB(void)
 174:../STM32Cube_FW_N6/Drivers/CMSIS/Include/cmsis_gcc.h **** {
 175:../STM32Cube_FW_N6/Drivers/CMSIS/Include/cmsis_gcc.h ****   __ASM volatile ("isb 0xF":::"memory");
 176:../STM32Cube_FW_N6/Drivers/CMSIS/Include/cmsis_gcc.h **** }
 177:../STM32Cube_FW_N6/Drivers/CMSIS/Include/cmsis_gcc.h **** 
 178:../STM32Cube_FW_N6/Drivers/CMSIS/Include/cmsis_gcc.h **** 
 179:../STM32Cube_FW_N6/Drivers/CMSIS/Include/cmsis_gcc.h **** /**
 180:../STM32Cube_FW_N6/Drivers/CMSIS/Include/cmsis_gcc.h ****   \brief   Data Synchronization Barrier
 181:../STM32Cube_FW_N6/Drivers/CMSIS/Include/cmsis_gcc.h ****   \details Acts as a special kind of Data Memory Barrier.
 182:../STM32Cube_FW_N6/Drivers/CMSIS/Include/cmsis_gcc.h ****            It completes when all explicit memory accesses before this instruction complete.
 183:../STM32Cube_FW_N6/Drivers/CMSIS/Include/cmsis_gcc.h ****  */
 184:../STM32Cube_FW_N6/Drivers/CMSIS/Include/cmsis_gcc.h **** __STATIC_FORCEINLINE void __DSB(void)
 185:../STM32Cube_FW_N6/Drivers/CMSIS/Include/cmsis_gcc.h **** {
 186:../STM32Cube_FW_N6/Drivers/CMSIS/Include/cmsis_gcc.h ****   __ASM volatile ("dsb 0xF":::"memory");
 187:../STM32Cube_FW_N6/Drivers/CMSIS/Include/cmsis_gcc.h **** }
 188:../STM32Cube_FW_N6/Drivers/CMSIS/Include/cmsis_gcc.h **** 
 189:../STM32Cube_FW_N6/Drivers/CMSIS/Include/cmsis_gcc.h **** 
 190:../STM32Cube_FW_N6/Drivers/CMSIS/Include/cmsis_gcc.h **** /**
 191:../STM32Cube_FW_N6/Drivers/CMSIS/Include/cmsis_gcc.h ****   \brief   Data Memory Barrier
 192:../STM32Cube_FW_N6/Drivers/CMSIS/Include/cmsis_gcc.h ****   \details Ensures the apparent order of the explicit memory operations before
 193:../STM32Cube_FW_N6/Drivers/CMSIS/Include/cmsis_gcc.h ****            and after the instruction, without ensuring their completion.
 194:../STM32Cube_FW_N6/Drivers/CMSIS/Include/cmsis_gcc.h ****  */
 195:../STM32Cube_FW_N6/Drivers/CMSIS/Include/cmsis_gcc.h **** __STATIC_FORCEINLINE void __DMB(void)
 196:../STM32Cube_FW_N6/Drivers/CMSIS/Include/cmsis_gcc.h **** {
 197:../STM32Cube_FW_N6/Drivers/CMSIS/Include/cmsis_gcc.h ****   __ASM volatile ("dmb 0xF":::"memory");
 198:../STM32Cube_FW_N6/Drivers/CMSIS/Include/cmsis_gcc.h **** }
 199:../STM32Cube_FW_N6/Drivers/CMSIS/Include/cmsis_gcc.h **** 
 200:../STM32Cube_FW_N6/Drivers/CMSIS/Include/cmsis_gcc.h **** 
 201:../STM32Cube_FW_N6/Drivers/CMSIS/Include/cmsis_gcc.h **** /**
 202:../STM32Cube_FW_N6/Drivers/CMSIS/Include/cmsis_gcc.h ****   \brief   Reverse byte order (32 bit)
 203:../STM32Cube_FW_N6/Drivers/CMSIS/Include/cmsis_gcc.h ****   \details Reverses the byte order in unsigned integer value. For example, 0x12345678 becomes 0x785
ARM GAS  /tmp/ccHKmbxS.s 			page 11


 204:../STM32Cube_FW_N6/Drivers/CMSIS/Include/cmsis_gcc.h ****   \param [in]    value  Value to reverse
 205:../STM32Cube_FW_N6/Drivers/CMSIS/Include/cmsis_gcc.h ****   \return               Reversed value
 206:../STM32Cube_FW_N6/Drivers/CMSIS/Include/cmsis_gcc.h ****  */
 207:../STM32Cube_FW_N6/Drivers/CMSIS/Include/cmsis_gcc.h **** __STATIC_FORCEINLINE uint32_t __REV(uint32_t value)
 208:../STM32Cube_FW_N6/Drivers/CMSIS/Include/cmsis_gcc.h **** {
 209:../STM32Cube_FW_N6/Drivers/CMSIS/Include/cmsis_gcc.h ****   return __builtin_bswap32(value);
 210:../STM32Cube_FW_N6/Drivers/CMSIS/Include/cmsis_gcc.h **** }
 211:../STM32Cube_FW_N6/Drivers/CMSIS/Include/cmsis_gcc.h **** 
 212:../STM32Cube_FW_N6/Drivers/CMSIS/Include/cmsis_gcc.h **** 
 213:../STM32Cube_FW_N6/Drivers/CMSIS/Include/cmsis_gcc.h **** /**
 214:../STM32Cube_FW_N6/Drivers/CMSIS/Include/cmsis_gcc.h ****   \brief   Reverse byte order (16 bit)
 215:../STM32Cube_FW_N6/Drivers/CMSIS/Include/cmsis_gcc.h ****   \details Reverses the byte order within each halfword of a word. For example, 0x12345678 becomes 
 216:../STM32Cube_FW_N6/Drivers/CMSIS/Include/cmsis_gcc.h ****   \param [in]    value  Value to reverse
 217:../STM32Cube_FW_N6/Drivers/CMSIS/Include/cmsis_gcc.h ****   \return               Reversed value
 218:../STM32Cube_FW_N6/Drivers/CMSIS/Include/cmsis_gcc.h ****  */
 219:../STM32Cube_FW_N6/Drivers/CMSIS/Include/cmsis_gcc.h **** __STATIC_FORCEINLINE uint32_t __REV16(uint32_t value)
 220:../STM32Cube_FW_N6/Drivers/CMSIS/Include/cmsis_gcc.h **** {
 221:../STM32Cube_FW_N6/Drivers/CMSIS/Include/cmsis_gcc.h ****   uint32_t result;
 222:../STM32Cube_FW_N6/Drivers/CMSIS/Include/cmsis_gcc.h **** 
 223:../STM32Cube_FW_N6/Drivers/CMSIS/Include/cmsis_gcc.h ****   __ASM ("rev16 %0, %1" : __CMSIS_GCC_OUT_REG (result) : __CMSIS_GCC_USE_REG (value) );
 224:../STM32Cube_FW_N6/Drivers/CMSIS/Include/cmsis_gcc.h ****   return (result);
 225:../STM32Cube_FW_N6/Drivers/CMSIS/Include/cmsis_gcc.h **** }
 226:../STM32Cube_FW_N6/Drivers/CMSIS/Include/cmsis_gcc.h **** 
 227:../STM32Cube_FW_N6/Drivers/CMSIS/Include/cmsis_gcc.h **** 
 228:../STM32Cube_FW_N6/Drivers/CMSIS/Include/cmsis_gcc.h **** /**
 229:../STM32Cube_FW_N6/Drivers/CMSIS/Include/cmsis_gcc.h ****   \brief   Reverse byte order (16 bit)
 230:../STM32Cube_FW_N6/Drivers/CMSIS/Include/cmsis_gcc.h ****   \details Reverses the byte order in a 16-bit value and returns the signed 16-bit result. For exam
 231:../STM32Cube_FW_N6/Drivers/CMSIS/Include/cmsis_gcc.h ****   \param [in]    value  Value to reverse
 232:../STM32Cube_FW_N6/Drivers/CMSIS/Include/cmsis_gcc.h ****   \return               Reversed value
 233:../STM32Cube_FW_N6/Drivers/CMSIS/Include/cmsis_gcc.h ****  */
 234:../STM32Cube_FW_N6/Drivers/CMSIS/Include/cmsis_gcc.h **** __STATIC_FORCEINLINE int16_t __REVSH(int16_t value)
 235:../STM32Cube_FW_N6/Drivers/CMSIS/Include/cmsis_gcc.h **** {
 236:../STM32Cube_FW_N6/Drivers/CMSIS/Include/cmsis_gcc.h ****   return (int16_t)__builtin_bswap16(value);
 237:../STM32Cube_FW_N6/Drivers/CMSIS/Include/cmsis_gcc.h **** }
 238:../STM32Cube_FW_N6/Drivers/CMSIS/Include/cmsis_gcc.h **** 
 239:../STM32Cube_FW_N6/Drivers/CMSIS/Include/cmsis_gcc.h **** 
 240:../STM32Cube_FW_N6/Drivers/CMSIS/Include/cmsis_gcc.h **** /**
 241:../STM32Cube_FW_N6/Drivers/CMSIS/Include/cmsis_gcc.h ****   \brief   Rotate Right in unsigned value (32 bit)
 242:../STM32Cube_FW_N6/Drivers/CMSIS/Include/cmsis_gcc.h ****   \details Rotate Right (immediate) provides the value of the contents of a register rotated by a v
 243:../STM32Cube_FW_N6/Drivers/CMSIS/Include/cmsis_gcc.h ****   \param [in]    op1  Value to rotate
 244:../STM32Cube_FW_N6/Drivers/CMSIS/Include/cmsis_gcc.h ****   \param [in]    op2  Number of Bits to rotate
 245:../STM32Cube_FW_N6/Drivers/CMSIS/Include/cmsis_gcc.h ****   \return               Rotated value
 246:../STM32Cube_FW_N6/Drivers/CMSIS/Include/cmsis_gcc.h ****  */
 247:../STM32Cube_FW_N6/Drivers/CMSIS/Include/cmsis_gcc.h **** __STATIC_FORCEINLINE uint32_t __ROR(uint32_t op1, uint32_t op2)
 248:../STM32Cube_FW_N6/Drivers/CMSIS/Include/cmsis_gcc.h **** {
 249:../STM32Cube_FW_N6/Drivers/CMSIS/Include/cmsis_gcc.h ****   op2 %= 32U;
 250:../STM32Cube_FW_N6/Drivers/CMSIS/Include/cmsis_gcc.h ****   if (op2 == 0U)
 251:../STM32Cube_FW_N6/Drivers/CMSIS/Include/cmsis_gcc.h ****   {
 252:../STM32Cube_FW_N6/Drivers/CMSIS/Include/cmsis_gcc.h ****     return op1;
 253:../STM32Cube_FW_N6/Drivers/CMSIS/Include/cmsis_gcc.h ****   }
 254:../STM32Cube_FW_N6/Drivers/CMSIS/Include/cmsis_gcc.h ****   return (op1 >> op2) | (op1 << (32U - op2));
 255:../STM32Cube_FW_N6/Drivers/CMSIS/Include/cmsis_gcc.h **** }
 256:../STM32Cube_FW_N6/Drivers/CMSIS/Include/cmsis_gcc.h **** 
 257:../STM32Cube_FW_N6/Drivers/CMSIS/Include/cmsis_gcc.h **** 
 258:../STM32Cube_FW_N6/Drivers/CMSIS/Include/cmsis_gcc.h **** /**
 259:../STM32Cube_FW_N6/Drivers/CMSIS/Include/cmsis_gcc.h ****   \brief   Breakpoint
 260:../STM32Cube_FW_N6/Drivers/CMSIS/Include/cmsis_gcc.h ****   \details Causes the processor to enter Debug state.
ARM GAS  /tmp/ccHKmbxS.s 			page 12


 261:../STM32Cube_FW_N6/Drivers/CMSIS/Include/cmsis_gcc.h ****            Debug tools can use this to investigate system state when the instruction at a particula
 262:../STM32Cube_FW_N6/Drivers/CMSIS/Include/cmsis_gcc.h ****   \param [in]    value  is ignored by the processor.
 263:../STM32Cube_FW_N6/Drivers/CMSIS/Include/cmsis_gcc.h ****                  If required, a debugger can use it to store additional information about the break
 264:../STM32Cube_FW_N6/Drivers/CMSIS/Include/cmsis_gcc.h ****  */
 265:../STM32Cube_FW_N6/Drivers/CMSIS/Include/cmsis_gcc.h **** #define __BKPT(value) __ASM volatile ("bkpt "#value)
 266:../STM32Cube_FW_N6/Drivers/CMSIS/Include/cmsis_gcc.h **** 
 267:../STM32Cube_FW_N6/Drivers/CMSIS/Include/cmsis_gcc.h **** 
 268:../STM32Cube_FW_N6/Drivers/CMSIS/Include/cmsis_gcc.h **** /**
 269:../STM32Cube_FW_N6/Drivers/CMSIS/Include/cmsis_gcc.h ****   \brief   Reverse bit order of value
 270:../STM32Cube_FW_N6/Drivers/CMSIS/Include/cmsis_gcc.h ****   \details Reverses the bit order of the given value.
 271:../STM32Cube_FW_N6/Drivers/CMSIS/Include/cmsis_gcc.h ****   \param [in]    value  Value to reverse
 272:../STM32Cube_FW_N6/Drivers/CMSIS/Include/cmsis_gcc.h ****   \return               Reversed value
 273:../STM32Cube_FW_N6/Drivers/CMSIS/Include/cmsis_gcc.h ****  */
 274:../STM32Cube_FW_N6/Drivers/CMSIS/Include/cmsis_gcc.h **** __STATIC_FORCEINLINE uint32_t __RBIT(uint32_t value)
 129              		.loc 2 274 31 view .LVU19
 130              	.LBB19:
 275:../STM32Cube_FW_N6/Drivers/CMSIS/Include/cmsis_gcc.h **** {
 276:../STM32Cube_FW_N6/Drivers/CMSIS/Include/cmsis_gcc.h ****   uint32_t result;
 131              		.loc 2 276 3 view .LVU20
 277:../STM32Cube_FW_N6/Drivers/CMSIS/Include/cmsis_gcc.h **** 
 278:../STM32Cube_FW_N6/Drivers/CMSIS/Include/cmsis_gcc.h **** #if (__ARM_ARCH_ISA_THUMB >= 2)
 279:../STM32Cube_FW_N6/Drivers/CMSIS/Include/cmsis_gcc.h ****    __ASM ("rbit %0, %1" : "=r" (result) : "r" (value) );
 132              		.loc 2 279 4 view .LVU21
 133              		.syntax unified
 134              	@ 279 "../STM32Cube_FW_N6/Drivers/CMSIS/Include/cmsis_gcc.h" 1
 135 0012 94FAA4F4 		rbit r4, r4
 136              	@ 0 "" 2
 137              	.LVL4:
 280:../STM32Cube_FW_N6/Drivers/CMSIS/Include/cmsis_gcc.h **** #else
 281:../STM32Cube_FW_N6/Drivers/CMSIS/Include/cmsis_gcc.h ****   uint32_t s = (4U /*sizeof(v)*/ * 8U) - 1U; /* extra shift needed at end */
 282:../STM32Cube_FW_N6/Drivers/CMSIS/Include/cmsis_gcc.h **** 
 283:../STM32Cube_FW_N6/Drivers/CMSIS/Include/cmsis_gcc.h ****   result = value;                      /* r will be reversed bits of v; first get LSB of v */
 284:../STM32Cube_FW_N6/Drivers/CMSIS/Include/cmsis_gcc.h ****   for (value >>= 1U; value != 0U; value >>= 1U)
 285:../STM32Cube_FW_N6/Drivers/CMSIS/Include/cmsis_gcc.h ****   {
 286:../STM32Cube_FW_N6/Drivers/CMSIS/Include/cmsis_gcc.h ****     result <<= 1U;
 287:../STM32Cube_FW_N6/Drivers/CMSIS/Include/cmsis_gcc.h ****     result |= value & 1U;
 288:../STM32Cube_FW_N6/Drivers/CMSIS/Include/cmsis_gcc.h ****     s--;
 289:../STM32Cube_FW_N6/Drivers/CMSIS/Include/cmsis_gcc.h ****   }
 290:../STM32Cube_FW_N6/Drivers/CMSIS/Include/cmsis_gcc.h ****   result <<= s;                        /* shift when v's highest bits are zero */
 291:../STM32Cube_FW_N6/Drivers/CMSIS/Include/cmsis_gcc.h **** #endif
 292:../STM32Cube_FW_N6/Drivers/CMSIS/Include/cmsis_gcc.h ****   return (result);
 138              		.loc 2 292 3 view .LVU22
 139              		.loc 2 292 3 is_stmt 0 view .LVU23
 140              		.thumb
 141              		.syntax unified
 142              	.LBE19:
 143              	.LBE18:
 144              	.LBB20:
 145              	.LBI20:
 293:../STM32Cube_FW_N6/Drivers/CMSIS/Include/cmsis_gcc.h **** }
 294:../STM32Cube_FW_N6/Drivers/CMSIS/Include/cmsis_gcc.h **** 
 295:../STM32Cube_FW_N6/Drivers/CMSIS/Include/cmsis_gcc.h **** 
 296:../STM32Cube_FW_N6/Drivers/CMSIS/Include/cmsis_gcc.h **** /**
 297:../STM32Cube_FW_N6/Drivers/CMSIS/Include/cmsis_gcc.h ****   \brief   Count leading zeros
 298:../STM32Cube_FW_N6/Drivers/CMSIS/Include/cmsis_gcc.h ****   \details Counts the number of leading zeros of a data value.
 299:../STM32Cube_FW_N6/Drivers/CMSIS/Include/cmsis_gcc.h ****   \param [in]  value  Value to count the leading zeros
 300:../STM32Cube_FW_N6/Drivers/CMSIS/Include/cmsis_gcc.h ****   \return             number of leading zeros in value
ARM GAS  /tmp/ccHKmbxS.s 			page 13


 301:../STM32Cube_FW_N6/Drivers/CMSIS/Include/cmsis_gcc.h ****  */
 302:../STM32Cube_FW_N6/Drivers/CMSIS/Include/cmsis_gcc.h **** __STATIC_FORCEINLINE uint8_t __CLZ(uint32_t value)
 146              		.loc 2 302 30 is_stmt 1 view .LVU24
 147              	.LBB21:
 303:../STM32Cube_FW_N6/Drivers/CMSIS/Include/cmsis_gcc.h **** {
 304:../STM32Cube_FW_N6/Drivers/CMSIS/Include/cmsis_gcc.h ****   /* Even though __builtin_clz produces a CLZ instruction on ARM, formally
 305:../STM32Cube_FW_N6/Drivers/CMSIS/Include/cmsis_gcc.h ****      __builtin_clz(0) is undefined behaviour, so handle this case specially.
 306:../STM32Cube_FW_N6/Drivers/CMSIS/Include/cmsis_gcc.h ****      This guarantees ARM-compatible results if happening to compile on a non-ARM
 307:../STM32Cube_FW_N6/Drivers/CMSIS/Include/cmsis_gcc.h ****      target, and ensures the compiler doesn't decide to activate any
 308:../STM32Cube_FW_N6/Drivers/CMSIS/Include/cmsis_gcc.h ****      optimisations using the logic "value was passed to __builtin_clz, so it
 309:../STM32Cube_FW_N6/Drivers/CMSIS/Include/cmsis_gcc.h ****      is non-zero".
 310:../STM32Cube_FW_N6/Drivers/CMSIS/Include/cmsis_gcc.h ****      ARM GCC 7.3 and possibly earlier will optimise this test away, leaving a
 311:../STM32Cube_FW_N6/Drivers/CMSIS/Include/cmsis_gcc.h ****      single CLZ instruction.
 312:../STM32Cube_FW_N6/Drivers/CMSIS/Include/cmsis_gcc.h ****    */
 313:../STM32Cube_FW_N6/Drivers/CMSIS/Include/cmsis_gcc.h ****   if (value == 0U)
 148              		.loc 2 313 3 view .LVU25
 314:../STM32Cube_FW_N6/Drivers/CMSIS/Include/cmsis_gcc.h ****   {
 315:../STM32Cube_FW_N6/Drivers/CMSIS/Include/cmsis_gcc.h ****     return 32U;
 316:../STM32Cube_FW_N6/Drivers/CMSIS/Include/cmsis_gcc.h ****   }
 317:../STM32Cube_FW_N6/Drivers/CMSIS/Include/cmsis_gcc.h ****   return __builtin_clz(value);
 149              		.loc 2 317 10 is_stmt 0 discriminator 1 view .LVU26
 150 0016 B4FA84F4 		clz	r4, r4
 151              	.LVL5:
 152              		.loc 2 317 10 discriminator 1 view .LVU27
 153              	.LBE21:
 154              	.LBE20:
 235:../STM32Cube_FW_N6/Drivers/STM32N6xx_HAL_Driver/Src/stm32n6xx_hal_rif.c ****   rimc_cr_reg = RIFSC->RIMC_CR;
 155              		.loc 1 235 3 is_stmt 1 view .LVU28
 156              		.loc 1 235 15 is_stmt 0 view .LVU29
 157 001a 0C4A     		ldr	r2, .L20
 158 001c D2F8003C 		ldr	r3, [r2, #3072]
 159              	.LVL6:
 236:../STM32Cube_FW_N6/Drivers/STM32N6xx_HAL_Driver/Src/stm32n6xx_hal_rif.c ****   rimc_cr_reg &= (~RIFSC_RIMC_CR_DAPCID);
 160              		.loc 1 236 3 is_stmt 1 view .LVU30
 161              		.loc 1 236 15 is_stmt 0 view .LVU31
 162 0020 23F4E063 		bic	r3, r3, #1792
 163              	.LVL7:
 237:../STM32Cube_FW_N6/Drivers/STM32N6xx_HAL_Driver/Src/stm32n6xx_hal_rif.c ****   rimc_cr_reg |= (dap_cid << RIFSC_RIMC_CR_DAPCID_Pos);
 164              		.loc 1 237 3 is_stmt 1 view .LVU32
 165              		.loc 1 237 15 is_stmt 0 view .LVU33
 166 0024 43EA0423 		orr	r3, r3, r4, lsl #8
 167              	.LVL8:
 238:../STM32Cube_FW_N6/Drivers/STM32N6xx_HAL_Driver/Src/stm32n6xx_hal_rif.c ****   RIFSC->RIMC_CR = rimc_cr_reg;
 168              		.loc 1 238 3 is_stmt 1 view .LVU34
 169              		.loc 1 238 18 is_stmt 0 view .LVU35
 170 0028 C2F8003C 		str	r3, [r2, #3072]
 239:../STM32Cube_FW_N6/Drivers/STM32N6xx_HAL_Driver/Src/stm32n6xx_hal_rif.c **** }
 171              		.loc 1 239 1 view .LVU36
 172 002c 10BD     		pop	{r4, pc}
 173              	.LVL9:
 174              	.L9:
 175              		.loc 1 239 1 view .LVU37
 176 002e 084B     		ldr	r3, .L20+4
 177 0030 021F     		subs	r2, r0, #4
 178 0032 D340     		lsrs	r3, r3, r2
 179 0034 DB07     		lsls	r3, r3, #31
 180 0036 ECD4     		bmi	.L11
ARM GAS  /tmp/ccHKmbxS.s 			page 14


 181              	.L10:
 231:../STM32Cube_FW_N6/Drivers/STM32N6xx_HAL_Driver/Src/stm32n6xx_hal_rif.c **** 
 182              		.loc 1 231 3 discriminator 7 view .LVU38
 183 0038 E721     		movs	r1, #231
 184 003a 0648     		ldr	r0, .L20+8
 185              	.LVL10:
 231:../STM32Cube_FW_N6/Drivers/STM32N6xx_HAL_Driver/Src/stm32n6xx_hal_rif.c **** 
 186              		.loc 1 231 3 discriminator 7 view .LVU39
 187 003c FFF7FEFF 		bl	assert_failed
 188              	.LVL11:
 189 0040 E7E7     		b	.L11
 190              	.LVL12:
 191              	.L8:
 231:../STM32Cube_FW_N6/Drivers/STM32N6xx_HAL_Driver/Src/stm32n6xx_hal_rif.c **** 
 192              		.loc 1 231 3 discriminator 7 view .LVU40
 193 0042 4028     		cmp	r0, #64
 194 0044 E5D0     		beq	.L11
 195 0046 8028     		cmp	r0, #128
 196 0048 F6D1     		bne	.L10
 197 004a E2E7     		b	.L11
 198              	.L21:
 199              		.align	2
 200              	.L20:
 201 004c 00400254 		.word	1409433600
 202 0050 11100010 		.word	268439569
 203 0054 00000000 		.word	.LC0
 204              		.cfi_endproc
 205              	.LFE883:
 207              		.section	.text.HAL_RIF_RIMC_GetDebugAccessPortCID,"ax",%progbits
 208              		.align	1
 209              		.global	HAL_RIF_RIMC_GetDebugAccessPortCID
 210              		.syntax unified
 211              		.thumb
 212              		.thumb_func
 214              	HAL_RIF_RIMC_GetDebugAccessPortCID:
 215              	.LFB884:
 240:../STM32Cube_FW_N6/Drivers/STM32N6xx_HAL_Driver/Src/stm32n6xx_hal_rif.c **** #endif /* defined(CPU_AS_TRUSTED_DOMAIN) && defined(CPU_IN_SECURE_STATE) */
 241:../STM32Cube_FW_N6/Drivers/STM32N6xx_HAL_Driver/Src/stm32n6xx_hal_rif.c **** 
 242:../STM32Cube_FW_N6/Drivers/STM32N6xx_HAL_Driver/Src/stm32n6xx_hal_rif.c **** /**
 243:../STM32Cube_FW_N6/Drivers/STM32N6xx_HAL_Driver/Src/stm32n6xx_hal_rif.c ****   * @brief  Get the Debugger Access Port ID
 244:../STM32Cube_FW_N6/Drivers/STM32N6xx_HAL_Driver/Src/stm32n6xx_hal_rif.c ****   * @retval Debugger Access Port ID
 245:../STM32Cube_FW_N6/Drivers/STM32N6xx_HAL_Driver/Src/stm32n6xx_hal_rif.c ****   */
 246:../STM32Cube_FW_N6/Drivers/STM32N6xx_HAL_Driver/Src/stm32n6xx_hal_rif.c **** uint32_t HAL_RIF_RIMC_GetDebugAccessPortCID(void)
 247:../STM32Cube_FW_N6/Drivers/STM32N6xx_HAL_Driver/Src/stm32n6xx_hal_rif.c **** {
 216              		.loc 1 247 1 is_stmt 1 view -0
 217              		.cfi_startproc
 218              		@ args = 0, pretend = 0, frame = 0
 219              		@ frame_needed = 0, uses_anonymous_args = 0
 220              		@ link register save eliminated.
 248:../STM32Cube_FW_N6/Drivers/STM32N6xx_HAL_Driver/Src/stm32n6xx_hal_rif.c ****   uint32_t dap_cid;
 221              		.loc 1 248 3 view .LVU42
 249:../STM32Cube_FW_N6/Drivers/STM32N6xx_HAL_Driver/Src/stm32n6xx_hal_rif.c **** 
 250:../STM32Cube_FW_N6/Drivers/STM32N6xx_HAL_Driver/Src/stm32n6xx_hal_rif.c ****   /* Read Debug Access Port CID bits */
 251:../STM32Cube_FW_N6/Drivers/STM32N6xx_HAL_Driver/Src/stm32n6xx_hal_rif.c ****   dap_cid = (RIFSC->RIMC_CR & RIFSC_RIMC_CR_DAPCID) >> RIFSC_RIMC_CR_DAPCID_Pos;
 222              		.loc 1 251 3 view .LVU43
 252:../STM32Cube_FW_N6/Drivers/STM32N6xx_HAL_Driver/Src/stm32n6xx_hal_rif.c ****   dap_cid = (1UL << dap_cid);
 253:../STM32Cube_FW_N6/Drivers/STM32N6xx_HAL_Driver/Src/stm32n6xx_hal_rif.c ****   return dap_cid;
ARM GAS  /tmp/ccHKmbxS.s 			page 15


 254:../STM32Cube_FW_N6/Drivers/STM32N6xx_HAL_Driver/Src/stm32n6xx_hal_rif.c **** }
 223              		.loc 1 254 1 is_stmt 0 view .LVU44
 224 0000 0120     		movs	r0, #1
 251:../STM32Cube_FW_N6/Drivers/STM32N6xx_HAL_Driver/Src/stm32n6xx_hal_rif.c ****   dap_cid = (1UL << dap_cid);
 225              		.loc 1 251 19 view .LVU45
 226 0002 034B     		ldr	r3, .L23
 227 0004 D3F8003C 		ldr	r3, [r3, #3072]
 251:../STM32Cube_FW_N6/Drivers/STM32N6xx_HAL_Driver/Src/stm32n6xx_hal_rif.c ****   dap_cid = (1UL << dap_cid);
 228              		.loc 1 251 11 view .LVU46
 229 0008 C3F30223 		ubfx	r3, r3, #8, #3
 230              	.LVL13:
 252:../STM32Cube_FW_N6/Drivers/STM32N6xx_HAL_Driver/Src/stm32n6xx_hal_rif.c ****   dap_cid = (1UL << dap_cid);
 231              		.loc 1 252 3 is_stmt 1 view .LVU47
 253:../STM32Cube_FW_N6/Drivers/STM32N6xx_HAL_Driver/Src/stm32n6xx_hal_rif.c **** }
 232              		.loc 1 253 3 view .LVU48
 233              		.loc 1 254 1 is_stmt 0 view .LVU49
 234 000c 9840     		lsls	r0, r0, r3
 235              	.LVL14:
 236              		.loc 1 254 1 view .LVU50
 237 000e 7047     		bx	lr
 238              	.L24:
 239              		.align	2
 240              	.L23:
 241 0010 00400254 		.word	1409433600
 242              		.cfi_endproc
 243              	.LFE884:
 245              		.section	.text.HAL_RIF_RIMC_ConfigMasterAttributes,"ax",%progbits
 246              		.align	1
 247              		.global	HAL_RIF_RIMC_ConfigMasterAttributes
 248              		.syntax unified
 249              		.thumb
 250              		.thumb_func
 252              	HAL_RIF_RIMC_ConfigMasterAttributes:
 253              	.LVL15:
 254              	.LFB885:
 255:../STM32Cube_FW_N6/Drivers/STM32N6xx_HAL_Driver/Src/stm32n6xx_hal_rif.c **** 
 256:../STM32Cube_FW_N6/Drivers/STM32N6xx_HAL_Driver/Src/stm32n6xx_hal_rif.c **** #if defined(CPU_AS_TRUSTED_DOMAIN) && defined(CPU_IN_SECURE_STATE)
 257:../STM32Cube_FW_N6/Drivers/STM32N6xx_HAL_Driver/Src/stm32n6xx_hal_rif.c **** /**
 258:../STM32Cube_FW_N6/Drivers/STM32N6xx_HAL_Driver/Src/stm32n6xx_hal_rif.c ****   * @brief  Configure CID, Secure and Privilege attributes for the designated master.
 259:../STM32Cube_FW_N6/Drivers/STM32N6xx_HAL_Driver/Src/stm32n6xx_hal_rif.c ****   * @note   RIF_CID_7 is not an authorized value for the MasterCID field.
 260:../STM32Cube_FW_N6/Drivers/STM32N6xx_HAL_Driver/Src/stm32n6xx_hal_rif.c ****   * @note   This API is protected by the Trusted Domain compilation directive.
 261:../STM32Cube_FW_N6/Drivers/STM32N6xx_HAL_Driver/Src/stm32n6xx_hal_rif.c ****   * @note   This API is protected by the TrustZone Enabled compilation directive.
 262:../STM32Cube_FW_N6/Drivers/STM32N6xx_HAL_Driver/Src/stm32n6xx_hal_rif.c ****   * @param  MasterId specifies the index of the bus master.
 263:../STM32Cube_FW_N6/Drivers/STM32N6xx_HAL_Driver/Src/stm32n6xx_hal_rif.c ****   *         This parameter can be one of @ref RIF_MASTER_INDEX
 264:../STM32Cube_FW_N6/Drivers/STM32N6xx_HAL_Driver/Src/stm32n6xx_hal_rif.c ****   * @param  pConfig Pointer on Master Isolation configuration structure
 265:../STM32Cube_FW_N6/Drivers/STM32N6xx_HAL_Driver/Src/stm32n6xx_hal_rif.c ****   * @retval None
 266:../STM32Cube_FW_N6/Drivers/STM32N6xx_HAL_Driver/Src/stm32n6xx_hal_rif.c ****   */
 267:../STM32Cube_FW_N6/Drivers/STM32N6xx_HAL_Driver/Src/stm32n6xx_hal_rif.c **** void HAL_RIF_RIMC_ConfigMasterAttributes(uint32_t MasterId, const RIMC_MasterConfig_t *pConfig)
 268:../STM32Cube_FW_N6/Drivers/STM32N6xx_HAL_Driver/Src/stm32n6xx_hal_rif.c **** {
 255              		.loc 1 268 1 is_stmt 1 view -0
 256              		.cfi_startproc
 257              		@ args = 0, pretend = 0, frame = 0
 258              		@ frame_needed = 0, uses_anonymous_args = 0
 269:../STM32Cube_FW_N6/Drivers/STM32N6xx_HAL_Driver/Src/stm32n6xx_hal_rif.c ****   uint32_t master_cid;
 259              		.loc 1 269 3 view .LVU52
 270:../STM32Cube_FW_N6/Drivers/STM32N6xx_HAL_Driver/Src/stm32n6xx_hal_rif.c ****   uint32_t rimc_attr_val;
 260              		.loc 1 270 3 view .LVU53
ARM GAS  /tmp/ccHKmbxS.s 			page 16


 271:../STM32Cube_FW_N6/Drivers/STM32N6xx_HAL_Driver/Src/stm32n6xx_hal_rif.c **** 
 272:../STM32Cube_FW_N6/Drivers/STM32N6xx_HAL_Driver/Src/stm32n6xx_hal_rif.c ****   /* Check the parameter */
 273:../STM32Cube_FW_N6/Drivers/STM32N6xx_HAL_Driver/Src/stm32n6xx_hal_rif.c ****   assert_param(pConfig != (void *)NULL);
 261              		.loc 1 273 3 view .LVU54
 268:../STM32Cube_FW_N6/Drivers/STM32N6xx_HAL_Driver/Src/stm32n6xx_hal_rif.c ****   uint32_t master_cid;
 262              		.loc 1 268 1 is_stmt 0 view .LVU55
 263 0000 38B5     		push	{r3, r4, r5, lr}
 264              		.cfi_def_cfa_offset 16
 265              		.cfi_offset 3, -16
 266              		.cfi_offset 4, -12
 267              		.cfi_offset 5, -8
 268              		.cfi_offset 14, -4
 268:../STM32Cube_FW_N6/Drivers/STM32N6xx_HAL_Driver/Src/stm32n6xx_hal_rif.c ****   uint32_t master_cid;
 269              		.loc 1 268 1 view .LVU56
 270 0002 0446     		mov	r4, r0
 271              		.loc 1 273 3 view .LVU57
 272 0004 0D46     		mov	r5, r1
 273 0006 21B9     		cbnz	r1, .L26
 274              		.loc 1 273 3 discriminator 1 view .LVU58
 275 0008 40F21111 		movw	r1, #273
 276              	.LVL16:
 277              		.loc 1 273 3 discriminator 1 view .LVU59
 278 000c 2548     		ldr	r0, .L46
 279              	.LVL17:
 280              		.loc 1 273 3 discriminator 1 view .LVU60
 281 000e FFF7FEFF 		bl	assert_failed
 282              	.LVL18:
 283              	.L26:
 274:../STM32Cube_FW_N6/Drivers/STM32N6xx_HAL_Driver/Src/stm32n6xx_hal_rif.c ****   assert_param(IS_RIF_MASTER_INDEX(MasterId));
 284              		.loc 1 274 3 is_stmt 1 view .LVU61
 285 0012 0C2C     		cmp	r4, #12
 286 0014 04D9     		bls	.L27
 287              		.loc 1 274 3 is_stmt 0 discriminator 1 view .LVU62
 288 0016 4FF48971 		mov	r1, #274
 289 001a 2248     		ldr	r0, .L46
 290 001c FFF7FEFF 		bl	assert_failed
 291              	.LVL19:
 292              	.L27:
 275:../STM32Cube_FW_N6/Drivers/STM32N6xx_HAL_Driver/Src/stm32n6xx_hal_rif.c ****   assert_param(IS_RIF_SINGLE_CID(pConfig->MasterCID));
 293              		.loc 1 275 3 is_stmt 1 view .LVU63
 294 0020 2B68     		ldr	r3, [r5]
 295 0022 202B     		cmp	r3, #32
 296 0024 38D8     		bhi	.L28
 297 0026 032B     		cmp	r3, #3
 298 0028 2AD8     		bhi	.L29
 299 002a 013B     		subs	r3, r3, #1
 300 002c 012B     		cmp	r3, #1
 301 002e 2DD8     		bhi	.L30
 302              	.L31:
 276:../STM32Cube_FW_N6/Drivers/STM32N6xx_HAL_Driver/Src/stm32n6xx_hal_rif.c ****   assert_param(IS_RIF_MASTER_CID(pConfig->MasterCID));
 303              		.loc 1 276 3 view .LVU64
 304 0030 2B68     		ldr	r3, [r5]
 305 0032 802B     		cmp	r3, #128
 306 0034 01D0     		beq	.L32
 307              		.loc 1 276 3 is_stmt 0 discriminator 2 view .LVU65
 308 0036 FF2B     		cmp	r3, #255
 309 0038 04D9     		bls	.L33
ARM GAS  /tmp/ccHKmbxS.s 			page 17


 310              	.L32:
 311              		.loc 1 276 3 discriminator 3 view .LVU66
 312 003a 4FF48A71 		mov	r1, #276
 313 003e 1948     		ldr	r0, .L46
 314 0040 FFF7FEFF 		bl	assert_failed
 315              	.LVL20:
 316              	.L33:
 277:../STM32Cube_FW_N6/Drivers/STM32N6xx_HAL_Driver/Src/stm32n6xx_hal_rif.c ****   assert_param(IS_RIF_SEC_PRIV_ATTRIBUTE(pConfig->SecPriv));
 317              		.loc 1 277 3 is_stmt 1 view .LVU67
 318 0044 6B68     		ldr	r3, [r5, #4]
 319 0046 032B     		cmp	r3, #3
 320 0048 04D9     		bls	.L34
 321              		.loc 1 277 3 is_stmt 0 discriminator 1 view .LVU68
 322 004a 40F21511 		movw	r1, #277
 323 004e 1548     		ldr	r0, .L46
 324 0050 FFF7FEFF 		bl	assert_failed
 325              	.LVL21:
 326              	.L34:
 278:../STM32Cube_FW_N6/Drivers/STM32N6xx_HAL_Driver/Src/stm32n6xx_hal_rif.c **** 
 279:../STM32Cube_FW_N6/Drivers/STM32N6xx_HAL_Driver/Src/stm32n6xx_hal_rif.c ****   master_cid = POSITION_VAL(pConfig->MasterCID);
 327              		.loc 1 279 3 is_stmt 1 view .LVU69
 328              	.LBB22:
 329              	.LBI22:
 274:../STM32Cube_FW_N6/Drivers/CMSIS/Include/cmsis_gcc.h **** {
 330              		.loc 2 274 31 view .LVU70
 331              	.LBB23:
 276:../STM32Cube_FW_N6/Drivers/CMSIS/Include/cmsis_gcc.h **** 
 332              		.loc 2 276 3 view .LVU71
 279:../STM32Cube_FW_N6/Drivers/CMSIS/Include/cmsis_gcc.h **** #else
 333              		.loc 2 279 4 view .LVU72
 334 0054 2B68     		ldr	r3, [r5]
 335              		.syntax unified
 336              	@ 279 "../STM32Cube_FW_N6/Drivers/CMSIS/Include/cmsis_gcc.h" 1
 337 0056 93FAA3F3 		rbit r3, r3
 338              	@ 0 "" 2
 339              	.LVL22:
 292:../STM32Cube_FW_N6/Drivers/CMSIS/Include/cmsis_gcc.h **** }
 340              		.loc 2 292 3 view .LVU73
 292:../STM32Cube_FW_N6/Drivers/CMSIS/Include/cmsis_gcc.h **** }
 341              		.loc 2 292 3 is_stmt 0 view .LVU74
 342              		.thumb
 343              		.syntax unified
 344              	.LBE23:
 345              	.LBE22:
 346              	.LBB24:
 347              	.LBI24:
 302:../STM32Cube_FW_N6/Drivers/CMSIS/Include/cmsis_gcc.h **** {
 348              		.loc 2 302 30 is_stmt 1 view .LVU75
 349              	.LBB25:
 313:../STM32Cube_FW_N6/Drivers/CMSIS/Include/cmsis_gcc.h ****   {
 350              		.loc 2 313 3 view .LVU76
 351              		.loc 2 317 10 is_stmt 0 discriminator 1 view .LVU77
 352 005a B3FA83F2 		clz	r2, r3
 353              	.LVL23:
 354              		.loc 2 317 10 discriminator 1 view .LVU78
 355              	.LBE25:
 356              	.LBE24:
ARM GAS  /tmp/ccHKmbxS.s 			page 18


 280:../STM32Cube_FW_N6/Drivers/STM32N6xx_HAL_Driver/Src/stm32n6xx_hal_rif.c ****   rimc_attr_val = RIFSC->RIMC_ATTRx[MasterId];
 357              		.loc 1 280 3 is_stmt 1 view .LVU79
 358 005e A000     		lsls	r0, r4, #2
 359 0060 00F1A840 		add	r0, r0, #1409286144
 360 0064 00F51030 		add	r0, r0, #147456
 361              		.loc 1 280 17 is_stmt 0 view .LVU80
 362 0068 D0F8103C 		ldr	r3, [r0, #3088]
 363              	.LVL24:
 281:../STM32Cube_FW_N6/Drivers/STM32N6xx_HAL_Driver/Src/stm32n6xx_hal_rif.c ****   rimc_attr_val &= (~(RIFSC_RIMC_ATTRx_MCID | RIFSC_RIMC_ATTRx_MPRIV | RIFSC_RIMC_ATTRx_MSEC));
 364              		.loc 1 281 3 is_stmt 1 view .LVU81
 282:../STM32Cube_FW_N6/Drivers/STM32N6xx_HAL_Driver/Src/stm32n6xx_hal_rif.c ****   rimc_attr_val |= ((master_cid << RIFSC_RIMC_ATTRx_MCID_Pos) | (pConfig->SecPriv << RIFSC_RIMC_ATT
 365              		.loc 1 282 3 view .LVU82
 366              		.loc 1 282 83 is_stmt 0 view .LVU83
 367 006c 6968     		ldr	r1, [r5, #4]
 281:../STM32Cube_FW_N6/Drivers/STM32N6xx_HAL_Driver/Src/stm32n6xx_hal_rif.c ****   rimc_attr_val &= (~(RIFSC_RIMC_ATTRx_MCID | RIFSC_RIMC_ATTRx_MPRIV | RIFSC_RIMC_ATTRx_MSEC));
 368              		.loc 1 281 17 view .LVU84
 369 006e 23F45C73 		bic	r3, r3, #880
 370              	.LVL25:
 281:../STM32Cube_FW_N6/Drivers/STM32N6xx_HAL_Driver/Src/stm32n6xx_hal_rif.c ****   rimc_attr_val &= (~(RIFSC_RIMC_ATTRx_MCID | RIFSC_RIMC_ATTRx_MPRIV | RIFSC_RIMC_ATTRx_MSEC));
 371              		.loc 1 281 17 view .LVU85
 372 0072 43EA0123 		orr	r3, r3, r1, lsl #8
 373              	.LVL26:
 374              		.loc 1 282 17 view .LVU86
 375 0076 43EA0213 		orr	r3, r3, r2, lsl #4
 376              	.LVL27:
 283:../STM32Cube_FW_N6/Drivers/STM32N6xx_HAL_Driver/Src/stm32n6xx_hal_rif.c ****   RIFSC->RIMC_ATTRx[MasterId] = rimc_attr_val;
 377              		.loc 1 283 3 is_stmt 1 view .LVU87
 378              		.loc 1 283 31 is_stmt 0 view .LVU88
 379 007a C0F8103C 		str	r3, [r0, #3088]
 284:../STM32Cube_FW_N6/Drivers/STM32N6xx_HAL_Driver/Src/stm32n6xx_hal_rif.c **** }
 380              		.loc 1 284 1 view .LVU89
 381 007e 38BD     		pop	{r3, r4, r5, pc}
 382              	.LVL28:
 383              	.L29:
 384              		.loc 1 284 1 view .LVU90
 385 0080 094A     		ldr	r2, .L46+4
 386 0082 043B     		subs	r3, r3, #4
 387 0084 22FA03F3 		lsr	r3, r2, r3
 388 0088 DB07     		lsls	r3, r3, #31
 389 008a D1D4     		bmi	.L31
 390              	.L30:
 275:../STM32Cube_FW_N6/Drivers/STM32N6xx_HAL_Driver/Src/stm32n6xx_hal_rif.c ****   assert_param(IS_RIF_MASTER_CID(pConfig->MasterCID));
 391              		.loc 1 275 3 discriminator 7 view .LVU91
 392 008c 40F21311 		movw	r1, #275
 393 0090 0448     		ldr	r0, .L46
 394 0092 FFF7FEFF 		bl	assert_failed
 395              	.LVL29:
 396 0096 CBE7     		b	.L31
 397              	.L28:
 398 0098 402B     		cmp	r3, #64
 399 009a C9D0     		beq	.L31
 400 009c 802B     		cmp	r3, #128
 401 009e F5D1     		bne	.L30
 402 00a0 C6E7     		b	.L31
 403              	.L47:
 404 00a2 00BF     		.align	2
 405              	.L46:
ARM GAS  /tmp/ccHKmbxS.s 			page 19


 406 00a4 00000000 		.word	.LC0
 407 00a8 11100010 		.word	268439569
 408              		.cfi_endproc
 409              	.LFE885:
 411              		.section	.text.HAL_RIF_RIMC_GetConfigMasterAttributes,"ax",%progbits
 412              		.align	1
 413              		.global	HAL_RIF_RIMC_GetConfigMasterAttributes
 414              		.syntax unified
 415              		.thumb
 416              		.thumb_func
 418              	HAL_RIF_RIMC_GetConfigMasterAttributes:
 419              	.LVL30:
 420              	.LFB886:
 285:../STM32Cube_FW_N6/Drivers/STM32N6xx_HAL_Driver/Src/stm32n6xx_hal_rif.c **** #endif /* defined(CPU_AS_TRUSTED_DOMAIN) && defined(CPU_IN_SECURE_STATE) */
 286:../STM32Cube_FW_N6/Drivers/STM32N6xx_HAL_Driver/Src/stm32n6xx_hal_rif.c **** 
 287:../STM32Cube_FW_N6/Drivers/STM32N6xx_HAL_Driver/Src/stm32n6xx_hal_rif.c **** /**
 288:../STM32Cube_FW_N6/Drivers/STM32N6xx_HAL_Driver/Src/stm32n6xx_hal_rif.c ****   * @brief  Get the CID, Secure and Privilege attributes for the designated master.
 289:../STM32Cube_FW_N6/Drivers/STM32N6xx_HAL_Driver/Src/stm32n6xx_hal_rif.c ****   * @note   This API is protected by the Trusted Domain compilation directive.
 290:../STM32Cube_FW_N6/Drivers/STM32N6xx_HAL_Driver/Src/stm32n6xx_hal_rif.c ****   * @param  MasterId specifies the index of the bus master.
 291:../STM32Cube_FW_N6/Drivers/STM32N6xx_HAL_Driver/Src/stm32n6xx_hal_rif.c ****   *         This parameter can be one of @ref RIF_MASTER_INDEX
 292:../STM32Cube_FW_N6/Drivers/STM32N6xx_HAL_Driver/Src/stm32n6xx_hal_rif.c ****   * @param  pConfig Pointer on Master Isolation configuration structure
 293:../STM32Cube_FW_N6/Drivers/STM32N6xx_HAL_Driver/Src/stm32n6xx_hal_rif.c ****   * @retval None
 294:../STM32Cube_FW_N6/Drivers/STM32N6xx_HAL_Driver/Src/stm32n6xx_hal_rif.c ****   */
 295:../STM32Cube_FW_N6/Drivers/STM32N6xx_HAL_Driver/Src/stm32n6xx_hal_rif.c **** void HAL_RIF_RIMC_GetConfigMasterAttributes(uint32_t MasterId, RIMC_MasterConfig_t *pConfig)
 296:../STM32Cube_FW_N6/Drivers/STM32N6xx_HAL_Driver/Src/stm32n6xx_hal_rif.c **** {
 421              		.loc 1 296 1 is_stmt 1 view -0
 422              		.cfi_startproc
 423              		@ args = 0, pretend = 0, frame = 0
 424              		@ frame_needed = 0, uses_anonymous_args = 0
 297:../STM32Cube_FW_N6/Drivers/STM32N6xx_HAL_Driver/Src/stm32n6xx_hal_rif.c ****   uint32_t master_cid;
 425              		.loc 1 297 3 view .LVU93
 298:../STM32Cube_FW_N6/Drivers/STM32N6xx_HAL_Driver/Src/stm32n6xx_hal_rif.c ****   uint32_t rimc_attr_val;
 426              		.loc 1 298 3 view .LVU94
 299:../STM32Cube_FW_N6/Drivers/STM32N6xx_HAL_Driver/Src/stm32n6xx_hal_rif.c **** 
 300:../STM32Cube_FW_N6/Drivers/STM32N6xx_HAL_Driver/Src/stm32n6xx_hal_rif.c ****   /* Check the parameter */
 301:../STM32Cube_FW_N6/Drivers/STM32N6xx_HAL_Driver/Src/stm32n6xx_hal_rif.c ****   assert_param(pConfig != (void *)NULL);
 427              		.loc 1 301 3 view .LVU95
 296:../STM32Cube_FW_N6/Drivers/STM32N6xx_HAL_Driver/Src/stm32n6xx_hal_rif.c ****   uint32_t master_cid;
 428              		.loc 1 296 1 is_stmt 0 view .LVU96
 429 0000 38B5     		push	{r3, r4, r5, lr}
 430              		.cfi_def_cfa_offset 16
 431              		.cfi_offset 3, -16
 432              		.cfi_offset 4, -12
 433              		.cfi_offset 5, -8
 434              		.cfi_offset 14, -4
 296:../STM32Cube_FW_N6/Drivers/STM32N6xx_HAL_Driver/Src/stm32n6xx_hal_rif.c ****   uint32_t master_cid;
 435              		.loc 1 296 1 view .LVU97
 436 0002 0446     		mov	r4, r0
 437              		.loc 1 301 3 view .LVU98
 438 0004 0D46     		mov	r5, r1
 439 0006 21B9     		cbnz	r1, .L49
 440              		.loc 1 301 3 discriminator 1 view .LVU99
 441 0008 40F22D11 		movw	r1, #301
 442              	.LVL31:
 443              		.loc 1 301 3 discriminator 1 view .LVU100
 444 000c 0C48     		ldr	r0, .L51
 445              	.LVL32:
ARM GAS  /tmp/ccHKmbxS.s 			page 20


 446              		.loc 1 301 3 discriminator 1 view .LVU101
 447 000e FFF7FEFF 		bl	assert_failed
 448              	.LVL33:
 449              	.L49:
 302:../STM32Cube_FW_N6/Drivers/STM32N6xx_HAL_Driver/Src/stm32n6xx_hal_rif.c ****   assert_param(IS_RIF_MASTER_INDEX(MasterId));
 450              		.loc 1 302 3 is_stmt 1 view .LVU102
 451 0012 0C2C     		cmp	r4, #12
 452 0014 04D9     		bls	.L50
 453              		.loc 1 302 3 is_stmt 0 discriminator 1 view .LVU103
 454 0016 4FF49771 		mov	r1, #302
 455 001a 0948     		ldr	r0, .L51
 456 001c FFF7FEFF 		bl	assert_failed
 457              	.LVL34:
 458              	.L50:
 303:../STM32Cube_FW_N6/Drivers/STM32N6xx_HAL_Driver/Src/stm32n6xx_hal_rif.c **** 
 304:../STM32Cube_FW_N6/Drivers/STM32N6xx_HAL_Driver/Src/stm32n6xx_hal_rif.c ****   rimc_attr_val = RIFSC->RIMC_ATTRx[MasterId];
 459              		.loc 1 304 3 is_stmt 1 view .LVU104
 460              		.loc 1 304 17 is_stmt 0 view .LVU105
 461 0020 084B     		ldr	r3, .L51+4
 462 0022 04F54174 		add	r4, r4, #772
 463              	.LVL35:
 464              		.loc 1 304 17 view .LVU106
 465 0026 53F82430 		ldr	r3, [r3, r4, lsl #2]
 466              	.LVL36:
 305:../STM32Cube_FW_N6/Drivers/STM32N6xx_HAL_Driver/Src/stm32n6xx_hal_rif.c ****   pConfig->SecPriv = ((rimc_attr_val & (RIFSC_RIMC_ATTRx_MPRIV | RIFSC_RIMC_ATTRx_MSEC))
 467              		.loc 1 305 3 is_stmt 1 view .LVU107
 306:../STM32Cube_FW_N6/Drivers/STM32N6xx_HAL_Driver/Src/stm32n6xx_hal_rif.c ****                       >> RIFSC_RIMC_ATTRx_MSEC_Pos);
 468              		.loc 1 306 23 is_stmt 0 view .LVU108
 469 002a C3F30122 		ubfx	r2, r3, #8, #2
 305:../STM32Cube_FW_N6/Drivers/STM32N6xx_HAL_Driver/Src/stm32n6xx_hal_rif.c ****   pConfig->SecPriv = ((rimc_attr_val & (RIFSC_RIMC_ATTRx_MPRIV | RIFSC_RIMC_ATTRx_MSEC))
 470              		.loc 1 305 20 view .LVU109
 471 002e 6A60     		str	r2, [r5, #4]
 307:../STM32Cube_FW_N6/Drivers/STM32N6xx_HAL_Driver/Src/stm32n6xx_hal_rif.c ****   master_cid = ((rimc_attr_val & RIFSC_RIMC_ATTRx_MCID) >> RIFSC_RIMC_ATTRx_MCID_Pos);
 472              		.loc 1 307 3 is_stmt 1 view .LVU110
 473              	.LVL37:
 308:../STM32Cube_FW_N6/Drivers/STM32N6xx_HAL_Driver/Src/stm32n6xx_hal_rif.c ****   pConfig->MasterCID = (1UL << master_cid);
 474              		.loc 1 308 3 view .LVU111
 475              		.loc 1 308 29 is_stmt 0 view .LVU112
 476 0030 0122     		movs	r2, #1
 307:../STM32Cube_FW_N6/Drivers/STM32N6xx_HAL_Driver/Src/stm32n6xx_hal_rif.c ****   master_cid = ((rimc_attr_val & RIFSC_RIMC_ATTRx_MCID) >> RIFSC_RIMC_ATTRx_MCID_Pos);
 477              		.loc 1 307 14 view .LVU113
 478 0032 C3F30213 		ubfx	r3, r3, #4, #3
 479              	.LVL38:
 480              		.loc 1 308 29 view .LVU114
 481 0036 02FA03F3 		lsl	r3, r2, r3
 482              		.loc 1 308 22 view .LVU115
 483 003a 2B60     		str	r3, [r5]
 309:../STM32Cube_FW_N6/Drivers/STM32N6xx_HAL_Driver/Src/stm32n6xx_hal_rif.c **** }
 484              		.loc 1 309 1 view .LVU116
 485 003c 38BD     		pop	{r3, r4, r5, pc}
 486              	.LVL39:
 487              	.L52:
 488              		.loc 1 309 1 view .LVU117
 489 003e 00BF     		.align	2
 490              	.L51:
 491 0040 00000000 		.word	.LC0
 492 0044 00400254 		.word	1409433600
ARM GAS  /tmp/ccHKmbxS.s 			page 21


 493              		.cfi_endproc
 494              	.LFE886:
 496              		.section	.text.HAL_RIF_RISC_Lock,"ax",%progbits
 497              		.align	1
 498              		.global	HAL_RIF_RISC_Lock
 499              		.syntax unified
 500              		.thumb
 501              		.thumb_func
 503              	HAL_RIF_RISC_Lock:
 504              	.LFB887:
 310:../STM32Cube_FW_N6/Drivers/STM32N6xx_HAL_Driver/Src/stm32n6xx_hal_rif.c **** /**
 311:../STM32Cube_FW_N6/Drivers/STM32N6xx_HAL_Driver/Src/stm32n6xx_hal_rif.c ****   * @}
 312:../STM32Cube_FW_N6/Drivers/STM32N6xx_HAL_Driver/Src/stm32n6xx_hal_rif.c ****   */
 313:../STM32Cube_FW_N6/Drivers/STM32N6xx_HAL_Driver/Src/stm32n6xx_hal_rif.c **** 
 314:../STM32Cube_FW_N6/Drivers/STM32N6xx_HAL_Driver/Src/stm32n6xx_hal_rif.c **** /** @defgroup RIF_Exported_Functions_Group2  RIFSC Configuration functions
 315:../STM32Cube_FW_N6/Drivers/STM32N6xx_HAL_Driver/Src/stm32n6xx_hal_rif.c ****   *  @brief    RIFSC Configuration functions
 316:../STM32Cube_FW_N6/Drivers/STM32N6xx_HAL_Driver/Src/stm32n6xx_hal_rif.c ****   *
 317:../STM32Cube_FW_N6/Drivers/STM32N6xx_HAL_Driver/Src/stm32n6xx_hal_rif.c **** @verbatim
 318:../STM32Cube_FW_N6/Drivers/STM32N6xx_HAL_Driver/Src/stm32n6xx_hal_rif.c ****   ==============================================================================
 319:../STM32Cube_FW_N6/Drivers/STM32N6xx_HAL_Driver/Src/stm32n6xx_hal_rif.c ****             ##### RIFSC Configuration functions #####
 320:../STM32Cube_FW_N6/Drivers/STM32N6xx_HAL_Driver/Src/stm32n6xx_hal_rif.c ****   ==============================================================================
 321:../STM32Cube_FW_N6/Drivers/STM32N6xx_HAL_Driver/Src/stm32n6xx_hal_rif.c ****   [..]
 322:../STM32Cube_FW_N6/Drivers/STM32N6xx_HAL_Driver/Src/stm32n6xx_hal_rif.c ****     This section provides functions allowing to configure RIFSC
 323:../STM32Cube_FW_N6/Drivers/STM32N6xx_HAL_Driver/Src/stm32n6xx_hal_rif.c ****     RIFSC is Resource Isolation Framework Secure Controller
 324:../STM32Cube_FW_N6/Drivers/STM32N6xx_HAL_Driver/Src/stm32n6xx_hal_rif.c **** @endverbatim
 325:../STM32Cube_FW_N6/Drivers/STM32N6xx_HAL_Driver/Src/stm32n6xx_hal_rif.c ****   * @{
 326:../STM32Cube_FW_N6/Drivers/STM32N6xx_HAL_Driver/Src/stm32n6xx_hal_rif.c ****   */
 327:../STM32Cube_FW_N6/Drivers/STM32N6xx_HAL_Driver/Src/stm32n6xx_hal_rif.c **** #if defined(CPU_AS_TRUSTED_DOMAIN) && defined(CPU_IN_SECURE_STATE)
 328:../STM32Cube_FW_N6/Drivers/STM32N6xx_HAL_Driver/Src/stm32n6xx_hal_rif.c **** /**
 329:../STM32Cube_FW_N6/Drivers/STM32N6xx_HAL_Driver/Src/stm32n6xx_hal_rif.c ****   * @brief  Lock overall configuration of RISC.
 330:../STM32Cube_FW_N6/Drivers/STM32N6xx_HAL_Driver/Src/stm32n6xx_hal_rif.c ****   * @note   Once set, the overall configuration of RIFSC cannot be modified
 331:../STM32Cube_FW_N6/Drivers/STM32N6xx_HAL_Driver/Src/stm32n6xx_hal_rif.c ****   *         upon next system reset.
 332:../STM32Cube_FW_N6/Drivers/STM32N6xx_HAL_Driver/Src/stm32n6xx_hal_rif.c ****   * @note   This API is protected by the Trusted Domain compilation directive.
 333:../STM32Cube_FW_N6/Drivers/STM32N6xx_HAL_Driver/Src/stm32n6xx_hal_rif.c ****   * @note   This API is protected by the TrustZone Enabled compilation directive.
 334:../STM32Cube_FW_N6/Drivers/STM32N6xx_HAL_Driver/Src/stm32n6xx_hal_rif.c ****   * @retval None
 335:../STM32Cube_FW_N6/Drivers/STM32N6xx_HAL_Driver/Src/stm32n6xx_hal_rif.c ****   */
 336:../STM32Cube_FW_N6/Drivers/STM32N6xx_HAL_Driver/Src/stm32n6xx_hal_rif.c **** void HAL_RIF_RISC_Lock(void)
 337:../STM32Cube_FW_N6/Drivers/STM32N6xx_HAL_Driver/Src/stm32n6xx_hal_rif.c **** {
 505              		.loc 1 337 1 is_stmt 1 view -0
 506              		.cfi_startproc
 507              		@ args = 0, pretend = 0, frame = 0
 508              		@ frame_needed = 0, uses_anonymous_args = 0
 509              		@ link register save eliminated.
 338:../STM32Cube_FW_N6/Drivers/STM32N6xx_HAL_Driver/Src/stm32n6xx_hal_rif.c ****   /* Set RISC Lock bit */
 339:../STM32Cube_FW_N6/Drivers/STM32N6xx_HAL_Driver/Src/stm32n6xx_hal_rif.c ****   RIFSC->RISC_CR |= RIFSC_RISC_CR_GLOCK;
 510              		.loc 1 339 3 view .LVU119
 511              		.loc 1 339 8 is_stmt 0 view .LVU120
 512 0000 024A     		ldr	r2, .L54
 513 0002 1368     		ldr	r3, [r2]
 514              		.loc 1 339 18 view .LVU121
 515 0004 43F00103 		orr	r3, r3, #1
 516 0008 1360     		str	r3, [r2]
 340:../STM32Cube_FW_N6/Drivers/STM32N6xx_HAL_Driver/Src/stm32n6xx_hal_rif.c **** }
 517              		.loc 1 340 1 view .LVU122
 518 000a 7047     		bx	lr
 519              	.L55:
 520              		.align	2
ARM GAS  /tmp/ccHKmbxS.s 			page 22


 521              	.L54:
 522 000c 00400254 		.word	1409433600
 523              		.cfi_endproc
 524              	.LFE887:
 526              		.section	.text.HAL_RIF_RISC_GetLock,"ax",%progbits
 527              		.align	1
 528              		.global	HAL_RIF_RISC_GetLock
 529              		.syntax unified
 530              		.thumb
 531              		.thumb_func
 533              	HAL_RIF_RISC_GetLock:
 534              	.LFB888:
 341:../STM32Cube_FW_N6/Drivers/STM32N6xx_HAL_Driver/Src/stm32n6xx_hal_rif.c **** #endif /* defined(CPU_AS_TRUSTED_DOMAIN) && defined(CPU_IN_SECURE_STATE) */
 342:../STM32Cube_FW_N6/Drivers/STM32N6xx_HAL_Driver/Src/stm32n6xx_hal_rif.c **** 
 343:../STM32Cube_FW_N6/Drivers/STM32N6xx_HAL_Driver/Src/stm32n6xx_hal_rif.c **** /**
 344:../STM32Cube_FW_N6/Drivers/STM32N6xx_HAL_Driver/Src/stm32n6xx_hal_rif.c ****   * @brief  Get the RIFSC global lock status.
 345:../STM32Cube_FW_N6/Drivers/STM32N6xx_HAL_Driver/Src/stm32n6xx_hal_rif.c ****   * @retval 1 if RISC configuration is locked, else 0
 346:../STM32Cube_FW_N6/Drivers/STM32N6xx_HAL_Driver/Src/stm32n6xx_hal_rif.c ****   */
 347:../STM32Cube_FW_N6/Drivers/STM32N6xx_HAL_Driver/Src/stm32n6xx_hal_rif.c **** uint32_t HAL_RIF_RISC_GetLock(void)
 348:../STM32Cube_FW_N6/Drivers/STM32N6xx_HAL_Driver/Src/stm32n6xx_hal_rif.c **** {
 535              		.loc 1 348 1 is_stmt 1 view -0
 536              		.cfi_startproc
 537              		@ args = 0, pretend = 0, frame = 0
 538              		@ frame_needed = 0, uses_anonymous_args = 0
 539              		@ link register save eliminated.
 349:../STM32Cube_FW_N6/Drivers/STM32N6xx_HAL_Driver/Src/stm32n6xx_hal_rif.c ****   uint32_t lock_status;
 540              		.loc 1 349 3 view .LVU124
 350:../STM32Cube_FW_N6/Drivers/STM32N6xx_HAL_Driver/Src/stm32n6xx_hal_rif.c **** 
 351:../STM32Cube_FW_N6/Drivers/STM32N6xx_HAL_Driver/Src/stm32n6xx_hal_rif.c ****   /* Read RISC lock bit */
 352:../STM32Cube_FW_N6/Drivers/STM32N6xx_HAL_Driver/Src/stm32n6xx_hal_rif.c ****   lock_status = (RIFSC->RISC_CR & RIF_LOCK_ENABLE);
 541              		.loc 1 352 3 view .LVU125
 542              		.loc 1 352 23 is_stmt 0 view .LVU126
 543 0000 024B     		ldr	r3, .L57
 544 0002 1868     		ldr	r0, [r3]
 545              	.LVL40:
 353:../STM32Cube_FW_N6/Drivers/STM32N6xx_HAL_Driver/Src/stm32n6xx_hal_rif.c **** 
 354:../STM32Cube_FW_N6/Drivers/STM32N6xx_HAL_Driver/Src/stm32n6xx_hal_rif.c ****   return lock_status;
 546              		.loc 1 354 3 is_stmt 1 view .LVU127
 355:../STM32Cube_FW_N6/Drivers/STM32N6xx_HAL_Driver/Src/stm32n6xx_hal_rif.c **** }
 547              		.loc 1 355 1 is_stmt 0 view .LVU128
 548 0004 00F00100 		and	r0, r0, #1
 549              	.LVL41:
 550              		.loc 1 355 1 view .LVU129
 551 0008 7047     		bx	lr
 552              	.L58:
 553 000a 00BF     		.align	2
 554              	.L57:
 555 000c 00400254 		.word	1409433600
 556              		.cfi_endproc
 557              	.LFE888:
 559              		.section	.text.HAL_RIF_RISC_SetSlaveSecureAttributes,"ax",%progbits
 560              		.align	1
 561              		.global	HAL_RIF_RISC_SetSlaveSecureAttributes
 562              		.syntax unified
 563              		.thumb
 564              		.thumb_func
 566              	HAL_RIF_RISC_SetSlaveSecureAttributes:
ARM GAS  /tmp/ccHKmbxS.s 			page 23


 567              	.LVL42:
 568              	.LFB889:
 356:../STM32Cube_FW_N6/Drivers/STM32N6xx_HAL_Driver/Src/stm32n6xx_hal_rif.c **** 
 357:../STM32Cube_FW_N6/Drivers/STM32N6xx_HAL_Driver/Src/stm32n6xx_hal_rif.c **** /**
 358:../STM32Cube_FW_N6/Drivers/STM32N6xx_HAL_Driver/Src/stm32n6xx_hal_rif.c ****   * @brief  Configure the Security and Privilege of a designated slave peripheral.
 359:../STM32Cube_FW_N6/Drivers/STM32N6xx_HAL_Driver/Src/stm32n6xx_hal_rif.c ****   * @param  PeriphId specifies the index of the bus slave.
 360:../STM32Cube_FW_N6/Drivers/STM32N6xx_HAL_Driver/Src/stm32n6xx_hal_rif.c ****   *         This parameter can be one of @ref RIF_PERIPHERAL_INDEX
 361:../STM32Cube_FW_N6/Drivers/STM32N6xx_HAL_Driver/Src/stm32n6xx_hal_rif.c ****   *         bits[31:28] define the register index a peripheral belongs to, value from 0 to 5
 362:../STM32Cube_FW_N6/Drivers/STM32N6xx_HAL_Driver/Src/stm32n6xx_hal_rif.c ****   *         bits[4:0]   define the bit position within the register, value from 0 to 31
 363:../STM32Cube_FW_N6/Drivers/STM32N6xx_HAL_Driver/Src/stm32n6xx_hal_rif.c ****   * @param  SecPriv specifies the security and privilege attributes of the peripheral.
 364:../STM32Cube_FW_N6/Drivers/STM32N6xx_HAL_Driver/Src/stm32n6xx_hal_rif.c ****   *         This parameter can be one or a combination of @ref RIF_SEC_PRIV
 365:../STM32Cube_FW_N6/Drivers/STM32N6xx_HAL_Driver/Src/stm32n6xx_hal_rif.c ****   * @retval None
 366:../STM32Cube_FW_N6/Drivers/STM32N6xx_HAL_Driver/Src/stm32n6xx_hal_rif.c ****   */
 367:../STM32Cube_FW_N6/Drivers/STM32N6xx_HAL_Driver/Src/stm32n6xx_hal_rif.c **** void HAL_RIF_RISC_SetSlaveSecureAttributes(uint32_t PeriphId, uint32_t SecPriv)
 368:../STM32Cube_FW_N6/Drivers/STM32N6xx_HAL_Driver/Src/stm32n6xx_hal_rif.c **** {
 569              		.loc 1 368 1 is_stmt 1 view -0
 570              		.cfi_startproc
 571              		@ args = 0, pretend = 0, frame = 8
 572              		@ frame_needed = 0, uses_anonymous_args = 0
 369:../STM32Cube_FW_N6/Drivers/STM32N6xx_HAL_Driver/Src/stm32n6xx_hal_rif.c ****   __IO uint32_t sec_reg_val;
 573              		.loc 1 369 3 view .LVU131
 370:../STM32Cube_FW_N6/Drivers/STM32N6xx_HAL_Driver/Src/stm32n6xx_hal_rif.c **** 
 371:../STM32Cube_FW_N6/Drivers/STM32N6xx_HAL_Driver/Src/stm32n6xx_hal_rif.c ****   assert_param(IS_RIF_RISC_PERIPH_INDEX(PeriphId) || IS_RIF_RCC_PERIPH_INDEX(PeriphId));
 574              		.loc 1 371 3 view .LVU132
 575 0000 384B     		ldr	r3, .L76
 368:../STM32Cube_FW_N6/Drivers/STM32N6xx_HAL_Driver/Src/stm32n6xx_hal_rif.c ****   __IO uint32_t sec_reg_val;
 576              		.loc 1 368 1 is_stmt 0 view .LVU133
 577 0002 37B5     		push	{r0, r1, r2, r4, r5, lr}
 578              		.cfi_def_cfa_offset 24
 579              		.cfi_offset 4, -12
 580              		.cfi_offset 5, -8
 581              		.cfi_offset 14, -4
 582 0004 9842     		cmp	r0, r3
 368:../STM32Cube_FW_N6/Drivers/STM32N6xx_HAL_Driver/Src/stm32n6xx_hal_rif.c ****   __IO uint32_t sec_reg_val;
 583              		.loc 1 368 1 view .LVU134
 584 0006 0446     		mov	r4, r0
 585 0008 0D46     		mov	r5, r1
 586 000a 5CD8     		bhi	.L60
 587 000c 1E3B     		subs	r3, r3, #30
 588 000e 9842     		cmp	r0, r3
 589 0010 3BD8     		bhi	.L61
 590 0012 354B     		ldr	r3, .L76+4
 591 0014 9842     		cmp	r0, r3
 592 0016 4BD8     		bhi	.L62
 593 0018 B0F1005F 		cmp	r0, #536870912
 594 001c 3AD2     		bcs	.L63
 595 001e 334B     		ldr	r3, .L76+8
 596 0020 9842     		cmp	r0, r3
 597 0022 40D8     		bhi	.L64
 598 0024 C21F     		subs	r2, r0, #7
 599 0026 223B     		subs	r3, r3, #34
 600 0028 9A42     		cmp	r2, r3
 601 002a 37D9     		bls	.L71
 602              	.LVL43:
 603              	.L65:
 372:../STM32Cube_FW_N6/Drivers/STM32N6xx_HAL_Driver/Src/stm32n6xx_hal_rif.c ****   assert_param(IS_RIF_SEC_PRIV_ATTRIBUTE(SecPriv));
 604              		.loc 1 372 3 is_stmt 1 view .LVU135
ARM GAS  /tmp/ccHKmbxS.s 			page 24


 605 002c 032D     		cmp	r5, #3
 606 002e 04D9     		bls	.L70
 607              		.loc 1 372 3 is_stmt 0 discriminator 1 view .LVU136
 608 0030 4FF4BA71 		mov	r1, #372
 609 0034 2E48     		ldr	r0, .L76+12
 610 0036 FFF7FEFF 		bl	assert_failed
 611              	.LVL44:
 612              	.L70:
 373:../STM32Cube_FW_N6/Drivers/STM32N6xx_HAL_Driver/Src/stm32n6xx_hal_rif.c **** 
 374:../STM32Cube_FW_N6/Drivers/STM32N6xx_HAL_Driver/Src/stm32n6xx_hal_rif.c ****   sec_reg_val = RIFSC->RISC_SECCFGRx[PeriphId >> RIF_PERIPH_REG_SHIFT];
 613              		.loc 1 374 3 is_stmt 1 view .LVU137
 375:../STM32Cube_FW_N6/Drivers/STM32N6xx_HAL_Driver/Src/stm32n6xx_hal_rif.c ****   sec_reg_val &= (~(1UL << (PeriphId & RIF_PERIPH_BIT_POSITION)));
 614              		.loc 1 375 25 is_stmt 0 view .LVU138
 615 003a 0122     		movs	r2, #1
 374:../STM32Cube_FW_N6/Drivers/STM32N6xx_HAL_Driver/Src/stm32n6xx_hal_rif.c ****   sec_reg_val &= (~(1UL << (PeriphId & RIF_PERIPH_BIT_POSITION)));
 616              		.loc 1 374 47 view .LVU139
 617 003c 200F     		lsrs	r0, r4, #28
 618 003e 8000     		lsls	r0, r0, #2
 619 0040 00F1A840 		add	r0, r0, #1409286144
 620 0044 00F51030 		add	r0, r0, #147456
 374:../STM32Cube_FW_N6/Drivers/STM32N6xx_HAL_Driver/Src/stm32n6xx_hal_rif.c ****   sec_reg_val &= (~(1UL << (PeriphId & RIF_PERIPH_BIT_POSITION)));
 621              		.loc 1 374 37 view .LVU140
 622 0048 0369     		ldr	r3, [r0, #16]
 623              		.loc 1 375 38 view .LVU141
 624 004a 04F01F04 		and	r4, r4, #31
 625              	.LVL45:
 374:../STM32Cube_FW_N6/Drivers/STM32N6xx_HAL_Driver/Src/stm32n6xx_hal_rif.c ****   sec_reg_val &= (~(1UL << (PeriphId & RIF_PERIPH_BIT_POSITION)));
 626              		.loc 1 374 15 view .LVU142
 627 004e 0193     		str	r3, [sp, #4]
 628              		.loc 1 375 3 is_stmt 1 view .LVU143
 629              		.loc 1 375 15 is_stmt 0 view .LVU144
 630 0050 019B     		ldr	r3, [sp, #4]
 631              		.loc 1 375 25 view .LVU145
 632 0052 A240     		lsls	r2, r2, r4
 633              		.loc 1 375 15 view .LVU146
 634 0054 23EA0203 		bic	r3, r3, r2
 635 0058 0193     		str	r3, [sp, #4]
 376:../STM32Cube_FW_N6/Drivers/STM32N6xx_HAL_Driver/Src/stm32n6xx_hal_rif.c ****   sec_reg_val |= ((SecPriv & RIF_ATTRIBUTE_SEC) << (PeriphId & RIF_PERIPH_BIT_POSITION));
 636              		.loc 1 376 3 is_stmt 1 view .LVU147
 637              		.loc 1 376 15 is_stmt 0 view .LVU148
 638 005a 0199     		ldr	r1, [sp, #4]
 639              		.loc 1 376 28 view .LVU149
 640 005c 05F00103 		and	r3, r5, #1
 641              		.loc 1 376 49 view .LVU150
 642 0060 A340     		lsls	r3, r3, r4
 643              		.loc 1 376 15 view .LVU151
 644 0062 0B43     		orrs	r3, r3, r1
 645 0064 0193     		str	r3, [sp, #4]
 377:../STM32Cube_FW_N6/Drivers/STM32N6xx_HAL_Driver/Src/stm32n6xx_hal_rif.c ****   RIFSC->RISC_SECCFGRx[PeriphId >> RIF_PERIPH_REG_SHIFT] = sec_reg_val;
 646              		.loc 1 377 3 is_stmt 1 view .LVU152
 647              		.loc 1 377 58 is_stmt 0 view .LVU153
 648 0066 019B     		ldr	r3, [sp, #4]
 378:../STM32Cube_FW_N6/Drivers/STM32N6xx_HAL_Driver/Src/stm32n6xx_hal_rif.c **** 
 379:../STM32Cube_FW_N6/Drivers/STM32N6xx_HAL_Driver/Src/stm32n6xx_hal_rif.c ****   sec_reg_val = RIFSC->RISC_PRIVCFGRx[PeriphId >> RIF_PERIPH_REG_SHIFT];
 380:../STM32Cube_FW_N6/Drivers/STM32N6xx_HAL_Driver/Src/stm32n6xx_hal_rif.c ****   sec_reg_val &= (~(1UL << (PeriphId & RIF_PERIPH_BIT_POSITION)));
 381:../STM32Cube_FW_N6/Drivers/STM32N6xx_HAL_Driver/Src/stm32n6xx_hal_rif.c ****   sec_reg_val |= (((SecPriv & RIF_ATTRIBUTE_PRIV) >> 1U) << (PeriphId & RIF_PERIPH_BIT_POSITION));
 649              		.loc 1 381 51 view .LVU154
ARM GAS  /tmp/ccHKmbxS.s 			page 25


 650 0068 C5F34001 		ubfx	r1, r5, #1, #1
 377:../STM32Cube_FW_N6/Drivers/STM32N6xx_HAL_Driver/Src/stm32n6xx_hal_rif.c ****   RIFSC->RISC_SECCFGRx[PeriphId >> RIF_PERIPH_REG_SHIFT] = sec_reg_val;
 651              		.loc 1 377 58 view .LVU155
 652 006c 0361     		str	r3, [r0, #16]
 379:../STM32Cube_FW_N6/Drivers/STM32N6xx_HAL_Driver/Src/stm32n6xx_hal_rif.c ****   sec_reg_val &= (~(1UL << (PeriphId & RIF_PERIPH_BIT_POSITION)));
 653              		.loc 1 379 3 is_stmt 1 view .LVU156
 379:../STM32Cube_FW_N6/Drivers/STM32N6xx_HAL_Driver/Src/stm32n6xx_hal_rif.c ****   sec_reg_val &= (~(1UL << (PeriphId & RIF_PERIPH_BIT_POSITION)));
 654              		.loc 1 379 38 is_stmt 0 view .LVU157
 655 006e 036B     		ldr	r3, [r0, #48]
 656              		.loc 1 381 58 view .LVU158
 657 0070 A140     		lsls	r1, r1, r4
 379:../STM32Cube_FW_N6/Drivers/STM32N6xx_HAL_Driver/Src/stm32n6xx_hal_rif.c ****   sec_reg_val &= (~(1UL << (PeriphId & RIF_PERIPH_BIT_POSITION)));
 658              		.loc 1 379 15 view .LVU159
 659 0072 0193     		str	r3, [sp, #4]
 380:../STM32Cube_FW_N6/Drivers/STM32N6xx_HAL_Driver/Src/stm32n6xx_hal_rif.c ****   sec_reg_val |= (((SecPriv & RIF_ATTRIBUTE_PRIV) >> 1U) << (PeriphId & RIF_PERIPH_BIT_POSITION));
 660              		.loc 1 380 3 is_stmt 1 view .LVU160
 380:../STM32Cube_FW_N6/Drivers/STM32N6xx_HAL_Driver/Src/stm32n6xx_hal_rif.c ****   sec_reg_val |= (((SecPriv & RIF_ATTRIBUTE_PRIV) >> 1U) << (PeriphId & RIF_PERIPH_BIT_POSITION));
 661              		.loc 1 380 15 is_stmt 0 view .LVU161
 662 0074 019B     		ldr	r3, [sp, #4]
 663 0076 23EA0203 		bic	r3, r3, r2
 664 007a 0193     		str	r3, [sp, #4]
 665              		.loc 1 381 3 is_stmt 1 view .LVU162
 666              		.loc 1 381 15 is_stmt 0 view .LVU163
 667 007c 019B     		ldr	r3, [sp, #4]
 668 007e 1943     		orrs	r1, r1, r3
 669 0080 0191     		str	r1, [sp, #4]
 382:../STM32Cube_FW_N6/Drivers/STM32N6xx_HAL_Driver/Src/stm32n6xx_hal_rif.c ****   RIFSC->RISC_PRIVCFGRx[PeriphId >> RIF_PERIPH_REG_SHIFT] = sec_reg_val;
 670              		.loc 1 382 3 is_stmt 1 view .LVU164
 671              		.loc 1 382 59 is_stmt 0 view .LVU165
 672 0082 019B     		ldr	r3, [sp, #4]
 673 0084 0363     		str	r3, [r0, #48]
 383:../STM32Cube_FW_N6/Drivers/STM32N6xx_HAL_Driver/Src/stm32n6xx_hal_rif.c **** }
 674              		.loc 1 383 1 view .LVU166
 675 0086 03B0     		add	sp, sp, #12
 676              		.cfi_remember_state
 677              		.cfi_def_cfa_offset 12
 678              		@ sp needed
 679 0088 30BD     		pop	{r4, r5, pc}
 680              	.LVL46:
 681              	.L61:
 682              		.cfi_restore_state
 683              		.loc 1 383 1 view .LVU167
 684 008a 00F14042 		add	r2, r0, #-1073741824
 685 008e 194B     		ldr	r3, .L76+16
 686 0090 023A     		subs	r2, r2, #2
 687 0092 1DE0     		b	.L72
 688              	.L63:
 689              		.loc 1 383 1 view .LVU168
 690 0094 184B     		ldr	r3, .L76+20
 691 0096 00F16042 		add	r2, r0, #-536870912
 692 009a 19E0     		b	.L72
 693              	.L71:
 694              		.loc 1 383 1 view .LVU169
 695 009c A0F10803 		sub	r3, r0, #8
 696 00a0 172B     		cmp	r3, #23
 697              	.L75:
 698              		.loc 1 383 1 view .LVU170
ARM GAS  /tmp/ccHKmbxS.s 			page 26


 699 00a2 C3D9     		bls	.L65
 700 00a4 17E0     		b	.L67
 701              	.L64:
 702 00a6 00F17043 		add	r3, r0, #-268435456
 703 00aa 1C3B     		subs	r3, r3, #28
 704 00ac 022B     		cmp	r3, #2
 705 00ae F8E7     		b	.L75
 706              	.L62:
 707              		.loc 1 383 1 view .LVU171
 708 00b0 124B     		ldr	r3, .L76+24
 709 00b2 9842     		cmp	r0, r3
 710 00b4 03D8     		bhi	.L68
 711 00b6 B0F1405F 		cmp	r0, #805306368
 712 00ba B7D2     		bcs	.L65
 713 00bc 0BE0     		b	.L67
 714              	.L68:
 715 00be 104B     		ldr	r3, .L76+28
 716 00c0 9842     		cmp	r0, r3
 717 00c2 B3D0     		beq	.L65
 718 00c4 07E0     		b	.L67
 719              	.L60:
 720              		.loc 1 383 1 view .LVU172
 721 00c6 00F13042 		add	r2, r0, #-1342177280
 722 00ca 1E2A     		cmp	r2, #30
 723 00cc 03D8     		bhi	.L67
 724 00ce 0D4B     		ldr	r3, .L76+32
 725              	.L72:
 726              		.loc 1 383 1 view .LVU173
 727 00d0 D340     		lsrs	r3, r3, r2
 728 00d2 DB07     		lsls	r3, r3, #31
 729 00d4 AAD4     		bmi	.L65
 730              	.L67:
 371:../STM32Cube_FW_N6/Drivers/STM32N6xx_HAL_Driver/Src/stm32n6xx_hal_rif.c ****   assert_param(IS_RIF_SEC_PRIV_ATTRIBUTE(SecPriv));
 731              		.loc 1 371 3 discriminator 122 view .LVU174
 732 00d6 40F27311 		movw	r1, #371
 733              	.LVL47:
 371:../STM32Cube_FW_N6/Drivers/STM32N6xx_HAL_Driver/Src/stm32n6xx_hal_rif.c ****   assert_param(IS_RIF_SEC_PRIV_ATTRIBUTE(SecPriv));
 734              		.loc 1 371 3 discriminator 122 view .LVU175
 735 00da 0548     		ldr	r0, .L76+12
 736              	.LVL48:
 371:../STM32Cube_FW_N6/Drivers/STM32N6xx_HAL_Driver/Src/stm32n6xx_hal_rif.c ****   assert_param(IS_RIF_SEC_PRIV_ATTRIBUTE(SecPriv));
 737              		.loc 1 371 3 discriminator 122 view .LVU176
 738 00dc FFF7FEFF 		bl	assert_failed
 739              	.LVL49:
 740 00e0 A4E7     		b	.L65
 741              	.L77:
 742 00e2 00BF     		.align	2
 743              	.L76:
 744 00e4 1F000040 		.word	1073741855
 745 00e8 1E000020 		.word	536870942
 746 00ec 1A000010 		.word	268435482
 747 00f0 00000000 		.word	.LC0
 748 00f4 0B8C832E 		.word	780373003
 749 00f8 3BF0DF77 		.word	2011164731
 750 00fc 08000030 		.word	805306376
 751 0100 0A000030 		.word	805306378
 752 0104 7FEFDE49 		.word	1239347071
ARM GAS  /tmp/ccHKmbxS.s 			page 27


 753              		.cfi_endproc
 754              	.LFE889:
 756              		.section	.text.HAL_RIF_RISC_GetSlaveSecureAttributes,"ax",%progbits
 757              		.align	1
 758              		.global	HAL_RIF_RISC_GetSlaveSecureAttributes
 759              		.syntax unified
 760              		.thumb
 761              		.thumb_func
 763              	HAL_RIF_RISC_GetSlaveSecureAttributes:
 764              	.LVL50:
 765              	.LFB890:
 384:../STM32Cube_FW_N6/Drivers/STM32N6xx_HAL_Driver/Src/stm32n6xx_hal_rif.c **** 
 385:../STM32Cube_FW_N6/Drivers/STM32N6xx_HAL_Driver/Src/stm32n6xx_hal_rif.c **** /**
 386:../STM32Cube_FW_N6/Drivers/STM32N6xx_HAL_Driver/Src/stm32n6xx_hal_rif.c ****   * @brief  Get the Security and Privilege configuration of a designated slave peripheral.
 387:../STM32Cube_FW_N6/Drivers/STM32N6xx_HAL_Driver/Src/stm32n6xx_hal_rif.c ****   * @param  PeriphId specifies the index of the bus slave.
 388:../STM32Cube_FW_N6/Drivers/STM32N6xx_HAL_Driver/Src/stm32n6xx_hal_rif.c ****   *         This parameter can be one of @ref RIF_PERIPHERAL_INDEX
 389:../STM32Cube_FW_N6/Drivers/STM32N6xx_HAL_Driver/Src/stm32n6xx_hal_rif.c ****   *         bits[31:28] define the register index a peripheral belongs to, value from 0 to 5
 390:../STM32Cube_FW_N6/Drivers/STM32N6xx_HAL_Driver/Src/stm32n6xx_hal_rif.c ****   *         bits[4:0]   define the bit position within the register, value from 0 to 31
 391:../STM32Cube_FW_N6/Drivers/STM32N6xx_HAL_Driver/Src/stm32n6xx_hal_rif.c ****   * @retval can be a combination of @ref RIF_SEC_PRIV
 392:../STM32Cube_FW_N6/Drivers/STM32N6xx_HAL_Driver/Src/stm32n6xx_hal_rif.c ****   */
 393:../STM32Cube_FW_N6/Drivers/STM32N6xx_HAL_Driver/Src/stm32n6xx_hal_rif.c **** uint32_t HAL_RIF_RISC_GetSlaveSecureAttributes(uint32_t PeriphId)
 394:../STM32Cube_FW_N6/Drivers/STM32N6xx_HAL_Driver/Src/stm32n6xx_hal_rif.c **** {
 766              		.loc 1 394 1 is_stmt 1 view -0
 767              		.cfi_startproc
 768              		@ args = 0, pretend = 0, frame = 0
 769              		@ frame_needed = 0, uses_anonymous_args = 0
 395:../STM32Cube_FW_N6/Drivers/STM32N6xx_HAL_Driver/Src/stm32n6xx_hal_rif.c ****   uint32_t sec_attr;
 770              		.loc 1 395 3 view .LVU178
 396:../STM32Cube_FW_N6/Drivers/STM32N6xx_HAL_Driver/Src/stm32n6xx_hal_rif.c ****   const __IO uint32_t *p_sec_reg;
 771              		.loc 1 396 3 view .LVU179
 397:../STM32Cube_FW_N6/Drivers/STM32N6xx_HAL_Driver/Src/stm32n6xx_hal_rif.c **** 
 398:../STM32Cube_FW_N6/Drivers/STM32N6xx_HAL_Driver/Src/stm32n6xx_hal_rif.c ****   assert_param(IS_RIF_RISC_PERIPH_INDEX(PeriphId) || IS_RIF_RCC_PERIPH_INDEX(PeriphId));
 772              		.loc 1 398 3 view .LVU180
 773 0000 294B     		ldr	r3, .L94
 394:../STM32Cube_FW_N6/Drivers/STM32N6xx_HAL_Driver/Src/stm32n6xx_hal_rif.c ****   uint32_t sec_attr;
 774              		.loc 1 394 1 is_stmt 0 view .LVU181
 775 0002 10B5     		push	{r4, lr}
 776              		.cfi_def_cfa_offset 8
 777              		.cfi_offset 4, -8
 778              		.cfi_offset 14, -4
 779 0004 9842     		cmp	r0, r3
 394:../STM32Cube_FW_N6/Drivers/STM32N6xx_HAL_Driver/Src/stm32n6xx_hal_rif.c ****   uint32_t sec_attr;
 780              		.loc 1 394 1 view .LVU182
 781 0006 0446     		mov	r4, r0
 782 0008 3FD8     		bhi	.L79
 783 000a 1E3B     		subs	r3, r3, #30
 784 000c 9842     		cmp	r0, r3
 785 000e 1ED8     		bhi	.L80
 786 0010 264B     		ldr	r3, .L94+4
 787 0012 9842     		cmp	r0, r3
 788 0014 2ED8     		bhi	.L81
 789 0016 B0F1005F 		cmp	r0, #536870912
 790 001a 1DD2     		bcs	.L82
 791 001c 244B     		ldr	r3, .L94+8
 792 001e 9842     		cmp	r0, r3
 793 0020 23D8     		bhi	.L83
 794 0022 C21F     		subs	r2, r0, #7
ARM GAS  /tmp/ccHKmbxS.s 			page 28


 795 0024 223B     		subs	r3, r3, #34
 796 0026 9A42     		cmp	r2, r3
 797 0028 1AD9     		bls	.L89
 798              	.LVL51:
 799              	.L84:
 399:../STM32Cube_FW_N6/Drivers/STM32N6xx_HAL_Driver/Src/stm32n6xx_hal_rif.c **** 
 400:../STM32Cube_FW_N6/Drivers/STM32N6xx_HAL_Driver/Src/stm32n6xx_hal_rif.c ****   p_sec_reg = &(RIFSC->RISC_SECCFGRx[PeriphId >> RIF_PERIPH_REG_SHIFT]);
 800              		.loc 1 400 3 is_stmt 1 view .LVU183
 801              		.loc 1 400 13 is_stmt 0 view .LVU184
 802 002a 224B     		ldr	r3, .L94+12
 803              		.loc 1 400 47 view .LVU185
 804 002c 220F     		lsrs	r2, r4, #28
 805              	.LVL52:
 401:../STM32Cube_FW_N6/Drivers/STM32N6xx_HAL_Driver/Src/stm32n6xx_hal_rif.c ****   sec_attr = ((*p_sec_reg & ((uint32_t)RIF_ATTRIBUTE_SEC << (PeriphId & RIF_PERIPH_BIT_POSITION))) 
 806              		.loc 1 401 3 is_stmt 1 view .LVU186
 807              		.loc 1 401 16 is_stmt 0 view .LVU187
 808 002e 53F82200 		ldr	r0, [r3, r2, lsl #2]
 809              		.loc 1 401 58 view .LVU188
 810 0032 0123     		movs	r3, #1
 811              	.LVL53:
 402:../STM32Cube_FW_N6/Drivers/STM32N6xx_HAL_Driver/Src/stm32n6xx_hal_rif.c **** 
 403:../STM32Cube_FW_N6/Drivers/STM32N6xx_HAL_Driver/Src/stm32n6xx_hal_rif.c ****   p_sec_reg = &(RIFSC->RISC_PRIVCFGRx[PeriphId >> RIF_PERIPH_REG_SHIFT]);
 812              		.loc 1 403 13 view .LVU189
 813 0034 2049     		ldr	r1, .L94+16
 401:../STM32Cube_FW_N6/Drivers/STM32N6xx_HAL_Driver/Src/stm32n6xx_hal_rif.c ****   sec_attr = ((*p_sec_reg & ((uint32_t)RIF_ATTRIBUTE_SEC << (PeriphId & RIF_PERIPH_BIT_POSITION))) 
 814              		.loc 1 401 71 view .LVU190
 815 0036 04F01F04 		and	r4, r4, #31
 816              	.LVL54:
 404:../STM32Cube_FW_N6/Drivers/STM32N6xx_HAL_Driver/Src/stm32n6xx_hal_rif.c ****   sec_attr |= (((*p_sec_reg & ((uint32_t)RIF_ATTRIBUTE_SEC << (PeriphId & RIF_PERIPH_BIT_POSITION))
 817              		.loc 1 404 18 view .LVU191
 818 003a 51F82220 		ldr	r2, [r1, r2, lsl #2]
 819              	.LVL55:
 401:../STM32Cube_FW_N6/Drivers/STM32N6xx_HAL_Driver/Src/stm32n6xx_hal_rif.c ****   sec_attr = ((*p_sec_reg & ((uint32_t)RIF_ATTRIBUTE_SEC << (PeriphId & RIF_PERIPH_BIT_POSITION))) 
 820              		.loc 1 401 58 view .LVU192
 821 003e A340     		lsls	r3, r3, r4
 401:../STM32Cube_FW_N6/Drivers/STM32N6xx_HAL_Driver/Src/stm32n6xx_hal_rif.c ****   sec_attr = ((*p_sec_reg & ((uint32_t)RIF_ATTRIBUTE_SEC << (PeriphId & RIF_PERIPH_BIT_POSITION))) 
 822              		.loc 1 401 27 view .LVU193
 823 0040 1840     		ands	r0, r0, r3
 824              		.loc 1 404 29 view .LVU194
 825 0042 1340     		ands	r3, r3, r2
 401:../STM32Cube_FW_N6/Drivers/STM32N6xx_HAL_Driver/Src/stm32n6xx_hal_rif.c ****   sec_attr = ((*p_sec_reg & ((uint32_t)RIF_ATTRIBUTE_SEC << (PeriphId & RIF_PERIPH_BIT_POSITION))) 
 826              		.loc 1 401 12 view .LVU195
 827 0044 E040     		lsrs	r0, r0, r4
 828              	.LVL56:
 403:../STM32Cube_FW_N6/Drivers/STM32N6xx_HAL_Driver/Src/stm32n6xx_hal_rif.c ****   sec_attr |= (((*p_sec_reg & ((uint32_t)RIF_ATTRIBUTE_SEC << (PeriphId & RIF_PERIPH_BIT_POSITION))
 829              		.loc 1 403 3 is_stmt 1 view .LVU196
 830              		.loc 1 404 3 view .LVU197
 405:../STM32Cube_FW_N6/Drivers/STM32N6xx_HAL_Driver/Src/stm32n6xx_hal_rif.c **** 
 406:../STM32Cube_FW_N6/Drivers/STM32N6xx_HAL_Driver/Src/stm32n6xx_hal_rif.c ****   return sec_attr;
 831              		.loc 1 406 3 view .LVU198
 404:../STM32Cube_FW_N6/Drivers/STM32N6xx_HAL_Driver/Src/stm32n6xx_hal_rif.c **** 
 832              		.loc 1 404 102 is_stmt 0 view .LVU199
 833 0046 E340     		lsrs	r3, r3, r4
 407:../STM32Cube_FW_N6/Drivers/STM32N6xx_HAL_Driver/Src/stm32n6xx_hal_rif.c **** }
 834              		.loc 1 407 1 view .LVU200
 835 0048 40EA4300 		orr	r0, r0, r3, lsl #1
 836 004c 10BD     		pop	{r4, pc}
ARM GAS  /tmp/ccHKmbxS.s 			page 29


 837              	.LVL57:
 838              	.L80:
 839              		.loc 1 407 1 view .LVU201
 840 004e 00F14042 		add	r2, r0, #-1073741824
 841 0052 1A4B     		ldr	r3, .L94+20
 842 0054 023A     		subs	r2, r2, #2
 843 0056 1DE0     		b	.L90
 844              	.L82:
 845              		.loc 1 407 1 view .LVU202
 846 0058 194B     		ldr	r3, .L94+24
 847 005a 00F16042 		add	r2, r0, #-536870912
 848 005e 19E0     		b	.L90
 849              	.L89:
 850              		.loc 1 407 1 view .LVU203
 851 0060 A0F10803 		sub	r3, r0, #8
 852 0064 172B     		cmp	r3, #23
 853              	.L93:
 854              		.loc 1 407 1 view .LVU204
 855 0066 E0D9     		bls	.L84
 856 0068 17E0     		b	.L86
 857              	.L83:
 858 006a 00F17043 		add	r3, r0, #-268435456
 859 006e 1C3B     		subs	r3, r3, #28
 860 0070 022B     		cmp	r3, #2
 861 0072 F8E7     		b	.L93
 862              	.L81:
 863              		.loc 1 407 1 view .LVU205
 864 0074 134B     		ldr	r3, .L94+28
 865 0076 9842     		cmp	r0, r3
 866 0078 03D8     		bhi	.L87
 867 007a B0F1405F 		cmp	r0, #805306368
 868 007e D4D2     		bcs	.L84
 869 0080 0BE0     		b	.L86
 870              	.L87:
 871 0082 114B     		ldr	r3, .L94+32
 872 0084 9842     		cmp	r0, r3
 873 0086 D0D0     		beq	.L84
 874 0088 07E0     		b	.L86
 875              	.L79:
 876              		.loc 1 407 1 view .LVU206
 877 008a 00F13042 		add	r2, r0, #-1342177280
 878 008e 1E2A     		cmp	r2, #30
 879 0090 03D8     		bhi	.L86
 880 0092 0E4B     		ldr	r3, .L94+36
 881              	.L90:
 882              		.loc 1 407 1 view .LVU207
 883 0094 D340     		lsrs	r3, r3, r2
 884 0096 DB07     		lsls	r3, r3, #31
 885 0098 C7D4     		bmi	.L84
 886              	.L86:
 398:../STM32Cube_FW_N6/Drivers/STM32N6xx_HAL_Driver/Src/stm32n6xx_hal_rif.c **** 
 887              		.loc 1 398 3 discriminator 122 view .LVU208
 888 009a 4FF4C771 		mov	r1, #398
 889 009e 0C48     		ldr	r0, .L94+40
 890              	.LVL58:
 398:../STM32Cube_FW_N6/Drivers/STM32N6xx_HAL_Driver/Src/stm32n6xx_hal_rif.c **** 
 891              		.loc 1 398 3 discriminator 122 view .LVU209
ARM GAS  /tmp/ccHKmbxS.s 			page 30


 892 00a0 FFF7FEFF 		bl	assert_failed
 893              	.LVL59:
 894 00a4 C1E7     		b	.L84
 895              	.L95:
 896 00a6 00BF     		.align	2
 897              	.L94:
 898 00a8 1F000040 		.word	1073741855
 899 00ac 1E000020 		.word	536870942
 900 00b0 1A000010 		.word	268435482
 901 00b4 10400254 		.word	1409433616
 902 00b8 30400254 		.word	1409433648
 903 00bc 0B8C832E 		.word	780373003
 904 00c0 3BF0DF77 		.word	2011164731
 905 00c4 08000030 		.word	805306376
 906 00c8 0A000030 		.word	805306378
 907 00cc 7FEFDE49 		.word	1239347071
 908 00d0 00000000 		.word	.LC0
 909              		.cfi_endproc
 910              	.LFE890:
 912              		.section	.text.HAL_RIF_RISC_SlaveConfigLock,"ax",%progbits
 913              		.align	1
 914              		.global	HAL_RIF_RISC_SlaveConfigLock
 915              		.syntax unified
 916              		.thumb
 917              		.thumb_func
 919              	HAL_RIF_RISC_SlaveConfigLock:
 920              	.LVL60:
 921              	.LFB891:
 408:../STM32Cube_FW_N6/Drivers/STM32N6xx_HAL_Driver/Src/stm32n6xx_hal_rif.c **** 
 409:../STM32Cube_FW_N6/Drivers/STM32N6xx_HAL_Driver/Src/stm32n6xx_hal_rif.c **** #if defined(CPU_AS_TRUSTED_DOMAIN)
 410:../STM32Cube_FW_N6/Drivers/STM32N6xx_HAL_Driver/Src/stm32n6xx_hal_rif.c **** /**
 411:../STM32Cube_FW_N6/Drivers/STM32N6xx_HAL_Driver/Src/stm32n6xx_hal_rif.c ****   * @brief  Lock the Isolation and Security configuration of the designated slave peripheral.
 412:../STM32Cube_FW_N6/Drivers/STM32N6xx_HAL_Driver/Src/stm32n6xx_hal_rif.c ****   * @note   This API is protected by the Trusted Domain compilation directive.
 413:../STM32Cube_FW_N6/Drivers/STM32N6xx_HAL_Driver/Src/stm32n6xx_hal_rif.c ****   * @param  PeriphId specifies the index of the bus slave.
 414:../STM32Cube_FW_N6/Drivers/STM32N6xx_HAL_Driver/Src/stm32n6xx_hal_rif.c ****   *         This parameter can be one of @ref RIF_PERIPHERAL_INDEX
 415:../STM32Cube_FW_N6/Drivers/STM32N6xx_HAL_Driver/Src/stm32n6xx_hal_rif.c ****   *         bits[31:28] define the register index a peripheral belongs to, value from 0 to 5
 416:../STM32Cube_FW_N6/Drivers/STM32N6xx_HAL_Driver/Src/stm32n6xx_hal_rif.c ****   *         bits[4:0]   define the bit position within the register, value from 0 to 31
 417:../STM32Cube_FW_N6/Drivers/STM32N6xx_HAL_Driver/Src/stm32n6xx_hal_rif.c ****   * @retval None
 418:../STM32Cube_FW_N6/Drivers/STM32N6xx_HAL_Driver/Src/stm32n6xx_hal_rif.c ****   */
 419:../STM32Cube_FW_N6/Drivers/STM32N6xx_HAL_Driver/Src/stm32n6xx_hal_rif.c **** void HAL_RIF_RISC_SlaveConfigLock(uint32_t PeriphId)
 420:../STM32Cube_FW_N6/Drivers/STM32N6xx_HAL_Driver/Src/stm32n6xx_hal_rif.c **** {
 922              		.loc 1 420 1 is_stmt 1 view -0
 923              		.cfi_startproc
 924              		@ args = 0, pretend = 0, frame = 0
 925              		@ frame_needed = 0, uses_anonymous_args = 0
 421:../STM32Cube_FW_N6/Drivers/STM32N6xx_HAL_Driver/Src/stm32n6xx_hal_rif.c ****   __IO uint32_t *p_lock_reg;
 926              		.loc 1 421 3 view .LVU211
 422:../STM32Cube_FW_N6/Drivers/STM32N6xx_HAL_Driver/Src/stm32n6xx_hal_rif.c **** 
 423:../STM32Cube_FW_N6/Drivers/STM32N6xx_HAL_Driver/Src/stm32n6xx_hal_rif.c ****   assert_param(IS_RIF_RISC_PERIPH_INDEX(PeriphId) || IS_RIF_RCC_PERIPH_INDEX(PeriphId));
 927              		.loc 1 423 3 view .LVU212
 928 0000 264B     		ldr	r3, .L112
 420:../STM32Cube_FW_N6/Drivers/STM32N6xx_HAL_Driver/Src/stm32n6xx_hal_rif.c ****   __IO uint32_t *p_lock_reg;
 929              		.loc 1 420 1 is_stmt 0 view .LVU213
 930 0002 10B5     		push	{r4, lr}
 931              		.cfi_def_cfa_offset 8
 932              		.cfi_offset 4, -8
 933              		.cfi_offset 14, -4
ARM GAS  /tmp/ccHKmbxS.s 			page 31


 934 0004 9842     		cmp	r0, r3
 420:../STM32Cube_FW_N6/Drivers/STM32N6xx_HAL_Driver/Src/stm32n6xx_hal_rif.c ****   __IO uint32_t *p_lock_reg;
 935              		.loc 1 420 1 view .LVU214
 936 0006 0446     		mov	r4, r0
 937 0008 39D8     		bhi	.L97
 938 000a 1E3B     		subs	r3, r3, #30
 939 000c 9842     		cmp	r0, r3
 940 000e 18D8     		bhi	.L98
 941 0010 234B     		ldr	r3, .L112+4
 942 0012 9842     		cmp	r0, r3
 943 0014 28D8     		bhi	.L99
 944 0016 B0F1005F 		cmp	r0, #536870912
 945 001a 17D2     		bcs	.L100
 946 001c 214B     		ldr	r3, .L112+8
 947 001e 9842     		cmp	r0, r3
 948 0020 1DD8     		bhi	.L101
 949 0022 C21F     		subs	r2, r0, #7
 950 0024 223B     		subs	r3, r3, #34
 951 0026 9A42     		cmp	r2, r3
 952 0028 14D9     		bls	.L107
 953              	.LVL61:
 954              	.L102:
 424:../STM32Cube_FW_N6/Drivers/STM32N6xx_HAL_Driver/Src/stm32n6xx_hal_rif.c **** 
 425:../STM32Cube_FW_N6/Drivers/STM32N6xx_HAL_Driver/Src/stm32n6xx_hal_rif.c ****   /* Set RISC Peripheral Lock bit */
 426:../STM32Cube_FW_N6/Drivers/STM32N6xx_HAL_Driver/Src/stm32n6xx_hal_rif.c ****   p_lock_reg = &(RIFSC->RISC_RCFGLOCKRx[PeriphId >> RIF_PERIPH_REG_SHIFT]);
 955              		.loc 1 426 3 is_stmt 1 view .LVU215
 427:../STM32Cube_FW_N6/Drivers/STM32N6xx_HAL_Driver/Src/stm32n6xx_hal_rif.c ****   *p_lock_reg |= (RIF_LOCK_ENABLE << (PeriphId & RIF_PERIPH_BIT_POSITION));
 956              		.loc 1 427 35 is_stmt 0 view .LVU216
 957 002a 0123     		movs	r3, #1
 426:../STM32Cube_FW_N6/Drivers/STM32N6xx_HAL_Driver/Src/stm32n6xx_hal_rif.c ****   *p_lock_reg |= (RIF_LOCK_ENABLE << (PeriphId & RIF_PERIPH_BIT_POSITION));
 958              		.loc 1 426 14 view .LVU217
 959 002c 1E4A     		ldr	r2, .L112+12
 426:../STM32Cube_FW_N6/Drivers/STM32N6xx_HAL_Driver/Src/stm32n6xx_hal_rif.c ****   *p_lock_reg |= (RIF_LOCK_ENABLE << (PeriphId & RIF_PERIPH_BIT_POSITION));
 960              		.loc 1 426 50 view .LVU218
 961 002e 210F     		lsrs	r1, r4, #28
 962              	.LVL62:
 963              		.loc 1 427 3 is_stmt 1 view .LVU219
 964 0030 52F82100 		ldr	r0, [r2, r1, lsl #2]
 965              		.loc 1 427 48 is_stmt 0 view .LVU220
 966 0034 04F01F04 		and	r4, r4, #31
 967              	.LVL63:
 968              		.loc 1 427 35 view .LVU221
 969 0038 A340     		lsls	r3, r3, r4
 970              		.loc 1 427 15 view .LVU222
 971 003a 0343     		orrs	r3, r3, r0
 972 003c 42F82130 		str	r3, [r2, r1, lsl #2]
 428:../STM32Cube_FW_N6/Drivers/STM32N6xx_HAL_Driver/Src/stm32n6xx_hal_rif.c **** }
 973              		.loc 1 428 1 view .LVU223
 974 0040 10BD     		pop	{r4, pc}
 975              	.LVL64:
 976              	.L98:
 977              		.loc 1 428 1 view .LVU224
 978 0042 00F14042 		add	r2, r0, #-1073741824
 979 0046 194B     		ldr	r3, .L112+16
 980 0048 023A     		subs	r2, r2, #2
 981 004a 1DE0     		b	.L108
 982              	.L100:
ARM GAS  /tmp/ccHKmbxS.s 			page 32


 983              		.loc 1 428 1 view .LVU225
 984 004c 184B     		ldr	r3, .L112+20
 985 004e 00F16042 		add	r2, r0, #-536870912
 986 0052 19E0     		b	.L108
 987              	.L107:
 988              		.loc 1 428 1 view .LVU226
 989 0054 A0F10803 		sub	r3, r0, #8
 990 0058 172B     		cmp	r3, #23
 991              	.L111:
 992              		.loc 1 428 1 view .LVU227
 993 005a E6D9     		bls	.L102
 994 005c 17E0     		b	.L104
 995              	.L101:
 996 005e 00F17043 		add	r3, r0, #-268435456
 997 0062 1C3B     		subs	r3, r3, #28
 998 0064 022B     		cmp	r3, #2
 999 0066 F8E7     		b	.L111
 1000              	.L99:
 1001              		.loc 1 428 1 view .LVU228
 1002 0068 124B     		ldr	r3, .L112+24
 1003 006a 9842     		cmp	r0, r3
 1004 006c 03D8     		bhi	.L105
 1005 006e B0F1405F 		cmp	r0, #805306368
 1006 0072 DAD2     		bcs	.L102
 1007 0074 0BE0     		b	.L104
 1008              	.L105:
 1009 0076 104B     		ldr	r3, .L112+28
 1010 0078 9842     		cmp	r0, r3
 1011 007a D6D0     		beq	.L102
 1012 007c 07E0     		b	.L104
 1013              	.L97:
 1014              		.loc 1 428 1 view .LVU229
 1015 007e 00F13042 		add	r2, r0, #-1342177280
 1016 0082 1E2A     		cmp	r2, #30
 1017 0084 03D8     		bhi	.L104
 1018 0086 0D4B     		ldr	r3, .L112+32
 1019              	.L108:
 1020              		.loc 1 428 1 view .LVU230
 1021 0088 D340     		lsrs	r3, r3, r2
 1022 008a DB07     		lsls	r3, r3, #31
 1023 008c CDD4     		bmi	.L102
 1024              	.L104:
 423:../STM32Cube_FW_N6/Drivers/STM32N6xx_HAL_Driver/Src/stm32n6xx_hal_rif.c **** 
 1025              		.loc 1 423 3 discriminator 122 view .LVU231
 1026 008e 40F2A711 		movw	r1, #423
 1027 0092 0B48     		ldr	r0, .L112+36
 1028              	.LVL65:
 423:../STM32Cube_FW_N6/Drivers/STM32N6xx_HAL_Driver/Src/stm32n6xx_hal_rif.c **** 
 1029              		.loc 1 423 3 discriminator 122 view .LVU232
 1030 0094 FFF7FEFF 		bl	assert_failed
 1031              	.LVL66:
 1032 0098 C7E7     		b	.L102
 1033              	.L113:
 1034 009a 00BF     		.align	2
 1035              	.L112:
 1036 009c 1F000040 		.word	1073741855
 1037 00a0 1E000020 		.word	536870942
ARM GAS  /tmp/ccHKmbxS.s 			page 33


 1038 00a4 1A000010 		.word	268435482
 1039 00a8 50400254 		.word	1409433680
 1040 00ac 0B8C832E 		.word	780373003
 1041 00b0 3BF0DF77 		.word	2011164731
 1042 00b4 08000030 		.word	805306376
 1043 00b8 0A000030 		.word	805306378
 1044 00bc 7FEFDE49 		.word	1239347071
 1045 00c0 00000000 		.word	.LC0
 1046              		.cfi_endproc
 1047              	.LFE891:
 1049              		.section	.text.HAL_RIF_RISC_GetSlaveConfigLock,"ax",%progbits
 1050              		.align	1
 1051              		.global	HAL_RIF_RISC_GetSlaveConfigLock
 1052              		.syntax unified
 1053              		.thumb
 1054              		.thumb_func
 1056              	HAL_RIF_RISC_GetSlaveConfigLock:
 1057              	.LVL67:
 1058              	.LFB892:
 429:../STM32Cube_FW_N6/Drivers/STM32N6xx_HAL_Driver/Src/stm32n6xx_hal_rif.c **** #endif /* defined(CPU_AS_TRUSTED_DOMAIN) */
 430:../STM32Cube_FW_N6/Drivers/STM32N6xx_HAL_Driver/Src/stm32n6xx_hal_rif.c **** 
 431:../STM32Cube_FW_N6/Drivers/STM32N6xx_HAL_Driver/Src/stm32n6xx_hal_rif.c **** /**
 432:../STM32Cube_FW_N6/Drivers/STM32N6xx_HAL_Driver/Src/stm32n6xx_hal_rif.c ****   * @brief  Get the Isolation and Security configuration lock status.
 433:../STM32Cube_FW_N6/Drivers/STM32N6xx_HAL_Driver/Src/stm32n6xx_hal_rif.c ****   * @param  PeriphId specifies the index of the bus slave.
 434:../STM32Cube_FW_N6/Drivers/STM32N6xx_HAL_Driver/Src/stm32n6xx_hal_rif.c ****   *         This parameter can be one of @ref RIF_PERIPHERAL_INDEX
 435:../STM32Cube_FW_N6/Drivers/STM32N6xx_HAL_Driver/Src/stm32n6xx_hal_rif.c ****   *         bits[31:28] define the register index a peripheral belongs to, value from 0 to 5
 436:../STM32Cube_FW_N6/Drivers/STM32N6xx_HAL_Driver/Src/stm32n6xx_hal_rif.c ****   *         bits[4:0]   define the bit position within the register, value from 0 to 31
 437:../STM32Cube_FW_N6/Drivers/STM32N6xx_HAL_Driver/Src/stm32n6xx_hal_rif.c ****   * @retval 1 if the Isolation and Security configuration is locked, else 0
 438:../STM32Cube_FW_N6/Drivers/STM32N6xx_HAL_Driver/Src/stm32n6xx_hal_rif.c ****   */
 439:../STM32Cube_FW_N6/Drivers/STM32N6xx_HAL_Driver/Src/stm32n6xx_hal_rif.c **** uint32_t HAL_RIF_RISC_GetSlaveConfigLock(uint32_t PeriphId)
 440:../STM32Cube_FW_N6/Drivers/STM32N6xx_HAL_Driver/Src/stm32n6xx_hal_rif.c **** {
 1059              		.loc 1 440 1 is_stmt 1 view -0
 1060              		.cfi_startproc
 1061              		@ args = 0, pretend = 0, frame = 0
 1062              		@ frame_needed = 0, uses_anonymous_args = 0
 441:../STM32Cube_FW_N6/Drivers/STM32N6xx_HAL_Driver/Src/stm32n6xx_hal_rif.c ****   uint32_t lock_status;
 1063              		.loc 1 441 3 view .LVU234
 442:../STM32Cube_FW_N6/Drivers/STM32N6xx_HAL_Driver/Src/stm32n6xx_hal_rif.c ****   const __IO uint32_t *p_lock_reg;
 1064              		.loc 1 442 3 view .LVU235
 443:../STM32Cube_FW_N6/Drivers/STM32N6xx_HAL_Driver/Src/stm32n6xx_hal_rif.c **** 
 444:../STM32Cube_FW_N6/Drivers/STM32N6xx_HAL_Driver/Src/stm32n6xx_hal_rif.c ****   assert_param(IS_RIF_RISC_PERIPH_INDEX(PeriphId) || IS_RIF_RCC_PERIPH_INDEX(PeriphId));
 1065              		.loc 1 444 3 view .LVU236
 1066 0000 254B     		ldr	r3, .L130
 440:../STM32Cube_FW_N6/Drivers/STM32N6xx_HAL_Driver/Src/stm32n6xx_hal_rif.c ****   uint32_t lock_status;
 1067              		.loc 1 440 1 is_stmt 0 view .LVU237
 1068 0002 10B5     		push	{r4, lr}
 1069              		.cfi_def_cfa_offset 8
 1070              		.cfi_offset 4, -8
 1071              		.cfi_offset 14, -4
 1072 0004 9842     		cmp	r0, r3
 440:../STM32Cube_FW_N6/Drivers/STM32N6xx_HAL_Driver/Src/stm32n6xx_hal_rif.c ****   uint32_t lock_status;
 1073              		.loc 1 440 1 view .LVU238
 1074 0006 0446     		mov	r4, r0
 1075 0008 38D8     		bhi	.L115
 1076 000a 1E3B     		subs	r3, r3, #30
 1077 000c 9842     		cmp	r0, r3
 1078 000e 17D8     		bhi	.L116
ARM GAS  /tmp/ccHKmbxS.s 			page 34


 1079 0010 224B     		ldr	r3, .L130+4
 1080 0012 9842     		cmp	r0, r3
 1081 0014 27D8     		bhi	.L117
 1082 0016 B0F1005F 		cmp	r0, #536870912
 1083 001a 16D2     		bcs	.L118
 1084 001c 204B     		ldr	r3, .L130+8
 1085 001e 9842     		cmp	r0, r3
 1086 0020 1CD8     		bhi	.L119
 1087 0022 C21F     		subs	r2, r0, #7
 1088 0024 223B     		subs	r3, r3, #34
 1089 0026 9A42     		cmp	r2, r3
 1090 0028 13D9     		bls	.L125
 1091              	.LVL68:
 1092              	.L120:
 445:../STM32Cube_FW_N6/Drivers/STM32N6xx_HAL_Driver/Src/stm32n6xx_hal_rif.c **** 
 446:../STM32Cube_FW_N6/Drivers/STM32N6xx_HAL_Driver/Src/stm32n6xx_hal_rif.c ****   p_lock_reg = &(RIFSC->RISC_RCFGLOCKRx[PeriphId >> RIF_PERIPH_REG_SHIFT]);
 1093              		.loc 1 446 3 is_stmt 1 view .LVU239
 447:../STM32Cube_FW_N6/Drivers/STM32N6xx_HAL_Driver/Src/stm32n6xx_hal_rif.c ****   lock_status = ((*p_lock_reg & (RIF_LOCK_ENABLE << (PeriphId & RIF_PERIPH_BIT_POSITION))) >> (Peri
 1094              		.loc 1 447 50 is_stmt 0 view .LVU240
 1095 002a 0120     		movs	r0, #1
 446:../STM32Cube_FW_N6/Drivers/STM32N6xx_HAL_Driver/Src/stm32n6xx_hal_rif.c ****   lock_status = ((*p_lock_reg & (RIF_LOCK_ENABLE << (PeriphId & RIF_PERIPH_BIT_POSITION))) >> (Peri
 1096              		.loc 1 446 14 view .LVU241
 1097 002c 1D4B     		ldr	r3, .L130+12
 446:../STM32Cube_FW_N6/Drivers/STM32N6xx_HAL_Driver/Src/stm32n6xx_hal_rif.c ****   lock_status = ((*p_lock_reg & (RIF_LOCK_ENABLE << (PeriphId & RIF_PERIPH_BIT_POSITION))) >> (Peri
 1098              		.loc 1 446 50 view .LVU242
 1099 002e 220F     		lsrs	r2, r4, #28
 1100              	.LVL69:
 1101              		.loc 1 447 3 is_stmt 1 view .LVU243
 1102              		.loc 1 447 19 is_stmt 0 view .LVU244
 1103 0030 53F82230 		ldr	r3, [r3, r2, lsl #2]
 1104              	.LVL70:
 1105              		.loc 1 447 63 view .LVU245
 1106 0034 04F01F04 		and	r4, r4, #31
 1107              	.LVL71:
 448:../STM32Cube_FW_N6/Drivers/STM32N6xx_HAL_Driver/Src/stm32n6xx_hal_rif.c **** 
 449:../STM32Cube_FW_N6/Drivers/STM32N6xx_HAL_Driver/Src/stm32n6xx_hal_rif.c ****   return lock_status;
 1108              		.loc 1 449 3 is_stmt 1 view .LVU246
 447:../STM32Cube_FW_N6/Drivers/STM32N6xx_HAL_Driver/Src/stm32n6xx_hal_rif.c **** 
 1109              		.loc 1 447 50 is_stmt 0 view .LVU247
 1110 0038 A040     		lsls	r0, r0, r4
 447:../STM32Cube_FW_N6/Drivers/STM32N6xx_HAL_Driver/Src/stm32n6xx_hal_rif.c **** 
 1111              		.loc 1 447 31 view .LVU248
 1112 003a 1840     		ands	r0, r0, r3
 450:../STM32Cube_FW_N6/Drivers/STM32N6xx_HAL_Driver/Src/stm32n6xx_hal_rif.c **** }
 1113              		.loc 1 450 1 view .LVU249
 1114 003c E040     		lsrs	r0, r0, r4
 1115              	.LVL72:
 1116              		.loc 1 450 1 view .LVU250
 1117 003e 10BD     		pop	{r4, pc}
 1118              	.LVL73:
 1119              	.L116:
 1120              		.loc 1 450 1 view .LVU251
 1121 0040 00F14042 		add	r2, r0, #-1073741824
 1122 0044 184B     		ldr	r3, .L130+16
 1123 0046 023A     		subs	r2, r2, #2
 1124 0048 1DE0     		b	.L126
 1125              	.L118:
ARM GAS  /tmp/ccHKmbxS.s 			page 35


 1126              		.loc 1 450 1 view .LVU252
 1127 004a 184B     		ldr	r3, .L130+20
 1128 004c 00F16042 		add	r2, r0, #-536870912
 1129 0050 19E0     		b	.L126
 1130              	.L125:
 1131              		.loc 1 450 1 view .LVU253
 1132 0052 A0F10803 		sub	r3, r0, #8
 1133 0056 172B     		cmp	r3, #23
 1134              	.L129:
 1135              		.loc 1 450 1 view .LVU254
 1136 0058 E7D9     		bls	.L120
 1137 005a 17E0     		b	.L122
 1138              	.L119:
 1139 005c 00F17043 		add	r3, r0, #-268435456
 1140 0060 1C3B     		subs	r3, r3, #28
 1141 0062 022B     		cmp	r3, #2
 1142 0064 F8E7     		b	.L129
 1143              	.L117:
 1144              		.loc 1 450 1 view .LVU255
 1145 0066 124B     		ldr	r3, .L130+24
 1146 0068 9842     		cmp	r0, r3
 1147 006a 03D8     		bhi	.L123
 1148 006c B0F1405F 		cmp	r0, #805306368
 1149 0070 DBD2     		bcs	.L120
 1150 0072 0BE0     		b	.L122
 1151              	.L123:
 1152 0074 0F4B     		ldr	r3, .L130+28
 1153 0076 9842     		cmp	r0, r3
 1154 0078 D7D0     		beq	.L120
 1155 007a 07E0     		b	.L122
 1156              	.L115:
 1157              		.loc 1 450 1 view .LVU256
 1158 007c 00F13042 		add	r2, r0, #-1342177280
 1159 0080 1E2A     		cmp	r2, #30
 1160 0082 03D8     		bhi	.L122
 1161 0084 0C4B     		ldr	r3, .L130+32
 1162              	.L126:
 1163              		.loc 1 450 1 view .LVU257
 1164 0086 D340     		lsrs	r3, r3, r2
 1165 0088 DB07     		lsls	r3, r3, #31
 1166 008a CED4     		bmi	.L120
 1167              	.L122:
 444:../STM32Cube_FW_N6/Drivers/STM32N6xx_HAL_Driver/Src/stm32n6xx_hal_rif.c **** 
 1168              		.loc 1 444 3 discriminator 122 view .LVU258
 1169 008c 4FF4DE71 		mov	r1, #444
 1170 0090 0A48     		ldr	r0, .L130+36
 1171              	.LVL74:
 444:../STM32Cube_FW_N6/Drivers/STM32N6xx_HAL_Driver/Src/stm32n6xx_hal_rif.c **** 
 1172              		.loc 1 444 3 discriminator 122 view .LVU259
 1173 0092 FFF7FEFF 		bl	assert_failed
 1174              	.LVL75:
 1175 0096 C8E7     		b	.L120
 1176              	.L131:
 1177              		.align	2
 1178              	.L130:
 1179 0098 1F000040 		.word	1073741855
 1180 009c 1E000020 		.word	536870942
ARM GAS  /tmp/ccHKmbxS.s 			page 36


 1181 00a0 1A000010 		.word	268435482
 1182 00a4 50400254 		.word	1409433680
 1183 00a8 0B8C832E 		.word	780373003
 1184 00ac 3BF0DF77 		.word	2011164731
 1185 00b0 08000030 		.word	805306376
 1186 00b4 0A000030 		.word	805306378
 1187 00b8 7FEFDE49 		.word	1239347071
 1188 00bc 00000000 		.word	.LC0
 1189              		.cfi_endproc
 1190              	.LFE892:
 1192              		.section	.text.HAL_RIF_RISAF_Lock,"ax",%progbits
 1193              		.align	1
 1194              		.global	HAL_RIF_RISAF_Lock
 1195              		.syntax unified
 1196              		.thumb
 1197              		.thumb_func
 1199              	HAL_RIF_RISAF_Lock:
 1200              	.LVL76:
 1201              	.LFB893:
 451:../STM32Cube_FW_N6/Drivers/STM32N6xx_HAL_Driver/Src/stm32n6xx_hal_rif.c **** 
 452:../STM32Cube_FW_N6/Drivers/STM32N6xx_HAL_Driver/Src/stm32n6xx_hal_rif.c **** /**
 453:../STM32Cube_FW_N6/Drivers/STM32N6xx_HAL_Driver/Src/stm32n6xx_hal_rif.c ****   * @}
 454:../STM32Cube_FW_N6/Drivers/STM32N6xx_HAL_Driver/Src/stm32n6xx_hal_rif.c ****   */
 455:../STM32Cube_FW_N6/Drivers/STM32N6xx_HAL_Driver/Src/stm32n6xx_hal_rif.c **** 
 456:../STM32Cube_FW_N6/Drivers/STM32N6xx_HAL_Driver/Src/stm32n6xx_hal_rif.c **** /** @defgroup RIF_Exported_Functions_Group4  RISAF Configuration functions
 457:../STM32Cube_FW_N6/Drivers/STM32N6xx_HAL_Driver/Src/stm32n6xx_hal_rif.c ****   *  @brief    RISAF Configuration functions
 458:../STM32Cube_FW_N6/Drivers/STM32N6xx_HAL_Driver/Src/stm32n6xx_hal_rif.c ****   *
 459:../STM32Cube_FW_N6/Drivers/STM32N6xx_HAL_Driver/Src/stm32n6xx_hal_rif.c **** @verbatim
 460:../STM32Cube_FW_N6/Drivers/STM32N6xx_HAL_Driver/Src/stm32n6xx_hal_rif.c ****   ==============================================================================
 461:../STM32Cube_FW_N6/Drivers/STM32N6xx_HAL_Driver/Src/stm32n6xx_hal_rif.c ****             ##### RISAF Configuration functions #####
 462:../STM32Cube_FW_N6/Drivers/STM32N6xx_HAL_Driver/Src/stm32n6xx_hal_rif.c ****   ==============================================================================
 463:../STM32Cube_FW_N6/Drivers/STM32N6xx_HAL_Driver/Src/stm32n6xx_hal_rif.c ****   [..]
 464:../STM32Cube_FW_N6/Drivers/STM32N6xx_HAL_Driver/Src/stm32n6xx_hal_rif.c ****     This section provides functions allowing to configure RISAF
 465:../STM32Cube_FW_N6/Drivers/STM32N6xx_HAL_Driver/Src/stm32n6xx_hal_rif.c ****     RISAL is Resource Isolation Slave unit for Address space protection (Full version)
 466:../STM32Cube_FW_N6/Drivers/STM32N6xx_HAL_Driver/Src/stm32n6xx_hal_rif.c **** @endverbatim
 467:../STM32Cube_FW_N6/Drivers/STM32N6xx_HAL_Driver/Src/stm32n6xx_hal_rif.c ****   * @{
 468:../STM32Cube_FW_N6/Drivers/STM32N6xx_HAL_Driver/Src/stm32n6xx_hal_rif.c ****   */
 469:../STM32Cube_FW_N6/Drivers/STM32N6xx_HAL_Driver/Src/stm32n6xx_hal_rif.c **** #if defined(CPU_AS_TRUSTED_DOMAIN)
 470:../STM32Cube_FW_N6/Drivers/STM32N6xx_HAL_Driver/Src/stm32n6xx_hal_rif.c **** /**
 471:../STM32Cube_FW_N6/Drivers/STM32N6xx_HAL_Driver/Src/stm32n6xx_hal_rif.c ****   * @brief  Lock overall configuration of RISAF.
 472:../STM32Cube_FW_N6/Drivers/STM32N6xx_HAL_Driver/Src/stm32n6xx_hal_rif.c ****   * @note   Once set, the overall configuration of RISAF cannot be modified
 473:../STM32Cube_FW_N6/Drivers/STM32N6xx_HAL_Driver/Src/stm32n6xx_hal_rif.c ****   *         upon next system reset.
 474:../STM32Cube_FW_N6/Drivers/STM32N6xx_HAL_Driver/Src/stm32n6xx_hal_rif.c ****   * @note   This API is protected by the Trusted Domain compilation directive.
 475:../STM32Cube_FW_N6/Drivers/STM32N6xx_HAL_Driver/Src/stm32n6xx_hal_rif.c ****   * @param  RISAFx specifies the RISAF instance.
 476:../STM32Cube_FW_N6/Drivers/STM32N6xx_HAL_Driver/Src/stm32n6xx_hal_rif.c ****   *         This parameter is one of the RISAF instances defined in the CMSIS.
 477:../STM32Cube_FW_N6/Drivers/STM32N6xx_HAL_Driver/Src/stm32n6xx_hal_rif.c ****   * @retval None
 478:../STM32Cube_FW_N6/Drivers/STM32N6xx_HAL_Driver/Src/stm32n6xx_hal_rif.c ****   */
 479:../STM32Cube_FW_N6/Drivers/STM32N6xx_HAL_Driver/Src/stm32n6xx_hal_rif.c **** void HAL_RIF_RISAF_Lock(RISAF_TypeDef *RISAFx)
 480:../STM32Cube_FW_N6/Drivers/STM32N6xx_HAL_Driver/Src/stm32n6xx_hal_rif.c **** {
 1202              		.loc 1 480 1 is_stmt 1 view -0
 1203              		.cfi_startproc
 1204              		@ args = 0, pretend = 0, frame = 0
 1205              		@ frame_needed = 0, uses_anonymous_args = 0
 481:../STM32Cube_FW_N6/Drivers/STM32N6xx_HAL_Driver/Src/stm32n6xx_hal_rif.c ****   /* Check the parameters */
 482:../STM32Cube_FW_N6/Drivers/STM32N6xx_HAL_Driver/Src/stm32n6xx_hal_rif.c ****   assert_param(IS_RISAF_INSTANCE(RISAFx));
 1206              		.loc 1 482 3 view .LVU261
 1207 0000 274B     		ldr	r3, .L134
ARM GAS  /tmp/ccHKmbxS.s 			page 37


 480:../STM32Cube_FW_N6/Drivers/STM32N6xx_HAL_Driver/Src/stm32n6xx_hal_rif.c ****   /* Check the parameters */
 1208              		.loc 1 480 1 is_stmt 0 view .LVU262
 1209 0002 10B5     		push	{r4, lr}
 1210              		.cfi_def_cfa_offset 8
 1211              		.cfi_offset 4, -8
 1212              		.cfi_offset 14, -4
 1213              		.loc 1 482 3 view .LVU263
 1214 0004 9842     		cmp	r0, r3
 480:../STM32Cube_FW_N6/Drivers/STM32N6xx_HAL_Driver/Src/stm32n6xx_hal_rif.c ****   /* Check the parameters */
 1215              		.loc 1 480 1 view .LVU264
 1216 0006 0446     		mov	r4, r0
 1217              		.loc 1 482 3 view .LVU265
 1218 0008 44D0     		beq	.L133
 1219              		.loc 1 482 3 discriminator 1 view .LVU266
 1220 000a 03F58053 		add	r3, r3, #4096
 1221 000e 9842     		cmp	r0, r3
 1222 0010 40D0     		beq	.L133
 1223              		.loc 1 482 3 discriminator 2 view .LVU267
 1224 0012 03F58053 		add	r3, r3, #4096
 1225 0016 9842     		cmp	r0, r3
 1226 0018 3CD0     		beq	.L133
 1227              		.loc 1 482 3 discriminator 3 view .LVU268
 1228 001a 03F58053 		add	r3, r3, #4096
 1229 001e 9842     		cmp	r0, r3
 1230 0020 38D0     		beq	.L133
 1231              		.loc 1 482 3 discriminator 4 view .LVU269
 1232 0022 03F58053 		add	r3, r3, #4096
 1233 0026 9842     		cmp	r0, r3
 1234 0028 34D0     		beq	.L133
 1235              		.loc 1 482 3 discriminator 5 view .LVU270
 1236 002a 03F58053 		add	r3, r3, #4096
 1237 002e 9842     		cmp	r0, r3
 1238 0030 30D0     		beq	.L133
 1239              		.loc 1 482 3 discriminator 6 view .LVU271
 1240 0032 03F58053 		add	r3, r3, #4096
 1241 0036 9842     		cmp	r0, r3
 1242 0038 2CD0     		beq	.L133
 1243              		.loc 1 482 3 discriminator 7 view .LVU272
 1244 003a 03F58053 		add	r3, r3, #4096
 1245 003e 9842     		cmp	r0, r3
 1246 0040 28D0     		beq	.L133
 1247              		.loc 1 482 3 discriminator 8 view .LVU273
 1248 0042 03F58053 		add	r3, r3, #4096
 1249 0046 9842     		cmp	r0, r3
 1250 0048 24D0     		beq	.L133
 1251              		.loc 1 482 3 discriminator 9 view .LVU274
 1252 004a 03F50053 		add	r3, r3, #8192
 1253 004e 9842     		cmp	r0, r3
 1254 0050 20D0     		beq	.L133
 1255              		.loc 1 482 3 discriminator 10 view .LVU275
 1256 0052 03F58053 		add	r3, r3, #4096
 1257 0056 9842     		cmp	r0, r3
 1258 0058 1CD0     		beq	.L133
 1259              		.loc 1 482 3 discriminator 11 view .LVU276
 1260 005a 03F58053 		add	r3, r3, #4096
 1261 005e 9842     		cmp	r0, r3
 1262 0060 18D0     		beq	.L133
ARM GAS  /tmp/ccHKmbxS.s 			page 38


 1263              		.loc 1 482 3 discriminator 12 view .LVU277
 1264 0062 03F58053 		add	r3, r3, #4096
 1265 0066 9842     		cmp	r0, r3
 1266 0068 14D0     		beq	.L133
 1267              		.loc 1 482 3 discriminator 13 view .LVU278
 1268 006a 03F58053 		add	r3, r3, #4096
 1269 006e 9842     		cmp	r0, r3
 1270 0070 10D0     		beq	.L133
 1271              		.loc 1 482 3 discriminator 14 view .LVU279
 1272 0072 03F58053 		add	r3, r3, #4096
 1273 0076 9842     		cmp	r0, r3
 1274 0078 0CD0     		beq	.L133
 1275              		.loc 1 482 3 discriminator 15 view .LVU280
 1276 007a 03F58053 		add	r3, r3, #4096
 1277 007e 9842     		cmp	r0, r3
 1278 0080 08D0     		beq	.L133
 1279              		.loc 1 482 3 discriminator 16 view .LVU281
 1280 0082 03F58053 		add	r3, r3, #4096
 1281 0086 9842     		cmp	r0, r3
 1282 0088 04D0     		beq	.L133
 1283              		.loc 1 482 3 discriminator 17 view .LVU282
 1284 008a 4FF4F171 		mov	r1, #482
 1285 008e 0548     		ldr	r0, .L134+4
 1286              	.LVL77:
 1287              		.loc 1 482 3 discriminator 17 view .LVU283
 1288 0090 FFF7FEFF 		bl	assert_failed
 1289              	.LVL78:
 1290              	.L133:
 483:../STM32Cube_FW_N6/Drivers/STM32N6xx_HAL_Driver/Src/stm32n6xx_hal_rif.c **** 
 484:../STM32Cube_FW_N6/Drivers/STM32N6xx_HAL_Driver/Src/stm32n6xx_hal_rif.c ****   /* Set RISAF Lock bit */
 485:../STM32Cube_FW_N6/Drivers/STM32N6xx_HAL_Driver/Src/stm32n6xx_hal_rif.c ****   RISAFx->CR |= RISAF_CR_GLOCK;
 1291              		.loc 1 485 3 is_stmt 1 view .LVU284
 1292              		.loc 1 485 9 is_stmt 0 view .LVU285
 1293 0094 2368     		ldr	r3, [r4]
 1294              		.loc 1 485 14 view .LVU286
 1295 0096 43F00103 		orr	r3, r3, #1
 1296 009a 2360     		str	r3, [r4]
 486:../STM32Cube_FW_N6/Drivers/STM32N6xx_HAL_Driver/Src/stm32n6xx_hal_rif.c **** }
 1297              		.loc 1 486 1 view .LVU287
 1298 009c 10BD     		pop	{r4, pc}
 1299              	.LVL79:
 1300              	.L135:
 1301              		.loc 1 486 1 view .LVU288
 1302 009e 00BF     		.align	2
 1303              	.L134:
 1304 00a0 00600254 		.word	1409441792
 1305 00a4 00000000 		.word	.LC0
 1306              		.cfi_endproc
 1307              	.LFE893:
 1309              		.section	.text.HAL_RIF_RISAF_GetLock,"ax",%progbits
 1310              		.align	1
 1311              		.global	HAL_RIF_RISAF_GetLock
 1312              		.syntax unified
 1313              		.thumb
 1314              		.thumb_func
 1316              	HAL_RIF_RISAF_GetLock:
 1317              	.LVL80:
ARM GAS  /tmp/ccHKmbxS.s 			page 39


 1318              	.LFB894:
 487:../STM32Cube_FW_N6/Drivers/STM32N6xx_HAL_Driver/Src/stm32n6xx_hal_rif.c **** #endif /* defined(CPU_AS_TRUSTED_DOMAIN) */
 488:../STM32Cube_FW_N6/Drivers/STM32N6xx_HAL_Driver/Src/stm32n6xx_hal_rif.c **** 
 489:../STM32Cube_FW_N6/Drivers/STM32N6xx_HAL_Driver/Src/stm32n6xx_hal_rif.c **** /**
 490:../STM32Cube_FW_N6/Drivers/STM32N6xx_HAL_Driver/Src/stm32n6xx_hal_rif.c ****   * @brief  Get RISAF global lock status.
 491:../STM32Cube_FW_N6/Drivers/STM32N6xx_HAL_Driver/Src/stm32n6xx_hal_rif.c ****   * @param  RISAFx specifies the RISAF instance.
 492:../STM32Cube_FW_N6/Drivers/STM32N6xx_HAL_Driver/Src/stm32n6xx_hal_rif.c ****   *         This parameter is one of the RISAF instances defined in the CMSIS.
 493:../STM32Cube_FW_N6/Drivers/STM32N6xx_HAL_Driver/Src/stm32n6xx_hal_rif.c ****   * @retval 1 if RISAF configuration is locked, else 0
 494:../STM32Cube_FW_N6/Drivers/STM32N6xx_HAL_Driver/Src/stm32n6xx_hal_rif.c ****   */
 495:../STM32Cube_FW_N6/Drivers/STM32N6xx_HAL_Driver/Src/stm32n6xx_hal_rif.c **** uint32_t HAL_RIF_RISAF_GetLock(const RISAF_TypeDef *RISAFx)
 496:../STM32Cube_FW_N6/Drivers/STM32N6xx_HAL_Driver/Src/stm32n6xx_hal_rif.c **** {
 1319              		.loc 1 496 1 is_stmt 1 view -0
 1320              		.cfi_startproc
 1321              		@ args = 0, pretend = 0, frame = 0
 1322              		@ frame_needed = 0, uses_anonymous_args = 0
 1323              		@ link register save eliminated.
 497:../STM32Cube_FW_N6/Drivers/STM32N6xx_HAL_Driver/Src/stm32n6xx_hal_rif.c ****   uint32_t lock_status;
 1324              		.loc 1 497 3 view .LVU290
 498:../STM32Cube_FW_N6/Drivers/STM32N6xx_HAL_Driver/Src/stm32n6xx_hal_rif.c **** 
 499:../STM32Cube_FW_N6/Drivers/STM32N6xx_HAL_Driver/Src/stm32n6xx_hal_rif.c ****   /* Read RIMC lock bit */
 500:../STM32Cube_FW_N6/Drivers/STM32N6xx_HAL_Driver/Src/stm32n6xx_hal_rif.c ****   lock_status = (RISAFx->CR & RIF_LOCK_ENABLE);
 1325              		.loc 1 500 3 view .LVU291
 1326              		.loc 1 500 24 is_stmt 0 view .LVU292
 1327 0000 0068     		ldr	r0, [r0]
 1328              	.LVL81:
 501:../STM32Cube_FW_N6/Drivers/STM32N6xx_HAL_Driver/Src/stm32n6xx_hal_rif.c **** 
 502:../STM32Cube_FW_N6/Drivers/STM32N6xx_HAL_Driver/Src/stm32n6xx_hal_rif.c ****   return lock_status;
 1329              		.loc 1 502 3 is_stmt 1 view .LVU293
 503:../STM32Cube_FW_N6/Drivers/STM32N6xx_HAL_Driver/Src/stm32n6xx_hal_rif.c **** }
 1330              		.loc 1 503 1 is_stmt 0 view .LVU294
 1331 0002 00F00100 		and	r0, r0, #1
 1332              	.LVL82:
 1333              		.loc 1 503 1 view .LVU295
 1334 0006 7047     		bx	lr
 1335              		.cfi_endproc
 1336              	.LFE894:
 1338              		.section	.text.HAL_RIF_RISAF_ConfigBaseRegion,"ax",%progbits
 1339              		.align	1
 1340              		.global	HAL_RIF_RISAF_ConfigBaseRegion
 1341              		.syntax unified
 1342              		.thumb
 1343              		.thumb_func
 1345              	HAL_RIF_RISAF_ConfigBaseRegion:
 1346              	.LVL83:
 1347              	.LFB895:
 504:../STM32Cube_FW_N6/Drivers/STM32N6xx_HAL_Driver/Src/stm32n6xx_hal_rif.c **** 
 505:../STM32Cube_FW_N6/Drivers/STM32N6xx_HAL_Driver/Src/stm32n6xx_hal_rif.c **** #if defined(GENERATOR_RIF_FEATURE_ENCRYPTION_IMPLEMENTED)
 506:../STM32Cube_FW_N6/Drivers/STM32N6xx_HAL_Driver/Src/stm32n6xx_hal_rif.c **** /**
 507:../STM32Cube_FW_N6/Drivers/STM32N6xx_HAL_Driver/Src/stm32n6xx_hal_rif.c ****   * @brief  Get encryption and key related flags.
 508:../STM32Cube_FW_N6/Drivers/STM32N6xx_HAL_Driver/Src/stm32n6xx_hal_rif.c ****   * @param  RISAFx specifies the RISAF instance.
 509:../STM32Cube_FW_N6/Drivers/STM32N6xx_HAL_Driver/Src/stm32n6xx_hal_rif.c ****   *         This parameter is one of the RISAF instances defined in the CMSIS.
 510:../STM32Cube_FW_N6/Drivers/STM32N6xx_HAL_Driver/Src/stm32n6xx_hal_rif.c ****   * @retval A combination of the three encryption related flags
 511:../STM32Cube_FW_N6/Drivers/STM32N6xx_HAL_Driver/Src/stm32n6xx_hal_rif.c ****   */
 512:../STM32Cube_FW_N6/Drivers/STM32N6xx_HAL_Driver/Src/stm32n6xx_hal_rif.c **** uint32_t HAL_RIF_RISAF_GetEncryptionStatus(RISAF_TypeDef *RISAFx)
 513:../STM32Cube_FW_N6/Drivers/STM32N6xx_HAL_Driver/Src/stm32n6xx_hal_rif.c **** {
 514:../STM32Cube_FW_N6/Drivers/STM32N6xx_HAL_Driver/Src/stm32n6xx_hal_rif.c ****   uint32_t tmp = 0;
 515:../STM32Cube_FW_N6/Drivers/STM32N6xx_HAL_Driver/Src/stm32n6xx_hal_rif.c **** 
ARM GAS  /tmp/ccHKmbxS.s 			page 40


 516:../STM32Cube_FW_N6/Drivers/STM32N6xx_HAL_Driver/Src/stm32n6xx_hal_rif.c ****   return tmp;
 517:../STM32Cube_FW_N6/Drivers/STM32N6xx_HAL_Driver/Src/stm32n6xx_hal_rif.c **** }
 518:../STM32Cube_FW_N6/Drivers/STM32N6xx_HAL_Driver/Src/stm32n6xx_hal_rif.c **** 
 519:../STM32Cube_FW_N6/Drivers/STM32N6xx_HAL_Driver/Src/stm32n6xx_hal_rif.c **** #if defined(CPU_AS_TRUSTED_DOMAIN)
 520:../STM32Cube_FW_N6/Drivers/STM32N6xx_HAL_Driver/Src/stm32n6xx_hal_rif.c **** /**
 521:../STM32Cube_FW_N6/Drivers/STM32N6xx_HAL_Driver/Src/stm32n6xx_hal_rif.c ****   * @brief  Write the encryption keys used by the DDRMCE.
 522:../STM32Cube_FW_N6/Drivers/STM32N6xx_HAL_Driver/Src/stm32n6xx_hal_rif.c ****   * @note   This API is protected by the Trusted Domain compilation directive.
 523:../STM32Cube_FW_N6/Drivers/STM32N6xx_HAL_Driver/Src/stm32n6xx_hal_rif.c ****   * @param  RISAFx specifies the RISAF instance.
 524:../STM32Cube_FW_N6/Drivers/STM32N6xx_HAL_Driver/Src/stm32n6xx_hal_rif.c ****   *         This parameter is one of the RISAF instances defined in the CMSIS.
 525:../STM32Cube_FW_N6/Drivers/STM32N6xx_HAL_Driver/Src/stm32n6xx_hal_rif.c ****   * @param  Keys Pointer on the Encryption keys structure
 526:../STM32Cube_FW_N6/Drivers/STM32N6xx_HAL_Driver/Src/stm32n6xx_hal_rif.c ****   * @retval None
 527:../STM32Cube_FW_N6/Drivers/STM32N6xx_HAL_Driver/Src/stm32n6xx_hal_rif.c ****   */
 528:../STM32Cube_FW_N6/Drivers/STM32N6xx_HAL_Driver/Src/stm32n6xx_hal_rif.c **** void HAL_RIF_RISAF_WriteEncryptionKeys(RISAF_TypeDef *RISAFx, RISAF_EncryptionKeys_t *Keys)
 529:../STM32Cube_FW_N6/Drivers/STM32N6xx_HAL_Driver/Src/stm32n6xx_hal_rif.c **** {
 530:../STM32Cube_FW_N6/Drivers/STM32N6xx_HAL_Driver/Src/stm32n6xx_hal_rif.c **** }
 531:../STM32Cube_FW_N6/Drivers/STM32N6xx_HAL_Driver/Src/stm32n6xx_hal_rif.c **** #endif /* defined(CPU_AS_TRUSTED_DOMAIN) */
 532:../STM32Cube_FW_N6/Drivers/STM32N6xx_HAL_Driver/Src/stm32n6xx_hal_rif.c **** 
 533:../STM32Cube_FW_N6/Drivers/STM32N6xx_HAL_Driver/Src/stm32n6xx_hal_rif.c **** #endif /* defined(GENERATOR_RIF_FEATURE_ENCRYPTION_IMPLEMENTED) */
 534:../STM32Cube_FW_N6/Drivers/STM32N6xx_HAL_Driver/Src/stm32n6xx_hal_rif.c **** #if defined(CPU_AS_TRUSTED_DOMAIN)
 535:../STM32Cube_FW_N6/Drivers/STM32N6xx_HAL_Driver/Src/stm32n6xx_hal_rif.c **** /**
 536:../STM32Cube_FW_N6/Drivers/STM32N6xx_HAL_Driver/Src/stm32n6xx_hal_rif.c ****   * @brief  Configure a RISAF Base region.
 537:../STM32Cube_FW_N6/Drivers/STM32N6xx_HAL_Driver/Src/stm32n6xx_hal_rif.c ****   * @note   If pConfig->Filtering is equal to RISAF_FILTER_DISABLE, this API only disable the filte
 538:../STM32Cube_FW_N6/Drivers/STM32N6xx_HAL_Driver/Src/stm32n6xx_hal_rif.c ****   *         its configuration.
 539:../STM32Cube_FW_N6/Drivers/STM32N6xx_HAL_Driver/Src/stm32n6xx_hal_rif.c ****   * @note   It is not possible to modify the start and end address of the region if the filtering i
 540:../STM32Cube_FW_N6/Drivers/STM32N6xx_HAL_Driver/Src/stm32n6xx_hal_rif.c ****   * @note   This API is protected by the Trusted Domain compilation directive.
 541:../STM32Cube_FW_N6/Drivers/STM32N6xx_HAL_Driver/Src/stm32n6xx_hal_rif.c ****   * @param  RISAFx specifies the RISAF instance.
 542:../STM32Cube_FW_N6/Drivers/STM32N6xx_HAL_Driver/Src/stm32n6xx_hal_rif.c ****   *         This parameter is one of the RISAF instances defined in the CMSIS.
 543:../STM32Cube_FW_N6/Drivers/STM32N6xx_HAL_Driver/Src/stm32n6xx_hal_rif.c ****   * @param  Region specifies the RISAF region index
 544:../STM32Cube_FW_N6/Drivers/STM32N6xx_HAL_Driver/Src/stm32n6xx_hal_rif.c ****   *         This parameter can be one one of the following values:
 545:../STM32Cube_FW_N6/Drivers/STM32N6xx_HAL_Driver/Src/stm32n6xx_hal_rif.c ****   *           @arg @ref RISAF_REGION_1
 546:../STM32Cube_FW_N6/Drivers/STM32N6xx_HAL_Driver/Src/stm32n6xx_hal_rif.c ****   *           @arg @ref RISAF_REGION_2
 547:../STM32Cube_FW_N6/Drivers/STM32N6xx_HAL_Driver/Src/stm32n6xx_hal_rif.c ****   *           @arg @ref RISAF_REGION_3
 548:../STM32Cube_FW_N6/Drivers/STM32N6xx_HAL_Driver/Src/stm32n6xx_hal_rif.c ****   *           @arg @ref RISAF_REGION_4
 549:../STM32Cube_FW_N6/Drivers/STM32N6xx_HAL_Driver/Src/stm32n6xx_hal_rif.c ****   *           @arg @ref RISAF_REGION_5
 550:../STM32Cube_FW_N6/Drivers/STM32N6xx_HAL_Driver/Src/stm32n6xx_hal_rif.c ****   *           @arg @ref RISAF_REGION_6
 551:../STM32Cube_FW_N6/Drivers/STM32N6xx_HAL_Driver/Src/stm32n6xx_hal_rif.c ****   *           @arg @ref RISAF_REGION_7
 552:../STM32Cube_FW_N6/Drivers/STM32N6xx_HAL_Driver/Src/stm32n6xx_hal_rif.c ****   *           @arg @ref RISAF_REGION_8
 553:../STM32Cube_FW_N6/Drivers/STM32N6xx_HAL_Driver/Src/stm32n6xx_hal_rif.c ****   *           @arg @ref RISAF_REGION_9
 554:../STM32Cube_FW_N6/Drivers/STM32N6xx_HAL_Driver/Src/stm32n6xx_hal_rif.c ****   *           @arg @ref RISAF_REGION_10
 555:../STM32Cube_FW_N6/Drivers/STM32N6xx_HAL_Driver/Src/stm32n6xx_hal_rif.c ****   *           @arg @ref RISAF_REGION_11
 556:../STM32Cube_FW_N6/Drivers/STM32N6xx_HAL_Driver/Src/stm32n6xx_hal_rif.c ****   *           @arg @ref RISAF_REGION_12
 557:../STM32Cube_FW_N6/Drivers/STM32N6xx_HAL_Driver/Src/stm32n6xx_hal_rif.c ****   *           @arg @ref RISAF_REGION_13
 558:../STM32Cube_FW_N6/Drivers/STM32N6xx_HAL_Driver/Src/stm32n6xx_hal_rif.c ****   *           @arg @ref RISAF_REGION_14
 559:../STM32Cube_FW_N6/Drivers/STM32N6xx_HAL_Driver/Src/stm32n6xx_hal_rif.c ****   *           @arg @ref RISAF_REGION_15
 560:../STM32Cube_FW_N6/Drivers/STM32N6xx_HAL_Driver/Src/stm32n6xx_hal_rif.c ****   * @param  pConfig Pointer on RISAF Base Region configuration structure
 561:../STM32Cube_FW_N6/Drivers/STM32N6xx_HAL_Driver/Src/stm32n6xx_hal_rif.c ****   * @retval None
 562:../STM32Cube_FW_N6/Drivers/STM32N6xx_HAL_Driver/Src/stm32n6xx_hal_rif.c ****   */
 563:../STM32Cube_FW_N6/Drivers/STM32N6xx_HAL_Driver/Src/stm32n6xx_hal_rif.c **** void HAL_RIF_RISAF_ConfigBaseRegion(RISAF_TypeDef *RISAFx, uint32_t Region, const RISAF_BaseRegionC
 564:../STM32Cube_FW_N6/Drivers/STM32N6xx_HAL_Driver/Src/stm32n6xx_hal_rif.c **** {
 1348              		.loc 1 564 1 is_stmt 1 view -0
 1349              		.cfi_startproc
 1350              		@ args = 0, pretend = 0, frame = 0
 1351              		@ frame_needed = 0, uses_anonymous_args = 0
 565:../STM32Cube_FW_N6/Drivers/STM32N6xx_HAL_Driver/Src/stm32n6xx_hal_rif.c ****   /* Check the parameters */
 566:../STM32Cube_FW_N6/Drivers/STM32N6xx_HAL_Driver/Src/stm32n6xx_hal_rif.c ****   assert_param(pConfig != (void *)NULL);
 1352              		.loc 1 566 3 view .LVU297
 564:../STM32Cube_FW_N6/Drivers/STM32N6xx_HAL_Driver/Src/stm32n6xx_hal_rif.c ****   /* Check the parameters */
ARM GAS  /tmp/ccHKmbxS.s 			page 41


 1353              		.loc 1 564 1 is_stmt 0 view .LVU298
 1354 0000 70B5     		push	{r4, r5, r6, lr}
 1355              		.cfi_def_cfa_offset 16
 1356              		.cfi_offset 4, -16
 1357              		.cfi_offset 5, -12
 1358              		.cfi_offset 6, -8
 1359              		.cfi_offset 14, -4
 564:../STM32Cube_FW_N6/Drivers/STM32N6xx_HAL_Driver/Src/stm32n6xx_hal_rif.c ****   /* Check the parameters */
 1360              		.loc 1 564 1 view .LVU299
 1361 0002 0446     		mov	r4, r0
 1362 0004 0D46     		mov	r5, r1
 1363              		.loc 1 566 3 view .LVU300
 1364 0006 1646     		mov	r6, r2
 1365 0008 22B9     		cbnz	r2, .L138
 1366              		.loc 1 566 3 discriminator 1 view .LVU301
 1367 000a 40F23621 		movw	r1, #566
 1368              	.LVL84:
 1369              		.loc 1 566 3 discriminator 1 view .LVU302
 1370 000e A548     		ldr	r0, .L311
 1371              	.LVL85:
 1372              		.loc 1 566 3 discriminator 1 view .LVU303
 1373 0010 FFF7FEFF 		bl	assert_failed
 1374              	.LVL86:
 1375              	.L138:
 567:../STM32Cube_FW_N6/Drivers/STM32N6xx_HAL_Driver/Src/stm32n6xx_hal_rif.c ****   assert_param(IS_RISAF_INSTANCE(RISAFx));
 1376              		.loc 1 567 3 is_stmt 1 view .LVU304
 1377 0014 A44B     		ldr	r3, .L311+4
 1378 0016 9C42     		cmp	r4, r3
 1379 0018 00F09F82 		beq	.L141
 1380              		.loc 1 567 3 is_stmt 0 discriminator 1 view .LVU305
 1381 001c 03F58053 		add	r3, r3, #4096
 1382 0020 9C42     		cmp	r4, r3
 1383 0022 00F09A82 		beq	.L141
 1384              		.loc 1 567 3 discriminator 2 view .LVU306
 1385 0026 03F58053 		add	r3, r3, #4096
 1386 002a 9C42     		cmp	r4, r3
 1387 002c 00F09582 		beq	.L141
 1388              		.loc 1 567 3 discriminator 3 view .LVU307
 1389 0030 03F58053 		add	r3, r3, #4096
 1390 0034 9C42     		cmp	r4, r3
 1391 0036 00F06E82 		beq	.L144
 1392              		.loc 1 567 3 discriminator 4 view .LVU308
 1393 003a 03F58053 		add	r3, r3, #4096
 1394 003e 9C42     		cmp	r4, r3
 1395 0040 00F06982 		beq	.L144
 1396              		.loc 1 567 3 discriminator 5 view .LVU309
 1397 0044 03F58053 		add	r3, r3, #4096
 1398 0048 9C42     		cmp	r4, r3
 1399 004a 00F06482 		beq	.L144
 1400              		.loc 1 567 3 discriminator 6 view .LVU310
 1401 004e 03F58053 		add	r3, r3, #4096
 1402 0052 9C42     		cmp	r4, r3
 1403 0054 00F08182 		beq	.L141
 1404              		.loc 1 567 3 discriminator 7 view .LVU311
 1405 0058 03F58053 		add	r3, r3, #4096
 1406 005c 9C42     		cmp	r4, r3
 1407 005e 00F07C82 		beq	.L141
ARM GAS  /tmp/ccHKmbxS.s 			page 42


 1408              		.loc 1 567 3 discriminator 8 view .LVU312
 1409 0062 03F58053 		add	r3, r3, #4096
 1410 0066 9C42     		cmp	r4, r3
 1411 0068 00F07782 		beq	.L141
 1412              		.loc 1 567 3 discriminator 9 view .LVU313
 1413 006c 03F50053 		add	r3, r3, #8192
 1414 0070 9C42     		cmp	r4, r3
 1415 0072 00F07282 		beq	.L141
 1416              		.loc 1 567 3 discriminator 10 view .LVU314
 1417 0076 03F58053 		add	r3, r3, #4096
 1418 007a 9C42     		cmp	r4, r3
 1419 007c 00F06D82 		beq	.L141
 1420              		.loc 1 567 3 discriminator 11 view .LVU315
 1421 0080 03F58053 		add	r3, r3, #4096
 1422 0084 9C42     		cmp	r4, r3
 1423 0086 00F06882 		beq	.L141
 1424              		.loc 1 567 3 discriminator 12 view .LVU316
 1425 008a 03F58053 		add	r3, r3, #4096
 1426 008e 9C42     		cmp	r4, r3
 1427 0090 00F06382 		beq	.L141
 1428              		.loc 1 567 3 discriminator 13 view .LVU317
 1429 0094 03F58053 		add	r3, r3, #4096
 1430 0098 9C42     		cmp	r4, r3
 1431 009a 00F05A82 		beq	.L152
 1432              		.loc 1 567 3 discriminator 14 view .LVU318
 1433 009e 03F58053 		add	r3, r3, #4096
 1434 00a2 9C42     		cmp	r4, r3
 1435 00a4 00F05982 		beq	.L141
 1436              		.loc 1 567 3 discriminator 15 view .LVU319
 1437 00a8 03F58053 		add	r3, r3, #4096
 1438 00ac 9C42     		cmp	r4, r3
 1439 00ae 00F05482 		beq	.L141
 1440              		.loc 1 567 3 discriminator 16 view .LVU320
 1441 00b2 03F58053 		add	r3, r3, #4096
 1442 00b6 9C42     		cmp	r4, r3
 1443 00b8 04D0     		beq	.L155
 1444              		.loc 1 567 3 discriminator 17 view .LVU321
 1445 00ba 40F23721 		movw	r1, #567
 1446 00be 7948     		ldr	r0, .L311
 1447 00c0 FFF7FEFF 		bl	assert_failed
 1448              	.LVL87:
 1449              	.L155:
 568:../STM32Cube_FW_N6/Drivers/STM32N6xx_HAL_Driver/Src/stm32n6xx_hal_rif.c ****   assert_param(IS_RISAF_REGION(Region));
 1450              		.loc 1 568 3 is_stmt 1 view .LVU322
 1451 00c4 0E2D     		cmp	r5, #14
 1452 00c6 00F22982 		bhi	.L237
 569:../STM32Cube_FW_N6/Drivers/STM32N6xx_HAL_Driver/Src/stm32n6xx_hal_rif.c ****   assert_param(IS_RISAF_MAX_REGION(RISAFx, Region));
 1453              		.loc 1 569 3 is_stmt 0 discriminator 47 view .LVU323
 1454 00ca 022D     		cmp	r5, #2
 1455 00cc 30E2     		b	.L301
 1456              	.L156:
 1457              		.loc 1 569 3 discriminator 2 view .LVU324
 1458 00ce 774B     		ldr	r3, .L311+8
 1459 00d0 9C42     		cmp	r4, r3
 1460 00d2 00F02C82 		beq	.L158
 1461              		.loc 1 569 3 discriminator 5 view .LVU325
 1462 00d6 03F58053 		add	r3, r3, #4096
ARM GAS  /tmp/ccHKmbxS.s 			page 43


 1463 00da 9C42     		cmp	r4, r3
 1464 00dc 00F02782 		beq	.L158
 1465              		.loc 1 569 3 discriminator 8 view .LVU326
 1466 00e0 03F58053 		add	r3, r3, #4096
 1467 00e4 9C42     		cmp	r4, r3
 1468 00e6 07D1     		bne	.L276
 1469              	.L159:
 1470              		.loc 1 569 3 discriminator 65 view .LVU327
 1471 00e8 40F23921 		movw	r1, #569
 1472 00ec 6D48     		ldr	r0, .L311
 1473 00ee FFF7FEFF 		bl	assert_failed
 1474              	.LVL88:
 1475 00f2 23E2     		b	.L242
 1476              	.L238:
 1477              		.loc 1 569 3 discriminator 10 view .LVU328
 1478 00f4 0A2D     		cmp	r5, #10
 1479 00f6 1BE2     		b	.L301
 1480              	.L276:
 1481              		.loc 1 569 3 discriminator 11 view .LVU329
 1482 00f8 6D4B     		ldr	r3, .L311+12
 1483 00fa 9C42     		cmp	r4, r3
 1484 00fc F4D0     		beq	.L159
 1485              		.loc 1 569 3 discriminator 14 view .LVU330
 1486 00fe 03F58053 		add	r3, r3, #4096
 1487 0102 9C42     		cmp	r4, r3
 1488 0104 F0D0     		beq	.L159
 1489              		.loc 1 569 3 discriminator 17 view .LVU331
 1490 0106 03F58053 		add	r3, r3, #4096
 1491 010a 9C42     		cmp	r4, r3
 1492 010c 00F00F82 		beq	.L158
 1493              		.loc 1 569 3 discriminator 20 view .LVU332
 1494 0110 03F58053 		add	r3, r3, #4096
 1495 0114 9C42     		cmp	r4, r3
 1496 0116 00F00A82 		beq	.L158
 1497              		.loc 1 569 3 discriminator 23 view .LVU333
 1498 011a 03F58053 		add	r3, r3, #4096
 1499 011e 9C42     		cmp	r4, r3
 1500 0120 00F00582 		beq	.L158
 1501              		.loc 1 569 3 discriminator 26 view .LVU334
 1502 0124 03F50053 		add	r3, r3, #8192
 1503 0128 9C42     		cmp	r4, r3
 1504 012a 00F00082 		beq	.L158
 1505              		.loc 1 569 3 discriminator 29 view .LVU335
 1506 012e 03F58053 		add	r3, r3, #4096
 1507 0132 9C42     		cmp	r4, r3
 1508 0134 00F0FB81 		beq	.L158
 1509              		.loc 1 569 3 discriminator 32 view .LVU336
 1510 0138 03F58053 		add	r3, r3, #4096
 1511 013c 9C42     		cmp	r4, r3
 1512 013e 00F0F681 		beq	.L158
 1513              		.loc 1 569 3 discriminator 35 view .LVU337
 1514 0142 03F58053 		add	r3, r3, #4096
 1515 0146 9C42     		cmp	r4, r3
 1516 0148 00F0F181 		beq	.L158
 1517              		.loc 1 569 3 discriminator 38 view .LVU338
 1518 014c 03F58053 		add	r3, r3, #4096
 1519 0150 9C42     		cmp	r4, r3
ARM GAS  /tmp/ccHKmbxS.s 			page 44


 1520 0152 C9D0     		beq	.L159
 1521              		.loc 1 569 3 discriminator 41 view .LVU339
 1522 0154 574B     		ldr	r3, .L311+16
 1523 0156 9C42     		cmp	r4, r3
 1524 0158 00F0E981 		beq	.L158
 1525              		.loc 1 569 3 discriminator 44 view .LVU340
 1526 015c 03F58053 		add	r3, r3, #4096
 1527 0160 9C42     		cmp	r4, r3
 1528 0162 C1D1     		bne	.L159
 1529 0164 E3E1     		b	.L158
 1530              	.LVL89:
 1531              	.L162:
 570:../STM32Cube_FW_N6/Drivers/STM32N6xx_HAL_Driver/Src/stm32n6xx_hal_rif.c **** 
 571:../STM32Cube_FW_N6/Drivers/STM32N6xx_HAL_Driver/Src/stm32n6xx_hal_rif.c ****   /* Only disable the section */
 572:../STM32Cube_FW_N6/Drivers/STM32N6xx_HAL_Driver/Src/stm32n6xx_hal_rif.c ****   if (pConfig->Filtering == RISAF_FILTER_DISABLE)
 573:../STM32Cube_FW_N6/Drivers/STM32N6xx_HAL_Driver/Src/stm32n6xx_hal_rif.c ****   {
 574:../STM32Cube_FW_N6/Drivers/STM32N6xx_HAL_Driver/Src/stm32n6xx_hal_rif.c ****     RISAFx->REG[Region].CFGR &= (~(RISAF_FILTER_ENABLE));
 575:../STM32Cube_FW_N6/Drivers/STM32N6xx_HAL_Driver/Src/stm32n6xx_hal_rif.c ****   }
 576:../STM32Cube_FW_N6/Drivers/STM32N6xx_HAL_Driver/Src/stm32n6xx_hal_rif.c ****   else
 577:../STM32Cube_FW_N6/Drivers/STM32N6xx_HAL_Driver/Src/stm32n6xx_hal_rif.c ****   {
 578:../STM32Cube_FW_N6/Drivers/STM32N6xx_HAL_Driver/Src/stm32n6xx_hal_rif.c ****     /* Check the parameters */
 579:../STM32Cube_FW_N6/Drivers/STM32N6xx_HAL_Driver/Src/stm32n6xx_hal_rif.c ****     assert_param(IS_RISAF_FILTERING(pConfig->Filtering));
 1532              		.loc 1 579 5 is_stmt 1 view .LVU341
 1533 0166 012B     		cmp	r3, #1
 1534 0168 04D0     		beq	.L164
 1535              		.loc 1 579 5 is_stmt 0 discriminator 1 view .LVU342
 1536 016a 40F24321 		movw	r1, #579
 1537 016e 4D48     		ldr	r0, .L311
 1538 0170 FFF7FEFF 		bl	assert_failed
 1539              	.LVL90:
 1540              	.L164:
 580:../STM32Cube_FW_N6/Drivers/STM32N6xx_HAL_Driver/Src/stm32n6xx_hal_rif.c ****     assert_param(IS_RIF_CID(pConfig->PrivWhitelist));
 1541              		.loc 1 580 5 is_stmt 1 view .LVU343
 1542 0174 B368     		ldr	r3, [r6, #8]
 1543 0176 FF2B     		cmp	r3, #255
 1544 0178 04D9     		bls	.L165
 1545              		.loc 1 580 5 is_stmt 0 discriminator 1 view .LVU344
 1546 017a 4FF41171 		mov	r1, #580
 1547 017e 4948     		ldr	r0, .L311
 1548 0180 FFF7FEFF 		bl	assert_failed
 1549              	.LVL91:
 1550              	.L165:
 581:../STM32Cube_FW_N6/Drivers/STM32N6xx_HAL_Driver/Src/stm32n6xx_hal_rif.c ****     assert_param(IS_RIF_CID(pConfig->ReadWhitelist));
 1551              		.loc 1 581 5 is_stmt 1 view .LVU345
 1552 0184 F368     		ldr	r3, [r6, #12]
 1553 0186 FF2B     		cmp	r3, #255
 1554 0188 04D9     		bls	.L166
 1555              		.loc 1 581 5 is_stmt 0 discriminator 1 view .LVU346
 1556 018a 40F24521 		movw	r1, #581
 1557 018e 4548     		ldr	r0, .L311
 1558 0190 FFF7FEFF 		bl	assert_failed
 1559              	.LVL92:
 1560              	.L166:
 582:../STM32Cube_FW_N6/Drivers/STM32N6xx_HAL_Driver/Src/stm32n6xx_hal_rif.c ****     assert_param(IS_RIF_CID(pConfig->WriteWhitelist));
 1561              		.loc 1 582 5 is_stmt 1 view .LVU347
 1562 0194 3369     		ldr	r3, [r6, #16]
 1563 0196 FF2B     		cmp	r3, #255
ARM GAS  /tmp/ccHKmbxS.s 			page 45


 1564 0198 04D9     		bls	.L167
 1565              		.loc 1 582 5 is_stmt 0 discriminator 1 view .LVU348
 1566 019a 40F24621 		movw	r1, #582
 1567 019e 4148     		ldr	r0, .L311
 1568 01a0 FFF7FEFF 		bl	assert_failed
 1569              	.LVL93:
 1570              	.L167:
 583:../STM32Cube_FW_N6/Drivers/STM32N6xx_HAL_Driver/Src/stm32n6xx_hal_rif.c ****     assert_param(IS_RIF_SEC_PRIV_ATTRIBUTE(pConfig->Secure));
 1571              		.loc 1 583 5 is_stmt 1 view .LVU349
 1572 01a4 7368     		ldr	r3, [r6, #4]
 1573 01a6 032B     		cmp	r3, #3
 1574 01a8 04D9     		bls	.L168
 1575              		.loc 1 583 5 is_stmt 0 discriminator 1 view .LVU350
 1576 01aa 40F24721 		movw	r1, #583
 1577 01ae 3D48     		ldr	r0, .L311
 1578 01b0 FFF7FEFF 		bl	assert_failed
 1579              	.LVL94:
 1580              	.L168:
 584:../STM32Cube_FW_N6/Drivers/STM32N6xx_HAL_Driver/Src/stm32n6xx_hal_rif.c ****     assert_param(IS_RISAF_GRANULARITY(RISAFx, pConfig->StartAddress));
 1581              		.loc 1 584 5 is_stmt 1 view .LVU351
 1582 01b4 3C4A     		ldr	r2, .L311+4
 1583              		.loc 1 584 5 is_stmt 0 discriminator 1 view .LVU352
 1584 01b6 7369     		ldr	r3, [r6, #20]
 1585              		.loc 1 584 5 view .LVU353
 1586 01b8 9442     		cmp	r4, r2
 1587 01ba 37D1     		bne	.L169
 1588              		.loc 1 584 5 discriminator 1 view .LVU354
 1589 01bc C3F30B03 		ubfx	r3, r3, #0, #12
 1590              		.loc 1 584 5 discriminator 56 view .LVU355
 1591 01c0 002B     		cmp	r3, #0
 1592 01c2 40F09180 		bne	.L170
 1593              	.L193:
 585:../STM32Cube_FW_N6/Drivers/STM32N6xx_HAL_Driver/Src/stm32n6xx_hal_rif.c ****     assert_param(IS_RISAF_LIMIT_ADDRESS_SPACE_SIZE(RISAFx, pConfig->StartAddress));
 1594              		.loc 1 585 5 discriminator 2 view .LVU356
 1595 01c6 7369     		ldr	r3, [r6, #20]
 1596 01c8 B3F1804F 		cmp	r3, #1073741824
 1597              	.L310:
 1598              		.loc 1 585 5 discriminator 5 view .LVU357
 1599 01cc 80F02281 		bcs	.L171
 1600              	.L174:
 586:../STM32Cube_FW_N6/Drivers/STM32N6xx_HAL_Driver/Src/stm32n6xx_hal_rif.c ****     assert_param(IS_RISAF_GRANULARITY(RISAFx, (pConfig->EndAddress + 1U)));
 1601              		.loc 1 586 5 discriminator 4 view .LVU358
 1602 01d0 B369     		ldr	r3, [r6, #24]
 1603 01d2 0133     		adds	r3, r3, #1
 1604              	.L300:
 1605              		.loc 1 586 5 discriminator 34 view .LVU359
 1606 01d4 C3F30B03 		ubfx	r3, r3, #0, #12
 1607 01d8 B3FA83F3 		clz	r3, r3
 1608 01dc 5B09     		lsrs	r3, r3, #5
 1609              		.loc 1 586 5 discriminator 56 view .LVU360
 1610 01de 002B     		cmp	r3, #0
 1611 01e0 00F02C81 		beq	.L211
 1612              	.L241:
 587:../STM32Cube_FW_N6/Drivers/STM32N6xx_HAL_Driver/Src/stm32n6xx_hal_rif.c ****     assert_param(IS_RISAF_LIMIT_ADDRESS_SPACE_SIZE(RISAFx, pConfig->EndAddress));
 1613              		.loc 1 587 5 is_stmt 1 view .LVU361
 1614 01e4 304B     		ldr	r3, .L311+4
 1615 01e6 9C42     		cmp	r4, r3
ARM GAS  /tmp/ccHKmbxS.s 			page 46


 1616 01e8 40F04281 		bne	.L222
 1617              		.loc 1 587 5 is_stmt 0 discriminator 2 view .LVU362
 1618 01ec B369     		ldr	r3, [r6, #24]
 1619 01ee B3F1804F 		cmp	r3, #1073741824
 1620              	.L299:
 1621              		.loc 1 587 5 discriminator 38 view .LVU363
 1622 01f2 80F08A81 		bcs	.L223
 1623              	.L210:
 588:../STM32Cube_FW_N6/Drivers/STM32N6xx_HAL_Driver/Src/stm32n6xx_hal_rif.c ****     assert_param(pConfig->StartAddress < pConfig->EndAddress);
 1624              		.loc 1 588 5 is_stmt 1 view .LVU364
 1625 01f6 D6E90523 		ldrd	r2, r3, [r6, #20]
 1626 01fa 9A42     		cmp	r2, r3
 1627 01fc 04D3     		bcc	.L232
 1628              		.loc 1 588 5 is_stmt 0 discriminator 1 view .LVU365
 1629 01fe 4FF41371 		mov	r1, #588
 1630 0202 2848     		ldr	r0, .L311
 1631 0204 FFF7FEFF 		bl	assert_failed
 1632              	.LVL95:
 1633              	.L232:
 589:../STM32Cube_FW_N6/Drivers/STM32N6xx_HAL_Driver/Src/stm32n6xx_hal_rif.c **** 
 590:../STM32Cube_FW_N6/Drivers/STM32N6xx_HAL_Driver/Src/stm32n6xx_hal_rif.c ****     /* Update region start and end addresses */
 591:../STM32Cube_FW_N6/Drivers/STM32N6xx_HAL_Driver/Src/stm32n6xx_hal_rif.c ****     RISAFx->REG[Region].STARTR = pConfig->StartAddress;
 1634              		.loc 1 591 5 is_stmt 1 view .LVU366
 1635              		.loc 1 591 41 is_stmt 0 view .LVU367
 1636 0208 7369     		ldr	r3, [r6, #20]
 1637 020a 2C44     		add	r4, r4, r5
 1638              	.LVL96:
 1639              		.loc 1 591 32 view .LVU368
 1640 020c 6364     		str	r3, [r4, #68]
 592:../STM32Cube_FW_N6/Drivers/STM32N6xx_HAL_Driver/Src/stm32n6xx_hal_rif.c ****     RISAFx->REG[Region].ENDR = pConfig->EndAddress;
 1641              		.loc 1 592 5 is_stmt 1 view .LVU369
 1642              		.loc 1 592 39 is_stmt 0 view .LVU370
 1643 020e B369     		ldr	r3, [r6, #24]
 1644              		.loc 1 592 30 view .LVU371
 1645 0210 A364     		str	r3, [r4, #72]
 593:../STM32Cube_FW_N6/Drivers/STM32N6xx_HAL_Driver/Src/stm32n6xx_hal_rif.c **** 
 594:../STM32Cube_FW_N6/Drivers/STM32N6xx_HAL_Driver/Src/stm32n6xx_hal_rif.c ****     /* Update filtering mode, security and privilege attributes and whitelists */
 595:../STM32Cube_FW_N6/Drivers/STM32N6xx_HAL_Driver/Src/stm32n6xx_hal_rif.c ****     RISAFx->REG[Region].CIDCFGR = (pConfig->ReadWhitelist | (pConfig->WriteWhitelist << RISAF_REGx_
 1646              		.loc 1 595 5 is_stmt 1 view .LVU372
 1647              		.loc 1 595 59 is_stmt 0 view .LVU373
 1648 0212 D6E90332 		ldrd	r3, r2, [r6, #12]
 1649 0216 43EA0243 		orr	r3, r3, r2, lsl #16
 1650              		.loc 1 595 33 view .LVU374
 1651 021a E364     		str	r3, [r4, #76]
 596:../STM32Cube_FW_N6/Drivers/STM32N6xx_HAL_Driver/Src/stm32n6xx_hal_rif.c ****     RISAFx->REG[Region].CFGR = (pConfig->Filtering | (pConfig->Secure << RISAF_REGx_CFGR_SEC_Pos)
 1652              		.loc 1 596 5 is_stmt 1 view .LVU375
 597:../STM32Cube_FW_N6/Drivers/STM32N6xx_HAL_Driver/Src/stm32n6xx_hal_rif.c ****                                 | (pConfig->PrivWhitelist << RISAF_REGx_CFGR_PRIVC0_Pos));
 1653              		.loc 1 597 59 is_stmt 0 view .LVU376
 1654 021c D6E90123 		ldrd	r2, r3, [r6, #4]
 1655 0220 1B04     		lsls	r3, r3, #16
 1656              		.loc 1 597 33 view .LVU377
 1657 0222 43EA0223 		orr	r3, r3, r2, lsl #8
 1658 0226 3268     		ldr	r2, [r6]
 1659 0228 1343     		orrs	r3, r3, r2
 1660 022a 90E1     		b	.L302
 1661              	.LVL97:
 1662              	.L169:
ARM GAS  /tmp/ccHKmbxS.s 			page 47


 584:../STM32Cube_FW_N6/Drivers/STM32N6xx_HAL_Driver/Src/stm32n6xx_hal_rif.c ****     assert_param(IS_RISAF_LIMIT_ADDRESS_SPACE_SIZE(RISAFx, pConfig->StartAddress));
 1663              		.loc 1 584 5 discriminator 2 view .LVU378
 1664 022c 1F4A     		ldr	r2, .L311+8
 1665 022e 9442     		cmp	r4, r2
 1666 0230 07D1     		bne	.L173
 584:../STM32Cube_FW_N6/Drivers/STM32N6xx_HAL_Driver/Src/stm32n6xx_hal_rif.c ****     assert_param(IS_RISAF_LIMIT_ADDRESS_SPACE_SIZE(RISAFx, pConfig->StartAddress));
 1667              		.loc 1 584 5 discriminator 4 view .LVU379
 1668 0232 C3F30B03 		ubfx	r3, r3, #0, #12
 584:../STM32Cube_FW_N6/Drivers/STM32N6xx_HAL_Driver/Src/stm32n6xx_hal_rif.c ****     assert_param(IS_RISAF_LIMIT_ADDRESS_SPACE_SIZE(RISAFx, pConfig->StartAddress));
 1669              		.loc 1 584 5 discriminator 56 view .LVU380
 1670 0236 002B     		cmp	r3, #0
 1671 0238 56D1     		bne	.L170
 1672              	.L197:
 585:../STM32Cube_FW_N6/Drivers/STM32N6xx_HAL_Driver/Src/stm32n6xx_hal_rif.c ****     assert_param(IS_RISAF_GRANULARITY(RISAFx, (pConfig->EndAddress + 1U)));
 1673              		.loc 1 585 5 discriminator 5 view .LVU381
 1674 023a 7369     		ldr	r3, [r6, #20]
 1675 023c B3F5801F 		cmp	r3, #1048576
 1676 0240 C4E7     		b	.L310
 1677              	.L173:
 584:../STM32Cube_FW_N6/Drivers/STM32N6xx_HAL_Driver/Src/stm32n6xx_hal_rif.c ****     assert_param(IS_RISAF_LIMIT_ADDRESS_SPACE_SIZE(RISAFx, pConfig->StartAddress));
 1678              		.loc 1 584 5 discriminator 5 view .LVU382
 1679 0242 1D4A     		ldr	r2, .L311+20
 1680 0244 9442     		cmp	r4, r2
 1681 0246 47D1     		bne	.L175
 584:../STM32Cube_FW_N6/Drivers/STM32N6xx_HAL_Driver/Src/stm32n6xx_hal_rif.c ****     assert_param(IS_RISAF_LIMIT_ADDRESS_SPACE_SIZE(RISAFx, pConfig->StartAddress));
 1682              		.loc 1 584 5 discriminator 7 view .LVU383
 1683 0248 C3F30B03 		ubfx	r3, r3, #0, #12
 584:../STM32Cube_FW_N6/Drivers/STM32N6xx_HAL_Driver/Src/stm32n6xx_hal_rif.c ****     assert_param(IS_RISAF_LIMIT_ADDRESS_SPACE_SIZE(RISAFx, pConfig->StartAddress));
 1684              		.loc 1 584 5 discriminator 56 view .LVU384
 1685 024c 002B     		cmp	r3, #0
 1686 024e 4BD1     		bne	.L170
 1687              	.L198:
 585:../STM32Cube_FW_N6/Drivers/STM32N6xx_HAL_Driver/Src/stm32n6xx_hal_rif.c ****     assert_param(IS_RISAF_GRANULARITY(RISAFx, (pConfig->EndAddress + 1U)));
 1688              		.loc 1 585 5 discriminator 8 view .LVU385
 1689 0250 7369     		ldr	r3, [r6, #20]
 1690 0252 B3F5801F 		cmp	r3, #1048576
 1691              	.L296:
 585:../STM32Cube_FW_N6/Drivers/STM32N6xx_HAL_Driver/Src/stm32n6xx_hal_rif.c ****     assert_param(IS_RISAF_GRANULARITY(RISAFx, (pConfig->EndAddress + 1U)));
 1692              		.loc 1 585 5 discriminator 14 view .LVU386
 1693 0256 80F0DD80 		bcs	.L171
 1694              	.L209:
 586:../STM32Cube_FW_N6/Drivers/STM32N6xx_HAL_Driver/Src/stm32n6xx_hal_rif.c ****     assert_param(IS_RISAF_LIMIT_ADDRESS_SPACE_SIZE(RISAFx, pConfig->EndAddress));
 1695              		.loc 1 586 5 discriminator 5 view .LVU387
 1696 025a 174A     		ldr	r2, .L311+20
 586:../STM32Cube_FW_N6/Drivers/STM32N6xx_HAL_Driver/Src/stm32n6xx_hal_rif.c ****     assert_param(IS_RISAF_LIMIT_ADDRESS_SPACE_SIZE(RISAFx, pConfig->EndAddress));
 1697              		.loc 1 586 5 discriminator 7 view .LVU388
 1698 025c B369     		ldr	r3, [r6, #24]
 586:../STM32Cube_FW_N6/Drivers/STM32N6xx_HAL_Driver/Src/stm32n6xx_hal_rif.c ****     assert_param(IS_RISAF_LIMIT_ADDRESS_SPACE_SIZE(RISAFx, pConfig->EndAddress));
 1699              		.loc 1 586 5 discriminator 5 view .LVU389
 1700 025e 9442     		cmp	r4, r2
 586:../STM32Cube_FW_N6/Drivers/STM32N6xx_HAL_Driver/Src/stm32n6xx_hal_rif.c ****     assert_param(IS_RISAF_LIMIT_ADDRESS_SPACE_SIZE(RISAFx, pConfig->EndAddress));
 1701              		.loc 1 586 5 discriminator 7 view .LVU390
 1702 0260 03F10103 		add	r3, r3, #1
 586:../STM32Cube_FW_N6/Drivers/STM32N6xx_HAL_Driver/Src/stm32n6xx_hal_rif.c ****     assert_param(IS_RISAF_LIMIT_ADDRESS_SPACE_SIZE(RISAFx, pConfig->EndAddress));
 1703              		.loc 1 586 5 discriminator 5 view .LVU391
 1704 0264 B6D0     		beq	.L300
 586:../STM32Cube_FW_N6/Drivers/STM32N6xx_HAL_Driver/Src/stm32n6xx_hal_rif.c ****     assert_param(IS_RISAF_LIMIT_ADDRESS_SPACE_SIZE(RISAFx, pConfig->EndAddress));
ARM GAS  /tmp/ccHKmbxS.s 			page 48


 1705              		.loc 1 586 5 discriminator 17 view .LVU392
 1706 0266 154A     		ldr	r2, .L311+24
 1707 0268 9442     		cmp	r4, r2
 1708 026a B3D0     		beq	.L300
 586:../STM32Cube_FW_N6/Drivers/STM32N6xx_HAL_Driver/Src/stm32n6xx_hal_rif.c ****     assert_param(IS_RISAF_LIMIT_ADDRESS_SPACE_SIZE(RISAFx, pConfig->EndAddress));
 1709              		.loc 1 586 5 discriminator 20 view .LVU393
 1710 026c 144A     		ldr	r2, .L311+28
 1711 026e 9442     		cmp	r4, r2
 1712 0270 B0D0     		beq	.L300
 586:../STM32Cube_FW_N6/Drivers/STM32N6xx_HAL_Driver/Src/stm32n6xx_hal_rif.c ****     assert_param(IS_RISAF_LIMIT_ADDRESS_SPACE_SIZE(RISAFx, pConfig->EndAddress));
 1713              		.loc 1 586 5 discriminator 23 view .LVU394
 1714 0272 144A     		ldr	r2, .L311+32
 1715 0274 9442     		cmp	r4, r2
 1716 0276 ADD0     		beq	.L300
 586:../STM32Cube_FW_N6/Drivers/STM32N6xx_HAL_Driver/Src/stm32n6xx_hal_rif.c ****     assert_param(IS_RISAF_LIMIT_ADDRESS_SPACE_SIZE(RISAFx, pConfig->EndAddress));
 1717              		.loc 1 586 5 discriminator 26 view .LVU395
 1718 0278 134A     		ldr	r2, .L311+36
 1719 027a 9442     		cmp	r4, r2
 1720 027c AAD0     		beq	.L300
 586:../STM32Cube_FW_N6/Drivers/STM32N6xx_HAL_Driver/Src/stm32n6xx_hal_rif.c ****     assert_param(IS_RISAF_LIMIT_ADDRESS_SPACE_SIZE(RISAFx, pConfig->EndAddress));
 1721              		.loc 1 586 5 discriminator 29 view .LVU396
 1722 027e 134A     		ldr	r2, .L311+40
 1723 0280 9442     		cmp	r4, r2
 1724 0282 A7D0     		beq	.L300
 586:../STM32Cube_FW_N6/Drivers/STM32N6xx_HAL_Driver/Src/stm32n6xx_hal_rif.c ****     assert_param(IS_RISAF_LIMIT_ADDRESS_SPACE_SIZE(RISAFx, pConfig->EndAddress));
 1725              		.loc 1 586 5 discriminator 32 view .LVU397
 1726 0284 124A     		ldr	r2, .L311+44
 1727 0286 9442     		cmp	r4, r2
 1728 0288 A4D0     		beq	.L300
 586:../STM32Cube_FW_N6/Drivers/STM32N6xx_HAL_Driver/Src/stm32n6xx_hal_rif.c ****     assert_param(IS_RISAF_LIMIT_ADDRESS_SPACE_SIZE(RISAFx, pConfig->EndAddress));
 1729              		.loc 1 586 5 discriminator 35 view .LVU398
 1730 028a 124A     		ldr	r2, .L311+48
 1731 028c 9442     		cmp	r4, r2
 1732 028e 40F0DB80 		bne	.L217
 586:../STM32Cube_FW_N6/Drivers/STM32N6xx_HAL_Driver/Src/stm32n6xx_hal_rif.c ****     assert_param(IS_RISAF_LIMIT_ADDRESS_SPACE_SIZE(RISAFx, pConfig->EndAddress));
 1733              		.loc 1 586 5 discriminator 37 view .LVU399
 1734 0292 C3F30B03 		ubfx	r3, r3, #0, #12
 586:../STM32Cube_FW_N6/Drivers/STM32N6xx_HAL_Driver/Src/stm32n6xx_hal_rif.c ****     assert_param(IS_RISAF_LIMIT_ADDRESS_SPACE_SIZE(RISAFx, pConfig->EndAddress));
 1735              		.loc 1 586 5 discriminator 56 view .LVU400
 1736 0296 002B     		cmp	r3, #0
 1737 0298 40F0D080 		bne	.L211
 1738              	.L218:
 587:../STM32Cube_FW_N6/Drivers/STM32N6xx_HAL_Driver/Src/stm32n6xx_hal_rif.c ****     assert_param(pConfig->StartAddress < pConfig->EndAddress);
 1739              		.loc 1 587 5 discriminator 23 view .LVU401
 1740 029c B369     		ldr	r3, [r6, #24]
 1741 029e B3F1805F 		cmp	r3, #268435456
 1742 02a2 A6E7     		b	.L299
 1743              	.L312:
 1744              		.align	2
 1745              	.L311:
 1746 02a4 00000000 		.word	.LC0
 1747 02a8 00600254 		.word	1409441792
 1748 02ac 00700254 		.word	1409445888
 1749 02b0 00A00254 		.word	1409458176
 1750 02b4 00500354 		.word	1409503232
 1751 02b8 00800254 		.word	1409449984
 1752 02bc 00C00254 		.word	1409466368
ARM GAS  /tmp/ccHKmbxS.s 			page 49


 1753 02c0 00D00254 		.word	1409470464
 1754 02c4 00E00254 		.word	1409474560
 1755 02c8 00000354 		.word	1409482752
 1756 02cc 00100354 		.word	1409486848
 1757 02d0 00200354 		.word	1409490944
 1758 02d4 00300354 		.word	1409495040
 1759              	.L175:
 584:../STM32Cube_FW_N6/Drivers/STM32N6xx_HAL_Driver/Src/stm32n6xx_hal_rif.c ****     assert_param(IS_RISAF_LIMIT_ADDRESS_SPACE_SIZE(RISAFx, pConfig->StartAddress));
 1760              		.loc 1 584 5 discriminator 8 view .LVU402
 1761 02d8 A14A     		ldr	r2, .L313
 1762 02da 9442     		cmp	r4, r2
 1763 02dc 43D1     		bne	.L177
 1764              	.L304:
 584:../STM32Cube_FW_N6/Drivers/STM32N6xx_HAL_Driver/Src/stm32n6xx_hal_rif.c ****     assert_param(IS_RISAF_LIMIT_ADDRESS_SPACE_SIZE(RISAFx, pConfig->StartAddress));
 1765              		.loc 1 584 5 discriminator 16 view .LVU403
 1766 02de C3F30B03 		ubfx	r3, r3, #0, #12
 584:../STM32Cube_FW_N6/Drivers/STM32N6xx_HAL_Driver/Src/stm32n6xx_hal_rif.c ****     assert_param(IS_RISAF_LIMIT_ADDRESS_SPACE_SIZE(RISAFx, pConfig->StartAddress));
 1767              		.loc 1 584 5 discriminator 56 view .LVU404
 1768 02e2 002B     		cmp	r3, #0
 1769 02e4 00F0A480 		beq	.L182
 1770              	.L170:
 584:../STM32Cube_FW_N6/Drivers/STM32N6xx_HAL_Driver/Src/stm32n6xx_hal_rif.c ****     assert_param(IS_RISAF_LIMIT_ADDRESS_SPACE_SIZE(RISAFx, pConfig->StartAddress));
 1771              		.loc 1 584 5 discriminator 57 view .LVU405
 1772 02e8 4FF41271 		mov	r1, #584
 1773 02ec 9D48     		ldr	r0, .L313+4
 1774 02ee FFF7FEFF 		bl	assert_failed
 1775              	.LVL98:
 585:../STM32Cube_FW_N6/Drivers/STM32N6xx_HAL_Driver/Src/stm32n6xx_hal_rif.c ****     assert_param(IS_RISAF_GRANULARITY(RISAFx, (pConfig->EndAddress + 1U)));
 1776              		.loc 1 585 5 is_stmt 1 view .LVU406
 1777 02f2 9D4B     		ldr	r3, .L313+8
 1778 02f4 9C42     		cmp	r4, r3
 1779 02f6 3FF466AF 		beq	.L193
 585:../STM32Cube_FW_N6/Drivers/STM32N6xx_HAL_Driver/Src/stm32n6xx_hal_rif.c ****     assert_param(IS_RISAF_GRANULARITY(RISAFx, (pConfig->EndAddress + 1U)));
 1780              		.loc 1 585 5 is_stmt 0 discriminator 3 view .LVU407
 1781 02fa 9C4B     		ldr	r3, .L313+12
 1782 02fc 9C42     		cmp	r4, r3
 1783 02fe 9CD0     		beq	.L197
 585:../STM32Cube_FW_N6/Drivers/STM32N6xx_HAL_Driver/Src/stm32n6xx_hal_rif.c ****     assert_param(IS_RISAF_GRANULARITY(RISAFx, (pConfig->EndAddress + 1U)));
 1784              		.loc 1 585 5 discriminator 6 view .LVU408
 1785 0300 9B4B     		ldr	r3, .L313+16
 1786 0302 9C42     		cmp	r4, r3
 1787 0304 A4D0     		beq	.L198
 585:../STM32Cube_FW_N6/Drivers/STM32N6xx_HAL_Driver/Src/stm32n6xx_hal_rif.c ****     assert_param(IS_RISAF_GRANULARITY(RISAFx, (pConfig->EndAddress + 1U)));
 1788              		.loc 1 585 5 discriminator 9 view .LVU409
 1789 0306 03F58053 		add	r3, r3, #4096
 1790 030a 9C42     		cmp	r4, r3
 1791 030c 00F09080 		beq	.L182
 585:../STM32Cube_FW_N6/Drivers/STM32N6xx_HAL_Driver/Src/stm32n6xx_hal_rif.c ****     assert_param(IS_RISAF_GRANULARITY(RISAFx, (pConfig->EndAddress + 1U)));
 1792              		.loc 1 585 5 discriminator 10 view .LVU410
 1793 0310 03F58053 		add	r3, r3, #4096
 1794 0314 9C42     		cmp	r4, r3
 1795 0316 00F08B80 		beq	.L182
 585:../STM32Cube_FW_N6/Drivers/STM32N6xx_HAL_Driver/Src/stm32n6xx_hal_rif.c ****     assert_param(IS_RISAF_GRANULARITY(RISAFx, (pConfig->EndAddress + 1U)));
 1796              		.loc 1 585 5 discriminator 11 view .LVU411
 1797 031a 03F58053 		add	r3, r3, #4096
 1798 031e 9C42     		cmp	r4, r3
 1799 0320 00F08680 		beq	.L182
ARM GAS  /tmp/ccHKmbxS.s 			page 50


 585:../STM32Cube_FW_N6/Drivers/STM32N6xx_HAL_Driver/Src/stm32n6xx_hal_rif.c ****     assert_param(IS_RISAF_GRANULARITY(RISAFx, (pConfig->EndAddress + 1U)));
 1800              		.loc 1 585 5 discriminator 12 view .LVU412
 1801 0324 03F58053 		add	r3, r3, #4096
 1802 0328 9C42     		cmp	r4, r3
 1803 032a 29D0     		beq	.L199
 585:../STM32Cube_FW_N6/Drivers/STM32N6xx_HAL_Driver/Src/stm32n6xx_hal_rif.c ****     assert_param(IS_RISAF_GRANULARITY(RISAFx, (pConfig->EndAddress + 1U)));
 1804              		.loc 1 585 5 discriminator 15 view .LVU413
 1805 032c 03F58053 		add	r3, r3, #4096
 1806 0330 9C42     		cmp	r4, r3
 1807 0332 30D0     		beq	.L200
 585:../STM32Cube_FW_N6/Drivers/STM32N6xx_HAL_Driver/Src/stm32n6xx_hal_rif.c ****     assert_param(IS_RISAF_GRANULARITY(RISAFx, (pConfig->EndAddress + 1U)));
 1808              		.loc 1 585 5 discriminator 18 view .LVU414
 1809 0334 03F58053 		add	r3, r3, #4096
 1810 0338 9C42     		cmp	r4, r3
 1811 033a 37D0     		beq	.L201
 585:../STM32Cube_FW_N6/Drivers/STM32N6xx_HAL_Driver/Src/stm32n6xx_hal_rif.c ****     assert_param(IS_RISAF_GRANULARITY(RISAFx, (pConfig->EndAddress + 1U)));
 1812              		.loc 1 585 5 discriminator 21 view .LVU415
 1813 033c 03F50053 		add	r3, r3, #8192
 1814 0340 9C42     		cmp	r4, r3
 1815 0342 3ED0     		beq	.L205
 585:../STM32Cube_FW_N6/Drivers/STM32N6xx_HAL_Driver/Src/stm32n6xx_hal_rif.c ****     assert_param(IS_RISAF_GRANULARITY(RISAFx, (pConfig->EndAddress + 1U)));
 1816              		.loc 1 585 5 discriminator 24 view .LVU416
 1817 0344 03F58053 		add	r3, r3, #4096
 1818 0348 9C42     		cmp	r4, r3
 1819 034a 3AD0     		beq	.L205
 585:../STM32Cube_FW_N6/Drivers/STM32N6xx_HAL_Driver/Src/stm32n6xx_hal_rif.c ****     assert_param(IS_RISAF_GRANULARITY(RISAFx, (pConfig->EndAddress + 1U)));
 1820              		.loc 1 585 5 discriminator 27 view .LVU417
 1821 034c 03F58053 		add	r3, r3, #4096
 1822 0350 9C42     		cmp	r4, r3
 1823 0352 36D0     		beq	.L205
 585:../STM32Cube_FW_N6/Drivers/STM32N6xx_HAL_Driver/Src/stm32n6xx_hal_rif.c ****     assert_param(IS_RISAF_GRANULARITY(RISAFx, (pConfig->EndAddress + 1U)));
 1824              		.loc 1 585 5 discriminator 30 view .LVU418
 1825 0354 03F58053 		add	r3, r3, #4096
 1826 0358 9C42     		cmp	r4, r3
 1827 035a 32D0     		beq	.L205
 585:../STM32Cube_FW_N6/Drivers/STM32N6xx_HAL_Driver/Src/stm32n6xx_hal_rif.c ****     assert_param(IS_RISAF_GRANULARITY(RISAFx, (pConfig->EndAddress + 1U)));
 1828              		.loc 1 585 5 discriminator 33 view .LVU419
 1829 035c 03F58053 		add	r3, r3, #4096
 1830 0360 9C42     		cmp	r4, r3
 1831 0362 49D1     		bne	.L191
 1832 0364 3FE0     		b	.L303
 1833              	.L177:
 584:../STM32Cube_FW_N6/Drivers/STM32N6xx_HAL_Driver/Src/stm32n6xx_hal_rif.c ****     assert_param(IS_RISAF_LIMIT_ADDRESS_SPACE_SIZE(RISAFx, pConfig->StartAddress));
 1834              		.loc 1 584 5 discriminator 11 view .LVU420
 1835 0366 834A     		ldr	r2, .L313+20
 1836 0368 9442     		cmp	r4, r2
 1837 036a B8D0     		beq	.L304
 584:../STM32Cube_FW_N6/Drivers/STM32N6xx_HAL_Driver/Src/stm32n6xx_hal_rif.c ****     assert_param(IS_RISAF_LIMIT_ADDRESS_SPACE_SIZE(RISAFx, pConfig->StartAddress));
 1838              		.loc 1 584 5 discriminator 14 view .LVU421
 1839 036c 824A     		ldr	r2, .L313+24
 1840 036e 9442     		cmp	r4, r2
 1841 0370 B5D0     		beq	.L304
 584:../STM32Cube_FW_N6/Drivers/STM32N6xx_HAL_Driver/Src/stm32n6xx_hal_rif.c ****     assert_param(IS_RISAF_LIMIT_ADDRESS_SPACE_SIZE(RISAFx, pConfig->StartAddress));
 1842              		.loc 1 584 5 discriminator 17 view .LVU422
 1843 0372 824A     		ldr	r2, .L313+28
 1844 0374 9442     		cmp	r4, r2
 1845 0376 07D1     		bne	.L183
ARM GAS  /tmp/ccHKmbxS.s 			page 51


 584:../STM32Cube_FW_N6/Drivers/STM32N6xx_HAL_Driver/Src/stm32n6xx_hal_rif.c ****     assert_param(IS_RISAF_LIMIT_ADDRESS_SPACE_SIZE(RISAFx, pConfig->StartAddress));
 1846              		.loc 1 584 5 discriminator 19 view .LVU423
 1847 0378 C3F30B03 		ubfx	r3, r3, #0, #12
 584:../STM32Cube_FW_N6/Drivers/STM32N6xx_HAL_Driver/Src/stm32n6xx_hal_rif.c ****     assert_param(IS_RISAF_LIMIT_ADDRESS_SPACE_SIZE(RISAFx, pConfig->StartAddress));
 1848              		.loc 1 584 5 discriminator 56 view .LVU424
 1849 037c 002B     		cmp	r3, #0
 1850 037e B3D1     		bne	.L170
 1851              	.L199:
 585:../STM32Cube_FW_N6/Drivers/STM32N6xx_HAL_Driver/Src/stm32n6xx_hal_rif.c ****     assert_param(IS_RISAF_GRANULARITY(RISAFx, (pConfig->EndAddress + 1U)));
 1852              		.loc 1 585 5 discriminator 14 view .LVU425
 1853 0380 7369     		ldr	r3, [r6, #20]
 1854 0382 B3F5002F 		cmp	r3, #524288
 1855 0386 66E7     		b	.L296
 1856              	.L183:
 584:../STM32Cube_FW_N6/Drivers/STM32N6xx_HAL_Driver/Src/stm32n6xx_hal_rif.c ****     assert_param(IS_RISAF_LIMIT_ADDRESS_SPACE_SIZE(RISAFx, pConfig->StartAddress));
 1857              		.loc 1 584 5 discriminator 20 view .LVU426
 1858 0388 7D4A     		ldr	r2, .L313+32
 1859 038a 9442     		cmp	r4, r2
 1860 038c 07D1     		bne	.L184
 584:../STM32Cube_FW_N6/Drivers/STM32N6xx_HAL_Driver/Src/stm32n6xx_hal_rif.c ****     assert_param(IS_RISAF_LIMIT_ADDRESS_SPACE_SIZE(RISAFx, pConfig->StartAddress));
 1861              		.loc 1 584 5 discriminator 22 view .LVU427
 1862 038e C3F30B03 		ubfx	r3, r3, #0, #12
 584:../STM32Cube_FW_N6/Drivers/STM32N6xx_HAL_Driver/Src/stm32n6xx_hal_rif.c ****     assert_param(IS_RISAF_LIMIT_ADDRESS_SPACE_SIZE(RISAFx, pConfig->StartAddress));
 1863              		.loc 1 584 5 discriminator 56 view .LVU428
 1864 0392 002B     		cmp	r3, #0
 1865 0394 A8D1     		bne	.L170
 1866              	.L200:
 585:../STM32Cube_FW_N6/Drivers/STM32N6xx_HAL_Driver/Src/stm32n6xx_hal_rif.c ****     assert_param(IS_RISAF_GRANULARITY(RISAFx, (pConfig->EndAddress + 1U)));
 1867              		.loc 1 585 5 discriminator 17 view .LVU429
 1868 0396 7369     		ldr	r3, [r6, #20]
 1869 0398 B3F5802F 		cmp	r3, #262144
 1870 039c 5BE7     		b	.L296
 1871              	.L184:
 584:../STM32Cube_FW_N6/Drivers/STM32N6xx_HAL_Driver/Src/stm32n6xx_hal_rif.c ****     assert_param(IS_RISAF_LIMIT_ADDRESS_SPACE_SIZE(RISAFx, pConfig->StartAddress));
 1872              		.loc 1 584 5 discriminator 23 view .LVU430
 1873 039e 794A     		ldr	r2, .L313+36
 1874 03a0 9442     		cmp	r4, r2
 1875 03a2 07D1     		bne	.L185
 584:../STM32Cube_FW_N6/Drivers/STM32N6xx_HAL_Driver/Src/stm32n6xx_hal_rif.c ****     assert_param(IS_RISAF_LIMIT_ADDRESS_SPACE_SIZE(RISAFx, pConfig->StartAddress));
 1876              		.loc 1 584 5 discriminator 25 view .LVU431
 1877 03a4 C3F30B03 		ubfx	r3, r3, #0, #12
 584:../STM32Cube_FW_N6/Drivers/STM32N6xx_HAL_Driver/Src/stm32n6xx_hal_rif.c ****     assert_param(IS_RISAF_LIMIT_ADDRESS_SPACE_SIZE(RISAFx, pConfig->StartAddress));
 1878              		.loc 1 584 5 discriminator 56 view .LVU432
 1879 03a8 002B     		cmp	r3, #0
 1880 03aa 9DD1     		bne	.L170
 1881              	.L201:
 585:../STM32Cube_FW_N6/Drivers/STM32N6xx_HAL_Driver/Src/stm32n6xx_hal_rif.c ****     assert_param(IS_RISAF_GRANULARITY(RISAFx, (pConfig->EndAddress + 1U)));
 1882              		.loc 1 585 5 discriminator 20 view .LVU433
 1883 03ac 7369     		ldr	r3, [r6, #20]
 1884 03ae B3F5003F 		cmp	r3, #131072
 1885 03b2 50E7     		b	.L296
 1886              	.L185:
 584:../STM32Cube_FW_N6/Drivers/STM32N6xx_HAL_Driver/Src/stm32n6xx_hal_rif.c ****     assert_param(IS_RISAF_LIMIT_ADDRESS_SPACE_SIZE(RISAFx, pConfig->StartAddress));
 1887              		.loc 1 584 5 discriminator 26 view .LVU434
 1888 03b4 744A     		ldr	r2, .L313+40
 1889 03b6 9442     		cmp	r4, r2
 1890 03b8 07D1     		bne	.L186
ARM GAS  /tmp/ccHKmbxS.s 			page 52


 1891              	.L306:
 584:../STM32Cube_FW_N6/Drivers/STM32N6xx_HAL_Driver/Src/stm32n6xx_hal_rif.c ****     assert_param(IS_RISAF_LIMIT_ADDRESS_SPACE_SIZE(RISAFx, pConfig->StartAddress));
 1892              		.loc 1 584 5 discriminator 37 view .LVU435
 1893 03ba C3F30B03 		ubfx	r3, r3, #0, #12
 584:../STM32Cube_FW_N6/Drivers/STM32N6xx_HAL_Driver/Src/stm32n6xx_hal_rif.c ****     assert_param(IS_RISAF_LIMIT_ADDRESS_SPACE_SIZE(RISAFx, pConfig->StartAddress));
 1894              		.loc 1 584 5 discriminator 56 view .LVU436
 1895 03be 002B     		cmp	r3, #0
 1896 03c0 92D1     		bne	.L170
 1897              	.L205:
 585:../STM32Cube_FW_N6/Drivers/STM32N6xx_HAL_Driver/Src/stm32n6xx_hal_rif.c ****     assert_param(IS_RISAF_GRANULARITY(RISAFx, (pConfig->EndAddress + 1U)));
 1898              		.loc 1 585 5 discriminator 32 view .LVU437
 1899 03c2 7369     		ldr	r3, [r6, #20]
 1900 03c4 B3F1805F 		cmp	r3, #268435456
 1901 03c8 45E7     		b	.L296
 1902              	.L186:
 584:../STM32Cube_FW_N6/Drivers/STM32N6xx_HAL_Driver/Src/stm32n6xx_hal_rif.c ****     assert_param(IS_RISAF_LIMIT_ADDRESS_SPACE_SIZE(RISAFx, pConfig->StartAddress));
 1903              		.loc 1 584 5 discriminator 29 view .LVU438
 1904 03ca 704A     		ldr	r2, .L313+44
 1905 03cc 9442     		cmp	r4, r2
 1906 03ce F4D0     		beq	.L306
 584:../STM32Cube_FW_N6/Drivers/STM32N6xx_HAL_Driver/Src/stm32n6xx_hal_rif.c ****     assert_param(IS_RISAF_LIMIT_ADDRESS_SPACE_SIZE(RISAFx, pConfig->StartAddress));
 1907              		.loc 1 584 5 discriminator 32 view .LVU439
 1908 03d0 6F4A     		ldr	r2, .L313+48
 1909 03d2 9442     		cmp	r4, r2
 1910 03d4 F1D0     		beq	.L306
 584:../STM32Cube_FW_N6/Drivers/STM32N6xx_HAL_Driver/Src/stm32n6xx_hal_rif.c ****     assert_param(IS_RISAF_LIMIT_ADDRESS_SPACE_SIZE(RISAFx, pConfig->StartAddress));
 1911              		.loc 1 584 5 discriminator 35 view .LVU440
 1912 03d6 6F4A     		ldr	r2, .L313+52
 1913 03d8 9442     		cmp	r4, r2
 1914 03da EED0     		beq	.L306
 584:../STM32Cube_FW_N6/Drivers/STM32N6xx_HAL_Driver/Src/stm32n6xx_hal_rif.c ****     assert_param(IS_RISAF_LIMIT_ADDRESS_SPACE_SIZE(RISAFx, pConfig->StartAddress));
 1915              		.loc 1 584 5 discriminator 38 view .LVU441
 1916 03dc 6E4A     		ldr	r2, .L313+56
 1917 03de 9442     		cmp	r4, r2
 1918 03e0 05D1     		bne	.L190
 584:../STM32Cube_FW_N6/Drivers/STM32N6xx_HAL_Driver/Src/stm32n6xx_hal_rif.c ****     assert_param(IS_RISAF_LIMIT_ADDRESS_SPACE_SIZE(RISAFx, pConfig->StartAddress));
 1919              		.loc 1 584 5 discriminator 56 view .LVU442
 1920 03e2 9A07     		lsls	r2, r3, #30
 1921 03e4 80D1     		bne	.L170
 1922              	.L303:
 585:../STM32Cube_FW_N6/Drivers/STM32N6xx_HAL_Driver/Src/stm32n6xx_hal_rif.c ****     assert_param(IS_RISAF_GRANULARITY(RISAFx, (pConfig->EndAddress + 1U)));
 1923              		.loc 1 585 5 discriminator 44 view .LVU443
 1924 03e6 7369     		ldr	r3, [r6, #20]
 1925 03e8 B3F5805F 		cmp	r3, #4096
 1926 03ec 33E7     		b	.L296
 1927              	.L190:
 584:../STM32Cube_FW_N6/Drivers/STM32N6xx_HAL_Driver/Src/stm32n6xx_hal_rif.c ****     assert_param(IS_RISAF_LIMIT_ADDRESS_SPACE_SIZE(RISAFx, pConfig->StartAddress));
 1928              		.loc 1 584 5 discriminator 41 view .LVU444
 1929 03ee C3F30803 		ubfx	r3, r3, #0, #9
 584:../STM32Cube_FW_N6/Drivers/STM32N6xx_HAL_Driver/Src/stm32n6xx_hal_rif.c ****     assert_param(IS_RISAF_LIMIT_ADDRESS_SPACE_SIZE(RISAFx, pConfig->StartAddress));
 1930              		.loc 1 584 5 discriminator 56 view .LVU445
 1931 03f2 002B     		cmp	r3, #0
 1932 03f4 7FF478AF 		bne	.L170
 1933              	.L191:
 585:../STM32Cube_FW_N6/Drivers/STM32N6xx_HAL_Driver/Src/stm32n6xx_hal_rif.c ****     assert_param(IS_RISAF_GRANULARITY(RISAFx, (pConfig->EndAddress + 1U)));
 1934              		.loc 1 585 5 discriminator 36 view .LVU446
 1935 03f8 684B     		ldr	r3, .L313+60
ARM GAS  /tmp/ccHKmbxS.s 			page 53


 1936 03fa 9C42     		cmp	r4, r3
 1937 03fc 03D1     		bne	.L207
 1938              	.L208:
 585:../STM32Cube_FW_N6/Drivers/STM32N6xx_HAL_Driver/Src/stm32n6xx_hal_rif.c ****     assert_param(IS_RISAF_GRANULARITY(RISAFx, (pConfig->EndAddress + 1U)));
 1939              		.loc 1 585 5 discriminator 38 view .LVU447
 1940 03fe 7369     		ldr	r3, [r6, #20]
 1941 0400 B3F5005F 		cmp	r3, #8192
 1942 0404 27E7     		b	.L296
 1943              	.L207:
 585:../STM32Cube_FW_N6/Drivers/STM32N6xx_HAL_Driver/Src/stm32n6xx_hal_rif.c ****     assert_param(IS_RISAF_GRANULARITY(RISAFx, (pConfig->EndAddress + 1U)));
 1944              		.loc 1 585 5 discriminator 39 view .LVU448
 1945 0406 664B     		ldr	r3, .L313+64
 1946 0408 9C42     		cmp	r4, r3
 1947 040a F8D0     		beq	.L208
 585:../STM32Cube_FW_N6/Drivers/STM32N6xx_HAL_Driver/Src/stm32n6xx_hal_rif.c ****     assert_param(IS_RISAF_GRANULARITY(RISAFx, (pConfig->EndAddress + 1U)));
 1948              		.loc 1 585 5 discriminator 42 view .LVU449
 1949 040c 03F58053 		add	r3, r3, #4096
 1950 0410 9C42     		cmp	r4, r3
 1951 0412 E8D0     		beq	.L303
 1952              	.L171:
 585:../STM32Cube_FW_N6/Drivers/STM32N6xx_HAL_Driver/Src/stm32n6xx_hal_rif.c ****     assert_param(IS_RISAF_GRANULARITY(RISAFx, (pConfig->EndAddress + 1U)));
 1953              		.loc 1 585 5 discriminator 45 view .LVU450
 1954 0414 40F24921 		movw	r1, #585
 1955 0418 5248     		ldr	r0, .L313+4
 1956 041a FFF7FEFF 		bl	assert_failed
 1957              	.LVL99:
 586:../STM32Cube_FW_N6/Drivers/STM32N6xx_HAL_Driver/Src/stm32n6xx_hal_rif.c ****     assert_param(IS_RISAF_LIMIT_ADDRESS_SPACE_SIZE(RISAFx, pConfig->EndAddress));
 1958              		.loc 1 586 5 is_stmt 1 view .LVU451
 1959 041e 524B     		ldr	r3, .L313+8
 1960 0420 9C42     		cmp	r4, r3
 1961 0422 3FF4D5AE 		beq	.L174
 586:../STM32Cube_FW_N6/Drivers/STM32N6xx_HAL_Driver/Src/stm32n6xx_hal_rif.c ****     assert_param(IS_RISAF_LIMIT_ADDRESS_SPACE_SIZE(RISAFx, pConfig->EndAddress));
 1962              		.loc 1 586 5 is_stmt 0 discriminator 2 view .LVU452
 1963 0426 514B     		ldr	r3, .L313+12
 1964 0428 9C42     		cmp	r4, r3
 1965 042a 3FF4D1AE 		beq	.L174
 1966 042e 14E7     		b	.L209
 1967              	.L182:
 586:../STM32Cube_FW_N6/Drivers/STM32N6xx_HAL_Driver/Src/stm32n6xx_hal_rif.c ****     assert_param(IS_RISAF_LIMIT_ADDRESS_SPACE_SIZE(RISAFx, pConfig->EndAddress));
 1968              		.loc 1 586 5 discriminator 16 view .LVU453
 1969 0430 B369     		ldr	r3, [r6, #24]
 1970 0432 1B05     		lsls	r3, r3, #20
 586:../STM32Cube_FW_N6/Drivers/STM32N6xx_HAL_Driver/Src/stm32n6xx_hal_rif.c ****     assert_param(IS_RISAF_LIMIT_ADDRESS_SPACE_SIZE(RISAFx, pConfig->EndAddress));
 1971              		.loc 1 586 5 discriminator 56 view .LVU454
 1972 0434 13F5801F 		cmn	r3, #1048576
 1973 0438 3FF4DDAE 		beq	.L210
 1974              	.L211:
 586:../STM32Cube_FW_N6/Drivers/STM32N6xx_HAL_Driver/Src/stm32n6xx_hal_rif.c ****     assert_param(IS_RISAF_LIMIT_ADDRESS_SPACE_SIZE(RISAFx, pConfig->EndAddress));
 1975              		.loc 1 586 5 discriminator 57 view .LVU455
 1976 043c 40F24A21 		movw	r1, #586
 1977 0440 4848     		ldr	r0, .L313+4
 1978 0442 FFF7FEFF 		bl	assert_failed
 1979              	.LVL100:
 1980 0446 CDE6     		b	.L241
 1981              	.L217:
 586:../STM32Cube_FW_N6/Drivers/STM32N6xx_HAL_Driver/Src/stm32n6xx_hal_rif.c ****     assert_param(IS_RISAF_LIMIT_ADDRESS_SPACE_SIZE(RISAFx, pConfig->EndAddress));
 1982              		.loc 1 586 5 discriminator 38 view .LVU456
ARM GAS  /tmp/ccHKmbxS.s 			page 54


 1983 0448 534A     		ldr	r2, .L313+56
 1984 044a 9442     		cmp	r4, r2
 1985 044c 05D1     		bne	.L219
 586:../STM32Cube_FW_N6/Drivers/STM32N6xx_HAL_Driver/Src/stm32n6xx_hal_rif.c ****     assert_param(IS_RISAF_LIMIT_ADDRESS_SPACE_SIZE(RISAFx, pConfig->EndAddress));
 1986              		.loc 1 586 5 discriminator 56 view .LVU457
 1987 044e 9B07     		lsls	r3, r3, #30
 1988 0450 F4D1     		bne	.L211
 1989              	.L220:
 587:../STM32Cube_FW_N6/Drivers/STM32N6xx_HAL_Driver/Src/stm32n6xx_hal_rif.c ****     assert_param(pConfig->StartAddress < pConfig->EndAddress);
 1990              		.loc 1 587 5 discriminator 35 view .LVU458
 1991 0452 B369     		ldr	r3, [r6, #24]
 1992 0454 B3F5805F 		cmp	r3, #4096
 1993 0458 CBE6     		b	.L299
 1994              	.L219:
 586:../STM32Cube_FW_N6/Drivers/STM32N6xx_HAL_Driver/Src/stm32n6xx_hal_rif.c ****     assert_param(IS_RISAF_LIMIT_ADDRESS_SPACE_SIZE(RISAFx, pConfig->EndAddress));
 1995              		.loc 1 586 5 discriminator 41 view .LVU459
 1996 045a C3F30803 		ubfx	r3, r3, #0, #9
 586:../STM32Cube_FW_N6/Drivers/STM32N6xx_HAL_Driver/Src/stm32n6xx_hal_rif.c ****     assert_param(IS_RISAF_LIMIT_ADDRESS_SPACE_SIZE(RISAFx, pConfig->EndAddress));
 1997              		.loc 1 586 5 discriminator 56 view .LVU460
 1998 045e 002B     		cmp	r3, #0
 1999 0460 ECD1     		bne	.L211
 2000              	.L221:
 587:../STM32Cube_FW_N6/Drivers/STM32N6xx_HAL_Driver/Src/stm32n6xx_hal_rif.c ****     assert_param(pConfig->StartAddress < pConfig->EndAddress);
 2001              		.loc 1 587 5 discriminator 36 view .LVU461
 2002 0462 4E4B     		ldr	r3, .L313+60
 2003 0464 9C42     		cmp	r4, r3
 2004 0466 49D1     		bne	.L230
 2005              	.L231:
 587:../STM32Cube_FW_N6/Drivers/STM32N6xx_HAL_Driver/Src/stm32n6xx_hal_rif.c ****     assert_param(pConfig->StartAddress < pConfig->EndAddress);
 2006              		.loc 1 587 5 discriminator 38 view .LVU462
 2007 0468 B369     		ldr	r3, [r6, #24]
 2008 046a B3F5005F 		cmp	r3, #8192
 2009 046e C0E6     		b	.L299
 2010              	.L222:
 587:../STM32Cube_FW_N6/Drivers/STM32N6xx_HAL_Driver/Src/stm32n6xx_hal_rif.c ****     assert_param(pConfig->StartAddress < pConfig->EndAddress);
 2011              		.loc 1 587 5 discriminator 3 view .LVU463
 2012 0470 3E4B     		ldr	r3, .L313+12
 2013 0472 9C42     		cmp	r4, r3
 2014 0474 03D1     		bne	.L224
 2015              	.L225:
 587:../STM32Cube_FW_N6/Drivers/STM32N6xx_HAL_Driver/Src/stm32n6xx_hal_rif.c ****     assert_param(pConfig->StartAddress < pConfig->EndAddress);
 2016              		.loc 1 587 5 discriminator 5 view .LVU464
 2017 0476 B369     		ldr	r3, [r6, #24]
 2018 0478 B3F5801F 		cmp	r3, #1048576
 2019 047c B9E6     		b	.L299
 2020              	.L224:
 587:../STM32Cube_FW_N6/Drivers/STM32N6xx_HAL_Driver/Src/stm32n6xx_hal_rif.c ****     assert_param(pConfig->StartAddress < pConfig->EndAddress);
 2021              		.loc 1 587 5 discriminator 6 view .LVU465
 2022 047e 3C4B     		ldr	r3, .L313+16
 2023 0480 9C42     		cmp	r4, r3
 2024 0482 F8D0     		beq	.L225
 587:../STM32Cube_FW_N6/Drivers/STM32N6xx_HAL_Driver/Src/stm32n6xx_hal_rif.c ****     assert_param(pConfig->StartAddress < pConfig->EndAddress);
 2025              		.loc 1 587 5 discriminator 9 view .LVU466
 2026 0484 03F58053 		add	r3, r3, #4096
 2027 0488 9C42     		cmp	r4, r3
 2028 048a 3FF4B4AE 		beq	.L210
 587:../STM32Cube_FW_N6/Drivers/STM32N6xx_HAL_Driver/Src/stm32n6xx_hal_rif.c ****     assert_param(pConfig->StartAddress < pConfig->EndAddress);
ARM GAS  /tmp/ccHKmbxS.s 			page 55


 2029              		.loc 1 587 5 discriminator 10 view .LVU467
 2030 048e 03F58053 		add	r3, r3, #4096
 2031 0492 9C42     		cmp	r4, r3
 2032 0494 3FF4AFAE 		beq	.L210
 587:../STM32Cube_FW_N6/Drivers/STM32N6xx_HAL_Driver/Src/stm32n6xx_hal_rif.c ****     assert_param(pConfig->StartAddress < pConfig->EndAddress);
 2033              		.loc 1 587 5 discriminator 11 view .LVU468
 2034 0498 03F58053 		add	r3, r3, #4096
 2035 049c 9C42     		cmp	r4, r3
 2036 049e 3FF4AAAE 		beq	.L210
 587:../STM32Cube_FW_N6/Drivers/STM32N6xx_HAL_Driver/Src/stm32n6xx_hal_rif.c ****     assert_param(pConfig->StartAddress < pConfig->EndAddress);
 2037              		.loc 1 587 5 discriminator 12 view .LVU469
 2038 04a2 03F58053 		add	r3, r3, #4096
 2039 04a6 9C42     		cmp	r4, r3
 2040 04a8 03D1     		bne	.L226
 587:../STM32Cube_FW_N6/Drivers/STM32N6xx_HAL_Driver/Src/stm32n6xx_hal_rif.c ****     assert_param(pConfig->StartAddress < pConfig->EndAddress);
 2041              		.loc 1 587 5 discriminator 14 view .LVU470
 2042 04aa B369     		ldr	r3, [r6, #24]
 2043 04ac B3F5002F 		cmp	r3, #524288
 2044 04b0 9FE6     		b	.L299
 2045              	.L226:
 587:../STM32Cube_FW_N6/Drivers/STM32N6xx_HAL_Driver/Src/stm32n6xx_hal_rif.c ****     assert_param(pConfig->StartAddress < pConfig->EndAddress);
 2046              		.loc 1 587 5 discriminator 15 view .LVU471
 2047 04b2 334B     		ldr	r3, .L313+32
 2048 04b4 9C42     		cmp	r4, r3
 2049 04b6 03D1     		bne	.L227
 587:../STM32Cube_FW_N6/Drivers/STM32N6xx_HAL_Driver/Src/stm32n6xx_hal_rif.c ****     assert_param(pConfig->StartAddress < pConfig->EndAddress);
 2050              		.loc 1 587 5 discriminator 17 view .LVU472
 2051 04b8 B369     		ldr	r3, [r6, #24]
 2052 04ba B3F5802F 		cmp	r3, #262144
 2053 04be 98E6     		b	.L299
 2054              	.L227:
 587:../STM32Cube_FW_N6/Drivers/STM32N6xx_HAL_Driver/Src/stm32n6xx_hal_rif.c ****     assert_param(pConfig->StartAddress < pConfig->EndAddress);
 2055              		.loc 1 587 5 discriminator 18 view .LVU473
 2056 04c0 304B     		ldr	r3, .L313+36
 2057 04c2 9C42     		cmp	r4, r3
 2058 04c4 03D1     		bne	.L228
 587:../STM32Cube_FW_N6/Drivers/STM32N6xx_HAL_Driver/Src/stm32n6xx_hal_rif.c ****     assert_param(pConfig->StartAddress < pConfig->EndAddress);
 2059              		.loc 1 587 5 discriminator 20 view .LVU474
 2060 04c6 B369     		ldr	r3, [r6, #24]
 2061 04c8 B3F5003F 		cmp	r3, #131072
 2062 04cc 91E6     		b	.L299
 2063              	.L228:
 587:../STM32Cube_FW_N6/Drivers/STM32N6xx_HAL_Driver/Src/stm32n6xx_hal_rif.c ****     assert_param(pConfig->StartAddress < pConfig->EndAddress);
 2064              		.loc 1 587 5 discriminator 21 view .LVU475
 2065 04ce 2E4B     		ldr	r3, .L313+40
 2066 04d0 9C42     		cmp	r4, r3
 2067 04d2 3FF4E3AE 		beq	.L218
 587:../STM32Cube_FW_N6/Drivers/STM32N6xx_HAL_Driver/Src/stm32n6xx_hal_rif.c ****     assert_param(pConfig->StartAddress < pConfig->EndAddress);
 2068              		.loc 1 587 5 discriminator 24 view .LVU476
 2069 04d6 2D4B     		ldr	r3, .L313+44
 2070 04d8 9C42     		cmp	r4, r3
 2071 04da 3FF4DFAE 		beq	.L218
 587:../STM32Cube_FW_N6/Drivers/STM32N6xx_HAL_Driver/Src/stm32n6xx_hal_rif.c ****     assert_param(pConfig->StartAddress < pConfig->EndAddress);
 2072              		.loc 1 587 5 discriminator 27 view .LVU477
 2073 04de 03F58053 		add	r3, r3, #4096
 2074 04e2 9C42     		cmp	r4, r3
 2075 04e4 3FF4DAAE 		beq	.L218
ARM GAS  /tmp/ccHKmbxS.s 			page 56


 587:../STM32Cube_FW_N6/Drivers/STM32N6xx_HAL_Driver/Src/stm32n6xx_hal_rif.c ****     assert_param(pConfig->StartAddress < pConfig->EndAddress);
 2076              		.loc 1 587 5 discriminator 30 view .LVU478
 2077 04e8 03F58053 		add	r3, r3, #4096
 2078 04ec 9C42     		cmp	r4, r3
 2079 04ee 3FF4D5AE 		beq	.L218
 587:../STM32Cube_FW_N6/Drivers/STM32N6xx_HAL_Driver/Src/stm32n6xx_hal_rif.c ****     assert_param(pConfig->StartAddress < pConfig->EndAddress);
 2080              		.loc 1 587 5 discriminator 33 view .LVU479
 2081 04f2 03F58053 		add	r3, r3, #4096
 2082 04f6 9C42     		cmp	r4, r3
 2083 04f8 B3D1     		bne	.L221
 2084 04fa AAE7     		b	.L220
 2085              	.L230:
 587:../STM32Cube_FW_N6/Drivers/STM32N6xx_HAL_Driver/Src/stm32n6xx_hal_rif.c ****     assert_param(pConfig->StartAddress < pConfig->EndAddress);
 2086              		.loc 1 587 5 discriminator 39 view .LVU480
 2087 04fc 284B     		ldr	r3, .L313+64
 2088 04fe 9C42     		cmp	r4, r3
 2089 0500 B2D0     		beq	.L231
 587:../STM32Cube_FW_N6/Drivers/STM32N6xx_HAL_Driver/Src/stm32n6xx_hal_rif.c ****     assert_param(pConfig->StartAddress < pConfig->EndAddress);
 2090              		.loc 1 587 5 discriminator 42 view .LVU481
 2091 0502 03F58053 		add	r3, r3, #4096
 2092 0506 9C42     		cmp	r4, r3
 2093 0508 A3D0     		beq	.L220
 2094              	.L223:
 587:../STM32Cube_FW_N6/Drivers/STM32N6xx_HAL_Driver/Src/stm32n6xx_hal_rif.c ****     assert_param(pConfig->StartAddress < pConfig->EndAddress);
 2095              		.loc 1 587 5 discriminator 45 view .LVU482
 2096 050a 40F24B21 		movw	r1, #587
 2097 050e 1548     		ldr	r0, .L313+4
 2098 0510 FFF7FEFF 		bl	assert_failed
 2099              	.LVL101:
 2100 0514 6FE6     		b	.L210
 2101              	.LVL102:
 2102              	.L144:
 568:../STM32Cube_FW_N6/Drivers/STM32N6xx_HAL_Driver/Src/stm32n6xx_hal_rif.c ****   assert_param(IS_RISAF_MAX_REGION(RISAFx, Region));
 2103              		.loc 1 568 3 is_stmt 1 view .LVU483
 2104 0516 0E2D     		cmp	r5, #14
 2105 0518 7FF6ECAD 		bls	.L238
 2106              	.L237:
 568:../STM32Cube_FW_N6/Drivers/STM32N6xx_HAL_Driver/Src/stm32n6xx_hal_rif.c ****   assert_param(IS_RISAF_MAX_REGION(RISAFx, Region));
 2107              		.loc 1 568 3 is_stmt 0 discriminator 1 view .LVU484
 2108 051c 4FF40E71 		mov	r1, #568
 2109 0520 1048     		ldr	r0, .L313+4
 2110 0522 FFF7FEFF 		bl	assert_failed
 2111              	.LVL103:
 569:../STM32Cube_FW_N6/Drivers/STM32N6xx_HAL_Driver/Src/stm32n6xx_hal_rif.c **** 
 2112              		.loc 1 569 3 is_stmt 1 view .LVU485
 2113 0526 104B     		ldr	r3, .L313+8
 2114 0528 9C42     		cmp	r4, r3
 2115 052a 7FF4D0AD 		bne	.L156
 2116              	.L158:
 569:../STM32Cube_FW_N6/Drivers/STM32N6xx_HAL_Driver/Src/stm32n6xx_hal_rif.c **** 
 2117              		.loc 1 569 3 is_stmt 0 discriminator 1 view .LVU486
 2118 052e 062D     		cmp	r5, #6
 2119              	.L301:
 569:../STM32Cube_FW_N6/Drivers/STM32N6xx_HAL_Driver/Src/stm32n6xx_hal_rif.c **** 
 2120              		.loc 1 569 3 discriminator 47 view .LVU487
 2121 0530 8CBF     		ite	hi
 2122 0532 0023     		movhi	r3, #0
ARM GAS  /tmp/ccHKmbxS.s 			page 57


 2123 0534 0123     		movls	r3, #1
 569:../STM32Cube_FW_N6/Drivers/STM32N6xx_HAL_Driver/Src/stm32n6xx_hal_rif.c **** 
 2124              		.loc 1 569 3 discriminator 64 view .LVU488
 2125 0536 002B     		cmp	r3, #0
 2126 0538 3FF4D6AD 		beq	.L159
 2127              	.L242:
 572:../STM32Cube_FW_N6/Drivers/STM32N6xx_HAL_Driver/Src/stm32n6xx_hal_rif.c ****   {
 2128              		.loc 1 572 3 is_stmt 1 view .LVU489
 572:../STM32Cube_FW_N6/Drivers/STM32N6xx_HAL_Driver/Src/stm32n6xx_hal_rif.c ****   {
 2129              		.loc 1 572 14 is_stmt 0 view .LVU490
 2130 053c 3368     		ldr	r3, [r6]
 2131 053e AD01     		lsls	r5, r5, #6
 2132              	.LVL104:
 572:../STM32Cube_FW_N6/Drivers/STM32N6xx_HAL_Driver/Src/stm32n6xx_hal_rif.c ****   {
 2133              		.loc 1 572 6 view .LVU491
 2134 0540 002B     		cmp	r3, #0
 2135 0542 7FF410AE 		bne	.L162
 574:../STM32Cube_FW_N6/Drivers/STM32N6xx_HAL_Driver/Src/stm32n6xx_hal_rif.c ****   }
 2136              		.loc 1 574 5 is_stmt 1 view .LVU492
 2137 0546 2C44     		add	r4, r4, r5
 2138              	.LVL105:
 574:../STM32Cube_FW_N6/Drivers/STM32N6xx_HAL_Driver/Src/stm32n6xx_hal_rif.c ****   }
 2139              		.loc 1 574 24 is_stmt 0 view .LVU493
 2140 0548 236C     		ldr	r3, [r4, #64]
 574:../STM32Cube_FW_N6/Drivers/STM32N6xx_HAL_Driver/Src/stm32n6xx_hal_rif.c ****   }
 2141              		.loc 1 574 30 view .LVU494
 2142 054a 23F00103 		bic	r3, r3, #1
 2143              	.L302:
 596:../STM32Cube_FW_N6/Drivers/STM32N6xx_HAL_Driver/Src/stm32n6xx_hal_rif.c ****                                 | (pConfig->PrivWhitelist << RISAF_REGx_CFGR_PRIVC0_Pos));
 2144              		.loc 1 596 30 view .LVU495
 2145 054e 2364     		str	r3, [r4, #64]
 598:../STM32Cube_FW_N6/Drivers/STM32N6xx_HAL_Driver/Src/stm32n6xx_hal_rif.c ****   }
 599:../STM32Cube_FW_N6/Drivers/STM32N6xx_HAL_Driver/Src/stm32n6xx_hal_rif.c **** }
 2146              		.loc 1 599 1 view .LVU496
 2147 0550 70BD     		pop	{r4, r5, r6, pc}
 2148              	.LVL106:
 2149              	.L152:
 568:../STM32Cube_FW_N6/Drivers/STM32N6xx_HAL_Driver/Src/stm32n6xx_hal_rif.c ****   assert_param(IS_RISAF_MAX_REGION(RISAFx, Region));
 2150              		.loc 1 568 3 is_stmt 1 view .LVU497
 2151 0552 0E2D     		cmp	r5, #14
 2152 0554 E2D8     		bhi	.L237
 569:../STM32Cube_FW_N6/Drivers/STM32N6xx_HAL_Driver/Src/stm32n6xx_hal_rif.c **** 
 2153              		.loc 1 569 3 is_stmt 0 discriminator 40 view .LVU498
 2154 0556 012D     		cmp	r5, #1
 2155 0558 EAE7     		b	.L301
 2156              	.L141:
 568:../STM32Cube_FW_N6/Drivers/STM32N6xx_HAL_Driver/Src/stm32n6xx_hal_rif.c ****   assert_param(IS_RISAF_MAX_REGION(RISAFx, Region));
 2157              		.loc 1 568 3 is_stmt 1 view .LVU499
 2158 055a 0E2D     		cmp	r5, #14
 2159 055c E7D9     		bls	.L158
 2160 055e DDE7     		b	.L237
 2161              	.L314:
 2162              		.align	2
 2163              	.L313:
 2164 0560 00900254 		.word	1409454080
 2165 0564 00000000 		.word	.LC0
 2166 0568 00600254 		.word	1409441792
ARM GAS  /tmp/ccHKmbxS.s 			page 58


 2167 056c 00700254 		.word	1409445888
 2168 0570 00800254 		.word	1409449984
 2169 0574 00A00254 		.word	1409458176
 2170 0578 00B00254 		.word	1409462272
 2171 057c 00C00254 		.word	1409466368
 2172 0580 00D00254 		.word	1409470464
 2173 0584 00E00254 		.word	1409474560
 2174 0588 00000354 		.word	1409482752
 2175 058c 00100354 		.word	1409486848
 2176 0590 00200354 		.word	1409490944
 2177 0594 00300354 		.word	1409495040
 2178 0598 00400354 		.word	1409499136
 2179 059c 00500354 		.word	1409503232
 2180 05a0 00600354 		.word	1409507328
 2181              		.cfi_endproc
 2182              	.LFE895:
 2184              		.section	.text.HAL_RIF_RISAF_GetConfigBaseRegion,"ax",%progbits
 2185              		.align	1
 2186              		.global	HAL_RIF_RISAF_GetConfigBaseRegion
 2187              		.syntax unified
 2188              		.thumb
 2189              		.thumb_func
 2191              	HAL_RIF_RISAF_GetConfigBaseRegion:
 2192              	.LVL107:
 2193              	.LFB896:
 600:../STM32Cube_FW_N6/Drivers/STM32N6xx_HAL_Driver/Src/stm32n6xx_hal_rif.c **** #endif /* defined(CPU_AS_TRUSTED_DOMAIN) */
 601:../STM32Cube_FW_N6/Drivers/STM32N6xx_HAL_Driver/Src/stm32n6xx_hal_rif.c **** 
 602:../STM32Cube_FW_N6/Drivers/STM32N6xx_HAL_Driver/Src/stm32n6xx_hal_rif.c **** /**
 603:../STM32Cube_FW_N6/Drivers/STM32N6xx_HAL_Driver/Src/stm32n6xx_hal_rif.c ****   * @brief  Get the configuration of a RISAF Base region.
 604:../STM32Cube_FW_N6/Drivers/STM32N6xx_HAL_Driver/Src/stm32n6xx_hal_rif.c ****   * @param  RISAFx specifies the RISAF instance.
 605:../STM32Cube_FW_N6/Drivers/STM32N6xx_HAL_Driver/Src/stm32n6xx_hal_rif.c ****   *         This parameter is one of the RISAF instances defined in the CMSIS.
 606:../STM32Cube_FW_N6/Drivers/STM32N6xx_HAL_Driver/Src/stm32n6xx_hal_rif.c ****   * @param  Region specifies the RISAF region index
 607:../STM32Cube_FW_N6/Drivers/STM32N6xx_HAL_Driver/Src/stm32n6xx_hal_rif.c ****   *         This parameter can be one one of the following values:
 608:../STM32Cube_FW_N6/Drivers/STM32N6xx_HAL_Driver/Src/stm32n6xx_hal_rif.c ****   *           @arg @ref RISAF_REGION_1
 609:../STM32Cube_FW_N6/Drivers/STM32N6xx_HAL_Driver/Src/stm32n6xx_hal_rif.c ****   *           @arg @ref RISAF_REGION_2
 610:../STM32Cube_FW_N6/Drivers/STM32N6xx_HAL_Driver/Src/stm32n6xx_hal_rif.c ****   *           @arg @ref RISAF_REGION_3
 611:../STM32Cube_FW_N6/Drivers/STM32N6xx_HAL_Driver/Src/stm32n6xx_hal_rif.c ****   *           @arg @ref RISAF_REGION_4
 612:../STM32Cube_FW_N6/Drivers/STM32N6xx_HAL_Driver/Src/stm32n6xx_hal_rif.c ****   *           @arg @ref RISAF_REGION_5
 613:../STM32Cube_FW_N6/Drivers/STM32N6xx_HAL_Driver/Src/stm32n6xx_hal_rif.c ****   *           @arg @ref RISAF_REGION_6
 614:../STM32Cube_FW_N6/Drivers/STM32N6xx_HAL_Driver/Src/stm32n6xx_hal_rif.c ****   *           @arg @ref RISAF_REGION_7
 615:../STM32Cube_FW_N6/Drivers/STM32N6xx_HAL_Driver/Src/stm32n6xx_hal_rif.c ****   *           @arg @ref RISAF_REGION_8
 616:../STM32Cube_FW_N6/Drivers/STM32N6xx_HAL_Driver/Src/stm32n6xx_hal_rif.c ****   *           @arg @ref RISAF_REGION_9
 617:../STM32Cube_FW_N6/Drivers/STM32N6xx_HAL_Driver/Src/stm32n6xx_hal_rif.c ****   *           @arg @ref RISAF_REGION_10
 618:../STM32Cube_FW_N6/Drivers/STM32N6xx_HAL_Driver/Src/stm32n6xx_hal_rif.c ****   *           @arg @ref RISAF_REGION_11
 619:../STM32Cube_FW_N6/Drivers/STM32N6xx_HAL_Driver/Src/stm32n6xx_hal_rif.c ****   *           @arg @ref RISAF_REGION_12
 620:../STM32Cube_FW_N6/Drivers/STM32N6xx_HAL_Driver/Src/stm32n6xx_hal_rif.c ****   *           @arg @ref RISAF_REGION_13
 621:../STM32Cube_FW_N6/Drivers/STM32N6xx_HAL_Driver/Src/stm32n6xx_hal_rif.c ****   *           @arg @ref RISAF_REGION_14
 622:../STM32Cube_FW_N6/Drivers/STM32N6xx_HAL_Driver/Src/stm32n6xx_hal_rif.c ****   *           @arg @ref RISAF_REGION_15
 623:../STM32Cube_FW_N6/Drivers/STM32N6xx_HAL_Driver/Src/stm32n6xx_hal_rif.c ****   * @param  pConfig Pointer on RISAF Base Region configuration structure
 624:../STM32Cube_FW_N6/Drivers/STM32N6xx_HAL_Driver/Src/stm32n6xx_hal_rif.c ****   * @retval None
 625:../STM32Cube_FW_N6/Drivers/STM32N6xx_HAL_Driver/Src/stm32n6xx_hal_rif.c ****   */
 626:../STM32Cube_FW_N6/Drivers/STM32N6xx_HAL_Driver/Src/stm32n6xx_hal_rif.c **** void HAL_RIF_RISAF_GetConfigBaseRegion(const RISAF_TypeDef *RISAFx, uint32_t Region, RISAF_BaseRegi
 627:../STM32Cube_FW_N6/Drivers/STM32N6xx_HAL_Driver/Src/stm32n6xx_hal_rif.c **** {
 2194              		.loc 1 627 1 view -0
 2195              		.cfi_startproc
 2196              		@ args = 0, pretend = 0, frame = 0
 2197              		@ frame_needed = 0, uses_anonymous_args = 0
ARM GAS  /tmp/ccHKmbxS.s 			page 59


 628:../STM32Cube_FW_N6/Drivers/STM32N6xx_HAL_Driver/Src/stm32n6xx_hal_rif.c ****   uint32_t cfgr_reg;
 2198              		.loc 1 628 3 view .LVU501
 629:../STM32Cube_FW_N6/Drivers/STM32N6xx_HAL_Driver/Src/stm32n6xx_hal_rif.c ****   uint32_t cidcfgr_reg;
 2199              		.loc 1 629 3 view .LVU502
 630:../STM32Cube_FW_N6/Drivers/STM32N6xx_HAL_Driver/Src/stm32n6xx_hal_rif.c **** 
 631:../STM32Cube_FW_N6/Drivers/STM32N6xx_HAL_Driver/Src/stm32n6xx_hal_rif.c ****   /* Check the parameters */
 632:../STM32Cube_FW_N6/Drivers/STM32N6xx_HAL_Driver/Src/stm32n6xx_hal_rif.c ****   assert_param(IS_RISAF_INSTANCE(RISAFx));
 2200              		.loc 1 632 3 view .LVU503
 2201 0000 434B     		ldr	r3, .L364
 627:../STM32Cube_FW_N6/Drivers/STM32N6xx_HAL_Driver/Src/stm32n6xx_hal_rif.c ****   uint32_t cfgr_reg;
 2202              		.loc 1 627 1 is_stmt 0 view .LVU504
 2203 0002 70B5     		push	{r4, r5, r6, lr}
 2204              		.cfi_def_cfa_offset 16
 2205              		.cfi_offset 4, -16
 2206              		.cfi_offset 5, -12
 2207              		.cfi_offset 6, -8
 2208              		.cfi_offset 14, -4
 2209              		.loc 1 632 3 view .LVU505
 2210 0004 9842     		cmp	r0, r3
 627:../STM32Cube_FW_N6/Drivers/STM32N6xx_HAL_Driver/Src/stm32n6xx_hal_rif.c ****   uint32_t cfgr_reg;
 2211              		.loc 1 627 1 view .LVU506
 2212 0006 0546     		mov	r5, r0
 2213 0008 0C46     		mov	r4, r1
 2214 000a 1646     		mov	r6, r2
 2215              		.loc 1 632 3 view .LVU507
 2216 000c 57D0     		beq	.L318
 2217              		.loc 1 632 3 discriminator 1 view .LVU508
 2218 000e 03F58053 		add	r3, r3, #4096
 2219 0012 9842     		cmp	r0, r3
 2220 0014 53D0     		beq	.L318
 2221              		.loc 1 632 3 discriminator 2 view .LVU509
 2222 0016 03F58053 		add	r3, r3, #4096
 2223 001a 9842     		cmp	r0, r3
 2224 001c 4FD0     		beq	.L318
 2225              		.loc 1 632 3 discriminator 3 view .LVU510
 2226 001e 03F58053 		add	r3, r3, #4096
 2227 0022 9842     		cmp	r0, r3
 2228 0024 4FD0     		beq	.L319
 2229              		.loc 1 632 3 discriminator 4 view .LVU511
 2230 0026 03F58053 		add	r3, r3, #4096
 2231 002a 9842     		cmp	r0, r3
 2232 002c 4BD0     		beq	.L319
 2233              		.loc 1 632 3 discriminator 5 view .LVU512
 2234 002e 03F58053 		add	r3, r3, #4096
 2235 0032 9842     		cmp	r0, r3
 2236 0034 47D0     		beq	.L319
 2237              		.loc 1 632 3 discriminator 6 view .LVU513
 2238 0036 03F58053 		add	r3, r3, #4096
 2239 003a 9842     		cmp	r0, r3
 2240 003c 3FD0     		beq	.L318
 2241              		.loc 1 632 3 discriminator 7 view .LVU514
 2242 003e 03F58053 		add	r3, r3, #4096
 2243 0042 9842     		cmp	r0, r3
 2244 0044 3BD0     		beq	.L318
 2245              		.loc 1 632 3 discriminator 8 view .LVU515
 2246 0046 03F58053 		add	r3, r3, #4096
 2247 004a 9842     		cmp	r0, r3
ARM GAS  /tmp/ccHKmbxS.s 			page 60


 2248 004c 37D0     		beq	.L318
 2249              		.loc 1 632 3 discriminator 9 view .LVU516
 2250 004e 03F50053 		add	r3, r3, #8192
 2251 0052 9842     		cmp	r0, r3
 2252 0054 33D0     		beq	.L318
 2253              		.loc 1 632 3 discriminator 10 view .LVU517
 2254 0056 03F58053 		add	r3, r3, #4096
 2255 005a 9842     		cmp	r0, r3
 2256 005c 2FD0     		beq	.L318
 2257              		.loc 1 632 3 discriminator 11 view .LVU518
 2258 005e 03F58053 		add	r3, r3, #4096
 2259 0062 9842     		cmp	r0, r3
 2260 0064 2BD0     		beq	.L318
 2261              		.loc 1 632 3 discriminator 12 view .LVU519
 2262 0066 03F58053 		add	r3, r3, #4096
 2263 006a 9842     		cmp	r0, r3
 2264 006c 27D0     		beq	.L318
 2265              		.loc 1 632 3 discriminator 13 view .LVU520
 2266 006e 03F58053 		add	r3, r3, #4096
 2267 0072 9842     		cmp	r0, r3
 2268 0074 1FD0     		beq	.L329
 2269              		.loc 1 632 3 discriminator 14 view .LVU521
 2270 0076 03F58053 		add	r3, r3, #4096
 2271 007a 9842     		cmp	r0, r3
 2272 007c 1FD0     		beq	.L318
 2273              		.loc 1 632 3 discriminator 15 view .LVU522
 2274 007e 03F58053 		add	r3, r3, #4096
 2275 0082 9842     		cmp	r0, r3
 2276 0084 1BD0     		beq	.L318
 2277              		.loc 1 632 3 discriminator 16 view .LVU523
 2278 0086 03F58053 		add	r3, r3, #4096
 2279 008a 9842     		cmp	r0, r3
 2280 008c 04D0     		beq	.L332
 2281              		.loc 1 632 3 discriminator 17 view .LVU524
 2282 008e 4FF41E71 		mov	r1, #632
 2283              	.LVL108:
 2284              		.loc 1 632 3 discriminator 17 view .LVU525
 2285 0092 2048     		ldr	r0, .L364+4
 2286              	.LVL109:
 2287              		.loc 1 632 3 discriminator 17 view .LVU526
 2288 0094 FFF7FEFF 		bl	assert_failed
 2289              	.LVL110:
 2290              	.L332:
 633:../STM32Cube_FW_N6/Drivers/STM32N6xx_HAL_Driver/Src/stm32n6xx_hal_rif.c ****   assert_param(IS_RISAF_REGION(Region));
 2291              		.loc 1 633 3 is_stmt 1 view .LVU527
 2292 0098 0E2C     		cmp	r4, #14
 2293 009a 0AD9     		bls	.L346
 2294              	.L338:
 2295              		.loc 1 633 3 is_stmt 0 discriminator 1 view .LVU528
 2296 009c 40F27921 		movw	r1, #633
 2297 00a0 1C48     		ldr	r0, .L364+4
 2298 00a2 FFF7FEFF 		bl	assert_failed
 2299              	.LVL111:
 634:../STM32Cube_FW_N6/Drivers/STM32N6xx_HAL_Driver/Src/stm32n6xx_hal_rif.c ****   assert_param(IS_RISAF_MAX_REGION(RISAFx, Region));
 2300              		.loc 1 634 3 is_stmt 1 view .LVU529
 2301              	.L333:
 2302              		.loc 1 634 3 is_stmt 0 discriminator 65 view .LVU530
ARM GAS  /tmp/ccHKmbxS.s 			page 61


 2303 00a6 40F27A21 		movw	r1, #634
 2304 00aa 1A48     		ldr	r0, .L364+4
 2305 00ac FFF7FEFF 		bl	assert_failed
 2306              	.LVL112:
 2307 00b0 11E0     		b	.L337
 2308              	.L346:
 2309              		.loc 1 634 3 discriminator 47 view .LVU531
 2310 00b2 022C     		cmp	r4, #2
 2311 00b4 0AE0     		b	.L361
 2312              	.LVL113:
 2313              	.L329:
 633:../STM32Cube_FW_N6/Drivers/STM32N6xx_HAL_Driver/Src/stm32n6xx_hal_rif.c ****   assert_param(IS_RISAF_REGION(Region));
 2314              		.loc 1 633 3 is_stmt 1 view .LVU532
 2315 00b6 0E29     		cmp	r1, #14
 2316 00b8 F0D8     		bhi	.L338
 2317              		.loc 1 634 3 is_stmt 0 discriminator 40 view .LVU533
 2318 00ba 012C     		cmp	r4, #1
 2319 00bc 06E0     		b	.L361
 2320              	.L318:
 633:../STM32Cube_FW_N6/Drivers/STM32N6xx_HAL_Driver/Src/stm32n6xx_hal_rif.c ****   assert_param(IS_RISAF_REGION(Region));
 2321              		.loc 1 633 3 is_stmt 1 view .LVU534
 2322 00be 0E2C     		cmp	r4, #14
 2323 00c0 ECD8     		bhi	.L338
 2324              		.loc 1 634 3 is_stmt 0 discriminator 25 view .LVU535
 2325 00c2 062C     		cmp	r4, #6
 2326 00c4 02E0     		b	.L361
 2327              	.L319:
 633:../STM32Cube_FW_N6/Drivers/STM32N6xx_HAL_Driver/Src/stm32n6xx_hal_rif.c ****   assert_param(IS_RISAF_REGION(Region));
 2328              		.loc 1 633 3 is_stmt 1 view .LVU536
 2329 00c6 0E2C     		cmp	r4, #14
 2330 00c8 E8D8     		bhi	.L338
 2331              		.loc 1 634 3 is_stmt 0 discriminator 10 view .LVU537
 2332 00ca 0A2C     		cmp	r4, #10
 2333              	.LVL114:
 2334              	.L361:
 2335              		.loc 1 634 3 discriminator 10 view .LVU538
 2336 00cc 8CBF     		ite	hi
 2337 00ce 0023     		movhi	r3, #0
 2338 00d0 0123     		movls	r3, #1
 2339              		.loc 1 634 3 discriminator 64 view .LVU539
 2340 00d2 002B     		cmp	r3, #0
 2341 00d4 E7D0     		beq	.L333
 2342              	.L337:
 635:../STM32Cube_FW_N6/Drivers/STM32N6xx_HAL_Driver/Src/stm32n6xx_hal_rif.c ****   assert_param(pConfig != (void *)NULL);
 2343              		.loc 1 635 3 is_stmt 1 view .LVU540
 2344 00d6 26B9     		cbnz	r6, .L336
 2345              		.loc 1 635 3 is_stmt 0 discriminator 1 view .LVU541
 2346 00d8 40F27B21 		movw	r1, #635
 2347 00dc 0D48     		ldr	r0, .L364+4
 2348 00de FFF7FEFF 		bl	assert_failed
 2349              	.LVL115:
 2350              	.L336:
 636:../STM32Cube_FW_N6/Drivers/STM32N6xx_HAL_Driver/Src/stm32n6xx_hal_rif.c **** 
 637:../STM32Cube_FW_N6/Drivers/STM32N6xx_HAL_Driver/Src/stm32n6xx_hal_rif.c ****   cfgr_reg = RISAFx->REG[Region].CFGR;
 2351              		.loc 1 637 3 is_stmt 1 view .LVU542
 2352 00e2 05EB8414 		add	r4, r5, r4, lsl #6
 2353              	.LVL116:
ARM GAS  /tmp/ccHKmbxS.s 			page 62


 2354              		.loc 1 637 12 is_stmt 0 view .LVU543
 2355 00e6 236C     		ldr	r3, [r4, #64]
 2356              	.LVL117:
 638:../STM32Cube_FW_N6/Drivers/STM32N6xx_HAL_Driver/Src/stm32n6xx_hal_rif.c ****   cidcfgr_reg = RISAFx->REG[Region].CIDCFGR;
 2357              		.loc 1 638 3 is_stmt 1 view .LVU544
 2358              		.loc 1 638 15 is_stmt 0 view .LVU545
 2359 00e8 E26C     		ldr	r2, [r4, #76]
 2360              	.LVL118:
 639:../STM32Cube_FW_N6/Drivers/STM32N6xx_HAL_Driver/Src/stm32n6xx_hal_rif.c **** 
 640:../STM32Cube_FW_N6/Drivers/STM32N6xx_HAL_Driver/Src/stm32n6xx_hal_rif.c ****   pConfig->Filtering = (cfgr_reg & RISAF_REGx_CFGR_BREN);
 2361              		.loc 1 640 3 is_stmt 1 view .LVU546
 2362              		.loc 1 640 34 is_stmt 0 view .LVU547
 2363 00ea 03F00101 		and	r1, r3, #1
 2364              		.loc 1 640 22 view .LVU548
 2365 00ee 3160     		str	r1, [r6]
 641:../STM32Cube_FW_N6/Drivers/STM32N6xx_HAL_Driver/Src/stm32n6xx_hal_rif.c ****   pConfig->Secure = ((cfgr_reg & RISAF_REGx_CFGR_SEC) >> RISAF_REGx_CFGR_SEC_Pos);
 2366              		.loc 1 641 3 is_stmt 1 view .LVU549
 2367              		.loc 1 641 55 is_stmt 0 view .LVU550
 2368 00f0 C3F30021 		ubfx	r1, r3, #8, #1
 642:../STM32Cube_FW_N6/Drivers/STM32N6xx_HAL_Driver/Src/stm32n6xx_hal_rif.c ****   pConfig->PrivWhitelist = ((cfgr_reg & (RIF_CID_MASK << RISAF_REGx_CFGR_PRIVC0_Pos)) >> RISAF_REGx
 2369              		.loc 1 642 87 view .LVU551
 2370 00f4 C3F30743 		ubfx	r3, r3, #16, #8
 2371              	.LVL119:
 2372              		.loc 1 642 26 view .LVU552
 2373 00f8 B360     		str	r3, [r6, #8]
 643:../STM32Cube_FW_N6/Drivers/STM32N6xx_HAL_Driver/Src/stm32n6xx_hal_rif.c ****   pConfig->ReadWhitelist = (cidcfgr_reg & RIF_CID_MASK);
 2374              		.loc 1 643 41 view .LVU553
 2375 00fa D3B2     		uxtb	r3, r2
 2376              		.loc 1 643 26 view .LVU554
 2377 00fc F360     		str	r3, [r6, #12]
 644:../STM32Cube_FW_N6/Drivers/STM32N6xx_HAL_Driver/Src/stm32n6xx_hal_rif.c ****   pConfig->WriteWhitelist = ((cidcfgr_reg & (RIF_CID_MASK << RISAF_REGx_CIDCFGR_WRENC0_Pos)) >> RIS
 645:../STM32Cube_FW_N6/Drivers/STM32N6xx_HAL_Driver/Src/stm32n6xx_hal_rif.c ****   pConfig->StartAddress = RISAFx->REG[Region].STARTR;
 2378              		.loc 1 645 46 view .LVU555
 2379 00fe 636C     		ldr	r3, [r4, #68]
 644:../STM32Cube_FW_N6/Drivers/STM32N6xx_HAL_Driver/Src/stm32n6xx_hal_rif.c ****   pConfig->WriteWhitelist = ((cidcfgr_reg & (RIF_CID_MASK << RISAF_REGx_CIDCFGR_WRENC0_Pos)) >> RIS
 2380              		.loc 1 644 94 view .LVU556
 2381 0100 C2F30742 		ubfx	r2, r2, #16, #8
 2382              	.LVL120:
 2383              		.loc 1 645 25 view .LVU557
 2384 0104 7361     		str	r3, [r6, #20]
 646:../STM32Cube_FW_N6/Drivers/STM32N6xx_HAL_Driver/Src/stm32n6xx_hal_rif.c ****   pConfig->EndAddress = RISAFx->REG[Region].ENDR;
 2385              		.loc 1 646 44 view .LVU558
 2386 0106 A36C     		ldr	r3, [r4, #72]
 641:../STM32Cube_FW_N6/Drivers/STM32N6xx_HAL_Driver/Src/stm32n6xx_hal_rif.c ****   pConfig->PrivWhitelist = ((cfgr_reg & (RIF_CID_MASK << RISAF_REGx_CFGR_PRIVC0_Pos)) >> RISAF_REGx
 2387              		.loc 1 641 19 view .LVU559
 2388 0108 7160     		str	r1, [r6, #4]
 642:../STM32Cube_FW_N6/Drivers/STM32N6xx_HAL_Driver/Src/stm32n6xx_hal_rif.c ****   pConfig->ReadWhitelist = (cidcfgr_reg & RIF_CID_MASK);
 2389              		.loc 1 642 3 is_stmt 1 view .LVU560
 643:../STM32Cube_FW_N6/Drivers/STM32N6xx_HAL_Driver/Src/stm32n6xx_hal_rif.c ****   pConfig->WriteWhitelist = ((cidcfgr_reg & (RIF_CID_MASK << RISAF_REGx_CIDCFGR_WRENC0_Pos)) >> RIS
 2390              		.loc 1 643 3 view .LVU561
 644:../STM32Cube_FW_N6/Drivers/STM32N6xx_HAL_Driver/Src/stm32n6xx_hal_rif.c ****   pConfig->StartAddress = RISAFx->REG[Region].STARTR;
 2391              		.loc 1 644 3 view .LVU562
 644:../STM32Cube_FW_N6/Drivers/STM32N6xx_HAL_Driver/Src/stm32n6xx_hal_rif.c ****   pConfig->StartAddress = RISAFx->REG[Region].STARTR;
 2392              		.loc 1 644 27 is_stmt 0 view .LVU563
 2393 010a 3261     		str	r2, [r6, #16]
 645:../STM32Cube_FW_N6/Drivers/STM32N6xx_HAL_Driver/Src/stm32n6xx_hal_rif.c ****   pConfig->EndAddress = RISAFx->REG[Region].ENDR;
 2394              		.loc 1 645 3 is_stmt 1 view .LVU564
ARM GAS  /tmp/ccHKmbxS.s 			page 63


 2395              		.loc 1 646 3 view .LVU565
 2396              		.loc 1 646 23 is_stmt 0 view .LVU566
 2397 010c B361     		str	r3, [r6, #24]
 647:../STM32Cube_FW_N6/Drivers/STM32N6xx_HAL_Driver/Src/stm32n6xx_hal_rif.c **** }
 2398              		.loc 1 647 1 view .LVU567
 2399 010e 70BD     		pop	{r4, r5, r6, pc}
 2400              	.LVL121:
 2401              	.L365:
 2402              		.loc 1 647 1 view .LVU568
 2403              		.align	2
 2404              	.L364:
 2405 0110 00600254 		.word	1409441792
 2406 0114 00000000 		.word	.LC0
 2407              		.cfi_endproc
 2408              	.LFE896:
 2410              		.section	.text.HAL_RIF_RISAF_ConfigSubRegionDelegation,"ax",%progbits
 2411              		.align	1
 2412              		.global	HAL_RIF_RISAF_ConfigSubRegionDelegation
 2413              		.syntax unified
 2414              		.thumb
 2415              		.thumb_func
 2417              	HAL_RIF_RISAF_ConfigSubRegionDelegation:
 2418              	.LVL122:
 2419              	.LFB897:
 648:../STM32Cube_FW_N6/Drivers/STM32N6xx_HAL_Driver/Src/stm32n6xx_hal_rif.c **** 
 649:../STM32Cube_FW_N6/Drivers/STM32N6xx_HAL_Driver/Src/stm32n6xx_hal_rif.c **** #if defined(CPU_AS_TRUSTED_DOMAIN)
 650:../STM32Cube_FW_N6/Drivers/STM32N6xx_HAL_Driver/Src/stm32n6xx_hal_rif.c **** /**
 651:../STM32Cube_FW_N6/Drivers/STM32N6xx_HAL_Driver/Src/stm32n6xx_hal_rif.c ****   * @brief  Delegate a Subregion configuration to another CID.
 652:../STM32Cube_FW_N6/Drivers/STM32N6xx_HAL_Driver/Src/stm32n6xx_hal_rif.c ****   * @note   This API is protected by the Trusted Domain compilation directive.
 653:../STM32Cube_FW_N6/Drivers/STM32N6xx_HAL_Driver/Src/stm32n6xx_hal_rif.c ****   * @param  RISAFx specifies the RISAF instance.
 654:../STM32Cube_FW_N6/Drivers/STM32N6xx_HAL_Driver/Src/stm32n6xx_hal_rif.c ****   *         This parameter is one of the RISAF instances defined in the CMSIS.
 655:../STM32Cube_FW_N6/Drivers/STM32N6xx_HAL_Driver/Src/stm32n6xx_hal_rif.c ****   * @param  Region specifies the RISAF region index
 656:../STM32Cube_FW_N6/Drivers/STM32N6xx_HAL_Driver/Src/stm32n6xx_hal_rif.c ****   *         This parameter can be one one of the following values:
 657:../STM32Cube_FW_N6/Drivers/STM32N6xx_HAL_Driver/Src/stm32n6xx_hal_rif.c ****   *           @arg @ref RISAF_REGION_1
 658:../STM32Cube_FW_N6/Drivers/STM32N6xx_HAL_Driver/Src/stm32n6xx_hal_rif.c ****   *           @arg @ref RISAF_REGION_2
 659:../STM32Cube_FW_N6/Drivers/STM32N6xx_HAL_Driver/Src/stm32n6xx_hal_rif.c ****   *           @arg @ref RISAF_REGION_3
 660:../STM32Cube_FW_N6/Drivers/STM32N6xx_HAL_Driver/Src/stm32n6xx_hal_rif.c ****   *           @arg @ref RISAF_REGION_4
 661:../STM32Cube_FW_N6/Drivers/STM32N6xx_HAL_Driver/Src/stm32n6xx_hal_rif.c ****   *           @arg @ref RISAF_REGION_5
 662:../STM32Cube_FW_N6/Drivers/STM32N6xx_HAL_Driver/Src/stm32n6xx_hal_rif.c ****   *           @arg @ref RISAF_REGION_6
 663:../STM32Cube_FW_N6/Drivers/STM32N6xx_HAL_Driver/Src/stm32n6xx_hal_rif.c ****   *           @arg @ref RISAF_REGION_7
 664:../STM32Cube_FW_N6/Drivers/STM32N6xx_HAL_Driver/Src/stm32n6xx_hal_rif.c ****   *           @arg @ref RISAF_REGION_8
 665:../STM32Cube_FW_N6/Drivers/STM32N6xx_HAL_Driver/Src/stm32n6xx_hal_rif.c ****   *           @arg @ref RISAF_REGION_9
 666:../STM32Cube_FW_N6/Drivers/STM32N6xx_HAL_Driver/Src/stm32n6xx_hal_rif.c ****   *           @arg @ref RISAF_REGION_10
 667:../STM32Cube_FW_N6/Drivers/STM32N6xx_HAL_Driver/Src/stm32n6xx_hal_rif.c ****   *           @arg @ref RISAF_REGION_11
 668:../STM32Cube_FW_N6/Drivers/STM32N6xx_HAL_Driver/Src/stm32n6xx_hal_rif.c ****   *           @arg @ref RISAF_REGION_12
 669:../STM32Cube_FW_N6/Drivers/STM32N6xx_HAL_Driver/Src/stm32n6xx_hal_rif.c ****   *           @arg @ref RISAF_REGION_13
 670:../STM32Cube_FW_N6/Drivers/STM32N6xx_HAL_Driver/Src/stm32n6xx_hal_rif.c ****   *           @arg @ref RISAF_REGION_14
 671:../STM32Cube_FW_N6/Drivers/STM32N6xx_HAL_Driver/Src/stm32n6xx_hal_rif.c ****   *           @arg @ref RISAF_REGION_15
 672:../STM32Cube_FW_N6/Drivers/STM32N6xx_HAL_Driver/Src/stm32n6xx_hal_rif.c ****   * @param  SubRegion specifies the RISAB Subregion index
 673:../STM32Cube_FW_N6/Drivers/STM32N6xx_HAL_Driver/Src/stm32n6xx_hal_rif.c ****   *         This parameter can be one of the following values:
 674:../STM32Cube_FW_N6/Drivers/STM32N6xx_HAL_Driver/Src/stm32n6xx_hal_rif.c ****   *           @arg @ref RISAF_SUBREGION_A
 675:../STM32Cube_FW_N6/Drivers/STM32N6xx_HAL_Driver/Src/stm32n6xx_hal_rif.c ****   *           @arg @ref RISAF_SUBREGION_B
 676:../STM32Cube_FW_N6/Drivers/STM32N6xx_HAL_Driver/Src/stm32n6xx_hal_rif.c ****   * @param  pConfig Pointer on RISAF Subregion configuration structure
 677:../STM32Cube_FW_N6/Drivers/STM32N6xx_HAL_Driver/Src/stm32n6xx_hal_rif.c ****   * @retval None
 678:../STM32Cube_FW_N6/Drivers/STM32N6xx_HAL_Driver/Src/stm32n6xx_hal_rif.c ****   */
 679:../STM32Cube_FW_N6/Drivers/STM32N6xx_HAL_Driver/Src/stm32n6xx_hal_rif.c **** void HAL_RIF_RISAF_ConfigSubRegionDelegation(RISAF_TypeDef *RISAFx, uint32_t Region, uint32_t SubRe
 680:../STM32Cube_FW_N6/Drivers/STM32N6xx_HAL_Driver/Src/stm32n6xx_hal_rif.c ****                                              const RISAF_DelegationConfig_t *pConfig)
ARM GAS  /tmp/ccHKmbxS.s 			page 64


 681:../STM32Cube_FW_N6/Drivers/STM32N6xx_HAL_Driver/Src/stm32n6xx_hal_rif.c **** {
 2420              		.loc 1 681 1 is_stmt 1 view -0
 2421              		.cfi_startproc
 2422              		@ args = 0, pretend = 0, frame = 0
 2423              		@ frame_needed = 0, uses_anonymous_args = 0
 682:../STM32Cube_FW_N6/Drivers/STM32N6xx_HAL_Driver/Src/stm32n6xx_hal_rif.c ****   uint32_t cid;
 2424              		.loc 1 682 3 view .LVU570
 683:../STM32Cube_FW_N6/Drivers/STM32N6xx_HAL_Driver/Src/stm32n6xx_hal_rif.c ****   uint32_t nestr_reg;
 2425              		.loc 1 683 3 view .LVU571
 684:../STM32Cube_FW_N6/Drivers/STM32N6xx_HAL_Driver/Src/stm32n6xx_hal_rif.c **** 
 685:../STM32Cube_FW_N6/Drivers/STM32N6xx_HAL_Driver/Src/stm32n6xx_hal_rif.c ****   /* Check the parameters */
 686:../STM32Cube_FW_N6/Drivers/STM32N6xx_HAL_Driver/Src/stm32n6xx_hal_rif.c ****   assert_param(pConfig != (void *)NULL);
 2426              		.loc 1 686 3 view .LVU572
 681:../STM32Cube_FW_N6/Drivers/STM32N6xx_HAL_Driver/Src/stm32n6xx_hal_rif.c ****   uint32_t cid;
 2427              		.loc 1 681 1 is_stmt 0 view .LVU573
 2428 0000 F8B5     		push	{r3, r4, r5, r6, r7, lr}
 2429              		.cfi_def_cfa_offset 24
 2430              		.cfi_offset 3, -24
 2431              		.cfi_offset 4, -20
 2432              		.cfi_offset 5, -16
 2433              		.cfi_offset 6, -12
 2434              		.cfi_offset 7, -8
 2435              		.cfi_offset 14, -4
 681:../STM32Cube_FW_N6/Drivers/STM32N6xx_HAL_Driver/Src/stm32n6xx_hal_rif.c ****   uint32_t cid;
 2436              		.loc 1 681 1 view .LVU574
 2437 0002 0546     		mov	r5, r0
 2438 0004 0C46     		mov	r4, r1
 2439 0006 1646     		mov	r6, r2
 2440              		.loc 1 686 3 view .LVU575
 2441 0008 1F46     		mov	r7, r3
 2442 000a 23B9     		cbnz	r3, .L367
 2443              		.loc 1 686 3 discriminator 1 view .LVU576
 2444 000c 40F2AE21 		movw	r1, #686
 2445              	.LVL123:
 2446              		.loc 1 686 3 discriminator 1 view .LVU577
 2447 0010 5948     		ldr	r0, .L433
 2448              	.LVL124:
 2449              		.loc 1 686 3 discriminator 1 view .LVU578
 2450 0012 FFF7FEFF 		bl	assert_failed
 2451              	.LVL125:
 2452              	.L367:
 687:../STM32Cube_FW_N6/Drivers/STM32N6xx_HAL_Driver/Src/stm32n6xx_hal_rif.c ****   assert_param(IS_RISAF_INSTANCE(RISAFx));
 2453              		.loc 1 687 3 is_stmt 1 view .LVU579
 2454 0016 594B     		ldr	r3, .L433+4
 2455 0018 9D42     		cmp	r5, r3
 2456 001a 00F0A880 		beq	.L370
 2457              		.loc 1 687 3 is_stmt 0 discriminator 1 view .LVU580
 2458 001e 03F58053 		add	r3, r3, #4096
 2459 0022 9D42     		cmp	r5, r3
 2460 0024 00F0A380 		beq	.L370
 2461              		.loc 1 687 3 discriminator 2 view .LVU581
 2462 0028 03F58053 		add	r3, r3, #4096
 2463 002c 9D42     		cmp	r5, r3
 2464 002e 00F09E80 		beq	.L370
 2465              		.loc 1 687 3 discriminator 3 view .LVU582
 2466 0032 03F58053 		add	r3, r3, #4096
 2467 0036 9D42     		cmp	r5, r3
ARM GAS  /tmp/ccHKmbxS.s 			page 65


 2468 0038 00F08880 		beq	.L373
 2469              		.loc 1 687 3 discriminator 4 view .LVU583
 2470 003c 03F58053 		add	r3, r3, #4096
 2471 0040 9D42     		cmp	r5, r3
 2472 0042 00F08380 		beq	.L373
 2473              		.loc 1 687 3 discriminator 5 view .LVU584
 2474 0046 03F58053 		add	r3, r3, #4096
 2475 004a 9D42     		cmp	r5, r3
 2476 004c 7ED0     		beq	.L373
 2477              		.loc 1 687 3 discriminator 6 view .LVU585
 2478 004e 03F58053 		add	r3, r3, #4096
 2479 0052 9D42     		cmp	r5, r3
 2480 0054 00F08B80 		beq	.L370
 2481              		.loc 1 687 3 discriminator 7 view .LVU586
 2482 0058 03F58053 		add	r3, r3, #4096
 2483 005c 9D42     		cmp	r5, r3
 2484 005e 00F08680 		beq	.L370
 2485              		.loc 1 687 3 discriminator 8 view .LVU587
 2486 0062 03F58053 		add	r3, r3, #4096
 2487 0066 9D42     		cmp	r5, r3
 2488 0068 00F08180 		beq	.L370
 2489              		.loc 1 687 3 discriminator 9 view .LVU588
 2490 006c 03F50053 		add	r3, r3, #8192
 2491 0070 9D42     		cmp	r5, r3
 2492 0072 7CD0     		beq	.L370
 2493              		.loc 1 687 3 discriminator 10 view .LVU589
 2494 0074 03F58053 		add	r3, r3, #4096
 2495 0078 9D42     		cmp	r5, r3
 2496 007a 78D0     		beq	.L370
 2497              		.loc 1 687 3 discriminator 11 view .LVU590
 2498 007c 03F58053 		add	r3, r3, #4096
 2499 0080 9D42     		cmp	r5, r3
 2500 0082 74D0     		beq	.L370
 2501              		.loc 1 687 3 discriminator 12 view .LVU591
 2502 0084 03F58053 		add	r3, r3, #4096
 2503 0088 9D42     		cmp	r5, r3
 2504 008a 70D0     		beq	.L370
 2505              		.loc 1 687 3 discriminator 13 view .LVU592
 2506 008c 03F58053 		add	r3, r3, #4096
 2507 0090 9D42     		cmp	r5, r3
 2508 0092 68D0     		beq	.L381
 2509              		.loc 1 687 3 discriminator 14 view .LVU593
 2510 0094 03F58053 		add	r3, r3, #4096
 2511 0098 9D42     		cmp	r5, r3
 2512 009a 68D0     		beq	.L370
 2513              		.loc 1 687 3 discriminator 15 view .LVU594
 2514 009c 03F58053 		add	r3, r3, #4096
 2515 00a0 9D42     		cmp	r5, r3
 2516 00a2 64D0     		beq	.L370
 2517              		.loc 1 687 3 discriminator 16 view .LVU595
 2518 00a4 03F58053 		add	r3, r3, #4096
 2519 00a8 9D42     		cmp	r5, r3
 2520 00aa 04D0     		beq	.L384
 2521              		.loc 1 687 3 discriminator 17 view .LVU596
 2522 00ac 40F2AF21 		movw	r1, #687
 2523 00b0 3148     		ldr	r0, .L433
 2524 00b2 FFF7FEFF 		bl	assert_failed
ARM GAS  /tmp/ccHKmbxS.s 			page 66


 2525              	.LVL126:
 2526              	.L384:
 688:../STM32Cube_FW_N6/Drivers/STM32N6xx_HAL_Driver/Src/stm32n6xx_hal_rif.c ****   assert_param(IS_RISAF_REGION(Region));
 2527              		.loc 1 688 3 is_stmt 1 view .LVU597
 2528 00b6 0E2C     		cmp	r4, #14
 2529 00b8 4AD8     		bhi	.L398
 689:../STM32Cube_FW_N6/Drivers/STM32N6xx_HAL_Driver/Src/stm32n6xx_hal_rif.c ****   assert_param(IS_RISAF_MAX_REGION(RISAFx, Region));
 2530              		.loc 1 689 3 is_stmt 0 discriminator 47 view .LVU598
 2531 00ba 022C     		cmp	r4, #2
 2532 00bc 00E0     		b	.L430
 2533              	.L399:
 2534              		.loc 1 689 3 discriminator 10 view .LVU599
 2535 00be 0A2C     		cmp	r4, #10
 2536              	.L430:
 2537              		.loc 1 689 3 discriminator 10 view .LVU600
 2538 00c0 8CBF     		ite	hi
 2539 00c2 0023     		movhi	r3, #0
 2540 00c4 0123     		movls	r3, #1
 2541              		.loc 1 689 3 discriminator 64 view .LVU601
 2542 00c6 002B     		cmp	r3, #0
 2543 00c8 47D0     		beq	.L385
 2544              	.L397:
 690:../STM32Cube_FW_N6/Drivers/STM32N6xx_HAL_Driver/Src/stm32n6xx_hal_rif.c ****   assert_param(IS_RISAF_SUBREGION(SubRegion));
 2545              		.loc 1 690 3 is_stmt 1 view .LVU602
 2546 00ca 012E     		cmp	r6, #1
 2547 00cc 04D9     		bls	.L388
 2548              		.loc 1 690 3 is_stmt 0 discriminator 1 view .LVU603
 2549 00ce 40F2B221 		movw	r1, #690
 2550 00d2 2948     		ldr	r0, .L433
 2551 00d4 FFF7FEFF 		bl	assert_failed
 2552              	.LVL127:
 2553              	.L388:
 691:../STM32Cube_FW_N6/Drivers/STM32N6xx_HAL_Driver/Src/stm32n6xx_hal_rif.c ****   assert_param(IS_RISAF_DELEGATION(pConfig->Delegation));
 2554              		.loc 1 691 3 is_stmt 1 view .LVU604
 2555 00d8 3B68     		ldr	r3, [r7]
 2556 00da 33F00403 		bics	r3, r3, #4
 2557 00de 04D0     		beq	.L389
 2558              		.loc 1 691 3 is_stmt 0 discriminator 2 view .LVU605
 2559 00e0 40F2B321 		movw	r1, #691
 2560 00e4 2448     		ldr	r0, .L433
 2561 00e6 FFF7FEFF 		bl	assert_failed
 2562              	.LVL128:
 2563              	.L389:
 692:../STM32Cube_FW_N6/Drivers/STM32N6xx_HAL_Driver/Src/stm32n6xx_hal_rif.c ****   assert_param(IS_RIF_SINGLE_CID(pConfig->DelegatedCID));
 2564              		.loc 1 692 3 is_stmt 1 view .LVU606
 2565 00ea 7968     		ldr	r1, [r7, #4]
 2566 00ec 2029     		cmp	r1, #32
 2567 00ee 20D8     		bhi	.L390
 2568 00f0 0329     		cmp	r1, #3
 2569 00f2 13D8     		bhi	.L391
 2570 00f4 0139     		subs	r1, r1, #1
 2571 00f6 0129     		cmp	r1, #1
 2572 00f8 15D8     		bhi	.L392
 2573              	.L393:
 693:../STM32Cube_FW_N6/Drivers/STM32N6xx_HAL_Driver/Src/stm32n6xx_hal_rif.c **** 
 694:../STM32Cube_FW_N6/Drivers/STM32N6xx_HAL_Driver/Src/stm32n6xx_hal_rif.c ****   /* Convert mask into bit position */
 695:../STM32Cube_FW_N6/Drivers/STM32N6xx_HAL_Driver/Src/stm32n6xx_hal_rif.c ****   cid = POSITION_VAL(pConfig->DelegatedCID);
ARM GAS  /tmp/ccHKmbxS.s 			page 67


 2574              		.loc 1 695 3 view .LVU607
 2575              	.LVL129:
 2576              	.LBB26:
 2577              	.LBI26:
 274:../STM32Cube_FW_N6/Drivers/CMSIS/Include/cmsis_gcc.h **** {
 2578              		.loc 2 274 31 view .LVU608
 2579              	.LBB27:
 276:../STM32Cube_FW_N6/Drivers/CMSIS/Include/cmsis_gcc.h **** 
 2580              		.loc 2 276 3 view .LVU609
 279:../STM32Cube_FW_N6/Drivers/CMSIS/Include/cmsis_gcc.h **** #else
 2581              		.loc 2 279 4 view .LVU610
 2582 00fa 7A68     		ldr	r2, [r7, #4]
 2583              		.syntax unified
 2584              	@ 279 "../STM32Cube_FW_N6/Drivers/CMSIS/Include/cmsis_gcc.h" 1
 2585 00fc 92FAA2F3 		rbit r3, r2
 2586              	@ 0 "" 2
 2587              	.LVL130:
 292:../STM32Cube_FW_N6/Drivers/CMSIS/Include/cmsis_gcc.h **** }
 2588              		.loc 2 292 3 view .LVU611
 292:../STM32Cube_FW_N6/Drivers/CMSIS/Include/cmsis_gcc.h **** }
 2589              		.loc 2 292 3 is_stmt 0 view .LVU612
 2590              		.thumb
 2591              		.syntax unified
 2592              	.LBE27:
 2593              	.LBE26:
 2594              	.LBB28:
 2595              	.LBI28:
 302:../STM32Cube_FW_N6/Drivers/CMSIS/Include/cmsis_gcc.h **** {
 2596              		.loc 2 302 30 is_stmt 1 view .LVU613
 2597              	.LBB29:
 313:../STM32Cube_FW_N6/Drivers/CMSIS/Include/cmsis_gcc.h ****   {
 2598              		.loc 2 313 3 view .LVU614
 2599              		.loc 2 317 10 is_stmt 0 discriminator 1 view .LVU615
 2600 0100 B3FA83F3 		clz	r3, r3
 2601              	.LVL131:
 2602              		.loc 2 317 10 discriminator 1 view .LVU616
 2603              	.LBE29:
 2604              	.LBE28:
 696:../STM32Cube_FW_N6/Drivers/STM32N6xx_HAL_Driver/Src/stm32n6xx_hal_rif.c **** 
 697:../STM32Cube_FW_N6/Drivers/STM32N6xx_HAL_Driver/Src/stm32n6xx_hal_rif.c ****   if (SubRegion == RISAF_SUBREGION_A)
 2605              		.loc 1 697 3 is_stmt 1 view .LVU617
 698:../STM32Cube_FW_N6/Drivers/STM32N6xx_HAL_Driver/Src/stm32n6xx_hal_rif.c ****   {
 699:../STM32Cube_FW_N6/Drivers/STM32N6xx_HAL_Driver/Src/stm32n6xx_hal_rif.c ****     nestr_reg = RISAFx->REG[Region].ANESTR;
 700:../STM32Cube_FW_N6/Drivers/STM32N6xx_HAL_Driver/Src/stm32n6xx_hal_rif.c ****     nestr_reg &= (~(RISAF_REGx_zNESTR_DCCID | RISAF_REGx_zNESTR_DCEN));
 701:../STM32Cube_FW_N6/Drivers/STM32N6xx_HAL_Driver/Src/stm32n6xx_hal_rif.c ****     nestr_reg |= ((cid << RISAF_REGx_zNESTR_DCCID_Pos) | pConfig->Delegation);
 2606              		.loc 1 701 65 is_stmt 0 view .LVU618
 2607 0104 3968     		ldr	r1, [r7]
 2608              		.loc 1 701 24 view .LVU619
 2609 0106 1B01     		lsls	r3, r3, #4
 2610              	.LVL132:
 2611              		.loc 1 701 24 view .LVU620
 2612 0108 A401     		lsls	r4, r4, #6
 2613              	.LVL133:
 697:../STM32Cube_FW_N6/Drivers/STM32N6xx_HAL_Driver/Src/stm32n6xx_hal_rif.c ****   {
 2614              		.loc 1 697 6 view .LVU621
 2615 010a BEB9     		cbnz	r6, .L395
 699:../STM32Cube_FW_N6/Drivers/STM32N6xx_HAL_Driver/Src/stm32n6xx_hal_rif.c ****     nestr_reg &= (~(RISAF_REGx_zNESTR_DCCID | RISAF_REGx_zNESTR_DCEN));
ARM GAS  /tmp/ccHKmbxS.s 			page 68


 2616              		.loc 1 699 5 is_stmt 1 view .LVU622
 699:../STM32Cube_FW_N6/Drivers/STM32N6xx_HAL_Driver/Src/stm32n6xx_hal_rif.c ****     nestr_reg &= (~(RISAF_REGx_zNESTR_DCCID | RISAF_REGx_zNESTR_DCEN));
 2617              		.loc 1 699 15 is_stmt 0 view .LVU623
 2618 010c 2C44     		add	r4, r4, r5
 2619 010e E26D     		ldr	r2, [r4, #92]
 2620              	.LVL134:
 700:../STM32Cube_FW_N6/Drivers/STM32N6xx_HAL_Driver/Src/stm32n6xx_hal_rif.c ****     nestr_reg |= ((cid << RISAF_REGx_zNESTR_DCCID_Pos) | pConfig->Delegation);
 2621              		.loc 1 700 5 is_stmt 1 view .LVU624
 2622              		.loc 1 701 5 view .LVU625
 700:../STM32Cube_FW_N6/Drivers/STM32N6xx_HAL_Driver/Src/stm32n6xx_hal_rif.c ****     nestr_reg |= ((cid << RISAF_REGx_zNESTR_DCCID_Pos) | pConfig->Delegation);
 2623              		.loc 1 700 15 is_stmt 0 view .LVU626
 2624 0110 22F07402 		bic	r2, r2, #116
 2625              	.LVL135:
 700:../STM32Cube_FW_N6/Drivers/STM32N6xx_HAL_Driver/Src/stm32n6xx_hal_rif.c ****     nestr_reg |= ((cid << RISAF_REGx_zNESTR_DCCID_Pos) | pConfig->Delegation);
 2626              		.loc 1 700 15 view .LVU627
 2627 0114 0A43     		orrs	r2, r2, r1
 2628              	.LVL136:
 2629              		.loc 1 701 15 view .LVU628
 2630 0116 1343     		orrs	r3, r3, r2
 2631              	.LVL137:
 702:../STM32Cube_FW_N6/Drivers/STM32N6xx_HAL_Driver/Src/stm32n6xx_hal_rif.c ****     RISAFx->REG[Region].ANESTR = nestr_reg;
 2632              		.loc 1 702 5 is_stmt 1 view .LVU629
 2633              		.loc 1 702 32 is_stmt 0 view .LVU630
 2634 0118 E365     		str	r3, [r4, #92]
 2635              	.L366:
 703:../STM32Cube_FW_N6/Drivers/STM32N6xx_HAL_Driver/Src/stm32n6xx_hal_rif.c ****   }
 704:../STM32Cube_FW_N6/Drivers/STM32N6xx_HAL_Driver/Src/stm32n6xx_hal_rif.c ****   else
 705:../STM32Cube_FW_N6/Drivers/STM32N6xx_HAL_Driver/Src/stm32n6xx_hal_rif.c ****   {
 706:../STM32Cube_FW_N6/Drivers/STM32N6xx_HAL_Driver/Src/stm32n6xx_hal_rif.c ****     nestr_reg = RISAFx->REG[Region].BNESTR;
 707:../STM32Cube_FW_N6/Drivers/STM32N6xx_HAL_Driver/Src/stm32n6xx_hal_rif.c ****     nestr_reg &= (~(RISAF_REGx_zNESTR_DCCID | RISAF_REGx_zNESTR_DCEN));
 708:../STM32Cube_FW_N6/Drivers/STM32N6xx_HAL_Driver/Src/stm32n6xx_hal_rif.c ****     nestr_reg |= ((cid << RISAF_REGx_zNESTR_DCCID_Pos) | pConfig->Delegation);
 709:../STM32Cube_FW_N6/Drivers/STM32N6xx_HAL_Driver/Src/stm32n6xx_hal_rif.c ****     RISAFx->REG[Region].BNESTR = nestr_reg;
 710:../STM32Cube_FW_N6/Drivers/STM32N6xx_HAL_Driver/Src/stm32n6xx_hal_rif.c ****   }
 711:../STM32Cube_FW_N6/Drivers/STM32N6xx_HAL_Driver/Src/stm32n6xx_hal_rif.c **** }
 2636              		.loc 1 711 1 view .LVU631
 2637 011a F8BD     		pop	{r3, r4, r5, r6, r7, pc}
 2638              	.LVL138:
 2639              	.L391:
 2640              		.loc 1 711 1 view .LVU632
 2641 011c 184B     		ldr	r3, .L433+8
 2642 011e 0439     		subs	r1, r1, #4
 2643 0120 CB40     		lsrs	r3, r3, r1
 2644 0122 DB07     		lsls	r3, r3, #31
 2645 0124 E9D4     		bmi	.L393
 2646              	.L392:
 692:../STM32Cube_FW_N6/Drivers/STM32N6xx_HAL_Driver/Src/stm32n6xx_hal_rif.c **** 
 2647              		.loc 1 692 3 discriminator 7 view .LVU633
 2648 0126 4FF42D71 		mov	r1, #692
 2649 012a 1348     		ldr	r0, .L433
 2650 012c FFF7FEFF 		bl	assert_failed
 2651              	.LVL139:
 2652 0130 E3E7     		b	.L393
 2653              	.L390:
 2654 0132 4029     		cmp	r1, #64
 2655 0134 E1D0     		beq	.L393
 2656 0136 8029     		cmp	r1, #128
 2657 0138 F5D1     		bne	.L392
ARM GAS  /tmp/ccHKmbxS.s 			page 69


 2658 013a DEE7     		b	.L393
 2659              	.LVL140:
 2660              	.L395:
 706:../STM32Cube_FW_N6/Drivers/STM32N6xx_HAL_Driver/Src/stm32n6xx_hal_rif.c ****     nestr_reg &= (~(RISAF_REGx_zNESTR_DCCID | RISAF_REGx_zNESTR_DCEN));
 2661              		.loc 1 706 5 is_stmt 1 view .LVU634
 706:../STM32Cube_FW_N6/Drivers/STM32N6xx_HAL_Driver/Src/stm32n6xx_hal_rif.c ****     nestr_reg &= (~(RISAF_REGx_zNESTR_DCCID | RISAF_REGx_zNESTR_DCEN));
 2662              		.loc 1 706 15 is_stmt 0 view .LVU635
 2663 013c 2819     		adds	r0, r5, r4
 2664 013e C26E     		ldr	r2, [r0, #108]
 2665              	.LVL141:
 707:../STM32Cube_FW_N6/Drivers/STM32N6xx_HAL_Driver/Src/stm32n6xx_hal_rif.c ****     nestr_reg |= ((cid << RISAF_REGx_zNESTR_DCCID_Pos) | pConfig->Delegation);
 2666              		.loc 1 707 5 is_stmt 1 view .LVU636
 708:../STM32Cube_FW_N6/Drivers/STM32N6xx_HAL_Driver/Src/stm32n6xx_hal_rif.c ****     RISAFx->REG[Region].BNESTR = nestr_reg;
 2667              		.loc 1 708 5 view .LVU637
 707:../STM32Cube_FW_N6/Drivers/STM32N6xx_HAL_Driver/Src/stm32n6xx_hal_rif.c ****     nestr_reg |= ((cid << RISAF_REGx_zNESTR_DCCID_Pos) | pConfig->Delegation);
 2668              		.loc 1 707 15 is_stmt 0 view .LVU638
 2669 0140 22F07402 		bic	r2, r2, #116
 2670              	.LVL142:
 707:../STM32Cube_FW_N6/Drivers/STM32N6xx_HAL_Driver/Src/stm32n6xx_hal_rif.c ****     nestr_reg |= ((cid << RISAF_REGx_zNESTR_DCCID_Pos) | pConfig->Delegation);
 2671              		.loc 1 707 15 view .LVU639
 2672 0144 0A43     		orrs	r2, r2, r1
 2673              	.LVL143:
 708:../STM32Cube_FW_N6/Drivers/STM32N6xx_HAL_Driver/Src/stm32n6xx_hal_rif.c ****     RISAFx->REG[Region].BNESTR = nestr_reg;
 2674              		.loc 1 708 15 view .LVU640
 2675 0146 1343     		orrs	r3, r3, r2
 2676              	.LVL144:
 709:../STM32Cube_FW_N6/Drivers/STM32N6xx_HAL_Driver/Src/stm32n6xx_hal_rif.c ****   }
 2677              		.loc 1 709 5 is_stmt 1 view .LVU641
 709:../STM32Cube_FW_N6/Drivers/STM32N6xx_HAL_Driver/Src/stm32n6xx_hal_rif.c ****   }
 2678              		.loc 1 709 32 is_stmt 0 view .LVU642
 2679 0148 C366     		str	r3, [r0, #108]
 2680              		.loc 1 711 1 view .LVU643
 2681 014a E6E7     		b	.L366
 2682              	.LVL145:
 2683              	.L373:
 688:../STM32Cube_FW_N6/Drivers/STM32N6xx_HAL_Driver/Src/stm32n6xx_hal_rif.c ****   assert_param(IS_RISAF_MAX_REGION(RISAFx, Region));
 2684              		.loc 1 688 3 is_stmt 1 view .LVU644
 2685 014c 0E2C     		cmp	r4, #14
 2686 014e B6D9     		bls	.L399
 2687              	.L398:
 688:../STM32Cube_FW_N6/Drivers/STM32N6xx_HAL_Driver/Src/stm32n6xx_hal_rif.c ****   assert_param(IS_RISAF_MAX_REGION(RISAFx, Region));
 2688              		.loc 1 688 3 is_stmt 0 discriminator 1 view .LVU645
 2689 0150 4FF42C71 		mov	r1, #688
 2690 0154 0848     		ldr	r0, .L433
 2691 0156 FFF7FEFF 		bl	assert_failed
 2692              	.LVL146:
 689:../STM32Cube_FW_N6/Drivers/STM32N6xx_HAL_Driver/Src/stm32n6xx_hal_rif.c ****   assert_param(IS_RISAF_SUBREGION(SubRegion));
 2693              		.loc 1 689 3 is_stmt 1 view .LVU646
 2694              	.L385:
 689:../STM32Cube_FW_N6/Drivers/STM32N6xx_HAL_Driver/Src/stm32n6xx_hal_rif.c ****   assert_param(IS_RISAF_SUBREGION(SubRegion));
 2695              		.loc 1 689 3 is_stmt 0 discriminator 65 view .LVU647
 2696 015a 40F2B121 		movw	r1, #689
 2697 015e 0648     		ldr	r0, .L433
 2698 0160 FFF7FEFF 		bl	assert_failed
 2699              	.LVL147:
 2700 0164 B1E7     		b	.L397
 2701              	.L381:
ARM GAS  /tmp/ccHKmbxS.s 			page 70


 688:../STM32Cube_FW_N6/Drivers/STM32N6xx_HAL_Driver/Src/stm32n6xx_hal_rif.c ****   assert_param(IS_RISAF_MAX_REGION(RISAFx, Region));
 2702              		.loc 1 688 3 is_stmt 1 view .LVU648
 2703 0166 0E2C     		cmp	r4, #14
 2704 0168 F2D8     		bhi	.L398
 689:../STM32Cube_FW_N6/Drivers/STM32N6xx_HAL_Driver/Src/stm32n6xx_hal_rif.c ****   assert_param(IS_RISAF_SUBREGION(SubRegion));
 2705              		.loc 1 689 3 is_stmt 0 discriminator 40 view .LVU649
 2706 016a 012C     		cmp	r4, #1
 2707 016c A8E7     		b	.L430
 2708              	.L370:
 688:../STM32Cube_FW_N6/Drivers/STM32N6xx_HAL_Driver/Src/stm32n6xx_hal_rif.c ****   assert_param(IS_RISAF_MAX_REGION(RISAFx, Region));
 2709              		.loc 1 688 3 is_stmt 1 view .LVU650
 2710 016e 0E2C     		cmp	r4, #14
 2711 0170 EED8     		bhi	.L398
 689:../STM32Cube_FW_N6/Drivers/STM32N6xx_HAL_Driver/Src/stm32n6xx_hal_rif.c ****   assert_param(IS_RISAF_SUBREGION(SubRegion));
 2712              		.loc 1 689 3 is_stmt 0 discriminator 25 view .LVU651
 2713 0172 062C     		cmp	r4, #6
 2714 0174 A4E7     		b	.L430
 2715              	.L434:
 2716 0176 00BF     		.align	2
 2717              	.L433:
 2718 0178 00000000 		.word	.LC0
 2719 017c 00600254 		.word	1409441792
 2720 0180 11100010 		.word	268439569
 2721              		.cfi_endproc
 2722              	.LFE897:
 2724              		.section	.text.HAL_RIF_RISAF_GetConfigSubRegionDelegation,"ax",%progbits
 2725              		.align	1
 2726              		.global	HAL_RIF_RISAF_GetConfigSubRegionDelegation
 2727              		.syntax unified
 2728              		.thumb
 2729              		.thumb_func
 2731              	HAL_RIF_RISAF_GetConfigSubRegionDelegation:
 2732              	.LVL148:
 2733              	.LFB898:
 712:../STM32Cube_FW_N6/Drivers/STM32N6xx_HAL_Driver/Src/stm32n6xx_hal_rif.c **** #endif /* defined(CPU_AS_TRUSTED_DOMAIN) */
 713:../STM32Cube_FW_N6/Drivers/STM32N6xx_HAL_Driver/Src/stm32n6xx_hal_rif.c **** 
 714:../STM32Cube_FW_N6/Drivers/STM32N6xx_HAL_Driver/Src/stm32n6xx_hal_rif.c **** /**
 715:../STM32Cube_FW_N6/Drivers/STM32N6xx_HAL_Driver/Src/stm32n6xx_hal_rif.c ****   * @brief  Get the delegation configuration of a RISAF Subregion.
 716:../STM32Cube_FW_N6/Drivers/STM32N6xx_HAL_Driver/Src/stm32n6xx_hal_rif.c ****   * @param  RISAFx specifies the RISAF instance.
 717:../STM32Cube_FW_N6/Drivers/STM32N6xx_HAL_Driver/Src/stm32n6xx_hal_rif.c ****   *         This parameter is one of the RISAF instances defined in the CMSIS.
 718:../STM32Cube_FW_N6/Drivers/STM32N6xx_HAL_Driver/Src/stm32n6xx_hal_rif.c ****   * @param  Region specifies the RISAF region index
 719:../STM32Cube_FW_N6/Drivers/STM32N6xx_HAL_Driver/Src/stm32n6xx_hal_rif.c ****   *         This parameter can be one one of the following values:
 720:../STM32Cube_FW_N6/Drivers/STM32N6xx_HAL_Driver/Src/stm32n6xx_hal_rif.c ****   *           @arg @ref RISAF_REGION_1
 721:../STM32Cube_FW_N6/Drivers/STM32N6xx_HAL_Driver/Src/stm32n6xx_hal_rif.c ****   *           @arg @ref RISAF_REGION_2
 722:../STM32Cube_FW_N6/Drivers/STM32N6xx_HAL_Driver/Src/stm32n6xx_hal_rif.c ****   *           @arg @ref RISAF_REGION_3
 723:../STM32Cube_FW_N6/Drivers/STM32N6xx_HAL_Driver/Src/stm32n6xx_hal_rif.c ****   *           @arg @ref RISAF_REGION_4
 724:../STM32Cube_FW_N6/Drivers/STM32N6xx_HAL_Driver/Src/stm32n6xx_hal_rif.c ****   *           @arg @ref RISAF_REGION_5
 725:../STM32Cube_FW_N6/Drivers/STM32N6xx_HAL_Driver/Src/stm32n6xx_hal_rif.c ****   *           @arg @ref RISAF_REGION_6
 726:../STM32Cube_FW_N6/Drivers/STM32N6xx_HAL_Driver/Src/stm32n6xx_hal_rif.c ****   *           @arg @ref RISAF_REGION_7
 727:../STM32Cube_FW_N6/Drivers/STM32N6xx_HAL_Driver/Src/stm32n6xx_hal_rif.c ****   *           @arg @ref RISAF_REGION_8
 728:../STM32Cube_FW_N6/Drivers/STM32N6xx_HAL_Driver/Src/stm32n6xx_hal_rif.c ****   *           @arg @ref RISAF_REGION_9
 729:../STM32Cube_FW_N6/Drivers/STM32N6xx_HAL_Driver/Src/stm32n6xx_hal_rif.c ****   *           @arg @ref RISAF_REGION_10
 730:../STM32Cube_FW_N6/Drivers/STM32N6xx_HAL_Driver/Src/stm32n6xx_hal_rif.c ****   *           @arg @ref RISAF_REGION_11
 731:../STM32Cube_FW_N6/Drivers/STM32N6xx_HAL_Driver/Src/stm32n6xx_hal_rif.c ****   *           @arg @ref RISAF_REGION_12
 732:../STM32Cube_FW_N6/Drivers/STM32N6xx_HAL_Driver/Src/stm32n6xx_hal_rif.c ****   *           @arg @ref RISAF_REGION_13
 733:../STM32Cube_FW_N6/Drivers/STM32N6xx_HAL_Driver/Src/stm32n6xx_hal_rif.c ****   *           @arg @ref RISAF_REGION_14
 734:../STM32Cube_FW_N6/Drivers/STM32N6xx_HAL_Driver/Src/stm32n6xx_hal_rif.c ****   *           @arg @ref RISAF_REGION_15
ARM GAS  /tmp/ccHKmbxS.s 			page 71


 735:../STM32Cube_FW_N6/Drivers/STM32N6xx_HAL_Driver/Src/stm32n6xx_hal_rif.c ****   * @param  SubRegion specifies the RISAB Subregion index
 736:../STM32Cube_FW_N6/Drivers/STM32N6xx_HAL_Driver/Src/stm32n6xx_hal_rif.c ****   *         This parameter can be one of the following values:
 737:../STM32Cube_FW_N6/Drivers/STM32N6xx_HAL_Driver/Src/stm32n6xx_hal_rif.c ****   *           @arg @ref RISAF_SUBREGION_A
 738:../STM32Cube_FW_N6/Drivers/STM32N6xx_HAL_Driver/Src/stm32n6xx_hal_rif.c ****   *           @arg @ref RISAF_SUBREGION_B
 739:../STM32Cube_FW_N6/Drivers/STM32N6xx_HAL_Driver/Src/stm32n6xx_hal_rif.c ****   * @param  pConfig Pointer on RISAF Subregion configuration structure
 740:../STM32Cube_FW_N6/Drivers/STM32N6xx_HAL_Driver/Src/stm32n6xx_hal_rif.c ****   * @retval None
 741:../STM32Cube_FW_N6/Drivers/STM32N6xx_HAL_Driver/Src/stm32n6xx_hal_rif.c ****   */
 742:../STM32Cube_FW_N6/Drivers/STM32N6xx_HAL_Driver/Src/stm32n6xx_hal_rif.c **** void HAL_RIF_RISAF_GetConfigSubRegionDelegation(const RISAF_TypeDef *RISAFx, uint32_t Region, uint3
 743:../STM32Cube_FW_N6/Drivers/STM32N6xx_HAL_Driver/Src/stm32n6xx_hal_rif.c ****                                                 RISAF_DelegationConfig_t *pConfig)
 744:../STM32Cube_FW_N6/Drivers/STM32N6xx_HAL_Driver/Src/stm32n6xx_hal_rif.c **** {
 2734              		.loc 1 744 1 is_stmt 1 view -0
 2735              		.cfi_startproc
 2736              		@ args = 0, pretend = 0, frame = 0
 2737              		@ frame_needed = 0, uses_anonymous_args = 0
 745:../STM32Cube_FW_N6/Drivers/STM32N6xx_HAL_Driver/Src/stm32n6xx_hal_rif.c ****   uint32_t cid;
 2738              		.loc 1 745 3 view .LVU653
 746:../STM32Cube_FW_N6/Drivers/STM32N6xx_HAL_Driver/Src/stm32n6xx_hal_rif.c **** 
 747:../STM32Cube_FW_N6/Drivers/STM32N6xx_HAL_Driver/Src/stm32n6xx_hal_rif.c ****   /* Check the parameters */
 748:../STM32Cube_FW_N6/Drivers/STM32N6xx_HAL_Driver/Src/stm32n6xx_hal_rif.c ****   assert_param(pConfig != (void *)NULL);
 2739              		.loc 1 748 3 view .LVU654
 744:../STM32Cube_FW_N6/Drivers/STM32N6xx_HAL_Driver/Src/stm32n6xx_hal_rif.c ****   uint32_t cid;
 2740              		.loc 1 744 1 is_stmt 0 view .LVU655
 2741 0000 F8B5     		push	{r3, r4, r5, r6, r7, lr}
 2742              		.cfi_def_cfa_offset 24
 2743              		.cfi_offset 3, -24
 2744              		.cfi_offset 4, -20
 2745              		.cfi_offset 5, -16
 2746              		.cfi_offset 6, -12
 2747              		.cfi_offset 7, -8
 2748              		.cfi_offset 14, -4
 744:../STM32Cube_FW_N6/Drivers/STM32N6xx_HAL_Driver/Src/stm32n6xx_hal_rif.c ****   uint32_t cid;
 2749              		.loc 1 744 1 view .LVU656
 2750 0002 0546     		mov	r5, r0
 2751 0004 0C46     		mov	r4, r1
 2752 0006 1746     		mov	r7, r2
 2753              		.loc 1 748 3 view .LVU657
 2754 0008 1E46     		mov	r6, r3
 2755 000a 23B9     		cbnz	r3, .L436
 2756              		.loc 1 748 3 discriminator 1 view .LVU658
 2757 000c 4FF43B71 		mov	r1, #748
 2758              	.LVL149:
 2759              		.loc 1 748 3 discriminator 1 view .LVU659
 2760 0010 4348     		ldr	r0, .L488
 2761              	.LVL150:
 2762              		.loc 1 748 3 discriminator 1 view .LVU660
 2763 0012 FFF7FEFF 		bl	assert_failed
 2764              	.LVL151:
 2765              	.L436:
 749:../STM32Cube_FW_N6/Drivers/STM32N6xx_HAL_Driver/Src/stm32n6xx_hal_rif.c ****   assert_param(IS_RISAF_INSTANCE(RISAFx));
 2766              		.loc 1 749 3 is_stmt 1 view .LVU661
 2767 0016 434B     		ldr	r3, .L488+4
 2768 0018 9D42     		cmp	r5, r3
 2769 001a 7DD0     		beq	.L439
 2770              		.loc 1 749 3 is_stmt 0 discriminator 1 view .LVU662
 2771 001c 03F58053 		add	r3, r3, #4096
 2772 0020 9D42     		cmp	r5, r3
 2773 0022 79D0     		beq	.L439
ARM GAS  /tmp/ccHKmbxS.s 			page 72


 2774              		.loc 1 749 3 discriminator 2 view .LVU663
 2775 0024 03F58053 		add	r3, r3, #4096
 2776 0028 9D42     		cmp	r5, r3
 2777 002a 75D0     		beq	.L439
 2778              		.loc 1 749 3 discriminator 3 view .LVU664
 2779 002c 03F58053 		add	r3, r3, #4096
 2780 0030 9D42     		cmp	r5, r3
 2781 0032 60D0     		beq	.L442
 2782              		.loc 1 749 3 discriminator 4 view .LVU665
 2783 0034 03F58053 		add	r3, r3, #4096
 2784 0038 9D42     		cmp	r5, r3
 2785 003a 5CD0     		beq	.L442
 2786              		.loc 1 749 3 discriminator 5 view .LVU666
 2787 003c 03F58053 		add	r3, r3, #4096
 2788 0040 9D42     		cmp	r5, r3
 2789 0042 58D0     		beq	.L442
 2790              		.loc 1 749 3 discriminator 6 view .LVU667
 2791 0044 03F58053 		add	r3, r3, #4096
 2792 0048 9D42     		cmp	r5, r3
 2793 004a 65D0     		beq	.L439
 2794              		.loc 1 749 3 discriminator 7 view .LVU668
 2795 004c 03F58053 		add	r3, r3, #4096
 2796 0050 9D42     		cmp	r5, r3
 2797 0052 61D0     		beq	.L439
 2798              		.loc 1 749 3 discriminator 8 view .LVU669
 2799 0054 03F58053 		add	r3, r3, #4096
 2800 0058 9D42     		cmp	r5, r3
 2801 005a 5DD0     		beq	.L439
 2802              		.loc 1 749 3 discriminator 9 view .LVU670
 2803 005c 03F50053 		add	r3, r3, #8192
 2804 0060 9D42     		cmp	r5, r3
 2805 0062 59D0     		beq	.L439
 2806              		.loc 1 749 3 discriminator 10 view .LVU671
 2807 0064 03F58053 		add	r3, r3, #4096
 2808 0068 9D42     		cmp	r5, r3
 2809 006a 55D0     		beq	.L439
 2810              		.loc 1 749 3 discriminator 11 view .LVU672
 2811 006c 03F58053 		add	r3, r3, #4096
 2812 0070 9D42     		cmp	r5, r3
 2813 0072 51D0     		beq	.L439
 2814              		.loc 1 749 3 discriminator 12 view .LVU673
 2815 0074 03F58053 		add	r3, r3, #4096
 2816 0078 9D42     		cmp	r5, r3
 2817 007a 4DD0     		beq	.L439
 2818              		.loc 1 749 3 discriminator 13 view .LVU674
 2819 007c 03F58053 		add	r3, r3, #4096
 2820 0080 9D42     		cmp	r5, r3
 2821 0082 45D0     		beq	.L450
 2822              		.loc 1 749 3 discriminator 14 view .LVU675
 2823 0084 03F58053 		add	r3, r3, #4096
 2824 0088 9D42     		cmp	r5, r3
 2825 008a 45D0     		beq	.L439
 2826              		.loc 1 749 3 discriminator 15 view .LVU676
 2827 008c 03F58053 		add	r3, r3, #4096
 2828 0090 9D42     		cmp	r5, r3
 2829 0092 41D0     		beq	.L439
 2830              		.loc 1 749 3 discriminator 16 view .LVU677
ARM GAS  /tmp/ccHKmbxS.s 			page 73


 2831 0094 03F58053 		add	r3, r3, #4096
 2832 0098 9D42     		cmp	r5, r3
 2833 009a 04D0     		beq	.L453
 2834              		.loc 1 749 3 discriminator 17 view .LVU678
 2835 009c 40F2ED21 		movw	r1, #749
 2836 00a0 1F48     		ldr	r0, .L488
 2837 00a2 FFF7FEFF 		bl	assert_failed
 2838              	.LVL152:
 2839              	.L453:
 750:../STM32Cube_FW_N6/Drivers/STM32N6xx_HAL_Driver/Src/stm32n6xx_hal_rif.c ****   assert_param(IS_RISAF_REGION(Region));
 2840              		.loc 1 750 3 is_stmt 1 view .LVU679
 2841 00a6 0E2C     		cmp	r4, #14
 2842 00a8 27D8     		bhi	.L461
 751:../STM32Cube_FW_N6/Drivers/STM32N6xx_HAL_Driver/Src/stm32n6xx_hal_rif.c ****   assert_param(IS_RISAF_MAX_REGION(RISAFx, Region));
 2843              		.loc 1 751 3 is_stmt 0 discriminator 47 view .LVU680
 2844 00aa 022C     		cmp	r4, #2
 2845 00ac 00E0     		b	.L485
 2846              	.L462:
 2847              		.loc 1 751 3 discriminator 10 view .LVU681
 2848 00ae 0A2C     		cmp	r4, #10
 2849              	.L485:
 2850              		.loc 1 751 3 discriminator 10 view .LVU682
 2851 00b0 8CBF     		ite	hi
 2852 00b2 0023     		movhi	r3, #0
 2853 00b4 0123     		movls	r3, #1
 2854              		.loc 1 751 3 discriminator 64 view .LVU683
 2855 00b6 2BB3     		cbz	r3, .L454
 2856              	.L460:
 752:../STM32Cube_FW_N6/Drivers/STM32N6xx_HAL_Driver/Src/stm32n6xx_hal_rif.c ****   assert_param(IS_RISAF_SUBREGION(SubRegion));
 2857              		.loc 1 752 3 is_stmt 1 view .LVU684
 2858 00b8 012F     		cmp	r7, #1
 2859 00ba 4FEA8414 		lsl	r4, r4, #6
 2860              	.LVL153:
 2861              		.loc 1 752 3 is_stmt 0 view .LVU685
 2862 00be 0BD9     		bls	.L457
 2863              		.loc 1 752 3 discriminator 1 view .LVU686
 2864 00c0 4FF43C71 		mov	r1, #752
 2865 00c4 1648     		ldr	r0, .L488
 2866 00c6 FFF7FEFF 		bl	assert_failed
 2867              	.LVL154:
 753:../STM32Cube_FW_N6/Drivers/STM32N6xx_HAL_Driver/Src/stm32n6xx_hal_rif.c **** 
 754:../STM32Cube_FW_N6/Drivers/STM32N6xx_HAL_Driver/Src/stm32n6xx_hal_rif.c ****   if (SubRegion == RISAF_SUBREGION_A)
 2868              		.loc 1 754 3 is_stmt 1 view .LVU687
 2869              	.L458:
 755:../STM32Cube_FW_N6/Drivers/STM32N6xx_HAL_Driver/Src/stm32n6xx_hal_rif.c ****   {
 756:../STM32Cube_FW_N6/Drivers/STM32N6xx_HAL_Driver/Src/stm32n6xx_hal_rif.c ****     pConfig->Delegation = (RISAFx->REG[Region].ANESTR & RISAF_REGx_zNESTR_DCEN);
 757:../STM32Cube_FW_N6/Drivers/STM32N6xx_HAL_Driver/Src/stm32n6xx_hal_rif.c ****     cid = ((RISAFx->REG[Region].ANESTR & RISAF_REGx_zNESTR_DCCID) >> RISAF_REGx_zNESTR_DCCID_Pos);
 758:../STM32Cube_FW_N6/Drivers/STM32N6xx_HAL_Driver/Src/stm32n6xx_hal_rif.c ****   }
 759:../STM32Cube_FW_N6/Drivers/STM32N6xx_HAL_Driver/Src/stm32n6xx_hal_rif.c ****   else
 760:../STM32Cube_FW_N6/Drivers/STM32N6xx_HAL_Driver/Src/stm32n6xx_hal_rif.c ****   {
 761:../STM32Cube_FW_N6/Drivers/STM32N6xx_HAL_Driver/Src/stm32n6xx_hal_rif.c ****     pConfig->Delegation = (RISAFx->REG[Region].BNESTR & RISAF_REGx_zNESTR_DCEN);
 2870              		.loc 1 761 5 view .LVU688
 2871              		.loc 1 761 47 is_stmt 0 view .LVU689
 2872 00ca 2C44     		add	r4, r4, r5
 2873 00cc E36E     		ldr	r3, [r4, #108]
 2874              		.loc 1 761 55 view .LVU690
 2875 00ce 03F00403 		and	r3, r3, #4
ARM GAS  /tmp/ccHKmbxS.s 			page 74


 2876              		.loc 1 761 25 view .LVU691
 2877 00d2 3360     		str	r3, [r6]
 762:../STM32Cube_FW_N6/Drivers/STM32N6xx_HAL_Driver/Src/stm32n6xx_hal_rif.c ****     cid = ((RISAFx->REG[Region].BNESTR & RISAF_REGx_zNESTR_DCCID) >> RISAF_REGx_zNESTR_DCCID_Pos);
 2878              		.loc 1 762 5 is_stmt 1 view .LVU692
 2879              		.loc 1 762 32 is_stmt 0 view .LVU693
 2880 00d4 E36E     		ldr	r3, [r4, #108]
 2881 00d6 07E0     		b	.L484
 2882              	.L457:
 754:../STM32Cube_FW_N6/Drivers/STM32N6xx_HAL_Driver/Src/stm32n6xx_hal_rif.c ****   {
 2883              		.loc 1 754 3 is_stmt 1 view .LVU694
 754:../STM32Cube_FW_N6/Drivers/STM32N6xx_HAL_Driver/Src/stm32n6xx_hal_rif.c ****   {
 2884              		.loc 1 754 6 is_stmt 0 view .LVU695
 2885 00d8 002F     		cmp	r7, #0
 2886 00da F6D1     		bne	.L458
 756:../STM32Cube_FW_N6/Drivers/STM32N6xx_HAL_Driver/Src/stm32n6xx_hal_rif.c ****     cid = ((RISAFx->REG[Region].ANESTR & RISAF_REGx_zNESTR_DCCID) >> RISAF_REGx_zNESTR_DCCID_Pos);
 2887              		.loc 1 756 5 is_stmt 1 view .LVU696
 756:../STM32Cube_FW_N6/Drivers/STM32N6xx_HAL_Driver/Src/stm32n6xx_hal_rif.c ****     cid = ((RISAFx->REG[Region].ANESTR & RISAF_REGx_zNESTR_DCCID) >> RISAF_REGx_zNESTR_DCCID_Pos);
 2888              		.loc 1 756 47 is_stmt 0 view .LVU697
 2889 00dc 2C44     		add	r4, r4, r5
 2890 00de E36D     		ldr	r3, [r4, #92]
 756:../STM32Cube_FW_N6/Drivers/STM32N6xx_HAL_Driver/Src/stm32n6xx_hal_rif.c ****     cid = ((RISAFx->REG[Region].ANESTR & RISAF_REGx_zNESTR_DCCID) >> RISAF_REGx_zNESTR_DCCID_Pos);
 2891              		.loc 1 756 55 view .LVU698
 2892 00e0 03F00403 		and	r3, r3, #4
 756:../STM32Cube_FW_N6/Drivers/STM32N6xx_HAL_Driver/Src/stm32n6xx_hal_rif.c ****     cid = ((RISAFx->REG[Region].ANESTR & RISAF_REGx_zNESTR_DCCID) >> RISAF_REGx_zNESTR_DCCID_Pos);
 2893              		.loc 1 756 25 view .LVU699
 2894 00e4 3360     		str	r3, [r6]
 757:../STM32Cube_FW_N6/Drivers/STM32N6xx_HAL_Driver/Src/stm32n6xx_hal_rif.c ****   }
 2895              		.loc 1 757 5 is_stmt 1 view .LVU700
 757:../STM32Cube_FW_N6/Drivers/STM32N6xx_HAL_Driver/Src/stm32n6xx_hal_rif.c ****   }
 2896              		.loc 1 757 32 is_stmt 0 view .LVU701
 2897 00e6 E36D     		ldr	r3, [r4, #92]
 2898              	.L484:
 763:../STM32Cube_FW_N6/Drivers/STM32N6xx_HAL_Driver/Src/stm32n6xx_hal_rif.c ****   }
 764:../STM32Cube_FW_N6/Drivers/STM32N6xx_HAL_Driver/Src/stm32n6xx_hal_rif.c **** 
 765:../STM32Cube_FW_N6/Drivers/STM32N6xx_HAL_Driver/Src/stm32n6xx_hal_rif.c ****   pConfig->DelegatedCID = (1UL << cid);
 2899              		.loc 1 765 32 view .LVU702
 2900 00e8 0122     		movs	r2, #1
 762:../STM32Cube_FW_N6/Drivers/STM32N6xx_HAL_Driver/Src/stm32n6xx_hal_rif.c ****   }
 2901              		.loc 1 762 9 view .LVU703
 2902 00ea C3F30213 		ubfx	r3, r3, #4, #3
 2903              	.LVL155:
 2904              		.loc 1 765 3 is_stmt 1 view .LVU704
 2905              		.loc 1 765 32 is_stmt 0 view .LVU705
 2906 00ee 02FA03F3 		lsl	r3, r2, r3
 2907              	.LVL156:
 2908              		.loc 1 765 25 view .LVU706
 2909 00f2 7360     		str	r3, [r6, #4]
 766:../STM32Cube_FW_N6/Drivers/STM32N6xx_HAL_Driver/Src/stm32n6xx_hal_rif.c **** }
 2910              		.loc 1 766 1 view .LVU707
 2911 00f4 F8BD     		pop	{r3, r4, r5, r6, r7, pc}
 2912              	.LVL157:
 2913              	.L442:
 750:../STM32Cube_FW_N6/Drivers/STM32N6xx_HAL_Driver/Src/stm32n6xx_hal_rif.c ****   assert_param(IS_RISAF_MAX_REGION(RISAFx, Region));
 2914              		.loc 1 750 3 is_stmt 1 view .LVU708
 2915 00f6 0E2C     		cmp	r4, #14
 2916 00f8 D9D9     		bls	.L462
 2917              	.L461:
ARM GAS  /tmp/ccHKmbxS.s 			page 75


 750:../STM32Cube_FW_N6/Drivers/STM32N6xx_HAL_Driver/Src/stm32n6xx_hal_rif.c ****   assert_param(IS_RISAF_MAX_REGION(RISAFx, Region));
 2918              		.loc 1 750 3 is_stmt 0 discriminator 1 view .LVU709
 2919 00fa 40F2EE21 		movw	r1, #750
 2920 00fe 0848     		ldr	r0, .L488
 2921 0100 FFF7FEFF 		bl	assert_failed
 2922              	.LVL158:
 751:../STM32Cube_FW_N6/Drivers/STM32N6xx_HAL_Driver/Src/stm32n6xx_hal_rif.c ****   assert_param(IS_RISAF_SUBREGION(SubRegion));
 2923              		.loc 1 751 3 is_stmt 1 view .LVU710
 2924              	.L454:
 751:../STM32Cube_FW_N6/Drivers/STM32N6xx_HAL_Driver/Src/stm32n6xx_hal_rif.c ****   assert_param(IS_RISAF_SUBREGION(SubRegion));
 2925              		.loc 1 751 3 is_stmt 0 discriminator 65 view .LVU711
 2926 0104 40F2EF21 		movw	r1, #751
 2927 0108 0548     		ldr	r0, .L488
 2928 010a FFF7FEFF 		bl	assert_failed
 2929              	.LVL159:
 2930 010e D3E7     		b	.L460
 2931              	.L450:
 750:../STM32Cube_FW_N6/Drivers/STM32N6xx_HAL_Driver/Src/stm32n6xx_hal_rif.c ****   assert_param(IS_RISAF_MAX_REGION(RISAFx, Region));
 2932              		.loc 1 750 3 is_stmt 1 view .LVU712
 2933 0110 0E2C     		cmp	r4, #14
 2934 0112 F2D8     		bhi	.L461
 751:../STM32Cube_FW_N6/Drivers/STM32N6xx_HAL_Driver/Src/stm32n6xx_hal_rif.c ****   assert_param(IS_RISAF_SUBREGION(SubRegion));
 2935              		.loc 1 751 3 is_stmt 0 discriminator 40 view .LVU713
 2936 0114 012C     		cmp	r4, #1
 2937 0116 CBE7     		b	.L485
 2938              	.L439:
 750:../STM32Cube_FW_N6/Drivers/STM32N6xx_HAL_Driver/Src/stm32n6xx_hal_rif.c ****   assert_param(IS_RISAF_MAX_REGION(RISAFx, Region));
 2939              		.loc 1 750 3 is_stmt 1 view .LVU714
 2940 0118 0E2C     		cmp	r4, #14
 2941 011a EED8     		bhi	.L461
 751:../STM32Cube_FW_N6/Drivers/STM32N6xx_HAL_Driver/Src/stm32n6xx_hal_rif.c ****   assert_param(IS_RISAF_SUBREGION(SubRegion));
 2942              		.loc 1 751 3 is_stmt 0 discriminator 25 view .LVU715
 2943 011c 062C     		cmp	r4, #6
 2944 011e C7E7     		b	.L485
 2945              	.L489:
 2946              		.align	2
 2947              	.L488:
 2948 0120 00000000 		.word	.LC0
 2949 0124 00600254 		.word	1409441792
 2950              		.cfi_endproc
 2951              	.LFE898:
 2953              		.section	.text.HAL_RIF_RISAF_ConfigSubRegion,"ax",%progbits
 2954              		.align	1
 2955              		.global	HAL_RIF_RISAF_ConfigSubRegion
 2956              		.syntax unified
 2957              		.thumb
 2958              		.thumb_func
 2960              	HAL_RIF_RISAF_ConfigSubRegion:
 2961              	.LVL160:
 2962              	.LFB899:
 767:../STM32Cube_FW_N6/Drivers/STM32N6xx_HAL_Driver/Src/stm32n6xx_hal_rif.c **** 
 768:../STM32Cube_FW_N6/Drivers/STM32N6xx_HAL_Driver/Src/stm32n6xx_hal_rif.c **** /**
 769:../STM32Cube_FW_N6/Drivers/STM32N6xx_HAL_Driver/Src/stm32n6xx_hal_rif.c ****   * @brief  Configure a RISAF subregion.
 770:../STM32Cube_FW_N6/Drivers/STM32N6xx_HAL_Driver/Src/stm32n6xx_hal_rif.c ****   * @note   If pConfig->Filtering is equal to RISAF_FILTER_DISABLE, this API only disable the filte
 771:../STM32Cube_FW_N6/Drivers/STM32N6xx_HAL_Driver/Src/stm32n6xx_hal_rif.c ****   *         its configuration. It also can lock the current subregion configuration.
 772:../STM32Cube_FW_N6/Drivers/STM32N6xx_HAL_Driver/Src/stm32n6xx_hal_rif.c ****   * @note   It is not possible to modify the start and end address of a subregion if the filtering 
 773:../STM32Cube_FW_N6/Drivers/STM32N6xx_HAL_Driver/Src/stm32n6xx_hal_rif.c ****   * @param  RISAFx specifies the RISAF instance.
ARM GAS  /tmp/ccHKmbxS.s 			page 76


 774:../STM32Cube_FW_N6/Drivers/STM32N6xx_HAL_Driver/Src/stm32n6xx_hal_rif.c ****   *         This parameter is one of the RISAF instances defined in the CMSIS.
 775:../STM32Cube_FW_N6/Drivers/STM32N6xx_HAL_Driver/Src/stm32n6xx_hal_rif.c ****   * @param  Region specifies the RISAF region index
 776:../STM32Cube_FW_N6/Drivers/STM32N6xx_HAL_Driver/Src/stm32n6xx_hal_rif.c ****   *         This parameter can be one one of the following values:
 777:../STM32Cube_FW_N6/Drivers/STM32N6xx_HAL_Driver/Src/stm32n6xx_hal_rif.c ****   *           @arg @ref RISAF_REGION_1
 778:../STM32Cube_FW_N6/Drivers/STM32N6xx_HAL_Driver/Src/stm32n6xx_hal_rif.c ****   *           @arg @ref RISAF_REGION_2
 779:../STM32Cube_FW_N6/Drivers/STM32N6xx_HAL_Driver/Src/stm32n6xx_hal_rif.c ****   *           @arg @ref RISAF_REGION_3
 780:../STM32Cube_FW_N6/Drivers/STM32N6xx_HAL_Driver/Src/stm32n6xx_hal_rif.c ****   *           @arg @ref RISAF_REGION_4
 781:../STM32Cube_FW_N6/Drivers/STM32N6xx_HAL_Driver/Src/stm32n6xx_hal_rif.c ****   *           @arg @ref RISAF_REGION_5
 782:../STM32Cube_FW_N6/Drivers/STM32N6xx_HAL_Driver/Src/stm32n6xx_hal_rif.c ****   *           @arg @ref RISAF_REGION_6
 783:../STM32Cube_FW_N6/Drivers/STM32N6xx_HAL_Driver/Src/stm32n6xx_hal_rif.c ****   *           @arg @ref RISAF_REGION_7
 784:../STM32Cube_FW_N6/Drivers/STM32N6xx_HAL_Driver/Src/stm32n6xx_hal_rif.c ****   *           @arg @ref RISAF_REGION_8
 785:../STM32Cube_FW_N6/Drivers/STM32N6xx_HAL_Driver/Src/stm32n6xx_hal_rif.c ****   *           @arg @ref RISAF_REGION_9
 786:../STM32Cube_FW_N6/Drivers/STM32N6xx_HAL_Driver/Src/stm32n6xx_hal_rif.c ****   *           @arg @ref RISAF_REGION_10
 787:../STM32Cube_FW_N6/Drivers/STM32N6xx_HAL_Driver/Src/stm32n6xx_hal_rif.c ****   *           @arg @ref RISAF_REGION_11
 788:../STM32Cube_FW_N6/Drivers/STM32N6xx_HAL_Driver/Src/stm32n6xx_hal_rif.c ****   *           @arg @ref RISAF_REGION_12
 789:../STM32Cube_FW_N6/Drivers/STM32N6xx_HAL_Driver/Src/stm32n6xx_hal_rif.c ****   *           @arg @ref RISAF_REGION_13
 790:../STM32Cube_FW_N6/Drivers/STM32N6xx_HAL_Driver/Src/stm32n6xx_hal_rif.c ****   *           @arg @ref RISAF_REGION_14
 791:../STM32Cube_FW_N6/Drivers/STM32N6xx_HAL_Driver/Src/stm32n6xx_hal_rif.c ****   *           @arg @ref RISAF_REGION_15
 792:../STM32Cube_FW_N6/Drivers/STM32N6xx_HAL_Driver/Src/stm32n6xx_hal_rif.c ****   * @param  SubRegion specifies the RISAB Subregion index
 793:../STM32Cube_FW_N6/Drivers/STM32N6xx_HAL_Driver/Src/stm32n6xx_hal_rif.c ****   *         This parameter can be one of the following values:
 794:../STM32Cube_FW_N6/Drivers/STM32N6xx_HAL_Driver/Src/stm32n6xx_hal_rif.c ****   *           @arg @ref RISAF_SUBREGION_A
 795:../STM32Cube_FW_N6/Drivers/STM32N6xx_HAL_Driver/Src/stm32n6xx_hal_rif.c ****   *           @arg @ref RISAF_SUBREGION_B
 796:../STM32Cube_FW_N6/Drivers/STM32N6xx_HAL_Driver/Src/stm32n6xx_hal_rif.c ****   * @param  pConfig Pointer on RISAF Base Region configuration structure
 797:../STM32Cube_FW_N6/Drivers/STM32N6xx_HAL_Driver/Src/stm32n6xx_hal_rif.c ****   * @retval None
 798:../STM32Cube_FW_N6/Drivers/STM32N6xx_HAL_Driver/Src/stm32n6xx_hal_rif.c ****   */
 799:../STM32Cube_FW_N6/Drivers/STM32N6xx_HAL_Driver/Src/stm32n6xx_hal_rif.c **** void HAL_RIF_RISAF_ConfigSubRegion(RISAF_TypeDef *RISAFx, uint32_t Region, uint32_t SubRegion,
 800:../STM32Cube_FW_N6/Drivers/STM32N6xx_HAL_Driver/Src/stm32n6xx_hal_rif.c ****                                    const RISAF_SubRegionConfig_t *pConfig)
 801:../STM32Cube_FW_N6/Drivers/STM32N6xx_HAL_Driver/Src/stm32n6xx_hal_rif.c **** {
 2963              		.loc 1 801 1 is_stmt 1 view -0
 2964              		.cfi_startproc
 2965              		@ args = 0, pretend = 0, frame = 0
 2966              		@ frame_needed = 0, uses_anonymous_args = 0
 802:../STM32Cube_FW_N6/Drivers/STM32N6xx_HAL_Driver/Src/stm32n6xx_hal_rif.c ****   uint32_t cid;
 2967              		.loc 1 802 3 view .LVU717
 803:../STM32Cube_FW_N6/Drivers/STM32N6xx_HAL_Driver/Src/stm32n6xx_hal_rif.c **** 
 804:../STM32Cube_FW_N6/Drivers/STM32N6xx_HAL_Driver/Src/stm32n6xx_hal_rif.c ****   /* Check the parameters */
 805:../STM32Cube_FW_N6/Drivers/STM32N6xx_HAL_Driver/Src/stm32n6xx_hal_rif.c ****   assert_param(pConfig != (void *)NULL);
 2968              		.loc 1 805 3 view .LVU718
 801:../STM32Cube_FW_N6/Drivers/STM32N6xx_HAL_Driver/Src/stm32n6xx_hal_rif.c ****   uint32_t cid;
 2969              		.loc 1 801 1 is_stmt 0 view .LVU719
 2970 0000 2DE9F041 		push	{r4, r5, r6, r7, r8, lr}
 2971              		.cfi_def_cfa_offset 24
 2972              		.cfi_offset 4, -24
 2973              		.cfi_offset 5, -20
 2974              		.cfi_offset 6, -16
 2975              		.cfi_offset 7, -12
 2976              		.cfi_offset 8, -8
 2977              		.cfi_offset 14, -4
 801:../STM32Cube_FW_N6/Drivers/STM32N6xx_HAL_Driver/Src/stm32n6xx_hal_rif.c ****   uint32_t cid;
 2978              		.loc 1 801 1 view .LVU720
 2979 0004 0446     		mov	r4, r0
 2980 0006 0E46     		mov	r6, r1
 2981 0008 9046     		mov	r8, r2
 2982              		.loc 1 805 3 view .LVU721
 2983 000a 1D46     		mov	r5, r3
 2984 000c 23B9     		cbnz	r3, .L491
 2985              		.loc 1 805 3 discriminator 1 view .LVU722
ARM GAS  /tmp/ccHKmbxS.s 			page 77


 2986 000e 40F22531 		movw	r1, #805
 2987              	.LVL161:
 2988              		.loc 1 805 3 discriminator 1 view .LVU723
 2989 0012 9C48     		ldr	r0, .L800
 2990              	.LVL162:
 2991              		.loc 1 805 3 discriminator 1 view .LVU724
 2992 0014 FFF7FEFF 		bl	assert_failed
 2993              	.LVL163:
 2994              	.L491:
 806:../STM32Cube_FW_N6/Drivers/STM32N6xx_HAL_Driver/Src/stm32n6xx_hal_rif.c ****   assert_param(IS_RISAF_INSTANCE(RISAFx));
 2995              		.loc 1 806 3 is_stmt 1 view .LVU725
 2996 0018 9B4B     		ldr	r3, .L800+4
 2997 001a 9C42     		cmp	r4, r3
 2998 001c 00F0C984 		beq	.L494
 2999              		.loc 1 806 3 is_stmt 0 discriminator 1 view .LVU726
 3000 0020 03F58053 		add	r3, r3, #4096
 3001 0024 9C42     		cmp	r4, r3
 3002 0026 00F0C484 		beq	.L494
 3003              		.loc 1 806 3 discriminator 2 view .LVU727
 3004 002a 03F58053 		add	r3, r3, #4096
 3005 002e 9C42     		cmp	r4, r3
 3006 0030 00F0BF84 		beq	.L494
 3007              		.loc 1 806 3 discriminator 3 view .LVU728
 3008 0034 03F58053 		add	r3, r3, #4096
 3009 0038 9C42     		cmp	r4, r3
 3010 003a 00F07184 		beq	.L497
 3011              		.loc 1 806 3 discriminator 4 view .LVU729
 3012 003e 03F58053 		add	r3, r3, #4096
 3013 0042 9C42     		cmp	r4, r3
 3014 0044 00F06C84 		beq	.L497
 3015              		.loc 1 806 3 discriminator 5 view .LVU730
 3016 0048 03F58053 		add	r3, r3, #4096
 3017 004c 9C42     		cmp	r4, r3
 3018 004e 00F06784 		beq	.L497
 3019              		.loc 1 806 3 discriminator 6 view .LVU731
 3020 0052 03F58053 		add	r3, r3, #4096
 3021 0056 9C42     		cmp	r4, r3
 3022 0058 00F0AB84 		beq	.L494
 3023              		.loc 1 806 3 discriminator 7 view .LVU732
 3024 005c 03F58053 		add	r3, r3, #4096
 3025 0060 9C42     		cmp	r4, r3
 3026 0062 00F0A684 		beq	.L494
 3027              		.loc 1 806 3 discriminator 8 view .LVU733
 3028 0066 03F58053 		add	r3, r3, #4096
 3029 006a 9C42     		cmp	r4, r3
 3030 006c 00F0A184 		beq	.L494
 3031              		.loc 1 806 3 discriminator 9 view .LVU734
 3032 0070 03F50053 		add	r3, r3, #8192
 3033 0074 9C42     		cmp	r4, r3
 3034 0076 00F09C84 		beq	.L494
 3035              		.loc 1 806 3 discriminator 10 view .LVU735
 3036 007a 03F58053 		add	r3, r3, #4096
 3037 007e 9C42     		cmp	r4, r3
 3038 0080 00F09784 		beq	.L494
 3039              		.loc 1 806 3 discriminator 11 view .LVU736
 3040 0084 03F58053 		add	r3, r3, #4096
 3041 0088 9C42     		cmp	r4, r3
ARM GAS  /tmp/ccHKmbxS.s 			page 78


 3042 008a 00F09284 		beq	.L494
 3043              		.loc 1 806 3 discriminator 12 view .LVU737
 3044 008e 03F58053 		add	r3, r3, #4096
 3045 0092 9C42     		cmp	r4, r3
 3046 0094 00F08D84 		beq	.L494
 3047              		.loc 1 806 3 discriminator 13 view .LVU738
 3048 0098 03F58053 		add	r3, r3, #4096
 3049 009c 9C42     		cmp	r4, r3
 3050 009e 00F08484 		beq	.L505
 3051              		.loc 1 806 3 discriminator 14 view .LVU739
 3052 00a2 03F58053 		add	r3, r3, #4096
 3053 00a6 9C42     		cmp	r4, r3
 3054 00a8 00F08384 		beq	.L494
 3055              		.loc 1 806 3 discriminator 15 view .LVU740
 3056 00ac 03F58053 		add	r3, r3, #4096
 3057 00b0 9C42     		cmp	r4, r3
 3058 00b2 00F07E84 		beq	.L494
 3059              		.loc 1 806 3 discriminator 16 view .LVU741
 3060 00b6 03F58053 		add	r3, r3, #4096
 3061 00ba 9C42     		cmp	r4, r3
 3062 00bc 04D0     		beq	.L508
 3063              		.loc 1 806 3 discriminator 17 view .LVU742
 3064 00be 40F22631 		movw	r1, #806
 3065 00c2 7048     		ldr	r0, .L800
 3066 00c4 FFF7FEFF 		bl	assert_failed
 3067              	.LVL164:
 3068              	.L508:
 807:../STM32Cube_FW_N6/Drivers/STM32N6xx_HAL_Driver/Src/stm32n6xx_hal_rif.c ****   assert_param(IS_RISAF_REGION(Region));
 3069              		.loc 1 807 3 is_stmt 1 view .LVU743
 3070 00c8 0E2E     		cmp	r6, #14
 3071 00ca 00F22C84 		bhi	.L666
 808:../STM32Cube_FW_N6/Drivers/STM32N6xx_HAL_Driver/Src/stm32n6xx_hal_rif.c ****   assert_param(IS_RISAF_MAX_REGION(RISAFx, Region));
 3072              		.loc 1 808 3 is_stmt 0 discriminator 47 view .LVU744
 3073 00ce 022E     		cmp	r6, #2
 3074 00d0 00F033BC 		b	.L777
 3075              	.L509:
 3076              		.loc 1 808 3 discriminator 2 view .LVU745
 3077 00d4 6D4B     		ldr	r3, .L800+8
 3078 00d6 9C42     		cmp	r4, r3
 3079 00d8 00F02E84 		beq	.L511
 3080              		.loc 1 808 3 discriminator 5 view .LVU746
 3081 00dc 03F58053 		add	r3, r3, #4096
 3082 00e0 9C42     		cmp	r4, r3
 3083 00e2 00F02984 		beq	.L511
 3084              		.loc 1 808 3 discriminator 8 view .LVU747
 3085 00e6 03F58053 		add	r3, r3, #4096
 3086 00ea 9C42     		cmp	r4, r3
 3087 00ec 09D1     		bne	.L745
 3088              	.L512:
 3089              		.loc 1 808 3 discriminator 65 view .LVU748
 3090 00ee 4FF44A71 		mov	r1, #808
 3091 00f2 6448     		ldr	r0, .L800
 3092 00f4 FFF7FEFF 		bl	assert_failed
 3093              	.LVL165:
 3094 00f8 00F025BC 		b	.L671
 3095              	.L667:
 3096              		.loc 1 808 3 discriminator 10 view .LVU749
ARM GAS  /tmp/ccHKmbxS.s 			page 79


 3097 00fc 0A2E     		cmp	r6, #10
 3098 00fe 00F01CBC 		b	.L777
 3099              	.L745:
 3100              		.loc 1 808 3 discriminator 11 view .LVU750
 3101 0102 634B     		ldr	r3, .L800+12
 3102 0104 9C42     		cmp	r4, r3
 3103 0106 F2D0     		beq	.L512
 3104              		.loc 1 808 3 discriminator 14 view .LVU751
 3105 0108 03F58053 		add	r3, r3, #4096
 3106 010c 9C42     		cmp	r4, r3
 3107 010e EED0     		beq	.L512
 3108              		.loc 1 808 3 discriminator 17 view .LVU752
 3109 0110 03F58053 		add	r3, r3, #4096
 3110 0114 9C42     		cmp	r4, r3
 3111 0116 00F00F84 		beq	.L511
 3112              		.loc 1 808 3 discriminator 20 view .LVU753
 3113 011a 03F58053 		add	r3, r3, #4096
 3114 011e 9C42     		cmp	r4, r3
 3115 0120 00F00A84 		beq	.L511
 3116              		.loc 1 808 3 discriminator 23 view .LVU754
 3117 0124 03F58053 		add	r3, r3, #4096
 3118 0128 9C42     		cmp	r4, r3
 3119 012a 00F00584 		beq	.L511
 3120              		.loc 1 808 3 discriminator 26 view .LVU755
 3121 012e 03F50053 		add	r3, r3, #8192
 3122 0132 9C42     		cmp	r4, r3
 3123 0134 00F00084 		beq	.L511
 3124              		.loc 1 808 3 discriminator 29 view .LVU756
 3125 0138 03F58053 		add	r3, r3, #4096
 3126 013c 9C42     		cmp	r4, r3
 3127 013e 00F0FB83 		beq	.L511
 3128              		.loc 1 808 3 discriminator 32 view .LVU757
 3129 0142 03F58053 		add	r3, r3, #4096
 3130 0146 9C42     		cmp	r4, r3
 3131 0148 00F0F683 		beq	.L511
 3132              		.loc 1 808 3 discriminator 35 view .LVU758
 3133 014c 03F58053 		add	r3, r3, #4096
 3134 0150 9C42     		cmp	r4, r3
 3135 0152 00F0F183 		beq	.L511
 3136              		.loc 1 808 3 discriminator 38 view .LVU759
 3137 0156 03F58053 		add	r3, r3, #4096
 3138 015a 9C42     		cmp	r4, r3
 3139 015c C7D0     		beq	.L512
 3140              		.loc 1 808 3 discriminator 41 view .LVU760
 3141 015e 4D4B     		ldr	r3, .L800+16
 3142 0160 9C42     		cmp	r4, r3
 3143 0162 00F0E983 		beq	.L511
 3144              		.loc 1 808 3 discriminator 44 view .LVU761
 3145 0166 03F58053 		add	r3, r3, #4096
 3146 016a 9C42     		cmp	r4, r3
 3147 016c BFD1     		bne	.L512
 3148 016e E3E3     		b	.L511
 3149              	.LVL166:
 3150              	.L520:
 809:../STM32Cube_FW_N6/Drivers/STM32N6xx_HAL_Driver/Src/stm32n6xx_hal_rif.c ****   assert_param(IS_RISAF_SUBREGION(SubRegion));
 810:../STM32Cube_FW_N6/Drivers/STM32N6xx_HAL_Driver/Src/stm32n6xx_hal_rif.c ****   assert_param(IS_RISAF_FILTERING(pConfig->Filtering));
 811:../STM32Cube_FW_N6/Drivers/STM32N6xx_HAL_Driver/Src/stm32n6xx_hal_rif.c ****   assert_param(IS_RIF_LOCK_STATE(pConfig->Lock));
ARM GAS  /tmp/ccHKmbxS.s 			page 80


 812:../STM32Cube_FW_N6/Drivers/STM32N6xx_HAL_Driver/Src/stm32n6xx_hal_rif.c **** 
 813:../STM32Cube_FW_N6/Drivers/STM32N6xx_HAL_Driver/Src/stm32n6xx_hal_rif.c ****   /* Convert mask into bit position */
 814:../STM32Cube_FW_N6/Drivers/STM32N6xx_HAL_Driver/Src/stm32n6xx_hal_rif.c ****   cid = POSITION_VAL(pConfig->CID);
 815:../STM32Cube_FW_N6/Drivers/STM32N6xx_HAL_Driver/Src/stm32n6xx_hal_rif.c **** 
 816:../STM32Cube_FW_N6/Drivers/STM32N6xx_HAL_Driver/Src/stm32n6xx_hal_rif.c ****   if (SubRegion == RISAF_SUBREGION_A)
 817:../STM32Cube_FW_N6/Drivers/STM32N6xx_HAL_Driver/Src/stm32n6xx_hal_rif.c ****   {
 818:../STM32Cube_FW_N6/Drivers/STM32N6xx_HAL_Driver/Src/stm32n6xx_hal_rif.c ****     if (pConfig->Filtering == RISAF_FILTER_DISABLE)
 819:../STM32Cube_FW_N6/Drivers/STM32N6xx_HAL_Driver/Src/stm32n6xx_hal_rif.c ****     {
 820:../STM32Cube_FW_N6/Drivers/STM32N6xx_HAL_Driver/Src/stm32n6xx_hal_rif.c ****       RISAFx->REG[Region].ACFGR &= (~(RISAF_FILTER_ENABLE | RISAF_REGx_zCFGR_RLOCK));
 821:../STM32Cube_FW_N6/Drivers/STM32N6xx_HAL_Driver/Src/stm32n6xx_hal_rif.c ****       RISAFx->REG[Region].ACFGR |= (pConfig->Lock << RISAF_REGx_zCFGR_RLOCK_Pos);
 822:../STM32Cube_FW_N6/Drivers/STM32N6xx_HAL_Driver/Src/stm32n6xx_hal_rif.c ****     }
 823:../STM32Cube_FW_N6/Drivers/STM32N6xx_HAL_Driver/Src/stm32n6xx_hal_rif.c ****     else
 824:../STM32Cube_FW_N6/Drivers/STM32N6xx_HAL_Driver/Src/stm32n6xx_hal_rif.c ****     {
 825:../STM32Cube_FW_N6/Drivers/STM32N6xx_HAL_Driver/Src/stm32n6xx_hal_rif.c ****       /* Check the parameters */
 826:../STM32Cube_FW_N6/Drivers/STM32N6xx_HAL_Driver/Src/stm32n6xx_hal_rif.c ****       assert_param(IS_RISAF_READ_WRITE(pConfig->ReadWrite));
 3151              		.loc 1 826 7 is_stmt 1 view .LVU762
 3152 0170 EB68     		ldr	r3, [r5, #12]
 3153 0172 3BB1     		cbz	r3, .L522
 3154              		.loc 1 826 7 is_stmt 0 discriminator 1 view .LVU763
 3155 0174 33F44053 		bics	r3, r3, #12288
 3156 0178 04D0     		beq	.L522
 3157              		.loc 1 826 7 discriminator 2 view .LVU764
 3158 017a 40F23A31 		movw	r1, #826
 3159 017e 4148     		ldr	r0, .L800
 3160 0180 FFF7FEFF 		bl	assert_failed
 3161              	.LVL167:
 3162              	.L522:
 827:../STM32Cube_FW_N6/Drivers/STM32N6xx_HAL_Driver/Src/stm32n6xx_hal_rif.c ****       assert_param(IS_RIF_SEC_PRIV_ATTRIBUTE(pConfig->SecPriv));
 3163              		.loc 1 827 7 is_stmt 1 view .LVU765
 3164 0184 AB68     		ldr	r3, [r5, #8]
 3165 0186 032B     		cmp	r3, #3
 3166 0188 04D9     		bls	.L523
 3167              		.loc 1 827 7 is_stmt 0 discriminator 1 view .LVU766
 3168 018a 40F23B31 		movw	r1, #827
 3169 018e 3D48     		ldr	r0, .L800
 3170 0190 FFF7FEFF 		bl	assert_failed
 3171              	.LVL168:
 3172              	.L523:
 828:../STM32Cube_FW_N6/Drivers/STM32N6xx_HAL_Driver/Src/stm32n6xx_hal_rif.c ****       assert_param(IS_RISAF_GRANULARITY(RISAFx, pConfig->StartAddress));
 3173              		.loc 1 828 7 is_stmt 1 view .LVU767
 3174 0194 3C4A     		ldr	r2, .L800+4
 3175              		.loc 1 828 7 is_stmt 0 discriminator 1 view .LVU768
 3176 0196 6B69     		ldr	r3, [r5, #20]
 3177              		.loc 1 828 7 view .LVU769
 3178 0198 9442     		cmp	r4, r2
 3179 019a 08D1     		bne	.L524
 3180              		.loc 1 828 7 discriminator 1 view .LVU770
 3181 019c C3F30B03 		ubfx	r3, r3, #0, #12
 3182              		.loc 1 828 7 discriminator 56 view .LVU771
 3183 01a0 002B     		cmp	r3, #0
 3184 01a2 40F09180 		bne	.L526
 3185              	.L525:
 829:../STM32Cube_FW_N6/Drivers/STM32N6xx_HAL_Driver/Src/stm32n6xx_hal_rif.c ****       assert_param(IS_RISAF_LIMIT_ADDRESS_SPACE_SIZE(RISAFx, pConfig->StartAddress));
 3186              		.loc 1 829 7 discriminator 2 view .LVU772
 3187 01a6 6B69     		ldr	r3, [r5, #20]
 3188 01a8 B3F1804F 		cmp	r3, #1073741824
 3189 01ac 0AE0     		b	.L791
ARM GAS  /tmp/ccHKmbxS.s 			page 81


 3190              	.L524:
 828:../STM32Cube_FW_N6/Drivers/STM32N6xx_HAL_Driver/Src/stm32n6xx_hal_rif.c ****       assert_param(IS_RISAF_GRANULARITY(RISAFx, pConfig->StartAddress));
 3191              		.loc 1 828 7 discriminator 2 view .LVU773
 3192 01ae 374A     		ldr	r2, .L800+8
 3193 01b0 9442     		cmp	r4, r2
 3194 01b2 36D1     		bne	.L527
 828:../STM32Cube_FW_N6/Drivers/STM32N6xx_HAL_Driver/Src/stm32n6xx_hal_rif.c ****       assert_param(IS_RISAF_GRANULARITY(RISAFx, pConfig->StartAddress));
 3195              		.loc 1 828 7 discriminator 4 view .LVU774
 3196 01b4 C3F30B03 		ubfx	r3, r3, #0, #12
 828:../STM32Cube_FW_N6/Drivers/STM32N6xx_HAL_Driver/Src/stm32n6xx_hal_rif.c ****       assert_param(IS_RISAF_GRANULARITY(RISAFx, pConfig->StartAddress));
 3197              		.loc 1 828 7 discriminator 56 view .LVU775
 3198 01b8 002B     		cmp	r3, #0
 3199 01ba 40F08580 		bne	.L526
 3200              	.L552:
 3201              		.loc 1 829 7 discriminator 5 view .LVU776
 3202 01be 6B69     		ldr	r3, [r5, #20]
 3203 01c0 B3F5801F 		cmp	r3, #1048576
 3204              	.L791:
 3205              		.loc 1 829 7 discriminator 2 view .LVU777
 3206 01c4 80F01881 		bcs	.L528
 3207              	.L529:
 830:../STM32Cube_FW_N6/Drivers/STM32N6xx_HAL_Driver/Src/stm32n6xx_hal_rif.c ****       assert_param(IS_RISAF_GRANULARITY(RISAFx, (pConfig->EndAddress + 1U)));
 3208              		.loc 1 830 7 discriminator 4 view .LVU778
 3209 01c8 AB69     		ldr	r3, [r5, #24]
 3210 01ca 0133     		adds	r3, r3, #1
 3211              	.L776:
 3212              		.loc 1 830 7 discriminator 34 view .LVU779
 3213 01cc C3F30B03 		ubfx	r3, r3, #0, #12
 3214 01d0 B3FA83F3 		clz	r3, r3
 3215 01d4 5B09     		lsrs	r3, r3, #5
 3216              		.loc 1 830 7 discriminator 56 view .LVU780
 3217 01d6 002B     		cmp	r3, #0
 3218 01d8 00F02281 		beq	.L566
 3219              	.L670:
 831:../STM32Cube_FW_N6/Drivers/STM32N6xx_HAL_Driver/Src/stm32n6xx_hal_rif.c ****       assert_param(IS_RISAF_LIMIT_ADDRESS_SPACE_SIZE(RISAFx, pConfig->EndAddress));
 3220              		.loc 1 831 7 is_stmt 1 view .LVU781
 3221 01dc 2A4B     		ldr	r3, .L800+4
 3222 01de 9C42     		cmp	r4, r3
 3223 01e0 40F03881 		bne	.L577
 3224              		.loc 1 831 7 is_stmt 0 discriminator 2 view .LVU782
 3225 01e4 AB69     		ldr	r3, [r5, #24]
 3226 01e6 B3F1804F 		cmp	r3, #1073741824
 3227              	.L771:
 3228              		.loc 1 831 7 discriminator 38 view .LVU783
 3229 01ea 80F08081 		bcs	.L578
 3230              	.L565:
 832:../STM32Cube_FW_N6/Drivers/STM32N6xx_HAL_Driver/Src/stm32n6xx_hal_rif.c ****       assert_param(pConfig->StartAddress < pConfig->EndAddress);
 3231              		.loc 1 832 7 is_stmt 1 view .LVU784
 3232 01ee D5E90523 		ldrd	r2, r3, [r5, #20]
 3233 01f2 9A42     		cmp	r2, r3
 3234 01f4 04D3     		bcc	.L587
 3235              		.loc 1 832 7 is_stmt 0 discriminator 1 view .LVU785
 3236 01f6 4FF45071 		mov	r1, #832
 3237 01fa 2248     		ldr	r0, .L800
 3238 01fc FFF7FEFF 		bl	assert_failed
 3239              	.LVL169:
 3240              	.L587:
ARM GAS  /tmp/ccHKmbxS.s 			page 82


 833:../STM32Cube_FW_N6/Drivers/STM32N6xx_HAL_Driver/Src/stm32n6xx_hal_rif.c **** 
 834:../STM32Cube_FW_N6/Drivers/STM32N6xx_HAL_Driver/Src/stm32n6xx_hal_rif.c ****       RISAFx->REG[Region].ASTARTR = pConfig->StartAddress;
 3241              		.loc 1 834 7 is_stmt 1 view .LVU786
 3242              		.loc 1 834 44 is_stmt 0 view .LVU787
 3243 0200 6B69     		ldr	r3, [r5, #20]
 3244              		.loc 1 834 35 view .LVU788
 3245 0202 2644     		add	r6, r6, r4
 3246 0204 7365     		str	r3, [r6, #84]
 835:../STM32Cube_FW_N6/Drivers/STM32N6xx_HAL_Driver/Src/stm32n6xx_hal_rif.c ****       RISAFx->REG[Region].AENDR = pConfig->EndAddress;
 3247              		.loc 1 835 7 is_stmt 1 view .LVU789
 3248              		.loc 1 835 42 is_stmt 0 view .LVU790
 3249 0206 AB69     		ldr	r3, [r5, #24]
 836:../STM32Cube_FW_N6/Drivers/STM32N6xx_HAL_Driver/Src/stm32n6xx_hal_rif.c ****       RISAFx->REG[Region].ACFGR = (pConfig->Filtering  | (pConfig->Lock << RISAF_REGx_zCFGR_RLOCK_P
 837:../STM32Cube_FW_N6/Drivers/STM32N6xx_HAL_Driver/Src/stm32n6xx_hal_rif.c ****                                    | (cid << RISAF_REGx_zCFGR_SRCID_Pos) | (pConfig->SecPriv << RIS
 838:../STM32Cube_FW_N6/Drivers/STM32N6xx_HAL_Driver/Src/stm32n6xx_hal_rif.c ****                                    | (pConfig->ReadWrite));
 3250              		.loc 1 838 36 view .LVU791
 3251 0208 EA68     		ldr	r2, [r5, #12]
 835:../STM32Cube_FW_N6/Drivers/STM32N6xx_HAL_Driver/Src/stm32n6xx_hal_rif.c ****       RISAFx->REG[Region].AENDR = pConfig->EndAddress;
 3252              		.loc 1 835 33 view .LVU792
 3253 020a B365     		str	r3, [r6, #88]
 836:../STM32Cube_FW_N6/Drivers/STM32N6xx_HAL_Driver/Src/stm32n6xx_hal_rif.c ****       RISAFx->REG[Region].ACFGR = (pConfig->Filtering  | (pConfig->Lock << RISAF_REGx_zCFGR_RLOCK_P
 3254              		.loc 1 836 7 is_stmt 1 view .LVU793
 3255              		.loc 1 838 36 is_stmt 0 view .LVU794
 3256 020c 2B68     		ldr	r3, [r5]
 3257 020e 1343     		orrs	r3, r3, r2
 836:../STM32Cube_FW_N6/Drivers/STM32N6xx_HAL_Driver/Src/stm32n6xx_hal_rif.c ****       RISAFx->REG[Region].ACFGR = (pConfig->Filtering  | (pConfig->Lock << RISAF_REGx_zCFGR_RLOCK_P
 3258              		.loc 1 836 73 view .LVU795
 3259 0210 2A69     		ldr	r2, [r5, #16]
 3260              		.loc 1 838 36 view .LVU796
 3261 0212 43EA4203 		orr	r3, r3, r2, lsl #1
 837:../STM32Cube_FW_N6/Drivers/STM32N6xx_HAL_Driver/Src/stm32n6xx_hal_rif.c ****                                    | (pConfig->ReadWrite));
 3262              		.loc 1 837 94 view .LVU797
 3263 0216 AA68     		ldr	r2, [r5, #8]
 3264              		.loc 1 838 36 view .LVU798
 3265 0218 43EA0223 		orr	r3, r3, r2, lsl #8
 3266 021c 43EA0713 		orr	r3, r3, r7, lsl #4
 3267 0220 C0E3     		b	.L779
 3268              	.L527:
 828:../STM32Cube_FW_N6/Drivers/STM32N6xx_HAL_Driver/Src/stm32n6xx_hal_rif.c ****       assert_param(IS_RISAF_LIMIT_ADDRESS_SPACE_SIZE(RISAFx, pConfig->StartAddress));
 3269              		.loc 1 828 7 discriminator 5 view .LVU799
 3270 0222 1D4A     		ldr	r2, .L800+20
 3271 0224 9442     		cmp	r4, r2
 3272 0226 47D1     		bne	.L530
 828:../STM32Cube_FW_N6/Drivers/STM32N6xx_HAL_Driver/Src/stm32n6xx_hal_rif.c ****       assert_param(IS_RISAF_LIMIT_ADDRESS_SPACE_SIZE(RISAFx, pConfig->StartAddress));
 3273              		.loc 1 828 7 discriminator 7 view .LVU800
 3274 0228 C3F30B03 		ubfx	r3, r3, #0, #12
 828:../STM32Cube_FW_N6/Drivers/STM32N6xx_HAL_Driver/Src/stm32n6xx_hal_rif.c ****       assert_param(IS_RISAF_LIMIT_ADDRESS_SPACE_SIZE(RISAFx, pConfig->StartAddress));
 3275              		.loc 1 828 7 discriminator 56 view .LVU801
 3276 022c 002B     		cmp	r3, #0
 3277 022e 4BD1     		bne	.L526
 3278              	.L553:
 829:../STM32Cube_FW_N6/Drivers/STM32N6xx_HAL_Driver/Src/stm32n6xx_hal_rif.c ****       assert_param(IS_RISAF_GRANULARITY(RISAFx, (pConfig->EndAddress + 1U)));
 3279              		.loc 1 829 7 discriminator 8 view .LVU802
 3280 0230 6B69     		ldr	r3, [r5, #20]
 3281 0232 B3F5801F 		cmp	r3, #1048576
 3282              	.L768:
 829:../STM32Cube_FW_N6/Drivers/STM32N6xx_HAL_Driver/Src/stm32n6xx_hal_rif.c ****       assert_param(IS_RISAF_GRANULARITY(RISAFx, (pConfig->EndAddress + 1U)));
ARM GAS  /tmp/ccHKmbxS.s 			page 83


 3283              		.loc 1 829 7 discriminator 14 view .LVU803
 3284 0236 80F0DF80 		bcs	.L528
 3285              	.L564:
 830:../STM32Cube_FW_N6/Drivers/STM32N6xx_HAL_Driver/Src/stm32n6xx_hal_rif.c ****       assert_param(IS_RISAF_LIMIT_ADDRESS_SPACE_SIZE(RISAFx, pConfig->EndAddress));
 3286              		.loc 1 830 7 discriminator 5 view .LVU804
 3287 023a 174A     		ldr	r2, .L800+20
 830:../STM32Cube_FW_N6/Drivers/STM32N6xx_HAL_Driver/Src/stm32n6xx_hal_rif.c ****       assert_param(IS_RISAF_LIMIT_ADDRESS_SPACE_SIZE(RISAFx, pConfig->EndAddress));
 3288              		.loc 1 830 7 discriminator 7 view .LVU805
 3289 023c AB69     		ldr	r3, [r5, #24]
 830:../STM32Cube_FW_N6/Drivers/STM32N6xx_HAL_Driver/Src/stm32n6xx_hal_rif.c ****       assert_param(IS_RISAF_LIMIT_ADDRESS_SPACE_SIZE(RISAFx, pConfig->EndAddress));
 3290              		.loc 1 830 7 discriminator 5 view .LVU806
 3291 023e 9442     		cmp	r4, r2
 830:../STM32Cube_FW_N6/Drivers/STM32N6xx_HAL_Driver/Src/stm32n6xx_hal_rif.c ****       assert_param(IS_RISAF_LIMIT_ADDRESS_SPACE_SIZE(RISAFx, pConfig->EndAddress));
 3292              		.loc 1 830 7 discriminator 7 view .LVU807
 3293 0240 03F10103 		add	r3, r3, #1
 830:../STM32Cube_FW_N6/Drivers/STM32N6xx_HAL_Driver/Src/stm32n6xx_hal_rif.c ****       assert_param(IS_RISAF_LIMIT_ADDRESS_SPACE_SIZE(RISAFx, pConfig->EndAddress));
 3294              		.loc 1 830 7 discriminator 5 view .LVU808
 3295 0244 C2D0     		beq	.L776
 830:../STM32Cube_FW_N6/Drivers/STM32N6xx_HAL_Driver/Src/stm32n6xx_hal_rif.c ****       assert_param(IS_RISAF_LIMIT_ADDRESS_SPACE_SIZE(RISAFx, pConfig->EndAddress));
 3296              		.loc 1 830 7 discriminator 17 view .LVU809
 3297 0246 154A     		ldr	r2, .L800+24
 3298 0248 9442     		cmp	r4, r2
 3299 024a BFD0     		beq	.L776
 830:../STM32Cube_FW_N6/Drivers/STM32N6xx_HAL_Driver/Src/stm32n6xx_hal_rif.c ****       assert_param(IS_RISAF_LIMIT_ADDRESS_SPACE_SIZE(RISAFx, pConfig->EndAddress));
 3300              		.loc 1 830 7 discriminator 20 view .LVU810
 3301 024c 144A     		ldr	r2, .L800+28
 3302 024e 9442     		cmp	r4, r2
 3303 0250 BCD0     		beq	.L776
 830:../STM32Cube_FW_N6/Drivers/STM32N6xx_HAL_Driver/Src/stm32n6xx_hal_rif.c ****       assert_param(IS_RISAF_LIMIT_ADDRESS_SPACE_SIZE(RISAFx, pConfig->EndAddress));
 3304              		.loc 1 830 7 discriminator 23 view .LVU811
 3305 0252 144A     		ldr	r2, .L800+32
 3306 0254 9442     		cmp	r4, r2
 3307 0256 B9D0     		beq	.L776
 830:../STM32Cube_FW_N6/Drivers/STM32N6xx_HAL_Driver/Src/stm32n6xx_hal_rif.c ****       assert_param(IS_RISAF_LIMIT_ADDRESS_SPACE_SIZE(RISAFx, pConfig->EndAddress));
 3308              		.loc 1 830 7 discriminator 26 view .LVU812
 3309 0258 134A     		ldr	r2, .L800+36
 3310 025a 9442     		cmp	r4, r2
 3311 025c B6D0     		beq	.L776
 830:../STM32Cube_FW_N6/Drivers/STM32N6xx_HAL_Driver/Src/stm32n6xx_hal_rif.c ****       assert_param(IS_RISAF_LIMIT_ADDRESS_SPACE_SIZE(RISAFx, pConfig->EndAddress));
 3312              		.loc 1 830 7 discriminator 29 view .LVU813
 3313 025e 134A     		ldr	r2, .L800+40
 3314 0260 9442     		cmp	r4, r2
 3315 0262 B3D0     		beq	.L776
 830:../STM32Cube_FW_N6/Drivers/STM32N6xx_HAL_Driver/Src/stm32n6xx_hal_rif.c ****       assert_param(IS_RISAF_LIMIT_ADDRESS_SPACE_SIZE(RISAFx, pConfig->EndAddress));
 3316              		.loc 1 830 7 discriminator 32 view .LVU814
 3317 0264 124A     		ldr	r2, .L800+44
 3318 0266 9442     		cmp	r4, r2
 3319 0268 B0D0     		beq	.L776
 830:../STM32Cube_FW_N6/Drivers/STM32N6xx_HAL_Driver/Src/stm32n6xx_hal_rif.c ****       assert_param(IS_RISAF_LIMIT_ADDRESS_SPACE_SIZE(RISAFx, pConfig->EndAddress));
 3320              		.loc 1 830 7 discriminator 35 view .LVU815
 3321 026a 124A     		ldr	r2, .L800+48
 3322 026c 9442     		cmp	r4, r2
 3323 026e 40F0DD80 		bne	.L572
 830:../STM32Cube_FW_N6/Drivers/STM32N6xx_HAL_Driver/Src/stm32n6xx_hal_rif.c ****       assert_param(IS_RISAF_LIMIT_ADDRESS_SPACE_SIZE(RISAFx, pConfig->EndAddress));
 3324              		.loc 1 830 7 discriminator 37 view .LVU816
 3325 0272 C3F30B03 		ubfx	r3, r3, #0, #12
 830:../STM32Cube_FW_N6/Drivers/STM32N6xx_HAL_Driver/Src/stm32n6xx_hal_rif.c ****       assert_param(IS_RISAF_LIMIT_ADDRESS_SPACE_SIZE(RISAFx, pConfig->EndAddress));
ARM GAS  /tmp/ccHKmbxS.s 			page 84


 3326              		.loc 1 830 7 discriminator 56 view .LVU817
 3327 0276 002B     		cmp	r3, #0
 3328 0278 40F0D280 		bne	.L566
 3329              	.L573:
 831:../STM32Cube_FW_N6/Drivers/STM32N6xx_HAL_Driver/Src/stm32n6xx_hal_rif.c ****       assert_param(pConfig->StartAddress < pConfig->EndAddress);
 3330              		.loc 1 831 7 discriminator 23 view .LVU818
 3331 027c AB69     		ldr	r3, [r5, #24]
 3332 027e B3F1805F 		cmp	r3, #268435456
 3333 0282 B2E7     		b	.L771
 3334              	.L801:
 3335              		.align	2
 3336              	.L800:
 3337 0284 00000000 		.word	.LC0
 3338 0288 00600254 		.word	1409441792
 3339 028c 00700254 		.word	1409445888
 3340 0290 00A00254 		.word	1409458176
 3341 0294 00500354 		.word	1409503232
 3342 0298 00800254 		.word	1409449984
 3343 029c 00C00254 		.word	1409466368
 3344 02a0 00D00254 		.word	1409470464
 3345 02a4 00E00254 		.word	1409474560
 3346 02a8 00000354 		.word	1409482752
 3347 02ac 00100354 		.word	1409486848
 3348 02b0 00200354 		.word	1409490944
 3349 02b4 00300354 		.word	1409495040
 3350              	.L530:
 828:../STM32Cube_FW_N6/Drivers/STM32N6xx_HAL_Driver/Src/stm32n6xx_hal_rif.c ****       assert_param(IS_RISAF_LIMIT_ADDRESS_SPACE_SIZE(RISAFx, pConfig->StartAddress));
 3351              		.loc 1 828 7 discriminator 8 view .LVU819
 3352 02b8 964A     		ldr	r2, .L802
 3353 02ba 9442     		cmp	r4, r2
 3354 02bc 44D1     		bne	.L532
 3355              	.L781:
 828:../STM32Cube_FW_N6/Drivers/STM32N6xx_HAL_Driver/Src/stm32n6xx_hal_rif.c ****       assert_param(IS_RISAF_LIMIT_ADDRESS_SPACE_SIZE(RISAFx, pConfig->StartAddress));
 3356              		.loc 1 828 7 discriminator 16 view .LVU820
 3357 02be C3F30B03 		ubfx	r3, r3, #0, #12
 828:../STM32Cube_FW_N6/Drivers/STM32N6xx_HAL_Driver/Src/stm32n6xx_hal_rif.c ****       assert_param(IS_RISAF_LIMIT_ADDRESS_SPACE_SIZE(RISAFx, pConfig->StartAddress));
 3358              		.loc 1 828 7 discriminator 56 view .LVU821
 3359 02c2 002B     		cmp	r3, #0
 3360 02c4 00F0A680 		beq	.L537
 3361              	.L526:
 828:../STM32Cube_FW_N6/Drivers/STM32N6xx_HAL_Driver/Src/stm32n6xx_hal_rif.c ****       assert_param(IS_RISAF_LIMIT_ADDRESS_SPACE_SIZE(RISAFx, pConfig->StartAddress));
 3362              		.loc 1 828 7 discriminator 57 view .LVU822
 3363 02c8 4FF44F71 		mov	r1, #828
 3364 02cc 9248     		ldr	r0, .L802+4
 3365 02ce FFF7FEFF 		bl	assert_failed
 3366              	.LVL170:
 829:../STM32Cube_FW_N6/Drivers/STM32N6xx_HAL_Driver/Src/stm32n6xx_hal_rif.c ****       assert_param(IS_RISAF_GRANULARITY(RISAFx, (pConfig->EndAddress + 1U)));
 3367              		.loc 1 829 7 is_stmt 1 view .LVU823
 3368 02d2 924B     		ldr	r3, .L802+8
 3369 02d4 9C42     		cmp	r4, r3
 3370 02d6 3FF466AF 		beq	.L525
 829:../STM32Cube_FW_N6/Drivers/STM32N6xx_HAL_Driver/Src/stm32n6xx_hal_rif.c ****       assert_param(IS_RISAF_GRANULARITY(RISAFx, (pConfig->EndAddress + 1U)));
 3371              		.loc 1 829 7 is_stmt 0 discriminator 3 view .LVU824
 3372 02da 914B     		ldr	r3, .L802+12
 3373 02dc 9C42     		cmp	r4, r3
 3374 02de 3FF46EAF 		beq	.L552
 829:../STM32Cube_FW_N6/Drivers/STM32N6xx_HAL_Driver/Src/stm32n6xx_hal_rif.c ****       assert_param(IS_RISAF_GRANULARITY(RISAFx, (pConfig->EndAddress + 1U)));
ARM GAS  /tmp/ccHKmbxS.s 			page 85


 3375              		.loc 1 829 7 discriminator 6 view .LVU825
 3376 02e2 904B     		ldr	r3, .L802+16
 3377 02e4 9C42     		cmp	r4, r3
 3378 02e6 A3D0     		beq	.L553
 829:../STM32Cube_FW_N6/Drivers/STM32N6xx_HAL_Driver/Src/stm32n6xx_hal_rif.c ****       assert_param(IS_RISAF_GRANULARITY(RISAFx, (pConfig->EndAddress + 1U)));
 3379              		.loc 1 829 7 discriminator 9 view .LVU826
 3380 02e8 03F58053 		add	r3, r3, #4096
 3381 02ec 9C42     		cmp	r4, r3
 3382 02ee 00F09180 		beq	.L537
 829:../STM32Cube_FW_N6/Drivers/STM32N6xx_HAL_Driver/Src/stm32n6xx_hal_rif.c ****       assert_param(IS_RISAF_GRANULARITY(RISAFx, (pConfig->EndAddress + 1U)));
 3383              		.loc 1 829 7 discriminator 10 view .LVU827
 3384 02f2 03F58053 		add	r3, r3, #4096
 3385 02f6 9C42     		cmp	r4, r3
 3386 02f8 00F08C80 		beq	.L537
 829:../STM32Cube_FW_N6/Drivers/STM32N6xx_HAL_Driver/Src/stm32n6xx_hal_rif.c ****       assert_param(IS_RISAF_GRANULARITY(RISAFx, (pConfig->EndAddress + 1U)));
 3387              		.loc 1 829 7 discriminator 11 view .LVU828
 3388 02fc 03F58053 		add	r3, r3, #4096
 3389 0300 9C42     		cmp	r4, r3
 3390 0302 00F08780 		beq	.L537
 829:../STM32Cube_FW_N6/Drivers/STM32N6xx_HAL_Driver/Src/stm32n6xx_hal_rif.c ****       assert_param(IS_RISAF_GRANULARITY(RISAFx, (pConfig->EndAddress + 1U)));
 3391              		.loc 1 829 7 discriminator 12 view .LVU829
 3392 0306 03F58053 		add	r3, r3, #4096
 3393 030a 9C42     		cmp	r4, r3
 3394 030c 29D0     		beq	.L554
 829:../STM32Cube_FW_N6/Drivers/STM32N6xx_HAL_Driver/Src/stm32n6xx_hal_rif.c ****       assert_param(IS_RISAF_GRANULARITY(RISAFx, (pConfig->EndAddress + 1U)));
 3395              		.loc 1 829 7 discriminator 15 view .LVU830
 3396 030e 03F58053 		add	r3, r3, #4096
 3397 0312 9C42     		cmp	r4, r3
 3398 0314 30D0     		beq	.L555
 829:../STM32Cube_FW_N6/Drivers/STM32N6xx_HAL_Driver/Src/stm32n6xx_hal_rif.c ****       assert_param(IS_RISAF_GRANULARITY(RISAFx, (pConfig->EndAddress + 1U)));
 3399              		.loc 1 829 7 discriminator 18 view .LVU831
 3400 0316 03F58053 		add	r3, r3, #4096
 3401 031a 9C42     		cmp	r4, r3
 3402 031c 37D0     		beq	.L556
 829:../STM32Cube_FW_N6/Drivers/STM32N6xx_HAL_Driver/Src/stm32n6xx_hal_rif.c ****       assert_param(IS_RISAF_GRANULARITY(RISAFx, (pConfig->EndAddress + 1U)));
 3403              		.loc 1 829 7 discriminator 21 view .LVU832
 3404 031e 03F50053 		add	r3, r3, #8192
 3405 0322 9C42     		cmp	r4, r3
 3406 0324 3ED0     		beq	.L560
 829:../STM32Cube_FW_N6/Drivers/STM32N6xx_HAL_Driver/Src/stm32n6xx_hal_rif.c ****       assert_param(IS_RISAF_GRANULARITY(RISAFx, (pConfig->EndAddress + 1U)));
 3407              		.loc 1 829 7 discriminator 24 view .LVU833
 3408 0326 03F58053 		add	r3, r3, #4096
 3409 032a 9C42     		cmp	r4, r3
 3410 032c 3AD0     		beq	.L560
 829:../STM32Cube_FW_N6/Drivers/STM32N6xx_HAL_Driver/Src/stm32n6xx_hal_rif.c ****       assert_param(IS_RISAF_GRANULARITY(RISAFx, (pConfig->EndAddress + 1U)));
 3411              		.loc 1 829 7 discriminator 27 view .LVU834
 3412 032e 03F58053 		add	r3, r3, #4096
 3413 0332 9C42     		cmp	r4, r3
 3414 0334 36D0     		beq	.L560
 829:../STM32Cube_FW_N6/Drivers/STM32N6xx_HAL_Driver/Src/stm32n6xx_hal_rif.c ****       assert_param(IS_RISAF_GRANULARITY(RISAFx, (pConfig->EndAddress + 1U)));
 3415              		.loc 1 829 7 discriminator 30 view .LVU835
 3416 0336 03F58053 		add	r3, r3, #4096
 3417 033a 9C42     		cmp	r4, r3
 3418 033c 32D0     		beq	.L560
 829:../STM32Cube_FW_N6/Drivers/STM32N6xx_HAL_Driver/Src/stm32n6xx_hal_rif.c ****       assert_param(IS_RISAF_GRANULARITY(RISAFx, (pConfig->EndAddress + 1U)));
 3419              		.loc 1 829 7 discriminator 33 view .LVU836
 3420 033e 03F58053 		add	r3, r3, #4096
ARM GAS  /tmp/ccHKmbxS.s 			page 86


 3421 0342 9C42     		cmp	r4, r3
 3422 0344 4AD1     		bne	.L546
 3423 0346 40E0     		b	.L780
 3424              	.L532:
 828:../STM32Cube_FW_N6/Drivers/STM32N6xx_HAL_Driver/Src/stm32n6xx_hal_rif.c ****       assert_param(IS_RISAF_LIMIT_ADDRESS_SPACE_SIZE(RISAFx, pConfig->StartAddress));
 3425              		.loc 1 828 7 discriminator 11 view .LVU837
 3426 0348 774A     		ldr	r2, .L802+20
 3427 034a 9442     		cmp	r4, r2
 3428 034c B7D0     		beq	.L781
 828:../STM32Cube_FW_N6/Drivers/STM32N6xx_HAL_Driver/Src/stm32n6xx_hal_rif.c ****       assert_param(IS_RISAF_LIMIT_ADDRESS_SPACE_SIZE(RISAFx, pConfig->StartAddress));
 3429              		.loc 1 828 7 discriminator 14 view .LVU838
 3430 034e 774A     		ldr	r2, .L802+24
 3431 0350 9442     		cmp	r4, r2
 3432 0352 B4D0     		beq	.L781
 828:../STM32Cube_FW_N6/Drivers/STM32N6xx_HAL_Driver/Src/stm32n6xx_hal_rif.c ****       assert_param(IS_RISAF_LIMIT_ADDRESS_SPACE_SIZE(RISAFx, pConfig->StartAddress));
 3433              		.loc 1 828 7 discriminator 17 view .LVU839
 3434 0354 764A     		ldr	r2, .L802+28
 3435 0356 9442     		cmp	r4, r2
 3436 0358 07D1     		bne	.L538
 828:../STM32Cube_FW_N6/Drivers/STM32N6xx_HAL_Driver/Src/stm32n6xx_hal_rif.c ****       assert_param(IS_RISAF_LIMIT_ADDRESS_SPACE_SIZE(RISAFx, pConfig->StartAddress));
 3437              		.loc 1 828 7 discriminator 19 view .LVU840
 3438 035a C3F30B03 		ubfx	r3, r3, #0, #12
 828:../STM32Cube_FW_N6/Drivers/STM32N6xx_HAL_Driver/Src/stm32n6xx_hal_rif.c ****       assert_param(IS_RISAF_LIMIT_ADDRESS_SPACE_SIZE(RISAFx, pConfig->StartAddress));
 3439              		.loc 1 828 7 discriminator 56 view .LVU841
 3440 035e 002B     		cmp	r3, #0
 3441 0360 B2D1     		bne	.L526
 3442              	.L554:
 829:../STM32Cube_FW_N6/Drivers/STM32N6xx_HAL_Driver/Src/stm32n6xx_hal_rif.c ****       assert_param(IS_RISAF_GRANULARITY(RISAFx, (pConfig->EndAddress + 1U)));
 3443              		.loc 1 829 7 discriminator 14 view .LVU842
 3444 0362 6B69     		ldr	r3, [r5, #20]
 3445 0364 B3F5002F 		cmp	r3, #524288
 3446 0368 65E7     		b	.L768
 3447              	.L538:
 828:../STM32Cube_FW_N6/Drivers/STM32N6xx_HAL_Driver/Src/stm32n6xx_hal_rif.c ****       assert_param(IS_RISAF_LIMIT_ADDRESS_SPACE_SIZE(RISAFx, pConfig->StartAddress));
 3448              		.loc 1 828 7 discriminator 20 view .LVU843
 3449 036a 724A     		ldr	r2, .L802+32
 3450 036c 9442     		cmp	r4, r2
 3451 036e 07D1     		bne	.L539
 828:../STM32Cube_FW_N6/Drivers/STM32N6xx_HAL_Driver/Src/stm32n6xx_hal_rif.c ****       assert_param(IS_RISAF_LIMIT_ADDRESS_SPACE_SIZE(RISAFx, pConfig->StartAddress));
 3452              		.loc 1 828 7 discriminator 22 view .LVU844
 3453 0370 C3F30B03 		ubfx	r3, r3, #0, #12
 828:../STM32Cube_FW_N6/Drivers/STM32N6xx_HAL_Driver/Src/stm32n6xx_hal_rif.c ****       assert_param(IS_RISAF_LIMIT_ADDRESS_SPACE_SIZE(RISAFx, pConfig->StartAddress));
 3454              		.loc 1 828 7 discriminator 56 view .LVU845
 3455 0374 002B     		cmp	r3, #0
 3456 0376 A7D1     		bne	.L526
 3457              	.L555:
 829:../STM32Cube_FW_N6/Drivers/STM32N6xx_HAL_Driver/Src/stm32n6xx_hal_rif.c ****       assert_param(IS_RISAF_GRANULARITY(RISAFx, (pConfig->EndAddress + 1U)));
 3458              		.loc 1 829 7 discriminator 17 view .LVU846
 3459 0378 6B69     		ldr	r3, [r5, #20]
 3460 037a B3F5802F 		cmp	r3, #262144
 3461 037e 5AE7     		b	.L768
 3462              	.L539:
 828:../STM32Cube_FW_N6/Drivers/STM32N6xx_HAL_Driver/Src/stm32n6xx_hal_rif.c ****       assert_param(IS_RISAF_LIMIT_ADDRESS_SPACE_SIZE(RISAFx, pConfig->StartAddress));
 3463              		.loc 1 828 7 discriminator 23 view .LVU847
 3464 0380 6D4A     		ldr	r2, .L802+36
 3465 0382 9442     		cmp	r4, r2
 3466 0384 07D1     		bne	.L540
ARM GAS  /tmp/ccHKmbxS.s 			page 87


 828:../STM32Cube_FW_N6/Drivers/STM32N6xx_HAL_Driver/Src/stm32n6xx_hal_rif.c ****       assert_param(IS_RISAF_LIMIT_ADDRESS_SPACE_SIZE(RISAFx, pConfig->StartAddress));
 3467              		.loc 1 828 7 discriminator 25 view .LVU848
 3468 0386 C3F30B03 		ubfx	r3, r3, #0, #12
 828:../STM32Cube_FW_N6/Drivers/STM32N6xx_HAL_Driver/Src/stm32n6xx_hal_rif.c ****       assert_param(IS_RISAF_LIMIT_ADDRESS_SPACE_SIZE(RISAFx, pConfig->StartAddress));
 3469              		.loc 1 828 7 discriminator 56 view .LVU849
 3470 038a 002B     		cmp	r3, #0
 3471 038c 9CD1     		bne	.L526
 3472              	.L556:
 829:../STM32Cube_FW_N6/Drivers/STM32N6xx_HAL_Driver/Src/stm32n6xx_hal_rif.c ****       assert_param(IS_RISAF_GRANULARITY(RISAFx, (pConfig->EndAddress + 1U)));
 3473              		.loc 1 829 7 discriminator 20 view .LVU850
 3474 038e 6B69     		ldr	r3, [r5, #20]
 3475 0390 B3F5003F 		cmp	r3, #131072
 3476 0394 4FE7     		b	.L768
 3477              	.L540:
 828:../STM32Cube_FW_N6/Drivers/STM32N6xx_HAL_Driver/Src/stm32n6xx_hal_rif.c ****       assert_param(IS_RISAF_LIMIT_ADDRESS_SPACE_SIZE(RISAFx, pConfig->StartAddress));
 3478              		.loc 1 828 7 discriminator 26 view .LVU851
 3479 0396 694A     		ldr	r2, .L802+40
 3480 0398 9442     		cmp	r4, r2
 3481 039a 07D1     		bne	.L541
 3482              	.L787:
 828:../STM32Cube_FW_N6/Drivers/STM32N6xx_HAL_Driver/Src/stm32n6xx_hal_rif.c ****       assert_param(IS_RISAF_LIMIT_ADDRESS_SPACE_SIZE(RISAFx, pConfig->StartAddress));
 3483              		.loc 1 828 7 discriminator 37 view .LVU852
 3484 039c C3F30B03 		ubfx	r3, r3, #0, #12
 828:../STM32Cube_FW_N6/Drivers/STM32N6xx_HAL_Driver/Src/stm32n6xx_hal_rif.c ****       assert_param(IS_RISAF_LIMIT_ADDRESS_SPACE_SIZE(RISAFx, pConfig->StartAddress));
 3485              		.loc 1 828 7 discriminator 56 view .LVU853
 3486 03a0 002B     		cmp	r3, #0
 3487 03a2 91D1     		bne	.L526
 3488              	.L560:
 829:../STM32Cube_FW_N6/Drivers/STM32N6xx_HAL_Driver/Src/stm32n6xx_hal_rif.c ****       assert_param(IS_RISAF_GRANULARITY(RISAFx, (pConfig->EndAddress + 1U)));
 3489              		.loc 1 829 7 discriminator 32 view .LVU854
 3490 03a4 6B69     		ldr	r3, [r5, #20]
 3491 03a6 B3F1805F 		cmp	r3, #268435456
 3492 03aa 44E7     		b	.L768
 3493              	.L541:
 828:../STM32Cube_FW_N6/Drivers/STM32N6xx_HAL_Driver/Src/stm32n6xx_hal_rif.c ****       assert_param(IS_RISAF_LIMIT_ADDRESS_SPACE_SIZE(RISAFx, pConfig->StartAddress));
 3494              		.loc 1 828 7 discriminator 29 view .LVU855
 3495 03ac 644A     		ldr	r2, .L802+44
 3496 03ae 9442     		cmp	r4, r2
 3497 03b0 F4D0     		beq	.L787
 828:../STM32Cube_FW_N6/Drivers/STM32N6xx_HAL_Driver/Src/stm32n6xx_hal_rif.c ****       assert_param(IS_RISAF_LIMIT_ADDRESS_SPACE_SIZE(RISAFx, pConfig->StartAddress));
 3498              		.loc 1 828 7 discriminator 32 view .LVU856
 3499 03b2 644A     		ldr	r2, .L802+48
 3500 03b4 9442     		cmp	r4, r2
 3501 03b6 F1D0     		beq	.L787
 828:../STM32Cube_FW_N6/Drivers/STM32N6xx_HAL_Driver/Src/stm32n6xx_hal_rif.c ****       assert_param(IS_RISAF_LIMIT_ADDRESS_SPACE_SIZE(RISAFx, pConfig->StartAddress));
 3502              		.loc 1 828 7 discriminator 35 view .LVU857
 3503 03b8 634A     		ldr	r2, .L802+52
 3504 03ba 9442     		cmp	r4, r2
 3505 03bc EED0     		beq	.L787
 828:../STM32Cube_FW_N6/Drivers/STM32N6xx_HAL_Driver/Src/stm32n6xx_hal_rif.c ****       assert_param(IS_RISAF_LIMIT_ADDRESS_SPACE_SIZE(RISAFx, pConfig->StartAddress));
 3506              		.loc 1 828 7 discriminator 38 view .LVU858
 3507 03be 634A     		ldr	r2, .L802+56
 3508 03c0 9442     		cmp	r4, r2
 3509 03c2 06D1     		bne	.L545
 828:../STM32Cube_FW_N6/Drivers/STM32N6xx_HAL_Driver/Src/stm32n6xx_hal_rif.c ****       assert_param(IS_RISAF_LIMIT_ADDRESS_SPACE_SIZE(RISAFx, pConfig->StartAddress));
 3510              		.loc 1 828 7 discriminator 56 view .LVU859
 3511 03c4 9807     		lsls	r0, r3, #30
ARM GAS  /tmp/ccHKmbxS.s 			page 88


 3512 03c6 7FF47FAF 		bne	.L526
 3513              	.L780:
 829:../STM32Cube_FW_N6/Drivers/STM32N6xx_HAL_Driver/Src/stm32n6xx_hal_rif.c ****       assert_param(IS_RISAF_GRANULARITY(RISAFx, (pConfig->EndAddress + 1U)));
 3514              		.loc 1 829 7 discriminator 44 view .LVU860
 3515 03ca 6B69     		ldr	r3, [r5, #20]
 3516 03cc B3F5805F 		cmp	r3, #4096
 3517 03d0 31E7     		b	.L768
 3518              	.L545:
 828:../STM32Cube_FW_N6/Drivers/STM32N6xx_HAL_Driver/Src/stm32n6xx_hal_rif.c ****       assert_param(IS_RISAF_LIMIT_ADDRESS_SPACE_SIZE(RISAFx, pConfig->StartAddress));
 3519              		.loc 1 828 7 discriminator 41 view .LVU861
 3520 03d2 C3F30803 		ubfx	r3, r3, #0, #9
 828:../STM32Cube_FW_N6/Drivers/STM32N6xx_HAL_Driver/Src/stm32n6xx_hal_rif.c ****       assert_param(IS_RISAF_LIMIT_ADDRESS_SPACE_SIZE(RISAFx, pConfig->StartAddress));
 3521              		.loc 1 828 7 discriminator 56 view .LVU862
 3522 03d6 002B     		cmp	r3, #0
 3523 03d8 7FF476AF 		bne	.L526
 3524              	.L546:
 829:../STM32Cube_FW_N6/Drivers/STM32N6xx_HAL_Driver/Src/stm32n6xx_hal_rif.c ****       assert_param(IS_RISAF_GRANULARITY(RISAFx, (pConfig->EndAddress + 1U)));
 3525              		.loc 1 829 7 discriminator 36 view .LVU863
 3526 03dc 5C4B     		ldr	r3, .L802+60
 3527 03de 9C42     		cmp	r4, r3
 3528 03e0 03D1     		bne	.L562
 3529              	.L563:
 829:../STM32Cube_FW_N6/Drivers/STM32N6xx_HAL_Driver/Src/stm32n6xx_hal_rif.c ****       assert_param(IS_RISAF_GRANULARITY(RISAFx, (pConfig->EndAddress + 1U)));
 3530              		.loc 1 829 7 discriminator 38 view .LVU864
 3531 03e2 6B69     		ldr	r3, [r5, #20]
 3532 03e4 B3F5005F 		cmp	r3, #8192
 3533 03e8 25E7     		b	.L768
 3534              	.L562:
 829:../STM32Cube_FW_N6/Drivers/STM32N6xx_HAL_Driver/Src/stm32n6xx_hal_rif.c ****       assert_param(IS_RISAF_GRANULARITY(RISAFx, (pConfig->EndAddress + 1U)));
 3535              		.loc 1 829 7 discriminator 39 view .LVU865
 3536 03ea 5A4B     		ldr	r3, .L802+64
 3537 03ec 9C42     		cmp	r4, r3
 3538 03ee F8D0     		beq	.L563
 829:../STM32Cube_FW_N6/Drivers/STM32N6xx_HAL_Driver/Src/stm32n6xx_hal_rif.c ****       assert_param(IS_RISAF_GRANULARITY(RISAFx, (pConfig->EndAddress + 1U)));
 3539              		.loc 1 829 7 discriminator 42 view .LVU866
 3540 03f0 03F58053 		add	r3, r3, #4096
 3541 03f4 9C42     		cmp	r4, r3
 3542 03f6 E8D0     		beq	.L780
 3543              	.L528:
 829:../STM32Cube_FW_N6/Drivers/STM32N6xx_HAL_Driver/Src/stm32n6xx_hal_rif.c ****       assert_param(IS_RISAF_GRANULARITY(RISAFx, (pConfig->EndAddress + 1U)));
 3544              		.loc 1 829 7 discriminator 45 view .LVU867
 3545 03f8 40F23D31 		movw	r1, #829
 3546 03fc 4648     		ldr	r0, .L802+4
 3547 03fe FFF7FEFF 		bl	assert_failed
 3548              	.LVL171:
 830:../STM32Cube_FW_N6/Drivers/STM32N6xx_HAL_Driver/Src/stm32n6xx_hal_rif.c ****       assert_param(IS_RISAF_LIMIT_ADDRESS_SPACE_SIZE(RISAFx, pConfig->EndAddress));
 3549              		.loc 1 830 7 is_stmt 1 view .LVU868
 3550 0402 464B     		ldr	r3, .L802+8
 3551 0404 9C42     		cmp	r4, r3
 3552 0406 3FF4DFAE 		beq	.L529
 830:../STM32Cube_FW_N6/Drivers/STM32N6xx_HAL_Driver/Src/stm32n6xx_hal_rif.c ****       assert_param(IS_RISAF_LIMIT_ADDRESS_SPACE_SIZE(RISAFx, pConfig->EndAddress));
 3553              		.loc 1 830 7 is_stmt 0 discriminator 2 view .LVU869
 3554 040a 454B     		ldr	r3, .L802+12
 3555 040c 9C42     		cmp	r4, r3
 3556 040e 3FF4DBAE 		beq	.L529
 3557 0412 12E7     		b	.L564
 3558              	.L537:
ARM GAS  /tmp/ccHKmbxS.s 			page 89


 830:../STM32Cube_FW_N6/Drivers/STM32N6xx_HAL_Driver/Src/stm32n6xx_hal_rif.c ****       assert_param(IS_RISAF_LIMIT_ADDRESS_SPACE_SIZE(RISAFx, pConfig->EndAddress));
 3559              		.loc 1 830 7 discriminator 16 view .LVU870
 3560 0414 AB69     		ldr	r3, [r5, #24]
 3561 0416 1B05     		lsls	r3, r3, #20
 830:../STM32Cube_FW_N6/Drivers/STM32N6xx_HAL_Driver/Src/stm32n6xx_hal_rif.c ****       assert_param(IS_RISAF_LIMIT_ADDRESS_SPACE_SIZE(RISAFx, pConfig->EndAddress));
 3562              		.loc 1 830 7 discriminator 56 view .LVU871
 3563 0418 13F5801F 		cmn	r3, #1048576
 3564 041c 3FF4E7AE 		beq	.L565
 3565              	.L566:
 830:../STM32Cube_FW_N6/Drivers/STM32N6xx_HAL_Driver/Src/stm32n6xx_hal_rif.c ****       assert_param(IS_RISAF_LIMIT_ADDRESS_SPACE_SIZE(RISAFx, pConfig->EndAddress));
 3566              		.loc 1 830 7 discriminator 57 view .LVU872
 3567 0420 40F23E31 		movw	r1, #830
 3568 0424 3C48     		ldr	r0, .L802+4
 3569 0426 FFF7FEFF 		bl	assert_failed
 3570              	.LVL172:
 3571 042a D7E6     		b	.L670
 3572              	.L572:
 830:../STM32Cube_FW_N6/Drivers/STM32N6xx_HAL_Driver/Src/stm32n6xx_hal_rif.c ****       assert_param(IS_RISAF_LIMIT_ADDRESS_SPACE_SIZE(RISAFx, pConfig->EndAddress));
 3573              		.loc 1 830 7 discriminator 38 view .LVU873
 3574 042c 474A     		ldr	r2, .L802+56
 3575 042e 9442     		cmp	r4, r2
 3576 0430 05D1     		bne	.L574
 830:../STM32Cube_FW_N6/Drivers/STM32N6xx_HAL_Driver/Src/stm32n6xx_hal_rif.c ****       assert_param(IS_RISAF_LIMIT_ADDRESS_SPACE_SIZE(RISAFx, pConfig->EndAddress));
 3577              		.loc 1 830 7 discriminator 56 view .LVU874
 3578 0432 9907     		lsls	r1, r3, #30
 3579 0434 F4D1     		bne	.L566
 3580              	.L575:
 831:../STM32Cube_FW_N6/Drivers/STM32N6xx_HAL_Driver/Src/stm32n6xx_hal_rif.c ****       assert_param(pConfig->StartAddress < pConfig->EndAddress);
 3581              		.loc 1 831 7 discriminator 35 view .LVU875
 3582 0436 AB69     		ldr	r3, [r5, #24]
 3583 0438 B3F5805F 		cmp	r3, #4096
 3584 043c D5E6     		b	.L771
 3585              	.L574:
 830:../STM32Cube_FW_N6/Drivers/STM32N6xx_HAL_Driver/Src/stm32n6xx_hal_rif.c ****       assert_param(IS_RISAF_LIMIT_ADDRESS_SPACE_SIZE(RISAFx, pConfig->EndAddress));
 3586              		.loc 1 830 7 discriminator 41 view .LVU876
 3587 043e C3F30803 		ubfx	r3, r3, #0, #9
 830:../STM32Cube_FW_N6/Drivers/STM32N6xx_HAL_Driver/Src/stm32n6xx_hal_rif.c ****       assert_param(IS_RISAF_LIMIT_ADDRESS_SPACE_SIZE(RISAFx, pConfig->EndAddress));
 3588              		.loc 1 830 7 discriminator 56 view .LVU877
 3589 0442 002B     		cmp	r3, #0
 3590 0444 ECD1     		bne	.L566
 3591              	.L576:
 831:../STM32Cube_FW_N6/Drivers/STM32N6xx_HAL_Driver/Src/stm32n6xx_hal_rif.c ****       assert_param(pConfig->StartAddress < pConfig->EndAddress);
 3592              		.loc 1 831 7 discriminator 36 view .LVU878
 3593 0446 424B     		ldr	r3, .L802+60
 3594 0448 9C42     		cmp	r4, r3
 3595 044a 49D1     		bne	.L585
 3596              	.L586:
 831:../STM32Cube_FW_N6/Drivers/STM32N6xx_HAL_Driver/Src/stm32n6xx_hal_rif.c ****       assert_param(pConfig->StartAddress < pConfig->EndAddress);
 3597              		.loc 1 831 7 discriminator 38 view .LVU879
 3598 044c AB69     		ldr	r3, [r5, #24]
 3599 044e B3F5005F 		cmp	r3, #8192
 3600 0452 CAE6     		b	.L771
 3601              	.L577:
 831:../STM32Cube_FW_N6/Drivers/STM32N6xx_HAL_Driver/Src/stm32n6xx_hal_rif.c ****       assert_param(pConfig->StartAddress < pConfig->EndAddress);
 3602              		.loc 1 831 7 discriminator 3 view .LVU880
 3603 0454 324B     		ldr	r3, .L802+12
 3604 0456 9C42     		cmp	r4, r3
ARM GAS  /tmp/ccHKmbxS.s 			page 90


 3605 0458 03D1     		bne	.L579
 3606              	.L580:
 831:../STM32Cube_FW_N6/Drivers/STM32N6xx_HAL_Driver/Src/stm32n6xx_hal_rif.c ****       assert_param(pConfig->StartAddress < pConfig->EndAddress);
 3607              		.loc 1 831 7 discriminator 5 view .LVU881
 3608 045a AB69     		ldr	r3, [r5, #24]
 3609 045c B3F5801F 		cmp	r3, #1048576
 3610 0460 C3E6     		b	.L771
 3611              	.L579:
 831:../STM32Cube_FW_N6/Drivers/STM32N6xx_HAL_Driver/Src/stm32n6xx_hal_rif.c ****       assert_param(pConfig->StartAddress < pConfig->EndAddress);
 3612              		.loc 1 831 7 discriminator 6 view .LVU882
 3613 0462 304B     		ldr	r3, .L802+16
 3614 0464 9C42     		cmp	r4, r3
 3615 0466 F8D0     		beq	.L580
 831:../STM32Cube_FW_N6/Drivers/STM32N6xx_HAL_Driver/Src/stm32n6xx_hal_rif.c ****       assert_param(pConfig->StartAddress < pConfig->EndAddress);
 3616              		.loc 1 831 7 discriminator 9 view .LVU883
 3617 0468 03F58053 		add	r3, r3, #4096
 3618 046c 9C42     		cmp	r4, r3
 3619 046e 3FF4BEAE 		beq	.L565
 831:../STM32Cube_FW_N6/Drivers/STM32N6xx_HAL_Driver/Src/stm32n6xx_hal_rif.c ****       assert_param(pConfig->StartAddress < pConfig->EndAddress);
 3620              		.loc 1 831 7 discriminator 10 view .LVU884
 3621 0472 03F58053 		add	r3, r3, #4096
 3622 0476 9C42     		cmp	r4, r3
 3623 0478 3FF4B9AE 		beq	.L565
 831:../STM32Cube_FW_N6/Drivers/STM32N6xx_HAL_Driver/Src/stm32n6xx_hal_rif.c ****       assert_param(pConfig->StartAddress < pConfig->EndAddress);
 3624              		.loc 1 831 7 discriminator 11 view .LVU885
 3625 047c 03F58053 		add	r3, r3, #4096
 3626 0480 9C42     		cmp	r4, r3
 3627 0482 3FF4B4AE 		beq	.L565
 831:../STM32Cube_FW_N6/Drivers/STM32N6xx_HAL_Driver/Src/stm32n6xx_hal_rif.c ****       assert_param(pConfig->StartAddress < pConfig->EndAddress);
 3628              		.loc 1 831 7 discriminator 12 view .LVU886
 3629 0486 03F58053 		add	r3, r3, #4096
 3630 048a 9C42     		cmp	r4, r3
 3631 048c 03D1     		bne	.L581
 831:../STM32Cube_FW_N6/Drivers/STM32N6xx_HAL_Driver/Src/stm32n6xx_hal_rif.c ****       assert_param(pConfig->StartAddress < pConfig->EndAddress);
 3632              		.loc 1 831 7 discriminator 14 view .LVU887
 3633 048e AB69     		ldr	r3, [r5, #24]
 3634 0490 B3F5002F 		cmp	r3, #524288
 3635 0494 A9E6     		b	.L771
 3636              	.L581:
 831:../STM32Cube_FW_N6/Drivers/STM32N6xx_HAL_Driver/Src/stm32n6xx_hal_rif.c ****       assert_param(pConfig->StartAddress < pConfig->EndAddress);
 3637              		.loc 1 831 7 discriminator 15 view .LVU888
 3638 0496 274B     		ldr	r3, .L802+32
 3639 0498 9C42     		cmp	r4, r3
 3640 049a 03D1     		bne	.L582
 831:../STM32Cube_FW_N6/Drivers/STM32N6xx_HAL_Driver/Src/stm32n6xx_hal_rif.c ****       assert_param(pConfig->StartAddress < pConfig->EndAddress);
 3641              		.loc 1 831 7 discriminator 17 view .LVU889
 3642 049c AB69     		ldr	r3, [r5, #24]
 3643 049e B3F5802F 		cmp	r3, #262144
 3644 04a2 A2E6     		b	.L771
 3645              	.L582:
 831:../STM32Cube_FW_N6/Drivers/STM32N6xx_HAL_Driver/Src/stm32n6xx_hal_rif.c ****       assert_param(pConfig->StartAddress < pConfig->EndAddress);
 3646              		.loc 1 831 7 discriminator 18 view .LVU890
 3647 04a4 244B     		ldr	r3, .L802+36
 3648 04a6 9C42     		cmp	r4, r3
 3649 04a8 03D1     		bne	.L583
 831:../STM32Cube_FW_N6/Drivers/STM32N6xx_HAL_Driver/Src/stm32n6xx_hal_rif.c ****       assert_param(pConfig->StartAddress < pConfig->EndAddress);
 3650              		.loc 1 831 7 discriminator 20 view .LVU891
ARM GAS  /tmp/ccHKmbxS.s 			page 91


 3651 04aa AB69     		ldr	r3, [r5, #24]
 3652 04ac B3F5003F 		cmp	r3, #131072
 3653 04b0 9BE6     		b	.L771
 3654              	.L583:
 831:../STM32Cube_FW_N6/Drivers/STM32N6xx_HAL_Driver/Src/stm32n6xx_hal_rif.c ****       assert_param(pConfig->StartAddress < pConfig->EndAddress);
 3655              		.loc 1 831 7 discriminator 21 view .LVU892
 3656 04b2 224B     		ldr	r3, .L802+40
 3657 04b4 9C42     		cmp	r4, r3
 3658 04b6 3FF4E1AE 		beq	.L573
 831:../STM32Cube_FW_N6/Drivers/STM32N6xx_HAL_Driver/Src/stm32n6xx_hal_rif.c ****       assert_param(pConfig->StartAddress < pConfig->EndAddress);
 3659              		.loc 1 831 7 discriminator 24 view .LVU893
 3660 04ba 214B     		ldr	r3, .L802+44
 3661 04bc 9C42     		cmp	r4, r3
 3662 04be 3FF4DDAE 		beq	.L573
 831:../STM32Cube_FW_N6/Drivers/STM32N6xx_HAL_Driver/Src/stm32n6xx_hal_rif.c ****       assert_param(pConfig->StartAddress < pConfig->EndAddress);
 3663              		.loc 1 831 7 discriminator 27 view .LVU894
 3664 04c2 03F58053 		add	r3, r3, #4096
 3665 04c6 9C42     		cmp	r4, r3
 3666 04c8 3FF4D8AE 		beq	.L573
 831:../STM32Cube_FW_N6/Drivers/STM32N6xx_HAL_Driver/Src/stm32n6xx_hal_rif.c ****       assert_param(pConfig->StartAddress < pConfig->EndAddress);
 3667              		.loc 1 831 7 discriminator 30 view .LVU895
 3668 04cc 03F58053 		add	r3, r3, #4096
 3669 04d0 9C42     		cmp	r4, r3
 3670 04d2 3FF4D3AE 		beq	.L573
 831:../STM32Cube_FW_N6/Drivers/STM32N6xx_HAL_Driver/Src/stm32n6xx_hal_rif.c ****       assert_param(pConfig->StartAddress < pConfig->EndAddress);
 3671              		.loc 1 831 7 discriminator 33 view .LVU896
 3672 04d6 03F58053 		add	r3, r3, #4096
 3673 04da 9C42     		cmp	r4, r3
 3674 04dc B3D1     		bne	.L576
 3675 04de AAE7     		b	.L575
 3676              	.L585:
 831:../STM32Cube_FW_N6/Drivers/STM32N6xx_HAL_Driver/Src/stm32n6xx_hal_rif.c ****       assert_param(pConfig->StartAddress < pConfig->EndAddress);
 3677              		.loc 1 831 7 discriminator 39 view .LVU897
 3678 04e0 1C4B     		ldr	r3, .L802+64
 3679 04e2 9C42     		cmp	r4, r3
 3680 04e4 B2D0     		beq	.L586
 831:../STM32Cube_FW_N6/Drivers/STM32N6xx_HAL_Driver/Src/stm32n6xx_hal_rif.c ****       assert_param(pConfig->StartAddress < pConfig->EndAddress);
 3681              		.loc 1 831 7 discriminator 42 view .LVU898
 3682 04e6 03F58053 		add	r3, r3, #4096
 3683 04ea 9C42     		cmp	r4, r3
 3684 04ec A3D0     		beq	.L575
 3685              	.L578:
 831:../STM32Cube_FW_N6/Drivers/STM32N6xx_HAL_Driver/Src/stm32n6xx_hal_rif.c ****       assert_param(pConfig->StartAddress < pConfig->EndAddress);
 3686              		.loc 1 831 7 discriminator 45 view .LVU899
 3687 04ee 40F23F31 		movw	r1, #831
 3688 04f2 0948     		ldr	r0, .L802+4
 3689 04f4 FFF7FEFF 		bl	assert_failed
 3690              	.LVL173:
 3691 04f8 79E6     		b	.L565
 3692              	.L519:
 839:../STM32Cube_FW_N6/Drivers/STM32N6xx_HAL_Driver/Src/stm32n6xx_hal_rif.c ****     }
 840:../STM32Cube_FW_N6/Drivers/STM32N6xx_HAL_Driver/Src/stm32n6xx_hal_rif.c ****   }
 841:../STM32Cube_FW_N6/Drivers/STM32N6xx_HAL_Driver/Src/stm32n6xx_hal_rif.c ****   else
 842:../STM32Cube_FW_N6/Drivers/STM32N6xx_HAL_Driver/Src/stm32n6xx_hal_rif.c ****   {
 843:../STM32Cube_FW_N6/Drivers/STM32N6xx_HAL_Driver/Src/stm32n6xx_hal_rif.c ****     if (pConfig->Filtering == RISAF_FILTER_DISABLE)
 3693              		.loc 1 843 5 is_stmt 1 view .LVU900
 3694              		.loc 1 843 8 is_stmt 0 view .LVU901
ARM GAS  /tmp/ccHKmbxS.s 			page 92


 3695 04fa 6BBB     		cbnz	r3, .L588
 844:../STM32Cube_FW_N6/Drivers/STM32N6xx_HAL_Driver/Src/stm32n6xx_hal_rif.c ****     {
 845:../STM32Cube_FW_N6/Drivers/STM32N6xx_HAL_Driver/Src/stm32n6xx_hal_rif.c ****       RISAFx->REG[Region].BCFGR &= (~(RISAF_FILTER_ENABLE | RISAF_REGx_zCFGR_RLOCK));
 3696              		.loc 1 845 7 is_stmt 1 view .LVU902
 3697              		.loc 1 845 26 is_stmt 0 view .LVU903
 3698 04fc 2644     		add	r6, r6, r4
 3699 04fe 336E     		ldr	r3, [r6, #96]
 846:../STM32Cube_FW_N6/Drivers/STM32N6xx_HAL_Driver/Src/stm32n6xx_hal_rif.c ****       RISAFx->REG[Region].BCFGR |= (pConfig->Lock << RISAF_REGx_zCFGR_RLOCK_Pos);
 3700              		.loc 1 846 51 view .LVU904
 3701 0500 2A69     		ldr	r2, [r5, #16]
 845:../STM32Cube_FW_N6/Drivers/STM32N6xx_HAL_Driver/Src/stm32n6xx_hal_rif.c ****       RISAFx->REG[Region].BCFGR |= (pConfig->Lock << RISAF_REGx_zCFGR_RLOCK_Pos);
 3702              		.loc 1 845 33 view .LVU905
 3703 0502 23F00303 		bic	r3, r3, #3
 3704 0506 3366     		str	r3, [r6, #96]
 3705              		.loc 1 846 7 is_stmt 1 view .LVU906
 3706              		.loc 1 846 26 is_stmt 0 view .LVU907
 3707 0508 336E     		ldr	r3, [r6, #96]
 3708              		.loc 1 846 33 view .LVU908
 3709 050a 43EA4203 		orr	r3, r3, r2, lsl #1
 3710              	.L778:
 847:../STM32Cube_FW_N6/Drivers/STM32N6xx_HAL_Driver/Src/stm32n6xx_hal_rif.c ****     }
 848:../STM32Cube_FW_N6/Drivers/STM32N6xx_HAL_Driver/Src/stm32n6xx_hal_rif.c ****     else
 849:../STM32Cube_FW_N6/Drivers/STM32N6xx_HAL_Driver/Src/stm32n6xx_hal_rif.c ****     {
 850:../STM32Cube_FW_N6/Drivers/STM32N6xx_HAL_Driver/Src/stm32n6xx_hal_rif.c ****       /* Check the parameters */
 851:../STM32Cube_FW_N6/Drivers/STM32N6xx_HAL_Driver/Src/stm32n6xx_hal_rif.c ****       assert_param(IS_RISAF_READ_WRITE(pConfig->ReadWrite));
 852:../STM32Cube_FW_N6/Drivers/STM32N6xx_HAL_Driver/Src/stm32n6xx_hal_rif.c ****       assert_param(IS_RIF_SEC_PRIV_ATTRIBUTE(pConfig->SecPriv));
 853:../STM32Cube_FW_N6/Drivers/STM32N6xx_HAL_Driver/Src/stm32n6xx_hal_rif.c ****       assert_param(IS_RISAF_GRANULARITY(RISAFx, pConfig->StartAddress));
 854:../STM32Cube_FW_N6/Drivers/STM32N6xx_HAL_Driver/Src/stm32n6xx_hal_rif.c ****       assert_param(IS_RISAF_LIMIT_ADDRESS_SPACE_SIZE(RISAFx, pConfig->StartAddress));
 855:../STM32Cube_FW_N6/Drivers/STM32N6xx_HAL_Driver/Src/stm32n6xx_hal_rif.c ****       assert_param(IS_RISAF_GRANULARITY(RISAFx, (pConfig->EndAddress + 1U)));
 856:../STM32Cube_FW_N6/Drivers/STM32N6xx_HAL_Driver/Src/stm32n6xx_hal_rif.c ****       assert_param(IS_RISAF_LIMIT_ADDRESS_SPACE_SIZE(RISAFx, pConfig->EndAddress));
 857:../STM32Cube_FW_N6/Drivers/STM32N6xx_HAL_Driver/Src/stm32n6xx_hal_rif.c ****       assert_param(pConfig->StartAddress < pConfig->EndAddress);
 858:../STM32Cube_FW_N6/Drivers/STM32N6xx_HAL_Driver/Src/stm32n6xx_hal_rif.c **** 
 859:../STM32Cube_FW_N6/Drivers/STM32N6xx_HAL_Driver/Src/stm32n6xx_hal_rif.c ****       RISAFx->REG[Region].BSTARTR = pConfig->StartAddress;
 860:../STM32Cube_FW_N6/Drivers/STM32N6xx_HAL_Driver/Src/stm32n6xx_hal_rif.c ****       RISAFx->REG[Region].BENDR = pConfig->EndAddress;
 861:../STM32Cube_FW_N6/Drivers/STM32N6xx_HAL_Driver/Src/stm32n6xx_hal_rif.c ****       RISAFx->REG[Region].BCFGR = (pConfig->Filtering  | (pConfig->Lock << RISAF_REGx_zCFGR_RLOCK_P
 3711              		.loc 1 861 33 view .LVU909
 3712 050e 3366     		str	r3, [r6, #96]
 862:../STM32Cube_FW_N6/Drivers/STM32N6xx_HAL_Driver/Src/stm32n6xx_hal_rif.c ****                                    | (cid << RISAF_REGx_zCFGR_SRCID_Pos) | (pConfig->SecPriv << RIS
 863:../STM32Cube_FW_N6/Drivers/STM32N6xx_HAL_Driver/Src/stm32n6xx_hal_rif.c ****                                    | (pConfig->ReadWrite));
 864:../STM32Cube_FW_N6/Drivers/STM32N6xx_HAL_Driver/Src/stm32n6xx_hal_rif.c ****     }
 865:../STM32Cube_FW_N6/Drivers/STM32N6xx_HAL_Driver/Src/stm32n6xx_hal_rif.c ****   }
 866:../STM32Cube_FW_N6/Drivers/STM32N6xx_HAL_Driver/Src/stm32n6xx_hal_rif.c **** }
 3713              		.loc 1 866 1 view .LVU910
 3714 0510 49E2     		b	.L490
 3715              	.L803:
 3716 0512 00BF     		.align	2
 3717              	.L802:
 3718 0514 00900254 		.word	1409454080
 3719 0518 00000000 		.word	.LC0
 3720 051c 00600254 		.word	1409441792
 3721 0520 00700254 		.word	1409445888
 3722 0524 00800254 		.word	1409449984
 3723 0528 00A00254 		.word	1409458176
 3724 052c 00B00254 		.word	1409462272
 3725 0530 00C00254 		.word	1409466368
 3726 0534 00D00254 		.word	1409470464
 3727 0538 00E00254 		.word	1409474560
ARM GAS  /tmp/ccHKmbxS.s 			page 93


 3728 053c 00000354 		.word	1409482752
 3729 0540 00100354 		.word	1409486848
 3730 0544 00200354 		.word	1409490944
 3731 0548 00300354 		.word	1409495040
 3732 054c 00400354 		.word	1409499136
 3733 0550 00500354 		.word	1409503232
 3734 0554 00600354 		.word	1409507328
 3735              	.L588:
 851:../STM32Cube_FW_N6/Drivers/STM32N6xx_HAL_Driver/Src/stm32n6xx_hal_rif.c ****       assert_param(IS_RIF_SEC_PRIV_ATTRIBUTE(pConfig->SecPriv));
 3736              		.loc 1 851 7 is_stmt 1 view .LVU911
 3737 0558 EB68     		ldr	r3, [r5, #12]
 3738 055a 3BB1     		cbz	r3, .L589
 851:../STM32Cube_FW_N6/Drivers/STM32N6xx_HAL_Driver/Src/stm32n6xx_hal_rif.c ****       assert_param(IS_RIF_SEC_PRIV_ATTRIBUTE(pConfig->SecPriv));
 3739              		.loc 1 851 7 is_stmt 0 discriminator 1 view .LVU912
 3740 055c 33F44053 		bics	r3, r3, #12288
 3741 0560 04D0     		beq	.L589
 851:../STM32Cube_FW_N6/Drivers/STM32N6xx_HAL_Driver/Src/stm32n6xx_hal_rif.c ****       assert_param(IS_RIF_SEC_PRIV_ATTRIBUTE(pConfig->SecPriv));
 3742              		.loc 1 851 7 discriminator 2 view .LVU913
 3743 0562 40F25331 		movw	r1, #851
 3744 0566 9E48     		ldr	r0, .L804
 3745 0568 FFF7FEFF 		bl	assert_failed
 3746              	.LVL174:
 3747              	.L589:
 852:../STM32Cube_FW_N6/Drivers/STM32N6xx_HAL_Driver/Src/stm32n6xx_hal_rif.c ****       assert_param(IS_RISAF_GRANULARITY(RISAFx, pConfig->StartAddress));
 3748              		.loc 1 852 7 is_stmt 1 view .LVU914
 3749 056c AB68     		ldr	r3, [r5, #8]
 3750 056e 032B     		cmp	r3, #3
 3751 0570 04D9     		bls	.L590
 852:../STM32Cube_FW_N6/Drivers/STM32N6xx_HAL_Driver/Src/stm32n6xx_hal_rif.c ****       assert_param(IS_RISAF_GRANULARITY(RISAFx, pConfig->StartAddress));
 3752              		.loc 1 852 7 is_stmt 0 discriminator 1 view .LVU915
 3753 0572 4FF45571 		mov	r1, #852
 3754 0576 9A48     		ldr	r0, .L804
 3755 0578 FFF7FEFF 		bl	assert_failed
 3756              	.LVL175:
 3757              	.L590:
 853:../STM32Cube_FW_N6/Drivers/STM32N6xx_HAL_Driver/Src/stm32n6xx_hal_rif.c ****       assert_param(IS_RISAF_LIMIT_ADDRESS_SPACE_SIZE(RISAFx, pConfig->StartAddress));
 3758              		.loc 1 853 7 is_stmt 1 view .LVU916
 3759 057c 994A     		ldr	r2, .L804+4
 853:../STM32Cube_FW_N6/Drivers/STM32N6xx_HAL_Driver/Src/stm32n6xx_hal_rif.c ****       assert_param(IS_RISAF_LIMIT_ADDRESS_SPACE_SIZE(RISAFx, pConfig->StartAddress));
 3760              		.loc 1 853 7 is_stmt 0 discriminator 1 view .LVU917
 3761 057e 6B69     		ldr	r3, [r5, #20]
 853:../STM32Cube_FW_N6/Drivers/STM32N6xx_HAL_Driver/Src/stm32n6xx_hal_rif.c ****       assert_param(IS_RISAF_LIMIT_ADDRESS_SPACE_SIZE(RISAFx, pConfig->StartAddress));
 3762              		.loc 1 853 7 view .LVU918
 3763 0580 9442     		cmp	r4, r2
 3764 0582 35D1     		bne	.L591
 853:../STM32Cube_FW_N6/Drivers/STM32N6xx_HAL_Driver/Src/stm32n6xx_hal_rif.c ****       assert_param(IS_RISAF_LIMIT_ADDRESS_SPACE_SIZE(RISAFx, pConfig->StartAddress));
 3765              		.loc 1 853 7 discriminator 1 view .LVU919
 3766 0584 C3F30B03 		ubfx	r3, r3, #0, #12
 853:../STM32Cube_FW_N6/Drivers/STM32N6xx_HAL_Driver/Src/stm32n6xx_hal_rif.c ****       assert_param(IS_RISAF_LIMIT_ADDRESS_SPACE_SIZE(RISAFx, pConfig->StartAddress));
 3767              		.loc 1 853 7 discriminator 56 view .LVU920
 3768 0588 002B     		cmp	r3, #0
 3769 058a 6CD1     		bne	.L592
 3770              	.L615:
 854:../STM32Cube_FW_N6/Drivers/STM32N6xx_HAL_Driver/Src/stm32n6xx_hal_rif.c ****       assert_param(IS_RISAF_GRANULARITY(RISAFx, (pConfig->EndAddress + 1U)));
 3771              		.loc 1 854 7 discriminator 2 view .LVU921
 3772 058c 6B69     		ldr	r3, [r5, #20]
 3773 058e B3F1804F 		cmp	r3, #1073741824
ARM GAS  /tmp/ccHKmbxS.s 			page 94


 3774 0592 80F0FD80 		bcs	.L593
 3775              	.L594:
 855:../STM32Cube_FW_N6/Drivers/STM32N6xx_HAL_Driver/Src/stm32n6xx_hal_rif.c ****       assert_param(IS_RISAF_LIMIT_ADDRESS_SPACE_SIZE(RISAFx, pConfig->EndAddress));
 3776              		.loc 1 855 7 discriminator 1 view .LVU922
 3777 0596 AB69     		ldr	r3, [r5, #24]
 3778 0598 1B05     		lsls	r3, r3, #20
 855:../STM32Cube_FW_N6/Drivers/STM32N6xx_HAL_Driver/Src/stm32n6xx_hal_rif.c ****       assert_param(IS_RISAF_LIMIT_ADDRESS_SPACE_SIZE(RISAFx, pConfig->EndAddress));
 3779              		.loc 1 855 7 discriminator 56 view .LVU923
 3780 059a 13F5801F 		cmn	r3, #1048576
 3781 059e 08D0     		beq	.L616
 3782              	.L617:
 855:../STM32Cube_FW_N6/Drivers/STM32N6xx_HAL_Driver/Src/stm32n6xx_hal_rif.c ****       assert_param(IS_RISAF_LIMIT_ADDRESS_SPACE_SIZE(RISAFx, pConfig->EndAddress));
 3783              		.loc 1 855 7 discriminator 57 view .LVU924
 3784 05a0 40F25731 		movw	r1, #855
 3785 05a4 8E48     		ldr	r0, .L804
 3786 05a6 FFF7FEFF 		bl	assert_failed
 3787              	.LVL176:
 856:../STM32Cube_FW_N6/Drivers/STM32N6xx_HAL_Driver/Src/stm32n6xx_hal_rif.c ****       assert_param(pConfig->StartAddress < pConfig->EndAddress);
 3788              		.loc 1 856 7 is_stmt 1 view .LVU925
 3789 05aa 8E4B     		ldr	r3, .L804+4
 3790 05ac 9C42     		cmp	r4, r3
 3791 05ae 40F07081 		bne	.L633
 3792              	.L616:
 856:../STM32Cube_FW_N6/Drivers/STM32N6xx_HAL_Driver/Src/stm32n6xx_hal_rif.c ****       assert_param(pConfig->StartAddress < pConfig->EndAddress);
 3793              		.loc 1 856 7 is_stmt 0 discriminator 2 view .LVU926
 3794 05b2 AB69     		ldr	r3, [r5, #24]
 3795 05b4 B3F1804F 		cmp	r3, #1073741824
 3796              	.L775:
 856:../STM32Cube_FW_N6/Drivers/STM32N6xx_HAL_Driver/Src/stm32n6xx_hal_rif.c ****       assert_param(pConfig->StartAddress < pConfig->EndAddress);
 3797              		.loc 1 856 7 discriminator 5 view .LVU927
 3798 05b8 80F0AC81 		bcs	.L634
 3799              	.L637:
 857:../STM32Cube_FW_N6/Drivers/STM32N6xx_HAL_Driver/Src/stm32n6xx_hal_rif.c **** 
 3800              		.loc 1 857 7 is_stmt 1 view .LVU928
 3801 05bc D5E90523 		ldrd	r2, r3, [r5, #20]
 3802 05c0 9A42     		cmp	r2, r3
 3803 05c2 04D3     		bcc	.L657
 857:../STM32Cube_FW_N6/Drivers/STM32N6xx_HAL_Driver/Src/stm32n6xx_hal_rif.c **** 
 3804              		.loc 1 857 7 is_stmt 0 discriminator 1 view .LVU929
 3805 05c4 40F25931 		movw	r1, #857
 3806 05c8 8548     		ldr	r0, .L804
 3807 05ca FFF7FEFF 		bl	assert_failed
 3808              	.LVL177:
 3809              	.L657:
 859:../STM32Cube_FW_N6/Drivers/STM32N6xx_HAL_Driver/Src/stm32n6xx_hal_rif.c ****       RISAFx->REG[Region].BENDR = pConfig->EndAddress;
 3810              		.loc 1 859 7 is_stmt 1 view .LVU930
 859:../STM32Cube_FW_N6/Drivers/STM32N6xx_HAL_Driver/Src/stm32n6xx_hal_rif.c ****       RISAFx->REG[Region].BENDR = pConfig->EndAddress;
 3811              		.loc 1 859 44 is_stmt 0 view .LVU931
 3812 05ce 6B69     		ldr	r3, [r5, #20]
 859:../STM32Cube_FW_N6/Drivers/STM32N6xx_HAL_Driver/Src/stm32n6xx_hal_rif.c ****       RISAFx->REG[Region].BENDR = pConfig->EndAddress;
 3813              		.loc 1 859 35 view .LVU932
 3814 05d0 2644     		add	r6, r6, r4
 3815 05d2 7366     		str	r3, [r6, #100]
 860:../STM32Cube_FW_N6/Drivers/STM32N6xx_HAL_Driver/Src/stm32n6xx_hal_rif.c ****       RISAFx->REG[Region].BCFGR = (pConfig->Filtering  | (pConfig->Lock << RISAF_REGx_zCFGR_RLOCK_P
 3816              		.loc 1 860 7 is_stmt 1 view .LVU933
 860:../STM32Cube_FW_N6/Drivers/STM32N6xx_HAL_Driver/Src/stm32n6xx_hal_rif.c ****       RISAFx->REG[Region].BCFGR = (pConfig->Filtering  | (pConfig->Lock << RISAF_REGx_zCFGR_RLOCK_P
 3817              		.loc 1 860 42 is_stmt 0 view .LVU934
ARM GAS  /tmp/ccHKmbxS.s 			page 95


 3818 05d4 AB69     		ldr	r3, [r5, #24]
 863:../STM32Cube_FW_N6/Drivers/STM32N6xx_HAL_Driver/Src/stm32n6xx_hal_rif.c ****     }
 3819              		.loc 1 863 36 view .LVU935
 3820 05d6 EA68     		ldr	r2, [r5, #12]
 860:../STM32Cube_FW_N6/Drivers/STM32N6xx_HAL_Driver/Src/stm32n6xx_hal_rif.c ****       RISAFx->REG[Region].BCFGR = (pConfig->Filtering  | (pConfig->Lock << RISAF_REGx_zCFGR_RLOCK_P
 3821              		.loc 1 860 33 view .LVU936
 3822 05d8 B366     		str	r3, [r6, #104]
 861:../STM32Cube_FW_N6/Drivers/STM32N6xx_HAL_Driver/Src/stm32n6xx_hal_rif.c ****                                    | (cid << RISAF_REGx_zCFGR_SRCID_Pos) | (pConfig->SecPriv << RIS
 3823              		.loc 1 861 7 is_stmt 1 view .LVU937
 863:../STM32Cube_FW_N6/Drivers/STM32N6xx_HAL_Driver/Src/stm32n6xx_hal_rif.c ****     }
 3824              		.loc 1 863 36 is_stmt 0 view .LVU938
 3825 05da 2B68     		ldr	r3, [r5]
 3826 05dc 1343     		orrs	r3, r3, r2
 861:../STM32Cube_FW_N6/Drivers/STM32N6xx_HAL_Driver/Src/stm32n6xx_hal_rif.c ****                                    | (cid << RISAF_REGx_zCFGR_SRCID_Pos) | (pConfig->SecPriv << RIS
 3827              		.loc 1 861 73 view .LVU939
 3828 05de 2A69     		ldr	r2, [r5, #16]
 863:../STM32Cube_FW_N6/Drivers/STM32N6xx_HAL_Driver/Src/stm32n6xx_hal_rif.c ****     }
 3829              		.loc 1 863 36 view .LVU940
 3830 05e0 43EA4203 		orr	r3, r3, r2, lsl #1
 862:../STM32Cube_FW_N6/Drivers/STM32N6xx_HAL_Driver/Src/stm32n6xx_hal_rif.c ****                                    | (pConfig->ReadWrite));
 3831              		.loc 1 862 94 view .LVU941
 3832 05e4 AA68     		ldr	r2, [r5, #8]
 863:../STM32Cube_FW_N6/Drivers/STM32N6xx_HAL_Driver/Src/stm32n6xx_hal_rif.c ****     }
 3833              		.loc 1 863 36 view .LVU942
 3834 05e6 43EA0223 		orr	r3, r3, r2, lsl #8
 3835 05ea 43EA0713 		orr	r3, r3, r7, lsl #4
 3836 05ee 8EE7     		b	.L778
 3837              	.L591:
 853:../STM32Cube_FW_N6/Drivers/STM32N6xx_HAL_Driver/Src/stm32n6xx_hal_rif.c ****       assert_param(IS_RISAF_LIMIT_ADDRESS_SPACE_SIZE(RISAFx, pConfig->StartAddress));
 3838              		.loc 1 853 7 discriminator 2 view .LVU943
 3839 05f0 7D4A     		ldr	r2, .L804+8
 3840 05f2 9442     		cmp	r4, r2
 3841 05f4 11D1     		bne	.L595
 853:../STM32Cube_FW_N6/Drivers/STM32N6xx_HAL_Driver/Src/stm32n6xx_hal_rif.c ****       assert_param(IS_RISAF_LIMIT_ADDRESS_SPACE_SIZE(RISAFx, pConfig->StartAddress));
 3842              		.loc 1 853 7 discriminator 4 view .LVU944
 3843 05f6 C3F30B03 		ubfx	r3, r3, #0, #12
 853:../STM32Cube_FW_N6/Drivers/STM32N6xx_HAL_Driver/Src/stm32n6xx_hal_rif.c ****       assert_param(IS_RISAF_LIMIT_ADDRESS_SPACE_SIZE(RISAFx, pConfig->StartAddress));
 3844              		.loc 1 853 7 discriminator 56 view .LVU945
 3845 05fa 002B     		cmp	r3, #0
 3846 05fc 33D1     		bne	.L592
 3847              	.L620:
 854:../STM32Cube_FW_N6/Drivers/STM32N6xx_HAL_Driver/Src/stm32n6xx_hal_rif.c ****       assert_param(IS_RISAF_GRANULARITY(RISAFx, (pConfig->EndAddress + 1U)));
 3848              		.loc 1 854 7 discriminator 5 view .LVU946
 3849 05fe 6B69     		ldr	r3, [r5, #20]
 3850 0600 B3F5801F 		cmp	r3, #1048576
 3851 0604 80F0C480 		bcs	.L593
 3852              	.L596:
 855:../STM32Cube_FW_N6/Drivers/STM32N6xx_HAL_Driver/Src/stm32n6xx_hal_rif.c ****       assert_param(IS_RISAF_LIMIT_ADDRESS_SPACE_SIZE(RISAFx, pConfig->EndAddress));
 3853              		.loc 1 855 7 discriminator 4 view .LVU947
 3854 0608 AB69     		ldr	r3, [r5, #24]
 3855 060a 1B05     		lsls	r3, r3, #20
 855:../STM32Cube_FW_N6/Drivers/STM32N6xx_HAL_Driver/Src/stm32n6xx_hal_rif.c ****       assert_param(IS_RISAF_LIMIT_ADDRESS_SPACE_SIZE(RISAFx, pConfig->EndAddress));
 3856              		.loc 1 855 7 discriminator 56 view .LVU948
 3857 060c 13F5801F 		cmn	r3, #1048576
 3858 0610 C6D1     		bne	.L617
 3859              	.L621:
 856:../STM32Cube_FW_N6/Drivers/STM32N6xx_HAL_Driver/Src/stm32n6xx_hal_rif.c ****       assert_param(pConfig->StartAddress < pConfig->EndAddress);
ARM GAS  /tmp/ccHKmbxS.s 			page 96


 3860              		.loc 1 856 7 discriminator 5 view .LVU949
 3861 0612 AB69     		ldr	r3, [r5, #24]
 3862 0614 B3F5801F 		cmp	r3, #1048576
 3863 0618 CEE7     		b	.L775
 3864              	.L595:
 853:../STM32Cube_FW_N6/Drivers/STM32N6xx_HAL_Driver/Src/stm32n6xx_hal_rif.c ****       assert_param(IS_RISAF_LIMIT_ADDRESS_SPACE_SIZE(RISAFx, pConfig->StartAddress));
 3865              		.loc 1 853 7 discriminator 5 view .LVU950
 3866 061a 744A     		ldr	r2, .L804+12
 3867 061c 9442     		cmp	r4, r2
 3868 061e 1AD1     		bne	.L597
 853:../STM32Cube_FW_N6/Drivers/STM32N6xx_HAL_Driver/Src/stm32n6xx_hal_rif.c ****       assert_param(IS_RISAF_LIMIT_ADDRESS_SPACE_SIZE(RISAFx, pConfig->StartAddress));
 3869              		.loc 1 853 7 discriminator 7 view .LVU951
 3870 0620 C3F30B03 		ubfx	r3, r3, #0, #12
 853:../STM32Cube_FW_N6/Drivers/STM32N6xx_HAL_Driver/Src/stm32n6xx_hal_rif.c ****       assert_param(IS_RISAF_LIMIT_ADDRESS_SPACE_SIZE(RISAFx, pConfig->StartAddress));
 3871              		.loc 1 853 7 discriminator 56 view .LVU952
 3872 0624 FBB9     		cbnz	r3, .L592
 3873              	.L622:
 854:../STM32Cube_FW_N6/Drivers/STM32N6xx_HAL_Driver/Src/stm32n6xx_hal_rif.c ****       assert_param(IS_RISAF_GRANULARITY(RISAFx, (pConfig->EndAddress + 1U)));
 3874              		.loc 1 854 7 discriminator 8 view .LVU953
 3875 0626 6B69     		ldr	r3, [r5, #20]
 3876 0628 B3F5801F 		cmp	r3, #1048576
 3877              	.L772:
 854:../STM32Cube_FW_N6/Drivers/STM32N6xx_HAL_Driver/Src/stm32n6xx_hal_rif.c ****       assert_param(IS_RISAF_GRANULARITY(RISAFx, (pConfig->EndAddress + 1U)));
 3878              		.loc 1 854 7 discriminator 14 view .LVU954
 3879 062c 80F0B080 		bcs	.L593
 3880              	.L636:
 855:../STM32Cube_FW_N6/Drivers/STM32N6xx_HAL_Driver/Src/stm32n6xx_hal_rif.c ****       assert_param(IS_RISAF_LIMIT_ADDRESS_SPACE_SIZE(RISAFx, pConfig->EndAddress));
 3881              		.loc 1 855 7 discriminator 5 view .LVU955
 3882 0630 6E4A     		ldr	r2, .L804+12
 855:../STM32Cube_FW_N6/Drivers/STM32N6xx_HAL_Driver/Src/stm32n6xx_hal_rif.c ****       assert_param(IS_RISAF_LIMIT_ADDRESS_SPACE_SIZE(RISAFx, pConfig->EndAddress));
 3883              		.loc 1 855 7 discriminator 7 view .LVU956
 3884 0632 AB69     		ldr	r3, [r5, #24]
 855:../STM32Cube_FW_N6/Drivers/STM32N6xx_HAL_Driver/Src/stm32n6xx_hal_rif.c ****       assert_param(IS_RISAF_LIMIT_ADDRESS_SPACE_SIZE(RISAFx, pConfig->EndAddress));
 3885              		.loc 1 855 7 discriminator 5 view .LVU957
 3886 0634 9442     		cmp	r4, r2
 855:../STM32Cube_FW_N6/Drivers/STM32N6xx_HAL_Driver/Src/stm32n6xx_hal_rif.c ****       assert_param(IS_RISAF_LIMIT_ADDRESS_SPACE_SIZE(RISAFx, pConfig->EndAddress));
 3887              		.loc 1 855 7 discriminator 7 view .LVU958
 3888 0636 03F10103 		add	r3, r3, #1
 855:../STM32Cube_FW_N6/Drivers/STM32N6xx_HAL_Driver/Src/stm32n6xx_hal_rif.c ****       assert_param(IS_RISAF_LIMIT_ADDRESS_SPACE_SIZE(RISAFx, pConfig->EndAddress));
 3889              		.loc 1 855 7 discriminator 5 view .LVU959
 3890 063a 00F0BE80 		beq	.L664
 855:../STM32Cube_FW_N6/Drivers/STM32N6xx_HAL_Driver/Src/stm32n6xx_hal_rif.c ****       assert_param(IS_RISAF_LIMIT_ADDRESS_SPACE_SIZE(RISAFx, pConfig->EndAddress));
 3891              		.loc 1 855 7 discriminator 17 view .LVU960
 3892 063e 6C4A     		ldr	r2, .L804+16
 3893 0640 9442     		cmp	r4, r2
 3894 0642 40F0C080 		bne	.L751
 855:../STM32Cube_FW_N6/Drivers/STM32N6xx_HAL_Driver/Src/stm32n6xx_hal_rif.c ****       assert_param(IS_RISAF_LIMIT_ADDRESS_SPACE_SIZE(RISAFx, pConfig->EndAddress));
 3895              		.loc 1 855 7 discriminator 19 view .LVU961
 3896 0646 C3F30B03 		ubfx	r3, r3, #0, #12
 855:../STM32Cube_FW_N6/Drivers/STM32N6xx_HAL_Driver/Src/stm32n6xx_hal_rif.c ****       assert_param(IS_RISAF_LIMIT_ADDRESS_SPACE_SIZE(RISAFx, pConfig->EndAddress));
 3897              		.loc 1 855 7 discriminator 56 view .LVU962
 3898 064a 002B     		cmp	r3, #0
 3899 064c A8D1     		bne	.L617
 3900              	.L647:
 856:../STM32Cube_FW_N6/Drivers/STM32N6xx_HAL_Driver/Src/stm32n6xx_hal_rif.c ****       assert_param(pConfig->StartAddress < pConfig->EndAddress);
 3901              		.loc 1 856 7 discriminator 14 view .LVU963
 3902 064e AB69     		ldr	r3, [r5, #24]
ARM GAS  /tmp/ccHKmbxS.s 			page 97


 3903 0650 B3F5002F 		cmp	r3, #524288
 3904 0654 B0E7     		b	.L775
 3905              	.L597:
 853:../STM32Cube_FW_N6/Drivers/STM32N6xx_HAL_Driver/Src/stm32n6xx_hal_rif.c ****       assert_param(IS_RISAF_LIMIT_ADDRESS_SPACE_SIZE(RISAFx, pConfig->StartAddress));
 3906              		.loc 1 853 7 discriminator 8 view .LVU964
 3907 0656 674A     		ldr	r2, .L804+20
 3908 0658 9442     		cmp	r4, r2
 3909 065a 42D1     		bne	.L599
 3910              	.L785:
 853:../STM32Cube_FW_N6/Drivers/STM32N6xx_HAL_Driver/Src/stm32n6xx_hal_rif.c ****       assert_param(IS_RISAF_LIMIT_ADDRESS_SPACE_SIZE(RISAFx, pConfig->StartAddress));
 3911              		.loc 1 853 7 discriminator 16 view .LVU965
 3912 065c C3F30B03 		ubfx	r3, r3, #0, #12
 853:../STM32Cube_FW_N6/Drivers/STM32N6xx_HAL_Driver/Src/stm32n6xx_hal_rif.c ****       assert_param(IS_RISAF_LIMIT_ADDRESS_SPACE_SIZE(RISAFx, pConfig->StartAddress));
 3913              		.loc 1 853 7 discriminator 56 view .LVU966
 3914 0660 002B     		cmp	r3, #0
 3915 0662 00F0A380 		beq	.L600
 3916              	.L592:
 853:../STM32Cube_FW_N6/Drivers/STM32N6xx_HAL_Driver/Src/stm32n6xx_hal_rif.c ****       assert_param(IS_RISAF_LIMIT_ADDRESS_SPACE_SIZE(RISAFx, pConfig->StartAddress));
 3917              		.loc 1 853 7 discriminator 57 view .LVU967
 3918 0666 40F25531 		movw	r1, #853
 3919 066a 5D48     		ldr	r0, .L804
 3920 066c FFF7FEFF 		bl	assert_failed
 3921              	.LVL178:
 854:../STM32Cube_FW_N6/Drivers/STM32N6xx_HAL_Driver/Src/stm32n6xx_hal_rif.c ****       assert_param(IS_RISAF_GRANULARITY(RISAFx, (pConfig->EndAddress + 1U)));
 3922              		.loc 1 854 7 is_stmt 1 view .LVU968
 3923 0670 5C4B     		ldr	r3, .L804+4
 3924 0672 9C42     		cmp	r4, r3
 3925 0674 8AD0     		beq	.L615
 854:../STM32Cube_FW_N6/Drivers/STM32N6xx_HAL_Driver/Src/stm32n6xx_hal_rif.c ****       assert_param(IS_RISAF_GRANULARITY(RISAFx, (pConfig->EndAddress + 1U)));
 3926              		.loc 1 854 7 is_stmt 0 discriminator 3 view .LVU969
 3927 0676 5C4B     		ldr	r3, .L804+8
 3928 0678 9C42     		cmp	r4, r3
 3929 067a C0D0     		beq	.L620
 854:../STM32Cube_FW_N6/Drivers/STM32N6xx_HAL_Driver/Src/stm32n6xx_hal_rif.c ****       assert_param(IS_RISAF_GRANULARITY(RISAFx, (pConfig->EndAddress + 1U)));
 3930              		.loc 1 854 7 discriminator 6 view .LVU970
 3931 067c 5B4B     		ldr	r3, .L804+12
 3932 067e 9C42     		cmp	r4, r3
 3933 0680 D1D0     		beq	.L622
 854:../STM32Cube_FW_N6/Drivers/STM32N6xx_HAL_Driver/Src/stm32n6xx_hal_rif.c ****       assert_param(IS_RISAF_GRANULARITY(RISAFx, (pConfig->EndAddress + 1U)));
 3934              		.loc 1 854 7 discriminator 9 view .LVU971
 3935 0682 03F58053 		add	r3, r3, #4096
 3936 0686 9C42     		cmp	r4, r3
 3937 0688 00F09080 		beq	.L600
 854:../STM32Cube_FW_N6/Drivers/STM32N6xx_HAL_Driver/Src/stm32n6xx_hal_rif.c ****       assert_param(IS_RISAF_GRANULARITY(RISAFx, (pConfig->EndAddress + 1U)));
 3938              		.loc 1 854 7 discriminator 10 view .LVU972
 3939 068c 03F58053 		add	r3, r3, #4096
 3940 0690 9C42     		cmp	r4, r3
 3941 0692 00F08B80 		beq	.L600
 854:../STM32Cube_FW_N6/Drivers/STM32N6xx_HAL_Driver/Src/stm32n6xx_hal_rif.c ****       assert_param(IS_RISAF_GRANULARITY(RISAFx, (pConfig->EndAddress + 1U)));
 3942              		.loc 1 854 7 discriminator 11 view .LVU973
 3943 0696 03F58053 		add	r3, r3, #4096
 3944 069a 9C42     		cmp	r4, r3
 3945 069c 00F08680 		beq	.L600
 854:../STM32Cube_FW_N6/Drivers/STM32N6xx_HAL_Driver/Src/stm32n6xx_hal_rif.c ****       assert_param(IS_RISAF_GRANULARITY(RISAFx, (pConfig->EndAddress + 1U)));
 3946              		.loc 1 854 7 discriminator 12 view .LVU974
 3947 06a0 03F58053 		add	r3, r3, #4096
 3948 06a4 9C42     		cmp	r4, r3
ARM GAS  /tmp/ccHKmbxS.s 			page 98


 3949 06a6 29D0     		beq	.L623
 854:../STM32Cube_FW_N6/Drivers/STM32N6xx_HAL_Driver/Src/stm32n6xx_hal_rif.c ****       assert_param(IS_RISAF_GRANULARITY(RISAFx, (pConfig->EndAddress + 1U)));
 3950              		.loc 1 854 7 discriminator 15 view .LVU975
 3951 06a8 03F58053 		add	r3, r3, #4096
 3952 06ac 9C42     		cmp	r4, r3
 3953 06ae 30D0     		beq	.L624
 854:../STM32Cube_FW_N6/Drivers/STM32N6xx_HAL_Driver/Src/stm32n6xx_hal_rif.c ****       assert_param(IS_RISAF_GRANULARITY(RISAFx, (pConfig->EndAddress + 1U)));
 3954              		.loc 1 854 7 discriminator 18 view .LVU976
 3955 06b0 03F58053 		add	r3, r3, #4096
 3956 06b4 9C42     		cmp	r4, r3
 3957 06b6 37D0     		beq	.L625
 854:../STM32Cube_FW_N6/Drivers/STM32N6xx_HAL_Driver/Src/stm32n6xx_hal_rif.c ****       assert_param(IS_RISAF_GRANULARITY(RISAFx, (pConfig->EndAddress + 1U)));
 3958              		.loc 1 854 7 discriminator 21 view .LVU977
 3959 06b8 03F50053 		add	r3, r3, #8192
 3960 06bc 9C42     		cmp	r4, r3
 3961 06be 3ED0     		beq	.L629
 854:../STM32Cube_FW_N6/Drivers/STM32N6xx_HAL_Driver/Src/stm32n6xx_hal_rif.c ****       assert_param(IS_RISAF_GRANULARITY(RISAFx, (pConfig->EndAddress + 1U)));
 3962              		.loc 1 854 7 discriminator 24 view .LVU978
 3963 06c0 03F58053 		add	r3, r3, #4096
 3964 06c4 9C42     		cmp	r4, r3
 3965 06c6 3AD0     		beq	.L629
 854:../STM32Cube_FW_N6/Drivers/STM32N6xx_HAL_Driver/Src/stm32n6xx_hal_rif.c ****       assert_param(IS_RISAF_GRANULARITY(RISAFx, (pConfig->EndAddress + 1U)));
 3966              		.loc 1 854 7 discriminator 27 view .LVU979
 3967 06c8 03F58053 		add	r3, r3, #4096
 3968 06cc 9C42     		cmp	r4, r3
 3969 06ce 36D0     		beq	.L629
 854:../STM32Cube_FW_N6/Drivers/STM32N6xx_HAL_Driver/Src/stm32n6xx_hal_rif.c ****       assert_param(IS_RISAF_GRANULARITY(RISAFx, (pConfig->EndAddress + 1U)));
 3970              		.loc 1 854 7 discriminator 30 view .LVU980
 3971 06d0 03F58053 		add	r3, r3, #4096
 3972 06d4 9C42     		cmp	r4, r3
 3973 06d6 32D0     		beq	.L629
 854:../STM32Cube_FW_N6/Drivers/STM32N6xx_HAL_Driver/Src/stm32n6xx_hal_rif.c ****       assert_param(IS_RISAF_GRANULARITY(RISAFx, (pConfig->EndAddress + 1U)));
 3974              		.loc 1 854 7 discriminator 33 view .LVU981
 3975 06d8 03F58053 		add	r3, r3, #4096
 3976 06dc 9C42     		cmp	r4, r3
 3977 06de 49D1     		bne	.L613
 3978 06e0 3FE0     		b	.L782
 3979              	.L599:
 853:../STM32Cube_FW_N6/Drivers/STM32N6xx_HAL_Driver/Src/stm32n6xx_hal_rif.c ****       assert_param(IS_RISAF_LIMIT_ADDRESS_SPACE_SIZE(RISAFx, pConfig->StartAddress));
 3980              		.loc 1 853 7 discriminator 11 view .LVU982
 3981 06e2 454A     		ldr	r2, .L804+24
 3982 06e4 9442     		cmp	r4, r2
 3983 06e6 B9D0     		beq	.L785
 853:../STM32Cube_FW_N6/Drivers/STM32N6xx_HAL_Driver/Src/stm32n6xx_hal_rif.c ****       assert_param(IS_RISAF_LIMIT_ADDRESS_SPACE_SIZE(RISAFx, pConfig->StartAddress));
 3984              		.loc 1 853 7 discriminator 14 view .LVU983
 3985 06e8 444A     		ldr	r2, .L804+28
 3986 06ea 9442     		cmp	r4, r2
 3987 06ec B6D0     		beq	.L785
 853:../STM32Cube_FW_N6/Drivers/STM32N6xx_HAL_Driver/Src/stm32n6xx_hal_rif.c ****       assert_param(IS_RISAF_LIMIT_ADDRESS_SPACE_SIZE(RISAFx, pConfig->StartAddress));
 3988              		.loc 1 853 7 discriminator 17 view .LVU984
 3989 06ee 404A     		ldr	r2, .L804+16
 3990 06f0 9442     		cmp	r4, r2
 3991 06f2 07D1     		bne	.L605
 853:../STM32Cube_FW_N6/Drivers/STM32N6xx_HAL_Driver/Src/stm32n6xx_hal_rif.c ****       assert_param(IS_RISAF_LIMIT_ADDRESS_SPACE_SIZE(RISAFx, pConfig->StartAddress));
 3992              		.loc 1 853 7 discriminator 19 view .LVU985
 3993 06f4 C3F30B03 		ubfx	r3, r3, #0, #12
 853:../STM32Cube_FW_N6/Drivers/STM32N6xx_HAL_Driver/Src/stm32n6xx_hal_rif.c ****       assert_param(IS_RISAF_LIMIT_ADDRESS_SPACE_SIZE(RISAFx, pConfig->StartAddress));
ARM GAS  /tmp/ccHKmbxS.s 			page 99


 3994              		.loc 1 853 7 discriminator 56 view .LVU986
 3995 06f8 002B     		cmp	r3, #0
 3996 06fa B4D1     		bne	.L592
 3997              	.L623:
 854:../STM32Cube_FW_N6/Drivers/STM32N6xx_HAL_Driver/Src/stm32n6xx_hal_rif.c ****       assert_param(IS_RISAF_GRANULARITY(RISAFx, (pConfig->EndAddress + 1U)));
 3998              		.loc 1 854 7 discriminator 14 view .LVU987
 3999 06fc 6B69     		ldr	r3, [r5, #20]
 4000 06fe B3F5002F 		cmp	r3, #524288
 4001 0702 93E7     		b	.L772
 4002              	.L605:
 853:../STM32Cube_FW_N6/Drivers/STM32N6xx_HAL_Driver/Src/stm32n6xx_hal_rif.c ****       assert_param(IS_RISAF_LIMIT_ADDRESS_SPACE_SIZE(RISAFx, pConfig->StartAddress));
 4003              		.loc 1 853 7 discriminator 20 view .LVU988
 4004 0704 3E4A     		ldr	r2, .L804+32
 4005 0706 9442     		cmp	r4, r2
 4006 0708 07D1     		bne	.L606
 853:../STM32Cube_FW_N6/Drivers/STM32N6xx_HAL_Driver/Src/stm32n6xx_hal_rif.c ****       assert_param(IS_RISAF_LIMIT_ADDRESS_SPACE_SIZE(RISAFx, pConfig->StartAddress));
 4007              		.loc 1 853 7 discriminator 22 view .LVU989
 4008 070a C3F30B03 		ubfx	r3, r3, #0, #12
 853:../STM32Cube_FW_N6/Drivers/STM32N6xx_HAL_Driver/Src/stm32n6xx_hal_rif.c ****       assert_param(IS_RISAF_LIMIT_ADDRESS_SPACE_SIZE(RISAFx, pConfig->StartAddress));
 4009              		.loc 1 853 7 discriminator 56 view .LVU990
 4010 070e 002B     		cmp	r3, #0
 4011 0710 A9D1     		bne	.L592
 4012              	.L624:
 854:../STM32Cube_FW_N6/Drivers/STM32N6xx_HAL_Driver/Src/stm32n6xx_hal_rif.c ****       assert_param(IS_RISAF_GRANULARITY(RISAFx, (pConfig->EndAddress + 1U)));
 4013              		.loc 1 854 7 discriminator 17 view .LVU991
 4014 0712 6B69     		ldr	r3, [r5, #20]
 4015 0714 B3F5802F 		cmp	r3, #262144
 4016 0718 88E7     		b	.L772
 4017              	.L606:
 853:../STM32Cube_FW_N6/Drivers/STM32N6xx_HAL_Driver/Src/stm32n6xx_hal_rif.c ****       assert_param(IS_RISAF_LIMIT_ADDRESS_SPACE_SIZE(RISAFx, pConfig->StartAddress));
 4018              		.loc 1 853 7 discriminator 23 view .LVU992
 4019 071a 3A4A     		ldr	r2, .L804+36
 4020 071c 9442     		cmp	r4, r2
 4021 071e 07D1     		bne	.L607
 853:../STM32Cube_FW_N6/Drivers/STM32N6xx_HAL_Driver/Src/stm32n6xx_hal_rif.c ****       assert_param(IS_RISAF_LIMIT_ADDRESS_SPACE_SIZE(RISAFx, pConfig->StartAddress));
 4022              		.loc 1 853 7 discriminator 25 view .LVU993
 4023 0720 C3F30B03 		ubfx	r3, r3, #0, #12
 853:../STM32Cube_FW_N6/Drivers/STM32N6xx_HAL_Driver/Src/stm32n6xx_hal_rif.c ****       assert_param(IS_RISAF_LIMIT_ADDRESS_SPACE_SIZE(RISAFx, pConfig->StartAddress));
 4024              		.loc 1 853 7 discriminator 56 view .LVU994
 4025 0724 002B     		cmp	r3, #0
 4026 0726 9ED1     		bne	.L592
 4027              	.L625:
 854:../STM32Cube_FW_N6/Drivers/STM32N6xx_HAL_Driver/Src/stm32n6xx_hal_rif.c ****       assert_param(IS_RISAF_GRANULARITY(RISAFx, (pConfig->EndAddress + 1U)));
 4028              		.loc 1 854 7 discriminator 20 view .LVU995
 4029 0728 6B69     		ldr	r3, [r5, #20]
 4030 072a B3F5003F 		cmp	r3, #131072
 4031 072e 7DE7     		b	.L772
 4032              	.L607:
 853:../STM32Cube_FW_N6/Drivers/STM32N6xx_HAL_Driver/Src/stm32n6xx_hal_rif.c ****       assert_param(IS_RISAF_LIMIT_ADDRESS_SPACE_SIZE(RISAFx, pConfig->StartAddress));
 4033              		.loc 1 853 7 discriminator 26 view .LVU996
 4034 0730 354A     		ldr	r2, .L804+40
 4035 0732 9442     		cmp	r4, r2
 4036 0734 07D1     		bne	.L608
 4037              	.L793:
 853:../STM32Cube_FW_N6/Drivers/STM32N6xx_HAL_Driver/Src/stm32n6xx_hal_rif.c ****       assert_param(IS_RISAF_LIMIT_ADDRESS_SPACE_SIZE(RISAFx, pConfig->StartAddress));
 4038              		.loc 1 853 7 discriminator 37 view .LVU997
 4039 0736 C3F30B03 		ubfx	r3, r3, #0, #12
ARM GAS  /tmp/ccHKmbxS.s 			page 100


 853:../STM32Cube_FW_N6/Drivers/STM32N6xx_HAL_Driver/Src/stm32n6xx_hal_rif.c ****       assert_param(IS_RISAF_LIMIT_ADDRESS_SPACE_SIZE(RISAFx, pConfig->StartAddress));
 4040              		.loc 1 853 7 discriminator 56 view .LVU998
 4041 073a 002B     		cmp	r3, #0
 4042 073c 93D1     		bne	.L592
 4043              	.L629:
 854:../STM32Cube_FW_N6/Drivers/STM32N6xx_HAL_Driver/Src/stm32n6xx_hal_rif.c ****       assert_param(IS_RISAF_GRANULARITY(RISAFx, (pConfig->EndAddress + 1U)));
 4044              		.loc 1 854 7 discriminator 32 view .LVU999
 4045 073e 6B69     		ldr	r3, [r5, #20]
 4046 0740 B3F1805F 		cmp	r3, #268435456
 4047 0744 72E7     		b	.L772
 4048              	.L608:
 853:../STM32Cube_FW_N6/Drivers/STM32N6xx_HAL_Driver/Src/stm32n6xx_hal_rif.c ****       assert_param(IS_RISAF_LIMIT_ADDRESS_SPACE_SIZE(RISAFx, pConfig->StartAddress));
 4049              		.loc 1 853 7 discriminator 29 view .LVU1000
 4050 0746 314A     		ldr	r2, .L804+44
 4051 0748 9442     		cmp	r4, r2
 4052 074a F4D0     		beq	.L793
 853:../STM32Cube_FW_N6/Drivers/STM32N6xx_HAL_Driver/Src/stm32n6xx_hal_rif.c ****       assert_param(IS_RISAF_LIMIT_ADDRESS_SPACE_SIZE(RISAFx, pConfig->StartAddress));
 4053              		.loc 1 853 7 discriminator 32 view .LVU1001
 4054 074c 304A     		ldr	r2, .L804+48
 4055 074e 9442     		cmp	r4, r2
 4056 0750 F1D0     		beq	.L793
 853:../STM32Cube_FW_N6/Drivers/STM32N6xx_HAL_Driver/Src/stm32n6xx_hal_rif.c ****       assert_param(IS_RISAF_LIMIT_ADDRESS_SPACE_SIZE(RISAFx, pConfig->StartAddress));
 4057              		.loc 1 853 7 discriminator 35 view .LVU1002
 4058 0752 304A     		ldr	r2, .L804+52
 4059 0754 9442     		cmp	r4, r2
 4060 0756 EED0     		beq	.L793
 853:../STM32Cube_FW_N6/Drivers/STM32N6xx_HAL_Driver/Src/stm32n6xx_hal_rif.c ****       assert_param(IS_RISAF_LIMIT_ADDRESS_SPACE_SIZE(RISAFx, pConfig->StartAddress));
 4061              		.loc 1 853 7 discriminator 38 view .LVU1003
 4062 0758 2F4A     		ldr	r2, .L804+56
 4063 075a 9442     		cmp	r4, r2
 4064 075c 05D1     		bne	.L612
 853:../STM32Cube_FW_N6/Drivers/STM32N6xx_HAL_Driver/Src/stm32n6xx_hal_rif.c ****       assert_param(IS_RISAF_LIMIT_ADDRESS_SPACE_SIZE(RISAFx, pConfig->StartAddress));
 4065              		.loc 1 853 7 discriminator 56 view .LVU1004
 4066 075e 9A07     		lsls	r2, r3, #30
 4067 0760 81D1     		bne	.L592
 4068              	.L782:
 854:../STM32Cube_FW_N6/Drivers/STM32N6xx_HAL_Driver/Src/stm32n6xx_hal_rif.c ****       assert_param(IS_RISAF_GRANULARITY(RISAFx, (pConfig->EndAddress + 1U)));
 4069              		.loc 1 854 7 discriminator 44 view .LVU1005
 4070 0762 6B69     		ldr	r3, [r5, #20]
 4071 0764 B3F5805F 		cmp	r3, #4096
 4072 0768 60E7     		b	.L772
 4073              	.L612:
 853:../STM32Cube_FW_N6/Drivers/STM32N6xx_HAL_Driver/Src/stm32n6xx_hal_rif.c ****       assert_param(IS_RISAF_LIMIT_ADDRESS_SPACE_SIZE(RISAFx, pConfig->StartAddress));
 4074              		.loc 1 853 7 discriminator 41 view .LVU1006
 4075 076a C3F30803 		ubfx	r3, r3, #0, #9
 853:../STM32Cube_FW_N6/Drivers/STM32N6xx_HAL_Driver/Src/stm32n6xx_hal_rif.c ****       assert_param(IS_RISAF_LIMIT_ADDRESS_SPACE_SIZE(RISAFx, pConfig->StartAddress));
 4076              		.loc 1 853 7 discriminator 56 view .LVU1007
 4077 076e 002B     		cmp	r3, #0
 4078 0770 7FF479AF 		bne	.L592
 4079              	.L613:
 854:../STM32Cube_FW_N6/Drivers/STM32N6xx_HAL_Driver/Src/stm32n6xx_hal_rif.c ****       assert_param(IS_RISAF_GRANULARITY(RISAFx, (pConfig->EndAddress + 1U)));
 4080              		.loc 1 854 7 discriminator 36 view .LVU1008
 4081 0774 294B     		ldr	r3, .L804+60
 4082 0776 9C42     		cmp	r4, r3
 4083 0778 03D1     		bne	.L631
 4084              	.L632:
 854:../STM32Cube_FW_N6/Drivers/STM32N6xx_HAL_Driver/Src/stm32n6xx_hal_rif.c ****       assert_param(IS_RISAF_GRANULARITY(RISAFx, (pConfig->EndAddress + 1U)));
ARM GAS  /tmp/ccHKmbxS.s 			page 101


 4085              		.loc 1 854 7 discriminator 38 view .LVU1009
 4086 077a 6B69     		ldr	r3, [r5, #20]
 4087 077c B3F5005F 		cmp	r3, #8192
 4088 0780 54E7     		b	.L772
 4089              	.L631:
 854:../STM32Cube_FW_N6/Drivers/STM32N6xx_HAL_Driver/Src/stm32n6xx_hal_rif.c ****       assert_param(IS_RISAF_GRANULARITY(RISAFx, (pConfig->EndAddress + 1U)));
 4090              		.loc 1 854 7 discriminator 39 view .LVU1010
 4091 0782 274B     		ldr	r3, .L804+64
 4092 0784 9C42     		cmp	r4, r3
 4093 0786 F8D0     		beq	.L632
 854:../STM32Cube_FW_N6/Drivers/STM32N6xx_HAL_Driver/Src/stm32n6xx_hal_rif.c ****       assert_param(IS_RISAF_GRANULARITY(RISAFx, (pConfig->EndAddress + 1U)));
 4094              		.loc 1 854 7 discriminator 42 view .LVU1011
 4095 0788 03F58053 		add	r3, r3, #4096
 4096 078c 9C42     		cmp	r4, r3
 4097 078e E8D0     		beq	.L782
 4098              	.L593:
 854:../STM32Cube_FW_N6/Drivers/STM32N6xx_HAL_Driver/Src/stm32n6xx_hal_rif.c ****       assert_param(IS_RISAF_GRANULARITY(RISAFx, (pConfig->EndAddress + 1U)));
 4099              		.loc 1 854 7 discriminator 45 view .LVU1012
 4100 0790 40F25631 		movw	r1, #854
 4101 0794 1248     		ldr	r0, .L804
 4102 0796 FFF7FEFF 		bl	assert_failed
 4103              	.LVL179:
 855:../STM32Cube_FW_N6/Drivers/STM32N6xx_HAL_Driver/Src/stm32n6xx_hal_rif.c ****       assert_param(IS_RISAF_LIMIT_ADDRESS_SPACE_SIZE(RISAFx, pConfig->EndAddress));
 4104              		.loc 1 855 7 is_stmt 1 view .LVU1013
 4105 079a 124B     		ldr	r3, .L804+4
 4106 079c 9C42     		cmp	r4, r3
 4107 079e 3FF4FAAE 		beq	.L594
 855:../STM32Cube_FW_N6/Drivers/STM32N6xx_HAL_Driver/Src/stm32n6xx_hal_rif.c ****       assert_param(IS_RISAF_LIMIT_ADDRESS_SPACE_SIZE(RISAFx, pConfig->EndAddress));
 4108              		.loc 1 855 7 is_stmt 0 discriminator 2 view .LVU1014
 4109 07a2 114B     		ldr	r3, .L804+8
 4110 07a4 9C42     		cmp	r4, r3
 4111 07a6 3FF42FAF 		beq	.L596
 4112 07aa 41E7     		b	.L636
 4113              	.L600:
 855:../STM32Cube_FW_N6/Drivers/STM32N6xx_HAL_Driver/Src/stm32n6xx_hal_rif.c ****       assert_param(IS_RISAF_LIMIT_ADDRESS_SPACE_SIZE(RISAFx, pConfig->EndAddress));
 4114              		.loc 1 855 7 discriminator 10 view .LVU1015
 4115 07ac AB69     		ldr	r3, [r5, #24]
 4116 07ae 1B05     		lsls	r3, r3, #20
 855:../STM32Cube_FW_N6/Drivers/STM32N6xx_HAL_Driver/Src/stm32n6xx_hal_rif.c ****       assert_param(IS_RISAF_LIMIT_ADDRESS_SPACE_SIZE(RISAFx, pConfig->EndAddress));
 4117              		.loc 1 855 7 discriminator 56 view .LVU1016
 4118 07b0 13F5801F 		cmn	r3, #1048576
 4119 07b4 3FF402AF 		beq	.L637
 4120 07b8 F2E6     		b	.L617
 4121              	.L664:
 855:../STM32Cube_FW_N6/Drivers/STM32N6xx_HAL_Driver/Src/stm32n6xx_hal_rif.c ****       assert_param(IS_RISAF_LIMIT_ADDRESS_SPACE_SIZE(RISAFx, pConfig->EndAddress));
 4122              		.loc 1 855 7 discriminator 7 view .LVU1017
 4123 07ba C3F30B03 		ubfx	r3, r3, #0, #12
 855:../STM32Cube_FW_N6/Drivers/STM32N6xx_HAL_Driver/Src/stm32n6xx_hal_rif.c ****       assert_param(IS_RISAF_LIMIT_ADDRESS_SPACE_SIZE(RISAFx, pConfig->EndAddress));
 4124              		.loc 1 855 7 discriminator 56 view .LVU1018
 4125 07be 002B     		cmp	r3, #0
 4126 07c0 3FF427AF 		beq	.L621
 4127 07c4 ECE6     		b	.L617
 4128              	.L751:
 855:../STM32Cube_FW_N6/Drivers/STM32N6xx_HAL_Driver/Src/stm32n6xx_hal_rif.c ****       assert_param(IS_RISAF_LIMIT_ADDRESS_SPACE_SIZE(RISAFx, pConfig->EndAddress));
 4129              		.loc 1 855 7 discriminator 20 view .LVU1019
 4130 07c6 0E4A     		ldr	r2, .L804+32
 4131 07c8 9442     		cmp	r4, r2
ARM GAS  /tmp/ccHKmbxS.s 			page 102


 4132 07ca 2BD1     		bne	.L638
 855:../STM32Cube_FW_N6/Drivers/STM32N6xx_HAL_Driver/Src/stm32n6xx_hal_rif.c ****       assert_param(IS_RISAF_LIMIT_ADDRESS_SPACE_SIZE(RISAFx, pConfig->EndAddress));
 4133              		.loc 1 855 7 discriminator 22 view .LVU1020
 4134 07cc C3F30B03 		ubfx	r3, r3, #0, #12
 855:../STM32Cube_FW_N6/Drivers/STM32N6xx_HAL_Driver/Src/stm32n6xx_hal_rif.c ****       assert_param(IS_RISAF_LIMIT_ADDRESS_SPACE_SIZE(RISAFx, pConfig->EndAddress));
 4135              		.loc 1 855 7 discriminator 56 view .LVU1021
 4136 07d0 002B     		cmp	r3, #0
 4137 07d2 7FF4E5AE 		bne	.L617
 4138              	.L648:
 856:../STM32Cube_FW_N6/Drivers/STM32N6xx_HAL_Driver/Src/stm32n6xx_hal_rif.c ****       assert_param(pConfig->StartAddress < pConfig->EndAddress);
 4139              		.loc 1 856 7 discriminator 17 view .LVU1022
 4140 07d6 AB69     		ldr	r3, [r5, #24]
 4141 07d8 B3F5802F 		cmp	r3, #262144
 4142 07dc ECE6     		b	.L775
 4143              	.L805:
 4144 07de 00BF     		.align	2
 4145              	.L804:
 4146 07e0 00000000 		.word	.LC0
 4147 07e4 00600254 		.word	1409441792
 4148 07e8 00700254 		.word	1409445888
 4149 07ec 00800254 		.word	1409449984
 4150 07f0 00C00254 		.word	1409466368
 4151 07f4 00900254 		.word	1409454080
 4152 07f8 00A00254 		.word	1409458176
 4153 07fc 00B00254 		.word	1409462272
 4154 0800 00D00254 		.word	1409470464
 4155 0804 00E00254 		.word	1409474560
 4156 0808 00000354 		.word	1409482752
 4157 080c 00100354 		.word	1409486848
 4158 0810 00200354 		.word	1409490944
 4159 0814 00300354 		.word	1409495040
 4160 0818 00400354 		.word	1409499136
 4161 081c 00500354 		.word	1409503232
 4162 0820 00600354 		.word	1409507328
 4163              	.L638:
 855:../STM32Cube_FW_N6/Drivers/STM32N6xx_HAL_Driver/Src/stm32n6xx_hal_rif.c ****       assert_param(IS_RISAF_LIMIT_ADDRESS_SPACE_SIZE(RISAFx, pConfig->EndAddress));
 4164              		.loc 1 855 7 discriminator 23 view .LVU1023
 4165 0824 644A     		ldr	r2, .L806
 4166 0826 9442     		cmp	r4, r2
 4167 0828 08D1     		bne	.L639
 855:../STM32Cube_FW_N6/Drivers/STM32N6xx_HAL_Driver/Src/stm32n6xx_hal_rif.c ****       assert_param(IS_RISAF_LIMIT_ADDRESS_SPACE_SIZE(RISAFx, pConfig->EndAddress));
 4168              		.loc 1 855 7 discriminator 25 view .LVU1024
 4169 082a C3F30B03 		ubfx	r3, r3, #0, #12
 855:../STM32Cube_FW_N6/Drivers/STM32N6xx_HAL_Driver/Src/stm32n6xx_hal_rif.c ****       assert_param(IS_RISAF_LIMIT_ADDRESS_SPACE_SIZE(RISAFx, pConfig->EndAddress));
 4170              		.loc 1 855 7 discriminator 56 view .LVU1025
 4171 082e 002B     		cmp	r3, #0
 4172 0830 7FF4B6AE 		bne	.L617
 4173              	.L649:
 856:../STM32Cube_FW_N6/Drivers/STM32N6xx_HAL_Driver/Src/stm32n6xx_hal_rif.c ****       assert_param(pConfig->StartAddress < pConfig->EndAddress);
 4174              		.loc 1 856 7 discriminator 20 view .LVU1026
 4175 0834 AB69     		ldr	r3, [r5, #24]
 4176 0836 B3F5003F 		cmp	r3, #131072
 4177 083a BDE6     		b	.L775
 4178              	.L639:
 855:../STM32Cube_FW_N6/Drivers/STM32N6xx_HAL_Driver/Src/stm32n6xx_hal_rif.c ****       assert_param(IS_RISAF_LIMIT_ADDRESS_SPACE_SIZE(RISAFx, pConfig->EndAddress));
 4179              		.loc 1 855 7 discriminator 26 view .LVU1027
 4180 083c 5F4A     		ldr	r2, .L806+4
ARM GAS  /tmp/ccHKmbxS.s 			page 103


 4181 083e 9442     		cmp	r4, r2
 4182 0840 08D1     		bne	.L640
 4183              	.L797:
 855:../STM32Cube_FW_N6/Drivers/STM32N6xx_HAL_Driver/Src/stm32n6xx_hal_rif.c ****       assert_param(IS_RISAF_LIMIT_ADDRESS_SPACE_SIZE(RISAFx, pConfig->EndAddress));
 4184              		.loc 1 855 7 discriminator 37 view .LVU1028
 4185 0842 C3F30B03 		ubfx	r3, r3, #0, #12
 855:../STM32Cube_FW_N6/Drivers/STM32N6xx_HAL_Driver/Src/stm32n6xx_hal_rif.c ****       assert_param(IS_RISAF_LIMIT_ADDRESS_SPACE_SIZE(RISAFx, pConfig->EndAddress));
 4186              		.loc 1 855 7 discriminator 56 view .LVU1029
 4187 0846 002B     		cmp	r3, #0
 4188 0848 7FF4AAAE 		bne	.L617
 4189              	.L653:
 856:../STM32Cube_FW_N6/Drivers/STM32N6xx_HAL_Driver/Src/stm32n6xx_hal_rif.c ****       assert_param(pConfig->StartAddress < pConfig->EndAddress);
 4190              		.loc 1 856 7 discriminator 32 view .LVU1030
 4191 084c AB69     		ldr	r3, [r5, #24]
 4192 084e B3F1805F 		cmp	r3, #268435456
 4193 0852 B1E6     		b	.L775
 4194              	.L640:
 855:../STM32Cube_FW_N6/Drivers/STM32N6xx_HAL_Driver/Src/stm32n6xx_hal_rif.c ****       assert_param(IS_RISAF_LIMIT_ADDRESS_SPACE_SIZE(RISAFx, pConfig->EndAddress));
 4195              		.loc 1 855 7 discriminator 29 view .LVU1031
 4196 0854 5A4A     		ldr	r2, .L806+8
 4197 0856 9442     		cmp	r4, r2
 4198 0858 F3D0     		beq	.L797
 855:../STM32Cube_FW_N6/Drivers/STM32N6xx_HAL_Driver/Src/stm32n6xx_hal_rif.c ****       assert_param(IS_RISAF_LIMIT_ADDRESS_SPACE_SIZE(RISAFx, pConfig->EndAddress));
 4199              		.loc 1 855 7 discriminator 32 view .LVU1032
 4200 085a 5A4A     		ldr	r2, .L806+12
 4201 085c 9442     		cmp	r4, r2
 4202 085e F0D0     		beq	.L797
 855:../STM32Cube_FW_N6/Drivers/STM32N6xx_HAL_Driver/Src/stm32n6xx_hal_rif.c ****       assert_param(IS_RISAF_LIMIT_ADDRESS_SPACE_SIZE(RISAFx, pConfig->EndAddress));
 4203              		.loc 1 855 7 discriminator 35 view .LVU1033
 4204 0860 594A     		ldr	r2, .L806+16
 4205 0862 9442     		cmp	r4, r2
 4206 0864 EDD0     		beq	.L797
 855:../STM32Cube_FW_N6/Drivers/STM32N6xx_HAL_Driver/Src/stm32n6xx_hal_rif.c ****       assert_param(IS_RISAF_LIMIT_ADDRESS_SPACE_SIZE(RISAFx, pConfig->EndAddress));
 4207              		.loc 1 855 7 discriminator 38 view .LVU1034
 4208 0866 594A     		ldr	r2, .L806+20
 4209 0868 9442     		cmp	r4, r2
 4210 086a 06D1     		bne	.L644
 855:../STM32Cube_FW_N6/Drivers/STM32N6xx_HAL_Driver/Src/stm32n6xx_hal_rif.c ****       assert_param(IS_RISAF_LIMIT_ADDRESS_SPACE_SIZE(RISAFx, pConfig->EndAddress));
 4211              		.loc 1 855 7 discriminator 56 view .LVU1035
 4212 086c 9B07     		lsls	r3, r3, #30
 4213 086e 7FF497AE 		bne	.L617
 4214              	.L783:
 856:../STM32Cube_FW_N6/Drivers/STM32N6xx_HAL_Driver/Src/stm32n6xx_hal_rif.c ****       assert_param(pConfig->StartAddress < pConfig->EndAddress);
 4215              		.loc 1 856 7 discriminator 44 view .LVU1036
 4216 0872 AB69     		ldr	r3, [r5, #24]
 4217 0874 B3F5805F 		cmp	r3, #4096
 4218 0878 9EE6     		b	.L775
 4219              	.L644:
 855:../STM32Cube_FW_N6/Drivers/STM32N6xx_HAL_Driver/Src/stm32n6xx_hal_rif.c ****       assert_param(IS_RISAF_LIMIT_ADDRESS_SPACE_SIZE(RISAFx, pConfig->EndAddress));
 4220              		.loc 1 855 7 discriminator 41 view .LVU1037
 4221 087a C3F30803 		ubfx	r3, r3, #0, #9
 855:../STM32Cube_FW_N6/Drivers/STM32N6xx_HAL_Driver/Src/stm32n6xx_hal_rif.c ****       assert_param(IS_RISAF_LIMIT_ADDRESS_SPACE_SIZE(RISAFx, pConfig->EndAddress));
 4222              		.loc 1 855 7 discriminator 56 view .LVU1038
 4223 087e 002B     		cmp	r3, #0
 4224 0880 7FF48EAE 		bne	.L617
 4225              	.L645:
 856:../STM32Cube_FW_N6/Drivers/STM32N6xx_HAL_Driver/Src/stm32n6xx_hal_rif.c ****       assert_param(pConfig->StartAddress < pConfig->EndAddress);
ARM GAS  /tmp/ccHKmbxS.s 			page 104


 4226              		.loc 1 856 7 discriminator 36 view .LVU1039
 4227 0884 524B     		ldr	r3, .L806+24
 4228 0886 9C42     		cmp	r4, r3
 4229 0888 3DD1     		bne	.L655
 4230              	.L656:
 856:../STM32Cube_FW_N6/Drivers/STM32N6xx_HAL_Driver/Src/stm32n6xx_hal_rif.c ****       assert_param(pConfig->StartAddress < pConfig->EndAddress);
 4231              		.loc 1 856 7 discriminator 38 view .LVU1040
 4232 088a AB69     		ldr	r3, [r5, #24]
 4233 088c B3F5005F 		cmp	r3, #8192
 4234 0890 92E6     		b	.L775
 4235              	.L633:
 856:../STM32Cube_FW_N6/Drivers/STM32N6xx_HAL_Driver/Src/stm32n6xx_hal_rif.c ****       assert_param(pConfig->StartAddress < pConfig->EndAddress);
 4236              		.loc 1 856 7 discriminator 3 view .LVU1041
 4237 0892 504B     		ldr	r3, .L806+28
 4238 0894 9C42     		cmp	r4, r3
 4239 0896 3FF4BCAE 		beq	.L621
 856:../STM32Cube_FW_N6/Drivers/STM32N6xx_HAL_Driver/Src/stm32n6xx_hal_rif.c ****       assert_param(pConfig->StartAddress < pConfig->EndAddress);
 4240              		.loc 1 856 7 discriminator 6 view .LVU1042
 4241 089a 03F58053 		add	r3, r3, #4096
 4242 089e 9C42     		cmp	r4, r3
 4243 08a0 3FF4B7AE 		beq	.L621
 856:../STM32Cube_FW_N6/Drivers/STM32N6xx_HAL_Driver/Src/stm32n6xx_hal_rif.c ****       assert_param(pConfig->StartAddress < pConfig->EndAddress);
 4244              		.loc 1 856 7 discriminator 9 view .LVU1043
 4245 08a4 03F58053 		add	r3, r3, #4096
 4246 08a8 9C42     		cmp	r4, r3
 4247 08aa 3FF487AE 		beq	.L637
 856:../STM32Cube_FW_N6/Drivers/STM32N6xx_HAL_Driver/Src/stm32n6xx_hal_rif.c ****       assert_param(pConfig->StartAddress < pConfig->EndAddress);
 4248              		.loc 1 856 7 discriminator 10 view .LVU1044
 4249 08ae 03F58053 		add	r3, r3, #4096
 4250 08b2 9C42     		cmp	r4, r3
 4251 08b4 3FF482AE 		beq	.L637
 856:../STM32Cube_FW_N6/Drivers/STM32N6xx_HAL_Driver/Src/stm32n6xx_hal_rif.c ****       assert_param(pConfig->StartAddress < pConfig->EndAddress);
 4252              		.loc 1 856 7 discriminator 11 view .LVU1045
 4253 08b8 03F58053 		add	r3, r3, #4096
 4254 08bc 9C42     		cmp	r4, r3
 4255 08be 3FF47DAE 		beq	.L637
 856:../STM32Cube_FW_N6/Drivers/STM32N6xx_HAL_Driver/Src/stm32n6xx_hal_rif.c ****       assert_param(pConfig->StartAddress < pConfig->EndAddress);
 4256              		.loc 1 856 7 discriminator 12 view .LVU1046
 4257 08c2 03F58053 		add	r3, r3, #4096
 4258 08c6 9C42     		cmp	r4, r3
 4259 08c8 3FF4C1AE 		beq	.L647
 856:../STM32Cube_FW_N6/Drivers/STM32N6xx_HAL_Driver/Src/stm32n6xx_hal_rif.c ****       assert_param(pConfig->StartAddress < pConfig->EndAddress);
 4260              		.loc 1 856 7 discriminator 15 view .LVU1047
 4261 08cc 03F58053 		add	r3, r3, #4096
 4262 08d0 9C42     		cmp	r4, r3
 4263 08d2 80D0     		beq	.L648
 856:../STM32Cube_FW_N6/Drivers/STM32N6xx_HAL_Driver/Src/stm32n6xx_hal_rif.c ****       assert_param(pConfig->StartAddress < pConfig->EndAddress);
 4264              		.loc 1 856 7 discriminator 18 view .LVU1048
 4265 08d4 03F58053 		add	r3, r3, #4096
 4266 08d8 9C42     		cmp	r4, r3
 4267 08da ABD0     		beq	.L649
 856:../STM32Cube_FW_N6/Drivers/STM32N6xx_HAL_Driver/Src/stm32n6xx_hal_rif.c ****       assert_param(pConfig->StartAddress < pConfig->EndAddress);
 4268              		.loc 1 856 7 discriminator 21 view .LVU1049
 4269 08dc 03F50053 		add	r3, r3, #8192
 4270 08e0 9C42     		cmp	r4, r3
 4271 08e2 B3D0     		beq	.L653
 856:../STM32Cube_FW_N6/Drivers/STM32N6xx_HAL_Driver/Src/stm32n6xx_hal_rif.c ****       assert_param(pConfig->StartAddress < pConfig->EndAddress);
ARM GAS  /tmp/ccHKmbxS.s 			page 105


 4272              		.loc 1 856 7 discriminator 24 view .LVU1050
 4273 08e4 03F58053 		add	r3, r3, #4096
 4274 08e8 9C42     		cmp	r4, r3
 4275 08ea AFD0     		beq	.L653
 856:../STM32Cube_FW_N6/Drivers/STM32N6xx_HAL_Driver/Src/stm32n6xx_hal_rif.c ****       assert_param(pConfig->StartAddress < pConfig->EndAddress);
 4276              		.loc 1 856 7 discriminator 27 view .LVU1051
 4277 08ec 03F58053 		add	r3, r3, #4096
 4278 08f0 9C42     		cmp	r4, r3
 4279 08f2 ABD0     		beq	.L653
 856:../STM32Cube_FW_N6/Drivers/STM32N6xx_HAL_Driver/Src/stm32n6xx_hal_rif.c ****       assert_param(pConfig->StartAddress < pConfig->EndAddress);
 4280              		.loc 1 856 7 discriminator 30 view .LVU1052
 4281 08f4 03F58053 		add	r3, r3, #4096
 4282 08f8 9C42     		cmp	r4, r3
 4283 08fa A7D0     		beq	.L653
 856:../STM32Cube_FW_N6/Drivers/STM32N6xx_HAL_Driver/Src/stm32n6xx_hal_rif.c ****       assert_param(pConfig->StartAddress < pConfig->EndAddress);
 4284              		.loc 1 856 7 discriminator 33 view .LVU1053
 4285 08fc 03F58053 		add	r3, r3, #4096
 4286 0900 9C42     		cmp	r4, r3
 4287 0902 BFD1     		bne	.L645
 4288 0904 B5E7     		b	.L783
 4289              	.L655:
 856:../STM32Cube_FW_N6/Drivers/STM32N6xx_HAL_Driver/Src/stm32n6xx_hal_rif.c ****       assert_param(pConfig->StartAddress < pConfig->EndAddress);
 4290              		.loc 1 856 7 discriminator 39 view .LVU1054
 4291 0906 344B     		ldr	r3, .L806+32
 4292 0908 9C42     		cmp	r4, r3
 4293 090a BED0     		beq	.L656
 856:../STM32Cube_FW_N6/Drivers/STM32N6xx_HAL_Driver/Src/stm32n6xx_hal_rif.c ****       assert_param(pConfig->StartAddress < pConfig->EndAddress);
 4294              		.loc 1 856 7 discriminator 42 view .LVU1055
 4295 090c 03F58053 		add	r3, r3, #4096
 4296 0910 9C42     		cmp	r4, r3
 4297 0912 AED0     		beq	.L783
 4298              	.L634:
 856:../STM32Cube_FW_N6/Drivers/STM32N6xx_HAL_Driver/Src/stm32n6xx_hal_rif.c ****       assert_param(pConfig->StartAddress < pConfig->EndAddress);
 4299              		.loc 1 856 7 discriminator 45 view .LVU1056
 4300 0914 4FF45671 		mov	r1, #856
 4301 0918 3048     		ldr	r0, .L806+36
 4302 091a FFF7FEFF 		bl	assert_failed
 4303              	.LVL180:
 4304 091e 4DE6     		b	.L637
 4305              	.LVL181:
 4306              	.L497:
 807:../STM32Cube_FW_N6/Drivers/STM32N6xx_HAL_Driver/Src/stm32n6xx_hal_rif.c ****   assert_param(IS_RISAF_MAX_REGION(RISAFx, Region));
 4307              		.loc 1 807 3 is_stmt 1 view .LVU1057
 4308 0920 0E2E     		cmp	r6, #14
 4309 0922 7FF6EBAB 		bls	.L667
 4310              	.L666:
 807:../STM32Cube_FW_N6/Drivers/STM32N6xx_HAL_Driver/Src/stm32n6xx_hal_rif.c ****   assert_param(IS_RISAF_MAX_REGION(RISAFx, Region));
 4311              		.loc 1 807 3 is_stmt 0 discriminator 1 view .LVU1058
 4312 0926 40F22731 		movw	r1, #807
 4313 092a 2C48     		ldr	r0, .L806+36
 4314 092c FFF7FEFF 		bl	assert_failed
 4315              	.LVL182:
 808:../STM32Cube_FW_N6/Drivers/STM32N6xx_HAL_Driver/Src/stm32n6xx_hal_rif.c ****   assert_param(IS_RISAF_SUBREGION(SubRegion));
 4316              		.loc 1 808 3 is_stmt 1 view .LVU1059
 4317 0930 2B4B     		ldr	r3, .L806+40
 4318 0932 9C42     		cmp	r4, r3
 4319 0934 7FF4CEAB 		bne	.L509
ARM GAS  /tmp/ccHKmbxS.s 			page 106


 4320              	.L511:
 808:../STM32Cube_FW_N6/Drivers/STM32N6xx_HAL_Driver/Src/stm32n6xx_hal_rif.c ****   assert_param(IS_RISAF_SUBREGION(SubRegion));
 4321              		.loc 1 808 3 is_stmt 0 discriminator 1 view .LVU1060
 4322 0938 062E     		cmp	r6, #6
 4323              	.L777:
 808:../STM32Cube_FW_N6/Drivers/STM32N6xx_HAL_Driver/Src/stm32n6xx_hal_rif.c ****   assert_param(IS_RISAF_SUBREGION(SubRegion));
 4324              		.loc 1 808 3 discriminator 47 view .LVU1061
 4325 093a 8CBF     		ite	hi
 4326 093c 0023     		movhi	r3, #0
 4327 093e 0123     		movls	r3, #1
 808:../STM32Cube_FW_N6/Drivers/STM32N6xx_HAL_Driver/Src/stm32n6xx_hal_rif.c ****   assert_param(IS_RISAF_SUBREGION(SubRegion));
 4328              		.loc 1 808 3 discriminator 64 view .LVU1062
 4329 0940 002B     		cmp	r3, #0
 4330 0942 3FF4D4AB 		beq	.L512
 4331              	.L671:
 809:../STM32Cube_FW_N6/Drivers/STM32N6xx_HAL_Driver/Src/stm32n6xx_hal_rif.c ****   assert_param(IS_RISAF_FILTERING(pConfig->Filtering));
 4332              		.loc 1 809 3 is_stmt 1 view .LVU1063
 4333 0946 B8F1010F 		cmp	r8, #1
 4334 094a 04D9     		bls	.L515
 809:../STM32Cube_FW_N6/Drivers/STM32N6xx_HAL_Driver/Src/stm32n6xx_hal_rif.c ****   assert_param(IS_RISAF_FILTERING(pConfig->Filtering));
 4335              		.loc 1 809 3 is_stmt 0 discriminator 1 view .LVU1064
 4336 094c 40F22931 		movw	r1, #809
 4337 0950 2248     		ldr	r0, .L806+36
 4338 0952 FFF7FEFF 		bl	assert_failed
 4339              	.LVL183:
 4340              	.L515:
 810:../STM32Cube_FW_N6/Drivers/STM32N6xx_HAL_Driver/Src/stm32n6xx_hal_rif.c ****   assert_param(IS_RIF_LOCK_STATE(pConfig->Lock));
 4341              		.loc 1 810 3 is_stmt 1 view .LVU1065
 4342 0956 2B68     		ldr	r3, [r5]
 4343 0958 012B     		cmp	r3, #1
 4344 095a 04D9     		bls	.L516
 810:../STM32Cube_FW_N6/Drivers/STM32N6xx_HAL_Driver/Src/stm32n6xx_hal_rif.c ****   assert_param(IS_RIF_LOCK_STATE(pConfig->Lock));
 4345              		.loc 1 810 3 is_stmt 0 discriminator 1 view .LVU1066
 4346 095c 40F22A31 		movw	r1, #810
 4347 0960 1E48     		ldr	r0, .L806+36
 4348 0962 FFF7FEFF 		bl	assert_failed
 4349              	.LVL184:
 4350              	.L516:
 811:../STM32Cube_FW_N6/Drivers/STM32N6xx_HAL_Driver/Src/stm32n6xx_hal_rif.c **** 
 4351              		.loc 1 811 3 is_stmt 1 view .LVU1067
 4352 0966 2B69     		ldr	r3, [r5, #16]
 4353 0968 012B     		cmp	r3, #1
 4354 096a 04D9     		bls	.L517
 811:../STM32Cube_FW_N6/Drivers/STM32N6xx_HAL_Driver/Src/stm32n6xx_hal_rif.c **** 
 4355              		.loc 1 811 3 is_stmt 0 discriminator 1 view .LVU1068
 4356 096c 40F22B31 		movw	r1, #811
 4357 0970 1A48     		ldr	r0, .L806+36
 4358 0972 FFF7FEFF 		bl	assert_failed
 4359              	.LVL185:
 4360              	.L517:
 814:../STM32Cube_FW_N6/Drivers/STM32N6xx_HAL_Driver/Src/stm32n6xx_hal_rif.c **** 
 4361              		.loc 1 814 3 is_stmt 1 view .LVU1069
 4362              	.LBB30:
 4363              	.LBI30:
 274:../STM32Cube_FW_N6/Drivers/CMSIS/Include/cmsis_gcc.h **** {
 4364              		.loc 2 274 31 view .LVU1070
 4365              	.LBB31:
ARM GAS  /tmp/ccHKmbxS.s 			page 107


 276:../STM32Cube_FW_N6/Drivers/CMSIS/Include/cmsis_gcc.h **** 
 4366              		.loc 2 276 3 view .LVU1071
 279:../STM32Cube_FW_N6/Drivers/CMSIS/Include/cmsis_gcc.h **** #else
 4367              		.loc 2 279 4 view .LVU1072
 4368 0976 6F68     		ldr	r7, [r5, #4]
 4369              	.LBE31:
 4370              	.LBE30:
 818:../STM32Cube_FW_N6/Drivers/STM32N6xx_HAL_Driver/Src/stm32n6xx_hal_rif.c ****     {
 4371              		.loc 1 818 16 is_stmt 0 view .LVU1073
 4372 0978 2B68     		ldr	r3, [r5]
 4373              	.LBB33:
 4374              	.LBB32:
 279:../STM32Cube_FW_N6/Drivers/CMSIS/Include/cmsis_gcc.h **** #else
 4375              		.loc 2 279 4 view .LVU1074
 4376              		.syntax unified
 4377              	@ 279 "../STM32Cube_FW_N6/Drivers/CMSIS/Include/cmsis_gcc.h" 1
 4378 097a 97FAA7F7 		rbit r7, r7
 4379              	@ 0 "" 2
 4380              	.LVL186:
 292:../STM32Cube_FW_N6/Drivers/CMSIS/Include/cmsis_gcc.h **** }
 4381              		.loc 2 292 3 is_stmt 1 view .LVU1075
 292:../STM32Cube_FW_N6/Drivers/CMSIS/Include/cmsis_gcc.h **** }
 4382              		.loc 2 292 3 is_stmt 0 view .LVU1076
 4383              		.thumb
 4384              		.syntax unified
 4385              	.LBE32:
 4386              	.LBE33:
 4387              	.LBB34:
 4388              	.LBI34:
 302:../STM32Cube_FW_N6/Drivers/CMSIS/Include/cmsis_gcc.h **** {
 4389              		.loc 2 302 30 is_stmt 1 view .LVU1077
 4390              	.LBB35:
 313:../STM32Cube_FW_N6/Drivers/CMSIS/Include/cmsis_gcc.h ****   {
 4391              		.loc 2 313 3 view .LVU1078
 4392 097e B601     		lsls	r6, r6, #6
 4393              	.LVL187:
 4394              		.loc 2 317 10 is_stmt 0 discriminator 1 view .LVU1079
 4395 0980 B7FA87F7 		clz	r7, r7
 4396              	.LVL188:
 4397              		.loc 2 317 10 discriminator 1 view .LVU1080
 4398              	.LBE35:
 4399              	.LBE34:
 816:../STM32Cube_FW_N6/Drivers/STM32N6xx_HAL_Driver/Src/stm32n6xx_hal_rif.c ****   {
 4400              		.loc 1 816 3 is_stmt 1 view .LVU1081
 816:../STM32Cube_FW_N6/Drivers/STM32N6xx_HAL_Driver/Src/stm32n6xx_hal_rif.c ****   {
 4401              		.loc 1 816 6 is_stmt 0 view .LVU1082
 4402 0984 B8F1000F 		cmp	r8, #0
 4403 0988 7FF4B7AD 		bne	.L519
 818:../STM32Cube_FW_N6/Drivers/STM32N6xx_HAL_Driver/Src/stm32n6xx_hal_rif.c ****     {
 4404              		.loc 1 818 5 is_stmt 1 view .LVU1083
 818:../STM32Cube_FW_N6/Drivers/STM32N6xx_HAL_Driver/Src/stm32n6xx_hal_rif.c ****     {
 4405              		.loc 1 818 8 is_stmt 0 view .LVU1084
 4406 098c 002B     		cmp	r3, #0
 4407 098e 7FF4EFAB 		bne	.L520
 820:../STM32Cube_FW_N6/Drivers/STM32N6xx_HAL_Driver/Src/stm32n6xx_hal_rif.c ****       RISAFx->REG[Region].ACFGR |= (pConfig->Lock << RISAF_REGx_zCFGR_RLOCK_Pos);
 4408              		.loc 1 820 7 is_stmt 1 view .LVU1085
 820:../STM32Cube_FW_N6/Drivers/STM32N6xx_HAL_Driver/Src/stm32n6xx_hal_rif.c ****       RISAFx->REG[Region].ACFGR |= (pConfig->Lock << RISAF_REGx_zCFGR_RLOCK_Pos);
ARM GAS  /tmp/ccHKmbxS.s 			page 108


 4409              		.loc 1 820 26 is_stmt 0 view .LVU1086
 4410 0992 2644     		add	r6, r6, r4
 4411 0994 336D     		ldr	r3, [r6, #80]
 821:../STM32Cube_FW_N6/Drivers/STM32N6xx_HAL_Driver/Src/stm32n6xx_hal_rif.c ****     }
 4412              		.loc 1 821 51 view .LVU1087
 4413 0996 2A69     		ldr	r2, [r5, #16]
 820:../STM32Cube_FW_N6/Drivers/STM32N6xx_HAL_Driver/Src/stm32n6xx_hal_rif.c ****       RISAFx->REG[Region].ACFGR |= (pConfig->Lock << RISAF_REGx_zCFGR_RLOCK_Pos);
 4414              		.loc 1 820 33 view .LVU1088
 4415 0998 23F00303 		bic	r3, r3, #3
 4416 099c 3365     		str	r3, [r6, #80]
 821:../STM32Cube_FW_N6/Drivers/STM32N6xx_HAL_Driver/Src/stm32n6xx_hal_rif.c ****     }
 4417              		.loc 1 821 7 is_stmt 1 view .LVU1089
 821:../STM32Cube_FW_N6/Drivers/STM32N6xx_HAL_Driver/Src/stm32n6xx_hal_rif.c ****     }
 4418              		.loc 1 821 26 is_stmt 0 view .LVU1090
 4419 099e 336D     		ldr	r3, [r6, #80]
 821:../STM32Cube_FW_N6/Drivers/STM32N6xx_HAL_Driver/Src/stm32n6xx_hal_rif.c ****     }
 4420              		.loc 1 821 33 view .LVU1091
 4421 09a0 43EA4203 		orr	r3, r3, r2, lsl #1
 4422              	.L779:
 836:../STM32Cube_FW_N6/Drivers/STM32N6xx_HAL_Driver/Src/stm32n6xx_hal_rif.c ****                                    | (cid << RISAF_REGx_zCFGR_SRCID_Pos) | (pConfig->SecPriv << RIS
 4423              		.loc 1 836 33 view .LVU1092
 4424 09a4 3365     		str	r3, [r6, #80]
 4425              	.L490:
 4426              		.loc 1 866 1 view .LVU1093
 4427 09a6 BDE8F081 		pop	{r4, r5, r6, r7, r8, pc}
 4428              	.LVL189:
 4429              	.L505:
 807:../STM32Cube_FW_N6/Drivers/STM32N6xx_HAL_Driver/Src/stm32n6xx_hal_rif.c ****   assert_param(IS_RISAF_MAX_REGION(RISAFx, Region));
 4430              		.loc 1 807 3 is_stmt 1 view .LVU1094
 4431 09aa 0E2E     		cmp	r6, #14
 4432 09ac BBD8     		bhi	.L666
 808:../STM32Cube_FW_N6/Drivers/STM32N6xx_HAL_Driver/Src/stm32n6xx_hal_rif.c ****   assert_param(IS_RISAF_SUBREGION(SubRegion));
 4433              		.loc 1 808 3 is_stmt 0 discriminator 40 view .LVU1095
 4434 09ae 012E     		cmp	r6, #1
 4435 09b0 C3E7     		b	.L777
 4436              	.L494:
 807:../STM32Cube_FW_N6/Drivers/STM32N6xx_HAL_Driver/Src/stm32n6xx_hal_rif.c ****   assert_param(IS_RISAF_MAX_REGION(RISAFx, Region));
 4437              		.loc 1 807 3 is_stmt 1 view .LVU1096
 4438 09b2 0E2E     		cmp	r6, #14
 4439 09b4 C0D9     		bls	.L511
 4440 09b6 B6E7     		b	.L666
 4441              	.L807:
 4442              		.align	2
 4443              	.L806:
 4444 09b8 00E00254 		.word	1409474560
 4445 09bc 00000354 		.word	1409482752
 4446 09c0 00100354 		.word	1409486848
 4447 09c4 00200354 		.word	1409490944
 4448 09c8 00300354 		.word	1409495040
 4449 09cc 00400354 		.word	1409499136
 4450 09d0 00500354 		.word	1409503232
 4451 09d4 00700254 		.word	1409445888
 4452 09d8 00600354 		.word	1409507328
 4453 09dc 00000000 		.word	.LC0
 4454 09e0 00600254 		.word	1409441792
 4455              		.cfi_endproc
 4456              	.LFE899:
ARM GAS  /tmp/ccHKmbxS.s 			page 109


 4458              		.section	.text.HAL_RIF_RISAF_GetConfigSubRegion,"ax",%progbits
 4459              		.align	1
 4460              		.global	HAL_RIF_RISAF_GetConfigSubRegion
 4461              		.syntax unified
 4462              		.thumb
 4463              		.thumb_func
 4465              	HAL_RIF_RISAF_GetConfigSubRegion:
 4466              	.LVL190:
 4467              	.LFB900:
 867:../STM32Cube_FW_N6/Drivers/STM32N6xx_HAL_Driver/Src/stm32n6xx_hal_rif.c **** 
 868:../STM32Cube_FW_N6/Drivers/STM32N6xx_HAL_Driver/Src/stm32n6xx_hal_rif.c **** /**
 869:../STM32Cube_FW_N6/Drivers/STM32N6xx_HAL_Driver/Src/stm32n6xx_hal_rif.c ****   * @brief  Get the configuration of a RISAF Subregion.
 870:../STM32Cube_FW_N6/Drivers/STM32N6xx_HAL_Driver/Src/stm32n6xx_hal_rif.c ****   * @param  RISAFx specifies the RISAF instance.
 871:../STM32Cube_FW_N6/Drivers/STM32N6xx_HAL_Driver/Src/stm32n6xx_hal_rif.c ****   *         This parameter is one of the RISAF instances defined in the CMSIS.
 872:../STM32Cube_FW_N6/Drivers/STM32N6xx_HAL_Driver/Src/stm32n6xx_hal_rif.c ****   * @param  Region specifies the RISAF region index
 873:../STM32Cube_FW_N6/Drivers/STM32N6xx_HAL_Driver/Src/stm32n6xx_hal_rif.c ****   *         This parameter can be one one of the following values:
 874:../STM32Cube_FW_N6/Drivers/STM32N6xx_HAL_Driver/Src/stm32n6xx_hal_rif.c ****   *           @arg @ref RISAF_REGION_1
 875:../STM32Cube_FW_N6/Drivers/STM32N6xx_HAL_Driver/Src/stm32n6xx_hal_rif.c ****   *           @arg @ref RISAF_REGION_2
 876:../STM32Cube_FW_N6/Drivers/STM32N6xx_HAL_Driver/Src/stm32n6xx_hal_rif.c ****   *           @arg @ref RISAF_REGION_3
 877:../STM32Cube_FW_N6/Drivers/STM32N6xx_HAL_Driver/Src/stm32n6xx_hal_rif.c ****   *           @arg @ref RISAF_REGION_4
 878:../STM32Cube_FW_N6/Drivers/STM32N6xx_HAL_Driver/Src/stm32n6xx_hal_rif.c ****   *           @arg @ref RISAF_REGION_5
 879:../STM32Cube_FW_N6/Drivers/STM32N6xx_HAL_Driver/Src/stm32n6xx_hal_rif.c ****   *           @arg @ref RISAF_REGION_6
 880:../STM32Cube_FW_N6/Drivers/STM32N6xx_HAL_Driver/Src/stm32n6xx_hal_rif.c ****   *           @arg @ref RISAF_REGION_7
 881:../STM32Cube_FW_N6/Drivers/STM32N6xx_HAL_Driver/Src/stm32n6xx_hal_rif.c ****   *           @arg @ref RISAF_REGION_8
 882:../STM32Cube_FW_N6/Drivers/STM32N6xx_HAL_Driver/Src/stm32n6xx_hal_rif.c ****   *           @arg @ref RISAF_REGION_9
 883:../STM32Cube_FW_N6/Drivers/STM32N6xx_HAL_Driver/Src/stm32n6xx_hal_rif.c ****   *           @arg @ref RISAF_REGION_10
 884:../STM32Cube_FW_N6/Drivers/STM32N6xx_HAL_Driver/Src/stm32n6xx_hal_rif.c ****   *           @arg @ref RISAF_REGION_11
 885:../STM32Cube_FW_N6/Drivers/STM32N6xx_HAL_Driver/Src/stm32n6xx_hal_rif.c ****   *           @arg @ref RISAF_REGION_12
 886:../STM32Cube_FW_N6/Drivers/STM32N6xx_HAL_Driver/Src/stm32n6xx_hal_rif.c ****   *           @arg @ref RISAF_REGION_13
 887:../STM32Cube_FW_N6/Drivers/STM32N6xx_HAL_Driver/Src/stm32n6xx_hal_rif.c ****   *           @arg @ref RISAF_REGION_14
 888:../STM32Cube_FW_N6/Drivers/STM32N6xx_HAL_Driver/Src/stm32n6xx_hal_rif.c ****   *           @arg @ref RISAF_REGION_15
 889:../STM32Cube_FW_N6/Drivers/STM32N6xx_HAL_Driver/Src/stm32n6xx_hal_rif.c ****   * @param  SubRegion specifies the RISAB Subregion index
 890:../STM32Cube_FW_N6/Drivers/STM32N6xx_HAL_Driver/Src/stm32n6xx_hal_rif.c ****   *         This parameter can be one of the following values:
 891:../STM32Cube_FW_N6/Drivers/STM32N6xx_HAL_Driver/Src/stm32n6xx_hal_rif.c ****   *           @arg @ref RISAF_SUBREGION_A
 892:../STM32Cube_FW_N6/Drivers/STM32N6xx_HAL_Driver/Src/stm32n6xx_hal_rif.c ****   *           @arg @ref RISAF_SUBREGION_B
 893:../STM32Cube_FW_N6/Drivers/STM32N6xx_HAL_Driver/Src/stm32n6xx_hal_rif.c ****   * @param  pConfig Pointer on RISAF Base Region configuration structure
 894:../STM32Cube_FW_N6/Drivers/STM32N6xx_HAL_Driver/Src/stm32n6xx_hal_rif.c ****   * @retval None
 895:../STM32Cube_FW_N6/Drivers/STM32N6xx_HAL_Driver/Src/stm32n6xx_hal_rif.c ****   */
 896:../STM32Cube_FW_N6/Drivers/STM32N6xx_HAL_Driver/Src/stm32n6xx_hal_rif.c **** void HAL_RIF_RISAF_GetConfigSubRegion(const RISAF_TypeDef *RISAFx, uint32_t Region, uint32_t SubReg
 897:../STM32Cube_FW_N6/Drivers/STM32N6xx_HAL_Driver/Src/stm32n6xx_hal_rif.c ****                                       RISAF_SubRegionConfig_t *pConfig)
 898:../STM32Cube_FW_N6/Drivers/STM32N6xx_HAL_Driver/Src/stm32n6xx_hal_rif.c **** {
 4468              		.loc 1 898 1 view -0
 4469              		.cfi_startproc
 4470              		@ args = 0, pretend = 0, frame = 0
 4471              		@ frame_needed = 0, uses_anonymous_args = 0
 899:../STM32Cube_FW_N6/Drivers/STM32N6xx_HAL_Driver/Src/stm32n6xx_hal_rif.c ****   uint32_t cid;
 4472              		.loc 1 899 3 view .LVU1098
 900:../STM32Cube_FW_N6/Drivers/STM32N6xx_HAL_Driver/Src/stm32n6xx_hal_rif.c ****   uint32_t cfgr_reg;
 4473              		.loc 1 900 3 view .LVU1099
 901:../STM32Cube_FW_N6/Drivers/STM32N6xx_HAL_Driver/Src/stm32n6xx_hal_rif.c **** 
 902:../STM32Cube_FW_N6/Drivers/STM32N6xx_HAL_Driver/Src/stm32n6xx_hal_rif.c ****   /* Check the parameters */
 903:../STM32Cube_FW_N6/Drivers/STM32N6xx_HAL_Driver/Src/stm32n6xx_hal_rif.c ****   assert_param(pConfig != (void *)NULL);
 4474              		.loc 1 903 3 view .LVU1100
 898:../STM32Cube_FW_N6/Drivers/STM32N6xx_HAL_Driver/Src/stm32n6xx_hal_rif.c ****   uint32_t cid;
 4475              		.loc 1 898 1 is_stmt 0 view .LVU1101
 4476 0000 F8B5     		push	{r3, r4, r5, r6, r7, lr}
 4477              		.cfi_def_cfa_offset 24
ARM GAS  /tmp/ccHKmbxS.s 			page 110


 4478              		.cfi_offset 3, -24
 4479              		.cfi_offset 4, -20
 4480              		.cfi_offset 5, -16
 4481              		.cfi_offset 6, -12
 4482              		.cfi_offset 7, -8
 4483              		.cfi_offset 14, -4
 898:../STM32Cube_FW_N6/Drivers/STM32N6xx_HAL_Driver/Src/stm32n6xx_hal_rif.c ****   uint32_t cid;
 4484              		.loc 1 898 1 view .LVU1102
 4485 0002 0546     		mov	r5, r0
 4486 0004 0C46     		mov	r4, r1
 4487 0006 1746     		mov	r7, r2
 4488              		.loc 1 903 3 view .LVU1103
 4489 0008 1E46     		mov	r6, r3
 4490 000a 23B9     		cbnz	r3, .L809
 4491              		.loc 1 903 3 discriminator 1 view .LVU1104
 4492 000c 40F28731 		movw	r1, #903
 4493              	.LVL191:
 4494              		.loc 1 903 3 discriminator 1 view .LVU1105
 4495 0010 4A48     		ldr	r0, .L860
 4496              	.LVL192:
 4497              		.loc 1 903 3 discriminator 1 view .LVU1106
 4498 0012 FFF7FEFF 		bl	assert_failed
 4499              	.LVL193:
 4500              	.L809:
 904:../STM32Cube_FW_N6/Drivers/STM32N6xx_HAL_Driver/Src/stm32n6xx_hal_rif.c ****   assert_param(IS_RISAF_INSTANCE(RISAFx));
 4501              		.loc 1 904 3 is_stmt 1 view .LVU1107
 4502 0016 4A4B     		ldr	r3, .L860+4
 4503 0018 9D42     		cmp	r5, r3
 4504 001a 00F08B80 		beq	.L812
 4505              		.loc 1 904 3 is_stmt 0 discriminator 1 view .LVU1108
 4506 001e 03F58053 		add	r3, r3, #4096
 4507 0022 9D42     		cmp	r5, r3
 4508 0024 00F08680 		beq	.L812
 4509              		.loc 1 904 3 discriminator 2 view .LVU1109
 4510 0028 03F58053 		add	r3, r3, #4096
 4511 002c 9D42     		cmp	r5, r3
 4512 002e 00F08180 		beq	.L812
 4513              		.loc 1 904 3 discriminator 3 view .LVU1110
 4514 0032 03F58053 		add	r3, r3, #4096
 4515 0036 9D42     		cmp	r5, r3
 4516 0038 6BD0     		beq	.L815
 4517              		.loc 1 904 3 discriminator 4 view .LVU1111
 4518 003a 03F58053 		add	r3, r3, #4096
 4519 003e 9D42     		cmp	r5, r3
 4520 0040 67D0     		beq	.L815
 4521              		.loc 1 904 3 discriminator 5 view .LVU1112
 4522 0042 03F58053 		add	r3, r3, #4096
 4523 0046 9D42     		cmp	r5, r3
 4524 0048 63D0     		beq	.L815
 4525              		.loc 1 904 3 discriminator 6 view .LVU1113
 4526 004a 03F58053 		add	r3, r3, #4096
 4527 004e 9D42     		cmp	r5, r3
 4528 0050 70D0     		beq	.L812
 4529              		.loc 1 904 3 discriminator 7 view .LVU1114
 4530 0052 03F58053 		add	r3, r3, #4096
 4531 0056 9D42     		cmp	r5, r3
 4532 0058 6CD0     		beq	.L812
ARM GAS  /tmp/ccHKmbxS.s 			page 111


 4533              		.loc 1 904 3 discriminator 8 view .LVU1115
 4534 005a 03F58053 		add	r3, r3, #4096
 4535 005e 9D42     		cmp	r5, r3
 4536 0060 68D0     		beq	.L812
 4537              		.loc 1 904 3 discriminator 9 view .LVU1116
 4538 0062 03F50053 		add	r3, r3, #8192
 4539 0066 9D42     		cmp	r5, r3
 4540 0068 64D0     		beq	.L812
 4541              		.loc 1 904 3 discriminator 10 view .LVU1117
 4542 006a 03F58053 		add	r3, r3, #4096
 4543 006e 9D42     		cmp	r5, r3
 4544 0070 60D0     		beq	.L812
 4545              		.loc 1 904 3 discriminator 11 view .LVU1118
 4546 0072 03F58053 		add	r3, r3, #4096
 4547 0076 9D42     		cmp	r5, r3
 4548 0078 5CD0     		beq	.L812
 4549              		.loc 1 904 3 discriminator 12 view .LVU1119
 4550 007a 03F58053 		add	r3, r3, #4096
 4551 007e 9D42     		cmp	r5, r3
 4552 0080 58D0     		beq	.L812
 4553              		.loc 1 904 3 discriminator 13 view .LVU1120
 4554 0082 03F58053 		add	r3, r3, #4096
 4555 0086 9D42     		cmp	r5, r3
 4556 0088 50D0     		beq	.L823
 4557              		.loc 1 904 3 discriminator 14 view .LVU1121
 4558 008a 03F58053 		add	r3, r3, #4096
 4559 008e 9D42     		cmp	r5, r3
 4560 0090 50D0     		beq	.L812
 4561              		.loc 1 904 3 discriminator 15 view .LVU1122
 4562 0092 03F58053 		add	r3, r3, #4096
 4563 0096 9D42     		cmp	r5, r3
 4564 0098 4CD0     		beq	.L812
 4565              		.loc 1 904 3 discriminator 16 view .LVU1123
 4566 009a 03F58053 		add	r3, r3, #4096
 4567 009e 9D42     		cmp	r5, r3
 4568 00a0 04D0     		beq	.L826
 4569              		.loc 1 904 3 discriminator 17 view .LVU1124
 4570 00a2 4FF46271 		mov	r1, #904
 4571 00a6 2548     		ldr	r0, .L860
 4572 00a8 FFF7FEFF 		bl	assert_failed
 4573              	.LVL194:
 4574              	.L826:
 905:../STM32Cube_FW_N6/Drivers/STM32N6xx_HAL_Driver/Src/stm32n6xx_hal_rif.c ****   assert_param(IS_RISAF_REGION(Region));
 4575              		.loc 1 905 3 is_stmt 1 view .LVU1125
 4576 00ac 0E2C     		cmp	r4, #14
 4577 00ae 32D8     		bhi	.L834
 906:../STM32Cube_FW_N6/Drivers/STM32N6xx_HAL_Driver/Src/stm32n6xx_hal_rif.c ****   assert_param(IS_RISAF_MAX_REGION(RISAFx, Region));
 4578              		.loc 1 906 3 is_stmt 0 discriminator 47 view .LVU1126
 4579 00b0 022C     		cmp	r4, #2
 4580 00b2 00E0     		b	.L857
 4581              	.L835:
 4582              		.loc 1 906 3 discriminator 10 view .LVU1127
 4583 00b4 0A2C     		cmp	r4, #10
 4584              	.L857:
 4585              		.loc 1 906 3 discriminator 10 view .LVU1128
 4586 00b6 8CBF     		ite	hi
 4587 00b8 0023     		movhi	r3, #0
ARM GAS  /tmp/ccHKmbxS.s 			page 112


 4588 00ba 0123     		movls	r3, #1
 4589              		.loc 1 906 3 discriminator 64 view .LVU1129
 4590 00bc 002B     		cmp	r3, #0
 4591 00be 2FD0     		beq	.L827
 4592              	.L833:
 907:../STM32Cube_FW_N6/Drivers/STM32N6xx_HAL_Driver/Src/stm32n6xx_hal_rif.c ****   assert_param(IS_RISAF_SUBREGION(SubRegion));
 4593              		.loc 1 907 3 is_stmt 1 view .LVU1130
 4594 00c0 012F     		cmp	r7, #1
 4595 00c2 4FEA8414 		lsl	r4, r4, #6
 4596              	.LVL195:
 4597              		.loc 1 907 3 is_stmt 0 view .LVU1131
 4598 00c6 0AD9     		bls	.L830
 4599              		.loc 1 907 3 discriminator 1 view .LVU1132
 4600 00c8 40F28B31 		movw	r1, #907
 4601 00cc 1B48     		ldr	r0, .L860
 4602 00ce FFF7FEFF 		bl	assert_failed
 4603              	.LVL196:
 908:../STM32Cube_FW_N6/Drivers/STM32N6xx_HAL_Driver/Src/stm32n6xx_hal_rif.c **** 
 909:../STM32Cube_FW_N6/Drivers/STM32N6xx_HAL_Driver/Src/stm32n6xx_hal_rif.c ****   if (SubRegion == RISAF_SUBREGION_A)
 4604              		.loc 1 909 3 is_stmt 1 view .LVU1133
 4605              	.L831:
 910:../STM32Cube_FW_N6/Drivers/STM32N6xx_HAL_Driver/Src/stm32n6xx_hal_rif.c ****   {
 911:../STM32Cube_FW_N6/Drivers/STM32N6xx_HAL_Driver/Src/stm32n6xx_hal_rif.c ****     cfgr_reg = RISAFx->REG[Region].ACFGR;
 912:../STM32Cube_FW_N6/Drivers/STM32N6xx_HAL_Driver/Src/stm32n6xx_hal_rif.c ****     pConfig->StartAddress = RISAFx->REG[Region].ASTARTR;
 913:../STM32Cube_FW_N6/Drivers/STM32N6xx_HAL_Driver/Src/stm32n6xx_hal_rif.c ****     pConfig->EndAddress = RISAFx->REG[Region].AENDR;
 914:../STM32Cube_FW_N6/Drivers/STM32N6xx_HAL_Driver/Src/stm32n6xx_hal_rif.c ****   }
 915:../STM32Cube_FW_N6/Drivers/STM32N6xx_HAL_Driver/Src/stm32n6xx_hal_rif.c ****   else
 916:../STM32Cube_FW_N6/Drivers/STM32N6xx_HAL_Driver/Src/stm32n6xx_hal_rif.c ****   {
 917:../STM32Cube_FW_N6/Drivers/STM32N6xx_HAL_Driver/Src/stm32n6xx_hal_rif.c ****     cfgr_reg = RISAFx->REG[Region].BCFGR;
 4606              		.loc 1 917 5 view .LVU1134
 4607              		.loc 1 917 14 is_stmt 0 view .LVU1135
 4608 00d2 2819     		adds	r0, r5, r4
 4609 00d4 036E     		ldr	r3, [r0, #96]
 4610              	.LVL197:
 918:../STM32Cube_FW_N6/Drivers/STM32N6xx_HAL_Driver/Src/stm32n6xx_hal_rif.c ****     pConfig->StartAddress = RISAFx->REG[Region].BSTARTR;
 4611              		.loc 1 918 5 is_stmt 1 view .LVU1136
 4612              		.loc 1 918 48 is_stmt 0 view .LVU1137
 4613 00d6 426E     		ldr	r2, [r0, #100]
 4614              		.loc 1 918 27 view .LVU1138
 4615 00d8 7261     		str	r2, [r6, #20]
 919:../STM32Cube_FW_N6/Drivers/STM32N6xx_HAL_Driver/Src/stm32n6xx_hal_rif.c ****     pConfig->EndAddress = RISAFx->REG[Region].BENDR;
 4616              		.loc 1 919 5 is_stmt 1 view .LVU1139
 4617              		.loc 1 919 46 is_stmt 0 view .LVU1140
 4618 00da 826E     		ldr	r2, [r0, #104]
 4619 00dc 06E0     		b	.L832
 4620              	.LVL198:
 4621              	.L830:
 909:../STM32Cube_FW_N6/Drivers/STM32N6xx_HAL_Driver/Src/stm32n6xx_hal_rif.c ****   {
 4622              		.loc 1 909 3 is_stmt 1 view .LVU1141
 909:../STM32Cube_FW_N6/Drivers/STM32N6xx_HAL_Driver/Src/stm32n6xx_hal_rif.c ****   {
 4623              		.loc 1 909 6 is_stmt 0 view .LVU1142
 4624 00de 002F     		cmp	r7, #0
 4625 00e0 F7D1     		bne	.L831
 911:../STM32Cube_FW_N6/Drivers/STM32N6xx_HAL_Driver/Src/stm32n6xx_hal_rif.c ****     pConfig->StartAddress = RISAFx->REG[Region].ASTARTR;
 4626              		.loc 1 911 5 is_stmt 1 view .LVU1143
 911:../STM32Cube_FW_N6/Drivers/STM32N6xx_HAL_Driver/Src/stm32n6xx_hal_rif.c ****     pConfig->StartAddress = RISAFx->REG[Region].ASTARTR;
 4627              		.loc 1 911 14 is_stmt 0 view .LVU1144
ARM GAS  /tmp/ccHKmbxS.s 			page 113


 4628 00e2 2819     		adds	r0, r5, r4
 4629 00e4 036D     		ldr	r3, [r0, #80]
 4630              	.LVL199:
 912:../STM32Cube_FW_N6/Drivers/STM32N6xx_HAL_Driver/Src/stm32n6xx_hal_rif.c ****     pConfig->EndAddress = RISAFx->REG[Region].AENDR;
 4631              		.loc 1 912 5 is_stmt 1 view .LVU1145
 912:../STM32Cube_FW_N6/Drivers/STM32N6xx_HAL_Driver/Src/stm32n6xx_hal_rif.c ****     pConfig->EndAddress = RISAFx->REG[Region].AENDR;
 4632              		.loc 1 912 48 is_stmt 0 view .LVU1146
 4633 00e6 426D     		ldr	r2, [r0, #84]
 912:../STM32Cube_FW_N6/Drivers/STM32N6xx_HAL_Driver/Src/stm32n6xx_hal_rif.c ****     pConfig->EndAddress = RISAFx->REG[Region].AENDR;
 4634              		.loc 1 912 27 view .LVU1147
 4635 00e8 7261     		str	r2, [r6, #20]
 913:../STM32Cube_FW_N6/Drivers/STM32N6xx_HAL_Driver/Src/stm32n6xx_hal_rif.c ****   }
 4636              		.loc 1 913 5 is_stmt 1 view .LVU1148
 913:../STM32Cube_FW_N6/Drivers/STM32N6xx_HAL_Driver/Src/stm32n6xx_hal_rif.c ****   }
 4637              		.loc 1 913 46 is_stmt 0 view .LVU1149
 4638 00ea 826D     		ldr	r2, [r0, #88]
 4639              	.L832:
 913:../STM32Cube_FW_N6/Drivers/STM32N6xx_HAL_Driver/Src/stm32n6xx_hal_rif.c ****   }
 4640              		.loc 1 913 25 view .LVU1150
 4641 00ec B261     		str	r2, [r6, #24]
 920:../STM32Cube_FW_N6/Drivers/STM32N6xx_HAL_Driver/Src/stm32n6xx_hal_rif.c ****   }
 921:../STM32Cube_FW_N6/Drivers/STM32N6xx_HAL_Driver/Src/stm32n6xx_hal_rif.c **** 
 922:../STM32Cube_FW_N6/Drivers/STM32N6xx_HAL_Driver/Src/stm32n6xx_hal_rif.c ****   pConfig->Filtering = (cfgr_reg & RISAF_REGx_zCFGR_SREN);
 4642              		.loc 1 922 3 is_stmt 1 view .LVU1151
 4643              		.loc 1 922 34 is_stmt 0 view .LVU1152
 4644 00ee 03F00102 		and	r2, r3, #1
 4645              		.loc 1 922 22 view .LVU1153
 4646 00f2 3260     		str	r2, [r6]
 923:../STM32Cube_FW_N6/Drivers/STM32N6xx_HAL_Driver/Src/stm32n6xx_hal_rif.c ****   cid = ((cfgr_reg & RISAF_REGx_zCFGR_SRCID) >> RISAF_REGx_zCFGR_SRCID_Pos);
 4647              		.loc 1 923 3 is_stmt 1 view .LVU1154
 4648              	.LVL200:
 924:../STM32Cube_FW_N6/Drivers/STM32N6xx_HAL_Driver/Src/stm32n6xx_hal_rif.c ****   pConfig->CID = (1UL << cid);
 4649              		.loc 1 924 3 view .LVU1155
 4650              		.loc 1 924 23 is_stmt 0 view .LVU1156
 4651 00f4 0122     		movs	r2, #1
 923:../STM32Cube_FW_N6/Drivers/STM32N6xx_HAL_Driver/Src/stm32n6xx_hal_rif.c ****   cid = ((cfgr_reg & RISAF_REGx_zCFGR_SRCID) >> RISAF_REGx_zCFGR_SRCID_Pos);
 4652              		.loc 1 923 7 view .LVU1157
 4653 00f6 C3F30211 		ubfx	r1, r3, #4, #3
 4654              		.loc 1 924 23 view .LVU1158
 4655 00fa 8A40     		lsls	r2, r2, r1
 4656              		.loc 1 924 16 view .LVU1159
 4657 00fc 7260     		str	r2, [r6, #4]
 925:../STM32Cube_FW_N6/Drivers/STM32N6xx_HAL_Driver/Src/stm32n6xx_hal_rif.c ****   pConfig->SecPriv = ((cfgr_reg & (RISAF_REGx_zCFGR_PRIV | RISAF_REGx_zCFGR_SEC)) >> RISAF_REGx_zCF
 4658              		.loc 1 925 3 is_stmt 1 view .LVU1160
 4659              		.loc 1 925 83 is_stmt 0 view .LVU1161
 4660 00fe C3F30122 		ubfx	r2, r3, #8, #2
 4661              		.loc 1 925 20 view .LVU1162
 4662 0102 B260     		str	r2, [r6, #8]
 926:../STM32Cube_FW_N6/Drivers/STM32N6xx_HAL_Driver/Src/stm32n6xx_hal_rif.c ****   pConfig->ReadWrite = (cfgr_reg & (RISAF_REGx_zCFGR_WREN | RISAF_REGx_zCFGR_RDEN));
 4663              		.loc 1 926 3 is_stmt 1 view .LVU1163
 4664              		.loc 1 926 34 is_stmt 0 view .LVU1164
 4665 0104 03F44052 		and	r2, r3, #12288
 927:../STM32Cube_FW_N6/Drivers/STM32N6xx_HAL_Driver/Src/stm32n6xx_hal_rif.c ****   pConfig->Lock = ((cfgr_reg & RISAF_REGx_zCFGR_RLOCK) >> RISAF_REGx_zCFGR_RLOCK_Pos);
 4666              		.loc 1 927 56 view .LVU1165
 4667 0108 C3F34003 		ubfx	r3, r3, #1, #1
 4668              	.LVL201:
 926:../STM32Cube_FW_N6/Drivers/STM32N6xx_HAL_Driver/Src/stm32n6xx_hal_rif.c ****   pConfig->ReadWrite = (cfgr_reg & (RISAF_REGx_zCFGR_WREN | RISAF_REGx_zCFGR_RDEN));
ARM GAS  /tmp/ccHKmbxS.s 			page 114


 4669              		.loc 1 926 22 view .LVU1166
 4670 010c F260     		str	r2, [r6, #12]
 4671              		.loc 1 927 3 is_stmt 1 view .LVU1167
 4672              		.loc 1 927 17 is_stmt 0 view .LVU1168
 4673 010e 3361     		str	r3, [r6, #16]
 928:../STM32Cube_FW_N6/Drivers/STM32N6xx_HAL_Driver/Src/stm32n6xx_hal_rif.c **** }
 4674              		.loc 1 928 1 view .LVU1169
 4675 0110 F8BD     		pop	{r3, r4, r5, r6, r7, pc}
 4676              	.LVL202:
 4677              	.L815:
 905:../STM32Cube_FW_N6/Drivers/STM32N6xx_HAL_Driver/Src/stm32n6xx_hal_rif.c ****   assert_param(IS_RISAF_MAX_REGION(RISAFx, Region));
 4678              		.loc 1 905 3 is_stmt 1 view .LVU1170
 4679 0112 0E2C     		cmp	r4, #14
 4680 0114 CED9     		bls	.L835
 4681              	.L834:
 905:../STM32Cube_FW_N6/Drivers/STM32N6xx_HAL_Driver/Src/stm32n6xx_hal_rif.c ****   assert_param(IS_RISAF_MAX_REGION(RISAFx, Region));
 4682              		.loc 1 905 3 is_stmt 0 discriminator 1 view .LVU1171
 4683 0116 40F28931 		movw	r1, #905
 4684 011a 0848     		ldr	r0, .L860
 4685 011c FFF7FEFF 		bl	assert_failed
 4686              	.LVL203:
 906:../STM32Cube_FW_N6/Drivers/STM32N6xx_HAL_Driver/Src/stm32n6xx_hal_rif.c ****   assert_param(IS_RISAF_SUBREGION(SubRegion));
 4687              		.loc 1 906 3 is_stmt 1 view .LVU1172
 4688              	.L827:
 906:../STM32Cube_FW_N6/Drivers/STM32N6xx_HAL_Driver/Src/stm32n6xx_hal_rif.c ****   assert_param(IS_RISAF_SUBREGION(SubRegion));
 4689              		.loc 1 906 3 is_stmt 0 discriminator 65 view .LVU1173
 4690 0120 40F28A31 		movw	r1, #906
 4691 0124 0548     		ldr	r0, .L860
 4692 0126 FFF7FEFF 		bl	assert_failed
 4693              	.LVL204:
 4694 012a C9E7     		b	.L833
 4695              	.L823:
 905:../STM32Cube_FW_N6/Drivers/STM32N6xx_HAL_Driver/Src/stm32n6xx_hal_rif.c ****   assert_param(IS_RISAF_MAX_REGION(RISAFx, Region));
 4696              		.loc 1 905 3 is_stmt 1 view .LVU1174
 4697 012c 0E2C     		cmp	r4, #14
 4698 012e F2D8     		bhi	.L834
 906:../STM32Cube_FW_N6/Drivers/STM32N6xx_HAL_Driver/Src/stm32n6xx_hal_rif.c ****   assert_param(IS_RISAF_SUBREGION(SubRegion));
 4699              		.loc 1 906 3 is_stmt 0 discriminator 40 view .LVU1175
 4700 0130 012C     		cmp	r4, #1
 4701 0132 C0E7     		b	.L857
 4702              	.L812:
 905:../STM32Cube_FW_N6/Drivers/STM32N6xx_HAL_Driver/Src/stm32n6xx_hal_rif.c ****   assert_param(IS_RISAF_MAX_REGION(RISAFx, Region));
 4703              		.loc 1 905 3 is_stmt 1 view .LVU1176
 4704 0134 0E2C     		cmp	r4, #14
 4705 0136 EED8     		bhi	.L834
 906:../STM32Cube_FW_N6/Drivers/STM32N6xx_HAL_Driver/Src/stm32n6xx_hal_rif.c ****   assert_param(IS_RISAF_SUBREGION(SubRegion));
 4706              		.loc 1 906 3 is_stmt 0 discriminator 25 view .LVU1177
 4707 0138 062C     		cmp	r4, #6
 4708 013a BCE7     		b	.L857
 4709              	.L861:
 4710              		.align	2
 4711              	.L860:
 4712 013c 00000000 		.word	.LC0
 4713 0140 00600254 		.word	1409441792
 4714              		.cfi_endproc
 4715              	.LFE900:
 4717              		.section	.text.HAL_RIF_RISAF_GetIllegalAccess,"ax",%progbits
ARM GAS  /tmp/ccHKmbxS.s 			page 115


 4718              		.align	1
 4719              		.global	HAL_RIF_RISAF_GetIllegalAccess
 4720              		.syntax unified
 4721              		.thumb
 4722              		.thumb_func
 4724              	HAL_RIF_RISAF_GetIllegalAccess:
 4725              	.LVL205:
 4726              	.LFB901:
 929:../STM32Cube_FW_N6/Drivers/STM32N6xx_HAL_Driver/Src/stm32n6xx_hal_rif.c **** 
 930:../STM32Cube_FW_N6/Drivers/STM32N6xx_HAL_Driver/Src/stm32n6xx_hal_rif.c **** #if defined(CPU_AS_TRUSTED_DOMAIN)
 931:../STM32Cube_FW_N6/Drivers/STM32N6xx_HAL_Driver/Src/stm32n6xx_hal_rif.c **** /**
 932:../STM32Cube_FW_N6/Drivers/STM32N6xx_HAL_Driver/Src/stm32n6xx_hal_rif.c ****   * @brief  Get the error detected by the RISAF control block,
 933:../STM32Cube_FW_N6/Drivers/STM32N6xx_HAL_Driver/Src/stm32n6xx_hal_rif.c ****   *         the illegal access data and clear related flags.
 934:../STM32Cube_FW_N6/Drivers/STM32N6xx_HAL_Driver/Src/stm32n6xx_hal_rif.c ****   *         Error information can be illegal access or control access type. In case of an illegal a
 935:../STM32Cube_FW_N6/Drivers/STM32N6xx_HAL_Driver/Src/stm32n6xx_hal_rif.c ****   *         error information is:
 936:../STM32Cube_FW_N6/Drivers/STM32N6xx_HAL_Driver/Src/stm32n6xx_hal_rif.c ****   *           - responsible CID;
 937:../STM32Cube_FW_N6/Drivers/STM32N6xx_HAL_Driver/Src/stm32n6xx_hal_rif.c ****   *           - security access type;
 938:../STM32Cube_FW_N6/Drivers/STM32N6xx_HAL_Driver/Src/stm32n6xx_hal_rif.c ****   *           - privilege access type;
 939:../STM32Cube_FW_N6/Drivers/STM32N6xx_HAL_Driver/Src/stm32n6xx_hal_rif.c ****   *           - read (fetch) or write access type;
 940:../STM32Cube_FW_N6/Drivers/STM32N6xx_HAL_Driver/Src/stm32n6xx_hal_rif.c ****   *           - targeted address.
 941:../STM32Cube_FW_N6/Drivers/STM32N6xx_HAL_Driver/Src/stm32n6xx_hal_rif.c ****   * @note   This API is protected by the Trusted Domain compilation directive.
 942:../STM32Cube_FW_N6/Drivers/STM32N6xx_HAL_Driver/Src/stm32n6xx_hal_rif.c ****   * @param  RISAFx specifies the RISAF instance.
 943:../STM32Cube_FW_N6/Drivers/STM32N6xx_HAL_Driver/Src/stm32n6xx_hal_rif.c ****   *         This parameter is one of the RISAF instances defined in the CMSIS.
 944:../STM32Cube_FW_N6/Drivers/STM32N6xx_HAL_Driver/Src/stm32n6xx_hal_rif.c ****   * @param  IllegalAccess Pointer on illegal access structure
 945:../STM32Cube_FW_N6/Drivers/STM32N6xx_HAL_Driver/Src/stm32n6xx_hal_rif.c ****   * @retval None
 946:../STM32Cube_FW_N6/Drivers/STM32N6xx_HAL_Driver/Src/stm32n6xx_hal_rif.c ****   */
 947:../STM32Cube_FW_N6/Drivers/STM32N6xx_HAL_Driver/Src/stm32n6xx_hal_rif.c **** void HAL_RIF_RISAF_GetIllegalAccess(RISAF_TypeDef *RISAFx, RISAF_IllegalAccess_t *IllegalAccess)
 948:../STM32Cube_FW_N6/Drivers/STM32N6xx_HAL_Driver/Src/stm32n6xx_hal_rif.c **** {
 4727              		.loc 1 948 1 is_stmt 1 view -0
 4728              		.cfi_startproc
 4729              		@ args = 0, pretend = 0, frame = 0
 4730              		@ frame_needed = 0, uses_anonymous_args = 0
 949:../STM32Cube_FW_N6/Drivers/STM32N6xx_HAL_Driver/Src/stm32n6xx_hal_rif.c ****   uint32_t cid;
 4731              		.loc 1 949 3 view .LVU1179
 950:../STM32Cube_FW_N6/Drivers/STM32N6xx_HAL_Driver/Src/stm32n6xx_hal_rif.c ****   uint32_t secpriv;
 4732              		.loc 1 950 3 view .LVU1180
 951:../STM32Cube_FW_N6/Drivers/STM32N6xx_HAL_Driver/Src/stm32n6xx_hal_rif.c **** 
 952:../STM32Cube_FW_N6/Drivers/STM32N6xx_HAL_Driver/Src/stm32n6xx_hal_rif.c ****   /* Check the parameters */
 953:../STM32Cube_FW_N6/Drivers/STM32N6xx_HAL_Driver/Src/stm32n6xx_hal_rif.c ****   assert_param(IllegalAccess != (void *)NULL);
 4733              		.loc 1 953 3 view .LVU1181
 948:../STM32Cube_FW_N6/Drivers/STM32N6xx_HAL_Driver/Src/stm32n6xx_hal_rif.c ****   uint32_t cid;
 4734              		.loc 1 948 1 is_stmt 0 view .LVU1182
 4735 0000 38B5     		push	{r3, r4, r5, lr}
 4736              		.cfi_def_cfa_offset 16
 4737              		.cfi_offset 3, -16
 4738              		.cfi_offset 4, -12
 4739              		.cfi_offset 5, -8
 4740              		.cfi_offset 14, -4
 948:../STM32Cube_FW_N6/Drivers/STM32N6xx_HAL_Driver/Src/stm32n6xx_hal_rif.c ****   uint32_t cid;
 4741              		.loc 1 948 1 view .LVU1183
 4742 0002 0446     		mov	r4, r0
 4743              		.loc 1 953 3 view .LVU1184
 4744 0004 0D46     		mov	r5, r1
 4745 0006 21B9     		cbnz	r1, .L863
 4746              		.loc 1 953 3 discriminator 1 view .LVU1185
 4747 0008 40F2B931 		movw	r1, #953
 4748              	.LVL206:
ARM GAS  /tmp/ccHKmbxS.s 			page 116


 4749              		.loc 1 953 3 discriminator 1 view .LVU1186
 4750 000c 3648     		ldr	r0, .L873
 4751              	.LVL207:
 4752              		.loc 1 953 3 discriminator 1 view .LVU1187
 4753 000e FFF7FEFF 		bl	assert_failed
 4754              	.LVL208:
 4755              	.L863:
 954:../STM32Cube_FW_N6/Drivers/STM32N6xx_HAL_Driver/Src/stm32n6xx_hal_rif.c ****   assert_param(IS_RISAF_INSTANCE(RISAFx));
 4756              		.loc 1 954 3 is_stmt 1 view .LVU1188
 4757 0012 364B     		ldr	r3, .L873+4
 4758 0014 9C42     		cmp	r4, r3
 4759 0016 44D0     		beq	.L864
 4760              		.loc 1 954 3 is_stmt 0 discriminator 1 view .LVU1189
 4761 0018 03F58053 		add	r3, r3, #4096
 4762 001c 9C42     		cmp	r4, r3
 4763 001e 40D0     		beq	.L864
 4764              		.loc 1 954 3 discriminator 2 view .LVU1190
 4765 0020 03F58053 		add	r3, r3, #4096
 4766 0024 9C42     		cmp	r4, r3
 4767 0026 3CD0     		beq	.L864
 4768              		.loc 1 954 3 discriminator 3 view .LVU1191
 4769 0028 03F58053 		add	r3, r3, #4096
 4770 002c 9C42     		cmp	r4, r3
 4771 002e 38D0     		beq	.L864
 4772              		.loc 1 954 3 discriminator 4 view .LVU1192
 4773 0030 03F58053 		add	r3, r3, #4096
 4774 0034 9C42     		cmp	r4, r3
 4775 0036 34D0     		beq	.L864
 4776              		.loc 1 954 3 discriminator 5 view .LVU1193
 4777 0038 03F58053 		add	r3, r3, #4096
 4778 003c 9C42     		cmp	r4, r3
 4779 003e 30D0     		beq	.L864
 4780              		.loc 1 954 3 discriminator 6 view .LVU1194
 4781 0040 03F58053 		add	r3, r3, #4096
 4782 0044 9C42     		cmp	r4, r3
 4783 0046 2CD0     		beq	.L864
 4784              		.loc 1 954 3 discriminator 7 view .LVU1195
 4785 0048 03F58053 		add	r3, r3, #4096
 4786 004c 9C42     		cmp	r4, r3
 4787 004e 28D0     		beq	.L864
 4788              		.loc 1 954 3 discriminator 8 view .LVU1196
 4789 0050 03F58053 		add	r3, r3, #4096
 4790 0054 9C42     		cmp	r4, r3
 4791 0056 24D0     		beq	.L864
 4792              		.loc 1 954 3 discriminator 9 view .LVU1197
 4793 0058 03F50053 		add	r3, r3, #8192
 4794 005c 9C42     		cmp	r4, r3
 4795 005e 20D0     		beq	.L864
 4796              		.loc 1 954 3 discriminator 10 view .LVU1198
 4797 0060 03F58053 		add	r3, r3, #4096
 4798 0064 9C42     		cmp	r4, r3
 4799 0066 1CD0     		beq	.L864
 4800              		.loc 1 954 3 discriminator 11 view .LVU1199
 4801 0068 03F58053 		add	r3, r3, #4096
 4802 006c 9C42     		cmp	r4, r3
 4803 006e 18D0     		beq	.L864
 4804              		.loc 1 954 3 discriminator 12 view .LVU1200
ARM GAS  /tmp/ccHKmbxS.s 			page 117


 4805 0070 03F58053 		add	r3, r3, #4096
 4806 0074 9C42     		cmp	r4, r3
 4807 0076 14D0     		beq	.L864
 4808              		.loc 1 954 3 discriminator 13 view .LVU1201
 4809 0078 03F58053 		add	r3, r3, #4096
 4810 007c 9C42     		cmp	r4, r3
 4811 007e 10D0     		beq	.L864
 4812              		.loc 1 954 3 discriminator 14 view .LVU1202
 4813 0080 03F58053 		add	r3, r3, #4096
 4814 0084 9C42     		cmp	r4, r3
 4815 0086 0CD0     		beq	.L864
 4816              		.loc 1 954 3 discriminator 15 view .LVU1203
 4817 0088 03F58053 		add	r3, r3, #4096
 4818 008c 9C42     		cmp	r4, r3
 4819 008e 08D0     		beq	.L864
 4820              		.loc 1 954 3 discriminator 16 view .LVU1204
 4821 0090 03F58053 		add	r3, r3, #4096
 4822 0094 9C42     		cmp	r4, r3
 4823 0096 04D0     		beq	.L864
 4824              		.loc 1 954 3 discriminator 17 view .LVU1205
 4825 0098 40F2BA31 		movw	r1, #954
 4826 009c 1248     		ldr	r0, .L873
 4827 009e FFF7FEFF 		bl	assert_failed
 4828              	.LVL209:
 4829              	.L864:
 955:../STM32Cube_FW_N6/Drivers/STM32N6xx_HAL_Driver/Src/stm32n6xx_hal_rif.c **** 
 956:../STM32Cube_FW_N6/Drivers/STM32N6xx_HAL_Driver/Src/stm32n6xx_hal_rif.c ****   /* Get illegal access type */
 957:../STM32Cube_FW_N6/Drivers/STM32N6xx_HAL_Driver/Src/stm32n6xx_hal_rif.c ****   IllegalAccess->ErrorType = (RISAFx->IASR & (RISAF_IASR_IAEF | RISAF_IASR_CAEF));
 4830              		.loc 1 957 3 is_stmt 1 view .LVU1206
 4831              		.loc 1 957 37 is_stmt 0 view .LVU1207
 4832 00a2 A268     		ldr	r2, [r4, #8]
 4833              		.loc 1 957 44 view .LVU1208
 4834 00a4 02F00303 		and	r3, r2, #3
 4835              		.loc 1 957 28 view .LVU1209
 4836 00a8 2B60     		str	r3, [r5]
 958:../STM32Cube_FW_N6/Drivers/STM32N6xx_HAL_Driver/Src/stm32n6xx_hal_rif.c **** 
 959:../STM32Cube_FW_N6/Drivers/STM32N6xx_HAL_Driver/Src/stm32n6xx_hal_rif.c ****   if (IllegalAccess->ErrorType != RISAF_ILLEGAL_ACCESS_NONE)
 4837              		.loc 1 959 3 is_stmt 1 view .LVU1210
 4838              		.loc 1 959 6 is_stmt 0 view .LVU1211
 4839 00aa DBB1     		cbz	r3, .L862
 960:../STM32Cube_FW_N6/Drivers/STM32N6xx_HAL_Driver/Src/stm32n6xx_hal_rif.c ****   {
 961:../STM32Cube_FW_N6/Drivers/STM32N6xx_HAL_Driver/Src/stm32n6xx_hal_rif.c ****     /* Get illegal access data */
 962:../STM32Cube_FW_N6/Drivers/STM32N6xx_HAL_Driver/Src/stm32n6xx_hal_rif.c ****     cid = (RISAFx->IAR->IAESR & RISAF_IAESR_IACID);
 4840              		.loc 1 962 5 is_stmt 1 view .LVU1212
 963:../STM32Cube_FW_N6/Drivers/STM32N6xx_HAL_Driver/Src/stm32n6xx_hal_rif.c ****     IllegalAccess->Data.CID = (1UL << cid);
 4841              		.loc 1 963 36 is_stmt 0 view .LVU1213
 4842 00ac 0123     		movs	r3, #1
 962:../STM32Cube_FW_N6/Drivers/STM32N6xx_HAL_Driver/Src/stm32n6xx_hal_rif.c ****     IllegalAccess->Data.CID = (1UL << cid);
 4843              		.loc 1 962 23 view .LVU1214
 4844 00ae 216A     		ldr	r1, [r4, #32]
 4845              	.LVL210:
 4846              		.loc 1 963 5 is_stmt 1 view .LVU1215
 964:../STM32Cube_FW_N6/Drivers/STM32N6xx_HAL_Driver/Src/stm32n6xx_hal_rif.c ****     secpriv = ((RISAFx->IAR->IAESR & (RISAF_IAESR_IASEC | RISAF_IAESR_IAPRIV)) >> RISAF_IAESR_IAPRI
 965:../STM32Cube_FW_N6/Drivers/STM32N6xx_HAL_Driver/Src/stm32n6xx_hal_rif.c ****     IllegalAccess->Data.SecPriv = ((secpriv >> 1UL) | (secpriv << 1UL)) & 3UL;
 966:../STM32Cube_FW_N6/Drivers/STM32N6xx_HAL_Driver/Src/stm32n6xx_hal_rif.c ****     IllegalAccess->Data.AccessType = ((RISAFx->IAR->IAESR & RISAF_IAESR_IANRW) >> RISAF_IAESR_IANRW
 967:../STM32Cube_FW_N6/Drivers/STM32N6xx_HAL_Driver/Src/stm32n6xx_hal_rif.c **** 
 968:../STM32Cube_FW_N6/Drivers/STM32N6xx_HAL_Driver/Src/stm32n6xx_hal_rif.c ****     if ((IllegalAccess->ErrorType & RISAF_ILLEGAL_ACCESS) != 0U)
ARM GAS  /tmp/ccHKmbxS.s 			page 118


 4847              		.loc 1 968 8 is_stmt 0 view .LVU1216
 4848 00b0 12F00202 		ands	r2, r2, #2
 962:../STM32Cube_FW_N6/Drivers/STM32N6xx_HAL_Driver/Src/stm32n6xx_hal_rif.c ****     IllegalAccess->Data.CID = (1UL << cid);
 4849              		.loc 1 962 9 view .LVU1217
 4850 00b4 01F00701 		and	r1, r1, #7
 4851              	.LVL211:
 963:../STM32Cube_FW_N6/Drivers/STM32N6xx_HAL_Driver/Src/stm32n6xx_hal_rif.c ****     secpriv = ((RISAFx->IAR->IAESR & (RISAF_IAESR_IASEC | RISAF_IAESR_IAPRIV)) >> RISAF_IAESR_IAPRI
 4852              		.loc 1 963 36 view .LVU1218
 4853 00b8 03FA01F3 		lsl	r3, r3, r1
 963:../STM32Cube_FW_N6/Drivers/STM32N6xx_HAL_Driver/Src/stm32n6xx_hal_rif.c ****     secpriv = ((RISAFx->IAR->IAESR & (RISAF_IAESR_IASEC | RISAF_IAESR_IAPRIV)) >> RISAF_IAESR_IAPRI
 4854              		.loc 1 963 29 view .LVU1219
 4855 00bc 6B60     		str	r3, [r5, #4]
 964:../STM32Cube_FW_N6/Drivers/STM32N6xx_HAL_Driver/Src/stm32n6xx_hal_rif.c ****     secpriv = ((RISAFx->IAR->IAESR & (RISAF_IAESR_IASEC | RISAF_IAESR_IAPRIV)) >> RISAF_IAESR_IAPRI
 4856              		.loc 1 964 5 is_stmt 1 view .LVU1220
 964:../STM32Cube_FW_N6/Drivers/STM32N6xx_HAL_Driver/Src/stm32n6xx_hal_rif.c ****     secpriv = ((RISAFx->IAR->IAESR & (RISAF_IAESR_IASEC | RISAF_IAESR_IAPRIV)) >> RISAF_IAESR_IAPRI
 4857              		.loc 1 964 28 is_stmt 0 view .LVU1221
 4858 00be 236A     		ldr	r3, [r4, #32]
 964:../STM32Cube_FW_N6/Drivers/STM32N6xx_HAL_Driver/Src/stm32n6xx_hal_rif.c ****     secpriv = ((RISAFx->IAR->IAESR & (RISAF_IAESR_IASEC | RISAF_IAESR_IAPRIV)) >> RISAF_IAESR_IAPRI
 4859              		.loc 1 964 13 view .LVU1222
 4860 00c0 C3F30111 		ubfx	r1, r3, #4, #2
 4861              	.LVL212:
 965:../STM32Cube_FW_N6/Drivers/STM32N6xx_HAL_Driver/Src/stm32n6xx_hal_rif.c ****     IllegalAccess->Data.AccessType = ((RISAFx->IAR->IAESR & RISAF_IAESR_IANRW) >> RISAF_IAESR_IANRW
 4862              		.loc 1 965 5 is_stmt 1 view .LVU1223
 965:../STM32Cube_FW_N6/Drivers/STM32N6xx_HAL_Driver/Src/stm32n6xx_hal_rif.c ****     IllegalAccess->Data.AccessType = ((RISAFx->IAR->IAESR & RISAF_IAESR_IANRW) >> RISAF_IAESR_IANRW
 4863              		.loc 1 965 45 is_stmt 0 view .LVU1224
 4864 00c4 C3F34013 		ubfx	r3, r3, #5, #1
 965:../STM32Cube_FW_N6/Drivers/STM32N6xx_HAL_Driver/Src/stm32n6xx_hal_rif.c ****     IllegalAccess->Data.AccessType = ((RISAFx->IAR->IAESR & RISAF_IAESR_IANRW) >> RISAF_IAESR_IANRW
 4865              		.loc 1 965 53 view .LVU1225
 4866 00c8 43EA4103 		orr	r3, r3, r1, lsl #1
 965:../STM32Cube_FW_N6/Drivers/STM32N6xx_HAL_Driver/Src/stm32n6xx_hal_rif.c ****     IllegalAccess->Data.AccessType = ((RISAFx->IAR->IAESR & RISAF_IAESR_IANRW) >> RISAF_IAESR_IANRW
 4867              		.loc 1 965 73 view .LVU1226
 4868 00cc 03F00303 		and	r3, r3, #3
 965:../STM32Cube_FW_N6/Drivers/STM32N6xx_HAL_Driver/Src/stm32n6xx_hal_rif.c ****     IllegalAccess->Data.AccessType = ((RISAFx->IAR->IAESR & RISAF_IAESR_IANRW) >> RISAF_IAESR_IANRW
 4869              		.loc 1 965 33 view .LVU1227
 4870 00d0 AB60     		str	r3, [r5, #8]
 966:../STM32Cube_FW_N6/Drivers/STM32N6xx_HAL_Driver/Src/stm32n6xx_hal_rif.c **** 
 4871              		.loc 1 966 5 is_stmt 1 view .LVU1228
 966:../STM32Cube_FW_N6/Drivers/STM32N6xx_HAL_Driver/Src/stm32n6xx_hal_rif.c **** 
 4872              		.loc 1 966 51 is_stmt 0 view .LVU1229
 4873 00d2 236A     		ldr	r3, [r4, #32]
 969:../STM32Cube_FW_N6/Drivers/STM32N6xx_HAL_Driver/Src/stm32n6xx_hal_rif.c ****     {
 970:../STM32Cube_FW_N6/Drivers/STM32N6xx_HAL_Driver/Src/stm32n6xx_hal_rif.c ****       IllegalAccess->Data.Address = RISAFx->IAR->IADDR;
 4874              		.loc 1 970 48 view .LVU1230
 4875 00d4 18BF     		it	ne
 4876 00d6 626A     		ldrne	r2, [r4, #36]
 966:../STM32Cube_FW_N6/Drivers/STM32N6xx_HAL_Driver/Src/stm32n6xx_hal_rif.c **** 
 4877              		.loc 1 966 80 view .LVU1231
 4878 00d8 C3F3C013 		ubfx	r3, r3, #7, #1
 966:../STM32Cube_FW_N6/Drivers/STM32N6xx_HAL_Driver/Src/stm32n6xx_hal_rif.c **** 
 4879              		.loc 1 966 36 view .LVU1232
 4880 00dc EB60     		str	r3, [r5, #12]
 968:../STM32Cube_FW_N6/Drivers/STM32N6xx_HAL_Driver/Src/stm32n6xx_hal_rif.c ****     {
 4881              		.loc 1 968 5 is_stmt 1 view .LVU1233
 4882              		.loc 1 970 7 view .LVU1234
 971:../STM32Cube_FW_N6/Drivers/STM32N6xx_HAL_Driver/Src/stm32n6xx_hal_rif.c ****     }
 972:../STM32Cube_FW_N6/Drivers/STM32N6xx_HAL_Driver/Src/stm32n6xx_hal_rif.c ****     else
 973:../STM32Cube_FW_N6/Drivers/STM32N6xx_HAL_Driver/Src/stm32n6xx_hal_rif.c ****     {
ARM GAS  /tmp/ccHKmbxS.s 			page 119


 974:../STM32Cube_FW_N6/Drivers/STM32N6xx_HAL_Driver/Src/stm32n6xx_hal_rif.c ****       IllegalAccess->Data.Address = 0U;
 975:../STM32Cube_FW_N6/Drivers/STM32N6xx_HAL_Driver/Src/stm32n6xx_hal_rif.c ****     }
 976:../STM32Cube_FW_N6/Drivers/STM32N6xx_HAL_Driver/Src/stm32n6xx_hal_rif.c **** 
 977:../STM32Cube_FW_N6/Drivers/STM32N6xx_HAL_Driver/Src/stm32n6xx_hal_rif.c ****     /* Clear flags */
 978:../STM32Cube_FW_N6/Drivers/STM32N6xx_HAL_Driver/Src/stm32n6xx_hal_rif.c ****     RISAFx->IACR = (RISAF_IACR_IAEF | RISAF_IACR_CAEF);
 4883              		.loc 1 978 18 is_stmt 0 view .LVU1235
 4884 00de 0323     		movs	r3, #3
 4885 00e0 2A61     		str	r2, [r5, #16]
 4886              		.loc 1 978 5 is_stmt 1 view .LVU1236
 4887              		.loc 1 978 18 is_stmt 0 view .LVU1237
 4888 00e2 E360     		str	r3, [r4, #12]
 4889              	.LVL213:
 4890              	.L862:
 979:../STM32Cube_FW_N6/Drivers/STM32N6xx_HAL_Driver/Src/stm32n6xx_hal_rif.c ****   }
 980:../STM32Cube_FW_N6/Drivers/STM32N6xx_HAL_Driver/Src/stm32n6xx_hal_rif.c **** }
 4891              		.loc 1 980 1 view .LVU1238
 4892 00e4 38BD     		pop	{r3, r4, r5, pc}
 4893              	.LVL214:
 4894              	.L874:
 4895              		.loc 1 980 1 view .LVU1239
 4896 00e6 00BF     		.align	2
 4897              	.L873:
 4898 00e8 00000000 		.word	.LC0
 4899 00ec 00600254 		.word	1409441792
 4900              		.cfi_endproc
 4901              	.LFE901:
 4903              		.section	.text.HAL_RIF_IAC_EnableIT,"ax",%progbits
 4904              		.align	1
 4905              		.global	HAL_RIF_IAC_EnableIT
 4906              		.syntax unified
 4907              		.thumb
 4908              		.thumb_func
 4910              	HAL_RIF_IAC_EnableIT:
 4911              	.LVL215:
 4912              	.LFB902:
 981:../STM32Cube_FW_N6/Drivers/STM32N6xx_HAL_Driver/Src/stm32n6xx_hal_rif.c **** #endif /* defined(CPU_AS_TRUSTED_DOMAIN) */
 982:../STM32Cube_FW_N6/Drivers/STM32N6xx_HAL_Driver/Src/stm32n6xx_hal_rif.c **** /**
 983:../STM32Cube_FW_N6/Drivers/STM32N6xx_HAL_Driver/Src/stm32n6xx_hal_rif.c ****   * @}
 984:../STM32Cube_FW_N6/Drivers/STM32N6xx_HAL_Driver/Src/stm32n6xx_hal_rif.c ****   */
 985:../STM32Cube_FW_N6/Drivers/STM32N6xx_HAL_Driver/Src/stm32n6xx_hal_rif.c **** 
 986:../STM32Cube_FW_N6/Drivers/STM32N6xx_HAL_Driver/Src/stm32n6xx_hal_rif.c **** /** @defgroup RIF_Exported_Functions_Group6  IAC Configuration functions
 987:../STM32Cube_FW_N6/Drivers/STM32N6xx_HAL_Driver/Src/stm32n6xx_hal_rif.c ****   * @brief    IAC Configuration functions
 988:../STM32Cube_FW_N6/Drivers/STM32N6xx_HAL_Driver/Src/stm32n6xx_hal_rif.c ****   *
 989:../STM32Cube_FW_N6/Drivers/STM32N6xx_HAL_Driver/Src/stm32n6xx_hal_rif.c **** @verbatim
 990:../STM32Cube_FW_N6/Drivers/STM32N6xx_HAL_Driver/Src/stm32n6xx_hal_rif.c ****   ==============================================================================
 991:../STM32Cube_FW_N6/Drivers/STM32N6xx_HAL_Driver/Src/stm32n6xx_hal_rif.c ****             ##### IAC Configuration functions #####
 992:../STM32Cube_FW_N6/Drivers/STM32N6xx_HAL_Driver/Src/stm32n6xx_hal_rif.c ****   ==============================================================================
 993:../STM32Cube_FW_N6/Drivers/STM32N6xx_HAL_Driver/Src/stm32n6xx_hal_rif.c ****   [..]
 994:../STM32Cube_FW_N6/Drivers/STM32N6xx_HAL_Driver/Src/stm32n6xx_hal_rif.c ****     This section provides functions allowing to configure IAC
 995:../STM32Cube_FW_N6/Drivers/STM32N6xx_HAL_Driver/Src/stm32n6xx_hal_rif.c ****     IAC is Illegal Access Controller
 996:../STM32Cube_FW_N6/Drivers/STM32N6xx_HAL_Driver/Src/stm32n6xx_hal_rif.c **** @endverbatim
 997:../STM32Cube_FW_N6/Drivers/STM32N6xx_HAL_Driver/Src/stm32n6xx_hal_rif.c ****   * @{
 998:../STM32Cube_FW_N6/Drivers/STM32N6xx_HAL_Driver/Src/stm32n6xx_hal_rif.c ****   */
 999:../STM32Cube_FW_N6/Drivers/STM32N6xx_HAL_Driver/Src/stm32n6xx_hal_rif.c **** #if defined(CPU_AS_TRUSTED_DOMAIN) && defined(CPU_IN_SECURE_STATE)
1000:../STM32Cube_FW_N6/Drivers/STM32N6xx_HAL_Driver/Src/stm32n6xx_hal_rif.c **** /**
1001:../STM32Cube_FW_N6/Drivers/STM32N6xx_HAL_Driver/Src/stm32n6xx_hal_rif.c ****   * @brief  Enable interrupt generation on illegal access detection on peripheral or memory access.
1002:../STM32Cube_FW_N6/Drivers/STM32N6xx_HAL_Driver/Src/stm32n6xx_hal_rif.c ****   * @note   This API is protected by the Trusted Domain compilation directive.
ARM GAS  /tmp/ccHKmbxS.s 			page 120


1003:../STM32Cube_FW_N6/Drivers/STM32N6xx_HAL_Driver/Src/stm32n6xx_hal_rif.c ****   * @note   This API is protected by the TrustZone Enabled compilation directive.
1004:../STM32Cube_FW_N6/Drivers/STM32N6xx_HAL_Driver/Src/stm32n6xx_hal_rif.c ****   * @param  PeriphId specifies the index of the bus slave.
1005:../STM32Cube_FW_N6/Drivers/STM32N6xx_HAL_Driver/Src/stm32n6xx_hal_rif.c ****   *         This parameter can be one of @ref RIF_PERIPHERAL_INDEX
1006:../STM32Cube_FW_N6/Drivers/STM32N6xx_HAL_Driver/Src/stm32n6xx_hal_rif.c ****   *         bits[31:28] define the register index a peripheral belongs to, value from 0 to 5
1007:../STM32Cube_FW_N6/Drivers/STM32N6xx_HAL_Driver/Src/stm32n6xx_hal_rif.c ****   *         bits[4:0]   define the bit position within the register, value from 0 to 31
1008:../STM32Cube_FW_N6/Drivers/STM32N6xx_HAL_Driver/Src/stm32n6xx_hal_rif.c ****   * @retval None
1009:../STM32Cube_FW_N6/Drivers/STM32N6xx_HAL_Driver/Src/stm32n6xx_hal_rif.c ****   */
1010:../STM32Cube_FW_N6/Drivers/STM32N6xx_HAL_Driver/Src/stm32n6xx_hal_rif.c **** void HAL_RIF_IAC_EnableIT(uint32_t PeriphId)
1011:../STM32Cube_FW_N6/Drivers/STM32N6xx_HAL_Driver/Src/stm32n6xx_hal_rif.c **** {
 4913              		.loc 1 1011 1 is_stmt 1 view -0
 4914              		.cfi_startproc
 4915              		@ args = 0, pretend = 0, frame = 0
 4916              		@ frame_needed = 0, uses_anonymous_args = 0
1012:../STM32Cube_FW_N6/Drivers/STM32N6xx_HAL_Driver/Src/stm32n6xx_hal_rif.c ****   __IO uint32_t *p_interrupt_reg;
 4917              		.loc 1 1012 3 view .LVU1241
1013:../STM32Cube_FW_N6/Drivers/STM32N6xx_HAL_Driver/Src/stm32n6xx_hal_rif.c **** 
1014:../STM32Cube_FW_N6/Drivers/STM32N6xx_HAL_Driver/Src/stm32n6xx_hal_rif.c ****   /* Check parameters */
1015:../STM32Cube_FW_N6/Drivers/STM32N6xx_HAL_Driver/Src/stm32n6xx_hal_rif.c ****   assert_param(IS_RIF_RISC_PERIPH_INDEX(PeriphId) || IS_RIF_AWARE_PERIPH_INDEX(PeriphId));
 4918              		.loc 1 1015 3 view .LVU1242
 4919 0000 234B     		ldr	r3, .L889
1011:../STM32Cube_FW_N6/Drivers/STM32N6xx_HAL_Driver/Src/stm32n6xx_hal_rif.c ****   __IO uint32_t *p_interrupt_reg;
 4920              		.loc 1 1011 1 is_stmt 0 view .LVU1243
 4921 0002 10B5     		push	{r4, lr}
 4922              		.cfi_def_cfa_offset 8
 4923              		.cfi_offset 4, -8
 4924              		.cfi_offset 14, -4
 4925 0004 9842     		cmp	r0, r3
1011:../STM32Cube_FW_N6/Drivers/STM32N6xx_HAL_Driver/Src/stm32n6xx_hal_rif.c ****   __IO uint32_t *p_interrupt_reg;
 4926              		.loc 1 1011 1 view .LVU1244
 4927 0006 0446     		mov	r4, r0
 4928 0008 31D8     		bhi	.L876
 4929 000a B0F1005F 		cmp	r0, #536870912
 4930 000e 20D2     		bcs	.L877
 4931 0010 204B     		ldr	r3, .L889+4
 4932 0012 9842     		cmp	r0, r3
 4933 0014 26D8     		bhi	.L878
 4934 0016 C21F     		subs	r2, r0, #7
 4935 0018 223B     		subs	r3, r3, #34
 4936 001a 9A42     		cmp	r2, r3
 4937 001c 1DD9     		bls	.L884
 4938              	.LVL216:
 4939              	.L879:
1016:../STM32Cube_FW_N6/Drivers/STM32N6xx_HAL_Driver/Src/stm32n6xx_hal_rif.c **** 
1017:../STM32Cube_FW_N6/Drivers/STM32N6xx_HAL_Driver/Src/stm32n6xx_hal_rif.c ****   p_interrupt_reg = &(IAC->IER[PeriphId >> RIF_PERIPH_REG_SHIFT]);
 4940              		.loc 1 1017 3 is_stmt 1 view .LVU1245
1018:../STM32Cube_FW_N6/Drivers/STM32N6xx_HAL_Driver/Src/stm32n6xx_hal_rif.c ****   *p_interrupt_reg |= (1UL << (PeriphId & RIF_PERIPH_BIT_POSITION));
 4941              		.loc 1 1018 28 is_stmt 0 view .LVU1246
 4942 001e 0122     		movs	r2, #1
1017:../STM32Cube_FW_N6/Drivers/STM32N6xx_HAL_Driver/Src/stm32n6xx_hal_rif.c ****   *p_interrupt_reg |= (1UL << (PeriphId & RIF_PERIPH_BIT_POSITION));
 4943              		.loc 1 1017 41 view .LVU1247
 4944 0020 230F     		lsrs	r3, r4, #28
1017:../STM32Cube_FW_N6/Drivers/STM32N6xx_HAL_Driver/Src/stm32n6xx_hal_rif.c ****   *p_interrupt_reg |= (1UL << (PeriphId & RIF_PERIPH_BIT_POSITION));
 4945              		.loc 1 1017 21 view .LVU1248
 4946 0022 9B00     		lsls	r3, r3, #2
1017:../STM32Cube_FW_N6/Drivers/STM32N6xx_HAL_Driver/Src/stm32n6xx_hal_rif.c ****   *p_interrupt_reg |= (1UL << (PeriphId & RIF_PERIPH_BIT_POSITION));
 4947              		.loc 1 1017 19 view .LVU1249
 4948 0024 03F1A843 		add	r3, r3, #1409286144
ARM GAS  /tmp/ccHKmbxS.s 			page 121


 4949 0028 03F51433 		add	r3, r3, #151552
 4950              	.LVL217:
 4951              		.loc 1 1018 3 is_stmt 1 view .LVU1250
 4952 002c 1968     		ldr	r1, [r3]
 4953              		.loc 1 1018 41 is_stmt 0 view .LVU1251
 4954 002e 04F01F04 		and	r4, r4, #31
 4955              	.LVL218:
 4956              		.loc 1 1018 28 view .LVU1252
 4957 0032 A240     		lsls	r2, r2, r4
 4958              		.loc 1 1018 20 view .LVU1253
 4959 0034 0A43     		orrs	r2, r2, r1
 4960 0036 1A60     		str	r2, [r3]
1019:../STM32Cube_FW_N6/Drivers/STM32N6xx_HAL_Driver/Src/stm32n6xx_hal_rif.c **** 
1020:../STM32Cube_FW_N6/Drivers/STM32N6xx_HAL_Driver/Src/stm32n6xx_hal_rif.c **** }
 4961              		.loc 1 1020 1 view .LVU1254
 4962 0038 10BD     		pop	{r4, pc}
 4963              	.LVL219:
 4964              	.L882:
 4965              		.loc 1 1020 1 view .LVU1255
 4966 003a 174B     		ldr	r3, .L889+8
 4967 003c 04F14042 		add	r2, r4, #-1073741824
 4968              	.L888:
 4969              		.loc 1 1020 1 view .LVU1256
 4970 0040 D340     		lsrs	r3, r3, r2
 4971 0042 DB07     		lsls	r3, r3, #31
 4972 0044 EBD4     		bmi	.L879
 4973              	.L881:
1015:../STM32Cube_FW_N6/Drivers/STM32N6xx_HAL_Driver/Src/stm32n6xx_hal_rif.c **** 
 4974              		.loc 1 1015 3 discriminator 112 view .LVU1257
 4975 0046 40F2F731 		movw	r1, #1015
 4976 004a 1448     		ldr	r0, .L889+12
 4977              	.LVL220:
1015:../STM32Cube_FW_N6/Drivers/STM32N6xx_HAL_Driver/Src/stm32n6xx_hal_rif.c **** 
 4978              		.loc 1 1015 3 discriminator 112 view .LVU1258
 4979 004c FFF7FEFF 		bl	assert_failed
 4980              	.LVL221:
 4981 0050 E5E7     		b	.L879
 4982              	.LVL222:
 4983              	.L877:
1015:../STM32Cube_FW_N6/Drivers/STM32N6xx_HAL_Driver/Src/stm32n6xx_hal_rif.c **** 
 4984              		.loc 1 1015 3 discriminator 112 view .LVU1259
 4985 0052 134B     		ldr	r3, .L889+16
 4986 0054 00F16042 		add	r2, r0, #-536870912
 4987 0058 F2E7     		b	.L888
 4988              	.L884:
1015:../STM32Cube_FW_N6/Drivers/STM32N6xx_HAL_Driver/Src/stm32n6xx_hal_rif.c **** 
 4989              		.loc 1 1015 3 discriminator 112 view .LVU1260
 4990 005a A0F10803 		sub	r3, r0, #8
 4991 005e 172B     		cmp	r3, #23
 4992              	.L886:
1015:../STM32Cube_FW_N6/Drivers/STM32N6xx_HAL_Driver/Src/stm32n6xx_hal_rif.c **** 
 4993              		.loc 1 1015 3 discriminator 112 view .LVU1261
 4994 0060 DDD9     		bls	.L879
 4995 0062 F0E7     		b	.L881
 4996              	.L878:
 4997 0064 00F17043 		add	r3, r0, #-268435456
 4998 0068 1C3B     		subs	r3, r3, #28
ARM GAS  /tmp/ccHKmbxS.s 			page 122


 4999 006a 022B     		cmp	r3, #2
 5000 006c F8E7     		b	.L886
 5001              	.L876:
1015:../STM32Cube_FW_N6/Drivers/STM32N6xx_HAL_Driver/Src/stm32n6xx_hal_rif.c **** 
 5002              		.loc 1 1015 3 discriminator 112 view .LVU1262
 5003 006e 0D4B     		ldr	r3, .L889+20
 5004 0070 9842     		cmp	r0, r3
 5005 0072 E8D8     		bhi	.L881
 5006 0074 B0F1804F 		cmp	r0, #1073741824
 5007 0078 DFD2     		bcs	.L882
 5008 007a 0B4B     		ldr	r3, .L889+24
 5009 007c 9842     		cmp	r0, r3
 5010 007e 03D8     		bhi	.L883
 5011 0080 B0F1405F 		cmp	r0, #805306368
 5012 0084 CBD2     		bcs	.L879
 5013 0086 DEE7     		b	.L881
 5014              	.L883:
 5015 0088 084B     		ldr	r3, .L889+28
 5016 008a 9842     		cmp	r0, r3
 5017 008c C7D0     		beq	.L879
 5018 008e DAE7     		b	.L881
 5019              	.L890:
 5020              		.align	2
 5021              	.L889:
 5022 0090 1E000020 		.word	536870942
 5023 0094 1A000010 		.word	268435482
 5024 0098 EFFFEF7B 		.word	2079326191
 5025 009c 00000000 		.word	.LC0
 5026 00a0 3BF0DF77 		.word	2011164731
 5027 00a4 1E000040 		.word	1073741854
 5028 00a8 08000030 		.word	805306376
 5029 00ac 0A000030 		.word	805306378
 5030              		.cfi_endproc
 5031              	.LFE902:
 5033              		.section	.text.HAL_RIF_IAC_DisableIT,"ax",%progbits
 5034              		.align	1
 5035              		.global	HAL_RIF_IAC_DisableIT
 5036              		.syntax unified
 5037              		.thumb
 5038              		.thumb_func
 5040              	HAL_RIF_IAC_DisableIT:
 5041              	.LVL223:
 5042              	.LFB903:
1021:../STM32Cube_FW_N6/Drivers/STM32N6xx_HAL_Driver/Src/stm32n6xx_hal_rif.c **** 
1022:../STM32Cube_FW_N6/Drivers/STM32N6xx_HAL_Driver/Src/stm32n6xx_hal_rif.c **** /**
1023:../STM32Cube_FW_N6/Drivers/STM32N6xx_HAL_Driver/Src/stm32n6xx_hal_rif.c ****   * @brief  Disable interrupt generation on illegal access detection on peripheral or memory access
1024:../STM32Cube_FW_N6/Drivers/STM32N6xx_HAL_Driver/Src/stm32n6xx_hal_rif.c ****   * @note   This API is protected by the Trusted Domain compilation directive.
1025:../STM32Cube_FW_N6/Drivers/STM32N6xx_HAL_Driver/Src/stm32n6xx_hal_rif.c ****   * @param  PeriphId specifies the index of the bus slave.
1026:../STM32Cube_FW_N6/Drivers/STM32N6xx_HAL_Driver/Src/stm32n6xx_hal_rif.c ****   *         This parameter can be one of @ref RIF_PERIPHERAL_INDEX
1027:../STM32Cube_FW_N6/Drivers/STM32N6xx_HAL_Driver/Src/stm32n6xx_hal_rif.c ****   *         bits[31:28] define the register index a peripheral belongs to, value from 0 to 5
1028:../STM32Cube_FW_N6/Drivers/STM32N6xx_HAL_Driver/Src/stm32n6xx_hal_rif.c ****   *         bits[4:0]   define the bit position within the register, value from 0 to 31
1029:../STM32Cube_FW_N6/Drivers/STM32N6xx_HAL_Driver/Src/stm32n6xx_hal_rif.c ****   * @retval None
1030:../STM32Cube_FW_N6/Drivers/STM32N6xx_HAL_Driver/Src/stm32n6xx_hal_rif.c ****   */
1031:../STM32Cube_FW_N6/Drivers/STM32N6xx_HAL_Driver/Src/stm32n6xx_hal_rif.c **** void HAL_RIF_IAC_DisableIT(uint32_t PeriphId)
1032:../STM32Cube_FW_N6/Drivers/STM32N6xx_HAL_Driver/Src/stm32n6xx_hal_rif.c **** {
 5043              		.loc 1 1032 1 is_stmt 1 view -0
 5044              		.cfi_startproc
ARM GAS  /tmp/ccHKmbxS.s 			page 123


 5045              		@ args = 0, pretend = 0, frame = 0
 5046              		@ frame_needed = 0, uses_anonymous_args = 0
1033:../STM32Cube_FW_N6/Drivers/STM32N6xx_HAL_Driver/Src/stm32n6xx_hal_rif.c ****   __IO uint32_t *p_interrupt_reg;
 5047              		.loc 1 1033 3 view .LVU1264
1034:../STM32Cube_FW_N6/Drivers/STM32N6xx_HAL_Driver/Src/stm32n6xx_hal_rif.c **** 
1035:../STM32Cube_FW_N6/Drivers/STM32N6xx_HAL_Driver/Src/stm32n6xx_hal_rif.c ****   /* Check parameters */
1036:../STM32Cube_FW_N6/Drivers/STM32N6xx_HAL_Driver/Src/stm32n6xx_hal_rif.c ****   assert_param(IS_RIF_RISC_PERIPH_INDEX(PeriphId) || IS_RIF_AWARE_PERIPH_INDEX(PeriphId));
 5048              		.loc 1 1036 3 view .LVU1265
 5049 0000 244B     		ldr	r3, .L905
1032:../STM32Cube_FW_N6/Drivers/STM32N6xx_HAL_Driver/Src/stm32n6xx_hal_rif.c ****   __IO uint32_t *p_interrupt_reg;
 5050              		.loc 1 1032 1 is_stmt 0 view .LVU1266
 5051 0002 10B5     		push	{r4, lr}
 5052              		.cfi_def_cfa_offset 8
 5053              		.cfi_offset 4, -8
 5054              		.cfi_offset 14, -4
 5055 0004 9842     		cmp	r0, r3
1032:../STM32Cube_FW_N6/Drivers/STM32N6xx_HAL_Driver/Src/stm32n6xx_hal_rif.c ****   __IO uint32_t *p_interrupt_reg;
 5056              		.loc 1 1032 1 view .LVU1267
 5057 0006 0446     		mov	r4, r0
 5058 0008 32D8     		bhi	.L892
 5059 000a B0F1005F 		cmp	r0, #536870912
 5060 000e 21D2     		bcs	.L893
 5061 0010 214B     		ldr	r3, .L905+4
 5062 0012 9842     		cmp	r0, r3
 5063 0014 27D8     		bhi	.L894
 5064 0016 C21F     		subs	r2, r0, #7
 5065 0018 223B     		subs	r3, r3, #34
 5066 001a 9A42     		cmp	r2, r3
 5067 001c 1ED9     		bls	.L900
 5068              	.LVL224:
 5069              	.L895:
1037:../STM32Cube_FW_N6/Drivers/STM32N6xx_HAL_Driver/Src/stm32n6xx_hal_rif.c **** 
1038:../STM32Cube_FW_N6/Drivers/STM32N6xx_HAL_Driver/Src/stm32n6xx_hal_rif.c ****   p_interrupt_reg = &(IAC->IER[PeriphId >> RIF_PERIPH_REG_SHIFT]);
 5070              		.loc 1 1038 3 is_stmt 1 view .LVU1268
1039:../STM32Cube_FW_N6/Drivers/STM32N6xx_HAL_Driver/Src/stm32n6xx_hal_rif.c ****   *p_interrupt_reg &= (~(1UL << (PeriphId & RIF_PERIPH_BIT_POSITION)));
 5071              		.loc 1 1039 30 is_stmt 0 view .LVU1269
 5072 001e 0121     		movs	r1, #1
1038:../STM32Cube_FW_N6/Drivers/STM32N6xx_HAL_Driver/Src/stm32n6xx_hal_rif.c ****   *p_interrupt_reg &= (~(1UL << (PeriphId & RIF_PERIPH_BIT_POSITION)));
 5073              		.loc 1 1038 41 view .LVU1270
 5074 0020 230F     		lsrs	r3, r4, #28
1038:../STM32Cube_FW_N6/Drivers/STM32N6xx_HAL_Driver/Src/stm32n6xx_hal_rif.c ****   *p_interrupt_reg &= (~(1UL << (PeriphId & RIF_PERIPH_BIT_POSITION)));
 5075              		.loc 1 1038 21 view .LVU1271
 5076 0022 9B00     		lsls	r3, r3, #2
1038:../STM32Cube_FW_N6/Drivers/STM32N6xx_HAL_Driver/Src/stm32n6xx_hal_rif.c ****   *p_interrupt_reg &= (~(1UL << (PeriphId & RIF_PERIPH_BIT_POSITION)));
 5077              		.loc 1 1038 19 view .LVU1272
 5078 0024 03F1A843 		add	r3, r3, #1409286144
 5079 0028 03F51433 		add	r3, r3, #151552
 5080              	.LVL225:
 5081              		.loc 1 1039 3 is_stmt 1 view .LVU1273
 5082 002c 1A68     		ldr	r2, [r3]
 5083              		.loc 1 1039 43 is_stmt 0 view .LVU1274
 5084 002e 04F01F04 		and	r4, r4, #31
 5085              	.LVL226:
 5086              		.loc 1 1039 30 view .LVU1275
 5087 0032 A140     		lsls	r1, r1, r4
 5088              		.loc 1 1039 20 view .LVU1276
 5089 0034 22EA0102 		bic	r2, r2, r1
ARM GAS  /tmp/ccHKmbxS.s 			page 124


 5090 0038 1A60     		str	r2, [r3]
1040:../STM32Cube_FW_N6/Drivers/STM32N6xx_HAL_Driver/Src/stm32n6xx_hal_rif.c **** }
 5091              		.loc 1 1040 1 view .LVU1277
 5092 003a 10BD     		pop	{r4, pc}
 5093              	.LVL227:
 5094              	.L898:
 5095              		.loc 1 1040 1 view .LVU1278
 5096 003c 174B     		ldr	r3, .L905+8
 5097 003e 04F14042 		add	r2, r4, #-1073741824
 5098              	.L904:
 5099              		.loc 1 1040 1 view .LVU1279
 5100 0042 D340     		lsrs	r3, r3, r2
 5101 0044 DB07     		lsls	r3, r3, #31
 5102 0046 EAD4     		bmi	.L895
 5103              	.L897:
1036:../STM32Cube_FW_N6/Drivers/STM32N6xx_HAL_Driver/Src/stm32n6xx_hal_rif.c **** 
 5104              		.loc 1 1036 3 discriminator 112 view .LVU1280
 5105 0048 40F20C41 		movw	r1, #1036
 5106 004c 1448     		ldr	r0, .L905+12
 5107              	.LVL228:
1036:../STM32Cube_FW_N6/Drivers/STM32N6xx_HAL_Driver/Src/stm32n6xx_hal_rif.c **** 
 5108              		.loc 1 1036 3 discriminator 112 view .LVU1281
 5109 004e FFF7FEFF 		bl	assert_failed
 5110              	.LVL229:
 5111 0052 E4E7     		b	.L895
 5112              	.LVL230:
 5113              	.L893:
1036:../STM32Cube_FW_N6/Drivers/STM32N6xx_HAL_Driver/Src/stm32n6xx_hal_rif.c **** 
 5114              		.loc 1 1036 3 discriminator 112 view .LVU1282
 5115 0054 134B     		ldr	r3, .L905+16
 5116 0056 00F16042 		add	r2, r0, #-536870912
 5117 005a F2E7     		b	.L904
 5118              	.L900:
1036:../STM32Cube_FW_N6/Drivers/STM32N6xx_HAL_Driver/Src/stm32n6xx_hal_rif.c **** 
 5119              		.loc 1 1036 3 discriminator 112 view .LVU1283
 5120 005c A0F10803 		sub	r3, r0, #8
 5121 0060 172B     		cmp	r3, #23
 5122              	.L902:
1036:../STM32Cube_FW_N6/Drivers/STM32N6xx_HAL_Driver/Src/stm32n6xx_hal_rif.c **** 
 5123              		.loc 1 1036 3 discriminator 112 view .LVU1284
 5124 0062 DCD9     		bls	.L895
 5125 0064 F0E7     		b	.L897
 5126              	.L894:
 5127 0066 00F17043 		add	r3, r0, #-268435456
 5128 006a 1C3B     		subs	r3, r3, #28
 5129 006c 022B     		cmp	r3, #2
 5130 006e F8E7     		b	.L902
 5131              	.L892:
1036:../STM32Cube_FW_N6/Drivers/STM32N6xx_HAL_Driver/Src/stm32n6xx_hal_rif.c **** 
 5132              		.loc 1 1036 3 discriminator 112 view .LVU1285
 5133 0070 0D4B     		ldr	r3, .L905+20
 5134 0072 9842     		cmp	r0, r3
 5135 0074 E8D8     		bhi	.L897
 5136 0076 B0F1804F 		cmp	r0, #1073741824
 5137 007a DFD2     		bcs	.L898
 5138 007c 0B4B     		ldr	r3, .L905+24
 5139 007e 9842     		cmp	r0, r3
ARM GAS  /tmp/ccHKmbxS.s 			page 125


 5140 0080 03D8     		bhi	.L899
 5141 0082 B0F1405F 		cmp	r0, #805306368
 5142 0086 CAD2     		bcs	.L895
 5143 0088 DEE7     		b	.L897
 5144              	.L899:
 5145 008a 094B     		ldr	r3, .L905+28
 5146 008c 9842     		cmp	r0, r3
 5147 008e C6D0     		beq	.L895
 5148 0090 DAE7     		b	.L897
 5149              	.L906:
 5150 0092 00BF     		.align	2
 5151              	.L905:
 5152 0094 1E000020 		.word	536870942
 5153 0098 1A000010 		.word	268435482
 5154 009c EFFFEF7B 		.word	2079326191
 5155 00a0 00000000 		.word	.LC0
 5156 00a4 3BF0DF77 		.word	2011164731
 5157 00a8 1E000040 		.word	1073741854
 5158 00ac 08000030 		.word	805306376
 5159 00b0 0A000030 		.word	805306378
 5160              		.cfi_endproc
 5161              	.LFE903:
 5163              		.section	.text.HAL_RIF_IAC_GetFlag,"ax",%progbits
 5164              		.align	1
 5165              		.global	HAL_RIF_IAC_GetFlag
 5166              		.syntax unified
 5167              		.thumb
 5168              		.thumb_func
 5170              	HAL_RIF_IAC_GetFlag:
 5171              	.LVL231:
 5172              	.LFB904:
1041:../STM32Cube_FW_N6/Drivers/STM32N6xx_HAL_Driver/Src/stm32n6xx_hal_rif.c **** 
1042:../STM32Cube_FW_N6/Drivers/STM32N6xx_HAL_Driver/Src/stm32n6xx_hal_rif.c **** /**
1043:../STM32Cube_FW_N6/Drivers/STM32N6xx_HAL_Driver/Src/stm32n6xx_hal_rif.c ****   * @brief  Get illegal access detection flag.
1044:../STM32Cube_FW_N6/Drivers/STM32N6xx_HAL_Driver/Src/stm32n6xx_hal_rif.c ****   * @note   This API is protected by the Trusted Domain compilation directive.
1045:../STM32Cube_FW_N6/Drivers/STM32N6xx_HAL_Driver/Src/stm32n6xx_hal_rif.c ****   * @param  PeriphId specifies the index of the bus slave.
1046:../STM32Cube_FW_N6/Drivers/STM32N6xx_HAL_Driver/Src/stm32n6xx_hal_rif.c ****   *         This parameter can be one of @ref RIF_PERIPHERAL_INDEX
1047:../STM32Cube_FW_N6/Drivers/STM32N6xx_HAL_Driver/Src/stm32n6xx_hal_rif.c ****   *         bits[31:28] define the register index a peripheral belongs to, value from 0 to 5
1048:../STM32Cube_FW_N6/Drivers/STM32N6xx_HAL_Driver/Src/stm32n6xx_hal_rif.c ****   *         bits[4:0]   define the bit position within the register, value from 0 to 31
1049:../STM32Cube_FW_N6/Drivers/STM32N6xx_HAL_Driver/Src/stm32n6xx_hal_rif.c ****   * @retval Detection flag value
1050:../STM32Cube_FW_N6/Drivers/STM32N6xx_HAL_Driver/Src/stm32n6xx_hal_rif.c ****   */
1051:../STM32Cube_FW_N6/Drivers/STM32N6xx_HAL_Driver/Src/stm32n6xx_hal_rif.c **** uint32_t HAL_RIF_IAC_GetFlag(uint32_t PeriphId)
1052:../STM32Cube_FW_N6/Drivers/STM32N6xx_HAL_Driver/Src/stm32n6xx_hal_rif.c **** {
 5173              		.loc 1 1052 1 is_stmt 1 view -0
 5174              		.cfi_startproc
 5175              		@ args = 0, pretend = 0, frame = 0
 5176              		@ frame_needed = 0, uses_anonymous_args = 0
1053:../STM32Cube_FW_N6/Drivers/STM32N6xx_HAL_Driver/Src/stm32n6xx_hal_rif.c ****   uint32_t interrupt_flag;
 5177              		.loc 1 1053 3 view .LVU1287
1054:../STM32Cube_FW_N6/Drivers/STM32N6xx_HAL_Driver/Src/stm32n6xx_hal_rif.c ****   const __IO uint32_t *p_interrupt_reg;
 5178              		.loc 1 1054 3 view .LVU1288
1055:../STM32Cube_FW_N6/Drivers/STM32N6xx_HAL_Driver/Src/stm32n6xx_hal_rif.c ****   uint32_t shift_var;
 5179              		.loc 1 1055 3 view .LVU1289
1056:../STM32Cube_FW_N6/Drivers/STM32N6xx_HAL_Driver/Src/stm32n6xx_hal_rif.c **** 
1057:../STM32Cube_FW_N6/Drivers/STM32N6xx_HAL_Driver/Src/stm32n6xx_hal_rif.c ****   /* Check parameters */
1058:../STM32Cube_FW_N6/Drivers/STM32N6xx_HAL_Driver/Src/stm32n6xx_hal_rif.c ****   assert_param(IS_RIF_RISC_PERIPH_INDEX(PeriphId) || IS_RIF_AWARE_PERIPH_INDEX(PeriphId));
 5180              		.loc 1 1058 3 view .LVU1290
ARM GAS  /tmp/ccHKmbxS.s 			page 126


 5181 0000 224B     		ldr	r3, .L921
1052:../STM32Cube_FW_N6/Drivers/STM32N6xx_HAL_Driver/Src/stm32n6xx_hal_rif.c ****   uint32_t interrupt_flag;
 5182              		.loc 1 1052 1 is_stmt 0 view .LVU1291
 5183 0002 10B5     		push	{r4, lr}
 5184              		.cfi_def_cfa_offset 8
 5185              		.cfi_offset 4, -8
 5186              		.cfi_offset 14, -4
 5187 0004 9842     		cmp	r0, r3
1052:../STM32Cube_FW_N6/Drivers/STM32N6xx_HAL_Driver/Src/stm32n6xx_hal_rif.c ****   uint32_t interrupt_flag;
 5188              		.loc 1 1052 1 view .LVU1292
 5189 0006 0446     		mov	r4, r0
 5190 0008 2FD8     		bhi	.L908
 5191 000a B0F1005F 		cmp	r0, #536870912
 5192 000e 1ED2     		bcs	.L909
 5193 0010 1F4B     		ldr	r3, .L921+4
 5194 0012 9842     		cmp	r0, r3
 5195 0014 24D8     		bhi	.L910
 5196 0016 C21F     		subs	r2, r0, #7
 5197 0018 223B     		subs	r3, r3, #34
 5198 001a 9A42     		cmp	r2, r3
 5199 001c 1BD9     		bls	.L916
 5200              	.LVL232:
 5201              	.L911:
1059:../STM32Cube_FW_N6/Drivers/STM32N6xx_HAL_Driver/Src/stm32n6xx_hal_rif.c **** 
1060:../STM32Cube_FW_N6/Drivers/STM32N6xx_HAL_Driver/Src/stm32n6xx_hal_rif.c ****   shift_var = (PeriphId & RIF_PERIPH_BIT_POSITION);
 5202              		.loc 1 1060 3 is_stmt 1 view .LVU1293
1061:../STM32Cube_FW_N6/Drivers/STM32N6xx_HAL_Driver/Src/stm32n6xx_hal_rif.c ****   p_interrupt_reg = &(IAC->ISR[PeriphId >> RIF_PERIPH_REG_SHIFT]);
 5203              		.loc 1 1061 19 is_stmt 0 view .LVU1294
 5204 001e 1D4B     		ldr	r3, .L921+8
1060:../STM32Cube_FW_N6/Drivers/STM32N6xx_HAL_Driver/Src/stm32n6xx_hal_rif.c ****   p_interrupt_reg = &(IAC->ISR[PeriphId >> RIF_PERIPH_REG_SHIFT]);
 5205              		.loc 1 1060 13 view .LVU1295
 5206 0020 04F01F00 		and	r0, r4, #31
 5207              	.LVL233:
 5208              		.loc 1 1061 3 is_stmt 1 view .LVU1296
 5209              		.loc 1 1061 41 is_stmt 0 view .LVU1297
 5210 0024 240F     		lsrs	r4, r4, #28
 5211              	.LVL234:
1062:../STM32Cube_FW_N6/Drivers/STM32N6xx_HAL_Driver/Src/stm32n6xx_hal_rif.c ****   interrupt_flag = ((*p_interrupt_reg & (1UL << shift_var)) >> shift_var);
 5212              		.loc 1 1062 3 is_stmt 1 view .LVU1298
 5213              		.loc 1 1062 22 is_stmt 0 view .LVU1299
 5214 0026 53F82420 		ldr	r2, [r3, r4, lsl #2]
 5215              	.LVL235:
1063:../STM32Cube_FW_N6/Drivers/STM32N6xx_HAL_Driver/Src/stm32n6xx_hal_rif.c **** 
1064:../STM32Cube_FW_N6/Drivers/STM32N6xx_HAL_Driver/Src/stm32n6xx_hal_rif.c ****   return interrupt_flag;
 5216              		.loc 1 1064 3 is_stmt 1 view .LVU1300
1062:../STM32Cube_FW_N6/Drivers/STM32N6xx_HAL_Driver/Src/stm32n6xx_hal_rif.c ****   interrupt_flag = ((*p_interrupt_reg & (1UL << shift_var)) >> shift_var);
 5217              		.loc 1 1062 46 is_stmt 0 view .LVU1301
 5218 002a 0123     		movs	r3, #1
 5219              	.LVL236:
1062:../STM32Cube_FW_N6/Drivers/STM32N6xx_HAL_Driver/Src/stm32n6xx_hal_rif.c ****   interrupt_flag = ((*p_interrupt_reg & (1UL << shift_var)) >> shift_var);
 5220              		.loc 1 1062 46 view .LVU1302
 5221 002c 8340     		lsls	r3, r3, r0
1062:../STM32Cube_FW_N6/Drivers/STM32N6xx_HAL_Driver/Src/stm32n6xx_hal_rif.c ****   interrupt_flag = ((*p_interrupt_reg & (1UL << shift_var)) >> shift_var);
 5222              		.loc 1 1062 39 view .LVU1303
 5223 002e 1340     		ands	r3, r3, r2
1065:../STM32Cube_FW_N6/Drivers/STM32N6xx_HAL_Driver/Src/stm32n6xx_hal_rif.c **** }
 5224              		.loc 1 1065 1 view .LVU1304
ARM GAS  /tmp/ccHKmbxS.s 			page 127


 5225 0030 23FA00F0 		lsr	r0, r3, r0
 5226              	.LVL237:
 5227              		.loc 1 1065 1 view .LVU1305
 5228 0034 10BD     		pop	{r4, pc}
 5229              	.LVL238:
 5230              	.L914:
 5231              		.loc 1 1065 1 view .LVU1306
 5232 0036 184B     		ldr	r3, .L921+12
 5233 0038 04F14042 		add	r2, r4, #-1073741824
 5234              	.L920:
 5235              		.loc 1 1065 1 view .LVU1307
 5236 003c D340     		lsrs	r3, r3, r2
 5237 003e DB07     		lsls	r3, r3, #31
 5238 0040 EDD4     		bmi	.L911
 5239              	.L913:
1058:../STM32Cube_FW_N6/Drivers/STM32N6xx_HAL_Driver/Src/stm32n6xx_hal_rif.c **** 
 5240              		.loc 1 1058 3 discriminator 112 view .LVU1308
 5241 0042 40F22241 		movw	r1, #1058
 5242 0046 1548     		ldr	r0, .L921+16
 5243              	.LVL239:
1058:../STM32Cube_FW_N6/Drivers/STM32N6xx_HAL_Driver/Src/stm32n6xx_hal_rif.c **** 
 5244              		.loc 1 1058 3 discriminator 112 view .LVU1309
 5245 0048 FFF7FEFF 		bl	assert_failed
 5246              	.LVL240:
 5247 004c E7E7     		b	.L911
 5248              	.LVL241:
 5249              	.L909:
1058:../STM32Cube_FW_N6/Drivers/STM32N6xx_HAL_Driver/Src/stm32n6xx_hal_rif.c **** 
 5250              		.loc 1 1058 3 discriminator 112 view .LVU1310
 5251 004e 144B     		ldr	r3, .L921+20
 5252 0050 00F16042 		add	r2, r0, #-536870912
 5253 0054 F2E7     		b	.L920
 5254              	.L916:
1058:../STM32Cube_FW_N6/Drivers/STM32N6xx_HAL_Driver/Src/stm32n6xx_hal_rif.c **** 
 5255              		.loc 1 1058 3 discriminator 112 view .LVU1311
 5256 0056 A0F10803 		sub	r3, r0, #8
 5257 005a 172B     		cmp	r3, #23
 5258              	.L918:
1058:../STM32Cube_FW_N6/Drivers/STM32N6xx_HAL_Driver/Src/stm32n6xx_hal_rif.c **** 
 5259              		.loc 1 1058 3 discriminator 112 view .LVU1312
 5260 005c DFD9     		bls	.L911
 5261 005e F0E7     		b	.L913
 5262              	.L910:
 5263 0060 00F17043 		add	r3, r0, #-268435456
 5264 0064 1C3B     		subs	r3, r3, #28
 5265 0066 022B     		cmp	r3, #2
 5266 0068 F8E7     		b	.L918
 5267              	.L908:
1058:../STM32Cube_FW_N6/Drivers/STM32N6xx_HAL_Driver/Src/stm32n6xx_hal_rif.c **** 
 5268              		.loc 1 1058 3 discriminator 112 view .LVU1313
 5269 006a 0E4B     		ldr	r3, .L921+24
 5270 006c 9842     		cmp	r0, r3
 5271 006e E8D8     		bhi	.L913
 5272 0070 B0F1804F 		cmp	r0, #1073741824
 5273 0074 DFD2     		bcs	.L914
 5274 0076 0C4B     		ldr	r3, .L921+28
 5275 0078 9842     		cmp	r0, r3
ARM GAS  /tmp/ccHKmbxS.s 			page 128


 5276 007a 03D8     		bhi	.L915
 5277 007c B0F1405F 		cmp	r0, #805306368
 5278 0080 CDD2     		bcs	.L911
 5279 0082 DEE7     		b	.L913
 5280              	.L915:
 5281 0084 094B     		ldr	r3, .L921+32
 5282 0086 9842     		cmp	r0, r3
 5283 0088 C9D0     		beq	.L911
 5284 008a DAE7     		b	.L913
 5285              	.L922:
 5286              		.align	2
 5287              	.L921:
 5288 008c 1E000020 		.word	536870942
 5289 0090 1A000010 		.word	268435482
 5290 0094 80500254 		.word	1409437824
 5291 0098 EFFFEF7B 		.word	2079326191
 5292 009c 00000000 		.word	.LC0
 5293 00a0 3BF0DF77 		.word	2011164731
 5294 00a4 1E000040 		.word	1073741854
 5295 00a8 08000030 		.word	805306376
 5296 00ac 0A000030 		.word	805306378
 5297              		.cfi_endproc
 5298              	.LFE904:
 5300              		.section	.text.HAL_RIF_IAC_ClearFlag,"ax",%progbits
 5301              		.align	1
 5302              		.global	HAL_RIF_IAC_ClearFlag
 5303              		.syntax unified
 5304              		.thumb
 5305              		.thumb_func
 5307              	HAL_RIF_IAC_ClearFlag:
 5308              	.LVL242:
 5309              	.LFB905:
1066:../STM32Cube_FW_N6/Drivers/STM32N6xx_HAL_Driver/Src/stm32n6xx_hal_rif.c **** 
1067:../STM32Cube_FW_N6/Drivers/STM32N6xx_HAL_Driver/Src/stm32n6xx_hal_rif.c **** /**
1068:../STM32Cube_FW_N6/Drivers/STM32N6xx_HAL_Driver/Src/stm32n6xx_hal_rif.c ****   * @brief  Clear illegal access detection flag.
1069:../STM32Cube_FW_N6/Drivers/STM32N6xx_HAL_Driver/Src/stm32n6xx_hal_rif.c ****   * @note   This API is protected by the Trusted Domain compilation directive.
1070:../STM32Cube_FW_N6/Drivers/STM32N6xx_HAL_Driver/Src/stm32n6xx_hal_rif.c ****   * @param  PeriphId specifies the index of the bus slave.
1071:../STM32Cube_FW_N6/Drivers/STM32N6xx_HAL_Driver/Src/stm32n6xx_hal_rif.c ****   *         This parameter can be one of @ref RIF_PERIPHERAL_INDEX
1072:../STM32Cube_FW_N6/Drivers/STM32N6xx_HAL_Driver/Src/stm32n6xx_hal_rif.c ****   *         bits[31:28] define the register index a peripheral belongs to, value from 0 to 5
1073:../STM32Cube_FW_N6/Drivers/STM32N6xx_HAL_Driver/Src/stm32n6xx_hal_rif.c ****   *         bits[4:0]   define the bit position within the register, value from 0 to 31
1074:../STM32Cube_FW_N6/Drivers/STM32N6xx_HAL_Driver/Src/stm32n6xx_hal_rif.c ****   * @retval None
1075:../STM32Cube_FW_N6/Drivers/STM32N6xx_HAL_Driver/Src/stm32n6xx_hal_rif.c ****   */
1076:../STM32Cube_FW_N6/Drivers/STM32N6xx_HAL_Driver/Src/stm32n6xx_hal_rif.c **** void HAL_RIF_IAC_ClearFlag(uint32_t PeriphId)
1077:../STM32Cube_FW_N6/Drivers/STM32N6xx_HAL_Driver/Src/stm32n6xx_hal_rif.c **** {
 5310              		.loc 1 1077 1 is_stmt 1 view -0
 5311              		.cfi_startproc
 5312              		@ args = 0, pretend = 0, frame = 0
 5313              		@ frame_needed = 0, uses_anonymous_args = 0
1078:../STM32Cube_FW_N6/Drivers/STM32N6xx_HAL_Driver/Src/stm32n6xx_hal_rif.c ****   __IO uint32_t *p_interrupt_reg;
 5314              		.loc 1 1078 3 view .LVU1315
1079:../STM32Cube_FW_N6/Drivers/STM32N6xx_HAL_Driver/Src/stm32n6xx_hal_rif.c **** 
1080:../STM32Cube_FW_N6/Drivers/STM32N6xx_HAL_Driver/Src/stm32n6xx_hal_rif.c ****   /* Check parameters */
1081:../STM32Cube_FW_N6/Drivers/STM32N6xx_HAL_Driver/Src/stm32n6xx_hal_rif.c ****   assert_param(IS_RIF_RISC_PERIPH_INDEX(PeriphId) || IS_RIF_AWARE_PERIPH_INDEX(PeriphId));
 5315              		.loc 1 1081 3 view .LVU1316
 5316 0000 214B     		ldr	r3, .L937
1077:../STM32Cube_FW_N6/Drivers/STM32N6xx_HAL_Driver/Src/stm32n6xx_hal_rif.c ****   __IO uint32_t *p_interrupt_reg;
 5317              		.loc 1 1077 1 is_stmt 0 view .LVU1317
ARM GAS  /tmp/ccHKmbxS.s 			page 129


 5318 0002 10B5     		push	{r4, lr}
 5319              		.cfi_def_cfa_offset 8
 5320              		.cfi_offset 4, -8
 5321              		.cfi_offset 14, -4
 5322 0004 9842     		cmp	r0, r3
1077:../STM32Cube_FW_N6/Drivers/STM32N6xx_HAL_Driver/Src/stm32n6xx_hal_rif.c ****   __IO uint32_t *p_interrupt_reg;
 5323              		.loc 1 1077 1 view .LVU1318
 5324 0006 0446     		mov	r4, r0
 5325 0008 2CD8     		bhi	.L924
 5326 000a B0F1005F 		cmp	r0, #536870912
 5327 000e 1BD2     		bcs	.L925
 5328 0010 1E4B     		ldr	r3, .L937+4
 5329 0012 9842     		cmp	r0, r3
 5330 0014 21D8     		bhi	.L926
 5331 0016 C21F     		subs	r2, r0, #7
 5332 0018 223B     		subs	r3, r3, #34
 5333 001a 9A42     		cmp	r2, r3
 5334 001c 18D9     		bls	.L932
 5335              	.LVL243:
 5336              	.L927:
1082:../STM32Cube_FW_N6/Drivers/STM32N6xx_HAL_Driver/Src/stm32n6xx_hal_rif.c **** 
1083:../STM32Cube_FW_N6/Drivers/STM32N6xx_HAL_Driver/Src/stm32n6xx_hal_rif.c ****   p_interrupt_reg = &(IAC->ICR[PeriphId >> RIF_PERIPH_REG_SHIFT]);
 5337              		.loc 1 1083 3 is_stmt 1 view .LVU1319
1084:../STM32Cube_FW_N6/Drivers/STM32N6xx_HAL_Driver/Src/stm32n6xx_hal_rif.c ****   *p_interrupt_reg = (1UL << (PeriphId & RIF_PERIPH_BIT_POSITION));
 5338              		.loc 1 1084 27 is_stmt 0 view .LVU1320
 5339 001e 0123     		movs	r3, #1
1083:../STM32Cube_FW_N6/Drivers/STM32N6xx_HAL_Driver/Src/stm32n6xx_hal_rif.c ****   *p_interrupt_reg = (1UL << (PeriphId & RIF_PERIPH_BIT_POSITION));
 5340              		.loc 1 1083 41 view .LVU1321
 5341 0020 210F     		lsrs	r1, r4, #28
 5342              	.LVL244:
 5343              		.loc 1 1084 3 is_stmt 1 view .LVU1322
 5344              		.loc 1 1084 20 is_stmt 0 view .LVU1323
 5345 0022 1B4A     		ldr	r2, .L937+8
 5346              		.loc 1 1084 40 view .LVU1324
 5347 0024 04F01F04 		and	r4, r4, #31
 5348              	.LVL245:
 5349              		.loc 1 1084 27 view .LVU1325
 5350 0028 A340     		lsls	r3, r3, r4
 5351              		.loc 1 1084 20 view .LVU1326
 5352 002a 42F82130 		str	r3, [r2, r1, lsl #2]
1085:../STM32Cube_FW_N6/Drivers/STM32N6xx_HAL_Driver/Src/stm32n6xx_hal_rif.c **** }
 5353              		.loc 1 1085 1 view .LVU1327
 5354 002e 10BD     		pop	{r4, pc}
 5355              	.LVL246:
 5356              	.L930:
 5357              		.loc 1 1085 1 view .LVU1328
 5358 0030 184B     		ldr	r3, .L937+12
 5359 0032 04F14042 		add	r2, r4, #-1073741824
 5360              	.L936:
 5361              		.loc 1 1085 1 view .LVU1329
 5362 0036 D340     		lsrs	r3, r3, r2
 5363 0038 DB07     		lsls	r3, r3, #31
 5364 003a F0D4     		bmi	.L927
 5365              	.L929:
1081:../STM32Cube_FW_N6/Drivers/STM32N6xx_HAL_Driver/Src/stm32n6xx_hal_rif.c **** 
 5366              		.loc 1 1081 3 discriminator 112 view .LVU1330
 5367 003c 40F23941 		movw	r1, #1081
ARM GAS  /tmp/ccHKmbxS.s 			page 130


 5368 0040 1548     		ldr	r0, .L937+16
 5369              	.LVL247:
1081:../STM32Cube_FW_N6/Drivers/STM32N6xx_HAL_Driver/Src/stm32n6xx_hal_rif.c **** 
 5370              		.loc 1 1081 3 discriminator 112 view .LVU1331
 5371 0042 FFF7FEFF 		bl	assert_failed
 5372              	.LVL248:
 5373 0046 EAE7     		b	.L927
 5374              	.LVL249:
 5375              	.L925:
1081:../STM32Cube_FW_N6/Drivers/STM32N6xx_HAL_Driver/Src/stm32n6xx_hal_rif.c **** 
 5376              		.loc 1 1081 3 discriminator 112 view .LVU1332
 5377 0048 144B     		ldr	r3, .L937+20
 5378 004a 00F16042 		add	r2, r0, #-536870912
 5379 004e F2E7     		b	.L936
 5380              	.L932:
1081:../STM32Cube_FW_N6/Drivers/STM32N6xx_HAL_Driver/Src/stm32n6xx_hal_rif.c **** 
 5381              		.loc 1 1081 3 discriminator 112 view .LVU1333
 5382 0050 A0F10803 		sub	r3, r0, #8
 5383 0054 172B     		cmp	r3, #23
 5384              	.L934:
1081:../STM32Cube_FW_N6/Drivers/STM32N6xx_HAL_Driver/Src/stm32n6xx_hal_rif.c **** 
 5385              		.loc 1 1081 3 discriminator 112 view .LVU1334
 5386 0056 E2D9     		bls	.L927
 5387 0058 F0E7     		b	.L929
 5388              	.L926:
 5389 005a 00F17043 		add	r3, r0, #-268435456
 5390 005e 1C3B     		subs	r3, r3, #28
 5391 0060 022B     		cmp	r3, #2
 5392 0062 F8E7     		b	.L934
 5393              	.L924:
1081:../STM32Cube_FW_N6/Drivers/STM32N6xx_HAL_Driver/Src/stm32n6xx_hal_rif.c **** 
 5394              		.loc 1 1081 3 discriminator 112 view .LVU1335
 5395 0064 0E4B     		ldr	r3, .L937+24
 5396 0066 9842     		cmp	r0, r3
 5397 0068 E8D8     		bhi	.L929
 5398 006a B0F1804F 		cmp	r0, #1073741824
 5399 006e DFD2     		bcs	.L930
 5400 0070 0C4B     		ldr	r3, .L937+28
 5401 0072 9842     		cmp	r0, r3
 5402 0074 03D8     		bhi	.L931
 5403 0076 B0F1405F 		cmp	r0, #805306368
 5404 007a D0D2     		bcs	.L927
 5405 007c DEE7     		b	.L929
 5406              	.L931:
 5407 007e 0A4B     		ldr	r3, .L937+32
 5408 0080 9842     		cmp	r0, r3
 5409 0082 CCD0     		beq	.L927
 5410 0084 DAE7     		b	.L929
 5411              	.L938:
 5412 0086 00BF     		.align	2
 5413              	.L937:
 5414 0088 1E000020 		.word	536870942
 5415 008c 1A000010 		.word	268435482
 5416 0090 00510254 		.word	1409437952
 5417 0094 EFFFEF7B 		.word	2079326191
 5418 0098 00000000 		.word	.LC0
 5419 009c 3BF0DF77 		.word	2011164731
ARM GAS  /tmp/ccHKmbxS.s 			page 131


 5420 00a0 1E000040 		.word	1073741854
 5421 00a4 08000030 		.word	805306376
 5422 00a8 0A000030 		.word	805306378
 5423              		.cfi_endproc
 5424              	.LFE905:
 5426              		.section	.text.HAL_RIF_ILA_Callback,"ax",%progbits
 5427              		.align	1
 5428              		.weak	HAL_RIF_ILA_Callback
 5429              		.syntax unified
 5430              		.thumb
 5431              		.thumb_func
 5433              	HAL_RIF_ILA_Callback:
 5434              	.LVL250:
 5435              	.LFB907:
1086:../STM32Cube_FW_N6/Drivers/STM32N6xx_HAL_Driver/Src/stm32n6xx_hal_rif.c **** 
1087:../STM32Cube_FW_N6/Drivers/STM32N6xx_HAL_Driver/Src/stm32n6xx_hal_rif.c **** /**
1088:../STM32Cube_FW_N6/Drivers/STM32N6xx_HAL_Driver/Src/stm32n6xx_hal_rif.c ****   * @brief  Parse all pending flags and call callback when necessary.
1089:../STM32Cube_FW_N6/Drivers/STM32N6xx_HAL_Driver/Src/stm32n6xx_hal_rif.c ****   * @note   This API is protected by the Trusted Domain compilation directive.
1090:../STM32Cube_FW_N6/Drivers/STM32N6xx_HAL_Driver/Src/stm32n6xx_hal_rif.c ****   * @retval None
1091:../STM32Cube_FW_N6/Drivers/STM32N6xx_HAL_Driver/Src/stm32n6xx_hal_rif.c ****   */
1092:../STM32Cube_FW_N6/Drivers/STM32N6xx_HAL_Driver/Src/stm32n6xx_hal_rif.c **** void HAL_RIF_IRQHandler(void)
1093:../STM32Cube_FW_N6/Drivers/STM32N6xx_HAL_Driver/Src/stm32n6xx_hal_rif.c **** {
1094:../STM32Cube_FW_N6/Drivers/STM32N6xx_HAL_Driver/Src/stm32n6xx_hal_rif.c ****   uint32_t reg_index;
1095:../STM32Cube_FW_N6/Drivers/STM32N6xx_HAL_Driver/Src/stm32n6xx_hal_rif.c ****   uint32_t flag_mask;
1096:../STM32Cube_FW_N6/Drivers/STM32N6xx_HAL_Driver/Src/stm32n6xx_hal_rif.c ****   uint32_t position;
1097:../STM32Cube_FW_N6/Drivers/STM32N6xx_HAL_Driver/Src/stm32n6xx_hal_rif.c ****   uint32_t periph_id;
1098:../STM32Cube_FW_N6/Drivers/STM32N6xx_HAL_Driver/Src/stm32n6xx_hal_rif.c **** 
1099:../STM32Cube_FW_N6/Drivers/STM32N6xx_HAL_Driver/Src/stm32n6xx_hal_rif.c ****   for (reg_index = 0 ; reg_index < (RIF_PERIPH_IAC_REG_MAX + 1U) ; reg_index++)
1100:../STM32Cube_FW_N6/Drivers/STM32N6xx_HAL_Driver/Src/stm32n6xx_hal_rif.c ****   {
1101:../STM32Cube_FW_N6/Drivers/STM32N6xx_HAL_Driver/Src/stm32n6xx_hal_rif.c ****     flag_mask = IAC->ISR[reg_index];
1102:../STM32Cube_FW_N6/Drivers/STM32N6xx_HAL_Driver/Src/stm32n6xx_hal_rif.c **** 
1103:../STM32Cube_FW_N6/Drivers/STM32N6xx_HAL_Driver/Src/stm32n6xx_hal_rif.c ****     position = 0U;
1104:../STM32Cube_FW_N6/Drivers/STM32N6xx_HAL_Driver/Src/stm32n6xx_hal_rif.c ****     while ((flag_mask >> position) != 0U)
1105:../STM32Cube_FW_N6/Drivers/STM32N6xx_HAL_Driver/Src/stm32n6xx_hal_rif.c ****     {
1106:../STM32Cube_FW_N6/Drivers/STM32N6xx_HAL_Driver/Src/stm32n6xx_hal_rif.c ****       if ((flag_mask & (1UL << position)) != 0U)
1107:../STM32Cube_FW_N6/Drivers/STM32N6xx_HAL_Driver/Src/stm32n6xx_hal_rif.c ****       {
1108:../STM32Cube_FW_N6/Drivers/STM32N6xx_HAL_Driver/Src/stm32n6xx_hal_rif.c ****         periph_id = ((reg_index << RIF_PERIPH_REG_SHIFT) | position);
1109:../STM32Cube_FW_N6/Drivers/STM32N6xx_HAL_Driver/Src/stm32n6xx_hal_rif.c ****         HAL_RIF_IAC_ClearFlag(periph_id);
1110:../STM32Cube_FW_N6/Drivers/STM32N6xx_HAL_Driver/Src/stm32n6xx_hal_rif.c ****         HAL_RIF_ILA_Callback(periph_id);
1111:../STM32Cube_FW_N6/Drivers/STM32N6xx_HAL_Driver/Src/stm32n6xx_hal_rif.c ****       }
1112:../STM32Cube_FW_N6/Drivers/STM32N6xx_HAL_Driver/Src/stm32n6xx_hal_rif.c ****       position++;
1113:../STM32Cube_FW_N6/Drivers/STM32N6xx_HAL_Driver/Src/stm32n6xx_hal_rif.c ****     }
1114:../STM32Cube_FW_N6/Drivers/STM32N6xx_HAL_Driver/Src/stm32n6xx_hal_rif.c ****   }
1115:../STM32Cube_FW_N6/Drivers/STM32N6xx_HAL_Driver/Src/stm32n6xx_hal_rif.c **** }
1116:../STM32Cube_FW_N6/Drivers/STM32N6xx_HAL_Driver/Src/stm32n6xx_hal_rif.c **** 
1117:../STM32Cube_FW_N6/Drivers/STM32N6xx_HAL_Driver/Src/stm32n6xx_hal_rif.c **** /**
1118:../STM32Cube_FW_N6/Drivers/STM32N6xx_HAL_Driver/Src/stm32n6xx_hal_rif.c ****   * @brief  RIF illegal access callback.
1119:../STM32Cube_FW_N6/Drivers/STM32N6xx_HAL_Driver/Src/stm32n6xx_hal_rif.c ****   * @note   This API is protected by the Trusted Domain compilation directive.
1120:../STM32Cube_FW_N6/Drivers/STM32N6xx_HAL_Driver/Src/stm32n6xx_hal_rif.c ****   * @note   This API is protected by the TrustZone Enabled compilation directive.
1121:../STM32Cube_FW_N6/Drivers/STM32N6xx_HAL_Driver/Src/stm32n6xx_hal_rif.c ****   * @param  PeriphId specifies the index of the bus slave.
1122:../STM32Cube_FW_N6/Drivers/STM32N6xx_HAL_Driver/Src/stm32n6xx_hal_rif.c ****   *         This parameter can be one of @ref RIF_PERIPHERAL_INDEX
1123:../STM32Cube_FW_N6/Drivers/STM32N6xx_HAL_Driver/Src/stm32n6xx_hal_rif.c ****   *         bits[31:28] define the register index a peripheral belongs to, value from 0 to 5
1124:../STM32Cube_FW_N6/Drivers/STM32N6xx_HAL_Driver/Src/stm32n6xx_hal_rif.c ****   *         bits[4:0]   define the bit position within the register, value from 0 to 31
1125:../STM32Cube_FW_N6/Drivers/STM32N6xx_HAL_Driver/Src/stm32n6xx_hal_rif.c ****   * @retval None
1126:../STM32Cube_FW_N6/Drivers/STM32N6xx_HAL_Driver/Src/stm32n6xx_hal_rif.c ****   */
1127:../STM32Cube_FW_N6/Drivers/STM32N6xx_HAL_Driver/Src/stm32n6xx_hal_rif.c **** __weak void HAL_RIF_ILA_Callback(uint32_t PeriphId)
1128:../STM32Cube_FW_N6/Drivers/STM32N6xx_HAL_Driver/Src/stm32n6xx_hal_rif.c **** {
ARM GAS  /tmp/ccHKmbxS.s 			page 132


 5436              		.loc 1 1128 1 is_stmt 1 view -0
 5437              		.cfi_startproc
 5438              		@ args = 0, pretend = 0, frame = 0
 5439              		@ frame_needed = 0, uses_anonymous_args = 0
 5440              		@ link register save eliminated.
1129:../STM32Cube_FW_N6/Drivers/STM32N6xx_HAL_Driver/Src/stm32n6xx_hal_rif.c ****   /* Prevent unused argument(s) compilation warning */
1130:../STM32Cube_FW_N6/Drivers/STM32N6xx_HAL_Driver/Src/stm32n6xx_hal_rif.c ****   UNUSED(PeriphId);
 5441              		.loc 1 1130 3 view .LVU1337
1131:../STM32Cube_FW_N6/Drivers/STM32N6xx_HAL_Driver/Src/stm32n6xx_hal_rif.c **** 
1132:../STM32Cube_FW_N6/Drivers/STM32N6xx_HAL_Driver/Src/stm32n6xx_hal_rif.c ****   /* NOTE: This function should not be modified, when the callback is needed,
1133:../STM32Cube_FW_N6/Drivers/STM32N6xx_HAL_Driver/Src/stm32n6xx_hal_rif.c ****                  the HAL_RIF_ILA_Callback could be implemented in the user file
1134:../STM32Cube_FW_N6/Drivers/STM32N6xx_HAL_Driver/Src/stm32n6xx_hal_rif.c ****   */
1135:../STM32Cube_FW_N6/Drivers/STM32N6xx_HAL_Driver/Src/stm32n6xx_hal_rif.c **** }
 5442              		.loc 1 1135 1 is_stmt 0 view .LVU1338
 5443 0000 7047     		bx	lr
 5444              		.cfi_endproc
 5445              	.LFE907:
 5447              		.section	.text.HAL_RIF_IRQHandler,"ax",%progbits
 5448              		.align	1
 5449              		.global	HAL_RIF_IRQHandler
 5450              		.syntax unified
 5451              		.thumb
 5452              		.thumb_func
 5454              	HAL_RIF_IRQHandler:
 5455              	.LFB906:
1093:../STM32Cube_FW_N6/Drivers/STM32N6xx_HAL_Driver/Src/stm32n6xx_hal_rif.c ****   uint32_t reg_index;
 5456              		.loc 1 1093 1 is_stmt 1 view -0
 5457              		.cfi_startproc
 5458              		@ args = 0, pretend = 0, frame = 0
 5459              		@ frame_needed = 0, uses_anonymous_args = 0
1094:../STM32Cube_FW_N6/Drivers/STM32N6xx_HAL_Driver/Src/stm32n6xx_hal_rif.c ****   uint32_t flag_mask;
 5460              		.loc 1 1094 3 view .LVU1340
1095:../STM32Cube_FW_N6/Drivers/STM32N6xx_HAL_Driver/Src/stm32n6xx_hal_rif.c ****   uint32_t position;
 5461              		.loc 1 1095 3 view .LVU1341
1096:../STM32Cube_FW_N6/Drivers/STM32N6xx_HAL_Driver/Src/stm32n6xx_hal_rif.c ****   uint32_t periph_id;
 5462              		.loc 1 1096 3 view .LVU1342
1097:../STM32Cube_FW_N6/Drivers/STM32N6xx_HAL_Driver/Src/stm32n6xx_hal_rif.c **** 
 5463              		.loc 1 1097 3 view .LVU1343
1099:../STM32Cube_FW_N6/Drivers/STM32N6xx_HAL_Driver/Src/stm32n6xx_hal_rif.c ****   {
 5464              		.loc 1 1099 3 view .LVU1344
 5465              	.LVL251:
1099:../STM32Cube_FW_N6/Drivers/STM32N6xx_HAL_Driver/Src/stm32n6xx_hal_rif.c ****   {
 5466              		.loc 1 1099 34 discriminator 1 view .LVU1345
1093:../STM32Cube_FW_N6/Drivers/STM32N6xx_HAL_Driver/Src/stm32n6xx_hal_rif.c ****   uint32_t reg_index;
 5467              		.loc 1 1093 1 is_stmt 0 view .LVU1346
 5468 0000 2DE9F843 		push	{r3, r4, r5, r6, r7, r8, r9, lr}
 5469              		.cfi_def_cfa_offset 32
 5470              		.cfi_offset 3, -32
 5471              		.cfi_offset 4, -28
 5472              		.cfi_offset 5, -24
 5473              		.cfi_offset 6, -20
 5474              		.cfi_offset 7, -16
 5475              		.cfi_offset 8, -12
 5476              		.cfi_offset 9, -8
 5477              		.cfi_offset 14, -4
1099:../STM32Cube_FW_N6/Drivers/STM32N6xx_HAL_Driver/Src/stm32n6xx_hal_rif.c ****   {
 5478              		.loc 1 1099 18 view .LVU1347
ARM GAS  /tmp/ccHKmbxS.s 			page 133


 5479 0004 0024     		movs	r4, #0
1101:../STM32Cube_FW_N6/Drivers/STM32N6xx_HAL_Driver/Src/stm32n6xx_hal_rif.c **** 
 5480              		.loc 1 1101 15 view .LVU1348
 5481 0006 DFF83880 		ldr	r8, .L949
 5482              	.LVL252:
 5483              	.L944:
1101:../STM32Cube_FW_N6/Drivers/STM32N6xx_HAL_Driver/Src/stm32n6xx_hal_rif.c **** 
 5484              		.loc 1 1101 5 is_stmt 1 view .LVU1349
1103:../STM32Cube_FW_N6/Drivers/STM32N6xx_HAL_Driver/Src/stm32n6xx_hal_rif.c ****     while ((flag_mask >> position) != 0U)
 5485              		.loc 1 1103 14 is_stmt 0 view .LVU1350
 5486 000a 0025     		movs	r5, #0
1101:../STM32Cube_FW_N6/Drivers/STM32N6xx_HAL_Driver/Src/stm32n6xx_hal_rif.c **** 
 5487              		.loc 1 1101 15 view .LVU1351
 5488 000c 04F12003 		add	r3, r4, #32
 5489 0010 58F82360 		ldr	r6, [r8, r3, lsl #2]
 5490              	.LVL253:
1103:../STM32Cube_FW_N6/Drivers/STM32N6xx_HAL_Driver/Src/stm32n6xx_hal_rif.c ****     while ((flag_mask >> position) != 0U)
 5491              		.loc 1 1103 5 is_stmt 1 view .LVU1352
1104:../STM32Cube_FW_N6/Drivers/STM32N6xx_HAL_Driver/Src/stm32n6xx_hal_rif.c ****     {
 5492              		.loc 1 1104 5 view .LVU1353
 5493 0014 4FEA0479 		lsl	r9, r4, #28
 5494              	.LVL254:
 5495              	.L941:
1104:../STM32Cube_FW_N6/Drivers/STM32N6xx_HAL_Driver/Src/stm32n6xx_hal_rif.c ****     {
 5496              		.loc 1 1104 36 view .LVU1354
 5497 0018 36FA05F3 		lsrs	r3, r6, r5
 5498 001c 04D1     		bne	.L943
1099:../STM32Cube_FW_N6/Drivers/STM32N6xx_HAL_Driver/Src/stm32n6xx_hal_rif.c ****   {
 5499              		.loc 1 1099 77 discriminator 2 view .LVU1355
 5500 001e 0134     		adds	r4, r4, #1
 5501              	.LVL255:
1099:../STM32Cube_FW_N6/Drivers/STM32N6xx_HAL_Driver/Src/stm32n6xx_hal_rif.c ****   {
 5502              		.loc 1 1099 34 discriminator 1 view .LVU1356
 5503 0020 052C     		cmp	r4, #5
 5504 0022 F2D1     		bne	.L944
1115:../STM32Cube_FW_N6/Drivers/STM32N6xx_HAL_Driver/Src/stm32n6xx_hal_rif.c **** 
 5505              		.loc 1 1115 1 is_stmt 0 view .LVU1357
 5506 0024 BDE8F883 		pop	{r3, r4, r5, r6, r7, r8, r9, pc}
 5507              	.LVL256:
 5508              	.L943:
1106:../STM32Cube_FW_N6/Drivers/STM32N6xx_HAL_Driver/Src/stm32n6xx_hal_rif.c ****       {
 5509              		.loc 1 1106 7 is_stmt 1 view .LVU1358
1106:../STM32Cube_FW_N6/Drivers/STM32N6xx_HAL_Driver/Src/stm32n6xx_hal_rif.c ****       {
 5510              		.loc 1 1106 10 is_stmt 0 view .LVU1359
 5511 0028 DB07     		lsls	r3, r3, #31
 5512 002a 07D5     		bpl	.L942
1108:../STM32Cube_FW_N6/Drivers/STM32N6xx_HAL_Driver/Src/stm32n6xx_hal_rif.c ****         HAL_RIF_IAC_ClearFlag(periph_id);
 5513              		.loc 1 1108 9 is_stmt 1 view .LVU1360
1108:../STM32Cube_FW_N6/Drivers/STM32N6xx_HAL_Driver/Src/stm32n6xx_hal_rif.c ****         HAL_RIF_IAC_ClearFlag(periph_id);
 5514              		.loc 1 1108 19 is_stmt 0 view .LVU1361
 5515 002c 45EA0907 		orr	r7, r5, r9
 5516              	.LVL257:
1109:../STM32Cube_FW_N6/Drivers/STM32N6xx_HAL_Driver/Src/stm32n6xx_hal_rif.c ****         HAL_RIF_ILA_Callback(periph_id);
 5517              		.loc 1 1109 9 is_stmt 1 view .LVU1362
 5518 0030 3846     		mov	r0, r7
 5519 0032 FFF7FEFF 		bl	HAL_RIF_IAC_ClearFlag
 5520              	.LVL258:
ARM GAS  /tmp/ccHKmbxS.s 			page 134


1110:../STM32Cube_FW_N6/Drivers/STM32N6xx_HAL_Driver/Src/stm32n6xx_hal_rif.c ****       }
 5521              		.loc 1 1110 9 view .LVU1363
 5522 0036 3846     		mov	r0, r7
 5523 0038 FFF7FEFF 		bl	HAL_RIF_ILA_Callback
 5524              	.LVL259:
 5525              	.L942:
1112:../STM32Cube_FW_N6/Drivers/STM32N6xx_HAL_Driver/Src/stm32n6xx_hal_rif.c ****     }
 5526              		.loc 1 1112 7 view .LVU1364
1112:../STM32Cube_FW_N6/Drivers/STM32N6xx_HAL_Driver/Src/stm32n6xx_hal_rif.c ****     }
 5527              		.loc 1 1112 15 is_stmt 0 view .LVU1365
 5528 003c 0135     		adds	r5, r5, #1
 5529              	.LVL260:
1112:../STM32Cube_FW_N6/Drivers/STM32N6xx_HAL_Driver/Src/stm32n6xx_hal_rif.c ****     }
 5530              		.loc 1 1112 15 view .LVU1366
 5531 003e EBE7     		b	.L941
 5532              	.L950:
 5533              		.align	2
 5534              	.L949:
 5535 0040 00500254 		.word	1409437696
 5536              		.cfi_endproc
 5537              	.LFE906:
 5539              		.text
 5540              	.Letext0:
 5541              		.file 3 "/opt/st/stm32cubeclt_1.21.0/GNU-tools-for-STM32/arm-none-eabi/include/machine/_default_ty
 5542              		.file 4 "/opt/st/stm32cubeclt_1.21.0/GNU-tools-for-STM32/arm-none-eabi/include/sys/_stdint.h"
 5543              		.file 5 "../STM32Cube_FW_N6/Drivers/CMSIS/Device/ST/STM32N6xx/Include/stm32n657xx.h"
 5544              		.file 6 "../STM32Cube_FW_N6/Drivers/STM32N6xx_HAL_Driver/Inc/stm32n6xx_hal_rif.h"
 5545              		.file 7 "Inc/stm32n6xx_hal_conf.h"
ARM GAS  /tmp/ccHKmbxS.s 			page 135


DEFINED SYMBOLS
                            *ABS*:00000000 stm32n6xx_hal_rif.c
     /tmp/ccHKmbxS.s:26     .text.HAL_RIF_RIMC_Lock:00000000 $t
     /tmp/ccHKmbxS.s:32     .text.HAL_RIF_RIMC_Lock:00000000 HAL_RIF_RIMC_Lock
     /tmp/ccHKmbxS.s:51     .text.HAL_RIF_RIMC_Lock:00000010 $d
     /tmp/ccHKmbxS.s:56     .text.HAL_RIF_RIMC_GetLock:00000000 $t
     /tmp/ccHKmbxS.s:62     .text.HAL_RIF_RIMC_GetLock:00000000 HAL_RIF_RIMC_GetLock
     /tmp/ccHKmbxS.s:84     .text.HAL_RIF_RIMC_GetLock:0000000c $d
     /tmp/ccHKmbxS.s:93     .text.HAL_RIF_RIMC_SetDebugAccessPortCID:00000000 $t
     /tmp/ccHKmbxS.s:99     .text.HAL_RIF_RIMC_SetDebugAccessPortCID:00000000 HAL_RIF_RIMC_SetDebugAccessPortCID
     /tmp/ccHKmbxS.s:201    .text.HAL_RIF_RIMC_SetDebugAccessPortCID:0000004c $d
     /tmp/ccHKmbxS.s:208    .text.HAL_RIF_RIMC_GetDebugAccessPortCID:00000000 $t
     /tmp/ccHKmbxS.s:214    .text.HAL_RIF_RIMC_GetDebugAccessPortCID:00000000 HAL_RIF_RIMC_GetDebugAccessPortCID
     /tmp/ccHKmbxS.s:241    .text.HAL_RIF_RIMC_GetDebugAccessPortCID:00000010 $d
     /tmp/ccHKmbxS.s:246    .text.HAL_RIF_RIMC_ConfigMasterAttributes:00000000 $t
     /tmp/ccHKmbxS.s:252    .text.HAL_RIF_RIMC_ConfigMasterAttributes:00000000 HAL_RIF_RIMC_ConfigMasterAttributes
     /tmp/ccHKmbxS.s:406    .text.HAL_RIF_RIMC_ConfigMasterAttributes:000000a4 $d
     /tmp/ccHKmbxS.s:412    .text.HAL_RIF_RIMC_GetConfigMasterAttributes:00000000 $t
     /tmp/ccHKmbxS.s:418    .text.HAL_RIF_RIMC_GetConfigMasterAttributes:00000000 HAL_RIF_RIMC_GetConfigMasterAttributes
     /tmp/ccHKmbxS.s:491    .text.HAL_RIF_RIMC_GetConfigMasterAttributes:00000040 $d
     /tmp/ccHKmbxS.s:497    .text.HAL_RIF_RISC_Lock:00000000 $t
     /tmp/ccHKmbxS.s:503    .text.HAL_RIF_RISC_Lock:00000000 HAL_RIF_RISC_Lock
     /tmp/ccHKmbxS.s:522    .text.HAL_RIF_RISC_Lock:0000000c $d
     /tmp/ccHKmbxS.s:527    .text.HAL_RIF_RISC_GetLock:00000000 $t
     /tmp/ccHKmbxS.s:533    .text.HAL_RIF_RISC_GetLock:00000000 HAL_RIF_RISC_GetLock
     /tmp/ccHKmbxS.s:555    .text.HAL_RIF_RISC_GetLock:0000000c $d
     /tmp/ccHKmbxS.s:560    .text.HAL_RIF_RISC_SetSlaveSecureAttributes:00000000 $t
     /tmp/ccHKmbxS.s:566    .text.HAL_RIF_RISC_SetSlaveSecureAttributes:00000000 HAL_RIF_RISC_SetSlaveSecureAttributes
     /tmp/ccHKmbxS.s:744    .text.HAL_RIF_RISC_SetSlaveSecureAttributes:000000e4 $d
     /tmp/ccHKmbxS.s:757    .text.HAL_RIF_RISC_GetSlaveSecureAttributes:00000000 $t
     /tmp/ccHKmbxS.s:763    .text.HAL_RIF_RISC_GetSlaveSecureAttributes:00000000 HAL_RIF_RISC_GetSlaveSecureAttributes
     /tmp/ccHKmbxS.s:898    .text.HAL_RIF_RISC_GetSlaveSecureAttributes:000000a8 $d
     /tmp/ccHKmbxS.s:913    .text.HAL_RIF_RISC_SlaveConfigLock:00000000 $t
     /tmp/ccHKmbxS.s:919    .text.HAL_RIF_RISC_SlaveConfigLock:00000000 HAL_RIF_RISC_SlaveConfigLock
     /tmp/ccHKmbxS.s:1036   .text.HAL_RIF_RISC_SlaveConfigLock:0000009c $d
     /tmp/ccHKmbxS.s:1050   .text.HAL_RIF_RISC_GetSlaveConfigLock:00000000 $t
     /tmp/ccHKmbxS.s:1056   .text.HAL_RIF_RISC_GetSlaveConfigLock:00000000 HAL_RIF_RISC_GetSlaveConfigLock
     /tmp/ccHKmbxS.s:1179   .text.HAL_RIF_RISC_GetSlaveConfigLock:00000098 $d
     /tmp/ccHKmbxS.s:1193   .text.HAL_RIF_RISAF_Lock:00000000 $t
     /tmp/ccHKmbxS.s:1199   .text.HAL_RIF_RISAF_Lock:00000000 HAL_RIF_RISAF_Lock
     /tmp/ccHKmbxS.s:1304   .text.HAL_RIF_RISAF_Lock:000000a0 $d
     /tmp/ccHKmbxS.s:1310   .text.HAL_RIF_RISAF_GetLock:00000000 $t
     /tmp/ccHKmbxS.s:1316   .text.HAL_RIF_RISAF_GetLock:00000000 HAL_RIF_RISAF_GetLock
     /tmp/ccHKmbxS.s:1339   .text.HAL_RIF_RISAF_ConfigBaseRegion:00000000 $t
     /tmp/ccHKmbxS.s:1345   .text.HAL_RIF_RISAF_ConfigBaseRegion:00000000 HAL_RIF_RISAF_ConfigBaseRegion
     /tmp/ccHKmbxS.s:1746   .text.HAL_RIF_RISAF_ConfigBaseRegion:000002a4 $d
     /tmp/ccHKmbxS.s:1761   .text.HAL_RIF_RISAF_ConfigBaseRegion:000002d8 $t
     /tmp/ccHKmbxS.s:2164   .text.HAL_RIF_RISAF_ConfigBaseRegion:00000560 $d
     /tmp/ccHKmbxS.s:2185   .text.HAL_RIF_RISAF_GetConfigBaseRegion:00000000 $t
     /tmp/ccHKmbxS.s:2191   .text.HAL_RIF_RISAF_GetConfigBaseRegion:00000000 HAL_RIF_RISAF_GetConfigBaseRegion
     /tmp/ccHKmbxS.s:2405   .text.HAL_RIF_RISAF_GetConfigBaseRegion:00000110 $d
     /tmp/ccHKmbxS.s:2411   .text.HAL_RIF_RISAF_ConfigSubRegionDelegation:00000000 $t
     /tmp/ccHKmbxS.s:2417   .text.HAL_RIF_RISAF_ConfigSubRegionDelegation:00000000 HAL_RIF_RISAF_ConfigSubRegionDelegation
     /tmp/ccHKmbxS.s:2718   .text.HAL_RIF_RISAF_ConfigSubRegionDelegation:00000178 $d
     /tmp/ccHKmbxS.s:2725   .text.HAL_RIF_RISAF_GetConfigSubRegionDelegation:00000000 $t
     /tmp/ccHKmbxS.s:2731   .text.HAL_RIF_RISAF_GetConfigSubRegionDelegation:00000000 HAL_RIF_RISAF_GetConfigSubRegionDelegation
     /tmp/ccHKmbxS.s:2948   .text.HAL_RIF_RISAF_GetConfigSubRegionDelegation:00000120 $d
ARM GAS  /tmp/ccHKmbxS.s 			page 136


     /tmp/ccHKmbxS.s:2954   .text.HAL_RIF_RISAF_ConfigSubRegion:00000000 $t
     /tmp/ccHKmbxS.s:2960   .text.HAL_RIF_RISAF_ConfigSubRegion:00000000 HAL_RIF_RISAF_ConfigSubRegion
     /tmp/ccHKmbxS.s:3337   .text.HAL_RIF_RISAF_ConfigSubRegion:00000284 $d
     /tmp/ccHKmbxS.s:3352   .text.HAL_RIF_RISAF_ConfigSubRegion:000002b8 $t
     /tmp/ccHKmbxS.s:3718   .text.HAL_RIF_RISAF_ConfigSubRegion:00000514 $d
     /tmp/ccHKmbxS.s:3737   .text.HAL_RIF_RISAF_ConfigSubRegion:00000558 $t
     /tmp/ccHKmbxS.s:4146   .text.HAL_RIF_RISAF_ConfigSubRegion:000007e0 $d
     /tmp/ccHKmbxS.s:4165   .text.HAL_RIF_RISAF_ConfigSubRegion:00000824 $t
     /tmp/ccHKmbxS.s:4444   .text.HAL_RIF_RISAF_ConfigSubRegion:000009b8 $d
     /tmp/ccHKmbxS.s:4459   .text.HAL_RIF_RISAF_GetConfigSubRegion:00000000 $t
     /tmp/ccHKmbxS.s:4465   .text.HAL_RIF_RISAF_GetConfigSubRegion:00000000 HAL_RIF_RISAF_GetConfigSubRegion
     /tmp/ccHKmbxS.s:4712   .text.HAL_RIF_RISAF_GetConfigSubRegion:0000013c $d
     /tmp/ccHKmbxS.s:4718   .text.HAL_RIF_RISAF_GetIllegalAccess:00000000 $t
     /tmp/ccHKmbxS.s:4724   .text.HAL_RIF_RISAF_GetIllegalAccess:00000000 HAL_RIF_RISAF_GetIllegalAccess
     /tmp/ccHKmbxS.s:4898   .text.HAL_RIF_RISAF_GetIllegalAccess:000000e8 $d
     /tmp/ccHKmbxS.s:4904   .text.HAL_RIF_IAC_EnableIT:00000000 $t
     /tmp/ccHKmbxS.s:4910   .text.HAL_RIF_IAC_EnableIT:00000000 HAL_RIF_IAC_EnableIT
     /tmp/ccHKmbxS.s:5022   .text.HAL_RIF_IAC_EnableIT:00000090 $d
     /tmp/ccHKmbxS.s:5034   .text.HAL_RIF_IAC_DisableIT:00000000 $t
     /tmp/ccHKmbxS.s:5040   .text.HAL_RIF_IAC_DisableIT:00000000 HAL_RIF_IAC_DisableIT
     /tmp/ccHKmbxS.s:5152   .text.HAL_RIF_IAC_DisableIT:00000094 $d
     /tmp/ccHKmbxS.s:5164   .text.HAL_RIF_IAC_GetFlag:00000000 $t
     /tmp/ccHKmbxS.s:5170   .text.HAL_RIF_IAC_GetFlag:00000000 HAL_RIF_IAC_GetFlag
     /tmp/ccHKmbxS.s:5288   .text.HAL_RIF_IAC_GetFlag:0000008c $d
     /tmp/ccHKmbxS.s:5301   .text.HAL_RIF_IAC_ClearFlag:00000000 $t
     /tmp/ccHKmbxS.s:5307   .text.HAL_RIF_IAC_ClearFlag:00000000 HAL_RIF_IAC_ClearFlag
     /tmp/ccHKmbxS.s:5414   .text.HAL_RIF_IAC_ClearFlag:00000088 $d
     /tmp/ccHKmbxS.s:5427   .text.HAL_RIF_ILA_Callback:00000000 $t
     /tmp/ccHKmbxS.s:5433   .text.HAL_RIF_ILA_Callback:00000000 HAL_RIF_ILA_Callback
     /tmp/ccHKmbxS.s:5448   .text.HAL_RIF_IRQHandler:00000000 $t
     /tmp/ccHKmbxS.s:5454   .text.HAL_RIF_IRQHandler:00000000 HAL_RIF_IRQHandler
     /tmp/ccHKmbxS.s:5535   .text.HAL_RIF_IRQHandler:00000040 $d
                           .group:00000000 wm4.0.43608cab4da50df6ba2dfee95636a2b5
                           .group:00000000 wm4.stm32n6xx_hal_conf.h.21.d32f04f7ae387b70d8c80735cac3eea9
                           .group:00000000 wm4.stddef.h.39.811583f327f35b0df7808fda70b062a0
                           .group:00000000 wm4.arm_cmse.h.103.a0d15a79c4c9a67da8d5831704d7248e
                           .group:00000000 wm4.stm32n6xx.h.34.c523a1ffdf274a69e8802892c6776332
                           .group:00000000 wm4.stm32n657xx.h.26.acd272cb67318cc1a4791ce2f0720ca6
                           .group:00000000 wm4._newlib_version.h.4.0eb654b64686e2bd29646258853f6c22
                           .group:00000000 wm4.features.h.33.d554620bb17bd3b714c3fb5c268772bc
                           .group:00000000 wm4._default_types.h.15.247e5cd201eca3442cbf5404108c4935
                           .group:00000000 wm4._intsup.h.10.48bafbb683905c4daa4565a85aeeb264
                           .group:00000000 wm4._stdint.h.10.c24fa3af3bc1706662bb5593a907e841
                           .group:00000000 wm4.stdint.h.23.d53047a68f4a85177f80b422d52785ed
                           .group:00000000 wm4.cmsis_version.h.30.d128735bf87720f7436b74fefeb5043c
                           .group:00000000 wm4.core_cm55.h.67.25006a3ce7048d64bcddd2996d5fac93
                           .group:00000000 wm4.arm_acle.h.28.a0697f530ff2dbf8c463bef049b82760
                           .group:00000000 wm4.cmsis_gcc.h.39.eba7438bc45fd1a6e6376b63ffe44436
                           .group:00000000 wm4.cmsis_gcc_m.h.24.e590ec51aeda3a1242400351d73f5dce
                           .group:00000000 wm4.core_cm55.h.213.0528f46a674315ef8d35c4477e230358
                           .group:00000000 wm4.armv8m_mpu.h.24.bf28cc25bee30a7ff9d2f7a44a5e2230
                           .group:00000000 wm4.armv8m_pmu.h.24.6ded195d2625055391fd378c0e1d2519
                           .group:00000000 wm4.core_cm55.h.4477.396e822ef855bcfb932819ad48de1c4c
                           .group:00000000 wm4.armv7m_cachel1.h.24.936dd92d6e204a8d0b17d5e4ea4a356e
                           .group:00000000 wm4.stm32n657xx.h.575.78d331c417ec710388ced647138f735f
                           .group:00000000 wm4.stm32n6xx.h.116.b4247d9785590e7c5ec9234ffb2153bf
                           .group:00000000 wm4.stm32_hal_legacy.h.22.e62aae2fd3ae33360b6781c8a72e5b18
ARM GAS  /tmp/ccHKmbxS.s 			page 137


                           .group:00000000 wm4.newlib.h.7.decd5b9657e2c5df625d9eac6e10520c
                           .group:00000000 wm4.ieeefp.h.77.99029d7b8220a2cd73dd257e2bbe825d
                           .group:00000000 wm4.config.h.224.10ee1ad185d877c6e334e6581faab44d
                           .group:00000000 wm4._ansi.h.31.de524f58584151836e90d8620a16f8e8
                           .group:00000000 wm4.cdefs.h.49.56fd742369e655e7e8a7e365e706e208
                           .group:00000000 wm4._types.h.20.dd0d04dca3800a0d2a6129b87f3adbb2
                           .group:00000000 wm4.stddef.h.173.4903093a50a8482cb062b176ea61fac3
                           .group:00000000 wm4._types.h.127.3bdfe3ff8ea2d0985b03d9cbe93480e3
                           .group:00000000 wm4.reent.h.18.25503cdc8b7e55dd0d6ea7b3e5af7a03
                           .group:00000000 wm4.lock.h.2.1461d1fff82dffe8bfddc23307f6484f
                           .group:00000000 wm4.reent.h.78.6d702f69a6d6435d2dbe915b10150b1a
                           .group:00000000 wm4.math.h.13.47cfc34cae8a1153323939c4d32cf7c2
                           .group:00000000 wm4.stm32n6xx_hal_def.h.63.3a8f01490e8852464e9fcb69092e9c75
                           .group:00000000 wm4.stm32n6xx_ll_bus.h.38.2366a295ee4cdb04833997d3787fcd2d
                           .group:00000000 wm4.stm32n6xx_ll_rcc.h.21.656bd5637db608589ad16ea57d39430c
                           .group:00000000 wm4.stm32n6xx_hal_rcc.h.194.69b522b1afdf59a82d05a1f71efe03c7
                           .group:00000000 wm4.stm32n6xx_hal_rcc_ex.h.21.cc6be0a7d168882a1a6f470236ba784c
                           .group:00000000 wm4.stm32n6xx_hal_rcc.h.4361.4b490a4a19722e68c21f88cb8a774a30
                           .group:00000000 wm4.stm32n6xx_hal_gpio.h.21.89d54af663b98eb8fc098192053f7eeb
                           .group:00000000 wm4.stm32n6xx_hal_gpio_ex.h.22.f7e795fb05a69a19b87d946b47c8db8b
                           .group:00000000 wm4.stm32n6xx_hal_rif.h.21.33f2c553a8a3fc14dca8c470b213ab19
                           .group:00000000 wm4.stm32n6xx_hal_dma.h.21.61e48c5c2e8d25d22177834b232fe45c
                           .group:00000000 wm4.stm32n6xx_hal_dma_ex.h.21.82f854ecdb6a463b06d0b4e5c217c368
                           .group:00000000 wm4.stm32n6xx_hal_dma.h.1020.87e2180c009560b617c1f8208140c950
                           .group:00000000 wm4.stm32n6xx_hal_cortex.h.21.f493623cc58f9454ab4eae41e395c5cc
                           .group:00000000 wm4.stm32n6xx_hal_bsec.h.21.1ee89319140541f82434908b4267aa30
                           .group:00000000 wm4.stm32n6xx_hal_dcmipp.h.21.e2b87dce83d7d722d696a597f6ac56bf
                           .group:00000000 wm4.stm32n6xx_hal_dma2d.h.21.75c8d46cdbb72970123b3f34ae2043d7
                           .group:00000000 wm4.stm32n6xx_hal_exti.h.21.e0efb23591051684dc14f1f2431c6aab
                           .group:00000000 wm4.stm32n6xx_hal_i2c.h.21.3f483626ff64c5bf027265bb2e1d1331
                           .group:00000000 wm4.stm32n6xx_hal_i2c_ex.h.21.79e9196c22282cdaf6b4047893638c45
                           .group:00000000 wm4.stm32n6xx_hal_i2c.h.741.1084702632703acc669e4282b3043372
                           .group:00000000 wm4.stm32n6xx_hal_ltdc.h.21.ae1eb09930e7e550e48e418ac5849e4d
                           .group:00000000 wm4.stm32n6xx_hal_ltdc.h.1002.b13ede7fc94ed5ad1c6768a157d2149a
                           .group:00000000 wm4.stm32n6xx_ll_usb.h.21.daaf86158046f2cf02166c495d637480
                           .group:00000000 wm4.stm32n6xx_hal_pcd.h.155.27040aac6844effe2af8c180caf1dd2e
                           .group:00000000 wm4.stm32n6xx_hal_pwr.h.21.cdb73e4869c3fed3fc84f901ec0e5f0a
                           .group:00000000 wm4.stm32n6xx_hal_pwr_ex.h.21.1a673224a58b0c1e5fad8eeda6514208
                           .group:00000000 wm4.stm32n6xx_hal_ramcfg.h.21.a62dfbb4d2c14e9a8c634a215e37bd3d
                           .group:00000000 wm4.stm32n6xx_hal_spi.h.21.9f810303326e2d91749800e9911f8e4d
                           .group:00000000 wm4.stm32n6xx_hal_spi.h.906.8ad9375f39dce09dc0a4db0025ee7a76
                           .group:00000000 wm4.stm32n6xx_hal_uart.h.21.230f549bfa0d5ebfd77bfb311b2aca15
                           .group:00000000 wm4.stm32n6xx_hal_uart_ex.h.21.a0d5511e1d0703b7b5278c8f5472b96d
                           .group:00000000 wm4.stm32n6xx_hal_xspi.h.21.7fd922d3bdb871475cf18436a68935bb
                           .group:00000000 wm4.stm32n6xx_hal_cacheaxi.h.21.7c3375b7903ec42376e4883320997f74
                           .group:00000000 wm4.stm32n6xx_hal.h.81.e79d59262ba173c33cf1d69281830d15

UNDEFINED SYMBOLS
assert_failed
