ARM GAS  /tmp/ccsDiBBo.s 			page 1


   1              		.arch armv8.1-m.main
   2              		.fpu fpv5-d16
   3              		.arch_extension dsp
   4              		.arch_extension fp
   5              		.arch_extension fp.dp
   6              		.arch_extension mve
   7              		.arch_extension mve.fp
   8              		.eabi_attribute 5, "cortex-m55"
   9              		.eabi_attribute 28, 1
  10              		.eabi_attribute 20, 1
  11              		.eabi_attribute 21, 1
  12              		.eabi_attribute 23, 3
  13              		.eabi_attribute 24, 1
  14              		.eabi_attribute 25, 1
  15              		.eabi_attribute 26, 1
  16              		.eabi_attribute 30, 4
  17              		.eabi_attribute 34, 1
  18              		.eabi_attribute 38, 1
  19              		.eabi_attribute 18, 4
  20              		.file	"stm32_lcd.c"
  21              		.text
  22              	.Ltext0:
  23              		.cfi_sections	.debug_frame
  24              		.file 1 "../STM32Cube_FW_N6/Utilities/lcd/stm32_lcd.c"
  25              		.section	.text.UTIL_LCD_SetFuncDriver,"ax",%progbits
  26              		.align	1
  27              		.global	UTIL_LCD_SetFuncDriver
  28              		.syntax unified
  29              		.thumb
  30              		.thumb_func
  32              	UTIL_LCD_SetFuncDriver:
  33              	.LVL0:
  34              	.LFB0:
   1:../STM32Cube_FW_N6/Utilities/lcd/stm32_lcd.c **** /**
   2:../STM32Cube_FW_N6/Utilities/lcd/stm32_lcd.c ****   ******************************************************************************
   3:../STM32Cube_FW_N6/Utilities/lcd/stm32_lcd.c ****   * @file    stm32_lcd.c
   4:../STM32Cube_FW_N6/Utilities/lcd/stm32_lcd.c ****   * @author  MCD Application Team
   5:../STM32Cube_FW_N6/Utilities/lcd/stm32_lcd.c ****   * @brief   This file includes the basic functionalities to drive LCD
   6:../STM32Cube_FW_N6/Utilities/lcd/stm32_lcd.c ****   ******************************************************************************
   7:../STM32Cube_FW_N6/Utilities/lcd/stm32_lcd.c ****   * @attention
   8:../STM32Cube_FW_N6/Utilities/lcd/stm32_lcd.c ****   *
   9:../STM32Cube_FW_N6/Utilities/lcd/stm32_lcd.c ****   * Copyright (c) 2019-2024 STMicroelectronics.
  10:../STM32Cube_FW_N6/Utilities/lcd/stm32_lcd.c ****   * All rights reserved.
  11:../STM32Cube_FW_N6/Utilities/lcd/stm32_lcd.c ****   *
  12:../STM32Cube_FW_N6/Utilities/lcd/stm32_lcd.c ****   * This software is licensed under terms that can be found in the LICENSE file
  13:../STM32Cube_FW_N6/Utilities/lcd/stm32_lcd.c ****   * in the root directory of this software component.
  14:../STM32Cube_FW_N6/Utilities/lcd/stm32_lcd.c ****   * If no LICENSE file comes with this software, it is provided AS-IS.
  15:../STM32Cube_FW_N6/Utilities/lcd/stm32_lcd.c ****   *
  16:../STM32Cube_FW_N6/Utilities/lcd/stm32_lcd.c ****   ******************************************************************************
  17:../STM32Cube_FW_N6/Utilities/lcd/stm32_lcd.c ****   */
  18:../STM32Cube_FW_N6/Utilities/lcd/stm32_lcd.c **** 
  19:../STM32Cube_FW_N6/Utilities/lcd/stm32_lcd.c **** /* File Info: ------------------------------------------------------------------
  20:../STM32Cube_FW_N6/Utilities/lcd/stm32_lcd.c ****                                    User NOTES
  21:../STM32Cube_FW_N6/Utilities/lcd/stm32_lcd.c **** 1. How To use this driver:
  22:../STM32Cube_FW_N6/Utilities/lcd/stm32_lcd.c **** --------------------------
  23:../STM32Cube_FW_N6/Utilities/lcd/stm32_lcd.c ****    - This driver is a generic driver that provides basic display services. It should
  24:../STM32Cube_FW_N6/Utilities/lcd/stm32_lcd.c ****      be used by any platform once LCD is initialized and following draw methods are
ARM GAS  /tmp/ccsDiBBo.s 			page 2


  25:../STM32Cube_FW_N6/Utilities/lcd/stm32_lcd.c ****      registered:
  26:../STM32Cube_FW_N6/Utilities/lcd/stm32_lcd.c ****          BSP_LCD_DrawBitmap
  27:../STM32Cube_FW_N6/Utilities/lcd/stm32_lcd.c ****          BSP_LCD_DrawHLine
  28:../STM32Cube_FW_N6/Utilities/lcd/stm32_lcd.c ****          BSP_LCD_DrawVLine
  29:../STM32Cube_FW_N6/Utilities/lcd/stm32_lcd.c ****          BSP_LCD_FillRect
  30:../STM32Cube_FW_N6/Utilities/lcd/stm32_lcd.c ****          BSP_LCD_ReadPixel
  31:../STM32Cube_FW_N6/Utilities/lcd/stm32_lcd.c ****          BSP_LCD_WritePixel
  32:../STM32Cube_FW_N6/Utilities/lcd/stm32_lcd.c ****          BSP_LCD_GetXSize
  33:../STM32Cube_FW_N6/Utilities/lcd/stm32_lcd.c ****          BSP_LCD_GetYSize
  34:../STM32Cube_FW_N6/Utilities/lcd/stm32_lcd.c ****          BSP_LCD_SetActiveLayer
  35:../STM32Cube_FW_N6/Utilities/lcd/stm32_lcd.c **** 
  36:../STM32Cube_FW_N6/Utilities/lcd/stm32_lcd.c ****    - At application level, once the LCD is initialized, user should call UTIL_LCD_SetFuncDriver()
  37:../STM32Cube_FW_N6/Utilities/lcd/stm32_lcd.c ****      API to link board LCD drivers to BASIC GUI LCD drivers.
  38:../STM32Cube_FW_N6/Utilities/lcd/stm32_lcd.c ****      User can then call the BASIC GUI services:
  39:../STM32Cube_FW_N6/Utilities/lcd/stm32_lcd.c ****          UTIL_LCD_SetFuncDriver()
  40:../STM32Cube_FW_N6/Utilities/lcd/stm32_lcd.c ****          UTIL_LCD_SetLayer()
  41:../STM32Cube_FW_N6/Utilities/lcd/stm32_lcd.c ****          UTIL_LCD_SetDevice()
  42:../STM32Cube_FW_N6/Utilities/lcd/stm32_lcd.c ****          UTIL_LCD_SetTextColor()
  43:../STM32Cube_FW_N6/Utilities/lcd/stm32_lcd.c ****          UTIL_LCD_GetTextColor()
  44:../STM32Cube_FW_N6/Utilities/lcd/stm32_lcd.c ****          UTIL_LCD_SetBackColor()
  45:../STM32Cube_FW_N6/Utilities/lcd/stm32_lcd.c ****          UTIL_LCD_GetBackColor()
  46:../STM32Cube_FW_N6/Utilities/lcd/stm32_lcd.c ****          UTIL_LCD_SetFont()
  47:../STM32Cube_FW_N6/Utilities/lcd/stm32_lcd.c ****          UTIL_LCD_GetFont()
  48:../STM32Cube_FW_N6/Utilities/lcd/stm32_lcd.c ****          UTIL_LCD_Clear)
  49:../STM32Cube_FW_N6/Utilities/lcd/stm32_lcd.c ****          UTIL_LCD_ClearStringLine()
  50:../STM32Cube_FW_N6/Utilities/lcd/stm32_lcd.c ****          UTIL_LCD_DisplayStringAtLine()
  51:../STM32Cube_FW_N6/Utilities/lcd/stm32_lcd.c ****          UTIL_LCD_DisplayStringAt()
  52:../STM32Cube_FW_N6/Utilities/lcd/stm32_lcd.c ****          UTIL_LCD_DisplayChar()
  53:../STM32Cube_FW_N6/Utilities/lcd/stm32_lcd.c ****          UTIL_LCD_GetPixel()
  54:../STM32Cube_FW_N6/Utilities/lcd/stm32_lcd.c ****          UTIL_LCD_SetPixel()
  55:../STM32Cube_FW_N6/Utilities/lcd/stm32_lcd.c ****          UTIL_LCD_FillRGBRect()
  56:../STM32Cube_FW_N6/Utilities/lcd/stm32_lcd.c ****          UTIL_LCD_DrawHLine()
  57:../STM32Cube_FW_N6/Utilities/lcd/stm32_lcd.c ****          UTIL_LCD_DrawVLine()
  58:../STM32Cube_FW_N6/Utilities/lcd/stm32_lcd.c ****          UTIL_LCD_DrawBitmap()
  59:../STM32Cube_FW_N6/Utilities/lcd/stm32_lcd.c ****          UTIL_LCD_FillRect()
  60:../STM32Cube_FW_N6/Utilities/lcd/stm32_lcd.c ****          UTIL_LCD_DrawLine()
  61:../STM32Cube_FW_N6/Utilities/lcd/stm32_lcd.c ****          UTIL_LCD_DrawRect()
  62:../STM32Cube_FW_N6/Utilities/lcd/stm32_lcd.c ****          UTIL_LCD_DrawCircle()
  63:../STM32Cube_FW_N6/Utilities/lcd/stm32_lcd.c ****          UTIL_LCD_DrawPolygon()
  64:../STM32Cube_FW_N6/Utilities/lcd/stm32_lcd.c ****          UTIL_LCD_DrawEllipse()
  65:../STM32Cube_FW_N6/Utilities/lcd/stm32_lcd.c ****          UTIL_LCD_FillCircle()
  66:../STM32Cube_FW_N6/Utilities/lcd/stm32_lcd.c ****          UTIL_LCD_FillPolygon()
  67:../STM32Cube_FW_N6/Utilities/lcd/stm32_lcd.c ****          UTIL_LCD_FillEllipse()
  68:../STM32Cube_FW_N6/Utilities/lcd/stm32_lcd.c **** ------------------------------------------------------------------------------*/
  69:../STM32Cube_FW_N6/Utilities/lcd/stm32_lcd.c **** 
  70:../STM32Cube_FW_N6/Utilities/lcd/stm32_lcd.c **** /* Includes ------------------------------------------------------------------*/
  71:../STM32Cube_FW_N6/Utilities/lcd/stm32_lcd.c **** #include "stm32_lcd.h"
  72:../STM32Cube_FW_N6/Utilities/lcd/stm32_lcd.c **** #include "../Fonts/font24.c"
  73:../STM32Cube_FW_N6/Utilities/lcd/stm32_lcd.c **** #include "../Fonts/font20.c"
  74:../STM32Cube_FW_N6/Utilities/lcd/stm32_lcd.c **** #include "../Fonts/font16.c"
  75:../STM32Cube_FW_N6/Utilities/lcd/stm32_lcd.c **** #include "../Fonts/font12.c"
  76:../STM32Cube_FW_N6/Utilities/lcd/stm32_lcd.c **** #include "../Fonts/font8.c"
  77:../STM32Cube_FW_N6/Utilities/lcd/stm32_lcd.c **** 
  78:../STM32Cube_FW_N6/Utilities/lcd/stm32_lcd.c **** /** @addtogroup Utilities
  79:../STM32Cube_FW_N6/Utilities/lcd/stm32_lcd.c ****   * @{
  80:../STM32Cube_FW_N6/Utilities/lcd/stm32_lcd.c ****   */
  81:../STM32Cube_FW_N6/Utilities/lcd/stm32_lcd.c **** 
ARM GAS  /tmp/ccsDiBBo.s 			page 3


  82:../STM32Cube_FW_N6/Utilities/lcd/stm32_lcd.c **** /** @addtogroup STM32_EVAL
  83:../STM32Cube_FW_N6/Utilities/lcd/stm32_lcd.c ****   * @{
  84:../STM32Cube_FW_N6/Utilities/lcd/stm32_lcd.c ****   */
  85:../STM32Cube_FW_N6/Utilities/lcd/stm32_lcd.c **** 
  86:../STM32Cube_FW_N6/Utilities/lcd/stm32_lcd.c **** /** @addtogroup Common
  87:../STM32Cube_FW_N6/Utilities/lcd/stm32_lcd.c ****   * @{
  88:../STM32Cube_FW_N6/Utilities/lcd/stm32_lcd.c ****   */
  89:../STM32Cube_FW_N6/Utilities/lcd/stm32_lcd.c **** 
  90:../STM32Cube_FW_N6/Utilities/lcd/stm32_lcd.c **** /** @defgroup STM32_LCD STM32 LCD Utility
  91:../STM32Cube_FW_N6/Utilities/lcd/stm32_lcd.c ****   * @{
  92:../STM32Cube_FW_N6/Utilities/lcd/stm32_lcd.c ****   */
  93:../STM32Cube_FW_N6/Utilities/lcd/stm32_lcd.c **** 
  94:../STM32Cube_FW_N6/Utilities/lcd/stm32_lcd.c **** #ifndef UTIL_LCD_MAX_LAYERS_NBR
  95:../STM32Cube_FW_N6/Utilities/lcd/stm32_lcd.c ****   #define UTIL_LCD_MAX_LAYERS_NBR    2U
  96:../STM32Cube_FW_N6/Utilities/lcd/stm32_lcd.c **** #endif
  97:../STM32Cube_FW_N6/Utilities/lcd/stm32_lcd.c **** 
  98:../STM32Cube_FW_N6/Utilities/lcd/stm32_lcd.c **** /** @defgroup UTIL_LCD_Private_Macros STM32 LCD Utility Private Macros
  99:../STM32Cube_FW_N6/Utilities/lcd/stm32_lcd.c ****   * @{
 100:../STM32Cube_FW_N6/Utilities/lcd/stm32_lcd.c ****   */
 101:../STM32Cube_FW_N6/Utilities/lcd/stm32_lcd.c **** #define ABS(X)                 ((X) > 0 ? (X) : -(X))
 102:../STM32Cube_FW_N6/Utilities/lcd/stm32_lcd.c **** #define POLY_X(Z)              ((int32_t)((Points + (Z))->X))
 103:../STM32Cube_FW_N6/Utilities/lcd/stm32_lcd.c **** #define POLY_Y(Z)              ((int32_t)((Points + (Z))->Y))
 104:../STM32Cube_FW_N6/Utilities/lcd/stm32_lcd.c **** 
 105:../STM32Cube_FW_N6/Utilities/lcd/stm32_lcd.c **** #define CONVERTARGB88882RGB565(Color)((((Color & 0xFFU) >> 3) & 0x1FU) |\
 106:../STM32Cube_FW_N6/Utilities/lcd/stm32_lcd.c ****                                      (((((Color & 0xFF00U) >> 8) >>2) & 0x3FU) << 5) |\
 107:../STM32Cube_FW_N6/Utilities/lcd/stm32_lcd.c ****                                      (((((Color & 0xFF0000U) >> 16) >>3) & 0x1FU) << 11))
 108:../STM32Cube_FW_N6/Utilities/lcd/stm32_lcd.c **** 
 109:../STM32Cube_FW_N6/Utilities/lcd/stm32_lcd.c **** #define CONVERTARGB88882ARGB4444(Color)((((Color & 0xFFU) >> 4) & 0xFU) |\
 110:../STM32Cube_FW_N6/Utilities/lcd/stm32_lcd.c ****                                        (((((Color & 0xFF00U) >> 8) >> 4) & 0xFU) << 4) |\
 111:../STM32Cube_FW_N6/Utilities/lcd/stm32_lcd.c ****                                        (((((Color & 0xFF0000U) >> 16) >> 4) & 0xFU) << 8) | \
 112:../STM32Cube_FW_N6/Utilities/lcd/stm32_lcd.c ****                                        (((((Color & 0xFF000000U) >> 24) >> 4) & 0xFU) << 12))
 113:../STM32Cube_FW_N6/Utilities/lcd/stm32_lcd.c **** 
 114:../STM32Cube_FW_N6/Utilities/lcd/stm32_lcd.c **** #define CONVERTRGB5652ARGB8888(Color)(((((((Color >> 11) & 0x1FU) * 527) + 23) >> 6) << 16) |\
 115:../STM32Cube_FW_N6/Utilities/lcd/stm32_lcd.c ****                                      ((((((Color >> 5) & 0x3FU) * 259) + 33) >> 6) << 8) |\
 116:../STM32Cube_FW_N6/Utilities/lcd/stm32_lcd.c ****                                      ((((Color & 0x1FU) * 527) + 23) >> 6) | 0xFF000000)
 117:../STM32Cube_FW_N6/Utilities/lcd/stm32_lcd.c **** 
 118:../STM32Cube_FW_N6/Utilities/lcd/stm32_lcd.c **** #define CONVERTARGB44442ARGB8888(Color)(((((Color >> 12U) & 0xFU) * 17U) << 24U) |\
 119:../STM32Cube_FW_N6/Utilities/lcd/stm32_lcd.c ****                                         ((((Color >>  8U) & 0xFU) * 17U) << 16U) |\
 120:../STM32Cube_FW_N6/Utilities/lcd/stm32_lcd.c ****                                         ((((Color >>  4U) & 0xFU) * 17U) << 8U) |\
 121:../STM32Cube_FW_N6/Utilities/lcd/stm32_lcd.c ****                                         ((((Color >>  0U) & 0xFU) * 17U) << 0U))
 122:../STM32Cube_FW_N6/Utilities/lcd/stm32_lcd.c **** 
 123:../STM32Cube_FW_N6/Utilities/lcd/stm32_lcd.c **** #define CONVERTRGB8882ARGB8888(Color)(Color | 0xFF000000U)
 124:../STM32Cube_FW_N6/Utilities/lcd/stm32_lcd.c **** 
 125:../STM32Cube_FW_N6/Utilities/lcd/stm32_lcd.c **** #define CONVERTARGB88882RGB888(Color)(Color & 0x00FFFFFFU)
 126:../STM32Cube_FW_N6/Utilities/lcd/stm32_lcd.c **** 
 127:../STM32Cube_FW_N6/Utilities/lcd/stm32_lcd.c **** /**
 128:../STM32Cube_FW_N6/Utilities/lcd/stm32_lcd.c ****   * @}
 129:../STM32Cube_FW_N6/Utilities/lcd/stm32_lcd.c ****   */
 130:../STM32Cube_FW_N6/Utilities/lcd/stm32_lcd.c **** 
 131:../STM32Cube_FW_N6/Utilities/lcd/stm32_lcd.c **** /** @defgroup UTIL_LCD_Private_Types STM32 LCD Utility Private Types
 132:../STM32Cube_FW_N6/Utilities/lcd/stm32_lcd.c ****   * @{
 133:../STM32Cube_FW_N6/Utilities/lcd/stm32_lcd.c ****   */
 134:../STM32Cube_FW_N6/Utilities/lcd/stm32_lcd.c **** typedef struct
 135:../STM32Cube_FW_N6/Utilities/lcd/stm32_lcd.c **** {
 136:../STM32Cube_FW_N6/Utilities/lcd/stm32_lcd.c ****   uint32_t x1;
 137:../STM32Cube_FW_N6/Utilities/lcd/stm32_lcd.c ****   uint32_t y1;
 138:../STM32Cube_FW_N6/Utilities/lcd/stm32_lcd.c ****   uint32_t x2;
ARM GAS  /tmp/ccsDiBBo.s 			page 4


 139:../STM32Cube_FW_N6/Utilities/lcd/stm32_lcd.c ****   uint32_t y2;
 140:../STM32Cube_FW_N6/Utilities/lcd/stm32_lcd.c ****   uint32_t x3;
 141:../STM32Cube_FW_N6/Utilities/lcd/stm32_lcd.c ****   uint32_t y3;
 142:../STM32Cube_FW_N6/Utilities/lcd/stm32_lcd.c **** }Triangle_Positions_t;
 143:../STM32Cube_FW_N6/Utilities/lcd/stm32_lcd.c **** 
 144:../STM32Cube_FW_N6/Utilities/lcd/stm32_lcd.c **** /**
 145:../STM32Cube_FW_N6/Utilities/lcd/stm32_lcd.c ****   * @}
 146:../STM32Cube_FW_N6/Utilities/lcd/stm32_lcd.c ****   */
 147:../STM32Cube_FW_N6/Utilities/lcd/stm32_lcd.c **** 
 148:../STM32Cube_FW_N6/Utilities/lcd/stm32_lcd.c **** /** @defgroup UTIL_LCD_Private_Variables STM32 LCD Utility Private Variables
 149:../STM32Cube_FW_N6/Utilities/lcd/stm32_lcd.c ****   * @{
 150:../STM32Cube_FW_N6/Utilities/lcd/stm32_lcd.c ****   */
 151:../STM32Cube_FW_N6/Utilities/lcd/stm32_lcd.c **** 
 152:../STM32Cube_FW_N6/Utilities/lcd/stm32_lcd.c **** /**
 153:../STM32Cube_FW_N6/Utilities/lcd/stm32_lcd.c ****   * @brief  Current Drawing Layer properties variable
 154:../STM32Cube_FW_N6/Utilities/lcd/stm32_lcd.c ****   */
 155:../STM32Cube_FW_N6/Utilities/lcd/stm32_lcd.c **** static UTIL_LCD_Ctx_t DrawProp[UTIL_LCD_MAX_LAYERS_NBR];
 156:../STM32Cube_FW_N6/Utilities/lcd/stm32_lcd.c **** static LCD_UTILS_Drv_t FuncDriver;
 157:../STM32Cube_FW_N6/Utilities/lcd/stm32_lcd.c **** 
 158:../STM32Cube_FW_N6/Utilities/lcd/stm32_lcd.c **** /**
 159:../STM32Cube_FW_N6/Utilities/lcd/stm32_lcd.c ****   * @}
 160:../STM32Cube_FW_N6/Utilities/lcd/stm32_lcd.c ****   */
 161:../STM32Cube_FW_N6/Utilities/lcd/stm32_lcd.c **** 
 162:../STM32Cube_FW_N6/Utilities/lcd/stm32_lcd.c **** /** @defgroup UTIL_LCD_Private_FunctionPrototypes STM32 LCD Utility Private FunctionPrototypes
 163:../STM32Cube_FW_N6/Utilities/lcd/stm32_lcd.c ****   * @{
 164:../STM32Cube_FW_N6/Utilities/lcd/stm32_lcd.c ****   */
 165:../STM32Cube_FW_N6/Utilities/lcd/stm32_lcd.c **** static void DrawChar(uint32_t Xpos, uint32_t Ypos, const uint8_t *pData);
 166:../STM32Cube_FW_N6/Utilities/lcd/stm32_lcd.c **** static void FillTriangle(Triangle_Positions_t *Positions, uint32_t Color);
 167:../STM32Cube_FW_N6/Utilities/lcd/stm32_lcd.c **** /**
 168:../STM32Cube_FW_N6/Utilities/lcd/stm32_lcd.c ****   * @}
 169:../STM32Cube_FW_N6/Utilities/lcd/stm32_lcd.c ****   */
 170:../STM32Cube_FW_N6/Utilities/lcd/stm32_lcd.c **** 
 171:../STM32Cube_FW_N6/Utilities/lcd/stm32_lcd.c **** /** @defgroup UTIL_LCD_Exported_Functions STM32 LCD Utility Exported Functions
 172:../STM32Cube_FW_N6/Utilities/lcd/stm32_lcd.c ****   * @{
 173:../STM32Cube_FW_N6/Utilities/lcd/stm32_lcd.c ****   */
 174:../STM32Cube_FW_N6/Utilities/lcd/stm32_lcd.c **** 
 175:../STM32Cube_FW_N6/Utilities/lcd/stm32_lcd.c **** /**
 176:../STM32Cube_FW_N6/Utilities/lcd/stm32_lcd.c ****   * @brief  Link board LCD drivers to STM32 LCD Utility drivers
 177:../STM32Cube_FW_N6/Utilities/lcd/stm32_lcd.c ****   * @param  pDrv Structure of LCD functions
 178:../STM32Cube_FW_N6/Utilities/lcd/stm32_lcd.c ****   */
 179:../STM32Cube_FW_N6/Utilities/lcd/stm32_lcd.c **** void UTIL_LCD_SetFuncDriver(const LCD_UTILS_Drv_t *pDrv)
 180:../STM32Cube_FW_N6/Utilities/lcd/stm32_lcd.c **** {
  35              		.loc 1 180 1 view -0
  36              		.cfi_startproc
  37              		@ args = 0, pretend = 0, frame = 0
  38              		@ frame_needed = 0, uses_anonymous_args = 0
 181:../STM32Cube_FW_N6/Utilities/lcd/stm32_lcd.c ****   FuncDriver.DrawBitmap     = pDrv->DrawBitmap;
  39              		.loc 1 181 3 view .LVU1
 180:../STM32Cube_FW_N6/Utilities/lcd/stm32_lcd.c ****   FuncDriver.DrawBitmap     = pDrv->DrawBitmap;
  40              		.loc 1 180 1 is_stmt 0 view .LVU2
  41 0000 70B5     		push	{r4, r5, r6, lr}
  42              		.cfi_def_cfa_offset 16
  43              		.cfi_offset 4, -16
  44              		.cfi_offset 5, -12
  45              		.cfi_offset 6, -8
  46              		.cfi_offset 14, -4
 182:../STM32Cube_FW_N6/Utilities/lcd/stm32_lcd.c ****   FuncDriver.FillRGBRect    = pDrv->FillRGBRect;
ARM GAS  /tmp/ccsDiBBo.s 			page 5


 183:../STM32Cube_FW_N6/Utilities/lcd/stm32_lcd.c ****   FuncDriver.DrawHLine      = pDrv->DrawHLine;
 184:../STM32Cube_FW_N6/Utilities/lcd/stm32_lcd.c ****   FuncDriver.DrawVLine      = pDrv->DrawVLine;
 185:../STM32Cube_FW_N6/Utilities/lcd/stm32_lcd.c ****   FuncDriver.FillRect       = pDrv->FillRect;
 186:../STM32Cube_FW_N6/Utilities/lcd/stm32_lcd.c ****   FuncDriver.GetPixel       = pDrv->GetPixel;
 187:../STM32Cube_FW_N6/Utilities/lcd/stm32_lcd.c ****   FuncDriver.SetPixel       = pDrv->SetPixel;
 188:../STM32Cube_FW_N6/Utilities/lcd/stm32_lcd.c ****   FuncDriver.GetXSize       = pDrv->GetXSize;
 189:../STM32Cube_FW_N6/Utilities/lcd/stm32_lcd.c ****   FuncDriver.GetYSize       = pDrv->GetYSize;
 190:../STM32Cube_FW_N6/Utilities/lcd/stm32_lcd.c ****   FuncDriver.SetLayer       = pDrv->SetLayer;
 191:../STM32Cube_FW_N6/Utilities/lcd/stm32_lcd.c ****   FuncDriver.GetFormat      = pDrv->GetFormat;
 192:../STM32Cube_FW_N6/Utilities/lcd/stm32_lcd.c **** 
 193:../STM32Cube_FW_N6/Utilities/lcd/stm32_lcd.c ****   DrawProp->LcdLayer = 0;
  47              		.loc 1 193 22 view .LVU3
  48 0002 0026     		movs	r6, #0
 181:../STM32Cube_FW_N6/Utilities/lcd/stm32_lcd.c ****   FuncDriver.FillRGBRect    = pDrv->FillRGBRect;
  49              		.loc 1 181 29 view .LVU4
  50 0004 164C     		ldr	r4, .L2
  51 0006 0368     		ldr	r3, [r0]
 189:../STM32Cube_FW_N6/Utilities/lcd/stm32_lcd.c ****   FuncDriver.SetLayer       = pDrv->SetLayer;
  52              		.loc 1 189 29 view .LVU5
  53 0008 026A     		ldr	r2, [r0, #32]
 181:../STM32Cube_FW_N6/Utilities/lcd/stm32_lcd.c ****   FuncDriver.FillRGBRect    = pDrv->FillRGBRect;
  54              		.loc 1 181 29 view .LVU6
  55 000a 2360     		str	r3, [r4]
 182:../STM32Cube_FW_N6/Utilities/lcd/stm32_lcd.c ****   FuncDriver.FillRGBRect    = pDrv->FillRGBRect;
  56              		.loc 1 182 3 is_stmt 1 view .LVU7
 182:../STM32Cube_FW_N6/Utilities/lcd/stm32_lcd.c ****   FuncDriver.FillRGBRect    = pDrv->FillRGBRect;
  57              		.loc 1 182 29 is_stmt 0 view .LVU8
  58 000c 4368     		ldr	r3, [r0, #4]
 189:../STM32Cube_FW_N6/Utilities/lcd/stm32_lcd.c ****   FuncDriver.SetLayer       = pDrv->SetLayer;
  59              		.loc 1 189 29 view .LVU9
  60 000e 2262     		str	r2, [r4, #32]
 182:../STM32Cube_FW_N6/Utilities/lcd/stm32_lcd.c ****   FuncDriver.FillRGBRect    = pDrv->FillRGBRect;
  61              		.loc 1 182 29 view .LVU10
  62 0010 6360     		str	r3, [r4, #4]
 183:../STM32Cube_FW_N6/Utilities/lcd/stm32_lcd.c ****   FuncDriver.DrawVLine      = pDrv->DrawVLine;
  63              		.loc 1 183 3 is_stmt 1 view .LVU11
 183:../STM32Cube_FW_N6/Utilities/lcd/stm32_lcd.c ****   FuncDriver.DrawVLine      = pDrv->DrawVLine;
  64              		.loc 1 183 29 is_stmt 0 view .LVU12
  65 0012 8368     		ldr	r3, [r0, #8]
 190:../STM32Cube_FW_N6/Utilities/lcd/stm32_lcd.c ****   FuncDriver.GetFormat      = pDrv->GetFormat;
  66              		.loc 1 190 29 view .LVU13
  67 0014 426A     		ldr	r2, [r0, #36]
 183:../STM32Cube_FW_N6/Utilities/lcd/stm32_lcd.c ****   FuncDriver.DrawVLine      = pDrv->DrawVLine;
  68              		.loc 1 183 29 view .LVU14
  69 0016 A360     		str	r3, [r4, #8]
 184:../STM32Cube_FW_N6/Utilities/lcd/stm32_lcd.c ****   FuncDriver.FillRect       = pDrv->FillRect;
  70              		.loc 1 184 3 is_stmt 1 view .LVU15
 184:../STM32Cube_FW_N6/Utilities/lcd/stm32_lcd.c ****   FuncDriver.FillRect       = pDrv->FillRect;
  71              		.loc 1 184 29 is_stmt 0 view .LVU16
  72 0018 C368     		ldr	r3, [r0, #12]
  73              		.loc 1 193 22 view .LVU17
  74 001a 124D     		ldr	r5, .L2+4
 184:../STM32Cube_FW_N6/Utilities/lcd/stm32_lcd.c ****   FuncDriver.FillRect       = pDrv->FillRect;
  75              		.loc 1 184 29 view .LVU18
  76 001c E360     		str	r3, [r4, #12]
 185:../STM32Cube_FW_N6/Utilities/lcd/stm32_lcd.c ****   FuncDriver.GetPixel       = pDrv->GetPixel;
  77              		.loc 1 185 3 is_stmt 1 view .LVU19
ARM GAS  /tmp/ccsDiBBo.s 			page 6


 185:../STM32Cube_FW_N6/Utilities/lcd/stm32_lcd.c ****   FuncDriver.GetPixel       = pDrv->GetPixel;
  78              		.loc 1 185 29 is_stmt 0 view .LVU20
  79 001e 0369     		ldr	r3, [r0, #16]
 190:../STM32Cube_FW_N6/Utilities/lcd/stm32_lcd.c ****   FuncDriver.GetFormat      = pDrv->GetFormat;
  80              		.loc 1 190 29 view .LVU21
  81 0020 6262     		str	r2, [r4, #36]
 185:../STM32Cube_FW_N6/Utilities/lcd/stm32_lcd.c ****   FuncDriver.GetPixel       = pDrv->GetPixel;
  82              		.loc 1 185 29 view .LVU22
  83 0022 2361     		str	r3, [r4, #16]
 186:../STM32Cube_FW_N6/Utilities/lcd/stm32_lcd.c ****   FuncDriver.SetPixel       = pDrv->SetPixel;
  84              		.loc 1 186 3 is_stmt 1 view .LVU23
 186:../STM32Cube_FW_N6/Utilities/lcd/stm32_lcd.c ****   FuncDriver.SetPixel       = pDrv->SetPixel;
  85              		.loc 1 186 29 is_stmt 0 view .LVU24
  86 0024 4369     		ldr	r3, [r0, #20]
 191:../STM32Cube_FW_N6/Utilities/lcd/stm32_lcd.c **** 
  87              		.loc 1 191 29 view .LVU25
  88 0026 826A     		ldr	r2, [r0, #40]
 186:../STM32Cube_FW_N6/Utilities/lcd/stm32_lcd.c ****   FuncDriver.SetPixel       = pDrv->SetPixel;
  89              		.loc 1 186 29 view .LVU26
  90 0028 6361     		str	r3, [r4, #20]
 187:../STM32Cube_FW_N6/Utilities/lcd/stm32_lcd.c ****   FuncDriver.GetXSize       = pDrv->GetXSize;
  91              		.loc 1 187 3 is_stmt 1 view .LVU27
 187:../STM32Cube_FW_N6/Utilities/lcd/stm32_lcd.c ****   FuncDriver.GetXSize       = pDrv->GetXSize;
  92              		.loc 1 187 29 is_stmt 0 view .LVU28
  93 002a 8369     		ldr	r3, [r0, #24]
 194:../STM32Cube_FW_N6/Utilities/lcd/stm32_lcd.c ****   DrawProp->LcdDevice = 0;
 195:../STM32Cube_FW_N6/Utilities/lcd/stm32_lcd.c ****   FuncDriver.GetXSize(0, &DrawProp[DrawProp->LcdLayer].LcdXsize);
  94              		.loc 1 195 3 view .LVU29
  95 002c 05F11401 		add	r1, r5, #20
 187:../STM32Cube_FW_N6/Utilities/lcd/stm32_lcd.c ****   FuncDriver.GetXSize       = pDrv->GetXSize;
  96              		.loc 1 187 29 view .LVU30
  97 0030 A361     		str	r3, [r4, #24]
 188:../STM32Cube_FW_N6/Utilities/lcd/stm32_lcd.c ****   FuncDriver.GetYSize       = pDrv->GetYSize;
  98              		.loc 1 188 3 is_stmt 1 view .LVU31
 188:../STM32Cube_FW_N6/Utilities/lcd/stm32_lcd.c ****   FuncDriver.GetYSize       = pDrv->GetYSize;
  99              		.loc 1 188 35 is_stmt 0 view .LVU32
 100 0032 C369     		ldr	r3, [r0, #28]
 194:../STM32Cube_FW_N6/Utilities/lcd/stm32_lcd.c ****   DrawProp->LcdDevice = 0;
 101              		.loc 1 194 23 view .LVU33
 102 0034 C5E90366 		strd	r6, r6, [r5, #12]
 103              		.loc 1 195 3 view .LVU34
 104 0038 3046     		mov	r0, r6
 105              	.LVL1:
 188:../STM32Cube_FW_N6/Utilities/lcd/stm32_lcd.c ****   FuncDriver.GetYSize       = pDrv->GetYSize;
 106              		.loc 1 188 29 view .LVU35
 107 003a E361     		str	r3, [r4, #28]
 189:../STM32Cube_FW_N6/Utilities/lcd/stm32_lcd.c ****   FuncDriver.SetLayer       = pDrv->SetLayer;
 108              		.loc 1 189 3 is_stmt 1 view .LVU36
 190:../STM32Cube_FW_N6/Utilities/lcd/stm32_lcd.c ****   FuncDriver.GetFormat      = pDrv->GetFormat;
 109              		.loc 1 190 3 view .LVU37
 191:../STM32Cube_FW_N6/Utilities/lcd/stm32_lcd.c **** 
 110              		.loc 1 191 3 view .LVU38
 191:../STM32Cube_FW_N6/Utilities/lcd/stm32_lcd.c **** 
 111              		.loc 1 191 29 is_stmt 0 view .LVU39
 112 003c A262     		str	r2, [r4, #40]
 193:../STM32Cube_FW_N6/Utilities/lcd/stm32_lcd.c ****   DrawProp->LcdDevice = 0;
 113              		.loc 1 193 3 is_stmt 1 view .LVU40
ARM GAS  /tmp/ccsDiBBo.s 			page 7


 114              		.loc 1 195 3 view .LVU41
 115 003e 9847     		blx	r3
 116              	.LVL2:
 196:../STM32Cube_FW_N6/Utilities/lcd/stm32_lcd.c ****   FuncDriver.GetYSize(0, &DrawProp[DrawProp->LcdLayer].LcdYsize);
 117              		.loc 1 196 3 view .LVU42
 118 0040 E968     		ldr	r1, [r5, #12]
 119 0042 236A     		ldr	r3, [r4, #32]
 120 0044 05EB4111 		add	r1, r5, r1, lsl #5
 121 0048 3046     		mov	r0, r6
 122 004a 1831     		adds	r1, r1, #24
 123 004c 9847     		blx	r3
 124              	.LVL3:
 197:../STM32Cube_FW_N6/Utilities/lcd/stm32_lcd.c ****   FuncDriver.GetFormat(0, &DrawProp[DrawProp->LcdLayer].LcdPixelFormat);
 125              		.loc 1 197 3 view .LVU43
 126 004e EB68     		ldr	r3, [r5, #12]
 127 0050 3046     		mov	r0, r6
 128 0052 05EB4311 		add	r1, r5, r3, lsl #5
 129 0056 1C31     		adds	r1, r1, #28
 130 0058 A36A     		ldr	r3, [r4, #40]
 198:../STM32Cube_FW_N6/Utilities/lcd/stm32_lcd.c **** }
 131              		.loc 1 198 1 is_stmt 0 view .LVU44
 132 005a BDE87040 		pop	{r4, r5, r6, lr}
 133              		.cfi_restore 14
 134              		.cfi_restore 6
 135              		.cfi_restore 5
 136              		.cfi_restore 4
 137              		.cfi_def_cfa_offset 0
 197:../STM32Cube_FW_N6/Utilities/lcd/stm32_lcd.c ****   FuncDriver.GetFormat(0, &DrawProp[DrawProp->LcdLayer].LcdPixelFormat);
 138              		.loc 1 197 3 view .LVU45
 139 005e 1847     		bx	r3
 140              	.LVL4:
 141              	.L3:
 142              		.align	2
 143              	.L2:
 144 0060 00000000 		.word	FuncDriver
 145 0064 00000000 		.word	DrawProp
 146              		.cfi_endproc
 147              	.LFE0:
 149              		.section	.text.UTIL_LCD_SetLayer,"ax",%progbits
 150              		.align	1
 151              		.global	UTIL_LCD_SetLayer
 152              		.syntax unified
 153              		.thumb
 154              		.thumb_func
 156              	UTIL_LCD_SetLayer:
 157              	.LVL5:
 158              	.LFB1:
 199:../STM32Cube_FW_N6/Utilities/lcd/stm32_lcd.c **** 
 200:../STM32Cube_FW_N6/Utilities/lcd/stm32_lcd.c **** /**
 201:../STM32Cube_FW_N6/Utilities/lcd/stm32_lcd.c ****   * @brief  Set the LCD layer.
 202:../STM32Cube_FW_N6/Utilities/lcd/stm32_lcd.c ****   * @param  Layer  LCD layer
 203:../STM32Cube_FW_N6/Utilities/lcd/stm32_lcd.c ****   */
 204:../STM32Cube_FW_N6/Utilities/lcd/stm32_lcd.c **** void UTIL_LCD_SetLayer(uint32_t Layer)
 205:../STM32Cube_FW_N6/Utilities/lcd/stm32_lcd.c **** {
 159              		.loc 1 205 1 is_stmt 1 view -0
 160              		.cfi_startproc
 161              		@ args = 0, pretend = 0, frame = 0
ARM GAS  /tmp/ccsDiBBo.s 			page 8


 162              		@ frame_needed = 0, uses_anonymous_args = 0
 206:../STM32Cube_FW_N6/Utilities/lcd/stm32_lcd.c ****   if(FuncDriver.SetLayer != NULL)
 163              		.loc 1 206 3 view .LVU47
 205:../STM32Cube_FW_N6/Utilities/lcd/stm32_lcd.c ****   if(FuncDriver.SetLayer != NULL)
 164              		.loc 1 205 1 is_stmt 0 view .LVU48
 165 0000 70B5     		push	{r4, r5, r6, lr}
 166              		.cfi_def_cfa_offset 16
 167              		.cfi_offset 4, -16
 168              		.cfi_offset 5, -12
 169              		.cfi_offset 6, -8
 170              		.cfi_offset 14, -4
 171              		.loc 1 206 16 view .LVU49
 172 0002 104E     		ldr	r6, .L8
 205:../STM32Cube_FW_N6/Utilities/lcd/stm32_lcd.c ****   if(FuncDriver.SetLayer != NULL)
 173              		.loc 1 205 1 view .LVU50
 174 0004 0546     		mov	r5, r0
 175              		.loc 1 206 16 view .LVU51
 176 0006 736A     		ldr	r3, [r6, #36]
 177              		.loc 1 206 5 view .LVU52
 178 0008 DBB1     		cbz	r3, .L4
 207:../STM32Cube_FW_N6/Utilities/lcd/stm32_lcd.c ****   {
 208:../STM32Cube_FW_N6/Utilities/lcd/stm32_lcd.c ****     if(FuncDriver.SetLayer(DrawProp->LcdDevice, Layer) == 0)
 179              		.loc 1 208 5 is_stmt 1 view .LVU53
 180              		.loc 1 208 8 is_stmt 0 view .LVU54
 181 000a 0F4C     		ldr	r4, .L8+4
 182 000c 0146     		mov	r1, r0
 183 000e 2069     		ldr	r0, [r4, #16]
 184              	.LVL6:
 185              		.loc 1 208 8 view .LVU55
 186 0010 9847     		blx	r3
 187              	.LVL7:
 188              		.loc 1 208 7 discriminator 1 view .LVU56
 189 0012 B0B9     		cbnz	r0, .L4
 209:../STM32Cube_FW_N6/Utilities/lcd/stm32_lcd.c ****     {
 210:../STM32Cube_FW_N6/Utilities/lcd/stm32_lcd.c ****       DrawProp->LcdLayer = Layer;
 190              		.loc 1 210 7 is_stmt 1 view .LVU57
 211:../STM32Cube_FW_N6/Utilities/lcd/stm32_lcd.c ****       FuncDriver.GetXSize(DrawProp->LcdDevice, &DrawProp[DrawProp->LcdLayer].LcdXsize);
 191              		.loc 1 211 7 is_stmt 0 view .LVU58
 192 0014 04EB4511 		add	r1, r4, r5, lsl #5
 193 0018 F369     		ldr	r3, [r6, #28]
 194 001a 2069     		ldr	r0, [r4, #16]
 210:../STM32Cube_FW_N6/Utilities/lcd/stm32_lcd.c ****       FuncDriver.GetXSize(DrawProp->LcdDevice, &DrawProp[DrawProp->LcdLayer].LcdXsize);
 195              		.loc 1 210 26 view .LVU59
 196 001c E560     		str	r5, [r4, #12]
 197              		.loc 1 211 7 is_stmt 1 view .LVU60
 198 001e 1431     		adds	r1, r1, #20
 199 0020 9847     		blx	r3
 200              	.LVL8:
 212:../STM32Cube_FW_N6/Utilities/lcd/stm32_lcd.c ****       FuncDriver.GetYSize(DrawProp->LcdDevice, &DrawProp[DrawProp->LcdLayer].LcdYsize);
 201              		.loc 1 212 7 view .LVU61
 202 0022 E168     		ldr	r1, [r4, #12]
 203 0024 336A     		ldr	r3, [r6, #32]
 204 0026 04EB4111 		add	r1, r4, r1, lsl #5
 205 002a 2069     		ldr	r0, [r4, #16]
 206 002c 1831     		adds	r1, r1, #24
 207 002e 9847     		blx	r3
 208              	.LVL9:
ARM GAS  /tmp/ccsDiBBo.s 			page 9


 213:../STM32Cube_FW_N6/Utilities/lcd/stm32_lcd.c ****       FuncDriver.GetFormat(DrawProp->LcdDevice, &DrawProp[DrawProp->LcdLayer].LcdPixelFormat);
 209              		.loc 1 213 7 view .LVU62
 210 0030 E168     		ldr	r1, [r4, #12]
 211 0032 B36A     		ldr	r3, [r6, #40]
 212 0034 04EB4111 		add	r1, r4, r1, lsl #5
 213 0038 2069     		ldr	r0, [r4, #16]
 214 003a 1C31     		adds	r1, r1, #28
 214:../STM32Cube_FW_N6/Utilities/lcd/stm32_lcd.c ****     }
 215:../STM32Cube_FW_N6/Utilities/lcd/stm32_lcd.c ****   }
 216:../STM32Cube_FW_N6/Utilities/lcd/stm32_lcd.c **** }
 215              		.loc 1 216 1 is_stmt 0 view .LVU63
 216 003c BDE87040 		pop	{r4, r5, r6, lr}
 217              		.cfi_remember_state
 218              		.cfi_restore 14
 219              		.cfi_restore 6
 220              		.cfi_restore 5
 221              		.cfi_restore 4
 222              		.cfi_def_cfa_offset 0
 223              	.LVL10:
 213:../STM32Cube_FW_N6/Utilities/lcd/stm32_lcd.c ****       FuncDriver.GetFormat(DrawProp->LcdDevice, &DrawProp[DrawProp->LcdLayer].LcdPixelFormat);
 224              		.loc 1 213 7 view .LVU64
 225 0040 1847     		bx	r3
 226              	.LVL11:
 227              	.L4:
 228              		.cfi_restore_state
 229              		.loc 1 216 1 view .LVU65
 230 0042 70BD     		pop	{r4, r5, r6, pc}
 231              	.LVL12:
 232              	.L9:
 233              		.loc 1 216 1 view .LVU66
 234              		.align	2
 235              	.L8:
 236 0044 00000000 		.word	FuncDriver
 237 0048 00000000 		.word	DrawProp
 238              		.cfi_endproc
 239              	.LFE1:
 241              		.section	.text.UTIL_LCD_SetDevice,"ax",%progbits
 242              		.align	1
 243              		.global	UTIL_LCD_SetDevice
 244              		.syntax unified
 245              		.thumb
 246              		.thumb_func
 248              	UTIL_LCD_SetDevice:
 249              	.LVL13:
 250              	.LFB2:
 217:../STM32Cube_FW_N6/Utilities/lcd/stm32_lcd.c **** 
 218:../STM32Cube_FW_N6/Utilities/lcd/stm32_lcd.c **** /**
 219:../STM32Cube_FW_N6/Utilities/lcd/stm32_lcd.c ****   * @brief  Set the LCD instance to be used.
 220:../STM32Cube_FW_N6/Utilities/lcd/stm32_lcd.c ****   * @param  Device  LCD instance
 221:../STM32Cube_FW_N6/Utilities/lcd/stm32_lcd.c ****   */
 222:../STM32Cube_FW_N6/Utilities/lcd/stm32_lcd.c **** void UTIL_LCD_SetDevice(uint32_t Device)
 223:../STM32Cube_FW_N6/Utilities/lcd/stm32_lcd.c **** {
 251              		.loc 1 223 1 is_stmt 1 view -0
 252              		.cfi_startproc
 253              		@ args = 0, pretend = 0, frame = 0
 254              		@ frame_needed = 0, uses_anonymous_args = 0
 224:../STM32Cube_FW_N6/Utilities/lcd/stm32_lcd.c ****   DrawProp->LcdDevice = Device;
ARM GAS  /tmp/ccsDiBBo.s 			page 10


 255              		.loc 1 224 3 view .LVU68
 223:../STM32Cube_FW_N6/Utilities/lcd/stm32_lcd.c ****   DrawProp->LcdDevice = Device;
 256              		.loc 1 223 1 is_stmt 0 view .LVU69
 257 0000 70B5     		push	{r4, r5, r6, lr}
 258              		.cfi_def_cfa_offset 16
 259              		.cfi_offset 4, -16
 260              		.cfi_offset 5, -12
 261              		.cfi_offset 6, -8
 262              		.cfi_offset 14, -4
 223:../STM32Cube_FW_N6/Utilities/lcd/stm32_lcd.c ****   DrawProp->LcdDevice = Device;
 263              		.loc 1 223 1 view .LVU70
 264 0002 0446     		mov	r4, r0
 265              		.loc 1 224 23 view .LVU71
 266 0004 064D     		ldr	r5, .L11
 225:../STM32Cube_FW_N6/Utilities/lcd/stm32_lcd.c ****   FuncDriver.GetXSize(Device, &DrawProp->LcdXsize);
 267              		.loc 1 225 13 view .LVU72
 268 0006 074E     		ldr	r6, .L11+4
 269              		.loc 1 225 3 view .LVU73
 270 0008 05F11401 		add	r1, r5, #20
 271 000c F369     		ldr	r3, [r6, #28]
 224:../STM32Cube_FW_N6/Utilities/lcd/stm32_lcd.c ****   DrawProp->LcdDevice = Device;
 272              		.loc 1 224 23 view .LVU74
 273 000e 2861     		str	r0, [r5, #16]
 274              		.loc 1 225 3 is_stmt 1 view .LVU75
 275 0010 9847     		blx	r3
 276              	.LVL14:
 226:../STM32Cube_FW_N6/Utilities/lcd/stm32_lcd.c ****   FuncDriver.GetYSize(Device, &DrawProp->LcdYsize);
 277              		.loc 1 226 3 view .LVU76
 278 0012 2046     		mov	r0, r4
 279 0014 336A     		ldr	r3, [r6, #32]
 280 0016 05F11801 		add	r1, r5, #24
 227:../STM32Cube_FW_N6/Utilities/lcd/stm32_lcd.c **** }
 281              		.loc 1 227 1 is_stmt 0 view .LVU77
 282 001a BDE87040 		pop	{r4, r5, r6, lr}
 283              		.cfi_restore 14
 284              		.cfi_restore 6
 285              		.cfi_restore 5
 286              		.cfi_restore 4
 287              		.cfi_def_cfa_offset 0
 288              	.LVL15:
 226:../STM32Cube_FW_N6/Utilities/lcd/stm32_lcd.c ****   FuncDriver.GetYSize(Device, &DrawProp->LcdYsize);
 289              		.loc 1 226 3 view .LVU78
 290 001e 1847     		bx	r3
 291              	.LVL16:
 292              	.L12:
 226:../STM32Cube_FW_N6/Utilities/lcd/stm32_lcd.c ****   FuncDriver.GetYSize(Device, &DrawProp->LcdYsize);
 293              		.loc 1 226 3 view .LVU79
 294              		.align	2
 295              	.L11:
 296 0020 00000000 		.word	DrawProp
 297 0024 00000000 		.word	FuncDriver
 298              		.cfi_endproc
 299              	.LFE2:
 301              		.section	.text.UTIL_LCD_SetTextColor,"ax",%progbits
 302              		.align	1
 303              		.global	UTIL_LCD_SetTextColor
 304              		.syntax unified
ARM GAS  /tmp/ccsDiBBo.s 			page 11


 305              		.thumb
 306              		.thumb_func
 308              	UTIL_LCD_SetTextColor:
 309              	.LVL17:
 310              	.LFB3:
 228:../STM32Cube_FW_N6/Utilities/lcd/stm32_lcd.c **** 
 229:../STM32Cube_FW_N6/Utilities/lcd/stm32_lcd.c **** /**
 230:../STM32Cube_FW_N6/Utilities/lcd/stm32_lcd.c ****   * @brief  Sets the LCD text color.
 231:../STM32Cube_FW_N6/Utilities/lcd/stm32_lcd.c ****   * @param  Color  Text color code
 232:../STM32Cube_FW_N6/Utilities/lcd/stm32_lcd.c ****   */
 233:../STM32Cube_FW_N6/Utilities/lcd/stm32_lcd.c **** void UTIL_LCD_SetTextColor(uint32_t Color)
 234:../STM32Cube_FW_N6/Utilities/lcd/stm32_lcd.c **** {
 311              		.loc 1 234 1 is_stmt 1 view -0
 312              		.cfi_startproc
 313              		@ args = 0, pretend = 0, frame = 0
 314              		@ frame_needed = 0, uses_anonymous_args = 0
 315              		@ link register save eliminated.
 235:../STM32Cube_FW_N6/Utilities/lcd/stm32_lcd.c ****   DrawProp[DrawProp->LcdLayer].TextColor = Color;
 316              		.loc 1 235 3 view .LVU81
 317              		.loc 1 235 42 is_stmt 0 view .LVU82
 318 0000 024A     		ldr	r2, .L14
 319 0002 D368     		ldr	r3, [r2, #12]
 320 0004 5B01     		lsls	r3, r3, #5
 321 0006 D050     		str	r0, [r2, r3]
 236:../STM32Cube_FW_N6/Utilities/lcd/stm32_lcd.c **** }
 322              		.loc 1 236 1 view .LVU83
 323 0008 7047     		bx	lr
 324              	.L15:
 325 000a 00BF     		.align	2
 326              	.L14:
 327 000c 00000000 		.word	DrawProp
 328              		.cfi_endproc
 329              	.LFE3:
 331              		.section	.text.UTIL_LCD_GetTextColor,"ax",%progbits
 332              		.align	1
 333              		.global	UTIL_LCD_GetTextColor
 334              		.syntax unified
 335              		.thumb
 336              		.thumb_func
 338              	UTIL_LCD_GetTextColor:
 339              	.LFB4:
 237:../STM32Cube_FW_N6/Utilities/lcd/stm32_lcd.c **** 
 238:../STM32Cube_FW_N6/Utilities/lcd/stm32_lcd.c **** /**
 239:../STM32Cube_FW_N6/Utilities/lcd/stm32_lcd.c ****   * @brief  Gets the LCD text color.
 240:../STM32Cube_FW_N6/Utilities/lcd/stm32_lcd.c ****   * @retval Used text color.
 241:../STM32Cube_FW_N6/Utilities/lcd/stm32_lcd.c ****   */
 242:../STM32Cube_FW_N6/Utilities/lcd/stm32_lcd.c **** uint32_t UTIL_LCD_GetTextColor(void)
 243:../STM32Cube_FW_N6/Utilities/lcd/stm32_lcd.c **** {
 340              		.loc 1 243 1 is_stmt 1 view -0
 341              		.cfi_startproc
 342              		@ args = 0, pretend = 0, frame = 0
 343              		@ frame_needed = 0, uses_anonymous_args = 0
 344              		@ link register save eliminated.
 244:../STM32Cube_FW_N6/Utilities/lcd/stm32_lcd.c ****   return DrawProp[DrawProp->LcdLayer].TextColor;
 345              		.loc 1 244 3 view .LVU85
 346              		.loc 1 244 38 is_stmt 0 view .LVU86
 347 0000 024A     		ldr	r2, .L17
ARM GAS  /tmp/ccsDiBBo.s 			page 12


 348 0002 D368     		ldr	r3, [r2, #12]
 349 0004 5B01     		lsls	r3, r3, #5
 245:../STM32Cube_FW_N6/Utilities/lcd/stm32_lcd.c **** }
 350              		.loc 1 245 1 view .LVU87
 351 0006 D058     		ldr	r0, [r2, r3]
 352 0008 7047     		bx	lr
 353              	.L18:
 354 000a 00BF     		.align	2
 355              	.L17:
 356 000c 00000000 		.word	DrawProp
 357              		.cfi_endproc
 358              	.LFE4:
 360              		.section	.text.UTIL_LCD_SetBackColor,"ax",%progbits
 361              		.align	1
 362              		.global	UTIL_LCD_SetBackColor
 363              		.syntax unified
 364              		.thumb
 365              		.thumb_func
 367              	UTIL_LCD_SetBackColor:
 368              	.LVL18:
 369              	.LFB5:
 246:../STM32Cube_FW_N6/Utilities/lcd/stm32_lcd.c **** 
 247:../STM32Cube_FW_N6/Utilities/lcd/stm32_lcd.c **** /**
 248:../STM32Cube_FW_N6/Utilities/lcd/stm32_lcd.c ****   * @brief  Sets the LCD background color.
 249:../STM32Cube_FW_N6/Utilities/lcd/stm32_lcd.c ****   * @param  Color  Layer background color code
 250:../STM32Cube_FW_N6/Utilities/lcd/stm32_lcd.c ****   */
 251:../STM32Cube_FW_N6/Utilities/lcd/stm32_lcd.c **** void UTIL_LCD_SetBackColor(uint32_t Color)
 252:../STM32Cube_FW_N6/Utilities/lcd/stm32_lcd.c **** {
 370              		.loc 1 252 1 is_stmt 1 view -0
 371              		.cfi_startproc
 372              		@ args = 0, pretend = 0, frame = 0
 373              		@ frame_needed = 0, uses_anonymous_args = 0
 374              		@ link register save eliminated.
 253:../STM32Cube_FW_N6/Utilities/lcd/stm32_lcd.c ****   DrawProp[DrawProp->LcdLayer].BackColor = Color;
 375              		.loc 1 253 3 view .LVU89
 376              		.loc 1 253 42 is_stmt 0 view .LVU90
 377 0000 024B     		ldr	r3, .L20
 378 0002 DA68     		ldr	r2, [r3, #12]
 379 0004 03EB4213 		add	r3, r3, r2, lsl #5
 380 0008 5860     		str	r0, [r3, #4]
 254:../STM32Cube_FW_N6/Utilities/lcd/stm32_lcd.c **** }
 381              		.loc 1 254 1 view .LVU91
 382 000a 7047     		bx	lr
 383              	.L21:
 384              		.align	2
 385              	.L20:
 386 000c 00000000 		.word	DrawProp
 387              		.cfi_endproc
 388              	.LFE5:
 390              		.section	.text.UTIL_LCD_GetBackColor,"ax",%progbits
 391              		.align	1
 392              		.global	UTIL_LCD_GetBackColor
 393              		.syntax unified
 394              		.thumb
 395              		.thumb_func
 397              	UTIL_LCD_GetBackColor:
 398              	.LFB6:
ARM GAS  /tmp/ccsDiBBo.s 			page 13


 255:../STM32Cube_FW_N6/Utilities/lcd/stm32_lcd.c **** 
 256:../STM32Cube_FW_N6/Utilities/lcd/stm32_lcd.c **** /**
 257:../STM32Cube_FW_N6/Utilities/lcd/stm32_lcd.c ****   * @brief  Gets the LCD background color.
 258:../STM32Cube_FW_N6/Utilities/lcd/stm32_lcd.c ****   * @retval Used background color
 259:../STM32Cube_FW_N6/Utilities/lcd/stm32_lcd.c ****   */
 260:../STM32Cube_FW_N6/Utilities/lcd/stm32_lcd.c **** uint32_t UTIL_LCD_GetBackColor(void)
 261:../STM32Cube_FW_N6/Utilities/lcd/stm32_lcd.c **** {
 399              		.loc 1 261 1 is_stmt 1 view -0
 400              		.cfi_startproc
 401              		@ args = 0, pretend = 0, frame = 0
 402              		@ frame_needed = 0, uses_anonymous_args = 0
 403              		@ link register save eliminated.
 262:../STM32Cube_FW_N6/Utilities/lcd/stm32_lcd.c ****   return DrawProp[DrawProp->LcdLayer].BackColor;
 404              		.loc 1 262 3 view .LVU93
 405              		.loc 1 262 38 is_stmt 0 view .LVU94
 406 0000 024B     		ldr	r3, .L23
 407 0002 DA68     		ldr	r2, [r3, #12]
 408 0004 03EB4213 		add	r3, r3, r2, lsl #5
 263:../STM32Cube_FW_N6/Utilities/lcd/stm32_lcd.c **** }
 409              		.loc 1 263 1 view .LVU95
 410 0008 5868     		ldr	r0, [r3, #4]
 411 000a 7047     		bx	lr
 412              	.L24:
 413              		.align	2
 414              	.L23:
 415 000c 00000000 		.word	DrawProp
 416              		.cfi_endproc
 417              	.LFE6:
 419              		.section	.text.UTIL_LCD_SetFont,"ax",%progbits
 420              		.align	1
 421              		.global	UTIL_LCD_SetFont
 422              		.syntax unified
 423              		.thumb
 424              		.thumb_func
 426              	UTIL_LCD_SetFont:
 427              	.LVL19:
 428              	.LFB7:
 264:../STM32Cube_FW_N6/Utilities/lcd/stm32_lcd.c **** 
 265:../STM32Cube_FW_N6/Utilities/lcd/stm32_lcd.c **** /**
 266:../STM32Cube_FW_N6/Utilities/lcd/stm32_lcd.c ****   * @brief  Sets the LCD text font.
 267:../STM32Cube_FW_N6/Utilities/lcd/stm32_lcd.c ****   * @param  fonts  Layer font to be used
 268:../STM32Cube_FW_N6/Utilities/lcd/stm32_lcd.c ****   */
 269:../STM32Cube_FW_N6/Utilities/lcd/stm32_lcd.c **** void UTIL_LCD_SetFont(sFONT *fonts)
 270:../STM32Cube_FW_N6/Utilities/lcd/stm32_lcd.c **** {
 429              		.loc 1 270 1 is_stmt 1 view -0
 430              		.cfi_startproc
 431              		@ args = 0, pretend = 0, frame = 0
 432              		@ frame_needed = 0, uses_anonymous_args = 0
 433              		@ link register save eliminated.
 271:../STM32Cube_FW_N6/Utilities/lcd/stm32_lcd.c ****   DrawProp[DrawProp->LcdLayer].pFont = fonts;
 434              		.loc 1 271 3 view .LVU97
 435              		.loc 1 271 38 is_stmt 0 view .LVU98
 436 0000 024B     		ldr	r3, .L26
 437 0002 DA68     		ldr	r2, [r3, #12]
 438 0004 03EB4213 		add	r3, r3, r2, lsl #5
 439 0008 9860     		str	r0, [r3, #8]
 272:../STM32Cube_FW_N6/Utilities/lcd/stm32_lcd.c **** }
ARM GAS  /tmp/ccsDiBBo.s 			page 14


 440              		.loc 1 272 1 view .LVU99
 441 000a 7047     		bx	lr
 442              	.L27:
 443              		.align	2
 444              	.L26:
 445 000c 00000000 		.word	DrawProp
 446              		.cfi_endproc
 447              	.LFE7:
 449              		.section	.text.UTIL_LCD_GetFont,"ax",%progbits
 450              		.align	1
 451              		.global	UTIL_LCD_GetFont
 452              		.syntax unified
 453              		.thumb
 454              		.thumb_func
 456              	UTIL_LCD_GetFont:
 457              	.LFB8:
 273:../STM32Cube_FW_N6/Utilities/lcd/stm32_lcd.c **** 
 274:../STM32Cube_FW_N6/Utilities/lcd/stm32_lcd.c **** /**
 275:../STM32Cube_FW_N6/Utilities/lcd/stm32_lcd.c ****   * @brief  Gets the LCD text font.
 276:../STM32Cube_FW_N6/Utilities/lcd/stm32_lcd.c ****   * @retval Used layer font
 277:../STM32Cube_FW_N6/Utilities/lcd/stm32_lcd.c ****   */
 278:../STM32Cube_FW_N6/Utilities/lcd/stm32_lcd.c **** sFONT *UTIL_LCD_GetFont(void)
 279:../STM32Cube_FW_N6/Utilities/lcd/stm32_lcd.c **** {
 458              		.loc 1 279 1 is_stmt 1 view -0
 459              		.cfi_startproc
 460              		@ args = 0, pretend = 0, frame = 0
 461              		@ frame_needed = 0, uses_anonymous_args = 0
 462              		@ link register save eliminated.
 280:../STM32Cube_FW_N6/Utilities/lcd/stm32_lcd.c ****   return DrawProp[DrawProp->LcdLayer].pFont;
 463              		.loc 1 280 3 view .LVU101
 464              		.loc 1 280 38 is_stmt 0 view .LVU102
 465 0000 024B     		ldr	r3, .L29
 466 0002 DA68     		ldr	r2, [r3, #12]
 467 0004 03EB4213 		add	r3, r3, r2, lsl #5
 281:../STM32Cube_FW_N6/Utilities/lcd/stm32_lcd.c **** }
 468              		.loc 1 281 1 view .LVU103
 469 0008 9868     		ldr	r0, [r3, #8]
 470 000a 7047     		bx	lr
 471              	.L30:
 472              		.align	2
 473              	.L29:
 474 000c 00000000 		.word	DrawProp
 475              		.cfi_endproc
 476              	.LFE8:
 478              		.section	.text.UTIL_LCD_FillRGBRect,"ax",%progbits
 479              		.align	1
 480              		.global	UTIL_LCD_FillRGBRect
 481              		.syntax unified
 482              		.thumb
 483              		.thumb_func
 485              	UTIL_LCD_FillRGBRect:
 486              	.LVL20:
 487              	.LFB9:
 282:../STM32Cube_FW_N6/Utilities/lcd/stm32_lcd.c **** 
 283:../STM32Cube_FW_N6/Utilities/lcd/stm32_lcd.c **** /**
 284:../STM32Cube_FW_N6/Utilities/lcd/stm32_lcd.c ****   * @brief  Draws a RGB rectangle in currently active layer.
 285:../STM32Cube_FW_N6/Utilities/lcd/stm32_lcd.c ****   * @param  pData   Pointer to RGB rectangle data
ARM GAS  /tmp/ccsDiBBo.s 			page 15


 286:../STM32Cube_FW_N6/Utilities/lcd/stm32_lcd.c ****   * @param  Xpos    X position
 287:../STM32Cube_FW_N6/Utilities/lcd/stm32_lcd.c ****   * @param  Ypos    Y position
 288:../STM32Cube_FW_N6/Utilities/lcd/stm32_lcd.c ****   * @param  Length  Line length
 289:../STM32Cube_FW_N6/Utilities/lcd/stm32_lcd.c ****   */
 290:../STM32Cube_FW_N6/Utilities/lcd/stm32_lcd.c **** void UTIL_LCD_FillRGBRect(uint32_t Xpos, uint32_t Ypos, uint8_t *pData, uint32_t Width, uint32_t He
 291:../STM32Cube_FW_N6/Utilities/lcd/stm32_lcd.c **** {
 488              		.loc 1 291 1 is_stmt 1 view -0
 489              		.cfi_startproc
 490              		@ args = 4, pretend = 0, frame = 0
 491              		@ frame_needed = 0, uses_anonymous_args = 0
 292:../STM32Cube_FW_N6/Utilities/lcd/stm32_lcd.c ****   /* Write RGB rectangle data */
 293:../STM32Cube_FW_N6/Utilities/lcd/stm32_lcd.c ****   FuncDriver.FillRGBRect(DrawProp->LcdDevice, Xpos, Ypos, pData, Width, Height);
 492              		.loc 1 293 3 view .LVU105
 291:../STM32Cube_FW_N6/Utilities/lcd/stm32_lcd.c ****   /* Write RGB rectangle data */
 493              		.loc 1 291 1 is_stmt 0 view .LVU106
 494 0000 13B5     		push	{r0, r1, r4, lr}
 495              		.cfi_def_cfa_offset 16
 496              		.cfi_offset 4, -8
 497              		.cfi_offset 14, -4
 498              		.loc 1 293 3 view .LVU107
 499 0002 049C     		ldr	r4, [sp, #16]
 500 0004 CDE90034 		strd	r3, r4, [sp]
 501 0008 044B     		ldr	r3, .L32
 502              	.LVL21:
 503              		.loc 1 293 3 view .LVU108
 504 000a 5C68     		ldr	r4, [r3, #4]
 505 000c 1346     		mov	r3, r2
 506 000e 0A46     		mov	r2, r1
 507              	.LVL22:
 508              		.loc 1 293 3 view .LVU109
 509 0010 0146     		mov	r1, r0
 510              	.LVL23:
 511              		.loc 1 293 3 view .LVU110
 512 0012 0348     		ldr	r0, .L32+4
 513              	.LVL24:
 514              		.loc 1 293 3 view .LVU111
 515 0014 0069     		ldr	r0, [r0, #16]
 516 0016 A047     		blx	r4
 517              	.LVL25:
 294:../STM32Cube_FW_N6/Utilities/lcd/stm32_lcd.c **** }
 518              		.loc 1 294 1 view .LVU112
 519 0018 02B0     		add	sp, sp, #8
 520              		.cfi_def_cfa_offset 8
 521              		@ sp needed
 522 001a 10BD     		pop	{r4, pc}
 523              	.LVL26:
 524              	.L33:
 525              		.loc 1 294 1 view .LVU113
 526              		.align	2
 527              	.L32:
 528 001c 00000000 		.word	FuncDriver
 529 0020 00000000 		.word	DrawProp
 530              		.cfi_endproc
 531              	.LFE9:
 533              		.section	.text.UTIL_LCD_DrawHLine,"ax",%progbits
 534              		.align	1
 535              		.global	UTIL_LCD_DrawHLine
ARM GAS  /tmp/ccsDiBBo.s 			page 16


 536              		.syntax unified
 537              		.thumb
 538              		.thumb_func
 540              	UTIL_LCD_DrawHLine:
 541              	.LVL27:
 542              	.LFB10:
 295:../STM32Cube_FW_N6/Utilities/lcd/stm32_lcd.c **** 
 296:../STM32Cube_FW_N6/Utilities/lcd/stm32_lcd.c **** /**
 297:../STM32Cube_FW_N6/Utilities/lcd/stm32_lcd.c ****   * @brief  Draws an horizontal line in currently active layer.
 298:../STM32Cube_FW_N6/Utilities/lcd/stm32_lcd.c ****   * @param  Xpos    X position
 299:../STM32Cube_FW_N6/Utilities/lcd/stm32_lcd.c ****   * @param  Ypos    Y position
 300:../STM32Cube_FW_N6/Utilities/lcd/stm32_lcd.c ****   * @param  Length  Line length
 301:../STM32Cube_FW_N6/Utilities/lcd/stm32_lcd.c ****   * @param  Color   Draw color
 302:../STM32Cube_FW_N6/Utilities/lcd/stm32_lcd.c ****   */
 303:../STM32Cube_FW_N6/Utilities/lcd/stm32_lcd.c **** void UTIL_LCD_DrawHLine(uint32_t Xpos, uint32_t Ypos, uint32_t Length, uint32_t Color)
 304:../STM32Cube_FW_N6/Utilities/lcd/stm32_lcd.c **** {
 543              		.loc 1 304 1 is_stmt 1 view -0
 544              		.cfi_startproc
 545              		@ args = 0, pretend = 0, frame = 0
 546              		@ frame_needed = 0, uses_anonymous_args = 0
 305:../STM32Cube_FW_N6/Utilities/lcd/stm32_lcd.c ****   /* Write line */
 306:../STM32Cube_FW_N6/Utilities/lcd/stm32_lcd.c ****   if(DrawProp[DrawProp->LcdLayer].LcdPixelFormat == LCD_PIXEL_FORMAT_RGB565)
 547              		.loc 1 306 3 view .LVU115
 304:../STM32Cube_FW_N6/Utilities/lcd/stm32_lcd.c ****   /* Write line */
 548              		.loc 1 304 1 is_stmt 0 view .LVU116
 549 0000 F7B5     		push	{r0, r1, r2, r4, r5, r6, r7, lr}
 550              		.cfi_def_cfa_offset 32
 551              		.cfi_offset 4, -20
 552              		.cfi_offset 5, -16
 553              		.cfi_offset 6, -12
 554              		.cfi_offset 7, -8
 555              		.cfi_offset 14, -4
 304:../STM32Cube_FW_N6/Utilities/lcd/stm32_lcd.c ****   /* Write line */
 556              		.loc 1 304 1 view .LVU117
 557 0002 0646     		mov	r6, r0
 558              		.loc 1 306 34 view .LVU118
 559 0004 1748     		ldr	r0, .L41
 560              	.LVL28:
 307:../STM32Cube_FW_N6/Utilities/lcd/stm32_lcd.c ****   {
 308:../STM32Cube_FW_N6/Utilities/lcd/stm32_lcd.c ****     FuncDriver.DrawHLine(DrawProp->LcdDevice, Xpos, Ypos, Length, CONVERTARGB88882RGB565(Color));
 561              		.loc 1 308 15 view .LVU119
 562 0006 184D     		ldr	r5, .L41+4
 306:../STM32Cube_FW_N6/Utilities/lcd/stm32_lcd.c ****   {
 563              		.loc 1 306 34 view .LVU120
 564 0008 C468     		ldr	r4, [r0, #12]
 565              		.loc 1 308 15 view .LVU121
 566 000a AD68     		ldr	r5, [r5, #8]
 306:../STM32Cube_FW_N6/Utilities/lcd/stm32_lcd.c ****   {
 567              		.loc 1 306 34 view .LVU122
 568 000c 00EB4414 		add	r4, r0, r4, lsl #5
 569 0010 E469     		ldr	r4, [r4, #28]
 570              		.loc 1 308 5 view .LVU123
 571 0012 0069     		ldr	r0, [r0, #16]
 306:../STM32Cube_FW_N6/Utilities/lcd/stm32_lcd.c ****   {
 572              		.loc 1 306 5 view .LVU124
 573 0014 022C     		cmp	r4, #2
 574 0016 10D1     		bne	.L35
ARM GAS  /tmp/ccsDiBBo.s 			page 17


 575              		.loc 1 308 5 is_stmt 1 view .LVU125
 576              		.loc 1 308 67 is_stmt 0 view .LVU126
 577 0018 5C09     		lsrs	r4, r3, #5
 578 001a 1F0A     		lsrs	r7, r3, #8
 579 001c 04F4FC64 		and	r4, r4, #2016
 580 0020 07F47847 		and	r7, r7, #63488
 581 0024 3C43     		orrs	r4, r4, r7
 582 0026 C3F3C403 		ubfx	r3, r3, #3, #5
 583              	.LVL29:
 584              	.L40:
 309:../STM32Cube_FW_N6/Utilities/lcd/stm32_lcd.c ****   }
 310:../STM32Cube_FW_N6/Utilities/lcd/stm32_lcd.c ****   else if(DrawProp[DrawProp->LcdLayer].LcdPixelFormat == LCD_PIXEL_FORMAT_RGB888)
 311:../STM32Cube_FW_N6/Utilities/lcd/stm32_lcd.c ****   {
 312:../STM32Cube_FW_N6/Utilities/lcd/stm32_lcd.c ****     FuncDriver.DrawHLine(DrawProp->LcdDevice, Xpos, Ypos, Length, CONVERTARGB88882RGB888(Color));
 313:../STM32Cube_FW_N6/Utilities/lcd/stm32_lcd.c ****   }
 314:../STM32Cube_FW_N6/Utilities/lcd/stm32_lcd.c ****   else if(DrawProp[DrawProp->LcdLayer].LcdPixelFormat == LCD_PIXEL_FORMAT_ARGB4444)
 315:../STM32Cube_FW_N6/Utilities/lcd/stm32_lcd.c ****   {
 316:../STM32Cube_FW_N6/Utilities/lcd/stm32_lcd.c ****     FuncDriver.DrawHLine(DrawProp->LcdDevice, Xpos, Ypos, Length, CONVERTARGB88882ARGB4444(Color));
 585              		.loc 1 316 67 view .LVU127
 586 002a 1C43     		orrs	r4, r4, r3
 587              		.loc 1 316 5 view .LVU128
 588 002c 0094     		str	r4, [sp]
 589              	.L39:
 317:../STM32Cube_FW_N6/Utilities/lcd/stm32_lcd.c ****   }
 318:../STM32Cube_FW_N6/Utilities/lcd/stm32_lcd.c ****   else /*LCD_PIXEL_FORMAT_ARGB8888*/
 319:../STM32Cube_FW_N6/Utilities/lcd/stm32_lcd.c ****   {
 320:../STM32Cube_FW_N6/Utilities/lcd/stm32_lcd.c ****     FuncDriver.DrawHLine(DrawProp->LcdDevice, Xpos, Ypos, Length, Color);
 590              		.loc 1 320 5 view .LVU129
 591 002e 1346     		mov	r3, r2
 592 0030 0A46     		mov	r2, r1
 593              	.LVL30:
 594              		.loc 1 320 5 view .LVU130
 595 0032 3146     		mov	r1, r6
 596              	.LVL31:
 597              		.loc 1 320 5 view .LVU131
 598 0034 A847     		blx	r5
 599              	.LVL32:
 321:../STM32Cube_FW_N6/Utilities/lcd/stm32_lcd.c ****   }
 322:../STM32Cube_FW_N6/Utilities/lcd/stm32_lcd.c **** }
 600              		.loc 1 322 1 view .LVU132
 601 0036 03B0     		add	sp, sp, #12
 602              		.cfi_remember_state
 603              		.cfi_def_cfa_offset 20
 604              		@ sp needed
 605 0038 F0BD     		pop	{r4, r5, r6, r7, pc}
 606              	.LVL33:
 607              	.L35:
 608              		.cfi_restore_state
 310:../STM32Cube_FW_N6/Utilities/lcd/stm32_lcd.c ****   {
 609              		.loc 1 310 8 is_stmt 1 view .LVU133
 310:../STM32Cube_FW_N6/Utilities/lcd/stm32_lcd.c ****   {
 610              		.loc 1 310 10 is_stmt 0 view .LVU134
 611 003a 012C     		cmp	r4, #1
 612 003c 03D1     		bne	.L37
 312:../STM32Cube_FW_N6/Utilities/lcd/stm32_lcd.c ****   }
 613              		.loc 1 312 5 is_stmt 1 view .LVU135
 614 003e 23F07F43 		bic	r3, r3, #-16777216
ARM GAS  /tmp/ccsDiBBo.s 			page 18


 615              	.LVL34:
 616              	.L38:
 320:../STM32Cube_FW_N6/Utilities/lcd/stm32_lcd.c ****   }
 617              		.loc 1 320 5 view .LVU136
 618 0042 0093     		str	r3, [sp]
 619 0044 F3E7     		b	.L39
 620              	.LVL35:
 621              	.L37:
 314:../STM32Cube_FW_N6/Utilities/lcd/stm32_lcd.c ****   {
 622              		.loc 1 314 8 view .LVU137
 314:../STM32Cube_FW_N6/Utilities/lcd/stm32_lcd.c ****   {
 623              		.loc 1 314 10 is_stmt 0 view .LVU138
 624 0046 042C     		cmp	r4, #4
 625 0048 FBD1     		bne	.L38
 316:../STM32Cube_FW_N6/Utilities/lcd/stm32_lcd.c ****   }
 626              		.loc 1 316 5 is_stmt 1 view .LVU139
 316:../STM32Cube_FW_N6/Utilities/lcd/stm32_lcd.c ****   }
 627              		.loc 1 316 67 is_stmt 0 view .LVU140
 628 004a 1F0F     		lsrs	r7, r3, #28
 629 004c C3F30314 		ubfx	r4, r3, #4, #4
 630 0050 44EA0734 		orr	r4, r4, r7, lsl #12
 631 0054 1F0A     		lsrs	r7, r3, #8
 632 0056 07F0F007 		and	r7, r7, #240
 633 005a 1B0B     		lsrs	r3, r3, #12
 634              	.LVL36:
 316:../STM32Cube_FW_N6/Utilities/lcd/stm32_lcd.c ****   }
 635              		.loc 1 316 67 view .LVU141
 636 005c 3C43     		orrs	r4, r4, r7
 637 005e 03F47063 		and	r3, r3, #3840
 638 0062 E2E7     		b	.L40
 639              	.L42:
 640              		.align	2
 641              	.L41:
 642 0064 00000000 		.word	DrawProp
 643 0068 00000000 		.word	FuncDriver
 644              		.cfi_endproc
 645              	.LFE10:
 647              		.section	.text.UTIL_LCD_DrawVLine,"ax",%progbits
 648              		.align	1
 649              		.global	UTIL_LCD_DrawVLine
 650              		.syntax unified
 651              		.thumb
 652              		.thumb_func
 654              	UTIL_LCD_DrawVLine:
 655              	.LVL37:
 656              	.LFB11:
 323:../STM32Cube_FW_N6/Utilities/lcd/stm32_lcd.c **** 
 324:../STM32Cube_FW_N6/Utilities/lcd/stm32_lcd.c **** /**
 325:../STM32Cube_FW_N6/Utilities/lcd/stm32_lcd.c ****   * @brief  Draws a vertical line in currently active layer.
 326:../STM32Cube_FW_N6/Utilities/lcd/stm32_lcd.c ****   * @param  Xpos    X position
 327:../STM32Cube_FW_N6/Utilities/lcd/stm32_lcd.c ****   * @param  Ypos    Y position
 328:../STM32Cube_FW_N6/Utilities/lcd/stm32_lcd.c ****   * @param  Length  Line length
 329:../STM32Cube_FW_N6/Utilities/lcd/stm32_lcd.c ****   * @param  Color   Draw color
 330:../STM32Cube_FW_N6/Utilities/lcd/stm32_lcd.c ****   */
 331:../STM32Cube_FW_N6/Utilities/lcd/stm32_lcd.c **** void UTIL_LCD_DrawVLine(uint32_t Xpos, uint32_t Ypos, uint32_t Length, uint32_t Color)
 332:../STM32Cube_FW_N6/Utilities/lcd/stm32_lcd.c **** {
 657              		.loc 1 332 1 is_stmt 1 view -0
ARM GAS  /tmp/ccsDiBBo.s 			page 19


 658              		.cfi_startproc
 659              		@ args = 0, pretend = 0, frame = 0
 660              		@ frame_needed = 0, uses_anonymous_args = 0
 333:../STM32Cube_FW_N6/Utilities/lcd/stm32_lcd.c ****   /* Write line */
 334:../STM32Cube_FW_N6/Utilities/lcd/stm32_lcd.c ****   if(DrawProp[DrawProp->LcdLayer].LcdPixelFormat == LCD_PIXEL_FORMAT_RGB565)
 661              		.loc 1 334 3 view .LVU143
 332:../STM32Cube_FW_N6/Utilities/lcd/stm32_lcd.c ****   /* Write line */
 662              		.loc 1 332 1 is_stmt 0 view .LVU144
 663 0000 F7B5     		push	{r0, r1, r2, r4, r5, r6, r7, lr}
 664              		.cfi_def_cfa_offset 32
 665              		.cfi_offset 4, -20
 666              		.cfi_offset 5, -16
 667              		.cfi_offset 6, -12
 668              		.cfi_offset 7, -8
 669              		.cfi_offset 14, -4
 332:../STM32Cube_FW_N6/Utilities/lcd/stm32_lcd.c ****   /* Write line */
 670              		.loc 1 332 1 view .LVU145
 671 0002 0646     		mov	r6, r0
 672              		.loc 1 334 34 view .LVU146
 673 0004 1748     		ldr	r0, .L50
 674              	.LVL38:
 335:../STM32Cube_FW_N6/Utilities/lcd/stm32_lcd.c ****   {
 336:../STM32Cube_FW_N6/Utilities/lcd/stm32_lcd.c ****     FuncDriver.DrawVLine(DrawProp->LcdDevice, Xpos, Ypos, Length, CONVERTARGB88882RGB565(Color));
 675              		.loc 1 336 15 view .LVU147
 676 0006 184D     		ldr	r5, .L50+4
 334:../STM32Cube_FW_N6/Utilities/lcd/stm32_lcd.c ****   {
 677              		.loc 1 334 34 view .LVU148
 678 0008 C468     		ldr	r4, [r0, #12]
 679              		.loc 1 336 15 view .LVU149
 680 000a ED68     		ldr	r5, [r5, #12]
 334:../STM32Cube_FW_N6/Utilities/lcd/stm32_lcd.c ****   {
 681              		.loc 1 334 34 view .LVU150
 682 000c 00EB4414 		add	r4, r0, r4, lsl #5
 683 0010 E469     		ldr	r4, [r4, #28]
 684              		.loc 1 336 5 view .LVU151
 685 0012 0069     		ldr	r0, [r0, #16]
 334:../STM32Cube_FW_N6/Utilities/lcd/stm32_lcd.c ****   {
 686              		.loc 1 334 5 view .LVU152
 687 0014 022C     		cmp	r4, #2
 688 0016 10D1     		bne	.L44
 689              		.loc 1 336 5 is_stmt 1 view .LVU153
 690              		.loc 1 336 67 is_stmt 0 view .LVU154
 691 0018 5C09     		lsrs	r4, r3, #5
 692 001a 1F0A     		lsrs	r7, r3, #8
 693 001c 04F4FC64 		and	r4, r4, #2016
 694 0020 07F47847 		and	r7, r7, #63488
 695 0024 3C43     		orrs	r4, r4, r7
 696 0026 C3F3C403 		ubfx	r3, r3, #3, #5
 697              	.LVL39:
 698              	.L49:
 337:../STM32Cube_FW_N6/Utilities/lcd/stm32_lcd.c ****   }
 338:../STM32Cube_FW_N6/Utilities/lcd/stm32_lcd.c ****   else if(DrawProp[DrawProp->LcdLayer].LcdPixelFormat == LCD_PIXEL_FORMAT_RGB888)
 339:../STM32Cube_FW_N6/Utilities/lcd/stm32_lcd.c ****   {
 340:../STM32Cube_FW_N6/Utilities/lcd/stm32_lcd.c ****     FuncDriver.DrawVLine(DrawProp->LcdDevice, Xpos, Ypos, Length, CONVERTARGB88882RGB888(Color));
 341:../STM32Cube_FW_N6/Utilities/lcd/stm32_lcd.c ****   }
 342:../STM32Cube_FW_N6/Utilities/lcd/stm32_lcd.c ****   else if(DrawProp[DrawProp->LcdLayer].LcdPixelFormat == LCD_PIXEL_FORMAT_ARGB4444)
 343:../STM32Cube_FW_N6/Utilities/lcd/stm32_lcd.c ****   {
ARM GAS  /tmp/ccsDiBBo.s 			page 20


 344:../STM32Cube_FW_N6/Utilities/lcd/stm32_lcd.c ****     FuncDriver.DrawVLine(DrawProp->LcdDevice, Xpos, Ypos, Length, CONVERTARGB88882ARGB4444(Color));
 699              		.loc 1 344 67 view .LVU155
 700 002a 1C43     		orrs	r4, r4, r3
 701              		.loc 1 344 5 view .LVU156
 702 002c 0094     		str	r4, [sp]
 703              	.L48:
 345:../STM32Cube_FW_N6/Utilities/lcd/stm32_lcd.c ****   }
 346:../STM32Cube_FW_N6/Utilities/lcd/stm32_lcd.c ****   else /*LCD_PIXEL_FORMAT_ARGB888*/
 347:../STM32Cube_FW_N6/Utilities/lcd/stm32_lcd.c ****   {
 348:../STM32Cube_FW_N6/Utilities/lcd/stm32_lcd.c ****     FuncDriver.DrawVLine(DrawProp->LcdDevice, Xpos, Ypos, Length, Color);
 704              		.loc 1 348 5 view .LVU157
 705 002e 1346     		mov	r3, r2
 706 0030 0A46     		mov	r2, r1
 707              	.LVL40:
 708              		.loc 1 348 5 view .LVU158
 709 0032 3146     		mov	r1, r6
 710              	.LVL41:
 711              		.loc 1 348 5 view .LVU159
 712 0034 A847     		blx	r5
 713              	.LVL42:
 349:../STM32Cube_FW_N6/Utilities/lcd/stm32_lcd.c ****   }
 350:../STM32Cube_FW_N6/Utilities/lcd/stm32_lcd.c **** }
 714              		.loc 1 350 1 view .LVU160
 715 0036 03B0     		add	sp, sp, #12
 716              		.cfi_remember_state
 717              		.cfi_def_cfa_offset 20
 718              		@ sp needed
 719 0038 F0BD     		pop	{r4, r5, r6, r7, pc}
 720              	.LVL43:
 721              	.L44:
 722              		.cfi_restore_state
 338:../STM32Cube_FW_N6/Utilities/lcd/stm32_lcd.c ****   {
 723              		.loc 1 338 8 is_stmt 1 view .LVU161
 338:../STM32Cube_FW_N6/Utilities/lcd/stm32_lcd.c ****   {
 724              		.loc 1 338 10 is_stmt 0 view .LVU162
 725 003a 012C     		cmp	r4, #1
 726 003c 03D1     		bne	.L46
 340:../STM32Cube_FW_N6/Utilities/lcd/stm32_lcd.c ****   }
 727              		.loc 1 340 5 is_stmt 1 view .LVU163
 728 003e 23F07F43 		bic	r3, r3, #-16777216
 729              	.LVL44:
 730              	.L47:
 348:../STM32Cube_FW_N6/Utilities/lcd/stm32_lcd.c ****   }
 731              		.loc 1 348 5 view .LVU164
 732 0042 0093     		str	r3, [sp]
 733 0044 F3E7     		b	.L48
 734              	.LVL45:
 735              	.L46:
 342:../STM32Cube_FW_N6/Utilities/lcd/stm32_lcd.c ****   {
 736              		.loc 1 342 8 view .LVU165
 342:../STM32Cube_FW_N6/Utilities/lcd/stm32_lcd.c ****   {
 737              		.loc 1 342 10 is_stmt 0 view .LVU166
 738 0046 042C     		cmp	r4, #4
 739 0048 FBD1     		bne	.L47
 344:../STM32Cube_FW_N6/Utilities/lcd/stm32_lcd.c ****   }
 740              		.loc 1 344 5 is_stmt 1 view .LVU167
 344:../STM32Cube_FW_N6/Utilities/lcd/stm32_lcd.c ****   }
ARM GAS  /tmp/ccsDiBBo.s 			page 21


 741              		.loc 1 344 67 is_stmt 0 view .LVU168
 742 004a 1F0F     		lsrs	r7, r3, #28
 743 004c C3F30314 		ubfx	r4, r3, #4, #4
 744 0050 44EA0734 		orr	r4, r4, r7, lsl #12
 745 0054 1F0A     		lsrs	r7, r3, #8
 746 0056 07F0F007 		and	r7, r7, #240
 747 005a 1B0B     		lsrs	r3, r3, #12
 748              	.LVL46:
 344:../STM32Cube_FW_N6/Utilities/lcd/stm32_lcd.c ****   }
 749              		.loc 1 344 67 view .LVU169
 750 005c 3C43     		orrs	r4, r4, r7
 751 005e 03F47063 		and	r3, r3, #3840
 752 0062 E2E7     		b	.L49
 753              	.L51:
 754              		.align	2
 755              	.L50:
 756 0064 00000000 		.word	DrawProp
 757 0068 00000000 		.word	FuncDriver
 758              		.cfi_endproc
 759              	.LFE11:
 761              		.section	.text.UTIL_LCD_GetPixel,"ax",%progbits
 762              		.align	1
 763              		.global	UTIL_LCD_GetPixel
 764              		.syntax unified
 765              		.thumb
 766              		.thumb_func
 768              	UTIL_LCD_GetPixel:
 769              	.LVL47:
 770              	.LFB12:
 351:../STM32Cube_FW_N6/Utilities/lcd/stm32_lcd.c **** 
 352:../STM32Cube_FW_N6/Utilities/lcd/stm32_lcd.c **** /**
 353:../STM32Cube_FW_N6/Utilities/lcd/stm32_lcd.c ****   * @brief  Read an LCD pixel.
 354:../STM32Cube_FW_N6/Utilities/lcd/stm32_lcd.c ****   * @param  Xpos     X position
 355:../STM32Cube_FW_N6/Utilities/lcd/stm32_lcd.c ****   * @param  Ypos     Y position
 356:../STM32Cube_FW_N6/Utilities/lcd/stm32_lcd.c ****   * @retval Color    pixel color
 357:../STM32Cube_FW_N6/Utilities/lcd/stm32_lcd.c ****   */
 358:../STM32Cube_FW_N6/Utilities/lcd/stm32_lcd.c **** void UTIL_LCD_GetPixel(uint16_t Xpos, uint16_t Ypos, uint32_t *Color)
 359:../STM32Cube_FW_N6/Utilities/lcd/stm32_lcd.c **** {
 771              		.loc 1 359 1 is_stmt 1 view -0
 772              		.cfi_startproc
 773              		@ args = 0, pretend = 0, frame = 0
 774              		@ frame_needed = 0, uses_anonymous_args = 0
 360:../STM32Cube_FW_N6/Utilities/lcd/stm32_lcd.c ****   /* Get Pixel */
 361:../STM32Cube_FW_N6/Utilities/lcd/stm32_lcd.c ****   FuncDriver.GetPixel(DrawProp->LcdDevice, Xpos, Ypos, Color);
 775              		.loc 1 361 3 view .LVU171
 359:../STM32Cube_FW_N6/Utilities/lcd/stm32_lcd.c ****   /* Get Pixel */
 776              		.loc 1 359 1 is_stmt 0 view .LVU172
 777 0000 70B5     		push	{r4, r5, r6, lr}
 778              		.cfi_def_cfa_offset 16
 779              		.cfi_offset 4, -16
 780              		.cfi_offset 5, -12
 781              		.cfi_offset 6, -8
 782              		.cfi_offset 14, -4
 783              		.loc 1 361 13 view .LVU173
 784 0002 264B     		ldr	r3, .L57
 785              		.loc 1 361 3 view .LVU174
 786 0004 264D     		ldr	r5, .L57+4
ARM GAS  /tmp/ccsDiBBo.s 			page 22


 787 0006 5E69     		ldr	r6, [r3, #20]
 359:../STM32Cube_FW_N6/Utilities/lcd/stm32_lcd.c ****   /* Get Pixel */
 788              		.loc 1 359 1 view .LVU175
 789 0008 1446     		mov	r4, r2
 790              		.loc 1 361 3 view .LVU176
 791 000a 1346     		mov	r3, r2
 792 000c 0A46     		mov	r2, r1
 793              	.LVL48:
 794              		.loc 1 361 3 view .LVU177
 795 000e 0146     		mov	r1, r0
 796              	.LVL49:
 797              		.loc 1 361 3 view .LVU178
 798 0010 2869     		ldr	r0, [r5, #16]
 799              	.LVL50:
 800              		.loc 1 361 3 view .LVU179
 801 0012 B047     		blx	r6
 802              	.LVL51:
 362:../STM32Cube_FW_N6/Utilities/lcd/stm32_lcd.c ****   if(DrawProp[DrawProp->LcdLayer].LcdPixelFormat == LCD_PIXEL_FORMAT_RGB565)
 803              		.loc 1 362 3 is_stmt 1 view .LVU180
 804              		.loc 1 362 34 is_stmt 0 view .LVU181
 805 0014 EB68     		ldr	r3, [r5, #12]
 806 0016 05EB4315 		add	r5, r5, r3, lsl #5
 807 001a EB69     		ldr	r3, [r5, #28]
 808              		.loc 1 362 5 view .LVU182
 809 001c 022B     		cmp	r3, #2
 810 001e 1BD1     		bne	.L53
 363:../STM32Cube_FW_N6/Utilities/lcd/stm32_lcd.c ****   {
 364:../STM32Cube_FW_N6/Utilities/lcd/stm32_lcd.c ****     *Color = CONVERTRGB5652ARGB8888(*Color);
 811              		.loc 1 364 5 is_stmt 1 view .LVU183
 812              		.loc 1 364 14 is_stmt 0 view .LVU184
 813 0020 40F20315 		movw	r5, #259
 814 0024 40F20F20 		movw	r0, #527
 815 0028 2368     		ldr	r3, [r4]
 816 002a C3F34511 		ubfx	r1, r3, #5, #6
 817 002e C3F3C422 		ubfx	r2, r3, #11, #5
 818 0032 6943     		muls	r1, r5, r1
 819 0034 4243     		muls	r2, r0, r2
 820 0036 03F01F03 		and	r3, r3, #31
 821 003a 4343     		muls	r3, r0, r3
 822 003c 2131     		adds	r1, r1, #33
 823 003e 1732     		adds	r2, r2, #23
 824 0040 8909     		lsrs	r1, r1, #6
 825 0042 9209     		lsrs	r2, r2, #6
 826 0044 0902     		lsls	r1, r1, #8
 827 0046 41EA0241 		orr	r1, r1, r2, lsl #16
 828 004a 1733     		adds	r3, r3, #23
 829 004c 41EA9311 		orr	r1, r1, r3, lsr #6
 830 0050 41F07F41 		orr	r1, r1, #-16777216
 831              		.loc 1 364 12 view .LVU185
 832 0054 2160     		str	r1, [r4]
 833              	.L52:
 365:../STM32Cube_FW_N6/Utilities/lcd/stm32_lcd.c ****   }
 366:../STM32Cube_FW_N6/Utilities/lcd/stm32_lcd.c ****   else if(DrawProp[DrawProp->LcdLayer].LcdPixelFormat == LCD_PIXEL_FORMAT_RGB888)
 367:../STM32Cube_FW_N6/Utilities/lcd/stm32_lcd.c ****   {
 368:../STM32Cube_FW_N6/Utilities/lcd/stm32_lcd.c ****     *Color = CONVERTRGB8882ARGB8888(*Color);
 369:../STM32Cube_FW_N6/Utilities/lcd/stm32_lcd.c ****   }
 370:../STM32Cube_FW_N6/Utilities/lcd/stm32_lcd.c ****   else if(DrawProp[DrawProp->LcdLayer].LcdPixelFormat == LCD_PIXEL_FORMAT_ARGB4444)
ARM GAS  /tmp/ccsDiBBo.s 			page 23


 371:../STM32Cube_FW_N6/Utilities/lcd/stm32_lcd.c ****   {
 372:../STM32Cube_FW_N6/Utilities/lcd/stm32_lcd.c ****     *Color = CONVERTARGB44442ARGB8888(*Color);
 373:../STM32Cube_FW_N6/Utilities/lcd/stm32_lcd.c ****   }
 374:../STM32Cube_FW_N6/Utilities/lcd/stm32_lcd.c **** }
 834              		.loc 1 374 1 view .LVU186
 835 0056 70BD     		pop	{r4, r5, r6, pc}
 836              	.LVL52:
 837              	.L53:
 366:../STM32Cube_FW_N6/Utilities/lcd/stm32_lcd.c ****   {
 838              		.loc 1 366 8 is_stmt 1 view .LVU187
 366:../STM32Cube_FW_N6/Utilities/lcd/stm32_lcd.c ****   {
 839              		.loc 1 366 10 is_stmt 0 view .LVU188
 840 0058 012B     		cmp	r3, #1
 841 005a 04D1     		bne	.L55
 368:../STM32Cube_FW_N6/Utilities/lcd/stm32_lcd.c ****   }
 842              		.loc 1 368 5 is_stmt 1 view .LVU189
 368:../STM32Cube_FW_N6/Utilities/lcd/stm32_lcd.c ****   }
 843              		.loc 1 368 14 is_stmt 0 view .LVU190
 844 005c 2368     		ldr	r3, [r4]
 845 005e 43F07F43 		orr	r3, r3, #-16777216
 846              	.L56:
 372:../STM32Cube_FW_N6/Utilities/lcd/stm32_lcd.c ****   }
 847              		.loc 1 372 12 view .LVU191
 848 0062 2360     		str	r3, [r4]
 849              		.loc 1 374 1 view .LVU192
 850 0064 F7E7     		b	.L52
 851              	.L55:
 370:../STM32Cube_FW_N6/Utilities/lcd/stm32_lcd.c ****   {
 852              		.loc 1 370 8 is_stmt 1 view .LVU193
 370:../STM32Cube_FW_N6/Utilities/lcd/stm32_lcd.c ****   {
 853              		.loc 1 370 10 is_stmt 0 view .LVU194
 854 0066 042B     		cmp	r3, #4
 855 0068 F5D1     		bne	.L52
 372:../STM32Cube_FW_N6/Utilities/lcd/stm32_lcd.c ****   }
 856              		.loc 1 372 5 is_stmt 1 view .LVU195
 372:../STM32Cube_FW_N6/Utilities/lcd/stm32_lcd.c ****   }
 857              		.loc 1 372 14 is_stmt 0 view .LVU196
 858 006a 2268     		ldr	r2, [r4]
 859 006c C2F30333 		ubfx	r3, r2, #12, #4
 860 0070 03EB0311 		add	r1, r3, r3, lsl #4
 861 0074 C2F30323 		ubfx	r3, r2, #8, #4
 862 0078 03EB0313 		add	r3, r3, r3, lsl #4
 863 007c 1B04     		lsls	r3, r3, #16
 864 007e 43EA0163 		orr	r3, r3, r1, lsl #24
 865 0082 02F00F01 		and	r1, r2, #15
 866 0086 01EB0111 		add	r1, r1, r1, lsl #4
 867 008a 0B43     		orrs	r3, r3, r1
 868 008c C2F30311 		ubfx	r1, r2, #4, #4
 869 0090 02F0F002 		and	r2, r2, #240
 870 0094 0A44     		add	r2, r2, r1
 871 0096 43EA0223 		orr	r3, r3, r2, lsl #8
 872 009a E2E7     		b	.L56
 873              	.L58:
 874              		.align	2
 875              	.L57:
 876 009c 00000000 		.word	FuncDriver
 877 00a0 00000000 		.word	DrawProp
ARM GAS  /tmp/ccsDiBBo.s 			page 24


 878              		.cfi_endproc
 879              	.LFE12:
 881              		.section	.text.UTIL_LCD_SetPixel,"ax",%progbits
 882              		.align	1
 883              		.global	UTIL_LCD_SetPixel
 884              		.syntax unified
 885              		.thumb
 886              		.thumb_func
 888              	UTIL_LCD_SetPixel:
 889              	.LVL53:
 890              	.LFB13:
 375:../STM32Cube_FW_N6/Utilities/lcd/stm32_lcd.c **** 
 376:../STM32Cube_FW_N6/Utilities/lcd/stm32_lcd.c **** /**
 377:../STM32Cube_FW_N6/Utilities/lcd/stm32_lcd.c ****   * @brief  Draws a pixel on LCD.
 378:../STM32Cube_FW_N6/Utilities/lcd/stm32_lcd.c ****   * @param  Xpos     X position
 379:../STM32Cube_FW_N6/Utilities/lcd/stm32_lcd.c ****   * @param  Ypos     Y position
 380:../STM32Cube_FW_N6/Utilities/lcd/stm32_lcd.c ****   * @param  Color    Pixel color
 381:../STM32Cube_FW_N6/Utilities/lcd/stm32_lcd.c ****   */
 382:../STM32Cube_FW_N6/Utilities/lcd/stm32_lcd.c **** void UTIL_LCD_SetPixel(uint16_t Xpos, uint16_t Ypos, uint32_t Color)
 383:../STM32Cube_FW_N6/Utilities/lcd/stm32_lcd.c **** {
 891              		.loc 1 383 1 is_stmt 1 view -0
 892              		.cfi_startproc
 893              		@ args = 0, pretend = 0, frame = 0
 894              		@ frame_needed = 0, uses_anonymous_args = 0
 895              		@ link register save eliminated.
 384:../STM32Cube_FW_N6/Utilities/lcd/stm32_lcd.c ****   /* Set Pixel */
 385:../STM32Cube_FW_N6/Utilities/lcd/stm32_lcd.c ****   if(DrawProp[DrawProp->LcdLayer].LcdPixelFormat == LCD_PIXEL_FORMAT_RGB565)
 896              		.loc 1 385 3 view .LVU198
 383:../STM32Cube_FW_N6/Utilities/lcd/stm32_lcd.c ****   /* Set Pixel */
 897              		.loc 1 383 1 is_stmt 0 view .LVU199
 898 0000 70B4     		push	{r4, r5, r6}
 899              		.cfi_def_cfa_offset 12
 900              		.cfi_offset 4, -12
 901              		.cfi_offset 5, -8
 902              		.cfi_offset 6, -4
 383:../STM32Cube_FW_N6/Utilities/lcd/stm32_lcd.c ****   /* Set Pixel */
 903              		.loc 1 383 1 view .LVU200
 904 0002 0646     		mov	r6, r0
 905              		.loc 1 385 34 view .LVU201
 906 0004 1648     		ldr	r0, .L64
 907              	.LVL54:
 383:../STM32Cube_FW_N6/Utilities/lcd/stm32_lcd.c ****   /* Set Pixel */
 908              		.loc 1 383 1 view .LVU202
 909 0006 1346     		mov	r3, r2
 910              		.loc 1 385 34 view .LVU203
 911 0008 C268     		ldr	r2, [r0, #12]
 912              	.LVL55:
 386:../STM32Cube_FW_N6/Utilities/lcd/stm32_lcd.c ****   {
 387:../STM32Cube_FW_N6/Utilities/lcd/stm32_lcd.c ****     FuncDriver.SetPixel(DrawProp->LcdDevice, Xpos, Ypos, CONVERTARGB88882RGB565(Color));
 913              		.loc 1 387 15 view .LVU204
 914 000a 164C     		ldr	r4, .L64+4
 385:../STM32Cube_FW_N6/Utilities/lcd/stm32_lcd.c ****   {
 915              		.loc 1 385 34 view .LVU205
 916 000c 00EB4212 		add	r2, r0, r2, lsl #5
 917 0010 D269     		ldr	r2, [r2, #28]
 918              		.loc 1 387 15 view .LVU206
 919 0012 A569     		ldr	r5, [r4, #24]
ARM GAS  /tmp/ccsDiBBo.s 			page 25


 385:../STM32Cube_FW_N6/Utilities/lcd/stm32_lcd.c ****   {
 920              		.loc 1 385 5 view .LVU207
 921 0014 022A     		cmp	r2, #2
 922              		.loc 1 387 5 view .LVU208
 923 0016 0069     		ldr	r0, [r0, #16]
 385:../STM32Cube_FW_N6/Utilities/lcd/stm32_lcd.c ****   {
 924              		.loc 1 385 5 view .LVU209
 925 0018 0AD1     		bne	.L60
 926              		.loc 1 387 5 is_stmt 1 view .LVU210
 927              		.loc 1 387 58 is_stmt 0 view .LVU211
 928 001a 5C09     		lsrs	r4, r3, #5
 929 001c 1A0A     		lsrs	r2, r3, #8
 930 001e 04F4FC64 		and	r4, r4, #2016
 931 0022 02F47842 		and	r2, r2, #63488
 932 0026 1443     		orrs	r4, r4, r2
 933 0028 C3F3C403 		ubfx	r3, r3, #3, #5
 934              	.LVL56:
 935              	.L63:
 388:../STM32Cube_FW_N6/Utilities/lcd/stm32_lcd.c ****   }
 389:../STM32Cube_FW_N6/Utilities/lcd/stm32_lcd.c ****   else if(DrawProp[DrawProp->LcdLayer].LcdPixelFormat == LCD_PIXEL_FORMAT_RGB888)
 390:../STM32Cube_FW_N6/Utilities/lcd/stm32_lcd.c ****   {
 391:../STM32Cube_FW_N6/Utilities/lcd/stm32_lcd.c ****     FuncDriver.SetPixel(DrawProp->LcdDevice, Xpos, Ypos, CONVERTARGB88882RGB888(Color));
 392:../STM32Cube_FW_N6/Utilities/lcd/stm32_lcd.c ****   }
 393:../STM32Cube_FW_N6/Utilities/lcd/stm32_lcd.c ****   else if(DrawProp[DrawProp->LcdLayer].LcdPixelFormat == LCD_PIXEL_FORMAT_ARGB4444)
 394:../STM32Cube_FW_N6/Utilities/lcd/stm32_lcd.c ****   {
 395:../STM32Cube_FW_N6/Utilities/lcd/stm32_lcd.c ****     FuncDriver.SetPixel(DrawProp->LcdDevice, Xpos, Ypos, CONVERTARGB88882ARGB4444(Color));
 936              		.loc 1 395 5 view .LVU212
 937 002c 2343     		orrs	r3, r3, r4
 938 002e 03E0     		b	.L62
 939              	.LVL57:
 940              	.L60:
 389:../STM32Cube_FW_N6/Utilities/lcd/stm32_lcd.c ****   {
 941              		.loc 1 389 8 is_stmt 1 view .LVU213
 389:../STM32Cube_FW_N6/Utilities/lcd/stm32_lcd.c ****   {
 942              		.loc 1 389 10 is_stmt 0 view .LVU214
 943 0030 012A     		cmp	r2, #1
 944 0032 06D1     		bne	.L61
 391:../STM32Cube_FW_N6/Utilities/lcd/stm32_lcd.c ****   }
 945              		.loc 1 391 5 is_stmt 1 view .LVU215
 946 0034 23F07F43 		bic	r3, r3, #-16777216
 947              	.LVL58:
 948              	.L62:
 396:../STM32Cube_FW_N6/Utilities/lcd/stm32_lcd.c ****   }
 397:../STM32Cube_FW_N6/Utilities/lcd/stm32_lcd.c ****   else /*LCD_PIXEL_FORMAT_ARGB888*/
 398:../STM32Cube_FW_N6/Utilities/lcd/stm32_lcd.c ****   {
 399:../STM32Cube_FW_N6/Utilities/lcd/stm32_lcd.c ****     FuncDriver.SetPixel(DrawProp->LcdDevice, Xpos, Ypos, Color);
 949              		.loc 1 399 5 view .LVU216
 950 0038 0A46     		mov	r2, r1
 951 003a AC46     		mov	ip, r5
 952 003c 3146     		mov	r1, r6
 953              	.LVL59:
 400:../STM32Cube_FW_N6/Utilities/lcd/stm32_lcd.c ****   }
 401:../STM32Cube_FW_N6/Utilities/lcd/stm32_lcd.c **** }
 954              		.loc 1 401 1 is_stmt 0 view .LVU217
 955 003e 70BC     		pop	{r4, r5, r6}
 956              		.cfi_remember_state
 957              		.cfi_restore 6
ARM GAS  /tmp/ccsDiBBo.s 			page 26


 958              		.cfi_restore 5
 959              		.cfi_restore 4
 960              		.cfi_def_cfa_offset 0
 961              	.LVL60:
 399:../STM32Cube_FW_N6/Utilities/lcd/stm32_lcd.c ****   }
 962              		.loc 1 399 5 view .LVU218
 963 0040 6047     		bx	ip
 964              	.LVL61:
 965              	.L61:
 966              		.cfi_restore_state
 393:../STM32Cube_FW_N6/Utilities/lcd/stm32_lcd.c ****   {
 967              		.loc 1 393 8 is_stmt 1 view .LVU219
 393:../STM32Cube_FW_N6/Utilities/lcd/stm32_lcd.c ****   {
 968              		.loc 1 393 10 is_stmt 0 view .LVU220
 969 0042 042A     		cmp	r2, #4
 970 0044 F8D1     		bne	.L62
 395:../STM32Cube_FW_N6/Utilities/lcd/stm32_lcd.c ****   }
 971              		.loc 1 395 5 is_stmt 1 view .LVU221
 395:../STM32Cube_FW_N6/Utilities/lcd/stm32_lcd.c ****   }
 972              		.loc 1 395 58 is_stmt 0 view .LVU222
 973 0046 1A0F     		lsrs	r2, r3, #28
 974 0048 C3F30314 		ubfx	r4, r3, #4, #4
 975 004c 44EA0234 		orr	r4, r4, r2, lsl #12
 976 0050 1A0A     		lsrs	r2, r3, #8
 977 0052 02F0F002 		and	r2, r2, #240
 978 0056 1B0B     		lsrs	r3, r3, #12
 979              	.LVL62:
 395:../STM32Cube_FW_N6/Utilities/lcd/stm32_lcd.c ****   }
 980              		.loc 1 395 58 view .LVU223
 981 0058 1443     		orrs	r4, r4, r2
 982 005a 03F47063 		and	r3, r3, #3840
 983 005e E5E7     		b	.L63
 984              	.L65:
 985              		.align	2
 986              	.L64:
 987 0060 00000000 		.word	DrawProp
 988 0064 00000000 		.word	FuncDriver
 989              		.cfi_endproc
 990              	.LFE13:
 992              		.section	.text.UTIL_LCD_DisplayChar,"ax",%progbits
 993              		.align	1
 994              		.global	UTIL_LCD_DisplayChar
 995              		.syntax unified
 996              		.thumb
 997              		.thumb_func
 999              	UTIL_LCD_DisplayChar:
 1000              	.LVL63:
 1001              	.LFB16:
 402:../STM32Cube_FW_N6/Utilities/lcd/stm32_lcd.c **** 
 403:../STM32Cube_FW_N6/Utilities/lcd/stm32_lcd.c **** /**
 404:../STM32Cube_FW_N6/Utilities/lcd/stm32_lcd.c ****   * @brief  Clears the whole currently active layer of LTDC.
 405:../STM32Cube_FW_N6/Utilities/lcd/stm32_lcd.c ****   * @param  Color  Color of the background
 406:../STM32Cube_FW_N6/Utilities/lcd/stm32_lcd.c ****   */
 407:../STM32Cube_FW_N6/Utilities/lcd/stm32_lcd.c **** void UTIL_LCD_Clear(uint32_t Color)
 408:../STM32Cube_FW_N6/Utilities/lcd/stm32_lcd.c **** {
 409:../STM32Cube_FW_N6/Utilities/lcd/stm32_lcd.c ****   /* Clear the LCD */
 410:../STM32Cube_FW_N6/Utilities/lcd/stm32_lcd.c ****   UTIL_LCD_FillRect(0, 0, DrawProp[DrawProp->LcdLayer].LcdXsize, DrawProp[DrawProp->LcdLayer].LcdYs
ARM GAS  /tmp/ccsDiBBo.s 			page 27


 411:../STM32Cube_FW_N6/Utilities/lcd/stm32_lcd.c **** }
 412:../STM32Cube_FW_N6/Utilities/lcd/stm32_lcd.c **** 
 413:../STM32Cube_FW_N6/Utilities/lcd/stm32_lcd.c **** /**
 414:../STM32Cube_FW_N6/Utilities/lcd/stm32_lcd.c ****   * @brief  Clears the selected line in currently active layer.
 415:../STM32Cube_FW_N6/Utilities/lcd/stm32_lcd.c ****   * @param  Line  Line to be cleared
 416:../STM32Cube_FW_N6/Utilities/lcd/stm32_lcd.c ****   */
 417:../STM32Cube_FW_N6/Utilities/lcd/stm32_lcd.c **** void UTIL_LCD_ClearStringLine(uint32_t Line)
 418:../STM32Cube_FW_N6/Utilities/lcd/stm32_lcd.c **** {
 419:../STM32Cube_FW_N6/Utilities/lcd/stm32_lcd.c ****   /* Draw rectangle with background color */
 420:../STM32Cube_FW_N6/Utilities/lcd/stm32_lcd.c ****   UTIL_LCD_FillRect(0, (Line * DrawProp[DrawProp->LcdLayer].pFont->Height), DrawProp[DrawProp->LcdL
 421:../STM32Cube_FW_N6/Utilities/lcd/stm32_lcd.c **** }
 422:../STM32Cube_FW_N6/Utilities/lcd/stm32_lcd.c **** 
 423:../STM32Cube_FW_N6/Utilities/lcd/stm32_lcd.c **** /**
 424:../STM32Cube_FW_N6/Utilities/lcd/stm32_lcd.c ****   * @brief  Displays one character in currently active layer.
 425:../STM32Cube_FW_N6/Utilities/lcd/stm32_lcd.c ****   * @param  Xpos Start column address
 426:../STM32Cube_FW_N6/Utilities/lcd/stm32_lcd.c ****   * @param  Ypos Line where to display the character shape.
 427:../STM32Cube_FW_N6/Utilities/lcd/stm32_lcd.c ****   * @param  Ascii Character ascii code
 428:../STM32Cube_FW_N6/Utilities/lcd/stm32_lcd.c ****   *           This parameter must be a number between Min_Data = 0x20 and Max_Data = 0x7E
 429:../STM32Cube_FW_N6/Utilities/lcd/stm32_lcd.c ****   */
 430:../STM32Cube_FW_N6/Utilities/lcd/stm32_lcd.c **** void UTIL_LCD_DisplayChar(uint32_t Xpos, uint32_t Ypos, uint8_t Ascii)
 431:../STM32Cube_FW_N6/Utilities/lcd/stm32_lcd.c **** {
 1002              		.loc 1 431 1 is_stmt 1 view -0
 1003              		.cfi_startproc
 1004              		@ args = 0, pretend = 0, frame = 128
 1005              		@ frame_needed = 0, uses_anonymous_args = 0
 432:../STM32Cube_FW_N6/Utilities/lcd/stm32_lcd.c ****   DrawChar(Xpos, Ypos, &DrawProp[DrawProp->LcdLayer].pFont->table[(Ascii-' ') *\
 1006              		.loc 1 432 3 view .LVU225
 431:../STM32Cube_FW_N6/Utilities/lcd/stm32_lcd.c ****   DrawChar(Xpos, Ypos, &DrawProp[DrawProp->LcdLayer].pFont->table[(Ascii-' ') *\
 1007              		.loc 1 431 1 is_stmt 0 view .LVU226
 1008 0000 2DE9F04F 		push	{r4, r5, r6, r7, r8, r9, r10, fp, lr}
 1009              		.cfi_def_cfa_offset 36
 1010              		.cfi_offset 4, -36
 1011              		.cfi_offset 5, -32
 1012              		.cfi_offset 6, -28
 1013              		.cfi_offset 7, -24
 1014              		.cfi_offset 8, -20
 1015              		.cfi_offset 9, -16
 1016              		.cfi_offset 10, -12
 1017              		.cfi_offset 11, -8
 1018              		.cfi_offset 14, -4
 1019 0004 A3B0     		sub	sp, sp, #140
 1020              		.cfi_def_cfa_offset 176
 431:../STM32Cube_FW_N6/Utilities/lcd/stm32_lcd.c ****   DrawChar(Xpos, Ypos, &DrawProp[DrawProp->LcdLayer].pFont->table[(Ascii-' ') *\
 1021              		.loc 1 431 1 view .LVU227
 1022 0006 0390     		str	r0, [sp, #12]
 1023              		.loc 1 432 53 view .LVU228
 1024 0008 7E48     		ldr	r0, .L104
 1025              	.LVL64:
 1026              		.loc 1 432 73 view .LVU229
 1027 000a 203A     		subs	r2, r2, #32
 1028              	.LVL65:
 1029              		.loc 1 432 53 view .LVU230
 1030 000c C368     		ldr	r3, [r0, #12]
 1031 000e 00EB4313 		add	r3, r0, r3, lsl #5
 1032 0012 9B68     		ldr	r3, [r3, #8]
 1033              		.loc 1 432 59 view .LVU231
 1034 0014 1868     		ldr	r0, [r3]
ARM GAS  /tmp/ccsDiBBo.s 			page 28


 433:../STM32Cube_FW_N6/Utilities/lcd/stm32_lcd.c ****   DrawProp[DrawProp->LcdLayer].pFont->Height * ((DrawProp[DrawProp->LcdLayer].pFont->Width + 7) / 8
 1035              		.loc 1 433 84 view .LVU232
 1036 0016 9C88     		ldrh	r4, [r3, #4]
 432:../STM32Cube_FW_N6/Utilities/lcd/stm32_lcd.c ****   DrawChar(Xpos, Ypos, &DrawProp[DrawProp->LcdLayer].pFont->table[(Ascii-' ') *\
 1037              		.loc 1 432 59 view .LVU233
 1038 0018 0490     		str	r0, [sp, #16]
 1039              		.loc 1 433 37 view .LVU234
 1040 001a D888     		ldrh	r0, [r3, #6]
 1041              		.loc 1 433 92 view .LVU235
 1042 001c E31D     		adds	r3, r4, #7
 432:../STM32Cube_FW_N6/Utilities/lcd/stm32_lcd.c ****   DrawChar(Xpos, Ypos, &DrawProp[DrawProp->LcdLayer].pFont->table[(Ascii-' ') *\
 1043              		.loc 1 432 79 view .LVU236
 1044 001e 4243     		muls	r2, r0, r2
 1045              	.LVL66:
 1046              		.loc 1 433 37 view .LVU237
 1047 0020 0790     		str	r0, [sp, #28]
 1048              		.loc 1 433 97 view .LVU238
 1049 0022 D810     		asrs	r0, r3, #3
 1050              		.loc 1 433 46 view .LVU239
 1051 0024 4243     		muls	r2, r0, r2
 1052 0026 0892     		str	r2, [sp, #32]
 1053              	.LVL67:
 1054              	.LBB4:
 1055              	.LBI4:
 434:../STM32Cube_FW_N6/Utilities/lcd/stm32_lcd.c **** }
 435:../STM32Cube_FW_N6/Utilities/lcd/stm32_lcd.c **** 
 436:../STM32Cube_FW_N6/Utilities/lcd/stm32_lcd.c **** /**
 437:../STM32Cube_FW_N6/Utilities/lcd/stm32_lcd.c ****   * @brief  Displays characters in currently active layer.
 438:../STM32Cube_FW_N6/Utilities/lcd/stm32_lcd.c ****   * @param  Xpos X position (in pixel)
 439:../STM32Cube_FW_N6/Utilities/lcd/stm32_lcd.c ****   * @param  Ypos Y position (in pixel)
 440:../STM32Cube_FW_N6/Utilities/lcd/stm32_lcd.c ****   * @param  Text Pointer to string to display on LCD
 441:../STM32Cube_FW_N6/Utilities/lcd/stm32_lcd.c ****   * @param  Mode Display mode
 442:../STM32Cube_FW_N6/Utilities/lcd/stm32_lcd.c ****   *          This parameter can be one of the following values:
 443:../STM32Cube_FW_N6/Utilities/lcd/stm32_lcd.c ****   *            @arg  CENTER_MODE
 444:../STM32Cube_FW_N6/Utilities/lcd/stm32_lcd.c ****   *            @arg  RIGHT_MODE
 445:../STM32Cube_FW_N6/Utilities/lcd/stm32_lcd.c ****   *            @arg  LEFT_MODE
 446:../STM32Cube_FW_N6/Utilities/lcd/stm32_lcd.c ****   */
 447:../STM32Cube_FW_N6/Utilities/lcd/stm32_lcd.c **** void UTIL_LCD_DisplayStringAt(uint32_t Xpos, uint32_t Ypos, uint8_t *Text, Text_AlignModeTypdef Mod
 448:../STM32Cube_FW_N6/Utilities/lcd/stm32_lcd.c **** {
 449:../STM32Cube_FW_N6/Utilities/lcd/stm32_lcd.c ****   uint32_t refcolumn = 1, i = 0;
 450:../STM32Cube_FW_N6/Utilities/lcd/stm32_lcd.c ****   uint32_t size = 0, xsize = 0;
 451:../STM32Cube_FW_N6/Utilities/lcd/stm32_lcd.c ****   uint8_t  *ptr = Text;
 452:../STM32Cube_FW_N6/Utilities/lcd/stm32_lcd.c **** 
 453:../STM32Cube_FW_N6/Utilities/lcd/stm32_lcd.c ****   /* Get the text size */
 454:../STM32Cube_FW_N6/Utilities/lcd/stm32_lcd.c ****   while (*ptr++) size ++ ;
 455:../STM32Cube_FW_N6/Utilities/lcd/stm32_lcd.c **** 
 456:../STM32Cube_FW_N6/Utilities/lcd/stm32_lcd.c ****   /* Characters number per line */
 457:../STM32Cube_FW_N6/Utilities/lcd/stm32_lcd.c ****   xsize = (DrawProp[DrawProp->LcdLayer].LcdXsize/DrawProp[DrawProp->LcdLayer].pFont->Width);
 458:../STM32Cube_FW_N6/Utilities/lcd/stm32_lcd.c **** 
 459:../STM32Cube_FW_N6/Utilities/lcd/stm32_lcd.c ****   switch (Mode)
 460:../STM32Cube_FW_N6/Utilities/lcd/stm32_lcd.c ****   {
 461:../STM32Cube_FW_N6/Utilities/lcd/stm32_lcd.c ****   case CENTER_MODE:
 462:../STM32Cube_FW_N6/Utilities/lcd/stm32_lcd.c ****     {
 463:../STM32Cube_FW_N6/Utilities/lcd/stm32_lcd.c ****       refcolumn = Xpos + ((xsize - size)* DrawProp[DrawProp->LcdLayer].pFont->Width) / 2;
 464:../STM32Cube_FW_N6/Utilities/lcd/stm32_lcd.c ****       break;
 465:../STM32Cube_FW_N6/Utilities/lcd/stm32_lcd.c ****     }
 466:../STM32Cube_FW_N6/Utilities/lcd/stm32_lcd.c ****   case LEFT_MODE:
ARM GAS  /tmp/ccsDiBBo.s 			page 29


 467:../STM32Cube_FW_N6/Utilities/lcd/stm32_lcd.c ****     {
 468:../STM32Cube_FW_N6/Utilities/lcd/stm32_lcd.c ****       refcolumn = Xpos;
 469:../STM32Cube_FW_N6/Utilities/lcd/stm32_lcd.c ****       break;
 470:../STM32Cube_FW_N6/Utilities/lcd/stm32_lcd.c ****     }
 471:../STM32Cube_FW_N6/Utilities/lcd/stm32_lcd.c ****   case RIGHT_MODE:
 472:../STM32Cube_FW_N6/Utilities/lcd/stm32_lcd.c ****     {
 473:../STM32Cube_FW_N6/Utilities/lcd/stm32_lcd.c ****       refcolumn = - Xpos + ((xsize - size)*DrawProp[DrawProp->LcdLayer].pFont->Width);
 474:../STM32Cube_FW_N6/Utilities/lcd/stm32_lcd.c ****       break;
 475:../STM32Cube_FW_N6/Utilities/lcd/stm32_lcd.c ****     }
 476:../STM32Cube_FW_N6/Utilities/lcd/stm32_lcd.c ****   default:
 477:../STM32Cube_FW_N6/Utilities/lcd/stm32_lcd.c ****     {
 478:../STM32Cube_FW_N6/Utilities/lcd/stm32_lcd.c ****       refcolumn = Xpos;
 479:../STM32Cube_FW_N6/Utilities/lcd/stm32_lcd.c ****       break;
 480:../STM32Cube_FW_N6/Utilities/lcd/stm32_lcd.c ****     }
 481:../STM32Cube_FW_N6/Utilities/lcd/stm32_lcd.c ****   }
 482:../STM32Cube_FW_N6/Utilities/lcd/stm32_lcd.c **** 
 483:../STM32Cube_FW_N6/Utilities/lcd/stm32_lcd.c ****   /* Check that the Start column is located in the screen */
 484:../STM32Cube_FW_N6/Utilities/lcd/stm32_lcd.c ****   if ((refcolumn < 1) || (refcolumn >= 0x8000))
 485:../STM32Cube_FW_N6/Utilities/lcd/stm32_lcd.c ****   {
 486:../STM32Cube_FW_N6/Utilities/lcd/stm32_lcd.c ****     refcolumn = 1;
 487:../STM32Cube_FW_N6/Utilities/lcd/stm32_lcd.c ****   }
 488:../STM32Cube_FW_N6/Utilities/lcd/stm32_lcd.c **** 
 489:../STM32Cube_FW_N6/Utilities/lcd/stm32_lcd.c ****   /* Send the string character by character on LCD */
 490:../STM32Cube_FW_N6/Utilities/lcd/stm32_lcd.c ****   while ((*Text != 0) & (((DrawProp[DrawProp->LcdLayer].LcdXsize - (i*DrawProp[DrawProp->LcdLayer].
 491:../STM32Cube_FW_N6/Utilities/lcd/stm32_lcd.c ****   {
 492:../STM32Cube_FW_N6/Utilities/lcd/stm32_lcd.c ****     /* Display one character on LCD */
 493:../STM32Cube_FW_N6/Utilities/lcd/stm32_lcd.c ****     UTIL_LCD_DisplayChar(refcolumn, Ypos, *Text);
 494:../STM32Cube_FW_N6/Utilities/lcd/stm32_lcd.c ****     /* Decrement the column position by 16 */
 495:../STM32Cube_FW_N6/Utilities/lcd/stm32_lcd.c ****     refcolumn += DrawProp[DrawProp->LcdLayer].pFont->Width;
 496:../STM32Cube_FW_N6/Utilities/lcd/stm32_lcd.c **** 
 497:../STM32Cube_FW_N6/Utilities/lcd/stm32_lcd.c ****     /* Point on the next character */
 498:../STM32Cube_FW_N6/Utilities/lcd/stm32_lcd.c ****     Text++;
 499:../STM32Cube_FW_N6/Utilities/lcd/stm32_lcd.c ****     i++;
 500:../STM32Cube_FW_N6/Utilities/lcd/stm32_lcd.c ****   }
 501:../STM32Cube_FW_N6/Utilities/lcd/stm32_lcd.c **** }
 502:../STM32Cube_FW_N6/Utilities/lcd/stm32_lcd.c **** 
 503:../STM32Cube_FW_N6/Utilities/lcd/stm32_lcd.c **** /**
 504:../STM32Cube_FW_N6/Utilities/lcd/stm32_lcd.c ****   * @brief  Displays a maximum of 60 characters on the LCD.
 505:../STM32Cube_FW_N6/Utilities/lcd/stm32_lcd.c ****   * @param  Line: Line where to display the character shape
 506:../STM32Cube_FW_N6/Utilities/lcd/stm32_lcd.c ****   * @param  ptr: Pointer to string to display on LCD
 507:../STM32Cube_FW_N6/Utilities/lcd/stm32_lcd.c ****   */
 508:../STM32Cube_FW_N6/Utilities/lcd/stm32_lcd.c **** void UTIL_LCD_DisplayStringAtLine(uint32_t Line, uint8_t *ptr)
 509:../STM32Cube_FW_N6/Utilities/lcd/stm32_lcd.c **** {
 510:../STM32Cube_FW_N6/Utilities/lcd/stm32_lcd.c ****   UTIL_LCD_DisplayStringAt(0, LINE(Line), ptr, LEFT_MODE);
 511:../STM32Cube_FW_N6/Utilities/lcd/stm32_lcd.c **** }
 512:../STM32Cube_FW_N6/Utilities/lcd/stm32_lcd.c **** 
 513:../STM32Cube_FW_N6/Utilities/lcd/stm32_lcd.c **** /**
 514:../STM32Cube_FW_N6/Utilities/lcd/stm32_lcd.c ****   * @brief  Draws an uni-line (between two points) in currently active layer.
 515:../STM32Cube_FW_N6/Utilities/lcd/stm32_lcd.c ****   * @param  Xpos1 Point 1 X position
 516:../STM32Cube_FW_N6/Utilities/lcd/stm32_lcd.c ****   * @param  Ypos1 Point 1 Y position
 517:../STM32Cube_FW_N6/Utilities/lcd/stm32_lcd.c ****   * @param  Xpos2 Point 2 X position
 518:../STM32Cube_FW_N6/Utilities/lcd/stm32_lcd.c ****   * @param  Ypos2 Point 2 Y position
 519:../STM32Cube_FW_N6/Utilities/lcd/stm32_lcd.c ****   * @param  Color Draw color
 520:../STM32Cube_FW_N6/Utilities/lcd/stm32_lcd.c ****   */
 521:../STM32Cube_FW_N6/Utilities/lcd/stm32_lcd.c **** void UTIL_LCD_DrawLine(uint32_t Xpos1, uint32_t Ypos1, uint32_t Xpos2, uint32_t Ypos2, uint32_t Col
 522:../STM32Cube_FW_N6/Utilities/lcd/stm32_lcd.c **** {
 523:../STM32Cube_FW_N6/Utilities/lcd/stm32_lcd.c ****   int16_t deltax = 0, deltay = 0, x = 0, y = 0, xinc1 = 0, xinc2 = 0,
ARM GAS  /tmp/ccsDiBBo.s 			page 30


 524:../STM32Cube_FW_N6/Utilities/lcd/stm32_lcd.c ****   yinc1 = 0, yinc2 = 0, den = 0, num = 0, numadd = 0, numpixels = 0,
 525:../STM32Cube_FW_N6/Utilities/lcd/stm32_lcd.c ****   curpixel = 0;
 526:../STM32Cube_FW_N6/Utilities/lcd/stm32_lcd.c ****   int32_t x_diff, y_diff;
 527:../STM32Cube_FW_N6/Utilities/lcd/stm32_lcd.c **** 
 528:../STM32Cube_FW_N6/Utilities/lcd/stm32_lcd.c ****   x_diff = Xpos2 - Xpos1;
 529:../STM32Cube_FW_N6/Utilities/lcd/stm32_lcd.c ****   y_diff = Ypos2 - Ypos1;
 530:../STM32Cube_FW_N6/Utilities/lcd/stm32_lcd.c **** 
 531:../STM32Cube_FW_N6/Utilities/lcd/stm32_lcd.c ****   deltax = ABS(x_diff);         /* The absolute difference between the x's */
 532:../STM32Cube_FW_N6/Utilities/lcd/stm32_lcd.c ****   deltay = ABS(y_diff);         /* The absolute difference between the y's */
 533:../STM32Cube_FW_N6/Utilities/lcd/stm32_lcd.c ****   x = Xpos1;                       /* Start x off at the first pixel */
 534:../STM32Cube_FW_N6/Utilities/lcd/stm32_lcd.c ****   y = Ypos1;                       /* Start y off at the first pixel */
 535:../STM32Cube_FW_N6/Utilities/lcd/stm32_lcd.c **** 
 536:../STM32Cube_FW_N6/Utilities/lcd/stm32_lcd.c ****   if (Xpos2 >= Xpos1)                 /* The x-values are increasing */
 537:../STM32Cube_FW_N6/Utilities/lcd/stm32_lcd.c ****   {
 538:../STM32Cube_FW_N6/Utilities/lcd/stm32_lcd.c ****     xinc1 = 1;
 539:../STM32Cube_FW_N6/Utilities/lcd/stm32_lcd.c ****     xinc2 = 1;
 540:../STM32Cube_FW_N6/Utilities/lcd/stm32_lcd.c ****   }
 541:../STM32Cube_FW_N6/Utilities/lcd/stm32_lcd.c ****   else                          /* The x-values are decreasing */
 542:../STM32Cube_FW_N6/Utilities/lcd/stm32_lcd.c ****   {
 543:../STM32Cube_FW_N6/Utilities/lcd/stm32_lcd.c ****     xinc1 = -1;
 544:../STM32Cube_FW_N6/Utilities/lcd/stm32_lcd.c ****     xinc2 = -1;
 545:../STM32Cube_FW_N6/Utilities/lcd/stm32_lcd.c ****   }
 546:../STM32Cube_FW_N6/Utilities/lcd/stm32_lcd.c **** 
 547:../STM32Cube_FW_N6/Utilities/lcd/stm32_lcd.c ****   if (Ypos2 >= Ypos1)                 /* The y-values are increasing */
 548:../STM32Cube_FW_N6/Utilities/lcd/stm32_lcd.c ****   {
 549:../STM32Cube_FW_N6/Utilities/lcd/stm32_lcd.c ****     yinc1 = 1;
 550:../STM32Cube_FW_N6/Utilities/lcd/stm32_lcd.c ****     yinc2 = 1;
 551:../STM32Cube_FW_N6/Utilities/lcd/stm32_lcd.c ****   }
 552:../STM32Cube_FW_N6/Utilities/lcd/stm32_lcd.c ****   else                          /* The y-values are decreasing */
 553:../STM32Cube_FW_N6/Utilities/lcd/stm32_lcd.c ****   {
 554:../STM32Cube_FW_N6/Utilities/lcd/stm32_lcd.c ****     yinc1 = -1;
 555:../STM32Cube_FW_N6/Utilities/lcd/stm32_lcd.c ****     yinc2 = -1;
 556:../STM32Cube_FW_N6/Utilities/lcd/stm32_lcd.c ****   }
 557:../STM32Cube_FW_N6/Utilities/lcd/stm32_lcd.c **** 
 558:../STM32Cube_FW_N6/Utilities/lcd/stm32_lcd.c ****   if (deltax >= deltay)         /* There is at least one x-value for every y-value */
 559:../STM32Cube_FW_N6/Utilities/lcd/stm32_lcd.c ****   {
 560:../STM32Cube_FW_N6/Utilities/lcd/stm32_lcd.c ****     xinc1 = 0;                  /* Don't change the x when numerator >= denominator */
 561:../STM32Cube_FW_N6/Utilities/lcd/stm32_lcd.c ****     yinc2 = 0;                  /* Don't change the y for every iteration */
 562:../STM32Cube_FW_N6/Utilities/lcd/stm32_lcd.c ****     den = deltax;
 563:../STM32Cube_FW_N6/Utilities/lcd/stm32_lcd.c ****     num = deltax / 2;
 564:../STM32Cube_FW_N6/Utilities/lcd/stm32_lcd.c ****     numadd = deltay;
 565:../STM32Cube_FW_N6/Utilities/lcd/stm32_lcd.c ****     numpixels = deltax;         /* There are more x-values than y-values */
 566:../STM32Cube_FW_N6/Utilities/lcd/stm32_lcd.c ****   }
 567:../STM32Cube_FW_N6/Utilities/lcd/stm32_lcd.c ****   else                          /* There is at least one y-value for every x-value */
 568:../STM32Cube_FW_N6/Utilities/lcd/stm32_lcd.c ****   {
 569:../STM32Cube_FW_N6/Utilities/lcd/stm32_lcd.c ****     xinc2 = 0;                  /* Don't change the x for every iteration */
 570:../STM32Cube_FW_N6/Utilities/lcd/stm32_lcd.c ****     yinc1 = 0;                  /* Don't change the y when numerator >= denominator */
 571:../STM32Cube_FW_N6/Utilities/lcd/stm32_lcd.c ****     den = deltay;
 572:../STM32Cube_FW_N6/Utilities/lcd/stm32_lcd.c ****     num = deltay / 2;
 573:../STM32Cube_FW_N6/Utilities/lcd/stm32_lcd.c ****     numadd = deltax;
 574:../STM32Cube_FW_N6/Utilities/lcd/stm32_lcd.c ****     numpixels = deltay;         /* There are more y-values than x-values */
 575:../STM32Cube_FW_N6/Utilities/lcd/stm32_lcd.c ****   }
 576:../STM32Cube_FW_N6/Utilities/lcd/stm32_lcd.c **** 
 577:../STM32Cube_FW_N6/Utilities/lcd/stm32_lcd.c ****   for (curpixel = 0; curpixel <= numpixels; curpixel++)
 578:../STM32Cube_FW_N6/Utilities/lcd/stm32_lcd.c ****   {
 579:../STM32Cube_FW_N6/Utilities/lcd/stm32_lcd.c ****     UTIL_LCD_SetPixel(x, y, Color);   /* Draw the current pixel */
 580:../STM32Cube_FW_N6/Utilities/lcd/stm32_lcd.c ****     num += numadd;                            /* Increase the numerator by the top of the fraction 
ARM GAS  /tmp/ccsDiBBo.s 			page 31


 581:../STM32Cube_FW_N6/Utilities/lcd/stm32_lcd.c ****     if (num >= den)                           /* Check if numerator >= denominator */
 582:../STM32Cube_FW_N6/Utilities/lcd/stm32_lcd.c ****     {
 583:../STM32Cube_FW_N6/Utilities/lcd/stm32_lcd.c ****       num -= den;                             /* Calculate the new numerator value */
 584:../STM32Cube_FW_N6/Utilities/lcd/stm32_lcd.c ****       x += xinc1;                             /* Change the x as appropriate */
 585:../STM32Cube_FW_N6/Utilities/lcd/stm32_lcd.c ****       y += yinc1;                             /* Change the y as appropriate */
 586:../STM32Cube_FW_N6/Utilities/lcd/stm32_lcd.c ****     }
 587:../STM32Cube_FW_N6/Utilities/lcd/stm32_lcd.c ****     x += xinc2;                               /* Change the x as appropriate */
 588:../STM32Cube_FW_N6/Utilities/lcd/stm32_lcd.c ****     y += yinc2;                               /* Change the y as appropriate */
 589:../STM32Cube_FW_N6/Utilities/lcd/stm32_lcd.c ****   }
 590:../STM32Cube_FW_N6/Utilities/lcd/stm32_lcd.c **** }
 591:../STM32Cube_FW_N6/Utilities/lcd/stm32_lcd.c **** 
 592:../STM32Cube_FW_N6/Utilities/lcd/stm32_lcd.c **** /**
 593:../STM32Cube_FW_N6/Utilities/lcd/stm32_lcd.c ****   * @brief  Draws a rectangle in currently active layer.
 594:../STM32Cube_FW_N6/Utilities/lcd/stm32_lcd.c ****   * @param  Xpos X position
 595:../STM32Cube_FW_N6/Utilities/lcd/stm32_lcd.c ****   * @param  Ypos Y position
 596:../STM32Cube_FW_N6/Utilities/lcd/stm32_lcd.c ****   * @param  Width  Rectangle width
 597:../STM32Cube_FW_N6/Utilities/lcd/stm32_lcd.c ****   * @param  Height Rectangle height
 598:../STM32Cube_FW_N6/Utilities/lcd/stm32_lcd.c ****   * @param  Color  Draw color
 599:../STM32Cube_FW_N6/Utilities/lcd/stm32_lcd.c ****   */
 600:../STM32Cube_FW_N6/Utilities/lcd/stm32_lcd.c **** void UTIL_LCD_DrawRect(uint32_t Xpos, uint32_t Ypos, uint32_t Width, uint32_t Height, uint32_t Colo
 601:../STM32Cube_FW_N6/Utilities/lcd/stm32_lcd.c **** {
 602:../STM32Cube_FW_N6/Utilities/lcd/stm32_lcd.c ****   /* Draw horizontal lines */
 603:../STM32Cube_FW_N6/Utilities/lcd/stm32_lcd.c ****   UTIL_LCD_DrawHLine(Xpos, Ypos, Width, Color);
 604:../STM32Cube_FW_N6/Utilities/lcd/stm32_lcd.c ****   UTIL_LCD_DrawHLine(Xpos, (Ypos+ Height - 1U), Width, Color);
 605:../STM32Cube_FW_N6/Utilities/lcd/stm32_lcd.c **** 
 606:../STM32Cube_FW_N6/Utilities/lcd/stm32_lcd.c ****   /* Draw vertical lines */
 607:../STM32Cube_FW_N6/Utilities/lcd/stm32_lcd.c ****   UTIL_LCD_DrawVLine(Xpos, Ypos, Height, Color);
 608:../STM32Cube_FW_N6/Utilities/lcd/stm32_lcd.c ****   UTIL_LCD_DrawVLine((Xpos + Width - 1U), Ypos, Height, Color);
 609:../STM32Cube_FW_N6/Utilities/lcd/stm32_lcd.c **** }
 610:../STM32Cube_FW_N6/Utilities/lcd/stm32_lcd.c **** 
 611:../STM32Cube_FW_N6/Utilities/lcd/stm32_lcd.c **** /**
 612:../STM32Cube_FW_N6/Utilities/lcd/stm32_lcd.c ****   * @brief  Draws a circle in currently active layer.
 613:../STM32Cube_FW_N6/Utilities/lcd/stm32_lcd.c ****   * @param  Xpos    X position
 614:../STM32Cube_FW_N6/Utilities/lcd/stm32_lcd.c ****   * @param  Ypos    Y position
 615:../STM32Cube_FW_N6/Utilities/lcd/stm32_lcd.c ****   * @param  Radius  Circle radius
 616:../STM32Cube_FW_N6/Utilities/lcd/stm32_lcd.c ****   * @param  Color   Draw color
 617:../STM32Cube_FW_N6/Utilities/lcd/stm32_lcd.c ****   */
 618:../STM32Cube_FW_N6/Utilities/lcd/stm32_lcd.c **** void UTIL_LCD_DrawCircle(uint32_t Xpos, uint32_t Ypos, uint32_t Radius, uint32_t Color)
 619:../STM32Cube_FW_N6/Utilities/lcd/stm32_lcd.c **** {
 620:../STM32Cube_FW_N6/Utilities/lcd/stm32_lcd.c ****   int32_t   decision;  /* Decision Variable */
 621:../STM32Cube_FW_N6/Utilities/lcd/stm32_lcd.c ****   uint32_t  current_x; /* Current X Value */
 622:../STM32Cube_FW_N6/Utilities/lcd/stm32_lcd.c ****   uint32_t  current_y; /* Current Y Value */
 623:../STM32Cube_FW_N6/Utilities/lcd/stm32_lcd.c **** 
 624:../STM32Cube_FW_N6/Utilities/lcd/stm32_lcd.c ****   decision = 3 - (Radius << 1);
 625:../STM32Cube_FW_N6/Utilities/lcd/stm32_lcd.c ****   current_x = 0;
 626:../STM32Cube_FW_N6/Utilities/lcd/stm32_lcd.c ****   current_y = Radius;
 627:../STM32Cube_FW_N6/Utilities/lcd/stm32_lcd.c **** 
 628:../STM32Cube_FW_N6/Utilities/lcd/stm32_lcd.c ****   while (current_x <= current_y)
 629:../STM32Cube_FW_N6/Utilities/lcd/stm32_lcd.c ****   {
 630:../STM32Cube_FW_N6/Utilities/lcd/stm32_lcd.c ****     if((Ypos - current_y) < DrawProp[DrawProp->LcdLayer].LcdYsize)
 631:../STM32Cube_FW_N6/Utilities/lcd/stm32_lcd.c ****     {
 632:../STM32Cube_FW_N6/Utilities/lcd/stm32_lcd.c ****       if((Xpos + current_x) < DrawProp[DrawProp->LcdLayer].LcdXsize)
 633:../STM32Cube_FW_N6/Utilities/lcd/stm32_lcd.c ****       {
 634:../STM32Cube_FW_N6/Utilities/lcd/stm32_lcd.c ****         UTIL_LCD_SetPixel((Xpos + current_x), (Ypos - current_y), Color);
 635:../STM32Cube_FW_N6/Utilities/lcd/stm32_lcd.c ****       }
 636:../STM32Cube_FW_N6/Utilities/lcd/stm32_lcd.c ****       if((Xpos - current_x) < DrawProp[DrawProp->LcdLayer].LcdXsize)
 637:../STM32Cube_FW_N6/Utilities/lcd/stm32_lcd.c ****       {
ARM GAS  /tmp/ccsDiBBo.s 			page 32


 638:../STM32Cube_FW_N6/Utilities/lcd/stm32_lcd.c ****         UTIL_LCD_SetPixel((Xpos - current_x), (Ypos - current_y), Color);
 639:../STM32Cube_FW_N6/Utilities/lcd/stm32_lcd.c ****       }
 640:../STM32Cube_FW_N6/Utilities/lcd/stm32_lcd.c ****     }
 641:../STM32Cube_FW_N6/Utilities/lcd/stm32_lcd.c **** 
 642:../STM32Cube_FW_N6/Utilities/lcd/stm32_lcd.c ****     if((Ypos - current_x) < DrawProp[DrawProp->LcdLayer].LcdYsize)
 643:../STM32Cube_FW_N6/Utilities/lcd/stm32_lcd.c ****     {
 644:../STM32Cube_FW_N6/Utilities/lcd/stm32_lcd.c ****       if((Xpos + current_y) < DrawProp[DrawProp->LcdLayer].LcdXsize)
 645:../STM32Cube_FW_N6/Utilities/lcd/stm32_lcd.c ****       {
 646:../STM32Cube_FW_N6/Utilities/lcd/stm32_lcd.c ****         UTIL_LCD_SetPixel((Xpos + current_y), (Ypos - current_x), Color);
 647:../STM32Cube_FW_N6/Utilities/lcd/stm32_lcd.c ****       }
 648:../STM32Cube_FW_N6/Utilities/lcd/stm32_lcd.c ****       if((Xpos - current_y) < DrawProp[DrawProp->LcdLayer].LcdXsize)
 649:../STM32Cube_FW_N6/Utilities/lcd/stm32_lcd.c ****       {
 650:../STM32Cube_FW_N6/Utilities/lcd/stm32_lcd.c ****         UTIL_LCD_SetPixel((Xpos - current_y), (Ypos - current_x), Color);
 651:../STM32Cube_FW_N6/Utilities/lcd/stm32_lcd.c ****       }
 652:../STM32Cube_FW_N6/Utilities/lcd/stm32_lcd.c ****     }
 653:../STM32Cube_FW_N6/Utilities/lcd/stm32_lcd.c **** 
 654:../STM32Cube_FW_N6/Utilities/lcd/stm32_lcd.c ****     if((Ypos + current_y) < DrawProp[DrawProp->LcdLayer].LcdYsize)
 655:../STM32Cube_FW_N6/Utilities/lcd/stm32_lcd.c ****     {
 656:../STM32Cube_FW_N6/Utilities/lcd/stm32_lcd.c ****       if((Xpos + current_x) < DrawProp[DrawProp->LcdLayer].LcdXsize)
 657:../STM32Cube_FW_N6/Utilities/lcd/stm32_lcd.c ****       {
 658:../STM32Cube_FW_N6/Utilities/lcd/stm32_lcd.c ****         UTIL_LCD_SetPixel((Xpos + current_x), (Ypos + current_y), Color);
 659:../STM32Cube_FW_N6/Utilities/lcd/stm32_lcd.c ****       }
 660:../STM32Cube_FW_N6/Utilities/lcd/stm32_lcd.c ****       if((Xpos - current_x) < DrawProp[DrawProp->LcdLayer].LcdXsize)
 661:../STM32Cube_FW_N6/Utilities/lcd/stm32_lcd.c ****       {
 662:../STM32Cube_FW_N6/Utilities/lcd/stm32_lcd.c ****         UTIL_LCD_SetPixel((Xpos - current_x), (Ypos + current_y), Color);
 663:../STM32Cube_FW_N6/Utilities/lcd/stm32_lcd.c ****       }
 664:../STM32Cube_FW_N6/Utilities/lcd/stm32_lcd.c ****     }
 665:../STM32Cube_FW_N6/Utilities/lcd/stm32_lcd.c **** 
 666:../STM32Cube_FW_N6/Utilities/lcd/stm32_lcd.c ****     if((Ypos + current_x) < DrawProp[DrawProp->LcdLayer].LcdYsize)
 667:../STM32Cube_FW_N6/Utilities/lcd/stm32_lcd.c ****     {
 668:../STM32Cube_FW_N6/Utilities/lcd/stm32_lcd.c ****       if((Xpos + current_y) < DrawProp[DrawProp->LcdLayer].LcdXsize)
 669:../STM32Cube_FW_N6/Utilities/lcd/stm32_lcd.c ****       {
 670:../STM32Cube_FW_N6/Utilities/lcd/stm32_lcd.c ****         UTIL_LCD_SetPixel((Xpos + current_y), (Ypos + current_x), Color);
 671:../STM32Cube_FW_N6/Utilities/lcd/stm32_lcd.c ****       }
 672:../STM32Cube_FW_N6/Utilities/lcd/stm32_lcd.c ****       if((Xpos - current_y) < DrawProp[DrawProp->LcdLayer].LcdXsize)
 673:../STM32Cube_FW_N6/Utilities/lcd/stm32_lcd.c ****       {
 674:../STM32Cube_FW_N6/Utilities/lcd/stm32_lcd.c ****         UTIL_LCD_SetPixel((Xpos - current_y), (Ypos + current_x), Color);
 675:../STM32Cube_FW_N6/Utilities/lcd/stm32_lcd.c ****       }
 676:../STM32Cube_FW_N6/Utilities/lcd/stm32_lcd.c ****     }
 677:../STM32Cube_FW_N6/Utilities/lcd/stm32_lcd.c **** 
 678:../STM32Cube_FW_N6/Utilities/lcd/stm32_lcd.c ****     if (decision < 0)
 679:../STM32Cube_FW_N6/Utilities/lcd/stm32_lcd.c ****     {
 680:../STM32Cube_FW_N6/Utilities/lcd/stm32_lcd.c ****       decision += (current_x << 2) + 6;
 681:../STM32Cube_FW_N6/Utilities/lcd/stm32_lcd.c ****     }
 682:../STM32Cube_FW_N6/Utilities/lcd/stm32_lcd.c ****     else
 683:../STM32Cube_FW_N6/Utilities/lcd/stm32_lcd.c ****     {
 684:../STM32Cube_FW_N6/Utilities/lcd/stm32_lcd.c ****       decision += ((current_x - current_y) << 2) + 10;
 685:../STM32Cube_FW_N6/Utilities/lcd/stm32_lcd.c ****       current_y--;
 686:../STM32Cube_FW_N6/Utilities/lcd/stm32_lcd.c ****     }
 687:../STM32Cube_FW_N6/Utilities/lcd/stm32_lcd.c ****     current_x++;
 688:../STM32Cube_FW_N6/Utilities/lcd/stm32_lcd.c ****   }
 689:../STM32Cube_FW_N6/Utilities/lcd/stm32_lcd.c **** }
 690:../STM32Cube_FW_N6/Utilities/lcd/stm32_lcd.c **** 
 691:../STM32Cube_FW_N6/Utilities/lcd/stm32_lcd.c **** /**
 692:../STM32Cube_FW_N6/Utilities/lcd/stm32_lcd.c ****   * @brief  Draws an poly-line (between many points) in currently active layer.
 693:../STM32Cube_FW_N6/Utilities/lcd/stm32_lcd.c ****   * @param  Points      Pointer to the points array
 694:../STM32Cube_FW_N6/Utilities/lcd/stm32_lcd.c ****   * @param  PointCount  Number of points
ARM GAS  /tmp/ccsDiBBo.s 			page 33


 695:../STM32Cube_FW_N6/Utilities/lcd/stm32_lcd.c ****   * @param  Color       Draw color
 696:../STM32Cube_FW_N6/Utilities/lcd/stm32_lcd.c ****   */
 697:../STM32Cube_FW_N6/Utilities/lcd/stm32_lcd.c **** void UTIL_LCD_DrawPolygon(pPoint Points, uint32_t PointCount, uint32_t Color)
 698:../STM32Cube_FW_N6/Utilities/lcd/stm32_lcd.c **** {
 699:../STM32Cube_FW_N6/Utilities/lcd/stm32_lcd.c ****   int16_t x_pos = 0, y_pos = 0;
 700:../STM32Cube_FW_N6/Utilities/lcd/stm32_lcd.c **** 
 701:../STM32Cube_FW_N6/Utilities/lcd/stm32_lcd.c ****   if(PointCount < 2)
 702:../STM32Cube_FW_N6/Utilities/lcd/stm32_lcd.c ****   {
 703:../STM32Cube_FW_N6/Utilities/lcd/stm32_lcd.c ****     return;
 704:../STM32Cube_FW_N6/Utilities/lcd/stm32_lcd.c ****   }
 705:../STM32Cube_FW_N6/Utilities/lcd/stm32_lcd.c **** 
 706:../STM32Cube_FW_N6/Utilities/lcd/stm32_lcd.c ****   UTIL_LCD_DrawLine(Points->X, Points->Y, (Points+PointCount-1)->X, (Points+PointCount-1)->Y, Color
 707:../STM32Cube_FW_N6/Utilities/lcd/stm32_lcd.c **** 
 708:../STM32Cube_FW_N6/Utilities/lcd/stm32_lcd.c ****   while(--PointCount)
 709:../STM32Cube_FW_N6/Utilities/lcd/stm32_lcd.c ****   {
 710:../STM32Cube_FW_N6/Utilities/lcd/stm32_lcd.c ****     x_pos = Points->X;
 711:../STM32Cube_FW_N6/Utilities/lcd/stm32_lcd.c ****     y_pos = Points->Y;
 712:../STM32Cube_FW_N6/Utilities/lcd/stm32_lcd.c ****     Points++;
 713:../STM32Cube_FW_N6/Utilities/lcd/stm32_lcd.c ****     UTIL_LCD_DrawLine(x_pos, y_pos, Points->X, Points->Y, Color);
 714:../STM32Cube_FW_N6/Utilities/lcd/stm32_lcd.c ****   }
 715:../STM32Cube_FW_N6/Utilities/lcd/stm32_lcd.c **** }
 716:../STM32Cube_FW_N6/Utilities/lcd/stm32_lcd.c **** 
 717:../STM32Cube_FW_N6/Utilities/lcd/stm32_lcd.c **** /**
 718:../STM32Cube_FW_N6/Utilities/lcd/stm32_lcd.c ****   * @brief  Draws an ellipse on LCD in currently active layer.
 719:../STM32Cube_FW_N6/Utilities/lcd/stm32_lcd.c ****   * @param  Xpos    X position
 720:../STM32Cube_FW_N6/Utilities/lcd/stm32_lcd.c ****   * @param  Ypos    Y position
 721:../STM32Cube_FW_N6/Utilities/lcd/stm32_lcd.c ****   * @param  XRadius Ellipse X radius
 722:../STM32Cube_FW_N6/Utilities/lcd/stm32_lcd.c ****   * @param  YRadius Ellipse Y radius
 723:../STM32Cube_FW_N6/Utilities/lcd/stm32_lcd.c ****   * @param  Color   Draw color
 724:../STM32Cube_FW_N6/Utilities/lcd/stm32_lcd.c ****   */
 725:../STM32Cube_FW_N6/Utilities/lcd/stm32_lcd.c **** void UTIL_LCD_DrawEllipse(int Xpos, int Ypos, int XRadius, int YRadius, uint32_t Color)
 726:../STM32Cube_FW_N6/Utilities/lcd/stm32_lcd.c **** {
 727:../STM32Cube_FW_N6/Utilities/lcd/stm32_lcd.c ****   int x_pos = 0, y_pos = -YRadius, err = 2-2*XRadius, e2;
 728:../STM32Cube_FW_N6/Utilities/lcd/stm32_lcd.c ****   float k = 0, rad1 = 0, rad2 = 0;
 729:../STM32Cube_FW_N6/Utilities/lcd/stm32_lcd.c **** 
 730:../STM32Cube_FW_N6/Utilities/lcd/stm32_lcd.c ****   rad1 = XRadius;
 731:../STM32Cube_FW_N6/Utilities/lcd/stm32_lcd.c ****   rad2 = YRadius;
 732:../STM32Cube_FW_N6/Utilities/lcd/stm32_lcd.c **** 
 733:../STM32Cube_FW_N6/Utilities/lcd/stm32_lcd.c ****   k = (float)(rad2/rad1);
 734:../STM32Cube_FW_N6/Utilities/lcd/stm32_lcd.c **** 
 735:../STM32Cube_FW_N6/Utilities/lcd/stm32_lcd.c ****   do
 736:../STM32Cube_FW_N6/Utilities/lcd/stm32_lcd.c ****   {
 737:../STM32Cube_FW_N6/Utilities/lcd/stm32_lcd.c ****     UTIL_LCD_SetPixel((Xpos-(uint32_t)(x_pos/k)), (Ypos + y_pos), Color);
 738:../STM32Cube_FW_N6/Utilities/lcd/stm32_lcd.c ****     UTIL_LCD_SetPixel((Xpos+(uint32_t)(x_pos/k)), (Ypos + y_pos), Color);
 739:../STM32Cube_FW_N6/Utilities/lcd/stm32_lcd.c ****     UTIL_LCD_SetPixel((Xpos+(uint32_t)(x_pos/k)), (Ypos - y_pos), Color);
 740:../STM32Cube_FW_N6/Utilities/lcd/stm32_lcd.c ****     UTIL_LCD_SetPixel((Xpos-(uint32_t)(x_pos/k)), (Ypos - y_pos), Color);
 741:../STM32Cube_FW_N6/Utilities/lcd/stm32_lcd.c **** 
 742:../STM32Cube_FW_N6/Utilities/lcd/stm32_lcd.c ****     e2 = err;
 743:../STM32Cube_FW_N6/Utilities/lcd/stm32_lcd.c ****     if (e2 <= x_pos)
 744:../STM32Cube_FW_N6/Utilities/lcd/stm32_lcd.c ****     {
 745:../STM32Cube_FW_N6/Utilities/lcd/stm32_lcd.c ****       err += ++x_pos*2+1;
 746:../STM32Cube_FW_N6/Utilities/lcd/stm32_lcd.c ****       if (-y_pos == x_pos && e2 <= y_pos) e2 = 0;
 747:../STM32Cube_FW_N6/Utilities/lcd/stm32_lcd.c ****     }
 748:../STM32Cube_FW_N6/Utilities/lcd/stm32_lcd.c ****     if (e2 > y_pos)
 749:../STM32Cube_FW_N6/Utilities/lcd/stm32_lcd.c ****     {
 750:../STM32Cube_FW_N6/Utilities/lcd/stm32_lcd.c ****       err += ++y_pos*2+1;
 751:../STM32Cube_FW_N6/Utilities/lcd/stm32_lcd.c ****     }
ARM GAS  /tmp/ccsDiBBo.s 			page 34


 752:../STM32Cube_FW_N6/Utilities/lcd/stm32_lcd.c ****   }while (y_pos <= 0);
 753:../STM32Cube_FW_N6/Utilities/lcd/stm32_lcd.c **** }
 754:../STM32Cube_FW_N6/Utilities/lcd/stm32_lcd.c **** 
 755:../STM32Cube_FW_N6/Utilities/lcd/stm32_lcd.c **** /**
 756:../STM32Cube_FW_N6/Utilities/lcd/stm32_lcd.c ****   * @brief  Draws a bitmap picture loaded in the internal Flash (32 bpp) in currently active layer.
 757:../STM32Cube_FW_N6/Utilities/lcd/stm32_lcd.c ****   * @param  Xpos  Bmp X position in the LCD
 758:../STM32Cube_FW_N6/Utilities/lcd/stm32_lcd.c ****   * @param  Ypos  Bmp Y position in the LCD
 759:../STM32Cube_FW_N6/Utilities/lcd/stm32_lcd.c ****   * @param  pData Pointer to Bmp picture address in the internal Flash
 760:../STM32Cube_FW_N6/Utilities/lcd/stm32_lcd.c ****   */
 761:../STM32Cube_FW_N6/Utilities/lcd/stm32_lcd.c **** void UTIL_LCD_DrawBitmap(uint32_t Xpos, uint32_t Ypos, uint8_t *pData)
 762:../STM32Cube_FW_N6/Utilities/lcd/stm32_lcd.c **** {
 763:../STM32Cube_FW_N6/Utilities/lcd/stm32_lcd.c ****   FuncDriver.DrawBitmap(DrawProp->LcdDevice, Xpos, Ypos, pData);
 764:../STM32Cube_FW_N6/Utilities/lcd/stm32_lcd.c **** }
 765:../STM32Cube_FW_N6/Utilities/lcd/stm32_lcd.c **** 
 766:../STM32Cube_FW_N6/Utilities/lcd/stm32_lcd.c **** /**
 767:../STM32Cube_FW_N6/Utilities/lcd/stm32_lcd.c ****   * @brief  Draws a full rectangle in currently active layer.
 768:../STM32Cube_FW_N6/Utilities/lcd/stm32_lcd.c ****   * @param  Xpos   X position
 769:../STM32Cube_FW_N6/Utilities/lcd/stm32_lcd.c ****   * @param  Ypos   Y position
 770:../STM32Cube_FW_N6/Utilities/lcd/stm32_lcd.c ****   * @param  Width  Rectangle width
 771:../STM32Cube_FW_N6/Utilities/lcd/stm32_lcd.c ****   * @param  Height Rectangle height
 772:../STM32Cube_FW_N6/Utilities/lcd/stm32_lcd.c ****   * @param  Color  Draw color
 773:../STM32Cube_FW_N6/Utilities/lcd/stm32_lcd.c ****   */
 774:../STM32Cube_FW_N6/Utilities/lcd/stm32_lcd.c **** void UTIL_LCD_FillRect(uint32_t Xpos, uint32_t Ypos, uint32_t Width, uint32_t Height, uint32_t Colo
 775:../STM32Cube_FW_N6/Utilities/lcd/stm32_lcd.c **** {
 776:../STM32Cube_FW_N6/Utilities/lcd/stm32_lcd.c ****   /* Fill the rectangle */
 777:../STM32Cube_FW_N6/Utilities/lcd/stm32_lcd.c ****   if(DrawProp[DrawProp->LcdLayer].LcdPixelFormat == LCD_PIXEL_FORMAT_RGB565)
 778:../STM32Cube_FW_N6/Utilities/lcd/stm32_lcd.c ****   {
 779:../STM32Cube_FW_N6/Utilities/lcd/stm32_lcd.c ****     FuncDriver.FillRect(DrawProp->LcdDevice, Xpos, Ypos, Width, Height, CONVERTARGB88882RGB565(Colo
 780:../STM32Cube_FW_N6/Utilities/lcd/stm32_lcd.c ****   }
 781:../STM32Cube_FW_N6/Utilities/lcd/stm32_lcd.c ****   else if(DrawProp[DrawProp->LcdLayer].LcdPixelFormat == LCD_PIXEL_FORMAT_RGB888)
 782:../STM32Cube_FW_N6/Utilities/lcd/stm32_lcd.c ****   {
 783:../STM32Cube_FW_N6/Utilities/lcd/stm32_lcd.c ****     FuncDriver.FillRect(DrawProp->LcdDevice, Xpos, Ypos, Width, Height, CONVERTARGB88882RGB888(Colo
 784:../STM32Cube_FW_N6/Utilities/lcd/stm32_lcd.c ****   }
 785:../STM32Cube_FW_N6/Utilities/lcd/stm32_lcd.c ****   else if(DrawProp[DrawProp->LcdLayer].LcdPixelFormat == LCD_PIXEL_FORMAT_ARGB4444)
 786:../STM32Cube_FW_N6/Utilities/lcd/stm32_lcd.c ****   {
 787:../STM32Cube_FW_N6/Utilities/lcd/stm32_lcd.c ****     FuncDriver.FillRect(DrawProp->LcdDevice, Xpos, Ypos, Width, Height, CONVERTARGB88882ARGB4444(Co
 788:../STM32Cube_FW_N6/Utilities/lcd/stm32_lcd.c ****   }
 789:../STM32Cube_FW_N6/Utilities/lcd/stm32_lcd.c ****   else /*LCD_PIXEL_FORMAT_ARGB8888*/
 790:../STM32Cube_FW_N6/Utilities/lcd/stm32_lcd.c ****   {
 791:../STM32Cube_FW_N6/Utilities/lcd/stm32_lcd.c ****     FuncDriver.FillRect(DrawProp->LcdDevice, Xpos, Ypos, Width, Height, Color);
 792:../STM32Cube_FW_N6/Utilities/lcd/stm32_lcd.c ****   }
 793:../STM32Cube_FW_N6/Utilities/lcd/stm32_lcd.c **** }
 794:../STM32Cube_FW_N6/Utilities/lcd/stm32_lcd.c **** 
 795:../STM32Cube_FW_N6/Utilities/lcd/stm32_lcd.c **** /**
 796:../STM32Cube_FW_N6/Utilities/lcd/stm32_lcd.c ****   * @brief  Draws a full circle in currently active layer.
 797:../STM32Cube_FW_N6/Utilities/lcd/stm32_lcd.c ****   * @param  Xpos   X position
 798:../STM32Cube_FW_N6/Utilities/lcd/stm32_lcd.c ****   * @param  Ypos   Y position
 799:../STM32Cube_FW_N6/Utilities/lcd/stm32_lcd.c ****   * @param  Radius Circle radius
 800:../STM32Cube_FW_N6/Utilities/lcd/stm32_lcd.c ****   * @param  Color  Draw color
 801:../STM32Cube_FW_N6/Utilities/lcd/stm32_lcd.c ****   */
 802:../STM32Cube_FW_N6/Utilities/lcd/stm32_lcd.c **** void UTIL_LCD_FillCircle(uint32_t Xpos, uint32_t Ypos, uint32_t Radius, uint32_t Color)
 803:../STM32Cube_FW_N6/Utilities/lcd/stm32_lcd.c **** {
 804:../STM32Cube_FW_N6/Utilities/lcd/stm32_lcd.c ****   int32_t   decision;  /* Decision Variable */
 805:../STM32Cube_FW_N6/Utilities/lcd/stm32_lcd.c ****   uint32_t  current_x; /* Current X Value */
 806:../STM32Cube_FW_N6/Utilities/lcd/stm32_lcd.c ****   uint32_t  current_y; /* Current Y Value */
 807:../STM32Cube_FW_N6/Utilities/lcd/stm32_lcd.c **** 
 808:../STM32Cube_FW_N6/Utilities/lcd/stm32_lcd.c ****   decision = 3 - (Radius << 1);
ARM GAS  /tmp/ccsDiBBo.s 			page 35


 809:../STM32Cube_FW_N6/Utilities/lcd/stm32_lcd.c **** 
 810:../STM32Cube_FW_N6/Utilities/lcd/stm32_lcd.c ****   current_x = 0;
 811:../STM32Cube_FW_N6/Utilities/lcd/stm32_lcd.c ****   current_y = Radius;
 812:../STM32Cube_FW_N6/Utilities/lcd/stm32_lcd.c **** 
 813:../STM32Cube_FW_N6/Utilities/lcd/stm32_lcd.c ****   while (current_x <= current_y)
 814:../STM32Cube_FW_N6/Utilities/lcd/stm32_lcd.c ****   {
 815:../STM32Cube_FW_N6/Utilities/lcd/stm32_lcd.c ****     if(current_y > 0)
 816:../STM32Cube_FW_N6/Utilities/lcd/stm32_lcd.c ****     {
 817:../STM32Cube_FW_N6/Utilities/lcd/stm32_lcd.c ****       if(current_y >= Xpos)
 818:../STM32Cube_FW_N6/Utilities/lcd/stm32_lcd.c ****       {
 819:../STM32Cube_FW_N6/Utilities/lcd/stm32_lcd.c ****         UTIL_LCD_DrawHLine(0, Ypos + current_x, 2*current_y - (current_y - Xpos), Color);
 820:../STM32Cube_FW_N6/Utilities/lcd/stm32_lcd.c ****         UTIL_LCD_DrawHLine(0, Ypos - current_x, 2*current_y - (current_y - Xpos), Color);
 821:../STM32Cube_FW_N6/Utilities/lcd/stm32_lcd.c ****       }
 822:../STM32Cube_FW_N6/Utilities/lcd/stm32_lcd.c ****       else
 823:../STM32Cube_FW_N6/Utilities/lcd/stm32_lcd.c ****       {
 824:../STM32Cube_FW_N6/Utilities/lcd/stm32_lcd.c ****         UTIL_LCD_DrawHLine(Xpos - current_y, Ypos + current_x, 2*current_y, Color);
 825:../STM32Cube_FW_N6/Utilities/lcd/stm32_lcd.c ****         UTIL_LCD_DrawHLine(Xpos - current_y, Ypos - current_x, 2*current_y, Color);
 826:../STM32Cube_FW_N6/Utilities/lcd/stm32_lcd.c ****       }
 827:../STM32Cube_FW_N6/Utilities/lcd/stm32_lcd.c ****     }
 828:../STM32Cube_FW_N6/Utilities/lcd/stm32_lcd.c **** 
 829:../STM32Cube_FW_N6/Utilities/lcd/stm32_lcd.c ****     if(current_x > 0)
 830:../STM32Cube_FW_N6/Utilities/lcd/stm32_lcd.c ****     {
 831:../STM32Cube_FW_N6/Utilities/lcd/stm32_lcd.c ****       if(current_x >= Xpos)
 832:../STM32Cube_FW_N6/Utilities/lcd/stm32_lcd.c ****       {
 833:../STM32Cube_FW_N6/Utilities/lcd/stm32_lcd.c ****         UTIL_LCD_DrawHLine(0, Ypos - current_y, 2*current_x - (current_x - Xpos), Color);
 834:../STM32Cube_FW_N6/Utilities/lcd/stm32_lcd.c ****         UTIL_LCD_DrawHLine(0, Ypos + current_y, 2*current_x - (current_x - Xpos), Color);
 835:../STM32Cube_FW_N6/Utilities/lcd/stm32_lcd.c ****       }
 836:../STM32Cube_FW_N6/Utilities/lcd/stm32_lcd.c ****       else
 837:../STM32Cube_FW_N6/Utilities/lcd/stm32_lcd.c ****       {
 838:../STM32Cube_FW_N6/Utilities/lcd/stm32_lcd.c ****         UTIL_LCD_DrawHLine(Xpos - current_x, Ypos - current_y, 2*current_x, Color);
 839:../STM32Cube_FW_N6/Utilities/lcd/stm32_lcd.c ****         UTIL_LCD_DrawHLine(Xpos - current_x, Ypos + current_y, 2*current_x, Color);
 840:../STM32Cube_FW_N6/Utilities/lcd/stm32_lcd.c ****       }
 841:../STM32Cube_FW_N6/Utilities/lcd/stm32_lcd.c ****     }
 842:../STM32Cube_FW_N6/Utilities/lcd/stm32_lcd.c ****     if (decision < 0)
 843:../STM32Cube_FW_N6/Utilities/lcd/stm32_lcd.c ****     {
 844:../STM32Cube_FW_N6/Utilities/lcd/stm32_lcd.c ****       decision += (current_x << 2) + 6;
 845:../STM32Cube_FW_N6/Utilities/lcd/stm32_lcd.c ****     }
 846:../STM32Cube_FW_N6/Utilities/lcd/stm32_lcd.c ****     else
 847:../STM32Cube_FW_N6/Utilities/lcd/stm32_lcd.c ****     {
 848:../STM32Cube_FW_N6/Utilities/lcd/stm32_lcd.c ****       decision += ((current_x - current_y) << 2) + 10;
 849:../STM32Cube_FW_N6/Utilities/lcd/stm32_lcd.c ****       current_y--;
 850:../STM32Cube_FW_N6/Utilities/lcd/stm32_lcd.c ****     }
 851:../STM32Cube_FW_N6/Utilities/lcd/stm32_lcd.c ****     current_x++;
 852:../STM32Cube_FW_N6/Utilities/lcd/stm32_lcd.c ****   }
 853:../STM32Cube_FW_N6/Utilities/lcd/stm32_lcd.c **** 
 854:../STM32Cube_FW_N6/Utilities/lcd/stm32_lcd.c ****   UTIL_LCD_DrawCircle(Xpos, Ypos, Radius, Color);
 855:../STM32Cube_FW_N6/Utilities/lcd/stm32_lcd.c **** }
 856:../STM32Cube_FW_N6/Utilities/lcd/stm32_lcd.c **** 
 857:../STM32Cube_FW_N6/Utilities/lcd/stm32_lcd.c **** /**
 858:../STM32Cube_FW_N6/Utilities/lcd/stm32_lcd.c ****   * @brief  Draws a full poly-line (between many points) in currently active layer.
 859:../STM32Cube_FW_N6/Utilities/lcd/stm32_lcd.c ****   * @param  Points     Pointer to the points array
 860:../STM32Cube_FW_N6/Utilities/lcd/stm32_lcd.c ****   * @param  PointCount Number of points
 861:../STM32Cube_FW_N6/Utilities/lcd/stm32_lcd.c ****   * @param  Color      Draw color
 862:../STM32Cube_FW_N6/Utilities/lcd/stm32_lcd.c ****   */
 863:../STM32Cube_FW_N6/Utilities/lcd/stm32_lcd.c **** void UTIL_LCD_FillPolygon(pPoint Points, uint32_t PointCount, uint32_t Color)
 864:../STM32Cube_FW_N6/Utilities/lcd/stm32_lcd.c **** {
 865:../STM32Cube_FW_N6/Utilities/lcd/stm32_lcd.c ****   int16_t X = 0, Y = 0, X2 = 0, Y2 = 0, x_center = 0, y_center = 0, x_first = 0, y_first = 0, pixel
ARM GAS  /tmp/ccsDiBBo.s 			page 36


 866:../STM32Cube_FW_N6/Utilities/lcd/stm32_lcd.c ****   uint32_t  image_left = 0, image_right = 0, image_top = 0, image_bottom = 0;
 867:../STM32Cube_FW_N6/Utilities/lcd/stm32_lcd.c ****   Triangle_Positions_t positions;
 868:../STM32Cube_FW_N6/Utilities/lcd/stm32_lcd.c **** 
 869:../STM32Cube_FW_N6/Utilities/lcd/stm32_lcd.c ****   image_left = image_right = Points->X;
 870:../STM32Cube_FW_N6/Utilities/lcd/stm32_lcd.c ****   image_top= image_bottom = Points->Y;
 871:../STM32Cube_FW_N6/Utilities/lcd/stm32_lcd.c **** 
 872:../STM32Cube_FW_N6/Utilities/lcd/stm32_lcd.c ****   for(counter = 1; counter < PointCount; counter++)
 873:../STM32Cube_FW_N6/Utilities/lcd/stm32_lcd.c ****   {
 874:../STM32Cube_FW_N6/Utilities/lcd/stm32_lcd.c ****     pixel_x = POLY_X(counter);
 875:../STM32Cube_FW_N6/Utilities/lcd/stm32_lcd.c ****     if(pixel_x < image_left)
 876:../STM32Cube_FW_N6/Utilities/lcd/stm32_lcd.c ****     {
 877:../STM32Cube_FW_N6/Utilities/lcd/stm32_lcd.c ****       image_left = pixel_x;
 878:../STM32Cube_FW_N6/Utilities/lcd/stm32_lcd.c ****     }
 879:../STM32Cube_FW_N6/Utilities/lcd/stm32_lcd.c ****     if(pixel_x > image_right)
 880:../STM32Cube_FW_N6/Utilities/lcd/stm32_lcd.c ****     {
 881:../STM32Cube_FW_N6/Utilities/lcd/stm32_lcd.c ****       image_right = pixel_x;
 882:../STM32Cube_FW_N6/Utilities/lcd/stm32_lcd.c ****     }
 883:../STM32Cube_FW_N6/Utilities/lcd/stm32_lcd.c **** 
 884:../STM32Cube_FW_N6/Utilities/lcd/stm32_lcd.c ****     pixel_y = POLY_Y(counter);
 885:../STM32Cube_FW_N6/Utilities/lcd/stm32_lcd.c ****     if(pixel_y < image_top)
 886:../STM32Cube_FW_N6/Utilities/lcd/stm32_lcd.c ****     {
 887:../STM32Cube_FW_N6/Utilities/lcd/stm32_lcd.c ****       image_top = pixel_y;
 888:../STM32Cube_FW_N6/Utilities/lcd/stm32_lcd.c ****     }
 889:../STM32Cube_FW_N6/Utilities/lcd/stm32_lcd.c ****     if(pixel_y > image_bottom)
 890:../STM32Cube_FW_N6/Utilities/lcd/stm32_lcd.c ****     {
 891:../STM32Cube_FW_N6/Utilities/lcd/stm32_lcd.c ****       image_bottom = pixel_y;
 892:../STM32Cube_FW_N6/Utilities/lcd/stm32_lcd.c ****     }
 893:../STM32Cube_FW_N6/Utilities/lcd/stm32_lcd.c ****   }
 894:../STM32Cube_FW_N6/Utilities/lcd/stm32_lcd.c **** 
 895:../STM32Cube_FW_N6/Utilities/lcd/stm32_lcd.c ****   if(PointCount < 2)
 896:../STM32Cube_FW_N6/Utilities/lcd/stm32_lcd.c ****   {
 897:../STM32Cube_FW_N6/Utilities/lcd/stm32_lcd.c ****     return;
 898:../STM32Cube_FW_N6/Utilities/lcd/stm32_lcd.c ****   }
 899:../STM32Cube_FW_N6/Utilities/lcd/stm32_lcd.c **** 
 900:../STM32Cube_FW_N6/Utilities/lcd/stm32_lcd.c ****   x_center = (image_left + image_right)/2;
 901:../STM32Cube_FW_N6/Utilities/lcd/stm32_lcd.c ****   y_center = (image_bottom + image_top)/2;
 902:../STM32Cube_FW_N6/Utilities/lcd/stm32_lcd.c **** 
 903:../STM32Cube_FW_N6/Utilities/lcd/stm32_lcd.c ****   x_first = Points->X;
 904:../STM32Cube_FW_N6/Utilities/lcd/stm32_lcd.c ****   y_first = Points->Y;
 905:../STM32Cube_FW_N6/Utilities/lcd/stm32_lcd.c **** 
 906:../STM32Cube_FW_N6/Utilities/lcd/stm32_lcd.c ****   while(--PointCount)
 907:../STM32Cube_FW_N6/Utilities/lcd/stm32_lcd.c ****   {
 908:../STM32Cube_FW_N6/Utilities/lcd/stm32_lcd.c ****     X = Points->X;
 909:../STM32Cube_FW_N6/Utilities/lcd/stm32_lcd.c ****     Y = Points->Y;
 910:../STM32Cube_FW_N6/Utilities/lcd/stm32_lcd.c ****     Points++;
 911:../STM32Cube_FW_N6/Utilities/lcd/stm32_lcd.c ****     X2 = Points->X;
 912:../STM32Cube_FW_N6/Utilities/lcd/stm32_lcd.c ****     Y2 = Points->Y;
 913:../STM32Cube_FW_N6/Utilities/lcd/stm32_lcd.c ****     positions.x1 = X;
 914:../STM32Cube_FW_N6/Utilities/lcd/stm32_lcd.c ****     positions.y1 = Y;
 915:../STM32Cube_FW_N6/Utilities/lcd/stm32_lcd.c ****     positions.x2 = X2;
 916:../STM32Cube_FW_N6/Utilities/lcd/stm32_lcd.c ****     positions.y2 = Y2;
 917:../STM32Cube_FW_N6/Utilities/lcd/stm32_lcd.c ****     positions.x3 = x_center;
 918:../STM32Cube_FW_N6/Utilities/lcd/stm32_lcd.c ****     positions.y3 = y_center;
 919:../STM32Cube_FW_N6/Utilities/lcd/stm32_lcd.c ****     FillTriangle(&positions, Color);
 920:../STM32Cube_FW_N6/Utilities/lcd/stm32_lcd.c **** 
 921:../STM32Cube_FW_N6/Utilities/lcd/stm32_lcd.c ****     positions.x2 = x_center;
 922:../STM32Cube_FW_N6/Utilities/lcd/stm32_lcd.c ****     positions.y2 = y_center;
ARM GAS  /tmp/ccsDiBBo.s 			page 37


 923:../STM32Cube_FW_N6/Utilities/lcd/stm32_lcd.c ****     positions.x3 = X2;
 924:../STM32Cube_FW_N6/Utilities/lcd/stm32_lcd.c ****     positions.y3 = Y2;
 925:../STM32Cube_FW_N6/Utilities/lcd/stm32_lcd.c ****     FillTriangle(&positions, Color);
 926:../STM32Cube_FW_N6/Utilities/lcd/stm32_lcd.c **** 
 927:../STM32Cube_FW_N6/Utilities/lcd/stm32_lcd.c ****     positions.x1 = x_center;
 928:../STM32Cube_FW_N6/Utilities/lcd/stm32_lcd.c ****     positions.y1 = y_center;
 929:../STM32Cube_FW_N6/Utilities/lcd/stm32_lcd.c ****     positions.x2 = X2;
 930:../STM32Cube_FW_N6/Utilities/lcd/stm32_lcd.c ****     positions.y2 = Y2;
 931:../STM32Cube_FW_N6/Utilities/lcd/stm32_lcd.c ****     positions.x3 = X;
 932:../STM32Cube_FW_N6/Utilities/lcd/stm32_lcd.c ****     positions.y3 = Y;
 933:../STM32Cube_FW_N6/Utilities/lcd/stm32_lcd.c ****     FillTriangle(&positions, Color);
 934:../STM32Cube_FW_N6/Utilities/lcd/stm32_lcd.c ****   }
 935:../STM32Cube_FW_N6/Utilities/lcd/stm32_lcd.c **** 
 936:../STM32Cube_FW_N6/Utilities/lcd/stm32_lcd.c ****     positions.x1 = x_first;
 937:../STM32Cube_FW_N6/Utilities/lcd/stm32_lcd.c ****     positions.y1 = y_first;
 938:../STM32Cube_FW_N6/Utilities/lcd/stm32_lcd.c ****     positions.x2 = X2;
 939:../STM32Cube_FW_N6/Utilities/lcd/stm32_lcd.c ****     positions.y2 = Y2;
 940:../STM32Cube_FW_N6/Utilities/lcd/stm32_lcd.c ****     positions.x3 = x_center;
 941:../STM32Cube_FW_N6/Utilities/lcd/stm32_lcd.c ****     positions.y3 = y_center;
 942:../STM32Cube_FW_N6/Utilities/lcd/stm32_lcd.c ****     FillTriangle(&positions, Color);
 943:../STM32Cube_FW_N6/Utilities/lcd/stm32_lcd.c **** 
 944:../STM32Cube_FW_N6/Utilities/lcd/stm32_lcd.c ****     positions.x2 = x_center;
 945:../STM32Cube_FW_N6/Utilities/lcd/stm32_lcd.c ****     positions.y2 = y_center;
 946:../STM32Cube_FW_N6/Utilities/lcd/stm32_lcd.c ****     positions.x3 = X2;
 947:../STM32Cube_FW_N6/Utilities/lcd/stm32_lcd.c ****     positions.y3 = Y2;
 948:../STM32Cube_FW_N6/Utilities/lcd/stm32_lcd.c ****     FillTriangle(&positions, Color);
 949:../STM32Cube_FW_N6/Utilities/lcd/stm32_lcd.c **** 
 950:../STM32Cube_FW_N6/Utilities/lcd/stm32_lcd.c ****     positions.x1 = x_center;
 951:../STM32Cube_FW_N6/Utilities/lcd/stm32_lcd.c ****     positions.y1 = y_center;
 952:../STM32Cube_FW_N6/Utilities/lcd/stm32_lcd.c ****     positions.x2 = X2;
 953:../STM32Cube_FW_N6/Utilities/lcd/stm32_lcd.c ****     positions.y2 = Y2;
 954:../STM32Cube_FW_N6/Utilities/lcd/stm32_lcd.c ****     positions.x3 = x_first;
 955:../STM32Cube_FW_N6/Utilities/lcd/stm32_lcd.c ****     positions.y3 = y_first;
 956:../STM32Cube_FW_N6/Utilities/lcd/stm32_lcd.c ****     FillTriangle(&positions, Color);
 957:../STM32Cube_FW_N6/Utilities/lcd/stm32_lcd.c **** }
 958:../STM32Cube_FW_N6/Utilities/lcd/stm32_lcd.c **** 
 959:../STM32Cube_FW_N6/Utilities/lcd/stm32_lcd.c **** /**
 960:../STM32Cube_FW_N6/Utilities/lcd/stm32_lcd.c ****   * @brief  Draws a full ellipse in currently active layer.
 961:../STM32Cube_FW_N6/Utilities/lcd/stm32_lcd.c ****   * @param  Xpos    X position
 962:../STM32Cube_FW_N6/Utilities/lcd/stm32_lcd.c ****   * @param  Ypos    Y position
 963:../STM32Cube_FW_N6/Utilities/lcd/stm32_lcd.c ****   * @param  XRadius Ellipse X radius
 964:../STM32Cube_FW_N6/Utilities/lcd/stm32_lcd.c ****   * @param  YRadius Ellipse Y radius
 965:../STM32Cube_FW_N6/Utilities/lcd/stm32_lcd.c ****   * @param  Color   Draw color
 966:../STM32Cube_FW_N6/Utilities/lcd/stm32_lcd.c ****   */
 967:../STM32Cube_FW_N6/Utilities/lcd/stm32_lcd.c **** void UTIL_LCD_FillEllipse(int Xpos, int Ypos, int XRadius, int YRadius, uint32_t Color)
 968:../STM32Cube_FW_N6/Utilities/lcd/stm32_lcd.c **** {
 969:../STM32Cube_FW_N6/Utilities/lcd/stm32_lcd.c ****   int x_pos = 0, y_pos = -YRadius, err = 2-2*XRadius, e2;
 970:../STM32Cube_FW_N6/Utilities/lcd/stm32_lcd.c ****   float k = 0, rad1 = 0, rad2 = 0;
 971:../STM32Cube_FW_N6/Utilities/lcd/stm32_lcd.c **** 
 972:../STM32Cube_FW_N6/Utilities/lcd/stm32_lcd.c ****   rad1 = XRadius;
 973:../STM32Cube_FW_N6/Utilities/lcd/stm32_lcd.c ****   rad2 = YRadius;
 974:../STM32Cube_FW_N6/Utilities/lcd/stm32_lcd.c **** 
 975:../STM32Cube_FW_N6/Utilities/lcd/stm32_lcd.c ****   k = (float)(rad2/rad1);
 976:../STM32Cube_FW_N6/Utilities/lcd/stm32_lcd.c **** 
 977:../STM32Cube_FW_N6/Utilities/lcd/stm32_lcd.c ****   do
 978:../STM32Cube_FW_N6/Utilities/lcd/stm32_lcd.c ****   {
 979:../STM32Cube_FW_N6/Utilities/lcd/stm32_lcd.c ****     UTIL_LCD_DrawHLine((Xpos-(uint32_t)(x_pos/k)), (Ypos + y_pos), (2*(uint32_t)(x_pos/k) + 1), Col
ARM GAS  /tmp/ccsDiBBo.s 			page 38


 980:../STM32Cube_FW_N6/Utilities/lcd/stm32_lcd.c ****     UTIL_LCD_DrawHLine((Xpos-(uint32_t)(x_pos/k)), (Ypos - y_pos), (2*(uint32_t)(x_pos/k) + 1), Col
 981:../STM32Cube_FW_N6/Utilities/lcd/stm32_lcd.c **** 
 982:../STM32Cube_FW_N6/Utilities/lcd/stm32_lcd.c ****     e2 = err;
 983:../STM32Cube_FW_N6/Utilities/lcd/stm32_lcd.c ****     if (e2 <= x_pos)
 984:../STM32Cube_FW_N6/Utilities/lcd/stm32_lcd.c ****     {
 985:../STM32Cube_FW_N6/Utilities/lcd/stm32_lcd.c ****       err += ++x_pos*2+1;
 986:../STM32Cube_FW_N6/Utilities/lcd/stm32_lcd.c ****       if (-y_pos == x_pos && e2 <= y_pos) e2 = 0;
 987:../STM32Cube_FW_N6/Utilities/lcd/stm32_lcd.c ****     }
 988:../STM32Cube_FW_N6/Utilities/lcd/stm32_lcd.c ****     if (e2 > y_pos) err += ++y_pos*2+1;
 989:../STM32Cube_FW_N6/Utilities/lcd/stm32_lcd.c ****   }
 990:../STM32Cube_FW_N6/Utilities/lcd/stm32_lcd.c ****   while (y_pos <= 0);
 991:../STM32Cube_FW_N6/Utilities/lcd/stm32_lcd.c **** }
 992:../STM32Cube_FW_N6/Utilities/lcd/stm32_lcd.c **** 
 993:../STM32Cube_FW_N6/Utilities/lcd/stm32_lcd.c **** /**
 994:../STM32Cube_FW_N6/Utilities/lcd/stm32_lcd.c ****   * @brief  Draws a character on LCD.
 995:../STM32Cube_FW_N6/Utilities/lcd/stm32_lcd.c ****   * @param  Xpos  Line where to display the character shape
 996:../STM32Cube_FW_N6/Utilities/lcd/stm32_lcd.c ****   * @param  Ypos  Start column address
 997:../STM32Cube_FW_N6/Utilities/lcd/stm32_lcd.c ****   * @param  pData Pointer to the character data
 998:../STM32Cube_FW_N6/Utilities/lcd/stm32_lcd.c ****   */
 999:../STM32Cube_FW_N6/Utilities/lcd/stm32_lcd.c **** static void DrawChar(uint32_t Xpos, uint32_t Ypos, const uint8_t *pData)
 1056              		.loc 1 999 13 is_stmt 1 view .LVU240
 1057              	.LBB5:
1000:../STM32Cube_FW_N6/Utilities/lcd/stm32_lcd.c **** {
1001:../STM32Cube_FW_N6/Utilities/lcd/stm32_lcd.c ****   uint32_t i = 0, j = 0, offset;
 1058              		.loc 1 1001 3 view .LVU241
1002:../STM32Cube_FW_N6/Utilities/lcd/stm32_lcd.c ****   uint32_t height, width;
 1059              		.loc 1 1002 3 view .LVU242
1003:../STM32Cube_FW_N6/Utilities/lcd/stm32_lcd.c ****   uint8_t  *pchar;
 1060              		.loc 1 1003 3 view .LVU243
1004:../STM32Cube_FW_N6/Utilities/lcd/stm32_lcd.c ****   uint32_t line;
 1061              		.loc 1 1004 3 view .LVU244
1005:../STM32Cube_FW_N6/Utilities/lcd/stm32_lcd.c **** 
1006:../STM32Cube_FW_N6/Utilities/lcd/stm32_lcd.c ****   height = DrawProp[DrawProp->LcdLayer].pFont->Height;
 1062              		.loc 1 1006 3 view .LVU245
1007:../STM32Cube_FW_N6/Utilities/lcd/stm32_lcd.c ****   width  = DrawProp[DrawProp->LcdLayer].pFont->Width;
 1063              		.loc 1 1007 3 view .LVU246
1008:../STM32Cube_FW_N6/Utilities/lcd/stm32_lcd.c **** 
1009:../STM32Cube_FW_N6/Utilities/lcd/stm32_lcd.c ****   uint8_t rgb8[24*4];
 1064              		.loc 1 1009 3 view .LVU247
1010:../STM32Cube_FW_N6/Utilities/lcd/stm32_lcd.c ****   uint16_t* rgb16 = (uint16_t*)rgb8;
 1065              		.loc 1 1010 3 view .LVU248
1011:../STM32Cube_FW_N6/Utilities/lcd/stm32_lcd.c ****   uint32_t* argb32 = (uint32_t*)rgb8;
 1066              		.loc 1 1011 3 view .LVU249
1012:../STM32Cube_FW_N6/Utilities/lcd/stm32_lcd.c ****   uint16_t* argb4444 = (uint16_t*)rgb8;
 1067              		.loc 1 1012 3 view .LVU250
1013:../STM32Cube_FW_N6/Utilities/lcd/stm32_lcd.c **** 
1014:../STM32Cube_FW_N6/Utilities/lcd/stm32_lcd.c ****   offset =  8 *((width + 7)/8) -  width ;
 1068              		.loc 1 1014 3 view .LVU251
1015:../STM32Cube_FW_N6/Utilities/lcd/stm32_lcd.c **** 
1016:../STM32Cube_FW_N6/Utilities/lcd/stm32_lcd.c ****   for(i = 0; i < height; i++)
1017:../STM32Cube_FW_N6/Utilities/lcd/stm32_lcd.c ****   {
1018:../STM32Cube_FW_N6/Utilities/lcd/stm32_lcd.c ****     pchar = ((uint8_t *)pData + (width + 7)/8 * i);
1019:../STM32Cube_FW_N6/Utilities/lcd/stm32_lcd.c **** 
1020:../STM32Cube_FW_N6/Utilities/lcd/stm32_lcd.c ****     switch(((width + 7)/8))
1021:../STM32Cube_FW_N6/Utilities/lcd/stm32_lcd.c ****     {
1022:../STM32Cube_FW_N6/Utilities/lcd/stm32_lcd.c **** 
1023:../STM32Cube_FW_N6/Utilities/lcd/stm32_lcd.c ****     case 1:
ARM GAS  /tmp/ccsDiBBo.s 			page 39


1024:../STM32Cube_FW_N6/Utilities/lcd/stm32_lcd.c ****       line =  pchar[0];
1025:../STM32Cube_FW_N6/Utilities/lcd/stm32_lcd.c ****       break;
1026:../STM32Cube_FW_N6/Utilities/lcd/stm32_lcd.c **** 
1027:../STM32Cube_FW_N6/Utilities/lcd/stm32_lcd.c ****     case 2:
1028:../STM32Cube_FW_N6/Utilities/lcd/stm32_lcd.c ****       line =  (pchar[0]<< 8) | pchar[1];
1029:../STM32Cube_FW_N6/Utilities/lcd/stm32_lcd.c ****       break;
1030:../STM32Cube_FW_N6/Utilities/lcd/stm32_lcd.c **** 
1031:../STM32Cube_FW_N6/Utilities/lcd/stm32_lcd.c ****     case 3:
1032:../STM32Cube_FW_N6/Utilities/lcd/stm32_lcd.c ****     default:
1033:../STM32Cube_FW_N6/Utilities/lcd/stm32_lcd.c ****       line =  (pchar[0]<< 16) | (pchar[1]<< 8) | pchar[2];
1034:../STM32Cube_FW_N6/Utilities/lcd/stm32_lcd.c ****       break;
1035:../STM32Cube_FW_N6/Utilities/lcd/stm32_lcd.c ****     }
1036:../STM32Cube_FW_N6/Utilities/lcd/stm32_lcd.c **** 
1037:../STM32Cube_FW_N6/Utilities/lcd/stm32_lcd.c ****     if(DrawProp[DrawProp->LcdLayer].LcdPixelFormat == LCD_PIXEL_FORMAT_RGB565)
1038:../STM32Cube_FW_N6/Utilities/lcd/stm32_lcd.c ****     {
1039:../STM32Cube_FW_N6/Utilities/lcd/stm32_lcd.c ****       for (j = 0; j < width; j++)
1040:../STM32Cube_FW_N6/Utilities/lcd/stm32_lcd.c ****       {
1041:../STM32Cube_FW_N6/Utilities/lcd/stm32_lcd.c ****         if(line & (1 << (width- j + offset- 1)))
1042:../STM32Cube_FW_N6/Utilities/lcd/stm32_lcd.c ****         {
1043:../STM32Cube_FW_N6/Utilities/lcd/stm32_lcd.c ****           rgb16[j] = CONVERTARGB88882RGB565(DrawProp[DrawProp->LcdLayer].TextColor);
1044:../STM32Cube_FW_N6/Utilities/lcd/stm32_lcd.c ****         }
1045:../STM32Cube_FW_N6/Utilities/lcd/stm32_lcd.c ****         else
1046:../STM32Cube_FW_N6/Utilities/lcd/stm32_lcd.c ****         {
1047:../STM32Cube_FW_N6/Utilities/lcd/stm32_lcd.c ****           rgb16[j] = CONVERTARGB88882RGB565(DrawProp[DrawProp->LcdLayer].BackColor);
1048:../STM32Cube_FW_N6/Utilities/lcd/stm32_lcd.c ****         }
1049:../STM32Cube_FW_N6/Utilities/lcd/stm32_lcd.c ****       }
1050:../STM32Cube_FW_N6/Utilities/lcd/stm32_lcd.c ****       UTIL_LCD_FillRGBRect(Xpos,  Ypos++, &rgb8[0], width, 1);
1051:../STM32Cube_FW_N6/Utilities/lcd/stm32_lcd.c ****     }
1052:../STM32Cube_FW_N6/Utilities/lcd/stm32_lcd.c ****     else if(DrawProp[DrawProp->LcdLayer].LcdPixelFormat == LCD_PIXEL_FORMAT_RGB888)
1053:../STM32Cube_FW_N6/Utilities/lcd/stm32_lcd.c ****     {
1054:../STM32Cube_FW_N6/Utilities/lcd/stm32_lcd.c ****       for (j = 0; j < width*3; j = j+ 3)
 1069              		.loc 1 1054 28 is_stmt 0 discriminator 1 view .LVU252
 1070 0028 04EB4402 		add	r2, r4, r4, lsl #1
 1071              	.LVL68:
 1072              		.loc 1 1054 28 discriminator 1 view .LVU253
 1073 002c 0992     		str	r2, [sp, #36]
 1074 002e 4A1C     		adds	r2, r1, #1
 1075 0030 0592     		str	r2, [sp, #20]
1016:../STM32Cube_FW_N6/Utilities/lcd/stm32_lcd.c ****   {
 1076              		.loc 1 1016 9 view .LVU254
 1077 0032 0022     		movs	r2, #0
1014:../STM32Cube_FW_N6/Utilities/lcd/stm32_lcd.c **** 
 1078              		.loc 1 1014 15 view .LVU255
 1079 0034 23F00706 		bic	r6, r3, #7
 1080              	.LVL69:
1016:../STM32Cube_FW_N6/Utilities/lcd/stm32_lcd.c ****   {
 1081              		.loc 1 1016 3 is_stmt 1 view .LVU256
1018:../STM32Cube_FW_N6/Utilities/lcd/stm32_lcd.c **** 
 1082              		.loc 1 1018 44 is_stmt 0 view .LVU257
 1083 0038 DB08     		lsrs	r3, r3, #3
1016:../STM32Cube_FW_N6/Utilities/lcd/stm32_lcd.c ****   {
 1084              		.loc 1 1016 9 view .LVU258
 1085 003a 0292     		str	r2, [sp, #8]
1018:../STM32Cube_FW_N6/Utilities/lcd/stm32_lcd.c **** 
 1086              		.loc 1 1018 44 view .LVU259
 1087 003c 0693     		str	r3, [sp, #24]
 1088              	.LVL70:
ARM GAS  /tmp/ccsDiBBo.s 			page 40


 1089              	.L67:
1018:../STM32Cube_FW_N6/Utilities/lcd/stm32_lcd.c **** 
 1090              		.loc 1 1018 44 view .LVU260
 1091 003e 059B     		ldr	r3, [sp, #20]
1016:../STM32Cube_FW_N6/Utilities/lcd/stm32_lcd.c ****   {
 1092              		.loc 1 1016 16 discriminator 1 view .LVU261
 1093 0040 029A     		ldr	r2, [sp, #8]
 1094 0042 591E     		subs	r1, r3, #1
 1095              	.LVL71:
1016:../STM32Cube_FW_N6/Utilities/lcd/stm32_lcd.c ****   {
 1096              		.loc 1 1016 16 is_stmt 1 discriminator 1 view .LVU262
 1097 0044 079B     		ldr	r3, [sp, #28]
 1098 0046 9342     		cmp	r3, r2
 1099 0048 02D8     		bhi	.L91
 1100              	.LBE5:
 1101              	.LBE4:
 434:../STM32Cube_FW_N6/Utilities/lcd/stm32_lcd.c **** 
 1102              		.loc 1 434 1 is_stmt 0 view .LVU263
 1103 004a 23B0     		add	sp, sp, #140
 1104              		.cfi_remember_state
 1105              		.cfi_def_cfa_offset 36
 1106              		@ sp needed
 1107 004c BDE8F08F 		pop	{r4, r5, r6, r7, r8, r9, r10, fp, pc}
 1108              	.LVL72:
 1109              	.L91:
 1110              		.cfi_restore_state
 1111              	.LBB7:
 1112              	.LBB6:
1018:../STM32Cube_FW_N6/Utilities/lcd/stm32_lcd.c **** 
 1113              		.loc 1 1018 5 is_stmt 1 view .LVU264
1018:../STM32Cube_FW_N6/Utilities/lcd/stm32_lcd.c **** 
 1114              		.loc 1 1018 11 is_stmt 0 view .LVU265
 1115 0050 089B     		ldr	r3, [sp, #32]
 1116 0052 069A     		ldr	r2, [sp, #24]
 1117              	.LVL73:
1018:../STM32Cube_FW_N6/Utilities/lcd/stm32_lcd.c **** 
 1118              		.loc 1 1018 11 view .LVU266
 1119 0054 0298     		ldr	r0, [sp, #8]
1020:../STM32Cube_FW_N6/Utilities/lcd/stm32_lcd.c ****     {
 1120              		.loc 1 1020 5 view .LVU267
 1121 0056 069F     		ldr	r7, [sp, #24]
1018:../STM32Cube_FW_N6/Utilities/lcd/stm32_lcd.c **** 
 1122              		.loc 1 1018 11 view .LVU268
 1123 0058 00FB0235 		mla	r5, r0, r2, r3
 1124 005c 049B     		ldr	r3, [sp, #16]
1020:../STM32Cube_FW_N6/Utilities/lcd/stm32_lcd.c ****     {
 1125              		.loc 1 1020 5 view .LVU269
 1126 005e 012F     		cmp	r7, #1
1018:../STM32Cube_FW_N6/Utilities/lcd/stm32_lcd.c **** 
 1127              		.loc 1 1018 11 view .LVU270
 1128 0060 03EB0502 		add	r2, r3, r5
 1129              	.LVL74:
1020:../STM32Cube_FW_N6/Utilities/lcd/stm32_lcd.c ****     {
 1130              		.loc 1 1020 5 is_stmt 1 view .LVU271
1024:../STM32Cube_FW_N6/Utilities/lcd/stm32_lcd.c ****       break;
 1131              		.loc 1 1024 20 is_stmt 0 view .LVU272
 1132 0064 5B5D     		ldrb	r3, [r3, r5]	@ zero_extendqisi2
ARM GAS  /tmp/ccsDiBBo.s 			page 41


1024:../STM32Cube_FW_N6/Utilities/lcd/stm32_lcd.c ****       break;
 1133              		.loc 1 1024 12 view .LVU273
 1134 0066 1846     		mov	r0, r3
1020:../STM32Cube_FW_N6/Utilities/lcd/stm32_lcd.c ****     {
 1135              		.loc 1 1020 5 view .LVU274
 1136 0068 05D0     		beq	.L71
 1137 006a 022F     		cmp	r7, #2
 1138 006c 2AD1     		bne	.L97
1028:../STM32Cube_FW_N6/Utilities/lcd/stm32_lcd.c ****       break;
 1139              		.loc 1 1028 7 is_stmt 1 view .LVU275
1028:../STM32Cube_FW_N6/Utilities/lcd/stm32_lcd.c ****       break;
 1140              		.loc 1 1028 12 is_stmt 0 view .LVU276
 1141 006e 049B     		ldr	r3, [sp, #16]
 1142 0070 585B     		ldrh	r0, [r3, r5]	@ unaligned
 1143 0072 40BA     		rev16	r0, r0
 1144 0074 80B2     		uxth	r0, r0
 1145              	.LVL75:
1029:../STM32Cube_FW_N6/Utilities/lcd/stm32_lcd.c **** 
 1146              		.loc 1 1029 7 is_stmt 1 view .LVU277
 1147              	.L71:
1037:../STM32Cube_FW_N6/Utilities/lcd/stm32_lcd.c ****     {
 1148              		.loc 1 1037 5 view .LVU278
1037:../STM32Cube_FW_N6/Utilities/lcd/stm32_lcd.c ****     {
 1149              		.loc 1 1037 25 is_stmt 0 view .LVU279
 1150 0076 634B     		ldr	r3, .L104
 1151 0078 DD68     		ldr	r5, [r3, #12]
1037:../STM32Cube_FW_N6/Utilities/lcd/stm32_lcd.c ****     {
 1152              		.loc 1 1037 36 view .LVU280
 1153 007a 03EB4515 		add	r5, r3, r5, lsl #5
 1154 007e D5F81CC0 		ldr	ip, [r5, #28]
1037:../STM32Cube_FW_N6/Utilities/lcd/stm32_lcd.c ****     {
 1155              		.loc 1 1037 7 view .LVU281
 1156 0082 BCF1020F 		cmp	ip, #2
 1157 0086 40D1     		bne	.L72
 1158 0088 4FF00108 		mov	r8, #1
1039:../STM32Cube_FW_N6/Utilities/lcd/stm32_lcd.c ****       {
 1159              		.loc 1 1039 14 view .LVU282
 1160 008c 4FF00009 		mov	r9, #0
 1161 0090 4346     		mov	r3, r8
 1162 0092 4C45     		cmp	r4, r9
 1163 0094 04EB0302 		add	r2, r4, r3
 1164              	.LVL76:
1039:../STM32Cube_FW_N6/Utilities/lcd/stm32_lcd.c ****       {
 1165              		.loc 1 1039 14 view .LVU283
 1166 0098 08BF     		it	eq
 1167 009a 4246     		moveq	r2, r8
 1168 009c 0DF1280C 		add	ip, sp, #40
 1169              	.LVL77:
1041:../STM32Cube_FW_N6/Utilities/lcd/stm32_lcd.c ****         {
 1170              		.loc 1 1041 43 view .LVU284
 1171 00a0 06F1FF3A 		add	r10, r6, #-1
 1172              	.LVL78:
 1173              	.L73:
1039:../STM32Cube_FW_N6/Utilities/lcd/stm32_lcd.c ****       {
 1174              		.loc 1 1039 21 is_stmt 1 discriminator 1 view .LVU285
 1175 00a4 013A     		subs	r2, r2, #1
 1176 00a6 14D1     		bne	.L76
ARM GAS  /tmp/ccsDiBBo.s 			page 42


 1177              	.L103:
1055:../STM32Cube_FW_N6/Utilities/lcd/stm32_lcd.c ****       {
1056:../STM32Cube_FW_N6/Utilities/lcd/stm32_lcd.c ****         if(line & (1 << (width- j/3 + offset- 1)))
1057:../STM32Cube_FW_N6/Utilities/lcd/stm32_lcd.c ****         {
1058:../STM32Cube_FW_N6/Utilities/lcd/stm32_lcd.c ****           rgb8[j] = CONVERTARGB88882RGB888((DrawProp[DrawProp->LcdLayer].TextColor)) & 0xFFU;
1059:../STM32Cube_FW_N6/Utilities/lcd/stm32_lcd.c ****           rgb8[j + 1U] = (CONVERTARGB88882RGB888((DrawProp[DrawProp->LcdLayer].TextColor)) >> 8) & 
1060:../STM32Cube_FW_N6/Utilities/lcd/stm32_lcd.c ****           rgb8[j + 2U] = (CONVERTARGB88882RGB888((DrawProp[DrawProp->LcdLayer].TextColor)) >> 16) &
1061:../STM32Cube_FW_N6/Utilities/lcd/stm32_lcd.c ****         }
1062:../STM32Cube_FW_N6/Utilities/lcd/stm32_lcd.c ****         else
1063:../STM32Cube_FW_N6/Utilities/lcd/stm32_lcd.c ****         {
1064:../STM32Cube_FW_N6/Utilities/lcd/stm32_lcd.c ****           rgb8[j] = CONVERTARGB88882RGB888((DrawProp[DrawProp->LcdLayer].BackColor)) & 0xFFU;
1065:../STM32Cube_FW_N6/Utilities/lcd/stm32_lcd.c ****           rgb8[j + 1U] = (CONVERTARGB88882RGB888((DrawProp[DrawProp->LcdLayer].BackColor)) >> 8) & 
1066:../STM32Cube_FW_N6/Utilities/lcd/stm32_lcd.c ****           rgb8[j + 2U] = (CONVERTARGB88882RGB888((DrawProp[DrawProp->LcdLayer].BackColor)) >> 16) &
1067:../STM32Cube_FW_N6/Utilities/lcd/stm32_lcd.c ****         }
1068:../STM32Cube_FW_N6/Utilities/lcd/stm32_lcd.c ****       }
1069:../STM32Cube_FW_N6/Utilities/lcd/stm32_lcd.c **** 
1070:../STM32Cube_FW_N6/Utilities/lcd/stm32_lcd.c ****       UTIL_LCD_FillRGBRect(Xpos,  Ypos++, &rgb8[0], width, 1);
1071:../STM32Cube_FW_N6/Utilities/lcd/stm32_lcd.c ****     }
1072:../STM32Cube_FW_N6/Utilities/lcd/stm32_lcd.c ****     else if(DrawProp[DrawProp->LcdLayer].LcdPixelFormat == LCD_PIXEL_FORMAT_ARGB4444)
1073:../STM32Cube_FW_N6/Utilities/lcd/stm32_lcd.c ****     {
1074:../STM32Cube_FW_N6/Utilities/lcd/stm32_lcd.c ****       for (j = 0; j < width; j++)
1075:../STM32Cube_FW_N6/Utilities/lcd/stm32_lcd.c ****       {
1076:../STM32Cube_FW_N6/Utilities/lcd/stm32_lcd.c ****         if(line & (1 << (width- j + offset- 1)))
1077:../STM32Cube_FW_N6/Utilities/lcd/stm32_lcd.c ****         {
1078:../STM32Cube_FW_N6/Utilities/lcd/stm32_lcd.c ****           argb4444[j] = CONVERTARGB88882ARGB4444(DrawProp[DrawProp->LcdLayer].TextColor);
1079:../STM32Cube_FW_N6/Utilities/lcd/stm32_lcd.c ****         }
1080:../STM32Cube_FW_N6/Utilities/lcd/stm32_lcd.c ****         else
1081:../STM32Cube_FW_N6/Utilities/lcd/stm32_lcd.c ****         {
1082:../STM32Cube_FW_N6/Utilities/lcd/stm32_lcd.c ****           argb4444[j] = CONVERTARGB88882ARGB4444(DrawProp[DrawProp->LcdLayer].BackColor);
1083:../STM32Cube_FW_N6/Utilities/lcd/stm32_lcd.c ****         }
1084:../STM32Cube_FW_N6/Utilities/lcd/stm32_lcd.c ****       }
1085:../STM32Cube_FW_N6/Utilities/lcd/stm32_lcd.c ****       UTIL_LCD_FillRGBRect(Xpos,  Ypos++, (uint8_t*)&argb4444[0], width, 1);
 1178              		.loc 1 1085 7 view .LVU286
 1179              	.LVL79:
 1180              		.loc 1 1085 7 is_stmt 0 view .LVU287
 1181 00a8 CDF80080 		str	r8, [sp]
 1182              	.LVL80:
 1183              	.L101:
1086:../STM32Cube_FW_N6/Utilities/lcd/stm32_lcd.c ****     }
1087:../STM32Cube_FW_N6/Utilities/lcd/stm32_lcd.c ****     else /*LCD_PIXEL_FORMAT_ARGB888*/
1088:../STM32Cube_FW_N6/Utilities/lcd/stm32_lcd.c ****     {
1089:../STM32Cube_FW_N6/Utilities/lcd/stm32_lcd.c ****       for (j = 0; j < width; j++)
1090:../STM32Cube_FW_N6/Utilities/lcd/stm32_lcd.c ****       {
1091:../STM32Cube_FW_N6/Utilities/lcd/stm32_lcd.c ****         if(line & (1 << (width- j + offset- 1)))
1092:../STM32Cube_FW_N6/Utilities/lcd/stm32_lcd.c ****         {
1093:../STM32Cube_FW_N6/Utilities/lcd/stm32_lcd.c ****           argb32[j] = DrawProp[DrawProp->LcdLayer].TextColor;
1094:../STM32Cube_FW_N6/Utilities/lcd/stm32_lcd.c ****         }
1095:../STM32Cube_FW_N6/Utilities/lcd/stm32_lcd.c ****         else
1096:../STM32Cube_FW_N6/Utilities/lcd/stm32_lcd.c ****         {
1097:../STM32Cube_FW_N6/Utilities/lcd/stm32_lcd.c ****           argb32[j] = DrawProp[DrawProp->LcdLayer].BackColor;
1098:../STM32Cube_FW_N6/Utilities/lcd/stm32_lcd.c ****         }
1099:../STM32Cube_FW_N6/Utilities/lcd/stm32_lcd.c ****       }
1100:../STM32Cube_FW_N6/Utilities/lcd/stm32_lcd.c ****       UTIL_LCD_FillRGBRect(Xpos,  Ypos++, &rgb8[0], width, 1);
 1184              		.loc 1 1100 7 view .LVU288
 1185 00ac 2346     		mov	r3, r4
 1186 00ae 0398     		ldr	r0, [sp, #12]
 1187              	.LVL81:
ARM GAS  /tmp/ccsDiBBo.s 			page 43


 1188              		.loc 1 1100 7 view .LVU289
 1189 00b0 0AAA     		add	r2, sp, #40
 1190              	.LVL82:
 1191              		.loc 1 1100 7 view .LVU290
 1192 00b2 FFF7FEFF 		bl	UTIL_LCD_FillRGBRect
 1193              	.LVL83:
1016:../STM32Cube_FW_N6/Utilities/lcd/stm32_lcd.c ****   {
 1194              		.loc 1 1016 27 is_stmt 1 discriminator 2 view .LVU291
 1195 00b6 029B     		ldr	r3, [sp, #8]
 1196 00b8 0133     		adds	r3, r3, #1
 1197 00ba 0293     		str	r3, [sp, #8]
 1198              	.LVL84:
1016:../STM32Cube_FW_N6/Utilities/lcd/stm32_lcd.c ****   {
 1199              		.loc 1 1016 27 is_stmt 0 discriminator 2 view .LVU292
 1200 00bc 059B     		ldr	r3, [sp, #20]
 1201              	.LVL85:
1016:../STM32Cube_FW_N6/Utilities/lcd/stm32_lcd.c ****   {
 1202              		.loc 1 1016 27 discriminator 2 view .LVU293
 1203 00be 0133     		adds	r3, r3, #1
 1204 00c0 0593     		str	r3, [sp, #20]
 1205              	.LVL86:
1016:../STM32Cube_FW_N6/Utilities/lcd/stm32_lcd.c ****   {
 1206              		.loc 1 1016 27 discriminator 2 view .LVU294
 1207 00c2 BCE7     		b	.L67
 1208              	.LVL87:
 1209              	.L97:
1033:../STM32Cube_FW_N6/Utilities/lcd/stm32_lcd.c ****       break;
 1210              		.loc 1 1033 7 is_stmt 1 view .LVU295
1033:../STM32Cube_FW_N6/Utilities/lcd/stm32_lcd.c ****       break;
 1211              		.loc 1 1033 39 is_stmt 0 view .LVU296
 1212 00c4 5078     		ldrb	r0, [r2, #1]	@ zero_extendqisi2
1033:../STM32Cube_FW_N6/Utilities/lcd/stm32_lcd.c ****       break;
 1213              		.loc 1 1033 24 view .LVU297
 1214 00c6 1B04     		lsls	r3, r3, #16
1033:../STM32Cube_FW_N6/Utilities/lcd/stm32_lcd.c ****       break;
 1215              		.loc 1 1033 31 view .LVU298
 1216 00c8 43EA0023 		orr	r3, r3, r0, lsl #8
1033:../STM32Cube_FW_N6/Utilities/lcd/stm32_lcd.c ****       break;
 1217              		.loc 1 1033 55 view .LVU299
 1218 00cc 9078     		ldrb	r0, [r2, #2]	@ zero_extendqisi2
1033:../STM32Cube_FW_N6/Utilities/lcd/stm32_lcd.c ****       break;
 1219              		.loc 1 1033 48 view .LVU300
 1220 00ce 1843     		orrs	r0, r0, r3
 1221              	.LVL88:
1034:../STM32Cube_FW_N6/Utilities/lcd/stm32_lcd.c ****     }
 1222              		.loc 1 1034 7 is_stmt 1 view .LVU301
 1223 00d0 D1E7     		b	.L71
 1224              	.LVL89:
 1225              	.L76:
1041:../STM32Cube_FW_N6/Utilities/lcd/stm32_lcd.c ****         {
 1226              		.loc 1 1041 9 view .LVU302
1041:../STM32Cube_FW_N6/Utilities/lcd/stm32_lcd.c ****         {
 1227              		.loc 1 1041 43 is_stmt 0 view .LVU303
 1228 00d2 AAEB0903 		sub	r3, r10, r9
1041:../STM32Cube_FW_N6/Utilities/lcd/stm32_lcd.c ****         {
 1229              		.loc 1 1041 22 view .LVU304
 1230 00d6 08FA03F3 		lsl	r3, r8, r3
ARM GAS  /tmp/ccsDiBBo.s 			page 44


1041:../STM32Cube_FW_N6/Utilities/lcd/stm32_lcd.c ****         {
 1231              		.loc 1 1041 11 view .LVU305
 1232 00da 0342     		tst	r3, r0
1043:../STM32Cube_FW_N6/Utilities/lcd/stm32_lcd.c ****         }
 1233              		.loc 1 1043 11 is_stmt 1 view .LVU306
1043:../STM32Cube_FW_N6/Utilities/lcd/stm32_lcd.c ****         }
 1234              		.loc 1 1043 22 is_stmt 0 view .LVU307
 1235 00dc 14BF     		ite	ne
 1236 00de D5F800E0 		ldrne	lr, [r5]
1047:../STM32Cube_FW_N6/Utilities/lcd/stm32_lcd.c ****         }
 1237              		.loc 1 1047 11 is_stmt 1 view .LVU308
1047:../STM32Cube_FW_N6/Utilities/lcd/stm32_lcd.c ****         }
 1238              		.loc 1 1047 22 is_stmt 0 view .LVU309
 1239 00e2 D5F804E0 		ldreq	lr, [r5, #4]
1039:../STM32Cube_FW_N6/Utilities/lcd/stm32_lcd.c ****       {
 1240              		.loc 1 1039 31 discriminator 2 view .LVU310
 1241 00e6 09F10109 		add	r9, r9, #1
 1242              	.LVL90:
1047:../STM32Cube_FW_N6/Utilities/lcd/stm32_lcd.c ****         }
 1243              		.loc 1 1047 22 view .LVU311
 1244 00ea CEF3C403 		ubfx	r3, lr, #3, #5
 1245 00ee 4FEADE4B 		lsr	fp, lr, #19
 1246 00f2 4FEA5E1E 		lsr	lr, lr, #5
 1247 00f6 43EACB23 		orr	r3, r3, fp, lsl #11
 1248 00fa 0EF4FC6E 		and	lr, lr, #2016
 1249 00fe 43EA0E03 		orr	r3, r3, lr
 1250 0102 9BB2     		uxth	r3, r3
1043:../STM32Cube_FW_N6/Utilities/lcd/stm32_lcd.c ****         }
 1251              		.loc 1 1043 20 view .LVU312
 1252 0104 2CF8023B 		strh	r3, [ip], #2	@ movhi
1039:../STM32Cube_FW_N6/Utilities/lcd/stm32_lcd.c ****       {
 1253              		.loc 1 1039 31 is_stmt 1 discriminator 2 view .LVU313
 1254 0108 CCE7     		b	.L73
 1255              	.LVL91:
 1256              	.L72:
1052:../STM32Cube_FW_N6/Utilities/lcd/stm32_lcd.c ****     {
 1257              		.loc 1 1052 10 view .LVU314
1052:../STM32Cube_FW_N6/Utilities/lcd/stm32_lcd.c ****     {
 1258              		.loc 1 1052 12 is_stmt 0 view .LVU315
 1259 010a BCF1010F 		cmp	ip, #1
 1260 010e 25D1     		bne	.L78
1054:../STM32Cube_FW_N6/Utilities/lcd/stm32_lcd.c ****       {
 1261              		.loc 1 1054 14 view .LVU316
 1262 0110 4FF0000E 		mov	lr, #0
1056:../STM32Cube_FW_N6/Utilities/lcd/stm32_lcd.c ****         {
 1263              		.loc 1 1056 34 view .LVU317
 1264 0114 4FF0030B 		mov	fp, #3
 1265 0118 0AAA     		add	r2, sp, #40
 1266              	.LVL92:
1056:../STM32Cube_FW_N6/Utilities/lcd/stm32_lcd.c ****         {
 1267              		.loc 1 1056 45 view .LVU318
 1268 011a 06F1FF3A 		add	r10, r6, #-1
 1269              	.LVL93:
 1270              	.L79:
1054:../STM32Cube_FW_N6/Utilities/lcd/stm32_lcd.c ****       {
 1271              		.loc 1 1054 21 is_stmt 1 discriminator 1 view .LVU319
 1272 011e 099B     		ldr	r3, [sp, #36]
ARM GAS  /tmp/ccsDiBBo.s 			page 45


 1273 0120 9E45     		cmp	lr, r3
 1274 0122 02D3     		bcc	.L82
 1275              	.LVL94:
 1276              	.L102:
 1277              		.loc 1 1100 7 view .LVU320
 1278              		.loc 1 1100 7 is_stmt 0 view .LVU321
 1279 0124 0123     		movs	r3, #1
 1280 0126 0093     		str	r3, [sp]
 1281 0128 C0E7     		b	.L101
 1282              	.LVL95:
 1283              	.L82:
1056:../STM32Cube_FW_N6/Utilities/lcd/stm32_lcd.c ****         {
 1284              		.loc 1 1056 9 is_stmt 1 view .LVU322
1056:../STM32Cube_FW_N6/Utilities/lcd/stm32_lcd.c ****         {
 1285              		.loc 1 1056 34 is_stmt 0 view .LVU323
 1286 012a BEFBFBF3 		udiv	r3, lr, fp
1056:../STM32Cube_FW_N6/Utilities/lcd/stm32_lcd.c ****         {
 1287              		.loc 1 1056 45 view .LVU324
 1288 012e AAEB0303 		sub	r3, r10, r3
1056:../STM32Cube_FW_N6/Utilities/lcd/stm32_lcd.c ****         {
 1289              		.loc 1 1056 22 view .LVU325
 1290 0132 0CFA03F3 		lsl	r3, ip, r3
1056:../STM32Cube_FW_N6/Utilities/lcd/stm32_lcd.c ****         {
 1291              		.loc 1 1056 11 view .LVU326
 1292 0136 0342     		tst	r3, r0
1058:../STM32Cube_FW_N6/Utilities/lcd/stm32_lcd.c ****           rgb8[j + 1U] = (CONVERTARGB88882RGB888((DrawProp[DrawProp->LcdLayer].TextColor)) >> 8) & 
 1293              		.loc 1 1058 11 is_stmt 1 view .LVU327
1058:../STM32Cube_FW_N6/Utilities/lcd/stm32_lcd.c ****           rgb8[j + 1U] = (CONVERTARGB88882RGB888((DrawProp[DrawProp->LcdLayer].TextColor)) >> 8) & 
 1294              		.loc 1 1058 21 is_stmt 0 view .LVU328
 1295 0138 14BF     		ite	ne
 1296 013a 2B68     		ldrne	r3, [r5]
1064:../STM32Cube_FW_N6/Utilities/lcd/stm32_lcd.c ****           rgb8[j + 1U] = (CONVERTARGB88882RGB888((DrawProp[DrawProp->LcdLayer].BackColor)) >> 8) & 
 1297              		.loc 1 1064 11 is_stmt 1 view .LVU329
1064:../STM32Cube_FW_N6/Utilities/lcd/stm32_lcd.c ****           rgb8[j + 1U] = (CONVERTARGB88882RGB888((DrawProp[DrawProp->LcdLayer].BackColor)) >> 8) & 
 1298              		.loc 1 1064 21 is_stmt 0 view .LVU330
 1299 013c 6B68     		ldreq	r3, [r5, #4]
1054:../STM32Cube_FW_N6/Utilities/lcd/stm32_lcd.c ****       {
 1300              		.loc 1 1054 34 discriminator 2 view .LVU331
 1301 013e 0EF1030E 		add	lr, lr, #3
 1302              	.LVL96:
1064:../STM32Cube_FW_N6/Utilities/lcd/stm32_lcd.c ****           rgb8[j + 1U] = (CONVERTARGB88882RGB888((DrawProp[DrawProp->LcdLayer].BackColor)) >> 8) & 
 1303              		.loc 1 1064 19 view .LVU332
 1304 0142 5FFA83F9 		uxtb	r9, r3
1065:../STM32Cube_FW_N6/Utilities/lcd/stm32_lcd.c ****           rgb8[j + 2U] = (CONVERTARGB88882RGB888((DrawProp[DrawProp->LcdLayer].BackColor)) >> 16) &
 1305              		.loc 1 1065 11 is_stmt 1 view .LVU333
1065:../STM32Cube_FW_N6/Utilities/lcd/stm32_lcd.c ****           rgb8[j + 2U] = (CONVERTARGB88882RGB888((DrawProp[DrawProp->LcdLayer].BackColor)) >> 16) &
 1306              		.loc 1 1065 24 is_stmt 0 view .LVU334
 1307 0146 C3F30728 		ubfx	r8, r3, #8, #8
1066:../STM32Cube_FW_N6/Utilities/lcd/stm32_lcd.c ****         }
 1308              		.loc 1 1066 11 is_stmt 1 view .LVU335
1066:../STM32Cube_FW_N6/Utilities/lcd/stm32_lcd.c ****         }
 1309              		.loc 1 1066 24 is_stmt 0 view .LVU336
 1310 014a C3F30743 		ubfx	r3, r3, #16, #8
1058:../STM32Cube_FW_N6/Utilities/lcd/stm32_lcd.c ****           rgb8[j + 1U] = (CONVERTARGB88882RGB888((DrawProp[DrawProp->LcdLayer].TextColor)) >> 8) & 
 1311              		.loc 1 1058 19 view .LVU337
 1312 014e 82F80090 		strb	r9, [r2]
1059:../STM32Cube_FW_N6/Utilities/lcd/stm32_lcd.c ****           rgb8[j + 2U] = (CONVERTARGB88882RGB888((DrawProp[DrawProp->LcdLayer].TextColor)) >> 16) &
ARM GAS  /tmp/ccsDiBBo.s 			page 46


 1313              		.loc 1 1059 24 view .LVU338
 1314 0152 82F80180 		strb	r8, [r2, #1]
1060:../STM32Cube_FW_N6/Utilities/lcd/stm32_lcd.c ****         }
 1315              		.loc 1 1060 24 view .LVU339
 1316 0156 9370     		strb	r3, [r2, #2]
1054:../STM32Cube_FW_N6/Utilities/lcd/stm32_lcd.c ****       {
 1317              		.loc 1 1054 34 is_stmt 1 discriminator 2 view .LVU340
 1318              	.LVL97:
1054:../STM32Cube_FW_N6/Utilities/lcd/stm32_lcd.c ****       {
 1319              		.loc 1 1054 34 is_stmt 0 discriminator 2 view .LVU341
 1320 0158 0332     		adds	r2, r2, #3
 1321 015a E0E7     		b	.L79
 1322              	.LVL98:
 1323              	.L78:
1072:../STM32Cube_FW_N6/Utilities/lcd/stm32_lcd.c ****     {
 1324              		.loc 1 1072 10 is_stmt 1 view .LVU342
1072:../STM32Cube_FW_N6/Utilities/lcd/stm32_lcd.c ****     {
 1325              		.loc 1 1072 12 is_stmt 0 view .LVU343
 1326 015c BCF1040F 		cmp	ip, #4
 1327 0160 1ED0     		beq	.L83
1091:../STM32Cube_FW_N6/Utilities/lcd/stm32_lcd.c ****         {
 1328              		.loc 1 1091 22 view .LVU344
 1329 0162 4FF0010A 		mov	r10, #1
1089:../STM32Cube_FW_N6/Utilities/lcd/stm32_lcd.c ****       {
 1330              		.loc 1 1089 14 view .LVU345
 1331 0166 4FF0000E 		mov	lr, #0
 1332 016a 5246     		mov	r2, r10
 1333              	.LVL99:
1089:../STM32Cube_FW_N6/Utilities/lcd/stm32_lcd.c ****       {
 1334              		.loc 1 1089 14 view .LVU346
 1335 016c 7445     		cmp	r4, lr
 1336 016e 04EB0203 		add	r3, r4, r2
 1337 0172 08BF     		it	eq
 1338 0174 5346     		moveq	r3, r10
 1339 0176 0DF1280C 		add	ip, sp, #40
 1340              	.LVL100:
1091:../STM32Cube_FW_N6/Utilities/lcd/stm32_lcd.c ****         {
 1341              		.loc 1 1091 43 view .LVU347
 1342 017a 06F1FF3B 		add	fp, r6, #-1
 1343              	.LVL101:
 1344              	.L84:
1089:../STM32Cube_FW_N6/Utilities/lcd/stm32_lcd.c ****       {
 1345              		.loc 1 1089 21 is_stmt 1 discriminator 1 view .LVU348
 1346 017e 013B     		subs	r3, r3, #1
 1347 0180 D0D0     		beq	.L102
1091:../STM32Cube_FW_N6/Utilities/lcd/stm32_lcd.c ****         {
 1348              		.loc 1 1091 9 view .LVU349
1091:../STM32Cube_FW_N6/Utilities/lcd/stm32_lcd.c ****         {
 1349              		.loc 1 1091 43 is_stmt 0 view .LVU350
 1350 0182 ABEB0E09 		sub	r9, fp, lr
1091:../STM32Cube_FW_N6/Utilities/lcd/stm32_lcd.c ****         {
 1351              		.loc 1 1091 11 view .LVU351
 1352 0186 2F68     		ldr	r7, [r5]
1091:../STM32Cube_FW_N6/Utilities/lcd/stm32_lcd.c ****         {
 1353              		.loc 1 1091 22 view .LVU352
 1354 0188 0AFA09F9 		lsl	r9, r10, r9
1091:../STM32Cube_FW_N6/Utilities/lcd/stm32_lcd.c ****         {
ARM GAS  /tmp/ccsDiBBo.s 			page 47


 1355              		.loc 1 1091 11 view .LVU353
 1356 018c 19EA000F 		tst	r9, r0
1097:../STM32Cube_FW_N6/Utilities/lcd/stm32_lcd.c ****         }
 1357              		.loc 1 1097 51 view .LVU354
 1358 0190 6A68     		ldr	r2, [r5, #4]
1091:../STM32Cube_FW_N6/Utilities/lcd/stm32_lcd.c ****         {
 1359              		.loc 1 1091 11 view .LVU355
 1360 0192 18BF     		it	ne
 1361 0194 3A46     		movne	r2, r7
1089:../STM32Cube_FW_N6/Utilities/lcd/stm32_lcd.c ****       {
 1362              		.loc 1 1089 31 discriminator 2 view .LVU356
 1363 0196 0EF1010E 		add	lr, lr, #1
 1364              	.LVL102:
1093:../STM32Cube_FW_N6/Utilities/lcd/stm32_lcd.c ****         }
 1365              		.loc 1 1093 21 view .LVU357
 1366 019a 4CF8042B 		str	r2, [ip], #4
1089:../STM32Cube_FW_N6/Utilities/lcd/stm32_lcd.c ****       {
 1367              		.loc 1 1089 31 is_stmt 1 discriminator 2 view .LVU358
 1368 019e EEE7     		b	.L84
 1369              	.LVL103:
 1370              	.L83:
1074:../STM32Cube_FW_N6/Utilities/lcd/stm32_lcd.c ****       {
 1371              		.loc 1 1074 14 is_stmt 0 view .LVU359
 1372 01a0 4FF00009 		mov	r9, #0
 1373 01a4 4FF00108 		mov	r8, #1
 1374 01a8 4C45     		cmp	r4, r9
 1375 01aa 04EB080C 		add	ip, r4, r8
 1376 01ae 08BF     		it	eq
 1377 01b0 C446     		moveq	ip, r8
 1378 01b2 0AAA     		add	r2, sp, #40
 1379              	.LVL104:
1076:../STM32Cube_FW_N6/Utilities/lcd/stm32_lcd.c ****         {
 1380              		.loc 1 1076 43 view .LVU360
 1381 01b4 06F1FF3B 		add	fp, r6, #-1
 1382              	.LVL105:
 1383              	.L85:
1074:../STM32Cube_FW_N6/Utilities/lcd/stm32_lcd.c ****       {
 1384              		.loc 1 1074 21 is_stmt 1 discriminator 1 view .LVU361
 1385 01b8 BCF1010C 		subs	ip, ip, #1
 1386 01bc 3FF474AF 		beq	.L103
1076:../STM32Cube_FW_N6/Utilities/lcd/stm32_lcd.c ****         {
 1387              		.loc 1 1076 9 view .LVU362
1076:../STM32Cube_FW_N6/Utilities/lcd/stm32_lcd.c ****         {
 1388              		.loc 1 1076 43 is_stmt 0 view .LVU363
 1389 01c0 ABEB0903 		sub	r3, fp, r9
1076:../STM32Cube_FW_N6/Utilities/lcd/stm32_lcd.c ****         {
 1390              		.loc 1 1076 22 view .LVU364
 1391 01c4 08FA03F3 		lsl	r3, r8, r3
1076:../STM32Cube_FW_N6/Utilities/lcd/stm32_lcd.c ****         {
 1392              		.loc 1 1076 11 view .LVU365
 1393 01c8 0342     		tst	r3, r0
1078:../STM32Cube_FW_N6/Utilities/lcd/stm32_lcd.c ****         }
 1394              		.loc 1 1078 11 is_stmt 1 view .LVU366
1078:../STM32Cube_FW_N6/Utilities/lcd/stm32_lcd.c ****         }
 1395              		.loc 1 1078 25 is_stmt 0 view .LVU367
 1396 01ca 14BF     		ite	ne
 1397 01cc D5F800E0 		ldrne	lr, [r5]
ARM GAS  /tmp/ccsDiBBo.s 			page 48


1082:../STM32Cube_FW_N6/Utilities/lcd/stm32_lcd.c ****         }
 1398              		.loc 1 1082 11 is_stmt 1 view .LVU368
1082:../STM32Cube_FW_N6/Utilities/lcd/stm32_lcd.c ****         }
 1399              		.loc 1 1082 25 is_stmt 0 view .LVU369
 1400 01d0 D5F804E0 		ldreq	lr, [r5, #4]
1074:../STM32Cube_FW_N6/Utilities/lcd/stm32_lcd.c ****       {
 1401              		.loc 1 1074 31 discriminator 2 view .LVU370
 1402 01d4 09F10109 		add	r9, r9, #1
 1403              	.LVL106:
1082:../STM32Cube_FW_N6/Utilities/lcd/stm32_lcd.c ****         }
 1404              		.loc 1 1082 25 view .LVU371
 1405 01d8 4FEA1E73 		lsr	r3, lr, #28
 1406 01dc CEF3031A 		ubfx	r10, lr, #4, #4
 1407 01e0 4AEA033A 		orr	r10, r10, r3, lsl #12
 1408 01e4 4FEA1E23 		lsr	r3, lr, #8
 1409 01e8 03F0F003 		and	r3, r3, #240
 1410 01ec 4FEA1E3E 		lsr	lr, lr, #12
 1411 01f0 4AEA0303 		orr	r3, r10, r3
 1412 01f4 0EF4706E 		and	lr, lr, #3840
 1413 01f8 43EA0E03 		orr	r3, r3, lr
1078:../STM32Cube_FW_N6/Utilities/lcd/stm32_lcd.c ****         }
 1414              		.loc 1 1078 23 view .LVU372
 1415 01fc 22F8023B 		strh	r3, [r2], #2	@ movhi
1074:../STM32Cube_FW_N6/Utilities/lcd/stm32_lcd.c ****       {
 1416              		.loc 1 1074 31 is_stmt 1 discriminator 2 view .LVU373
 1417 0200 DAE7     		b	.L85
 1418              	.L105:
 1419 0202 00BF     		.align	2
 1420              	.L104:
 1421 0204 00000000 		.word	DrawProp
 1422              	.LBE6:
 1423              	.LBE7:
 1424              		.cfi_endproc
 1425              	.LFE16:
 1427              		.section	.text.UTIL_LCD_DisplayStringAt,"ax",%progbits
 1428              		.align	1
 1429              		.global	UTIL_LCD_DisplayStringAt
 1430              		.syntax unified
 1431              		.thumb
 1432              		.thumb_func
 1434              	UTIL_LCD_DisplayStringAt:
 1435              	.LVL107:
 1436              	.LFB17:
 448:../STM32Cube_FW_N6/Utilities/lcd/stm32_lcd.c ****   uint32_t refcolumn = 1, i = 0;
 1437              		.loc 1 448 1 view -0
 1438              		.cfi_startproc
 1439              		@ args = 0, pretend = 0, frame = 0
 1440              		@ frame_needed = 0, uses_anonymous_args = 0
 449:../STM32Cube_FW_N6/Utilities/lcd/stm32_lcd.c ****   uint32_t size = 0, xsize = 0;
 1441              		.loc 1 449 3 view .LVU375
 450:../STM32Cube_FW_N6/Utilities/lcd/stm32_lcd.c ****   uint8_t  *ptr = Text;
 1442              		.loc 1 450 3 view .LVU376
 451:../STM32Cube_FW_N6/Utilities/lcd/stm32_lcd.c **** 
 1443              		.loc 1 451 3 view .LVU377
 454:../STM32Cube_FW_N6/Utilities/lcd/stm32_lcd.c **** 
 1444              		.loc 1 454 3 view .LVU378
 448:../STM32Cube_FW_N6/Utilities/lcd/stm32_lcd.c ****   uint32_t refcolumn = 1, i = 0;
ARM GAS  /tmp/ccsDiBBo.s 			page 49


 1445              		.loc 1 448 1 is_stmt 0 view .LVU379
 1446 0000 2DE9F843 		push	{r3, r4, r5, r6, r7, r8, r9, lr}
 1447              		.cfi_def_cfa_offset 32
 1448              		.cfi_offset 3, -32
 1449              		.cfi_offset 4, -28
 1450              		.cfi_offset 5, -24
 1451              		.cfi_offset 6, -20
 1452              		.cfi_offset 7, -16
 1453              		.cfi_offset 8, -12
 1454              		.cfi_offset 9, -8
 1455              		.cfi_offset 14, -4
 448:../STM32Cube_FW_N6/Utilities/lcd/stm32_lcd.c ****   uint32_t refcolumn = 1, i = 0;
 1456              		.loc 1 448 1 view .LVU380
 1457 0004 9946     		mov	r9, r3
 457:../STM32Cube_FW_N6/Utilities/lcd/stm32_lcd.c **** 
 1458              		.loc 1 457 29 view .LVU381
 1459 0006 DFF88080 		ldr	r8, .L118
 448:../STM32Cube_FW_N6/Utilities/lcd/stm32_lcd.c ****   uint32_t refcolumn = 1, i = 0;
 1460              		.loc 1 448 1 view .LVU382
 1461 000a 0446     		mov	r4, r0
 454:../STM32Cube_FW_N6/Utilities/lcd/stm32_lcd.c **** 
 1462              		.loc 1 454 10 discriminator 1 view .LVU383
 1463 000c 1046     		mov	r0, r2
 1464              	.LVL108:
 448:../STM32Cube_FW_N6/Utilities/lcd/stm32_lcd.c ****   uint32_t refcolumn = 1, i = 0;
 1465              		.loc 1 448 1 view .LVU384
 1466 000e 0F46     		mov	r7, r1
 1467 0010 1646     		mov	r6, r2
 454:../STM32Cube_FW_N6/Utilities/lcd/stm32_lcd.c **** 
 1468              		.loc 1 454 10 discriminator 1 view .LVU385
 1469 0012 FFF7FEFF 		bl	strlen
 1470              	.LVL109:
 457:../STM32Cube_FW_N6/Utilities/lcd/stm32_lcd.c **** 
 1471              		.loc 1 457 3 is_stmt 1 view .LVU386
 457:../STM32Cube_FW_N6/Utilities/lcd/stm32_lcd.c **** 
 1472              		.loc 1 457 29 is_stmt 0 view .LVU387
 1473 0016 D8F80C30 		ldr	r3, [r8, #12]
 459:../STM32Cube_FW_N6/Utilities/lcd/stm32_lcd.c ****   {
 1474              		.loc 1 459 3 view .LVU388
 1475 001a B9F1010F 		cmp	r9, #1
 457:../STM32Cube_FW_N6/Utilities/lcd/stm32_lcd.c **** 
 1476              		.loc 1 457 78 view .LVU389
 1477 001e 08EB4315 		add	r5, r8, r3, lsl #5
 457:../STM32Cube_FW_N6/Utilities/lcd/stm32_lcd.c **** 
 1478              		.loc 1 457 84 view .LVU390
 1479 0022 AA68     		ldr	r2, [r5, #8]
 457:../STM32Cube_FW_N6/Utilities/lcd/stm32_lcd.c **** 
 1480              		.loc 1 457 9 view .LVU391
 1481 0024 6D69     		ldr	r5, [r5, #20]
 457:../STM32Cube_FW_N6/Utilities/lcd/stm32_lcd.c **** 
 1482              		.loc 1 457 84 view .LVU392
 1483 0026 9188     		ldrh	r1, [r2, #4]
 457:../STM32Cube_FW_N6/Utilities/lcd/stm32_lcd.c **** 
 1484              		.loc 1 457 9 view .LVU393
 1485 0028 B5FBF1F5 		udiv	r5, r5, r1
 1486              	.LVL110:
 459:../STM32Cube_FW_N6/Utilities/lcd/stm32_lcd.c ****   {
ARM GAS  /tmp/ccsDiBBo.s 			page 50


 1487              		.loc 1 459 3 is_stmt 1 view .LVU394
 1488 002c 15D0     		beq	.L107
 1489 002e B9F1020F 		cmp	r9, #2
 1490 0032 17D0     		beq	.L108
 1491              	.LVL111:
 1492              	.L109:
 484:../STM32Cube_FW_N6/Utilities/lcd/stm32_lcd.c ****   {
 1493              		.loc 1 484 3 view .LVU395
 484:../STM32Cube_FW_N6/Utilities/lcd/stm32_lcd.c ****   {
 1494              		.loc 1 484 6 is_stmt 0 view .LVU396
 1495 0034 47F6FE72 		movw	r2, #32766
 484:../STM32Cube_FW_N6/Utilities/lcd/stm32_lcd.c ****   {
 1496              		.loc 1 484 23 view .LVU397
 1497 0038 601E     		subs	r0, r4, #1
 486:../STM32Cube_FW_N6/Utilities/lcd/stm32_lcd.c ****   }
 1498              		.loc 1 486 15 view .LVU398
 1499 003a 9042     		cmp	r0, r2
 1500 003c 88BF     		it	hi
 1501 003e 0124     		movhi	r4, #1
 1502              	.LVL112:
 486:../STM32Cube_FW_N6/Utilities/lcd/stm32_lcd.c ****   }
 1503              		.loc 1 486 15 view .LVU399
 1504 0040 0025     		movs	r5, #0
 1505              	.LVL113:
 1506              	.L111:
 490:../STM32Cube_FW_N6/Utilities/lcd/stm32_lcd.c ****   {
 1507              		.loc 1 490 10 is_stmt 1 view .LVU400
 490:../STM32Cube_FW_N6/Utilities/lcd/stm32_lcd.c ****   {
 1508              		.loc 1 490 56 is_stmt 0 view .LVU401
 1509 0042 08EB4313 		add	r3, r8, r3, lsl #5
 490:../STM32Cube_FW_N6/Utilities/lcd/stm32_lcd.c ****   {
 1510              		.loc 1 490 66 view .LVU402
 1511 0046 5B69     		ldr	r3, [r3, #20]
 490:../STM32Cube_FW_N6/Utilities/lcd/stm32_lcd.c ****   {
 1512              		.loc 1 490 11 view .LVU403
 1513 0048 725D     		ldrb	r2, [r6, r5]	@ zero_extendqisi2
 490:../STM32Cube_FW_N6/Utilities/lcd/stm32_lcd.c ****   {
 1514              		.loc 1 490 66 view .LVU404
 1515 004a 05FB1133 		mls	r3, r5, r1, r3
 490:../STM32Cube_FW_N6/Utilities/lcd/stm32_lcd.c ****   {
 1516              		.loc 1 490 115 view .LVU405
 1517 004e 9BB2     		uxth	r3, r3
 490:../STM32Cube_FW_N6/Utilities/lcd/stm32_lcd.c ****   {
 1518              		.loc 1 490 10 view .LVU406
 1519 0050 9942     		cmp	r1, r3
 1520 0052 00D8     		bhi	.L106
 1521 0054 52B9     		cbnz	r2, .L112
 1522              	.L106:
 501:../STM32Cube_FW_N6/Utilities/lcd/stm32_lcd.c **** 
 1523              		.loc 1 501 1 view .LVU407
 1524 0056 BDE8F883 		pop	{r3, r4, r5, r6, r7, r8, r9, pc}
 1525              	.LVL114:
 1526              	.L107:
 463:../STM32Cube_FW_N6/Utilities/lcd/stm32_lcd.c ****       break;
 1527              		.loc 1 463 7 is_stmt 1 view .LVU408
 463:../STM32Cube_FW_N6/Utilities/lcd/stm32_lcd.c ****       break;
 1528              		.loc 1 463 34 is_stmt 0 view .LVU409
ARM GAS  /tmp/ccsDiBBo.s 			page 51


 1529 005a 2D1A     		subs	r5, r5, r0
 1530              	.LVL115:
 463:../STM32Cube_FW_N6/Utilities/lcd/stm32_lcd.c ****       break;
 1531              		.loc 1 463 41 view .LVU410
 1532 005c 4D43     		muls	r5, r1, r5
 463:../STM32Cube_FW_N6/Utilities/lcd/stm32_lcd.c ****       break;
 1533              		.loc 1 463 17 view .LVU411
 1534 005e 04EB5504 		add	r4, r4, r5, lsr #1
 1535              	.LVL116:
 464:../STM32Cube_FW_N6/Utilities/lcd/stm32_lcd.c ****     }
 1536              		.loc 1 464 7 is_stmt 1 view .LVU412
 1537 0062 E7E7     		b	.L109
 1538              	.LVL117:
 1539              	.L108:
 473:../STM32Cube_FW_N6/Utilities/lcd/stm32_lcd.c ****       break;
 1540              		.loc 1 473 7 view .LVU413
 473:../STM32Cube_FW_N6/Utilities/lcd/stm32_lcd.c ****       break;
 1541              		.loc 1 473 36 is_stmt 0 view .LVU414
 1542 0064 2D1A     		subs	r5, r5, r0
 1543              	.LVL118:
 473:../STM32Cube_FW_N6/Utilities/lcd/stm32_lcd.c ****       break;
 1544              		.loc 1 473 43 view .LVU415
 1545 0066 4D43     		muls	r5, r1, r5
 473:../STM32Cube_FW_N6/Utilities/lcd/stm32_lcd.c ****       break;
 1546              		.loc 1 473 17 view .LVU416
 1547 0068 2C1B     		subs	r4, r5, r4
 1548              	.LVL119:
 474:../STM32Cube_FW_N6/Utilities/lcd/stm32_lcd.c ****     }
 1549              		.loc 1 474 7 is_stmt 1 view .LVU417
 1550 006a E3E7     		b	.L109
 1551              	.LVL120:
 1552              	.L112:
 493:../STM32Cube_FW_N6/Utilities/lcd/stm32_lcd.c ****     /* Decrement the column position by 16 */
 1553              		.loc 1 493 5 view .LVU418
 1554 006c 3946     		mov	r1, r7
 1555 006e 2046     		mov	r0, r4
 1556 0070 FFF7FEFF 		bl	UTIL_LCD_DisplayChar
 1557              	.LVL121:
 495:../STM32Cube_FW_N6/Utilities/lcd/stm32_lcd.c **** 
 1558              		.loc 1 495 5 view .LVU419
 495:../STM32Cube_FW_N6/Utilities/lcd/stm32_lcd.c **** 
 1559              		.loc 1 495 35 is_stmt 0 view .LVU420
 1560 0074 D8F80C30 		ldr	r3, [r8, #12]
 499:../STM32Cube_FW_N6/Utilities/lcd/stm32_lcd.c ****   }
 1561              		.loc 1 499 6 view .LVU421
 1562 0078 0135     		adds	r5, r5, #1
 1563              	.LVL122:
 495:../STM32Cube_FW_N6/Utilities/lcd/stm32_lcd.c **** 
 1564              		.loc 1 495 46 view .LVU422
 1565 007a 08EB4312 		add	r2, r8, r3, lsl #5
 495:../STM32Cube_FW_N6/Utilities/lcd/stm32_lcd.c **** 
 1566              		.loc 1 495 52 view .LVU423
 1567 007e 9268     		ldr	r2, [r2, #8]
 1568 0080 9188     		ldrh	r1, [r2, #4]
 495:../STM32Cube_FW_N6/Utilities/lcd/stm32_lcd.c **** 
 1569              		.loc 1 495 15 view .LVU424
 1570 0082 0C44     		add	r4, r4, r1
ARM GAS  /tmp/ccsDiBBo.s 			page 52


 1571              	.LVL123:
 498:../STM32Cube_FW_N6/Utilities/lcd/stm32_lcd.c ****     i++;
 1572              		.loc 1 498 5 is_stmt 1 view .LVU425
 499:../STM32Cube_FW_N6/Utilities/lcd/stm32_lcd.c ****   }
 1573              		.loc 1 499 5 view .LVU426
 1574 0084 DDE7     		b	.L111
 1575              	.L119:
 1576 0086 00BF     		.align	2
 1577              	.L118:
 1578 0088 00000000 		.word	DrawProp
 1579              		.cfi_endproc
 1580              	.LFE17:
 1582              		.section	.text.UTIL_LCD_DisplayStringAtLine,"ax",%progbits
 1583              		.align	1
 1584              		.global	UTIL_LCD_DisplayStringAtLine
 1585              		.syntax unified
 1586              		.thumb
 1587              		.thumb_func
 1589              	UTIL_LCD_DisplayStringAtLine:
 1590              	.LVL124:
 1591              	.LFB18:
 509:../STM32Cube_FW_N6/Utilities/lcd/stm32_lcd.c ****   UTIL_LCD_DisplayStringAt(0, LINE(Line), ptr, LEFT_MODE);
 1592              		.loc 1 509 1 view -0
 1593              		.cfi_startproc
 1594              		@ args = 0, pretend = 0, frame = 0
 1595              		@ frame_needed = 0, uses_anonymous_args = 0
 510:../STM32Cube_FW_N6/Utilities/lcd/stm32_lcd.c **** }
 1596              		.loc 1 510 3 view .LVU428
 509:../STM32Cube_FW_N6/Utilities/lcd/stm32_lcd.c ****   UTIL_LCD_DisplayStringAt(0, LINE(Line), ptr, LEFT_MODE);
 1597              		.loc 1 509 1 is_stmt 0 view .LVU429
 1598 0000 10B5     		push	{r4, lr}
 1599              		.cfi_def_cfa_offset 8
 1600              		.cfi_offset 4, -8
 1601              		.cfi_offset 14, -4
 509:../STM32Cube_FW_N6/Utilities/lcd/stm32_lcd.c ****   UTIL_LCD_DisplayStringAt(0, LINE(Line), ptr, LEFT_MODE);
 1602              		.loc 1 509 1 view .LVU430
 1603 0002 0446     		mov	r4, r0
 510:../STM32Cube_FW_N6/Utilities/lcd/stm32_lcd.c **** }
 1604              		.loc 1 510 31 view .LVU431
 1605 0004 FFF7FEFF 		bl	UTIL_LCD_GetFont
 1606              	.LVL125:
 510:../STM32Cube_FW_N6/Utilities/lcd/stm32_lcd.c **** }
 1607              		.loc 1 510 31 discriminator 1 view .LVU432
 1608 0008 C088     		ldrh	r0, [r0, #6]
 510:../STM32Cube_FW_N6/Utilities/lcd/stm32_lcd.c **** }
 1609              		.loc 1 510 3 discriminator 1 view .LVU433
 1610 000a 0A46     		mov	r2, r1
 1611 000c 0323     		movs	r3, #3
 1612 000e 04FB00F1 		mul	r1, r4, r0
 1613              	.LVL126:
 511:../STM32Cube_FW_N6/Utilities/lcd/stm32_lcd.c **** 
 1614              		.loc 1 511 1 view .LVU434
 1615 0012 BDE81040 		pop	{r4, lr}
 1616              		.cfi_restore 14
 1617              		.cfi_restore 4
 1618              		.cfi_def_cfa_offset 0
 1619              	.LVL127:
ARM GAS  /tmp/ccsDiBBo.s 			page 53


 510:../STM32Cube_FW_N6/Utilities/lcd/stm32_lcd.c **** }
 1620              		.loc 1 510 3 discriminator 1 view .LVU435
 1621 0016 0020     		movs	r0, #0
 1622 0018 FFF7FEBF 		b	UTIL_LCD_DisplayStringAt
 1623              	.LVL128:
 510:../STM32Cube_FW_N6/Utilities/lcd/stm32_lcd.c **** }
 1624              		.loc 1 510 3 discriminator 1 view .LVU436
 1625              		.cfi_endproc
 1626              	.LFE18:
 1628              		.section	.text.UTIL_LCD_DrawLine,"ax",%progbits
 1629              		.align	1
 1630              		.global	UTIL_LCD_DrawLine
 1631              		.syntax unified
 1632              		.thumb
 1633              		.thumb_func
 1635              	UTIL_LCD_DrawLine:
 1636              	.LVL129:
 1637              	.LFB19:
 522:../STM32Cube_FW_N6/Utilities/lcd/stm32_lcd.c ****   int16_t deltax = 0, deltay = 0, x = 0, y = 0, xinc1 = 0, xinc2 = 0,
 1638              		.loc 1 522 1 is_stmt 1 view -0
 1639              		.cfi_startproc
 1640              		@ args = 4, pretend = 0, frame = 8
 1641              		@ frame_needed = 0, uses_anonymous_args = 0
 523:../STM32Cube_FW_N6/Utilities/lcd/stm32_lcd.c ****   yinc1 = 0, yinc2 = 0, den = 0, num = 0, numadd = 0, numpixels = 0,
 1642              		.loc 1 523 3 view .LVU438
 526:../STM32Cube_FW_N6/Utilities/lcd/stm32_lcd.c **** 
 1643              		.loc 1 526 3 view .LVU439
 528:../STM32Cube_FW_N6/Utilities/lcd/stm32_lcd.c ****   y_diff = Ypos2 - Ypos1;
 1644              		.loc 1 528 3 view .LVU440
 529:../STM32Cube_FW_N6/Utilities/lcd/stm32_lcd.c **** 
 1645              		.loc 1 529 3 view .LVU441
 531:../STM32Cube_FW_N6/Utilities/lcd/stm32_lcd.c ****   deltay = ABS(y_diff);         /* The absolute difference between the y's */
 1646              		.loc 1 531 3 view .LVU442
 522:../STM32Cube_FW_N6/Utilities/lcd/stm32_lcd.c ****   int16_t deltax = 0, deltay = 0, x = 0, y = 0, xinc1 = 0, xinc2 = 0,
 1647              		.loc 1 522 1 is_stmt 0 view .LVU443
 1648 0000 2DE9F74F 		push	{r0, r1, r2, r4, r5, r6, r7, r8, r9, r10, fp, lr}
 1649              		.cfi_def_cfa_offset 48
 1650              		.cfi_offset 4, -36
 1651              		.cfi_offset 5, -32
 1652              		.cfi_offset 6, -28
 1653              		.cfi_offset 7, -24
 1654              		.cfi_offset 8, -20
 1655              		.cfi_offset 9, -16
 1656              		.cfi_offset 10, -12
 1657              		.cfi_offset 11, -8
 1658              		.cfi_offset 14, -4
 528:../STM32Cube_FW_N6/Utilities/lcd/stm32_lcd.c ****   y_diff = Ypos2 - Ypos1;
 1659              		.loc 1 528 18 view .LVU444
 1660 0004 141A     		subs	r4, r2, r0
 1661              	.LVL130:
 531:../STM32Cube_FW_N6/Utilities/lcd/stm32_lcd.c ****   deltay = ABS(y_diff);         /* The absolute difference between the y's */
 1662              		.loc 1 531 12 view .LVU445
 1663 0006 002C     		cmp	r4, #0
 529:../STM32Cube_FW_N6/Utilities/lcd/stm32_lcd.c **** 
 1664              		.loc 1 529 18 view .LVU446
 1665 0008 A3EB0107 		sub	r7, r3, r1
 1666              	.LVL131:
ARM GAS  /tmp/ccsDiBBo.s 			page 54


 531:../STM32Cube_FW_N6/Utilities/lcd/stm32_lcd.c ****   deltay = ABS(y_diff);         /* The absolute difference between the y's */
 1667              		.loc 1 531 12 view .LVU447
 1668 000c B8BF     		it	lt
 1669 000e 6442     		rsblt	r4, r4, #0
 1670              	.LVL132:
 532:../STM32Cube_FW_N6/Utilities/lcd/stm32_lcd.c ****   x = Xpos1;                       /* Start x off at the first pixel */
 1671              		.loc 1 532 12 view .LVU448
 1672 0010 002F     		cmp	r7, #0
 1673 0012 B8BF     		it	lt
 1674 0014 7F42     		rsblt	r7, r7, #0
 1675              	.LVL133:
 538:../STM32Cube_FW_N6/Utilities/lcd/stm32_lcd.c ****     xinc2 = 1;
 1676              		.loc 1 538 11 view .LVU449
 1677 0016 8242     		cmp	r2, r0
 1678 0018 34BF     		ite	cc
 1679 001a 4FF0FF38 		movcc	r8, #-1
 1680 001e 4FF00108 		movcs	r8, #1
 531:../STM32Cube_FW_N6/Utilities/lcd/stm32_lcd.c ****   deltay = ABS(y_diff);         /* The absolute difference between the y's */
 1681              		.loc 1 531 10 view .LVU450
 1682 0022 24B2     		sxth	r4, r4
 1683              	.LVL134:
 532:../STM32Cube_FW_N6/Utilities/lcd/stm32_lcd.c ****   x = Xpos1;                       /* Start x off at the first pixel */
 1684              		.loc 1 532 3 is_stmt 1 view .LVU451
 549:../STM32Cube_FW_N6/Utilities/lcd/stm32_lcd.c ****     yinc2 = 1;
 1685              		.loc 1 549 11 is_stmt 0 view .LVU452
 1686 0024 8B42     		cmp	r3, r1
 532:../STM32Cube_FW_N6/Utilities/lcd/stm32_lcd.c ****   x = Xpos1;                       /* Start x off at the first pixel */
 1687              		.loc 1 532 10 view .LVU453
 1688 0026 3FB2     		sxth	r7, r7
 1689              	.LVL135:
 533:../STM32Cube_FW_N6/Utilities/lcd/stm32_lcd.c ****   y = Ypos1;                       /* Start y off at the first pixel */
 1690              		.loc 1 533 3 is_stmt 1 view .LVU454
 549:../STM32Cube_FW_N6/Utilities/lcd/stm32_lcd.c ****     yinc2 = 1;
 1691              		.loc 1 549 11 is_stmt 0 view .LVU455
 1692 0028 34BF     		ite	cc
 1693 002a 4FF0FF39 		movcc	r9, #-1
 1694 002e 4FF00109 		movcs	r9, #1
 558:../STM32Cube_FW_N6/Utilities/lcd/stm32_lcd.c ****   {
 1695              		.loc 1 558 6 view .LVU456
 1696 0032 BC42     		cmp	r4, r7
 533:../STM32Cube_FW_N6/Utilities/lcd/stm32_lcd.c ****   y = Ypos1;                       /* Start y off at the first pixel */
 1697              		.loc 1 533 5 view .LVU457
 1698 0034 06B2     		sxth	r6, r0
 1699              	.LVL136:
 534:../STM32Cube_FW_N6/Utilities/lcd/stm32_lcd.c **** 
 1700              		.loc 1 534 3 is_stmt 1 view .LVU458
 534:../STM32Cube_FW_N6/Utilities/lcd/stm32_lcd.c **** 
 1701              		.loc 1 534 5 is_stmt 0 view .LVU459
 1702 0036 0FFA81FC 		sxth	ip, r1
 1703              	.LVL137:
 536:../STM32Cube_FW_N6/Utilities/lcd/stm32_lcd.c ****   {
 1704              		.loc 1 536 3 is_stmt 1 view .LVU460
 547:../STM32Cube_FW_N6/Utilities/lcd/stm32_lcd.c ****   {
 1705              		.loc 1 547 3 view .LVU461
 558:../STM32Cube_FW_N6/Utilities/lcd/stm32_lcd.c ****   {
 1706              		.loc 1 558 3 view .LVU462
 558:../STM32Cube_FW_N6/Utilities/lcd/stm32_lcd.c ****   {
ARM GAS  /tmp/ccsDiBBo.s 			page 55


 1707              		.loc 1 558 6 is_stmt 0 view .LVU463
 1708 003a 0FDB     		blt	.L124
 560:../STM32Cube_FW_N6/Utilities/lcd/stm32_lcd.c ****     yinc2 = 0;                  /* Don't change the y for every iteration */
 1709              		.loc 1 560 5 is_stmt 1 view .LVU464
 1710              	.LVL138:
 561:../STM32Cube_FW_N6/Utilities/lcd/stm32_lcd.c ****     den = deltax;
 1711              		.loc 1 561 5 view .LVU465
 562:../STM32Cube_FW_N6/Utilities/lcd/stm32_lcd.c ****     num = deltax / 2;
 1712              		.loc 1 562 5 view .LVU466
 563:../STM32Cube_FW_N6/Utilities/lcd/stm32_lcd.c ****     numadd = deltay;
 1713              		.loc 1 563 5 view .LVU467
 1714 003c C346     		mov	fp, r8
 561:../STM32Cube_FW_N6/Utilities/lcd/stm32_lcd.c ****     den = deltax;
 1715              		.loc 1 561 11 is_stmt 0 view .LVU468
 1716 003e 4FF00008 		mov	r8, #0
 1717              	.LVL139:
 560:../STM32Cube_FW_N6/Utilities/lcd/stm32_lcd.c ****     yinc2 = 0;                  /* Don't change the y for every iteration */
 1718              		.loc 1 560 11 view .LVU469
 1719 0042 4346     		mov	r3, r8
 1720              	.LVL140:
 563:../STM32Cube_FW_N6/Utilities/lcd/stm32_lcd.c ****     numadd = deltay;
 1721              		.loc 1 563 9 view .LVU470
 1722 0044 04EBD475 		add	r5, r4, r4, lsr #31
 1723 0048 6D10     		asrs	r5, r5, #1
 1724              	.LVL141:
 564:../STM32Cube_FW_N6/Utilities/lcd/stm32_lcd.c ****     numpixels = deltax;         /* There are more x-values than y-values */
 1725              		.loc 1 564 5 is_stmt 1 view .LVU471
 565:../STM32Cube_FW_N6/Utilities/lcd/stm32_lcd.c ****   }
 1726              		.loc 1 565 5 view .LVU472
 1727              	.L125:
 577:../STM32Cube_FW_N6/Utilities/lcd/stm32_lcd.c ****   {
 1728              		.loc 1 577 3 view .LVU473
 577:../STM32Cube_FW_N6/Utilities/lcd/stm32_lcd.c ****   {
 1729              		.loc 1 577 3 is_stmt 0 view .LVU474
 1730 004a 4FF0000A 		mov	r10, #0
 1731              	.LVL142:
 1732              	.L126:
 577:../STM32Cube_FW_N6/Utilities/lcd/stm32_lcd.c ****   {
 1733              		.loc 1 577 31 is_stmt 1 discriminator 1 view .LVU475
 1734 004e 0FFA8AF2 		sxth	r2, r10
 1735 0052 A242     		cmp	r2, r4
 1736 0054 0EDD     		ble	.L128
 590:../STM32Cube_FW_N6/Utilities/lcd/stm32_lcd.c **** 
 1737              		.loc 1 590 1 is_stmt 0 view .LVU476
 1738 0056 03B0     		add	sp, sp, #12
 1739              		.cfi_remember_state
 1740              		.cfi_def_cfa_offset 36
 1741              		@ sp needed
 1742 0058 BDE8F08F 		pop	{r4, r5, r6, r7, r8, r9, r10, fp, pc}
 1743              	.LVL143:
 1744              	.L124:
 1745              		.cfi_restore_state
 569:../STM32Cube_FW_N6/Utilities/lcd/stm32_lcd.c ****     yinc1 = 0;                  /* Don't change the y when numerator >= denominator */
 1746              		.loc 1 569 5 is_stmt 1 view .LVU477
 570:../STM32Cube_FW_N6/Utilities/lcd/stm32_lcd.c ****     den = deltay;
 1747              		.loc 1 570 5 view .LVU478
 571:../STM32Cube_FW_N6/Utilities/lcd/stm32_lcd.c ****     num = deltay / 2;
ARM GAS  /tmp/ccsDiBBo.s 			page 56


 1748              		.loc 1 571 5 view .LVU479
 572:../STM32Cube_FW_N6/Utilities/lcd/stm32_lcd.c ****     numadd = deltax;
 1749              		.loc 1 572 5 view .LVU480
 572:../STM32Cube_FW_N6/Utilities/lcd/stm32_lcd.c ****     numadd = deltax;
 1750              		.loc 1 572 9 is_stmt 0 view .LVU481
 1751 005c 2346     		mov	r3, r4
 1752              	.LVL144:
 572:../STM32Cube_FW_N6/Utilities/lcd/stm32_lcd.c ****     numadd = deltax;
 1753              		.loc 1 572 9 view .LVU482
 1754 005e 07EBD775 		add	r5, r7, r7, lsr #31
 571:../STM32Cube_FW_N6/Utilities/lcd/stm32_lcd.c ****     num = deltay / 2;
 1755              		.loc 1 571 9 view .LVU483
 1756 0062 3C46     		mov	r4, r7
 1757              	.LVL145:
 573:../STM32Cube_FW_N6/Utilities/lcd/stm32_lcd.c ****     numpixels = deltay;         /* There are more y-values than x-values */
 1758              		.loc 1 573 12 view .LVU484
 1759 0064 1F46     		mov	r7, r3
 1760              	.LVL146:
 572:../STM32Cube_FW_N6/Utilities/lcd/stm32_lcd.c ****     numadd = deltax;
 1761              		.loc 1 572 9 view .LVU485
 1762 0066 4B46     		mov	r3, r9
 1763              	.LVL147:
 570:../STM32Cube_FW_N6/Utilities/lcd/stm32_lcd.c ****     den = deltay;
 1764              		.loc 1 570 11 view .LVU486
 1765 0068 4FF00009 		mov	r9, #0
 1766              	.LVL148:
 572:../STM32Cube_FW_N6/Utilities/lcd/stm32_lcd.c ****     numadd = deltax;
 1767              		.loc 1 572 9 view .LVU487
 1768 006c 45F34F05 		sbfx	r5, r5, #1, #16
 1769              	.LVL149:
 573:../STM32Cube_FW_N6/Utilities/lcd/stm32_lcd.c ****     numpixels = deltay;         /* There are more y-values than x-values */
 1770              		.loc 1 573 5 is_stmt 1 view .LVU488
 574:../STM32Cube_FW_N6/Utilities/lcd/stm32_lcd.c ****   }
 1771              		.loc 1 574 5 view .LVU489
 569:../STM32Cube_FW_N6/Utilities/lcd/stm32_lcd.c ****     yinc1 = 0;                  /* Don't change the y when numerator >= denominator */
 1772              		.loc 1 569 11 is_stmt 0 view .LVU490
 1773 0070 CB46     		mov	fp, r9
 1774 0072 EAE7     		b	.L125
 1775              	.LVL150:
 1776              	.L128:
 579:../STM32Cube_FW_N6/Utilities/lcd/stm32_lcd.c ****     num += numadd;                            /* Increase the numerator by the top of the fraction 
 1777              		.loc 1 579 5 view .LVU491
 1778 0074 B6B2     		uxth	r6, r6
 579:../STM32Cube_FW_N6/Utilities/lcd/stm32_lcd.c ****     num += numadd;                            /* Increase the numerator by the top of the fraction 
 1779              		.loc 1 579 5 view .LVU492
 1780 0076 1FFA8CF1 		uxth	r1, ip
 1781 007a 0C9A     		ldr	r2, [sp, #48]
 580:../STM32Cube_FW_N6/Utilities/lcd/stm32_lcd.c ****     if (num >= den)                           /* Check if numerator >= denominator */
 1782              		.loc 1 580 9 view .LVU493
 1783 007c 3D44     		add	r5, r5, r7
 1784              	.LVL151:
 579:../STM32Cube_FW_N6/Utilities/lcd/stm32_lcd.c ****     num += numadd;                            /* Increase the numerator by the top of the fraction 
 1785              		.loc 1 579 5 view .LVU494
 1786 007e 3046     		mov	r0, r6
 1787 0080 0193     		str	r3, [sp, #4]
 579:../STM32Cube_FW_N6/Utilities/lcd/stm32_lcd.c ****     num += numadd;                            /* Increase the numerator by the top of the fraction 
 1788              		.loc 1 579 5 is_stmt 1 view .LVU495
ARM GAS  /tmp/ccsDiBBo.s 			page 57


 1789 0082 0091     		str	r1, [sp]
 1790 0084 FFF7FEFF 		bl	UTIL_LCD_SetPixel
 1791              	.LVL152:
 580:../STM32Cube_FW_N6/Utilities/lcd/stm32_lcd.c ****     if (num >= den)                           /* Check if numerator >= denominator */
 1792              		.loc 1 580 5 view .LVU496
 581:../STM32Cube_FW_N6/Utilities/lcd/stm32_lcd.c ****     {
 1793              		.loc 1 581 8 is_stmt 0 view .LVU497
 1794 0088 DDE90013 		ldrd	r1, r3, [sp]
 580:../STM32Cube_FW_N6/Utilities/lcd/stm32_lcd.c ****     if (num >= den)                           /* Check if numerator >= denominator */
 1795              		.loc 1 580 9 view .LVU498
 1796 008c AAB2     		uxth	r2, r5
 1797 008e 2DB2     		sxth	r5, r5
 1798              	.LVL153:
 581:../STM32Cube_FW_N6/Utilities/lcd/stm32_lcd.c ****     {
 1799              		.loc 1 581 5 is_stmt 1 view .LVU499
 581:../STM32Cube_FW_N6/Utilities/lcd/stm32_lcd.c ****     {
 1800              		.loc 1 581 8 is_stmt 0 view .LVU500
 1801 0090 AC42     		cmp	r4, r5
 1802 0092 05DC     		bgt	.L127
 583:../STM32Cube_FW_N6/Utilities/lcd/stm32_lcd.c ****       x += xinc1;                             /* Change the x as appropriate */
 1803              		.loc 1 583 7 is_stmt 1 view .LVU501
 583:../STM32Cube_FW_N6/Utilities/lcd/stm32_lcd.c ****       x += xinc1;                             /* Change the x as appropriate */
 1804              		.loc 1 583 11 is_stmt 0 view .LVU502
 1805 0094 121B     		subs	r2, r2, r4
 584:../STM32Cube_FW_N6/Utilities/lcd/stm32_lcd.c ****       y += yinc1;                             /* Change the y as appropriate */
 1806              		.loc 1 584 9 view .LVU503
 1807 0096 4644     		add	r6, r6, r8
 1808              	.LVL154:
 585:../STM32Cube_FW_N6/Utilities/lcd/stm32_lcd.c ****     }
 1809              		.loc 1 585 9 view .LVU504
 1810 0098 4944     		add	r1, r1, r9
 583:../STM32Cube_FW_N6/Utilities/lcd/stm32_lcd.c ****       x += xinc1;                             /* Change the x as appropriate */
 1811              		.loc 1 583 11 view .LVU505
 1812 009a 15B2     		sxth	r5, r2
 1813              	.LVL155:
 584:../STM32Cube_FW_N6/Utilities/lcd/stm32_lcd.c ****       y += yinc1;                             /* Change the y as appropriate */
 1814              		.loc 1 584 7 is_stmt 1 view .LVU506
 584:../STM32Cube_FW_N6/Utilities/lcd/stm32_lcd.c ****       y += yinc1;                             /* Change the y as appropriate */
 1815              		.loc 1 584 9 is_stmt 0 view .LVU507
 1816 009c B6B2     		uxth	r6, r6
 1817              	.LVL156:
 585:../STM32Cube_FW_N6/Utilities/lcd/stm32_lcd.c ****     }
 1818              		.loc 1 585 7 is_stmt 1 view .LVU508
 585:../STM32Cube_FW_N6/Utilities/lcd/stm32_lcd.c ****     }
 1819              		.loc 1 585 9 is_stmt 0 view .LVU509
 1820 009e 89B2     		uxth	r1, r1
 1821              	.LVL157:
 1822              	.L127:
 587:../STM32Cube_FW_N6/Utilities/lcd/stm32_lcd.c ****     y += yinc2;                               /* Change the y as appropriate */
 1823              		.loc 1 587 5 is_stmt 1 view .LVU510
 587:../STM32Cube_FW_N6/Utilities/lcd/stm32_lcd.c ****     y += yinc2;                               /* Change the y as appropriate */
 1824              		.loc 1 587 7 is_stmt 0 view .LVU511
 1825 00a0 5E44     		add	r6, r6, fp
 588:../STM32Cube_FW_N6/Utilities/lcd/stm32_lcd.c ****   }
 1826              		.loc 1 588 7 view .LVU512
 1827 00a2 1944     		add	r1, r1, r3
 587:../STM32Cube_FW_N6/Utilities/lcd/stm32_lcd.c ****     y += yinc2;                               /* Change the y as appropriate */
ARM GAS  /tmp/ccsDiBBo.s 			page 58


 1828              		.loc 1 587 7 view .LVU513
 1829 00a4 36B2     		sxth	r6, r6
 1830              	.LVL158:
 588:../STM32Cube_FW_N6/Utilities/lcd/stm32_lcd.c ****   }
 1831              		.loc 1 588 5 is_stmt 1 view .LVU514
 588:../STM32Cube_FW_N6/Utilities/lcd/stm32_lcd.c ****   }
 1832              		.loc 1 588 7 is_stmt 0 view .LVU515
 1833 00a6 0FFA81FC 		sxth	ip, r1
 1834              	.LVL159:
 577:../STM32Cube_FW_N6/Utilities/lcd/stm32_lcd.c ****   {
 1835              		.loc 1 577 53 is_stmt 1 discriminator 2 view .LVU516
 577:../STM32Cube_FW_N6/Utilities/lcd/stm32_lcd.c ****   {
 1836              		.loc 1 577 53 is_stmt 0 discriminator 2 view .LVU517
 1837 00aa 0AF1010A 		add	r10, r10, #1
 1838              	.LVL160:
 577:../STM32Cube_FW_N6/Utilities/lcd/stm32_lcd.c ****   {
 1839              		.loc 1 577 53 discriminator 2 view .LVU518
 1840 00ae CEE7     		b	.L126
 1841              		.cfi_endproc
 1842              	.LFE19:
 1844              		.section	.text.FillTriangle,"ax",%progbits
 1845              		.align	1
 1846              		.syntax unified
 1847              		.thumb
 1848              		.thumb_func
 1850              	FillTriangle:
 1851              	.LVL161:
 1852              	.LFB30:
1101:../STM32Cube_FW_N6/Utilities/lcd/stm32_lcd.c ****     }
1102:../STM32Cube_FW_N6/Utilities/lcd/stm32_lcd.c ****   }
1103:../STM32Cube_FW_N6/Utilities/lcd/stm32_lcd.c **** }
1104:../STM32Cube_FW_N6/Utilities/lcd/stm32_lcd.c **** 
1105:../STM32Cube_FW_N6/Utilities/lcd/stm32_lcd.c **** /**
1106:../STM32Cube_FW_N6/Utilities/lcd/stm32_lcd.c ****   * @brief  Fills a triangle (between 3 points).
1107:../STM32Cube_FW_N6/Utilities/lcd/stm32_lcd.c ****   * @param  Positions  pointer to riangle coordinates
1108:../STM32Cube_FW_N6/Utilities/lcd/stm32_lcd.c ****   * @param  Color      Draw color
1109:../STM32Cube_FW_N6/Utilities/lcd/stm32_lcd.c ****   */
1110:../STM32Cube_FW_N6/Utilities/lcd/stm32_lcd.c **** static void FillTriangle(Triangle_Positions_t *Positions, uint32_t Color)
1111:../STM32Cube_FW_N6/Utilities/lcd/stm32_lcd.c **** {
 1853              		.loc 1 1111 1 is_stmt 1 view -0
 1854              		.cfi_startproc
 1855              		@ args = 0, pretend = 0, frame = 16
 1856              		@ frame_needed = 0, uses_anonymous_args = 0
1112:../STM32Cube_FW_N6/Utilities/lcd/stm32_lcd.c ****   int16_t deltax = 0, deltay = 0, x = 0, y = 0, xinc1 = 0, xinc2 = 0,
 1857              		.loc 1 1112 3 view .LVU520
1113:../STM32Cube_FW_N6/Utilities/lcd/stm32_lcd.c ****   yinc1 = 0, yinc2 = 0, den = 0, num = 0, numadd = 0, numpixels = 0,
1114:../STM32Cube_FW_N6/Utilities/lcd/stm32_lcd.c ****   curpixel = 0;
1115:../STM32Cube_FW_N6/Utilities/lcd/stm32_lcd.c ****   int32_t x_diff, y_diff;
 1858              		.loc 1 1115 3 view .LVU521
1116:../STM32Cube_FW_N6/Utilities/lcd/stm32_lcd.c **** 
1117:../STM32Cube_FW_N6/Utilities/lcd/stm32_lcd.c ****   x_diff = Positions->x2 - Positions->x1;
 1859              		.loc 1 1117 3 view .LVU522
 1860              		.loc 1 1117 21 is_stmt 0 view .LVU523
 1861 0000 D0F808C0 		ldr	ip, [r0, #8]
 1862              		.loc 1 1117 37 view .LVU524
 1863 0004 0268     		ldr	r2, [r0]
 1864              	.LVL162:
ARM GAS  /tmp/ccsDiBBo.s 			page 59


1118:../STM32Cube_FW_N6/Utilities/lcd/stm32_lcd.c ****   y_diff = Positions->y2 - Positions->y1;
 1865              		.loc 1 1118 3 is_stmt 1 view .LVU525
1111:../STM32Cube_FW_N6/Utilities/lcd/stm32_lcd.c ****   int16_t deltax = 0, deltay = 0, x = 0, y = 0, xinc1 = 0, xinc2 = 0,
 1866              		.loc 1 1111 1 is_stmt 0 view .LVU526
 1867 0006 2DE9F04F 		push	{r4, r5, r6, r7, r8, r9, r10, fp, lr}
 1868              		.cfi_def_cfa_offset 36
 1869              		.cfi_offset 4, -36
 1870              		.cfi_offset 5, -32
 1871              		.cfi_offset 6, -28
 1872              		.cfi_offset 7, -24
 1873              		.cfi_offset 8, -20
 1874              		.cfi_offset 9, -16
 1875              		.cfi_offset 10, -12
 1876              		.cfi_offset 11, -8
 1877              		.cfi_offset 14, -4
 1878              		.loc 1 1118 37 view .LVU527
 1879 000a 4368     		ldr	r3, [r0, #4]
 1880              		.loc 1 1118 21 view .LVU528
 1881 000c C568     		ldr	r5, [r0, #12]
 1882              	.LVL163:
1119:../STM32Cube_FW_N6/Utilities/lcd/stm32_lcd.c **** 
1120:../STM32Cube_FW_N6/Utilities/lcd/stm32_lcd.c ****   deltax = ABS(x_diff);         /* The absolute difference between the x's */
 1883              		.loc 1 1120 3 is_stmt 1 view .LVU529
1117:../STM32Cube_FW_N6/Utilities/lcd/stm32_lcd.c ****   y_diff = Positions->y2 - Positions->y1;
 1884              		.loc 1 1117 26 is_stmt 0 view .LVU530
 1885 000e ACEB0204 		sub	r4, ip, r2
 1886              	.LVL164:
 1887              		.loc 1 1120 12 view .LVU531
 1888 0012 002C     		cmp	r4, #0
1118:../STM32Cube_FW_N6/Utilities/lcd/stm32_lcd.c **** 
 1889              		.loc 1 1118 26 view .LVU532
 1890 0014 A5EB0306 		sub	r6, r5, r3
 1891              	.LVL165:
 1892              		.loc 1 1120 12 view .LVU533
 1893 0018 B8BF     		it	lt
 1894 001a 6442     		rsblt	r4, r4, #0
 1895              	.LVL166:
1121:../STM32Cube_FW_N6/Utilities/lcd/stm32_lcd.c ****   deltay = ABS(y_diff);         /* The absolute difference between the y's */
 1896              		.loc 1 1121 12 view .LVU534
 1897 001c 002E     		cmp	r6, #0
 1898 001e B8BF     		it	lt
 1899 0020 7642     		rsblt	r6, r6, #0
 1900              	.LVL167:
1122:../STM32Cube_FW_N6/Utilities/lcd/stm32_lcd.c ****   x = Positions->x1;                       /* Start x off at the first pixel */
1123:../STM32Cube_FW_N6/Utilities/lcd/stm32_lcd.c ****   y = Positions->y1;                       /* Start y off at the first pixel */
1124:../STM32Cube_FW_N6/Utilities/lcd/stm32_lcd.c **** 
1125:../STM32Cube_FW_N6/Utilities/lcd/stm32_lcd.c ****   if (Positions->x2 >= Positions->x1)                 /* The x-values are increasing */
1126:../STM32Cube_FW_N6/Utilities/lcd/stm32_lcd.c ****   {
1127:../STM32Cube_FW_N6/Utilities/lcd/stm32_lcd.c ****     xinc1 = 1;
 1901              		.loc 1 1127 11 view .LVU535
 1902 0022 9445     		cmp	ip, r2
 1903 0024 34BF     		ite	cc
 1904 0026 4FF0FF38 		movcc	r8, #-1
 1905 002a 4FF00108 		movcs	r8, #1
1120:../STM32Cube_FW_N6/Utilities/lcd/stm32_lcd.c ****   deltay = ABS(y_diff);         /* The absolute difference between the y's */
 1906              		.loc 1 1120 10 view .LVU536
 1907 002e 24B2     		sxth	r4, r4
ARM GAS  /tmp/ccsDiBBo.s 			page 60


 1908              	.LVL168:
1121:../STM32Cube_FW_N6/Utilities/lcd/stm32_lcd.c ****   deltay = ABS(y_diff);         /* The absolute difference between the y's */
 1909              		.loc 1 1121 3 is_stmt 1 view .LVU537
1128:../STM32Cube_FW_N6/Utilities/lcd/stm32_lcd.c ****     xinc2 = 1;
1129:../STM32Cube_FW_N6/Utilities/lcd/stm32_lcd.c ****   }
1130:../STM32Cube_FW_N6/Utilities/lcd/stm32_lcd.c ****   else                          /* The x-values are decreasing */
1131:../STM32Cube_FW_N6/Utilities/lcd/stm32_lcd.c ****   {
1132:../STM32Cube_FW_N6/Utilities/lcd/stm32_lcd.c ****     xinc1 = -1;
1133:../STM32Cube_FW_N6/Utilities/lcd/stm32_lcd.c ****     xinc2 = -1;
1134:../STM32Cube_FW_N6/Utilities/lcd/stm32_lcd.c ****   }
1135:../STM32Cube_FW_N6/Utilities/lcd/stm32_lcd.c **** 
1136:../STM32Cube_FW_N6/Utilities/lcd/stm32_lcd.c ****   if (Positions->y2 >= Positions->y1)                 /* The y-values are increasing */
1137:../STM32Cube_FW_N6/Utilities/lcd/stm32_lcd.c ****   {
1138:../STM32Cube_FW_N6/Utilities/lcd/stm32_lcd.c ****     yinc1 = 1;
 1910              		.loc 1 1138 11 is_stmt 0 view .LVU538
 1911 0030 9D42     		cmp	r5, r3
1121:../STM32Cube_FW_N6/Utilities/lcd/stm32_lcd.c ****   x = Positions->x1;                       /* Start x off at the first pixel */
 1912              		.loc 1 1121 10 view .LVU539
 1913 0032 36B2     		sxth	r6, r6
 1914              	.LVL169:
1122:../STM32Cube_FW_N6/Utilities/lcd/stm32_lcd.c ****   y = Positions->y1;                       /* Start y off at the first pixel */
 1915              		.loc 1 1122 3 is_stmt 1 view .LVU540
 1916              		.loc 1 1138 11 is_stmt 0 view .LVU541
 1917 0034 34BF     		ite	cc
 1918 0036 4FF0FF39 		movcc	r9, #-1
 1919 003a 4FF00109 		movcs	r9, #1
1111:../STM32Cube_FW_N6/Utilities/lcd/stm32_lcd.c ****   int16_t deltax = 0, deltay = 0, x = 0, y = 0, xinc1 = 0, xinc2 = 0,
 1920              		.loc 1 1111 1 view .LVU542
 1921 003e 87B0     		sub	sp, sp, #28
 1922              		.cfi_def_cfa_offset 64
1139:../STM32Cube_FW_N6/Utilities/lcd/stm32_lcd.c ****     yinc2 = 1;
1140:../STM32Cube_FW_N6/Utilities/lcd/stm32_lcd.c ****   }
1141:../STM32Cube_FW_N6/Utilities/lcd/stm32_lcd.c ****   else                          /* The y-values are decreasing */
1142:../STM32Cube_FW_N6/Utilities/lcd/stm32_lcd.c ****   {
1143:../STM32Cube_FW_N6/Utilities/lcd/stm32_lcd.c ****     yinc1 = -1;
1144:../STM32Cube_FW_N6/Utilities/lcd/stm32_lcd.c ****     yinc2 = -1;
1145:../STM32Cube_FW_N6/Utilities/lcd/stm32_lcd.c ****   }
1146:../STM32Cube_FW_N6/Utilities/lcd/stm32_lcd.c **** 
1147:../STM32Cube_FW_N6/Utilities/lcd/stm32_lcd.c ****   if (deltax >= deltay)         /* There is at least one x-value for every y-value */
 1923              		.loc 1 1147 6 view .LVU543
 1924 0040 B442     		cmp	r4, r6
1111:../STM32Cube_FW_N6/Utilities/lcd/stm32_lcd.c ****   int16_t deltax = 0, deltay = 0, x = 0, y = 0, xinc1 = 0, xinc2 = 0,
 1925              		.loc 1 1111 1 view .LVU544
 1926 0042 0746     		mov	r7, r0
 1927 0044 0391     		str	r1, [sp, #12]
1122:../STM32Cube_FW_N6/Utilities/lcd/stm32_lcd.c ****   y = Positions->y1;                       /* Start y off at the first pixel */
 1928              		.loc 1 1122 5 view .LVU545
 1929 0046 10B2     		sxth	r0, r2
 1930              	.LVL170:
1123:../STM32Cube_FW_N6/Utilities/lcd/stm32_lcd.c **** 
 1931              		.loc 1 1123 3 is_stmt 1 view .LVU546
1123:../STM32Cube_FW_N6/Utilities/lcd/stm32_lcd.c **** 
 1932              		.loc 1 1123 5 is_stmt 0 view .LVU547
 1933 0048 19B2     		sxth	r1, r3
 1934              	.LVL171:
1125:../STM32Cube_FW_N6/Utilities/lcd/stm32_lcd.c ****   {
 1935              		.loc 1 1125 3 is_stmt 1 view .LVU548
ARM GAS  /tmp/ccsDiBBo.s 			page 61


1136:../STM32Cube_FW_N6/Utilities/lcd/stm32_lcd.c ****   {
 1936              		.loc 1 1136 3 view .LVU549
 1937              		.loc 1 1147 3 view .LVU550
 1938              		.loc 1 1147 6 is_stmt 0 view .LVU551
 1939 004a 10DB     		blt	.L134
1148:../STM32Cube_FW_N6/Utilities/lcd/stm32_lcd.c ****   {
1149:../STM32Cube_FW_N6/Utilities/lcd/stm32_lcd.c ****     xinc1 = 0;                  /* Don't change the x when numerator >= denominator */
 1940              		.loc 1 1149 5 is_stmt 1 view .LVU552
 1941              	.LVL172:
1150:../STM32Cube_FW_N6/Utilities/lcd/stm32_lcd.c ****     yinc2 = 0;                  /* Don't change the y for every iteration */
 1942              		.loc 1 1150 5 view .LVU553
1151:../STM32Cube_FW_N6/Utilities/lcd/stm32_lcd.c ****     den = deltax;
 1943              		.loc 1 1151 5 view .LVU554
1152:../STM32Cube_FW_N6/Utilities/lcd/stm32_lcd.c ****     num = deltax / 2;
 1944              		.loc 1 1152 5 view .LVU555
 1945 004c CDF80880 		str	r8, [sp, #8]
1150:../STM32Cube_FW_N6/Utilities/lcd/stm32_lcd.c ****     yinc2 = 0;                  /* Don't change the y for every iteration */
 1946              		.loc 1 1150 11 is_stmt 0 view .LVU556
 1947 0050 4FF00008 		mov	r8, #0
 1948              	.LVL173:
1149:../STM32Cube_FW_N6/Utilities/lcd/stm32_lcd.c ****     yinc2 = 0;                  /* Don't change the y for every iteration */
 1949              		.loc 1 1149 11 view .LVU557
 1950 0054 C346     		mov	fp, r8
 1951              		.loc 1 1152 9 view .LVU558
 1952 0056 04EBD475 		add	r5, r4, r4, lsr #31
 1953              	.LVL174:
 1954              		.loc 1 1152 9 view .LVU559
 1955 005a 6D10     		asrs	r5, r5, #1
 1956              	.LVL175:
1153:../STM32Cube_FW_N6/Utilities/lcd/stm32_lcd.c ****     numadd = deltay;
 1957              		.loc 1 1153 5 is_stmt 1 view .LVU560
1154:../STM32Cube_FW_N6/Utilities/lcd/stm32_lcd.c ****     numpixels = deltax;         /* There are more x-values than y-values */
 1958              		.loc 1 1154 5 view .LVU561
 1959              	.L135:
1155:../STM32Cube_FW_N6/Utilities/lcd/stm32_lcd.c ****   }
1156:../STM32Cube_FW_N6/Utilities/lcd/stm32_lcd.c ****   else                          /* There is at least one y-value for every x-value */
1157:../STM32Cube_FW_N6/Utilities/lcd/stm32_lcd.c ****   {
1158:../STM32Cube_FW_N6/Utilities/lcd/stm32_lcd.c ****     xinc2 = 0;                  /* Don't change the x for every iteration */
1159:../STM32Cube_FW_N6/Utilities/lcd/stm32_lcd.c ****     yinc1 = 0;                  /* Don't change the y when numerator >= denominator */
1160:../STM32Cube_FW_N6/Utilities/lcd/stm32_lcd.c ****     den = deltay;
1161:../STM32Cube_FW_N6/Utilities/lcd/stm32_lcd.c ****     num = deltay / 2;
1162:../STM32Cube_FW_N6/Utilities/lcd/stm32_lcd.c ****     numadd = deltax;
1163:../STM32Cube_FW_N6/Utilities/lcd/stm32_lcd.c ****     numpixels = deltay;         /* There are more y-values than x-values */
1164:../STM32Cube_FW_N6/Utilities/lcd/stm32_lcd.c ****   }
1165:../STM32Cube_FW_N6/Utilities/lcd/stm32_lcd.c **** 
1166:../STM32Cube_FW_N6/Utilities/lcd/stm32_lcd.c ****   for (curpixel = 0; curpixel <= numpixels; curpixel++)
 1960              		.loc 1 1166 3 view .LVU562
 1961              		.loc 1 1166 3 is_stmt 0 view .LVU563
 1962 005c 4FF0000A 		mov	r10, #0
 1963              	.LVL176:
 1964              	.L136:
 1965              		.loc 1 1166 31 is_stmt 1 discriminator 1 view .LVU564
 1966 0060 0FFA8AF3 		sxth	r3, r10
 1967 0064 9C42     		cmp	r4, r3
 1968 0066 0FDA     		bge	.L138
1167:../STM32Cube_FW_N6/Utilities/lcd/stm32_lcd.c ****   {
1168:../STM32Cube_FW_N6/Utilities/lcd/stm32_lcd.c ****     UTIL_LCD_DrawLine(x, y, Positions->x3, Positions->y3, Color);
ARM GAS  /tmp/ccsDiBBo.s 			page 62


1169:../STM32Cube_FW_N6/Utilities/lcd/stm32_lcd.c **** 
1170:../STM32Cube_FW_N6/Utilities/lcd/stm32_lcd.c ****     num += numadd;              /* Increase the numerator by the top of the fraction */
1171:../STM32Cube_FW_N6/Utilities/lcd/stm32_lcd.c ****     if (num >= den)             /* Check if numerator >= denominator */
1172:../STM32Cube_FW_N6/Utilities/lcd/stm32_lcd.c ****     {
1173:../STM32Cube_FW_N6/Utilities/lcd/stm32_lcd.c ****       num -= den;               /* Calculate the new numerator value */
1174:../STM32Cube_FW_N6/Utilities/lcd/stm32_lcd.c ****       x += xinc1;               /* Change the x as appropriate */
1175:../STM32Cube_FW_N6/Utilities/lcd/stm32_lcd.c ****       y += yinc1;               /* Change the y as appropriate */
1176:../STM32Cube_FW_N6/Utilities/lcd/stm32_lcd.c ****     }
1177:../STM32Cube_FW_N6/Utilities/lcd/stm32_lcd.c ****     x += xinc2;                 /* Change the x as appropriate */
1178:../STM32Cube_FW_N6/Utilities/lcd/stm32_lcd.c ****     y += yinc2;                 /* Change the y as appropriate */
1179:../STM32Cube_FW_N6/Utilities/lcd/stm32_lcd.c ****   }
1180:../STM32Cube_FW_N6/Utilities/lcd/stm32_lcd.c **** }
 1969              		.loc 1 1180 1 is_stmt 0 view .LVU565
 1970 0068 07B0     		add	sp, sp, #28
 1971              		.cfi_remember_state
 1972              		.cfi_def_cfa_offset 36
 1973              		@ sp needed
 1974 006a BDE8F08F 		pop	{r4, r5, r6, r7, r8, r9, r10, fp, pc}
 1975              	.LVL177:
 1976              	.L134:
 1977              		.cfi_restore_state
1158:../STM32Cube_FW_N6/Utilities/lcd/stm32_lcd.c ****     yinc1 = 0;                  /* Don't change the y when numerator >= denominator */
 1978              		.loc 1 1158 5 is_stmt 1 view .LVU566
1159:../STM32Cube_FW_N6/Utilities/lcd/stm32_lcd.c ****     den = deltay;
 1979              		.loc 1 1159 5 view .LVU567
1160:../STM32Cube_FW_N6/Utilities/lcd/stm32_lcd.c ****     num = deltay / 2;
 1980              		.loc 1 1160 5 view .LVU568
1161:../STM32Cube_FW_N6/Utilities/lcd/stm32_lcd.c ****     numadd = deltax;
 1981              		.loc 1 1161 5 view .LVU569
1161:../STM32Cube_FW_N6/Utilities/lcd/stm32_lcd.c ****     numadd = deltax;
 1982              		.loc 1 1161 9 is_stmt 0 view .LVU570
 1983 006e 2346     		mov	r3, r4
 1984              	.LVL178:
1161:../STM32Cube_FW_N6/Utilities/lcd/stm32_lcd.c ****     numadd = deltax;
 1985              		.loc 1 1161 9 view .LVU571
 1986 0070 CB46     		mov	fp, r9
1159:../STM32Cube_FW_N6/Utilities/lcd/stm32_lcd.c ****     den = deltay;
 1987              		.loc 1 1159 11 view .LVU572
 1988 0072 4FF00009 		mov	r9, #0
 1989              	.LVL179:
1161:../STM32Cube_FW_N6/Utilities/lcd/stm32_lcd.c ****     numadd = deltax;
 1990              		.loc 1 1161 9 view .LVU573
 1991 0076 06EBD675 		add	r5, r6, r6, lsr #31
 1992              	.LVL180:
1160:../STM32Cube_FW_N6/Utilities/lcd/stm32_lcd.c ****     num = deltay / 2;
 1993              		.loc 1 1160 9 view .LVU574
 1994 007a 3446     		mov	r4, r6
 1995              	.LVL181:
1161:../STM32Cube_FW_N6/Utilities/lcd/stm32_lcd.c ****     numadd = deltax;
 1996              		.loc 1 1161 9 view .LVU575
 1997 007c 45F34F05 		sbfx	r5, r5, #1, #16
 1998              	.LVL182:
1162:../STM32Cube_FW_N6/Utilities/lcd/stm32_lcd.c ****     numpixels = deltay;         /* There are more y-values than x-values */
 1999              		.loc 1 1162 5 is_stmt 1 view .LVU576
1163:../STM32Cube_FW_N6/Utilities/lcd/stm32_lcd.c ****   }
 2000              		.loc 1 1163 5 view .LVU577
1162:../STM32Cube_FW_N6/Utilities/lcd/stm32_lcd.c ****     numpixels = deltay;         /* There are more y-values than x-values */
ARM GAS  /tmp/ccsDiBBo.s 			page 63


 2001              		.loc 1 1162 12 is_stmt 0 view .LVU578
 2002 0080 1E46     		mov	r6, r3
 2003              	.LVL183:
1158:../STM32Cube_FW_N6/Utilities/lcd/stm32_lcd.c ****     yinc1 = 0;                  /* Don't change the y when numerator >= denominator */
 2004              		.loc 1 1158 11 view .LVU579
 2005 0082 CDF80890 		str	r9, [sp, #8]
 2006 0086 E9E7     		b	.L135
 2007              	.LVL184:
 2008              	.L138:
1168:../STM32Cube_FW_N6/Utilities/lcd/stm32_lcd.c **** 
 2009              		.loc 1 1168 5 is_stmt 1 view .LVU580
 2010 0088 039B     		ldr	r3, [sp, #12]
1170:../STM32Cube_FW_N6/Utilities/lcd/stm32_lcd.c ****     if (num >= den)             /* Check if numerator >= denominator */
 2011              		.loc 1 1170 9 is_stmt 0 view .LVU581
 2012 008a 3544     		add	r5, r5, r6
 2013              	.LVL185:
1168:../STM32Cube_FW_N6/Utilities/lcd/stm32_lcd.c **** 
 2014              		.loc 1 1168 5 view .LVU582
 2015 008c 0093     		str	r3, [sp]
 2016 008e D7E90423 		ldrd	r2, r3, [r7, #16]
 2017 0092 CDE90401 		strd	r0, r1, [sp, #16]
 2018 0096 FFF7FEFF 		bl	UTIL_LCD_DrawLine
 2019              	.LVL186:
1170:../STM32Cube_FW_N6/Utilities/lcd/stm32_lcd.c ****     if (num >= den)             /* Check if numerator >= denominator */
 2020              		.loc 1 1170 5 is_stmt 1 view .LVU583
1171:../STM32Cube_FW_N6/Utilities/lcd/stm32_lcd.c ****     {
 2021              		.loc 1 1171 8 is_stmt 0 view .LVU584
 2022 009a DDE90401 		ldrd	r0, r1, [sp, #16]
1170:../STM32Cube_FW_N6/Utilities/lcd/stm32_lcd.c ****     if (num >= den)             /* Check if numerator >= denominator */
 2023              		.loc 1 1170 9 view .LVU585
 2024 009e ABB2     		uxth	r3, r5
 2025 00a0 2DB2     		sxth	r5, r5
 2026              	.LVL187:
1171:../STM32Cube_FW_N6/Utilities/lcd/stm32_lcd.c ****     {
 2027              		.loc 1 1171 5 is_stmt 1 view .LVU586
1171:../STM32Cube_FW_N6/Utilities/lcd/stm32_lcd.c ****     {
 2028              		.loc 1 1171 8 is_stmt 0 view .LVU587
 2029 00a2 AC42     		cmp	r4, r5
 2030 00a4 05DC     		bgt	.L137
1173:../STM32Cube_FW_N6/Utilities/lcd/stm32_lcd.c ****       x += xinc1;               /* Change the x as appropriate */
 2031              		.loc 1 1173 7 is_stmt 1 view .LVU588
1173:../STM32Cube_FW_N6/Utilities/lcd/stm32_lcd.c ****       x += xinc1;               /* Change the x as appropriate */
 2032              		.loc 1 1173 11 is_stmt 0 view .LVU589
 2033 00a6 1B1B     		subs	r3, r3, r4
1174:../STM32Cube_FW_N6/Utilities/lcd/stm32_lcd.c ****       y += yinc1;               /* Change the y as appropriate */
 2034              		.loc 1 1174 9 view .LVU590
 2035 00a8 4044     		add	r0, r0, r8
1175:../STM32Cube_FW_N6/Utilities/lcd/stm32_lcd.c ****     }
 2036              		.loc 1 1175 9 view .LVU591
 2037 00aa 4944     		add	r1, r1, r9
1173:../STM32Cube_FW_N6/Utilities/lcd/stm32_lcd.c ****       x += xinc1;               /* Change the x as appropriate */
 2038              		.loc 1 1173 11 view .LVU592
 2039 00ac 1DB2     		sxth	r5, r3
 2040              	.LVL188:
1174:../STM32Cube_FW_N6/Utilities/lcd/stm32_lcd.c ****       y += yinc1;               /* Change the y as appropriate */
 2041              		.loc 1 1174 7 is_stmt 1 view .LVU593
1174:../STM32Cube_FW_N6/Utilities/lcd/stm32_lcd.c ****       y += yinc1;               /* Change the y as appropriate */
ARM GAS  /tmp/ccsDiBBo.s 			page 64


 2042              		.loc 1 1174 9 is_stmt 0 view .LVU594
 2043 00ae 00B2     		sxth	r0, r0
 2044              	.LVL189:
1175:../STM32Cube_FW_N6/Utilities/lcd/stm32_lcd.c ****     }
 2045              		.loc 1 1175 7 is_stmt 1 view .LVU595
1175:../STM32Cube_FW_N6/Utilities/lcd/stm32_lcd.c ****     }
 2046              		.loc 1 1175 9 is_stmt 0 view .LVU596
 2047 00b0 09B2     		sxth	r1, r1
 2048              	.LVL190:
 2049              	.L137:
1177:../STM32Cube_FW_N6/Utilities/lcd/stm32_lcd.c ****     y += yinc2;                 /* Change the y as appropriate */
 2050              		.loc 1 1177 5 is_stmt 1 view .LVU597
1177:../STM32Cube_FW_N6/Utilities/lcd/stm32_lcd.c ****     y += yinc2;                 /* Change the y as appropriate */
 2051              		.loc 1 1177 7 is_stmt 0 view .LVU598
 2052 00b2 029B     		ldr	r3, [sp, #8]
1178:../STM32Cube_FW_N6/Utilities/lcd/stm32_lcd.c ****   }
 2053              		.loc 1 1178 7 view .LVU599
 2054 00b4 5944     		add	r1, r1, fp
 2055              	.LVL191:
1177:../STM32Cube_FW_N6/Utilities/lcd/stm32_lcd.c ****     y += yinc2;                 /* Change the y as appropriate */
 2056              		.loc 1 1177 7 view .LVU600
 2057 00b6 1844     		add	r0, r0, r3
 2058              	.LVL192:
1177:../STM32Cube_FW_N6/Utilities/lcd/stm32_lcd.c ****     y += yinc2;                 /* Change the y as appropriate */
 2059              		.loc 1 1177 7 view .LVU601
 2060 00b8 00B2     		sxth	r0, r0
 2061              	.LVL193:
1178:../STM32Cube_FW_N6/Utilities/lcd/stm32_lcd.c ****   }
 2062              		.loc 1 1178 5 is_stmt 1 view .LVU602
1178:../STM32Cube_FW_N6/Utilities/lcd/stm32_lcd.c ****   }
 2063              		.loc 1 1178 7 is_stmt 0 view .LVU603
 2064 00ba 09B2     		sxth	r1, r1
 2065              	.LVL194:
1166:../STM32Cube_FW_N6/Utilities/lcd/stm32_lcd.c ****   {
 2066              		.loc 1 1166 53 is_stmt 1 discriminator 2 view .LVU604
1166:../STM32Cube_FW_N6/Utilities/lcd/stm32_lcd.c ****   {
 2067              		.loc 1 1166 53 is_stmt 0 discriminator 2 view .LVU605
 2068 00bc 0AF1010A 		add	r10, r10, #1
 2069              	.LVL195:
1166:../STM32Cube_FW_N6/Utilities/lcd/stm32_lcd.c ****   {
 2070              		.loc 1 1166 53 discriminator 2 view .LVU606
 2071 00c0 CEE7     		b	.L136
 2072              		.cfi_endproc
 2073              	.LFE30:
 2075              		.section	.text.UTIL_LCD_DrawRect,"ax",%progbits
 2076              		.align	1
 2077              		.global	UTIL_LCD_DrawRect
 2078              		.syntax unified
 2079              		.thumb
 2080              		.thumb_func
 2082              	UTIL_LCD_DrawRect:
 2083              	.LVL196:
 2084              	.LFB20:
 601:../STM32Cube_FW_N6/Utilities/lcd/stm32_lcd.c ****   /* Draw horizontal lines */
 2085              		.loc 1 601 1 is_stmt 1 view -0
 2086              		.cfi_startproc
 2087              		@ args = 4, pretend = 0, frame = 0
ARM GAS  /tmp/ccsDiBBo.s 			page 65


 2088              		@ frame_needed = 0, uses_anonymous_args = 0
 603:../STM32Cube_FW_N6/Utilities/lcd/stm32_lcd.c ****   UTIL_LCD_DrawHLine(Xpos, (Ypos+ Height - 1U), Width, Color);
 2089              		.loc 1 603 3 view .LVU608
 601:../STM32Cube_FW_N6/Utilities/lcd/stm32_lcd.c ****   /* Draw horizontal lines */
 2090              		.loc 1 601 1 is_stmt 0 view .LVU609
 2091 0000 2DE9F041 		push	{r4, r5, r6, r7, r8, lr}
 2092              		.cfi_def_cfa_offset 24
 2093              		.cfi_offset 4, -24
 2094              		.cfi_offset 5, -20
 2095              		.cfi_offset 6, -16
 2096              		.cfi_offset 7, -12
 2097              		.cfi_offset 8, -8
 2098              		.cfi_offset 14, -4
 601:../STM32Cube_FW_N6/Utilities/lcd/stm32_lcd.c ****   /* Draw horizontal lines */
 2099              		.loc 1 601 1 view .LVU610
 2100 0004 1F46     		mov	r7, r3
 2101 0006 0E46     		mov	r6, r1
 2102 0008 0546     		mov	r5, r0
 2103 000a 1446     		mov	r4, r2
 2104 000c DDF81880 		ldr	r8, [sp, #24]
 603:../STM32Cube_FW_N6/Utilities/lcd/stm32_lcd.c ****   UTIL_LCD_DrawHLine(Xpos, (Ypos+ Height - 1U), Width, Color);
 2105              		.loc 1 603 3 view .LVU611
 2106 0010 4346     		mov	r3, r8
 2107              	.LVL197:
 603:../STM32Cube_FW_N6/Utilities/lcd/stm32_lcd.c ****   UTIL_LCD_DrawHLine(Xpos, (Ypos+ Height - 1U), Width, Color);
 2108              		.loc 1 603 3 view .LVU612
 2109 0012 FFF7FEFF 		bl	UTIL_LCD_DrawHLine
 2110              	.LVL198:
 604:../STM32Cube_FW_N6/Utilities/lcd/stm32_lcd.c **** 
 2111              		.loc 1 604 3 is_stmt 1 view .LVU613
 604:../STM32Cube_FW_N6/Utilities/lcd/stm32_lcd.c **** 
 2112              		.loc 1 604 42 is_stmt 0 view .LVU614
 2113 0016 791E     		subs	r1, r7, #1
 604:../STM32Cube_FW_N6/Utilities/lcd/stm32_lcd.c **** 
 2114              		.loc 1 604 3 view .LVU615
 2115 0018 4346     		mov	r3, r8
 2116 001a 2246     		mov	r2, r4
 2117 001c 2846     		mov	r0, r5
 2118 001e 3144     		add	r1, r1, r6
 2119 0020 FFF7FEFF 		bl	UTIL_LCD_DrawHLine
 2120              	.LVL199:
 607:../STM32Cube_FW_N6/Utilities/lcd/stm32_lcd.c ****   UTIL_LCD_DrawVLine((Xpos + Width - 1U), Ypos, Height, Color);
 2121              		.loc 1 607 3 is_stmt 1 view .LVU616
 608:../STM32Cube_FW_N6/Utilities/lcd/stm32_lcd.c **** }
 2122              		.loc 1 608 36 is_stmt 0 view .LVU617
 2123 0024 013C     		subs	r4, r4, #1
 2124              	.LVL200:
 607:../STM32Cube_FW_N6/Utilities/lcd/stm32_lcd.c ****   UTIL_LCD_DrawVLine((Xpos + Width - 1U), Ypos, Height, Color);
 2125              		.loc 1 607 3 view .LVU618
 2126 0026 4346     		mov	r3, r8
 2127 0028 3A46     		mov	r2, r7
 2128 002a 3146     		mov	r1, r6
 2129 002c 2846     		mov	r0, r5
 2130 002e FFF7FEFF 		bl	UTIL_LCD_DrawVLine
 2131              	.LVL201:
 608:../STM32Cube_FW_N6/Utilities/lcd/stm32_lcd.c **** }
 2132              		.loc 1 608 3 is_stmt 1 view .LVU619
ARM GAS  /tmp/ccsDiBBo.s 			page 66


 2133 0032 4346     		mov	r3, r8
 2134 0034 3A46     		mov	r2, r7
 2135 0036 3146     		mov	r1, r6
 2136 0038 6019     		adds	r0, r4, r5
 609:../STM32Cube_FW_N6/Utilities/lcd/stm32_lcd.c **** 
 2137              		.loc 1 609 1 is_stmt 0 view .LVU620
 2138 003a BDE8F041 		pop	{r4, r5, r6, r7, r8, lr}
 2139              		.cfi_restore 14
 2140              		.cfi_restore 8
 2141              		.cfi_restore 7
 2142              		.cfi_restore 6
 2143              		.cfi_restore 5
 2144              		.cfi_restore 4
 2145              		.cfi_def_cfa_offset 0
 2146              	.LVL202:
 608:../STM32Cube_FW_N6/Utilities/lcd/stm32_lcd.c **** }
 2147              		.loc 1 608 3 view .LVU621
 2148 003e FFF7FEBF 		b	UTIL_LCD_DrawVLine
 2149              	.LVL203:
 608:../STM32Cube_FW_N6/Utilities/lcd/stm32_lcd.c **** }
 2150              		.loc 1 608 3 view .LVU622
 2151              		.cfi_endproc
 2152              	.LFE20:
 2154              		.section	.text.UTIL_LCD_DrawCircle,"ax",%progbits
 2155              		.align	1
 2156              		.global	UTIL_LCD_DrawCircle
 2157              		.syntax unified
 2158              		.thumb
 2159              		.thumb_func
 2161              	UTIL_LCD_DrawCircle:
 2162              	.LVL204:
 2163              	.LFB21:
 619:../STM32Cube_FW_N6/Utilities/lcd/stm32_lcd.c ****   int32_t   decision;  /* Decision Variable */
 2164              		.loc 1 619 1 is_stmt 1 view -0
 2165              		.cfi_startproc
 2166              		@ args = 0, pretend = 0, frame = 0
 2167              		@ frame_needed = 0, uses_anonymous_args = 0
 620:../STM32Cube_FW_N6/Utilities/lcd/stm32_lcd.c ****   uint32_t  current_x; /* Current X Value */
 2168              		.loc 1 620 3 view .LVU624
 621:../STM32Cube_FW_N6/Utilities/lcd/stm32_lcd.c ****   uint32_t  current_y; /* Current Y Value */
 2169              		.loc 1 621 3 view .LVU625
 622:../STM32Cube_FW_N6/Utilities/lcd/stm32_lcd.c **** 
 2170              		.loc 1 622 3 view .LVU626
 624:../STM32Cube_FW_N6/Utilities/lcd/stm32_lcd.c ****   current_x = 0;
 2171              		.loc 1 624 3 view .LVU627
 619:../STM32Cube_FW_N6/Utilities/lcd/stm32_lcd.c ****   int32_t   decision;  /* Decision Variable */
 2172              		.loc 1 619 1 is_stmt 0 view .LVU628
 2173 0000 2DE9F84F 		push	{r3, r4, r5, r6, r7, r8, r9, r10, fp, lr}
 2174              		.cfi_def_cfa_offset 40
 2175              		.cfi_offset 3, -40
 2176              		.cfi_offset 4, -36
 2177              		.cfi_offset 5, -32
 2178              		.cfi_offset 6, -28
 2179              		.cfi_offset 7, -24
 2180              		.cfi_offset 8, -20
 2181              		.cfi_offset 9, -16
 2182              		.cfi_offset 10, -12
ARM GAS  /tmp/ccsDiBBo.s 			page 67


 2183              		.cfi_offset 11, -8
 2184              		.cfi_offset 14, -4
 619:../STM32Cube_FW_N6/Utilities/lcd/stm32_lcd.c ****   int32_t   decision;  /* Decision Variable */
 2185              		.loc 1 619 1 view .LVU629
 2186 0004 8046     		mov	r8, r0
 2187 0006 8A46     		mov	r10, r1
 2188 0008 1546     		mov	r5, r2
 2189 000a 9946     		mov	r9, r3
 625:../STM32Cube_FW_N6/Utilities/lcd/stm32_lcd.c ****   current_y = Radius;
 2190              		.loc 1 625 13 view .LVU630
 2191 000c 0026     		movs	r6, #0
 624:../STM32Cube_FW_N6/Utilities/lcd/stm32_lcd.c ****   current_x = 0;
 2192              		.loc 1 624 26 view .LVU631
 2193 000e 5700     		lsls	r7, r2, #1
 630:../STM32Cube_FW_N6/Utilities/lcd/stm32_lcd.c ****     {
 2194              		.loc 1 630 46 view .LVU632
 2195 0010 4D4C     		ldr	r4, .L163
 624:../STM32Cube_FW_N6/Utilities/lcd/stm32_lcd.c ****   current_x = 0;
 2196              		.loc 1 624 16 view .LVU633
 2197 0012 C7F10307 		rsb	r7, r7, #3
 2198              	.LVL205:
 625:../STM32Cube_FW_N6/Utilities/lcd/stm32_lcd.c ****   current_y = Radius;
 2199              		.loc 1 625 3 is_stmt 1 view .LVU634
 626:../STM32Cube_FW_N6/Utilities/lcd/stm32_lcd.c **** 
 2200              		.loc 1 626 3 view .LVU635
 628:../STM32Cube_FW_N6/Utilities/lcd/stm32_lcd.c ****   {
 2201              		.loc 1 628 3 view .LVU636
 628:../STM32Cube_FW_N6/Utilities/lcd/stm32_lcd.c ****   {
 2202              		.loc 1 628 20 view .LVU637
 2203              	.L161:
 630:../STM32Cube_FW_N6/Utilities/lcd/stm32_lcd.c ****     {
 2204              		.loc 1 630 5 view .LVU638
 630:../STM32Cube_FW_N6/Utilities/lcd/stm32_lcd.c ****     {
 2205              		.loc 1 630 46 is_stmt 0 view .LVU639
 2206 0016 E368     		ldr	r3, [r4, #12]
 630:../STM32Cube_FW_N6/Utilities/lcd/stm32_lcd.c ****     {
 2207              		.loc 1 630 14 view .LVU640
 2208 0018 AAEB050B 		sub	fp, r10, r5
 630:../STM32Cube_FW_N6/Utilities/lcd/stm32_lcd.c ****     {
 2209              		.loc 1 630 57 view .LVU641
 2210 001c 04EB4313 		add	r3, r4, r3, lsl #5
 630:../STM32Cube_FW_N6/Utilities/lcd/stm32_lcd.c ****     {
 2211              		.loc 1 630 7 view .LVU642
 2212 0020 9A69     		ldr	r2, [r3, #24]
 2213 0022 9345     		cmp	fp, r2
 2214 0024 18D2     		bcs	.L144
 632:../STM32Cube_FW_N6/Utilities/lcd/stm32_lcd.c ****       {
 2215              		.loc 1 632 7 is_stmt 1 view .LVU643
 632:../STM32Cube_FW_N6/Utilities/lcd/stm32_lcd.c ****       {
 2216              		.loc 1 632 9 is_stmt 0 view .LVU644
 2217 0026 5B69     		ldr	r3, [r3, #20]
 2218 0028 08EB0600 		add	r0, r8, r6
 2219 002c 8342     		cmp	r3, r0
 2220 002e 05D9     		bls	.L145
 634:../STM32Cube_FW_N6/Utilities/lcd/stm32_lcd.c ****       }
 2221              		.loc 1 634 9 is_stmt 1 view .LVU645
 2222 0030 4A46     		mov	r2, r9
ARM GAS  /tmp/ccsDiBBo.s 			page 68


 2223 0032 1FFA8BF1 		uxth	r1, fp
 2224 0036 80B2     		uxth	r0, r0
 2225 0038 FFF7FEFF 		bl	UTIL_LCD_SetPixel
 2226              	.LVL206:
 2227              	.L145:
 636:../STM32Cube_FW_N6/Utilities/lcd/stm32_lcd.c ****       {
 2228              		.loc 1 636 7 view .LVU646
 636:../STM32Cube_FW_N6/Utilities/lcd/stm32_lcd.c ****       {
 2229              		.loc 1 636 59 is_stmt 0 view .LVU647
 2230 003c E368     		ldr	r3, [r4, #12]
 636:../STM32Cube_FW_N6/Utilities/lcd/stm32_lcd.c ****       {
 2231              		.loc 1 636 9 view .LVU648
 2232 003e A8EB0600 		sub	r0, r8, r6
 636:../STM32Cube_FW_N6/Utilities/lcd/stm32_lcd.c ****       {
 2233              		.loc 1 636 59 view .LVU649
 2234 0042 04EB4313 		add	r3, r4, r3, lsl #5
 636:../STM32Cube_FW_N6/Utilities/lcd/stm32_lcd.c ****       {
 2235              		.loc 1 636 9 view .LVU650
 2236 0046 5B69     		ldr	r3, [r3, #20]
 2237 0048 8342     		cmp	r3, r0
 2238 004a 05D9     		bls	.L144
 638:../STM32Cube_FW_N6/Utilities/lcd/stm32_lcd.c ****       }
 2239              		.loc 1 638 9 is_stmt 1 view .LVU651
 2240 004c 4A46     		mov	r2, r9
 2241 004e 1FFA8BF1 		uxth	r1, fp
 2242 0052 80B2     		uxth	r0, r0
 2243 0054 FFF7FEFF 		bl	UTIL_LCD_SetPixel
 2244              	.LVL207:
 2245              	.L144:
 642:../STM32Cube_FW_N6/Utilities/lcd/stm32_lcd.c ****     {
 2246              		.loc 1 642 5 view .LVU652
 642:../STM32Cube_FW_N6/Utilities/lcd/stm32_lcd.c ****     {
 2247              		.loc 1 642 46 is_stmt 0 view .LVU653
 2248 0058 E368     		ldr	r3, [r4, #12]
 642:../STM32Cube_FW_N6/Utilities/lcd/stm32_lcd.c ****     {
 2249              		.loc 1 642 7 view .LVU654
 2250 005a AAEB060B 		sub	fp, r10, r6
 642:../STM32Cube_FW_N6/Utilities/lcd/stm32_lcd.c ****     {
 2251              		.loc 1 642 57 view .LVU655
 2252 005e 04EB4313 		add	r3, r4, r3, lsl #5
 642:../STM32Cube_FW_N6/Utilities/lcd/stm32_lcd.c ****     {
 2253              		.loc 1 642 7 view .LVU656
 2254 0062 9A69     		ldr	r2, [r3, #24]
 2255 0064 5A45     		cmp	r2, fp
 2256 0066 18D9     		bls	.L148
 644:../STM32Cube_FW_N6/Utilities/lcd/stm32_lcd.c ****       {
 2257              		.loc 1 644 7 is_stmt 1 view .LVU657
 644:../STM32Cube_FW_N6/Utilities/lcd/stm32_lcd.c ****       {
 2258              		.loc 1 644 9 is_stmt 0 view .LVU658
 2259 0068 5B69     		ldr	r3, [r3, #20]
 644:../STM32Cube_FW_N6/Utilities/lcd/stm32_lcd.c ****       {
 2260              		.loc 1 644 16 view .LVU659
 2261 006a 08EB0500 		add	r0, r8, r5
 644:../STM32Cube_FW_N6/Utilities/lcd/stm32_lcd.c ****       {
 2262              		.loc 1 644 9 view .LVU660
 2263 006e 9842     		cmp	r0, r3
 2264 0070 05D2     		bcs	.L149
ARM GAS  /tmp/ccsDiBBo.s 			page 69


 646:../STM32Cube_FW_N6/Utilities/lcd/stm32_lcd.c ****       }
 2265              		.loc 1 646 9 is_stmt 1 view .LVU661
 2266 0072 4A46     		mov	r2, r9
 2267 0074 1FFA8BF1 		uxth	r1, fp
 2268 0078 80B2     		uxth	r0, r0
 2269 007a FFF7FEFF 		bl	UTIL_LCD_SetPixel
 2270              	.LVL208:
 2271              	.L149:
 648:../STM32Cube_FW_N6/Utilities/lcd/stm32_lcd.c ****       {
 2272              		.loc 1 648 7 view .LVU662
 648:../STM32Cube_FW_N6/Utilities/lcd/stm32_lcd.c ****       {
 2273              		.loc 1 648 59 is_stmt 0 view .LVU663
 2274 007e E368     		ldr	r3, [r4, #12]
 648:../STM32Cube_FW_N6/Utilities/lcd/stm32_lcd.c ****       {
 2275              		.loc 1 648 16 view .LVU664
 2276 0080 A8EB0500 		sub	r0, r8, r5
 648:../STM32Cube_FW_N6/Utilities/lcd/stm32_lcd.c ****       {
 2277              		.loc 1 648 59 view .LVU665
 2278 0084 04EB4313 		add	r3, r4, r3, lsl #5
 648:../STM32Cube_FW_N6/Utilities/lcd/stm32_lcd.c ****       {
 2279              		.loc 1 648 9 view .LVU666
 2280 0088 5B69     		ldr	r3, [r3, #20]
 2281 008a 9842     		cmp	r0, r3
 2282 008c 05D2     		bcs	.L148
 650:../STM32Cube_FW_N6/Utilities/lcd/stm32_lcd.c ****       }
 2283              		.loc 1 650 9 is_stmt 1 view .LVU667
 2284 008e 4A46     		mov	r2, r9
 2285 0090 1FFA8BF1 		uxth	r1, fp
 2286 0094 80B2     		uxth	r0, r0
 2287 0096 FFF7FEFF 		bl	UTIL_LCD_SetPixel
 2288              	.LVL209:
 2289              	.L148:
 654:../STM32Cube_FW_N6/Utilities/lcd/stm32_lcd.c ****     {
 2290              		.loc 1 654 5 view .LVU668
 654:../STM32Cube_FW_N6/Utilities/lcd/stm32_lcd.c ****     {
 2291              		.loc 1 654 46 is_stmt 0 view .LVU669
 2292 009a E368     		ldr	r3, [r4, #12]
 654:../STM32Cube_FW_N6/Utilities/lcd/stm32_lcd.c ****     {
 2293              		.loc 1 654 14 view .LVU670
 2294 009c 0AEB050B 		add	fp, r10, r5
 654:../STM32Cube_FW_N6/Utilities/lcd/stm32_lcd.c ****     {
 2295              		.loc 1 654 57 view .LVU671
 2296 00a0 04EB4313 		add	r3, r4, r3, lsl #5
 654:../STM32Cube_FW_N6/Utilities/lcd/stm32_lcd.c ****     {
 2297              		.loc 1 654 7 view .LVU672
 2298 00a4 9A69     		ldr	r2, [r3, #24]
 2299 00a6 9345     		cmp	fp, r2
 2300 00a8 18D2     		bcs	.L152
 656:../STM32Cube_FW_N6/Utilities/lcd/stm32_lcd.c ****       {
 2301              		.loc 1 656 7 is_stmt 1 view .LVU673
 656:../STM32Cube_FW_N6/Utilities/lcd/stm32_lcd.c ****       {
 2302              		.loc 1 656 9 is_stmt 0 view .LVU674
 2303 00aa 5B69     		ldr	r3, [r3, #20]
 2304 00ac 08EB0600 		add	r0, r8, r6
 2305 00b0 8342     		cmp	r3, r0
 2306 00b2 05D9     		bls	.L153
 658:../STM32Cube_FW_N6/Utilities/lcd/stm32_lcd.c ****       }
ARM GAS  /tmp/ccsDiBBo.s 			page 70


 2307              		.loc 1 658 9 is_stmt 1 view .LVU675
 2308 00b4 4A46     		mov	r2, r9
 2309 00b6 1FFA8BF1 		uxth	r1, fp
 2310 00ba 80B2     		uxth	r0, r0
 2311 00bc FFF7FEFF 		bl	UTIL_LCD_SetPixel
 2312              	.LVL210:
 2313              	.L153:
 660:../STM32Cube_FW_N6/Utilities/lcd/stm32_lcd.c ****       {
 2314              		.loc 1 660 7 view .LVU676
 660:../STM32Cube_FW_N6/Utilities/lcd/stm32_lcd.c ****       {
 2315              		.loc 1 660 59 is_stmt 0 view .LVU677
 2316 00c0 E368     		ldr	r3, [r4, #12]
 660:../STM32Cube_FW_N6/Utilities/lcd/stm32_lcd.c ****       {
 2317              		.loc 1 660 9 view .LVU678
 2318 00c2 A8EB0600 		sub	r0, r8, r6
 660:../STM32Cube_FW_N6/Utilities/lcd/stm32_lcd.c ****       {
 2319              		.loc 1 660 59 view .LVU679
 2320 00c6 04EB4313 		add	r3, r4, r3, lsl #5
 660:../STM32Cube_FW_N6/Utilities/lcd/stm32_lcd.c ****       {
 2321              		.loc 1 660 9 view .LVU680
 2322 00ca 5B69     		ldr	r3, [r3, #20]
 2323 00cc 8342     		cmp	r3, r0
 2324 00ce 05D9     		bls	.L152
 662:../STM32Cube_FW_N6/Utilities/lcd/stm32_lcd.c ****       }
 2325              		.loc 1 662 9 is_stmt 1 view .LVU681
 2326 00d0 4A46     		mov	r2, r9
 2327 00d2 1FFA8BF1 		uxth	r1, fp
 2328 00d6 80B2     		uxth	r0, r0
 2329 00d8 FFF7FEFF 		bl	UTIL_LCD_SetPixel
 2330              	.LVL211:
 2331              	.L152:
 666:../STM32Cube_FW_N6/Utilities/lcd/stm32_lcd.c ****     {
 2332              		.loc 1 666 5 view .LVU682
 666:../STM32Cube_FW_N6/Utilities/lcd/stm32_lcd.c ****     {
 2333              		.loc 1 666 46 is_stmt 0 view .LVU683
 2334 00dc E368     		ldr	r3, [r4, #12]
 666:../STM32Cube_FW_N6/Utilities/lcd/stm32_lcd.c ****     {
 2335              		.loc 1 666 7 view .LVU684
 2336 00de 0AEB060B 		add	fp, r10, r6
 666:../STM32Cube_FW_N6/Utilities/lcd/stm32_lcd.c ****     {
 2337              		.loc 1 666 57 view .LVU685
 2338 00e2 04EB4313 		add	r3, r4, r3, lsl #5
 666:../STM32Cube_FW_N6/Utilities/lcd/stm32_lcd.c ****     {
 2339              		.loc 1 666 7 view .LVU686
 2340 00e6 9A69     		ldr	r2, [r3, #24]
 2341 00e8 5A45     		cmp	r2, fp
 2342 00ea 18D9     		bls	.L156
 668:../STM32Cube_FW_N6/Utilities/lcd/stm32_lcd.c ****       {
 2343              		.loc 1 668 7 is_stmt 1 view .LVU687
 668:../STM32Cube_FW_N6/Utilities/lcd/stm32_lcd.c ****       {
 2344              		.loc 1 668 9 is_stmt 0 view .LVU688
 2345 00ec 5B69     		ldr	r3, [r3, #20]
 668:../STM32Cube_FW_N6/Utilities/lcd/stm32_lcd.c ****       {
 2346              		.loc 1 668 16 view .LVU689
 2347 00ee 08EB0500 		add	r0, r8, r5
 668:../STM32Cube_FW_N6/Utilities/lcd/stm32_lcd.c ****       {
 2348              		.loc 1 668 9 view .LVU690
ARM GAS  /tmp/ccsDiBBo.s 			page 71


 2349 00f2 9842     		cmp	r0, r3
 2350 00f4 05D2     		bcs	.L157
 670:../STM32Cube_FW_N6/Utilities/lcd/stm32_lcd.c ****       }
 2351              		.loc 1 670 9 is_stmt 1 view .LVU691
 2352 00f6 4A46     		mov	r2, r9
 2353 00f8 1FFA8BF1 		uxth	r1, fp
 2354 00fc 80B2     		uxth	r0, r0
 2355 00fe FFF7FEFF 		bl	UTIL_LCD_SetPixel
 2356              	.LVL212:
 2357              	.L157:
 672:../STM32Cube_FW_N6/Utilities/lcd/stm32_lcd.c ****       {
 2358              		.loc 1 672 7 view .LVU692
 672:../STM32Cube_FW_N6/Utilities/lcd/stm32_lcd.c ****       {
 2359              		.loc 1 672 59 is_stmt 0 view .LVU693
 2360 0102 E368     		ldr	r3, [r4, #12]
 672:../STM32Cube_FW_N6/Utilities/lcd/stm32_lcd.c ****       {
 2361              		.loc 1 672 16 view .LVU694
 2362 0104 A8EB0500 		sub	r0, r8, r5
 672:../STM32Cube_FW_N6/Utilities/lcd/stm32_lcd.c ****       {
 2363              		.loc 1 672 59 view .LVU695
 2364 0108 04EB4313 		add	r3, r4, r3, lsl #5
 672:../STM32Cube_FW_N6/Utilities/lcd/stm32_lcd.c ****       {
 2365              		.loc 1 672 9 view .LVU696
 2366 010c 5B69     		ldr	r3, [r3, #20]
 2367 010e 9842     		cmp	r0, r3
 2368 0110 05D2     		bcs	.L156
 674:../STM32Cube_FW_N6/Utilities/lcd/stm32_lcd.c ****       }
 2369              		.loc 1 674 9 is_stmt 1 view .LVU697
 2370 0112 4A46     		mov	r2, r9
 2371 0114 1FFA8BF1 		uxth	r1, fp
 2372 0118 80B2     		uxth	r0, r0
 2373 011a FFF7FEFF 		bl	UTIL_LCD_SetPixel
 2374              	.LVL213:
 2375              	.L156:
 678:../STM32Cube_FW_N6/Utilities/lcd/stm32_lcd.c ****     {
 2376              		.loc 1 678 5 view .LVU698
 678:../STM32Cube_FW_N6/Utilities/lcd/stm32_lcd.c ****     {
 2377              		.loc 1 678 8 is_stmt 0 view .LVU699
 2378 011e 002F     		cmp	r7, #0
 680:../STM32Cube_FW_N6/Utilities/lcd/stm32_lcd.c ****     }
 2379              		.loc 1 680 7 is_stmt 1 view .LVU700
 680:../STM32Cube_FW_N6/Utilities/lcd/stm32_lcd.c ****     }
 2380              		.loc 1 680 16 is_stmt 0 view .LVU701
 2381 0120 B5BF     		itete	lt
 2382 0122 0637     		addlt	r7, r7, #6
 2383              	.LVL214:
 684:../STM32Cube_FW_N6/Utilities/lcd/stm32_lcd.c ****       current_y--;
 2384              		.loc 1 684 31 view .LVU702
 2385 0124 731B     		subge	r3, r6, r5
 680:../STM32Cube_FW_N6/Utilities/lcd/stm32_lcd.c ****     }
 2386              		.loc 1 680 16 view .LVU703
 2387 0126 07EB8607 		addlt	r7, r7, r6, lsl #2
 2388              	.LVL215:
 684:../STM32Cube_FW_N6/Utilities/lcd/stm32_lcd.c ****       current_y--;
 2389              		.loc 1 684 7 is_stmt 1 view .LVU704
 684:../STM32Cube_FW_N6/Utilities/lcd/stm32_lcd.c ****       current_y--;
 2390              		.loc 1 684 16 is_stmt 0 view .LVU705
ARM GAS  /tmp/ccsDiBBo.s 			page 72


 2391 012a 0A37     		addge	r7, r7, #10
 2392              	.LVL216:
 685:../STM32Cube_FW_N6/Utilities/lcd/stm32_lcd.c ****     }
 2393              		.loc 1 685 16 view .LVU706
 2394 012c A8BF     		it	ge
 2395 012e 05F1FF35 		addge	r5, r5, #-1
 2396              	.LVL217:
 687:../STM32Cube_FW_N6/Utilities/lcd/stm32_lcd.c ****   }
 2397              		.loc 1 687 14 view .LVU707
 2398 0132 06F10106 		add	r6, r6, #1
 2399              	.LVL218:
 684:../STM32Cube_FW_N6/Utilities/lcd/stm32_lcd.c ****       current_y--;
 2400              		.loc 1 684 16 view .LVU708
 2401 0136 A8BF     		it	ge
 2402 0138 07EB8307 		addge	r7, r7, r3, lsl #2
 2403              	.LVL219:
 685:../STM32Cube_FW_N6/Utilities/lcd/stm32_lcd.c ****     }
 2404              		.loc 1 685 7 is_stmt 1 view .LVU709
 687:../STM32Cube_FW_N6/Utilities/lcd/stm32_lcd.c ****   }
 2405              		.loc 1 687 5 view .LVU710
 628:../STM32Cube_FW_N6/Utilities/lcd/stm32_lcd.c ****   {
 2406              		.loc 1 628 20 view .LVU711
 2407 013c B542     		cmp	r5, r6
 2408 013e BFF46AAF 		bcs	.L161
 689:../STM32Cube_FW_N6/Utilities/lcd/stm32_lcd.c **** 
 2409              		.loc 1 689 1 is_stmt 0 view .LVU712
 2410 0142 BDE8F88F 		pop	{r3, r4, r5, r6, r7, r8, r9, r10, fp, pc}
 2411              	.LVL220:
 2412              	.L164:
 689:../STM32Cube_FW_N6/Utilities/lcd/stm32_lcd.c **** 
 2413              		.loc 1 689 1 view .LVU713
 2414 0146 00BF     		.align	2
 2415              	.L163:
 2416 0148 00000000 		.word	DrawProp
 2417              		.cfi_endproc
 2418              	.LFE21:
 2420              		.section	.text.UTIL_LCD_DrawPolygon,"ax",%progbits
 2421              		.align	1
 2422              		.global	UTIL_LCD_DrawPolygon
 2423              		.syntax unified
 2424              		.thumb
 2425              		.thumb_func
 2427              	UTIL_LCD_DrawPolygon:
 2428              	.LVL221:
 2429              	.LFB22:
 698:../STM32Cube_FW_N6/Utilities/lcd/stm32_lcd.c ****   int16_t x_pos = 0, y_pos = 0;
 2430              		.loc 1 698 1 is_stmt 1 view -0
 2431              		.cfi_startproc
 2432              		@ args = 0, pretend = 0, frame = 0
 2433              		@ frame_needed = 0, uses_anonymous_args = 0
 699:../STM32Cube_FW_N6/Utilities/lcd/stm32_lcd.c **** 
 2434              		.loc 1 699 3 view .LVU715
 701:../STM32Cube_FW_N6/Utilities/lcd/stm32_lcd.c ****   {
 2435              		.loc 1 701 3 view .LVU716
 701:../STM32Cube_FW_N6/Utilities/lcd/stm32_lcd.c ****   {
 2436              		.loc 1 701 5 is_stmt 0 view .LVU717
 2437 0000 0129     		cmp	r1, #1
ARM GAS  /tmp/ccsDiBBo.s 			page 73


 698:../STM32Cube_FW_N6/Utilities/lcd/stm32_lcd.c ****   int16_t x_pos = 0, y_pos = 0;
 2438              		.loc 1 698 1 view .LVU718
 2439 0002 73B5     		push	{r0, r1, r4, r5, r6, lr}
 2440              		.cfi_def_cfa_offset 24
 2441              		.cfi_offset 4, -16
 2442              		.cfi_offset 5, -12
 2443              		.cfi_offset 6, -8
 2444              		.cfi_offset 14, -4
 698:../STM32Cube_FW_N6/Utilities/lcd/stm32_lcd.c ****   int16_t x_pos = 0, y_pos = 0;
 2445              		.loc 1 698 1 view .LVU719
 2446 0004 0446     		mov	r4, r0
 2447 0006 0D46     		mov	r5, r1
 2448 0008 1646     		mov	r6, r2
 701:../STM32Cube_FW_N6/Utilities/lcd/stm32_lcd.c ****   {
 2449              		.loc 1 701 5 view .LVU720
 2450 000a 13D9     		bls	.L165
 706:../STM32Cube_FW_N6/Utilities/lcd/stm32_lcd.c **** 
 2451              		.loc 1 706 3 is_stmt 1 view .LVU721
 706:../STM32Cube_FW_N6/Utilities/lcd/stm32_lcd.c **** 
 2452              		.loc 1 706 61 is_stmt 0 view .LVU722
 2453 000c 01F18042 		add	r2, r1, #1073741824
 2454              	.LVL222:
 706:../STM32Cube_FW_N6/Utilities/lcd/stm32_lcd.c **** 
 2455              		.loc 1 706 61 view .LVU723
 2456 0010 013A     		subs	r2, r2, #1
 2457 0012 00EB8203 		add	r3, r0, r2, lsl #2
 706:../STM32Cube_FW_N6/Utilities/lcd/stm32_lcd.c **** 
 2458              		.loc 1 706 3 view .LVU724
 2459 0016 B3F90230 		ldrsh	r3, [r3, #2]
 2460 001a 30F92220 		ldrsh	r2, [r0, r2, lsl #2]
 2461 001e 0096     		str	r6, [sp]
 2462 0020 B0F90210 		ldrsh	r1, [r0, #2]
 2463              	.LVL223:
 706:../STM32Cube_FW_N6/Utilities/lcd/stm32_lcd.c **** 
 2464              		.loc 1 706 3 view .LVU725
 2465 0024 34F9040B 		ldrsh	r0, [r4], #4
 2466              	.LVL224:
 2467              	.L170:
 713:../STM32Cube_FW_N6/Utilities/lcd/stm32_lcd.c ****   }
 2468              		.loc 1 713 5 view .LVU726
 2469 0028 FFF7FEFF 		bl	UTIL_LCD_DrawLine
 2470              	.LVL225:
 708:../STM32Cube_FW_N6/Utilities/lcd/stm32_lcd.c ****   {
 2471              		.loc 1 708 9 is_stmt 1 view .LVU727
 708:../STM32Cube_FW_N6/Utilities/lcd/stm32_lcd.c ****   {
 2472              		.loc 1 708 9 is_stmt 0 view .LVU728
 2473 002c 013D     		subs	r5, r5, #1
 2474              	.LVL226:
 708:../STM32Cube_FW_N6/Utilities/lcd/stm32_lcd.c ****   {
 2475              		.loc 1 708 9 view .LVU729
 2476 002e 04F10404 		add	r4, r4, #4
 2477              	.LVL227:
 708:../STM32Cube_FW_N6/Utilities/lcd/stm32_lcd.c ****   {
 2478              		.loc 1 708 9 view .LVU730
 2479 0032 01D1     		bne	.L168
 2480              	.LVL228:
 2481              	.L165:
ARM GAS  /tmp/ccsDiBBo.s 			page 74


 715:../STM32Cube_FW_N6/Utilities/lcd/stm32_lcd.c **** 
 2482              		.loc 1 715 1 view .LVU731
 2483 0034 02B0     		add	sp, sp, #8
 2484              		.cfi_remember_state
 2485              		.cfi_def_cfa_offset 16
 2486              		@ sp needed
 2487 0036 70BD     		pop	{r4, r5, r6, pc}
 2488              	.LVL229:
 2489              	.L168:
 2490              		.cfi_restore_state
 710:../STM32Cube_FW_N6/Utilities/lcd/stm32_lcd.c ****     y_pos = Points->Y;
 2491              		.loc 1 710 5 is_stmt 1 view .LVU732
 711:../STM32Cube_FW_N6/Utilities/lcd/stm32_lcd.c ****     Points++;
 2492              		.loc 1 711 5 view .LVU733
 712:../STM32Cube_FW_N6/Utilities/lcd/stm32_lcd.c ****     UTIL_LCD_DrawLine(x_pos, y_pos, Points->X, Points->Y, Color);
 2493              		.loc 1 712 5 view .LVU734
 713:../STM32Cube_FW_N6/Utilities/lcd/stm32_lcd.c ****   }
 2494              		.loc 1 713 5 view .LVU735
 2495 0038 0096     		str	r6, [sp]
 2496              	.LVL230:
 713:../STM32Cube_FW_N6/Utilities/lcd/stm32_lcd.c ****   }
 2497              		.loc 1 713 5 is_stmt 0 view .LVU736
 2498 003a 34F9023C 		ldrsh	r3, [r4, #-2]
 2499 003e 34F9042C 		ldrsh	r2, [r4, #-4]
 2500 0042 34F9061C 		ldrsh	r1, [r4, #-6]
 2501 0046 34F9080C 		ldrsh	r0, [r4, #-8]
 2502 004a EDE7     		b	.L170
 2503              		.cfi_endproc
 2504              	.LFE22:
 2506              		.section	.text.UTIL_LCD_DrawEllipse,"ax",%progbits
 2507              		.align	1
 2508              		.global	UTIL_LCD_DrawEllipse
 2509              		.syntax unified
 2510              		.thumb
 2511              		.thumb_func
 2513              	UTIL_LCD_DrawEllipse:
 2514              	.LVL231:
 2515              	.LFB23:
 726:../STM32Cube_FW_N6/Utilities/lcd/stm32_lcd.c ****   int x_pos = 0, y_pos = -YRadius, err = 2-2*XRadius, e2;
 2516              		.loc 1 726 1 is_stmt 1 view -0
 2517              		.cfi_startproc
 2518              		@ args = 4, pretend = 0, frame = 8
 2519              		@ frame_needed = 0, uses_anonymous_args = 0
 727:../STM32Cube_FW_N6/Utilities/lcd/stm32_lcd.c ****   float k = 0, rad1 = 0, rad2 = 0;
 2520              		.loc 1 727 3 view .LVU738
 731:../STM32Cube_FW_N6/Utilities/lcd/stm32_lcd.c **** 
 2521              		.loc 1 731 8 is_stmt 0 view .LVU739
 2522 0000 07EE903A 		vmov	s15, r3	@ int
 2523 0004 B8EEE77A 		vcvt.f32.s32	s14, s15
 730:../STM32Cube_FW_N6/Utilities/lcd/stm32_lcd.c ****   rad2 = YRadius;
 2524              		.loc 1 730 8 view .LVU740
 2525 0008 07EE902A 		vmov	s15, r2	@ int
 2526 000c F8EEE77A 		vcvt.f32.s32	s15, s15
 726:../STM32Cube_FW_N6/Utilities/lcd/stm32_lcd.c ****   int x_pos = 0, y_pos = -YRadius, err = 2-2*XRadius, e2;
 2527              		.loc 1 726 1 view .LVU741
 2528 0010 2DE9F04F 		push	{r4, r5, r6, r7, r8, r9, r10, fp, lr}
 2529              		.cfi_def_cfa_offset 36
ARM GAS  /tmp/ccsDiBBo.s 			page 75


 2530              		.cfi_offset 4, -36
 2531              		.cfi_offset 5, -32
 2532              		.cfi_offset 6, -28
 2533              		.cfi_offset 7, -24
 2534              		.cfi_offset 8, -20
 2535              		.cfi_offset 9, -16
 2536              		.cfi_offset 10, -12
 2537              		.cfi_offset 11, -8
 2538              		.cfi_offset 14, -4
 2539 0014 2DED028B 		vpush.64	{d8}
 2540              		.cfi_def_cfa_offset 44
 2541              		.cfi_offset 80, -44
 2542              		.cfi_offset 81, -40
 727:../STM32Cube_FW_N6/Utilities/lcd/stm32_lcd.c ****   float k = 0, rad1 = 0, rad2 = 0;
 2543              		.loc 1 727 7 view .LVU742
 2544 0018 4FF00008 		mov	r8, #0
 733:../STM32Cube_FW_N6/Utilities/lcd/stm32_lcd.c **** 
 2545              		.loc 1 733 5 view .LVU743
 2546 001c 87EE278A 		vdiv.f32	s16, s14, s15
 726:../STM32Cube_FW_N6/Utilities/lcd/stm32_lcd.c ****   int x_pos = 0, y_pos = -YRadius, err = 2-2*XRadius, e2;
 2547              		.loc 1 726 1 view .LVU744
 2548 0020 83B0     		sub	sp, sp, #12
 2549              		.cfi_def_cfa_offset 56
 727:../STM32Cube_FW_N6/Utilities/lcd/stm32_lcd.c ****   float k = 0, rad1 = 0, rad2 = 0;
 2550              		.loc 1 727 43 view .LVU745
 2551 0022 C2F10105 		rsb	r5, r2, #1
 726:../STM32Cube_FW_N6/Utilities/lcd/stm32_lcd.c ****   int x_pos = 0, y_pos = -YRadius, err = 2-2*XRadius, e2;
 2552              		.loc 1 726 1 view .LVU746
 2553 0026 DDF838B0 		ldr	fp, [sp, #56]
 727:../STM32Cube_FW_N6/Utilities/lcd/stm32_lcd.c ****   float k = 0, rad1 = 0, rad2 = 0;
 2554              		.loc 1 727 18 view .LVU747
 2555 002a 5E42     		rsbs	r6, r3, #0
 2556              	.LVL232:
 727:../STM32Cube_FW_N6/Utilities/lcd/stm32_lcd.c ****   float k = 0, rad1 = 0, rad2 = 0;
 2557              		.loc 1 727 36 view .LVU748
 2558 002c 6D00     		lsls	r5, r5, #1
 2559              	.LVL233:
 728:../STM32Cube_FW_N6/Utilities/lcd/stm32_lcd.c **** 
 2560              		.loc 1 728 3 is_stmt 1 view .LVU749
 730:../STM32Cube_FW_N6/Utilities/lcd/stm32_lcd.c ****   rad2 = YRadius;
 2561              		.loc 1 730 3 view .LVU750
 731:../STM32Cube_FW_N6/Utilities/lcd/stm32_lcd.c **** 
 2562              		.loc 1 731 3 view .LVU751
 733:../STM32Cube_FW_N6/Utilities/lcd/stm32_lcd.c **** 
 2563              		.loc 1 733 3 view .LVU752
 737:../STM32Cube_FW_N6/Utilities/lcd/stm32_lcd.c ****     UTIL_LCD_SetPixel((Xpos+(uint32_t)(x_pos/k)), (Ypos + y_pos), Color);
 2564              		.loc 1 737 5 is_stmt 0 view .LVU753
 2565 002e 1FFA80F9 		uxth	r9, r0
 2566 0032 1FFA81FA 		uxth	r10, r1
 2567              	.LVL234:
 2568              	.L175:
 735:../STM32Cube_FW_N6/Utilities/lcd/stm32_lcd.c ****   {
 2569              		.loc 1 735 3 is_stmt 1 view .LVU754
