ARM GAS  /tmp/ccsDiBBo.s 			page 1


   1              		.arch armv8.1-m.main
   2              		.fpu fpv5-d16
   3              		.arch_extension dsp
   4              		.arch_extension fp
   5              		.arch_extension fp.dp
   6              		.arch_extension mve
   7              		.arch_extension mve.fp
   8              		.eabi_attribute 5, "cortex-m55"
   9              		.eabi_attribute 28, 1
  10              		.eabi_attribute 20, 1
  11              		.eabi_attribute 21, 1
  12              		.eabi_attribute 23, 3
  13              		.eabi_attribute 24, 1
  14              		.eabi_attribute 25, 1
  15              		.eabi_attribute 26, 1
  16              		.eabi_attribute 30, 4
  17              		.eabi_attribute 34, 1
  18              		.eabi_attribute 38, 1
  19              		.eabi_attribute 18, 4
  20              		.file	"stm32_lcd.c"
  21              		.text
  22              	.Ltext0:
  23              		.cfi_sections	.debug_frame
  24              		.file 1 "../STM32Cube_FW_N6/Utilities/lcd/stm32_lcd.c"
  25              		.section	.text.UTIL_LCD_SetFuncDriver,"ax",%progbits
  26              		.align	1
  27              		.global	UTIL_LCD_SetFuncDriver
  28              		.syntax unified
  29              		.thumb
  30              		.thumb_func
  32              	UTIL_LCD_SetFuncDriver:
  33              	.LVL0:
  34              	.LFB0:
   1:../STM32Cube_FW_N6/Utilities/lcd/stm32_lcd.c **** /**
   2:../STM32Cube_FW_N6/Utilities/lcd/stm32_lcd.c ****   ******************************************************************************
   3:../STM32Cube_FW_N6/Utilities/lcd/stm32_lcd.c ****   * @file    stm32_lcd.c
   4:../STM32Cube_FW_N6/Utilities/lcd/stm32_lcd.c ****   * @author  MCD Application Team
   5:../STM32Cube_FW_N6/Utilities/lcd/stm32_lcd.c ****   * @brief   This file includes the basic functionalities to drive LCD
   6:../STM32Cube_FW_N6/Utilities/lcd/stm32_lcd.c ****   ******************************************************************************
   7:../STM32Cube_FW_N6/Utilities/lcd/stm32_lcd.c ****   * @attention
   8:../STM32Cube_FW_N6/Utilities/lcd/stm32_lcd.c ****   *
   9:../STM32Cube_FW_N6/Utilities/lcd/stm32_lcd.c ****   * Copyright (c) 2019-2024 STMicroelectronics.
  10:../STM32Cube_FW_N6/Utilities/lcd/stm32_lcd.c ****   * All rights reserved.
  11:../STM32Cube_FW_N6/Utilities/lcd/stm32_lcd.c ****   *
  12:../STM32Cube_FW_N6/Utilities/lcd/stm32_lcd.c ****   * This software is licensed under terms that can be found in the LICENSE file
  13:../STM32Cube_FW_N6/Utilities/lcd/stm32_lcd.c ****   * in the root directory of this software component.
  14:../STM32Cube_FW_N6/Utilities/lcd/stm32_lcd.c ****   * If no LICENSE file comes with this software, it is provided AS-IS.
  15:../STM32Cube_FW_N6/Utilities/lcd/stm32_lcd.c ****   *
  16:../STM32Cube_FW_N6/Utilities/lcd/stm32_lcd.c ****   ******************************************************************************
  17:../STM32Cube_FW_N6/Utilities/lcd/stm32_lcd.c ****   */
  18:../STM32Cube_FW_N6/Utilities/lcd/stm32_lcd.c **** 
  19:../STM32Cube_FW_N6/Utilities/lcd/stm32_lcd.c **** /* File Info: ------------------------------------------------------------------
  20:../STM32Cube_FW_N6/Utilities/lcd/stm32_lcd.c ****                                    User NOTES
  21:../STM32Cube_FW_N6/Utilities/lcd/stm32_lcd.c **** 1. How To use this driver:
  22:../STM32Cube_FW_N6/Utilities/lcd/stm32_lcd.c **** --------------------------
  23:../STM32Cube_FW_N6/Utilities/lcd/stm32_lcd.c ****    - This driver is a generic driver that provides basic display services. It should
  24:../STM32Cube_FW_N6/Utilities/lcd/stm32_lcd.c ****      be used by any platform once LCD is initialized and following draw methods are
ARM GAS  /tmp/ccsDiBBo.s 			page 2


  25:../STM32Cube_FW_N6/Utilities/lcd/stm32_lcd.c ****      registered:
  26:../STM32Cube_FW_N6/Utilities/lcd/stm32_lcd.c ****          BSP_LCD_DrawBitmap
  27:../STM32Cube_FW_N6/Utilities/lcd/stm32_lcd.c ****          BSP_LCD_DrawHLine
  28:../STM32Cube_FW_N6/Utilities/lcd/stm32_lcd.c ****          BSP_LCD_DrawVLine
  29:../STM32Cube_FW_N6/Utilities/lcd/stm32_lcd.c ****          BSP_LCD_FillRect
  30:../STM32Cube_FW_N6/Utilities/lcd/stm32_lcd.c ****          BSP_LCD_ReadPixel
  31:../STM32Cube_FW_N6/Utilities/lcd/stm32_lcd.c ****          BSP_LCD_WritePixel
  32:../STM32Cube_FW_N6/Utilities/lcd/stm32_lcd.c ****          BSP_LCD_GetXSize
  33:../STM32Cube_FW_N6/Utilities/lcd/stm32_lcd.c ****          BSP_LCD_GetYSize
  34:../STM32Cube_FW_N6/Utilities/lcd/stm32_lcd.c ****          BSP_LCD_SetActiveLayer
  35:../STM32Cube_FW_N6/Utilities/lcd/stm32_lcd.c **** 
  36:../STM32Cube_FW_N6/Utilities/lcd/stm32_lcd.c ****    - At application level, once the LCD is initialized, user should call UTIL_LCD_SetFuncDriver()
  37:../STM32Cube_FW_N6/Utilities/lcd/stm32_lcd.c ****      API to link board LCD drivers to BASIC GUI LCD drivers.
  38:../STM32Cube_FW_N6/Utilities/lcd/stm32_lcd.c ****      User can then call the BASIC GUI services:
  39:../STM32Cube_FW_N6/Utilities/lcd/stm32_lcd.c ****          UTIL_LCD_SetFuncDriver()
  40:../STM32Cube_FW_N6/Utilities/lcd/stm32_lcd.c ****          UTIL_LCD_SetLayer()
  41:../STM32Cube_FW_N6/Utilities/lcd/stm32_lcd.c ****          UTIL_LCD_SetDevice()
  42:../STM32Cube_FW_N6/Utilities/lcd/stm32_lcd.c ****          UTIL_LCD_SetTextColor()
  43:../STM32Cube_FW_N6/Utilities/lcd/stm32_lcd.c ****          UTIL_LCD_GetTextColor()
  44:../STM32Cube_FW_N6/Utilities/lcd/stm32_lcd.c ****          UTIL_LCD_SetBackColor()
  45:../STM32Cube_FW_N6/Utilities/lcd/stm32_lcd.c ****          UTIL_LCD_GetBackColor()
  46:../STM32Cube_FW_N6/Utilities/lcd/stm32_lcd.c ****          UTIL_LCD_SetFont()
  47:../STM32Cube_FW_N6/Utilities/lcd/stm32_lcd.c ****          UTIL_LCD_GetFont()
  48:../STM32Cube_FW_N6/Utilities/lcd/stm32_lcd.c ****          UTIL_LCD_Clear)
  49:../STM32Cube_FW_N6/Utilities/lcd/stm32_lcd.c ****          UTIL_LCD_ClearStringLine()
  50:../STM32Cube_FW_N6/Utilities/lcd/stm32_lcd.c ****          UTIL_LCD_DisplayStringAtLine()
  51:../STM32Cube_FW_N6/Utilities/lcd/stm32_lcd.c ****          UTIL_LCD_DisplayStringAt()
  52:../STM32Cube_FW_N6/Utilities/lcd/stm32_lcd.c ****          UTIL_LCD_DisplayChar()
  53:../STM32Cube_FW_N6/Utilities/lcd/stm32_lcd.c ****          UTIL_LCD_GetPixel()
  54:../STM32Cube_FW_N6/Utilities/lcd/stm32_lcd.c ****          UTIL_LCD_SetPixel()
  55:../STM32Cube_FW_N6/Utilities/lcd/stm32_lcd.c ****          UTIL_LCD_FillRGBRect()
  56:../STM32Cube_FW_N6/Utilities/lcd/stm32_lcd.c ****          UTIL_LCD_DrawHLine()
  57:../STM32Cube_FW_N6/Utilities/lcd/stm32_lcd.c ****          UTIL_LCD_DrawVLine()
  58:../STM32Cube_FW_N6/Utilities/lcd/stm32_lcd.c ****          UTIL_LCD_DrawBitmap()
  59:../STM32Cube_FW_N6/Utilities/lcd/stm32_lcd.c ****          UTIL_LCD_FillRect()
  60:../STM32Cube_FW_N6/Utilities/lcd/stm32_lcd.c ****          UTIL_LCD_DrawLine()
  61:../STM32Cube_FW_N6/Utilities/lcd/stm32_lcd.c ****          UTIL_LCD_DrawRect()
  62:../STM32Cube_FW_N6/Utilities/lcd/stm32_lcd.c ****          UTIL_LCD_DrawCircle()
  63:../STM32Cube_FW_N6/Utilities/lcd/stm32_lcd.c ****          UTIL_LCD_DrawPolygon()
  64:../STM32Cube_FW_N6/Utilities/lcd/stm32_lcd.c ****          UTIL_LCD_DrawEllipse()
  65:../STM32Cube_FW_N6/Utilities/lcd/stm32_lcd.c ****          UTIL_LCD_FillCircle()
  66:../STM32Cube_FW_N6/Utilities/lcd/stm32_lcd.c ****          UTIL_LCD_FillPolygon()
  67:../STM32Cube_FW_N6/Utilities/lcd/stm32_lcd.c ****          UTIL_LCD_FillEllipse()
  68:../STM32Cube_FW_N6/Utilities/lcd/stm32_lcd.c **** ------------------------------------------------------------------------------*/
  69:../STM32Cube_FW_N6/Utilities/lcd/stm32_lcd.c **** 
  70:../STM32Cube_FW_N6/Utilities/lcd/stm32_lcd.c **** /* Includes ------------------------------------------------------------------*/
  71:../STM32Cube_FW_N6/Utilities/lcd/stm32_lcd.c **** #include "stm32_lcd.h"
  72:../STM32Cube_FW_N6/Utilities/lcd/stm32_lcd.c **** #include "../Fonts/font24.c"
  73:../STM32Cube_FW_N6/Utilities/lcd/stm32_lcd.c **** #include "../Fonts/font20.c"
  74:../STM32Cube_FW_N6/Utilities/lcd/stm32_lcd.c **** #include "../Fonts/font16.c"
  75:../STM32Cube_FW_N6/Utilities/lcd/stm32_lcd.c **** #include "../Fonts/font12.c"
  76:../STM32Cube_FW_N6/Utilities/lcd/stm32_lcd.c **** #include "../Fonts/font8.c"
  77:../STM32Cube_FW_N6/Utilities/lcd/stm32_lcd.c **** 
  78:../STM32Cube_FW_N6/Utilities/lcd/stm32_lcd.c **** /** @addtogroup Utilities
  79:../STM32Cube_FW_N6/Utilities/lcd/stm32_lcd.c ****   * @{
  80:../STM32Cube_FW_N6/Utilities/lcd/stm32_lcd.c ****   */
  81:../STM32Cube_FW_N6/Utilities/lcd/stm32_lcd.c **** 
ARM GAS  /tmp/ccsDiBBo.s 			page 3


  82:../STM32Cube_FW_N6/Utilities/lcd/stm32_lcd.c **** /** @addtogroup STM32_EVAL
  83:../STM32Cube_FW_N6/Utilities/lcd/stm32_lcd.c ****   * @{
  84:../STM32Cube_FW_N6/Utilities/lcd/stm32_lcd.c ****   */
  85:../STM32Cube_FW_N6/Utilities/lcd/stm32_lcd.c **** 
  86:../STM32Cube_FW_N6/Utilities/lcd/stm32_lcd.c **** /** @addtogroup Common
  87:../STM32Cube_FW_N6/Utilities/lcd/stm32_lcd.c ****   * @{
  88:../STM32Cube_FW_N6/Utilities/lcd/stm32_lcd.c ****   */
  89:../STM32Cube_FW_N6/Utilities/lcd/stm32_lcd.c **** 
  90:../STM32Cube_FW_N6/Utilities/lcd/stm32_lcd.c **** /** @defgroup STM32_LCD STM32 LCD Utility
  91:../STM32Cube_FW_N6/Utilities/lcd/stm32_lcd.c ****   * @{
  92:../STM32Cube_FW_N6/Utilities/lcd/stm32_lcd.c ****   */
  93:../STM32Cube_FW_N6/Utilities/lcd/stm32_lcd.c **** 
  94:../STM32Cube_FW_N6/Utilities/lcd/stm32_lcd.c **** #ifndef UTIL_LCD_MAX_LAYERS_NBR
  95:../STM32Cube_FW_N6/Utilities/lcd/stm32_lcd.c ****   #define UTIL_LCD_MAX_LAYERS_NBR    2U
  96:../STM32Cube_FW_N6/Utilities/lcd/stm32_lcd.c **** #endif
  97:../STM32Cube_FW_N6/Utilities/lcd/stm32_lcd.c **** 
  98:../STM32Cube_FW_N6/Utilities/lcd/stm32_lcd.c **** /** @defgroup UTIL_LCD_Private_Macros STM32 LCD Utility Private Macros
  99:../STM32Cube_FW_N6/Utilities/lcd/stm32_lcd.c ****   * @{
 100:../STM32Cube_FW_N6/Utilities/lcd/stm32_lcd.c ****   */
 101:../STM32Cube_FW_N6/Utilities/lcd/stm32_lcd.c **** #define ABS(X)                 ((X) > 0 ? (X) : -(X))
 102:../STM32Cube_FW_N6/Utilities/lcd/stm32_lcd.c **** #define POLY_X(Z)              ((int32_t)((Points + (Z))->X))
 103:../STM32Cube_FW_N6/Utilities/lcd/stm32_lcd.c **** #define POLY_Y(Z)              ((int32_t)((Points + (Z))->Y))
 104:../STM32Cube_FW_N6/Utilities/lcd/stm32_lcd.c **** 
 105:../STM32Cube_FW_N6/Utilities/lcd/stm32_lcd.c **** #define CONVERTARGB88882RGB565(Color)((((Color & 0xFFU) >> 3) & 0x1FU) |\
 106:../STM32Cube_FW_N6/Utilities/lcd/stm32_lcd.c ****                                      (((((Color & 0xFF00U) >> 8) >>2) & 0x3FU) << 5) |\
 107:../STM32Cube_FW_N6/Utilities/lcd/stm32_lcd.c ****                                      (((((Color & 0xFF0000U) >> 16) >>3) & 0x1FU) << 11))
 108:../STM32Cube_FW_N6/Utilities/lcd/stm32_lcd.c **** 
 109:../STM32Cube_FW_N6/Utilities/lcd/stm32_lcd.c **** #define CONVERTARGB88882ARGB4444(Color)((((Color & 0xFFU) >> 4) & 0xFU) |\
 110:../STM32Cube_FW_N6/Utilities/lcd/stm32_lcd.c ****                                        (((((Color & 0xFF00U) >> 8) >> 4) & 0xFU) << 4) |\
 111:../STM32Cube_FW_N6/Utilities/lcd/stm32_lcd.c ****                                        (((((Color & 0xFF0000U) >> 16) >> 4) & 0xFU) << 8) | \
 112:../STM32Cube_FW_N6/Utilities/lcd/stm32_lcd.c ****                                        (((((Color & 0xFF000000U) >> 24) >> 4) & 0xFU) << 12))
 113:../STM32Cube_FW_N6/Utilities/lcd/stm32_lcd.c **** 
 114:../STM32Cube_FW_N6/Utilities/lcd/stm32_lcd.c **** #define CONVERTRGB5652ARGB8888(Color)(((((((Color >> 11) & 0x1FU) * 527) + 23) >> 6) << 16) |\
 115:../STM32Cube_FW_N6/Utilities/lcd/stm32_lcd.c ****                                      ((((((Color >> 5) & 0x3FU) * 259) + 33) >> 6) << 8) |\
 116:../STM32Cube_FW_N6/Utilities/lcd/stm32_lcd.c ****                                      ((((Color & 0x1FU) * 527) + 23) >> 6) | 0xFF000000)
 117:../STM32Cube_FW_N6/Utilities/lcd/stm32_lcd.c **** 
 118:../STM32Cube_FW_N6/Utilities/lcd/stm32_lcd.c **** #define CONVERTARGB44442ARGB8888(Color)(((((Color >> 12U) & 0xFU) * 17U) << 24U) |\
 119:../STM32Cube_FW_N6/Utilities/lcd/stm32_lcd.c ****                                         ((((Color >>  8U) & 0xFU) * 17U) << 16U) |\
 120:../STM32Cube_FW_N6/Utilities/lcd/stm32_lcd.c ****                                         ((((Color >>  4U) & 0xFU) * 17U) << 8U) |\
 121:../STM32Cube_FW_N6/Utilities/lcd/stm32_lcd.c ****                                         ((((Color >>  0U) & 0xFU) * 17U) << 0U))
 122:../STM32Cube_FW_N6/Utilities/lcd/stm32_lcd.c **** 
 123:../STM32Cube_FW_N6/Utilities/lcd/stm32_lcd.c **** #define CONVERTRGB8882ARGB8888(Color)(Color | 0xFF000000U)
 124:../STM32Cube_FW_N6/Utilities/lcd/stm32_lcd.c **** 
 125:../STM32Cube_FW_N6/Utilities/lcd/stm32_lcd.c **** #define CONVERTARGB88882RGB888(Color)(Color & 0x00FFFFFFU)
 126:../STM32Cube_FW_N6/Utilities/lcd/stm32_lcd.c **** 
 127:../STM32Cube_FW_N6/Utilities/lcd/stm32_lcd.c **** /**
 128:../STM32Cube_FW_N6/Utilities/lcd/stm32_lcd.c ****   * @}
 129:../STM32Cube_FW_N6/Utilities/lcd/stm32_lcd.c ****   */
 130:../STM32Cube_FW_N6/Utilities/lcd/stm32_lcd.c **** 
 131:../STM32Cube_FW_N6/Utilities/lcd/stm32_lcd.c **** /** @defgroup UTIL_LCD_Private_Types STM32 LCD Utility Private Types
 132:../STM32Cube_FW_N6/Utilities/lcd/stm32_lcd.c ****   * @{
 133:../STM32Cube_FW_N6/Utilities/lcd/stm32_lcd.c ****   */
 134:../STM32Cube_FW_N6/Utilities/lcd/stm32_lcd.c **** typedef struct
 135:../STM32Cube_FW_N6/Utilities/lcd/stm32_lcd.c **** {
 136:../STM32Cube_FW_N6/Utilities/lcd/stm32_lcd.c ****   uint32_t x1;
 137:../STM32Cube_FW_N6/Utilities/lcd/stm32_lcd.c ****   uint32_t y1;
 138:../STM32Cube_FW_N6/Utilities/lcd/stm32_lcd.c ****   uint32_t x2;
ARM GAS  /tmp/ccsDiBBo.s 			page 4


 139:../STM32Cube_FW_N6/Utilities/lcd/stm32_lcd.c ****   uint32_t y2;
 140:../STM32Cube_FW_N6/Utilities/lcd/stm32_lcd.c ****   uint32_t x3;
 141:../STM32Cube_FW_N6/Utilities/lcd/stm32_lcd.c ****   uint32_t y3;
 142:../STM32Cube_FW_N6/Utilities/lcd/stm32_lcd.c **** }Triangle_Positions_t;
 143:../STM32Cube_FW_N6/Utilities/lcd/stm32_lcd.c **** 
 144:../STM32Cube_FW_N6/Utilities/lcd/stm32_lcd.c **** /**
 145:../STM32Cube_FW_N6/Utilities/lcd/stm32_lcd.c ****   * @}
 146:../STM32Cube_FW_N6/Utilities/lcd/stm32_lcd.c ****   */
 147:../STM32Cube_FW_N6/Utilities/lcd/stm32_lcd.c **** 
 148:../STM32Cube_FW_N6/Utilities/lcd/stm32_lcd.c **** /** @defgroup UTIL_LCD_Private_Variables STM32 LCD Utility Private Variables
 149:../STM32Cube_FW_N6/Utilities/lcd/stm32_lcd.c ****   * @{
 150:../STM32Cube_FW_N6/Utilities/lcd/stm32_lcd.c ****   */
 151:../STM32Cube_FW_N6/Utilities/lcd/stm32_lcd.c **** 
 152:../STM32Cube_FW_N6/Utilities/lcd/stm32_lcd.c **** /**
 153:../STM32Cube_FW_N6/Utilities/lcd/stm32_lcd.c ****   * @brief  Current Drawing Layer properties variable
 154:../STM32Cube_FW_N6/Utilities/lcd/stm32_lcd.c ****   */
 155:../STM32Cube_FW_N6/Utilities/lcd/stm32_lcd.c **** static UTIL_LCD_Ctx_t DrawProp[UTIL_LCD_MAX_LAYERS_NBR];
 156:../STM32Cube_FW_N6/Utilities/lcd/stm32_lcd.c **** static LCD_UTILS_Drv_t FuncDriver;
 157:../STM32Cube_FW_N6/Utilities/lcd/stm32_lcd.c **** 
 158:../STM32Cube_FW_N6/Utilities/lcd/stm32_lcd.c **** /**
 159:../STM32Cube_FW_N6/Utilities/lcd/stm32_lcd.c ****   * @}
 160:../STM32Cube_FW_N6/Utilities/lcd/stm32_lcd.c ****   */
 161:../STM32Cube_FW_N6/Utilities/lcd/stm32_lcd.c **** 
 162:../STM32Cube_FW_N6/Utilities/lcd/stm32_lcd.c **** /** @defgroup UTIL_LCD_Private_FunctionPrototypes STM32 LCD Utility Private FunctionPrototypes
 163:../STM32Cube_FW_N6/Utilities/lcd/stm32_lcd.c ****   * @{
 164:../STM32Cube_FW_N6/Utilities/lcd/stm32_lcd.c ****   */
 165:../STM32Cube_FW_N6/Utilities/lcd/stm32_lcd.c **** static void DrawChar(uint32_t Xpos, uint32_t Ypos, const uint8_t *pData);
 166:../STM32Cube_FW_N6/Utilities/lcd/stm32_lcd.c **** static void FillTriangle(Triangle_Positions_t *Positions, uint32_t Color);
 167:../STM32Cube_FW_N6/Utilities/lcd/stm32_lcd.c **** /**
 168:../STM32Cube_FW_N6/Utilities/lcd/stm32_lcd.c ****   * @}
 169:../STM32Cube_FW_N6/Utilities/lcd/stm32_lcd.c ****   */
 170:../STM32Cube_FW_N6/Utilities/lcd/stm32_lcd.c **** 
 171:../STM32Cube_FW_N6/Utilities/lcd/stm32_lcd.c **** /** @defgroup UTIL_LCD_Exported_Functions STM32 LCD Utility Exported Functions
 172:../STM32Cube_FW_N6/Utilities/lcd/stm32_lcd.c ****   * @{
 173:../STM32Cube_FW_N6/Utilities/lcd/stm32_lcd.c ****   */
 174:../STM32Cube_FW_N6/Utilities/lcd/stm32_lcd.c **** 
 175:../STM32Cube_FW_N6/Utilities/lcd/stm32_lcd.c **** /**
 176:../STM32Cube_FW_N6/Utilities/lcd/stm32_lcd.c ****   * @brief  Link board LCD drivers to STM32 LCD Utility drivers
 177:../STM32Cube_FW_N6/Utilities/lcd/stm32_lcd.c ****   * @param  pDrv Structure of LCD functions
 178:../STM32Cube_FW_N6/Utilities/lcd/stm32_lcd.c ****   */
 179:../STM32Cube_FW_N6/Utilities/lcd/stm32_lcd.c **** void UTIL_LCD_SetFuncDriver(const LCD_UTILS_Drv_t *pDrv)
 180:../STM32Cube_FW_N6/Utilities/lcd/stm32_lcd.c **** {
  35              		.loc 1 180 1 view -0
  36              		.cfi_startproc
  37              		@ args = 0, pretend = 0, frame = 0
  38              		@ frame_needed = 0, uses_anonymous_args = 0
 181:../STM32Cube_FW_N6/Utilities/lcd/stm32_lcd.c ****   FuncDriver.DrawBitmap     = pDrv->DrawBitmap;
  39              		.loc 1 181 3 view .LVU1
 180:../STM32Cube_FW_N6/Utilities/lcd/stm32_lcd.c ****   FuncDriver.DrawBitmap     = pDrv->DrawBitmap;
  40              		.loc 1 180 1 is_stmt 0 view .LVU2
  41 0000 70B5     		push	{r4, r5, r6, lr}
  42              		.cfi_def_cfa_offset 16
  43              		.cfi_offset 4, -16
  44              		.cfi_offset 5, -12
  45              		.cfi_offset 6, -8
  46              		.cfi_offset 14, -4
 182:../STM32Cube_FW_N6/Utilities/lcd/stm32_lcd.c ****   FuncDriver.FillRGBRect    = pDrv->FillRGBRect;
ARM GAS  /tmp/ccsDiBBo.s 			page 5


 183:../STM32Cube_FW_N6/Utilities/lcd/stm32_lcd.c ****   FuncDriver.DrawHLine      = pDrv->DrawHLine;
 184:../STM32Cube_FW_N6/Utilities/lcd/stm32_lcd.c ****   FuncDriver.DrawVLine      = pDrv->DrawVLine;
 185:../STM32Cube_FW_N6/Utilities/lcd/stm32_lcd.c ****   FuncDriver.FillRect       = pDrv->FillRect;
 186:../STM32Cube_FW_N6/Utilities/lcd/stm32_lcd.c ****   FuncDriver.GetPixel       = pDrv->GetPixel;
 187:../STM32Cube_FW_N6/Utilities/lcd/stm32_lcd.c ****   FuncDriver.SetPixel       = pDrv->SetPixel;
 188:../STM32Cube_FW_N6/Utilities/lcd/stm32_lcd.c ****   FuncDriver.GetXSize       = pDrv->GetXSize;
 189:../STM32Cube_FW_N6/Utilities/lcd/stm32_lcd.c ****   FuncDriver.GetYSize       = pDrv->GetYSize;
 190:../STM32Cube_FW_N6/Utilities/lcd/stm32_lcd.c ****   FuncDriver.SetLayer       = pDrv->SetLayer;
 191:../STM32Cube_FW_N6/Utilities/lcd/stm32_lcd.c ****   FuncDriver.GetFormat      = pDrv->GetFormat;
 192:../STM32Cube_FW_N6/Utilities/lcd/stm32_lcd.c **** 
 193:../STM32Cube_FW_N6/Utilities/lcd/stm32_lcd.c ****   DrawProp->LcdLayer = 0;
  47              		.loc 1 193 22 view .LVU3
  48 0002 0026     		movs	r6, #0
 181:../STM32Cube_FW_N6/Utilities/lcd/stm32_lcd.c ****   FuncDriver.FillRGBRect    = pDrv->FillRGBRect;
  49              		.loc 1 181 29 view .LVU4
  50 0004 164C     		ldr	r4, .L2
  51 0006 0368     		ldr	r3, [r0]
 189:../STM32Cube_FW_N6/Utilities/lcd/stm32_lcd.c ****   FuncDriver.SetLayer       = pDrv->SetLayer;
  52              		.loc 1 189 29 view .LVU5
  53 0008 026A     		ldr	r2, [r0, #32]
 181:../STM32Cube_FW_N6/Utilities/lcd/stm32_lcd.c ****   FuncDriver.FillRGBRect    = pDrv->FillRGBRect;
  54              		.loc 1 181 29 view .LVU6
  55 000a 2360     		str	r3, [r4]
 182:../STM32Cube_FW_N6/Utilities/lcd/stm32_lcd.c ****   FuncDriver.FillRGBRect    = pDrv->FillRGBRect;
  56              		.loc 1 182 3 is_stmt 1 view .LVU7
 182:../STM32Cube_FW_N6/Utilities/lcd/stm32_lcd.c ****   FuncDriver.FillRGBRect    = pDrv->FillRGBRect;
  57              		.loc 1 182 29 is_stmt 0 view .LVU8
  58 000c 4368     		ldr	r3, [r0, #4]
 189:../STM32Cube_FW_N6/Utilities/lcd/stm32_lcd.c ****   FuncDriver.SetLayer       = pDrv->SetLayer;
  59              		.loc 1 189 29 view .LVU9
  60 000e 2262     		str	r2, [r4, #32]
 182:../STM32Cube_FW_N6/Utilities/lcd/stm32_lcd.c ****   FuncDriver.FillRGBRect    = pDrv->FillRGBRect;
  61              		.loc 1 182 29 view .LVU10
  62 0010 6360     		str	r3, [r4, #4]
 183:../STM32Cube_FW_N6/Utilities/lcd/stm32_lcd.c ****   FuncDriver.DrawVLine      = pDrv->DrawVLine;
  63              		.loc 1 183 3 is_stmt 1 view .LVU11
 183:../STM32Cube_FW_N6/Utilities/lcd/stm32_lcd.c ****   FuncDriver.DrawVLine      = pDrv->DrawVLine;
  64              		.loc 1 183 29 is_stmt 0 view .LVU12
  65 0012 8368     		ldr	r3, [r0, #8]
 190:../STM32Cube_FW_N6/Utilities/lcd/stm32_lcd.c ****   FuncDriver.GetFormat      = pDrv->GetFormat;
  66              		.loc 1 190 29 view .LVU13
  67 0014 426A     		ldr	r2, [r0, #36]
 183:../STM32Cube_FW_N6/Utilities/lcd/stm32_lcd.c ****   FuncDriver.DrawVLine      = pDrv->DrawVLine;
  68              		.loc 1 183 29 view .LVU14
  69 0016 A360     		str	r3, [r4, #8]
 184:../STM32Cube_FW_N6/Utilities/lcd/stm32_lcd.c ****   FuncDriver.FillRect       = pDrv->FillRect;
  70              		.loc 1 184 3 is_stmt 1 view .LVU15
 184:../STM32Cube_FW_N6/Utilities/lcd/stm32_lcd.c ****   FuncDriver.FillRect       = pDrv->FillRect;
  71              		.loc 1 184 29 is_stmt 0 view .LVU16
  72 0018 C368     		ldr	r3, [r0, #12]
  73              		.loc 1 193 22 view .LVU17
  74 001a 124D     		ldr	r5, .L2+4
 184:../STM32Cube_FW_N6/Utilities/lcd/stm32_lcd.c ****   FuncDriver.FillRect       = pDrv->FillRect;
  75              		.loc 1 184 29 view .LVU18
  76 001c E360     		str	r3, [r4, #12]
 185:../STM32Cube_FW_N6/Utilities/lcd/stm32_lcd.c ****   FuncDriver.GetPixel       = pDrv->GetPixel;
  77              		.loc 1 185 3 is_stmt 1 view .LVU19
ARM GAS  /tmp/ccsDiBBo.s 			page 6


 185:../STM32Cube_FW_N6/Utilities/lcd/stm32_lcd.c ****   FuncDriver.GetPixel       = pDrv->GetPixel;
  78              		.loc 1 185 29 is_stmt 0 view .LVU20
  79 001e 0369     		ldr	r3, [r0, #16]
 190:../STM32Cube_FW_N6/Utilities/lcd/stm32_lcd.c ****   FuncDriver.GetFormat      = pDrv->GetFormat;
  80              		.loc 1 190 29 view .LVU21
  81 0020 6262     		str	r2, [r4, #36]
 185:../STM32Cube_FW_N6/Utilities/lcd/stm32_lcd.c ****   FuncDriver.GetPixel       = pDrv->GetPixel;
  82              		.loc 1 185 29 view .LVU22
  83 0022 2361     		str	r3, [r4, #16]
 186:../STM32Cube_FW_N6/Utilities/lcd/stm32_lcd.c ****   FuncDriver.SetPixel       = pDrv->SetPixel;
  84              		.loc 1 186 3 is_stmt 1 view .LVU23
 186:../STM32Cube_FW_N6/Utilities/lcd/stm32_lcd.c ****   FuncDriver.SetPixel       = pDrv->SetPixel;
  85              		.loc 1 186 29 is_stmt 0 view .LVU24
  86 0024 4369     		ldr	r3, [r0, #20]
 191:../STM32Cube_FW_N6/Utilities/lcd/stm32_lcd.c **** 
  87              		.loc 1 191 29 view .LVU25
  88 0026 826A     		ldr	r2, [r0, #40]
 186:../STM32Cube_FW_N6/Utilities/lcd/stm32_lcd.c ****   FuncDriver.SetPixel       = pDrv->SetPixel;
  89              		.loc 1 186 29 view .LVU26
  90 0028 6361     		str	r3, [r4, #20]
 187:../STM32Cube_FW_N6/Utilities/lcd/stm32_lcd.c ****   FuncDriver.GetXSize       = pDrv->GetXSize;
  91              		.loc 1 187 3 is_stmt 1 view .LVU27
 187:../STM32Cube_FW_N6/Utilities/lcd/stm32_lcd.c ****   FuncDriver.GetXSize       = pDrv->GetXSize;
  92              		.loc 1 187 29 is_stmt 0 view .LVU28
  93 002a 8369     		ldr	r3, [r0, #24]
 194:../STM32Cube_FW_N6/Utilities/lcd/stm32_lcd.c ****   DrawProp->LcdDevice = 0;
 195:../STM32Cube_FW_N6/Utilities/lcd/stm32_lcd.c ****   FuncDriver.GetXSize(0, &DrawProp[DrawProp->LcdLayer].LcdXsize);
  94              		.loc 1 195 3 view .LVU29
  95 002c 05F11401 		add	r1, r5, #20
 187:../STM32Cube_FW_N6/Utilities/lcd/stm32_lcd.c ****   FuncDriver.GetXSize       = pDrv->GetXSize;
  96              		.loc 1 187 29 view .LVU30
  97 0030 A361     		str	r3, [r4, #24]
 188:../STM32Cube_FW_N6/Utilities/lcd/stm32_lcd.c ****   FuncDriver.GetYSize       = pDrv->GetYSize;
  98              		.loc 1 188 3 is_stmt 1 view .LVU31
 188:../STM32Cube_FW_N6/Utilities/lcd/stm32_lcd.c ****   FuncDriver.GetYSize       = pDrv->GetYSize;
  99              		.loc 1 188 35 is_stmt 0 view .LVU32
 100 0032 C369     		ldr	r3, [r0, #28]
 194:../STM32Cube_FW_N6/Utilities/lcd/stm32_lcd.c ****   DrawProp->LcdDevice = 0;
 101              		.loc 1 194 23 view .LVU33
 102 0034 C5E90366 		strd	r6, r6, [r5, #12]
 103              		.loc 1 195 3 view .LVU34
 104 0038 3046     		mov	r0, r6
 105              	.LVL1:
 188:../STM32Cube_FW_N6/Utilities/lcd/stm32_lcd.c ****   FuncDriver.GetYSize       = pDrv->GetYSize;
 106              		.loc 1 188 29 view .LVU35
 107 003a E361     		str	r3, [r4, #28]
 189:../STM32Cube_FW_N6/Utilities/lcd/stm32_lcd.c ****   FuncDriver.SetLayer       = pDrv->SetLayer;
 108              		.loc 1 189 3 is_stmt 1 view .LVU36
 190:../STM32Cube_FW_N6/Utilities/lcd/stm32_lcd.c ****   FuncDriver.GetFormat      = pDrv->GetFormat;
 109              		.loc 1 190 3 view .LVU37
 191:../STM32Cube_FW_N6/Utilities/lcd/stm32_lcd.c **** 
 110              		.loc 1 191 3 view .LVU38
 191:../STM32Cube_FW_N6/Utilities/lcd/stm32_lcd.c **** 
 111              		.loc 1 191 29 is_stmt 0 view .LVU39
 112 003c A262     		str	r2, [r4, #40]
 193:../STM32Cube_FW_N6/Utilities/lcd/stm32_lcd.c ****   DrawProp->LcdDevice = 0;
 113              		.loc 1 193 3 is_stmt 1 view .LVU40
ARM GAS  /tmp/ccsDiBBo.s 			page 7


 114              		.loc 1 195 3 view .LVU41
 115 003e 9847     		blx	r3
 116              	.LVL2:
 196:../STM32Cube_FW_N6/Utilities/lcd/stm32_lcd.c ****   FuncDriver.GetYSize(0, &DrawProp[DrawProp->LcdLayer].LcdYsize);
 117              		.loc 1 196 3 view .LVU42
 118 0040 E968     		ldr	r1, [r5, #12]
 119 0042 236A     		ldr	r3, [r4, #32]
 120 0044 05EB4111 		add	r1, r5, r1, lsl #5
 121 0048 3046     		mov	r0, r6
 122 004a 1831     		adds	r1, r1, #24
 123 004c 9847     		blx	r3
 124              	.LVL3:
 197:../STM32Cube_FW_N6/Utilities/lcd/stm32_lcd.c ****   FuncDriver.GetFormat(0, &DrawProp[DrawProp->LcdLayer].LcdPixelFormat);
 125              		.loc 1 197 3 view .LVU43
 126 004e EB68     		ldr	r3, [r5, #12]
 127 0050 3046     		mov	r0, r6
 128 0052 05EB4311 		add	r1, r5, r3, lsl #5
 129 0056 1C31     		adds	r1, r1, #28
 130 0058 A36A     		ldr	r3, [r4, #40]
 198:../STM32Cube_FW_N6/Utilities/lcd/stm32_lcd.c **** }
 131              		.loc 1 198 1 is_stmt 0 view .LVU44
 132 005a BDE87040 		pop	{r4, r5, r6, lr}
 133              		.cfi_restore 14
 134              		.cfi_restore 6
 135              		.cfi_restore 5
 136              		.cfi_restore 4
 137              		.cfi_def_cfa_offset 0
 197:../STM32Cube_FW_N6/Utilities/lcd/stm32_lcd.c ****   FuncDriver.GetFormat(0, &DrawProp[DrawProp->LcdLayer].LcdPixelFormat);
 138              		.loc 1 197 3 view .LVU45
 139 005e 1847     		bx	r3
 140              	.LVL4:
 141              	.L3:
 142              		.align	2
 143              	.L2:
 144 0060 00000000 		.word	FuncDriver
 145 0064 00000000 		.word	DrawProp
 146              		.cfi_endproc
 147              	.LFE0:
 149              		.section	.text.UTIL_LCD_SetLayer,"ax",%progbits
 150              		.align	1
 151              		.global	UTIL_LCD_SetLayer
 152              		.syntax unified
 153              		.thumb
 154              		.thumb_func
 156              	UTIL_LCD_SetLayer:
 157              	.LVL5:
 158              	.LFB1:
 199:../STM32Cube_FW_N6/Utilities/lcd/stm32_lcd.c **** 
 200:../STM32Cube_FW_N6/Utilities/lcd/stm32_lcd.c **** /**
 201:../STM32Cube_FW_N6/Utilities/lcd/stm32_lcd.c ****   * @brief  Set the LCD layer.
 202:../STM32Cube_FW_N6/Utilities/lcd/stm32_lcd.c ****   * @param  Layer  LCD layer
 203:../STM32Cube_FW_N6/Utilities/lcd/stm32_lcd.c ****   */
 204:../STM32Cube_FW_N6/Utilities/lcd/stm32_lcd.c **** void UTIL_LCD_SetLayer(uint32_t Layer)
 205:../STM32Cube_FW_N6/Utilities/lcd/stm32_lcd.c **** {
 159              		.loc 1 205 1 is_stmt 1 view -0
 160              		.cfi_startproc
 161              		@ args = 0, pretend = 0, frame = 0
ARM GAS  /tmp/ccsDiBBo.s 			page 8


 162              		@ frame_needed = 0, uses_anonymous_args = 0
 206:../STM32Cube_FW_N6/Utilities/lcd/stm32_lcd.c ****   if(FuncDriver.SetLayer != NULL)
 163              		.loc 1 206 3 view .LVU47
 205:../STM32Cube_FW_N6/Utilities/lcd/stm32_lcd.c ****   if(FuncDriver.SetLayer != NULL)
 164              		.loc 1 205 1 is_stmt 0 view .LVU48
 165 0000 70B5     		push	{r4, r5, r6, lr}
 166              		.cfi_def_cfa_offset 16
 167              		.cfi_offset 4, -16
 168              		.cfi_offset 5, -12
 169              		.cfi_offset 6, -8
 170              		.cfi_offset 14, -4
 171              		.loc 1 206 16 view .LVU49
 172 0002 104E     		ldr	r6, .L8
 205:../STM32Cube_FW_N6/Utilities/lcd/stm32_lcd.c ****   if(FuncDriver.SetLayer != NULL)
 173              		.loc 1 205 1 view .LVU50
 174 0004 0546     		mov	r5, r0
 175              		.loc 1 206 16 view .LVU51
 176 0006 736A     		ldr	r3, [r6, #36]
 177              		.loc 1 206 5 view .LVU52
 178 0008 DBB1     		cbz	r3, .L4
 207:../STM32Cube_FW_N6/Utilities/lcd/stm32_lcd.c ****   {
 208:../STM32Cube_FW_N6/Utilities/lcd/stm32_lcd.c ****     if(FuncDriver.SetLayer(DrawProp->LcdDevice, Layer) == 0)
 179              		.loc 1 208 5 is_stmt 1 view .LVU53
 180              		.loc 1 208 8 is_stmt 0 view .LVU54
 181 000a 0F4C     		ldr	r4, .L8+4
 182 000c 0146     		mov	r1, r0
 183 000e 2069     		ldr	r0, [r4, #16]
 184              	.LVL6:
 185              		.loc 1 208 8 view .LVU55
 186 0010 9847     		blx	r3
 187              	.LVL7:
 188              		.loc 1 208 7 discriminator 1 view .LVU56
 189 0012 B0B9     		cbnz	r0, .L4
 209:../STM32Cube_FW_N6/Utilities/lcd/stm32_lcd.c ****     {
 210:../STM32Cube_FW_N6/Utilities/lcd/stm32_lcd.c ****       DrawProp->LcdLayer = Layer;
 190              		.loc 1 210 7 is_stmt 1 view .LVU57
 211:../STM32Cube_FW_N6/Utilities/lcd/stm32_lcd.c ****       FuncDriver.GetXSize(DrawProp->LcdDevice, &DrawProp[DrawProp->LcdLayer].LcdXsize);
 191              		.loc 1 211 7 is_stmt 0 view .LVU58
 192 0014 04EB4511 		add	r1, r4, r5, lsl #5
 193 0018 F369     		ldr	r3, [r6, #28]
 194 001a 2069     		ldr	r0, [r4, #16]
 210:../STM32Cube_FW_N6/Utilities/lcd/stm32_lcd.c ****       FuncDriver.GetXSize(DrawProp->LcdDevice, &DrawProp[DrawProp->LcdLayer].LcdXsize);
 195              		.loc 1 210 26 view .LVU59
 196 001c E560     		str	r5, [r4, #12]
 197              		.loc 1 211 7 is_stmt 1 view .LVU60
 198 001e 1431     		adds	r1, r1, #20
 199 0020 9847     		blx	r3
 200              	.LVL8:
 212:../STM32Cube_FW_N6/Utilities/lcd/stm32_lcd.c ****       FuncDriver.GetYSize(DrawProp->LcdDevice, &DrawProp[DrawProp->LcdLayer].LcdYsize);
 201              		.loc 1 212 7 view .LVU61
 202 0022 E168     		ldr	r1, [r4, #12]
 203 0024 336A     		ldr	r3, [r6, #32]
 204 0026 04EB4111 		add	r1, r4, r1, lsl #5
 205 002a 2069     		ldr	r0, [r4, #16]
 206 002c 1831     		adds	r1, r1, #24
 207 002e 9847     		blx	r3
 208              	.LVL9:
ARM GAS  /tmp/ccsDiBBo.s 			page 9


 213:../STM32Cube_FW_N6/Utilities/lcd/stm32_lcd.c ****       FuncDriver.GetFormat(DrawProp->LcdDevice, &DrawProp[DrawProp->LcdLayer].LcdPixelFormat);
 209              		.loc 1 213 7 view .LVU62
 210 0030 E168     		ldr	r1, [r4, #12]
 211 0032 B36A     		ldr	r3, [r6, #40]
 212 0034 04EB4111 		add	r1, r4, r1, lsl #5
 213 0038 2069     		ldr	r0, [r4, #16]
 214 003a 1C31     		adds	r1, r1, #28
 214:../STM32Cube_FW_N6/Utilities/lcd/stm32_lcd.c ****     }
 215:../STM32Cube_FW_N6/Utilities/lcd/stm32_lcd.c ****   }
 216:../STM32Cube_FW_N6/Utilities/lcd/stm32_lcd.c **** }
 215              		.loc 1 216 1 is_stmt 0 view .LVU63
 216 003c BDE87040 		pop	{r4, r5, r6, lr}
 217              		.cfi_remember_state
 218              		.cfi_restore 14
 219              		.cfi_restore 6
 220              		.cfi_restore 5
 221              		.cfi_restore 4
 222              		.cfi_def_cfa_offset 0
 223              	.LVL10:
 213:../STM32Cube_FW_N6/Utilities/lcd/stm32_lcd.c ****       FuncDriver.GetFormat(DrawProp->LcdDevice, &DrawProp[DrawProp->LcdLayer].LcdPixelFormat);
 224              		.loc 1 213 7 view .LVU64
 225 0040 1847     		bx	r3
 226              	.LVL11:
 227              	.L4:
 228              		.cfi_restore_state
 229              		.loc 1 216 1 view .LVU65
 230 0042 70BD     		pop	{r4, r5, r6, pc}
 231              	.LVL12:
 232              	.L9:
 233              		.loc 1 216 1 view .LVU66
 234              		.align	2
 235              	.L8:
 236 0044 00000000 		.word	FuncDriver
 237 0048 00000000 		.word	DrawProp
 238              		.cfi_endproc
 239              	.LFE1:
 241              		.section	.text.UTIL_LCD_SetDevice,"ax",%progbits
 242              		.align	1
 243              		.global	UTIL_LCD_SetDevice
 244              		.syntax unified
 245              		.thumb
 246              		.thumb_func
 248              	UTIL_LCD_SetDevice:
 249              	.LVL13:
 250              	.LFB2:
 217:../STM32Cube_FW_N6/Utilities/lcd/stm32_lcd.c **** 
 218:../STM32Cube_FW_N6/Utilities/lcd/stm32_lcd.c **** /**
 219:../STM32Cube_FW_N6/Utilities/lcd/stm32_lcd.c ****   * @brief  Set the LCD instance to be used.
 220:../STM32Cube_FW_N6/Utilities/lcd/stm32_lcd.c ****   * @param  Device  LCD instance
 221:../STM32Cube_FW_N6/Utilities/lcd/stm32_lcd.c ****   */
 222:../STM32Cube_FW_N6/Utilities/lcd/stm32_lcd.c **** void UTIL_LCD_SetDevice(uint32_t Device)
 223:../STM32Cube_FW_N6/Utilities/lcd/stm32_lcd.c **** {
 251              		.loc 1 223 1 is_stmt 1 view -0
 252              		.cfi_startproc
 253              		@ args = 0, pretend = 0, frame = 0
 254              		@ frame_needed = 0, uses_anonymous_args = 0
 224:../STM32Cube_FW_N6/Utilities/lcd/stm32_lcd.c ****   DrawProp->LcdDevice = Device;
ARM GAS  /tmp/ccsDiBBo.s 			page 10


 255              		.loc 1 224 3 view .LVU68
 223:../STM32Cube_FW_N6/Utilities/lcd/stm32_lcd.c ****   DrawProp->LcdDevice = Device;
 256              		.loc 1 223 1 is_stmt 0 view .LVU69
 257 0000 70B5     		push	{r4, r5, r6, lr}
 258              		.cfi_def_cfa_offset 16
 259              		.cfi_offset 4, -16
 260              		.cfi_offset 5, -12
 261              		.cfi_offset 6, -8
 262              		.cfi_offset 14, -4
 223:../STM32Cube_FW_N6/Utilities/lcd/stm32_lcd.c ****   DrawProp->LcdDevice = Device;
 263              		.loc 1 223 1 view .LVU70
 264 0002 0446     		mov	r4, r0
 265              		.loc 1 224 23 view .LVU71
 266 0004 064D     		ldr	r5, .L11
 225:../STM32Cube_FW_N6/Utilities/lcd/stm32_lcd.c ****   FuncDriver.GetXSize(Device, &DrawProp->LcdXsize);
 267              		.loc 1 225 13 view .LVU72
 268 0006 074E     		ldr	r6, .L11+4
 269              		.loc 1 225 3 view .LVU73
 270 0008 05F11401 		add	r1, r5, #20
 271 000c F369     		ldr	r3, [r6, #28]
 224:../STM32Cube_FW_N6/Utilities/lcd/stm32_lcd.c ****   DrawProp->LcdDevice = Device;
 272              		.loc 1 224 23 view .LVU74
 273 000e 2861     		str	r0, [r5, #16]
 274              		.loc 1 225 3 is_stmt 1 view .LVU75
 275 0010 9847     		blx	r3
 276              	.LVL14:
 226:../STM32Cube_FW_N6/Utilities/lcd/stm32_lcd.c ****   FuncDriver.GetYSize(Device, &DrawProp->LcdYsize);
 277              		.loc 1 226 3 view .LVU76
 278 0012 2046     		mov	r0, r4
 279 0014 336A     		ldr	r3, [r6, #32]
 280 0016 05F11801 		add	r1, r5, #24
 227:../STM32Cube_FW_N6/Utilities/lcd/stm32_lcd.c **** }
 281              		.loc 1 227 1 is_stmt 0 view .LVU77
 282 001a BDE87040 		pop	{r4, r5, r6, lr}
 283              		.cfi_restore 14
 284              		.cfi_restore 6
 285              		.cfi_restore 5
 286              		.cfi_restore 4
 287              		.cfi_def_cfa_offset 0
 288              	.LVL15:
 226:../STM32Cube_FW_N6/Utilities/lcd/stm32_lcd.c ****   FuncDriver.GetYSize(Device, &DrawProp->LcdYsize);
 289              		.loc 1 226 3 view .LVU78
 290 001e 1847     		bx	r3
 291              	.LVL16:
 292              	.L12:
 226:../STM32Cube_FW_N6/Utilities/lcd/stm32_lcd.c ****   FuncDriver.GetYSize(Device, &DrawProp->LcdYsize);
 293              		.loc 1 226 3 view .LVU79
 294              		.align	2
 295              	.L11:
 296 0020 00000000 		.word	DrawProp
 297 0024 00000000 		.word	FuncDriver
 298              		.cfi_endproc
 299              	.LFE2:
 301              		.section	.text.UTIL_LCD_SetTextColor,"ax",%progbits
 302              		.align	1
 303              		.global	UTIL_LCD_SetTextColor
 304              		.syntax unified
ARM GAS  /tmp/ccsDiBBo.s 			page 11


 305              		.thumb
 306              		.thumb_func
 308              	UTIL_LCD_SetTextColor:
 309              	.LVL17:
 310              	.LFB3:
 228:../STM32Cube_FW_N6/Utilities/lcd/stm32_lcd.c **** 
 229:../STM32Cube_FW_N6/Utilities/lcd/stm32_lcd.c **** /**
 230:../STM32Cube_FW_N6/Utilities/lcd/stm32_lcd.c ****   * @brief  Sets the LCD text color.
 231:../STM32Cube_FW_N6/Utilities/lcd/stm32_lcd.c ****   * @param  Color  Text color code
 232:../STM32Cube_FW_N6/Utilities/lcd/stm32_lcd.c ****   */
 233:../STM32Cube_FW_N6/Utilities/lcd/stm32_lcd.c **** void UTIL_LCD_SetTextColor(uint32_t Color)
 234:../STM32Cube_FW_N6/Utilities/lcd/stm32_lcd.c **** {
 311              		.loc 1 234 1 is_stmt 1 view -0
 312              		.cfi_startproc
 313              		@ args = 0, pretend = 0, frame = 0
 314              		@ frame_needed = 0, uses_anonymous_args = 0
 315              		@ link register save eliminated.
 235:../STM32Cube_FW_N6/Utilities/lcd/stm32_lcd.c ****   DrawProp[DrawProp->LcdLayer].TextColor = Color;
 316              		.loc 1 235 3 view .LVU81
 317              		.loc 1 235 42 is_stmt 0 view .LVU82
 318 0000 024A     		ldr	r2, .L14
 319 0002 D368     		ldr	r3, [r2, #12]
 320 0004 5B01     		lsls	r3, r3, #5
 321 0006 D050     		str	r0, [r2, r3]
 236:../STM32Cube_FW_N6/Utilities/lcd/stm32_lcd.c **** }
 322              		.loc 1 236 1 view .LVU83
 323 0008 7047     		bx	lr
 324              	.L15:
 325 000a 00BF     		.align	2
 326              	.L14:
 327 000c 00000000 		.word	DrawProp
 328              		.cfi_endproc
 329              	.LFE3:
 331              		.section	.text.UTIL_LCD_GetTextColor,"ax",%progbits
 332              		.align	1
 333              		.global	UTIL_LCD_GetTextColor
 334              		.syntax unified
 335              		.thumb
 336              		.thumb_func
 338              	UTIL_LCD_GetTextColor:
 339              	.LFB4:
 237:../STM32Cube_FW_N6/Utilities/lcd/stm32_lcd.c **** 
 238:../STM32Cube_FW_N6/Utilities/lcd/stm32_lcd.c **** /**
 239:../STM32Cube_FW_N6/Utilities/lcd/stm32_lcd.c ****   * @brief  Gets the LCD text color.
 240:../STM32Cube_FW_N6/Utilities/lcd/stm32_lcd.c ****   * @retval Used text color.
 241:../STM32Cube_FW_N6/Utilities/lcd/stm32_lcd.c ****   */
 242:../STM32Cube_FW_N6/Utilities/lcd/stm32_lcd.c **** uint32_t UTIL_LCD_GetTextColor(void)
 243:../STM32Cube_FW_N6/Utilities/lcd/stm32_lcd.c **** {
 340              		.loc 1 243 1 is_stmt 1 view -0
 341              		.cfi_startproc
 342              		@ args = 0, pretend = 0, frame = 0
 343              		@ frame_needed = 0, uses_anonymous_args = 0
 344              		@ link register save eliminated.
 244:../STM32Cube_FW_N6/Utilities/lcd/stm32_lcd.c ****   return DrawProp[DrawProp->LcdLayer].TextColor;
 345              		.loc 1 244 3 view .LVU85
 346              		.loc 1 244 38 is_stmt 0 view .LVU86
 347 0000 024A     		ldr	r2, .L17
ARM GAS  /tmp/ccsDiBBo.s 			page 12


 348 0002 D368     		ldr	r3, [r2, #12]
 349 0004 5B01     		lsls	r3, r3, #5
 245:../STM32Cube_FW_N6/Utilities/lcd/stm32_lcd.c **** }
 350              		.loc 1 245 1 view .LVU87
 351 0006 D058     		ldr	r0, [r2, r3]
 352 0008 7047     		bx	lr
 353              	.L18:
 354 000a 00BF     		.align	2
 355              	.L17:
 356 000c 00000000 		.word	DrawProp
 357              		.cfi_endproc
 358              	.LFE4:
 360              		.section	.text.UTIL_LCD_SetBackColor,"ax",%progbits
 361              		.align	1
 362              		.global	UTIL_LCD_SetBackColor
 363              		.syntax unified
 364              		.thumb
 365              		.thumb_func
 367              	UTIL_LCD_SetBackColor:
 368              	.LVL18:
 369              	.LFB5:
 246:../STM32Cube_FW_N6/Utilities/lcd/stm32_lcd.c **** 
 247:../STM32Cube_FW_N6/Utilities/lcd/stm32_lcd.c **** /**
 248:../STM32Cube_FW_N6/Utilities/lcd/stm32_lcd.c ****   * @brief  Sets the LCD background color.
 249:../STM32Cube_FW_N6/Utilities/lcd/stm32_lcd.c ****   * @param  Color  Layer background color code
 250:../STM32Cube_FW_N6/Utilities/lcd/stm32_lcd.c ****   */
 251:../STM32Cube_FW_N6/Utilities/lcd/stm32_lcd.c **** void UTIL_LCD_SetBackColor(uint32_t Color)
 252:../STM32Cube_FW_N6/Utilities/lcd/stm32_lcd.c **** {
 370              		.loc 1 252 1 is_stmt 1 view -0
 371              		.cfi_startproc
 372              		@ args = 0, pretend = 0, frame = 0
 373              		@ frame_needed = 0, uses_anonymous_args = 0
 374              		@ link register save eliminated.
 253:../STM32Cube_FW_N6/Utilities/lcd/stm32_lcd.c ****   DrawProp[DrawProp->LcdLayer].BackColor = Color;
 375              		.loc 1 253 3 view .LVU89
 376              		.loc 1 253 42 is_stmt 0 view .LVU90
 377 0000 024B     		ldr	r3, .L20
 378 0002 DA68     		ldr	r2, [r3, #12]
 379 0004 03EB4213 		add	r3, r3, r2, lsl #5
 380 0008 5860     		str	r0, [r3, #4]
 254:../STM32Cube_FW_N6/Utilities/lcd/stm32_lcd.c **** }
 381              		.loc 1 254 1 view .LVU91
 382 000a 7047     		bx	lr
 383              	.L21:
 384              		.align	2
 385              	.L20:
 386 000c 00000000 		.word	DrawProp
 387              		.cfi_endproc
 388              	.LFE5:
 390              		.section	.text.UTIL_LCD_GetBackColor,"ax",%progbits
 391              		.align	1
 392              		.global	UTIL_LCD_GetBackColor
 393              		.syntax unified
 394              		.thumb
 395              		.thumb_func
 397              	UTIL_LCD_GetBackColor:
 398              	.LFB6:
ARM GAS  /tmp/ccsDiBBo.s 			page 13


 255:../STM32Cube_FW_N6/Utilities/lcd/stm32_lcd.c **** 
 256:../STM32Cube_FW_N6/Utilities/lcd/stm32_lcd.c **** /**
 257:../STM32Cube_FW_N6/Utilities/lcd/stm32_lcd.c ****   * @brief  Gets the LCD background color.
 258:../STM32Cube_FW_N6/Utilities/lcd/stm32_lcd.c ****   * @retval Used background color
 259:../STM32Cube_FW_N6/Utilities/lcd/stm32_lcd.c ****   */
 260:../STM32Cube_FW_N6/Utilities/lcd/stm32_lcd.c **** uint32_t UTIL_LCD_GetBackColor(void)
 261:../STM32Cube_FW_N6/Utilities/lcd/stm32_lcd.c **** {
 399              		.loc 1 261 1 is_stmt 1 view -0
 400              		.cfi_startproc
 401              		@ args = 0, pretend = 0, frame = 0
 402              		@ frame_needed = 0, uses_anonymous_args = 0
 403              		@ link register save eliminated.
 262:../STM32Cube_FW_N6/Utilities/lcd/stm32_lcd.c ****   return DrawProp[DrawProp->LcdLayer].BackColor;
 404              		.loc 1 262 3 view .LVU93
 405              		.loc 1 262 38 is_stmt 0 view .LVU94
 406 0000 024B     		ldr	r3, .L23
 407 0002 DA68     		ldr	r2, [r3, #12]
 408 0004 03EB4213 		add	r3, r3, r2, lsl #5
 263:../STM32Cube_FW_N6/Utilities/lcd/stm32_lcd.c **** }
 409              		.loc 1 263 1 view .LVU95
 410 0008 5868     		ldr	r0, [r3, #4]
 411 000a 7047     		bx	lr
 412              	.L24:
 413              		.align	2
 414              	.L23:
 415 000c 00000000 		.word	DrawProp
 416              		.cfi_endproc
 417              	.LFE6:
 419              		.section	.text.UTIL_LCD_SetFont,"ax",%progbits
 420              		.align	1
 421              		.global	UTIL_LCD_SetFont
 422              		.syntax unified
 423              		.thumb
 424              		.thumb_func
 426              	UTIL_LCD_SetFont:
 427              	.LVL19:
 428              	.LFB7:
 264:../STM32Cube_FW_N6/Utilities/lcd/stm32_lcd.c **** 
 265:../STM32Cube_FW_N6/Utilities/lcd/stm32_lcd.c **** /**
 266:../STM32Cube_FW_N6/Utilities/lcd/stm32_lcd.c ****   * @brief  Sets the LCD text font.
 267:../STM32Cube_FW_N6/Utilities/lcd/stm32_lcd.c ****   * @param  fonts  Layer font to be used
 268:../STM32Cube_FW_N6/Utilities/lcd/stm32_lcd.c ****   */
 269:../STM32Cube_FW_N6/Utilities/lcd/stm32_lcd.c **** void UTIL_LCD_SetFont(sFONT *fonts)
 270:../STM32Cube_FW_N6/Utilities/lcd/stm32_lcd.c **** {
 429              		.loc 1 270 1 is_stmt 1 view -0
 430              		.cfi_startproc
 431              		@ args = 0, pretend = 0, frame = 0
 432              		@ frame_needed = 0, uses_anonymous_args = 0
 433              		@ link register save eliminated.
 271:../STM32Cube_FW_N6/Utilities/lcd/stm32_lcd.c ****   DrawProp[DrawProp->LcdLayer].pFont = fonts;
 434              		.loc 1 271 3 view .LVU97
 435              		.loc 1 271 38 is_stmt 0 view .LVU98
 436 0000 024B     		ldr	r3, .L26
 437 0002 DA68     		ldr	r2, [r3, #12]
 438 0004 03EB4213 		add	r3, r3, r2, lsl #5
 439 0008 9860     		str	r0, [r3, #8]
 272:../STM32Cube_FW_N6/Utilities/lcd/stm32_lcd.c **** }
ARM GAS  /tmp/ccsDiBBo.s 			page 14


 440              		.loc 1 272 1 view .LVU99
 441 000a 7047     		bx	lr
 442              	.L27:
 443              		.align	2
 444              	.L26:
 445 000c 00000000 		.word	DrawProp
 446              		.cfi_endproc
 447              	.LFE7:
 449              		.section	.text.UTIL_LCD_GetFont,"ax",%progbits
 450              		.align	1
 451              		.global	UTIL_LCD_GetFont
 452              		.syntax unified
 453              		.thumb
 454              		.thumb_func
 456              	UTIL_LCD_GetFont:
 457              	.LFB8:
 273:../STM32Cube_FW_N6/Utilities/lcd/stm32_lcd.c **** 
 274:../STM32Cube_FW_N6/Utilities/lcd/stm32_lcd.c **** /**
 275:../STM32Cube_FW_N6/Utilities/lcd/stm32_lcd.c ****   * @brief  Gets the LCD text font.
 276:../STM32Cube_FW_N6/Utilities/lcd/stm32_lcd.c ****   * @retval Used layer font
 277:../STM32Cube_FW_N6/Utilities/lcd/stm32_lcd.c ****   */
 278:../STM32Cube_FW_N6/Utilities/lcd/stm32_lcd.c **** sFONT *UTIL_LCD_GetFont(void)
 279:../STM32Cube_FW_N6/Utilities/lcd/stm32_lcd.c **** {
 458              		.loc 1 279 1 is_stmt 1 view -0
 459              		.cfi_startproc
 460              		@ args = 0, pretend = 0, frame = 0
 461              		@ frame_needed = 0, uses_anonymous_args = 0
 462              		@ link register save eliminated.
 280:../STM32Cube_FW_N6/Utilities/lcd/stm32_lcd.c ****   return DrawProp[DrawProp->LcdLayer].pFont;
 463              		.loc 1 280 3 view .LVU101
 464              		.loc 1 280 38 is_stmt 0 view .LVU102
 465 0000 024B     		ldr	r3, .L29
 466 0002 DA68     		ldr	r2, [r3, #12]
 467 0004 03EB4213 		add	r3, r3, r2, lsl #5
 281:../STM32Cube_FW_N6/Utilities/lcd/stm32_lcd.c **** }
 468              		.loc 1 281 1 view .LVU103
 469 0008 9868     		ldr	r0, [r3, #8]
 470 000a 7047     		bx	lr
 471              	.L30:
 472              		.align	2
 473              	.L29:
 474 000c 00000000 		.word	DrawProp
 475              		.cfi_endproc
 476              	.LFE8:
 478              		.section	.text.UTIL_LCD_FillRGBRect,"ax",%progbits
 479              		.align	1
 480              		.global	UTIL_LCD_FillRGBRect
 481              		.syntax unified
 482              		.thumb
 483              		.thumb_func
 485              	UTIL_LCD_FillRGBRect:
 486              	.LVL20:
 487              	.LFB9:
 282:../STM32Cube_FW_N6/Utilities/lcd/stm32_lcd.c **** 
 283:../STM32Cube_FW_N6/Utilities/lcd/stm32_lcd.c **** /**
 284:../STM32Cube_FW_N6/Utilities/lcd/stm32_lcd.c ****   * @brief  Draws a RGB rectangle in currently active layer.
 285:../STM32Cube_FW_N6/Utilities/lcd/stm32_lcd.c ****   * @param  pData   Pointer to RGB rectangle data
ARM GAS  /tmp/ccsDiBBo.s 			page 15


 286:../STM32Cube_FW_N6/Utilities/lcd/stm32_lcd.c ****   * @param  Xpos    X position
 287:../STM32Cube_FW_N6/Utilities/lcd/stm32_lcd.c ****   * @param  Ypos    Y position
 288:../STM32Cube_FW_N6/Utilities/lcd/stm32_lcd.c ****   * @param  Length  Line length
 289:../STM32Cube_FW_N6/Utilities/lcd/stm32_lcd.c ****   */
 290:../STM32Cube_FW_N6/Utilities/lcd/stm32_lcd.c **** void UTIL_LCD_FillRGBRect(uint32_t Xpos, uint32_t Ypos, uint8_t *pData, uint32_t Width, uint32_t He
 291:../STM32Cube_FW_N6/Utilities/lcd/stm32_lcd.c **** {
 488              		.loc 1 291 1 is_stmt 1 view -0
 489              		.cfi_startproc
 490              		@ args = 4, pretend = 0, frame = 0
 491              		@ frame_needed = 0, uses_anonymous_args = 0
 292:../STM32Cube_FW_N6/Utilities/lcd/stm32_lcd.c ****   /* Write RGB rectangle data */
 293:../STM32Cube_FW_N6/Utilities/lcd/stm32_lcd.c ****   FuncDriver.FillRGBRect(DrawProp->LcdDevice, Xpos, Ypos, pData, Width, Height);
 492              		.loc 1 293 3 view .LVU105
 291:../STM32Cube_FW_N6/Utilities/lcd/stm32_lcd.c ****   /* Write RGB rectangle data */
 493              		.loc 1 291 1 is_stmt 0 view .LVU106
 494 0000 13B5     		push	{r0, r1, r4, lr}
 495              		.cfi_def_cfa_offset 16
 496              		.cfi_offset 4, -8
 497              		.cfi_offset 14, -4
 498              		.loc 1 293 3 view .LVU107
 499 0002 049C     		ldr	r4, [sp, #16]
 500 0004 CDE90034 		strd	r3, r4, [sp]
 501 0008 044B     		ldr	r3, .L32
 502              	.LVL21:
 503              		.loc 1 293 3 view .LVU108
 504 000a 5C68     		ldr	r4, [r3, #4]
 505 000c 1346     		mov	r3, r2
 506 000e 0A46     		mov	r2, r1
 507              	.LVL22:
 508              		.loc 1 293 3 view .LVU109
 509 0010 0146     		mov	r1, r0
 510              	.LVL23:
 511              		.loc 1 293 3 view .LVU110
 512 0012 0348     		ldr	r0, .L32+4
 513              	.LVL24:
 514              		.loc 1 293 3 view .LVU111
 515 0014 0069     		ldr	r0, [r0, #16]
 516 0016 A047     		blx	r4
 517              	.LVL25:
 294:../STM32Cube_FW_N6/Utilities/lcd/stm32_lcd.c **** }
 518              		.loc 1 294 1 view .LVU112
 519 0018 02B0     		add	sp, sp, #8
 520              		.cfi_def_cfa_offset 8
 521              		@ sp needed
 522 001a 10BD     		pop	{r4, pc}
 523              	.LVL26:
 524              	.L33:
 525              		.loc 1 294 1 view .LVU113
 526              		.align	2
 527              	.L32:
 528 001c 00000000 		.word	FuncDriver
 529 0020 00000000 		.word	DrawProp
 530              		.cfi_endproc
 531              	.LFE9:
 533              		.section	.text.UTIL_LCD_DrawHLine,"ax",%progbits
 534              		.align	1
 535              		.global	UTIL_LCD_DrawHLine
ARM GAS  /tmp/ccsDiBBo.s 			page 16


 536              		.syntax unified
 537              		.thumb
 538              		.thumb_func
 540              	UTIL_LCD_DrawHLine:
 541              	.LVL27:
 542              	.LFB10:
 295:../STM32Cube_FW_N6/Utilities/lcd/stm32_lcd.c **** 
 296:../STM32Cube_FW_N6/Utilities/lcd/stm32_lcd.c **** /**
 297:../STM32Cube_FW_N6/Utilities/lcd/stm32_lcd.c ****   * @brief  Draws an horizontal line in currently active layer.
 298:../STM32Cube_FW_N6/Utilities/lcd/stm32_lcd.c ****   * @param  Xpos    X position
 299:../STM32Cube_FW_N6/Utilities/lcd/stm32_lcd.c ****   * @param  Ypos    Y position
 300:../STM32Cube_FW_N6/Utilities/lcd/stm32_lcd.c ****   * @param  Length  Line length
 301:../STM32Cube_FW_N6/Utilities/lcd/stm32_lcd.c ****   * @param  Color   Draw color
 302:../STM32Cube_FW_N6/Utilities/lcd/stm32_lcd.c ****   */
 303:../STM32Cube_FW_N6/Utilities/lcd/stm32_lcd.c **** void UTIL_LCD_DrawHLine(uint32_t Xpos, uint32_t Ypos, uint32_t Length, uint32_t Color)
 304:../STM32Cube_FW_N6/Utilities/lcd/stm32_lcd.c **** {
 543              		.loc 1 304 1 is_stmt 1 view -0
 544              		.cfi_startproc
 545              		@ args = 0, pretend = 0, frame = 0
 546              		@ frame_needed = 0, uses_anonymous_args = 0
 305:../STM32Cube_FW_N6/Utilities/lcd/stm32_lcd.c ****   /* Write line */
 306:../STM32Cube_FW_N6/Utilities/lcd/stm32_lcd.c ****   if(DrawProp[DrawProp->LcdLayer].LcdPixelFormat == LCD_PIXEL_FORMAT_RGB565)
 547              		.loc 1 306 3 view .LVU115
 304:../STM32Cube_FW_N6/Utilities/lcd/stm32_lcd.c ****   /* Write line */
 548              		.loc 1 304 1 is_stmt 0 view .LVU116
 549 0000 F7B5     		push	{r0, r1, r2, r4, r5, r6, r7, lr}
 550              		.cfi_def_cfa_offset 32
 551              		.cfi_offset 4, -20
 552              		.cfi_offset 5, -16
 553              		.cfi_offset 6, -12
 554              		.cfi_offset 7, -8
 555              		.cfi_offset 14, -4
 304:../STM32Cube_FW_N6/Utilities/lcd/stm32_lcd.c ****   /* Write line */
 556              		.loc 1 304 1 view .LVU117
 557 0002 0646     		mov	r6, r0
 558              		.loc 1 306 34 view .LVU118
 559 0004 1748     		ldr	r0, .L41
 560              	.LVL28:
 307:../STM32Cube_FW_N6/Utilities/lcd/stm32_lcd.c ****   {
 308:../STM32Cube_FW_N6/Utilities/lcd/stm32_lcd.c ****     FuncDriver.DrawHLine(DrawProp->LcdDevice, Xpos, Ypos, Length, CONVERTARGB88882RGB565(Color));
 561              		.loc 1 308 15 view .LVU119
 562 0006 184D     		ldr	r5, .L41+4
 306:../STM32Cube_FW_N6/Utilities/lcd/stm32_lcd.c ****   {
 563              		.loc 1 306 34 view .LVU120
 564 0008 C468     		ldr	r4, [r0, #12]
 565              		.loc 1 308 15 view .LVU121
 566 000a AD68     		ldr	r5, [r5, #8]
 306:../STM32Cube_FW_N6/Utilities/lcd/stm32_lcd.c ****   {
 567              		.loc 1 306 34 view .LVU122
 568 000c 00EB4414 		add	r4, r0, r4, lsl #5
 569 0010 E469     		ldr	r4, [r4, #28]
 570              		.loc 1 308 5 view .LVU123
 571 0012 0069     		ldr	r0, [r0, #16]
 306:../STM32Cube_FW_N6/Utilities/lcd/stm32_lcd.c ****   {
 572              		.loc 1 306 5 view .LVU124
 573 0014 022C     		cmp	r4, #2
 574 0016 10D1     		bne	.L35
ARM GAS  /tmp/ccsDiBBo.s 			page 17


 575              		.loc 1 308 5 is_stmt 1 view .LVU125
 576              		.loc 1 308 67 is_stmt 0 view .LVU126
 577 0018 5C09     		lsrs	r4, r3, #5
 578 001a 1F0A     		lsrs	r7, r3, #8
 579 001c 04F4FC64 		and	r4, r4, #2016
 580 0020 07F47847 		and	r7, r7, #63488
 581 0024 3C43     		orrs	r4, r4, r7
 582 0026 C3F3C403 		ubfx	r3, r3, #3, #5
 583              	.LVL29:
 584              	.L40:
 309:../STM32Cube_FW_N6/Utilities/lcd/stm32_lcd.c ****   }
 310:../STM32Cube_FW_N6/Utilities/lcd/stm32_lcd.c ****   else if(DrawProp[DrawProp->LcdLayer].LcdPixelFormat == LCD_PIXEL_FORMAT_RGB888)
 311:../STM32Cube_FW_N6/Utilities/lcd/stm32_lcd.c ****   {
 312:../STM32Cube_FW_N6/Utilities/lcd/stm32_lcd.c ****     FuncDriver.DrawHLine(DrawProp->LcdDevice, Xpos, Ypos, Length, CONVERTARGB88882RGB888(Color));
 313:../STM32Cube_FW_N6/Utilities/lcd/stm32_lcd.c ****   }
 314:../STM32Cube_FW_N6/Utilities/lcd/stm32_lcd.c ****   else if(DrawProp[DrawProp->LcdLayer].LcdPixelFormat == LCD_PIXEL_FORMAT_ARGB4444)
 315:../STM32Cube_FW_N6/Utilities/lcd/stm32_lcd.c ****   {
 316:../STM32Cube_FW_N6/Utilities/lcd/stm32_lcd.c ****     FuncDriver.DrawHLine(DrawProp->LcdDevice, Xpos, Ypos, Length, CONVERTARGB88882ARGB4444(Color));
 585              		.loc 1 316 67 view .LVU127
 586 002a 1C43     		orrs	r4, r4, r3
 587              		.loc 1 316 5 view .LVU128
 588 002c 0094     		str	r4, [sp]
 589              	.L39:
 317:../STM32Cube_FW_N6/Utilities/lcd/stm32_lcd.c ****   }
 318:../STM32Cube_FW_N6/Utilities/lcd/stm32_lcd.c ****   else /*LCD_PIXEL_FORMAT_ARGB8888*/
 319:../STM32Cube_FW_N6/Utilities/lcd/stm32_lcd.c ****   {
 320:../STM32Cube_FW_N6/Utilities/lcd/stm32_lcd.c ****     FuncDriver.DrawHLine(DrawProp->LcdDevice, Xpos, Ypos, Length, Color);
 590              		.loc 1 320 5 view .LVU129
 591 002e 1346     		mov	r3, r2
 592 0030 0A46     		mov	r2, r1
 593              	.LVL30:
 594              		.loc 1 320 5 view .LVU130
 595 0032 3146     		mov	r1, r6
 596              	.LVL31:
 597              		.loc 1 320 5 view .LVU131
 598 0034 A847     		blx	r5
 599              	.LVL32:
 321:../STM32Cube_FW_N6/Utilities/lcd/stm32_lcd.c ****   }
 322:../STM32Cube_FW_N6/Utilities/lcd/stm32_lcd.c **** }
 600              		.loc 1 322 1 view .LVU132
 601 0036 03B0     		add	sp, sp, #12
 602              		.cfi_remember_state
 603              		.cfi_def_cfa_offset 20
 604              		@ sp needed
 605 0038 F0BD     		pop	{r4, r5, r6, r7, pc}
 606              	.LVL33:
 607              	.L35:
 608              		.cfi_restore_state
 310:../STM32Cube_FW_N6/Utilities/lcd/stm32_lcd.c ****   {
 609              		.loc 1 310 8 is_stmt 1 view .LVU133
 310:../STM32Cube_FW_N6/Utilities/lcd/stm32_lcd.c ****   {
 610              		.loc 1 310 10 is_stmt 0 view .LVU134
 611 003a 012C     		cmp	r4, #1
 612 003c 03D1     		bne	.L37
 312:../STM32Cube_FW_N6/Utilities/lcd/stm32_lcd.c ****   }
 613              		.loc 1 312 5 is_stmt 1 view .LVU135
 614 003e 23F07F43 		bic	r3, r3, #-16777216
ARM GAS  /tmp/ccsDiBBo.s 			page 18


 615              	.LVL34:
 616              	.L38:
 320:../STM32Cube_FW_N6/Utilities/lcd/stm32_lcd.c ****   }
 617              		.loc 1 320 5 view .LVU136
 618 0042 0093     		str	r3, [sp]
 619 0044 F3E7     		b	.L39
 620              	.LVL35:
 621              	.L37:
 314:../STM32Cube_FW_N6/Utilities/lcd/stm32_lcd.c ****   {
 622              		.loc 1 314 8 view .LVU137
 314:../STM32Cube_FW_N6/Utilities/lcd/stm32_lcd.c ****   {
 623              		.loc 1 314 10 is_stmt 0 view .LVU138
 624 0046 042C     		cmp	r4, #4
 625 0048 FBD1     		bne	.L38
 316:../STM32Cube_FW_N6/Utilities/lcd/stm32_lcd.c ****   }
 626              		.loc 1 316 5 is_stmt 1 view .LVU139
 316:../STM32Cube_FW_N6/Utilities/lcd/stm32_lcd.c ****   }
 627              		.loc 1 316 67 is_stmt 0 view .LVU140
 628 004a 1F0F     		lsrs	r7, r3, #28
 629 004c C3F30314 		ubfx	r4, r3, #4, #4
 630 0050 44EA0734 		orr	r4, r4, r7, lsl #12
 631 0054 1F0A     		lsrs	r7, r3, #8
 632 0056 07F0F007 		and	r7, r7, #240
 633 005a 1B0B     		lsrs	r3, r3, #12
 634              	.LVL36:
 316:../STM32Cube_FW_N6/Utilities/lcd/stm32_lcd.c ****   }
 635              		.loc 1 316 67 view .LVU141
 636 005c 3C43     		orrs	r4, r4, r7
 637 005e 03F47063 		and	r3, r3, #3840
 638 0062 E2E7     		b	.L40
 639              	.L42:
 640              		.align	2
 641              	.L41:
 642 0064 00000000 		.word	DrawProp
 643 0068 00000000 		.word	FuncDriver
 644              		.cfi_endproc
 645              	.LFE10:
 647              		.section	.text.UTIL_LCD_DrawVLine,"ax",%progbits
 648              		.align	1
 649              		.global	UTIL_LCD_DrawVLine
 650              		.syntax unified
 651              		.thumb
 652              		.thumb_func
 654              	UTIL_LCD_DrawVLine:
 655              	.LVL37:
 656              	.LFB11:
 323:../STM32Cube_FW_N6/Utilities/lcd/stm32_lcd.c **** 
 324:../STM32Cube_FW_N6/Utilities/lcd/stm32_lcd.c **** /**
 325:../STM32Cube_FW_N6/Utilities/lcd/stm32_lcd.c ****   * @brief  Draws a vertical line in currently active layer.
 326:../STM32Cube_FW_N6/Utilities/lcd/stm32_lcd.c ****   * @param  Xpos    X position
 327:../STM32Cube_FW_N6/Utilities/lcd/stm32_lcd.c ****   * @param  Ypos    Y position
 328:../STM32Cube_FW_N6/Utilities/lcd/stm32_lcd.c ****   * @param  Length  Line length
 329:../STM32Cube_FW_N6/Utilities/lcd/stm32_lcd.c ****   * @param  Color   Draw color
 330:../STM32Cube_FW_N6/Utilities/lcd/stm32_lcd.c ****   */
 331:../STM32Cube_FW_N6/Utilities/lcd/stm32_lcd.c **** void UTIL_LCD_DrawVLine(uint32_t Xpos, uint32_t Ypos, uint32_t Length, uint32_t Color)
 332:../STM32Cube_FW_N6/Utilities/lcd/stm32_lcd.c **** {
 657              		.loc 1 332 1 is_stmt 1 view -0
ARM GAS  /tmp/ccsDiBBo.s 			page 19


 658              		.cfi_startproc
 659              		@ args = 0, pretend = 0, frame = 0
 660              		@ frame_needed = 0, uses_anonymous_args = 0
 333:../STM32Cube_FW_N6/Utilities/lcd/stm32_lcd.c ****   /* Write line */
 334:../STM32Cube_FW_N6/Utilities/lcd/stm32_lcd.c ****   if(DrawProp[DrawProp->LcdLayer].LcdPixelFormat == LCD_PIXEL_FORMAT_RGB565)
 661              		.loc 1 334 3 view .LVU143
 332:../STM32Cube_FW_N6/Utilities/lcd/stm32_lcd.c ****   /* Write line */
 662              		.loc 1 332 1 is_stmt 0 view .LVU144
 663 0000 F7B5     		push	{r0, r1, r2, r4, r5, r6, r7, lr}
 664              		.cfi_def_cfa_offset 32
 665              		.cfi_offset 4, -20
 666              		.cfi_offset 5, -16
 667              		.cfi_offset 6, -12
 668              		.cfi_offset 7, -8
 669              		.cfi_offset 14, -4
 332:../STM32Cube_FW_N6/Utilities/lcd/stm32_lcd.c ****   /* Write line */
 670              		.loc 1 332 1 view .LVU145
 671 0002 0646     		mov	r6, r0
 672              		.loc 1 334 34 view .LVU146
 673 0004 1748     		ldr	r0, .L50
 674              	.LVL38:
 335:../STM32Cube_FW_N6/Utilities/lcd/stm32_lcd.c ****   {
 336:../STM32Cube_FW_N6/Utilities/lcd/stm32_lcd.c ****     FuncDriver.DrawVLine(DrawProp->LcdDevice, Xpos, Ypos, Length, CONVERTARGB88882RGB565(Color));
 675              		.loc 1 336 15 view .LVU147
 676 0006 184D     		ldr	r5, .L50+4
 334:../STM32Cube_FW_N6/Utilities/lcd/stm32_lcd.c ****   {
 677              		.loc 1 334 34 view .LVU148
 678 0008 C468     		ldr	r4, [r0, #12]
 679              		.loc 1 336 15 view .LVU149
 680 000a ED68     		ldr	r5, [r5, #12]
 334:../STM32Cube_FW_N6/Utilities/lcd/stm32_lcd.c ****   {
 681              		.loc 1 334 34 view .LVU150
 682 000c 00EB4414 		add	r4, r0, r4, lsl #5
 683 0010 E469     		ldr	r4, [r4, #28]
 684              		.loc 1 336 5 view .LVU151
 685 0012 0069     		ldr	r0, [r0, #16]
 334:../STM32Cube_FW_N6/Utilities/lcd/stm32_lcd.c ****   {
 686              		.loc 1 334 5 view .LVU152
 687 0014 022C     		cmp	r4, #2
 688 0016 10D1     		bne	.L44
 689              		.loc 1 336 5 is_stmt 1 view .LVU153
 690              		.loc 1 336 67 is_stmt 0 view .LVU154
 691 0018 5C09     		lsrs	r4, r3, #5
 692 001a 1F0A     		lsrs	r7, r3, #8
 693 001c 04F4FC64 		and	r4, r4, #2016
 694 0020 07F47847 		and	r7, r7, #63488
 695 0024 3C43     		orrs	r4, r4, r7
 696 0026 C3F3C403 		ubfx	r3, r3, #3, #5
 697              	.LVL39:
 698              	.L49:
 337:../STM32Cube_FW_N6/Utilities/lcd/stm32_lcd.c ****   }
 338:../STM32Cube_FW_N6/Utilities/lcd/stm32_lcd.c ****   else if(DrawProp[DrawProp->LcdLayer].LcdPixelFormat == LCD_PIXEL_FORMAT_RGB888)
 339:../STM32Cube_FW_N6/Utilities/lcd/stm32_lcd.c ****   {
 340:../STM32Cube_FW_N6/Utilities/lcd/stm32_lcd.c ****     FuncDriver.DrawVLine(DrawProp->LcdDevice, Xpos, Ypos, Length, CONVERTARGB88882RGB888(Color));
 341:../STM32Cube_FW_N6/Utilities/lcd/stm32_lcd.c ****   }
 342:../STM32Cube_FW_N6/Utilities/lcd/stm32_lcd.c ****   else if(DrawProp[DrawProp->LcdLayer].LcdPixelFormat == LCD_PIXEL_FORMAT_ARGB4444)
 343:../STM32Cube_FW_N6/Utilities/lcd/stm32_lcd.c ****   {
ARM GAS  /tmp/ccsDiBBo.s 			page 20


 344:../STM32Cube_FW_N6/Utilities/lcd/stm32_lcd.c ****     FuncDriver.DrawVLine(DrawProp->LcdDevice, Xpos, Ypos, Length, CONVERTARGB88882ARGB4444(Color));
 699              		.loc 1 344 67 view .LVU155
 700 002a 1C43     		orrs	r4, r4, r3
 701              		.loc 1 344 5 view .LVU156
 702 002c 0094     		str	r4, [sp]
 703              	.L48:
 345:../STM32Cube_FW_N6/Utilities/lcd/stm32_lcd.c ****   }
 346:../STM32Cube_FW_N6/Utilities/lcd/stm32_lcd.c ****   else /*LCD_PIXEL_FORMAT_ARGB888*/
 347:../STM32Cube_FW_N6/Utilities/lcd/stm32_lcd.c ****   {
 348:../STM32Cube_FW_N6/Utilities/lcd/stm32_lcd.c ****     FuncDriver.DrawVLine(DrawProp->LcdDevice, Xpos, Ypos, Length, Color);
 704              		.loc 1 348 5 view .LVU157
 705 002e 1346     		mov	r3, r2
 706 0030 0A46     		mov	r2, r1
 707              	.LVL40:
 708              		.loc 1 348 5 view .LVU158
 709 0032 3146     		mov	r1, r6
 710              	.LVL41:
 711              		.loc 1 348 5 view .LVU159
 712 0034 A847     		blx	r5
 713              	.LVL42:
 349:../STM32Cube_FW_N6/Utilities/lcd/stm32_lcd.c ****   }
 350:../STM32Cube_FW_N6/Utilities/lcd/stm32_lcd.c **** }
 714              		.loc 1 350 1 view .LVU160
 715 0036 03B0     		add	sp, sp, #12
 716              		.cfi_remember_state
 717              		.cfi_def_cfa_offset 20
 718              		@ sp needed
 719 0038 F0BD     		pop	{r4, r5, r6, r7, pc}
 720              	.LVL43:
 721              	.L44:
 722              		.cfi_restore_state
 338:../STM32Cube_FW_N6/Utilities/lcd/stm32_lcd.c ****   {
 723              		.loc 1 338 8 is_stmt 1 view .LVU161
 338:../STM32Cube_FW_N6/Utilities/lcd/stm32_lcd.c ****   {
 724              		.loc 1 338 10 is_stmt 0 view .LVU162
 725 003a 012C     		cmp	r4, #1
 726 003c 03D1     		bne	.L46
 340:../STM32Cube_FW_N6/Utilities/lcd/stm32_lcd.c ****   }
 727              		.loc 1 340 5 is_stmt 1 view .LVU163
 728 003e 23F07F43 		bic	r3, r3, #-16777216
 729              	.LVL44:
 730              	.L47:
 348:../STM32Cube_FW_N6/Utilities/lcd/stm32_lcd.c ****   }
 731              		.loc 1 348 5 view .LVU164
 732 0042 0093     		str	r3, [sp]
 733 0044 F3E7     		b	.L48
 734              	.LVL45:
 735              	.L46:
 342:../STM32Cube_FW_N6/Utilities/lcd/stm32_lcd.c ****   {
 736              		.loc 1 342 8 view .LVU165
 342:../STM32Cube_FW_N6/Utilities/lcd/stm32_lcd.c ****   {
 737              		.loc 1 342 10 is_stmt 0 view .LVU166
 738 0046 042C     		cmp	r4, #4
 739 0048 FBD1     		bne	.L47
 344:../STM32Cube_FW_N6/Utilities/lcd/stm32_lcd.c ****   }
 740              		.loc 1 344 5 is_stmt 1 view .LVU167
 344:../STM32Cube_FW_N6/Utilities/lcd/stm32_lcd.c ****   }
ARM GAS  /tmp/ccsDiBBo.s 			page 21


 741              		.loc 1 344 67 is_stmt 0 view .LVU168
 742 004a 1F0F     		lsrs	r7, r3, #28
 743 004c C3F30314 		ubfx	r4, r3, #4, #4
 744 0050 44EA0734 		orr	r4, r4, r7, lsl #12
 745 0054 1F0A     		lsrs	r7, r3, #8
 746 0056 07F0F007 		and	r7, r7, #240
 747 005a 1B0B     		lsrs	r3, r3, #12
 748              	.LVL46:
 344:../STM32Cube_FW_N6/Utilities/lcd/stm32_lcd.c ****   }
 749              		.loc 1 344 67 view .LVU169
 750 005c 3C43     		orrs	r4, r4, r7
 751 005e 03F47063 		and	r3, r3, #3840
 752 0062 E2E7     		b	.L49
 753              	.L51:
 754              		.align	2
 755              	.L50:
 756 0064 00000000 		.word	DrawProp
 757 0068 00000000 		.word	FuncDriver
 758              		.cfi_endproc
 759              	.LFE11:
 761              		.section	.text.UTIL_LCD_GetPixel,"ax",%progbits
 762              		.align	1
 763              		.global	UTIL_LCD_GetPixel
 764              		.syntax unified
 765              		.thumb
 766              		.thumb_func
 768              	UTIL_LCD_GetPixel:
 769              	.LVL47:
 770              	.LFB12:
 351:../STM32Cube_FW_N6/Utilities/lcd/stm32_lcd.c **** 
 352:../STM32Cube_FW_N6/Utilities/lcd/stm32_lcd.c **** /**
 353:../STM32Cube_FW_N6/Utilities/lcd/stm32_lcd.c ****   * @brief  Read an LCD pixel.
 354:../STM32Cube_FW_N6/Utilities/lcd/stm32_lcd.c ****   * @param  Xpos     X position
 355:../STM32Cube_FW_N6/Utilities/lcd/stm32_lcd.c ****   * @param  Ypos     Y position
 356:../STM32Cube_FW_N6/Utilities/lcd/stm32_lcd.c ****   * @retval Color    pixel color
 357:../STM32Cube_FW_N6/Utilities/lcd/stm32_lcd.c ****   */
 358:../STM32Cube_FW_N6/Utilities/lcd/stm32_lcd.c **** void UTIL_LCD_GetPixel(uint16_t Xpos, uint16_t Ypos, uint32_t *Color)
 359:../STM32Cube_FW_N6/Utilities/lcd/stm32_lcd.c **** {
 771              		.loc 1 359 1 is_stmt 1 view -0
 772              		.cfi_startproc
 773              		@ args = 0, pretend = 0, frame = 0
 774              		@ frame_needed = 0, uses_anonymous_args = 0
 360:../STM32Cube_FW_N6/Utilities/lcd/stm32_lcd.c ****   /* Get Pixel */
 361:../STM32Cube_FW_N6/Utilities/lcd/stm32_lcd.c ****   FuncDriver.GetPixel(DrawProp->LcdDevice, Xpos, Ypos, Color);
 775              		.loc 1 361 3 view .LVU171
 359:../STM32Cube_FW_N6/Utilities/lcd/stm32_lcd.c ****   /* Get Pixel */
 776              		.loc 1 359 1 is_stmt 0 view .LVU172
 777 0000 70B5     		push	{r4, r5, r6, lr}
 778              		.cfi_def_cfa_offset 16
 779              		.cfi_offset 4, -16
 780              		.cfi_offset 5, -12
 781              		.cfi_offset 6, -8
 782              		.cfi_offset 14, -4
 783              		.loc 1 361 13 view .LVU173
 784 0002 264B     		ldr	r3, .L57
 785              		.loc 1 361 3 view .LVU174
 786 0004 264D     		ldr	r5, .L57+4
ARM GAS  /tmp/ccsDiBBo.s 			page 22


 787 0006 5E69     		ldr	r6, [r3, #20]
 359:../STM32Cube_FW_N6/Utilities/lcd/stm32_lcd.c ****   /* Get Pixel */
 788              		.loc 1 359 1 view .LVU175
 789 0008 1446     		mov	r4, r2
 790              		.loc 1 361 3 view .LVU176
 791 000a 1346     		mov	r3, r2
 792 000c 0A46     		mov	r2, r1
 793              	.LVL48:
 794              		.loc 1 361 3 view .LVU177
 795 000e 0146     		mov	r1, r0
 796              	.LVL49:
 797              		.loc 1 361 3 view .LVU178
 798 0010 2869     		ldr	r0, [r5, #16]
 799              	.LVL50:
 800              		.loc 1 361 3 view .LVU179
 801 0012 B047     		blx	r6
 802              	.LVL51:
 362:../STM32Cube_FW_N6/Utilities/lcd/stm32_lcd.c ****   if(DrawProp[DrawProp->LcdLayer].LcdPixelFormat == LCD_PIXEL_FORMAT_RGB565)
 803              		.loc 1 362 3 is_stmt 1 view .LVU180
 804              		.loc 1 362 34 is_stmt 0 view .LVU181
 805 0014 EB68     		ldr	r3, [r5, #12]
 806 0016 05EB4315 		add	r5, r5, r3, lsl #5
 807 001a EB69     		ldr	r3, [r5, #28]
 808              		.loc 1 362 5 view .LVU182
 809 001c 022B     		cmp	r3, #2
 810 001e 1BD1     		bne	.L53
 363:../STM32Cube_FW_N6/Utilities/lcd/stm32_lcd.c ****   {
 364:../STM32Cube_FW_N6/Utilities/lcd/stm32_lcd.c ****     *Color = CONVERTRGB5652ARGB8888(*Color);
 811              		.loc 1 364 5 is_stmt 1 view .LVU183
 812              		.loc 1 364 14 is_stmt 0 view .LVU184
 813 0020 40F20315 		movw	r5, #259
 814 0024 40F20F20 		movw	r0, #527
 815 0028 2368     		ldr	r3, [r4]
 816 002a C3F34511 		ubfx	r1, r3, #5, #6
 817 002e C3F3C422 		ubfx	r2, r3, #11, #5
 818 0032 6943     		muls	r1, r5, r1
 819 0034 4243     		muls	r2, r0, r2
 820 0036 03F01F03 		and	r3, r3, #31
 821 003a 4343     		muls	r3, r0, r3
 822 003c 2131     		adds	r1, r1, #33
 823 003e 1732     		adds	r2, r2, #23
 824 0040 8909     		lsrs	r1, r1, #6
 825 0042 9209     		lsrs	r2, r2, #6
 826 0044 0902     		lsls	r1, r1, #8
 827 0046 41EA0241 		orr	r1, r1, r2, lsl #16
 828 004a 1733     		adds	r3, r3, #23
 829 004c 41EA9311 		orr	r1, r1, r3, lsr #6
 830 0050 41F07F41 		orr	r1, r1, #-16777216
 831              		.loc 1 364 12 view .LVU185
 832 0054 2160     		str	r1, [r4]
 833              	.L52:
 365:../STM32Cube_FW_N6/Utilities/lcd/stm32_lcd.c ****   }
 366:../STM32Cube_FW_N6/Utilities/lcd/stm32_lcd.c ****   else if(DrawProp[DrawProp->LcdLayer].LcdPixelFormat == LCD_PIXEL_FORMAT_RGB888)
 367:../STM32Cube_FW_N6/Utilities/lcd/stm32_lcd.c ****   {
 368:../STM32Cube_FW_N6/Utilities/lcd/stm32_lcd.c ****     *Color = CONVERTRGB8882ARGB8888(*Color);
 369:../STM32Cube_FW_N6/Utilities/lcd/stm32_lcd.c ****   }
 370:../STM32Cube_FW_N6/Utilities/lcd/stm32_lcd.c ****   else if(DrawProp[DrawProp->LcdLayer].LcdPixelFormat == LCD_PIXEL_FORMAT_ARGB4444)
ARM GAS  /tmp/ccsDiBBo.s 			page 23


 371:../STM32Cube_FW_N6/Utilities/lcd/stm32_lcd.c ****   {
 372:../STM32Cube_FW_N6/Utilities/lcd/stm32_lcd.c ****     *Color = CONVERTARGB44442ARGB8888(*Color);
 373:../STM32Cube_FW_N6/Utilities/lcd/stm32_lcd.c ****   }
 374:../STM32Cube_FW_N6/Utilities/lcd/stm32_lcd.c **** }
 834              		.loc 1 374 1 view .LVU186
 835 0056 70BD     		pop	{r4, r5, r6, pc}
 836              	.LVL52:
 837              	.L53:
 366:../STM32Cube_FW_N6/Utilities/lcd/stm32_lcd.c ****   {
 838              		.loc 1 366 8 is_stmt 1 view .LVU187
 366:../STM32Cube_FW_N6/Utilities/lcd/stm32_lcd.c ****   {
 839              		.loc 1 366 10 is_stmt 0 view .LVU188
 840 0058 012B     		cmp	r3, #1
 841 005a 04D1     		bne	.L55
 368:../STM32Cube_FW_N6/Utilities/lcd/stm32_lcd.c ****   }
 842              		.loc 1 368 5 is_stmt 1 view .LVU189
 368:../STM32Cube_FW_N6/Utilities/lcd/stm32_lcd.c ****   }
 843              		.loc 1 368 14 is_stmt 0 view .LVU190
 844 005c 2368     		ldr	r3, [r4]
 845 005e 43F07F43 		orr	r3, r3, #-16777216
 846              	.L56:
 372:../STM32Cube_FW_N6/Utilities/lcd/stm32_lcd.c ****   }
 847              		.loc 1 372 12 view .LVU191
 848 0062 2360     		str	r3, [r4]
 849              		.loc 1 374 1 view .LVU192
 850 0064 F7E7     		b	.L52
 851              	.L55:
 370:../STM32Cube_FW_N6/Utilities/lcd/stm32_lcd.c ****   {
 852              		.loc 1 370 8 is_stmt 1 view .LVU193
 370:../STM32Cube_FW_N6/Utilities/lcd/stm32_lcd.c ****   {
 853              		.loc 1 370 10 is_stmt 0 view .LVU194
 854 0066 042B     		cmp	r3, #4
 855 0068 F5D1     		bne	.L52
 372:../STM32Cube_FW_N6/Utilities/lcd/stm32_lcd.c ****   }
 856              		.loc 1 372 5 is_stmt 1 view .LVU195
 372:../STM32Cube_FW_N6/Utilities/lcd/stm32_lcd.c ****   }
 857              		.loc 1 372 14 is_stmt 0 view .LVU196
 858 006a 2268     		ldr	r2, [r4]
 859 006c C2F30333 		ubfx	r3, r2, #12, #4
 860 0070 03EB0311 		add	r1, r3, r3, lsl #4
 861 0074 C2F30323 		ubfx	r3, r2, #8, #4
 862 0078 03EB0313 		add	r3, r3, r3, lsl #4
 863 007c 1B04     		lsls	r3, r3, #16
 864 007e 43EA0163 		orr	r3, r3, r1, lsl #24
 865 0082 02F00F01 		and	r1, r2, #15
 866 0086 01EB0111 		add	r1, r1, r1, lsl #4
 867 008a 0B43     		orrs	r3, r3, r1
 868 008c C2F30311 		ubfx	r1, r2, #4, #4
 869 0090 02F0F002 		and	r2, r2, #240
 870 0094 0A44     		add	r2, r2, r1
 871 0096 43EA0223 		orr	r3, r3, r2, lsl #8
 872 009a E2E7     		b	.L56
 873              	.L58:
 874              		.align	2
 875              	.L57:
 876 009c 00000000 		.word	FuncDriver
 877 00a0 00000000 		.word	DrawProp
ARM GAS  /tmp/ccsDiBBo.s 			page 24


 878              		.cfi_endproc
 879              	.LFE12:
 881              		.section	.text.UTIL_LCD_SetPixel,"ax",%progbits
 882              		.align	1
 883              		.global	UTIL_LCD_SetPixel
 884              		.syntax unified
 885              		.thumb
 886              		.thumb_func
 888              	UTIL_LCD_SetPixel:
 889              	.LVL53:
 890              	.LFB13:
 375:../STM32Cube_FW_N6/Utilities/lcd/stm32_lcd.c **** 
 376:../STM32Cube_FW_N6/Utilities/lcd/stm32_lcd.c **** /**
 377:../STM32Cube_FW_N6/Utilities/lcd/stm32_lcd.c ****   * @brief  Draws a pixel on LCD.
 378:../STM32Cube_FW_N6/Utilities/lcd/stm32_lcd.c ****   * @param  Xpos     X position
 379:../STM32Cube_FW_N6/Utilities/lcd/stm32_lcd.c ****   * @param  Ypos     Y position
 380:../STM32Cube_FW_N6/Utilities/lcd/stm32_lcd.c ****   * @param  Color    Pixel color
 381:../STM32Cube_FW_N6/Utilities/lcd/stm32_lcd.c ****   */
 382:../STM32Cube_FW_N6/Utilities/lcd/stm32_lcd.c **** void UTIL_LCD_SetPixel(uint16_t Xpos, uint16_t Ypos, uint32_t Color)
 383:../STM32Cube_FW_N6/Utilities/lcd/stm32_lcd.c **** {
 891              		.loc 1 383 1 is_stmt 1 view -0
 892              		.cfi_startproc
 893              		@ args = 0, pretend = 0, frame = 0
 894              		@ frame_needed = 0, uses_anonymous_args = 0
 895              		@ link register save eliminated.
 384:../STM32Cube_FW_N6/Utilities/lcd/stm32_lcd.c ****   /* Set Pixel */
 385:../STM32Cube_FW_N6/Utilities/lcd/stm32_lcd.c ****   if(DrawProp[DrawProp->LcdLayer].LcdPixelFormat == LCD_PIXEL_FORMAT_RGB565)
 896              		.loc 1 385 3 view .LVU198
 383:../STM32Cube_FW_N6/Utilities/lcd/stm32_lcd.c ****   /* Set Pixel */
 897              		.loc 1 383 1 is_stmt 0 view .LVU199
 898 0000 70B4     		push	{r4, r5, r6}
 899              		.cfi_def_cfa_offset 12
 900              		.cfi_offset 4, -12
 901              		.cfi_offset 5, -8
 902              		.cfi_offset 6, -4
 383:../STM32Cube_FW_N6/Utilities/lcd/stm32_lcd.c ****   /* Set Pixel */
 903              		.loc 1 383 1 view .LVU200
 904 0002 0646     		mov	r6, r0
 905              		.loc 1 385 34 view .LVU201
 906 0004 1648     		ldr	r0, .L64
 907              	.LVL54:
 383:../STM32Cube_FW_N6/Utilities/lcd/stm32_lcd.c ****   /* Set Pixel */
 908              		.loc 1 383 1 view .LVU202
 909 0006 1346     		mov	r3, r2
 910              		.loc 1 385 34 view .LVU203
 911 0008 C268     		ldr	r2, [r0, #12]
 912              	.LVL55:
 386:../STM32Cube_FW_N6/Utilities/lcd/stm32_lcd.c ****   {
 387:../STM32Cube_FW_N6/Utilities/lcd/stm32_lcd.c ****     FuncDriver.SetPixel(DrawProp->LcdDevice, Xpos, Ypos, CONVERTARGB88882RGB565(Color));
 913              		.loc 1 387 15 view .LVU204
 914 000a 164C     		ldr	r4, .L64+4
 385:../STM32Cube_FW_N6/Utilities/lcd/stm32_lcd.c ****   {
 915              		.loc 1 385 34 view .LVU205
 916 000c 00EB4212 		add	r2, r0, r2, lsl #5
 917 0010 D269     		ldr	r2, [r2, #28]
 918              		.loc 1 387 15 view .LVU206
 919 0012 A569     		ldr	r5, [r4, #24]
ARM GAS  /tmp/ccsDiBBo.s 			page 25


 385:../STM32Cube_FW_N6/Utilities/lcd/stm32_lcd.c ****   {
 920              		.loc 1 385 5 view .LVU207
 921 0014 022A     		cmp	r2, #2
 922              		.loc 1 387 5 view .LVU208
 923 0016 0069     		ldr	r0, [r0, #16]
 385:../STM32Cube_FW_N6/Utilities/lcd/stm32_lcd.c ****   {
 924              		.loc 1 385 5 view .LVU209
 925 0018 0AD1     		bne	.L60
 926              		.loc 1 387 5 is_stmt 1 view .LVU210
 927              		.loc 1 387 58 is_stmt 0 view .LVU211
 928 001a 5C09     		lsrs	r4, r3, #5
 929 001c 1A0A     		lsrs	r2, r3, #8
 930 001e 04F4FC64 		and	r4, r4, #2016
 931 0022 02F47842 		and	r2, r2, #63488
 932 0026 1443     		orrs	r4, r4, r2
 933 0028 C3F3C403 		ubfx	r3, r3, #3, #5
 934              	.LVL56:
 935              	.L63:
 388:../STM32Cube_FW_N6/Utilities/lcd/stm32_lcd.c ****   }
 389:../STM32Cube_FW_N6/Utilities/lcd/stm32_lcd.c ****   else if(DrawProp[DrawProp->LcdLayer].LcdPixelFormat == LCD_PIXEL_FORMAT_RGB888)
 390:../STM32Cube_FW_N6/Utilities/lcd/stm32_lcd.c ****   {
 391:../STM32Cube_FW_N6/Utilities/lcd/stm32_lcd.c ****     FuncDriver.SetPixel(DrawProp->LcdDevice, Xpos, Ypos, CONVERTARGB88882RGB888(Color));
 392:../STM32Cube_FW_N6/Utilities/lcd/stm32_lcd.c ****   }
 393:../STM32Cube_FW_N6/Utilities/lcd/stm32_lcd.c ****   else if(DrawProp[DrawProp->LcdLayer].LcdPixelFormat == LCD_PIXEL_FORMAT_ARGB4444)
 394:../STM32Cube_FW_N6/Utilities/lcd/stm32_lcd.c ****   {
 395:../STM32Cube_FW_N6/Utilities/lcd/stm32_lcd.c ****     FuncDriver.SetPixel(DrawProp->LcdDevice, Xpos, Ypos, CONVERTARGB88882ARGB4444(Color));
 936              		.loc 1 395 5 view .LVU212
 937 002c 2343     		orrs	r3, r3, r4
 938 002e 03E0     		b	.L62
 939              	.LVL57:
 940              	.L60:
 389:../STM32Cube_FW_N6/Utilities/lcd/stm32_lcd.c ****   {
 941              		.loc 1 389 8 is_stmt 1 view .LVU213
 389:../STM32Cube_FW_N6/Utilities/lcd/stm32_lcd.c ****   {
 942              		.loc 1 389 10 is_stmt 0 view .LVU214
 943 0030 012A     		cmp	r2, #1
 944 0032 06D1     		bne	.L61
 391:../STM32Cube_FW_N6/Utilities/lcd/stm32_lcd.c ****   }
 945              		.loc 1 391 5 is_stmt 1 view .LVU215
 946 0034 23F07F43 		bic	r3, r3, #-16777216
 947              	.LVL58:
 948              	.L62:
 396:../STM32Cube_FW_N6/Utilities/lcd/stm32_lcd.c ****   }
 397:../STM32Cube_FW_N6/Utilities/lcd/stm32_lcd.c ****   else /*LCD_PIXEL_FORMAT_ARGB888*/
 398:../STM32Cube_FW_N6/Utilities/lcd/stm32_lcd.c ****   {
 399:../STM32Cube_FW_N6/Utilities/lcd/stm32_lcd.c ****     FuncDriver.SetPixel(DrawProp->LcdDevice, Xpos, Ypos, Color);
 949              		.loc 1 399 5 view .LVU216
 950 0038 0A46     		mov	r2, r1
 951 003a AC46     		mov	ip, r5
 952 003c 3146     		mov	r1, r6
 953              	.LVL59:
 400:../STM32Cube_FW_N6/Utilities/lcd/stm32_lcd.c ****   }
 401:../STM32Cube_FW_N6/Utilities/lcd/stm32_lcd.c **** }
 954              		.loc 1 401 1 is_stmt 0 view .LVU217
 955 003e 70BC     		pop	{r4, r5, r6}
 956              		.cfi_remember_state
 957              		.cfi_restore 6
ARM GAS  /tmp/ccsDiBBo.s 			page 26


 958              		.cfi_restore 5
 959              		.cfi_restore 4
 960              		.cfi_def_cfa_offset 0
 961              	.LVL60:
 399:../STM32Cube_FW_N6/Utilities/lcd/stm32_lcd.c ****   }
 962              		.loc 1 399 5 view .LVU218
 963 0040 6047     		bx	ip
 964              	.LVL61:
 965              	.L61:
 966              		.cfi_restore_state
 393:../STM32Cube_FW_N6/Utilities/lcd/stm32_lcd.c ****   {
 967              		.loc 1 393 8 is_stmt 1 view .LVU219
 393:../STM32Cube_FW_N6/Utilities/lcd/stm32_lcd.c ****   {
 968              		.loc 1 393 10 is_stmt 0 view .LVU220
 969 0042 042A     		cmp	r2, #4
 970 0044 F8D1     		bne	.L62
 395:../STM32Cube_FW_N6/Utilities/lcd/stm32_lcd.c ****   }
 971              		.loc 1 395 5 is_stmt 1 view .LVU221
 395:../STM32Cube_FW_N6/Utilities/lcd/stm32_lcd.c ****   }
 972              		.loc 1 395 58 is_stmt 0 view .LVU222
 973 0046 1A0F     		lsrs	r2, r3, #28
 974 0048 C3F30314 		ubfx	r4, r3, #4, #4
 975 004c 44EA0234 		orr	r4, r4, r2, lsl #12
 976 0050 1A0A     		lsrs	r2, r3, #8
 977 0052 02F0F002 		and	r2, r2, #240
 978 0056 1B0B     		lsrs	r3, r3, #12
 979              	.LVL62:
 395:../STM32Cube_FW_N6/Utilities/lcd/stm32_lcd.c ****   }
 980              		.loc 1 395 58 view .LVU223
 981 0058 1443     		orrs	r4, r4, r2
 982 005a 03F47063 		and	r3, r3, #3840
 983 005e E5E7     		b	.L63
 984              	.L65:
 985              		.align	2
 986              	.L64:
 987 0060 00000000 		.word	DrawProp
 988 0064 00000000 		.word	FuncDriver
 989              		.cfi_endproc
 990              	.LFE13:
 992              		.section	.text.UTIL_LCD_DisplayChar,"ax",%progbits
 993              		.align	1
 994              		.global	UTIL_LCD_DisplayChar
 995              		.syntax unified
 996              		.thumb
 997              		.thumb_func
 999              	UTIL_LCD_DisplayChar:
 1000              	.LVL63:
 1001              	.LFB16:
 402:../STM32Cube_FW_N6/Utilities/lcd/stm32_lcd.c **** 
 403:../STM32Cube_FW_N6/Utilities/lcd/stm32_lcd.c **** /**
 404:../STM32Cube_FW_N6/Utilities/lcd/stm32_lcd.c ****   * @brief  Clears the whole currently active layer of LTDC.
 405:../STM32Cube_FW_N6/Utilities/lcd/stm32_lcd.c ****   * @param  Color  Color of the background
 406:../STM32Cube_FW_N6/Utilities/lcd/stm32_lcd.c ****   */
 407:../STM32Cube_FW_N6/Utilities/lcd/stm32_lcd.c **** void UTIL_LCD_Clear(uint32_t Color)
 408:../STM32Cube_FW_N6/Utilities/lcd/stm32_lcd.c **** {
 409:../STM32Cube_FW_N6/Utilities/lcd/stm32_lcd.c ****   /* Clear the LCD */
 410:../STM32Cube_FW_N6/Utilities/lcd/stm32_lcd.c ****   UTIL_LCD_FillRect(0, 0, DrawProp[DrawProp->LcdLayer].LcdXsize, DrawProp[DrawProp->LcdLayer].LcdYs
ARM GAS  /tmp/ccsDiBBo.s 			page 27


 411:../STM32Cube_FW_N6/Utilities/lcd/stm32_lcd.c **** }
 412:../STM32Cube_FW_N6/Utilities/lcd/stm32_lcd.c **** 
 413:../STM32Cube_FW_N6/Utilities/lcd/stm32_lcd.c **** /**
 414:../STM32Cube_FW_N6/Utilities/lcd/stm32_lcd.c ****   * @brief  Clears the selected line in currently active layer.
 415:../STM32Cube_FW_N6/Utilities/lcd/stm32_lcd.c ****   * @param  Line  Line to be cleared
 416:../STM32Cube_FW_N6/Utilities/lcd/stm32_lcd.c ****   */
 417:../STM32Cube_FW_N6/Utilities/lcd/stm32_lcd.c **** void UTIL_LCD_ClearStringLine(uint32_t Line)
 418:../STM32Cube_FW_N6/Utilities/lcd/stm32_lcd.c **** {
 419:../STM32Cube_FW_N6/Utilities/lcd/stm32_lcd.c ****   /* Draw rectangle with background color */
 420:../STM32Cube_FW_N6/Utilities/lcd/stm32_lcd.c ****   UTIL_LCD_FillRect(0, (Line * DrawProp[DrawProp->LcdLayer].pFont->Height), DrawProp[DrawProp->LcdL
 421:../STM32Cube_FW_N6/Utilities/lcd/stm32_lcd.c **** }
 422:../STM32Cube_FW_N6/Utilities/lcd/stm32_lcd.c **** 
 423:../STM32Cube_FW_N6/Utilities/lcd/stm32_lcd.c **** /**
 424:../STM32Cube_FW_N6/Utilities/lcd/stm32_lcd.c ****   * @brief  Displays one character in currently active layer.
 425:../STM32Cube_FW_N6/Utilities/lcd/stm32_lcd.c ****   * @param  Xpos Start column address
 426:../STM32Cube_FW_N6/Utilities/lcd/stm32_lcd.c ****   * @param  Ypos Line where to display the character shape.
 427:../STM32Cube_FW_N6/Utilities/lcd/stm32_lcd.c ****   * @param  Ascii Character ascii code
 428:../STM32Cube_FW_N6/Utilities/lcd/stm32_lcd.c ****   *           This parameter must be a number between Min_Data = 0x20 and Max_Data = 0x7E
 429:../STM32Cube_FW_N6/Utilities/lcd/stm32_lcd.c ****   */
 430:../STM32Cube_FW_N6/Utilities/lcd/stm32_lcd.c **** void UTIL_LCD_DisplayChar(uint32_t Xpos, uint32_t Ypos, uint8_t Ascii)
 431:../STM32Cube_FW_N6/Utilities/lcd/stm32_lcd.c **** {
 1002              		.loc 1 431 1 is_stmt 1 view -0
 1003              		.cfi_startproc
 1004              		@ args = 0, pretend = 0, frame = 128
 1005              		@ frame_needed = 0, uses_anonymous_args = 0
 432:../STM32Cube_FW_N6/Utilities/lcd/stm32_lcd.c ****   DrawChar(Xpos, Ypos, &DrawProp[DrawProp->LcdLayer].pFont->table[(Ascii-' ') *\
 1006              		.loc 1 432 3 view .LVU225
 431:../STM32Cube_FW_N6/Utilities/lcd/stm32_lcd.c ****   DrawChar(Xpos, Ypos, &DrawProp[DrawProp->LcdLayer].pFont->table[(Ascii-' ') *\
 1007              		.loc 1 431 1 is_stmt 0 view .LVU226
 1008 0000 2DE9F04F 		push	{r4, r5, r6, r7, r8, r9, r10, fp, lr}
 1009              		.cfi_def_cfa_offset 36
 1010              		.cfi_offset 4, -36
 1011              		.cfi_offset 5, -32
 1012              		.cfi_offset 6, -28
 1013              		.cfi_offset 7, -24
 1014              		.cfi_offset 8, -20
 1015              		.cfi_offset 9, -16
 1016              		.cfi_offset 10, -12
 1017              		.cfi_offset 11, -8
 1018              		.cfi_offset 14, -4
 1019 0004 A3B0     		sub	sp, sp, #140
 1020              		.cfi_def_cfa_offset 176
 431:../STM32Cube_FW_N6/Utilities/lcd/stm32_lcd.c ****   DrawChar(Xpos, Ypos, &DrawProp[DrawProp->LcdLayer].pFont->table[(Ascii-' ') *\
 1021              		.loc 1 431 1 view .LVU227
 1022 0006 0390     		str	r0, [sp, #12]
 1023              		.loc 1 432 53 view .LVU228
 1024 0008 7E48     		ldr	r0, .L104
 1025              	.LVL64:
 1026              		.loc 1 432 73 view .LVU229
 1027 000a 203A     		subs	r2, r2, #32
 1028              	.LVL65:
 1029              		.loc 1 432 53 view .LVU230
 1030 000c C368     		ldr	r3, [r0, #12]
 1031 000e 00EB4313 		add	r3, r0, r3, lsl #5
 1032 0012 9B68     		ldr	r3, [r3, #8]
 1033              		.loc 1 432 59 view .LVU231
 1034 0014 1868     		ldr	r0, [r3]
ARM GAS  /tmp/ccsDiBBo.s 			page 28


 433:../STM32Cube_FW_N6/Utilities/lcd/stm32_lcd.c ****   DrawProp[DrawProp->LcdLayer].pFont->Height * ((DrawProp[DrawProp->LcdLayer].pFont->Width + 7) / 8
 1035              		.loc 1 433 84 view .LVU232
 1036 0016 9C88     		ldrh	r4, [r3, #4]
 432:../STM32Cube_FW_N6/Utilities/lcd/stm32_lcd.c ****   DrawChar(Xpos, Ypos, &DrawProp[DrawProp->LcdLayer].pFont->table[(Ascii-' ') *\
 1037              		.loc 1 432 59 view .LVU233
 1038 0018 0490     		str	r0, [sp, #16]
 1039              		.loc 1 433 37 view .LVU234
 1040 001a D888     		ldrh	r0, [r3, #6]
 1041              		.loc 1 433 92 view .LVU235
 1042 001c E31D     		adds	r3, r4, #7
 432:../STM32Cube_FW_N6/Utilities/lcd/stm32_lcd.c ****   DrawChar(Xpos, Ypos, &DrawProp[DrawProp->LcdLayer].pFont->table[(Ascii-' ') *\
 1043              		.loc 1 432 79 view .LVU236
 1044 001e 4243     		muls	r2, r0, r2
 1045              	.LVL66:
 1046              		.loc 1 433 37 view .LVU237
 1047 0020 0790     		str	r0, [sp, #28]
 1048              		.loc 1 433 97 view .LVU238
 1049 0022 D810     		asrs	r0, r3, #3
 1050              		.loc 1 433 46 view .LVU239
 1051 0024 4243     		muls	r2, r0, r2
 1052 0026 0892     		str	r2, [sp, #32]
 1053              	.LVL67:
 1054              	.LBB4:
 1055              	.LBI4:
 434:../STM32Cube_FW_N6/Utilities/lcd/stm32_lcd.c **** }
 435:../STM32Cube_FW_N6/Utilities/lcd/stm32_lcd.c **** 
 436:../STM32Cube_FW_N6/Utilities/lcd/stm32_lcd.c **** /**
 437:../STM32Cube_FW_N6/Utilities/lcd/stm32_lcd.c ****   * @brief  Displays characters in currently active layer.
 438:../STM32Cube_FW_N6/Utilities/lcd/stm32_lcd.c ****   * @param  Xpos X position (in pixel)
 439:../STM32Cube_FW_N6/Utilities/lcd/stm32_lcd.c ****   * @param  Ypos Y position (in pixel)
 440:../STM32Cube_FW_N6/Utilities/lcd/stm32_lcd.c ****   * @param  Text Pointer to string to display on LCD
 441:../STM32Cube_FW_N6/Utilities/lcd/stm32_lcd.c ****   * @param  Mode Display mode
 442:../STM32Cube_FW_N6/Utilities/lcd/stm32_lcd.c ****   *          This parameter can be one of the following values:
 443:../STM32Cube_FW_N6/Utilities/lcd/stm32_lcd.c ****   *            @arg  CENTER_MODE
 444:../STM32Cube_FW_N6/Utilities/lcd/stm32_lcd.c ****   *            @arg  RIGHT_MODE
 445:../STM32Cube_FW_N6/Utilities/lcd/stm32_lcd.c ****   *            @arg  LEFT_MODE
 446:../STM32Cube_FW_N6/Utilities/lcd/stm32_lcd.c ****   */
 447:../STM32Cube_FW_N6/Utilities/lcd/stm32_lcd.c **** void UTIL_LCD_DisplayStringAt(uint32_t Xpos, uint32_t Ypos, uint8_t *Text, Text_AlignModeTypdef Mod
 448:../STM32Cube_FW_N6/Utilities/lcd/stm32_lcd.c **** {
 449:../STM32Cube_FW_N6/Utilities/lcd/stm32_lcd.c ****   uint32_t refcolumn = 1, i = 0;
 450:../STM32Cube_FW_N6/Utilities/lcd/stm32_lcd.c ****   uint32_t size = 0, xsize = 0;
 451:../STM32Cube_FW_N6/Utilities/lcd/stm32_lcd.c ****   uint8_t  *ptr = Text;
 452:../STM32Cube_FW_N6/Utilities/lcd/stm32_lcd.c **** 
 453:../STM32Cube_FW_N6/Utilities/lcd/stm32_lcd.c ****   /* Get the text size */
 454:../STM32Cube_FW_N6/Utilities/lcd/stm32_lcd.c ****   while (*ptr++) size ++ ;
 455:../STM32Cube_FW_N6/Utilities/lcd/stm32_lcd.c **** 
 456:../STM32Cube_FW_N6/Utilities/lcd/stm32_lcd.c ****   /* Characters number per line */
 457:../STM32Cube_FW_N6/Utilities/lcd/stm32_lcd.c ****   xsize = (DrawProp[DrawProp->LcdLayer].LcdXsize/DrawProp[DrawProp->LcdLayer].pFont->Width);
 458:../STM32Cube_FW_N6/Utilities/lcd/stm32_lcd.c **** 
 459:../STM32Cube_FW_N6/Utilities/lcd/stm32_lcd.c ****   switch (Mode)
 460:../STM32Cube_FW_N6/Utilities/lcd/stm32_lcd.c ****   {
 461:../STM32Cube_FW_N6/Utilities/lcd/stm32_lcd.c ****   case CENTER_MODE:
 462:../STM32Cube_FW_N6/Utilities/lcd/stm32_lcd.c ****     {
 463:../STM32Cube_FW_N6/Utilities/lcd/stm32_lcd.c ****       refcolumn = Xpos + ((xsize - size)* DrawProp[DrawProp->LcdLayer].pFont->Width) / 2;
 464:../STM32Cube_FW_N6/Utilities/lcd/stm32_lcd.c ****       break;
 465:../STM32Cube_FW_N6/Utilities/lcd/stm32_lcd.c ****     }
 466:../STM32Cube_FW_N6/Utilities/lcd/stm32_lcd.c ****   case LEFT_MODE:
ARM GAS  /tmp/ccsDiBBo.s 			page 29


 467:../STM32Cube_FW_N6/Utilities/lcd/stm32_lcd.c ****     {
 468:../STM32Cube_FW_N6/Utilities/lcd/stm32_lcd.c ****       refcolumn = Xpos;
 469:../STM32Cube_FW_N6/Utilities/lcd/stm32_lcd.c ****       break;
 470:../STM32Cube_FW_N6/Utilities/lcd/stm32_lcd.c ****     }
 471:../STM32Cube_FW_N6/Utilities/lcd/stm32_lcd.c ****   case RIGHT_MODE:
 472:../STM32Cube_FW_N6/Utilities/lcd/stm32_lcd.c ****     {
 473:../STM32Cube_FW_N6/Utilities/lcd/stm32_lcd.c ****       refcolumn = - Xpos + ((xsize - size)*DrawProp[DrawProp->LcdLayer].pFont->Width);
 474:../STM32Cube_FW_N6/Utilities/lcd/stm32_lcd.c ****       break;
 475:../STM32Cube_FW_N6/Utilities/lcd/stm32_lcd.c ****     }
 476:../STM32Cube_FW_N6/Utilities/lcd/stm32_lcd.c ****   default:
 477:../STM32Cube_FW_N6/Utilities/lcd/stm32_lcd.c ****     {
 478:../STM32Cube_FW_N6/Utilities/lcd/stm32_lcd.c ****       refcolumn = Xpos;
 479:../STM32Cube_FW_N6/Utilities/lcd/stm32_lcd.c ****       break;
 480:../STM32Cube_FW_N6/Utilities/lcd/stm32_lcd.c ****     }
 481:../STM32Cube_FW_N6/Utilities/lcd/stm32_lcd.c ****   }
 482:../STM32Cube_FW_N6/Utilities/lcd/stm32_lcd.c **** 
 483:../STM32Cube_FW_N6/Utilities/lcd/stm32_lcd.c ****   /* Check that the Start column is located in the screen */
 484:../STM32Cube_FW_N6/Utilities/lcd/stm32_lcd.c ****   if ((refcolumn < 1) || (refcolumn >= 0x8000))
 485:../STM32Cube_FW_N6/Utilities/lcd/stm32_lcd.c ****   {
 486:../STM32Cube_FW_N6/Utilities/lcd/stm32_lcd.c ****     refcolumn = 1;
 487:../STM32Cube_FW_N6/Utilities/lcd/stm32_lcd.c ****   }
 488:../STM32Cube_FW_N6/Utilities/lcd/stm32_lcd.c **** 
 489:../STM32Cube_FW_N6/Utilities/lcd/stm32_lcd.c ****   /* Send the string character by character on LCD */
 490:../STM32Cube_FW_N6/Utilities/lcd/stm32_lcd.c ****   while ((*Text != 0) & (((DrawProp[DrawProp->LcdLayer].LcdXsize - (i*DrawProp[DrawProp->LcdLayer].
 491:../STM32Cube_FW_N6/Utilities/lcd/stm32_lcd.c ****   {
 492:../STM32Cube_FW_N6/Utilities/lcd/stm32_lcd.c ****     /* Display one character on LCD */
 493:../STM32Cube_FW_N6/Utilities/lcd/stm32_lcd.c ****     UTIL_LCD_DisplayChar(refcolumn, Ypos, *Text);
 494:../STM32Cube_FW_N6/Utilities/lcd/stm32_lcd.c ****     /* Decrement the column position by 16 */
 495:../STM32Cube_FW_N6/Utilities/lcd/stm32_lcd.c ****     refcolumn += DrawProp[DrawProp->LcdLayer].pFont->Width;
 496:../STM32Cube_FW_N6/Utilities/lcd/stm32_lcd.c **** 
 497:../STM32Cube_FW_N6/Utilities/lcd/stm32_lcd.c ****     /* Point on the next character */
 498:../STM32Cube_FW_N6/Utilities/lcd/stm32_lcd.c ****     Text++;
 499:../STM32Cube_FW_N6/Utilities/lcd/stm32_lcd.c ****     i++;
 500:../STM32Cube_FW_N6/Utilities/lcd/stm32_lcd.c ****   }
 501:../STM32Cube_FW_N6/Utilities/lcd/stm32_lcd.c **** }
 502:../STM32Cube_FW_N6/Utilities/lcd/stm32_lcd.c **** 
 503:../STM32Cube_FW_N6/Utilities/lcd/stm32_lcd.c **** /**
 504:../STM32Cube_FW_N6/Utilities/lcd/stm32_lcd.c ****   * @brief  Displays a maximum of 60 characters on the LCD.
 505:../STM32Cube_FW_N6/Utilities/lcd/stm32_lcd.c ****   * @param  Line: Line where to display the character shape
 506:../STM32Cube_FW_N6/Utilities/lcd/stm32_lcd.c ****   * @param  ptr: Pointer to string to display on LCD
 507:../STM32Cube_FW_N6/Utilities/lcd/stm32_lcd.c ****   */
 508:../STM32Cube_FW_N6/Utilities/lcd/stm32_lcd.c **** void UTIL_LCD_DisplayStringAtLine(uint32_t Line, uint8_t *ptr)
 509:../STM32Cube_FW_N6/Utilities/lcd/stm32_lcd.c **** {
 510:../STM32Cube_FW_N6/Utilities/lcd/stm32_lcd.c ****   UTIL_LCD_DisplayStringAt(0, LINE(Line), ptr, LEFT_MODE);
 511:../STM32Cube_FW_N6/Utilities/lcd/stm32_lcd.c **** }
 512:../STM32Cube_FW_N6/Utilities/lcd/stm32_lcd.c **** 
 513:../STM32Cube_FW_N6/Utilities/lcd/stm32_lcd.c **** /**
 514:../STM32Cube_FW_N6/Utilities/lcd/stm32_lcd.c ****   * @brief  Draws an uni-line (between two points) in currently active layer.
 515:../STM32Cube_FW_N6/Utilities/lcd/stm32_lcd.c ****   * @param  Xpos1 Point 1 X position
 516:../STM32Cube_FW_N6/Utilities/lcd/stm32_lcd.c ****   * @param  Ypos1 Point 1 Y position
 517:../STM32Cube_FW_N6/Utilities/lcd/stm32_lcd.c ****   * @param  Xpos2 Point 2 X position
 518:../STM32Cube_FW_N6/Utilities/lcd/stm32_lcd.c ****   * @param  Ypos2 Point 2 Y position
 519:../STM32Cube_FW_N6/Utilities/lcd/stm32_lcd.c ****   * @param  Color Draw color
 520:../STM32Cube_FW_N6/Utilities/lcd/stm32_lcd.c ****   */
 521:../STM32Cube_FW_N6/Utilities/lcd/stm32_lcd.c **** void UTIL_LCD_DrawLine(uint32_t Xpos1, uint32_t Ypos1, uint32_t Xpos2, uint32_t Ypos2, uint32_t Col
 522:../STM32Cube_FW_N6/Utilities/lcd/stm32_lcd.c **** {
 523:../STM32Cube_FW_N6/Utilities/lcd/stm32_lcd.c ****   int16_t deltax = 0, deltay = 0, x = 0, y = 0, xinc1 = 0, xinc2 = 0,
ARM GAS  /tmp/ccsDiBBo.s 			page 30


 524:../STM32Cube_FW_N6/Utilities/lcd/stm32_lcd.c ****   yinc1 = 0, yinc2 = 0, den = 0, num = 0, numadd = 0, numpixels = 0,
 525:../STM32Cube_FW_N6/Utilities/lcd/stm32_lcd.c ****   curpixel = 0;
 526:../STM32Cube_FW_N6/Utilities/lcd/stm32_lcd.c ****   int32_t x_diff, y_diff;
 527:../STM32Cube_FW_N6/Utilities/lcd/stm32_lcd.c **** 
 528:../STM32Cube_FW_N6/Utilities/lcd/stm32_lcd.c ****   x_diff = Xpos2 - Xpos1;
 529:../STM32Cube_FW_N6/Utilities/lcd/stm32_lcd.c ****   y_diff = Ypos2 - Ypos1;
 530:../STM32Cube_FW_N6/Utilities/lcd/stm32_lcd.c **** 
 531:../STM32Cube_FW_N6/Utilities/lcd/stm32_lcd.c ****   deltax = ABS(x_diff);         /* The absolute difference between the x's */
 532:../STM32Cube_FW_N6/Utilities/lcd/stm32_lcd.c ****   deltay = ABS(y_diff);         /* The absolute difference between the y's */
 533:../STM32Cube_FW_N6/Utilities/lcd/stm32_lcd.c ****   x = Xpos1;                       /* Start x off at the first pixel */
 534:../STM32Cube_FW_N6/Utilities/lcd/stm32_lcd.c ****   y = Ypos1;                       /* Start y off at the first pixel */
 535:../STM32Cube_FW_N6/Utilities/lcd/stm32_lcd.c **** 
 536:../STM32Cube_FW_N6/Utilities/lcd/stm32_lcd.c ****   if (Xpos2 >= Xpos1)                 /* The x-values are increasing */
 537:../STM32Cube_FW_N6/Utilities/lcd/stm32_lcd.c ****   {
 538:../STM32Cube_FW_N6/Utilities/lcd/stm32_lcd.c ****     xinc1 = 1;
 539:../STM32Cube_FW_N6/Utilities/lcd/stm32_lcd.c ****     xinc2 = 1;
 540:../STM32Cube_FW_N6/Utilities/lcd/stm32_lcd.c ****   }
 541:../STM32Cube_FW_N6/Utilities/lcd/stm32_lcd.c ****   else                          /* The x-values are decreasing */
 542:../STM32Cube_FW_N6/Utilities/lcd/stm32_lcd.c ****   {
 543:../STM32Cube_FW_N6/Utilities/lcd/stm32_lcd.c ****     xinc1 = -1;
 544:../STM32Cube_FW_N6/Utilities/lcd/stm32_lcd.c ****     xinc2 = -1;
 545:../STM32Cube_FW_N6/Utilities/lcd/stm32_lcd.c ****   }
 546:../STM32Cube_FW_N6/Utilities/lcd/stm32_lcd.c **** 
 547:../STM32Cube_FW_N6/Utilities/lcd/stm32_lcd.c ****   if (Ypos2 >= Ypos1)                 /* The y-values are increasing */
 548:../STM32Cube_FW_N6/Utilities/lcd/stm32_lcd.c ****   {
 549:../STM32Cube_FW_N6/Utilities/lcd/stm32_lcd.c ****     yinc1 = 1;
 550:../STM32Cube_FW_N6/Utilities/lcd/stm32_lcd.c ****     yinc2 = 1;
 551:../STM32Cube_FW_N6/Utilities/lcd/stm32_lcd.c ****   }
 552:../STM32Cube_FW_N6/Utilities/lcd/stm32_lcd.c ****   else                          /* The y-values are decreasing */
 553:../STM32Cube_FW_N6/Utilities/lcd/stm32_lcd.c ****   {
 554:../STM32Cube_FW_N6/Utilities/lcd/stm32_lcd.c ****     yinc1 = -1;
 555:../STM32Cube_FW_N6/Utilities/lcd/stm32_lcd.c ****     yinc2 = -1;
 556:../STM32Cube_FW_N6/Utilities/lcd/stm32_lcd.c ****   }
 557:../STM32Cube_FW_N6/Utilities/lcd/stm32_lcd.c **** 
 558:../STM32Cube_FW_N6/Utilities/lcd/stm32_lcd.c ****   if (deltax >= deltay)         /* There is at least one x-value for every y-value */
 559:../STM32Cube_FW_N6/Utilities/lcd/stm32_lcd.c ****   {
 560:../STM32Cube_FW_N6/Utilities/lcd/stm32_lcd.c ****     xinc1 = 0;                  /* Don't change the x when numerator >= denominator */
 561:../STM32Cube_FW_N6/Utilities/lcd/stm32_lcd.c ****     yinc2 = 0;                  /* Don't change the y for every iteration */
 562:../STM32Cube_FW_N6/Utilities/lcd/stm32_lcd.c ****     den = deltax;
 563:../STM32Cube_FW_N6/Utilities/lcd/stm32_lcd.c ****     num = deltax / 2;
 564:../STM32Cube_FW_N6/Utilities/lcd/stm32_lcd.c ****     numadd = deltay;
 565:../STM32Cube_FW_N6/Utilities/lcd/stm32_lcd.c ****     numpixels = deltax;         /* There are more x-values than y-values */
 566:../STM32Cube_FW_N6/Utilities/lcd/stm32_lcd.c ****   }
 567:../STM32Cube_FW_N6/Utilities/lcd/stm32_lcd.c ****   else                          /* There is at least one y-value for every x-value */
 568:../STM32Cube_FW_N6/Utilities/lcd/stm32_lcd.c ****   {
 569:../STM32Cube_FW_N6/Utilities/lcd/stm32_lcd.c ****     xinc2 = 0;                  /* Don't change the x for every iteration */
 570:../STM32Cube_FW_N6/Utilities/lcd/stm32_lcd.c ****     yinc1 = 0;                  /* Don't change the y when numerator >= denominator */
 571:../STM32Cube_FW_N6/Utilities/lcd/stm32_lcd.c ****     den = deltay;
 572:../STM32Cube_FW_N6/Utilities/lcd/stm32_lcd.c ****     num = deltay / 2;
 573:../STM32Cube_FW_N6/Utilities/lcd/stm32_lcd.c ****     numadd = deltax;
 574:../STM32Cube_FW_N6/Utilities/lcd/stm32_lcd.c ****     numpixels = deltay;         /* There are more y-values than x-values */
 575:../STM32Cube_FW_N6/Utilities/lcd/stm32_lcd.c ****   }
 576:../STM32Cube_FW_N6/Utilities/lcd/stm32_lcd.c **** 
 577:../STM32Cube_FW_N6/Utilities/lcd/stm32_lcd.c ****   for (curpixel = 0; curpixel <= numpixels; curpixel++)
 578:../STM32Cube_FW_N6/Utilities/lcd/stm32_lcd.c ****   {
 579:../STM32Cube_FW_N6/Utilities/lcd/stm32_lcd.c ****     UTIL_LCD_SetPixel(x, y, Color);   /* Draw the current pixel */
 580:../STM32Cube_FW_N6/Utilities/lcd/stm32_lcd.c ****     num += numadd;                            /* Increase the numerator by the top of the fraction 
ARM GAS  /tmp/ccsDiBBo.s 			page 31


 581:../STM32Cube_FW_N6/Utilities/lcd/stm32_lcd.c ****     if (num >= den)                           /* Check if numerator >= denominator */
 582:../STM32Cube_FW_N6/Utilities/lcd/stm32_lcd.c ****     {
 583:../STM32Cube_FW_N6/Utilities/lcd/stm32_lcd.c ****       num -= den;                             /* Calculate the new numerator value */
 584:../STM32Cube_FW_N6/Utilities/lcd/stm32_lcd.c ****       x += xinc1;                             /* Change the x as appropriate */
 585:../STM32Cube_FW_N6/Utilities/lcd/stm32_lcd.c ****       y += yinc1;                             /* Change the y as appropriate */
 586:../STM32Cube_FW_N6/Utilities/lcd/stm32_lcd.c ****     }
 587:../STM32Cube_FW_N6/Utilities/lcd/stm32_lcd.c ****     x += xinc2;                               /* Change the x as appropriate */
 588:../STM32Cube_FW_N6/Utilities/lcd/stm32_lcd.c ****     y += yinc2;                               /* Change the y as appropriate */
 589:../STM32Cube_FW_N6/Utilities/lcd/stm32_lcd.c ****   }
 590:../STM32Cube_FW_N6/Utilities/lcd/stm32_lcd.c **** }
 591:../STM32Cube_FW_N6/Utilities/lcd/stm32_lcd.c **** 
 592:../STM32Cube_FW_N6/Utilities/lcd/stm32_lcd.c **** /**
 593:../STM32Cube_FW_N6/Utilities/lcd/stm32_lcd.c ****   * @brief  Draws a rectangle in currently active layer.
 594:../STM32Cube_FW_N6/Utilities/lcd/stm32_lcd.c ****   * @param  Xpos X position
 595:../STM32Cube_FW_N6/Utilities/lcd/stm32_lcd.c ****   * @param  Ypos Y position
 596:../STM32Cube_FW_N6/Utilities/lcd/stm32_lcd.c ****   * @param  Width  Rectangle width
 597:../STM32Cube_FW_N6/Utilities/lcd/stm32_lcd.c ****   * @param  Height Rectangle height
 598:../STM32Cube_FW_N6/Utilities/lcd/stm32_lcd.c ****   * @param  Color  Draw color
 599:../STM32Cube_FW_N6/Utilities/lcd/stm32_lcd.c ****   */
 600:../STM32Cube_FW_N6/Utilities/lcd/stm32_lcd.c **** void UTIL_LCD_DrawRect(uint32_t Xpos, uint32_t Ypos, uint32_t Width, uint32_t Height, uint32_t Colo
 601:../STM32Cube_FW_N6/Utilities/lcd/stm32_lcd.c **** {
 602:../STM32Cube_FW_N6/Utilities/lcd/stm32_lcd.c ****   /* Draw horizontal lines */
 603:../STM32Cube_FW_N6/Utilities/lcd/stm32_lcd.c ****   UTIL_LCD_DrawHLine(Xpos, Ypos, Width, Color);
 604:../STM32Cube_FW_N6/Utilities/lcd/stm32_lcd.c ****   UTIL_LCD_DrawHLine(Xpos, (Ypos+ Height - 1U), Width, Color);
 605:../STM32Cube_FW_N6/Utilities/lcd/stm32_lcd.c **** 
 606:../STM32Cube_FW_N6/Utilities/lcd/stm32_lcd.c ****   /* Draw vertical lines */
 607:../STM32Cube_FW_N6/Utilities/lcd/stm32_lcd.c ****   UTIL_LCD_DrawVLine(Xpos, Ypos, Height, Color);
 608:../STM32Cube_FW_N6/Utilities/lcd/stm32_lcd.c ****   UTIL_LCD_DrawVLine((Xpos + Width - 1U), Ypos, Height, Color);
 609:../STM32Cube_FW_N6/Utilities/lcd/stm32_lcd.c **** }
 610:../STM32Cube_FW_N6/Utilities/lcd/stm32_lcd.c **** 
 611:../STM32Cube_FW_N6/Utilities/lcd/stm32_lcd.c **** /**
 612:../STM32Cube_FW_N6/Utilities/lcd/stm32_lcd.c ****   * @brief  Draws a circle in currently active layer.
 613:../STM32Cube_FW_N6/Utilities/lcd/stm32_lcd.c ****   * @param  Xpos    X position
 614:../STM32Cube_FW_N6/Utilities/lcd/stm32_lcd.c ****   * @param  Ypos    Y position
 615:../STM32Cube_FW_N6/Utilities/lcd/stm32_lcd.c ****   * @param  Radius  Circle radius
 616:../STM32Cube_FW_N6/Utilities/lcd/stm32_lcd.c ****   * @param  Color   Draw color
 617:../STM32Cube_FW_N6/Utilities/lcd/stm32_lcd.c ****   */
 618:../STM32Cube_FW_N6/Utilities/lcd/stm32_lcd.c **** void UTIL_LCD_DrawCircle(uint32_t Xpos, uint32_t Ypos, uint32_t Radius, uint32_t Color)
 619:../STM32Cube_FW_N6/Utilities/lcd/stm32_lcd.c **** {
 620:../STM32Cube_FW_N6/Utilities/lcd/stm32_lcd.c ****   int32_t   decision;  /* Decision Variable */
 621:../STM32Cube_FW_N6/Utilities/lcd/stm32_lcd.c ****   uint32_t  current_x; /* Current X Value */
 622:../STM32Cube_FW_N6/Utilities/lcd/stm32_lcd.c ****   uint32_t  current_y; /* Current Y Value */
 623:../STM32Cube_FW_N6/Utilities/lcd/stm32_lcd.c **** 
 624:../STM32Cube_FW_N6/Utilities/lcd/stm32_lcd.c ****   decision = 3 - (Radius << 1);
 625:../STM32Cube_FW_N6/Utilities/lcd/stm32_lcd.c ****   current_x = 0;
 626:../STM32Cube_FW_N6/Utilities/lcd/stm32_lcd.c ****   current_y = Radius;
 627:../STM32Cube_FW_N6/Utilities/lcd/stm32_lcd.c **** 
 628:../STM32Cube_FW_N6/Utilities/lcd/stm32_lcd.c ****   while (current_x <= current_y)
 629:../STM32Cube_FW_N6/Utilities/lcd/stm32_lcd.c ****   {
 630:../STM32Cube_FW_N6/Utilities/lcd/stm32_lcd.c ****     if((Ypos - current_y) < DrawProp[DrawProp->LcdLayer].LcdYsize)
 631:../STM32Cube_FW_N6/Utilities/lcd/stm32_lcd.c ****     {
 632:../STM32Cube_FW_N6/Utilities/lcd/stm32_lcd.c ****       if((Xpos + current_x) < DrawProp[DrawProp->LcdLayer].LcdXsize)
 633:../STM32Cube_FW_N6/Utilities/lcd/stm32_lcd.c ****       {
 634:../STM32Cube_FW_N6/Utilities/lcd/stm32_lcd.c ****         UTIL_LCD_SetPixel((Xpos + current_x), (Ypos - current_y), Color);
 635:../STM32Cube_FW_N6/Utilities/lcd/stm32_lcd.c ****       }
 636:../STM32Cube_FW_N6/Utilities/lcd/stm32_lcd.c ****       if((Xpos - current_x) < DrawProp[DrawProp->LcdLayer].LcdXsize)
 637:../STM32Cube_FW_N6/Utilities/lcd/stm32_lcd.c ****       {
ARM GAS  /tmp/ccsDiBBo.s 			page 32


 638:../STM32Cube_FW_N6/Utilities/lcd/stm32_lcd.c ****         UTIL_LCD_SetPixel((Xpos - current_x), (Ypos - current_y), Color);
 639:../STM32Cube_FW_N6/Utilities/lcd/stm32_lcd.c ****       }
 640:../STM32Cube_FW_N6/Utilities/lcd/stm32_lcd.c ****     }
 641:../STM32Cube_FW_N6/Utilities/lcd/stm32_lcd.c **** 
 642:../STM32Cube_FW_N6/Utilities/lcd/stm32_lcd.c ****     if((Ypos - current_x) < DrawProp[DrawProp->LcdLayer].LcdYsize)
 643:../STM32Cube_FW_N6/Utilities/lcd/stm32_lcd.c ****     {
 644:../STM32Cube_FW_N6/Utilities/lcd/stm32_lcd.c ****       if((Xpos + current_y) < DrawProp[DrawProp->LcdLayer].LcdXsize)
 645:../STM32Cube_FW_N6/Utilities/lcd/stm32_lcd.c ****       {
 646:../STM32Cube_FW_N6/Utilities/lcd/stm32_lcd.c ****         UTIL_LCD_SetPixel((Xpos + current_y), (Ypos - current_x), Color);
 647:../STM32Cube_FW_N6/Utilities/lcd/stm32_lcd.c ****       }
 648:../STM32Cube_FW_N6/Utilities/lcd/stm32_lcd.c ****       if((Xpos - current_y) < DrawProp[DrawProp->LcdLayer].LcdXsize)
 649:../STM32Cube_FW_N6/Utilities/lcd/stm32_lcd.c ****       {
 650:../STM32Cube_FW_N6/Utilities/lcd/stm32_lcd.c ****         UTIL_LCD_SetPixel((Xpos - current_y), (Ypos - current_x), Color);
 651:../STM32Cube_FW_N6/Utilities/lcd/stm32_lcd.c ****       }
 652:../STM32Cube_FW_N6/Utilities/lcd/stm32_lcd.c ****     }
 653:../STM32Cube_FW_N6/Utilities/lcd/stm32_lcd.c **** 
 654:../STM32Cube_FW_N6/Utilities/lcd/stm32_lcd.c ****     if((Ypos + current_y) < DrawProp[DrawProp->LcdLayer].LcdYsize)
 655:../STM32Cube_FW_N6/Utilities/lcd/stm32_lcd.c ****     {
 656:../STM32Cube_FW_N6/Utilities/lcd/stm32_lcd.c ****       if((Xpos + current_x) < DrawProp[DrawProp->LcdLayer].LcdXsize)
 657:../STM32Cube_FW_N6/Utilities/lcd/stm32_lcd.c ****       {
 658:../STM32Cube_FW_N6/Utilities/lcd/stm32_lcd.c ****         UTIL_LCD_SetPixel((Xpos + current_x), (Ypos + current_y), Color);
 659:../STM32Cube_FW_N6/Utilities/lcd/stm32_lcd.c ****       }
 660:../STM32Cube_FW_N6/Utilities/lcd/stm32_lcd.c ****       if((Xpos - current_x) < DrawProp[DrawProp->LcdLayer].LcdXsize)
 661:../STM32Cube_FW_N6/Utilities/lcd/stm32_lcd.c ****       {
 662:../STM32Cube_FW_N6/Utilities/lcd/stm32_lcd.c ****         UTIL_LCD_SetPixel((Xpos - current_x), (Ypos + current_y), Color);
 663:../STM32Cube_FW_N6/Utilities/lcd/stm32_lcd.c ****       }
 664:../STM32Cube_FW_N6/Utilities/lcd/stm32_lcd.c ****     }
 665:../STM32Cube_FW_N6/Utilities/lcd/stm32_lcd.c **** 
 666:../STM32Cube_FW_N6/Utilities/lcd/stm32_lcd.c ****     if((Ypos + current_x) < DrawProp[DrawProp->LcdLayer].LcdYsize)
 667:../STM32Cube_FW_N6/Utilities/lcd/stm32_lcd.c ****     {
 668:../STM32Cube_FW_N6/Utilities/lcd/stm32_lcd.c ****       if((Xpos + current_y) < DrawProp[DrawProp->LcdLayer].LcdXsize)
 669:../STM32Cube_FW_N6/Utilities/lcd/stm32_lcd.c ****       {
 670:../STM32Cube_FW_N6/Utilities/lcd/stm32_lcd.c ****         UTIL_LCD_SetPixel((Xpos + current_y), (Ypos + current_x), Color);
 671:../STM32Cube_FW_N6/Utilities/lcd/stm32_lcd.c ****       }
 672:../STM32Cube_FW_N6/Utilities/lcd/stm32_lcd.c ****       if((Xpos - current_y) < DrawProp[DrawProp->LcdLayer].LcdXsize)
 673:../STM32Cube_FW_N6/Utilities/lcd/stm32_lcd.c ****       {
 674:../STM32Cube_FW_N6/Utilities/lcd/stm32_lcd.c ****         UTIL_LCD_SetPixel((Xpos - current_y), (Ypos + current_x), Color);
 675:../STM32Cube_FW_N6/Utilities/lcd/stm32_lcd.c ****       }
 676:../STM32Cube_FW_N6/Utilities/lcd/stm32_lcd.c ****     }
 677:../STM32Cube_FW_N6/Utilities/lcd/stm32_lcd.c **** 
 678:../STM32Cube_FW_N6/Utilities/lcd/stm32_lcd.c ****     if (decision < 0)
 679:../STM32Cube_FW_N6/Utilities/lcd/stm32_lcd.c ****     {
 680:../STM32Cube_FW_N6/Utilities/lcd/stm32_lcd.c ****       decision += (current_x << 2) + 6;
 681:../STM32Cube_FW_N6/Utilities/lcd/stm32_lcd.c ****     }
 682:../STM32Cube_FW_N6/Utilities/lcd/stm32_lcd.c ****     else
 683:../STM32Cube_FW_N6/Utilities/lcd/stm32_lcd.c ****     {
 684:../STM32Cube_FW_N6/Utilities/lcd/stm32_lcd.c ****       decision += ((current_x - current_y) << 2) + 10;
 685:../STM32Cube_FW_N6/Utilities/lcd/stm32_lcd.c ****       current_y--;
 686:../STM32Cube_FW_N6/Utilities/lcd/stm32_lcd.c ****     }
 687:../STM32Cube_FW_N6/Utilities/lcd/stm32_lcd.c ****     current_x++;
 688:../STM32Cube_FW_N6/Utilities/lcd/stm32_lcd.c ****   }
 689:../STM32Cube_FW_N6/Utilities/lcd/stm32_lcd.c **** }
 690:../STM32Cube_FW_N6/Utilities/lcd/stm32_lcd.c **** 
 691:../STM32Cube_FW_N6/Utilities/lcd/stm32_lcd.c **** /**
 692:../STM32Cube_FW_N6/Utilities/lcd/stm32_lcd.c ****   * @brief  Draws an poly-line (between many points) in currently active layer.
 693:../STM32Cube_FW_N6/Utilities/lcd/stm32_lcd.c ****   * @param  Points      Pointer to the points array
 694:../STM32Cube_FW_N6/Utilities/lcd/stm32_lcd.c ****   * @param  PointCount  Number of points
ARM GAS  /tmp/ccsDiBBo.s 			page 33


 695:../STM32Cube_FW_N6/Utilities/lcd/stm32_lcd.c ****   * @param  Color       Draw color
 696:../STM32Cube_FW_N6/Utilities/lcd/stm32_lcd.c ****   */
 697:../STM32Cube_FW_N6/Utilities/lcd/stm32_lcd.c **** void UTIL_LCD_DrawPolygon(pPoint Points, uint32_t PointCount, uint32_t Color)
 698:../STM32Cube_FW_N6/Utilities/lcd/stm32_lcd.c **** {
 699:../STM32Cube_FW_N6/Utilities/lcd/stm32_lcd.c ****   int16_t x_pos = 0, y_pos = 0;
 700:../STM32Cube_FW_N6/Utilities/lcd/stm32_lcd.c **** 
 701:../STM32Cube_FW_N6/Utilities/lcd/stm32_lcd.c ****   if(PointCount < 2)
 702:../STM32Cube_FW_N6/Utilities/lcd/stm32_lcd.c ****   {
 703:../STM32Cube_FW_N6/Utilities/lcd/stm32_lcd.c ****     return;
 704:../STM32Cube_FW_N6/Utilities/lcd/stm32_lcd.c ****   }
 705:../STM32Cube_FW_N6/Utilities/lcd/stm32_lcd.c **** 
 706:../STM32Cube_FW_N6/Utilities/lcd/stm32_lcd.c ****   UTIL_LCD_DrawLine(Points->X, Points->Y, (Points+PointCount-1)->X, (Points+PointCount-1)->Y, Color
 707:../STM32Cube_FW_N6/Utilities/lcd/stm32_lcd.c **** 
 708:../STM32Cube_FW_N6/Utilities/lcd/stm32_lcd.c ****   while(--PointCount)
 709:../STM32Cube_FW_N6/Utilities/lcd/stm32_lcd.c ****   {
 710:../STM32Cube_FW_N6/Utilities/lcd/stm32_lcd.c ****     x_pos = Points->X;
 711:../STM32Cube_FW_N6/Utilities/lcd/stm32_lcd.c ****     y_pos = Points->Y;
 712:../STM32Cube_FW_N6/Utilities/lcd/stm32_lcd.c ****     Points++;
 713:../STM32Cube_FW_N6/Utilities/lcd/stm32_lcd.c ****     UTIL_LCD_DrawLine(x_pos, y_pos, Points->X, Points->Y, Color);
 714:../STM32Cube_FW_N6/Utilities/lcd/stm32_lcd.c ****   }
 715:../STM32Cube_FW_N6/Utilities/lcd/stm32_lcd.c **** }
 716:../STM32Cube_FW_N6/Utilities/lcd/stm32_lcd.c **** 
 717:../STM32Cube_FW_N6/Utilities/lcd/stm32_lcd.c **** /**
 718:../STM32Cube_FW_N6/Utilities/lcd/stm32_lcd.c ****   * @brief  Draws an ellipse on LCD in currently active layer.
 719:../STM32Cube_FW_N6/Utilities/lcd/stm32_lcd.c ****   * @param  Xpos    X position
 720:../STM32Cube_FW_N6/Utilities/lcd/stm32_lcd.c ****   * @param  Ypos    Y position
 721:../STM32Cube_FW_N6/Utilities/lcd/stm32_lcd.c ****   * @param  XRadius Ellipse X radius
 722:../STM32Cube_FW_N6/Utilities/lcd/stm32_lcd.c ****   * @param  YRadius Ellipse Y radius
 723:../STM32Cube_FW_N6/Utilities/lcd/stm32_lcd.c ****   * @param  Color   Draw color
 724:../STM32Cube_FW_N6/Utilities/lcd/stm32_lcd.c ****   */
 725:../STM32Cube_FW_N6/Utilities/lcd/stm32_lcd.c **** void UTIL_LCD_DrawEllipse(int Xpos, int Ypos, int XRadius, int YRadius, uint32_t Color)
 726:../STM32Cube_FW_N6/Utilities/lcd/stm32_lcd.c **** {
 727:../STM32Cube_FW_N6/Utilities/lcd/stm32_lcd.c ****   int x_pos = 0, y_pos = -YRadius, err = 2-2*XRadius, e2;
 728:../STM32Cube_FW_N6/Utilities/lcd/stm32_lcd.c ****   float k = 0, rad1 = 0, rad2 = 0;
 729:../STM32Cube_FW_N6/Utilities/lcd/stm32_lcd.c **** 
 730:../STM32Cube_FW_N6/Utilities/lcd/stm32_lcd.c ****   rad1 = XRadius;
 731:../STM32Cube_FW_N6/Utilities/lcd/stm32_lcd.c ****   rad2 = YRadius;
 732:../STM32Cube_FW_N6/Utilities/lcd/stm32_lcd.c **** 
 733:../STM32Cube_FW_N6/Utilities/lcd/stm32_lcd.c ****   k = (float)(rad2/rad1);
 734:../STM32Cube_FW_N6/Utilities/lcd/stm32_lcd.c **** 
 735:../STM32Cube_FW_N6/Utilities/lcd/stm32_lcd.c ****   do
 736:../STM32Cube_FW_N6/Utilities/lcd/stm32_lcd.c ****   {
 737:../STM32Cube_FW_N6/Utilities/lcd/stm32_lcd.c ****     UTIL_LCD_SetPixel((Xpos-(uint32_t)(x_pos/k)), (Ypos + y_pos), Color);
 738:../STM32Cube_FW_N6/Utilities/lcd/stm32_lcd.c ****     UTIL_LCD_SetPixel((Xpos+(uint32_t)(x_pos/k)), (Ypos + y_pos), Color);
 739:../STM32Cube_FW_N6/Utilities/lcd/stm32_lcd.c ****     UTIL_LCD_SetPixel((Xpos+(uint32_t)(x_pos/k)), (Ypos - y_pos), Color);
 740:../STM32Cube_FW_N6/Utilities/lcd/stm32_lcd.c ****     UTIL_LCD_SetPixel((Xpos-(uint32_t)(x_pos/k)), (Ypos - y_pos), Color);
 741:../STM32Cube_FW_N6/Utilities/lcd/stm32_lcd.c **** 
 742:../STM32Cube_FW_N6/Utilities/lcd/stm32_lcd.c ****     e2 = err;
 743:../STM32Cube_FW_N6/Utilities/lcd/stm32_lcd.c ****     if (e2 <= x_pos)
 744:../STM32Cube_FW_N6/Utilities/lcd/stm32_lcd.c ****     {
 745:../STM32Cube_FW_N6/Utilities/lcd/stm32_lcd.c ****       err += ++x_pos*2+1;
 746:../STM32Cube_FW_N6/Utilities/lcd/stm32_lcd.c ****       if (-y_pos == x_pos && e2 <= y_pos) e2 = 0;
 747:../STM32Cube_FW_N6/Utilities/lcd/stm32_lcd.c ****     }
 748:../STM32Cube_FW_N6/Utilities/lcd/stm32_lcd.c ****     if (e2 > y_pos)
 749:../STM32Cube_FW_N6/Utilities/lcd/stm32_lcd.c ****     {
 750:../STM32Cube_FW_N6/Utilities/lcd/stm32_lcd.c ****       err += ++y_pos*2+1;
 751:../STM32Cube_FW_N6/Utilities/lcd/stm32_lcd.c ****     }
ARM GAS  /tmp/ccsDiBBo.s 			page 34


 752:../STM32Cube_FW_N6/Utilities/lcd/stm32_lcd.c ****   }while (y_pos <= 0);
 753:../STM32Cube_FW_N6/Utilities/lcd/stm32_lcd.c **** }
 754:../STM32Cube_FW_N6/Utilities/lcd/stm32_lcd.c **** 
 755:../STM32Cube_FW_N6/Utilities/lcd/stm32_lcd.c **** /**
 756:../STM32Cube_FW_N6/Utilities/lcd/stm32_lcd.c ****   * @brief  Draws a bitmap picture loaded in the internal Flash (32 bpp) in currently active layer.
 757:../STM32Cube_FW_N6/Utilities/lcd/stm32_lcd.c ****   * @param  Xpos  Bmp X position in the LCD
 758:../STM32Cube_FW_N6/Utilities/lcd/stm32_lcd.c ****   * @param  Ypos  Bmp Y position in the LCD
 759:../STM32Cube_FW_N6/Utilities/lcd/stm32_lcd.c ****   * @param  pData Pointer to Bmp picture address in the internal Flash
 760:../STM32Cube_FW_N6/Utilities/lcd/stm32_lcd.c ****   */
 761:../STM32Cube_FW_N6/Utilities/lcd/stm32_lcd.c **** void UTIL_LCD_DrawBitmap(uint32_t Xpos, uint32_t Ypos, uint8_t *pData)
 762:../STM32Cube_FW_N6/Utilities/lcd/stm32_lcd.c **** {
 763:../STM32Cube_FW_N6/Utilities/lcd/stm32_lcd.c ****   FuncDriver.DrawBitmap(DrawProp->LcdDevice, Xpos, Ypos, pData);
 764:../STM32Cube_FW_N6/Utilities/lcd/stm32_lcd.c **** }
 765:../STM32Cube_FW_N6/Utilities/lcd/stm32_lcd.c **** 
 766:../STM32Cube_FW_N6/Utilities/lcd/stm32_lcd.c **** /**
 767:../STM32Cube_FW_N6/Utilities/lcd/stm32_lcd.c ****   * @brief  Draws a full rectangle in currently active layer.
 768:../STM32Cube_FW_N6/Utilities/lcd/stm32_lcd.c ****   * @param  Xpos   X position
 769:../STM32Cube_FW_N6/Utilities/lcd/stm32_lcd.c ****   * @param  Ypos   Y position
 770:../STM32Cube_FW_N6/Utilities/lcd/stm32_lcd.c ****   * @param  Width  Rectangle width
 771:../STM32Cube_FW_N6/Utilities/lcd/stm32_lcd.c ****   * @param  Height Rectangle height
 772:../STM32Cube_FW_N6/Utilities/lcd/stm32_lcd.c ****   * @param  Color  Draw color
 773:../STM32Cube_FW_N6/Utilities/lcd/stm32_lcd.c ****   */
 774:../STM32Cube_FW_N6/Utilities/lcd/stm32_lcd.c **** void UTIL_LCD_FillRect(uint32_t Xpos, uint32_t Ypos, uint32_t Width, uint32_t Height, uint32_t Colo
 775:../STM32Cube_FW_N6/Utilities/lcd/stm32_lcd.c **** {
 776:../STM32Cube_FW_N6/Utilities/lcd/stm32_lcd.c ****   /* Fill the rectangle */
 777:../STM32Cube_FW_N6/Utilities/lcd/stm32_lcd.c ****   if(DrawProp[DrawProp->LcdLayer].LcdPixelFormat == LCD_PIXEL_FORMAT_RGB565)
 778:../STM32Cube_FW_N6/Utilities/lcd/stm32_lcd.c ****   {
 779:../STM32Cube_FW_N6/Utilities/lcd/stm32_lcd.c ****     FuncDriver.FillRect(DrawProp->LcdDevice, Xpos, Ypos, Width, Height, CONVERTARGB88882RGB565(Colo
 780:../STM32Cube_FW_N6/Utilities/lcd/stm32_lcd.c ****   }
 781:../STM32Cube_FW_N6/Utilities/lcd/stm32_lcd.c ****   else if(DrawProp[DrawProp->LcdLayer].LcdPixelFormat == LCD_PIXEL_FORMAT_RGB888)
 782:../STM32Cube_FW_N6/Utilities/lcd/stm32_lcd.c ****   {
 783:../STM32Cube_FW_N6/Utilities/lcd/stm32_lcd.c ****     FuncDriver.FillRect(DrawProp->LcdDevice, Xpos, Ypos, Width, Height, CONVERTARGB88882RGB888(Colo
 784:../STM32Cube_FW_N6/Utilities/lcd/stm32_lcd.c ****   }
 785:../STM32Cube_FW_N6/Utilities/lcd/stm32_lcd.c ****   else if(DrawProp[DrawProp->LcdLayer].LcdPixelFormat == LCD_PIXEL_FORMAT_ARGB4444)
 786:../STM32Cube_FW_N6/Utilities/lcd/stm32_lcd.c ****   {
 787:../STM32Cube_FW_N6/Utilities/lcd/stm32_lcd.c ****     FuncDriver.FillRect(DrawProp->LcdDevice, Xpos, Ypos, Width, Height, CONVERTARGB88882ARGB4444(Co
 788:../STM32Cube_FW_N6/Utilities/lcd/stm32_lcd.c ****   }
 789:../STM32Cube_FW_N6/Utilities/lcd/stm32_lcd.c ****   else /*LCD_PIXEL_FORMAT_ARGB8888*/
 790:../STM32Cube_FW_N6/Utilities/lcd/stm32_lcd.c ****   {
 791:../STM32Cube_FW_N6/Utilities/lcd/stm32_lcd.c ****     FuncDriver.FillRect(DrawProp->LcdDevice, Xpos, Ypos, Width, Height, Color);
 792:../STM32Cube_FW_N6/Utilities/lcd/stm32_lcd.c ****   }
 793:../STM32Cube_FW_N6/Utilities/lcd/stm32_lcd.c **** }
 794:../STM32Cube_FW_N6/Utilities/lcd/stm32_lcd.c **** 
 795:../STM32Cube_FW_N6/Utilities/lcd/stm32_lcd.c **** /**
 796:../STM32Cube_FW_N6/Utilities/lcd/stm32_lcd.c ****   * @brief  Draws a full circle in currently active layer.
 797:../STM32Cube_FW_N6/Utilities/lcd/stm32_lcd.c ****   * @param  Xpos   X position
 798:../STM32Cube_FW_N6/Utilities/lcd/stm32_lcd.c ****   * @param  Ypos   Y position
 799:../STM32Cube_FW_N6/Utilities/lcd/stm32_lcd.c ****   * @param  Radius Circle radius
 800:../STM32Cube_FW_N6/Utilities/lcd/stm32_lcd.c ****   * @param  Color  Draw color
 801:../STM32Cube_FW_N6/Utilities/lcd/stm32_lcd.c ****   */
 802:../STM32Cube_FW_N6/Utilities/lcd/stm32_lcd.c **** void UTIL_LCD_FillCircle(uint32_t Xpos, uint32_t Ypos, uint32_t Radius, uint32_t Color)
 803:../STM32Cube_FW_N6/Utilities/lcd/stm32_lcd.c **** {
 804:../STM32Cube_FW_N6/Utilities/lcd/stm32_lcd.c ****   int32_t   decision;  /* Decision Variable */
 805:../STM32Cube_FW_N6/Utilities/lcd/stm32_lcd.c ****   uint32_t  current_x; /* Current X Value */
 806:../STM32Cube_FW_N6/Utilities/lcd/stm32_lcd.c ****   uint32_t  current_y; /* Current Y Value */
 807:../STM32Cube_FW_N6/Utilities/lcd/stm32_lcd.c **** 
 808:../STM32Cube_FW_N6/Utilities/lcd/stm32_lcd.c ****   decision = 3 - (Radius << 1);
ARM GAS  /tmp/ccsDiBBo.s 			page 35


 809:../STM32Cube_FW_N6/Utilities/lcd/stm32_lcd.c **** 
 810:../STM32Cube_FW_N6/Utilities/lcd/stm32_lcd.c ****   current_x = 0;
 811:../STM32Cube_FW_N6/Utilities/lcd/stm32_lcd.c ****   current_y = Radius;
 812:../STM32Cube_FW_N6/Utilities/lcd/stm32_lcd.c **** 
 813:../STM32Cube_FW_N6/Utilities/lcd/stm32_lcd.c ****   while (current_x <= current_y)
 814:../STM32Cube_FW_N6/Utilities/lcd/stm32_lcd.c ****   {
 815:../STM32Cube_FW_N6/Utilities/lcd/stm32_lcd.c ****     if(current_y > 0)
 816:../STM32Cube_FW_N6/Utilities/lcd/stm32_lcd.c ****     {
 817:../STM32Cube_FW_N6/Utilities/lcd/stm32_lcd.c ****       if(current_y >= Xpos)
 818:../STM32Cube_FW_N6/Utilities/lcd/stm32_lcd.c ****       {
 819:../STM32Cube_FW_N6/Utilities/lcd/stm32_lcd.c ****         UTIL_LCD_DrawHLine(0, Ypos + current_x, 2*current_y - (current_y - Xpos), Color);
 820:../STM32Cube_FW_N6/Utilities/lcd/stm32_lcd.c ****         UTIL_LCD_DrawHLine(0, Ypos - current_x, 2*current_y - (current_y - Xpos), Color);
 821:../STM32Cube_FW_N6/Utilities/lcd/stm32_lcd.c ****       }
 822:../STM32Cube_FW_N6/Utilities/lcd/stm32_lcd.c ****       else
 823:../STM32Cube_FW_N6/Utilities/lcd/stm32_lcd.c ****       {
 824:../STM32Cube_FW_N6/Utilities/lcd/stm32_lcd.c ****         UTIL_LCD_DrawHLine(Xpos - current_y, Ypos + current_x, 2*current_y, Color);
 825:../STM32Cube_FW_N6/Utilities/lcd/stm32_lcd.c ****         UTIL_LCD_DrawHLine(Xpos - current_y, Ypos - current_x, 2*current_y, Color);
 826:../STM32Cube_FW_N6/Utilities/lcd/stm32_lcd.c ****       }
 827:../STM32Cube_FW_N6/Utilities/lcd/stm32_lcd.c ****     }
 828:../STM32Cube_FW_N6/Utilities/lcd/stm32_lcd.c **** 
 829:../STM32Cube_FW_N6/Utilities/lcd/stm32_lcd.c ****     if(current_x > 0)
 830:../STM32Cube_FW_N6/Utilities/lcd/stm32_lcd.c ****     {
 831:../STM32Cube_FW_N6/Utilities/lcd/stm32_lcd.c ****       if(current_x >= Xpos)
 832:../STM32Cube_FW_N6/Utilities/lcd/stm32_lcd.c ****       {
 833:../STM32Cube_FW_N6/Utilities/lcd/stm32_lcd.c ****         UTIL_LCD_DrawHLine(0, Ypos - current_y, 2*current_x - (current_x - Xpos), Color);
 834:../STM32Cube_FW_N6/Utilities/lcd/stm32_lcd.c ****         UTIL_LCD_DrawHLine(0, Ypos + current_y, 2*current_x - (current_x - Xpos), Color);
 835:../STM32Cube_FW_N6/Utilities/lcd/stm32_lcd.c ****       }
 836:../STM32Cube_FW_N6/Utilities/lcd/stm32_lcd.c ****       else
 837:../STM32Cube_FW_N6/Utilities/lcd/stm32_lcd.c ****       {
 838:../STM32Cube_FW_N6/Utilities/lcd/stm32_lcd.c ****         UTIL_LCD_DrawHLine(Xpos - current_x, Ypos - current_y, 2*current_x, Color);
 839:../STM32Cube_FW_N6/Utilities/lcd/stm32_lcd.c ****         UTIL_LCD_DrawHLine(Xpos - current_x, Ypos + current_y, 2*current_x, Color);
 840:../STM32Cube_FW_N6/Utilities/lcd/stm32_lcd.c ****       }
 841:../STM32Cube_FW_N6/Utilities/lcd/stm32_lcd.c ****     }
 842:../STM32Cube_FW_N6/Utilities/lcd/stm32_lcd.c ****     if (decision < 0)
 843:../STM32Cube_FW_N6/Utilities/lcd/stm32_lcd.c ****     {
 844:../STM32Cube_FW_N6/Utilities/lcd/stm32_lcd.c ****       decision += (current_x << 2) + 6;
 845:../STM32Cube_FW_N6/Utilities/lcd/stm32_lcd.c ****     }
 846:../STM32Cube_FW_N6/Utilities/lcd/stm32_lcd.c ****     else
 847:../STM32Cube_FW_N6/Utilities/lcd/stm32_lcd.c ****     {
 848:../STM32Cube_FW_N6/Utilities/lcd/stm32_lcd.c ****       decision += ((current_x - current_y) << 2) + 10;
 849:../STM32Cube_FW_N6/Utilities/lcd/stm32_lcd.c ****       current_y--;
 850:../STM32Cube_FW_N6/Utilities/lcd/stm32_lcd.c ****     }
 851:../STM32Cube_FW_N6/Utilities/lcd/stm32_lcd.c ****     current_x++;
 852:../STM32Cube_FW_N6/Utilities/lcd/stm32_lcd.c ****   }
 853:../STM32Cube_FW_N6/Utilities/lcd/stm32_lcd.c **** 
 854:../STM32Cube_FW_N6/Utilities/lcd/stm32_lcd.c ****   UTIL_LCD_DrawCircle(Xpos, Ypos, Radius, Color);
 855:../STM32Cube_FW_N6/Utilities/lcd/stm32_lcd.c **** }
 856:../STM32Cube_FW_N6/Utilities/lcd/stm32_lcd.c **** 
 857:../STM32Cube_FW_N6/Utilities/lcd/stm32_lcd.c **** /**
 858:../STM32Cube_FW_N6/Utilities/lcd/stm32_lcd.c ****   * @brief  Draws a full poly-line (between many points) in currently active layer.
 859:../STM32Cube_FW_N6/Utilities/lcd/stm32_lcd.c ****   * @param  Points     Pointer to the points array
 860:../STM32Cube_FW_N6/Utilities/lcd/stm32_lcd.c ****   * @param  PointCount Number of points
 861:../STM32Cube_FW_N6/Utilities/lcd/stm32_lcd.c ****   * @param  Color      Draw color
 862:../STM32Cube_FW_N6/Utilities/lcd/stm32_lcd.c ****   */
 863:../STM32Cube_FW_N6/Utilities/lcd/stm32_lcd.c **** void UTIL_LCD_FillPolygon(pPoint Points, uint32_t PointCount, uint32_t Color)
 864:../STM32Cube_FW_N6/Utilities/lcd/stm32_lcd.c **** {
 865:../STM32Cube_FW_N6/Utilities/lcd/stm32_lcd.c ****   int16_t X = 0, Y = 0, X2 = 0, Y2 = 0, x_center = 0, y_center = 0, x_first = 0, y_first = 0, pixel
ARM GAS  /tmp/ccsDiBBo.s 			page 36


 866:../STM32Cube_FW_N6/Utilities/lcd/stm32_lcd.c ****   uint32_t  image_left = 0, image_right = 0, image_top = 0, image_bottom = 0;
 867:../STM32Cube_FW_N6/Utilities/lcd/stm32_lcd.c ****   Triangle_Positions_t positions;
 868:../STM32Cube_FW_N6/Utilities/lcd/stm32_lcd.c **** 
 869:../STM32Cube_FW_N6/Utilities/lcd/stm32_lcd.c ****   image_left = image_right = Points->X;
 870:../STM32Cube_FW_N6/Utilities/lcd/stm32_lcd.c ****   image_top= image_bottom = Points->Y;
 871:../STM32Cube_FW_N6/Utilities/lcd/stm32_lcd.c **** 
 872:../STM32Cube_FW_N6/Utilities/lcd/stm32_lcd.c ****   for(counter = 1; counter < PointCount; counter++)
 873:../STM32Cube_FW_N6/Utilities/lcd/stm32_lcd.c ****   {
 874:../STM32Cube_FW_N6/Utilities/lcd/stm32_lcd.c ****     pixel_x = POLY_X(counter);
 875:../STM32Cube_FW_N6/Utilities/lcd/stm32_lcd.c ****     if(pixel_x < image_left)
 876:../STM32Cube_FW_N6/Utilities/lcd/stm32_lcd.c ****     {
 877:../STM32Cube_FW_N6/Utilities/lcd/stm32_lcd.c ****       image_left = pixel_x;
 878:../STM32Cube_FW_N6/Utilities/lcd/stm32_lcd.c ****     }
 879:../STM32Cube_FW_N6/Utilities/lcd/stm32_lcd.c ****     if(pixel_x > image_right)
 880:../STM32Cube_FW_N6/Utilities/lcd/stm32_lcd.c ****     {
 881:../STM32Cube_FW_N6/Utilities/lcd/stm32_lcd.c ****       image_right = pixel_x;
 882:../STM32Cube_FW_N6/Utilities/lcd/stm32_lcd.c ****     }
 883:../STM32Cube_FW_N6/Utilities/lcd/stm32_lcd.c **** 
 884:../STM32Cube_FW_N6/Utilities/lcd/stm32_lcd.c ****     pixel_y = POLY_Y(counter);
 885:../STM32Cube_FW_N6/Utilities/lcd/stm32_lcd.c ****     if(pixel_y < image_top)
 886:../STM32Cube_FW_N6/Utilities/lcd/stm32_lcd.c ****     {
 887:../STM32Cube_FW_N6/Utilities/lcd/stm32_lcd.c ****       image_top = pixel_y;
 888:../STM32Cube_FW_N6/Utilities/lcd/stm32_lcd.c ****     }
 889:../STM32Cube_FW_N6/Utilities/lcd/stm32_lcd.c ****     if(pixel_y > image_bottom)
 890:../STM32Cube_FW_N6/Utilities/lcd/stm32_lcd.c ****     {
 891:../STM32Cube_FW_N6/Utilities/lcd/stm32_lcd.c ****       image_bottom = pixel_y;
 892:../STM32Cube_FW_N6/Utilities/lcd/stm32_lcd.c ****     }
 893:../STM32Cube_FW_N6/Utilities/lcd/stm32_lcd.c ****   }
 894:../STM32Cube_FW_N6/Utilities/lcd/stm32_lcd.c **** 
 895:../STM32Cube_FW_N6/Utilities/lcd/stm32_lcd.c ****   if(PointCount < 2)
 896:../STM32Cube_FW_N6/Utilities/lcd/stm32_lcd.c ****   {
 897:../STM32Cube_FW_N6/Utilities/lcd/stm32_lcd.c ****     return;
 898:../STM32Cube_FW_N6/Utilities/lcd/stm32_lcd.c ****   }
 899:../STM32Cube_FW_N6/Utilities/lcd/stm32_lcd.c **** 
 900:../STM32Cube_FW_N6/Utilities/lcd/stm32_lcd.c ****   x_center = (image_left + image_right)/2;
 901:../STM32Cube_FW_N6/Utilities/lcd/stm32_lcd.c ****   y_center = (image_bottom + image_top)/2;
 902:../STM32Cube_FW_N6/Utilities/lcd/stm32_lcd.c **** 
 903:../STM32Cube_FW_N6/Utilities/lcd/stm32_lcd.c ****   x_first = Points->X;
 904:../STM32Cube_FW_N6/Utilities/lcd/stm32_lcd.c ****   y_first = Points->Y;
 905:../STM32Cube_FW_N6/Utilities/lcd/stm32_lcd.c **** 
 906:../STM32Cube_FW_N6/Utilities/lcd/stm32_lcd.c ****   while(--PointCount)
 907:../STM32Cube_FW_N6/Utilities/lcd/stm32_lcd.c ****   {
 908:../STM32Cube_FW_N6/Utilities/lcd/stm32_lcd.c ****     X = Points->X;
 909:../STM32Cube_FW_N6/Utilities/lcd/stm32_lcd.c ****     Y = Points->Y;
 910:../STM32Cube_FW_N6/Utilities/lcd/stm32_lcd.c ****     Points++;
 911:../STM32Cube_FW_N6/Utilities/lcd/stm32_lcd.c ****     X2 = Points->X;
 912:../STM32Cube_FW_N6/Utilities/lcd/stm32_lcd.c ****     Y2 = Points->Y;
 913:../STM32Cube_FW_N6/Utilities/lcd/stm32_lcd.c ****     positions.x1 = X;
 914:../STM32Cube_FW_N6/Utilities/lcd/stm32_lcd.c ****     positions.y1 = Y;
 915:../STM32Cube_FW_N6/Utilities/lcd/stm32_lcd.c ****     positions.x2 = X2;
 916:../STM32Cube_FW_N6/Utilities/lcd/stm32_lcd.c ****     positions.y2 = Y2;
 917:../STM32Cube_FW_N6/Utilities/lcd/stm32_lcd.c ****     positions.x3 = x_center;
 918:../STM32Cube_FW_N6/Utilities/lcd/stm32_lcd.c ****     positions.y3 = y_center;
 919:../STM32Cube_FW_N6/Utilities/lcd/stm32_lcd.c ****     FillTriangle(&positions, Color);
 920:../STM32Cube_FW_N6/Utilities/lcd/stm32_lcd.c **** 
 921:../STM32Cube_FW_N6/Utilities/lcd/stm32_lcd.c ****     positions.x2 = x_center;
 922:../STM32Cube_FW_N6/Utilities/lcd/stm32_lcd.c ****     positions.y2 = y_center;
ARM GAS  /tmp/ccsDiBBo.s 			page 37


 923:../STM32Cube_FW_N6/Utilities/lcd/stm32_lcd.c ****     positions.x3 = X2;
 924:../STM32Cube_FW_N6/Utilities/lcd/stm32_lcd.c ****     positions.y3 = Y2;
 925:../STM32Cube_FW_N6/Utilities/lcd/stm32_lcd.c ****     FillTriangle(&positions, Color);
 926:../STM32Cube_FW_N6/Utilities/lcd/stm32_lcd.c **** 
 927:../STM32Cube_FW_N6/Utilities/lcd/stm32_lcd.c ****     positions.x1 = x_center;
 928:../STM32Cube_FW_N6/Utilities/lcd/stm32_lcd.c ****     positions.y1 = y_center;
 929:../STM32Cube_FW_N6/Utilities/lcd/stm32_lcd.c ****     positions.x2 = X2;
 930:../STM32Cube_FW_N6/Utilities/lcd/stm32_lcd.c ****     positions.y2 = Y2;
 931:../STM32Cube_FW_N6/Utilities/lcd/stm32_lcd.c ****     positions.x3 = X;
 932:../STM32Cube_FW_N6/Utilities/lcd/stm32_lcd.c ****     positions.y3 = Y;
 933:../STM32Cube_FW_N6/Utilities/lcd/stm32_lcd.c ****     FillTriangle(&positions, Color);
 934:../STM32Cube_FW_N6/Utilities/lcd/stm32_lcd.c ****   }
 935:../STM32Cube_FW_N6/Utilities/lcd/stm32_lcd.c **** 
 936:../STM32Cube_FW_N6/Utilities/lcd/stm32_lcd.c ****     positions.x1 = x_first;
 937:../STM32Cube_FW_N6/Utilities/lcd/stm32_lcd.c ****     positions.y1 = y_first;
 938:../STM32Cube_FW_N6/Utilities/lcd/stm32_lcd.c ****     positions.x2 = X2;
 939:../STM32Cube_FW_N6/Utilities/lcd/stm32_lcd.c ****     positions.y2 = Y2;
 940:../STM32Cube_FW_N6/Utilities/lcd/stm32_lcd.c ****     positions.x3 = x_center;
 941:../STM32Cube_FW_N6/Utilities/lcd/stm32_lcd.c ****     positions.y3 = y_center;
 942:../STM32Cube_FW_N6/Utilities/lcd/stm32_lcd.c ****     FillTriangle(&positions, Color);
 943:../STM32Cube_FW_N6/Utilities/lcd/stm32_lcd.c **** 
 944:../STM32Cube_FW_N6/Utilities/lcd/stm32_lcd.c ****     positions.x2 = x_center;
 945:../STM32Cube_FW_N6/Utilities/lcd/stm32_lcd.c ****     positions.y2 = y_center;
 946:../STM32Cube_FW_N6/Utilities/lcd/stm32_lcd.c ****     positions.x3 = X2;
 947:../STM32Cube_FW_N6/Utilities/lcd/stm32_lcd.c ****     positions.y3 = Y2;
 948:../STM32Cube_FW_N6/Utilities/lcd/stm32_lcd.c ****     FillTriangle(&positions, Color);
 949:../STM32Cube_FW_N6/Utilities/lcd/stm32_lcd.c **** 
 950:../STM32Cube_FW_N6/Utilities/lcd/stm32_lcd.c ****     positions.x1 = x_center;
 951:../STM32Cube_FW_N6/Utilities/lcd/stm32_lcd.c ****     positions.y1 = y_center;
 952:../STM32Cube_FW_N6/Utilities/lcd/stm32_lcd.c ****     positions.x2 = X2;
 953:../STM32Cube_FW_N6/Utilities/lcd/stm32_lcd.c ****     positions.y2 = Y2;
 954:../STM32Cube_FW_N6/Utilities/lcd/stm32_lcd.c ****     positions.x3 = x_first;
 955:../STM32Cube_FW_N6/Utilities/lcd/stm32_lcd.c ****     positions.y3 = y_first;
 956:../STM32Cube_FW_N6/Utilities/lcd/stm32_lcd.c ****     FillTriangle(&positions, Color);
 957:../STM32Cube_FW_N6/Utilities/lcd/stm32_lcd.c **** }
 958:../STM32Cube_FW_N6/Utilities/lcd/stm32_lcd.c **** 
 959:../STM32Cube_FW_N6/Utilities/lcd/stm32_lcd.c **** /**
 960:../STM32Cube_FW_N6/Utilities/lcd/stm32_lcd.c ****   * @brief  Draws a full ellipse in currently active layer.
 961:../STM32Cube_FW_N6/Utilities/lcd/stm32_lcd.c ****   * @param  Xpos    X position
 962:../STM32Cube_FW_N6/Utilities/lcd/stm32_lcd.c ****   * @param  Ypos    Y position
 963:../STM32Cube_FW_N6/Utilities/lcd/stm32_lcd.c ****   * @param  XRadius Ellipse X radius
 964:../STM32Cube_FW_N6/Utilities/lcd/stm32_lcd.c ****   * @param  YRadius Ellipse Y radius
 965:../STM32Cube_FW_N6/Utilities/lcd/stm32_lcd.c ****   * @param  Color   Draw color
 966:../STM32Cube_FW_N6/Utilities/lcd/stm32_lcd.c ****   */
 967:../STM32Cube_FW_N6/Utilities/lcd/stm32_lcd.c **** void UTIL_LCD_FillEllipse(int Xpos, int Ypos, int XRadius, int YRadius, uint32_t Color)
 968:../STM32Cube_FW_N6/Utilities/lcd/stm32_lcd.c **** {
 969:../STM32Cube_FW_N6/Utilities/lcd/stm32_lcd.c ****   int x_pos = 0, y_pos = -YRadius, err = 2-2*XRadius, e2;
 970:../STM32Cube_FW_N6/Utilities/lcd/stm32_lcd.c ****   float k = 0, rad1 = 0, rad2 = 0;
 971:../STM32Cube_FW_N6/Utilities/lcd/stm32_lcd.c **** 
 972:../STM32Cube_FW_N6/Utilities/lcd/stm32_lcd.c ****   rad1 = XRadius;
 973:../STM32Cube_FW_N6/Utilities/lcd/stm32_lcd.c ****   rad2 = YRadius;
 974:../STM32Cube_FW_N6/Utilities/lcd/stm32_lcd.c **** 
 975:../STM32Cube_FW_N6/Utilities/lcd/stm32_lcd.c ****   k = (float)(rad2/rad1);
 976:../STM32Cube_FW_N6/Utilities/lcd/stm32_lcd.c **** 
 977:../STM32Cube_FW_N6/Utilities/lcd/stm32_lcd.c ****   do
 978:../STM32Cube_FW_N6/Utilities/lcd/stm32_lcd.c ****   {
 979:../STM32Cube_FW_N6/Utilities/lcd/stm32_lcd.c ****     UTIL_LCD_DrawHLine((Xpos-(uint32_t)(x_pos/k)), (Ypos + y_pos), (2*(uint32_t)(x_pos/k) + 1), Col
ARM GAS  /tmp/ccsDiBBo.s 			page 38


 980:../STM32Cube_FW_N6/Utilities/lcd/stm32_lcd.c ****     UTIL_LCD_DrawHLine((Xpos-(uint32_t)(x_pos/k)), (Ypos - y_pos), (2*(uint32_t)(x_pos/k) + 1), Col
 981:../STM32Cube_FW_N6/Utilities/lcd/stm32_lcd.c **** 
 982:../STM32Cube_FW_N6/Utilities/lcd/stm32_lcd.c ****     e2 = err;
 983:../STM32Cube_FW_N6/Utilities/lcd/stm32_lcd.c ****     if (e2 <= x_pos)
 984:../STM32Cube_FW_N6/Utilities/lcd/stm32_lcd.c ****     {
 985:../STM32Cube_FW_N6/Utilities/lcd/stm32_lcd.c ****       err += ++x_pos*2+1;
 986:../STM32Cube_FW_N6/Utilities/lcd/stm32_lcd.c ****       if (-y_pos == x_pos && e2 <= y_pos) e2 = 0;
 987:../STM32Cube_FW_N6/Utilities/lcd/stm32_lcd.c ****     }
 988:../STM32Cube_FW_N6/Utilities/lcd/stm32_lcd.c ****     if (e2 > y_pos) err += ++y_pos*2+1;
 989:../STM32Cube_FW_N6/Utilities/lcd/stm32_lcd.c ****   }
 990:../STM32Cube_FW_N6/Utilities/lcd/stm32_lcd.c ****   while (y_pos <= 0);
 991:../STM32Cube_FW_N6/Utilities/lcd/stm32_lcd.c **** }
 992:../STM32Cube_FW_N6/Utilities/lcd/stm32_lcd.c **** 
 993:../STM32Cube_FW_N6/Utilities/lcd/stm32_lcd.c **** /**
 994:../STM32Cube_FW_N6/Utilities/lcd/stm32_lcd.c ****   * @brief  Draws a character on LCD.
 995:../STM32Cube_FW_N6/Utilities/lcd/stm32_lcd.c ****   * @param  Xpos  Line where to display the character shape
 996:../STM32Cube_FW_N6/Utilities/lcd/stm32_lcd.c ****   * @param  Ypos  Start column address
 997:../STM32Cube_FW_N6/Utilities/lcd/stm32_lcd.c ****   * @param  pData Pointer to the character data
 998:../STM32Cube_FW_N6/Utilities/lcd/stm32_lcd.c ****   */
 999:../STM32Cube_FW_N6/Utilities/lcd/stm32_lcd.c **** static void DrawChar(uint32_t Xpos, uint32_t Ypos, const uint8_t *pData)
 1056              		.loc 1 999 13 is_stmt 1 view .LVU240
 1057              	.LBB5:
1000:../STM32Cube_FW_N6/Utilities/lcd/stm32_lcd.c **** {
1001:../STM32Cube_FW_N6/Utilities/lcd/stm32_lcd.c ****   uint32_t i = 0, j = 0, offset;
 1058              		.loc 1 1001 3 view .LVU241
1002:../STM32Cube_FW_N6/Utilities/lcd/stm32_lcd.c ****   uint32_t height, width;
 1059              		.loc 1 1002 3 view .LVU242
1003:../STM32Cube_FW_N6/Utilities/lcd/stm32_lcd.c ****   uint8_t  *pchar;
 1060              		.loc 1 1003 3 view .LVU243
1004:../STM32Cube_FW_N6/Utilities/lcd/stm32_lcd.c ****   uint32_t line;
 1061              		.loc 1 1004 3 view .LVU244
1005:../STM32Cube_FW_N6/Utilities/lcd/stm32_lcd.c **** 
1006:../STM32Cube_FW_N6/Utilities/lcd/stm32_lcd.c ****   height = DrawProp[DrawProp->LcdLayer].pFont->Height;
 1062              		.loc 1 1006 3 view .LVU245
1007:../STM32Cube_FW_N6/Utilities/lcd/stm32_lcd.c ****   width  = DrawProp[DrawProp->LcdLayer].pFont->Width;
 1063              		.loc 1 1007 3 view .LVU246
1008:../STM32Cube_FW_N6/Utilities/lcd/stm32_lcd.c **** 
1009:../STM32Cube_FW_N6/Utilities/lcd/stm32_lcd.c ****   uint8_t rgb8[24*4];
 1064              		.loc 1 1009 3 view .LVU247
1010:../STM32Cube_FW_N6/Utilities/lcd/stm32_lcd.c ****   uint16_t* rgb16 = (uint16_t*)rgb8;
 1065              		.loc 1 1010 3 view .LVU248
1011:../STM32Cube_FW_N6/Utilities/lcd/stm32_lcd.c ****   uint32_t* argb32 = (uint32_t*)rgb8;
 1066              		.loc 1 1011 3 view .LVU249
1012:../STM32Cube_FW_N6/Utilities/lcd/stm32_lcd.c ****   uint16_t* argb4444 = (uint16_t*)rgb8;
 1067              		.loc 1 1012 3 view .LVU250
1013:../STM32Cube_FW_N6/Utilities/lcd/stm32_lcd.c **** 
1014:../STM32Cube_FW_N6/Utilities/lcd/stm32_lcd.c ****   offset =  8 *((width + 7)/8) -  width ;
 1068              		.loc 1 1014 3 view .LVU251
1015:../STM32Cube_FW_N6/Utilities/lcd/stm32_lcd.c **** 
1016:../STM32Cube_FW_N6/Utilities/lcd/stm32_lcd.c ****   for(i = 0; i < height; i++)
1017:../STM32Cube_FW_N6/Utilities/lcd/stm32_lcd.c ****   {
1018:../STM32Cube_FW_N6/Utilities/lcd/stm32_lcd.c ****     pchar = ((uint8_t *)pData + (width + 7)/8 * i);
1019:../STM32Cube_FW_N6/Utilities/lcd/stm32_lcd.c **** 
1020:../STM32Cube_FW_N6/Utilities/lcd/stm32_lcd.c ****     switch(((width + 7)/8))
1021:../STM32Cube_FW_N6/Utilities/lcd/stm32_lcd.c ****     {
1022:../STM32Cube_FW_N6/Utilities/lcd/stm32_lcd.c **** 
1023:../STM32Cube_FW_N6/Utilities/lcd/stm32_lcd.c ****     case 1:
ARM GAS  /tmp/ccsDiBBo.s 			page 39


1024:../STM32Cube_FW_N6/Utilities/lcd/stm32_lcd.c ****       line =  pchar[0];
1025:../STM32Cube_FW_N6/Utilities/lcd/stm32_lcd.c ****       break;
1026:../STM32Cube_FW_N6/Utilities/lcd/stm32_lcd.c **** 
1027:../STM32Cube_FW_N6/Utilities/lcd/stm32_lcd.c ****     case 2:
1028:../STM32Cube_FW_N6/Utilities/lcd/stm32_lcd.c ****       line =  (pchar[0]<< 8) | pchar[1];
1029:../STM32Cube_FW_N6/Utilities/lcd/stm32_lcd.c ****       break;
1030:../STM32Cube_FW_N6/Utilities/lcd/stm32_lcd.c **** 
1031:../STM32Cube_FW_N6/Utilities/lcd/stm32_lcd.c ****     case 3:
1032:../STM32Cube_FW_N6/Utilities/lcd/stm32_lcd.c ****     default:
1033:../STM32Cube_FW_N6/Utilities/lcd/stm32_lcd.c ****       line =  (pchar[0]<< 16) | (pchar[1]<< 8) | pchar[2];
1034:../STM32Cube_FW_N6/Utilities/lcd/stm32_lcd.c ****       break;
1035:../STM32Cube_FW_N6/Utilities/lcd/stm32_lcd.c ****     }
1036:../STM32Cube_FW_N6/Utilities/lcd/stm32_lcd.c **** 
1037:../STM32Cube_FW_N6/Utilities/lcd/stm32_lcd.c ****     if(DrawProp[DrawProp->LcdLayer].LcdPixelFormat == LCD_PIXEL_FORMAT_RGB565)
1038:../STM32Cube_FW_N6/Utilities/lcd/stm32_lcd.c ****     {
1039:../STM32Cube_FW_N6/Utilities/lcd/stm32_lcd.c ****       for (j = 0; j < width; j++)
1040:../STM32Cube_FW_N6/Utilities/lcd/stm32_lcd.c ****       {
1041:../STM32Cube_FW_N6/Utilities/lcd/stm32_lcd.c ****         if(line & (1 << (width- j + offset- 1)))
1042:../STM32Cube_FW_N6/Utilities/lcd/stm32_lcd.c ****         {
1043:../STM32Cube_FW_N6/Utilities/lcd/stm32_lcd.c ****           rgb16[j] = CONVERTARGB88882RGB565(DrawProp[DrawProp->LcdLayer].TextColor);
1044:../STM32Cube_FW_N6/Utilities/lcd/stm32_lcd.c ****         }
1045:../STM32Cube_FW_N6/Utilities/lcd/stm32_lcd.c ****         else
1046:../STM32Cube_FW_N6/Utilities/lcd/stm32_lcd.c ****         {
1047:../STM32Cube_FW_N6/Utilities/lcd/stm32_lcd.c ****           rgb16[j] = CONVERTARGB88882RGB565(DrawProp[DrawProp->LcdLayer].BackColor);
1048:../STM32Cube_FW_N6/Utilities/lcd/stm32_lcd.c ****         }
1049:../STM32Cube_FW_N6/Utilities/lcd/stm32_lcd.c ****       }
1050:../STM32Cube_FW_N6/Utilities/lcd/stm32_lcd.c ****       UTIL_LCD_FillRGBRect(Xpos,  Ypos++, &rgb8[0], width, 1);
1051:../STM32Cube_FW_N6/Utilities/lcd/stm32_lcd.c ****     }
1052:../STM32Cube_FW_N6/Utilities/lcd/stm32_lcd.c ****     else if(DrawProp[DrawProp->LcdLayer].LcdPixelFormat == LCD_PIXEL_FORMAT_RGB888)
1053:../STM32Cube_FW_N6/Utilities/lcd/stm32_lcd.c ****     {
1054:../STM32Cube_FW_N6/Utilities/lcd/stm32_lcd.c ****       for (j = 0; j < width*3; j = j+ 3)
 1069              		.loc 1 1054 28 is_stmt 0 discriminator 1 view .LVU252
 1070 0028 04EB4402 		add	r2, r4, r4, lsl #1
 1071              	.LVL68:
 1072              		.loc 1 1054 28 discriminator 1 view .LVU253
 1073 002c 0992     		str	r2, [sp, #36]
 1074 002e 4A1C     		adds	r2, r1, #1
 1075 0030 0592     		str	r2, [sp, #20]
1016:../STM32Cube_FW_N6/Utilities/lcd/stm32_lcd.c ****   {
 1076              		.loc 1 1016 9 view .LVU254
 1077 0032 0022     		movs	r2, #0
1014:../STM32Cube_FW_N6/Utilities/lcd/stm32_lcd.c **** 
 1078              		.loc 1 1014 15 view .LVU255
 1079 0034 23F00706 		bic	r6, r3, #7
 1080              	.LVL69:
1016:../STM32Cube_FW_N6/Utilities/lcd/stm32_lcd.c ****   {
 1081              		.loc 1 1016 3 is_stmt 1 view .LVU256
1018:../STM32Cube_FW_N6/Utilities/lcd/stm32_lcd.c **** 
 1082              		.loc 1 1018 44 is_stmt 0 view .LVU257
 1083 0038 DB08     		lsrs	r3, r3, #3
1016:../STM32Cube_FW_N6/Utilities/lcd/stm32_lcd.c ****   {
 1084              		.loc 1 1016 9 view .LVU258
 1085 003a 0292     		str	r2, [sp, #8]
1018:../STM32Cube_FW_N6/Utilities/lcd/stm32_lcd.c **** 
 1086              		.loc 1 1018 44 view .LVU259
 1087 003c 0693     		str	r3, [sp, #24]
 1088              	.LVL70:
ARM GAS  /tmp/ccsDiBBo.s 			page 40


 1089              	.L67:
1018:../STM32Cube_FW_N6/Utilities/lcd/stm32_lcd.c **** 
 1090              		.loc 1 1018 44 view .LVU260
 1091 003e 059B     		ldr	r3, [sp, #20]
1016:../STM32Cube_FW_N6/Utilities/lcd/stm32_lcd.c ****   {
 1092              		.loc 1 1016 16 discriminator 1 view .LVU261
 1093 0040 029A     		ldr	r2, [sp, #8]
 1094 0042 591E     		subs	r1, r3, #1
 1095              	.LVL71:
1016:../STM32Cube_FW_N6/Utilities/lcd/stm32_lcd.c ****   {
 1096              		.loc 1 1016 16 is_stmt 1 discriminator 1 view .LVU262
 1097 0044 079B     		ldr	r3, [sp, #28]
 1098 0046 9342     		cmp	r3, r2
 1099 0048 02D8     		bhi	.L91
 1100              	.LBE5:
 1101              	.LBE4:
 434:../STM32Cube_FW_N6/Utilities/lcd/stm32_lcd.c **** 
 1102              		.loc 1 434 1 is_stmt 0 view .LVU263
 1103 004a 23B0     		add	sp, sp, #140
 1104              		.cfi_remember_state
 1105              		.cfi_def_cfa_offset 36
 1106              		@ sp needed
 1107 004c BDE8F08F 		pop	{r4, r5, r6, r7, r8, r9, r10, fp, pc}
 1108              	.LVL72:
 1109              	.L91:
 1110              		.cfi_restore_state
 1111              	.LBB7:
 1112              	.LBB6:
1018:../STM32Cube_FW_N6/Utilities/lcd/stm32_lcd.c **** 
 1113              		.loc 1 1018 5 is_stmt 1 view .LVU264
1018:../STM32Cube_FW_N6/Utilities/lcd/stm32_lcd.c **** 
 1114              		.loc 1 1018 11 is_stmt 0 view .LVU265
 1115 0050 089B     		ldr	r3, [sp, #32]
 1116 0052 069A     		ldr	r2, [sp, #24]
 1117              	.LVL73:
1018:../STM32Cube_FW_N6/Utilities/lcd/stm32_lcd.c **** 
 1118              		.loc 1 1018 11 view .LVU266
 1119 0054 0298     		ldr	r0, [sp, #8]
1020:../STM32Cube_FW_N6/Utilities/lcd/stm32_lcd.c ****     {
 1120              		.loc 1 1020 5 view .LVU267
 1121 0056 069F     		ldr	r7, [sp, #24]
1018:../STM32Cube_FW_N6/Utilities/lcd/stm32_lcd.c **** 
 1122              		.loc 1 1018 11 view .LVU268
 1123 0058 00FB0235 		mla	r5, r0, r2, r3
 1124 005c 049B     		ldr	r3, [sp, #16]
1020:../STM32Cube_FW_N6/Utilities/lcd/stm32_lcd.c ****     {
 1125              		.loc 1 1020 5 view .LVU269
 1126 005e 012F     		cmp	r7, #1
1018:../STM32Cube_FW_N6/Utilities/lcd/stm32_lcd.c **** 
 1127              		.loc 1 1018 11 view .LVU270
 1128 0060 03EB0502 		add	r2, r3, r5
 1129              	.LVL74:
1020:../STM32Cube_FW_N6/Utilities/lcd/stm32_lcd.c ****     {
 1130              		.loc 1 1020 5 is_stmt 1 view .LVU271
1024:../STM32Cube_FW_N6/Utilities/lcd/stm32_lcd.c ****       break;
 1131              		.loc 1 1024 20 is_stmt 0 view .LVU272
 1132 0064 5B5D     		ldrb	r3, [r3, r5]	@ zero_extendqisi2
ARM GAS  /tmp/ccsDiBBo.s 			page 41


1024:../STM32Cube_FW_N6/Utilities/lcd/stm32_lcd.c ****       break;
 1133              		.loc 1 1024 12 view .LVU273
 1134 0066 1846     		mov	r0, r3
1020:../STM32Cube_FW_N6/Utilities/lcd/stm32_lcd.c ****     {
 1135              		.loc 1 1020 5 view .LVU274
 1136 0068 05D0     		beq	.L71
 1137 006a 022F     		cmp	r7, #2
 1138 006c 2AD1     		bne	.L97
1028:../STM32Cube_FW_N6/Utilities/lcd/stm32_lcd.c ****       break;
 1139              		.loc 1 1028 7 is_stmt 1 view .LVU275
1028:../STM32Cube_FW_N6/Utilities/lcd/stm32_lcd.c ****       break;
 1140              		.loc 1 1028 12 is_stmt 0 view .LVU276
 1141 006e 049B     		ldr	r3, [sp, #16]
 1142 0070 585B     		ldrh	r0, [r3, r5]	@ unaligned
 1143 0072 40BA     		rev16	r0, r0
 1144 0074 80B2     		uxth	r0, r0
 1145              	.LVL75:
1029:../STM32Cube_FW_N6/Utilities/lcd/stm32_lcd.c **** 
 1146              		.loc 1 1029 7 is_stmt 1 view .LVU277
 1147              	.L71:
1037:../STM32Cube_FW_N6/Utilities/lcd/stm32_lcd.c ****     {
 1148              		.loc 1 1037 5 view .LVU278
1037:../STM32Cube_FW_N6/Utilities/lcd/stm32_lcd.c ****     {
 1149              		.loc 1 1037 25 is_stmt 0 view .LVU279
 1150 0076 634B     		ldr	r3, .L104
 1151 0078 DD68     		ldr	r5, [r3, #12]
1037:../STM32Cube_FW_N6/Utilities/lcd/stm32_lcd.c ****     {
 1152              		.loc 1 1037 36 view .LVU280
 1153 007a 03EB4515 		add	r5, r3, r5, lsl #5
 1154 007e D5F81CC0 		ldr	ip, [r5, #28]
1037:../STM32Cube_FW_N6/Utilities/lcd/stm32_lcd.c ****     {
 1155              		.loc 1 1037 7 view .LVU281
 1156 0082 BCF1020F 		cmp	ip, #2
 1157 0086 40D1     		bne	.L72
 1158 0088 4FF00108 		mov	r8, #1
1039:../STM32Cube_FW_N6/Utilities/lcd/stm32_lcd.c ****       {
 1159              		.loc 1 1039 14 view .LVU282
 1160 008c 4FF00009 		mov	r9, #0
 1161 0090 4346     		mov	r3, r8
 1162 0092 4C45     		cmp	r4, r9
 1163 0094 04EB0302 		add	r2, r4, r3
 1164              	.LVL76:
1039:../STM32Cube_FW_N6/Utilities/lcd/stm32_lcd.c ****       {
 1165              		.loc 1 1039 14 view .LVU283
 1166 0098 08BF     		it	eq
 1167 009a 4246     		moveq	r2, r8
 1168 009c 0DF1280C 		add	ip, sp, #40
 1169              	.LVL77:
1041:../STM32Cube_FW_N6/Utilities/lcd/stm32_lcd.c ****         {
 1170              		.loc 1 1041 43 view .LVU284
 1171 00a0 06F1FF3A 		add	r10, r6, #-1
 1172              	.LVL78:
 1173              	.L73:
1039:../STM32Cube_FW_N6/Utilities/lcd/stm32_lcd.c ****       {
 1174              		.loc 1 1039 21 is_stmt 1 discriminator 1 view .LVU285
 1175 00a4 013A     		subs	r2, r2, #1
 1176 00a6 14D1     		bne	.L76
ARM GAS  /tmp/ccsDiBBo.s 			page 42


 1177              	.L103:
1055:../STM32Cube_FW_N6/Utilities/lcd/stm32_lcd.c ****       {
1056:../STM32Cube_FW_N6/Utilities/lcd/stm32_lcd.c ****         if(line & (1 << (width- j/3 + offset- 1)))
1057:../STM32Cube_FW_N6/Utilities/lcd/stm32_lcd.c ****         {
1058:../STM32Cube_FW_N6/Utilities/lcd/stm32_lcd.c ****           rgb8[j] = CONVERTARGB88882RGB888((DrawProp[DrawProp->LcdLayer].TextColor)) & 0xFFU;
1059:../STM32Cube_FW_N6/Utilities/lcd/stm32_lcd.c ****           rgb8[j + 1U] = (CONVERTARGB88882RGB888((DrawProp[DrawProp->LcdLayer].TextColor)) >> 8) & 
1060:../STM32Cube_FW_N6/Utilities/lcd/stm32_lcd.c ****           rgb8[j + 2U] = (CONVERTARGB88882RGB888((DrawProp[DrawProp->LcdLayer].TextColor)) >> 16) &
1061:../STM32Cube_FW_N6/Utilities/lcd/stm32_lcd.c ****         }
1062:../STM32Cube_FW_N6/Utilities/lcd/stm32_lcd.c ****         else
1063:../STM32Cube_FW_N6/Utilities/lcd/stm32_lcd.c ****         {
1064:../STM32Cube_FW_N6/Utilities/lcd/stm32_lcd.c ****           rgb8[j] = CONVERTARGB88882RGB888((DrawProp[DrawProp->LcdLayer].BackColor)) & 0xFFU;
1065:../STM32Cube_FW_N6/Utilities/lcd/stm32_lcd.c ****           rgb8[j + 1U] = (CONVERTARGB88882RGB888((DrawProp[DrawProp->LcdLayer].BackColor)) >> 8) & 
1066:../STM32Cube_FW_N6/Utilities/lcd/stm32_lcd.c ****           rgb8[j + 2U] = (CONVERTARGB88882RGB888((DrawProp[DrawProp->LcdLayer].BackColor)) >> 16) &
1067:../STM32Cube_FW_N6/Utilities/lcd/stm32_lcd.c ****         }
1068:../STM32Cube_FW_N6/Utilities/lcd/stm32_lcd.c ****       }
1069:../STM32Cube_FW_N6/Utilities/lcd/stm32_lcd.c **** 
1070:../STM32Cube_FW_N6/Utilities/lcd/stm32_lcd.c ****       UTIL_LCD_FillRGBRect(Xpos,  Ypos++, &rgb8[0], width, 1);
1071:../STM32Cube_FW_N6/Utilities/lcd/stm32_lcd.c ****     }
1072:../STM32Cube_FW_N6/Utilities/lcd/stm32_lcd.c ****     else if(DrawProp[DrawProp->LcdLayer].LcdPixelFormat == LCD_PIXEL_FORMAT_ARGB4444)
1073:../STM32Cube_FW_N6/Utilities/lcd/stm32_lcd.c ****     {
1074:../STM32Cube_FW_N6/Utilities/lcd/stm32_lcd.c ****       for (j = 0; j < width; j++)
1075:../STM32Cube_FW_N6/Utilities/lcd/stm32_lcd.c ****       {
1076:../STM32Cube_FW_N6/Utilities/lcd/stm32_lcd.c ****         if(line & (1 << (width- j + offset- 1)))
1077:../STM32Cube_FW_N6/Utilities/lcd/stm32_lcd.c ****         {
1078:../STM32Cube_FW_N6/Utilities/lcd/stm32_lcd.c ****           argb4444[j] = CONVERTARGB88882ARGB4444(DrawProp[DrawProp->LcdLayer].TextColor);
1079:../STM32Cube_FW_N6/Utilities/lcd/stm32_lcd.c ****         }
1080:../STM32Cube_FW_N6/Utilities/lcd/stm32_lcd.c ****         else
1081:../STM32Cube_FW_N6/Utilities/lcd/stm32_lcd.c ****         {
1082:../STM32Cube_FW_N6/Utilities/lcd/stm32_lcd.c ****           argb4444[j] = CONVERTARGB88882ARGB4444(DrawProp[DrawProp->LcdLayer].BackColor);
1083:../STM32Cube_FW_N6/Utilities/lcd/stm32_lcd.c ****         }
1084:../STM32Cube_FW_N6/Utilities/lcd/stm32_lcd.c ****       }
1085:../STM32Cube_FW_N6/Utilities/lcd/stm32_lcd.c ****       UTIL_LCD_FillRGBRect(Xpos,  Ypos++, (uint8_t*)&argb4444[0], width, 1);
 1178              		.loc 1 1085 7 view .LVU286
 1179              	.LVL79:
 1180              		.loc 1 1085 7 is_stmt 0 view .LVU287
 1181 00a8 CDF80080 		str	r8, [sp]
 1182              	.LVL80:
 1183              	.L101:
1086:../STM32Cube_FW_N6/Utilities/lcd/stm32_lcd.c ****     }
1087:../STM32Cube_FW_N6/Utilities/lcd/stm32_lcd.c ****     else /*LCD_PIXEL_FORMAT_ARGB888*/
1088:../STM32Cube_FW_N6/Utilities/lcd/stm32_lcd.c ****     {
1089:../STM32Cube_FW_N6/Utilities/lcd/stm32_lcd.c ****       for (j = 0; j < width; j++)
1090:../STM32Cube_FW_N6/Utilities/lcd/stm32_lcd.c ****       {
1091:../STM32Cube_FW_N6/Utilities/lcd/stm32_lcd.c ****         if(line & (1 << (width- j + offset- 1)))
1092:../STM32Cube_FW_N6/Utilities/lcd/stm32_lcd.c ****         {
1093:../STM32Cube_FW_N6/Utilities/lcd/stm32_lcd.c ****           argb32[j] = DrawProp[DrawProp->LcdLayer].TextColor;
1094:../STM32Cube_FW_N6/Utilities/lcd/stm32_lcd.c ****         }
1095:../STM32Cube_FW_N6/Utilities/lcd/stm32_lcd.c ****         else
1096:../STM32Cube_FW_N6/Utilities/lcd/stm32_lcd.c ****         {
1097:../STM32Cube_FW_N6/Utilities/lcd/stm32_lcd.c ****           argb32[j] = DrawProp[DrawProp->LcdLayer].BackColor;
1098:../STM32Cube_FW_N6/Utilities/lcd/stm32_lcd.c ****         }
1099:../STM32Cube_FW_N6/Utilities/lcd/stm32_lcd.c ****       }
1100:../STM32Cube_FW_N6/Utilities/lcd/stm32_lcd.c ****       UTIL_LCD_FillRGBRect(Xpos,  Ypos++, &rgb8[0], width, 1);
 1184              		.loc 1 1100 7 view .LVU288
 1185 00ac 2346     		mov	r3, r4
 1186 00ae 0398     		ldr	r0, [sp, #12]
 1187              	.LVL81:
ARM GAS  /tmp/ccsDiBBo.s 			page 43


 1188              		.loc 1 1100 7 view .LVU289
 1189 00b0 0AAA     		add	r2, sp, #40
 1190              	.LVL82:
 1191              		.loc 1 1100 7 view .LVU290
 1192 00b2 FFF7FEFF 		bl	UTIL_LCD_FillRGBRect
 1193              	.LVL83:
1016:../STM32Cube_FW_N6/Utilities/lcd/stm32_lcd.c ****   {
 1194              		.loc 1 1016 27 is_stmt 1 discriminator 2 view .LVU291
 1195 00b6 029B     		ldr	r3, [sp, #8]
 1196 00b8 0133     		adds	r3, r3, #1
 1197 00ba 0293     		str	r3, [sp, #8]
 1198              	.LVL84:
1016:../STM32Cube_FW_N6/Utilities/lcd/stm32_lcd.c ****   {
 1199              		.loc 1 1016 27 is_stmt 0 discriminator 2 view .LVU292
 1200 00bc 059B     		ldr	r3, [sp, #20]
 1201              	.LVL85:
1016:../STM32Cube_FW_N6/Utilities/lcd/stm32_lcd.c ****   {
 1202              		.loc 1 1016 27 discriminator 2 view .LVU293
 1203 00be 0133     		adds	r3, r3, #1
 1204 00c0 0593     		str	r3, [sp, #20]
 1205              	.LVL86:
1016:../STM32Cube_FW_N6/Utilities/lcd/stm32_lcd.c ****   {
 1206              		.loc 1 1016 27 discriminator 2 view .LVU294
 1207 00c2 BCE7     		b	.L67
 1208              	.LVL87:
 1209              	.L97:
1033:../STM32Cube_FW_N6/Utilities/lcd/stm32_lcd.c ****       break;
 1210              		.loc 1 1033 7 is_stmt 1 view .LVU295
1033:../STM32Cube_FW_N6/Utilities/lcd/stm32_lcd.c ****       break;
 1211              		.loc 1 1033 39 is_stmt 0 view .LVU296
 1212 00c4 5078     		ldrb	r0, [r2, #1]	@ zero_extendqisi2
1033:../STM32Cube_FW_N6/Utilities/lcd/stm32_lcd.c ****       break;
 1213              		.loc 1 1033 24 view .LVU297
 1214 00c6 1B04     		lsls	r3, r3, #16
1033:../STM32Cube_FW_N6/Utilities/lcd/stm32_lcd.c ****       break;
 1215              		.loc 1 1033 31 view .LVU298
 1216 00c8 43EA0023 		orr	r3, r3, r0, lsl #8
1033:../STM32Cube_FW_N6/Utilities/lcd/stm32_lcd.c ****       break;
 1217              		.loc 1 1033 55 view .LVU299
 1218 00cc 9078     		ldrb	r0, [r2, #2]	@ zero_extendqisi2
1033:../STM32Cube_FW_N6/Utilities/lcd/stm32_lcd.c ****       break;
 1219              		.loc 1 1033 48 view .LVU300
 1220 00ce 1843     		orrs	r0, r0, r3
 1221              	.LVL88:
1034:../STM32Cube_FW_N6/Utilities/lcd/stm32_lcd.c ****     }
 1222              		.loc 1 1034 7 is_stmt 1 view .LVU301
 1223 00d0 D1E7     		b	.L71
 1224              	.LVL89:
 1225              	.L76:
1041:../STM32Cube_FW_N6/Utilities/lcd/stm32_lcd.c ****         {
 1226              		.loc 1 1041 9 view .LVU302
1041:../STM32Cube_FW_N6/Utilities/lcd/stm32_lcd.c ****         {
 1227              		.loc 1 1041 43 is_stmt 0 view .LVU303
 1228 00d2 AAEB0903 		sub	r3, r10, r9
1041:../STM32Cube_FW_N6/Utilities/lcd/stm32_lcd.c ****         {
 1229              		.loc 1 1041 22 view .LVU304
 1230 00d6 08FA03F3 		lsl	r3, r8, r3
ARM GAS  /tmp/ccsDiBBo.s 			page 44


1041:../STM32Cube_FW_N6/Utilities/lcd/stm32_lcd.c ****         {
 1231              		.loc 1 1041 11 view .LVU305
 1232 00da 0342     		tst	r3, r0
1043:../STM32Cube_FW_N6/Utilities/lcd/stm32_lcd.c ****         }
 1233              		.loc 1 1043 11 is_stmt 1 view .LVU306
1043:../STM32Cube_FW_N6/Utilities/lcd/stm32_lcd.c ****         }
 1234              		.loc 1 1043 22 is_stmt 0 view .LVU307
 1235 00dc 14BF     		ite	ne
 1236 00de D5F800E0 		ldrne	lr, [r5]
1047:../STM32Cube_FW_N6/Utilities/lcd/stm32_lcd.c ****         }
 1237              		.loc 1 1047 11 is_stmt 1 view .LVU308
1047:../STM32Cube_FW_N6/Utilities/lcd/stm32_lcd.c ****         }
 1238              		.loc 1 1047 22 is_stmt 0 view .LVU309
 1239 00e2 D5F804E0 		ldreq	lr, [r5, #4]
1039:../STM32Cube_FW_N6/Utilities/lcd/stm32_lcd.c ****       {
 1240              		.loc 1 1039 31 discriminator 2 view .LVU310
 1241 00e6 09F10109 		add	r9, r9, #1
 1242              	.LVL90:
1047:../STM32Cube_FW_N6/Utilities/lcd/stm32_lcd.c ****         }
 1243              		.loc 1 1047 22 view .LVU311
 1244 00ea CEF3C403 		ubfx	r3, lr, #3, #5
 1245 00ee 4FEADE4B 		lsr	fp, lr, #19
 1246 00f2 4FEA5E1E 		lsr	lr, lr, #5
 1247 00f6 43EACB23 		orr	r3, r3, fp, lsl #11
 1248 00fa 0EF4FC6E 		and	lr, lr, #2016
 1249 00fe 43EA0E03 		orr	r3, r3, lr
 1250 0102 9BB2     		uxth	r3, r3
1043:../STM32Cube_FW_N6/Utilities/lcd/stm32_lcd.c ****         }
 1251              		.loc 1 1043 20 view .LVU312
 1252 0104 2CF8023B 		strh	r3, [ip], #2	@ movhi
1039:../STM32Cube_FW_N6/Utilities/lcd/stm32_lcd.c ****       {
 1253              		.loc 1 1039 31 is_stmt 1 discriminator 2 view .LVU313
 1254 0108 CCE7     		b	.L73
 1255              	.LVL91:
 1256              	.L72:
1052:../STM32Cube_FW_N6/Utilities/lcd/stm32_lcd.c ****     {
 1257              		.loc 1 1052 10 view .LVU314
1052:../STM32Cube_FW_N6/Utilities/lcd/stm32_lcd.c ****     {
 1258              		.loc 1 1052 12 is_stmt 0 view .LVU315
 1259 010a BCF1010F 		cmp	ip, #1
 1260 010e 25D1     		bne	.L78
1054:../STM32Cube_FW_N6/Utilities/lcd/stm32_lcd.c ****       {
 1261              		.loc 1 1054 14 view .LVU316
 1262 0110 4FF0000E 		mov	lr, #0
1056:../STM32Cube_FW_N6/Utilities/lcd/stm32_lcd.c ****         {
 1263              		.loc 1 1056 34 view .LVU317
 1264 0114 4FF0030B 		mov	fp, #3
 1265 0118 0AAA     		add	r2, sp, #40
 1266              	.LVL92:
1056:../STM32Cube_FW_N6/Utilities/lcd/stm32_lcd.c ****         {
 1267              		.loc 1 1056 45 view .LVU318
 1268 011a 06F1FF3A 		add	r10, r6, #-1
 1269              	.LVL93:
 1270              	.L79:
1054:../STM32Cube_FW_N6/Utilities/lcd/stm32_lcd.c ****       {
 1271              		.loc 1 1054 21 is_stmt 1 discriminator 1 view .LVU319
 1272 011e 099B     		ldr	r3, [sp, #36]
ARM GAS  /tmp/ccsDiBBo.s 			page 45


 1273 0120 9E45     		cmp	lr, r3
 1274 0122 02D3     		bcc	.L82
 1275              	.LVL94:
 1276              	.L102:
 1277              		.loc 1 1100 7 view .LVU320
 1278              		.loc 1 1100 7 is_stmt 0 view .LVU321
 1279 0124 0123     		movs	r3, #1
 1280 0126 0093     		str	r3, [sp]
 1281 0128 C0E7     		b	.L101
 1282              	.LVL95:
 1283              	.L82:
1056:../STM32Cube_FW_N6/Utilities/lcd/stm32_lcd.c ****         {
 1284              		.loc 1 1056 9 is_stmt 1 view .LVU322
1056:../STM32Cube_FW_N6/Utilities/lcd/stm32_lcd.c ****         {
 1285              		.loc 1 1056 34 is_stmt 0 view .LVU323
 1286 012a BEFBFBF3 		udiv	r3, lr, fp
1056:../STM32Cube_FW_N6/Utilities/lcd/stm32_lcd.c ****         {
 1287              		.loc 1 1056 45 view .LVU324
 1288 012e AAEB0303 		sub	r3, r10, r3
1056:../STM32Cube_FW_N6/Utilities/lcd/stm32_lcd.c ****         {
 1289              		.loc 1 1056 22 view .LVU325
 1290 0132 0CFA03F3 		lsl	r3, ip, r3
1056:../STM32Cube_FW_N6/Utilities/lcd/stm32_lcd.c ****         {
 1291              		.loc 1 1056 11 view .LVU326
 1292 0136 0342     		tst	r3, r0
1058:../STM32Cube_FW_N6/Utilities/lcd/stm32_lcd.c ****           rgb8[j + 1U] = (CONVERTARGB88882RGB888((DrawProp[DrawProp->LcdLayer].TextColor)) >> 8) & 
 1293              		.loc 1 1058 11 is_stmt 1 view .LVU327
1058:../STM32Cube_FW_N6/Utilities/lcd/stm32_lcd.c ****           rgb8[j + 1U] = (CONVERTARGB88882RGB888((DrawProp[DrawProp->LcdLayer].TextColor)) >> 8) & 
 1294              		.loc 1 1058 21 is_stmt 0 view .LVU328
 1295 0138 14BF     		ite	ne
 1296 013a 2B68     		ldrne	r3, [r5]
1064:../STM32Cube_FW_N6/Utilities/lcd/stm32_lcd.c ****           rgb8[j + 1U] = (CONVERTARGB88882RGB888((DrawProp[DrawProp->LcdLayer].BackColor)) >> 8) & 
 1297              		.loc 1 1064 11 is_stmt 1 view .LVU329
1064:../STM32Cube_FW_N6/Utilities/lcd/stm32_lcd.c ****           rgb8[j + 1U] = (CONVERTARGB88882RGB888((DrawProp[DrawProp->LcdLayer].BackColor)) >> 8) & 
 1298              		.loc 1 1064 21 is_stmt 0 view .LVU330
 1299 013c 6B68     		ldreq	r3, [r5, #4]
1054:../STM32Cube_FW_N6/Utilities/lcd/stm32_lcd.c ****       {
 1300              		.loc 1 1054 34 discriminator 2 view .LVU331
 1301 013e 0EF1030E 		add	lr, lr, #3
 1302              	.LVL96:
1064:../STM32Cube_FW_N6/Utilities/lcd/stm32_lcd.c ****           rgb8[j + 1U] = (CONVERTARGB88882RGB888((DrawProp[DrawProp->LcdLayer].BackColor)) >> 8) & 
 1303              		.loc 1 1064 19 view .LVU332
 1304 0142 5FFA83F9 		uxtb	r9, r3
1065:../STM32Cube_FW_N6/Utilities/lcd/stm32_lcd.c ****           rgb8[j + 2U] = (CONVERTARGB88882RGB888((DrawProp[DrawProp->LcdLayer].BackColor)) >> 16) &
 1305              		.loc 1 1065 11 is_stmt 1 view .LVU333
1065:../STM32Cube_FW_N6/Utilities/lcd/stm32_lcd.c ****           rgb8[j + 2U] = (CONVERTARGB88882RGB888((DrawProp[DrawProp->LcdLayer].BackColor)) >> 16) &
 1306              		.loc 1 1065 24 is_stmt 0 view .LVU334
 1307 0146 C3F30728 		ubfx	r8, r3, #8, #8
1066:../STM32Cube_FW_N6/Utilities/lcd/stm32_lcd.c ****         }
 1308              		.loc 1 1066 11 is_stmt 1 view .LVU335
1066:../STM32Cube_FW_N6/Utilities/lcd/stm32_lcd.c ****         }
 1309              		.loc 1 1066 24 is_stmt 0 view .LVU336
 1310 014a C3F30743 		ubfx	r3, r3, #16, #8
1058:../STM32Cube_FW_N6/Utilities/lcd/stm32_lcd.c ****           rgb8[j + 1U] = (CONVERTARGB88882RGB888((DrawProp[DrawProp->LcdLayer].TextColor)) >> 8) & 
 1311              		.loc 1 1058 19 view .LVU337
 1312 014e 82F80090 		strb	r9, [r2]
1059:../STM32Cube_FW_N6/Utilities/lcd/stm32_lcd.c ****           rgb8[j + 2U] = (CONVERTARGB88882RGB888((DrawProp[DrawProp->LcdLayer].TextColor)) >> 16) &
ARM GAS  /tmp/ccsDiBBo.s 			page 46


 1313              		.loc 1 1059 24 view .LVU338
 1314 0152 82F80180 		strb	r8, [r2, #1]
1060:../STM32Cube_FW_N6/Utilities/lcd/stm32_lcd.c ****         }
 1315              		.loc 1 1060 24 view .LVU339
 1316 0156 9370     		strb	r3, [r2, #2]
1054:../STM32Cube_FW_N6/Utilities/lcd/stm32_lcd.c ****       {
 1317              		.loc 1 1054 34 is_stmt 1 discriminator 2 view .LVU340
 1318              	.LVL97:
1054:../STM32Cube_FW_N6/Utilities/lcd/stm32_lcd.c ****       {
 1319              		.loc 1 1054 34 is_stmt 0 discriminator 2 view .LVU341
 1320 0158 0332     		adds	r2, r2, #3
 1321 015a E0E7     		b	.L79
 1322              	.LVL98:
 1323              	.L78:
1072:../STM32Cube_FW_N6/Utilities/lcd/stm32_lcd.c ****     {
 1324              		.loc 1 1072 10 is_stmt 1 view .LVU342
1072:../STM32Cube_FW_N6/Utilities/lcd/stm32_lcd.c ****     {
 1325              		.loc 1 1072 12 is_stmt 0 view .LVU343
 1326 015c BCF1040F 		cmp	ip, #4
 1327 0160 1ED0     		beq	.L83
1091:../STM32Cube_FW_N6/Utilities/lcd/stm32_lcd.c ****         {
 1328              		.loc 1 1091 22 view .LVU344
 1329 0162 4FF0010A 		mov	r10, #1
1089:../STM32Cube_FW_N6/Utilities/lcd/stm32_lcd.c ****       {
 1330              		.loc 1 1089 14 view .LVU345
 1331 0166 4FF0000E 		mov	lr, #0
 1332 016a 5246     		mov	r2, r10
 1333              	.LVL99:
1089:../STM32Cube_FW_N6/Utilities/lcd/stm32_lcd.c ****       {
 1334              		.loc 1 1089 14 view .LVU346
 1335 016c 7445     		cmp	r4, lr
 1336 016e 04EB0203 		add	r3, r4, r2
 1337 0172 08BF     		it	eq
 1338 0174 5346     		moveq	r3, r10
 1339 0176 0DF1280C 		add	ip, sp, #40
 1340              	.LVL100:
1091:../STM32Cube_FW_N6/Utilities/lcd/stm32_lcd.c ****         {
 1341              		.loc 1 1091 43 view .LVU347
 1342 017a 06F1FF3B 		add	fp, r6, #-1
 1343              	.LVL101:
 1344              	.L84:
1089:../STM32Cube_FW_N6/Utilities/lcd/stm32_lcd.c ****       {
 1345              		.loc 1 1089 21 is_stmt 1 discriminator 1 view .LVU348
 1346 017e 013B     		subs	r3, r3, #1
 1347 0180 D0D0     		beq	.L102
1091:../STM32Cube_FW_N6/Utilities/lcd/stm32_lcd.c ****         {
 1348              		.loc 1 1091 9 view .LVU349
1091:../STM32Cube_FW_N6/Utilities/lcd/stm32_lcd.c ****         {
 1349              		.loc 1 1091 43 is_stmt 0 view .LVU350
 1350 0182 ABEB0E09 		sub	r9, fp, lr
1091:../STM32Cube_FW_N6/Utilities/lcd/stm32_lcd.c ****         {
 1351              		.loc 1 1091 11 view .LVU351
 1352 0186 2F68     		ldr	r7, [r5]
1091:../STM32Cube_FW_N6/Utilities/lcd/stm32_lcd.c ****         {
 1353              		.loc 1 1091 22 view .LVU352
 1354 0188 0AFA09F9 		lsl	r9, r10, r9
1091:../STM32Cube_FW_N6/Utilities/lcd/stm32_lcd.c ****         {
ARM GAS  /tmp/ccsDiBBo.s 			page 47


 1355              		.loc 1 1091 11 view .LVU353
 1356 018c 19EA000F 		tst	r9, r0
1097:../STM32Cube_FW_N6/Utilities/lcd/stm32_lcd.c ****         }
 1357              		.loc 1 1097 51 view .LVU354
 1358 0190 6A68     		ldr	r2, [r5, #4]
1091:../STM32Cube_FW_N6/Utilities/lcd/stm32_lcd.c ****         {
 1359              		.loc 1 1091 11 view .LVU355
 1360 0192 18BF     		it	ne
 1361 0194 3A46     		movne	r2, r7
1089:../STM32Cube_FW_N6/Utilities/lcd/stm32_lcd.c ****       {
 1362              		.loc 1 1089 31 discriminator 2 view .LVU356
 1363 0196 0EF1010E 		add	lr, lr, #1
 1364              	.LVL102:
1093:../STM32Cube_FW_N6/Utilities/lcd/stm32_lcd.c ****         }
 1365              		.loc 1 1093 21 view .LVU357
 1366 019a 4CF8042B 		str	r2, [ip], #4
1089:../STM32Cube_FW_N6/Utilities/lcd/stm32_lcd.c ****       {
 1367              		.loc 1 1089 31 is_stmt 1 discriminator 2 view .LVU358
 1368 019e EEE7     		b	.L84
 1369              	.LVL103:
 1370              	.L83:
1074:../STM32Cube_FW_N6/Utilities/lcd/stm32_lcd.c ****       {
 1371              		.loc 1 1074 14 is_stmt 0 view .LVU359
 1372 01a0 4FF00009 		mov	r9, #0
 1373 01a4 4FF00108 		mov	r8, #1
 1374 01a8 4C45     		cmp	r4, r9
 1375 01aa 04EB080C 		add	ip, r4, r8
 1376 01ae 08BF     		it	eq
 1377 01b0 C446     		moveq	ip, r8
 1378 01b2 0AAA     		add	r2, sp, #40
 1379              	.LVL104:
1076:../STM32Cube_FW_N6/Utilities/lcd/stm32_lcd.c ****         {
 1380              		.loc 1 1076 43 view .LVU360
 1381 01b4 06F1FF3B 		add	fp, r6, #-1
 1382              	.LVL105:
 1383              	.L85:
1074:../STM32Cube_FW_N6/Utilities/lcd/stm32_lcd.c ****       {
 1384              		.loc 1 1074 21 is_stmt 1 discriminator 1 view .LVU361
 1385 01b8 BCF1010C 		subs	ip, ip, #1
 1386 01bc 3FF474AF 		beq	.L103
1076:../STM32Cube_FW_N6/Utilities/lcd/stm32_lcd.c ****         {
 1387              		.loc 1 1076 9 view .LVU362
1076:../STM32Cube_FW_N6/Utilities/lcd/stm32_lcd.c ****         {
 1388              		.loc 1 1076 43 is_stmt 0 view .LVU363
 1389 01c0 ABEB0903 		sub	r3, fp, r9
1076:../STM32Cube_FW_N6/Utilities/lcd/stm32_lcd.c ****         {
 1390              		.loc 1 1076 22 view .LVU364
 1391 01c4 08FA03F3 		lsl	r3, r8, r3
1076:../STM32Cube_FW_N6/Utilities/lcd/stm32_lcd.c ****         {
 1392              		.loc 1 1076 11 view .LVU365
 1393 01c8 0342     		tst	r3, r0
1078:../STM32Cube_FW_N6/Utilities/lcd/stm32_lcd.c ****         }
 1394              		.loc 1 1078 11 is_stmt 1 view .LVU366
1078:../STM32Cube_FW_N6/Utilities/lcd/stm32_lcd.c ****         }
 1395              		.loc 1 1078 25 is_stmt 0 view .LVU367
 1396 01ca 14BF     		ite	ne
 1397 01cc D5F800E0 		ldrne	lr, [r5]
ARM GAS  /tmp/ccsDiBBo.s 			page 48


1082:../STM32Cube_FW_N6/Utilities/lcd/stm32_lcd.c ****         }
 1398              		.loc 1 1082 11 is_stmt 1 view .LVU368
1082:../STM32Cube_FW_N6/Utilities/lcd/stm32_lcd.c ****         }
 1399              		.loc 1 1082 25 is_stmt 0 view .LVU369
 1400 01d0 D5F804E0 		ldreq	lr, [r5, #4]
1074:../STM32Cube_FW_N6/Utilities/lcd/stm32_lcd.c ****       {
 1401              		.loc 1 1074 31 discriminator 2 view .LVU370
 1402 01d4 09F10109 		add	r9, r9, #1
 1403              	.LVL106:
1082:../STM32Cube_FW_N6/Utilities/lcd/stm32_lcd.c ****         }
 1404              		.loc 1 1082 25 view .LVU371
 1405 01d8 4FEA1E73 		lsr	r3, lr, #28
 1406 01dc CEF3031A 		ubfx	r10, lr, #4, #4
 1407 01e0 4AEA033A 		orr	r10, r10, r3, lsl #12
 1408 01e4 4FEA1E23 		lsr	r3, lr, #8
 1409 01e8 03F0F003 		and	r3, r3, #240
 1410 01ec 4FEA1E3E 		lsr	lr, lr, #12
 1411 01f0 4AEA0303 		orr	r3, r10, r3
 1412 01f4 0EF4706E 		and	lr, lr, #3840
 1413 01f8 43EA0E03 		orr	r3, r3, lr
1078:../STM32Cube_FW_N6/Utilities/lcd/stm32_lcd.c ****         }
 1414              		.loc 1 1078 23 view .LVU372
 1415 01fc 22F8023B 		strh	r3, [r2], #2	@ movhi
1074:../STM32Cube_FW_N6/Utilities/lcd/stm32_lcd.c ****       {
 1416              		.loc 1 1074 31 is_stmt 1 discriminator 2 view .LVU373
 1417 0200 DAE7     		b	.L85
 1418              	.L105:
 1419 0202 00BF     		.align	2
 1420              	.L104:
 1421 0204 00000000 		.word	DrawProp
 1422              	.LBE6:
 1423              	.LBE7:
 1424              		.cfi_endproc
 1425              	.LFE16:
 1427              		.section	.text.UTIL_LCD_DisplayStringAt,"ax",%progbits
 1428              		.align	1
 1429              		.global	UTIL_LCD_DisplayStringAt
 1430              		.syntax unified
 1431              		.thumb
 1432              		.thumb_func
 1434              	UTIL_LCD_DisplayStringAt:
 1435              	.LVL107:
 1436              	.LFB17:
 448:../STM32Cube_FW_N6/Utilities/lcd/stm32_lcd.c ****   uint32_t refcolumn = 1, i = 0;
 1437              		.loc 1 448 1 view -0
 1438              		.cfi_startproc
 1439              		@ args = 0, pretend = 0, frame = 0
 1440              		@ frame_needed = 0, uses_anonymous_args = 0
 449:../STM32Cube_FW_N6/Utilities/lcd/stm32_lcd.c ****   uint32_t size = 0, xsize = 0;
 1441              		.loc 1 449 3 view .LVU375
 450:../STM32Cube_FW_N6/Utilities/lcd/stm32_lcd.c ****   uint8_t  *ptr = Text;
 1442              		.loc 1 450 3 view .LVU376
 451:../STM32Cube_FW_N6/Utilities/lcd/stm32_lcd.c **** 
 1443              		.loc 1 451 3 view .LVU377
 454:../STM32Cube_FW_N6/Utilities/lcd/stm32_lcd.c **** 
 1444              		.loc 1 454 3 view .LVU378
 448:../STM32Cube_FW_N6/Utilities/lcd/stm32_lcd.c ****   uint32_t refcolumn = 1, i = 0;
ARM GAS  /tmp/ccsDiBBo.s 			page 49


 1445              		.loc 1 448 1 is_stmt 0 view .LVU379
 1446 0000 2DE9F843 		push	{r3, r4, r5, r6, r7, r8, r9, lr}
 1447              		.cfi_def_cfa_offset 32
 1448              		.cfi_offset 3, -32
 1449              		.cfi_offset 4, -28
 1450              		.cfi_offset 5, -24
 1451              		.cfi_offset 6, -20
 1452              		.cfi_offset 7, -16
 1453              		.cfi_offset 8, -12
 1454              		.cfi_offset 9, -8
 1455              		.cfi_offset 14, -4
 448:../STM32Cube_FW_N6/Utilities/lcd/stm32_lcd.c ****   uint32_t refcolumn = 1, i = 0;
 1456              		.loc 1 448 1 view .LVU380
 1457 0004 9946     		mov	r9, r3
 457:../STM32Cube_FW_N6/Utilities/lcd/stm32_lcd.c **** 
 1458              		.loc 1 457 29 view .LVU381
 1459 0006 DFF88080 		ldr	r8, .L118
 448:../STM32Cube_FW_N6/Utilities/lcd/stm32_lcd.c ****   uint32_t refcolumn = 1, i = 0;
 1460              		.loc 1 448 1 view .LVU382
 1461 000a 0446     		mov	r4, r0
 454:../STM32Cube_FW_N6/Utilities/lcd/stm32_lcd.c **** 
 1462              		.loc 1 454 10 discriminator 1 view .LVU383
 1463 000c 1046     		mov	r0, r2
 1464              	.LVL108:
 448:../STM32Cube_FW_N6/Utilities/lcd/stm32_lcd.c ****   uint32_t refcolumn = 1, i = 0;
 1465              		.loc 1 448 1 view .LVU384
 1466 000e 0F46     		mov	r7, r1
 1467 0010 1646     		mov	r6, r2
 454:../STM32Cube_FW_N6/Utilities/lcd/stm32_lcd.c **** 
 1468              		.loc 1 454 10 discriminator 1 view .LVU385
 1469 0012 FFF7FEFF 		bl	strlen
 1470              	.LVL109:
 457:../STM32Cube_FW_N6/Utilities/lcd/stm32_lcd.c **** 
 1471              		.loc 1 457 3 is_stmt 1 view .LVU386
 457:../STM32Cube_FW_N6/Utilities/lcd/stm32_lcd.c **** 
 1472              		.loc 1 457 29 is_stmt 0 view .LVU387
 1473 0016 D8F80C30 		ldr	r3, [r8, #12]
 459:../STM32Cube_FW_N6/Utilities/lcd/stm32_lcd.c ****   {
 1474              		.loc 1 459 3 view .LVU388
 1475 001a B9F1010F 		cmp	r9, #1
 457:../STM32Cube_FW_N6/Utilities/lcd/stm32_lcd.c **** 
 1476              		.loc 1 457 78 view .LVU389
 1477 001e 08EB4315 		add	r5, r8, r3, lsl #5
 457:../STM32Cube_FW_N6/Utilities/lcd/stm32_lcd.c **** 
 1478              		.loc 1 457 84 view .LVU390
 1479 0022 AA68     		ldr	r2, [r5, #8]
 457:../STM32Cube_FW_N6/Utilities/lcd/stm32_lcd.c **** 
 1480              		.loc 1 457 9 view .LVU391
 1481 0024 6D69     		ldr	r5, [r5, #20]
 457:../STM32Cube_FW_N6/Utilities/lcd/stm32_lcd.c **** 
 1482              		.loc 1 457 84 view .LVU392
 1483 0026 9188     		ldrh	r1, [r2, #4]
 457:../STM32Cube_FW_N6/Utilities/lcd/stm32_lcd.c **** 
 1484              		.loc 1 457 9 view .LVU393
 1485 0028 B5FBF1F5 		udiv	r5, r5, r1
 1486              	.LVL110:
 459:../STM32Cube_FW_N6/Utilities/lcd/stm32_lcd.c ****   {
ARM GAS  /tmp/ccsDiBBo.s 			page 50


 1487              		.loc 1 459 3 is_stmt 1 view .LVU394
 1488 002c 15D0     		beq	.L107
 1489 002e B9F1020F 		cmp	r9, #2
 1490 0032 17D0     		beq	.L108
 1491              	.LVL111:
 1492              	.L109:
 484:../STM32Cube_FW_N6/Utilities/lcd/stm32_lcd.c ****   {
 1493              		.loc 1 484 3 view .LVU395
 484:../STM32Cube_FW_N6/Utilities/lcd/stm32_lcd.c ****   {
 1494              		.loc 1 484 6 is_stmt 0 view .LVU396
 1495 0034 47F6FE72 		movw	r2, #32766
 484:../STM32Cube_FW_N6/Utilities/lcd/stm32_lcd.c ****   {
 1496              		.loc 1 484 23 view .LVU397
 1497 0038 601E     		subs	r0, r4, #1
 486:../STM32Cube_FW_N6/Utilities/lcd/stm32_lcd.c ****   }
 1498              		.loc 1 486 15 view .LVU398
 1499 003a 9042     		cmp	r0, r2
 1500 003c 88BF     		it	hi
 1501 003e 0124     		movhi	r4, #1
 1502              	.LVL112:
 486:../STM32Cube_FW_N6/Utilities/lcd/stm32_lcd.c ****   }
 1503              		.loc 1 486 15 view .LVU399
 1504 0040 0025     		movs	r5, #0
 1505              	.LVL113:
 1506              	.L111:
 490:../STM32Cube_FW_N6/Utilities/lcd/stm32_lcd.c ****   {
 1507              		.loc 1 490 10 is_stmt 1 view .LVU400
 490:../STM32Cube_FW_N6/Utilities/lcd/stm32_lcd.c ****   {
 1508              		.loc 1 490 56 is_stmt 0 view .LVU401
 1509 0042 08EB4313 		add	r3, r8, r3, lsl #5
 490:../STM32Cube_FW_N6/Utilities/lcd/stm32_lcd.c ****   {
 1510              		.loc 1 490 66 view .LVU402
 1511 0046 5B69     		ldr	r3, [r3, #20]
 490:../STM32Cube_FW_N6/Utilities/lcd/stm32_lcd.c ****   {
 1512              		.loc 1 490 11 view .LVU403
 1513 0048 725D     		ldrb	r2, [r6, r5]	@ zero_extendqisi2
 490:../STM32Cube_FW_N6/Utilities/lcd/stm32_lcd.c ****   {
 1514              		.loc 1 490 66 view .LVU404
 1515 004a 05FB1133 		mls	r3, r5, r1, r3
 490:../STM32Cube_FW_N6/Utilities/lcd/stm32_lcd.c ****   {
 1516              		.loc 1 490 115 view .LVU405
 1517 004e 9BB2     		uxth	r3, r3
 490:../STM32Cube_FW_N6/Utilities/lcd/stm32_lcd.c ****   {
 1518              		.loc 1 490 10 view .LVU406
 1519 0050 9942     		cmp	r1, r3
 1520 0052 00D8     		bhi	.L106
 1521 0054 52B9     		cbnz	r2, .L112
 1522              	.L106:
 501:../STM32Cube_FW_N6/Utilities/lcd/stm32_lcd.c **** 
 1523              		.loc 1 501 1 view .LVU407
 1524 0056 BDE8F883 		pop	{r3, r4, r5, r6, r7, r8, r9, pc}
 1525              	.LVL114:
 1526              	.L107:
 463:../STM32Cube_FW_N6/Utilities/lcd/stm32_lcd.c ****       break;
 1527              		.loc 1 463 7 is_stmt 1 view .LVU408
 463:../STM32Cube_FW_N6/Utilities/lcd/stm32_lcd.c ****       break;
 1528              		.loc 1 463 34 is_stmt 0 view .LVU409
ARM GAS  /tmp/ccsDiBBo.s 			page 51


 1529 005a 2D1A     		subs	r5, r5, r0
 1530              	.LVL115:
 463:../STM32Cube_FW_N6/Utilities/lcd/stm32_lcd.c ****       break;
 1531              		.loc 1 463 41 view .LVU410
 1532 005c 4D43     		muls	r5, r1, r5
 463:../STM32Cube_FW_N6/Utilities/lcd/stm32_lcd.c ****       break;
 1533              		.loc 1 463 17 view .LVU411
 1534 005e 04EB5504 		add	r4, r4, r5, lsr #1
 1535              	.LVL116:
 464:../STM32Cube_FW_N6/Utilities/lcd/stm32_lcd.c ****     }
 1536              		.loc 1 464 7 is_stmt 1 view .LVU412
 1537 0062 E7E7     		b	.L109
 1538              	.LVL117:
 1539              	.L108:
 473:../STM32Cube_FW_N6/Utilities/lcd/stm32_lcd.c ****       break;
 1540              		.loc 1 473 7 view .LVU413
 473:../STM32Cube_FW_N6/Utilities/lcd/stm32_lcd.c ****       break;
 1541              		.loc 1 473 36 is_stmt 0 view .LVU414
 1542 0064 2D1A     		subs	r5, r5, r0
 1543              	.LVL118:
 473:../STM32Cube_FW_N6/Utilities/lcd/stm32_lcd.c ****       break;
 1544              		.loc 1 473 43 view .LVU415
 1545 0066 4D43     		muls	r5, r1, r5
 473:../STM32Cube_FW_N6/Utilities/lcd/stm32_lcd.c ****       break;
 1546              		.loc 1 473 17 view .LVU416
 1547 0068 2C1B     		subs	r4, r5, r4
 1548              	.LVL119:
 474:../STM32Cube_FW_N6/Utilities/lcd/stm32_lcd.c ****     }
 1549              		.loc 1 474 7 is_stmt 1 view .LVU417
 1550 006a E3E7     		b	.L109
 1551              	.LVL120:
 1552              	.L112:
 493:../STM32Cube_FW_N6/Utilities/lcd/stm32_lcd.c ****     /* Decrement the column position by 16 */
 1553              		.loc 1 493 5 view .LVU418
 1554 006c 3946     		mov	r1, r7
 1555 006e 2046     		mov	r0, r4
 1556 0070 FFF7FEFF 		bl	UTIL_LCD_DisplayChar
 1557              	.LVL121:
 495:../STM32Cube_FW_N6/Utilities/lcd/stm32_lcd.c **** 
 1558              		.loc 1 495 5 view .LVU419
 495:../STM32Cube_FW_N6/Utilities/lcd/stm32_lcd.c **** 
 1559              		.loc 1 495 35 is_stmt 0 view .LVU420
 1560 0074 D8F80C30 		ldr	r3, [r8, #12]
 499:../STM32Cube_FW_N6/Utilities/lcd/stm32_lcd.c ****   }
 1561              		.loc 1 499 6 view .LVU421
 1562 0078 0135     		adds	r5, r5, #1
 1563              	.LVL122:
 495:../STM32Cube_FW_N6/Utilities/lcd/stm32_lcd.c **** 
 1564              		.loc 1 495 46 view .LVU422
 1565 007a 08EB4312 		add	r2, r8, r3, lsl #5
 495:../STM32Cube_FW_N6/Utilities/lcd/stm32_lcd.c **** 
 1566              		.loc 1 495 52 view .LVU423
 1567 007e 9268     		ldr	r2, [r2, #8]
 1568 0080 9188     		ldrh	r1, [r2, #4]
 495:../STM32Cube_FW_N6/Utilities/lcd/stm32_lcd.c **** 
 1569              		.loc 1 495 15 view .LVU424
 1570 0082 0C44     		add	r4, r4, r1
ARM GAS  /tmp/ccsDiBBo.s 			page 52


 1571              	.LVL123:
 498:../STM32Cube_FW_N6/Utilities/lcd/stm32_lcd.c ****     i++;
 1572              		.loc 1 498 5 is_stmt 1 view .LVU425
 499:../STM32Cube_FW_N6/Utilities/lcd/stm32_lcd.c ****   }
 1573              		.loc 1 499 5 view .LVU426
 1574 0084 DDE7     		b	.L111
 1575              	.L119:
 1576 0086 00BF     		.align	2
 1577              	.L118:
 1578 0088 00000000 		.word	DrawProp
 1579              		.cfi_endproc
 1580              	.LFE17:
 1582              		.section	.text.UTIL_LCD_DisplayStringAtLine,"ax",%progbits
 1583              		.align	1
 1584              		.global	UTIL_LCD_DisplayStringAtLine
 1585              		.syntax unified
 1586              		.thumb
 1587              		.thumb_func
 1589              	UTIL_LCD_DisplayStringAtLine:
 1590              	.LVL124:
 1591              	.LFB18:
 509:../STM32Cube_FW_N6/Utilities/lcd/stm32_lcd.c ****   UTIL_LCD_DisplayStringAt(0, LINE(Line), ptr, LEFT_MODE);
 1592              		.loc 1 509 1 view -0
 1593              		.cfi_startproc
 1594              		@ args = 0, pretend = 0, frame = 0
 1595              		@ frame_needed = 0, uses_anonymous_args = 0
 510:../STM32Cube_FW_N6/Utilities/lcd/stm32_lcd.c **** }
 1596              		.loc 1 510 3 view .LVU428
 509:../STM32Cube_FW_N6/Utilities/lcd/stm32_lcd.c ****   UTIL_LCD_DisplayStringAt(0, LINE(Line), ptr, LEFT_MODE);
 1597              		.loc 1 509 1 is_stmt 0 view .LVU429
 1598 0000 10B5     		push	{r4, lr}
 1599              		.cfi_def_cfa_offset 8
 1600              		.cfi_offset 4, -8
 1601              		.cfi_offset 14, -4
 509:../STM32Cube_FW_N6/Utilities/lcd/stm32_lcd.c ****   UTIL_LCD_DisplayStringAt(0, LINE(Line), ptr, LEFT_MODE);
 1602              		.loc 1 509 1 view .LVU430
 1603 0002 0446     		mov	r4, r0
 510:../STM32Cube_FW_N6/Utilities/lcd/stm32_lcd.c **** }
 1604              		.loc 1 510 31 view .LVU431
 1605 0004 FFF7FEFF 		bl	UTIL_LCD_GetFont
 1606              	.LVL125:
 510:../STM32Cube_FW_N6/Utilities/lcd/stm32_lcd.c **** }
 1607              		.loc 1 510 31 discriminator 1 view .LVU432
 1608 0008 C088     		ldrh	r0, [r0, #6]
 510:../STM32Cube_FW_N6/Utilities/lcd/stm32_lcd.c **** }
 1609              		.loc 1 510 3 discriminator 1 view .LVU433
 1610 000a 0A46     		mov	r2, r1
 1611 000c 0323     		movs	r3, #3
 1612 000e 04FB00F1 		mul	r1, r4, r0
 1613              	.LVL126:
 511:../STM32Cube_FW_N6/Utilities/lcd/stm32_lcd.c **** 
 1614              		.loc 1 511 1 view .LVU434
 1615 0012 BDE81040 		pop	{r4, lr}
 1616              		.cfi_restore 14
 1617              		.cfi_restore 4
 1618              		.cfi_def_cfa_offset 0
 1619              	.LVL127:
ARM GAS  /tmp/ccsDiBBo.s 			page 53


 510:../STM32Cube_FW_N6/Utilities/lcd/stm32_lcd.c **** }
 1620              		.loc 1 510 3 discriminator 1 view .LVU435
 1621 0016 0020     		movs	r0, #0
 1622 0018 FFF7FEBF 		b	UTIL_LCD_DisplayStringAt
 1623              	.LVL128:
 510:../STM32Cube_FW_N6/Utilities/lcd/stm32_lcd.c **** }
 1624              		.loc 1 510 3 discriminator 1 view .LVU436
 1625              		.cfi_endproc
 1626              	.LFE18:
 1628              		.section	.text.UTIL_LCD_DrawLine,"ax",%progbits
 1629              		.align	1
 1630              		.global	UTIL_LCD_DrawLine
 1631              		.syntax unified
 1632              		.thumb
 1633              		.thumb_func
 1635              	UTIL_LCD_DrawLine:
 1636              	.LVL129:
 1637              	.LFB19:
 522:../STM32Cube_FW_N6/Utilities/lcd/stm32_lcd.c ****   int16_t deltax = 0, deltay = 0, x = 0, y = 0, xinc1 = 0, xinc2 = 0,
 1638              		.loc 1 522 1 is_stmt 1 view -0
 1639              		.cfi_startproc
 1640              		@ args = 4, pretend = 0, frame = 8
 1641              		@ frame_needed = 0, uses_anonymous_args = 0
 523:../STM32Cube_FW_N6/Utilities/lcd/stm32_lcd.c ****   yinc1 = 0, yinc2 = 0, den = 0, num = 0, numadd = 0, numpixels = 0,
 1642              		.loc 1 523 3 view .LVU438
 526:../STM32Cube_FW_N6/Utilities/lcd/stm32_lcd.c **** 
 1643              		.loc 1 526 3 view .LVU439
 528:../STM32Cube_FW_N6/Utilities/lcd/stm32_lcd.c ****   y_diff = Ypos2 - Ypos1;
 1644              		.loc 1 528 3 view .LVU440
 529:../STM32Cube_FW_N6/Utilities/lcd/stm32_lcd.c **** 
 1645              		.loc 1 529 3 view .LVU441
 531:../STM32Cube_FW_N6/Utilities/lcd/stm32_lcd.c ****   deltay = ABS(y_diff);         /* The absolute difference between the y's */
 1646              		.loc 1 531 3 view .LVU442
 522:../STM32Cube_FW_N6/Utilities/lcd/stm32_lcd.c ****   int16_t deltax = 0, deltay = 0, x = 0, y = 0, xinc1 = 0, xinc2 = 0,
 1647              		.loc 1 522 1 is_stmt 0 view .LVU443
 1648 0000 2DE9F74F 		push	{r0, r1, r2, r4, r5, r6, r7, r8, r9, r10, fp, lr}
 1649              		.cfi_def_cfa_offset 48
 1650              		.cfi_offset 4, -36
 1651              		.cfi_offset 5, -32
 1652              		.cfi_offset 6, -28
 1653              		.cfi_offset 7, -24
 1654              		.cfi_offset 8, -20
 1655              		.cfi_offset 9, -16
 1656              		.cfi_offset 10, -12
 1657              		.cfi_offset 11, -8
 1658              		.cfi_offset 14, -4
 528:../STM32Cube_FW_N6/Utilities/lcd/stm32_lcd.c ****   y_diff = Ypos2 - Ypos1;
 1659              		.loc 1 528 18 view .LVU444
 1660 0004 141A     		subs	r4, r2, r0
 1661              	.LVL130:
 531:../STM32Cube_FW_N6/Utilities/lcd/stm32_lcd.c ****   deltay = ABS(y_diff);         /* The absolute difference between the y's */
 1662              		.loc 1 531 12 view .LVU445
 1663 0006 002C     		cmp	r4, #0
 529:../STM32Cube_FW_N6/Utilities/lcd/stm32_lcd.c **** 
 1664              		.loc 1 529 18 view .LVU446
 1665 0008 A3EB0107 		sub	r7, r3, r1
 1666              	.LVL131:
ARM GAS  /tmp/ccsDiBBo.s 			page 54


 531:../STM32Cube_FW_N6/Utilities/lcd/stm32_lcd.c ****   deltay = ABS(y_diff);         /* The absolute difference between the y's */
 1667              		.loc 1 531 12 view .LVU447
 1668 000c B8BF     		it	lt
 1669 000e 6442     		rsblt	r4, r4, #0
 1670              	.LVL132:
 532:../STM32Cube_FW_N6/Utilities/lcd/stm32_lcd.c ****   x = Xpos1;                       /* Start x off at the first pixel */
 1671              		.loc 1 532 12 view .LVU448
 1672 0010 002F     		cmp	r7, #0
 1673 0012 B8BF     		it	lt
 1674 0014 7F42     		rsblt	r7, r7, #0
 1675              	.LVL133:
 538:../STM32Cube_FW_N6/Utilities/lcd/stm32_lcd.c ****     xinc2 = 1;
 1676              		.loc 1 538 11 view .LVU449
 1677 0016 8242     		cmp	r2, r0
 1678 0018 34BF     		ite	cc
 1679 001a 4FF0FF38 		movcc	r8, #-1
 1680 001e 4FF00108 		movcs	r8, #1
 531:../STM32Cube_FW_N6/Utilities/lcd/stm32_lcd.c ****   deltay = ABS(y_diff);         /* The absolute difference between the y's */
 1681              		.loc 1 531 10 view .LVU450
 1682 0022 24B2     		sxth	r4, r4
 1683              	.LVL134:
 532:../STM32Cube_FW_N6/Utilities/lcd/stm32_lcd.c ****   x = Xpos1;                       /* Start x off at the first pixel */
 1684              		.loc 1 532 3 is_stmt 1 view .LVU451
 549:../STM32Cube_FW_N6/Utilities/lcd/stm32_lcd.c ****     yinc2 = 1;
 1685              		.loc 1 549 11 is_stmt 0 view .LVU452
 1686 0024 8B42     		cmp	r3, r1
 532:../STM32Cube_FW_N6/Utilities/lcd/stm32_lcd.c ****   x = Xpos1;                       /* Start x off at the first pixel */
 1687              		.loc 1 532 10 view .LVU453
 1688 0026 3FB2     		sxth	r7, r7
 1689              	.LVL135:
 533:../STM32Cube_FW_N6/Utilities/lcd/stm32_lcd.c ****   y = Ypos1;                       /* Start y off at the first pixel */
 1690              		.loc 1 533 3 is_stmt 1 view .LVU454
 549:../STM32Cube_FW_N6/Utilities/lcd/stm32_lcd.c ****     yinc2 = 1;
 1691              		.loc 1 549 11 is_stmt 0 view .LVU455
 1692 0028 34BF     		ite	cc
 1693 002a 4FF0FF39 		movcc	r9, #-1
 1694 002e 4FF00109 		movcs	r9, #1
 558:../STM32Cube_FW_N6/Utilities/lcd/stm32_lcd.c ****   {
 1695              		.loc 1 558 6 view .LVU456
 1696 0032 BC42     		cmp	r4, r7
 533:../STM32Cube_FW_N6/Utilities/lcd/stm32_lcd.c ****   y = Ypos1;                       /* Start y off at the first pixel */
 1697              		.loc 1 533 5 view .LVU457
 1698 0034 06B2     		sxth	r6, r0
 1699              	.LVL136:
 534:../STM32Cube_FW_N6/Utilities/lcd/stm32_lcd.c **** 
 1700              		.loc 1 534 3 is_stmt 1 view .LVU458
 534:../STM32Cube_FW_N6/Utilities/lcd/stm32_lcd.c **** 
 1701              		.loc 1 534 5 is_stmt 0 view .LVU459
 1702 0036 0FFA81FC 		sxth	ip, r1
 1703              	.LVL137:
 536:../STM32Cube_FW_N6/Utilities/lcd/stm32_lcd.c ****   {
 1704              		.loc 1 536 3 is_stmt 1 view .LVU460
 547:../STM32Cube_FW_N6/Utilities/lcd/stm32_lcd.c ****   {
 1705              		.loc 1 547 3 view .LVU461
 558:../STM32Cube_FW_N6/Utilities/lcd/stm32_lcd.c ****   {
 1706              		.loc 1 558 3 view .LVU462
 558:../STM32Cube_FW_N6/Utilities/lcd/stm32_lcd.c ****   {
ARM GAS  /tmp/ccsDiBBo.s 			page 55


 1707              		.loc 1 558 6 is_stmt 0 view .LVU463
 1708 003a 0FDB     		blt	.L124
 560:../STM32Cube_FW_N6/Utilities/lcd/stm32_lcd.c ****     yinc2 = 0;                  /* Don't change the y for every iteration */
 1709              		.loc 1 560 5 is_stmt 1 view .LVU464
 1710              	.LVL138:
 561:../STM32Cube_FW_N6/Utilities/lcd/stm32_lcd.c ****     den = deltax;
 1711              		.loc 1 561 5 view .LVU465
 562:../STM32Cube_FW_N6/Utilities/lcd/stm32_lcd.c ****     num = deltax / 2;
 1712              		.loc 1 562 5 view .LVU466
 563:../STM32Cube_FW_N6/Utilities/lcd/stm32_lcd.c ****     numadd = deltay;
 1713              		.loc 1 563 5 view .LVU467
 1714 003c C346     		mov	fp, r8
 561:../STM32Cube_FW_N6/Utilities/lcd/stm32_lcd.c ****     den = deltax;
 1715              		.loc 1 561 11 is_stmt 0 view .LVU468
 1716 003e 4FF00008 		mov	r8, #0
 1717              	.LVL139:
 560:../STM32Cube_FW_N6/Utilities/lcd/stm32_lcd.c ****     yinc2 = 0;                  /* Don't change the y for every iteration */
 1718              		.loc 1 560 11 view .LVU469
 1719 0042 4346     		mov	r3, r8
 1720              	.LVL140:
 563:../STM32Cube_FW_N6/Utilities/lcd/stm32_lcd.c ****     numadd = deltay;
 1721              		.loc 1 563 9 view .LVU470
 1722 0044 04EBD475 		add	r5, r4, r4, lsr #31
 1723 0048 6D10     		asrs	r5, r5, #1
 1724              	.LVL141:
 564:../STM32Cube_FW_N6/Utilities/lcd/stm32_lcd.c ****     numpixels = deltax;         /* There are more x-values than y-values */
 1725              		.loc 1 564 5 is_stmt 1 view .LVU471
 565:../STM32Cube_FW_N6/Utilities/lcd/stm32_lcd.c ****   }
 1726              		.loc 1 565 5 view .LVU472
 1727              	.L125:
 577:../STM32Cube_FW_N6/Utilities/lcd/stm32_lcd.c ****   {
 1728              		.loc 1 577 3 view .LVU473
 577:../STM32Cube_FW_N6/Utilities/lcd/stm32_lcd.c ****   {
 1729              		.loc 1 577 3 is_stmt 0 view .LVU474
 1730 004a 4FF0000A 		mov	r10, #0
 1731              	.LVL142:
 1732              	.L126:
 577:../STM32Cube_FW_N6/Utilities/lcd/stm32_lcd.c ****   {
 1733              		.loc 1 577 31 is_stmt 1 discriminator 1 view .LVU475
 1734 004e 0FFA8AF2 		sxth	r2, r10
 1735 0052 A242     		cmp	r2, r4
 1736 0054 0EDD     		ble	.L128
 590:../STM32Cube_FW_N6/Utilities/lcd/stm32_lcd.c **** 
 1737              		.loc 1 590 1 is_stmt 0 view .LVU476
 1738 0056 03B0     		add	sp, sp, #12
 1739              		.cfi_remember_state
 1740              		.cfi_def_cfa_offset 36
 1741              		@ sp needed
 1742 0058 BDE8F08F 		pop	{r4, r5, r6, r7, r8, r9, r10, fp, pc}
 1743              	.LVL143:
 1744              	.L124:
 1745              		.cfi_restore_state
 569:../STM32Cube_FW_N6/Utilities/lcd/stm32_lcd.c ****     yinc1 = 0;                  /* Don't change the y when numerator >= denominator */
 1746              		.loc 1 569 5 is_stmt 1 view .LVU477
 570:../STM32Cube_FW_N6/Utilities/lcd/stm32_lcd.c ****     den = deltay;
 1747              		.loc 1 570 5 view .LVU478
 571:../STM32Cube_FW_N6/Utilities/lcd/stm32_lcd.c ****     num = deltay / 2;
ARM GAS  /tmp/ccsDiBBo.s 			page 56


 1748              		.loc 1 571 5 view .LVU479
 572:../STM32Cube_FW_N6/Utilities/lcd/stm32_lcd.c ****     numadd = deltax;
 1749              		.loc 1 572 5 view .LVU480
 572:../STM32Cube_FW_N6/Utilities/lcd/stm32_lcd.c ****     numadd = deltax;
 1750              		.loc 1 572 9 is_stmt 0 view .LVU481
 1751 005c 2346     		mov	r3, r4
 1752              	.LVL144:
 572:../STM32Cube_FW_N6/Utilities/lcd/stm32_lcd.c ****     numadd = deltax;
 1753              		.loc 1 572 9 view .LVU482
 1754 005e 07EBD775 		add	r5, r7, r7, lsr #31
 571:../STM32Cube_FW_N6/Utilities/lcd/stm32_lcd.c ****     num = deltay / 2;
 1755              		.loc 1 571 9 view .LVU483
 1756 0062 3C46     		mov	r4, r7
 1757              	.LVL145:
 573:../STM32Cube_FW_N6/Utilities/lcd/stm32_lcd.c ****     numpixels = deltay;         /* There are more y-values than x-values */
 1758              		.loc 1 573 12 view .LVU484
 1759 0064 1F46     		mov	r7, r3
 1760              	.LVL146:
 572:../STM32Cube_FW_N6/Utilities/lcd/stm32_lcd.c ****     numadd = deltax;
 1761              		.loc 1 572 9 view .LVU485
 1762 0066 4B46     		mov	r3, r9
 1763              	.LVL147:
 570:../STM32Cube_FW_N6/Utilities/lcd/stm32_lcd.c ****     den = deltay;
 1764              		.loc 1 570 11 view .LVU486
 1765 0068 4FF00009 		mov	r9, #0
 1766              	.LVL148:
 572:../STM32Cube_FW_N6/Utilities/lcd/stm32_lcd.c ****     numadd = deltax;
 1767              		.loc 1 572 9 view .LVU487
 1768 006c 45F34F05 		sbfx	r5, r5, #1, #16
 1769              	.LVL149:
 573:../STM32Cube_FW_N6/Utilities/lcd/stm32_lcd.c ****     numpixels = deltay;         /* There are more y-values than x-values */
 1770              		.loc 1 573 5 is_stmt 1 view .LVU488
 574:../STM32Cube_FW_N6/Utilities/lcd/stm32_lcd.c ****   }
 1771              		.loc 1 574 5 view .LVU489
 569:../STM32Cube_FW_N6/Utilities/lcd/stm32_lcd.c ****     yinc1 = 0;                  /* Don't change the y when numerator >= denominator */
 1772              		.loc 1 569 11 is_stmt 0 view .LVU490
 1773 0070 CB46     		mov	fp, r9
 1774 0072 EAE7     		b	.L125
 1775              	.LVL150:
 1776              	.L128:
 579:../STM32Cube_FW_N6/Utilities/lcd/stm32_lcd.c ****     num += numadd;                            /* Increase the numerator by the top of the fraction 
 1777              		.loc 1 579 5 view .LVU491
 1778 0074 B6B2     		uxth	r6, r6
 579:../STM32Cube_FW_N6/Utilities/lcd/stm32_lcd.c ****     num += numadd;                            /* Increase the numerator by the top of the fraction 
 1779              		.loc 1 579 5 view .LVU492
 1780 0076 1FFA8CF1 		uxth	r1, ip
 1781 007a 0C9A     		ldr	r2, [sp, #48]
 580:../STM32Cube_FW_N6/Utilities/lcd/stm32_lcd.c ****     if (num >= den)                           /* Check if numerator >= denominator */
 1782              		.loc 1 580 9 view .LVU493
 1783 007c 3D44     		add	r5, r5, r7
 1784              	.LVL151:
 579:../STM32Cube_FW_N6/Utilities/lcd/stm32_lcd.c ****     num += numadd;                            /* Increase the numerator by the top of the fraction 
 1785              		.loc 1 579 5 view .LVU494
 1786 007e 3046     		mov	r0, r6
 1787 0080 0193     		str	r3, [sp, #4]
 579:../STM32Cube_FW_N6/Utilities/lcd/stm32_lcd.c ****     num += numadd;                            /* Increase the numerator by the top of the fraction 
 1788              		.loc 1 579 5 is_stmt 1 view .LVU495
ARM GAS  /tmp/ccsDiBBo.s 			page 57


 1789 0082 0091     		str	r1, [sp]
 1790 0084 FFF7FEFF 		bl	UTIL_LCD_SetPixel
 1791              	.LVL152:
 580:../STM32Cube_FW_N6/Utilities/lcd/stm32_lcd.c ****     if (num >= den)                           /* Check if numerator >= denominator */
 1792              		.loc 1 580 5 view .LVU496
 581:../STM32Cube_FW_N6/Utilities/lcd/stm32_lcd.c ****     {
 1793              		.loc 1 581 8 is_stmt 0 view .LVU497
 1794 0088 DDE90013 		ldrd	r1, r3, [sp]
 580:../STM32Cube_FW_N6/Utilities/lcd/stm32_lcd.c ****     if (num >= den)                           /* Check if numerator >= denominator */
 1795              		.loc 1 580 9 view .LVU498
 1796 008c AAB2     		uxth	r2, r5
 1797 008e 2DB2     		sxth	r5, r5
 1798              	.LVL153:
 581:../STM32Cube_FW_N6/Utilities/lcd/stm32_lcd.c ****     {
 1799              		.loc 1 581 5 is_stmt 1 view .LVU499
 581:../STM32Cube_FW_N6/Utilities/lcd/stm32_lcd.c ****     {
 1800              		.loc 1 581 8 is_stmt 0 view .LVU500
 1801 0090 AC42     		cmp	r4, r5
 1802 0092 05DC     		bgt	.L127
 583:../STM32Cube_FW_N6/Utilities/lcd/stm32_lcd.c ****       x += xinc1;                             /* Change the x as appropriate */
 1803              		.loc 1 583 7 is_stmt 1 view .LVU501
 583:../STM32Cube_FW_N6/Utilities/lcd/stm32_lcd.c ****       x += xinc1;                             /* Change the x as appropriate */
 1804              		.loc 1 583 11 is_stmt 0 view .LVU502
 1805 0094 121B     		subs	r2, r2, r4
 584:../STM32Cube_FW_N6/Utilities/lcd/stm32_lcd.c ****       y += yinc1;                             /* Change the y as appropriate */
 1806              		.loc 1 584 9 view .LVU503
 1807 0096 4644     		add	r6, r6, r8
 1808              	.LVL154:
 585:../STM32Cube_FW_N6/Utilities/lcd/stm32_lcd.c ****     }
 1809              		.loc 1 585 9 view .LVU504
 1810 0098 4944     		add	r1, r1, r9
 583:../STM32Cube_FW_N6/Utilities/lcd/stm32_lcd.c ****       x += xinc1;                             /* Change the x as appropriate */
 1811              		.loc 1 583 11 view .LVU505
 1812 009a 15B2     		sxth	r5, r2
 1813              	.LVL155:
 584:../STM32Cube_FW_N6/Utilities/lcd/stm32_lcd.c ****       y += yinc1;                             /* Change the y as appropriate */
 1814              		.loc 1 584 7 is_stmt 1 view .LVU506
 584:../STM32Cube_FW_N6/Utilities/lcd/stm32_lcd.c ****       y += yinc1;                             /* Change the y as appropriate */
 1815              		.loc 1 584 9 is_stmt 0 view .LVU507
 1816 009c B6B2     		uxth	r6, r6
 1817              	.LVL156:
 585:../STM32Cube_FW_N6/Utilities/lcd/stm32_lcd.c ****     }
 1818              		.loc 1 585 7 is_stmt 1 view .LVU508
 585:../STM32Cube_FW_N6/Utilities/lcd/stm32_lcd.c ****     }
 1819              		.loc 1 585 9 is_stmt 0 view .LVU509
 1820 009e 89B2     		uxth	r1, r1
 1821              	.LVL157:
 1822              	.L127:
 587:../STM32Cube_FW_N6/Utilities/lcd/stm32_lcd.c ****     y += yinc2;                               /* Change the y as appropriate */
 1823              		.loc 1 587 5 is_stmt 1 view .LVU510
 587:../STM32Cube_FW_N6/Utilities/lcd/stm32_lcd.c ****     y += yinc2;                               /* Change the y as appropriate */
 1824              		.loc 1 587 7 is_stmt 0 view .LVU511
 1825 00a0 5E44     		add	r6, r6, fp
 588:../STM32Cube_FW_N6/Utilities/lcd/stm32_lcd.c ****   }
 1826              		.loc 1 588 7 view .LVU512
 1827 00a2 1944     		add	r1, r1, r3
 587:../STM32Cube_FW_N6/Utilities/lcd/stm32_lcd.c ****     y += yinc2;                               /* Change the y as appropriate */
ARM GAS  /tmp/ccsDiBBo.s 			page 58


 1828              		.loc 1 587 7 view .LVU513
 1829 00a4 36B2     		sxth	r6, r6
 1830              	.LVL158:
 588:../STM32Cube_FW_N6/Utilities/lcd/stm32_lcd.c ****   }
 1831              		.loc 1 588 5 is_stmt 1 view .LVU514
 588:../STM32Cube_FW_N6/Utilities/lcd/stm32_lcd.c ****   }
 1832              		.loc 1 588 7 is_stmt 0 view .LVU515
 1833 00a6 0FFA81FC 		sxth	ip, r1
 1834              	.LVL159:
 577:../STM32Cube_FW_N6/Utilities/lcd/stm32_lcd.c ****   {
 1835              		.loc 1 577 53 is_stmt 1 discriminator 2 view .LVU516
 577:../STM32Cube_FW_N6/Utilities/lcd/stm32_lcd.c ****   {
 1836              		.loc 1 577 53 is_stmt 0 discriminator 2 view .LVU517
 1837 00aa 0AF1010A 		add	r10, r10, #1
 1838              	.LVL160:
 577:../STM32Cube_FW_N6/Utilities/lcd/stm32_lcd.c ****   {
 1839              		.loc 1 577 53 discriminator 2 view .LVU518
 1840 00ae CEE7     		b	.L126
 1841              		.cfi_endproc
 1842              	.LFE19:
 1844              		.section	.text.FillTriangle,"ax",%progbits
 1845              		.align	1
 1846              		.syntax unified
 1847              		.thumb
 1848              		.thumb_func
 1850              	FillTriangle:
 1851              	.LVL161:
 1852              	.LFB30:
1101:../STM32Cube_FW_N6/Utilities/lcd/stm32_lcd.c ****     }
1102:../STM32Cube_FW_N6/Utilities/lcd/stm32_lcd.c ****   }
1103:../STM32Cube_FW_N6/Utilities/lcd/stm32_lcd.c **** }
1104:../STM32Cube_FW_N6/Utilities/lcd/stm32_lcd.c **** 
1105:../STM32Cube_FW_N6/Utilities/lcd/stm32_lcd.c **** /**
1106:../STM32Cube_FW_N6/Utilities/lcd/stm32_lcd.c ****   * @brief  Fills a triangle (between 3 points).
1107:../STM32Cube_FW_N6/Utilities/lcd/stm32_lcd.c ****   * @param  Positions  pointer to riangle coordinates
1108:../STM32Cube_FW_N6/Utilities/lcd/stm32_lcd.c ****   * @param  Color      Draw color
1109:../STM32Cube_FW_N6/Utilities/lcd/stm32_lcd.c ****   */
1110:../STM32Cube_FW_N6/Utilities/lcd/stm32_lcd.c **** static void FillTriangle(Triangle_Positions_t *Positions, uint32_t Color)
1111:../STM32Cube_FW_N6/Utilities/lcd/stm32_lcd.c **** {
 1853              		.loc 1 1111 1 is_stmt 1 view -0
 1854              		.cfi_startproc
 1855              		@ args = 0, pretend = 0, frame = 16
 1856              		@ frame_needed = 0, uses_anonymous_args = 0
1112:../STM32Cube_FW_N6/Utilities/lcd/stm32_lcd.c ****   int16_t deltax = 0, deltay = 0, x = 0, y = 0, xinc1 = 0, xinc2 = 0,
 1857              		.loc 1 1112 3 view .LVU520
1113:../STM32Cube_FW_N6/Utilities/lcd/stm32_lcd.c ****   yinc1 = 0, yinc2 = 0, den = 0, num = 0, numadd = 0, numpixels = 0,
1114:../STM32Cube_FW_N6/Utilities/lcd/stm32_lcd.c ****   curpixel = 0;
1115:../STM32Cube_FW_N6/Utilities/lcd/stm32_lcd.c ****   int32_t x_diff, y_diff;
 1858              		.loc 1 1115 3 view .LVU521
1116:../STM32Cube_FW_N6/Utilities/lcd/stm32_lcd.c **** 
1117:../STM32Cube_FW_N6/Utilities/lcd/stm32_lcd.c ****   x_diff = Positions->x2 - Positions->x1;
 1859              		.loc 1 1117 3 view .LVU522
 1860              		.loc 1 1117 21 is_stmt 0 view .LVU523
 1861 0000 D0F808C0 		ldr	ip, [r0, #8]
 1862              		.loc 1 1117 37 view .LVU524
 1863 0004 0268     		ldr	r2, [r0]
 1864              	.LVL162:
ARM GAS  /tmp/ccsDiBBo.s 			page 59


1118:../STM32Cube_FW_N6/Utilities/lcd/stm32_lcd.c ****   y_diff = Positions->y2 - Positions->y1;
 1865              		.loc 1 1118 3 is_stmt 1 view .LVU525
1111:../STM32Cube_FW_N6/Utilities/lcd/stm32_lcd.c ****   int16_t deltax = 0, deltay = 0, x = 0, y = 0, xinc1 = 0, xinc2 = 0,
 1866              		.loc 1 1111 1 is_stmt 0 view .LVU526
 1867 0006 2DE9F04F 		push	{r4, r5, r6, r7, r8, r9, r10, fp, lr}
 1868              		.cfi_def_cfa_offset 36
 1869              		.cfi_offset 4, -36
 1870              		.cfi_offset 5, -32
 1871              		.cfi_offset 6, -28
 1872              		.cfi_offset 7, -24
 1873              		.cfi_offset 8, -20
 1874              		.cfi_offset 9, -16
 1875              		.cfi_offset 10, -12
 1876              		.cfi_offset 11, -8
 1877              		.cfi_offset 14, -4
 1878              		.loc 1 1118 37 view .LVU527
 1879 000a 4368     		ldr	r3, [r0, #4]
 1880              		.loc 1 1118 21 view .LVU528
 1881 000c C568     		ldr	r5, [r0, #12]
 1882              	.LVL163:
1119:../STM32Cube_FW_N6/Utilities/lcd/stm32_lcd.c **** 
1120:../STM32Cube_FW_N6/Utilities/lcd/stm32_lcd.c ****   deltax = ABS(x_diff);         /* The absolute difference between the x's */
 1883              		.loc 1 1120 3 is_stmt 1 view .LVU529
1117:../STM32Cube_FW_N6/Utilities/lcd/stm32_lcd.c ****   y_diff = Positions->y2 - Positions->y1;
 1884              		.loc 1 1117 26 is_stmt 0 view .LVU530
 1885 000e ACEB0204 		sub	r4, ip, r2
 1886              	.LVL164:
 1887              		.loc 1 1120 12 view .LVU531
 1888 0012 002C     		cmp	r4, #0
1118:../STM32Cube_FW_N6/Utilities/lcd/stm32_lcd.c **** 
 1889              		.loc 1 1118 26 view .LVU532
 1890 0014 A5EB0306 		sub	r6, r5, r3
 1891              	.LVL165:
 1892              		.loc 1 1120 12 view .LVU533
 1893 0018 B8BF     		it	lt
 1894 001a 6442     		rsblt	r4, r4, #0
 1895              	.LVL166:
1121:../STM32Cube_FW_N6/Utilities/lcd/stm32_lcd.c ****   deltay = ABS(y_diff);         /* The absolute difference between the y's */
 1896              		.loc 1 1121 12 view .LVU534
 1897 001c 002E     		cmp	r6, #0
 1898 001e B8BF     		it	lt
 1899 0020 7642     		rsblt	r6, r6, #0
 1900              	.LVL167:
1122:../STM32Cube_FW_N6/Utilities/lcd/stm32_lcd.c ****   x = Positions->x1;                       /* Start x off at the first pixel */
1123:../STM32Cube_FW_N6/Utilities/lcd/stm32_lcd.c ****   y = Positions->y1;                       /* Start y off at the first pixel */
1124:../STM32Cube_FW_N6/Utilities/lcd/stm32_lcd.c **** 
1125:../STM32Cube_FW_N6/Utilities/lcd/stm32_lcd.c ****   if (Positions->x2 >= Positions->x1)                 /* The x-values are increasing */
1126:../STM32Cube_FW_N6/Utilities/lcd/stm32_lcd.c ****   {
1127:../STM32Cube_FW_N6/Utilities/lcd/stm32_lcd.c ****     xinc1 = 1;
 1901              		.loc 1 1127 11 view .LVU535
 1902 0022 9445     		cmp	ip, r2
 1903 0024 34BF     		ite	cc
 1904 0026 4FF0FF38 		movcc	r8, #-1
 1905 002a 4FF00108 		movcs	r8, #1
1120:../STM32Cube_FW_N6/Utilities/lcd/stm32_lcd.c ****   deltay = ABS(y_diff);         /* The absolute difference between the y's */
 1906              		.loc 1 1120 10 view .LVU536
 1907 002e 24B2     		sxth	r4, r4
ARM GAS  /tmp/ccsDiBBo.s 			page 60


 1908              	.LVL168:
1121:../STM32Cube_FW_N6/Utilities/lcd/stm32_lcd.c ****   deltay = ABS(y_diff);         /* The absolute difference between the y's */
 1909              		.loc 1 1121 3 is_stmt 1 view .LVU537
1128:../STM32Cube_FW_N6/Utilities/lcd/stm32_lcd.c ****     xinc2 = 1;
1129:../STM32Cube_FW_N6/Utilities/lcd/stm32_lcd.c ****   }
1130:../STM32Cube_FW_N6/Utilities/lcd/stm32_lcd.c ****   else                          /* The x-values are decreasing */
1131:../STM32Cube_FW_N6/Utilities/lcd/stm32_lcd.c ****   {
1132:../STM32Cube_FW_N6/Utilities/lcd/stm32_lcd.c ****     xinc1 = -1;
1133:../STM32Cube_FW_N6/Utilities/lcd/stm32_lcd.c ****     xinc2 = -1;
1134:../STM32Cube_FW_N6/Utilities/lcd/stm32_lcd.c ****   }
1135:../STM32Cube_FW_N6/Utilities/lcd/stm32_lcd.c **** 
1136:../STM32Cube_FW_N6/Utilities/lcd/stm32_lcd.c ****   if (Positions->y2 >= Positions->y1)                 /* The y-values are increasing */
1137:../STM32Cube_FW_N6/Utilities/lcd/stm32_lcd.c ****   {
1138:../STM32Cube_FW_N6/Utilities/lcd/stm32_lcd.c ****     yinc1 = 1;
 1910              		.loc 1 1138 11 is_stmt 0 view .LVU538
 1911 0030 9D42     		cmp	r5, r3
1121:../STM32Cube_FW_N6/Utilities/lcd/stm32_lcd.c ****   x = Positions->x1;                       /* Start x off at the first pixel */
 1912              		.loc 1 1121 10 view .LVU539
 1913 0032 36B2     		sxth	r6, r6
 1914              	.LVL169:
1122:../STM32Cube_FW_N6/Utilities/lcd/stm32_lcd.c ****   y = Positions->y1;                       /* Start y off at the first pixel */
 1915              		.loc 1 1122 3 is_stmt 1 view .LVU540
 1916              		.loc 1 1138 11 is_stmt 0 view .LVU541
 1917 0034 34BF     		ite	cc
 1918 0036 4FF0FF39 		movcc	r9, #-1
 1919 003a 4FF00109 		movcs	r9, #1
1111:../STM32Cube_FW_N6/Utilities/lcd/stm32_lcd.c ****   int16_t deltax = 0, deltay = 0, x = 0, y = 0, xinc1 = 0, xinc2 = 0,
 1920              		.loc 1 1111 1 view .LVU542
 1921 003e 87B0     		sub	sp, sp, #28
 1922              		.cfi_def_cfa_offset 64
1139:../STM32Cube_FW_N6/Utilities/lcd/stm32_lcd.c ****     yinc2 = 1;
1140:../STM32Cube_FW_N6/Utilities/lcd/stm32_lcd.c ****   }
1141:../STM32Cube_FW_N6/Utilities/lcd/stm32_lcd.c ****   else                          /* The y-values are decreasing */
1142:../STM32Cube_FW_N6/Utilities/lcd/stm32_lcd.c ****   {
1143:../STM32Cube_FW_N6/Utilities/lcd/stm32_lcd.c ****     yinc1 = -1;
1144:../STM32Cube_FW_N6/Utilities/lcd/stm32_lcd.c ****     yinc2 = -1;
1145:../STM32Cube_FW_N6/Utilities/lcd/stm32_lcd.c ****   }
1146:../STM32Cube_FW_N6/Utilities/lcd/stm32_lcd.c **** 
1147:../STM32Cube_FW_N6/Utilities/lcd/stm32_lcd.c ****   if (deltax >= deltay)         /* There is at least one x-value for every y-value */
 1923              		.loc 1 1147 6 view .LVU543
 1924 0040 B442     		cmp	r4, r6
1111:../STM32Cube_FW_N6/Utilities/lcd/stm32_lcd.c ****   int16_t deltax = 0, deltay = 0, x = 0, y = 0, xinc1 = 0, xinc2 = 0,
 1925              		.loc 1 1111 1 view .LVU544
 1926 0042 0746     		mov	r7, r0
 1927 0044 0391     		str	r1, [sp, #12]
1122:../STM32Cube_FW_N6/Utilities/lcd/stm32_lcd.c ****   y = Positions->y1;                       /* Start y off at the first pixel */
 1928              		.loc 1 1122 5 view .LVU545
 1929 0046 10B2     		sxth	r0, r2
 1930              	.LVL170:
1123:../STM32Cube_FW_N6/Utilities/lcd/stm32_lcd.c **** 
 1931              		.loc 1 1123 3 is_stmt 1 view .LVU546
1123:../STM32Cube_FW_N6/Utilities/lcd/stm32_lcd.c **** 
 1932              		.loc 1 1123 5 is_stmt 0 view .LVU547
 1933 0048 19B2     		sxth	r1, r3
 1934              	.LVL171:
1125:../STM32Cube_FW_N6/Utilities/lcd/stm32_lcd.c ****   {
 1935              		.loc 1 1125 3 is_stmt 1 view .LVU548
ARM GAS  /tmp/ccsDiBBo.s 			page 61


1136:../STM32Cube_FW_N6/Utilities/lcd/stm32_lcd.c ****   {
 1936              		.loc 1 1136 3 view .LVU549
 1937              		.loc 1 1147 3 view .LVU550
 1938              		.loc 1 1147 6 is_stmt 0 view .LVU551
 1939 004a 10DB     		blt	.L134
1148:../STM32Cube_FW_N6/Utilities/lcd/stm32_lcd.c ****   {
1149:../STM32Cube_FW_N6/Utilities/lcd/stm32_lcd.c ****     xinc1 = 0;                  /* Don't change the x when numerator >= denominator */
 1940              		.loc 1 1149 5 is_stmt 1 view .LVU552
 1941              	.LVL172:
1150:../STM32Cube_FW_N6/Utilities/lcd/stm32_lcd.c ****     yinc2 = 0;                  /* Don't change the y for every iteration */
 1942              		.loc 1 1150 5 view .LVU553
1151:../STM32Cube_FW_N6/Utilities/lcd/stm32_lcd.c ****     den = deltax;
 1943              		.loc 1 1151 5 view .LVU554
1152:../STM32Cube_FW_N6/Utilities/lcd/stm32_lcd.c ****     num = deltax / 2;
 1944              		.loc 1 1152 5 view .LVU555
 1945 004c CDF80880 		str	r8, [sp, #8]
1150:../STM32Cube_FW_N6/Utilities/lcd/stm32_lcd.c ****     yinc2 = 0;                  /* Don't change the y for every iteration */
 1946              		.loc 1 1150 11 is_stmt 0 view .LVU556
 1947 0050 4FF00008 		mov	r8, #0
 1948              	.LVL173:
1149:../STM32Cube_FW_N6/Utilities/lcd/stm32_lcd.c ****     yinc2 = 0;                  /* Don't change the y for every iteration */
 1949              		.loc 1 1149 11 view .LVU557
 1950 0054 C346     		mov	fp, r8
 1951              		.loc 1 1152 9 view .LVU558
 1952 0056 04EBD475 		add	r5, r4, r4, lsr #31
 1953              	.LVL174:
 1954              		.loc 1 1152 9 view .LVU559
 1955 005a 6D10     		asrs	r5, r5, #1
 1956              	.LVL175:
1153:../STM32Cube_FW_N6/Utilities/lcd/stm32_lcd.c ****     numadd = deltay;
 1957              		.loc 1 1153 5 is_stmt 1 view .LVU560
1154:../STM32Cube_FW_N6/Utilities/lcd/stm32_lcd.c ****     numpixels = deltax;         /* There are more x-values than y-values */
 1958              		.loc 1 1154 5 view .LVU561
 1959              	.L135:
1155:../STM32Cube_FW_N6/Utilities/lcd/stm32_lcd.c ****   }
1156:../STM32Cube_FW_N6/Utilities/lcd/stm32_lcd.c ****   else                          /* There is at least one y-value for every x-value */
1157:../STM32Cube_FW_N6/Utilities/lcd/stm32_lcd.c ****   {
1158:../STM32Cube_FW_N6/Utilities/lcd/stm32_lcd.c ****     xinc2 = 0;                  /* Don't change the x for every iteration */
1159:../STM32Cube_FW_N6/Utilities/lcd/stm32_lcd.c ****     yinc1 = 0;                  /* Don't change the y when numerator >= denominator */
1160:../STM32Cube_FW_N6/Utilities/lcd/stm32_lcd.c ****     den = deltay;
1161:../STM32Cube_FW_N6/Utilities/lcd/stm32_lcd.c ****     num = deltay / 2;
1162:../STM32Cube_FW_N6/Utilities/lcd/stm32_lcd.c ****     numadd = deltax;
1163:../STM32Cube_FW_N6/Utilities/lcd/stm32_lcd.c ****     numpixels = deltay;         /* There are more y-values than x-values */
1164:../STM32Cube_FW_N6/Utilities/lcd/stm32_lcd.c ****   }
1165:../STM32Cube_FW_N6/Utilities/lcd/stm32_lcd.c **** 
1166:../STM32Cube_FW_N6/Utilities/lcd/stm32_lcd.c ****   for (curpixel = 0; curpixel <= numpixels; curpixel++)
 1960              		.loc 1 1166 3 view .LVU562
 1961              		.loc 1 1166 3 is_stmt 0 view .LVU563
 1962 005c 4FF0000A 		mov	r10, #0
 1963              	.LVL176:
 1964              	.L136:
 1965              		.loc 1 1166 31 is_stmt 1 discriminator 1 view .LVU564
 1966 0060 0FFA8AF3 		sxth	r3, r10
 1967 0064 9C42     		cmp	r4, r3
 1968 0066 0FDA     		bge	.L138
1167:../STM32Cube_FW_N6/Utilities/lcd/stm32_lcd.c ****   {
1168:../STM32Cube_FW_N6/Utilities/lcd/stm32_lcd.c ****     UTIL_LCD_DrawLine(x, y, Positions->x3, Positions->y3, Color);
ARM GAS  /tmp/ccsDiBBo.s 			page 62


1169:../STM32Cube_FW_N6/Utilities/lcd/stm32_lcd.c **** 
1170:../STM32Cube_FW_N6/Utilities/lcd/stm32_lcd.c ****     num += numadd;              /* Increase the numerator by the top of the fraction */
1171:../STM32Cube_FW_N6/Utilities/lcd/stm32_lcd.c ****     if (num >= den)             /* Check if numerator >= denominator */
1172:../STM32Cube_FW_N6/Utilities/lcd/stm32_lcd.c ****     {
1173:../STM32Cube_FW_N6/Utilities/lcd/stm32_lcd.c ****       num -= den;               /* Calculate the new numerator value */
1174:../STM32Cube_FW_N6/Utilities/lcd/stm32_lcd.c ****       x += xinc1;               /* Change the x as appropriate */
1175:../STM32Cube_FW_N6/Utilities/lcd/stm32_lcd.c ****       y += yinc1;               /* Change the y as appropriate */
1176:../STM32Cube_FW_N6/Utilities/lcd/stm32_lcd.c ****     }
1177:../STM32Cube_FW_N6/Utilities/lcd/stm32_lcd.c ****     x += xinc2;                 /* Change the x as appropriate */
1178:../STM32Cube_FW_N6/Utilities/lcd/stm32_lcd.c ****     y += yinc2;                 /* Change the y as appropriate */
1179:../STM32Cube_FW_N6/Utilities/lcd/stm32_lcd.c ****   }
1180:../STM32Cube_FW_N6/Utilities/lcd/stm32_lcd.c **** }
 1969              		.loc 1 1180 1 is_stmt 0 view .LVU565
 1970 0068 07B0     		add	sp, sp, #28
 1971              		.cfi_remember_state
 1972              		.cfi_def_cfa_offset 36
 1973              		@ sp needed
 1974 006a BDE8F08F 		pop	{r4, r5, r6, r7, r8, r9, r10, fp, pc}
 1975              	.LVL177:
 1976              	.L134:
 1977              		.cfi_restore_state
1158:../STM32Cube_FW_N6/Utilities/lcd/stm32_lcd.c ****     yinc1 = 0;                  /* Don't change the y when numerator >= denominator */
 1978              		.loc 1 1158 5 is_stmt 1 view .LVU566
1159:../STM32Cube_FW_N6/Utilities/lcd/stm32_lcd.c ****     den = deltay;
 1979              		.loc 1 1159 5 view .LVU567
1160:../STM32Cube_FW_N6/Utilities/lcd/stm32_lcd.c ****     num = deltay / 2;
 1980              		.loc 1 1160 5 view .LVU568
1161:../STM32Cube_FW_N6/Utilities/lcd/stm32_lcd.c ****     numadd = deltax;
 1981              		.loc 1 1161 5 view .LVU569
1161:../STM32Cube_FW_N6/Utilities/lcd/stm32_lcd.c ****     numadd = deltax;
 1982              		.loc 1 1161 9 is_stmt 0 view .LVU570
 1983 006e 2346     		mov	r3, r4
 1984              	.LVL178:
1161:../STM32Cube_FW_N6/Utilities/lcd/stm32_lcd.c ****     numadd = deltax;
 1985              		.loc 1 1161 9 view .LVU571
 1986 0070 CB46     		mov	fp, r9
1159:../STM32Cube_FW_N6/Utilities/lcd/stm32_lcd.c ****     den = deltay;
 1987              		.loc 1 1159 11 view .LVU572
 1988 0072 4FF00009 		mov	r9, #0
 1989              	.LVL179:
1161:../STM32Cube_FW_N6/Utilities/lcd/stm32_lcd.c ****     numadd = deltax;
 1990              		.loc 1 1161 9 view .LVU573
 1991 0076 06EBD675 		add	r5, r6, r6, lsr #31
 1992              	.LVL180:
1160:../STM32Cube_FW_N6/Utilities/lcd/stm32_lcd.c ****     num = deltay / 2;
 1993              		.loc 1 1160 9 view .LVU574
 1994 007a 3446     		mov	r4, r6
 1995              	.LVL181:
1161:../STM32Cube_FW_N6/Utilities/lcd/stm32_lcd.c ****     numadd = deltax;
 1996              		.loc 1 1161 9 view .LVU575
 1997 007c 45F34F05 		sbfx	r5, r5, #1, #16
 1998              	.LVL182:
1162:../STM32Cube_FW_N6/Utilities/lcd/stm32_lcd.c ****     numpixels = deltay;         /* There are more y-values than x-values */
 1999              		.loc 1 1162 5 is_stmt 1 view .LVU576
1163:../STM32Cube_FW_N6/Utilities/lcd/stm32_lcd.c ****   }
 2000              		.loc 1 1163 5 view .LVU577
1162:../STM32Cube_FW_N6/Utilities/lcd/stm32_lcd.c ****     numpixels = deltay;         /* There are more y-values than x-values */
ARM GAS  /tmp/ccsDiBBo.s 			page 63


 2001              		.loc 1 1162 12 is_stmt 0 view .LVU578
 2002 0080 1E46     		mov	r6, r3
 2003              	.LVL183:
1158:../STM32Cube_FW_N6/Utilities/lcd/stm32_lcd.c ****     yinc1 = 0;                  /* Don't change the y when numerator >= denominator */
 2004              		.loc 1 1158 11 view .LVU579
 2005 0082 CDF80890 		str	r9, [sp, #8]
 2006 0086 E9E7     		b	.L135
 2007              	.LVL184:
 2008              	.L138:
1168:../STM32Cube_FW_N6/Utilities/lcd/stm32_lcd.c **** 
 2009              		.loc 1 1168 5 is_stmt 1 view .LVU580
 2010 0088 039B     		ldr	r3, [sp, #12]
1170:../STM32Cube_FW_N6/Utilities/lcd/stm32_lcd.c ****     if (num >= den)             /* Check if numerator >= denominator */
 2011              		.loc 1 1170 9 is_stmt 0 view .LVU581
 2012 008a 3544     		add	r5, r5, r6
 2013              	.LVL185:
1168:../STM32Cube_FW_N6/Utilities/lcd/stm32_lcd.c **** 
 2014              		.loc 1 1168 5 view .LVU582
 2015 008c 0093     		str	r3, [sp]
 2016 008e D7E90423 		ldrd	r2, r3, [r7, #16]
 2017 0092 CDE90401 		strd	r0, r1, [sp, #16]
 2018 0096 FFF7FEFF 		bl	UTIL_LCD_DrawLine
 2019              	.LVL186:
1170:../STM32Cube_FW_N6/Utilities/lcd/stm32_lcd.c ****     if (num >= den)             /* Check if numerator >= denominator */
 2020              		.loc 1 1170 5 is_stmt 1 view .LVU583
1171:../STM32Cube_FW_N6/Utilities/lcd/stm32_lcd.c ****     {
 2021              		.loc 1 1171 8 is_stmt 0 view .LVU584
 2022 009a DDE90401 		ldrd	r0, r1, [sp, #16]
1170:../STM32Cube_FW_N6/Utilities/lcd/stm32_lcd.c ****     if (num >= den)             /* Check if numerator >= denominator */
 2023              		.loc 1 1170 9 view .LVU585
 2024 009e ABB2     		uxth	r3, r5
 2025 00a0 2DB2     		sxth	r5, r5
 2026              	.LVL187:
1171:../STM32Cube_FW_N6/Utilities/lcd/stm32_lcd.c ****     {
 2027              		.loc 1 1171 5 is_stmt 1 view .LVU586
1171:../STM32Cube_FW_N6/Utilities/lcd/stm32_lcd.c ****     {
 2028              		.loc 1 1171 8 is_stmt 0 view .LVU587
 2029 00a2 AC42     		cmp	r4, r5
 2030 00a4 05DC     		bgt	.L137
1173:../STM32Cube_FW_N6/Utilities/lcd/stm32_lcd.c ****       x += xinc1;               /* Change the x as appropriate */
 2031              		.loc 1 1173 7 is_stmt 1 view .LVU588
1173:../STM32Cube_FW_N6/Utilities/lcd/stm32_lcd.c ****       x += xinc1;               /* Change the x as appropriate */
 2032              		.loc 1 1173 11 is_stmt 0 view .LVU589
 2033 00a6 1B1B     		subs	r3, r3, r4
1174:../STM32Cube_FW_N6/Utilities/lcd/stm32_lcd.c ****       y += yinc1;               /* Change the y as appropriate */
 2034              		.loc 1 1174 9 view .LVU590
 2035 00a8 4044     		add	r0, r0, r8
1175:../STM32Cube_FW_N6/Utilities/lcd/stm32_lcd.c ****     }
 2036              		.loc 1 1175 9 view .LVU591
 2037 00aa 4944     		add	r1, r1, r9
1173:../STM32Cube_FW_N6/Utilities/lcd/stm32_lcd.c ****       x += xinc1;               /* Change the x as appropriate */
 2038              		.loc 1 1173 11 view .LVU592
 2039 00ac 1DB2     		sxth	r5, r3
 2040              	.LVL188:
1174:../STM32Cube_FW_N6/Utilities/lcd/stm32_lcd.c ****       y += yinc1;               /* Change the y as appropriate */
 2041              		.loc 1 1174 7 is_stmt 1 view .LVU593
1174:../STM32Cube_FW_N6/Utilities/lcd/stm32_lcd.c ****       y += yinc1;               /* Change the y as appropriate */
ARM GAS  /tmp/ccsDiBBo.s 			page 64


 2042              		.loc 1 1174 9 is_stmt 0 view .LVU594
 2043 00ae 00B2     		sxth	r0, r0
 2044              	.LVL189:
1175:../STM32Cube_FW_N6/Utilities/lcd/stm32_lcd.c ****     }
 2045              		.loc 1 1175 7 is_stmt 1 view .LVU595
1175:../STM32Cube_FW_N6/Utilities/lcd/stm32_lcd.c ****     }
 2046              		.loc 1 1175 9 is_stmt 0 view .LVU596
 2047 00b0 09B2     		sxth	r1, r1
 2048              	.LVL190:
 2049              	.L137:
1177:../STM32Cube_FW_N6/Utilities/lcd/stm32_lcd.c ****     y += yinc2;                 /* Change the y as appropriate */
 2050              		.loc 1 1177 5 is_stmt 1 view .LVU597
1177:../STM32Cube_FW_N6/Utilities/lcd/stm32_lcd.c ****     y += yinc2;                 /* Change the y as appropriate */
 2051              		.loc 1 1177 7 is_stmt 0 view .LVU598
 2052 00b2 029B     		ldr	r3, [sp, #8]
1178:../STM32Cube_FW_N6/Utilities/lcd/stm32_lcd.c ****   }
 2053              		.loc 1 1178 7 view .LVU599
 2054 00b4 5944     		add	r1, r1, fp
 2055              	.LVL191:
1177:../STM32Cube_FW_N6/Utilities/lcd/stm32_lcd.c ****     y += yinc2;                 /* Change the y as appropriate */
 2056              		.loc 1 1177 7 view .LVU600
 2057 00b6 1844     		add	r0, r0, r3
 2058              	.LVL192:
1177:../STM32Cube_FW_N6/Utilities/lcd/stm32_lcd.c ****     y += yinc2;                 /* Change the y as appropriate */
 2059              		.loc 1 1177 7 view .LVU601
 2060 00b8 00B2     		sxth	r0, r0
 2061              	.LVL193:
1178:../STM32Cube_FW_N6/Utilities/lcd/stm32_lcd.c ****   }
 2062              		.loc 1 1178 5 is_stmt 1 view .LVU602
1178:../STM32Cube_FW_N6/Utilities/lcd/stm32_lcd.c ****   }
 2063              		.loc 1 1178 7 is_stmt 0 view .LVU603
 2064 00ba 09B2     		sxth	r1, r1
 2065              	.LVL194:
1166:../STM32Cube_FW_N6/Utilities/lcd/stm32_lcd.c ****   {
 2066              		.loc 1 1166 53 is_stmt 1 discriminator 2 view .LVU604
1166:../STM32Cube_FW_N6/Utilities/lcd/stm32_lcd.c ****   {
 2067              		.loc 1 1166 53 is_stmt 0 discriminator 2 view .LVU605
 2068 00bc 0AF1010A 		add	r10, r10, #1
 2069              	.LVL195:
1166:../STM32Cube_FW_N6/Utilities/lcd/stm32_lcd.c ****   {
 2070              		.loc 1 1166 53 discriminator 2 view .LVU606
 2071 00c0 CEE7     		b	.L136
 2072              		.cfi_endproc
 2073              	.LFE30:
 2075              		.section	.text.UTIL_LCD_DrawRect,"ax",%progbits
 2076              		.align	1
 2077              		.global	UTIL_LCD_DrawRect
 2078              		.syntax unified
 2079              		.thumb
 2080              		.thumb_func
 2082              	UTIL_LCD_DrawRect:
 2083              	.LVL196:
 2084              	.LFB20:
 601:../STM32Cube_FW_N6/Utilities/lcd/stm32_lcd.c ****   /* Draw horizontal lines */
 2085              		.loc 1 601 1 is_stmt 1 view -0
 2086              		.cfi_startproc
 2087              		@ args = 4, pretend = 0, frame = 0
ARM GAS  /tmp/ccsDiBBo.s 			page 65


 2088              		@ frame_needed = 0, uses_anonymous_args = 0
 603:../STM32Cube_FW_N6/Utilities/lcd/stm32_lcd.c ****   UTIL_LCD_DrawHLine(Xpos, (Ypos+ Height - 1U), Width, Color);
 2089              		.loc 1 603 3 view .LVU608
 601:../STM32Cube_FW_N6/Utilities/lcd/stm32_lcd.c ****   /* Draw horizontal lines */
 2090              		.loc 1 601 1 is_stmt 0 view .LVU609
 2091 0000 2DE9F041 		push	{r4, r5, r6, r7, r8, lr}
 2092              		.cfi_def_cfa_offset 24
 2093              		.cfi_offset 4, -24
 2094              		.cfi_offset 5, -20
 2095              		.cfi_offset 6, -16
 2096              		.cfi_offset 7, -12
 2097              		.cfi_offset 8, -8
 2098              		.cfi_offset 14, -4
 601:../STM32Cube_FW_N6/Utilities/lcd/stm32_lcd.c ****   /* Draw horizontal lines */
 2099              		.loc 1 601 1 view .LVU610
 2100 0004 1F46     		mov	r7, r3
 2101 0006 0E46     		mov	r6, r1
 2102 0008 0546     		mov	r5, r0
 2103 000a 1446     		mov	r4, r2
 2104 000c DDF81880 		ldr	r8, [sp, #24]
 603:../STM32Cube_FW_N6/Utilities/lcd/stm32_lcd.c ****   UTIL_LCD_DrawHLine(Xpos, (Ypos+ Height - 1U), Width, Color);
 2105              		.loc 1 603 3 view .LVU611
 2106 0010 4346     		mov	r3, r8
 2107              	.LVL197:
 603:../STM32Cube_FW_N6/Utilities/lcd/stm32_lcd.c ****   UTIL_LCD_DrawHLine(Xpos, (Ypos+ Height - 1U), Width, Color);
 2108              		.loc 1 603 3 view .LVU612
 2109 0012 FFF7FEFF 		bl	UTIL_LCD_DrawHLine
 2110              	.LVL198:
 604:../STM32Cube_FW_N6/Utilities/lcd/stm32_lcd.c **** 
 2111              		.loc 1 604 3 is_stmt 1 view .LVU613
 604:../STM32Cube_FW_N6/Utilities/lcd/stm32_lcd.c **** 
 2112              		.loc 1 604 42 is_stmt 0 view .LVU614
 2113 0016 791E     		subs	r1, r7, #1
 604:../STM32Cube_FW_N6/Utilities/lcd/stm32_lcd.c **** 
 2114              		.loc 1 604 3 view .LVU615
 2115 0018 4346     		mov	r3, r8
 2116 001a 2246     		mov	r2, r4
 2117 001c 2846     		mov	r0, r5
 2118 001e 3144     		add	r1, r1, r6
 2119 0020 FFF7FEFF 		bl	UTIL_LCD_DrawHLine
 2120              	.LVL199:
 607:../STM32Cube_FW_N6/Utilities/lcd/stm32_lcd.c ****   UTIL_LCD_DrawVLine((Xpos + Width - 1U), Ypos, Height, Color);
 2121              		.loc 1 607 3 is_stmt 1 view .LVU616
 608:../STM32Cube_FW_N6/Utilities/lcd/stm32_lcd.c **** }
 2122              		.loc 1 608 36 is_stmt 0 view .LVU617
 2123 0024 013C     		subs	r4, r4, #1
 2124              	.LVL200:
 607:../STM32Cube_FW_N6/Utilities/lcd/stm32_lcd.c ****   UTIL_LCD_DrawVLine((Xpos + Width - 1U), Ypos, Height, Color);
 2125              		.loc 1 607 3 view .LVU618
 2126 0026 4346     		mov	r3, r8
 2127 0028 3A46     		mov	r2, r7
 2128 002a 3146     		mov	r1, r6
 2129 002c 2846     		mov	r0, r5
 2130 002e FFF7FEFF 		bl	UTIL_LCD_DrawVLine
 2131              	.LVL201:
 608:../STM32Cube_FW_N6/Utilities/lcd/stm32_lcd.c **** }
 2132              		.loc 1 608 3 is_stmt 1 view .LVU619
ARM GAS  /tmp/ccsDiBBo.s 			page 66


 2133 0032 4346     		mov	r3, r8
 2134 0034 3A46     		mov	r2, r7
 2135 0036 3146     		mov	r1, r6
 2136 0038 6019     		adds	r0, r4, r5
 609:../STM32Cube_FW_N6/Utilities/lcd/stm32_lcd.c **** 
 2137              		.loc 1 609 1 is_stmt 0 view .LVU620
 2138 003a BDE8F041 		pop	{r4, r5, r6, r7, r8, lr}
 2139              		.cfi_restore 14
 2140              		.cfi_restore 8
 2141              		.cfi_restore 7
 2142              		.cfi_restore 6
 2143              		.cfi_restore 5
 2144              		.cfi_restore 4
 2145              		.cfi_def_cfa_offset 0
 2146              	.LVL202:
 608:../STM32Cube_FW_N6/Utilities/lcd/stm32_lcd.c **** }
 2147              		.loc 1 608 3 view .LVU621
 2148 003e FFF7FEBF 		b	UTIL_LCD_DrawVLine
 2149              	.LVL203:
 608:../STM32Cube_FW_N6/Utilities/lcd/stm32_lcd.c **** }
 2150              		.loc 1 608 3 view .LVU622
 2151              		.cfi_endproc
 2152              	.LFE20:
 2154              		.section	.text.UTIL_LCD_DrawCircle,"ax",%progbits
 2155              		.align	1
 2156              		.global	UTIL_LCD_DrawCircle
 2157              		.syntax unified
 2158              		.thumb
 2159              		.thumb_func
 2161              	UTIL_LCD_DrawCircle:
 2162              	.LVL204:
 2163              	.LFB21:
 619:../STM32Cube_FW_N6/Utilities/lcd/stm32_lcd.c ****   int32_t   decision;  /* Decision Variable */
 2164              		.loc 1 619 1 is_stmt 1 view -0
 2165              		.cfi_startproc
 2166              		@ args = 0, pretend = 0, frame = 0
 2167              		@ frame_needed = 0, uses_anonymous_args = 0
 620:../STM32Cube_FW_N6/Utilities/lcd/stm32_lcd.c ****   uint32_t  current_x; /* Current X Value */
 2168              		.loc 1 620 3 view .LVU624
 621:../STM32Cube_FW_N6/Utilities/lcd/stm32_lcd.c ****   uint32_t  current_y; /* Current Y Value */
 2169              		.loc 1 621 3 view .LVU625
 622:../STM32Cube_FW_N6/Utilities/lcd/stm32_lcd.c **** 
 2170              		.loc 1 622 3 view .LVU626
 624:../STM32Cube_FW_N6/Utilities/lcd/stm32_lcd.c ****   current_x = 0;
 2171              		.loc 1 624 3 view .LVU627
 619:../STM32Cube_FW_N6/Utilities/lcd/stm32_lcd.c ****   int32_t   decision;  /* Decision Variable */
 2172              		.loc 1 619 1 is_stmt 0 view .LVU628
 2173 0000 2DE9F84F 		push	{r3, r4, r5, r6, r7, r8, r9, r10, fp, lr}
 2174              		.cfi_def_cfa_offset 40
 2175              		.cfi_offset 3, -40
 2176              		.cfi_offset 4, -36
 2177              		.cfi_offset 5, -32
 2178              		.cfi_offset 6, -28
 2179              		.cfi_offset 7, -24
 2180              		.cfi_offset 8, -20
 2181              		.cfi_offset 9, -16
 2182              		.cfi_offset 10, -12
ARM GAS  /tmp/ccsDiBBo.s 			page 67


 2183              		.cfi_offset 11, -8
 2184              		.cfi_offset 14, -4
 619:../STM32Cube_FW_N6/Utilities/lcd/stm32_lcd.c ****   int32_t   decision;  /* Decision Variable */
 2185              		.loc 1 619 1 view .LVU629
 2186 0004 8046     		mov	r8, r0
 2187 0006 8A46     		mov	r10, r1
 2188 0008 1546     		mov	r5, r2
 2189 000a 9946     		mov	r9, r3
 625:../STM32Cube_FW_N6/Utilities/lcd/stm32_lcd.c ****   current_y = Radius;
 2190              		.loc 1 625 13 view .LVU630
 2191 000c 0026     		movs	r6, #0
 624:../STM32Cube_FW_N6/Utilities/lcd/stm32_lcd.c ****   current_x = 0;
 2192              		.loc 1 624 26 view .LVU631
 2193 000e 5700     		lsls	r7, r2, #1
 630:../STM32Cube_FW_N6/Utilities/lcd/stm32_lcd.c ****     {
 2194              		.loc 1 630 46 view .LVU632
 2195 0010 4D4C     		ldr	r4, .L163
 624:../STM32Cube_FW_N6/Utilities/lcd/stm32_lcd.c ****   current_x = 0;
 2196              		.loc 1 624 16 view .LVU633
 2197 0012 C7F10307 		rsb	r7, r7, #3
 2198              	.LVL205:
 625:../STM32Cube_FW_N6/Utilities/lcd/stm32_lcd.c ****   current_y = Radius;
 2199              		.loc 1 625 3 is_stmt 1 view .LVU634
 626:../STM32Cube_FW_N6/Utilities/lcd/stm32_lcd.c **** 
 2200              		.loc 1 626 3 view .LVU635
 628:../STM32Cube_FW_N6/Utilities/lcd/stm32_lcd.c ****   {
 2201              		.loc 1 628 3 view .LVU636
 628:../STM32Cube_FW_N6/Utilities/lcd/stm32_lcd.c ****   {
 2202              		.loc 1 628 20 view .LVU637
 2203              	.L161:
 630:../STM32Cube_FW_N6/Utilities/lcd/stm32_lcd.c ****     {
 2204              		.loc 1 630 5 view .LVU638
 630:../STM32Cube_FW_N6/Utilities/lcd/stm32_lcd.c ****     {
 2205              		.loc 1 630 46 is_stmt 0 view .LVU639
 2206 0016 E368     		ldr	r3, [r4, #12]
 630:../STM32Cube_FW_N6/Utilities/lcd/stm32_lcd.c ****     {
 2207              		.loc 1 630 14 view .LVU640
 2208 0018 AAEB050B 		sub	fp, r10, r5
 630:../STM32Cube_FW_N6/Utilities/lcd/stm32_lcd.c ****     {
 2209              		.loc 1 630 57 view .LVU641
 2210 001c 04EB4313 		add	r3, r4, r3, lsl #5
 630:../STM32Cube_FW_N6/Utilities/lcd/stm32_lcd.c ****     {
 2211              		.loc 1 630 7 view .LVU642
 2212 0020 9A69     		ldr	r2, [r3, #24]
 2213 0022 9345     		cmp	fp, r2
 2214 0024 18D2     		bcs	.L144
 632:../STM32Cube_FW_N6/Utilities/lcd/stm32_lcd.c ****       {
 2215              		.loc 1 632 7 is_stmt 1 view .LVU643
 632:../STM32Cube_FW_N6/Utilities/lcd/stm32_lcd.c ****       {
 2216              		.loc 1 632 9 is_stmt 0 view .LVU644
 2217 0026 5B69     		ldr	r3, [r3, #20]
 2218 0028 08EB0600 		add	r0, r8, r6
 2219 002c 8342     		cmp	r3, r0
 2220 002e 05D9     		bls	.L145
 634:../STM32Cube_FW_N6/Utilities/lcd/stm32_lcd.c ****       }
 2221              		.loc 1 634 9 is_stmt 1 view .LVU645
 2222 0030 4A46     		mov	r2, r9
ARM GAS  /tmp/ccsDiBBo.s 			page 68


 2223 0032 1FFA8BF1 		uxth	r1, fp
 2224 0036 80B2     		uxth	r0, r0
 2225 0038 FFF7FEFF 		bl	UTIL_LCD_SetPixel
 2226              	.LVL206:
 2227              	.L145:
 636:../STM32Cube_FW_N6/Utilities/lcd/stm32_lcd.c ****       {
 2228              		.loc 1 636 7 view .LVU646
 636:../STM32Cube_FW_N6/Utilities/lcd/stm32_lcd.c ****       {
 2229              		.loc 1 636 59 is_stmt 0 view .LVU647
 2230 003c E368     		ldr	r3, [r4, #12]
 636:../STM32Cube_FW_N6/Utilities/lcd/stm32_lcd.c ****       {
 2231              		.loc 1 636 9 view .LVU648
 2232 003e A8EB0600 		sub	r0, r8, r6
 636:../STM32Cube_FW_N6/Utilities/lcd/stm32_lcd.c ****       {
 2233              		.loc 1 636 59 view .LVU649
 2234 0042 04EB4313 		add	r3, r4, r3, lsl #5
 636:../STM32Cube_FW_N6/Utilities/lcd/stm32_lcd.c ****       {
 2235              		.loc 1 636 9 view .LVU650
 2236 0046 5B69     		ldr	r3, [r3, #20]
 2237 0048 8342     		cmp	r3, r0
 2238 004a 05D9     		bls	.L144
 638:../STM32Cube_FW_N6/Utilities/lcd/stm32_lcd.c ****       }
 2239              		.loc 1 638 9 is_stmt 1 view .LVU651
 2240 004c 4A46     		mov	r2, r9
 2241 004e 1FFA8BF1 		uxth	r1, fp
 2242 0052 80B2     		uxth	r0, r0
 2243 0054 FFF7FEFF 		bl	UTIL_LCD_SetPixel
 2244              	.LVL207:
 2245              	.L144:
 642:../STM32Cube_FW_N6/Utilities/lcd/stm32_lcd.c ****     {
 2246              		.loc 1 642 5 view .LVU652
 642:../STM32Cube_FW_N6/Utilities/lcd/stm32_lcd.c ****     {
 2247              		.loc 1 642 46 is_stmt 0 view .LVU653
 2248 0058 E368     		ldr	r3, [r4, #12]
 642:../STM32Cube_FW_N6/Utilities/lcd/stm32_lcd.c ****     {
 2249              		.loc 1 642 7 view .LVU654
 2250 005a AAEB060B 		sub	fp, r10, r6
 642:../STM32Cube_FW_N6/Utilities/lcd/stm32_lcd.c ****     {
 2251              		.loc 1 642 57 view .LVU655
 2252 005e 04EB4313 		add	r3, r4, r3, lsl #5
 642:../STM32Cube_FW_N6/Utilities/lcd/stm32_lcd.c ****     {
 2253              		.loc 1 642 7 view .LVU656
 2254 0062 9A69     		ldr	r2, [r3, #24]
 2255 0064 5A45     		cmp	r2, fp
 2256 0066 18D9     		bls	.L148
 644:../STM32Cube_FW_N6/Utilities/lcd/stm32_lcd.c ****       {
 2257              		.loc 1 644 7 is_stmt 1 view .LVU657
 644:../STM32Cube_FW_N6/Utilities/lcd/stm32_lcd.c ****       {
 2258              		.loc 1 644 9 is_stmt 0 view .LVU658
 2259 0068 5B69     		ldr	r3, [r3, #20]
 644:../STM32Cube_FW_N6/Utilities/lcd/stm32_lcd.c ****       {
 2260              		.loc 1 644 16 view .LVU659
 2261 006a 08EB0500 		add	r0, r8, r5
 644:../STM32Cube_FW_N6/Utilities/lcd/stm32_lcd.c ****       {
 2262              		.loc 1 644 9 view .LVU660
 2263 006e 9842     		cmp	r0, r3
 2264 0070 05D2     		bcs	.L149
ARM GAS  /tmp/ccsDiBBo.s 			page 69


 646:../STM32Cube_FW_N6/Utilities/lcd/stm32_lcd.c ****       }
 2265              		.loc 1 646 9 is_stmt 1 view .LVU661
 2266 0072 4A46     		mov	r2, r9
 2267 0074 1FFA8BF1 		uxth	r1, fp
 2268 0078 80B2     		uxth	r0, r0
 2269 007a FFF7FEFF 		bl	UTIL_LCD_SetPixel
 2270              	.LVL208:
 2271              	.L149:
 648:../STM32Cube_FW_N6/Utilities/lcd/stm32_lcd.c ****       {
 2272              		.loc 1 648 7 view .LVU662
 648:../STM32Cube_FW_N6/Utilities/lcd/stm32_lcd.c ****       {
 2273              		.loc 1 648 59 is_stmt 0 view .LVU663
 2274 007e E368     		ldr	r3, [r4, #12]
 648:../STM32Cube_FW_N6/Utilities/lcd/stm32_lcd.c ****       {
 2275              		.loc 1 648 16 view .LVU664
 2276 0080 A8EB0500 		sub	r0, r8, r5
 648:../STM32Cube_FW_N6/Utilities/lcd/stm32_lcd.c ****       {
 2277              		.loc 1 648 59 view .LVU665
 2278 0084 04EB4313 		add	r3, r4, r3, lsl #5
 648:../STM32Cube_FW_N6/Utilities/lcd/stm32_lcd.c ****       {
 2279              		.loc 1 648 9 view .LVU666
 2280 0088 5B69     		ldr	r3, [r3, #20]
 2281 008a 9842     		cmp	r0, r3
 2282 008c 05D2     		bcs	.L148
 650:../STM32Cube_FW_N6/Utilities/lcd/stm32_lcd.c ****       }
 2283              		.loc 1 650 9 is_stmt 1 view .LVU667
 2284 008e 4A46     		mov	r2, r9
 2285 0090 1FFA8BF1 		uxth	r1, fp
 2286 0094 80B2     		uxth	r0, r0
 2287 0096 FFF7FEFF 		bl	UTIL_LCD_SetPixel
 2288              	.LVL209:
 2289              	.L148:
 654:../STM32Cube_FW_N6/Utilities/lcd/stm32_lcd.c ****     {
 2290              		.loc 1 654 5 view .LVU668
 654:../STM32Cube_FW_N6/Utilities/lcd/stm32_lcd.c ****     {
 2291              		.loc 1 654 46 is_stmt 0 view .LVU669
 2292 009a E368     		ldr	r3, [r4, #12]
 654:../STM32Cube_FW_N6/Utilities/lcd/stm32_lcd.c ****     {
 2293              		.loc 1 654 14 view .LVU670
 2294 009c 0AEB050B 		add	fp, r10, r5
 654:../STM32Cube_FW_N6/Utilities/lcd/stm32_lcd.c ****     {
 2295              		.loc 1 654 57 view .LVU671
 2296 00a0 04EB4313 		add	r3, r4, r3, lsl #5
 654:../STM32Cube_FW_N6/Utilities/lcd/stm32_lcd.c ****     {
 2297              		.loc 1 654 7 view .LVU672
 2298 00a4 9A69     		ldr	r2, [r3, #24]
 2299 00a6 9345     		cmp	fp, r2
 2300 00a8 18D2     		bcs	.L152
 656:../STM32Cube_FW_N6/Utilities/lcd/stm32_lcd.c ****       {
 2301              		.loc 1 656 7 is_stmt 1 view .LVU673
 656:../STM32Cube_FW_N6/Utilities/lcd/stm32_lcd.c ****       {
 2302              		.loc 1 656 9 is_stmt 0 view .LVU674
 2303 00aa 5B69     		ldr	r3, [r3, #20]
 2304 00ac 08EB0600 		add	r0, r8, r6
 2305 00b0 8342     		cmp	r3, r0
 2306 00b2 05D9     		bls	.L153
 658:../STM32Cube_FW_N6/Utilities/lcd/stm32_lcd.c ****       }
ARM GAS  /tmp/ccsDiBBo.s 			page 70


 2307              		.loc 1 658 9 is_stmt 1 view .LVU675
 2308 00b4 4A46     		mov	r2, r9
 2309 00b6 1FFA8BF1 		uxth	r1, fp
 2310 00ba 80B2     		uxth	r0, r0
 2311 00bc FFF7FEFF 		bl	UTIL_LCD_SetPixel
 2312              	.LVL210:
 2313              	.L153:
 660:../STM32Cube_FW_N6/Utilities/lcd/stm32_lcd.c ****       {
 2314              		.loc 1 660 7 view .LVU676
 660:../STM32Cube_FW_N6/Utilities/lcd/stm32_lcd.c ****       {
 2315              		.loc 1 660 59 is_stmt 0 view .LVU677
 2316 00c0 E368     		ldr	r3, [r4, #12]
 660:../STM32Cube_FW_N6/Utilities/lcd/stm32_lcd.c ****       {
 2317              		.loc 1 660 9 view .LVU678
 2318 00c2 A8EB0600 		sub	r0, r8, r6
 660:../STM32Cube_FW_N6/Utilities/lcd/stm32_lcd.c ****       {
 2319              		.loc 1 660 59 view .LVU679
 2320 00c6 04EB4313 		add	r3, r4, r3, lsl #5
 660:../STM32Cube_FW_N6/Utilities/lcd/stm32_lcd.c ****       {
 2321              		.loc 1 660 9 view .LVU680
 2322 00ca 5B69     		ldr	r3, [r3, #20]
 2323 00cc 8342     		cmp	r3, r0
 2324 00ce 05D9     		bls	.L152
 662:../STM32Cube_FW_N6/Utilities/lcd/stm32_lcd.c ****       }
 2325              		.loc 1 662 9 is_stmt 1 view .LVU681
 2326 00d0 4A46     		mov	r2, r9
 2327 00d2 1FFA8BF1 		uxth	r1, fp
 2328 00d6 80B2     		uxth	r0, r0
 2329 00d8 FFF7FEFF 		bl	UTIL_LCD_SetPixel
 2330              	.LVL211:
 2331              	.L152:
 666:../STM32Cube_FW_N6/Utilities/lcd/stm32_lcd.c ****     {
 2332              		.loc 1 666 5 view .LVU682
 666:../STM32Cube_FW_N6/Utilities/lcd/stm32_lcd.c ****     {
 2333              		.loc 1 666 46 is_stmt 0 view .LVU683
 2334 00dc E368     		ldr	r3, [r4, #12]
 666:../STM32Cube_FW_N6/Utilities/lcd/stm32_lcd.c ****     {
 2335              		.loc 1 666 7 view .LVU684
 2336 00de 0AEB060B 		add	fp, r10, r6
 666:../STM32Cube_FW_N6/Utilities/lcd/stm32_lcd.c ****     {
 2337              		.loc 1 666 57 view .LVU685
 2338 00e2 04EB4313 		add	r3, r4, r3, lsl #5
 666:../STM32Cube_FW_N6/Utilities/lcd/stm32_lcd.c ****     {
 2339              		.loc 1 666 7 view .LVU686
 2340 00e6 9A69     		ldr	r2, [r3, #24]
 2341 00e8 5A45     		cmp	r2, fp
 2342 00ea 18D9     		bls	.L156
 668:../STM32Cube_FW_N6/Utilities/lcd/stm32_lcd.c ****       {
 2343              		.loc 1 668 7 is_stmt 1 view .LVU687
 668:../STM32Cube_FW_N6/Utilities/lcd/stm32_lcd.c ****       {
 2344              		.loc 1 668 9 is_stmt 0 view .LVU688
 2345 00ec 5B69     		ldr	r3, [r3, #20]
 668:../STM32Cube_FW_N6/Utilities/lcd/stm32_lcd.c ****       {
 2346              		.loc 1 668 16 view .LVU689
 2347 00ee 08EB0500 		add	r0, r8, r5
 668:../STM32Cube_FW_N6/Utilities/lcd/stm32_lcd.c ****       {
 2348              		.loc 1 668 9 view .LVU690
ARM GAS  /tmp/ccsDiBBo.s 			page 71


 2349 00f2 9842     		cmp	r0, r3
 2350 00f4 05D2     		bcs	.L157
 670:../STM32Cube_FW_N6/Utilities/lcd/stm32_lcd.c ****       }
 2351              		.loc 1 670 9 is_stmt 1 view .LVU691
 2352 00f6 4A46     		mov	r2, r9
 2353 00f8 1FFA8BF1 		uxth	r1, fp
 2354 00fc 80B2     		uxth	r0, r0
 2355 00fe FFF7FEFF 		bl	UTIL_LCD_SetPixel
 2356              	.LVL212:
 2357              	.L157:
 672:../STM32Cube_FW_N6/Utilities/lcd/stm32_lcd.c ****       {
 2358              		.loc 1 672 7 view .LVU692
 672:../STM32Cube_FW_N6/Utilities/lcd/stm32_lcd.c ****       {
 2359              		.loc 1 672 59 is_stmt 0 view .LVU693
 2360 0102 E368     		ldr	r3, [r4, #12]
 672:../STM32Cube_FW_N6/Utilities/lcd/stm32_lcd.c ****       {
 2361              		.loc 1 672 16 view .LVU694
 2362 0104 A8EB0500 		sub	r0, r8, r5
 672:../STM32Cube_FW_N6/Utilities/lcd/stm32_lcd.c ****       {
 2363              		.loc 1 672 59 view .LVU695
 2364 0108 04EB4313 		add	r3, r4, r3, lsl #5
 672:../STM32Cube_FW_N6/Utilities/lcd/stm32_lcd.c ****       {
 2365              		.loc 1 672 9 view .LVU696
 2366 010c 5B69     		ldr	r3, [r3, #20]
 2367 010e 9842     		cmp	r0, r3
 2368 0110 05D2     		bcs	.L156
 674:../STM32Cube_FW_N6/Utilities/lcd/stm32_lcd.c ****       }
 2369              		.loc 1 674 9 is_stmt 1 view .LVU697
 2370 0112 4A46     		mov	r2, r9
 2371 0114 1FFA8BF1 		uxth	r1, fp
 2372 0118 80B2     		uxth	r0, r0
 2373 011a FFF7FEFF 		bl	UTIL_LCD_SetPixel
 2374              	.LVL213:
 2375              	.L156:
 678:../STM32Cube_FW_N6/Utilities/lcd/stm32_lcd.c ****     {
 2376              		.loc 1 678 5 view .LVU698
 678:../STM32Cube_FW_N6/Utilities/lcd/stm32_lcd.c ****     {
 2377              		.loc 1 678 8 is_stmt 0 view .LVU699
 2378 011e 002F     		cmp	r7, #0
 680:../STM32Cube_FW_N6/Utilities/lcd/stm32_lcd.c ****     }
 2379              		.loc 1 680 7 is_stmt 1 view .LVU700
 680:../STM32Cube_FW_N6/Utilities/lcd/stm32_lcd.c ****     }
 2380              		.loc 1 680 16 is_stmt 0 view .LVU701
 2381 0120 B5BF     		itete	lt
 2382 0122 0637     		addlt	r7, r7, #6
 2383              	.LVL214:
 684:../STM32Cube_FW_N6/Utilities/lcd/stm32_lcd.c ****       current_y--;
 2384              		.loc 1 684 31 view .LVU702
 2385 0124 731B     		subge	r3, r6, r5
 680:../STM32Cube_FW_N6/Utilities/lcd/stm32_lcd.c ****     }
 2386              		.loc 1 680 16 view .LVU703
 2387 0126 07EB8607 		addlt	r7, r7, r6, lsl #2
 2388              	.LVL215:
 684:../STM32Cube_FW_N6/Utilities/lcd/stm32_lcd.c ****       current_y--;
 2389              		.loc 1 684 7 is_stmt 1 view .LVU704
 684:../STM32Cube_FW_N6/Utilities/lcd/stm32_lcd.c ****       current_y--;
 2390              		.loc 1 684 16 is_stmt 0 view .LVU705
ARM GAS  /tmp/ccsDiBBo.s 			page 72


 2391 012a 0A37     		addge	r7, r7, #10
 2392              	.LVL216:
 685:../STM32Cube_FW_N6/Utilities/lcd/stm32_lcd.c ****     }
 2393              		.loc 1 685 16 view .LVU706
 2394 012c A8BF     		it	ge
 2395 012e 05F1FF35 		addge	r5, r5, #-1
 2396              	.LVL217:
 687:../STM32Cube_FW_N6/Utilities/lcd/stm32_lcd.c ****   }
 2397              		.loc 1 687 14 view .LVU707
 2398 0132 06F10106 		add	r6, r6, #1
 2399              	.LVL218:
 684:../STM32Cube_FW_N6/Utilities/lcd/stm32_lcd.c ****       current_y--;
 2400              		.loc 1 684 16 view .LVU708
 2401 0136 A8BF     		it	ge
 2402 0138 07EB8307 		addge	r7, r7, r3, lsl #2
 2403              	.LVL219:
 685:../STM32Cube_FW_N6/Utilities/lcd/stm32_lcd.c ****     }
 2404              		.loc 1 685 7 is_stmt 1 view .LVU709
 687:../STM32Cube_FW_N6/Utilities/lcd/stm32_lcd.c ****   }
 2405              		.loc 1 687 5 view .LVU710
 628:../STM32Cube_FW_N6/Utilities/lcd/stm32_lcd.c ****   {
 2406              		.loc 1 628 20 view .LVU711
 2407 013c B542     		cmp	r5, r6
 2408 013e BFF46AAF 		bcs	.L161
 689:../STM32Cube_FW_N6/Utilities/lcd/stm32_lcd.c **** 
 2409              		.loc 1 689 1 is_stmt 0 view .LVU712
 2410 0142 BDE8F88F 		pop	{r3, r4, r5, r6, r7, r8, r9, r10, fp, pc}
 2411              	.LVL220:
 2412              	.L164:
 689:../STM32Cube_FW_N6/Utilities/lcd/stm32_lcd.c **** 
 2413              		.loc 1 689 1 view .LVU713
 2414 0146 00BF     		.align	2
 2415              	.L163:
 2416 0148 00000000 		.word	DrawProp
 2417              		.cfi_endproc
 2418              	.LFE21:
 2420              		.section	.text.UTIL_LCD_DrawPolygon,"ax",%progbits
 2421              		.align	1
 2422              		.global	UTIL_LCD_DrawPolygon
 2423              		.syntax unified
 2424              		.thumb
 2425              		.thumb_func
 2427              	UTIL_LCD_DrawPolygon:
 2428              	.LVL221:
 2429              	.LFB22:
 698:../STM32Cube_FW_N6/Utilities/lcd/stm32_lcd.c ****   int16_t x_pos = 0, y_pos = 0;
 2430              		.loc 1 698 1 is_stmt 1 view -0
 2431              		.cfi_startproc
 2432              		@ args = 0, pretend = 0, frame = 0
 2433              		@ frame_needed = 0, uses_anonymous_args = 0
 699:../STM32Cube_FW_N6/Utilities/lcd/stm32_lcd.c **** 
 2434              		.loc 1 699 3 view .LVU715
 701:../STM32Cube_FW_N6/Utilities/lcd/stm32_lcd.c ****   {
 2435              		.loc 1 701 3 view .LVU716
 701:../STM32Cube_FW_N6/Utilities/lcd/stm32_lcd.c ****   {
 2436              		.loc 1 701 5 is_stmt 0 view .LVU717
 2437 0000 0129     		cmp	r1, #1
ARM GAS  /tmp/ccsDiBBo.s 			page 73


 698:../STM32Cube_FW_N6/Utilities/lcd/stm32_lcd.c ****   int16_t x_pos = 0, y_pos = 0;
 2438              		.loc 1 698 1 view .LVU718
 2439 0002 73B5     		push	{r0, r1, r4, r5, r6, lr}
 2440              		.cfi_def_cfa_offset 24
 2441              		.cfi_offset 4, -16
 2442              		.cfi_offset 5, -12
 2443              		.cfi_offset 6, -8
 2444              		.cfi_offset 14, -4
 698:../STM32Cube_FW_N6/Utilities/lcd/stm32_lcd.c ****   int16_t x_pos = 0, y_pos = 0;
 2445              		.loc 1 698 1 view .LVU719
 2446 0004 0446     		mov	r4, r0
 2447 0006 0D46     		mov	r5, r1
 2448 0008 1646     		mov	r6, r2
 701:../STM32Cube_FW_N6/Utilities/lcd/stm32_lcd.c ****   {
 2449              		.loc 1 701 5 view .LVU720
 2450 000a 13D9     		bls	.L165
 706:../STM32Cube_FW_N6/Utilities/lcd/stm32_lcd.c **** 
 2451              		.loc 1 706 3 is_stmt 1 view .LVU721
 706:../STM32Cube_FW_N6/Utilities/lcd/stm32_lcd.c **** 
 2452              		.loc 1 706 61 is_stmt 0 view .LVU722
 2453 000c 01F18042 		add	r2, r1, #1073741824
 2454              	.LVL222:
 706:../STM32Cube_FW_N6/Utilities/lcd/stm32_lcd.c **** 
 2455              		.loc 1 706 61 view .LVU723
 2456 0010 013A     		subs	r2, r2, #1
 2457 0012 00EB8203 		add	r3, r0, r2, lsl #2
 706:../STM32Cube_FW_N6/Utilities/lcd/stm32_lcd.c **** 
 2458              		.loc 1 706 3 view .LVU724
 2459 0016 B3F90230 		ldrsh	r3, [r3, #2]
 2460 001a 30F92220 		ldrsh	r2, [r0, r2, lsl #2]
 2461 001e 0096     		str	r6, [sp]
 2462 0020 B0F90210 		ldrsh	r1, [r0, #2]
 2463              	.LVL223:
 706:../STM32Cube_FW_N6/Utilities/lcd/stm32_lcd.c **** 
 2464              		.loc 1 706 3 view .LVU725
 2465 0024 34F9040B 		ldrsh	r0, [r4], #4
 2466              	.LVL224:
 2467              	.L170:
 713:../STM32Cube_FW_N6/Utilities/lcd/stm32_lcd.c ****   }
 2468              		.loc 1 713 5 view .LVU726
 2469 0028 FFF7FEFF 		bl	UTIL_LCD_DrawLine
 2470              	.LVL225:
 708:../STM32Cube_FW_N6/Utilities/lcd/stm32_lcd.c ****   {
 2471              		.loc 1 708 9 is_stmt 1 view .LVU727
 708:../STM32Cube_FW_N6/Utilities/lcd/stm32_lcd.c ****   {
 2472              		.loc 1 708 9 is_stmt 0 view .LVU728
 2473 002c 013D     		subs	r5, r5, #1
 2474              	.LVL226:
 708:../STM32Cube_FW_N6/Utilities/lcd/stm32_lcd.c ****   {
 2475              		.loc 1 708 9 view .LVU729
 2476 002e 04F10404 		add	r4, r4, #4
 2477              	.LVL227:
 708:../STM32Cube_FW_N6/Utilities/lcd/stm32_lcd.c ****   {
 2478              		.loc 1 708 9 view .LVU730
 2479 0032 01D1     		bne	.L168
 2480              	.LVL228:
 2481              	.L165:
ARM GAS  /tmp/ccsDiBBo.s 			page 74


 715:../STM32Cube_FW_N6/Utilities/lcd/stm32_lcd.c **** 
 2482              		.loc 1 715 1 view .LVU731
 2483 0034 02B0     		add	sp, sp, #8
 2484              		.cfi_remember_state
 2485              		.cfi_def_cfa_offset 16
 2486              		@ sp needed
 2487 0036 70BD     		pop	{r4, r5, r6, pc}
 2488              	.LVL229:
 2489              	.L168:
 2490              		.cfi_restore_state
 710:../STM32Cube_FW_N6/Utilities/lcd/stm32_lcd.c ****     y_pos = Points->Y;
 2491              		.loc 1 710 5 is_stmt 1 view .LVU732
 711:../STM32Cube_FW_N6/Utilities/lcd/stm32_lcd.c ****     Points++;
 2492              		.loc 1 711 5 view .LVU733
 712:../STM32Cube_FW_N6/Utilities/lcd/stm32_lcd.c ****     UTIL_LCD_DrawLine(x_pos, y_pos, Points->X, Points->Y, Color);
 2493              		.loc 1 712 5 view .LVU734
 713:../STM32Cube_FW_N6/Utilities/lcd/stm32_lcd.c ****   }
 2494              		.loc 1 713 5 view .LVU735
 2495 0038 0096     		str	r6, [sp]
 2496              	.LVL230:
 713:../STM32Cube_FW_N6/Utilities/lcd/stm32_lcd.c ****   }
 2497              		.loc 1 713 5 is_stmt 0 view .LVU736
 2498 003a 34F9023C 		ldrsh	r3, [r4, #-2]
 2499 003e 34F9042C 		ldrsh	r2, [r4, #-4]
 2500 0042 34F9061C 		ldrsh	r1, [r4, #-6]
 2501 0046 34F9080C 		ldrsh	r0, [r4, #-8]
 2502 004a EDE7     		b	.L170
 2503              		.cfi_endproc
 2504              	.LFE22:
 2506              		.section	.text.UTIL_LCD_DrawEllipse,"ax",%progbits
 2507              		.align	1
 2508              		.global	UTIL_LCD_DrawEllipse
 2509              		.syntax unified
 2510              		.thumb
 2511              		.thumb_func
 2513              	UTIL_LCD_DrawEllipse:
 2514              	.LVL231:
 2515              	.LFB23:
 726:../STM32Cube_FW_N6/Utilities/lcd/stm32_lcd.c ****   int x_pos = 0, y_pos = -YRadius, err = 2-2*XRadius, e2;
 2516              		.loc 1 726 1 is_stmt 1 view -0
 2517              		.cfi_startproc
 2518              		@ args = 4, pretend = 0, frame = 8
 2519              		@ frame_needed = 0, uses_anonymous_args = 0
 727:../STM32Cube_FW_N6/Utilities/lcd/stm32_lcd.c ****   float k = 0, rad1 = 0, rad2 = 0;
 2520              		.loc 1 727 3 view .LVU738
 731:../STM32Cube_FW_N6/Utilities/lcd/stm32_lcd.c **** 
 2521              		.loc 1 731 8 is_stmt 0 view .LVU739
 2522 0000 07EE903A 		vmov	s15, r3	@ int
 2523 0004 B8EEE77A 		vcvt.f32.s32	s14, s15
 730:../STM32Cube_FW_N6/Utilities/lcd/stm32_lcd.c ****   rad2 = YRadius;
 2524              		.loc 1 730 8 view .LVU740
 2525 0008 07EE902A 		vmov	s15, r2	@ int
 2526 000c F8EEE77A 		vcvt.f32.s32	s15, s15
 726:../STM32Cube_FW_N6/Utilities/lcd/stm32_lcd.c ****   int x_pos = 0, y_pos = -YRadius, err = 2-2*XRadius, e2;
 2527              		.loc 1 726 1 view .LVU741
 2528 0010 2DE9F04F 		push	{r4, r5, r6, r7, r8, r9, r10, fp, lr}
 2529              		.cfi_def_cfa_offset 36
ARM GAS  /tmp/ccsDiBBo.s 			page 75


 2530              		.cfi_offset 4, -36
 2531              		.cfi_offset 5, -32
 2532              		.cfi_offset 6, -28
 2533              		.cfi_offset 7, -24
 2534              		.cfi_offset 8, -20
 2535              		.cfi_offset 9, -16
 2536              		.cfi_offset 10, -12
 2537              		.cfi_offset 11, -8
 2538              		.cfi_offset 14, -4
 2539 0014 2DED028B 		vpush.64	{d8}
 2540              		.cfi_def_cfa_offset 44
 2541              		.cfi_offset 80, -44
 2542              		.cfi_offset 81, -40
 727:../STM32Cube_FW_N6/Utilities/lcd/stm32_lcd.c ****   float k = 0, rad1 = 0, rad2 = 0;
 2543              		.loc 1 727 7 view .LVU742
 2544 0018 4FF00008 		mov	r8, #0
 733:../STM32Cube_FW_N6/Utilities/lcd/stm32_lcd.c **** 
 2545              		.loc 1 733 5 view .LVU743
 2546 001c 87EE278A 		vdiv.f32	s16, s14, s15
 726:../STM32Cube_FW_N6/Utilities/lcd/stm32_lcd.c ****   int x_pos = 0, y_pos = -YRadius, err = 2-2*XRadius, e2;
 2547              		.loc 1 726 1 view .LVU744
 2548 0020 83B0     		sub	sp, sp, #12
 2549              		.cfi_def_cfa_offset 56
 727:../STM32Cube_FW_N6/Utilities/lcd/stm32_lcd.c ****   float k = 0, rad1 = 0, rad2 = 0;
 2550              		.loc 1 727 43 view .LVU745
 2551 0022 C2F10105 		rsb	r5, r2, #1
 726:../STM32Cube_FW_N6/Utilities/lcd/stm32_lcd.c ****   int x_pos = 0, y_pos = -YRadius, err = 2-2*XRadius, e2;
 2552              		.loc 1 726 1 view .LVU746
 2553 0026 DDF838B0 		ldr	fp, [sp, #56]
 727:../STM32Cube_FW_N6/Utilities/lcd/stm32_lcd.c ****   float k = 0, rad1 = 0, rad2 = 0;
 2554              		.loc 1 727 18 view .LVU747
 2555 002a 5E42     		rsbs	r6, r3, #0
 2556              	.LVL232:
 727:../STM32Cube_FW_N6/Utilities/lcd/stm32_lcd.c ****   float k = 0, rad1 = 0, rad2 = 0;
 2557              		.loc 1 727 36 view .LVU748
 2558 002c 6D00     		lsls	r5, r5, #1
 2559              	.LVL233:
 728:../STM32Cube_FW_N6/Utilities/lcd/stm32_lcd.c **** 
 2560              		.loc 1 728 3 is_stmt 1 view .LVU749
 730:../STM32Cube_FW_N6/Utilities/lcd/stm32_lcd.c ****   rad2 = YRadius;
 2561              		.loc 1 730 3 view .LVU750
 731:../STM32Cube_FW_N6/Utilities/lcd/stm32_lcd.c **** 
 2562              		.loc 1 731 3 view .LVU751
 733:../STM32Cube_FW_N6/Utilities/lcd/stm32_lcd.c **** 
 2563              		.loc 1 733 3 view .LVU752
 737:../STM32Cube_FW_N6/Utilities/lcd/stm32_lcd.c ****     UTIL_LCD_SetPixel((Xpos+(uint32_t)(x_pos/k)), (Ypos + y_pos), Color);
 2564              		.loc 1 737 5 is_stmt 0 view .LVU753
 2565 002e 1FFA80F9 		uxth	r9, r0
 2566 0032 1FFA81FA 		uxth	r10, r1
 2567              	.LVL234:
 2568              	.L175:
 735:../STM32Cube_FW_N6/Utilities/lcd/stm32_lcd.c ****   {
 2569              		.loc 1 735 3 is_stmt 1 view .LVU754
 737:../STM32Cube_FW_N6/Utilities/lcd/stm32_lcd.c ****     UTIL_LCD_SetPixel((Xpos+(uint32_t)(x_pos/k)), (Ypos + y_pos), Color);
 2570              		.loc 1 737 5 view .LVU755
 737:../STM32Cube_FW_N6/Utilities/lcd/stm32_lcd.c ****     UTIL_LCD_SetPixel((Xpos+(uint32_t)(x_pos/k)), (Ypos + y_pos), Color);
 2571              		.loc 1 737 45 is_stmt 0 view .LVU756
ARM GAS  /tmp/ccsDiBBo.s 			page 76


 2572 0036 07EE908A 		vmov	s15, r8	@ int
 2573 003a B8EEE77A 		vcvt.f32.s32	s14, s15
 2574 003e C7EE087A 		vdiv.f32	s15, s14, s16
 737:../STM32Cube_FW_N6/Utilities/lcd/stm32_lcd.c ****     UTIL_LCD_SetPixel((Xpos+(uint32_t)(x_pos/k)), (Ypos + y_pos), Color);
 2575              		.loc 1 737 29 view .LVU757
 2576 0042 FCEEE77A 		vcvt.u32.f32	s15, s15
 737:../STM32Cube_FW_N6/Utilities/lcd/stm32_lcd.c ****     UTIL_LCD_SetPixel((Xpos+(uint32_t)(x_pos/k)), (Ypos + y_pos), Color);
 2577              		.loc 1 737 5 view .LVU758
 2578 0046 17EE903A 		vmov	r3, s15	@ int
 2579 004a 9CB2     		uxth	r4, r3
 2580 004c A9EB0403 		sub	r3, r9, r4
 2581 0050 9BB2     		uxth	r3, r3
 2582 0052 B7B2     		uxth	r7, r6
 2583 0054 1AFA86F1 		uxtah	r1, r10, r6
 738:../STM32Cube_FW_N6/Utilities/lcd/stm32_lcd.c ****     UTIL_LCD_SetPixel((Xpos+(uint32_t)(x_pos/k)), (Ypos - y_pos), Color);
 2584              		.loc 1 738 5 view .LVU759
 2585 0058 4C44     		add	r4, r4, r9
 737:../STM32Cube_FW_N6/Utilities/lcd/stm32_lcd.c ****     UTIL_LCD_SetPixel((Xpos+(uint32_t)(x_pos/k)), (Ypos + y_pos), Color);
 2586              		.loc 1 737 5 view .LVU760
 2587 005a 1846     		mov	r0, r3
 2588 005c 89B2     		uxth	r1, r1
 2589 005e 5A46     		mov	r2, fp
 738:../STM32Cube_FW_N6/Utilities/lcd/stm32_lcd.c ****     UTIL_LCD_SetPixel((Xpos+(uint32_t)(x_pos/k)), (Ypos - y_pos), Color);
 2590              		.loc 1 738 5 view .LVU761
 2591 0060 A4B2     		uxth	r4, r4
 739:../STM32Cube_FW_N6/Utilities/lcd/stm32_lcd.c ****     UTIL_LCD_SetPixel((Xpos-(uint32_t)(x_pos/k)), (Ypos - y_pos), Color);
 2592              		.loc 1 739 5 view .LVU762
 2593 0062 AAEB0707 		sub	r7, r10, r7
 737:../STM32Cube_FW_N6/Utilities/lcd/stm32_lcd.c ****     UTIL_LCD_SetPixel((Xpos+(uint32_t)(x_pos/k)), (Ypos + y_pos), Color);
 2594              		.loc 1 737 5 view .LVU763
 2595 0066 0093     		str	r3, [sp]
 2596 0068 0191     		str	r1, [sp, #4]
 739:../STM32Cube_FW_N6/Utilities/lcd/stm32_lcd.c ****     UTIL_LCD_SetPixel((Xpos-(uint32_t)(x_pos/k)), (Ypos - y_pos), Color);
 2597              		.loc 1 739 5 view .LVU764
 2598 006a BFB2     		uxth	r7, r7
 737:../STM32Cube_FW_N6/Utilities/lcd/stm32_lcd.c ****     UTIL_LCD_SetPixel((Xpos+(uint32_t)(x_pos/k)), (Ypos + y_pos), Color);
 2599              		.loc 1 737 5 view .LVU765
 2600 006c FFF7FEFF 		bl	UTIL_LCD_SetPixel
 2601              	.LVL235:
 738:../STM32Cube_FW_N6/Utilities/lcd/stm32_lcd.c ****     UTIL_LCD_SetPixel((Xpos+(uint32_t)(x_pos/k)), (Ypos - y_pos), Color);
 2602              		.loc 1 738 5 is_stmt 1 view .LVU766
 2603 0070 5A46     		mov	r2, fp
 2604 0072 2046     		mov	r0, r4
 2605 0074 0199     		ldr	r1, [sp, #4]
 2606 0076 FFF7FEFF 		bl	UTIL_LCD_SetPixel
 2607              	.LVL236:
 739:../STM32Cube_FW_N6/Utilities/lcd/stm32_lcd.c ****     UTIL_LCD_SetPixel((Xpos-(uint32_t)(x_pos/k)), (Ypos - y_pos), Color);
 2608              		.loc 1 739 5 view .LVU767
 2609 007a 5A46     		mov	r2, fp
 2610 007c 3946     		mov	r1, r7
 2611 007e 2046     		mov	r0, r4
 2612 0080 FFF7FEFF 		bl	UTIL_LCD_SetPixel
 2613              	.LVL237:
 740:../STM32Cube_FW_N6/Utilities/lcd/stm32_lcd.c **** 
 2614              		.loc 1 740 5 view .LVU768
 2615 0084 009B     		ldr	r3, [sp]
 2616 0086 5A46     		mov	r2, fp
ARM GAS  /tmp/ccsDiBBo.s 			page 77


 2617 0088 3946     		mov	r1, r7
 2618 008a 1846     		mov	r0, r3
 2619 008c FFF7FEFF 		bl	UTIL_LCD_SetPixel
 2620              	.LVL238:
 742:../STM32Cube_FW_N6/Utilities/lcd/stm32_lcd.c ****     if (e2 <= x_pos)
 2621              		.loc 1 742 5 view .LVU769
 743:../STM32Cube_FW_N6/Utilities/lcd/stm32_lcd.c ****     {
 2622              		.loc 1 743 5 view .LVU770
 743:../STM32Cube_FW_N6/Utilities/lcd/stm32_lcd.c ****     {
 2623              		.loc 1 743 8 is_stmt 0 view .LVU771
 2624 0090 A845     		cmp	r8, r5
 2625 0092 18DB     		blt	.L176
 745:../STM32Cube_FW_N6/Utilities/lcd/stm32_lcd.c ****       if (-y_pos == x_pos && e2 <= y_pos) e2 = 0;
 2626              		.loc 1 745 7 is_stmt 1 view .LVU772
 745:../STM32Cube_FW_N6/Utilities/lcd/stm32_lcd.c ****       if (-y_pos == x_pos && e2 <= y_pos) e2 = 0;
 2627              		.loc 1 745 23 is_stmt 0 view .LVU773
 2628 0094 08F10108 		add	r8, r8, #1
 2629              	.LVL239:
 745:../STM32Cube_FW_N6/Utilities/lcd/stm32_lcd.c ****       if (-y_pos == x_pos && e2 <= y_pos) e2 = 0;
 2630              		.loc 1 745 23 view .LVU774
 2631 0098 05EB4803 		add	r3, r5, r8, lsl #1
 746:../STM32Cube_FW_N6/Utilities/lcd/stm32_lcd.c ****     }
 2632              		.loc 1 746 10 view .LVU775
 2633 009c 18EB060F 		cmn	r8, r6
 745:../STM32Cube_FW_N6/Utilities/lcd/stm32_lcd.c ****       if (-y_pos == x_pos && e2 <= y_pos) e2 = 0;
 2634              		.loc 1 745 11 view .LVU776
 2635 00a0 03F10103 		add	r3, r3, #1
 2636              	.LVL240:
 746:../STM32Cube_FW_N6/Utilities/lcd/stm32_lcd.c ****     }
 2637              		.loc 1 746 7 is_stmt 1 view .LVU777
 746:../STM32Cube_FW_N6/Utilities/lcd/stm32_lcd.c ****     }
 2638              		.loc 1 746 10 is_stmt 0 view .LVU778
 2639 00a4 02D1     		bne	.L172
 746:../STM32Cube_FW_N6/Utilities/lcd/stm32_lcd.c ****     }
 2640              		.loc 1 746 27 discriminator 1 view .LVU779
 2641 00a6 AE42     		cmp	r6, r5
 2642 00a8 02DB     		blt	.L173
 746:../STM32Cube_FW_N6/Utilities/lcd/stm32_lcd.c ****     }
 2643              		.loc 1 746 46 discriminator 2 view .LVU780
 2644 00aa 0025     		movs	r5, #0
 2645              	.LVL241:
 2646              	.L172:
 748:../STM32Cube_FW_N6/Utilities/lcd/stm32_lcd.c ****     {
 2647              		.loc 1 748 5 is_stmt 1 view .LVU781
 748:../STM32Cube_FW_N6/Utilities/lcd/stm32_lcd.c ****     {
 2648              		.loc 1 748 8 is_stmt 0 view .LVU782
 2649 00ac AE42     		cmp	r6, r5
 2650 00ae 0CDA     		bge	.L177
 2651              	.L173:
 2652              	.LVL242:
 750:../STM32Cube_FW_N6/Utilities/lcd/stm32_lcd.c ****     }
 2653              		.loc 1 750 7 is_stmt 1 view .LVU783
 750:../STM32Cube_FW_N6/Utilities/lcd/stm32_lcd.c ****     }
 2654              		.loc 1 750 23 is_stmt 0 view .LVU784
 2655 00b0 0136     		adds	r6, r6, #1
 2656              	.LVL243:
 750:../STM32Cube_FW_N6/Utilities/lcd/stm32_lcd.c ****     }
ARM GAS  /tmp/ccsDiBBo.s 			page 78


 2657              		.loc 1 750 23 view .LVU785
 2658 00b2 03EB4603 		add	r3, r3, r6, lsl #1
 750:../STM32Cube_FW_N6/Utilities/lcd/stm32_lcd.c ****     }
 2659              		.loc 1 750 11 view .LVU786
 2660 00b6 5D1C     		adds	r5, r3, #1
 2661              	.LVL244:
 2662              	.L174:
 752:../STM32Cube_FW_N6/Utilities/lcd/stm32_lcd.c **** }
 2663              		.loc 1 752 17 is_stmt 1 view .LVU787
 2664 00b8 002E     		cmp	r6, #0
 2665 00ba BCDD     		ble	.L175
 753:../STM32Cube_FW_N6/Utilities/lcd/stm32_lcd.c **** 
 2666              		.loc 1 753 1 is_stmt 0 view .LVU788
 2667 00bc 03B0     		add	sp, sp, #12
 2668              		.cfi_remember_state
 2669              		.cfi_def_cfa_offset 44
 2670              		@ sp needed
 2671 00be BDEC028B 		vldm	sp!, {d8}
 2672              		.cfi_restore 80
 2673              		.cfi_restore 81
 2674              		.cfi_def_cfa_offset 36
 2675              	.LVL245:
 753:../STM32Cube_FW_N6/Utilities/lcd/stm32_lcd.c **** 
 2676              		.loc 1 753 1 view .LVU789
 2677 00c2 BDE8F08F 		pop	{r4, r5, r6, r7, r8, r9, r10, fp, pc}
 2678              	.LVL246:
 2679              	.L176:
 2680              		.cfi_restore_state
 753:../STM32Cube_FW_N6/Utilities/lcd/stm32_lcd.c **** 
 2681              		.loc 1 753 1 view .LVU790
 2682 00c6 2B46     		mov	r3, r5
 2683 00c8 F0E7     		b	.L172
 2684              	.LVL247:
 2685              	.L177:
 753:../STM32Cube_FW_N6/Utilities/lcd/stm32_lcd.c **** 
 2686              		.loc 1 753 1 view .LVU791
 2687 00ca 1D46     		mov	r5, r3
 2688              	.LVL248:
 753:../STM32Cube_FW_N6/Utilities/lcd/stm32_lcd.c **** 
 2689              		.loc 1 753 1 view .LVU792
 2690 00cc F4E7     		b	.L174
 2691              		.cfi_endproc
 2692              	.LFE23:
 2694              		.section	.text.UTIL_LCD_DrawBitmap,"ax",%progbits
 2695              		.align	1
 2696              		.global	UTIL_LCD_DrawBitmap
 2697              		.syntax unified
 2698              		.thumb
 2699              		.thumb_func
 2701              	UTIL_LCD_DrawBitmap:
 2702              	.LVL249:
 2703              	.LFB24:
 762:../STM32Cube_FW_N6/Utilities/lcd/stm32_lcd.c ****   FuncDriver.DrawBitmap(DrawProp->LcdDevice, Xpos, Ypos, pData);
 2704              		.loc 1 762 1 is_stmt 1 view -0
 2705              		.cfi_startproc
 2706              		@ args = 0, pretend = 0, frame = 0
 2707              		@ frame_needed = 0, uses_anonymous_args = 0
ARM GAS  /tmp/ccsDiBBo.s 			page 79


 2708              		@ link register save eliminated.
 763:../STM32Cube_FW_N6/Utilities/lcd/stm32_lcd.c **** }
 2709              		.loc 1 763 3 view .LVU794
 762:../STM32Cube_FW_N6/Utilities/lcd/stm32_lcd.c ****   FuncDriver.DrawBitmap(DrawProp->LcdDevice, Xpos, Ypos, pData);
 2710              		.loc 1 762 1 is_stmt 0 view .LVU795
 2711 0000 1346     		mov	r3, r2
 763:../STM32Cube_FW_N6/Utilities/lcd/stm32_lcd.c **** }
 2712              		.loc 1 763 13 view .LVU796
 2713 0002 054A     		ldr	r2, .L180
 2714              	.LVL250:
 762:../STM32Cube_FW_N6/Utilities/lcd/stm32_lcd.c ****   FuncDriver.DrawBitmap(DrawProp->LcdDevice, Xpos, Ypos, pData);
 2715              		.loc 1 762 1 view .LVU797
 2716 0004 10B4     		push	{r4}
 2717              		.cfi_def_cfa_offset 4
 2718              		.cfi_offset 4, -4
 763:../STM32Cube_FW_N6/Utilities/lcd/stm32_lcd.c **** }
 2719              		.loc 1 763 3 view .LVU798
 2720 0006 1468     		ldr	r4, [r2]
 2721 0008 0A46     		mov	r2, r1
 2722 000a 0146     		mov	r1, r0
 2723              	.LVL251:
 763:../STM32Cube_FW_N6/Utilities/lcd/stm32_lcd.c **** }
 2724              		.loc 1 763 3 view .LVU799
 2725 000c 0348     		ldr	r0, .L180+4
 2726              	.LVL252:
 763:../STM32Cube_FW_N6/Utilities/lcd/stm32_lcd.c **** }
 2727              		.loc 1 763 3 view .LVU800
 2728 000e A446     		mov	ip, r4
 2729 0010 0069     		ldr	r0, [r0, #16]
 764:../STM32Cube_FW_N6/Utilities/lcd/stm32_lcd.c **** 
 2730              		.loc 1 764 1 view .LVU801
 2731 0012 5DF8044B 		ldr	r4, [sp], #4
 763:../STM32Cube_FW_N6/Utilities/lcd/stm32_lcd.c **** }
 2732              		.loc 1 763 3 view .LVU802
 2733 0016 6047     		bx	ip
 2734              	.LVL253:
 2735              	.L181:
 763:../STM32Cube_FW_N6/Utilities/lcd/stm32_lcd.c **** }
 2736              		.loc 1 763 3 view .LVU803
 2737              		.align	2
 2738              	.L180:
 2739 0018 00000000 		.word	FuncDriver
 2740 001c 00000000 		.word	DrawProp
 2741              		.cfi_endproc
 2742              	.LFE24:
 2744              		.section	.text.UTIL_LCD_FillRect,"ax",%progbits
 2745              		.align	1
 2746              		.global	UTIL_LCD_FillRect
 2747              		.syntax unified
 2748              		.thumb
 2749              		.thumb_func
 2751              	UTIL_LCD_FillRect:
 2752              	.LVL254:
 2753              	.LFB25:
 775:../STM32Cube_FW_N6/Utilities/lcd/stm32_lcd.c ****   /* Fill the rectangle */
 2754              		.loc 1 775 1 is_stmt 1 view -0
 2755              		.cfi_startproc
ARM GAS  /tmp/ccsDiBBo.s 			page 80


 2756              		@ args = 4, pretend = 0, frame = 0
 2757              		@ frame_needed = 0, uses_anonymous_args = 0
 777:../STM32Cube_FW_N6/Utilities/lcd/stm32_lcd.c ****   {
 2758              		.loc 1 777 3 view .LVU805
 775:../STM32Cube_FW_N6/Utilities/lcd/stm32_lcd.c ****   /* Fill the rectangle */
 2759              		.loc 1 775 1 is_stmt 0 view .LVU806
 2760 0000 F7B5     		push	{r0, r1, r2, r4, r5, r6, r7, lr}
 2761              		.cfi_def_cfa_offset 32
 2762              		.cfi_offset 4, -20
 2763              		.cfi_offset 5, -16
 2764              		.cfi_offset 6, -12
 2765              		.cfi_offset 7, -8
 2766              		.cfi_offset 14, -4
 775:../STM32Cube_FW_N6/Utilities/lcd/stm32_lcd.c ****   /* Fill the rectangle */
 2767              		.loc 1 775 1 view .LVU807
 2768 0002 0746     		mov	r7, r0
 777:../STM32Cube_FW_N6/Utilities/lcd/stm32_lcd.c ****   {
 2769              		.loc 1 777 34 view .LVU808
 2770 0004 1A48     		ldr	r0, .L188
 2771              	.LVL255:
 779:../STM32Cube_FW_N6/Utilities/lcd/stm32_lcd.c ****   }
 2772              		.loc 1 779 15 view .LVU809
 2773 0006 1B4E     		ldr	r6, .L188+4
 777:../STM32Cube_FW_N6/Utilities/lcd/stm32_lcd.c ****   {
 2774              		.loc 1 777 34 view .LVU810
 2775 0008 C568     		ldr	r5, [r0, #12]
 775:../STM32Cube_FW_N6/Utilities/lcd/stm32_lcd.c ****   /* Fill the rectangle */
 2776              		.loc 1 775 1 view .LVU811
 2777 000a 089C     		ldr	r4, [sp, #32]
 777:../STM32Cube_FW_N6/Utilities/lcd/stm32_lcd.c ****   {
 2778              		.loc 1 777 34 view .LVU812
 2779 000c 00EB4515 		add	r5, r0, r5, lsl #5
 2780 0010 ED69     		ldr	r5, [r5, #28]
 779:../STM32Cube_FW_N6/Utilities/lcd/stm32_lcd.c ****   }
 2781              		.loc 1 779 15 view .LVU813
 2782 0012 3669     		ldr	r6, [r6, #16]
 777:../STM32Cube_FW_N6/Utilities/lcd/stm32_lcd.c ****   {
 2783              		.loc 1 777 5 view .LVU814
 2784 0014 022D     		cmp	r5, #2
 779:../STM32Cube_FW_N6/Utilities/lcd/stm32_lcd.c ****   }
 2785              		.loc 1 779 5 view .LVU815
 2786 0016 0069     		ldr	r0, [r0, #16]
 777:../STM32Cube_FW_N6/Utilities/lcd/stm32_lcd.c ****   {
 2787              		.loc 1 777 5 view .LVU816
 2788 0018 0CD1     		bne	.L183
 779:../STM32Cube_FW_N6/Utilities/lcd/stm32_lcd.c ****   }
 2789              		.loc 1 779 5 is_stmt 1 view .LVU817
 779:../STM32Cube_FW_N6/Utilities/lcd/stm32_lcd.c ****   }
 2790              		.loc 1 779 73 is_stmt 0 view .LVU818
 2791 001a 6509     		lsrs	r5, r4, #5
 2792 001c 4FEA142C 		lsr	ip, r4, #8
 2793 0020 05F4FC65 		and	r5, r5, #2016
 2794 0024 0CF4784C 		and	ip, ip, #63488
 2795 0028 45EA0C05 		orr	r5, r5, ip
 2796 002c C4F3C404 		ubfx	r4, r4, #3, #5
 2797              	.L187:
 787:../STM32Cube_FW_N6/Utilities/lcd/stm32_lcd.c ****   }
ARM GAS  /tmp/ccsDiBBo.s 			page 81


 2798              		.loc 1 787 73 view .LVU819
 2799 0030 2C43     		orrs	r4, r4, r5
 2800 0032 03E0     		b	.L186
 2801              	.L183:
 781:../STM32Cube_FW_N6/Utilities/lcd/stm32_lcd.c ****   {
 2802              		.loc 1 781 8 is_stmt 1 view .LVU820
 781:../STM32Cube_FW_N6/Utilities/lcd/stm32_lcd.c ****   {
 2803              		.loc 1 781 10 is_stmt 0 view .LVU821
 2804 0034 012D     		cmp	r5, #1
 2805 0036 09D1     		bne	.L185
 783:../STM32Cube_FW_N6/Utilities/lcd/stm32_lcd.c ****   }
 2806              		.loc 1 783 5 is_stmt 1 view .LVU822
 2807 0038 24F07F44 		bic	r4, r4, #-16777216
 2808              	.L186:
 791:../STM32Cube_FW_N6/Utilities/lcd/stm32_lcd.c ****   }
 2809              		.loc 1 791 5 view .LVU823
 2810 003c CDE90034 		strd	r3, r4, [sp]
 2811 0040 1346     		mov	r3, r2
 2812              	.LVL256:
 791:../STM32Cube_FW_N6/Utilities/lcd/stm32_lcd.c ****   }
 2813              		.loc 1 791 5 is_stmt 0 view .LVU824
 2814 0042 0A46     		mov	r2, r1
 2815              	.LVL257:
 791:../STM32Cube_FW_N6/Utilities/lcd/stm32_lcd.c ****   }
 2816              		.loc 1 791 5 view .LVU825
 2817 0044 3946     		mov	r1, r7
 2818              	.LVL258:
 791:../STM32Cube_FW_N6/Utilities/lcd/stm32_lcd.c ****   }
 2819              		.loc 1 791 5 view .LVU826
 2820 0046 B047     		blx	r6
 2821              	.LVL259:
 793:../STM32Cube_FW_N6/Utilities/lcd/stm32_lcd.c **** 
 2822              		.loc 1 793 1 view .LVU827
 2823 0048 03B0     		add	sp, sp, #12
 2824              		.cfi_remember_state
 2825              		.cfi_def_cfa_offset 20
 2826              		@ sp needed
 2827 004a F0BD     		pop	{r4, r5, r6, r7, pc}
 2828              	.LVL260:
 2829              	.L185:
 2830              		.cfi_restore_state
 785:../STM32Cube_FW_N6/Utilities/lcd/stm32_lcd.c ****   {
 2831              		.loc 1 785 8 is_stmt 1 view .LVU828
 785:../STM32Cube_FW_N6/Utilities/lcd/stm32_lcd.c ****   {
 2832              		.loc 1 785 10 is_stmt 0 view .LVU829
 2833 004c 042D     		cmp	r5, #4
 2834 004e F5D1     		bne	.L186
 787:../STM32Cube_FW_N6/Utilities/lcd/stm32_lcd.c ****   }
 2835              		.loc 1 787 5 is_stmt 1 view .LVU830
 787:../STM32Cube_FW_N6/Utilities/lcd/stm32_lcd.c ****   }
 2836              		.loc 1 787 73 is_stmt 0 view .LVU831
 2837 0050 4FEA147C 		lsr	ip, r4, #28
 2838 0054 C4F30315 		ubfx	r5, r4, #4, #4
 2839 0058 45EA0C35 		orr	r5, r5, ip, lsl #12
 2840 005c 4FEA142C 		lsr	ip, r4, #8
 2841 0060 0CF0F00C 		and	ip, ip, #240
 2842 0064 240B     		lsrs	r4, r4, #12
ARM GAS  /tmp/ccsDiBBo.s 			page 82


 2843 0066 45EA0C05 		orr	r5, r5, ip
 2844 006a 04F47064 		and	r4, r4, #3840
 2845 006e DFE7     		b	.L187
 2846              	.L189:
 2847              		.align	2
 2848              	.L188:
 2849 0070 00000000 		.word	DrawProp
 2850 0074 00000000 		.word	FuncDriver
 2851              		.cfi_endproc
 2852              	.LFE25:
 2854              		.section	.text.UTIL_LCD_Clear,"ax",%progbits
 2855              		.align	1
 2856              		.global	UTIL_LCD_Clear
 2857              		.syntax unified
 2858              		.thumb
 2859              		.thumb_func
 2861              	UTIL_LCD_Clear:
 2862              	.LVL261:
 2863              	.LFB14:
 408:../STM32Cube_FW_N6/Utilities/lcd/stm32_lcd.c ****   /* Clear the LCD */
 2864              		.loc 1 408 1 is_stmt 1 view -0
 2865              		.cfi_startproc
 2866              		@ args = 0, pretend = 0, frame = 0
 2867              		@ frame_needed = 0, uses_anonymous_args = 0
 410:../STM32Cube_FW_N6/Utilities/lcd/stm32_lcd.c **** }
 2868              		.loc 1 410 3 view .LVU833
 408:../STM32Cube_FW_N6/Utilities/lcd/stm32_lcd.c ****   /* Clear the LCD */
 2869              		.loc 1 408 1 is_stmt 0 view .LVU834
 2870 0000 07B5     		push	{r0, r1, r2, lr}
 2871              		.cfi_def_cfa_offset 16
 2872              		.cfi_offset 14, -4
 410:../STM32Cube_FW_N6/Utilities/lcd/stm32_lcd.c **** }
 2873              		.loc 1 410 3 view .LVU835
 2874 0002 0021     		movs	r1, #0
 410:../STM32Cube_FW_N6/Utilities/lcd/stm32_lcd.c **** }
 2875              		.loc 1 410 44 view .LVU836
 2876 0004 054A     		ldr	r2, .L191
 2877 0006 D368     		ldr	r3, [r2, #12]
 410:../STM32Cube_FW_N6/Utilities/lcd/stm32_lcd.c **** }
 2878              		.loc 1 410 3 view .LVU837
 2879 0008 0090     		str	r0, [sp]
 2880 000a 02EB4312 		add	r2, r2, r3, lsl #5
 2881 000e 0846     		mov	r0, r1
 2882              	.LVL262:
 410:../STM32Cube_FW_N6/Utilities/lcd/stm32_lcd.c **** }
 2883              		.loc 1 410 3 view .LVU838
 2884 0010 D2E90523 		ldrd	r2, r3, [r2, #20]
 2885 0014 FFF7FEFF 		bl	UTIL_LCD_FillRect
 2886              	.LVL263:
 411:../STM32Cube_FW_N6/Utilities/lcd/stm32_lcd.c **** 
 2887              		.loc 1 411 1 view .LVU839
 2888 0018 03B0     		add	sp, sp, #12
 2889              		.cfi_def_cfa_offset 4
 2890              		@ sp needed
 2891 001a 00BD     		pop	{pc}
 2892              	.L192:
 2893              		.align	2
ARM GAS  /tmp/ccsDiBBo.s 			page 83


 2894              	.L191:
 2895 001c 00000000 		.word	DrawProp
 2896              		.cfi_endproc
 2897              	.LFE14:
 2899              		.section	.text.UTIL_LCD_ClearStringLine,"ax",%progbits
 2900              		.align	1
 2901              		.global	UTIL_LCD_ClearStringLine
 2902              		.syntax unified
 2903              		.thumb
 2904              		.thumb_func
 2906              	UTIL_LCD_ClearStringLine:
 2907              	.LVL264:
 2908              	.LFB15:
 418:../STM32Cube_FW_N6/Utilities/lcd/stm32_lcd.c ****   /* Draw rectangle with background color */
 2909              		.loc 1 418 1 is_stmt 1 view -0
 2910              		.cfi_startproc
 2911              		@ args = 0, pretend = 0, frame = 0
 2912              		@ frame_needed = 0, uses_anonymous_args = 0
 420:../STM32Cube_FW_N6/Utilities/lcd/stm32_lcd.c **** }
 2913              		.loc 1 420 3 view .LVU841
 418:../STM32Cube_FW_N6/Utilities/lcd/stm32_lcd.c ****   /* Draw rectangle with background color */
 2914              		.loc 1 418 1 is_stmt 0 view .LVU842
 2915 0000 07B5     		push	{r0, r1, r2, lr}
 2916              		.cfi_def_cfa_offset 16
 2917              		.cfi_offset 14, -4
 420:../STM32Cube_FW_N6/Utilities/lcd/stm32_lcd.c **** }
 2918              		.loc 1 420 49 view .LVU843
 2919 0002 084A     		ldr	r2, .L194
 2920 0004 D368     		ldr	r3, [r2, #12]
 420:../STM32Cube_FW_N6/Utilities/lcd/stm32_lcd.c **** }
 2921              		.loc 1 420 60 view .LVU844
 2922 0006 02EB4312 		add	r2, r2, r3, lsl #5
 420:../STM32Cube_FW_N6/Utilities/lcd/stm32_lcd.c **** }
 2923              		.loc 1 420 66 view .LVU845
 2924 000a 9368     		ldr	r3, [r2, #8]
 420:../STM32Cube_FW_N6/Utilities/lcd/stm32_lcd.c **** }
 2925              		.loc 1 420 3 view .LVU846
 2926 000c 5168     		ldr	r1, [r2, #4]
 420:../STM32Cube_FW_N6/Utilities/lcd/stm32_lcd.c **** }
 2927              		.loc 1 420 66 view .LVU847
 2928 000e DB88     		ldrh	r3, [r3, #6]
 420:../STM32Cube_FW_N6/Utilities/lcd/stm32_lcd.c **** }
 2929              		.loc 1 420 3 view .LVU848
 2930 0010 0091     		str	r1, [sp]
 2931 0012 5269     		ldr	r2, [r2, #20]
 2932 0014 00FB03F1 		mul	r1, r0, r3
 2933 0018 0020     		movs	r0, #0
 2934              	.LVL265:
 420:../STM32Cube_FW_N6/Utilities/lcd/stm32_lcd.c **** }
 2935              		.loc 1 420 3 view .LVU849
 2936 001a FFF7FEFF 		bl	UTIL_LCD_FillRect
 2937              	.LVL266:
 421:../STM32Cube_FW_N6/Utilities/lcd/stm32_lcd.c **** 
 2938              		.loc 1 421 1 view .LVU850
 2939 001e 03B0     		add	sp, sp, #12
 2940              		.cfi_def_cfa_offset 4
 2941              		@ sp needed
ARM GAS  /tmp/ccsDiBBo.s 			page 84


 2942 0020 00BD     		pop	{pc}
 2943              	.L195:
 2944 0022 00BF     		.align	2
 2945              	.L194:
 2946 0024 00000000 		.word	DrawProp
 2947              		.cfi_endproc
 2948              	.LFE15:
 2950              		.section	.text.UTIL_LCD_FillCircle,"ax",%progbits
 2951              		.align	1
 2952              		.global	UTIL_LCD_FillCircle
 2953              		.syntax unified
 2954              		.thumb
 2955              		.thumb_func
 2957              	UTIL_LCD_FillCircle:
 2958              	.LVL267:
 2959              	.LFB26:
 803:../STM32Cube_FW_N6/Utilities/lcd/stm32_lcd.c ****   int32_t   decision;  /* Decision Variable */
 2960              		.loc 1 803 1 is_stmt 1 view -0
 2961              		.cfi_startproc
 2962              		@ args = 0, pretend = 0, frame = 8
 2963              		@ frame_needed = 0, uses_anonymous_args = 0
 804:../STM32Cube_FW_N6/Utilities/lcd/stm32_lcd.c ****   uint32_t  current_x; /* Current X Value */
 2964              		.loc 1 804 3 view .LVU852
 805:../STM32Cube_FW_N6/Utilities/lcd/stm32_lcd.c ****   uint32_t  current_y; /* Current Y Value */
 2965              		.loc 1 805 3 view .LVU853
 806:../STM32Cube_FW_N6/Utilities/lcd/stm32_lcd.c **** 
 2966              		.loc 1 806 3 view .LVU854
 808:../STM32Cube_FW_N6/Utilities/lcd/stm32_lcd.c **** 
 2967              		.loc 1 808 3 view .LVU855
 803:../STM32Cube_FW_N6/Utilities/lcd/stm32_lcd.c ****   int32_t   decision;  /* Decision Variable */
 2968              		.loc 1 803 1 is_stmt 0 view .LVU856
 2969 0000 2DE9F74F 		push	{r0, r1, r2, r4, r5, r6, r7, r8, r9, r10, fp, lr}
 2970              		.cfi_def_cfa_offset 48
 2971              		.cfi_offset 4, -36
 2972              		.cfi_offset 5, -32
 2973              		.cfi_offset 6, -28
 2974              		.cfi_offset 7, -24
 2975              		.cfi_offset 8, -20
 2976              		.cfi_offset 9, -16
 2977              		.cfi_offset 10, -12
 2978              		.cfi_offset 11, -8
 2979              		.cfi_offset 14, -4
 803:../STM32Cube_FW_N6/Utilities/lcd/stm32_lcd.c ****   int32_t   decision;  /* Decision Variable */
 2980              		.loc 1 803 1 view .LVU857
 2981 0004 8046     		mov	r8, r0
 2982 0006 8946     		mov	r9, r1
 2983 0008 9246     		mov	r10, r2
 2984 000a 1D46     		mov	r5, r3
 811:../STM32Cube_FW_N6/Utilities/lcd/stm32_lcd.c **** 
 2985              		.loc 1 811 13 view .LVU858
 2986 000c 1646     		mov	r6, r2
 810:../STM32Cube_FW_N6/Utilities/lcd/stm32_lcd.c ****   current_y = Radius;
 2987              		.loc 1 810 13 view .LVU859
 2988 000e 0024     		movs	r4, #0
 808:../STM32Cube_FW_N6/Utilities/lcd/stm32_lcd.c **** 
 2989              		.loc 1 808 26 view .LVU860
 2990 0010 5700     		lsls	r7, r2, #1
ARM GAS  /tmp/ccsDiBBo.s 			page 85


 808:../STM32Cube_FW_N6/Utilities/lcd/stm32_lcd.c **** 
 2991              		.loc 1 808 16 view .LVU861
 2992 0012 C7F10307 		rsb	r7, r7, #3
 2993              	.LVL268:
 810:../STM32Cube_FW_N6/Utilities/lcd/stm32_lcd.c ****   current_y = Radius;
 2994              		.loc 1 810 3 is_stmt 1 view .LVU862
 811:../STM32Cube_FW_N6/Utilities/lcd/stm32_lcd.c **** 
 2995              		.loc 1 811 3 view .LVU863
 813:../STM32Cube_FW_N6/Utilities/lcd/stm32_lcd.c ****   {
 2996              		.loc 1 813 3 view .LVU864
 813:../STM32Cube_FW_N6/Utilities/lcd/stm32_lcd.c ****   {
 2997              		.loc 1 813 20 view .LVU865
 2998              	.L203:
 815:../STM32Cube_FW_N6/Utilities/lcd/stm32_lcd.c ****     {
 2999              		.loc 1 815 5 view .LVU866
 815:../STM32Cube_FW_N6/Utilities/lcd/stm32_lcd.c ****     {
 3000              		.loc 1 815 7 is_stmt 0 view .LVU867
 3001 0016 96B1     		cbz	r6, .L197
 817:../STM32Cube_FW_N6/Utilities/lcd/stm32_lcd.c ****       {
 3002              		.loc 1 817 7 is_stmt 1 view .LVU868
 817:../STM32Cube_FW_N6/Utilities/lcd/stm32_lcd.c ****       {
 3003              		.loc 1 817 9 is_stmt 0 view .LVU869
 3004 0018 B045     		cmp	r8, r6
 819:../STM32Cube_FW_N6/Utilities/lcd/stm32_lcd.c ****         UTIL_LCD_DrawHLine(0, Ypos - current_x, 2*current_y - (current_y - Xpos), Color);
 3005              		.loc 1 819 9 view .LVU870
 3006 001a 09EB0401 		add	r1, r9, r4
 820:../STM32Cube_FW_N6/Utilities/lcd/stm32_lcd.c ****       }
 3007              		.loc 1 820 9 view .LVU871
 3008 001e A9EB040B 		sub	fp, r9, r4
 817:../STM32Cube_FW_N6/Utilities/lcd/stm32_lcd.c ****       {
 3009              		.loc 1 817 9 view .LVU872
 3010 0022 3AD8     		bhi	.L198
 819:../STM32Cube_FW_N6/Utilities/lcd/stm32_lcd.c ****         UTIL_LCD_DrawHLine(0, Ypos - current_x, 2*current_y - (current_y - Xpos), Color);
 3011              		.loc 1 819 9 is_stmt 1 view .LVU873
 819:../STM32Cube_FW_N6/Utilities/lcd/stm32_lcd.c ****         UTIL_LCD_DrawHLine(0, Ypos - current_x, 2*current_y - (current_y - Xpos), Color);
 3012              		.loc 1 819 61 is_stmt 0 view .LVU874
 3013 0024 08EB0602 		add	r2, r8, r6
 819:../STM32Cube_FW_N6/Utilities/lcd/stm32_lcd.c ****         UTIL_LCD_DrawHLine(0, Ypos - current_x, 2*current_y - (current_y - Xpos), Color);
 3014              		.loc 1 819 9 view .LVU875
 3015 0028 2B46     		mov	r3, r5
 3016 002a 0020     		movs	r0, #0
 3017 002c 0092     		str	r2, [sp]
 3018 002e FFF7FEFF 		bl	UTIL_LCD_DrawHLine
 3019              	.LVL269:
 820:../STM32Cube_FW_N6/Utilities/lcd/stm32_lcd.c ****       }
 3020              		.loc 1 820 9 is_stmt 1 view .LVU876
 3021 0032 2B46     		mov	r3, r5
 3022 0034 5946     		mov	r1, fp
 3023 0036 0020     		movs	r0, #0
 3024 0038 009A     		ldr	r2, [sp]
 3025              	.LVL270:
 3026              	.L211:
 825:../STM32Cube_FW_N6/Utilities/lcd/stm32_lcd.c ****       }
 3027              		.loc 1 825 9 is_stmt 0 view .LVU877
 3028 003a FFF7FEFF 		bl	UTIL_LCD_DrawHLine
 3029              	.LVL271:
 3030              	.L197:
ARM GAS  /tmp/ccsDiBBo.s 			page 86


 829:../STM32Cube_FW_N6/Utilities/lcd/stm32_lcd.c ****     {
 3031              		.loc 1 829 5 is_stmt 1 view .LVU878
 829:../STM32Cube_FW_N6/Utilities/lcd/stm32_lcd.c ****     {
 3032              		.loc 1 829 7 is_stmt 0 view .LVU879
 3033 003e 94B1     		cbz	r4, .L199
 831:../STM32Cube_FW_N6/Utilities/lcd/stm32_lcd.c ****       {
 3034              		.loc 1 831 7 is_stmt 1 view .LVU880
 831:../STM32Cube_FW_N6/Utilities/lcd/stm32_lcd.c ****       {
 3035              		.loc 1 831 9 is_stmt 0 view .LVU881
 3036 0040 A045     		cmp	r8, r4
 833:../STM32Cube_FW_N6/Utilities/lcd/stm32_lcd.c ****         UTIL_LCD_DrawHLine(0, Ypos + current_y, 2*current_x - (current_x - Xpos), Color);
 3037              		.loc 1 833 9 view .LVU882
 3038 0042 A9EB0601 		sub	r1, r9, r6
 834:../STM32Cube_FW_N6/Utilities/lcd/stm32_lcd.c ****       }
 3039              		.loc 1 834 9 view .LVU883
 3040 0046 09EB060B 		add	fp, r9, r6
 831:../STM32Cube_FW_N6/Utilities/lcd/stm32_lcd.c ****       {
 3041              		.loc 1 831 9 view .LVU884
 3042 004a 33D8     		bhi	.L200
 833:../STM32Cube_FW_N6/Utilities/lcd/stm32_lcd.c ****         UTIL_LCD_DrawHLine(0, Ypos + current_y, 2*current_x - (current_x - Xpos), Color);
 3043              		.loc 1 833 9 is_stmt 1 view .LVU885
 833:../STM32Cube_FW_N6/Utilities/lcd/stm32_lcd.c ****         UTIL_LCD_DrawHLine(0, Ypos + current_y, 2*current_x - (current_x - Xpos), Color);
 3044              		.loc 1 833 61 is_stmt 0 view .LVU886
 3045 004c 08EB0402 		add	r2, r8, r4
 833:../STM32Cube_FW_N6/Utilities/lcd/stm32_lcd.c ****         UTIL_LCD_DrawHLine(0, Ypos + current_y, 2*current_x - (current_x - Xpos), Color);
 3046              		.loc 1 833 9 view .LVU887
 3047 0050 2B46     		mov	r3, r5
 3048 0052 0020     		movs	r0, #0
 3049 0054 0092     		str	r2, [sp]
 3050 0056 FFF7FEFF 		bl	UTIL_LCD_DrawHLine
 3051              	.LVL272:
 834:../STM32Cube_FW_N6/Utilities/lcd/stm32_lcd.c ****       }
 3052              		.loc 1 834 9 is_stmt 1 view .LVU888
 3053 005a 2B46     		mov	r3, r5
 3054 005c 5946     		mov	r1, fp
 3055 005e 0020     		movs	r0, #0
 3056 0060 009A     		ldr	r2, [sp]
 3057              	.LVL273:
 3058              	.L212:
 839:../STM32Cube_FW_N6/Utilities/lcd/stm32_lcd.c ****       }
 3059              		.loc 1 839 9 is_stmt 0 view .LVU889
 3060 0062 FFF7FEFF 		bl	UTIL_LCD_DrawHLine
 3061              	.LVL274:
 3062              	.L199:
 842:../STM32Cube_FW_N6/Utilities/lcd/stm32_lcd.c ****     {
 3063              		.loc 1 842 5 is_stmt 1 view .LVU890
 842:../STM32Cube_FW_N6/Utilities/lcd/stm32_lcd.c ****     {
 3064              		.loc 1 842 8 is_stmt 0 view .LVU891
 3065 0066 002F     		cmp	r7, #0
 844:../STM32Cube_FW_N6/Utilities/lcd/stm32_lcd.c ****     }
 3066              		.loc 1 844 7 is_stmt 1 view .LVU892
 844:../STM32Cube_FW_N6/Utilities/lcd/stm32_lcd.c ****     }
 3067              		.loc 1 844 16 is_stmt 0 view .LVU893
 3068 0068 B5BF     		itete	lt
 3069 006a 0637     		addlt	r7, r7, #6
 3070              	.LVL275:
 848:../STM32Cube_FW_N6/Utilities/lcd/stm32_lcd.c ****       current_y--;
ARM GAS  /tmp/ccsDiBBo.s 			page 87


 3071              		.loc 1 848 31 view .LVU894
 3072 006c A31B     		subge	r3, r4, r6
 844:../STM32Cube_FW_N6/Utilities/lcd/stm32_lcd.c ****     }
 3073              		.loc 1 844 16 view .LVU895
 3074 006e 07EB8407 		addlt	r7, r7, r4, lsl #2
 3075              	.LVL276:
 848:../STM32Cube_FW_N6/Utilities/lcd/stm32_lcd.c ****       current_y--;
 3076              		.loc 1 848 7 is_stmt 1 view .LVU896
 848:../STM32Cube_FW_N6/Utilities/lcd/stm32_lcd.c ****       current_y--;
 3077              		.loc 1 848 16 is_stmt 0 view .LVU897
 3078 0072 0A37     		addge	r7, r7, #10
 3079              	.LVL277:
 849:../STM32Cube_FW_N6/Utilities/lcd/stm32_lcd.c ****     }
 3080              		.loc 1 849 16 view .LVU898
 3081 0074 A8BF     		it	ge
 3082 0076 06F1FF36 		addge	r6, r6, #-1
 3083              	.LVL278:
 851:../STM32Cube_FW_N6/Utilities/lcd/stm32_lcd.c ****   }
 3084              		.loc 1 851 14 view .LVU899
 3085 007a 04F10104 		add	r4, r4, #1
 3086              	.LVL279:
 848:../STM32Cube_FW_N6/Utilities/lcd/stm32_lcd.c ****       current_y--;
 3087              		.loc 1 848 16 view .LVU900
 3088 007e A8BF     		it	ge
 3089 0080 07EB8307 		addge	r7, r7, r3, lsl #2
 3090              	.LVL280:
 849:../STM32Cube_FW_N6/Utilities/lcd/stm32_lcd.c ****     }
 3091              		.loc 1 849 7 is_stmt 1 view .LVU901
 851:../STM32Cube_FW_N6/Utilities/lcd/stm32_lcd.c ****   }
 3092              		.loc 1 851 5 view .LVU902
 813:../STM32Cube_FW_N6/Utilities/lcd/stm32_lcd.c ****   {
 3093              		.loc 1 813 20 view .LVU903
 3094 0084 A642     		cmp	r6, r4
 3095 0086 C6D2     		bcs	.L203
 854:../STM32Cube_FW_N6/Utilities/lcd/stm32_lcd.c **** }
 3096              		.loc 1 854 3 view .LVU904
 3097 0088 2B46     		mov	r3, r5
 3098 008a 5246     		mov	r2, r10
 3099 008c 4946     		mov	r1, r9
 3100 008e 4046     		mov	r0, r8
 855:../STM32Cube_FW_N6/Utilities/lcd/stm32_lcd.c **** 
 3101              		.loc 1 855 1 is_stmt 0 view .LVU905
 3102 0090 03B0     		add	sp, sp, #12
 3103              		.cfi_remember_state
 3104              		.cfi_def_cfa_offset 36
 3105              		@ sp needed
 3106 0092 BDE8F04F 		pop	{r4, r5, r6, r7, r8, r9, r10, fp, lr}
 3107              		.cfi_restore 14
 3108              		.cfi_restore 11
 3109              		.cfi_restore 10
 3110              		.cfi_restore 9
 3111              		.cfi_restore 8
 3112              		.cfi_restore 7
 3113              		.cfi_restore 6
 3114              		.cfi_restore 5
 3115              		.cfi_restore 4
 3116              		.cfi_def_cfa_offset 0
ARM GAS  /tmp/ccsDiBBo.s 			page 88


 3117              	.LVL281:
 854:../STM32Cube_FW_N6/Utilities/lcd/stm32_lcd.c **** }
 3118              		.loc 1 854 3 view .LVU906
 3119 0096 FFF7FEBF 		b	UTIL_LCD_DrawCircle
 3120              	.LVL282:
 3121              	.L198:
 3122              		.cfi_restore_state
 824:../STM32Cube_FW_N6/Utilities/lcd/stm32_lcd.c ****         UTIL_LCD_DrawHLine(Xpos - current_y, Ypos - current_x, 2*current_y, Color);
 3123              		.loc 1 824 9 is_stmt 1 view .LVU907
 3124 009a A8EB0600 		sub	r0, r8, r6
 824:../STM32Cube_FW_N6/Utilities/lcd/stm32_lcd.c ****         UTIL_LCD_DrawHLine(Xpos - current_y, Ypos - current_x, 2*current_y, Color);
 3125              		.loc 1 824 65 is_stmt 0 view .LVU908
 3126 009e 7200     		lsls	r2, r6, #1
 824:../STM32Cube_FW_N6/Utilities/lcd/stm32_lcd.c ****         UTIL_LCD_DrawHLine(Xpos - current_y, Ypos - current_x, 2*current_y, Color);
 3127              		.loc 1 824 9 view .LVU909
 3128 00a0 2B46     		mov	r3, r5
 3129 00a2 CDE90002 		strd	r0, r2, [sp]
 3130 00a6 FFF7FEFF 		bl	UTIL_LCD_DrawHLine
 3131              	.LVL283:
 825:../STM32Cube_FW_N6/Utilities/lcd/stm32_lcd.c ****       }
 3132              		.loc 1 825 9 is_stmt 1 view .LVU910
 3133 00aa 2B46     		mov	r3, r5
 3134 00ac 5946     		mov	r1, fp
 3135 00ae 019A     		ldr	r2, [sp, #4]
 3136 00b0 0098     		ldr	r0, [sp]
 3137 00b2 C2E7     		b	.L211
 3138              	.L200:
 838:../STM32Cube_FW_N6/Utilities/lcd/stm32_lcd.c ****         UTIL_LCD_DrawHLine(Xpos - current_x, Ypos + current_y, 2*current_x, Color);
 3139              		.loc 1 838 9 view .LVU911
 3140 00b4 A8EB0400 		sub	r0, r8, r4
 3141 00b8 6200     		lsls	r2, r4, #1
 3142 00ba 2B46     		mov	r3, r5
 3143 00bc CDE90002 		strd	r0, r2, [sp]
 3144 00c0 FFF7FEFF 		bl	UTIL_LCD_DrawHLine
 3145              	.LVL284:
 839:../STM32Cube_FW_N6/Utilities/lcd/stm32_lcd.c ****       }
 3146              		.loc 1 839 9 view .LVU912
 3147 00c4 2B46     		mov	r3, r5
 3148 00c6 5946     		mov	r1, fp
 3149 00c8 019A     		ldr	r2, [sp, #4]
 3150 00ca 0098     		ldr	r0, [sp]
 3151 00cc C9E7     		b	.L212
 3152              		.cfi_endproc
 3153              	.LFE26:
 3155              		.section	.text.UTIL_LCD_FillPolygon,"ax",%progbits
 3156              		.align	1
 3157              		.global	UTIL_LCD_FillPolygon
 3158              		.syntax unified
 3159              		.thumb
 3160              		.thumb_func
 3162              	UTIL_LCD_FillPolygon:
 3163              	.LVL285:
 3164              	.LFB27:
 864:../STM32Cube_FW_N6/Utilities/lcd/stm32_lcd.c ****   int16_t X = 0, Y = 0, X2 = 0, Y2 = 0, x_center = 0, y_center = 0, x_first = 0, y_first = 0, pixel
 3165              		.loc 1 864 1 view -0
 3166              		.cfi_startproc
 3167              		@ args = 0, pretend = 0, frame = 40
ARM GAS  /tmp/ccsDiBBo.s 			page 89


 3168              		@ frame_needed = 0, uses_anonymous_args = 0
 865:../STM32Cube_FW_N6/Utilities/lcd/stm32_lcd.c ****   uint32_t  image_left = 0, image_right = 0, image_top = 0, image_bottom = 0;
 3169              		.loc 1 865 3 view .LVU914
 866:../STM32Cube_FW_N6/Utilities/lcd/stm32_lcd.c ****   Triangle_Positions_t positions;
 3170              		.loc 1 866 3 view .LVU915
 867:../STM32Cube_FW_N6/Utilities/lcd/stm32_lcd.c **** 
 3171              		.loc 1 867 3 view .LVU916
 869:../STM32Cube_FW_N6/Utilities/lcd/stm32_lcd.c ****   image_top= image_bottom = Points->Y;
 3172              		.loc 1 869 3 view .LVU917
 864:../STM32Cube_FW_N6/Utilities/lcd/stm32_lcd.c ****   int16_t X = 0, Y = 0, X2 = 0, Y2 = 0, x_center = 0, y_center = 0, x_first = 0, y_first = 0, pixel
 3173              		.loc 1 864 1 is_stmt 0 view .LVU918
 3174 0000 2DE9F04F 		push	{r4, r5, r6, r7, r8, r9, r10, fp, lr}
 3175              		.cfi_def_cfa_offset 36
 3176              		.cfi_offset 4, -36
 3177              		.cfi_offset 5, -32
 3178              		.cfi_offset 6, -28
 3179              		.cfi_offset 7, -24
 3180              		.cfi_offset 8, -20
 3181              		.cfi_offset 9, -16
 3182              		.cfi_offset 10, -12
 3183              		.cfi_offset 11, -8
 3184              		.cfi_offset 14, -4
 870:../STM32Cube_FW_N6/Utilities/lcd/stm32_lcd.c **** 
 3185              		.loc 1 870 27 view .LVU919
 3186 0004 B0F90230 		ldrsh	r3, [r0, #2]
 869:../STM32Cube_FW_N6/Utilities/lcd/stm32_lcd.c ****   image_top= image_bottom = Points->Y;
 3187              		.loc 1 869 28 view .LVU920
 3188 0008 B0F900B0 		ldrsh	fp, [r0]
 3189              	.LVL286:
 870:../STM32Cube_FW_N6/Utilities/lcd/stm32_lcd.c **** 
 3190              		.loc 1 870 3 is_stmt 1 view .LVU921
 864:../STM32Cube_FW_N6/Utilities/lcd/stm32_lcd.c ****   int16_t X = 0, Y = 0, X2 = 0, Y2 = 0, x_center = 0, y_center = 0, x_first = 0, y_first = 0, pixel
 3191              		.loc 1 864 1 is_stmt 0 view .LVU922
 3192 000c 8BB0     		sub	sp, sp, #44
 3193              		.cfi_def_cfa_offset 80
 864:../STM32Cube_FW_N6/Utilities/lcd/stm32_lcd.c ****   int16_t X = 0, Y = 0, X2 = 0, Y2 = 0, x_center = 0, y_center = 0, x_first = 0, y_first = 0, pixel
 3194              		.loc 1 864 1 view .LVU923
 3195 000e 8A46     		mov	r10, r1
 3196 0010 1746     		mov	r7, r2
 870:../STM32Cube_FW_N6/Utilities/lcd/stm32_lcd.c **** 
 3197              		.loc 1 870 12 view .LVU924
 3198 0012 1D46     		mov	r5, r3
 870:../STM32Cube_FW_N6/Utilities/lcd/stm32_lcd.c **** 
 3199              		.loc 1 870 27 view .LVU925
 3200 0014 1A46     		mov	r2, r3
 3201              	.LVL287:
 870:../STM32Cube_FW_N6/Utilities/lcd/stm32_lcd.c **** 
 3202              		.loc 1 870 27 view .LVU926
 3203 0016 0193     		str	r3, [sp, #4]
 3204              	.LVL288:
 872:../STM32Cube_FW_N6/Utilities/lcd/stm32_lcd.c ****   {
 3205              		.loc 1 872 3 is_stmt 1 view .LVU927
 869:../STM32Cube_FW_N6/Utilities/lcd/stm32_lcd.c ****   image_top= image_bottom = Points->Y;
 3206              		.loc 1 869 28 is_stmt 0 view .LVU928
 3207 0018 5946     		mov	r1, fp
 3208              	.LVL289:
 869:../STM32Cube_FW_N6/Utilities/lcd/stm32_lcd.c ****   image_top= image_bottom = Points->Y;
ARM GAS  /tmp/ccsDiBBo.s 			page 90


 3209              		.loc 1 869 14 view .LVU929
 3210 001a 5E46     		mov	r6, fp
 872:../STM32Cube_FW_N6/Utilities/lcd/stm32_lcd.c ****   {
 3211              		.loc 1 872 15 view .LVU930
 3212 001c 0123     		movs	r3, #1
 3213              	.LVL290:
 3214              	.L214:
 872:../STM32Cube_FW_N6/Utilities/lcd/stm32_lcd.c ****   {
 3215              		.loc 1 872 28 is_stmt 1 discriminator 1 view .LVU931
 3216 001e 5345     		cmp	r3, r10
 3217 0020 34D3     		bcc	.L215
 895:../STM32Cube_FW_N6/Utilities/lcd/stm32_lcd.c ****   {
 3218              		.loc 1 895 3 view .LVU932
 895:../STM32Cube_FW_N6/Utilities/lcd/stm32_lcd.c ****   {
 3219              		.loc 1 895 5 is_stmt 0 view .LVU933
 3220 0022 BAF1010F 		cmp	r10, #1
 3221 0026 2ED9     		bls	.L213
 900:../STM32Cube_FW_N6/Utilities/lcd/stm32_lcd.c ****   y_center = (image_bottom + image_top)/2;
 3222              		.loc 1 900 3 is_stmt 1 view .LVU934
 865:../STM32Cube_FW_N6/Utilities/lcd/stm32_lcd.c ****   uint32_t  image_left = 0, image_right = 0, image_top = 0, image_bottom = 0;
 3223              		.loc 1 865 33 is_stmt 0 view .LVU935
 3224 0028 4FF00008 		mov	r8, #0
 865:../STM32Cube_FW_N6/Utilities/lcd/stm32_lcd.c ****   uint32_t  image_left = 0, image_right = 0, image_top = 0, image_bottom = 0;
 3225              		.loc 1 865 25 view .LVU936
 3226 002c C146     		mov	r9, r8
 900:../STM32Cube_FW_N6/Utilities/lcd/stm32_lcd.c ****   y_center = (image_bottom + image_top)/2;
 3227              		.loc 1 900 26 view .LVU937
 3228 002e 0E44     		add	r6, r6, r1
 3229              	.LVL291:
 901:../STM32Cube_FW_N6/Utilities/lcd/stm32_lcd.c **** 
 3230              		.loc 1 901 28 view .LVU938
 3231 0030 1544     		add	r5, r5, r2
 3232              	.LVL292:
 900:../STM32Cube_FW_N6/Utilities/lcd/stm32_lcd.c ****   y_center = (image_bottom + image_top)/2;
 3233              		.loc 1 900 12 view .LVU939
 3234 0032 46F34F06 		sbfx	r6, r6, #1, #16
 3235              	.LVL293:
 901:../STM32Cube_FW_N6/Utilities/lcd/stm32_lcd.c **** 
 3236              		.loc 1 901 3 is_stmt 1 view .LVU940
 901:../STM32Cube_FW_N6/Utilities/lcd/stm32_lcd.c **** 
 3237              		.loc 1 901 12 is_stmt 0 view .LVU941
 3238 0036 45F34F05 		sbfx	r5, r5, #1, #16
 3239              	.LVL294:
 903:../STM32Cube_FW_N6/Utilities/lcd/stm32_lcd.c ****   y_first = Points->Y;
 3240              		.loc 1 903 3 is_stmt 1 view .LVU942
 904:../STM32Cube_FW_N6/Utilities/lcd/stm32_lcd.c **** 
 3241              		.loc 1 904 3 view .LVU943
 906:../STM32Cube_FW_N6/Utilities/lcd/stm32_lcd.c ****   {
 3242              		.loc 1 906 3 view .LVU944
 3243 003a 041D     		adds	r4, r0, #4
 3244              	.LVL295:
 3245              	.L217:
 906:../STM32Cube_FW_N6/Utilities/lcd/stm32_lcd.c ****   {
 3246              		.loc 1 906 9 view .LVU945
 906:../STM32Cube_FW_N6/Utilities/lcd/stm32_lcd.c ****   {
 3247              		.loc 1 906 9 is_stmt 0 view .LVU946
 3248 003c BAF1010A 		subs	r10, r10, #1
ARM GAS  /tmp/ccsDiBBo.s 			page 91


 3249              	.LVL296:
 906:../STM32Cube_FW_N6/Utilities/lcd/stm32_lcd.c ****   {
 3250              		.loc 1 906 9 view .LVU947
 3251 0040 04F10404 		add	r4, r4, #4
 3252              	.LVL297:
 906:../STM32Cube_FW_N6/Utilities/lcd/stm32_lcd.c ****   {
 3253              		.loc 1 906 9 view .LVU948
 3254 0044 37D1     		bne	.L218
 936:../STM32Cube_FW_N6/Utilities/lcd/stm32_lcd.c ****     positions.y1 = y_first;
 3255              		.loc 1 936 5 is_stmt 1 view .LVU949
 937:../STM32Cube_FW_N6/Utilities/lcd/stm32_lcd.c ****     positions.x2 = X2;
 3256              		.loc 1 937 18 is_stmt 0 view .LVU950
 3257 0046 019B     		ldr	r3, [sp, #4]
 942:../STM32Cube_FW_N6/Utilities/lcd/stm32_lcd.c **** 
 3258              		.loc 1 942 5 view .LVU951
 3259 0048 3946     		mov	r1, r7
 3260 004a 04A8     		add	r0, sp, #16
 938:../STM32Cube_FW_N6/Utilities/lcd/stm32_lcd.c ****     positions.y2 = Y2;
 3261              		.loc 1 938 18 view .LVU952
 3262 004c CDE90539 		strd	r3, r9, [sp, #20]
 940:../STM32Cube_FW_N6/Utilities/lcd/stm32_lcd.c ****     positions.y3 = y_center;
 3263              		.loc 1 940 18 view .LVU953
 3264 0050 CDE90786 		strd	r8, r6, [sp, #28]
 936:../STM32Cube_FW_N6/Utilities/lcd/stm32_lcd.c ****     positions.y1 = y_first;
 3265              		.loc 1 936 18 view .LVU954
 3266 0054 CDF810B0 		str	fp, [sp, #16]
 937:../STM32Cube_FW_N6/Utilities/lcd/stm32_lcd.c ****     positions.x2 = X2;
 3267              		.loc 1 937 5 is_stmt 1 view .LVU955
 939:../STM32Cube_FW_N6/Utilities/lcd/stm32_lcd.c ****     positions.x3 = x_center;
 3268              		.loc 1 939 5 view .LVU956
 941:../STM32Cube_FW_N6/Utilities/lcd/stm32_lcd.c ****     FillTriangle(&positions, Color);
 3269              		.loc 1 941 5 view .LVU957
 941:../STM32Cube_FW_N6/Utilities/lcd/stm32_lcd.c ****     FillTriangle(&positions, Color);
 3270              		.loc 1 941 18 is_stmt 0 view .LVU958
 3271 0058 0995     		str	r5, [sp, #36]
 942:../STM32Cube_FW_N6/Utilities/lcd/stm32_lcd.c **** 
 3272              		.loc 1 942 5 is_stmt 1 view .LVU959
 3273 005a FFF7FEFF 		bl	FillTriangle
 3274              	.LVL298:
 944:../STM32Cube_FW_N6/Utilities/lcd/stm32_lcd.c ****     positions.y2 = y_center;
 3275              		.loc 1 944 5 view .LVU960
 948:../STM32Cube_FW_N6/Utilities/lcd/stm32_lcd.c **** 
 3276              		.loc 1 948 5 is_stmt 0 view .LVU961
 3277 005e 3946     		mov	r1, r7
 3278 0060 04A8     		add	r0, sp, #16
 945:../STM32Cube_FW_N6/Utilities/lcd/stm32_lcd.c ****     positions.x3 = X2;
 3279              		.loc 1 945 18 view .LVU962
 3280 0062 CDE90665 		strd	r6, r5, [sp, #24]
 946:../STM32Cube_FW_N6/Utilities/lcd/stm32_lcd.c ****     positions.y3 = Y2;
 3281              		.loc 1 946 5 is_stmt 1 view .LVU963
 947:../STM32Cube_FW_N6/Utilities/lcd/stm32_lcd.c ****     FillTriangle(&positions, Color);
 3282              		.loc 1 947 18 is_stmt 0 view .LVU964
 3283 0066 CDE90898 		strd	r9, r8, [sp, #32]
 948:../STM32Cube_FW_N6/Utilities/lcd/stm32_lcd.c **** 
 3284              		.loc 1 948 5 is_stmt 1 view .LVU965
 3285 006a FFF7FEFF 		bl	FillTriangle
 3286              	.LVL299:
ARM GAS  /tmp/ccsDiBBo.s 			page 92


 950:../STM32Cube_FW_N6/Utilities/lcd/stm32_lcd.c ****     positions.y1 = y_center;
 3287              		.loc 1 950 5 view .LVU966
 955:../STM32Cube_FW_N6/Utilities/lcd/stm32_lcd.c ****     FillTriangle(&positions, Color);
 3288              		.loc 1 955 18 is_stmt 0 view .LVU967
 3289 006e 019B     		ldr	r3, [sp, #4]
 956:../STM32Cube_FW_N6/Utilities/lcd/stm32_lcd.c **** }
 3290              		.loc 1 956 5 view .LVU968
 3291 0070 3946     		mov	r1, r7
 3292 0072 04A8     		add	r0, sp, #16
 951:../STM32Cube_FW_N6/Utilities/lcd/stm32_lcd.c ****     positions.x2 = X2;
 3293              		.loc 1 951 18 view .LVU969
 3294 0074 CDE90465 		strd	r6, r5, [sp, #16]
 952:../STM32Cube_FW_N6/Utilities/lcd/stm32_lcd.c ****     positions.y2 = Y2;
 3295              		.loc 1 952 5 is_stmt 1 view .LVU970
 953:../STM32Cube_FW_N6/Utilities/lcd/stm32_lcd.c ****     positions.x3 = x_first;
 3296              		.loc 1 953 18 is_stmt 0 view .LVU971
 3297 0078 CDE90698 		strd	r9, r8, [sp, #24]
 954:../STM32Cube_FW_N6/Utilities/lcd/stm32_lcd.c ****     positions.y3 = y_first;
 3298              		.loc 1 954 5 is_stmt 1 view .LVU972
 954:../STM32Cube_FW_N6/Utilities/lcd/stm32_lcd.c ****     positions.y3 = y_first;
 3299              		.loc 1 954 18 is_stmt 0 view .LVU973
 3300 007c CDF820B0 		str	fp, [sp, #32]
 955:../STM32Cube_FW_N6/Utilities/lcd/stm32_lcd.c ****     FillTriangle(&positions, Color);
 3301              		.loc 1 955 5 is_stmt 1 view .LVU974
 955:../STM32Cube_FW_N6/Utilities/lcd/stm32_lcd.c ****     FillTriangle(&positions, Color);
 3302              		.loc 1 955 18 is_stmt 0 view .LVU975
 3303 0080 0993     		str	r3, [sp, #36]
 956:../STM32Cube_FW_N6/Utilities/lcd/stm32_lcd.c **** }
 3304              		.loc 1 956 5 is_stmt 1 view .LVU976
 3305 0082 FFF7FEFF 		bl	FillTriangle
 3306              	.LVL300:
 3307              	.L213:
 957:../STM32Cube_FW_N6/Utilities/lcd/stm32_lcd.c **** 
 3308              		.loc 1 957 1 is_stmt 0 view .LVU977
 3309 0086 0BB0     		add	sp, sp, #44
 3310              		.cfi_remember_state
 3311              		.cfi_def_cfa_offset 36
 3312              		@ sp needed
 3313 0088 BDE8F08F 		pop	{r4, r5, r6, r7, r8, r9, r10, fp, pc}
 3314              	.LVL301:
 3315              	.L215:
 3316              		.cfi_restore_state
 874:../STM32Cube_FW_N6/Utilities/lcd/stm32_lcd.c ****     if(pixel_x < image_left)
 3317              		.loc 1 874 5 is_stmt 1 view .LVU978
 875:../STM32Cube_FW_N6/Utilities/lcd/stm32_lcd.c ****     {
 3318              		.loc 1 875 16 is_stmt 0 view .LVU979
 3319 008c 30F92340 		ldrsh	r4, [r0, r3, lsl #2]
 874:../STM32Cube_FW_N6/Utilities/lcd/stm32_lcd.c ****     if(pixel_x < image_left)
 3320              		.loc 1 874 15 view .LVU980
 3321 0090 00EB830C 		add	ip, r0, r3, lsl #2
 3322              	.LVL302:
 875:../STM32Cube_FW_N6/Utilities/lcd/stm32_lcd.c ****     {
 3323              		.loc 1 875 5 is_stmt 1 view .LVU981
 875:../STM32Cube_FW_N6/Utilities/lcd/stm32_lcd.c ****     {
 3324              		.loc 1 875 7 is_stmt 0 view .LVU982
 3325 0094 A642     		cmp	r6, r4
 3326 0096 28BF     		it	cs
ARM GAS  /tmp/ccsDiBBo.s 			page 93


 3327 0098 2646     		movcs	r6, r4
 3328              	.LVL303:
 879:../STM32Cube_FW_N6/Utilities/lcd/stm32_lcd.c ****     {
 3329              		.loc 1 879 5 is_stmt 1 view .LVU983
 879:../STM32Cube_FW_N6/Utilities/lcd/stm32_lcd.c ****     {
 3330              		.loc 1 879 7 is_stmt 0 view .LVU984
 3331 009a A142     		cmp	r1, r4
 3332 009c 38BF     		it	cc
 3333 009e 2146     		movcc	r1, r4
 3334              	.LVL304:
 884:../STM32Cube_FW_N6/Utilities/lcd/stm32_lcd.c ****     if(pixel_y < image_top)
 3335              		.loc 1 884 5 is_stmt 1 view .LVU985
 885:../STM32Cube_FW_N6/Utilities/lcd/stm32_lcd.c ****     {
 3336              		.loc 1 885 5 view .LVU986
 885:../STM32Cube_FW_N6/Utilities/lcd/stm32_lcd.c ****     {
 3337              		.loc 1 885 16 is_stmt 0 view .LVU987
 3338 00a0 BCF90240 		ldrsh	r4, [ip, #2]
 3339 00a4 0133     		adds	r3, r3, #1
 3340              	.LVL305:
 885:../STM32Cube_FW_N6/Utilities/lcd/stm32_lcd.c ****     {
 3341              		.loc 1 885 7 view .LVU988
 3342 00a6 A542     		cmp	r5, r4
 3343 00a8 28BF     		it	cs
 3344 00aa 2546     		movcs	r5, r4
 3345              	.LVL306:
 889:../STM32Cube_FW_N6/Utilities/lcd/stm32_lcd.c ****     {
 3346              		.loc 1 889 5 is_stmt 1 view .LVU989
 889:../STM32Cube_FW_N6/Utilities/lcd/stm32_lcd.c ****     {
 3347              		.loc 1 889 7 is_stmt 0 view .LVU990
 3348 00ac A242     		cmp	r2, r4
 3349 00ae 38BF     		it	cc
 3350 00b0 2246     		movcc	r2, r4
 3351              	.LVL307:
 872:../STM32Cube_FW_N6/Utilities/lcd/stm32_lcd.c ****   {
 3352              		.loc 1 872 49 is_stmt 1 discriminator 2 view .LVU991
 3353 00b2 1BB2     		sxth	r3, r3
 3354              	.LVL308:
 872:../STM32Cube_FW_N6/Utilities/lcd/stm32_lcd.c ****   {
 3355              		.loc 1 872 49 is_stmt 0 discriminator 2 view .LVU992
 3356 00b4 B3E7     		b	.L214
 3357              	.LVL309:
 3358              	.L218:
 908:../STM32Cube_FW_N6/Utilities/lcd/stm32_lcd.c ****     Y = Points->Y;
 3359              		.loc 1 908 5 is_stmt 1 view .LVU993
 909:../STM32Cube_FW_N6/Utilities/lcd/stm32_lcd.c ****     Points++;
 3360              		.loc 1 909 5 view .LVU994
 909:../STM32Cube_FW_N6/Utilities/lcd/stm32_lcd.c ****     Points++;
 3361              		.loc 1 909 7 is_stmt 0 view .LVU995
 3362 00b6 34F9063C 		ldrsh	r3, [r4, #-6]
 3363              	.LVL310:
 910:../STM32Cube_FW_N6/Utilities/lcd/stm32_lcd.c ****     X2 = Points->X;
 3364              		.loc 1 910 5 is_stmt 1 view .LVU996
 911:../STM32Cube_FW_N6/Utilities/lcd/stm32_lcd.c ****     Y2 = Points->Y;
 3365              		.loc 1 911 5 view .LVU997
 911:../STM32Cube_FW_N6/Utilities/lcd/stm32_lcd.c ****     Y2 = Points->Y;
 3366              		.loc 1 911 8 is_stmt 0 view .LVU998
 3367 00ba 34F9049C 		ldrsh	r9, [r4, #-4]
ARM GAS  /tmp/ccsDiBBo.s 			page 94


 3368              	.LVL311:
 912:../STM32Cube_FW_N6/Utilities/lcd/stm32_lcd.c ****     positions.x1 = X;
 3369              		.loc 1 912 5 is_stmt 1 view .LVU999
 912:../STM32Cube_FW_N6/Utilities/lcd/stm32_lcd.c ****     positions.x1 = X;
 3370              		.loc 1 912 8 is_stmt 0 view .LVU1000
 3371 00be 34F9028C 		ldrsh	r8, [r4, #-2]
 3372              	.LVL312:
 913:../STM32Cube_FW_N6/Utilities/lcd/stm32_lcd.c ****     positions.y1 = Y;
 3373              		.loc 1 913 5 is_stmt 1 view .LVU1001
 913:../STM32Cube_FW_N6/Utilities/lcd/stm32_lcd.c ****     positions.y1 = Y;
 3374              		.loc 1 913 18 is_stmt 0 view .LVU1002
 3375 00c2 34F9082C 		ldrsh	r2, [r4, #-8]
 919:../STM32Cube_FW_N6/Utilities/lcd/stm32_lcd.c **** 
 3376              		.loc 1 919 5 view .LVU1003
 3377 00c6 3946     		mov	r1, r7
 3378 00c8 04A8     		add	r0, sp, #16
 913:../STM32Cube_FW_N6/Utilities/lcd/stm32_lcd.c ****     positions.y1 = Y;
 3379              		.loc 1 913 18 view .LVU1004
 3380 00ca CDE90322 		strd	r2, r2, [sp, #12]
 914:../STM32Cube_FW_N6/Utilities/lcd/stm32_lcd.c ****     positions.x2 = X2;
 3381              		.loc 1 914 5 is_stmt 1 view .LVU1005
 914:../STM32Cube_FW_N6/Utilities/lcd/stm32_lcd.c ****     positions.x2 = X2;
 3382              		.loc 1 914 18 is_stmt 0 view .LVU1006
 3383 00ce 0593     		str	r3, [sp, #20]
 3384 00d0 0293     		str	r3, [sp, #8]
 915:../STM32Cube_FW_N6/Utilities/lcd/stm32_lcd.c ****     positions.y2 = Y2;
 3385              		.loc 1 915 5 is_stmt 1 view .LVU1007
 916:../STM32Cube_FW_N6/Utilities/lcd/stm32_lcd.c ****     positions.x3 = x_center;
 3386              		.loc 1 916 18 is_stmt 0 view .LVU1008
 3387 00d2 CDE90698 		strd	r9, r8, [sp, #24]
 917:../STM32Cube_FW_N6/Utilities/lcd/stm32_lcd.c ****     positions.y3 = y_center;
 3388              		.loc 1 917 5 is_stmt 1 view .LVU1009
 918:../STM32Cube_FW_N6/Utilities/lcd/stm32_lcd.c ****     FillTriangle(&positions, Color);
 3389              		.loc 1 918 18 is_stmt 0 view .LVU1010
 3390 00d6 CDE90865 		strd	r6, r5, [sp, #32]
 919:../STM32Cube_FW_N6/Utilities/lcd/stm32_lcd.c **** 
 3391              		.loc 1 919 5 is_stmt 1 view .LVU1011
 3392 00da FFF7FEFF 		bl	FillTriangle
 3393              	.LVL313:
 921:../STM32Cube_FW_N6/Utilities/lcd/stm32_lcd.c ****     positions.y2 = y_center;
 3394              		.loc 1 921 5 view .LVU1012
 925:../STM32Cube_FW_N6/Utilities/lcd/stm32_lcd.c **** 
 3395              		.loc 1 925 5 is_stmt 0 view .LVU1013
 3396 00de 3946     		mov	r1, r7
 3397 00e0 04A8     		add	r0, sp, #16
 922:../STM32Cube_FW_N6/Utilities/lcd/stm32_lcd.c ****     positions.x3 = X2;
 3398              		.loc 1 922 18 view .LVU1014
 3399 00e2 CDE90665 		strd	r6, r5, [sp, #24]
 923:../STM32Cube_FW_N6/Utilities/lcd/stm32_lcd.c ****     positions.y3 = Y2;
 3400              		.loc 1 923 5 is_stmt 1 view .LVU1015
 924:../STM32Cube_FW_N6/Utilities/lcd/stm32_lcd.c ****     FillTriangle(&positions, Color);
 3401              		.loc 1 924 18 is_stmt 0 view .LVU1016
 3402 00e6 CDE90898 		strd	r9, r8, [sp, #32]
 925:../STM32Cube_FW_N6/Utilities/lcd/stm32_lcd.c **** 
 3403              		.loc 1 925 5 is_stmt 1 view .LVU1017
 3404 00ea FFF7FEFF 		bl	FillTriangle
 3405              	.LVL314:
ARM GAS  /tmp/ccsDiBBo.s 			page 95


 927:../STM32Cube_FW_N6/Utilities/lcd/stm32_lcd.c ****     positions.y1 = y_center;
 3406              		.loc 1 927 5 view .LVU1018
 931:../STM32Cube_FW_N6/Utilities/lcd/stm32_lcd.c ****     positions.y3 = Y;
 3407              		.loc 1 931 18 is_stmt 0 view .LVU1019
 3408 00ee 039A     		ldr	r2, [sp, #12]
 932:../STM32Cube_FW_N6/Utilities/lcd/stm32_lcd.c ****     FillTriangle(&positions, Color);
 3409              		.loc 1 932 18 view .LVU1020
 3410 00f0 029B     		ldr	r3, [sp, #8]
 933:../STM32Cube_FW_N6/Utilities/lcd/stm32_lcd.c ****   }
 3411              		.loc 1 933 5 view .LVU1021
 3412 00f2 3946     		mov	r1, r7
 3413 00f4 04A8     		add	r0, sp, #16
 928:../STM32Cube_FW_N6/Utilities/lcd/stm32_lcd.c ****     positions.x2 = X2;
 3414              		.loc 1 928 18 view .LVU1022
 3415 00f6 CDE90465 		strd	r6, r5, [sp, #16]
 929:../STM32Cube_FW_N6/Utilities/lcd/stm32_lcd.c ****     positions.y2 = Y2;
 3416              		.loc 1 929 5 is_stmt 1 view .LVU1023
 930:../STM32Cube_FW_N6/Utilities/lcd/stm32_lcd.c ****     positions.x3 = X;
 3417              		.loc 1 930 18 is_stmt 0 view .LVU1024
 3418 00fa CDE90698 		strd	r9, r8, [sp, #24]
 931:../STM32Cube_FW_N6/Utilities/lcd/stm32_lcd.c ****     positions.y3 = Y;
 3419              		.loc 1 931 5 is_stmt 1 view .LVU1025
 931:../STM32Cube_FW_N6/Utilities/lcd/stm32_lcd.c ****     positions.y3 = Y;
 3420              		.loc 1 931 18 is_stmt 0 view .LVU1026
 3421 00fe 0892     		str	r2, [sp, #32]
 932:../STM32Cube_FW_N6/Utilities/lcd/stm32_lcd.c ****     FillTriangle(&positions, Color);
 3422              		.loc 1 932 5 is_stmt 1 view .LVU1027
 932:../STM32Cube_FW_N6/Utilities/lcd/stm32_lcd.c ****     FillTriangle(&positions, Color);
 3423              		.loc 1 932 18 is_stmt 0 view .LVU1028
 3424 0100 0993     		str	r3, [sp, #36]
 933:../STM32Cube_FW_N6/Utilities/lcd/stm32_lcd.c ****   }
 3425              		.loc 1 933 5 is_stmt 1 view .LVU1029
 3426 0102 FFF7FEFF 		bl	FillTriangle
 3427              	.LVL315:
 3428 0106 99E7     		b	.L217
 3429              		.cfi_endproc
 3430              	.LFE27:
 3432              		.section	.text.UTIL_LCD_FillEllipse,"ax",%progbits
 3433              		.align	1
 3434              		.global	UTIL_LCD_FillEllipse
 3435              		.syntax unified
 3436              		.thumb
 3437              		.thumb_func
 3439              	UTIL_LCD_FillEllipse:
 3440              	.LVL316:
 3441              	.LFB28:
 968:../STM32Cube_FW_N6/Utilities/lcd/stm32_lcd.c ****   int x_pos = 0, y_pos = -YRadius, err = 2-2*XRadius, e2;
 3442              		.loc 1 968 1 view -0
 3443              		.cfi_startproc
 3444              		@ args = 4, pretend = 0, frame = 0
 3445              		@ frame_needed = 0, uses_anonymous_args = 0
 969:../STM32Cube_FW_N6/Utilities/lcd/stm32_lcd.c ****   float k = 0, rad1 = 0, rad2 = 0;
 3446              		.loc 1 969 3 view .LVU1031
 973:../STM32Cube_FW_N6/Utilities/lcd/stm32_lcd.c **** 
 3447              		.loc 1 973 8 is_stmt 0 view .LVU1032
 3448 0000 07EE903A 		vmov	s15, r3	@ int
 3449 0004 B8EEE77A 		vcvt.f32.s32	s14, s15
ARM GAS  /tmp/ccsDiBBo.s 			page 96


 972:../STM32Cube_FW_N6/Utilities/lcd/stm32_lcd.c ****   rad2 = YRadius;
 3450              		.loc 1 972 8 view .LVU1033
 3451 0008 07EE902A 		vmov	s15, r2	@ int
 3452 000c F8EEE77A 		vcvt.f32.s32	s15, s15
 968:../STM32Cube_FW_N6/Utilities/lcd/stm32_lcd.c ****   int x_pos = 0, y_pos = -YRadius, err = 2-2*XRadius, e2;
 3453              		.loc 1 968 1 view .LVU1034
 3454 0010 2DE9F84F 		push	{r3, r4, r5, r6, r7, r8, r9, r10, fp, lr}
 3455              		.cfi_def_cfa_offset 40
 3456              		.cfi_offset 3, -40
 3457              		.cfi_offset 4, -36
 3458              		.cfi_offset 5, -32
 3459              		.cfi_offset 6, -28
 3460              		.cfi_offset 7, -24
 3461              		.cfi_offset 8, -20
 3462              		.cfi_offset 9, -16
 3463              		.cfi_offset 10, -12
 3464              		.cfi_offset 11, -8
 3465              		.cfi_offset 14, -4
 3466 0014 8146     		mov	r9, r0
 3467 0016 2DED028B 		vpush.64	{d8}
 3468              		.cfi_def_cfa_offset 48
 3469              		.cfi_offset 80, -48
 3470              		.cfi_offset 81, -44
 968:../STM32Cube_FW_N6/Utilities/lcd/stm32_lcd.c ****   int x_pos = 0, y_pos = -YRadius, err = 2-2*XRadius, e2;
 3471              		.loc 1 968 1 view .LVU1035
 3472 001a 8846     		mov	r8, r1
 975:../STM32Cube_FW_N6/Utilities/lcd/stm32_lcd.c **** 
 3473              		.loc 1 975 5 view .LVU1036
 3474 001c 87EE278A 		vdiv.f32	s16, s14, s15
 969:../STM32Cube_FW_N6/Utilities/lcd/stm32_lcd.c ****   float k = 0, rad1 = 0, rad2 = 0;
 3475              		.loc 1 969 7 view .LVU1037
 3476 0020 0027     		movs	r7, #0
 969:../STM32Cube_FW_N6/Utilities/lcd/stm32_lcd.c ****   float k = 0, rad1 = 0, rad2 = 0;
 3477              		.loc 1 969 43 view .LVU1038
 3478 0022 C2F10104 		rsb	r4, r2, #1
 968:../STM32Cube_FW_N6/Utilities/lcd/stm32_lcd.c ****   int x_pos = 0, y_pos = -YRadius, err = 2-2*XRadius, e2;
 3479              		.loc 1 968 1 view .LVU1039
 3480 0026 DDF830A0 		ldr	r10, [sp, #48]
 969:../STM32Cube_FW_N6/Utilities/lcd/stm32_lcd.c ****   float k = 0, rad1 = 0, rad2 = 0;
 3481              		.loc 1 969 18 view .LVU1040
 3482 002a 5D42     		rsbs	r5, r3, #0
 3483              	.LVL317:
 969:../STM32Cube_FW_N6/Utilities/lcd/stm32_lcd.c ****   float k = 0, rad1 = 0, rad2 = 0;
 3484              		.loc 1 969 36 view .LVU1041
 3485 002c 6400     		lsls	r4, r4, #1
 3486              	.LVL318:
 970:../STM32Cube_FW_N6/Utilities/lcd/stm32_lcd.c **** 
 3487              		.loc 1 970 3 is_stmt 1 view .LVU1042
 972:../STM32Cube_FW_N6/Utilities/lcd/stm32_lcd.c ****   rad2 = YRadius;
 3488              		.loc 1 972 3 view .LVU1043
 973:../STM32Cube_FW_N6/Utilities/lcd/stm32_lcd.c **** 
 3489              		.loc 1 973 3 view .LVU1044
 975:../STM32Cube_FW_N6/Utilities/lcd/stm32_lcd.c **** 
 3490              		.loc 1 975 3 view .LVU1045
 3491              	.L223:
 977:../STM32Cube_FW_N6/Utilities/lcd/stm32_lcd.c ****   {
 3492              		.loc 1 977 3 view .LVU1046
ARM GAS  /tmp/ccsDiBBo.s 			page 97


 979:../STM32Cube_FW_N6/Utilities/lcd/stm32_lcd.c ****     UTIL_LCD_DrawHLine((Xpos-(uint32_t)(x_pos/k)), (Ypos - y_pos), (2*(uint32_t)(x_pos/k) + 1), Col
 3493              		.loc 1 979 5 view .LVU1047
 979:../STM32Cube_FW_N6/Utilities/lcd/stm32_lcd.c ****     UTIL_LCD_DrawHLine((Xpos-(uint32_t)(x_pos/k)), (Ypos - y_pos), (2*(uint32_t)(x_pos/k) + 1), Col
 3494              		.loc 1 979 46 is_stmt 0 view .LVU1048
 3495 002e 07EE907A 		vmov	s15, r7	@ int
 3496 0032 B8EEE77A 		vcvt.f32.s32	s14, s15
 3497 0036 C7EE087A 		vdiv.f32	s15, s14, s16
 979:../STM32Cube_FW_N6/Utilities/lcd/stm32_lcd.c ****     UTIL_LCD_DrawHLine((Xpos-(uint32_t)(x_pos/k)), (Ypos - y_pos), (2*(uint32_t)(x_pos/k) + 1), Col
 3498              		.loc 1 979 30 view .LVU1049
 3499 003a FCEEE77A 		vcvt.u32.f32	s15, s15
 3500 003e 17EE906A 		vmov	r6, s15	@ int
 979:../STM32Cube_FW_N6/Utilities/lcd/stm32_lcd.c ****     UTIL_LCD_DrawHLine((Xpos-(uint32_t)(x_pos/k)), (Ypos - y_pos), (2*(uint32_t)(x_pos/k) + 1), Col
 3501              		.loc 1 979 29 view .LVU1050
 3502 0042 A9EB060B 		sub	fp, r9, r6
 979:../STM32Cube_FW_N6/Utilities/lcd/stm32_lcd.c ****     UTIL_LCD_DrawHLine((Xpos-(uint32_t)(x_pos/k)), (Ypos - y_pos), (2*(uint32_t)(x_pos/k) + 1), Col
 3503              		.loc 1 979 70 view .LVU1051
 3504 0046 7600     		lsls	r6, r6, #1
 979:../STM32Cube_FW_N6/Utilities/lcd/stm32_lcd.c ****     UTIL_LCD_DrawHLine((Xpos-(uint32_t)(x_pos/k)), (Ypos - y_pos), (2*(uint32_t)(x_pos/k) + 1), Col
 3505              		.loc 1 979 91 view .LVU1052
 3506 0048 0136     		adds	r6, r6, #1
 979:../STM32Cube_FW_N6/Utilities/lcd/stm32_lcd.c ****     UTIL_LCD_DrawHLine((Xpos-(uint32_t)(x_pos/k)), (Ypos - y_pos), (2*(uint32_t)(x_pos/k) + 1), Col
 3507              		.loc 1 979 5 view .LVU1053
 3508 004a 5346     		mov	r3, r10
 3509 004c 3246     		mov	r2, r6
 3510 004e 5846     		mov	r0, fp
 3511 0050 05EB0801 		add	r1, r5, r8
 3512 0054 FFF7FEFF 		bl	UTIL_LCD_DrawHLine
 3513              	.LVL319:
 980:../STM32Cube_FW_N6/Utilities/lcd/stm32_lcd.c **** 
 3514              		.loc 1 980 5 is_stmt 1 view .LVU1054
 3515 0058 5346     		mov	r3, r10
 3516 005a 3246     		mov	r2, r6
 3517 005c 5846     		mov	r0, fp
 3518 005e A8EB0501 		sub	r1, r8, r5
 3519 0062 FFF7FEFF 		bl	UTIL_LCD_DrawHLine
 3520              	.LVL320:
 982:../STM32Cube_FW_N6/Utilities/lcd/stm32_lcd.c ****     if (e2 <= x_pos)
 3521              		.loc 1 982 5 view .LVU1055
 983:../STM32Cube_FW_N6/Utilities/lcd/stm32_lcd.c ****     {
 3522              		.loc 1 983 5 view .LVU1056
 983:../STM32Cube_FW_N6/Utilities/lcd/stm32_lcd.c ****     {
 3523              		.loc 1 983 8 is_stmt 0 view .LVU1057
 3524 0066 A742     		cmp	r7, r4
 3525 0068 15DB     		blt	.L224
 985:../STM32Cube_FW_N6/Utilities/lcd/stm32_lcd.c ****       if (-y_pos == x_pos && e2 <= y_pos) e2 = 0;
 3526              		.loc 1 985 7 is_stmt 1 view .LVU1058
 985:../STM32Cube_FW_N6/Utilities/lcd/stm32_lcd.c ****       if (-y_pos == x_pos && e2 <= y_pos) e2 = 0;
 3527              		.loc 1 985 23 is_stmt 0 view .LVU1059
 3528 006a 0137     		adds	r7, r7, #1
 3529              	.LVL321:
 985:../STM32Cube_FW_N6/Utilities/lcd/stm32_lcd.c ****       if (-y_pos == x_pos && e2 <= y_pos) e2 = 0;
 3530              		.loc 1 985 23 view .LVU1060
 3531 006c 04EB4703 		add	r3, r4, r7, lsl #1
 986:../STM32Cube_FW_N6/Utilities/lcd/stm32_lcd.c ****     }
 3532              		.loc 1 986 10 view .LVU1061
 3533 0070 EF42     		cmn	r7, r5
 985:../STM32Cube_FW_N6/Utilities/lcd/stm32_lcd.c ****       if (-y_pos == x_pos && e2 <= y_pos) e2 = 0;
ARM GAS  /tmp/ccsDiBBo.s 			page 98


 3534              		.loc 1 985 11 view .LVU1062
 3535 0072 03F10103 		add	r3, r3, #1
 3536              	.LVL322:
 986:../STM32Cube_FW_N6/Utilities/lcd/stm32_lcd.c ****     }
 3537              		.loc 1 986 7 is_stmt 1 view .LVU1063
 986:../STM32Cube_FW_N6/Utilities/lcd/stm32_lcd.c ****     }
 3538              		.loc 1 986 10 is_stmt 0 view .LVU1064
 3539 0076 02D1     		bne	.L220
 986:../STM32Cube_FW_N6/Utilities/lcd/stm32_lcd.c ****     }
 3540              		.loc 1 986 27 discriminator 1 view .LVU1065
 3541 0078 A542     		cmp	r5, r4
 3542 007a 02DB     		blt	.L221
 986:../STM32Cube_FW_N6/Utilities/lcd/stm32_lcd.c ****     }
 3543              		.loc 1 986 46 discriminator 2 view .LVU1066
 3544 007c 0024     		movs	r4, #0
 3545              	.LVL323:
 3546              	.L220:
 988:../STM32Cube_FW_N6/Utilities/lcd/stm32_lcd.c ****   }
 3547              		.loc 1 988 5 is_stmt 1 view .LVU1067
 988:../STM32Cube_FW_N6/Utilities/lcd/stm32_lcd.c ****   }
 3548              		.loc 1 988 8 is_stmt 0 view .LVU1068
 3549 007e A542     		cmp	r5, r4
 3550 0080 0BDA     		bge	.L225
 3551              	.L221:
 3552              	.LVL324:
 988:../STM32Cube_FW_N6/Utilities/lcd/stm32_lcd.c ****   }
 3553              		.loc 1 988 21 is_stmt 1 discriminator 1 view .LVU1069
 988:../STM32Cube_FW_N6/Utilities/lcd/stm32_lcd.c ****   }
 3554              		.loc 1 988 37 is_stmt 0 discriminator 1 view .LVU1070
 3555 0082 0135     		adds	r5, r5, #1
 3556              	.LVL325:
 988:../STM32Cube_FW_N6/Utilities/lcd/stm32_lcd.c ****   }
 3557              		.loc 1 988 37 discriminator 1 view .LVU1071
 3558 0084 03EB4503 		add	r3, r3, r5, lsl #1
 988:../STM32Cube_FW_N6/Utilities/lcd/stm32_lcd.c ****   }
 3559              		.loc 1 988 25 discriminator 1 view .LVU1072
 3560 0088 5C1C     		adds	r4, r3, #1
 3561              	.LVL326:
 3562              	.L222:
 990:../STM32Cube_FW_N6/Utilities/lcd/stm32_lcd.c **** }
 3563              		.loc 1 990 16 is_stmt 1 view .LVU1073
 3564 008a 002D     		cmp	r5, #0
 3565 008c CFDD     		ble	.L223
 991:../STM32Cube_FW_N6/Utilities/lcd/stm32_lcd.c **** 
 3566              		.loc 1 991 1 is_stmt 0 view .LVU1074
 3567 008e BDEC028B 		vldm	sp!, {d8}
 3568              		.cfi_remember_state
 3569              		.cfi_restore 80
 3570              		.cfi_restore 81
 3571              		.cfi_def_cfa_offset 40
 3572              	.LVL327:
 991:../STM32Cube_FW_N6/Utilities/lcd/stm32_lcd.c **** 
 3573              		.loc 1 991 1 view .LVU1075
 3574 0092 BDE8F88F 		pop	{r3, r4, r5, r6, r7, r8, r9, r10, fp, pc}
 3575              	.LVL328:
 3576              	.L224:
 3577              		.cfi_restore_state
ARM GAS  /tmp/ccsDiBBo.s 			page 99


 991:../STM32Cube_FW_N6/Utilities/lcd/stm32_lcd.c **** 
 3578              		.loc 1 991 1 view .LVU1076
 3579 0096 2346     		mov	r3, r4
 3580 0098 F1E7     		b	.L220
 3581              	.LVL329:
 3582              	.L225:
 991:../STM32Cube_FW_N6/Utilities/lcd/stm32_lcd.c **** 
 3583              		.loc 1 991 1 view .LVU1077
 3584 009a 1C46     		mov	r4, r3
 3585              	.LVL330:
 991:../STM32Cube_FW_N6/Utilities/lcd/stm32_lcd.c **** 
 3586              		.loc 1 991 1 view .LVU1078
 3587 009c F5E7     		b	.L222
 3588              		.cfi_endproc
 3589              	.LFE28:
 3591              		.section	.bss.FuncDriver,"aw",%nobits
 3592              		.align	2
 3595              	FuncDriver:
 3596 0000 00000000 		.space	44
 3596      00000000 
 3596      00000000 
 3596      00000000 
 3596      00000000 
 3597              		.section	.bss.DrawProp,"aw",%nobits
 3598              		.align	2
 3601              	DrawProp:
 3602 0000 00000000 		.space	64
 3602      00000000 
 3602      00000000 
 3602      00000000 
 3602      00000000 
 3603              		.global	Font8
 3604              		.section	.data.Font8,"aw"
 3605              		.align	2
 3608              	Font8:
 3609 0000 00000000 		.word	Font8_Table
 3610 0004 0500     		.short	5
 3611 0006 0800     		.short	8
 3612              		.global	Font8_Table
 3613              		.section	.rodata.Font8_Table,"a"
 3616              	Font8_Table:
 3617 0000 00000000 		.ascii	"\000\000\000\000\000\000\000\000    \000 \000\000PP"
 3617      00000000 
 3617      20202020 
 3617      00200000 
 3617      5050
 3618 0012 00000000 		.ascii	"\000\000\000\000\000\000(P\370P\370P\240\000 0`0\020"
 3618      00002850 
 3618      F850F850 
 3618      A0002030 
 3618      603010
 3619 0025 60200020 		.ascii	"` \000  \030`\020\020\000\000\0008 `Px\000\000   \000"
 3619      20186010 
 3619      10000000 
 3619      38206050 
 3619      78000020 
 3620 003c 00000000 		.ascii	"\000\000\000\000\020     \020\000@     @\000 p P\000"
ARM GAS  /tmp/ccsDiBBo.s 			page 100


 3620      10202020 
 3620      20201000 
 3620      40202020 
 3620      20204000 
 3621 0055 00000000 		.ascii	"\000\000\000\000  \370  \000\000\000\000\000\000\020"
 3621      2020F820 
 3621      20000000 
 3621      00000010 
 3622 0065 20200000 		.ascii	"  \000\000\000\000p\000\000\000\000\000\000\000\000"
 3622      00007000 
 3622      00000000 
 3622      000000
 3623 0074 00200000 		.ascii	"\000 \000\000\020   @@\200\000 PPPP \000\000`    \370"
 3623      10202020 
 3623      40408000 
 3623      20505050 
 3623      50200000 
 3624 008e 00002050 		.ascii	"\000\000 P  @p\000\000 P\020 \020`\000\000\0200Px\020"
 3624      20204070 
 3624      00002050 
 3624      10201060 
 3624      00001030 
 3625 00a5 38000070 		.ascii	"8\000\000p@`\020P \000\0000@`PP`\000\000pP\020   \000"
 3625      40601050 
 3625      20000030 
 3625      40605050 
 3625      60000070 
 3626 00bf 00205020 		.ascii	"\000 P PP \000\0000PP0\020`\000\000\000\000 \000\000"
 3626      50502000 
 3626      00305050 
 3626      30106000 
 3626      00000020 
 3627 00d5 20000000 		.ascii	" \000\000\000\000\020\000\020 \000\000\000\020 \300"
 3627      00100010 
 3627      20000000 
 3627      1020C0
 3628 00e4 20100000 		.ascii	" \020\000\000\000p\000p\000\000\000\000\000@ \030 @"
 3628      00700070 
 3628      00000000 
 3628      00402018 
 3628      2040
 3629 00f6 00002050 		.ascii	"\000\000 P\020 \000 \000\0000HHXH@8\000` Pp\210\330"
 3629      10200020 
 3629      00003048 
 3629      48584840 
 3629      38006020 
 3630 010e 0000F048 		.ascii	"\000\000\360HpHH\360\000\000pP@@@0\000\000\360HHHH\360"
 3630      704848F0 
 3630      00007050 
 3630      40404030 
 3630      0000F048 
 3631 0126 0000F848 		.ascii	"\000\000\370H`@H\370\000\000\370H`@@\340\000\000p@@"
 3631      604048F8 
 3631      0000F848 
 3631      604040E0 
 3631      00007040 
 3632 013b 58503000 		.ascii	"XP0\000\000\350HxHH\350\000\000p    p\000\0008\020\020"
ARM GAS  /tmp/ccsDiBBo.s 			page 101


 3632      00E84878 
 3632      4848E800 
 3632      00702020 
 3632      20207000 
 3633 0153 50502000 		.ascii	"PP \000\000\330P`pP\330\000\000\340@@@H\370\000\000"
 3633      00D85060 
 3633      7050D800 
 3633      00E04040 
 3633      4048F800 
 3634 0168 D8D8D8A8 		.ascii	"\330\330\330\250\210\330\000\000\330hhXX\350\000\000"
 3634      88D80000 
 3634      D8686858 
 3634      58E80000 
 3635 0178 30484848 		.ascii	"0HHHH0\000\000\360HHp@\340\000\0000HHHH0\030\000\360"
 3635      48300000 
 3635      F0484870 
 3635      40E00000 
 3635      30484848 
 3636 0191 48487048 		.ascii	"HHpH\350\000\000pP \020Pp\000\000\370\250   p\000\000"
 3636      E8000070 
 3636      50201050 
 3636      700000F8 
 3636      A8202020 
 3637 01a8 D8484848 		.ascii	"\330HHHH0\000\000\330\210HPP0\000\000\330\210\250\250"
 3637      48300000 
 3637      D8884850 
 3637      50300000 
 3637      D888A8A8 
 3638 01bc A8500000 		.ascii	"\250P\000\000\330P  P\330\000\000\330\210P  p\000\000"
 3638      D8502020 
 3638      50D80000 
 3638      D8885020 
 3638      20700000 
 3639 01d0 78481020 		.ascii	"xH\020 Hx\000\0000     0\000\200@@   \020\000`     "
 3639      48780000 
 3639      30202020 
 3639      20203000 
 3639      80404020 
 3640 01ee 60002020 		.ascii	"`\000  P\000\000\000\000\000\000\000\000\000\000\000"
 3640      50000000 
 3640      00000000 
 3640      00000000 
 3641 01fe 00F82010 		.ascii	"\000\370 \020\000\000\000\000\000\000\000\0000\020p"
 3641      00000000 
 3641      00000000 
 3641      301070
 3642 020d 780000C0 		.ascii	"x\000\000\300@pHH\360\000\000\000\000p@@p\000\000\030"
 3642      40704848 
 3642      F0000000 
 3642      00704040 
 3642      70000018 
 3643 0221 08384848 		.ascii	"\0108HH8\000\000\000\000pp@0\000\000\020 p  p\000\000"
 3643      38000000 
 3643      00707040 
 3643      30000010 
 3643      20702020 
 3644 0238 00003848 		.ascii	"\000\0008HH8\0100\300@pHH\350\000\000 \000`  p\000\000"
ARM GAS  /tmp/ccsDiBBo.s 			page 102


 3644      48380830 
 3644      C0407048 
 3644      48E80000 
 3644      20006020 
 3645 0250 20007010 		.ascii	" \000p\020\020\020\020p\300@XpP\330\000\000`    p\000"
 3645      10101070 
 3645      C0405870 
 3645      50D80000 
 3645      60202020 
 3646 0267 000000D0 		.ascii	"\000\000\000\320\250\250\250\000\000\000\000\360HH\310"
 3646      A8A8A800 
 3646      000000F0 
 3646      4848C8
 3647 0276 00000000 		.ascii	"\000\000\000\0000HH0\000\000\000\000\360HHp@\340\000"
 3647      30484830 
 3647      00000000 
 3647      F0484870 
 3647      40E000
 3648 0289 00384848 		.ascii	"\0008HH8\010\030\000\000x  p\000\000\000\0000 \020`"
 3648      38081800 
 3648      00782020 
 3648      70000000 
 3648      00302010 
 3649 029e 00000040 		.ascii	"\000\000\000@\360@H0\000\000\000\000\330HH8\000\000"
 3649      F0404830 
 3649      00000000 
 3649      D8484838 
 3649      0000
 3650 02b0 0000C848 		.ascii	"\000\000\310H00\000\000\000\000\330\250\250P\000\000"
 3650      30300000 
 3650      0000D8A8 
 3650      A8500000 
 3651 02c0 00004830 		.ascii	"\000\000H00H\000\000\000\000\330PP  `\000\000xP(x\000"
 3651      30480000 
 3651      0000D850 
 3651      50202060 
 3651      00007850 
 3652 02d7 00102020 		.ascii	"\000\020  `  \020\000       \000@  0  @\000\000\000"
 3652      60202010 
 3652      00202020 
 3652      20202020 
 3652      00402020 
 3653 02f2 00285000 		.ascii	"\000(P\000\000\000"
 3653      0000
 3654              		.global	Font12
 3655              		.section	.data.Font12,"aw"
 3656              		.align	2
 3659              	Font12:
 3660 0000 00000000 		.word	Font12_Table
 3661 0004 0700     		.short	7
 3662 0006 0C00     		.short	12
 3663              		.global	Font12_Table
 3664              		.section	.rodata.Font12_Table,"a"
 3667              	Font12_Table:
 3668 0000 00000000 		.ascii	"\000\000\000\000\000\000\000\000\000\000\000\000\000"
 3668      00000000 
 3668      00000000 
ARM GAS  /tmp/ccsDiBBo.s 			page 103


 3668      00
 3669 000d 10101010 		.ascii	"\020\020\020\020\020\000\000\020\000\000\000\000lHH"
 3669      10000010 
 3669      00000000 
 3669      6C4848
 3670 001c 00000000 		.ascii	"\000\000\000\000\000\000\000\000\000\024\024(|(|(PP"
 3670      00000000 
 3670      00141428 
 3670      7C287C28 
 3670      5050
 3671 002e 00000010 		.ascii	"\000\000\000\0208@@8Hp\020\020\000\000\000 P \014p\010"
 3671      38404038 
 3671      48701010 
 3671      00000020 
 3671      50200C70 
 3672 0043 14080000 		.ascii	"\024\010\000\000\000\000\000\000\030  TH4\000\000\000"
 3672      00000000 
 3672      18202054 
 3672      48340000 
 3672      00
 3673 0054 00101010 		.ascii	"\000\020\020\020\020\000\000\000\000\000\000\000\000"
 3673      10000000 
 3673      00000000 
 3673      00
 3674 0061 08081010 		.ascii	"\010\010\020\020\020\020\020\020\010\010\000\000  \020"
 3674      10101010 
 3674      08080000 
 3674      202010
 3675 0070 10101010 		.ascii	"\020\020\020\020\020  \000\000\020|\020((\000\000\000"
 3675      10202000 
 3675      00107C10 
 3675      28280000 
 3675      00
 3676 0081 00000000 		.ascii	"\000\000\000\000\000\020\020\020\376\020\020\020\000"
 3676      00101010 
 3676      FE101010 
 3676      00
 3677 008e 00000000 		.ascii	"\000\000\000\000\000\000\000\000\000\030\0200 \000\000"
 3677      00000000 
 3677      00181030 
 3677      200000
 3678 009d 00000000 		.ascii	"\000\000\000\000|\000\000\000\000\000\000\000\000\000"
 3678      7C000000 
 3678      00000000 
 3678      0000
 3679 00ab 00000000 		.ascii	"\000\000\000\00000\000\000\000\000\004\004\010\010\020"
 3679      30300000 
 3679      00000404 
 3679      080810
 3680 00ba 10202040 		.ascii	"\020  @\000\000\0008DDDDDD8\000\000\000\0000\020\020"
 3680      00000038 
 3680      44444444 
 3680      44443800 
 3680      00000030 
 3681 00d0 10101010 		.ascii	"\020\020\020\020|\000\000\000\0008D\004\010\020 D|\000"
 3681      7C000000 
 3681      00384404 
ARM GAS  /tmp/ccsDiBBo.s 			page 104


 3681      08102044 
 3681      7C00
 3682 00e2 00000038 		.ascii	"\000\000\0008D\004\030\004\004D8\000\000\000\000\014"
 3682      44041804 
 3682      04443800 
 3682      0000000C 
 3683 00f2 14142444 		.ascii	"\024\024$D~\004\016\000\000\000\000<  8\004\004D8\000"
 3683      7E040E00 
 3683      0000003C 
 3683      20203804 
 3683      04443800 
 3684 0106 0000001C 		.ascii	"\000\000\000\034 @xDDD8\000\000\000\000|D\004\010\010"
 3684      20407844 
 3684      44443800 
 3684      0000007C 
 3684      44040808 
 3685 011a 08101000 		.ascii	"\010\020\020\000\000\000\0008DD8DDD8\000\000\000\000"
 3685      00000038 
 3685      44443844 
 3685      44443800 
 3685      000000
 3686 012d 38444444 		.ascii	"8DDD<\004\010p\000\000\000\000\000\00000\000\00000\000"
 3686      3C040870 
 3686      00000000 
 3686      00003030 
 3686      00003030 
 3687 0142 00000000 		.ascii	"\000\000\000\000\000\030\030\000\000\0300 \000\000\000"
 3687      00181800 
 3687      00183020 
 3687      000000
 3688 0151 000C1060 		.ascii	"\000\014\020`\200`\020\014\000\000\000\000\000\000\000"
 3688      8060100C 
 3688      00000000 
 3688      000000
 3689 0160 7C007C00 		.ascii	"|\000|\000\000\000\000\000\000\000\300 \030\004\030"
 3689      00000000 
 3689      0000C020 
 3689      180418
 3690 016f 20C00000 		.ascii	" \300\000\000\000\000\000\030$\004\010\020\0000\000"
 3690      00000018 
 3690      24040810 
 3690      003000
 3691 017e 00003844 		.ascii	"\000\0008DDLTTL@D8\000\000\0000\020(((|D\356\000\000"
 3691      444C5454 
 3691      4C404438 
 3691      00000030 
 3691      10282828 
 3692 0197 0000F844 		.ascii	"\000\000\370DDxDDD\370\000\000\000\000<D@@@@D8\000\000"
 3692      44784444 
 3692      44F80000 
 3692      00003C44 
 3692      40404040 
 3693 01af 0000F048 		.ascii	"\000\000\360HDDDDH\360\000\000\000\000\374DPpP@D\374"
 3693      44444444 
 3693      48F00000 
 3693      0000FC44 
 3693      50705040 
ARM GAS  /tmp/ccsDiBBo.s 			page 105


 3694 01c5 00000000 		.ascii	"\000\000\000\000~\"(8(  p\000\000\000\000<D@@NDD8\000"
 3694      7E222838 
 3694      28202070 
 3694      00000000 
 3694      3C444040 
 3695 01de 000000EE 		.ascii	"\000\000\000\356DD|DDD\356\000\000\000\000|\020\020"
 3695      44447C44 
 3695      4444EE00 
 3695      0000007C 
 3695      1010
 3696 01f0 10101010 		.ascii	"\020\020\020\020|\000\000\000\000<\010\010\010HHH0\000"
 3696      7C000000 
 3696      003C0808 
 3696      08484848 
 3696      3000
 3697 0202 000000EE 		.ascii	"\000\000\000\356DHPpHD\346\000\000\000\000p    $$|\000"
 3697      44485070 
 3697      4844E600 
 3697      00000070 
 3697      20202020 
 3698 021a 000000EE 		.ascii	"\000\000\000\356llTTDD\356\000\000\000\000\356ddTTT"
 3698      6C6C5454 
 3698      4444EE00 
 3698      000000EE 
 3698      64645454 
 3699 022f 4CEC0000 		.ascii	"L\354\000\000\000\0008DDDDDD8\000\000\000\000x$$$8 "
 3699      00003844 
 3699      44444444 
 3699      44380000 
 3699      00007824 
 3700 0247 20700000 		.ascii	" p\000\000\000\0008DDDDDD8\034\000\000\000\370DDDxH"
 3700      00003844 
 3700      44444444 
 3700      44381C00 
 3700      0000F844 
 3701 025f 44E20000 		.ascii	"D\342\000\000\000\0004L@8\004\004dX\000\000\000\000"
 3701      0000344C 
 3701      40380404 
 3701      64580000 
 3701      0000
 3702 0271 FE921010 		.ascii	"\376\222\020\020\020\020\0208\000\000\000\000\356DD"
 3702      10101038 
 3702      00000000 
 3702      EE4444
 3703 0280 44444444 		.ascii	"DDDD8\000\000\000\000\356DD(((\020\020\000\000\000\000"
 3703      38000000 
 3703      00EE4444 
 3703      28282810 
 3703      10000000 
 3704 0295 EE444454 		.ascii	"\356DDTTTT(\000\000\000\000\306D(\020\020(D\306\000"
 3704      54545428 
 3704      00000000 
 3704      C6442810 
 3704      102844C6 
 3705 02aa 000000EE 		.ascii	"\000\000\000\356D((\020\020\0208\000\000\000\000|D\010"
 3705      44282810 
 3705      10103800 
ARM GAS  /tmp/ccsDiBBo.s 			page 106


 3705      0000007C 
 3705      4408
 3706 02bc 10102044 		.ascii	"\020\020 D|\000\000\000\0008        8\000\000@   \020"
 3706      7C000000 
 3706      00382020 
 3706      20202020 
 3706      20203800 
 3707 02d6 10080808 		.ascii	"\020\010\010\010\000\000\0008\010\010\010\010\010\010"
 3707      00000038 
 3707      08080808 
 3707      0808
 3708 02e4 08083800 		.ascii	"\010\0108\000\000\020\020(D\000\000\000\000\000\000"
 3708      00101028 
 3708      44000000 
 3708      000000
 3709 02f3 00000000 		.ascii	"\000\000\000\000\000\000\000\000\000\000\000\000\376"
 3709      00000000 
 3709      00000000 
 3709      FE
 3710 0300 00100800 		.ascii	"\000\020\010\000\000\000\000\000\000\000\000\000\000"
 3710      00000000 
 3710      00000000 
 3710      00
 3711 030d 00003844 		.ascii	"\000\0008D<DD>\000\000\000\000\300@XdDDD\370\000\000"
 3711      3C44443E 
 3711      00000000 
 3711      C0405864 
 3711      444444F8 
 3712 0323 00000000 		.ascii	"\000\000\000\000<D@@D8\000\000\000\000\014\0044LDDD"
 3712      3C444040 
 3712      44380000 
 3712      00000C04 
 3712      344C4444 
 3713 0338 3E000000 		.ascii	">\000\000\000\000\000\0008D|@@<\000\000\000\000\034"
 3713      00000038 
 3713      447C4040 
 3713      3C000000 
 3713      001C
 3714 034a 207C2020 		.ascii	" |    |\000\000\000\000\000\0006LDDD<\0048\000\000\300"
 3714      20207C00 
 3714      00000000 
 3714      00364C44 
 3714      44443C04 
 3715 0362 40586444 		.ascii	"@XdDDD\356\000\000\000\000\020\000p\020\020\020\020"
 3715      4444EE00 
 3715      00000010 
 3715      00701010 
 3715      1010
 3716 0374 7C000000 		.ascii	"|\000\000\000\000\020\000x\010\010\010\010\010\010p"
 3716      00100078 
 3716      08080808 
 3716      080870
 3717 0383 0000C040 		.ascii	"\000\000\300@\\HpPH\334\000\000\000\0000\020\020\020"
 3717      5C487050 
 3717      48DC0000 
 3717      00003010 
 3717      1010
ARM GAS  /tmp/ccsDiBBo.s 			page 107


 3718 0395 1010107C 		.ascii	"\020\020\020|\000\000\000\000\000\000\350TTTT\376\000"
 3718      00000000 
 3718      0000E854 
 3718      545454FE 
 3718      00
 3719 03a6 00000000 		.ascii	"\000\000\000\000\000\330dDDD\356\000\000\000\000\000"
 3719      00D86444 
 3719      4444EE00 
 3719      00000000 
 3720 03b6 00384444 		.ascii	"\0008DDDD8\000\000\000\000\000\000\330dDDDx@\340\000"
 3720      44443800 
 3720      00000000 
 3720      00D86444 
 3720      44447840 
 3721 03cc 00000036 		.ascii	"\000\000\0006LDDD<\004\016\000\000\000\000l0   |\000"
 3721      4C444444 
 3721      3C040E00 
 3721      0000006C 
 3721      30202020 
 3722 03e2 00000000 		.ascii	"\000\000\000\000\000<D8\004Dx\000\000\000\000\000 |"
 3722      003C4438 
 3722      04447800 
 3722      00000000 
 3722      207C
 3723 03f4 20202022 		.ascii	"   \"\034\000\000\000\000\000\000\314DDDL6\000\000\000"
 3723      1C000000 
 3723      000000CC 
 3723      4444444C 
 3723      36000000 
 3724 0408 000000EE 		.ascii	"\000\000\000\356DD((\020\000\000\000\000\000\000\356"
 3724      44442828 
 3724      10000000 
 3724      000000EE 
 3725 0418 44545454 		.ascii	"DTTT(\000\000\000\000\000\000\314H00H\314\000\000\000"
 3725      28000000 
 3725      000000CC 
 3725      48303048 
 3725      CC000000 
 3726 042c 000000EE 		.ascii	"\000\000\000\356D$(\030\020\020x\000\000\000\000|H\020"
 3726      44242818 
 3726      10107800 
 3726      0000007C 
 3726      4810
 3727 043e 20447C00 		.ascii	" D|\000\000\000\000\010\020\020\020\020 \020\020\020"
 3727      00000008 
 3727      10101010 
 3727      20101010 
 3728 044e 08000010 		.ascii	"\010\000\000\020\020\020\020\020\020\020\020\020\000"
 3728      10101010 
 3728      10101010 
 3728      00
 3729 045b 00002010 		.ascii	"\000\000 \020\020\020\020\010\020\020\020 \000\000\000"
 3729      10101008 
 3729      10101020 
 3729      000000
 3730 046a 00000024 		.ascii	"\000\000\000$X\000\000\000\000\000"
 3730      58000000 
ARM GAS  /tmp/ccsDiBBo.s 			page 108


 3730      0000
 3731              		.global	Font16
 3732              		.section	.data.Font16,"aw"
 3733              		.align	2
 3736              	Font16:
 3737 0000 00000000 		.word	Font16_Table
 3738 0004 0B00     		.short	11
 3739 0006 1000     		.short	16
 3740              		.global	Font16_Table
 3741              		.section	.rodata.Font16_Table,"a"
 3744              	Font16_Table:
 3745 0000 00000000 		.ascii	"\000\000\000\000\000\000\000\000\000\000\000\000\000"
 3745      00000000 
 3745      00000000 
 3745      00
 3746 000d 00000000 		.ascii	"\000\000\000\000\000\000\000\000\000\000\000\000\000"
 3746      00000000 
 3746      00000000 
 3746      00
 3747 001a 00000000 		.ascii	"\000\000\000\000\000\000\000\000\014\000\014\000\014"
 3747      00000000 
 3747      0C000C00 
 3747      0C
 3748 0027 000C000C 		.ascii	"\000\014\000\014\000\014\000\014\000\014\000\000\000"
 3748      000C000C 
 3748      000C0000 
 3748      00
 3749 0034 0C000000 		.ascii	"\014\000\000\000\000\000\000\000\000\000\000\000\000"
 3749      00000000 
 3749      00000000 
 3749      00
 3750 0041 0000001D 		.ascii	"\000\000\000\035\300\035\300\010\200\010\200\010\200"
 3750      C01DC008 
 3750      80088008 
 3750      80
 3751 004e 00000000 		.ascii	"\000\000\000\000\000\000\000\000\000\000\000\000\000"
 3751      00000000 
 3751      00000000 
 3751      00
 3752 005b 00000000 		.ascii	"\000\000\000\000\000\000\000\015\200\015\200\015\200"
 3752      0000000D 
 3752      800D800D 
 3752      80
 3753 0068 0D803FC0 		.ascii	"\015\200?\300\033\000?\300\033\000\033\000\033\000\033"
 3753      1B003FC0 
 3753      1B001B00 
 3753      1B001B
 3754 0077 00000000 		.ascii	"\000\000\000\000\000\000\000\000\000\004\000\037\200"
 3754      00000000 
 3754      0004001F 
 3754      80
 3755 0084 31803180 		.ascii	"1\2001\2008\000\036\000\017\000\003\2001\2001\200?\000"
 3755      38001E00 
 3755      0F000380 
 3755      31803180 
 3755      3F00
 3756 0096 04000400 		.ascii	"\004\000\004\000\000\000\000\000\000\000\000\000\030"
ARM GAS  /tmp/ccsDiBBo.s 			page 109


 3756      00000000 
 3756      00000000 
 3756      18
 3757 00a3 00240024 		.ascii	"\000$\000$\000\030\300\007\200\036\0001\200\002@\002"
 3757      0018C007 
 3757      801E0031 
 3757      80024002 
 3758 00b3 40018000 		.ascii	"@\001\200\000\000\000\000\000\000\000\000\000\000\000"
 3758      00000000 
 3758      00000000 
 3758      0000
 3759 00c1 0000000F 		.ascii	"\000\000\000\017\000\030\000\030\000\030\000\014\000"
 3759      00180018 
 3759      0018000C 
 3759      00
 3760 00ce 1D803700 		.ascii	"\035\2007\0003\000\035\200\000\000\000\000\000\000\000"
 3760      33001D80 
 3760      00000000 
 3760      000000
 3761 00dd 00000000 		.ascii	"\000\000\000\000\000\000\000\007\000\007\000\002\000"
 3761      00000007 
 3761      00070002 
 3761      00
 3762 00ea 02000200 		.ascii	"\002\000\002\000\000\000\000\000\000\000\000\000\000"
 3762      00000000 
 3762      00000000 
 3762      00
 3763 00f7 00000000 		.ascii	"\000\000\000\000\000\000\000\000\000\000\000\003\000"
 3763      00000000 
 3763      00000003 
 3763      00
 3764 0104 03000600 		.ascii	"\003\000\006\000\016\000\014\000\014\000\014\000\014"
 3764      0E000C00 
 3764      0C000C00 
 3764      0C
 3765 0111 000E0006 		.ascii	"\000\016\000\006\000\003\000\003\000\000\000\000\000"
 3765      00030003 
 3765      00000000 
 3765      00
 3766 011e 00000000 		.ascii	"\000\000\000\000\030\000\030\000\014\000\006\000\006"
 3766      18001800 
 3766      0C000600 
 3766      06
 3767 012b 00060006 		.ascii	"\000\006\000\006\000\006\000\006\000\014\000\034\000"
 3767      00060006 
 3767      000C001C 
 3767      00
 3768 0138 18000000 		.ascii	"\030\000\000\000\000\000\000\000\000\000\006\000\006"
 3768      00000000 
 3768      00000600 
 3768      06
 3769 0145 003FC03F 		.ascii	"\000?\300?\300\017\000\037\200\031\200\000\000\000\000"
 3769      C00F001F 
 3769      80198000 
 3769      000000
 3770 0154 00000000 		.ascii	"\000\000\000\000\000\000\000\000\000\000\000\000\000"
 3770      00000000 
ARM GAS  /tmp/ccsDiBBo.s 			page 110


 3770      00000000 
 3770      00
 3771 0161 00000000 		.ascii	"\000\000\000\000\000\004\000\004\000\004\000?\200\004"
 3771      00040004 
 3771      0004003F 
 3771      8004
 3772 016f 00040004 		.ascii	"\000\004\000\004\000\000\000\000\000\000\000\000\000"
 3772      00000000 
 3772      00000000 
 3772      00
 3773 017c 00000000 		.ascii	"\000\000\000\000\000\000\000\000\000\000\000\000\000"
 3773      00000000 
 3773      00000000 
 3773      00
 3774 0189 00000000 		.ascii	"\000\000\000\000\000\000\000\000\000\006\000\004\000"
 3774      00000000 
 3774      00060004 
 3774      00
 3775 0196 0C000800 		.ascii	"\014\000\010\000\010\000\000\000\000\000\000\000\000"
 3775      08000000 
 3775      00000000 
 3775      00
 3776 01a3 00000000 		.ascii	"\000\000\000\000\000\000\000\000\000?\200\000\000\000"
 3776      00000000 
 3776      003F8000 
 3776      0000
 3777 01b1 00000000 		.ascii	"\000\000\000\000\000\000\000\000\000\000\000\000\000"
 3777      00000000 
 3777      00000000 
 3777      00
 3778 01be 00000000 		.ascii	"\000\000\000\000\000\000\000\000\000\000\000\000\000"
 3778      00000000 
 3778      00000000 
 3778      00
 3779 01cb 00000000 		.ascii	"\000\000\000\000\000\000\000\014\000\014\000\000\000"
 3779      0000000C 
 3779      000C0000 
 3779      00
 3780 01d8 00000000 		.ascii	"\000\000\000\000\000\000\000\000\000\300\000\300\001"
 3780      00000000 
 3780      00C000C0 
 3780      01
 3781 01e5 80018003 		.ascii	"\200\001\200\003\000\003\000\006\000\014\000\014\000"
 3781      00030006 
 3781      000C000C 
 3781      00
 3782 01f2 18001800 		.ascii	"\030\000\030\0000\0000\000\000\000\000\000\000\000\000"
 3782      30003000 
 3782      00000000 
 3782      000000
 3783 0201 000E001B 		.ascii	"\000\016\000\033\0001\2001\2001\2001\2001\2001\200\033"
 3783      00318031 
 3783      80318031 
 3783      80318031 
 3783      801B
 3784 0213 000E0000 		.ascii	"\000\016\000\000\000\000\000\000\000\000\000\000\000"
 3784      00000000 
ARM GAS  /tmp/ccsDiBBo.s 			page 111


 3784      00000000 
 3784      00
 3785 0220 00000600 		.ascii	"\000\000\006\000>\000\006\000\006\000\006\000\006\000"
 3785      3E000600 
 3785      06000600 
 3785      0600
 3786 022e 06000600 		.ascii	"\006\000\006\000\006\000?\300\000\000\000\000\000\000"
 3786      06003FC0 
 3786      00000000 
 3786      0000
 3787 023c 00000000 		.ascii	"\000\000\000\000\000\000\017\000\031\2001\2001\200\003"
 3787      00000F00 
 3787      19803180 
 3787      318003
 3788 024b 0006000C 		.ascii	"\000\006\000\014\000\030\0000\000?\200\000\000\000\000"
 3788      00180030 
 3788      003F8000 
 3788      000000
 3789 025a 00000000 		.ascii	"\000\000\000\000\000\000\000\000?\000a\200\001\200\003"
 3789      00000000 
 3789      3F006180 
 3789      018003
 3790 0269 001F0003 		.ascii	"\000\037\000\003\200\001\200\001\200a\200?\000\000\000"
 3790      80018001 
 3790      8061803F 
 3790      000000
 3791 0278 00000000 		.ascii	"\000\000\000\000\000\000\000\000\000\000\007\000\007"
 3791      00000000 
 3791      00000700 
 3791      07
 3792 0285 000F000B 		.ascii	"\000\017\000\013\000\033\000\023\0003\000?\200\003\000"
 3792      001B0013 
 3792      0033003F 
 3792      800300
 3793 0294 0F800000 		.ascii	"\017\200\000\000\000\000\000\000\000\000\000\000\000"
 3793      00000000 
 3793      00000000 
 3793      00
 3794 02a1 001F8018 		.ascii	"\000\037\200\030\000\030\000\030\000\037\000\021\200"
 3794      00180018 
 3794      001F0011 
 3794      80
 3795 02ae 01800180 		.ascii	"\001\200\001\200!\200\037\000\000\000\000\000\000\000"
 3795      21801F00 
 3795      00000000 
 3795      0000
 3796 02bc 00000000 		.ascii	"\000\000\000\000\000\000\007\200\034\000\030\0000\000"
 3796      00000780 
 3796      1C001800 
 3796      3000
 3797 02ca 37003980 		.ascii	"7\0009\2001\2001\200\031\200\017\000\000\000\000\000"
 3797      31803180 
 3797      19800F00 
 3797      00000000 
 3798 02da 00000000 		.ascii	"\000\000\000\000\000\000\000\000\177\000C\000\003\000"
 3798      00000000 
 3798      7F004300 
ARM GAS  /tmp/ccsDiBBo.s 			page 112


 3798      0300
 3799 02e8 06000600 		.ascii	"\006\000\006\000\006\000\006\000\014\000\014\000\014"
 3799      06000600 
 3799      0C000C00 
 3799      0C
 3800 02f5 00000000 		.ascii	"\000\000\000\000\000\000\000\000\000\000\000\000\000"
 3800      00000000 
 3800      00000000 
 3800      00
 3801 0302 1F003180 		.ascii	"\037\0001\2001\2001\200\037\0001\2001\2001\2001\200"
 3801      31803180 
 3801      1F003180 
 3801      31803180 
 3801      3180
 3802 0314 1F000000 		.ascii	"\037\000\000\000\000\000\000\000\000\000\000\000\000"
 3802      00000000 
 3802      00000000 
 3802      00
 3803 0321 001E0033 		.ascii	"\000\036\0003\0001\2001\2003\200\035\200\001\200\003"
 3803      00318031 
 3803      8033801D 
 3803      80018003 
 3804 0331 0007003C 		.ascii	"\000\007\000<\000\000\000\000\000\000\000\000\000\000"
 3804      00000000 
 3804      00000000 
 3804      0000
 3805 033f 00000000 		.ascii	"\000\000\000\000\000\000\000\000\000\014\000\014\000"
 3805      00000000 
 3805      000C000C 
 3805      00
 3806 034c 00000000 		.ascii	"\000\000\000\000\000\000\014\000\014\000\000\000\000"
 3806      00000C00 
 3806      0C000000 
 3806      00
 3807 0359 00000000 		.ascii	"\000\000\000\000\000\000\000\000\000\000\000\000\000"
 3807      00000000 
 3807      00000000 
 3807      00
 3808 0366 00000300 		.ascii	"\000\000\003\000\003\000\000\000\000\000\000\000\006"
 3808      03000000 
 3808      00000000 
 3808      06
 3809 0373 00040008 		.ascii	"\000\004\000\010\000\010\000\000\000\000\000\000\000"
 3809      00080000 
 3809      00000000 
 3809      00
 3810 0380 00000000 		.ascii	"\000\000\000\000\000\300\003\000\004\000\030\000`\000"
 3810      00C00300 
 3810      04001800 
 3810      6000
 3811 038e 18000400 		.ascii	"\030\000\004\000\003\000\000\300\000\000\000\000\000"
 3811      030000C0 
 3811      00000000 
 3811      00
 3812 039b 00000000 		.ascii	"\000\000\000\000\000\000\000\000\000\000\000\000\000"
 3812      00000000 
 3812      00000000 
ARM GAS  /tmp/ccsDiBBo.s 			page 113


 3812      00
 3813 03a8 00007FC0 		.ascii	"\000\000\177\300\000\000\177\300\000\000\000\000\000"
 3813      00007FC0 
 3813      00000000 
 3813      00
 3814 03b5 00000000 		.ascii	"\000\000\000\000\000\000\000\000\000\000\000\000\000"
 3814      00000000 
 3814      00000000 
 3814      00
 3815 03c2 00006000 		.ascii	"\000\000`\000\030\000\004\000\003\000\000\300\003\000"
 3815      18000400 
 3815      030000C0 
 3815      0300
 3816 03d0 04001800 		.ascii	"\004\000\030\000`\000\000\000\000\000\000\000\000\000"
 3816      60000000 
 3816      00000000 
 3816      0000
 3817 03de 00000000 		.ascii	"\000\000\000\000\000\000\037\0001\2001\200\001\200\007"
 3817      00001F00 
 3817      31803180 
 3817      018007
 3818 03ed 000C000C 		.ascii	"\000\014\000\014\000\000\000\014\000\000\000\000\000"
 3818      0000000C 
 3818      00000000 
 3818      00
 3819 03fa 00000000 		.ascii	"\000\000\000\000\000\000\000\000\016\000\021\000!\000"
 3819      00000000 
 3819      0E001100 
 3819      2100
 3820 0408 21002700 		.ascii	"!\000'\000)\000)\000'\000 \000\021\000\016\000\000\000"
 3820      29002900 
 3820      27002000 
 3820      11000E00 
 3820      0000
 3821 041a 00000000 		.ascii	"\000\000\000\000\000\000\000\000\000\000?\000\017\000"
 3821      00000000 
 3821      00003F00 
 3821      0F00
 3822 0428 09001980 		.ascii	"\011\000\031\200\031\200\037\2000\3000\300y\340\000"
 3822      19801F80 
 3822      30C030C0 
 3822      79E000
 3823 0437 00000000 		.ascii	"\000\000\000\000\000\000\000\000\000\000\000\000\000"
 3823      00000000 
 3823      00000000 
 3823      00
 3824 0444 7F003180 		.ascii	"\177\0001\2001\2001\200?\0001\2001\2001\200\177\000"
 3824      31803180 
 3824      3F003180 
 3824      31803180 
 3824      7F00
 3825 0456 00000000 		.ascii	"\000\000\000\000\000\000\000\000\000\000\000\000\000"
 3825      00000000 
 3825      00000000 
 3825      00
 3826 0463 001F4030 		.ascii	"\000\037@0\300`@`\000`\000`\000`@0\200\037\000\000\000"
 3826      C0604060 
ARM GAS  /tmp/ccsDiBBo.s 			page 114


 3826      00600060 
 3826      00604030 
 3826      801F0000 
 3827 0478 00000000 		.ascii	"\000\000\000\000\000\000\000\000\000\000\000\000\177"
 3827      00000000 
 3827      00000000 
 3827      7F
 3828 0485 00318030 		.ascii	"\0001\2000\3000\3000\3000\3000\3001\200\177\000\000"
 3828      C030C030 
 3828      C030C030 
 3828      C031807F 
 3828      0000
 3829 0497 00000000 		.ascii	"\000\000\000\000\000\000\000\000\000\000\000\000\000"
 3829      00000000 
 3829      00000000 
 3829      00
 3830 04a4 7F803080 		.ascii	"\177\2000\2000\2002\000>\0002\0000\2000\200\177\200"
 3830      30803200 
 3830      3E003200 
 3830      30803080 
 3830      7F80
 3831 04b6 00000000 		.ascii	"\000\000\000\000\000\000\000\000\000\000\000\000\000"
 3831      00000000 
 3831      00000000 
 3831      00
 3832 04c3 007FC030 		.ascii	"\000\177\3000@0@2\000>\0002\0000\0000\000|\000\000\000"
 3832      40304032 
 3832      003E0032 
 3832      00300030 
 3832      007C0000 
 3833 04d8 00000000 		.ascii	"\000\000\000\000\000\000\000\000\000\000\000\000\036"
 3833      00000000 
 3833      00000000 
 3833      1E
 3834 04e5 80318060 		.ascii	"\2001\200`\200`\000`\000g\300a\2001\200\037\000\000"
 3834      80600060 
 3834      0067C061 
 3834      8031801F 
 3834      0000
 3835 04f7 00000000 		.ascii	"\000\000\000\000\000\000\000\000\000\000\000\000\000"
 3835      00000000 
 3835      00000000 
 3835      00
 3836 0504 7BC03180 		.ascii	"{\3001\2001\2001\200?\2001\2001\2001\200{\300\000\000"
 3836      31803180 
 3836      3F803180 
 3836      31803180 
 3836      7BC00000 
 3837 0518 00000000 		.ascii	"\000\000\000\000\000\000\000\000\000\000\000\000?\300"
 3837      00000000 
 3837      00000000 
 3837      3FC0
 3838 0526 06000600 		.ascii	"\006\000\006\000\006\000\006\000\006\000\006\000\006"
 3838      06000600 
 3838      06000600 
 3838      06
 3839 0533 003FC000 		.ascii	"\000?\300\000\000\000\000\000\000\000\000\000\000\000"
ARM GAS  /tmp/ccsDiBBo.s 			page 115


 3839      00000000 
 3839      00000000 
 3839      0000
 3840 0541 0000001F 		.ascii	"\000\000\000\037\300\003\000\003\000\003\000\003\000"
 3840      C0030003 
 3840      00030003 
 3840      00
 3841 054e 63006300 		.ascii	"c\000c\000c\000>\000\000\000\000\000\000\000\000\000"
 3841      63003E00 
 3841      00000000 
 3841      00000000 
 3842 055e 00000000 		.ascii	"\000\000\000\000\000\000{\3001\2003\0006\000<\000>\000"
 3842      00007BC0 
 3842      31803300 
 3842      36003C00 
 3842      3E00
 3843 0570 33003180 		.ascii	"3\0001\200y\300\000\000\000\000\000\000\000\000\000"
 3843      79C00000 
 3843      00000000 
 3843      000000
 3844 057f 00000000 		.ascii	"\000\000\000\000\000~\000\030\000\030\000\030\000\030"
 3844      007E0018 
 3844      00180018 
 3844      0018
 3845 058d 00184018 		.ascii	"\000\030@\030@\030@\177\300\000\000\000\000\000\000"
 3845      4018407F 
 3845      C0000000 
 3845      000000
 3846 059c 00000000 		.ascii	"\000\000\000\000\000\000\000\000\340\340`\300q\300{"
 3846      00000000 
 3846      E0E060C0 
 3846      71C07B
 3847 05ab C06AC06E 		.ascii	"\300j\300n\300d\300`\300\373\340\000\000\000\000\000"
 3847      C064C060 
 3847      C0FBE000 
 3847      00000000 
 3848 05bb 00000000 		.ascii	"\000\000\000\000\000\000\000\000\000s\3001\2009\200"
 3848      00000000 
 3848      0073C031 
 3848      803980
 3849 05ca 3D803580 		.ascii	"=\2005\2007\2003\2001\200y\200\000\000\000\000\000\000"
 3849      37803380 
 3849      31807980 
 3849      00000000 
 3849      0000
 3850 05dc 00000000 		.ascii	"\000\000\000\000\000\000\000\000\037\0001\200`\300`"
 3850      00000000 
 3850      1F003180 
 3850      60C060
 3851 05eb C060C060 		.ascii	"\300`\300`\300`\3001\200\037\000\000\000\000\000\000"
 3851      C060C031 
 3851      801F0000 
 3851      00000000 
 3852 05fb 00000000 		.ascii	"\000\000\000\000\000\000\000\000\000\177\0001\2001\200"
 3852      00000000 
 3852      007F0031 
 3852      803180
ARM GAS  /tmp/ccsDiBBo.s 			page 116


 3853 060a 31803180 		.ascii	"1\2001\200?\0000\0000\000~\000\000\000\000\000\000\000"
 3853      3F003000 
 3853      30007E00 
 3853      00000000 
 3853      0000
 3854 061c 00000000 		.ascii	"\000\000\000\000\000\000\000\000\037\0001\200`\300`"
 3854      00000000 
 3854      1F003180 
 3854      60C060
 3855 062b C060C060 		.ascii	"\300`\300`\300`\3001\200\037\000\014\300\037\200\000"
 3855      C060C031 
 3855      801F000C 
 3855      C01F8000 
 3856 063b 00000000 		.ascii	"\000\000\000\000\000\000\000\000\000\177\0001\2001\200"
 3856      00000000 
 3856      007F0031 
 3856      803180
 3857 064a 31803E00 		.ascii	"1\200>\0003\0001\2001\200|\340\000\000\000\000\000\000"
 3857      33003180 
 3857      31807CE0 
 3857      00000000 
 3857      0000
 3858 065c 00000000 		.ascii	"\000\000\000\000\000\000\000\000\037\2001\2001\2008"
 3858      00000000 
 3858      1F803180 
 3858      318038
 3859 066b 001F0003 		.ascii	"\000\037\000\003\2001\2001\200?\000\000\000\000\000"
 3859      80318031 
 3859      803F0000 
 3859      000000
 3860 067a 00000000 		.ascii	"\000\000\000\000\000\000\000\000\000\000\177\200L\200"
 3860      00000000 
 3860      00007F80 
 3860      4C80
 3861 0688 4C804C80 		.ascii	"L\200L\200\014\000\014\000\014\000\014\000?\000\000"
 3861      0C000C00 
 3861      0C000C00 
 3861      3F0000
 3862 0697 00000000 		.ascii	"\000\000\000\000\000\000\000\000\000\000\000\000\000"
 3862      00000000 
 3862      00000000 
 3862      00
 3863 06a4 7BC03180 		.ascii	"{\3001\2001\2001\2001\2001\2001\2001\200\037\000\000"
 3863      31803180 
 3863      31803180 
 3863      31803180 
 3863      1F0000
 3864 06b7 00000000 		.ascii	"\000\000\000\000\000\000\000\000\000\000\000\000\000"
 3864      00000000 
 3864      00000000 
 3864      00
 3865 06c4 7BC03180 		.ascii	"{\3001\2001\200\033\000\033\000\033\000\012\000\016"
 3865      31801B00 
 3865      1B001B00 
 3865      0A000E
 3866 06d3 000E0000 		.ascii	"\000\016\000\000\000\000\000\000\000\000\000\000\000"
 3866      00000000 
ARM GAS  /tmp/ccsDiBBo.s 			page 117


 3866      00000000 
 3866      00
 3867 06e0 00000000 		.ascii	"\000\000\000\000\373\340`\300d\300n\300n\300*\200;\200"
 3867      FBE060C0 
 3867      64C06EC0 
 3867      6EC02A80 
 3867      3B80
 3868 06f2 3B803180 		.ascii	";\2001\200\000\000\000\000\000\000\000\000\000\000\000"
 3868      00000000 
 3868      00000000 
 3868      000000
 3869 0701 0000007B 		.ascii	"\000\000\000{\3001\200\033\000\016\000\016\000\016\000"
 3869      C031801B 
 3869      000E000E 
 3869      000E00
 3870 0710 1B003180 		.ascii	"\033\0001\200{\300\000\000\000\000\000\000\000\000\000"
 3870      7BC00000 
 3870      00000000 
 3870      000000
 3871 071f 00000000 		.ascii	"\000\000\000\000\000y\3400\300\031\200\017\000\006\000"
 3871      0079E030 
 3871      C019800F 
 3871      000600
 3872 072e 06000600 		.ascii	"\006\000\006\000\006\000\037\200\000\000\000\000\000"
 3872      06001F80 
 3872      00000000 
 3872      00
 3873 073b 00000000 		.ascii	"\000\000\000\000\000\000\000\000\000?\200!\200#\000"
 3873      00000000 
 3873      003F8021 
 3873      802300
 3874 074a 06000400 		.ascii	"\006\000\004\000\014\000\030\2000\200?\200\000\000\000"
 3874      0C001880 
 3874      30803F80 
 3874      000000
 3875 0759 00000000 		.ascii	"\000\000\000\000\000\000\000\000\000\007\200\006\000"
 3875      00000000 
 3875      00078006 
 3875      00
 3876 0766 06000600 		.ascii	"\006\000\006\000\006\000\006\000\006\000\006\000\006"
 3876      06000600 
 3876      06000600 
 3876      06
 3877 0773 00060006 		.ascii	"\000\006\000\006\000\007\200\000\000\000\000\000\000"
 3877      00078000 
 3877      00000000 
 3877      00
 3878 0780 30003000 		.ascii	"0\0000\000\030\000\030\000\014\000\014\000\006\000\003"
 3878      18001800 
 3878      0C000C00 
 3878      060003
 3879 078f 00030001 		.ascii	"\000\003\000\001\200\001\200\000\300\000\300\000\000"
 3879      80018000 
 3879      C000C000 
 3879      00
 3880 079c 00000000 		.ascii	"\000\000\000\000\000\000\036\000\006\000\006\000\006"
 3880      00001E00 
ARM GAS  /tmp/ccsDiBBo.s 			page 118


 3880      06000600 
 3880      06
 3881 07a9 00060006 		.ascii	"\000\006\000\006\000\006\000\006\000\006\000\006\000"
 3881      00060006 
 3881      00060006 
 3881      00
 3882 07b6 06001E00 		.ascii	"\006\000\036\000\000\000\000\000\000\000\004\000\012"
 3882      00000000 
 3882      00000400 
 3882      0A
 3883 07c3 000A0011 		.ascii	"\000\012\000\021\000 \200 \200\000\000\000\000"
 3883      00208020 
 3883      80000000 
 3883      00
 3884 07d0 00000000 		.ascii	"\000\000\000\000\000\000\000\000\000\000\000\000\000"
 3884      00000000 
 3884      00000000 
 3884      00
 3885 07dd 00000000 		.ascii	"\000\000\000\000\000\000\000\000\000\000\000\000\000"
 3885      00000000 
 3885      00000000 
 3885      00
 3886 07ea 00000000 		.ascii	"\000\000\000\000\000\000\000\000\000\000\000\000\000"
 3886      00000000 
 3886      00000000 
 3886      00
 3887 07f7 00000000 		.ascii	"\000\000\000\000\000\000\000\377\340\010\000\004\000"
 3887      000000FF 
 3887      E0080004 
 3887      00
 3888 0804 02000000 		.ascii	"\002\000\000\000\000\000\000\000\000\000\000\000\000"
 3888      00000000 
 3888      00000000 
 3888      00
 3889 0811 00000000 		.ascii	"\000\000\000\000\000\000\000\000\000\000\000\000\000"
 3889      00000000 
 3889      00000000 
 3889      00
 3890 081e 00000000 		.ascii	"\000\000\000\000\000\000\000\000\000\000\037\000\001"
 3890      00000000 
 3890      00001F00 
 3890      01
 3891 082b 8001801F 		.ascii	"\200\001\200\037\2001\2003\200\035\300\000\000\000\000"
 3891      80318033 
 3891      801DC000 
 3891      000000
 3892 083a 00000000 		.ascii	"\000\000\000\000\000\000\000\000p\0000\0000\0007\000"
 3892      00000000 
 3892      70003000 
 3892      30003700 
 3893 084a 398030C0 		.ascii	"9\2000\3000\3000\3009\200w\000\000\000\000\000\000\000"
 3893      30C030C0 
 3893      39807700 
 3893      00000000 
 3893      0000
 3894 085c 00000000 		.ascii	"\000\000\000\000\000\000\000\000\000\000\000\000\036"
 3894      00000000 
ARM GAS  /tmp/ccsDiBBo.s 			page 119


 3894      00000000 
 3894      1E
 3895 0869 80318060 		.ascii	"\2001\200`\200`\000`\2001\200\037\000\000\000\000\000"
 3895      80600060 
 3895      8031801F 
 3895      00000000 
 3895      00
 3896 087a 00000000 		.ascii	"\000\000\000\000\000\000\000\000\003\200\001\200\001"
 3896      00000000 
 3896      03800180 
 3896      01
 3897 0887 801D8033 		.ascii	"\200\035\2003\200a\200a\200a\2003\200\035\300\000\000"
 3897      80618061 
 3897      80618033 
 3897      801DC000 
 3897      00
 3898 0898 00000000 		.ascii	"\000\000\000\000\000\000\000\000\000\000\000\000\000"
 3898      00000000 
 3898      00000000 
 3898      00
 3899 08a5 0000001F 		.ascii	"\000\000\000\037\0001\200`\300\177\300`\0000\300\037"
 3899      00318060 
 3899      C07FC060 
 3899      0030C01F 
 3900 08b5 80000000 		.ascii	"\200\000\000\000\000\000\000\000\000\000\000\000\000"
 3900      00000000 
 3900      00000000 
 3900      00
 3901 08c2 07E00C00 		.ascii	"\007\340\014\000\014\000?\200\014\000\014\000\014\000"
 3901      0C003F80 
 3901      0C000C00 
 3901      0C00
 3902 08d0 0C000C00 		.ascii	"\014\000\014\000?\200\000\000\000\000\000\000\000\000"
 3902      3F800000 
 3902      00000000 
 3902      0000
 3903 08de 00000000 		.ascii	"\000\000\000\000\000\000\000\000\000\000\035\3003\200"
 3903      00000000 
 3903      00001DC0 
 3903      3380
 3904 08ec 61806180 		.ascii	"a\200a\200a\2003\200\035\200\001\200\001\200\037\000"
 3904      61803380 
 3904      1D800180 
 3904      01801F00 
 3905 08fc 00000000 		.ascii	"\000\000\000\000\000\000p\0000\0000\0007\0009\2001\200"
 3905      00007000 
 3905      30003000 
 3905      37003980 
 3905      3180
 3906 090e 31803180 		.ascii	"1\2001\2001\200{\300\000\000\000\000\000\000\000\000"
 3906      31807BC0 
 3906      00000000 
 3906      00000000 
 3907 091e 00000000 		.ascii	"\000\000\000\000\006\000\006\000\000\000\036\000\006"
 3907      06000600 
 3907      00001E00 
 3907      06
ARM GAS  /tmp/ccsDiBBo.s 			page 120


 3908 092b 00060006 		.ascii	"\000\006\000\006\000\006\000\006\000?\300\000\000\000"
 3908      00060006 
 3908      003FC000 
 3908      0000
 3909 0939 00000000 		.ascii	"\000\000\000\000\000\000\000\000\000\006\000\006\000"
 3909      00000000 
 3909      00060006 
 3909      00
 3910 0946 00003F00 		.ascii	"\000\000?\000\003\000\003\000\003\000\003\000\003\000"
 3910      03000300 
 3910      03000300 
 3910      0300
 3911 0954 03000300 		.ascii	"\003\000\003\000\003\000>\000\000\000\000\000\000\000"
 3911      03003E00 
 3911      00000000 
 3911      0000
 3912 0962 70003000 		.ascii	"p\0000\0000\0007\2006\000<\000<\0006\0003\000w\300\000"
 3912      30003780 
 3912      36003C00 
 3912      3C003600 
 3912      330077C0 
 3913 0977 00000000 		.ascii	"\000\000\000\000\000\000\000\000\000\000\000\036\000"
 3913      00000000 
 3913      0000001E 
 3913      00
 3914 0984 06000600 		.ascii	"\006\000\006\000\006\000\006\000\006\000\006\000\006"
 3914      06000600 
 3914      06000600 
 3914      06
 3915 0991 0006003F 		.ascii	"\000\006\000?\300\000\000\000\000\000\000\000\000\000"
 3915      C0000000 
 3915      00000000 
 3915      0000
 3916 099f 00000000 		.ascii	"\000\000\000\000\000\000\000\000\000\177\2006\3006\300"
 3916      00000000 
 3916      007F8036 
 3916      C036C0
 3917 09ae 36C036C0 		.ascii	"6\3006\3006\300v\340\000\000\000\000\000\000\000\000"
 3917      36C076E0 
 3917      00000000 
 3917      00000000 
 3918 09be 00000000 		.ascii	"\000\000\000\000\000\000\000\000\000\000w\0009\2001"
 3918      00000000 
 3918      00007700 
 3918      398031
 3919 09cd 80318031 		.ascii	"\2001\2001\2001\200{\300\000\000\000\000\000\000\000"
 3919      8031807B 
 3919      C0000000 
 3919      00000000 
 3920 09dd 00000000 		.ascii	"\000\000\000\000\000\000\000\000\000\000\000\037\000"
 3920      00000000 
 3920      0000001F 
 3920      00
 3921 09ea 318060C0 		.ascii	"1\200`\300`\300`\3001\200\037\000\000\000\000\000\000"
 3921      60C060C0 
 3921      31801F00 
 3921      00000000 
ARM GAS  /tmp/ccsDiBBo.s 			page 121


 3921      00
 3922 09fb 00000000 		.ascii	"\000\000\000\000\000\000\000\000\000\000\000\000\000"
 3922      00000000 
 3922      00000000 
 3922      00
 3923 0a08 77003980 		.ascii	"w\0009\2000\3000\3000\3009\2007\0000\0000\000|\000\000"
 3923      30C030C0 
 3923      30C03980 
 3923      37003000 
 3923      30007C00 
 3924 0a1d 00000000 		.ascii	"\000\000\000\000\000\000\000\000\000\000\000\035\300"
 3924      00000000 
 3924      0000001D 
 3924      C0
 3925 0a2a 33806180 		.ascii	"3\200a\200a\200a\2003\200\035\200\001\200\001\200\007"
 3925      61806180 
 3925      33801D80 
 3925      01800180 
 3925      07
 3926 0a3b C0000000 		.ascii	"\300\000\000\000\000\000\000\000\000\000\000\000\000"
 3926      00000000 
 3926      00000000 
 3926      00
 3927 0a48 7B801CC0 		.ascii	"{\200\034\300\030\000\030\000\030\000\030\000\177\000"
 3927      18001800 
 3927      18001800 
 3927      7F00
 3928 0a56 00000000 		.ascii	"\000\000\000\000\000\000\000\000\000\000\000\000\000"
 3928      00000000 
 3928      00000000 
 3928      00
 3929 0a63 00000000 		.ascii	"\000\000\000\000\000\037\2001\200<\000\037\000\003\200"
 3929      001F8031 
 3929      803C001F 
 3929      000380
 3930 0a72 31803F00 		.ascii	"1\200?\000\000\000\000\000\000\000\000\000\000\000\000"
 3930      00000000 
 3930      00000000 
 3930      000000
 3931 0a81 00180018 		.ascii	"\000\030\000\030\000\030\000\177\000\030\000\030\000"
 3931      0018007F 
 3931      00180018 
 3931      00
 3932 0a8e 18001800 		.ascii	"\030\000\030\000\030\200\017\000\000\000\000\000\000"
 3932      18800F00 
 3932      00000000 
 3932      00
 3933 0a9b 00000000 		.ascii	"\000\000\000\000\000\000\000\000\000\000\000\000\000"
 3933      00000000 
 3933      00000000 
 3933      00
 3934 0aa8 73803180 		.ascii	"s\2001\2001\2001\2001\2003\200\035\300\000\000\000\000"
 3934      31803180 
 3934      31803380 
 3934      1DC00000 
 3934      0000
 3935 0aba 00000000 		.ascii	"\000\000\000\000\000\000\000\000\000\000\000\000\000"
ARM GAS  /tmp/ccsDiBBo.s 			page 122


 3935      00000000 
 3935      00000000 
 3935      00
 3936 0ac7 007BC031 		.ascii	"\000{\3001\2001\200\033\000\033\000\016\000\016\000"
 3936      8031801B 
 3936      001B000E 
 3936      000E00
 3937 0ad6 00000000 		.ascii	"\000\000\000\000\000\000\000\000\000\000\000\000\000"
 3937      00000000 
 3937      00000000 
 3937      00
 3938 0ae3 00000000 		.ascii	"\000\000\000\000\000\361\340`\300d\300n\300;\200;\200"
 3938      00F1E060 
 3938      C064C06E 
 3938      C03B803B 
 3938      80
 3939 0af4 31800000 		.ascii	"1\200\000\000\000\000\000\000\000\000\000\000\000\000"
 3939      00000000 
 3939      00000000 
 3939      0000
 3940 0b02 00000000 		.ascii	"\000\000\000\000\000\000{\300\033\000\016\000\016\000"
 3940      00007BC0 
 3940      1B000E00 
 3940      0E00
 3941 0b10 0E001B00 		.ascii	"\016\000\033\000{\300\000\000\000\000\000\000\000\000"
 3941      7BC00000 
 3941      00000000 
 3941      0000
 3942 0b1e 00000000 		.ascii	"\000\000\000\000\000\000\000\000\000\000y\3400\300\031"
 3942      00000000 
 3942      000079E0 
 3942      30C019
 3943 0b2d 8019800B 		.ascii	"\200\031\200\013\000\017\000\006\000\006\000\014\000"
 3943      000F0006 
 3943      0006000C 
 3943      00
 3944 0b3a 3E000000 		.ascii	">\000\000\000\000\000\000\000\000\000\000\000\000\000"
 3944      00000000 
 3944      00000000 
 3944      0000
 3945 0b48 3F802180 		.ascii	"?\200!\200\003\000\016\000\030\0000\200?\200\000\000"
 3945      03000E00 
 3945      18003080 
 3945      3F800000 
 3946 0b58 00000000 		.ascii	"\000\000\000\000\000\000\000\000\000\000\006\000\014"
 3946      00000000 
 3946      00000600 
 3946      0C
 3947 0b65 000C000C 		.ascii	"\000\014\000\014\000\014\000\014\000\030\000\014\000"
 3947      000C000C 
 3947      0018000C 
 3947      00
 3948 0b72 0C000C00 		.ascii	"\014\000\014\000\014\000\006\000\000\000\000\000\000"
 3948      0C000600 
 3948      00000000 
 3948      00
 3949 0b7f 00000006 		.ascii	"\000\000\000\006\000\006\000\006\000\006\000\006\000"
ARM GAS  /tmp/ccsDiBBo.s 			page 123


 3949      00060006 
 3949      00060006 
 3949      00
 3950 0b8c 06000600 		.ascii	"\006\000\006\000\006\000\006\000\006\000\006\000\006"
 3950      06000600 
 3950      06000600 
 3950      06
 3951 0b99 00000000 		.ascii	"\000\000\000\000\000\000\000\000\000\014\000\006\000"
 3951      00000000 
 3951      000C0006 
 3951      00
 3952 0ba6 06000600 		.ascii	"\006\000\006\000\006\000\006\000\003\000\006\000\006"
 3952      06000600 
 3952      03000600 
 3952      06
 3953 0bb3 00060006 		.ascii	"\000\006\000\006\000\014\000\000\000\000\000\000\000"
 3953      000C0000 
 3953      00000000 
 3953      00
 3954 0bc0 00000000 		.ascii	"\000\000\000\000\000\000\000\000\000\000\030\000$\200"
 3954      00000000 
 3954      00001800 
 3954      2480
 3955 0bce 03000000 		.ascii	"\003\000\000\000\000\000\000\000\000\000\000\000\000"
 3955      00000000 
 3955      00000000 
 3955      00
 3956 0bdb 00000000 		.ascii	"\000\000\000\000\000"
 3956      00
 3957              		.global	Font20
 3958              		.section	.data.Font20,"aw"
 3959              		.align	2
 3962              	Font20:
 3963 0000 00000000 		.word	Font20_Table
 3964 0004 0E00     		.short	14
 3965 0006 1400     		.short	20
 3966              		.global	Font20_Table
 3967              		.section	.rodata.Font20_Table,"a"
 3970              	Font20_Table:
 3971 0000 00000000 		.ascii	"\000\000\000\000\000\000\000\000\000\000\000\000\000"
 3971      00000000 
 3971      00000000 
 3971      00
 3972 000d 00000000 		.ascii	"\000\000\000\000\000\000\000\000\000\000\000\000\000"
 3972      00000000 
 3972      00000000 
 3972      00
 3973 001a 00000000 		.ascii	"\000\000\000\000\000\000\000\000\000\000\000\000\000"
 3973      00000000 
 3973      00000000 
 3973      00
 3974 0027 00000007 		.ascii	"\000\000\000\007\000\007\000\007\000\007\000\007\000"
 3974      00070007 
 3974      00070007 
 3974      00
 3975 0034 07000700 		.ascii	"\007\000\007\000\002\000\002\000\000\000\000\000\007"
 3975      02000200 
ARM GAS  /tmp/ccsDiBBo.s 			page 124


 3975      00000000 
 3975      07
 3976 0041 00070000 		.ascii	"\000\007\000\000\000\000\000\000\000\000\000\000\000"
 3976      00000000 
 3976      00000000 
 3976      00
 3977 004e 00000000 		.ascii	"\000\000\000\000\000\000\034\340\034\340\034\340\010"
 3977      00001CE0 
 3977      1CE01CE0 
 3977      08
 3978 005b 40084008 		.ascii	"@\010@\010@\000\000\000\000\000\000\000\000\000\000"
 3978      40000000 
 3978      00000000 
 3978      000000
 3979 006a 00000000 		.ascii	"\000\000\000\000\000\000\000\000\000\000\000\000\000"
 3979      00000000 
 3979      00000000 
 3979      00
 3980 0077 000CC00C 		.ascii	"\000\014\300\014\300\014\300\014\300\014\300?\360?\360"
 3980      C00CC00C 
 3980      C00CC03F 
 3980      F03FF0
 3981 0086 0CC00CC0 		.ascii	"\014\300\014\300?\360?\360\014\300\014\300\014\300\014"
 3981      3FF03FF0 
 3981      0CC00CC0 
 3981      0CC00C
 3982 0095 C00CC000 		.ascii	"\300\014\300\000\000\000\000\000\000\000\000\003\000"
 3982      00000000 
 3982      00000003 
 3982      00
 3983 00a2 030007E0 		.ascii	"\003\000\007\340\017\340\030`\030\000\037\000\017\300"
 3983      0FE01860 
 3983      18001F00 
 3983      0FC0
 3984 00b0 00E01860 		.ascii	"\000\340\030`\030`\037\300\037\200\003\000\003\000\003"
 3984      18601FC0 
 3984      1F800300 
 3984      030003
 3985 00bf 00000000 		.ascii	"\000\000\000\000\000\000\000\000\000\000\000\034\000"
 3985      00000000 
 3985      0000001C 
 3985      00
 3986 00cc 22002200 		.ascii	"\"\000\"\000\"\000\034`\001\340\017\200<\0001\300\002"
 3986      22001C60 
 3986      01E00F80 
 3986      3C0031C0 
 3986      02
 3987 00dd 20022002 		.ascii	" \002 \002 \001\300\000\000\000\000\000\000\000\000"
 3987      2001C000 
 3987      00000000 
 3987      000000
 3988 00ec 00000000 		.ascii	"\000\000\000\000\000\000\000\000\000\000\003\340\017"
 3988      00000000 
 3988      000003E0 
 3988      0F
 3989 00f9 E00C000C 		.ascii	"\340\014\000\014\000\006\000\0170\037\360\031\340\030"
 3989      0006000F 
ARM GAS  /tmp/ccsDiBBo.s 			page 125


 3989      301FF019 
 3989      E018
 3990 0107 C01FF007 		.ascii	"\300\037\360\007\260\000\000\000\000\000\000\000\000"
 3990      B0000000 
 3990      00000000 
 3990      00
 3991 0114 00000000 		.ascii	"\000\000\000\000\000\000\000\000\003\200\003\200\003"
 3991      00000000 
 3991      03800380 
 3991      03
 3992 0121 80010001 		.ascii	"\200\001\000\001\000\001\000\000\000\000\000\000\000"
 3992      00010000 
 3992      00000000 
 3992      00
 3993 012e 00000000 		.ascii	"\000\000\000\000\000\000\000\000\000\000\000\000\000"
 3993      00000000 
 3993      00000000 
 3993      00
 3994 013b 00000000 		.ascii	"\000\000\000\000\000\000\000\000\300\000\300\001\200"
 3994      00000000 
 3994      C000C001 
 3994      80
 3995 0148 01800180 		.ascii	"\001\200\001\200\003\000\003\000\003\000\003\000\003"
 3995      03000300 
 3995      03000300 
 3995      03
 3996 0155 00030001 		.ascii	"\000\003\000\001\200\001\200\001\200\000\300\000\300"
 3996      80018001 
 3996      8000C000 
 3996      C0
 3997 0162 00000000 		.ascii	"\000\000\000\000\000\000\000\000\014\000\014\000\006"
 3997      00000000 
 3997      0C000C00 
 3997      06
 3998 016f 00060006 		.ascii	"\000\006\000\006\000\003\000\003\000\003\000\003\000"
 3998      00030003 
 3998      00030003 
 3998      00
 3999 017c 03000300 		.ascii	"\003\000\003\000\006\000\006\000\006\000\014\000\014"
 3999      06000600 
 3999      06000C00 
 3999      0C
 4000 0189 00000000 		.ascii	"\000\000\000\000\000\000\000\000\000\003\000\003\000"
 4000      00000000 
 4000      00030003 
 4000      00
 4001 0196 03001B60 		.ascii	"\003\000\033`\037\340\007\200\007\200\017\300\014\300"
 4001      1FE00780 
 4001      07800FC0 
 4001      0CC0
 4002 01a4 00000000 		.ascii	"\000\000\000\000\000\000\000\000\000\000\000\000\000"
 4002      00000000 
 4002      00000000 
 4002      00
 4003 01b1 00000000 		.ascii	"\000\000\000\000\000\000\000\000\000\000\000\000\000"
 4003      00000000 
 4003      00000000 
ARM GAS  /tmp/ccsDiBBo.s 			page 126


 4003      00
 4004 01be 03000300 		.ascii	"\003\000\003\000\003\000\003\000?\360?\360\003\000\003"
 4004      03000300 
 4004      3FF03FF0 
 4004      030003
 4005 01cd 00030003 		.ascii	"\000\003\000\003\000\000\000\000\000\000\000\000\000"
 4005      00000000 
 4005      00000000 
 4005      00
 4006 01da 00000000 		.ascii	"\000\000\000\000\000\000\000\000\000\000\000\000\000"
 4006      00000000 
 4006      00000000 
 4006      00
 4007 01e7 00000000 		.ascii	"\000\000\000\000\000\000\000\000\000\000\000\000\000"
 4007      00000000 
 4007      00000000 
 4007      00
 4008 01f4 00000380 		.ascii	"\000\000\003\200\003\000\003\000\006\000\006\000\004"
 4008      03000300 
 4008      06000600 
 4008      04
 4009 0201 00000000 		.ascii	"\000\000\000\000\000\000\000\000\000\000\000\000\000"
 4009      00000000 
 4009      00000000 
 4009      00
 4010 020e 00000000 		.ascii	"\000\000\000\000\000\000\000\000?\340?\340\000\000\000"
 4010      00000000 
 4010      3FE03FE0 
 4010      000000
 4011 021d 00000000 		.ascii	"\000\000\000\000\000\000\000\000\000\000\000\000\000"
 4011      00000000 
 4011      00000000 
 4011      00
 4012 022a 00000000 		.ascii	"\000\000\000\000\000\000\000\000\000\000\000\000\000"
 4012      00000000 
 4012      00000000 
 4012      00
 4013 0237 00000000 		.ascii	"\000\000\000\000\000\000\000\000\000\000\000\000\000"
 4013      00000000 
 4013      00000000 
 4013      00
 4014 0244 00000380 		.ascii	"\000\000\003\200\003\200\003\200\000\000\000\000\000"
 4014      03800380 
 4014      00000000 
 4014      00
 4015 0251 00000000 		.ascii	"\000\000\000\000\000\000\000\000`\000`\000\300\000\300"
 4015      00000000 
 4015      60006000 
 4015      C000C0
 4016 0260 00C00180 		.ascii	"\000\300\001\200\001\200\003\000\003\000\006\000\006"
 4016      01800300 
 4016      03000600 
 4016      06
 4017 026d 000C000C 		.ascii	"\000\014\000\014\000\014\000\030\000\030\000\000\000"
 4017      000C0018 
 4017      00180000 
 4017      00
ARM GAS  /tmp/ccsDiBBo.s 			page 127


 4018 027a 00000000 		.ascii	"\000\000\000\000\000\000\000\000\017\200\037\300\030"
 4018      00000000 
 4018      0F801FC0 
 4018      18
 4019 0287 C0306030 		.ascii	"\3000`0`0`0`0`0`0`\030\300\037\300\017\200\000\000\000"
 4019      60306030 
 4019      60306030 
 4019      60306018 
 4019      C01FC00F 
 4020 029f 00000000 		.ascii	"\000\000\000\000\000\000\000\000\000\000\000\003\000"
 4020      00000000 
 4020      00000003 
 4020      00
 4021 02ac 1F001F00 		.ascii	"\037\000\037\000\003\000\003\000\003\000\003\000\003"
 4021      03000300 
 4021      03000300 
 4021      03
 4022 02b9 00030003 		.ascii	"\000\003\000\003\000\003\000\037\340\037\340\000\000"
 4022      0003001F 
 4022      E01FE000 
 4022      00
 4023 02c6 00000000 		.ascii	"\000\000\000\000\000\000\000\000\000\000\000\000\017"
 4023      00000000 
 4023      00000000 
 4023      0F
 4024 02d3 801FC038 		.ascii	"\200\037\3008\3400`\000`\000\300\001\200\003\000\006"
 4024      E0306000 
 4024      6000C001 
 4024      80030006 
 4025 02e3 000C0018 		.ascii	"\000\014\000\030\000?\340?\340\000\000\000\000\000\000"
 4025      003FE03F 
 4025      E0000000 
 4025      000000
 4026 02f2 00000000 		.ascii	"\000\000\000\000\000\000\000\000\017\200?\3000\340\000"
 4026      00000000 
 4026      0F803FC0 
 4026      30E000
 4027 0301 6000E007 		.ascii	"`\000\340\007\300\007\300\000\340\000`\000``\340\177"
 4027      C007C000 
 4027      E0006000 
 4027      6060E07F 
 4028 0311 C03F8000 		.ascii	"\300?\200\000\000\000\000\000\000\000\000\000\000\000"
 4028      00000000 
 4028      00000000 
 4028      0000
 4029 031f 00000001 		.ascii	"\000\000\000\001\300\003\300\003\300\006\300\014\300"
 4029      C003C003 
 4029      C006C00C 
 4029      C0
 4030 032c 0CC018C0 		.ascii	"\014\300\030\3000\300?\340?\340\000\300\003\340\003"
 4030      30C03FE0 
 4030      3FE000C0 
 4030      03E003
 4031 033b E0000000 		.ascii	"\340\000\000\000\000\000\000\000\000\000\000\000\000"
 4031      00000000 
 4031      00000000 
 4031      00
ARM GAS  /tmp/ccsDiBBo.s 			page 128


 4032 0348 00001FC0 		.ascii	"\000\000\037\300\037\300\030\000\030\000\037\200\037"
 4032      1FC01800 
 4032      18001F80 
 4032      1F
 4033 0355 C018E000 		.ascii	"\300\030\340\000`\000`\000`0\340?\300\037\200\000\000"
 4033      60006000 
 4033      6030E03F 
 4033      C01F8000 
 4033      00
 4034 0366 00000000 		.ascii	"\000\000\000\000\000\000\000\000\000\000\000\000\003"
 4034      00000000 
 4034      00000000 
 4034      03
 4035 0373 E00FE01E 		.ascii	"\340\017\340\036\000\030\0008\0007\200?\3008\3400`0"
 4035      00180038 
 4035      0037803F 
 4035      C038E030 
 4035      6030
 4036 0385 6018E01F 		.ascii	"`\030\340\037\300\007\200\000\000\000\000\000\000\000"
 4036      C0078000 
 4036      00000000 
 4036      0000
 4037 0393 00000000 		.ascii	"\000\000\000\000\000\000\000?\340?\3400`\000`\000\300"
 4037      0000003F 
 4037      E03FE030 
 4037      60006000 
 4037      C0
 4038 03a4 00C000C0 		.ascii	"\000\300\000\300\001\200\001\200\001\200\003\000\003"
 4038      01800180 
 4038      01800300 
 4038      03
 4039 03b1 00030000 		.ascii	"\000\003\000\000\000\000\000\000\000\000\000\000\000"
 4039      00000000 
 4039      00000000 
 4039      00
 4040 03be 00000000 		.ascii	"\000\000\000\000\017\200\037\3008\3400`8\340\037\300"
 4040      0F801FC0 
 4040      38E03060 
 4040      38E01FC0 
 4041 03ce 1FC038E0 		.ascii	"\037\3008\3400`0`8\340\037\300\017\200\000\000\000\000"
 4041      30603060 
 4041      38E01FC0 
 4041      0F800000 
 4041      0000
 4042 03e0 00000000 		.ascii	"\000\000\000\000\000\000\000\000\000\000\017\000\037"
 4042      00000000 
 4042      00000F00 
 4042      1F
 4043 03ed C038C030 		.ascii	"\3008\3000`0`8\340\037\340\017`\000\340\000\300\003"
 4043      60306038 
 4043      E01FE00F 
 4043      6000E000 
 4043      C003
 4044 03ff C03F803E 		.ascii	"\300?\200>\000\000\000\000\000\000\000\000\000\000\000"
 4044      00000000 
 4044      00000000 
 4044      000000
ARM GAS  /tmp/ccsDiBBo.s 			page 129


 4045 040e 00000000 		.ascii	"\000\000\000\000\000\000\000\000\000\000\000\000\003"
 4045      00000000 
 4045      00000000 
 4045      03
 4046 041b 80038003 		.ascii	"\200\003\200\003\200\000\000\000\000\000\000\003\200"
 4046      80000000 
 4046      00000003 
 4046      80
 4047 0428 03800380 		.ascii	"\003\200\003\200\000\000\000\000\000\000\000\000\000"
 4047      00000000 
 4047      00000000 
 4047      00
 4048 0435 00000000 		.ascii	"\000\000\000\000\000\000\000\000\000\000\000\000\000"
 4048      00000000 
 4048      00000000 
 4048      00
 4049 0442 01C001C0 		.ascii	"\001\300\001\300\001\300\000\000\000\000\000\000\003"
 4049      01C00000 
 4049      00000000 
 4049      03
 4050 044f 80030006 		.ascii	"\200\003\000\006\000\006\000\004\000\000\000\000\000"
 4050      00060004 
 4050      00000000 
 4050      00
 4051 045c 00000000 		.ascii	"\000\000\000\000\000\000\000\000\000\000\0000\000\360"
 4051      00000000 
 4051      00000030 
 4051      00F0
 4052 046a 03C00700 		.ascii	"\003\300\007\000\034\000x\000\034\000\007\000\003\300"
 4052      1C007800 
 4052      1C000700 
 4052      03C0
 4053 0478 00F00030 		.ascii	"\000\360\0000\000\000\000\000\000\000\000\000\000\000"
 4053      00000000 
 4053      00000000 
 4053      0000
 4054 0486 00000000 		.ascii	"\000\000\000\000\000\000\000\000\000\000\000\000\177"
 4054      00000000 
 4054      00000000 
 4054      7F
 4055 0493 F07FF000 		.ascii	"\360\177\360\000\000\000\000\177\360\177\360\000\000"
 4055      0000007F 
 4055      F07FF000 
 4055      00
 4056 04a0 00000000 		.ascii	"\000\000\000\000\000\000\000\000\000\000\000\000\000"
 4056      00000000 
 4056      00000000 
 4056      00
 4057 04ad 00000000 		.ascii	"\000\000\000\000\000\000\000\000\0000\000<\000\017\000"
 4057      00000000 
 4057      0030003C 
 4057      000F00
 4058 04bc 038000E0 		.ascii	"\003\200\000\340\000x\000\340\003\200\017\000<\0000"
 4058      007800E0 
 4058      03800F00 
 4058      3C0030
 4059 04cb 00000000 		.ascii	"\000\000\000\000\000\000\000\000\000\000\000\000\000"
ARM GAS  /tmp/ccsDiBBo.s 			page 130


 4059      00000000 
 4059      00000000 
 4059      00
 4060 04d8 00000000 		.ascii	"\000\000\000\000\017\200\037\300\030`\030`\000`\001"
 4060      0F801FC0 
 4060      18601860 
 4060      006001
 4061 04e7 C0038003 		.ascii	"\300\003\200\003\000\000\000\000\000\007\000\007\000"
 4061      00000000 
 4061      00070007 
 4061      00
 4062 04f4 00000000 		.ascii	"\000\000\000\000\000\000\000\000\000\000\000\000\000"
 4062      00000000 
 4062      00000000 
 4062      00
 4063 0501 0003800C 		.ascii	"\000\003\200\014\200\010@\020@\020@\021\300\022@\022"
 4063      80084010 
 4063      40104011 
 4063      C0124012 
 4064 0511 40124011 		.ascii	"@\022@\021\300\020\000\010\000\010@\007\200\000\000"
 4064      C0100008 
 4064      00084007 
 4064      800000
 4065 0520 00000000 		.ascii	"\000\000\000\000\000\000\000\000\000\000\000\000\037"
 4065      00000000 
 4065      00000000 
 4065      1F
 4066 052d 801F8003 		.ascii	"\200\037\200\003\200\006\300\006\300\014\300\014`\037"
 4066      8006C006 
 4066      C00CC00C 
 4066      601F
 4067 053b E01FE030 		.ascii	"\340\037\34000xxxx\000\000\000\000\000\000\000\000\000"
 4067      30787878 
 4067      78000000 
 4067      00000000 
 4067      0000
 4068 054d 00000000 		.ascii	"\000\000\000\000\000\000\000?\200?\300\030`\030`\030"
 4068      0000003F 
 4068      803FC018 
 4068      60186018 
 4069 055d E01FC01F 		.ascii	"\340\037\300\037\340\030p\0300\0300?\360?\340\000\000"
 4069      E0187018 
 4069      3018303F 
 4069      F03FE000 
 4069      00
 4070 056e 00000000 		.ascii	"\000\000\000\000\000\000\000\000\000\000\000\000\000"
 4070      00000000 
 4070      00000000 
 4070      00
 4071 057b 0007B00F 		.ascii	"\000\007\260\017\360\034p800\0000\0000\0000\00080\034"
 4071      F01C7038 
 4071      30300030 
 4071      00300030 
 4071      0038301C 
 4072 058f 700FE007 		.ascii	"p\017\340\007\300\000\000\000\000\000\000\000\000\000"
 4072      C0000000 
 4072      00000000 
ARM GAS  /tmp/ccsDiBBo.s 			page 131


 4072      0000
 4073 059d 00000000 		.ascii	"\000\000\000\000\000\000\000\177\200\177\3000\3400p"
 4073      0000007F 
 4073      807FC030 
 4073      E03070
 4074 05ac 30303030 		.ascii	"000000000p0\340\177\300\177\200\000\000\000\000\000"
 4074      30303030 
 4074      307030E0 
 4074      7FC07F80 
 4074      00000000 
 4075 05c1 00000000 		.ascii	"\000\000\000\000\000\000\000\000\000\000\000?\360?\360"
 4075      00000000 
 4075      0000003F 
 4075      F03FF0
 4076 05d0 18301830 		.ascii	"\0300\0300\031\200\037\200\037\200\031\200\0300\030"
 4076      19801F80 
 4076      1F801980 
 4076      183018
 4077 05df 303FF03F 		.ascii	"0?\360?\360\000\000\000\000\000\000\000\000\000\000"
 4077      F0000000 
 4077      00000000 
 4077      000000
 4078 05ee 00000000 		.ascii	"\000\000\000\000\000\000?\360?\360\0300\0300\031\200"
 4078      00003FF0 
 4078      3FF01830 
 4078      18301980 
 4079 05fe 1F801F80 		.ascii	"\037\200\037\200\031\200\030\000\030\000?\000?\000\000"
 4079      19801800 
 4079      18003F00 
 4079      3F0000
 4080 060d 00000000 		.ascii	"\000\000\000\000\000\000\000\000\000\000\000\000\000"
 4080      00000000 
 4080      00000000 
 4080      00
 4081 061a 000007B0 		.ascii	"\000\000\007\260\037\360\030p000\0000\0001\3701\370"
 4081      1FF01870 
 4081      30303000 
 4081      300031F8 
 4081      31F8
 4082 062c 30301830 		.ascii	"00\0300\037\360\007\300\000\000\000\000\000\000\000"
 4082      1FF007C0 
 4082      00000000 
 4082      000000
 4083 063b 00000000 		.ascii	"\000\000\000\000\000\000\000\000\000<\360<\360\030`"
 4083      00000000 
 4083      003CF03C 
 4083      F01860
 4084 064a 18601860 		.ascii	"\030`\030`\037\340\037\340\030`\030`\030`<\360<\360"
 4084      1FE01FE0 
 4084      18601860 
 4084      18603CF0 
 4084      3CF0
 4085 065c 00000000 		.ascii	"\000\000\000\000\000\000\000\000\000\000\000\000\000"
 4085      00000000 
 4085      00000000 
 4085      00
 4086 0669 0000001F 		.ascii	"\000\000\000\037\340\037\340\003\000\003\000\003\000"
ARM GAS  /tmp/ccsDiBBo.s 			page 132


 4086      E01FE003 
 4086      00030003 
 4086      00
 4087 0676 03000300 		.ascii	"\003\000\003\000\003\000\003\000\003\000\037\340\037"
 4087      03000300 
 4087      03001FE0 
 4087      1F
 4088 0683 E0000000 		.ascii	"\340\000\000\000\000\000\000\000\000\000\000\000\000"
 4088      00000000 
 4088      00000000 
 4088      00
 4089 0690 00000000 		.ascii	"\000\000\000\000\003\370\003\370\000`\000`\000`\000"
 4089      03F803F8 
 4089      00600060 
 4089      006000
 4090 069f 60306030 		.ascii	"`0`0`0`0\340?\300\017\200\000\000\000\000\000\000\000"
 4090      60306030 
 4090      E03FC00F 
 4090      80000000 
 4090      00000000 
 4091 06b3 00000000 		.ascii	"\000\000\000\000\000\000\000\000\000>\370>\370\030\340"
 4091      00000000 
 4091      003EF83E 
 4091      F818E0
 4092 06c2 19801B00 		.ascii	"\031\200\033\000\037\000\035\200\030\300\030\300\030"
 4092      1F001D80 
 4092      18C018C0 
 4092      18
 4093 06cf 603E783E 		.ascii	"`>x>8\000\000\000\000\000\000\000\000\000\000\000\000"
 4093      38000000 
 4093      00000000 
 4093      00000000 
 4093      00
 4094 06e0 00000000 		.ascii	"\000\000\000\000?\000?\000\014\000\014\000\014\000\014"
 4094      3F003F00 
 4094      0C000C00 
 4094      0C000C
 4095 06ef 000C000C 		.ascii	"\000\014\000\0140\0140\0140?\360?\360\000\000\000\000"
 4095      300C300C 
 4095      303FF03F 
 4095      F0000000 
 4095      00
 4096 0700 00000000 		.ascii	"\000\000\000\000\000\000\000\000\000\000\000\000xxx"
 4096      00000000 
 4096      00000000 
 4096      787878
 4097 070f 7838703C 		.ascii	"x8p<\3604\2607\2607\260303000|\370|\370\000\000\000"
 4097      F034B037 
 4097      B037B033 
 4097      30333030 
 4097      307CF87C 
 4098 0727 00000000 		.ascii	"\000\000\000\000\000\000\000\000\000\000\000\000\000"
 4098      00000000 
 4098      00000000 
 4098      00
 4099 0734 39F03DF0 		.ascii	"9\360=\360\034`\036`\036`\033`\033`\031\340\031\340"
 4099      1C601E60 
ARM GAS  /tmp/ccsDiBBo.s 			page 133


 4099      1E601B60 
 4099      1B6019E0 
 4099      19E0
 4100 0746 18E03EE0 		.ascii	"\030\340>\340>`\000\000\000\000\000\000\000\000\000"
 4100      3E600000 
 4100      00000000 
 4100      000000
 4101 0755 00000000 		.ascii	"\000\000\000\000\000\000\000\007\200\017\300\034\340"
 4101      00000007 
 4101      800FC01C 
 4101      E0
 4102 0762 38703030 		.ascii	"8p000000008p\034\340\017\300\007\200\000\000\000\000"
 4102      30303030 
 4102      30303870 
 4102      1CE00FC0 
 4102      07800000 
 4103 0778 00000000 		.ascii	"\000\000\000\000\000\000\000\000\000\000\000\000?\300"
 4103      00000000 
 4103      00000000 
 4103      3FC0
 4104 0786 3FE01870 		.ascii	"?\340\030p\0300\0300\030p\037\340\037\300\030\000\030"
 4104      18301830 
 4104      18701FE0 
 4104      1FC01800 
 4104      18
 4105 0797 003F003F 		.ascii	"\000?\000?\000\000\000\000\000\000\000\000\000\000\000"
 4105      00000000 
 4105      00000000 
 4105      000000
 4106 07a6 00000000 		.ascii	"\000\000\000\000\000\000\007\200\017\300\034\3408p0"
 4106      00000780 
 4106      0FC01CE0 
 4106      387030
 4107 07b5 30303030 		.ascii	"00000008p\034\340\017\300\007\200\007\260\017\360\014"
 4107      30303038 
 4107      701CE00F 
 4107      C0078007 
 4107      B00FF00C 
 4108 07c9 E0000000 		.ascii	"\340\000\000\000\000\000\000"
 4108      000000
 4109 07d0 00000000 		.ascii	"\000\000\000\000?\300?\340\030p\0300\030p\037\340\037"
 4109      3FC03FE0 
 4109      18701830 
 4109      18701FE0 
 4109      1F
 4110 07e1 C018E018 		.ascii	"\300\030\340\030`\030p>8>\030\000\000\000\000\000\000"
 4110      6018703E 
 4110      383E1800 
 4110      00000000 
 4110      00
 4111 07f2 00000000 		.ascii	"\000\000\000\000\000\000\000\000\000\000\017\260\037"
 4111      00000000 
 4111      00000FB0 
 4111      1F
 4112 07ff F0387030 		.ascii	"\3608p008\000\037\200\007\340\000p008p?\3407\300\000"
 4112      3038001F 
 4112      8007E000 
ARM GAS  /tmp/ccsDiBBo.s 			page 134


 4112      70303038 
 4112      703FE037 
 4113 0815 00000000 		.ascii	"\000\000\000\000\000\000\000\000\000\000\000\000\000"
 4113      00000000 
 4113      00000000 
 4113      00
 4114 0822 00003FF0 		.ascii	"\000\000?\360?\360303030\003\000\003\000\003\000\003"
 4114      3FF03330 
 4114      33303330 
 4114      03000300 
 4114      030003
 4115 0835 0003000F 		.ascii	"\000\003\000\017\300\017\300\000\000\000\000\000\000"
 4115      C00FC000 
 4115      00000000 
 4115      00
 4116 0842 00000000 		.ascii	"\000\000\000\000\000\000\000\000\000\000<\360<\360\030"
 4116      00000000 
 4116      00003CF0 
 4116      3CF018
 4117 0851 60186018 		.ascii	"`\030`\030`\030`\030`\030`\030`\034\340\017\300\007"
 4117      60186018 
 4117      60186018 
 4117      601CE00F 
 4117      C007
 4118 0863 80000000 		.ascii	"\200\000\000\000\000\000\000\000\000\000\000\000\000"
 4118      00000000 
 4118      00000000 
 4118      00
 4119 0870 00000000 		.ascii	"\000\000\000\000x\360x\3600`0`\030\300\030\300\015\200"
 4119      78F078F0 
 4119      30603060 
 4119      18C018C0 
 4119      0D80
 4120 0882 0D800D80 		.ascii	"\015\200\015\200\007\000\007\000\007\000\000\000\000"
 4120      07000700 
 4120      07000000 
 4120      00
 4121 088f 00000000 		.ascii	"\000\000\000\000\000\000\000\000\000\000\000\000\000"
 4121      00000000 
 4121      00000000 
 4121      00
 4122 089c 7C7C7C7C 		.ascii	"||||0\0303\2303\2303\2306\330\026\320\034p\034p\034"
 4122      30183398 
 4122      33983398 
 4122      36D816D0 
 4122      1C701C70 
 4123 08b1 70183000 		.ascii	"p\0300\000\000\000\000\000\000\000\000\000\000\000\000"
 4123      00000000 
 4123      00000000 
 4123      000000
 4124 08c0 00000000 		.ascii	"\000\000\000\000x\360x\3600`\030\300\015\200\007\000"
 4124      78F078F0 
 4124      306018C0 
 4124      0D800700 
 4125 08d0 07000D80 		.ascii	"\007\000\015\200\030\3000`x\360x\360\000\000\000\000"
 4125      18C03060 
 4125      78F078F0 
ARM GAS  /tmp/ccsDiBBo.s 			page 135


 4125      00000000 
 4126 08e0 00000000 		.ascii	"\000\000\000\000\000\000\000\000\000\000\000\000<\360"
 4126      00000000 
 4126      00000000 
 4126      3CF0
 4127 08ee 3CF01860 		.ascii	"<\360\030`\014\300\007\200\007\200\003\000\003\000\003"
 4127      0CC00780 
 4127      07800300 
 4127      030003
 4128 08fd 0003000F 		.ascii	"\000\003\000\017\300\017\300\000\000\000\000\000\000"
 4128      C00FC000 
 4128      00000000 
 4128      00
 4129 090a 00000000 		.ascii	"\000\000\000\000\000\000\000\000\000\000\037\340\037"
 4129      00000000 
 4129      00001FE0 
 4129      1F
 4130 0917 E0186018 		.ascii	"\340\030`\030\300\001\200\003\000\003\000\006\000\014"
 4130      C0018003 
 4130      00030006 
 4130      000C
 4131 0925 6018601F 		.ascii	"`\030`\037\340\037\340\000\000\000\000\000\000\000\000"
 4131      E01FE000 
 4131      00000000 
 4131      000000
 4132 0934 00000000 		.ascii	"\000\000\000\000\000\000\003\300\003\300\003\000\003"
 4132      000003C0 
 4132      03C00300 
 4132      03
 4133 0941 00030003 		.ascii	"\000\003\000\003\000\003\000\003\000\003\000\003\000"
 4133      00030003 
 4133      00030003 
 4133      00
 4134 094e 03000300 		.ascii	"\003\000\003\000\003\000\003\000\003\300\003\300\000"
 4134      03000300 
 4134      03C003C0 
 4134      00
 4135 095b 00000000 		.ascii	"\000\000\000\000\000\030\000\030\000\014\000\014\000"
 4135      00180018 
 4135      000C000C 
 4135      00
 4136 0968 0C000600 		.ascii	"\014\000\006\000\006\000\003\000\003\000\001\200\001"
 4136      06000300 
 4136      03000180 
 4136      01
 4137 0975 8000C000 		.ascii	"\200\000\300\000\300\000\300\000`\000`\000\000\000\000"
 4137      C000C000 
 4137      60006000 
 4137      000000
 4138 0984 00000000 		.ascii	"\000\000\000\000\000\000\017\000\017\000\003\000\003"
 4138      00000F00 
 4138      0F000300 
 4138      03
 4139 0991 00030003 		.ascii	"\000\003\000\003\000\003\000\003\000\003\000\003\000"
 4139      00030003 
 4139      00030003 
 4139      00
ARM GAS  /tmp/ccsDiBBo.s 			page 136


 4140 099e 03000300 		.ascii	"\003\000\003\000\003\000\003\000\017\000\017\000\000"
 4140      03000300 
 4140      0F000F00 
 4140      00
 4141 09ab 00000000 		.ascii	"\000\000\000\000\000\000\000\002\000\007\000\015\200"
 4141      00000002 
 4141      0007000D 
 4141      80
 4142 09b8 18C03060 		.ascii	"\030\3000`  \000\000\000\000\000\000\000\000\000\000"
 4142      20200000 
 4142      00000000 
 4142      00000000 
 4143 09c8 00000000 		.ascii	"\000\000\000\000\000\000\000\000\000\000\000\000\000"
 4143      00000000 
 4143      00000000 
 4143      00
 4144 09d5 00000000 		.ascii	"\000\000\000\000\000\000\000\000\000\000\000\000\000"
 4144      00000000 
 4144      00000000 
 4144      00
 4145 09e2 00000000 		.ascii	"\000\000\000\000\000\000\000\000\000\000\000\000\000"
 4145      00000000 
 4145      00000000 
 4145      00
 4146 09ef 00000000 		.ascii	"\000\000\000\000\000\000\000\000\000\000\000\000\000"
 4146      00000000 
 4146      00000000 
 4146      00
 4147 09fc FFFCFFFC 		.ascii	"\377\374\377\374\000\000\004\000\003\000\000\200\000"
 4147      00000400 
 4147      03000080 
 4147      00
 4148 0a09 00000000 		.ascii	"\000\000\000\000\000\000\000\000\000\000\000\000\000"
 4148      00000000 
 4148      00000000 
 4148      00
 4149 0a16 00000000 		.ascii	"\000\000\000\000\000\000\000\000\000\000\000\000\000"
 4149      00000000 
 4149      00000000 
 4149      00
 4150 0a23 00000000 		.ascii	"\000\000\000\000\000\000\000\000\000\000\000\000\000"
 4150      00000000 
 4150      00000000 
 4150      00
 4151 0a30 00000FC0 		.ascii	"\000\000\017\300\037\340\000`\017\340\037\3408`0\340"
 4151      1FE00060 
 4151      0FE01FE0 
 4151      386030E0 
 4152 0a40 3FF01F70 		.ascii	"?\360\037p\000\000\000\000\000\000\000\000\000\000\000"
 4152      00000000 
 4152      00000000 
 4152      000000
 4153 0a4f 00000070 		.ascii	"\000\000\000p\000p\0000\0000\0007\200?\3408`0000008"
 4153      00700030 
 4153      00300037 
 4153      803FE038 
 4153      60303030 
ARM GAS  /tmp/ccsDiBBo.s 			page 137


 4154 0a67 607FE077 		.ascii	"`\177\340w\200\000\000\000\000\000\000\000\000\000\000"
 4154      80000000 
 4154      00000000 
 4154      000000
 4155 0a76 00000000 		.ascii	"\000\000\000\000\000\000\000\000\000\000\000\000\007"
 4155      00000000 
 4155      00000000 
 4155      07
 4156 0a83 B01FF018 		.ascii	"\260\037\360\0300000\0000\00080\037\360\017\300\000"
 4156      30303030 
 4156      00300038 
 4156      301FF00F 
 4156      C000
 4157 0a95 00000000 		.ascii	"\000\000\000\000\000\000\000\000\000\000\000\000\000"
 4157      00000000 
 4157      00000000 
 4157      00
 4158 0aa2 00700070 		.ascii	"\000p\000p\0000\0000\007\260\037\360\030p0000008p\037"
 4158      00300030 
 4158      07B01FF0 
 4158      18703030 
 4158      30303030 
 4159 0ab9 F807B800 		.ascii	"\370\007\270\000\000\000\000\000\000\000\000\000\000"
 4159      00000000 
 4159      00000000 
 4159      00
 4160 0ac6 00000000 		.ascii	"\000\000\000\000\000\000\000\000\000\000\000\000\007"
 4160      00000000 
 4160      00000000 
 4160      07
 4161 0ad3 801FE018 		.ascii	"\200\037\340\030`?\360?\3600\000\0300\037\360\007\300"
 4161      603FF03F 
 4161      F0300018 
 4161      301FF007 
 4161      C0
 4162 0ae4 00000000 		.ascii	"\000\000\000\000\000\000\000\000\000\000\000\000\000"
 4162      00000000 
 4162      00000000 
 4162      00
 4163 0af1 0003F007 		.ascii	"\000\003\360\007\360\006\000\006\000\037\340\037\340"
 4163      F0060006 
 4163      001FE01F 
 4163      E0
 4164 0afe 06000600 		.ascii	"\006\000\006\000\006\000\006\000\006\000\037\340\037"
 4164      06000600 
 4164      06001FE0 
 4164      1F
 4165 0b0b E0000000 		.ascii	"\340\000\000\000\000\000\000\000\000\000\000\000\000"
 4165      00000000 
 4165      00000000 
 4165      00
 4166 0b18 00000000 		.ascii	"\000\000\000\000\000\000\000\000\000\000\007\270\037"
 4166      00000000 
 4166      000007B8 
 4166      1F
 4167 0b25 F8187030 		.ascii	"\370\030p000000\030p\037\360\007\260\0000\000p\017\340"
 4167      30303030 
ARM GAS  /tmp/ccsDiBBo.s 			page 138


 4167      3018701F 
 4167      F007B000 
 4167      3000700F 
 4168 0b3a 0FC00000 		.ascii	"\017\300\000\000\000\000\000\0008\0008\000\030\000\030"
 4168      00000000 
 4168      38003800 
 4168      180018
 4169 0b49 001BC01F 		.ascii	"\000\033\300\037\340\034`\030`\030`\030`\030`<\360<"
 4169      E01C6018 
 4169      60186018 
 4169      6018603C 
 4169      F03C
 4170 0b5b F0000000 		.ascii	"\360\000\000\000\000\000\000\000\000\000\000\000\000"
 4170      00000000 
 4170      00000000 
 4170      00
 4171 0b68 00000300 		.ascii	"\000\000\003\000\003\000\000\000\000\000\037\000\037"
 4171      03000000 
 4171      00001F00 
 4171      1F
 4172 0b75 00030003 		.ascii	"\000\003\000\003\000\003\000\003\000\003\000\037\340"
 4172      00030003 
 4172      0003001F 
 4172      E0
 4173 0b82 1FE00000 		.ascii	"\037\340\000\000\000\000\000\000\000\000\000\000\000"
 4173      00000000 
 4173      00000000 
 4173      00
 4174 0b8f 00000003 		.ascii	"\000\000\000\003\000\003\000\000\000\000\000\037\300"
 4174      00030000 
 4174      0000001F 
 4174      C0
 4175 0b9c 1FC000C0 		.ascii	"\037\300\000\300\000\300\000\300\000\300\000\300\000"
 4175      00C000C0 
 4175      00C000C0 
 4175      00
 4176 0ba9 C000C000 		.ascii	"\300\000\300\000\300\001\300?\200?\000\000\000\000\000"
 4176      C001C03F 
 4176      803F0000 
 4176      000000
 4177 0bb8 00003800 		.ascii	"\000\0008\0008\000\030\000\030\000\033\340\033\340\033"
 4177      38001800 
 4177      18001BE0 
 4177      1BE01B
 4178 0bc7 001E001E 		.ascii	"\000\036\000\036\000\033\000\031\2009\3609\360\000\000"
 4178      001B0019 
 4178      8039F039 
 4178      F00000
 4179 0bd6 00000000 		.ascii	"\000\000\000\000\000\000\000\000\000\000\000\000\037"
 4179      00000000 
 4179      00000000 
 4179      1F
 4180 0be3 001F0003 		.ascii	"\000\037\000\003\000\003\000\003\000\003\000\003\000"
 4180      00030003 
 4180      00030003 
 4180      00
 4181 0bf0 03000300 		.ascii	"\003\000\003\000\003\000\003\000\037\340\037\340\000"
ARM GAS  /tmp/ccsDiBBo.s 			page 139


 4181      03000300 
 4181      1FE01FE0 
 4181      00
 4182 0bfd 00000000 		.ascii	"\000\000\000\000\000\000\000\000\000\000\000\000\000"
 4182      00000000 
 4182      00000000 
 4182      00
 4183 0c0a 00000000 		.ascii	"\000\000\000\000\000\000\000\000~\340\177\360303030"
 4183      00000000 
 4183      7EE07FF0 
 4183      33303330 
 4183      3330
 4184 0c1c 33303330 		.ascii	"3030{\270{\270\000\000\000\000\000\000\000\000\000\000"
 4184      7BB87BB8 
 4184      00000000 
 4184      00000000 
 4184      0000
 4185 0c2e 00000000 		.ascii	"\000\000\000\000\000\000\000\000\000\000\000\000;\300"
 4185      00000000 
 4185      00000000 
 4185      3BC0
 4186 0c3c 3FE01C60 		.ascii	"?\340\034`\030`\030`\030`\030`<\360<\360\000\000\000"
 4186      18601860 
 4186      18601860 
 4186      3CF03CF0 
 4186      000000
 4187 0c4f 00000000 		.ascii	"\000\000\000\000\000\000\000\000\000\000\000\000\000"
 4187      00000000 
 4187      00000000 
 4187      00
 4188 0c5c 00000000 		.ascii	"\000\000\000\000\000\000\007\200\037\340\030`000000"
 4188      00000780 
 4188      1FE01860 
 4188      30303030 
 4188      3030
 4189 0c6e 18601FE0 		.ascii	"\030`\037\340\007\200\000\000\000\000\000\000\000\000"
 4189      07800000 
 4189      00000000 
 4189      0000
 4190 0c7c 00000000 		.ascii	"\000\000\000\000\000\000\000\000\000\000\000\000\000"
 4190      00000000 
 4190      00000000 
 4190      00
 4191 0c89 0077807F 		.ascii	"\000w\200\177\3408`0000008`?\3407\2000\0000\000|\000"
 4191      E0386030 
 4191      30303030 
 4191      3038603F 
 4191      E0378030 
 4192 0ca2 7C000000 		.ascii	"|\000\000\000\000\000\000\000\000\000\000\000\000\000"
 4192      00000000 
 4192      00000000 
 4192      0000
 4193 0cb0 000007B8 		.ascii	"\000\000\007\270\037\370\030p000000\030p\037\360\007"
 4193      1FF81870 
 4193      30303030 
 4193      30301870 
 4193      1FF007
ARM GAS  /tmp/ccsDiBBo.s 			page 140


 4194 0cc3 B0003000 		.ascii	"\260\0000\0000\000\370\000\370\000\000\000\000\000\000"
 4194      3000F800 
 4194      F8000000 
 4194      000000
 4195 0cd2 00000000 		.ascii	"\000\000\000\000\000\000\000\000<\340=\360\0170\016"
 4195      00000000 
 4195      3CE03DF0 
 4195      0F300E
 4196 0ce1 000C000C 		.ascii	"\000\014\000\014\000\014\000?\300?\300\000\000\000\000"
 4196      000C003F 
 4196      C03FC000 
 4196      000000
 4197 0cf0 00000000 		.ascii	"\000\000\000\000\000\000\000\000\000\000\000\000\000"
 4197      00000000 
 4197      00000000 
 4197      00
 4198 0cfd 00000000 		.ascii	"\000\000\000\000\000\007\340\037\340\030`\036\000\017"
 4198      0007E01F 
 4198      E018601E 
 4198      000F
 4199 0d0b C001E018 		.ascii	"\300\001\340\030`\037\340\037\200\000\000\000\000\000"
 4199      601FE01F 
 4199      80000000 
 4199      0000
 4200 0d19 00000000 		.ascii	"\000\000\000\000\000\000\000\000\000\000\000\014\000"
 4200      00000000 
 4200      0000000C 
 4200      00
 4201 0d26 0C000C00 		.ascii	"\014\000\014\000?\340?\340\014\000\014\000\014\000\014"
 4201      3FE03FE0 
 4201      0C000C00 
 4201      0C000C
 4202 0d35 000C300F 		.ascii	"\000\0140\017\360\007\300\000\000\000\000\000\000\000"
 4202      F007C000 
 4202      00000000 
 4202      0000
 4203 0d43 00000000 		.ascii	"\000\000\000\000\000\000\000\000\000\000\000\000\000"
 4203      00000000 
 4203      00000000 
 4203      00
 4204 0d50 000038E0 		.ascii	"\000\0008\3408\340\030`\030`\030`\030`\030\340\037\360"
 4204      38E01860 
 4204      18601860 
 4204      186018E0 
 4204      1FF0
 4205 0d62 0F700000 		.ascii	"\017p\000\000\000\000\000\000\000\000\000\000\000\000"
 4205      00000000 
 4205      00000000 
 4205      0000
 4206 0d70 00000000 		.ascii	"\000\000\000\000\000\000\000\000\000\000x\360x\3600"
 4206      00000000 
 4206      000078F0 
 4206      78F030
 4207 0d7f 6018C018 		.ascii	"`\030\300\030\300\015\200\015\200\007\000\007\000\000"
 4207      C00D800D 
 4207      80070007 
 4207      0000
ARM GAS  /tmp/ccsDiBBo.s 			page 141


 4208 0d8d 00000000 		.ascii	"\000\000\000\000\000\000\000\000\000\000\000\000\000"
 4208      00000000 
 4208      00000000 
 4208      00
 4209 0d9a 00000000 		.ascii	"\000\000\000\000\000\000\000\000x\360x\3602`2`7\340"
 4209      00000000 
 4209      78F078F0 
 4209      32603260 
 4209      37E0
 4210 0dac 1DC01DC0 		.ascii	"\035\300\035\300\030\300\030\300\000\000\000\000\000"
 4210      18C018C0 
 4210      00000000 
 4210      00
 4211 0db9 00000000 		.ascii	"\000\000\000\000\000\000\000\000\000\000\000\000\000"
 4211      00000000 
 4211      00000000 
 4211      00
 4212 0dc6 00000000 		.ascii	"\000\000\000\000<\360<\360\014\300\007\200\003\000\007"
 4212      3CF03CF0 
 4212      0CC00780 
 4212      030007
 4213 0dd5 800CC03C 		.ascii	"\200\014\300<\360<\360\000\000\000\000\000\000\000\000"
 4213      F03CF000 
 4213      00000000 
 4213      000000
 4214 0de4 00000000 		.ascii	"\000\000\000\000\000\000\000\000\000\000\000\000\000"
 4214      00000000 
 4214      00000000 
 4214      00
 4215 0df1 0078F078 		.ascii	"\000x\360x\3600`\030\300\030\300\015\200\017\200\007"
 4215      F0306018 
 4215      C018C00D 
 4215      800F8007 
 4216 0e01 00060006 		.ascii	"\000\006\000\006\000\014\000\177\000\177\000\000\000"
 4216      000C007F 
 4216      007F0000 
 4216      00
 4217 0e0e 00000000 		.ascii	"\000\000\000\000\000\000\000\000\000\000\000\000\037"
 4217      00000000 
 4217      00000000 
 4217      1F
 4218 0e1b E01FE018 		.ascii	"\340\037\340\030\300\001\200\003\000\006\000\014`\037"
 4218      C0018003 
 4218      0006000C 
 4218      601F
 4219 0e29 E01FE000 		.ascii	"\340\037\340\000\000\000\000\000\000\000\000\000\000"
 4219      00000000 
 4219      00000000 
 4219      00
 4220 0e36 00000000 		.ascii	"\000\000\000\000\001\300\003\300\003\000\003\000\003"
 4220      01C003C0 
 4220      03000300 
 4220      03
 4221 0e43 00030003 		.ascii	"\000\003\000\003\000\007\000\016\000\007\000\003\000"
 4221      0007000E 
 4221      00070003 
 4221      00
ARM GAS  /tmp/ccsDiBBo.s 			page 142


 4222 0e50 03000300 		.ascii	"\003\000\003\000\003\000\003\300\001\300\000\000\000"
 4222      030003C0 
 4222      01C00000 
 4222      00
 4223 0e5d 00000000 		.ascii	"\000\000\000\000\000\003\000\003\000\003\000\003\000"
 4223      00030003 
 4223      00030003 
 4223      00
 4224 0e6a 03000300 		.ascii	"\003\000\003\000\003\000\003\000\003\000\003\000\003"
 4224      03000300 
 4224      03000300 
 4224      03
 4225 0e77 00030003 		.ascii	"\000\003\000\003\000\003\000\003\000\003\000\000\000"
 4225      00030003 
 4225      00030000 
 4225      00
 4226 0e84 00000000 		.ascii	"\000\000\000\000\000\000\034\000\036\000\006\000\006"
 4226      00001C00 
 4226      1E000600 
 4226      06
 4227 0e91 00060006 		.ascii	"\000\006\000\006\000\006\000\007\000\003\200\007\000"
 4227      00060007 
 4227      00038007 
 4227      00
 4228 0e9e 06000600 		.ascii	"\006\000\006\000\006\000\006\000\036\000\034\000\000"
 4228      06000600 
 4228      1E001C00 
 4228      00
 4229 0eab 00000000 		.ascii	"\000\000\000\000\000\000\000\000\000\000\000\000\000"
 4229      00000000 
 4229      00000000 
 4229      00
 4230 0eb8 00000000 		.ascii	"\000\000\000\000\016\000?03\360\001\340\000\000\000"
 4230      0E003F30 
 4230      33F001E0 
 4230      000000
 4231 0ec7 00000000 		.ascii	"\000\000\000\000\000\000\000\000\000\000\000\000\000"
 4231      00000000 
 4231      00000000 
 4231      00
 4232 0ed4 00000000 		.ascii	"\000\000\000\000"
 4233              		.global	Font24
 4234              		.section	.data.Font24,"aw"
 4235              		.align	2
 4238              	Font24:
 4239 0000 00000000 		.word	Font24_Table
 4240 0004 1100     		.short	17
 4241 0006 1800     		.short	24
 4242              		.global	Font24_Table
 4243              		.section	.rodata.Font24_Table,"a"
 4246              	Font24_Table:
 4247 0000 00000000 		.ascii	"\000\000\000\000\000\000\000\000\000\000\000\000\000"
 4247      00000000 
 4247      00000000 
 4247      00
 4248 000d 00000000 		.ascii	"\000\000\000\000\000\000\000\000\000\000\000\000\000"
 4248      00000000 
ARM GAS  /tmp/ccsDiBBo.s 			page 143


 4248      00000000 
 4248      00
 4249 001a 00000000 		.ascii	"\000\000\000\000\000\000\000\000\000\000\000\000\000"
 4249      00000000 
 4249      00000000 
 4249      00
 4250 0027 00000000 		.ascii	"\000\000\000\000\000\000\000\000\000\000\000\000\000"
 4250      00000000 
 4250      00000000 
 4250      00
 4251 0034 00000000 		.ascii	"\000\000\000\000\000\000\000\000\000\000\000\000\000"
 4251      00000000 
 4251      00000000 
 4251      00
 4252 0041 00000000 		.ascii	"\000\000\000\000\000\000\000\000\000\000\000\000\000"
 4252      00000000 
 4252      00000000 
 4252      00
 4253 004e 03800003 		.ascii	"\003\200\000\003\200\000\003\200\000\003\200\000\003"
 4253      80000380 
 4253      00038000 
 4253      03
 4254 005b 80000380 		.ascii	"\200\000\003\200\000\003\200\000\003\200\000\003\200"
 4254      00038000 
 4254      03800003 
 4254      80
 4255 0068 00010000 		.ascii	"\000\001\000\000\001\000\000\000\000\000\000\000\000"
 4255      01000000 
 4255      00000000 
 4255      00
 4256 0075 03800003 		.ascii	"\003\200\000\003\200\000\000\000\000\000\000\000\000"
 4256      80000000 
 4256      00000000 
 4256      00
 4257 0082 00000000 		.ascii	"\000\000\000\000\000\000\000\000\000\000\000\000\000"
 4257      00000000 
 4257      00000000 
 4257      00
 4258 008f 00000000 		.ascii	"\000\000\000\000\000\000\000\000\000\000\016p\000\016"
 4258      00000000 
 4258      00000E70 
 4258      000E
 4259 009d 70000E70 		.ascii	"p\000\016p\000\004 \000\004 \000\004 \000\004 \000\000"
 4259      00042000 
 4259      04200004 
 4259      20000420 
 4259      0000
 4260 00af 00000000 		.ascii	"\000\000\000\000\000\000\000\000\000\000\000\000\000"
 4260      00000000 
 4260      00000000 
 4260      00
 4261 00bc 00000000 		.ascii	"\000\000\000\000\000\000\000\000\000\000\000\000\000"
 4261      00000000 
 4261      00000000 
 4261      00
 4262 00c9 00000000 		.ascii	"\000\000\000\000\000\000\000\000\000\000\000\000\000"
 4262      00000000 
ARM GAS  /tmp/ccsDiBBo.s 			page 144


 4262      00000000 
 4262      00
 4263 00d6 00000000 		.ascii	"\000\000\000\000\000\000\000\000\006`\000\006`\000\006"
 4263      00000000 
 4263      06600006 
 4263      600006
 4264 00e5 60000660 		.ascii	"`\000\006`\000\006`\000?\370\000?\370\000\006`\000\014"
 4264      00066000 
 4264      3FF8003F 
 4264      F8000660 
 4264      000C
 4265 00f7 C0003FF8 		.ascii	"\300\000?\370\000?\370\000\014\300\000\014\300\000\014"
 4265      003FF800 
 4265      0CC0000C 
 4265      C0000C
 4266 0106 C0000CC0 		.ascii	"\300\000\014\300\000\014\300\000\000\000\000\000\000"
 4266      000CC000 
 4266      00000000 
 4266      00
 4267 0113 00000000 		.ascii	"\000\000\000\000\000\000\000\000\000\000\000\000\000"
 4267      00000000 
 4267      00000000 
 4267      00
 4268 0120 00000001 		.ascii	"\000\000\000\001\200\000\001\200\000\007\260\000\017"
 4268      80000180 
 4268      0007B000 
 4268      0F
 4269 012d F0001870 		.ascii	"\360\000\030p\000\030p\000\034\000\000\017\200\000\007"
 4269      00187000 
 4269      1C00000F 
 4269      800007
 4270 013c E00000F0 		.ascii	"\340\000\000\360\000\0300\000\0340\000\034p\000\037"
 4270      00183000 
 4270      1C30001C 
 4270      70001F
 4271 014b E0001BC0 		.ascii	"\340\000\033\300\000\001\200\000\001\200\000\001\200"
 4271      00018000 
 4271      01800001 
 4271      80
 4272 0158 00018000 		.ascii	"\000\001\200\000\000\000\000\000\000\000\000\000\000"
 4272      00000000 
 4272      00000000 
 4272      00
 4273 0165 00000000 		.ascii	"\000\000\000\000\000\000\000\000\000\007\200\000\017"
 4273      00000000 
 4273      00078000 
 4273      0F
 4274 0172 C0001CE0 		.ascii	"\300\000\034\340\000\030`\000\030`\000\034\340\000\017"
 4274      00186000 
 4274      1860001C 
 4274      E0000F
 4275 0181 F80007E0 		.ascii	"\370\000\007\340\000\037\360\000\0078\000\006\030\000"
 4275      001FF000 
 4275      07380006 
 4275      1800
 4276 018f 06180007 		.ascii	"\006\030\000\0078\000\003\360\000\001\340\000\000\000"
 4276      380003F0 
ARM GAS  /tmp/ccsDiBBo.s 			page 145


 4276      0001E000 
 4276      0000
 4277 019d 00000000 		.ascii	"\000\000\000\000\000\000\000\000\000\000\000\000\000"
 4277      00000000 
 4277      00000000 
 4277      00
 4278 01aa 00000000 		.ascii	"\000\000\000\000\000\000\000\000\000\000\000\000\000"
 4278      00000000 
 4278      00000000 
 4278      00
 4279 01b7 00000000 		.ascii	"\000\000\000\000\000\003\360\000\007\360\000\014`\000"
 4279      0003F000 
 4279      07F0000C 
 4279      6000
 4280 01c5 0C00000C 		.ascii	"\014\000\000\014\000\000\006\000\000\007\000\000\017"
 4280      00000600 
 4280      00070000 
 4280      0F
 4281 01d2 9C001DFC 		.ascii	"\234\000\035\374\000\030\360\000\030p\000\017\374\000"
 4281      0018F000 
 4281      1870000F 
 4281      FC00
 4282 01e0 07DC0000 		.ascii	"\007\334\000\000\000\000\000\000\000\000\000\000\000"
 4282      00000000 
 4282      00000000 
 4282      00
 4283 01ed 00000000 		.ascii	"\000\000\000\000\000\000\000\000\000\000\000\000\000"
 4283      00000000 
 4283      00000000 
 4283      00
 4284 01fa 00000000 		.ascii	"\000\000\000\000\000\000\000\003\200\000\003\200\000"
 4284      00000003 
 4284      80000380 
 4284      00
 4285 0207 03800001 		.ascii	"\003\200\000\001\000\000\001\000\000\001\000\000\001"
 4285      00000100 
 4285      00010000 
 4285      01
 4286 0214 00000000 		.ascii	"\000\000\000\000\000\000\000\000\000\000\000\000\000"
 4286      00000000 
 4286      00000000 
 4286      00
 4287 0221 00000000 		.ascii	"\000\000\000\000\000\000\000\000\000\000\000\000\000"
 4287      00000000 
 4287      00000000 
 4287      00
 4288 022e 00000000 		.ascii	"\000\000\000\000\000\000\000\000\000\000\000\000\000"
 4288      00000000 
 4288      00000000 
 4288      00
 4289 023b 00000000 		.ascii	"\000\000\000\000\000\000\000\000\000\000\000\000\030"
 4289      00000000 
 4289      00000000 
 4289      18
 4290 0248 00003800 		.ascii	"\000\0008\000\000p\000\000\360\000\000\340\000\000\340"
 4290      00700000 
 4290      F00000E0 
ARM GAS  /tmp/ccsDiBBo.s 			page 146


 4290      0000E0
 4291 0257 0001C000 		.ascii	"\000\001\300\000\001\300\000\001\300\000\001\300\000"
 4291      01C00001 
 4291      C00001C0 
 4291      00
 4292 0264 01C00001 		.ascii	"\001\300\000\001\300\000\000\340\000\000\340\000\000"
 4292      C00000E0 
 4292      0000E000 
 4292      00
 4293 0271 70000070 		.ascii	"p\000\000p\000\0008\000\000\030\000\000\000\000\000"
 4293      00003800 
 4293      00180000 
 4293      000000
 4294 0280 00000000 		.ascii	"\000\000\000\000\000\000\000\000\000\000\000\000\000"
 4294      00000000 
 4294      00000000 
 4294      00
 4295 028d 00180000 		.ascii	"\000\030\000\000\034\000\000\016\000\000\016\000\000"
 4295      1C00000E 
 4295      00000E00 
 4295      00
 4296 029a 07000007 		.ascii	"\007\000\000\007\000\000\003\200\000\003\200\000\003"
 4296      00000380 
 4296      00038000 
 4296      03
 4297 02a7 80000380 		.ascii	"\200\000\003\200\000\003\200\000\003\200\000\007\000"
 4297      00038000 
 4297      03800007 
 4297      00
 4298 02b4 00070000 		.ascii	"\000\007\000\000\017\000\000\016\000\000\034\000\000"
 4298      0F00000E 
 4298      00001C00 
 4298      00
 4299 02c1 18000000 		.ascii	"\030\000\000\000\000\000\000\000\000\000\000\000\000"
 4299      00000000 
 4299      00000000 
 4299      00
 4300 02ce 00000000 		.ascii	"\000\000\000\000\000\000\000\000\001\200\000\001\200"
 4300      00000000 
 4300      01800001 
 4300      80
 4301 02db 00018000 		.ascii	"\000\001\200\000\035\270\000\037\370\000\007\340\000"
 4301      1DB8001F 
 4301      F80007E0 
 4301      00
 4302 02e8 03C00003 		.ascii	"\003\300\000\003\300\000\006`\000\006`\000\000\000\000"
 4302      C0000660 
 4302      00066000 
 4302      000000
 4303 02f7 00000000 		.ascii	"\000\000\000\000\000\000\000\000\000\000\000\000\000"
 4303      00000000 
 4303      00000000 
 4303      00
 4304 0304 00000000 		.ascii	"\000\000\000\000\000\000\000\000\000\000\000\000\000"
 4304      00000000 
 4304      00000000 
 4304      00
ARM GAS  /tmp/ccsDiBBo.s 			page 147


 4305 0311 00000000 		.ascii	"\000\000\000\000\000\000\000\000\000\000\000\000\000"
 4305      00000000 
 4305      00000000 
 4305      00
 4306 031e 00000000 		.ascii	"\000\000\000\000\000\000\001\200\000\001\200\000\001"
 4306      00000180 
 4306      00018000 
 4306      01
 4307 032b 80000180 		.ascii	"\200\000\001\200\000\001\200\000?\374\000?\374\000\001"
 4307      00018000 
 4307      3FFC003F 
 4307      FC0001
 4308 033a 80000180 		.ascii	"\200\000\001\200\000\001\200\000\001\200\000\001\200"
 4308      00018000 
 4308      01800001 
 4308      80
 4309 0347 00000000 		.ascii	"\000\000\000\000\000\000\000\000\000\000\000\000\000"
 4309      00000000 
 4309      00000000 
 4309      00
 4310 0354 00000000 		.ascii	"\000\000\000\000\000\000\000\000\000\000\000\000\000"
 4310      00000000 
 4310      00000000 
 4310      00
 4311 0361 00000000 		.ascii	"\000\000\000\000\000\000\000\000\000\000\000\000\000"
 4311      00000000 
 4311      00000000 
 4311      00
 4312 036e 00000000 		.ascii	"\000\000\000\000\000\000\000\000\000\000\000\000\000"
 4312      00000000 
 4312      00000000 
 4312      00
 4313 037b 00000000 		.ascii	"\000\000\000\000\000\000\000\000\000\000\000\000\000"
 4313      00000000 
 4313      00000000 
 4313      00
 4314 0388 000000E0 		.ascii	"\000\000\000\340\000\000\300\000\001\300\000\001\200"
 4314      0000C000 
 4314      01C00001 
 4314      80
 4315 0395 00018000 		.ascii	"\000\001\200\000\003\000\000\003\000\000\000\000\000"
 4315      03000003 
 4315      00000000 
 4315      00
 4316 03a2 00000000 		.ascii	"\000\000\000\000\000\000\000\000\000\000\000\000\000"
 4316      00000000 
 4316      00000000 
 4316      00
 4317 03af 00000000 		.ascii	"\000\000\000\000\000\000\000\000\000\000\000\000\000"
 4317      00000000 
 4317      00000000 
 4317      00
 4318 03bc 00000000 		.ascii	"\000\000\000\000\000\000\000\037\370\000\037\370\000"
 4318      0000001F 
 4318      F8001FF8 
 4318      00
 4319 03c9 00000000 		.ascii	"\000\000\000\000\000\000\000\000\000\000\000\000\000"
ARM GAS  /tmp/ccsDiBBo.s 			page 148


 4319      00000000 
 4319      00000000 
 4319      00
 4320 03d6 00000000 		.ascii	"\000\000\000\000\000\000\000\000\000\000\000\000\000"
 4320      00000000 
 4320      00000000 
 4320      00
 4321 03e3 00000000 		.ascii	"\000\000\000\000\000\000\000\000\000\000\000\000\000"
 4321      00000000 
 4321      00000000 
 4321      00
 4322 03f0 00000000 		.ascii	"\000\000\000\000\000\000\000\000\000\000\000\000\000"
 4322      00000000 
 4322      00000000 
 4322      00
 4323 03fd 00000000 		.ascii	"\000\000\000\000\000\000\000\000\000\000\000\000\000"
 4323      00000000 
 4323      00000000 
 4323      00
 4324 040a 00000000 		.ascii	"\000\000\000\000\000\000\000\000\000\000\000\000\000"
 4324      00000000 
 4324      00000000 
 4324      00
 4325 0417 00000003 		.ascii	"\000\000\000\003\300\000\003\300\000\003\300\000\000"
 4325      C00003C0 
 4325      0003C000 
 4325      00
 4326 0424 00000000 		.ascii	"\000\000\000\000\000\000\000\000\000\000\000\000\000"
 4326      00000000 
 4326      00000000 
 4326      00
 4327 0431 00000000 		.ascii	"\000\000\000\000\000\000\000\000\030\000\000\030\000"
 4327      00000000 
 4327      18000018 
 4327      00
 4328 043e 00380000 		.ascii	"\0008\000\0000\000\000p\000\000`\000\000`\000\000\300"
 4328      30000070 
 4328      00006000 
 4328      00600000 
 4328      C0
 4329 044f 0000C000 		.ascii	"\000\000\300\000\001\200\000\001\200\000\003\000\000"
 4329      01800001 
 4329      80000300 
 4329      00
 4330 045c 03000006 		.ascii	"\003\000\000\006\000\000\006\000\000\016\000\000\014"
 4330      00000600 
 4330      000E0000 
 4330      0C
 4331 0469 00001C00 		.ascii	"\000\000\034\000\000\030\000\000\030\000\000\000\000"
 4331      00180000 
 4331      18000000 
 4331      00
 4332 0476 00000000 		.ascii	"\000\000\000\000\000\000\000\000\000\000\000\000\000"
 4332      00000000 
 4332      00000000 
 4332      00
 4333 0483 00000003 		.ascii	"\000\000\000\003\300\000\007\340\000\0140\000\0140\000"
ARM GAS  /tmp/ccsDiBBo.s 			page 149


 4333      C00007E0 
 4333      000C3000 
 4333      0C3000
 4334 0492 18180018 		.ascii	"\030\030\000\030\030\000\030\030\000\030\030\000\030"
 4334      18001818 
 4334      00181800 
 4334      18
 4335 049f 18001818 		.ascii	"\030\000\030\030\000\030\030\000\0140\000\0140\000\007"
 4335      00181800 
 4335      0C30000C 
 4335      300007
 4336 04ae E00003C0 		.ascii	"\340\000\003\300\000\000\000\000\000\000\000\000\000"
 4336      00000000 
 4336      00000000 
 4336      00
 4337 04bb 00000000 		.ascii	"\000\000\000\000\000\000\000\000\000\000\000\000\000"
 4337      00000000 
 4337      00000000 
 4337      00
 4338 04c8 00000000 		.ascii	"\000\000\000\000\000\000\000\200\000\007\200\000\037"
 4338      00000080 
 4338      00078000 
 4338      1F
 4339 04d5 80001D80 		.ascii	"\200\000\035\200\000\001\200\000\001\200\000\001\200"
 4339      00018000 
 4339      01800001 
 4339      80
 4340 04e2 00018000 		.ascii	"\000\001\200\000\001\200\000\001\200\000\001\200\000"
 4340      01800001 
 4340      80000180 
 4340      00
 4341 04ef 01800001 		.ascii	"\001\200\000\001\200\000\037\370\000\037\370\000\000"
 4341      80001FF8 
 4341      001FF800 
 4341      00
 4342 04fc 00000000 		.ascii	"\000\000\000\000\000\000\000\000\000\000\000\000\000"
 4342      00000000 
 4342      00000000 
 4342      00
 4343 0509 00000000 		.ascii	"\000\000\000\000\000\000\000\000\000\000\000\000\000"
 4343      00000000 
 4343      00000000 
 4343      00
 4344 0516 07C0001F 		.ascii	"\007\300\000\037\360\00080\0000\030\0000\030\000\000"
 4344      F0003830 
 4344      00301800 
 4344      30180000 
 4345 0526 18000030 		.ascii	"\030\000\0000\000\000`\000\001\300\000\003\200\000\006"
 4345      00006000 
 4345      01C00003 
 4345      800006
 4346 0535 00000C00 		.ascii	"\000\000\014\000\000\030\000\000?\370\000?\370\000\000"
 4346      00180000 
 4346      3FF8003F 
 4346      F80000
 4347 0544 00000000 		.ascii	"\000\000\000\000\000\000\000\000\000\000\000\000\000"
 4347      00000000 
ARM GAS  /tmp/ccsDiBBo.s 			page 150


 4347      00000000 
 4347      00
 4348 0551 00000000 		.ascii	"\000\000\000\000\000\000\000\000\000\000\000\000\000"
 4348      00000000 
 4348      00000000 
 4348      00
 4349 055e 03C0000F 		.ascii	"\003\300\000\017\340\000\014p\000\0000\000\0000\000"
 4349      E0000C70 
 4349      00003000 
 4349      003000
 4350 056d 00600003 		.ascii	"\000`\000\003\300\000\003\340\000\000p\000\000\030\000"
 4350      C00003E0 
 4350      00007000 
 4350      001800
 4351 057c 00180000 		.ascii	"\000\030\000\000\030\000\0308\000\037\360\000\017\300"
 4351      18001838 
 4351      001FF000 
 4351      0FC0
 4352 058a 00000000 		.ascii	"\000\000\000\000\000\000\000\000\000\000\000\000\000"
 4352      00000000 
 4352      00000000 
 4352      00
 4353 0597 00000000 		.ascii	"\000\000\000\000\000\000\000\000\000\000\000\000\000"
 4353      00000000 
 4353      00000000 
 4353      00
 4354 05a4 000000E0 		.ascii	"\000\000\000\340\000\001\340\000\001\340\000\003`\000"
 4354      0001E000 
 4354      01E00003 
 4354      6000
 4355 05b2 06600006 		.ascii	"\006`\000\006`\000\014`\000\014`\000\030`\0000`\000"
 4355      60000C60 
 4355      000C6000 
 4355      18600030 
 4355      6000
 4356 05c4 3FF8003F 		.ascii	"?\370\000?\370\000\000`\000\003\370\000\003\370\000"
 4356      F8000060 
 4356      0003F800 
 4356      03F800
 4357 05d3 00000000 		.ascii	"\000\000\000\000\000\000\000\000\000\000\000\000\000"
 4357      00000000 
 4357      00000000 
 4357      00
 4358 05e0 00000000 		.ascii	"\000\000\000\000\000\000\000\000\000\000\000\000\000"
 4358      00000000 
 4358      00000000 
 4358      00
 4359 05ed 001FF000 		.ascii	"\000\037\360\000\037\360\000\030\000\000\030\000\000"
 4359      1FF00018 
 4359      00001800 
 4359      00
 4360 05fa 1800001B 		.ascii	"\030\000\000\033\300\000\037\360\000\0340\000\000\030"
 4360      C0001FF0 
 4360      001C3000 
 4360      0018
 4361 0608 00001800 		.ascii	"\000\000\030\000\000\030\000\000\030\00000\000?\360"
 4361      00180000 
ARM GAS  /tmp/ccsDiBBo.s 			page 151


 4361      18003030 
 4361      003FF0
 4362 0617 000FC000 		.ascii	"\000\017\300\000\000\000\000\000\000\000\000\000\000"
 4362      00000000 
 4362      00000000 
 4362      00
 4363 0624 00000000 		.ascii	"\000\000\000\000\000\000\000\000\000\000\000\000\000"
 4363      00000000 
 4363      00000000 
 4363      00
 4364 0631 00000000 		.ascii	"\000\000\000\000\000\000\370\000\003\370\000\007\000"
 4364      0000F800 
 4364      03F80007 
 4364      00
 4365 063e 000E0000 		.ascii	"\000\016\000\000\014\000\000\030\000\000\033\300\000"
 4365      0C000018 
 4365      00001BC0 
 4365      00
 4366 064b 1FF0001C 		.ascii	"\037\360\000\0340\000\030\030\000\030\030\000\030\030"
 4366      30001818 
 4366      00181800 
 4366      1818
 4367 0659 000C3800 		.ascii	"\000\0148\000\017\360\000\003\340\000\000\000\000\000"
 4367      0FF00003 
 4367      E0000000 
 4367      0000
 4368 0667 00000000 		.ascii	"\000\000\000\000\000\000\000\000\000\000\000\000\000"
 4368      00000000 
 4368      00000000 
 4368      00
 4369 0674 00000000 		.ascii	"\000\000\000\000\000\000\000\000\000\000\037\370\000"
 4369      00000000 
 4369      00001FF8 
 4369      00
 4370 0681 1FF80018 		.ascii	"\037\370\000\030\030\000\0308\000\0000\000\0000\000"
 4370      18001838 
 4370      00003000 
 4370      003000
 4371 0690 00700000 		.ascii	"\000p\000\000`\000\000`\000\000\340\000\000\300\000"
 4371      60000060 
 4371      0000E000 
 4371      00C000
 4372 069f 00C00001 		.ascii	"\000\300\000\001\300\000\001\200\000\001\200\000\000"
 4372      C0000180 
 4372      00018000 
 4372      00
 4373 06ac 00000000 		.ascii	"\000\000\000\000\000\000\000\000\000\000\000\000\000"
 4373      00000000 
 4373      00000000 
 4373      00
 4374 06b9 00000000 		.ascii	"\000\000\000\000\000\000\000\000\000\000\000\000\000"
 4374      00000000 
 4374      00000000 
 4374      00
 4375 06c6 07E0000F 		.ascii	"\007\340\000\017\360\000\0348\000\030\030\000\030\030"
 4375      F0001C38 
 4375      00181800 
ARM GAS  /tmp/ccsDiBBo.s 			page 152


 4375      1818
 4376 06d4 000C3000 		.ascii	"\000\0140\000\007\340\000\007\340\000\0140\000\030\030"
 4376      07E00007 
 4376      E0000C30 
 4376      001818
 4377 06e3 00181800 		.ascii	"\000\030\030\000\030\030\000\0348\000\017\360\000\007"
 4377      1818001C 
 4377      38000FF0 
 4377      0007
 4378 06f1 E0000000 		.ascii	"\340\000\000\000\000\000\000\000\000\000\000\000\000"
 4378      00000000 
 4378      00000000 
 4378      00
 4379 06fe 00000000 		.ascii	"\000\000\000\000\000\000\000\000\000\000\000\000\000"
 4379      00000000 
 4379      00000000 
 4379      00
 4380 070b 00000007 		.ascii	"\000\000\000\007\300\000\017\360\000\0340\000\030\030"
 4380      C0000FF0 
 4380      001C3000 
 4380      1818
 4381 0719 00181800 		.ascii	"\000\030\030\000\030\030\000\0148\000\017\370\000\003"
 4381      1818000C 
 4381      38000FF8 
 4381      0003
 4382 0727 D8000018 		.ascii	"\330\000\000\030\000\0000\000\000p\000\000\340\000\037"
 4382      00003000 
 4382      00700000 
 4382      E0001F
 4383 0736 C0001F00 		.ascii	"\300\000\037\000\000\000\000\000\000\000\000\000\000"
 4383      00000000 
 4383      00000000 
 4383      00
 4384 0743 00000000 		.ascii	"\000\000\000\000\000\000\000\000\000\000\000\000\000"
 4384      00000000 
 4384      00000000 
 4384      00
 4385 0750 00000000 		.ascii	"\000\000\000\000\000\000\000\000\000\000\000\000\000"
 4385      00000000 
 4385      00000000 
 4385      00
 4386 075d 00000000 		.ascii	"\000\000\000\000\000\003\300\000\003\300\000\003\300"
 4386      0003C000 
 4386      03C00003 
 4386      C0
 4387 076a 00000000 		.ascii	"\000\000\000\000\000\000\000\000\000\000\000\000\000"
 4387      00000000 
 4387      00000000 
 4387      00
 4388 0777 00000003 		.ascii	"\000\000\000\003\300\000\003\300\000\003\300\000\000"
 4388      C00003C0 
 4388      0003C000 
 4388      00
 4389 0784 00000000 		.ascii	"\000\000\000\000\000\000\000\000\000\000\000\000\000"
 4389      00000000 
 4389      00000000 
 4389      00
ARM GAS  /tmp/ccsDiBBo.s 			page 153


 4390 0791 00000000 		.ascii	"\000\000\000\000\000\000\000\000\000\000\000\000\000"
 4390      00000000 
 4390      00000000 
 4390      00
 4391 079e 00000000 		.ascii	"\000\000\000\000\000\000\000\000\000\000\000\000\000"
 4391      00000000 
 4391      00000000 
 4391      00
 4392 07ab F00000F0 		.ascii	"\360\000\000\360\000\000\360\000\000\000\000\000\000"
 4392      0000F000 
 4392      00000000 
 4392      00
 4393 07b8 00000000 		.ascii	"\000\000\000\000\000\000\000\000\340\000\001\300\000"
 4393      00000000 
 4393      E00001C0 
 4393      00
 4394 07c5 01800001 		.ascii	"\001\200\000\001\200\000\003\000\000\002\000"
 4394      80000300 
 4394      000200
 4395 07d0 00000000 		.ascii	"\000\000\000\000\000\000\000\000\000\000\000\000\000"
 4395      00000000 
 4395      00000000 
 4395      00
 4396 07dd 00000000 		.ascii	"\000\000\000\000\000\000\000\000\000\000\000\000\000"
 4396      00000000 
 4396      00000000 
 4396      00
 4397 07ea 0000001C 		.ascii	"\000\000\000\034\000\000<\000\000\360\000\003\300\000"
 4397      00003C00 
 4397      00F00003 
 4397      C000
 4398 07f8 0F00003C 		.ascii	"\017\000\000<\000\000\360\000\000<\000\000\017\000\000"
 4398      0000F000 
 4398      003C0000 
 4398      0F0000
 4399 0807 03C00000 		.ascii	"\003\300\000\000\360\000\000<\000\000\034\000\000\000"
 4399      F000003C 
 4399      00001C00 
 4399      0000
 4400 0815 00000000 		.ascii	"\000\000\000\000\000\000\000\000\000\000\000\000\000"
 4400      00000000 
 4400      00000000 
 4400      00
 4401 0822 00000000 		.ascii	"\000\000\000\000\000\000\000\000\000\000\000\000\000"
 4401      00000000 
 4401      00000000 
 4401      00
 4402 082f 00000000 		.ascii	"\000\000\000\000\000\000\000\000\000\000\000\000\000"
 4402      00000000 
 4402      00000000 
 4402      00
 4403 083c 007FFC00 		.ascii	"\000\177\374\000\177\374\000\000\000\000\000\000\000"
 4403      7FFC0000 
 4403      00000000 
 4403      00
 4404 0849 7FFC007F 		.ascii	"\177\374\000\177\374\000\000\000\000\000\000\000\000"
 4404      FC000000 
ARM GAS  /tmp/ccsDiBBo.s 			page 154


 4404      00000000 
 4404      00
 4405 0856 00000000 		.ascii	"\000\000\000\000\000\000\000\000\000\000\000\000\000"
 4405      00000000 
 4405      00000000 
 4405      00
 4406 0863 00000000 		.ascii	"\000\000\000\000\000\000\000\000\000\000\000\000\000"
 4406      00000000 
 4406      00000000 
 4406      00
 4407 0870 00000000 		.ascii	"\000\000\000\000\000\000\000\000\000\000\000\000p\000"
 4407      00000000 
 4407      00000000 
 4407      7000
 4408 087e 00780000 		.ascii	"\000x\000\000\036\000\000\007\200\000\001\340\000\000"
 4408      1E000007 
 4408      800001E0 
 4408      0000
 4409 088c 7800001E 		.ascii	"x\000\000\036\000\000x\000\001\340\000\007\200\000\036"
 4409      00007800 
 4409      01E00007 
 4409      80001E
 4410 089b 00007800 		.ascii	"\000\000x\000\000p\000\000\000\000\000\000\000\000\000"
 4410      00700000 
 4410      00000000 
 4410      000000
 4411 08aa 00000000 		.ascii	"\000\000\000\000\000\000\000\000\000\000\000\000\000"
 4411      00000000 
 4411      00000000 
 4411      00
 4412 08b7 00000000 		.ascii	"\000\000\000\000\000\000\000\000\000\000\007\300\000"
 4412      00000000 
 4412      000007C0 
 4412      00
 4413 08c4 0FE00018 		.ascii	"\017\340\000\030p\000\0300\000\0300\000\000p\000\000"
 4413      70001830 
 4413      00183000 
 4413      00700000 
 4414 08d4 E00003C0 		.ascii	"\340\000\003\300\000\003\200\000\003\000\000\000\000"
 4414      00038000 
 4414      03000000 
 4414      00
 4415 08e1 00000000 		.ascii	"\000\000\000\000\007\000\000\007\000\000\000\000\000"
 4415      07000007 
 4415      00000000 
 4415      00
 4416 08ee 00000000 		.ascii	"\000\000\000\000\000\000\000\000\000\000\000\000\000"
 4416      00000000 
 4416      00000000 
 4416      00
 4417 08fb 00000000 		.ascii	"\000\000\000\000\000\000\000\000\000\000\000\003\340"
 4417      00000000 
 4417      00000003 
 4417      E0
 4418 0908 0007F000 		.ascii	"\000\007\360\000\0168\000\014\030\000\030x\000\030\370"
 4418      0E38000C 
 4418      18001878 
ARM GAS  /tmp/ccsDiBBo.s 			page 155


 4418      0018F8
 4419 0917 0019D800 		.ascii	"\000\031\330\000\031\230\000\031\230\000\031\230\000"
 4419      19980019 
 4419      98001998 
 4419      00
 4420 0924 18F80018 		.ascii	"\030\370\000\030x\000\030\000\000\014\000\000\016\030"
 4420      78001800 
 4420      000C0000 
 4420      0E18
 4421 0932 0007F800 		.ascii	"\000\007\370\000\003\340\000\000\000\000\000\000\000"
 4421      03E00000 
 4421      00000000 
 4421      00
 4422 093f 00000000 		.ascii	"\000\000\000\000\000\000\000\000\000\000\000\000\000"
 4422      00000000 
 4422      00000000 
 4422      00
 4423 094c 00000000 		.ascii	"\000\000\000\000\000\037\200\000\037\300\000\001\300"
 4423      001F8000 
 4423      1FC00001 
 4423      C0
 4424 0959 00036000 		.ascii	"\000\003`\000\003`\000\0060\000\0060\000\0140\000\017"
 4424      03600006 
 4424      30000630 
 4424      000C3000 
 4424      0F
 4425 096a F8001FF8 		.ascii	"\370\000\037\370\000\030\014\0000\014\000\374\177\000"
 4425      00180C00 
 4425      300C00FC 
 4425      7F00
 4426 0978 FC7F0000 		.ascii	"\374\177\000\000\000\000\000\000\000\000\000\000\000"
 4426      00000000 
 4426      00000000 
 4426      00
 4427 0985 00000000 		.ascii	"\000\000\000\000\000\000\000\000\000\000\000\000\000"
 4427      00000000 
 4427      00000000 
 4427      00
 4428 0992 00000000 		.ascii	"\000\000\000\000\000\000\000\177\340\000\177\360\000"
 4428      0000007F 
 4428      E0007FF0 
 4428      00
 4429 099f 18380018 		.ascii	"\0308\000\030\030\000\030\030\000\0308\000\037\360\000"
 4429      18001818 
 4429      00183800 
 4429      1FF000
 4430 09ae 1FF80018 		.ascii	"\037\370\000\030\034\000\030\014\000\030\014\000\030"
 4430      1C00180C 
 4430      00180C00 
 4430      18
 4431 09bb 0C007FF8 		.ascii	"\014\000\177\370\000\177\360\000\000\000\000\000\000"
 4431      007FF000 
 4431      00000000 
 4431      00
 4432 09c8 00000000 		.ascii	"\000\000\000\000\000\000\000\000\000\000\000\000\000"
 4432      00000000 
 4432      00000000 
ARM GAS  /tmp/ccsDiBBo.s 			page 156


 4432      00
 4433 09d5 00000000 		.ascii	"\000\000\000\000\000\000\000\000\000\000\000\000\003"
 4433      00000000 
 4433      00000000 
 4433      03
 4434 09e2 EC000FFC 		.ascii	"\354\000\017\374\000\034\034\000\030\014\0000\014\000"
 4434      001C1C00 
 4434      180C0030 
 4434      0C00
 4435 09f0 30000030 		.ascii	"0\000\0000\000\0000\000\0000\000\0000\000\000\030\014"
 4435      00003000 
 4435      00300000 
 4435      30000018 
 4435      0C
 4436 0a01 001C1C00 		.ascii	"\000\034\034\000\017\370\000\003\360\000\000\000\000"
 4436      0FF80003 
 4436      F0000000 
 4436      00
 4437 0a0e 00000000 		.ascii	"\000\000\000\000\000\000\000\000\000\000\000\000\000"
 4437      00000000 
 4437      00000000 
 4437      00
 4438 0a1b 00000000 		.ascii	"\000\000\000\000\000\000\000\000\000\000\000\000\000"
 4438      00000000 
 4438      00000000 
 4438      00
 4439 0a28 007FC000 		.ascii	"\000\177\300\000\177\360\000\0308\000\030\030\000\030"
 4439      7FF00018 
 4439      38001818 
 4439      0018
 4440 0a36 0C00180C 		.ascii	"\014\000\030\014\000\030\014\000\030\014\000\030\014"
 4440      00180C00 
 4440      180C0018 
 4440      0C
 4441 0a43 00180C00 		.ascii	"\000\030\014\000\030\030\000\0308\000\177\360\000\177"
 4441      18180018 
 4441      38007FF0 
 4441      007F
 4442 0a51 E0000000 		.ascii	"\340\000\000\000\000\000\000\000\000\000\000\000\000"
 4442      00000000 
 4442      00000000 
 4442      00
 4443 0a5e 00000000 		.ascii	"\000\000\000\000\000\000\000\000\000\000\000\000\000"
 4443      00000000 
 4443      00000000 
 4443      00
 4444 0a6b 00000000 		.ascii	"\000\000\000\000\000\000\177\370\000\177\370\000\030"
 4444      00007FF8 
 4444      007FF800 
 4444      18
 4445 0a78 18001818 		.ascii	"\030\000\030\030\000\031\230\000\031\200\000\037\200"
 4445      00199800 
 4445      1980001F 
 4445      80
 4446 0a85 001F8000 		.ascii	"\000\037\200\000\031\200\000\031\230\000\030\030\000"
 4446      19800019 
 4446      98001818 
ARM GAS  /tmp/ccsDiBBo.s 			page 157


 4446      00
 4447 0a92 1818007F 		.ascii	"\030\030\000\177\370\000\177\370\000\000\000\000\000"
 4447      F8007FF8 
 4447      00000000 
 4447      00
 4448 0a9f 00000000 		.ascii	"\000\000\000\000\000\000\000\000\000\000\000\000\000"
 4448      00000000 
 4448      00000000 
 4448      00
 4449 0aac 00000000 		.ascii	"\000\000\000\000\000\000\000\000\000\000\000\000\000"
 4449      00000000 
 4449      00000000 
 4449      00
 4450 0ab9 3FFC003F 		.ascii	"?\374\000?\374\000\014\014\000\014\014\000\014\314\000"
 4450      FC000C0C 
 4450      000C0C00 
 4450      0CCC00
 4451 0ac8 0CC0000F 		.ascii	"\014\300\000\017\300\000\017\300\000\014\300\000\014"
 4451      C0000FC0 
 4451      000CC000 
 4451      0C
 4452 0ad5 C0000C00 		.ascii	"\300\000\014\000\000\014\000\000?\300\000?\300\000\000"
 4452      000C0000 
 4452      3FC0003F 
 4452      C00000
 4453 0ae4 00000000 		.ascii	"\000\000\000\000\000\000\000\000\000\000\000\000\000"
 4453      00000000 
 4453      00000000 
 4453      00
 4454 0af1 00000000 		.ascii	"\000\000\000\000\000\000\000\000\000\000\000\000\000"
 4454      00000000 
 4454      00000000 
 4454      00
 4455 0afe 00000003 		.ascii	"\000\000\000\003\354\000\017\374\000\034\034\000\030"
 4455      EC000FFC 
 4455      001C1C00 
 4455      18
 4456 0b0b 0C00300C 		.ascii	"\014\0000\014\0000\000\0000\000\0000\376\0000\376\000"
 4456      00300000 
 4456      30000030 
 4456      FE0030FE 
 4456      00
 4457 0b1c 300C0038 		.ascii	"0\014\0008\014\000\034\034\000\017\374\000\003\360\000"
 4457      0C001C1C 
 4457      000FFC00 
 4457      03F000
 4458 0b2b 00000000 		.ascii	"\000\000\000\000\000\000\000\000\000\000\000\000\000"
 4458      00000000 
 4458      00000000 
 4458      00
 4459 0b38 00000000 		.ascii	"\000\000\000\000\000\000\000\000\000\000\000\000\000"
 4459      00000000 
 4459      00000000 
 4459      00
 4460 0b45 00000000 		.ascii	"\000\000\000\000~~\000~~\000\030\030\000\030\030\000"
 4460      7E7E007E 
 4460      7E001818 
ARM GAS  /tmp/ccsDiBBo.s 			page 158


 4460      00181800 
 4461 0b55 18180018 		.ascii	"\030\030\000\030\030\000\037\370\000\037\370\000\030"
 4461      18001FF8 
 4461      001FF800 
 4461      18
 4462 0b62 18001818 		.ascii	"\030\000\030\030\000\030\030\000\030\030\000~~\000~"
 4462      00181800 
 4462      1818007E 
 4462      7E007E
 4463 0b71 7E000000 		.ascii	"~\000\000\000\000\000\000\000\000\000\000\000\000\000"
 4463      00000000 
 4463      00000000 
 4463      0000
 4464 0b7f 00000000 		.ascii	"\000\000\000\000\000\000\000\000\000\000\000\000\000"
 4464      00000000 
 4464      00000000 
 4464      00
 4465 0b8c 00000000 		.ascii	"\000\000\000\000\000\037\370\000\037\370\000\001\200"
 4465      001FF800 
 4465      1FF80001 
 4465      80
 4466 0b99 00018000 		.ascii	"\000\001\200\000\001\200\000\001\200\000\001\200\000"
 4466      01800001 
 4466      80000180 
 4466      00
 4467 0ba6 01800001 		.ascii	"\001\200\000\001\200\000\001\200\000\001\200\000\001"
 4467      80000180 
 4467      00018000 
 4467      01
 4468 0bb3 80001FF8 		.ascii	"\200\000\037\370\000\037\370\000\000\000\000\000\000"
 4468      001FF800 
 4468      00000000 
 4468      00
 4469 0bc0 00000000 		.ascii	"\000\000\000\000\000\000\000\000\000\000\000\000\000"
 4469      00000000 
 4469      00000000 
 4469      00
 4470 0bcd 00000000 		.ascii	"\000\000\000\000\000\000\000\000\000\000\000\000\007"
 4470      00000000 
 4470      00000000 
 4470      07
 4471 0bda FE0007FE 		.ascii	"\376\000\007\376\000\0000\000\0000\000\0000\000\000"
 4471      00003000 
 4471      00300000 
 4471      300000
 4472 0be9 30000030 		.ascii	"0\000\0000\00000\00000\00000\00000\0000`\000?\340\000"
 4472      00303000 
 4472      30300030 
 4472      30003030 
 4472      00306000 
 4473 0c00 0F800000 		.ascii	"\017\200\000\000\000\000\000\000\000\000\000\000\000"
 4473      00000000 
 4473      00000000 
 4473      00
 4474 0c0d 00000000 		.ascii	"\000\000\000\000\000\000\000\000\000\000\000\000\000"
 4474      00000000 
 4474      00000000 
ARM GAS  /tmp/ccsDiBBo.s 			page 159


 4474      00
 4475 0c1a 00000000 		.ascii	"\000\000\000\000\000\000\000\177>\000\177>\000\0300"
 4475      0000007F 
 4475      3E007F3E 
 4475      001830
 4476 0c29 00186000 		.ascii	"\000\030`\000\030\300\000\031\200\000\033\200\000\037"
 4476      18C00019 
 4476      80001B80 
 4476      001F
 4477 0c37 C0001CE0 		.ascii	"\300\000\034\340\000\030p\000\0300\000\0308\000\177"
 4477      00187000 
 4477      18300018 
 4477      38007F
 4478 0c46 1F007F1F 		.ascii	"\037\000\177\037\000\000\000\000\000\000\000\000\000"
 4478      00000000 
 4478      00000000 
 4478      00
 4479 0c53 00000000 		.ascii	"\000\000\000\000\000\000\000\000\000\000\000\000\000"
 4479      00000000 
 4479      00000000 
 4479      00
 4480 0c60 00000000 		.ascii	"\000\000\000\000\000\000\000\000\000\177\200\000\177"
 4480      00000000 
 4480      007F8000 
 4480      7F
 4481 0c6d 80000C00 		.ascii	"\200\000\014\000\000\014\000\000\014\000\000\014\000"
 4481      000C0000 
 4481      0C00000C 
 4481      00
 4482 0c7a 000C0000 		.ascii	"\000\014\000\000\014\000\000\014\014\000\014\014\000"
 4482      0C00000C 
 4482      0C000C0C 
 4482      00
 4483 0c87 0C0C000C 		.ascii	"\014\014\000\014\014\000\177\374\000\177\374\000\000"
 4483      0C007FFC 
 4483      007FFC00 
 4483      00
 4484 0c94 00000000 		.ascii	"\000\000\000\000\000\000\000\000\000\000\000\000\000"
 4484      00000000 
 4484      00000000 
 4484      00
 4485 0ca1 00000000 		.ascii	"\000\000\000\000\000\000\000\000\000\000\000\000\000"
 4485      00000000 
 4485      00000000 
 4485      00
 4486 0cae 000000F0 		.ascii	"\000\000\000\360\017\000\370\037\0008\034\000<<\000"
 4486      0F00F81F 
 4486      00381C00 
 4486      3C3C00
 4487 0cbd 3C3C0036 		.ascii	"<<\0006l\0006l\0003\314\0003\314\0001\214\0000\014\000"
 4487      6C00366C 
 4487      0033CC00 
 4487      33CC0031 
 4487      8C00300C 
 4488 0cd2 300C00FE 		.ascii	"0\014\000\376\177\000\376\177\000\000\000\000\000\000"
 4488      7F00FE7F 
 4488      00000000 
ARM GAS  /tmp/ccsDiBBo.s 			page 160


 4488      0000
 4489 0ce0 00000000 		.ascii	"\000\000\000\000\000\000\000\000\000\000\000\000\000"
 4489      00000000 
 4489      00000000 
 4489      00
 4490 0ced 00000000 		.ascii	"\000\000\000\000\000\000\000\000\000\000\000\000x\376"
 4490      00000000 
 4490      00000000 
 4490      78FE
 4491 0cfb 0078FE00 		.ascii	"\000x\376\000\034\030\000\036\030\000\037\030\000\033"
 4491      1C18001E 
 4491      18001F18 
 4491      001B
 4492 0d09 18001B98 		.ascii	"\030\000\033\230\000\031\330\000\030\330\000\030\370"
 4492      0019D800 
 4492      18D80018 
 4492      F8
 4493 0d16 00187800 		.ascii	"\000\030x\000\0308\000\177\030\000\177\030\000\000\000"
 4493      1838007F 
 4493      18007F18 
 4493      000000
 4494 0d25 00000000 		.ascii	"\000\000\000\000\000\000\000\000\000\000\000\000\000"
 4494      00000000 
 4494      00000000 
 4494      00
 4495 0d32 00000000 		.ascii	"\000\000\000\000\000\000\000\000\000\000\000\000\000"
 4495      00000000 
 4495      00000000 
 4495      00
 4496 0d3f 000003C0 		.ascii	"\000\000\003\300\000\017\360\000\0348\000\030\030\000"
 4496      000FF000 
 4496      1C380018 
 4496      1800
 4497 0d4d 381C0030 		.ascii	"8\034\0000\014\0000\014\0000\014\0000\014\0008\034\000"
 4497      0C00300C 
 4497      00300C00 
 4497      300C0038 
 4497      1C00
 4498 0d5f 1818001C 		.ascii	"\030\030\000\0348\000\017\360\000\003\300\000\000\000"
 4498      38000FF0 
 4498      0003C000 
 4498      0000
 4499 0d6d 00000000 		.ascii	"\000\000\000\000\000\000\000\000\000\000\000\000\000"
 4499      00000000 
 4499      00000000 
 4499      00
 4500 0d7a 00000000 		.ascii	"\000\000\000\000\000\000\000\000\000\000\000\000\000"
 4500      00000000 
 4500      00000000 
 4500      00
 4501 0d87 00003FF0 		.ascii	"\000\000?\360\000?\370\000\014\034\000\014\014\000\014"
 4501      003FF800 
 4501      0C1C000C 
 4501      0C000C
 4502 0d96 0C000C0C 		.ascii	"\014\000\014\014\000\014\030\000\017\370\000\017\340"
 4502      000C1800 
 4502      0FF8000F 
ARM GAS  /tmp/ccsDiBBo.s 			page 161


 4502      E0
 4503 0da3 000C0000 		.ascii	"\000\014\000\000\014\000\000\014\000\000?\300\000?\300"
 4503      0C00000C 
 4503      00003FC0 
 4503      003FC0
 4504 0db2 00000000 		.ascii	"\000\000\000\000\000\000\000\000\000\000\000\000\000"
 4504      00000000 
 4504      00000000 
 4504      00
 4505 0dbf 00000000 		.ascii	"\000\000\000\000\000\000\000\000\000\000\000\000\000"
 4505      00000000 
 4505      00000000 
 4505      00
 4506 0dcc 00000000 		.ascii	"\000\000\000\000\000\003\300\000\017\360\000\0348\000"
 4506      0003C000 
 4506      0FF0001C 
 4506      3800
 4507 0dda 18180038 		.ascii	"\030\030\0008\034\0000\014\0000\014\0000\014\0000\014"
 4507      1C00300C 
 4507      00300C00 
 4507      300C0030 
 4507      0C
 4508 0deb 00381C00 		.ascii	"\0008\034\000\030\030\000\0348\000\017\360\000\007\300"
 4508      1818001C 
 4508      38000FF0 
 4508      0007C0
 4509 0dfa 0007CC00 		.ascii	"\000\007\314\000\017\374\000\0148\000\000\000\000\000"
 4509      0FFC000C 
 4509      38000000 
 4509      0000
 4510 0e08 00000000 		.ascii	"\000\000\000\000\000\000\000\000\000\000\000\000\000"
 4510      00000000 
 4510      00000000 
 4510      00
 4511 0e15 00000000 		.ascii	"\000\000\000\000\177\340\000\177\360\000\0308\000\030"
 4511      7FE0007F 
 4511      F0001838 
 4511      0018
 4512 0e23 18001818 		.ascii	"\030\000\030\030\000\0308\000\037\360\000\037\300\000"
 4512      00183800 
 4512      1FF0001F 
 4512      C000
 4513 0e31 18E00018 		.ascii	"\030\340\000\030p\000\0300\000\0308\000\177\036\000"
 4513      70001830 
 4513      00183800 
 4513      7F1E00
 4514 0e40 7F0E0000 		.ascii	"\177\016\000\000\000\000\000\000\000\000\000\000\000"
 4514      00000000 
 4514      00000000 
 4514      00
 4515 0e4d 00000000 		.ascii	"\000\000\000\000\000\000\000\000\000\000\000\000\000"
 4515      00000000 
 4515      00000000 
 4515      00
 4516 0e5a 00000000 		.ascii	"\000\000\000\000\000\000\000\007\330\000\017\370\000"
 4516      00000007 
 4516      D8000FF8 
ARM GAS  /tmp/ccsDiBBo.s 			page 162


 4516      00
 4517 0e67 1C380018 		.ascii	"\0348\000\030\030\000\030\030\000\036\000\000\017\300"
 4517      18001818 
 4517      001E0000 
 4517      0FC0
 4518 0e75 0003F000 		.ascii	"\000\003\360\000\000x\000\030\030\000\030\030\000\034"
 4518      00780018 
 4518      18001818 
 4518      001C
 4519 0e83 38001FF0 		.ascii	"8\000\037\360\000\033\340\000\000\000\000\000\000\000"
 4519      001BE000 
 4519      00000000 
 4519      0000
 4520 0e91 00000000 		.ascii	"\000\000\000\000\000\000\000\000\000\000\000\000\000"
 4520      00000000 
 4520      00000000 
 4520      00
 4521 0e9e 00000000 		.ascii	"\000\000\000\000\000\000\000\000\000\000\000?\374\000"
 4521      00000000 
 4521      0000003F 
 4521      FC00
 4522 0eac 3FFC0031 		.ascii	"?\374\0001\214\0001\214\0001\214\0001\214\000\001\200"
 4522      8C00318C 
 4522      00318C00 
 4522      318C0001 
 4522      80
 4523 0ebd 00018000 		.ascii	"\000\001\200\000\001\200\000\001\200\000\001\200\000"
 4523      01800001 
 4523      80000180 
 4523      00
 4524 0eca 0180000F 		.ascii	"\001\200\000\017\360\000\017\360\000\000\000\000\000"
 4524      F0000FF0 
 4524      00000000 
 4524      00
 4525 0ed7 00000000 		.ascii	"\000\000\000\000\000\000\000\000\000\000\000\000\000"
 4525      00000000 
 4525      00000000 
 4525      00
 4526 0ee4 00000000 		.ascii	"\000\000\000\000\000\000\000\000\000\000\000\000\000"
 4526      00000000 
 4526      00000000 
 4526      00
 4527 0ef1 7E7E007E 		.ascii	"~~\000~~\000\030\030\000\030\030\000\030\030\000\030"
 4527      7E001818 
 4527      00181800 
 4527      18180018 
 4528 0f01 18001818 		.ascii	"\030\000\030\030\000\030\030\000\030\030\000\030\030"
 4528      00181800 
 4528      18180018 
 4528      18
 4529 0f0e 00181800 		.ascii	"\000\030\030\000\0140\000\017\360\000\003\300\000\000"
 4529      0C30000F 
 4529      F00003C0 
 4529      0000
 4530 0f1c 00000000 		.ascii	"\000\000\000\000\000\000\000\000\000\000\000\000\000"
 4530      00000000 
 4530      00000000 
ARM GAS  /tmp/ccsDiBBo.s 			page 163


 4530      00
 4531 0f29 00000000 		.ascii	"\000\000\000\000\000\000\000\000\000\000\000\000\000"
 4531      00000000 
 4531      00000000 
 4531      00
 4532 0f36 0000007F 		.ascii	"\000\000\000\177\177\000\177\177\000\030\014\000\014"
 4532      7F007F7F 
 4532      00180C00 
 4532      0C
 4533 0f43 18000C18 		.ascii	"\030\000\014\030\000\014\030\000\0060\000\0060\000\003"
 4533      000C1800 
 4533      06300006 
 4533      300003
 4534 0f52 60000360 		.ascii	"`\000\003`\000\003`\000\001\300\000\001\300\000\000"
 4534      00036000 
 4534      01C00001 
 4534      C00000
 4535 0f61 80000000 		.ascii	"\200\000\000\000\000\000\000\000\000\000\000\000\000"
 4535      00000000 
 4535      00000000 
 4535      00
 4536 0f6e 00000000 		.ascii	"\000\000\000\000\000\000\000\000\000\000\000\000\000"
 4536      00000000 
 4536      00000000 
 4536      00
 4537 0f7b 00000000 		.ascii	"\000\000\000\000\000\000\376?\200\376?\2000\006\000"
 4537      0000FE3F 
 4537      80FE3F80 
 4537      300600
 4538 0f8a 30060030 		.ascii	"0\006\0000\206\000\031\314\000\031\314\000\033l\000"
 4538      860019CC 
 4538      0019CC00 
 4538      1B6C00
 4539 0f99 1B6C001E 		.ascii	"\033l\000\036|\000\016"
 4539      7C000E
 4540 0fa0 38000E38 		.ascii	"8\000\0168\000\014\030\000\014\030\000\000\000\000\000"
 4540      000C1800 
 4540      0C180000 
 4540      000000
 4541 0faf 00000000 		.ascii	"\000\000\000\000\000\000\000\000\000\000\000\000\000"
 4541      00000000 
 4541      00000000 
 4541      00
 4542 0fbc 00000000 		.ascii	"\000\000\000\000\000\000\000\000\000\000\000\000\000"
 4542      00000000 
 4542      00000000 
 4542      00
 4543 0fc9 7E7E007E 		.ascii	"~~\000~~\000\030\030\000\0140\000\006`\000\003\300\000"
 4543      7E001818 
 4543      000C3000 
 4543      06600003 
 4543      C000
 4544 0fdb 01800001 		.ascii	"\001\200\000\001\200\000\003\300\000\006`\000\0140\000"
 4544      800003C0 
 4544      00066000 
 4544      0C3000
 4545 0fea 1818007E 		.ascii	"\030\030\000~~\000~~\000\000\000\000\000\000\000\000"
ARM GAS  /tmp/ccsDiBBo.s 			page 164


 4545      7E007E7E 
 4545      00000000 
 4545      00000000 
 4546 0ffa 00000000 		.ascii	"\000\000\000\000\000\000\000\000\000\000\000\000\000"
 4546      00000000 
 4546      00000000 
 4546      00
 4547 1007 00000000 		.ascii	"\000\000\000\000\000\000\000\000\000\000|~\000|~\000"
 4547      00000000 
 4547      00007C7E 
 4547      007C7E00 
 4548 1017 1818000C 		.ascii	"\030\030\000\0140\000\006`\000\006`\000\003\300\000"
 4548      30000660 
 4548      00066000 
 4548      03C000
 4549 1026 01800001 		.ascii	"\001\200\000\001\200\000\001\200\000\001\200\000\001"
 4549      80000180 
 4549      00018000 
 4549      01
 4550 1033 80000FF0 		.ascii	"\200\000\017\360\000\017\360\000\000\000\000\000\000"
 4550      000FF000 
 4550      00000000 
 4550      00
 4551 1040 00000000 		.ascii	"\000\000\000\000\000\000\000\000\000\000\000\000\000"
 4551      00000000 
 4551      00000000 
 4551      00
 4552 104d 00000000 		.ascii	"\000\000\000\000\000\000\000\000\000\000\000\000\037"
 4552      00000000 
 4552      00000000 
 4552      1F
 4553 105a F8001FF8 		.ascii	"\370\000\037\370\000\030\030\000\0300\000\030`\000\030"
 4553      00181800 
 4553      18300018 
 4553      600018
 4554 1069 C0000180 		.ascii	"\300\000\001\200\000\003\000\000\006\030\000\014\030"
 4554      00030000 
 4554      0618000C 
 4554      18
 4555 1076 00181800 		.ascii	"\000\030\030\0000\030\000?\370\000?\370\000\000\000"
 4555      3018003F 
 4555      F8003FF8 
 4555      000000
 4556 1085 00000000 		.ascii	"\000\000\000\000\000\000\000\000\000\000\000\000\000"
 4556      00000000 
 4556      00000000 
 4556      00
 4557 1092 00000000 		.ascii	"\000\000\000\000\000\000\000\000\000\000\000\000\001"
 4557      00000000 
 4557      00000000 
 4557      01
 4558 109f F00001F0 		.ascii	"\360\000\001\360\000\001\200\000\001\200\000\001\200"
 4558      00018000 
 4558      01800001 
 4558      80
 4559 10ac 00018000 		.ascii	"\000\001\200\000\001\200\000\001\200\000\001\200\000"
 4559      01800001 
ARM GAS  /tmp/ccsDiBBo.s 			page 165


 4559      80000180 
 4559      00
 4560 10b9 01800001 		.ascii	"\001\200\000\001\200\000\001\200\000\001\200\000\001"
 4560      80000180 
 4560      00018000 
 4560      01
 4561 10c6 80000180 		.ascii	"\200\000\001\200\000\001\200\000\001\360\000\001\360"
 4561      00018000 
 4561      01F00001 
 4561      F0
 4562 10d3 00000000 		.ascii	"\000\000\000\000\000\000\000\000\000\000\000\000\000"
 4562      00000000 
 4562      00000000 
 4562      00
 4563 10e0 18000018 		.ascii	"\030\000\000\030\000\000\034\000\000\014\000\000\016"
 4563      00001C00 
 4563      000C0000 
 4563      0E
 4564 10ed 00000600 		.ascii	"\000\000\006\000\000\006\000\000\003\000\000\003\000"
 4564      00060000 
 4564      03000003 
 4564      00
 4565 10fa 00018000 		.ascii	"\000\001\200\000\001\200\000\000\300\000\000\300\000"
 4565      01800000 
 4565      C00000C0 
 4565      00
 4566 1107 00600000 		.ascii	"\000`\000\000`\000\000p\000\0000\000\0008\000\000\030"
 4566      60000070 
 4566      00003000 
 4566      00380000 
 4566      18
 4567 1118 00001800 		.ascii	"\000\000\030\000\000\000\000\000\000\000\000\000\000"
 4567      00000000 
 4567      00000000 
 4567      00
 4568 1125 00000000 		.ascii	"\000\000\000\000\000\000\000\000\000\017\200\000\017"
 4568      00000000 
 4568      000F8000 
 4568      0F
 4569 1132 80000180 		.ascii	"\200\000\001\200\000\001\200\000\001\200\000\001\200"
 4569      00018000 
 4569      01800001 
 4569      80
 4570 113f 00018000 		.ascii	"\000\001\200\000\001\200\000\001\200\000\001\200\000"
 4570      01800001 
 4570      80000180 
 4570      00
 4571 114c 01800001 		.ascii	"\001\200\000\001\200\000\001\200\000\001\200\000\001"
 4571      80000180 
 4571      00018000 
 4571      01
 4572 1159 80000180 		.ascii	"\200\000\001\200\000\017\200\000\017\200\000\000\000"
 4572      000F8000 
 4572      0F800000 
 4572      00
 4573 1166 00000000 		.ascii	"\000\000\000\000\000\000\000\000\000\000\000\000\000"
 4573      00000000 
ARM GAS  /tmp/ccsDiBBo.s 			page 166


 4573      00000000 
 4573      00
 4574 1173 00800001 		.ascii	"\000\200\000\001\300\000\003\340\000\007p\000\0060\000"
 4574      C00003E0 
 4574      00077000 
 4574      063000
 4575 1182 0C180018 		.ascii	"\014\030\000\030\014\000\020\004\000\000\000\000\000"
 4575      0C001004 
 4575      00000000 
 4575      00
 4576 118f 00000000 		.ascii	"\000\000\000\000\000\000\000\000\000\000\000\000\000"
 4576      00000000 
 4576      00000000 
 4576      00
 4577 119c 00000000 		.ascii	"\000\000\000\000\000\000\000\000\000\000\000\000\000"
 4577      00000000 
 4577      00000000 
 4577      00
 4578 11a9 00000000 		.ascii	"\000\000\000\000\000\000\000\000\000\000\000\000\000"
 4578      00000000 
 4578      00000000 
 4578      00
 4579 11b6 00000000 		.ascii	"\000\000\000\000\000\000\000\000\000\000\000\000\000"
 4579      00000000 
 4579      00000000 
 4579      00
 4580 11c3 00000000 		.ascii	"\000\000\000\000\000\000\000\000\000\000\000\000\000"
 4580      00000000 
 4580      00000000 
 4580      00
 4581 11d0 00000000 		.ascii	"\000\000\000\000\000\000\000\000\000\000\000\000\000"
 4581      00000000 
 4581      00000000 
 4581      00
 4582 11dd 00000000 		.ascii	"\000\000\000\000\000\000\000\000\000\000\000\000\000"
 4582      00000000 
 4582      00000000 
 4582      00
 4583 11ea 00000000 		.ascii	"\000\000\000\000\000\000\000\000\000\000\000\000\000"
 4583      00000000 
 4583      00000000 
 4583      00
 4584 11f7 000000FF 		.ascii	"\000\000\000\377\377\000\377\377\000\000\000\000\003"
 4584      FF00FFFF 
 4584      00000000 
 4584      03
 4585 1204 00000380 		.ascii	"\000\000\003\200\000\000\340\000\000`\000\000\000\000"
 4585      0000E000 
 4585      00600000 
 4585      0000
 4586 1212 00000000 		.ascii	"\000\000\000\000\000\000\000\000\000\000\000\000\000"
 4586      00000000 
 4586      00000000 
 4586      00
 4587 121f 00000000 		.ascii	"\000\000\000\000\000\000\000\000\000\000\000\000\000"
 4587      00000000 
 4587      00000000 
ARM GAS  /tmp/ccsDiBBo.s 			page 167


 4587      00
 4588 122c 00000000 		.ascii	"\000\000\000\000\000\000\000\000\000\000\000\000\000"
 4588      00000000 
 4588      00000000 
 4588      00
 4589 1239 00000000 		.ascii	"\000\000\000\000\000\000\000\000\000\000\000\000\000"
 4589      00000000 
 4589      00000000 
 4589      00
 4590 1246 00000000 		.ascii	"\000\000\000\000\000\000\000\000\000\000\000\000\000"
 4590      00000000 
 4590      00000000 
 4590      00
 4591 1253 00000000 		.ascii	"\000\000\000\000\000\000\000\017\300\000\037\340\000"
 4591      0000000F 
 4591      C0001FE0 
 4591      00
 4592 1260 00300000 		.ascii	"\0000\000\0000\000\007\360\000\037\360\00080\00000\000"
 4592      300007F0 
 4592      001FF000 
 4592      38300030 
 4592      3000
 4593 1272 3070001F 		.ascii	"0p\000\037\374\000\017\274\000\000\000\000\000\000\000"
 4593      FC000FBC 
 4593      00000000 
 4593      000000
 4594 1281 00000000 		.ascii	"\000\000\000\000\000\000\000\000\000\000\000\000\000"
 4594      00000000 
 4594      00000000 
 4594      00
 4595 128e 00000000 		.ascii	"\000\000\000\000\000\000\000\000x\000\000x\000\000\030"
 4595      00000000 
 4595      78000078 
 4595      000018
 4596 129d 00001800 		.ascii	"\000\000\030\000\000\033\340\000\037\370\000\034\030"
 4596      001BE000 
 4596      1FF8001C 
 4596      18
 4597 12aa 00180C00 		.ascii	"\000\030\014\000\030\014\000\030\014\000\030\014\000"
 4597      180C0018 
 4597      0C00180C 
 4597      00
 4598 12b7 180C001C 		.ascii	"\030\014\000\034\030\000\177\370\000{\340\000\000\000"
 4598      18007FF8 
 4598      007BE000 
 4598      0000
 4599 12c5 00000000 		.ascii	"\000\000\000\000\000\000\000\000\000\000\000\000\000"
 4599      00000000 
 4599      00000000 
 4599      00
 4600 12d2 00000000 		.ascii	"\000\000\000\000\000\000\000\000\000\000\000\000\000"
 4600      00000000 
 4600      00000000 
 4600      00
 4601 12df 00000000 		.ascii	"\000\000\000\000\000\000\000\000\000\000\000\003\354"
 4601      00000000 
 4601      00000003 
ARM GAS  /tmp/ccsDiBBo.s 			page 168


 4601      EC
 4602 12ec 000FFC00 		.ascii	"\000\017\374\000\034\034\0008\014\0000\014\0000\000"
 4602      1C1C0038 
 4602      0C00300C 
 4602      003000
 4603 12fb 00300000 		.ascii	"\0000\000\0008\014\000\034\034\000\017\370\000\003\360"
 4603      380C001C 
 4603      1C000FF8 
 4603      0003F0
 4604 130a 00000000 		.ascii	"\000\000\000\000\000\000\000\000\000\000\000\000\000"
 4604      00000000 
 4604      00000000 
 4604      00
 4605 1317 00000000 		.ascii	"\000\000\000\000\000\000\000\000\000\000\000\000\000"
 4605      00000000 
 4605      00000000 
 4605      00
 4606 1324 00000078 		.ascii	"\000\000\000x\000\000x\000\000\030\000\000\030\000\007"
 4606      00007800 
 4606      00180000 
 4606      180007
 4607 1333 D8001FF8 		.ascii	"\330\000\037\370\000\0308\0000\030\0000\030\0000\030"
 4607      00183800 
 4607      30180030 
 4607      18003018 
 4608 1343 00301800 		.ascii	"\0000\030\0000\030\000\0308\000\037\376\000\007\336"
 4608      30180018 
 4608      38001FFE 
 4608      0007DE
 4609 1352 00000000 		.ascii	"\000\000\000\000\000\000\000\000\000\000\000\000\000"
 4609      00000000 
 4609      00000000 
 4609      00
 4610 135f 00000000 		.ascii	"\000\000\000\000\000\000\000\000\000\000\000\000\000"
 4610      00000000 
 4610      00000000 
 4610      00
 4611 136c 00000000 		.ascii	"\000\000\000\000\000\000\000\000\000\000\000\000\000"
 4611      00000000 
 4611      00000000 
 4611      00
 4612 1379 0007E000 		.ascii	"\000\007\340\000\037\370\000\030\030\0000\014\000?\374"
 4612      1FF80018 
 4612      1800300C 
 4612      003FFC
 4613 1388 003FFC00 		.ascii	"\000?\374\0000\000\0000\000\000\030\014\000\037\374"
 4613      30000030 
 4613      0000180C 
 4613      001FFC
 4614 1397 0007F000 		.ascii	"\000\007\360\000\000\000\000\000\000\000\000\000\000"
 4614      00000000 
 4614      00000000 
 4614      00
 4615 13a4 00000000 		.ascii	"\000\000\000\000\000\000\000\000\000\000\000\000\000"
 4615      00000000 
 4615      00000000 
 4615      00
ARM GAS  /tmp/ccsDiBBo.s 			page 169


 4616 13b1 00000000 		.ascii	"\000\000\000\000\000\001\374\000\003\374\000\006\000"
 4616      0001FC00 
 4616      03FC0006 
 4616      00
 4617 13be 00060000 		.ascii	"\000\006\000\000?\370\000?\370\000\006\000\000\006\000"
 4617      3FF8003F 
 4617      F8000600 
 4617      000600
 4618 13cd 00060000 		.ascii	"\000\006\000\000\006\000\000\006\000\000\006\000\000"
 4618      06000006 
 4618      00000600 
 4618      00
 4619 13da 0600003F 		.ascii	"\006\000\000?\360\000?\360\000\000\000\000\000\000\000"
 4619      F0003FF0 
 4619      00000000 
 4619      000000
 4620 13e9 00000000 		.ascii	"\000\000\000\000\000\000\000\000\000\000\000\000\000"
 4620      00000000 
 4620      00000000 
 4620      00
 4621 13f6 00000000 		.ascii	"\000\000\000\000\000\000\000\000\000\000\000\000\000"
 4621      00000000 
 4621      00000000 
 4621      00
 4622 1403 00000000 		.ascii	"\000\000\000\000\000\000\000\007\336\000\037\376\000"
 4622      00000007 
 4622      DE001FFE 
 4622      00
 4623 1410 18380030 		.ascii	"\0308\0000\030\0000\030\0000\030\0000\030\0000\030\000"
 4623      18003018 
 4623      00301800 
 4623      30180030 
 4623      1800
 4624 1422 1838001F 		.ascii	"\0308\000\037\370\000\007\330\000\000\030\000\000\030"
 4624      F80007D8 
 4624      00001800 
 4624      0018
 4625 1430 00003800 		.ascii	"\000\0008\000\017\360\000\017\300\000\000\000\000\000"
 4625      0FF0000F 
 4625      C0000000 
 4625      0000
 4626 143e 00000000 		.ascii	"\000\000\000\000\000\000\000\000x\000\000x\000\000\030"
 4626      00000000 
 4626      78000078 
 4626      000018
 4627 144d 00001800 		.ascii	"\000\000\030\000\000\033\340\000\037\360\000\0348\000"
 4627      001BE000 
 4627      1FF0001C 
 4627      3800
 4628 145b 18180018 		.ascii	"\030\030\000\030\030\000\030\030\000\030\030\000\030"
 4628      18001818 
 4628      00181800 
 4628      18
 4629 1468 18001818 		.ascii	"\030\000\030\030\000~~\000~~\000\000\000\000\000\000"
 4629      007E7E00 
 4629      7E7E0000 
 4629      00000000 
ARM GAS  /tmp/ccsDiBBo.s 			page 170


 4630 1478 00000000 		.ascii	"\000\000\000\000\000\000\000\000\000\000\000\000\000"
 4630      00000000 
 4630      00000000 
 4630      00
 4631 1485 00000000 		.ascii	"\000\000\000\000\000\000\000\000\000\001\200\000\001"
 4631      00000000 
 4631      00018000 
 4631      01
 4632 1492 80000000 		.ascii	"\200\000\000\000\000\000\000\000\037\200\000\037\200"
 4632      00000000 
 4632      1F80001F 
 4632      80
 4633 149f 00018000 		.ascii	"\000\001\200\000\001\200\000\001\200\000\001\200\000"
 4633      01800001 
 4633      80000180 
 4633      00
 4634 14ac 01800001 		.ascii	"\001\200\000\001\200\000\001\200\000?\374\000?\374\000"
 4634      80000180 
 4634      003FFC00 
 4634      3FFC00
 4635 14bb 00000000 		.ascii	"\000\000\000\000\000\000\000\000\000\000\000\000\000"
 4635      00000000 
 4635      00000000 
 4635      00
 4636 14c8 00000000 		.ascii	"\000\000\000\000\000\000\000\000\000\000\000\000\000"
 4636      00000000 
 4636      00000000 
 4636      00
 4637 14d5 0000C000 		.ascii	"\000\000\300\000\000\300\000\000\000\000\000\000\000"
 4637      00C00000 
 4637      00000000 
 4637      00
 4638 14e2 1FF0001F 		.ascii	"\037\360\000\037\360\000\0000\000\0000\000\0000\000"
 4638      F0000030 
 4638      00003000 
 4638      003000
 4639 14f1 00300000 		.ascii	"\0000\000\0000\000\0000\000\0000\000\0000\000\0000\000"
 4639      30000030 
 4639      00003000 
 4639      00300000 
 4639      3000
 4640 1503 00300000 		.ascii	"\0000\000\0000\000\000p\000\037\340\000\037\200\000"
 4640      30000070 
 4640      001FE000 
 4640      1F8000
 4641 1512 00000000 		.ascii	"\000\000\000\000\000\000\000\000\000\000\000\000<\000"
 4641      00000000 
 4641      00000000 
 4641      3C00
 4642 1520 003C0000 		.ascii	"\000<\000\000\014\000\000\014\000\000\014\370\000\014"
 4642      0C00000C 
 4642      00000CF8 
 4642      000C
 4643 152e F8000CC0 		.ascii	"\370\000\014\300\000\015\200\000\017\200\000\017\000"
 4643      000D8000 
 4643      0F80000F 
 4643      00
ARM GAS  /tmp/ccsDiBBo.s 			page 171


 4644 153b 000F8000 		.ascii	"\000\017\200\000\015\300\000\014\340\000<|\000<|\000"
 4644      0DC0000C 
 4644      E0003C7C 
 4644      003C7C00 
 4645 154b 00000000 		.ascii	"\000\000\000\000\000\000\000\000\000\000\000\000\000"
 4645      00000000 
 4645      00000000 
 4645      00
 4646 1558 00000000 		.ascii	"\000\000\000\000\000\000\000\000\000\000\000\000\000"
 4646      00000000 
 4646      00000000 
 4646      00
 4647 1565 001F8000 		.ascii	"\000\037\200\000\037\200\000\001\200\000\001\200\000"
 4647      1F800001 
 4647      80000180 
 4647      00
 4648 1572 01800001 		.ascii	"\001\200\000\001\200\000\001\200\000\001\200\000\001"
 4648      80000180 
 4648      00018000 
 4648      01
 4649 157f 80000180 		.ascii	"\200\000\001\200\000\001\200\000\001\200\000\001\200"
 4649      00018000 
 4649      01800001 
 4649      80
 4650 158c 003FFC00 		.ascii	"\000?\374\000?\374\000\000\000\000\000\000\000\000\000"
 4650      3FFC0000 
 4650      00000000 
 4650      000000
 4651 159b 00000000 		.ascii	"\000\000\000\000\000\000\000\000\000\000\000\000\000"
 4651      00000000 
 4651      00000000 
 4651      00
 4652 15a8 00000000 		.ascii	"\000\000\000\000\000\000\000\000\000\000\000\000\000"
 4652      00000000 
 4652      00000000 
 4652      00
 4653 15b5 00000000 		.ascii	"\000\000\000\000\000\367x\000\377\374\0009\314\0001"
 4653      00F77800 
 4653      FFFC0039 
 4653      CC0031
 4654 15c4 8C00318C 		.ascii	"\214\0001\214\0001\214\0001\214\0001\214\0001\214\000"
 4654      00318C00 
 4654      318C0031 
 4654      8C00318C 
 4654      00
 4655 15d5 FDEF00FD 		.ascii	"\375\357\000\375\357\000\000\000\000\000\000\000\000"
 4655      EF000000 
 4655      00000000 
 4655      00
 4656 15e2 00000000 		.ascii	"\000\000\000\000\000\000\000\000\000\000\000\000\000"
 4656      00000000 
 4656      00000000 
 4656      00
 4657 15ef 00000000 		.ascii	"\000\000\000\000\000\000\000\000\000\000\000\000\000"
 4657      00000000 
 4657      00000000 
 4657      00
ARM GAS  /tmp/ccsDiBBo.s 			page 172


 4658 15fc 00000000 		.ascii	"\000\000\000\000\000\000{\340\000\177\360\000\0348\000"
 4658      00007BE0 
 4658      007FF000 
 4658      1C3800
 4659 160b 18180018 		.ascii	"\030\030\000\030\030\000\030\030\000\030\030\000\030"
 4659      18001818 
 4659      00181800 
 4659      18
 4660 1618 18001818 		.ascii	"\030\000\030\030\000~~\000~~\000\000\000\000\000\000"
 4660      007E7E00 
 4660      7E7E0000 
 4660      00000000 
 4661 1628 00000000 		.ascii	"\000\000\000\000\000\000\000\000\000\000\000\000\000"
 4661      00000000 
 4661      00000000 
 4661      00
 4662 1635 00000000 		.ascii	"\000\000\000\000\000\000\000\000\000\000\000\000\000"
 4662      00000000 
 4662      00000000 
 4662      00
 4663 1642 00000000 		.ascii	"\000\000\000\000\000\000\000\000\003\300\000\017\360"
 4663      00000000 
 4663      03C0000F 
 4663      F0
 4664 164f 001C3800 		.ascii	"\000\0348\0008\034\0000\014\0000\014\0000\014\0008\034"
 4664      381C0030 
 4664      0C00300C 
 4664      00300C00 
 4664      381C
 4665 1661 001C3800 		.ascii	"\000\0348\000\017\360\000\003\300\000\000\000\000\000"
 4665      0FF00003 
 4665      C0000000 
 4665      0000
 4666 166f 00000000 		.ascii	"\000\000\000\000\000\000\000\000\000\000\000\000\000"
 4666      00000000 
 4666      00000000 
 4666      00
 4667 167c 00000000 		.ascii	"\000\000\000\000\000\000\000\000\000\000\000\000\000"
 4667      00000000 
 4667      00000000 
 4667      00
 4668 1689 00000000 		.ascii	"\000\000\000\000\000\000\000\000\000{\340\000\177\370"
 4668      00000000 
 4668      007BE000 
 4668      7FF8
 4669 1697 001C1800 		.ascii	"\000\034\030\000\030\014\000\030\014\000\030\014\000"
 4669      180C0018 
 4669      0C00180C 
 4669      00
 4670 16a4 180C0018 		.ascii	"\030\014\000\030\014\000\034\030\000\037\370\000\033"
 4670      0C001C18 
 4670      001FF800 
 4670      1B
 4671 16b1 E0001800 		.ascii	"\340\000\030\000\000\030\000\000\030\000\000\177\000"
 4671      00180000 
 4671      1800007F 
 4671      00
ARM GAS  /tmp/ccsDiBBo.s 			page 173


 4672 16be 007F0000 		.ascii	"\000\177\000\000\000\000\000\000\000\000\000\000\000"
 4672      00000000 
 4672      00000000 
 4672      00
 4673 16cb 00000000 		.ascii	"\000\000\000\000\000\000\000\000\000\000\000\000\000"
 4673      00000000 
 4673      00000000 
 4673      00
 4674 16d8 000007DE 		.ascii	"\000\000\007\336\000\037\376\000\0308\0000\030\0000"
 4674      001FFE00 
 4674      18380030 
 4674      180030
 4675 16e7 18003018 		.ascii	"\030\0000\030\0000\030\0000\030\000\0308\000\037\370"
 4675      00301800 
 4675      30180018 
 4675      38001FF8 
 4676 16f7 0007D800 		.ascii	"\000\007\330\000\000\030\000\000\030\000\000\030\000"
 4676      00180000 
 4676      18000018 
 4676      00
 4677 1704 00FE0000 		.ascii	"\000\376\000\000\376\000\000\000\000\000\000\000\000"
 4677      FE000000 
 4677      00000000 
 4677      00
 4678 1711 00000000 		.ascii	"\000\000\000\000\000\000\000\000\000\000\000\000\000"
 4678      00000000 
 4678      00000000 
 4678      00
 4679 171e 00000000 		.ascii	"\000\000\000\000>x\000>\374\000\007\314\000\007\000"
 4679      3E78003E 
 4679      FC0007CC 
 4679      000700
 4680 172d 00060000 		.ascii	"\000\006\000\000\006\000\000\006\000\000\006\000\000"
 4680      06000006 
 4680      00000600 
 4680      00
 4681 173a 0600003F 		.ascii	"\006\000\000?\360\000?\360\000\000\000\000\000\000\000"
 4681      F0003FF0 
 4681      00000000 
 4681      000000
 4682 1749 00000000 		.ascii	"\000\000\000\000\000\000\000\000\000\000\000\000\000"
 4682      00000000 
 4682      00000000 
 4682      00
 4683 1756 00000000 		.ascii	"\000\000\000\000\000\000\000\000\000\000\000\000\000"
 4683      00000000 
 4683      00000000 
 4683      00
 4684 1763 00000000 		.ascii	"\000\000\000\000\000\000\000\007\370\000\017\370\000"
 4684      00000007 
 4684      F8000FF8 
 4684      00
 4685 1770 18180018 		.ascii	"\030\030\000\030\030\000\037\200\000\017\360\000\000"
 4685      18001F80 
 4685      000FF000 
 4685      00
 4686 177d F8001818 		.ascii	"\370\000\030\030\000\0308\000\037\360\000\037\340\000"
ARM GAS  /tmp/ccsDiBBo.s 			page 174


 4686      00183800 
 4686      1FF0001F 
 4686      E000
 4687 178b 00000000 		.ascii	"\000\000\000\000\000\000\000\000\000\000\000\000\000"
 4687      00000000 
 4687      00000000 
 4687      00
 4688 1798 00000000 		.ascii	"\000\000\000\000\000\000\000\000\000\000\000\000\000"
 4688      00000000 
 4688      00000000 
 4688      00
 4689 17a5 000C0000 		.ascii	"\000\014\000\000\014\000\000\014\000\000\014\000\000"
 4689      0C00000C 
 4689      00000C00 
 4689      00
 4690 17b2 3FF0003F 		.ascii	"?\360\000?\360\000\014\000\000\014\000\000\014\000\000"
 4690      F0000C00 
 4690      000C0000 
 4690      0C0000
 4691 17c1 0C00000C 		.ascii	"\014\000\000\014\000\000\014\000\000\014\034\000\007"
 4691      00000C00 
 4691      000C1C00 
 4691      07
 4692 17ce FC0003F0 		.ascii	"\374\000\003\360\000\000\000\000\000\000\000\000\000"
 4692      00000000 
 4692      00000000 
 4692      00
 4693 17db 00000000 		.ascii	"\000\000\000\000\000\000\000\000\000\000\000\000\000"
 4693      00000000 
 4693      00000000 
 4693      00
 4694 17e8 00000000 		.ascii	"\000\000\000\000\000\000\000\000\000\000\000\000\000"
 4694      00000000 
 4694      00000000 
 4694      00
 4695 17f5 00000000 		.ascii	"\000\000\000\000\000xx\000xx\000\030\030\000\030\030"
 4695      00787800 
 4695      78780018 
 4695      18001818 
 4696 1805 00181800 		.ascii	"\000\030\030\000\030\030\000\030\030\000\030\030\000"
 4696      18180018 
 4696      18001818 
 4696      00
 4697 1812 1838000F 		.ascii	"\0308\000\017\376\000\007\336\000\000\000\000\000\000"
 4697      FE0007DE 
 4697      00000000 
 4697      0000
 4698 1820 00000000 		.ascii	"\000\000\000\000\000\000\000\000\000\000\000\000\000"
 4698      00000000 
 4698      00000000 
 4698      00
 4699 182d 00000000 		.ascii	"\000\000\000\000\000\000\000\000\000\000\000\000\000"
 4699      00000000 
 4699      00000000 
 4699      00
 4700 183a 00000000 		.ascii	"\000\000\000\000\000\000\000\000|>\000|>\000\030\030"
 4700      00000000 
ARM GAS  /tmp/ccsDiBBo.s 			page 175


 4700      7C3E007C 
 4700      3E001818 
 4701 184a 00181800 		.ascii	"\000\030\030\000\0140\000\0140\000\006`\000\006`\000"
 4701      0C30000C 
 4701      30000660 
 4701      00066000 
 4702 185a 07E00003 		.ascii	"\007\340\000\003\300\000\003\300\000\000\000\000\000"
 4702      C00003C0 
 4702      00000000 
 4702      00
 4703 1867 00000000 		.ascii	"\000\000\000\000\000\000\000\000\000\000\000\000\000"
 4703      00000000 
 4703      00000000 
 4703      00
 4704 1874 00000000 		.ascii	"\000\000\000\000\000\000\000\000\000\000\000\000\000"
 4704      00000000 
 4704      00000000 
 4704      00
 4705 1881 00000000 		.ascii	"\000\000\000\000\000\000\000\000\000x<\000x<\0001\030"
 4705      00000000 
 4705      00783C00 
 4705      783C0031 
 4705      18
 4706 1892 00339800 		.ascii	"\0003\230\0003\230\000\032\260\000\036\360\000\036\360"
 4706      3398001A 
 4706      B0001EF0 
 4706      001EF0
 4707 18a1 001C6000 		.ascii	"\000\034`\000\014`\000\014`\000\000\000\000\000\000"
 4707      0C60000C 
 4707      60000000 
 4707      000000
 4708 18b0 00000000 		.ascii	"\000\000\000\000\000\000\000\000\000\000\000\000\000"
 4708      00000000 
 4708      00000000 
 4708      00
 4709 18bd 00000000 		.ascii	"\000\000\000\000\000\000\000\000\000\000\000\000\000"
 4709      00000000 
 4709      00000000 
 4709      00
 4710 18ca 00000000 		.ascii	"\000\000\000\000\000\000\000\000>|\000>|\000\0140\000"
 4710      00000000 
 4710      3E7C003E 
 4710      7C000C30 
 4710      00
 4711 18db 06600003 		.ascii	"\006`\000\003\300\000\001\200\000\003\300\000\006`\000"
 4711      C0000180 
 4711      0003C000 
 4711      066000
 4712 18ea 0C30003E 		.ascii	"\0140\000>|\000>|\000\000\000\000\000\000\000\000\000"
 4712      7C003E7C 
 4712      00000000 
 4712      00000000 
 4712      00
 4713 18fb 00000000 		.ascii	"\000\000\000\000\000\000\000\000\000\000\000\000\000"
 4713      00000000 
 4713      00000000 
 4713      00
ARM GAS  /tmp/ccsDiBBo.s 			page 176


 4714 1908 00000000 		.ascii	"\000\000\000\000\000\000\000\000\000\000\000\000\000"
 4714      00000000 
 4714      00000000 
 4714      00
 4715 1915 00000000 		.ascii	"\000\000\000\000\000~\037\000~\037\000\030\014\000\014"
 4715      007E1F00 
 4715      7E1F0018 
 4715      0C000C
 4716 1924 18000C18 		.ascii	"\030\000\014\030\000\0060\000\0060\000\003`\000\003"
 4716      00063000 
 4716      06300003 
 4716      600003
 4717 1933 E00001C0 		.ascii	"\340\000\001\300\000\000\300\000\001\200\000\001\200"
 4717      0000C000 
 4717      01800001 
 4717      80
 4718 1940 00030000 		.ascii	"\000\003\000\000?\300\000?\300\000\000\000\000\000\000"
 4718      3FC0003F 
 4718      C0000000 
 4718      000000
 4719 194f 00000000 		.ascii	"\000\000\000\000\000\000\000\000\000\000\000\000\000"
 4719      00000000 
 4719      00000000 
 4719      00
 4720 195c 00000000 		.ascii	"\000\000\000\000\000\000\037\370\000\037\370\000\030"
 4720      00001FF8 
 4720      001FF800 
 4720      18
 4721 1969 30001860 		.ascii	"0\000\030`\000\000\300\000\001\200\000\003\000\000\006"
 4721      0000C000 
 4721      01800003 
 4721      000006
 4722 1978 18000C18 		.ascii	"\030\000\014\030\000\037\370\000\037\370\000\000\000"
 4722      001FF800 
 4722      1FF80000 
 4722      00
 4723 1985 00000000 		.ascii	"\000\000\000\000\000\000\000\000\000\000\000\000\000"
 4723      00000000 
 4723      00000000 
 4723      00
 4724 1992 00000000 		.ascii	"\000\000\000\000\000\000\000\000\000\000\000\000\000"
 4724      00000000 
 4724      00000000 
 4724      00
 4725 199f E00001E0 		.ascii	"\340\000\001\340\000\001\200\000\001\200\000\001\200"
 4725      00018000 
 4725      01800001 
 4725      80
 4726 19ac 00018000 		.ascii	"\000\001\200\000\001\200\000\001\200\000\003\200\000"
 4726      01800001 
 4726      80000380 
 4726      00
 4727 19b9 07000003 		.ascii	"\007\000\000\003\200\000\001\200\000\001\200\000\001"
 4727      80000180 
 4727      00018000 
 4727      01
 4728 19c6 80000180 		.ascii	"\200\000\001\200\000\001\200\000\001\340\000\000\340"
ARM GAS  /tmp/ccsDiBBo.s 			page 177


 4728      00018000 
 4728      01E00000 
 4728      E0
 4729 19d3 00000000 		.ascii	"\000\000\000\000\000\000\000\000\000\000\000\000\000"
 4729      00000000 
 4729      00000000 
 4729      00
 4730 19e0 00000000 		.ascii	"\000\000\000\000\000\000\001\200\000\001\200\000\001"
 4730      00000180 
 4730      00018000 
 4730      01
 4731 19ed 80000180 		.ascii	"\200\000\001\200\000\001\200\000\001\200\000\001\200"
 4731      00018000 
 4731      01800001 
 4731      80
 4732 19fa 00018000 		.ascii	"\000\001\200\000\001\200\000\001\200\000\001\200\000"
 4732      01800001 
 4732      80000180 
 4732      00
 4733 1a07 01800001 		.ascii	"\001\200\000\001\200\000\001\200\000\001\200\000\001"
 4733      80000180 
 4733      00018000 
 4733      01
 4734 1a14 80000180 		.ascii	"\200\000\001\200\000\001\200\000\000\000\000\000\000"
 4734      00018000 
 4734      00000000 
 4734      00
 4735 1a21 00000000 		.ascii	"\000\000\000\000\000\000\000\000\000\000\000\000\000"
 4735      00000000 
 4735      00000000 
 4735      00
 4736 1a2e 07000007 		.ascii	"\007\000\000\007\200\000\001\200\000\001\200\000\001"
 4736      80000180 
 4736      00018000 
 4736      01
 4737 1a3b 80000180 		.ascii	"\200\000\001\200\000\001\200\000\001\200\000\001\300"
 4737      00018000 
 4737      01800001 
 4737      C0
 4738 1a48 0000E000 		.ascii	"\000\000\340\000\001\300\000\001\200\000\001\200\000"
 4738      01C00001 
 4738      80000180 
 4738      00
 4739 1a55 01800001 		.ascii	"\001\200\000\001\200\000\001\200\000\007\200\000\007"
 4739      80000180 
 4739      00078000 
 4739      07
 4740 1a62 00000000 		.ascii	"\000\000\000\000\000\000\000\000\000\000\000\000\000"
 4740      00000000 
 4740      00000000 
 4740      00
 4741 1a6f 00000000 		.ascii	"\000\000\000\000\000\000\000\000\000\000\000\000\000"
 4741      00000000 
 4741      00000000 
 4741      00
 4742 1a7c 00000000 		.ascii	"\000\000\000\000\000\000\000\000\000\000\000\000\016"
 4742      00000000 
ARM GAS  /tmp/ccsDiBBo.s 			page 178


 4742      00000000 
 4742      0E
 4743 1a89 00001F18 		.ascii	"\000\000\037\030\000;\270\0001\360\000\000\340\000\000"
 4743      003BB800 
 4743      31F00000 
 4743      E00000
 4744 1a98 00000000 		.ascii	"\000\000\000\000\000\000\000\000\000\000\000\000\000"
 4744      00000000 
 4744      00000000 
 4744      00
 4745 1aa5 00000000 		.ascii	"\000\000\000\000\000\000\000\000\000\000\000\000\000"
 4745      00000000 
 4745      00000000 
 4745      00
 4746 1ab2 00000000 		.ascii	"\000\000\000\000\000\000"
 4746      0000
 4747              		.text
 4748              	.Letext0:
 4749              		.file 2 "/opt/st/stm32cubeclt_1.21.0/GNU-tools-for-STM32/arm-none-eabi/include/machine/_default_ty
 4750              		.file 3 "/opt/st/stm32cubeclt_1.21.0/GNU-tools-for-STM32/arm-none-eabi/include/sys/_stdint.h"
 4751              		.file 4 "../STM32Cube_FW_N6/Utilities/lcd/../Fonts/fonts.h"
 4752              		.file 5 "../STM32Cube_FW_N6/Drivers/BSP/Components/Common/lcd.h"
 4753              		.file 6 "../STM32Cube_FW_N6/Utilities/lcd/stm32_lcd.h"
 4754              		.file 7 "../STM32Cube_FW_N6/Utilities/lcd/../Fonts/font24.c"
 4755              		.file 8 "../STM32Cube_FW_N6/Utilities/lcd/../Fonts/font20.c"
 4756              		.file 9 "../STM32Cube_FW_N6/Utilities/lcd/../Fonts/font16.c"
 4757              		.file 10 "../STM32Cube_FW_N6/Utilities/lcd/../Fonts/font12.c"
 4758              		.file 11 "../STM32Cube_FW_N6/Utilities/lcd/../Fonts/font8.c"
 4759              		.file 12 "<built-in>"
ARM GAS  /tmp/ccsDiBBo.s 			page 179


DEFINED SYMBOLS
                            *ABS*:00000000 stm32_lcd.c
     /tmp/ccsDiBBo.s:26     .text.UTIL_LCD_SetFuncDriver:00000000 $t
     /tmp/ccsDiBBo.s:32     .text.UTIL_LCD_SetFuncDriver:00000000 UTIL_LCD_SetFuncDriver
     /tmp/ccsDiBBo.s:144    .text.UTIL_LCD_SetFuncDriver:00000060 $d
     /tmp/ccsDiBBo.s:3595   .bss.FuncDriver:00000000 FuncDriver
     /tmp/ccsDiBBo.s:3601   .bss.DrawProp:00000000 DrawProp
     /tmp/ccsDiBBo.s:150    .text.UTIL_LCD_SetLayer:00000000 $t
     /tmp/ccsDiBBo.s:156    .text.UTIL_LCD_SetLayer:00000000 UTIL_LCD_SetLayer
     /tmp/ccsDiBBo.s:236    .text.UTIL_LCD_SetLayer:00000044 $d
     /tmp/ccsDiBBo.s:242    .text.UTIL_LCD_SetDevice:00000000 $t
     /tmp/ccsDiBBo.s:248    .text.UTIL_LCD_SetDevice:00000000 UTIL_LCD_SetDevice
     /tmp/ccsDiBBo.s:296    .text.UTIL_LCD_SetDevice:00000020 $d
     /tmp/ccsDiBBo.s:302    .text.UTIL_LCD_SetTextColor:00000000 $t
     /tmp/ccsDiBBo.s:308    .text.UTIL_LCD_SetTextColor:00000000 UTIL_LCD_SetTextColor
     /tmp/ccsDiBBo.s:327    .text.UTIL_LCD_SetTextColor:0000000c $d
     /tmp/ccsDiBBo.s:332    .text.UTIL_LCD_GetTextColor:00000000 $t
     /tmp/ccsDiBBo.s:338    .text.UTIL_LCD_GetTextColor:00000000 UTIL_LCD_GetTextColor
     /tmp/ccsDiBBo.s:356    .text.UTIL_LCD_GetTextColor:0000000c $d
     /tmp/ccsDiBBo.s:361    .text.UTIL_LCD_SetBackColor:00000000 $t
     /tmp/ccsDiBBo.s:367    .text.UTIL_LCD_SetBackColor:00000000 UTIL_LCD_SetBackColor
     /tmp/ccsDiBBo.s:386    .text.UTIL_LCD_SetBackColor:0000000c $d
     /tmp/ccsDiBBo.s:391    .text.UTIL_LCD_GetBackColor:00000000 $t
     /tmp/ccsDiBBo.s:397    .text.UTIL_LCD_GetBackColor:00000000 UTIL_LCD_GetBackColor
     /tmp/ccsDiBBo.s:415    .text.UTIL_LCD_GetBackColor:0000000c $d
     /tmp/ccsDiBBo.s:420    .text.UTIL_LCD_SetFont:00000000 $t
     /tmp/ccsDiBBo.s:426    .text.UTIL_LCD_SetFont:00000000 UTIL_LCD_SetFont
     /tmp/ccsDiBBo.s:445    .text.UTIL_LCD_SetFont:0000000c $d
     /tmp/ccsDiBBo.s:450    .text.UTIL_LCD_GetFont:00000000 $t
     /tmp/ccsDiBBo.s:456    .text.UTIL_LCD_GetFont:00000000 UTIL_LCD_GetFont
     /tmp/ccsDiBBo.s:474    .text.UTIL_LCD_GetFont:0000000c $d
     /tmp/ccsDiBBo.s:479    .text.UTIL_LCD_FillRGBRect:00000000 $t
     /tmp/ccsDiBBo.s:485    .text.UTIL_LCD_FillRGBRect:00000000 UTIL_LCD_FillRGBRect
     /tmp/ccsDiBBo.s:528    .text.UTIL_LCD_FillRGBRect:0000001c $d
     /tmp/ccsDiBBo.s:534    .text.UTIL_LCD_DrawHLine:00000000 $t
     /tmp/ccsDiBBo.s:540    .text.UTIL_LCD_DrawHLine:00000000 UTIL_LCD_DrawHLine
     /tmp/ccsDiBBo.s:642    .text.UTIL_LCD_DrawHLine:00000064 $d
     /tmp/ccsDiBBo.s:648    .text.UTIL_LCD_DrawVLine:00000000 $t
     /tmp/ccsDiBBo.s:654    .text.UTIL_LCD_DrawVLine:00000000 UTIL_LCD_DrawVLine
     /tmp/ccsDiBBo.s:756    .text.UTIL_LCD_DrawVLine:00000064 $d
     /tmp/ccsDiBBo.s:762    .text.UTIL_LCD_GetPixel:00000000 $t
     /tmp/ccsDiBBo.s:768    .text.UTIL_LCD_GetPixel:00000000 UTIL_LCD_GetPixel
     /tmp/ccsDiBBo.s:876    .text.UTIL_LCD_GetPixel:0000009c $d
     /tmp/ccsDiBBo.s:882    .text.UTIL_LCD_SetPixel:00000000 $t
     /tmp/ccsDiBBo.s:888    .text.UTIL_LCD_SetPixel:00000000 UTIL_LCD_SetPixel
     /tmp/ccsDiBBo.s:987    .text.UTIL_LCD_SetPixel:00000060 $d
     /tmp/ccsDiBBo.s:993    .text.UTIL_LCD_DisplayChar:00000000 $t
     /tmp/ccsDiBBo.s:999    .text.UTIL_LCD_DisplayChar:00000000 UTIL_LCD_DisplayChar
     /tmp/ccsDiBBo.s:1421   .text.UTIL_LCD_DisplayChar:00000204 $d
     /tmp/ccsDiBBo.s:1428   .text.UTIL_LCD_DisplayStringAt:00000000 $t
     /tmp/ccsDiBBo.s:1434   .text.UTIL_LCD_DisplayStringAt:00000000 UTIL_LCD_DisplayStringAt
     /tmp/ccsDiBBo.s:1578   .text.UTIL_LCD_DisplayStringAt:00000088 $d
     /tmp/ccsDiBBo.s:1583   .text.UTIL_LCD_DisplayStringAtLine:00000000 $t
     /tmp/ccsDiBBo.s:1589   .text.UTIL_LCD_DisplayStringAtLine:00000000 UTIL_LCD_DisplayStringAtLine
     /tmp/ccsDiBBo.s:1629   .text.UTIL_LCD_DrawLine:00000000 $t
     /tmp/ccsDiBBo.s:1635   .text.UTIL_LCD_DrawLine:00000000 UTIL_LCD_DrawLine
     /tmp/ccsDiBBo.s:1845   .text.FillTriangle:00000000 $t
ARM GAS  /tmp/ccsDiBBo.s 			page 180


     /tmp/ccsDiBBo.s:1850   .text.FillTriangle:00000000 FillTriangle
     /tmp/ccsDiBBo.s:2076   .text.UTIL_LCD_DrawRect:00000000 $t
     /tmp/ccsDiBBo.s:2082   .text.UTIL_LCD_DrawRect:00000000 UTIL_LCD_DrawRect
     /tmp/ccsDiBBo.s:2155   .text.UTIL_LCD_DrawCircle:00000000 $t
     /tmp/ccsDiBBo.s:2161   .text.UTIL_LCD_DrawCircle:00000000 UTIL_LCD_DrawCircle
     /tmp/ccsDiBBo.s:2416   .text.UTIL_LCD_DrawCircle:00000148 $d
     /tmp/ccsDiBBo.s:2421   .text.UTIL_LCD_DrawPolygon:00000000 $t
     /tmp/ccsDiBBo.s:2427   .text.UTIL_LCD_DrawPolygon:00000000 UTIL_LCD_DrawPolygon
     /tmp/ccsDiBBo.s:2507   .text.UTIL_LCD_DrawEllipse:00000000 $t
     /tmp/ccsDiBBo.s:2513   .text.UTIL_LCD_DrawEllipse:00000000 UTIL_LCD_DrawEllipse
     /tmp/ccsDiBBo.s:2695   .text.UTIL_LCD_DrawBitmap:00000000 $t
     /tmp/ccsDiBBo.s:2701   .text.UTIL_LCD_DrawBitmap:00000000 UTIL_LCD_DrawBitmap
     /tmp/ccsDiBBo.s:2739   .text.UTIL_LCD_DrawBitmap:00000018 $d
     /tmp/ccsDiBBo.s:2745   .text.UTIL_LCD_FillRect:00000000 $t
     /tmp/ccsDiBBo.s:2751   .text.UTIL_LCD_FillRect:00000000 UTIL_LCD_FillRect
     /tmp/ccsDiBBo.s:2849   .text.UTIL_LCD_FillRect:00000070 $d
     /tmp/ccsDiBBo.s:2855   .text.UTIL_LCD_Clear:00000000 $t
     /tmp/ccsDiBBo.s:2861   .text.UTIL_LCD_Clear:00000000 UTIL_LCD_Clear
     /tmp/ccsDiBBo.s:2895   .text.UTIL_LCD_Clear:0000001c $d
     /tmp/ccsDiBBo.s:2900   .text.UTIL_LCD_ClearStringLine:00000000 $t
     /tmp/ccsDiBBo.s:2906   .text.UTIL_LCD_ClearStringLine:00000000 UTIL_LCD_ClearStringLine
     /tmp/ccsDiBBo.s:2946   .text.UTIL_LCD_ClearStringLine:00000024 $d
     /tmp/ccsDiBBo.s:2951   .text.UTIL_LCD_FillCircle:00000000 $t
     /tmp/ccsDiBBo.s:2957   .text.UTIL_LCD_FillCircle:00000000 UTIL_LCD_FillCircle
     /tmp/ccsDiBBo.s:3156   .text.UTIL_LCD_FillPolygon:00000000 $t
     /tmp/ccsDiBBo.s:3162   .text.UTIL_LCD_FillPolygon:00000000 UTIL_LCD_FillPolygon
     /tmp/ccsDiBBo.s:3433   .text.UTIL_LCD_FillEllipse:00000000 $t
     /tmp/ccsDiBBo.s:3439   .text.UTIL_LCD_FillEllipse:00000000 UTIL_LCD_FillEllipse
     /tmp/ccsDiBBo.s:3592   .bss.FuncDriver:00000000 $d
     /tmp/ccsDiBBo.s:3598   .bss.DrawProp:00000000 $d
     /tmp/ccsDiBBo.s:3608   .data.Font8:00000000 Font8
     /tmp/ccsDiBBo.s:3605   .data.Font8:00000000 $d
     /tmp/ccsDiBBo.s:3616   .rodata.Font8_Table:00000000 Font8_Table
     /tmp/ccsDiBBo.s:3659   .data.Font12:00000000 Font12
     /tmp/ccsDiBBo.s:3656   .data.Font12:00000000 $d
     /tmp/ccsDiBBo.s:3667   .rodata.Font12_Table:00000000 Font12_Table
     /tmp/ccsDiBBo.s:3736   .data.Font16:00000000 Font16
     /tmp/ccsDiBBo.s:3733   .data.Font16:00000000 $d
     /tmp/ccsDiBBo.s:3744   .rodata.Font16_Table:00000000 Font16_Table
     /tmp/ccsDiBBo.s:3962   .data.Font20:00000000 Font20
     /tmp/ccsDiBBo.s:3959   .data.Font20:00000000 $d
     /tmp/ccsDiBBo.s:3970   .rodata.Font20_Table:00000000 Font20_Table
     /tmp/ccsDiBBo.s:4238   .data.Font24:00000000 Font24
     /tmp/ccsDiBBo.s:4235   .data.Font24:00000000 $d
     /tmp/ccsDiBBo.s:4246   .rodata.Font24_Table:00000000 Font24_Table
                           .group:00000000 wm4.0.43608cab4da50df6ba2dfee95636a2b5
                           .group:00000000 wm4._newlib_version.h.4.0eb654b64686e2bd29646258853f6c22
                           .group:00000000 wm4.features.h.33.d554620bb17bd3b714c3fb5c268772bc
                           .group:00000000 wm4._default_types.h.15.247e5cd201eca3442cbf5404108c4935
                           .group:00000000 wm4._intsup.h.10.48bafbb683905c4daa4565a85aeeb264
                           .group:00000000 wm4._stdint.h.10.c24fa3af3bc1706662bb5593a907e841
                           .group:00000000 wm4.stdint.h.23.d53047a68f4a85177f80b422d52785ed
                           .group:00000000 wm4.lcd.h.21.98701c105e66fef2e089854e5bc0fe32
                           .group:00000000 wm4.stddef.h.39.811583f327f35b0df7808fda70b062a0
                           .group:00000000 wm4.stm32_lcd.h.55.1a04e503950bf34ef3721d2ebb9542fc

UNDEFINED SYMBOLS
ARM GAS  /tmp/ccsDiBBo.s 			page 181


strlen
