ARM GAS  /tmp/ccYCCc6B.s 			page 1


   1              		.arch armv8.1-m.main
   2              		.fpu fpv5-d16
   3              		.arch_extension dsp
   4              		.arch_extension fp
   5              		.arch_extension fp.dp
   6              		.arch_extension mve
   7              		.arch_extension mve.fp
   8              		.eabi_attribute 5, "cortex-m55"
   9              		.eabi_attribute 28, 1
  10              		.eabi_attribute 20, 1
  11              		.eabi_attribute 21, 1
  12              		.eabi_attribute 23, 3
  13              		.eabi_attribute 24, 1
  14              		.eabi_attribute 25, 1
  15              		.eabi_attribute 26, 1
  16              		.eabi_attribute 30, 4
  17              		.eabi_attribute 34, 1
  18              		.eabi_attribute 38, 1
  19              		.eabi_attribute 18, 4
  20              		.file	"stm32n6xx_hal_pcd_ex.c"
  21              		.text
  22              	.Ltext0:
  23              		.cfi_sections	.debug_frame
  24              		.file 1 "../STM32Cube_FW_N6/Drivers/STM32N6xx_HAL_Driver/Src/stm32n6xx_hal_pcd_ex.c"
  25              		.section	.text.HAL_PCDEx_SetTxFiFo,"ax",%progbits
  26              		.align	1
  27              		.global	HAL_PCDEx_SetTxFiFo
  28              		.syntax unified
  29              		.thumb
  30              		.thumb_func
  32              	HAL_PCDEx_SetTxFiFo:
  33              	.LVL0:
  34              	.LFB881:
   1:../STM32Cube_FW_N6/Drivers/STM32N6xx_HAL_Driver/Src/stm32n6xx_hal_pcd_ex.c **** /**
   2:../STM32Cube_FW_N6/Drivers/STM32N6xx_HAL_Driver/Src/stm32n6xx_hal_pcd_ex.c ****   ******************************************************************************
   3:../STM32Cube_FW_N6/Drivers/STM32N6xx_HAL_Driver/Src/stm32n6xx_hal_pcd_ex.c ****   * @file    stm32n6xx_hal_pcd_ex.c
   4:../STM32Cube_FW_N6/Drivers/STM32N6xx_HAL_Driver/Src/stm32n6xx_hal_pcd_ex.c ****   * @author  MCD Application Team
   5:../STM32Cube_FW_N6/Drivers/STM32N6xx_HAL_Driver/Src/stm32n6xx_hal_pcd_ex.c ****   * @brief   PCD Extended HAL module driver.
   6:../STM32Cube_FW_N6/Drivers/STM32N6xx_HAL_Driver/Src/stm32n6xx_hal_pcd_ex.c ****   *          This file provides firmware functions to manage the following
   7:../STM32Cube_FW_N6/Drivers/STM32N6xx_HAL_Driver/Src/stm32n6xx_hal_pcd_ex.c ****   *          functionalities of the USB Peripheral Controller:
   8:../STM32Cube_FW_N6/Drivers/STM32N6xx_HAL_Driver/Src/stm32n6xx_hal_pcd_ex.c ****   *           + Extended features functions
   9:../STM32Cube_FW_N6/Drivers/STM32N6xx_HAL_Driver/Src/stm32n6xx_hal_pcd_ex.c ****   *
  10:../STM32Cube_FW_N6/Drivers/STM32N6xx_HAL_Driver/Src/stm32n6xx_hal_pcd_ex.c ****   ******************************************************************************
  11:../STM32Cube_FW_N6/Drivers/STM32N6xx_HAL_Driver/Src/stm32n6xx_hal_pcd_ex.c ****   * @attention
  12:../STM32Cube_FW_N6/Drivers/STM32N6xx_HAL_Driver/Src/stm32n6xx_hal_pcd_ex.c ****   *
  13:../STM32Cube_FW_N6/Drivers/STM32N6xx_HAL_Driver/Src/stm32n6xx_hal_pcd_ex.c ****   * Copyright (c) 2023 STMicroelectronics.
  14:../STM32Cube_FW_N6/Drivers/STM32N6xx_HAL_Driver/Src/stm32n6xx_hal_pcd_ex.c ****   * All rights reserved.
  15:../STM32Cube_FW_N6/Drivers/STM32N6xx_HAL_Driver/Src/stm32n6xx_hal_pcd_ex.c ****   *
  16:../STM32Cube_FW_N6/Drivers/STM32N6xx_HAL_Driver/Src/stm32n6xx_hal_pcd_ex.c ****   * This software is licensed under terms that can be found in the LICENSE file
  17:../STM32Cube_FW_N6/Drivers/STM32N6xx_HAL_Driver/Src/stm32n6xx_hal_pcd_ex.c ****   * in the root directory of this software component.
  18:../STM32Cube_FW_N6/Drivers/STM32N6xx_HAL_Driver/Src/stm32n6xx_hal_pcd_ex.c ****   * If no LICENSE file comes with this software, it is provided AS-IS.
  19:../STM32Cube_FW_N6/Drivers/STM32N6xx_HAL_Driver/Src/stm32n6xx_hal_pcd_ex.c ****   *
  20:../STM32Cube_FW_N6/Drivers/STM32N6xx_HAL_Driver/Src/stm32n6xx_hal_pcd_ex.c ****   ******************************************************************************
  21:../STM32Cube_FW_N6/Drivers/STM32N6xx_HAL_Driver/Src/stm32n6xx_hal_pcd_ex.c ****   */
  22:../STM32Cube_FW_N6/Drivers/STM32N6xx_HAL_Driver/Src/stm32n6xx_hal_pcd_ex.c **** 
  23:../STM32Cube_FW_N6/Drivers/STM32N6xx_HAL_Driver/Src/stm32n6xx_hal_pcd_ex.c **** /* Includes ------------------------------------------------------------------*/
  24:../STM32Cube_FW_N6/Drivers/STM32N6xx_HAL_Driver/Src/stm32n6xx_hal_pcd_ex.c **** #include "stm32n6xx_hal.h"
ARM GAS  /tmp/ccYCCc6B.s 			page 2


  25:../STM32Cube_FW_N6/Drivers/STM32N6xx_HAL_Driver/Src/stm32n6xx_hal_pcd_ex.c **** 
  26:../STM32Cube_FW_N6/Drivers/STM32N6xx_HAL_Driver/Src/stm32n6xx_hal_pcd_ex.c **** /** @addtogroup STM32N6xx_HAL_Driver
  27:../STM32Cube_FW_N6/Drivers/STM32N6xx_HAL_Driver/Src/stm32n6xx_hal_pcd_ex.c ****   * @{
  28:../STM32Cube_FW_N6/Drivers/STM32N6xx_HAL_Driver/Src/stm32n6xx_hal_pcd_ex.c ****   */
  29:../STM32Cube_FW_N6/Drivers/STM32N6xx_HAL_Driver/Src/stm32n6xx_hal_pcd_ex.c **** 
  30:../STM32Cube_FW_N6/Drivers/STM32N6xx_HAL_Driver/Src/stm32n6xx_hal_pcd_ex.c **** /** @defgroup PCDEx PCDEx
  31:../STM32Cube_FW_N6/Drivers/STM32N6xx_HAL_Driver/Src/stm32n6xx_hal_pcd_ex.c ****   * @brief PCD Extended HAL module driver
  32:../STM32Cube_FW_N6/Drivers/STM32N6xx_HAL_Driver/Src/stm32n6xx_hal_pcd_ex.c ****   * @{
  33:../STM32Cube_FW_N6/Drivers/STM32N6xx_HAL_Driver/Src/stm32n6xx_hal_pcd_ex.c ****   */
  34:../STM32Cube_FW_N6/Drivers/STM32N6xx_HAL_Driver/Src/stm32n6xx_hal_pcd_ex.c **** 
  35:../STM32Cube_FW_N6/Drivers/STM32N6xx_HAL_Driver/Src/stm32n6xx_hal_pcd_ex.c **** #ifdef HAL_PCD_MODULE_ENABLED
  36:../STM32Cube_FW_N6/Drivers/STM32N6xx_HAL_Driver/Src/stm32n6xx_hal_pcd_ex.c **** 
  37:../STM32Cube_FW_N6/Drivers/STM32N6xx_HAL_Driver/Src/stm32n6xx_hal_pcd_ex.c **** #if defined (USB1_OTG_HS) || defined (USB2_OTG_HS)
  38:../STM32Cube_FW_N6/Drivers/STM32N6xx_HAL_Driver/Src/stm32n6xx_hal_pcd_ex.c **** /* Private types -------------------------------------------------------------*/
  39:../STM32Cube_FW_N6/Drivers/STM32N6xx_HAL_Driver/Src/stm32n6xx_hal_pcd_ex.c **** /* Private variables ---------------------------------------------------------*/
  40:../STM32Cube_FW_N6/Drivers/STM32N6xx_HAL_Driver/Src/stm32n6xx_hal_pcd_ex.c **** /* Private constants ---------------------------------------------------------*/
  41:../STM32Cube_FW_N6/Drivers/STM32N6xx_HAL_Driver/Src/stm32n6xx_hal_pcd_ex.c **** /* Private macros ------------------------------------------------------------*/
  42:../STM32Cube_FW_N6/Drivers/STM32N6xx_HAL_Driver/Src/stm32n6xx_hal_pcd_ex.c **** /* Private functions ---------------------------------------------------------*/
  43:../STM32Cube_FW_N6/Drivers/STM32N6xx_HAL_Driver/Src/stm32n6xx_hal_pcd_ex.c **** /* Exported functions --------------------------------------------------------*/
  44:../STM32Cube_FW_N6/Drivers/STM32N6xx_HAL_Driver/Src/stm32n6xx_hal_pcd_ex.c **** 
  45:../STM32Cube_FW_N6/Drivers/STM32N6xx_HAL_Driver/Src/stm32n6xx_hal_pcd_ex.c **** /** @defgroup PCDEx_Exported_Functions PCDEx Exported Functions
  46:../STM32Cube_FW_N6/Drivers/STM32N6xx_HAL_Driver/Src/stm32n6xx_hal_pcd_ex.c ****   * @{
  47:../STM32Cube_FW_N6/Drivers/STM32N6xx_HAL_Driver/Src/stm32n6xx_hal_pcd_ex.c ****   */
  48:../STM32Cube_FW_N6/Drivers/STM32N6xx_HAL_Driver/Src/stm32n6xx_hal_pcd_ex.c **** 
  49:../STM32Cube_FW_N6/Drivers/STM32N6xx_HAL_Driver/Src/stm32n6xx_hal_pcd_ex.c **** /** @defgroup PCDEx_Exported_Functions_Group1 Peripheral Control functions
  50:../STM32Cube_FW_N6/Drivers/STM32N6xx_HAL_Driver/Src/stm32n6xx_hal_pcd_ex.c ****   * @brief    PCDEx control functions
  51:../STM32Cube_FW_N6/Drivers/STM32N6xx_HAL_Driver/Src/stm32n6xx_hal_pcd_ex.c ****   *
  52:../STM32Cube_FW_N6/Drivers/STM32N6xx_HAL_Driver/Src/stm32n6xx_hal_pcd_ex.c **** @verbatim
  53:../STM32Cube_FW_N6/Drivers/STM32N6xx_HAL_Driver/Src/stm32n6xx_hal_pcd_ex.c ****  ===============================================================================
  54:../STM32Cube_FW_N6/Drivers/STM32N6xx_HAL_Driver/Src/stm32n6xx_hal_pcd_ex.c ****                  ##### Extended features functions #####
  55:../STM32Cube_FW_N6/Drivers/STM32N6xx_HAL_Driver/Src/stm32n6xx_hal_pcd_ex.c ****  ===============================================================================
  56:../STM32Cube_FW_N6/Drivers/STM32N6xx_HAL_Driver/Src/stm32n6xx_hal_pcd_ex.c ****     [..]  This section provides functions allowing to:
  57:../STM32Cube_FW_N6/Drivers/STM32N6xx_HAL_Driver/Src/stm32n6xx_hal_pcd_ex.c ****       (+) Update FIFO configuration
  58:../STM32Cube_FW_N6/Drivers/STM32N6xx_HAL_Driver/Src/stm32n6xx_hal_pcd_ex.c **** 
  59:../STM32Cube_FW_N6/Drivers/STM32N6xx_HAL_Driver/Src/stm32n6xx_hal_pcd_ex.c **** @endverbatim
  60:../STM32Cube_FW_N6/Drivers/STM32N6xx_HAL_Driver/Src/stm32n6xx_hal_pcd_ex.c ****   * @{
  61:../STM32Cube_FW_N6/Drivers/STM32N6xx_HAL_Driver/Src/stm32n6xx_hal_pcd_ex.c ****   */
  62:../STM32Cube_FW_N6/Drivers/STM32N6xx_HAL_Driver/Src/stm32n6xx_hal_pcd_ex.c **** #if defined (USB1_OTG_HS) || defined (USB2_OTG_HS)
  63:../STM32Cube_FW_N6/Drivers/STM32N6xx_HAL_Driver/Src/stm32n6xx_hal_pcd_ex.c **** /**
  64:../STM32Cube_FW_N6/Drivers/STM32N6xx_HAL_Driver/Src/stm32n6xx_hal_pcd_ex.c ****   * @brief  Set Tx FIFO
  65:../STM32Cube_FW_N6/Drivers/STM32N6xx_HAL_Driver/Src/stm32n6xx_hal_pcd_ex.c ****   * @param  hpcd PCD handle
  66:../STM32Cube_FW_N6/Drivers/STM32N6xx_HAL_Driver/Src/stm32n6xx_hal_pcd_ex.c ****   * @param  fifo The number of Tx fifo
  67:../STM32Cube_FW_N6/Drivers/STM32N6xx_HAL_Driver/Src/stm32n6xx_hal_pcd_ex.c ****   * @param  size Fifo size
  68:../STM32Cube_FW_N6/Drivers/STM32N6xx_HAL_Driver/Src/stm32n6xx_hal_pcd_ex.c ****   * @retval HAL status
  69:../STM32Cube_FW_N6/Drivers/STM32N6xx_HAL_Driver/Src/stm32n6xx_hal_pcd_ex.c ****   */
  70:../STM32Cube_FW_N6/Drivers/STM32N6xx_HAL_Driver/Src/stm32n6xx_hal_pcd_ex.c **** HAL_StatusTypeDef HAL_PCDEx_SetTxFiFo(PCD_HandleTypeDef *hpcd, uint8_t fifo, uint16_t size)
  71:../STM32Cube_FW_N6/Drivers/STM32N6xx_HAL_Driver/Src/stm32n6xx_hal_pcd_ex.c **** {
  35              		.loc 1 71 1 view -0
  36              		.cfi_startproc
  37              		@ args = 0, pretend = 0, frame = 0
  38              		@ frame_needed = 0, uses_anonymous_args = 0
  72:../STM32Cube_FW_N6/Drivers/STM32N6xx_HAL_Driver/Src/stm32n6xx_hal_pcd_ex.c ****   uint8_t i;
  39              		.loc 1 72 3 view .LVU1
  73:../STM32Cube_FW_N6/Drivers/STM32N6xx_HAL_Driver/Src/stm32n6xx_hal_pcd_ex.c ****   uint32_t Tx_Offset;
  40              		.loc 1 73 3 view .LVU2
  74:../STM32Cube_FW_N6/Drivers/STM32N6xx_HAL_Driver/Src/stm32n6xx_hal_pcd_ex.c **** 
  75:../STM32Cube_FW_N6/Drivers/STM32N6xx_HAL_Driver/Src/stm32n6xx_hal_pcd_ex.c ****   /*  TXn min size = 16 words. (n  : Transmit FIFO index)
ARM GAS  /tmp/ccYCCc6B.s 			page 3


  76:../STM32Cube_FW_N6/Drivers/STM32N6xx_HAL_Driver/Src/stm32n6xx_hal_pcd_ex.c ****       When a TxFIFO is not used, the Configuration should be as follows:
  77:../STM32Cube_FW_N6/Drivers/STM32N6xx_HAL_Driver/Src/stm32n6xx_hal_pcd_ex.c ****           case 1 :  n > m    and Txn is not used    (n,m  : Transmit FIFO indexes)
  78:../STM32Cube_FW_N6/Drivers/STM32N6xx_HAL_Driver/Src/stm32n6xx_hal_pcd_ex.c ****          --> Txm can use the space allocated for Txn.
  79:../STM32Cube_FW_N6/Drivers/STM32N6xx_HAL_Driver/Src/stm32n6xx_hal_pcd_ex.c ****          case2  :  n < m    and Txn is not used    (n,m  : Transmit FIFO indexes)
  80:../STM32Cube_FW_N6/Drivers/STM32N6xx_HAL_Driver/Src/stm32n6xx_hal_pcd_ex.c ****          --> Txn should be configured with the minimum space of 16 words
  81:../STM32Cube_FW_N6/Drivers/STM32N6xx_HAL_Driver/Src/stm32n6xx_hal_pcd_ex.c ****      The FIFO is used optimally when used TxFIFOs are allocated in the top
  82:../STM32Cube_FW_N6/Drivers/STM32N6xx_HAL_Driver/Src/stm32n6xx_hal_pcd_ex.c ****          of the FIFO.Ex: use EP1 and EP2 as IN instead of EP1 and EP3 as IN ones.
  83:../STM32Cube_FW_N6/Drivers/STM32N6xx_HAL_Driver/Src/stm32n6xx_hal_pcd_ex.c ****      When DMA is used 3n * FIFO locations should be reserved for internal DMA registers */
  84:../STM32Cube_FW_N6/Drivers/STM32N6xx_HAL_Driver/Src/stm32n6xx_hal_pcd_ex.c **** 
  85:../STM32Cube_FW_N6/Drivers/STM32N6xx_HAL_Driver/Src/stm32n6xx_hal_pcd_ex.c ****   Tx_Offset = hpcd->Instance->GRXFSIZ;
  41              		.loc 1 85 3 view .LVU3
  42              		.loc 1 85 19 is_stmt 0 view .LVU4
  43 0000 0068     		ldr	r0, [r0]
  44              	.LVL1:
  71:../STM32Cube_FW_N6/Drivers/STM32N6xx_HAL_Driver/Src/stm32n6xx_hal_pcd_ex.c ****   uint8_t i;
  45              		.loc 1 71 1 view .LVU5
  46 0002 30B5     		push	{r4, r5, lr}
  47              		.cfi_def_cfa_offset 12
  48              		.cfi_offset 4, -12
  49              		.cfi_offset 5, -8
  50              		.cfi_offset 14, -4
  51              		.loc 1 85 13 view .LVU6
  52 0004 436A     		ldr	r3, [r0, #36]
  53              	.LVL2:
  86:../STM32Cube_FW_N6/Drivers/STM32N6xx_HAL_Driver/Src/stm32n6xx_hal_pcd_ex.c **** 
  87:../STM32Cube_FW_N6/Drivers/STM32N6xx_HAL_Driver/Src/stm32n6xx_hal_pcd_ex.c ****   if (fifo == 0U)
  54              		.loc 1 87 3 is_stmt 1 view .LVU7
  88:../STM32Cube_FW_N6/Drivers/STM32N6xx_HAL_Driver/Src/stm32n6xx_hal_pcd_ex.c ****   {
  89:../STM32Cube_FW_N6/Drivers/STM32N6xx_HAL_Driver/Src/stm32n6xx_hal_pcd_ex.c ****     hpcd->Instance->DIEPTXF0_HNPTXFSIZ = ((uint32_t)size << 16) | Tx_Offset;
  55              		.loc 1 89 58 is_stmt 0 view .LVU8
  56 0006 1204     		lsls	r2, r2, #16
  57              	.LVL3:
  87:../STM32Cube_FW_N6/Drivers/STM32N6xx_HAL_Driver/Src/stm32n6xx_hal_pcd_ex.c ****   {
  58              		.loc 1 87 6 view .LVU9
  59 0008 19B9     		cbnz	r1, .L2
  60              		.loc 1 89 5 is_stmt 1 view .LVU10
  61              		.loc 1 89 65 is_stmt 0 view .LVU11
  62 000a 1343     		orrs	r3, r3, r2
  63              	.LVL4:
  64              		.loc 1 89 40 view .LVU12
  65 000c 8362     		str	r3, [r0, #40]
  66              	.LVL5:
  67              	.L3:
  90:../STM32Cube_FW_N6/Drivers/STM32N6xx_HAL_Driver/Src/stm32n6xx_hal_pcd_ex.c ****   }
  91:../STM32Cube_FW_N6/Drivers/STM32N6xx_HAL_Driver/Src/stm32n6xx_hal_pcd_ex.c ****   else
  92:../STM32Cube_FW_N6/Drivers/STM32N6xx_HAL_Driver/Src/stm32n6xx_hal_pcd_ex.c ****   {
  93:../STM32Cube_FW_N6/Drivers/STM32N6xx_HAL_Driver/Src/stm32n6xx_hal_pcd_ex.c ****     Tx_Offset += (hpcd->Instance->DIEPTXF0_HNPTXFSIZ) >> 16;
  94:../STM32Cube_FW_N6/Drivers/STM32N6xx_HAL_Driver/Src/stm32n6xx_hal_pcd_ex.c ****     for (i = 0U; i < (fifo - 1U); i++)
  95:../STM32Cube_FW_N6/Drivers/STM32N6xx_HAL_Driver/Src/stm32n6xx_hal_pcd_ex.c ****     {
  96:../STM32Cube_FW_N6/Drivers/STM32N6xx_HAL_Driver/Src/stm32n6xx_hal_pcd_ex.c ****       Tx_Offset += (hpcd->Instance->DIEPTXF[i] >> 16);
  97:../STM32Cube_FW_N6/Drivers/STM32N6xx_HAL_Driver/Src/stm32n6xx_hal_pcd_ex.c ****     }
  98:../STM32Cube_FW_N6/Drivers/STM32N6xx_HAL_Driver/Src/stm32n6xx_hal_pcd_ex.c **** 
  99:../STM32Cube_FW_N6/Drivers/STM32N6xx_HAL_Driver/Src/stm32n6xx_hal_pcd_ex.c ****     /* Multiply Tx_Size by 2 to get higher performance */
 100:../STM32Cube_FW_N6/Drivers/STM32N6xx_HAL_Driver/Src/stm32n6xx_hal_pcd_ex.c ****     hpcd->Instance->DIEPTXF[fifo - 1U] = ((uint32_t)size << 16) | Tx_Offset;
 101:../STM32Cube_FW_N6/Drivers/STM32N6xx_HAL_Driver/Src/stm32n6xx_hal_pcd_ex.c ****   }
 102:../STM32Cube_FW_N6/Drivers/STM32N6xx_HAL_Driver/Src/stm32n6xx_hal_pcd_ex.c **** 
 103:../STM32Cube_FW_N6/Drivers/STM32N6xx_HAL_Driver/Src/stm32n6xx_hal_pcd_ex.c ****   return HAL_OK;
ARM GAS  /tmp/ccYCCc6B.s 			page 4


  68              		.loc 1 103 3 is_stmt 1 view .LVU13
 104:../STM32Cube_FW_N6/Drivers/STM32N6xx_HAL_Driver/Src/stm32n6xx_hal_pcd_ex.c **** }
  69              		.loc 1 104 1 is_stmt 0 view .LVU14
  70 000e 0020     		movs	r0, #0
  71 0010 30BD     		pop	{r4, r5, pc}
  72              	.LVL6:
  73              	.L2:
  93:../STM32Cube_FW_N6/Drivers/STM32N6xx_HAL_Driver/Src/stm32n6xx_hal_pcd_ex.c ****     for (i = 0U; i < (fifo - 1U); i++)
  74              		.loc 1 93 5 is_stmt 1 view .LVU15
  93:../STM32Cube_FW_N6/Drivers/STM32N6xx_HAL_Driver/Src/stm32n6xx_hal_pcd_ex.c ****     for (i = 0U; i < (fifo - 1U); i++)
  75              		.loc 1 93 33 is_stmt 0 view .LVU16
  76 0012 846A     		ldr	r4, [r0, #40]
  77 0014 41F001E0 		dls	lr, r1
  93:../STM32Cube_FW_N6/Drivers/STM32N6xx_HAL_Driver/Src/stm32n6xx_hal_pcd_ex.c ****     for (i = 0U; i < (fifo - 1U); i++)
  78              		.loc 1 93 15 view .LVU17
  79 0018 03EB1443 		add	r3, r3, r4, lsr #16
  80              	.LVL7:
  94:../STM32Cube_FW_N6/Drivers/STM32N6xx_HAL_Driver/Src/stm32n6xx_hal_pcd_ex.c ****     {
  81              		.loc 1 94 5 is_stmt 1 view .LVU18
  94:../STM32Cube_FW_N6/Drivers/STM32N6xx_HAL_Driver/Src/stm32n6xx_hal_pcd_ex.c ****     {
  82              		.loc 1 94 5 is_stmt 0 view .LVU19
  83 001c 0024     		movs	r4, #0
  84              	.LVL8:
  85              	.L4:
  94:../STM32Cube_FW_N6/Drivers/STM32N6xx_HAL_Driver/Src/stm32n6xx_hal_pcd_ex.c ****     {
  86              		.loc 1 94 20 is_stmt 1 discriminator 1 view .LVU20
  87 001e BEF1010E 		subs	lr, #1;bne	.L5
  87      05D1
 100:../STM32Cube_FW_N6/Drivers/STM32N6xx_HAL_Driver/Src/stm32n6xx_hal_pcd_ex.c ****   }
  88              		.loc 1 100 5 view .LVU21
 100:../STM32Cube_FW_N6/Drivers/STM32N6xx_HAL_Driver/Src/stm32n6xx_hal_pcd_ex.c ****   }
  89              		.loc 1 100 40 is_stmt 0 view .LVU22
  90 0024 3F31     		adds	r1, r1, #63
  91              	.LVL9:
 100:../STM32Cube_FW_N6/Drivers/STM32N6xx_HAL_Driver/Src/stm32n6xx_hal_pcd_ex.c ****   }
  92              		.loc 1 100 65 view .LVU23
  93 0026 1343     		orrs	r3, r3, r2
  94              	.LVL10:
 100:../STM32Cube_FW_N6/Drivers/STM32N6xx_HAL_Driver/Src/stm32n6xx_hal_pcd_ex.c ****   }
  95              		.loc 1 100 40 view .LVU24
  96 0028 00EB8100 		add	r0, r0, r1, lsl #2
  97 002c 4360     		str	r3, [r0, #4]
  98 002e EEE7     		b	.L3
  99              	.LVL11:
 100              	.L5:
  96:../STM32Cube_FW_N6/Drivers/STM32N6xx_HAL_Driver/Src/stm32n6xx_hal_pcd_ex.c ****     }
 101              		.loc 1 96 7 is_stmt 1 view .LVU25
  96:../STM32Cube_FW_N6/Drivers/STM32N6xx_HAL_Driver/Src/stm32n6xx_hal_pcd_ex.c ****     }
 102              		.loc 1 96 44 is_stmt 0 view .LVU26
 103 0030 04F14005 		add	r5, r4, #64
 104 0034 00EB8505 		add	r5, r0, r5, lsl #2
 105 0038 6D68     		ldr	r5, [r5, #4]
 106 003a 0134     		adds	r4, r4, #1
 107              	.LVL12:
  96:../STM32Cube_FW_N6/Drivers/STM32N6xx_HAL_Driver/Src/stm32n6xx_hal_pcd_ex.c ****     }
 108              		.loc 1 96 17 view .LVU27
 109 003c 03EB1543 		add	r3, r3, r5, lsr #16
ARM GAS  /tmp/ccYCCc6B.s 			page 5


 110              	.LVL13:
  94:../STM32Cube_FW_N6/Drivers/STM32N6xx_HAL_Driver/Src/stm32n6xx_hal_pcd_ex.c ****     {
 111              		.loc 1 94 36 is_stmt 1 discriminator 3 view .LVU28
  94:../STM32Cube_FW_N6/Drivers/STM32N6xx_HAL_Driver/Src/stm32n6xx_hal_pcd_ex.c ****     {
 112              		.loc 1 94 36 is_stmt 0 discriminator 3 view .LVU29
 113 0040 EDE7     		b	.L4
 114              		.cfi_endproc
 115              	.LFE881:
 117              		.section	.text.HAL_PCDEx_SetRxFiFo,"ax",%progbits
 118              		.align	1
 119              		.global	HAL_PCDEx_SetRxFiFo
 120              		.syntax unified
 121              		.thumb
 122              		.thumb_func
 124              	HAL_PCDEx_SetRxFiFo:
 125              	.LVL14:
 126              	.LFB882:
 105:../STM32Cube_FW_N6/Drivers/STM32N6xx_HAL_Driver/Src/stm32n6xx_hal_pcd_ex.c **** 
 106:../STM32Cube_FW_N6/Drivers/STM32N6xx_HAL_Driver/Src/stm32n6xx_hal_pcd_ex.c **** /**
 107:../STM32Cube_FW_N6/Drivers/STM32N6xx_HAL_Driver/Src/stm32n6xx_hal_pcd_ex.c ****   * @brief  Set Rx FIFO
 108:../STM32Cube_FW_N6/Drivers/STM32N6xx_HAL_Driver/Src/stm32n6xx_hal_pcd_ex.c ****   * @param  hpcd PCD handle
 109:../STM32Cube_FW_N6/Drivers/STM32N6xx_HAL_Driver/Src/stm32n6xx_hal_pcd_ex.c ****   * @param  size Size of Rx fifo
 110:../STM32Cube_FW_N6/Drivers/STM32N6xx_HAL_Driver/Src/stm32n6xx_hal_pcd_ex.c ****   * @retval HAL status
 111:../STM32Cube_FW_N6/Drivers/STM32N6xx_HAL_Driver/Src/stm32n6xx_hal_pcd_ex.c ****   */
 112:../STM32Cube_FW_N6/Drivers/STM32N6xx_HAL_Driver/Src/stm32n6xx_hal_pcd_ex.c **** HAL_StatusTypeDef HAL_PCDEx_SetRxFiFo(PCD_HandleTypeDef *hpcd, uint16_t size)
 113:../STM32Cube_FW_N6/Drivers/STM32N6xx_HAL_Driver/Src/stm32n6xx_hal_pcd_ex.c **** {
 127              		.loc 1 113 1 is_stmt 1 view -0
 128              		.cfi_startproc
 129              		@ args = 0, pretend = 0, frame = 0
 130              		@ frame_needed = 0, uses_anonymous_args = 0
 131              		@ link register save eliminated.
 114:../STM32Cube_FW_N6/Drivers/STM32N6xx_HAL_Driver/Src/stm32n6xx_hal_pcd_ex.c ****   hpcd->Instance->GRXFSIZ = size;
 132              		.loc 1 114 3 view .LVU31
 133              		.loc 1 114 7 is_stmt 0 view .LVU32
 134 0000 0368     		ldr	r3, [r0]
 115:../STM32Cube_FW_N6/Drivers/STM32N6xx_HAL_Driver/Src/stm32n6xx_hal_pcd_ex.c **** 
 116:../STM32Cube_FW_N6/Drivers/STM32N6xx_HAL_Driver/Src/stm32n6xx_hal_pcd_ex.c ****   return HAL_OK;
 117:../STM32Cube_FW_N6/Drivers/STM32N6xx_HAL_Driver/Src/stm32n6xx_hal_pcd_ex.c **** }
 135              		.loc 1 117 1 view .LVU33
 136 0002 0020     		movs	r0, #0
 137              	.LVL15:
 114:../STM32Cube_FW_N6/Drivers/STM32N6xx_HAL_Driver/Src/stm32n6xx_hal_pcd_ex.c ****   hpcd->Instance->GRXFSIZ = size;
 138              		.loc 1 114 27 view .LVU34
 139 0004 5962     		str	r1, [r3, #36]
 116:../STM32Cube_FW_N6/Drivers/STM32N6xx_HAL_Driver/Src/stm32n6xx_hal_pcd_ex.c **** }
 140              		.loc 1 116 3 is_stmt 1 view .LVU35
 141              		.loc 1 117 1 is_stmt 0 view .LVU36
 142 0006 7047     		bx	lr
 143              		.cfi_endproc
 144              	.LFE882:
 146              		.section	.text.HAL_PCDEx_ActivateLPM,"ax",%progbits
 147              		.align	1
 148              		.global	HAL_PCDEx_ActivateLPM
 149              		.syntax unified
 150              		.thumb
 151              		.thumb_func
 153              	HAL_PCDEx_ActivateLPM:
ARM GAS  /tmp/ccYCCc6B.s 			page 6


 154              	.LVL16:
 155              	.LFB883:
 118:../STM32Cube_FW_N6/Drivers/STM32N6xx_HAL_Driver/Src/stm32n6xx_hal_pcd_ex.c **** 
 119:../STM32Cube_FW_N6/Drivers/STM32N6xx_HAL_Driver/Src/stm32n6xx_hal_pcd_ex.c **** /**
 120:../STM32Cube_FW_N6/Drivers/STM32N6xx_HAL_Driver/Src/stm32n6xx_hal_pcd_ex.c ****   * @brief  Activate LPM feature.
 121:../STM32Cube_FW_N6/Drivers/STM32N6xx_HAL_Driver/Src/stm32n6xx_hal_pcd_ex.c ****   * @param  hpcd PCD handle
 122:../STM32Cube_FW_N6/Drivers/STM32N6xx_HAL_Driver/Src/stm32n6xx_hal_pcd_ex.c ****   * @retval HAL status
 123:../STM32Cube_FW_N6/Drivers/STM32N6xx_HAL_Driver/Src/stm32n6xx_hal_pcd_ex.c ****   */
 124:../STM32Cube_FW_N6/Drivers/STM32N6xx_HAL_Driver/Src/stm32n6xx_hal_pcd_ex.c **** HAL_StatusTypeDef HAL_PCDEx_ActivateLPM(PCD_HandleTypeDef *hpcd)
 125:../STM32Cube_FW_N6/Drivers/STM32N6xx_HAL_Driver/Src/stm32n6xx_hal_pcd_ex.c **** {
 156              		.loc 1 125 1 is_stmt 1 view -0
 157              		.cfi_startproc
 158              		@ args = 0, pretend = 0, frame = 0
 159              		@ frame_needed = 0, uses_anonymous_args = 0
 160              		@ link register save eliminated.
 126:../STM32Cube_FW_N6/Drivers/STM32N6xx_HAL_Driver/Src/stm32n6xx_hal_pcd_ex.c ****   USB_OTG_GlobalTypeDef *USBx = hpcd->Instance;
 161              		.loc 1 126 3 view .LVU38
 127:../STM32Cube_FW_N6/Drivers/STM32N6xx_HAL_Driver/Src/stm32n6xx_hal_pcd_ex.c **** 
 128:../STM32Cube_FW_N6/Drivers/STM32N6xx_HAL_Driver/Src/stm32n6xx_hal_pcd_ex.c ****   hpcd->lpm_active = 1U;
 162              		.loc 1 128 20 is_stmt 0 view .LVU39
 163 0000 0121     		movs	r1, #1
 126:../STM32Cube_FW_N6/Drivers/STM32N6xx_HAL_Driver/Src/stm32n6xx_hal_pcd_ex.c ****   USB_OTG_GlobalTypeDef *USBx = hpcd->Instance;
 164              		.loc 1 126 26 view .LVU40
 165 0002 0268     		ldr	r2, [r0]
 166              	.LVL17:
 167              		.loc 1 128 3 is_stmt 1 view .LVU41
 168              		.loc 1 128 20 is_stmt 0 view .LVU42
 169 0004 C0F8D814 		str	r1, [r0, #1240]
 129:../STM32Cube_FW_N6/Drivers/STM32N6xx_HAL_Driver/Src/stm32n6xx_hal_pcd_ex.c ****   hpcd->LPM_State = LPM_L0;
 170              		.loc 1 129 3 is_stmt 1 view .LVU43
 125:../STM32Cube_FW_N6/Drivers/STM32N6xx_HAL_Driver/Src/stm32n6xx_hal_pcd_ex.c ****   USB_OTG_GlobalTypeDef *USBx = hpcd->Instance;
 171              		.loc 1 125 1 is_stmt 0 view .LVU44
 172 0008 0346     		mov	r3, r0
 173              		.loc 1 129 19 view .LVU45
 174 000a 0020     		movs	r0, #0
 175              	.LVL18:
 176              		.loc 1 129 19 view .LVU46
 177 000c 83F8CC04 		strb	r0, [r3, #1228]
 130:../STM32Cube_FW_N6/Drivers/STM32N6xx_HAL_Driver/Src/stm32n6xx_hal_pcd_ex.c ****   USBx->GINTMSK |= USB_OTG_GINTMSK_LPMINTM;
 178              		.loc 1 130 3 is_stmt 1 view .LVU47
 179              		.loc 1 130 7 is_stmt 0 view .LVU48
 180 0010 9369     		ldr	r3, [r2, #24]
 181              	.LVL19:
 182              		.loc 1 130 17 view .LVU49
 183 0012 43F00063 		orr	r3, r3, #134217728
 184 0016 9361     		str	r3, [r2, #24]
 131:../STM32Cube_FW_N6/Drivers/STM32N6xx_HAL_Driver/Src/stm32n6xx_hal_pcd_ex.c ****   USBx->GLPMCFG |= (USB_OTG_GLPMCFG_LPMEN | USB_OTG_GLPMCFG_LPMACK | USB_OTG_GLPMCFG_ENBESL);
 185              		.loc 1 131 3 is_stmt 1 view .LVU50
 186              		.loc 1 131 7 is_stmt 0 view .LVU51
 187 0018 536D     		ldr	r3, [r2, #84]
 188              		.loc 1 131 17 view .LVU52
 189 001a 43F08053 		orr	r3, r3, #268435456
 190 001e 43F00303 		orr	r3, r3, #3
 191 0022 5365     		str	r3, [r2, #84]
 132:../STM32Cube_FW_N6/Drivers/STM32N6xx_HAL_Driver/Src/stm32n6xx_hal_pcd_ex.c **** 
 133:../STM32Cube_FW_N6/Drivers/STM32N6xx_HAL_Driver/Src/stm32n6xx_hal_pcd_ex.c ****   return HAL_OK;
 192              		.loc 1 133 3 is_stmt 1 view .LVU53
ARM GAS  /tmp/ccYCCc6B.s 			page 7


 134:../STM32Cube_FW_N6/Drivers/STM32N6xx_HAL_Driver/Src/stm32n6xx_hal_pcd_ex.c **** }
 193              		.loc 1 134 1 is_stmt 0 view .LVU54
 194 0024 7047     		bx	lr
 195              		.cfi_endproc
 196              	.LFE883:
 198              		.section	.text.HAL_PCDEx_DeActivateLPM,"ax",%progbits
 199              		.align	1
 200              		.global	HAL_PCDEx_DeActivateLPM
 201              		.syntax unified
 202              		.thumb
 203              		.thumb_func
 205              	HAL_PCDEx_DeActivateLPM:
 206              	.LVL20:
 207              	.LFB884:
 135:../STM32Cube_FW_N6/Drivers/STM32N6xx_HAL_Driver/Src/stm32n6xx_hal_pcd_ex.c **** 
 136:../STM32Cube_FW_N6/Drivers/STM32N6xx_HAL_Driver/Src/stm32n6xx_hal_pcd_ex.c **** /**
 137:../STM32Cube_FW_N6/Drivers/STM32N6xx_HAL_Driver/Src/stm32n6xx_hal_pcd_ex.c ****   * @brief  Deactivate LPM feature.
 138:../STM32Cube_FW_N6/Drivers/STM32N6xx_HAL_Driver/Src/stm32n6xx_hal_pcd_ex.c ****   * @param  hpcd PCD handle
 139:../STM32Cube_FW_N6/Drivers/STM32N6xx_HAL_Driver/Src/stm32n6xx_hal_pcd_ex.c ****   * @retval HAL status
 140:../STM32Cube_FW_N6/Drivers/STM32N6xx_HAL_Driver/Src/stm32n6xx_hal_pcd_ex.c ****   */
 141:../STM32Cube_FW_N6/Drivers/STM32N6xx_HAL_Driver/Src/stm32n6xx_hal_pcd_ex.c **** HAL_StatusTypeDef HAL_PCDEx_DeActivateLPM(PCD_HandleTypeDef *hpcd)
 142:../STM32Cube_FW_N6/Drivers/STM32N6xx_HAL_Driver/Src/stm32n6xx_hal_pcd_ex.c **** {
 208              		.loc 1 142 1 is_stmt 1 view -0
 209              		.cfi_startproc
 210              		@ args = 0, pretend = 0, frame = 0
 211              		@ frame_needed = 0, uses_anonymous_args = 0
 212              		@ link register save eliminated.
 143:../STM32Cube_FW_N6/Drivers/STM32N6xx_HAL_Driver/Src/stm32n6xx_hal_pcd_ex.c ****   USB_OTG_GlobalTypeDef *USBx = hpcd->Instance;
 213              		.loc 1 143 3 view .LVU56
 214              		.loc 1 143 26 is_stmt 0 view .LVU57
 215 0000 0268     		ldr	r2, [r0]
 216              	.LVL21:
 144:../STM32Cube_FW_N6/Drivers/STM32N6xx_HAL_Driver/Src/stm32n6xx_hal_pcd_ex.c **** 
 145:../STM32Cube_FW_N6/Drivers/STM32N6xx_HAL_Driver/Src/stm32n6xx_hal_pcd_ex.c ****   hpcd->lpm_active = 0U;
 217              		.loc 1 145 3 is_stmt 1 view .LVU58
 142:../STM32Cube_FW_N6/Drivers/STM32N6xx_HAL_Driver/Src/stm32n6xx_hal_pcd_ex.c ****   USB_OTG_GlobalTypeDef *USBx = hpcd->Instance;
 218              		.loc 1 142 1 is_stmt 0 view .LVU59
 219 0002 0346     		mov	r3, r0
 220              		.loc 1 145 20 view .LVU60
 221 0004 0020     		movs	r0, #0
 222              	.LVL22:
 223              		.loc 1 145 20 view .LVU61
 224 0006 C3F8D804 		str	r0, [r3, #1240]
 146:../STM32Cube_FW_N6/Drivers/STM32N6xx_HAL_Driver/Src/stm32n6xx_hal_pcd_ex.c ****   USBx->GINTMSK &= ~USB_OTG_GINTMSK_LPMINTM;
 225              		.loc 1 146 3 is_stmt 1 view .LVU62
 226              		.loc 1 146 7 is_stmt 0 view .LVU63
 227 000a 9369     		ldr	r3, [r2, #24]
 228              	.LVL23:
 229              		.loc 1 146 17 view .LVU64
 230 000c 23F00063 		bic	r3, r3, #134217728
 231 0010 9361     		str	r3, [r2, #24]
 147:../STM32Cube_FW_N6/Drivers/STM32N6xx_HAL_Driver/Src/stm32n6xx_hal_pcd_ex.c ****   USBx->GLPMCFG &= ~(USB_OTG_GLPMCFG_LPMEN | USB_OTG_GLPMCFG_LPMACK | USB_OTG_GLPMCFG_ENBESL);
 232              		.loc 1 147 3 is_stmt 1 view .LVU65
 233              		.loc 1 147 7 is_stmt 0 view .LVU66
 234 0012 536D     		ldr	r3, [r2, #84]
 235              		.loc 1 147 17 view .LVU67
 236 0014 23F08053 		bic	r3, r3, #268435456
ARM GAS  /tmp/ccYCCc6B.s 			page 8


 237 0018 23F00303 		bic	r3, r3, #3
 238 001c 5365     		str	r3, [r2, #84]
 148:../STM32Cube_FW_N6/Drivers/STM32N6xx_HAL_Driver/Src/stm32n6xx_hal_pcd_ex.c **** 
 149:../STM32Cube_FW_N6/Drivers/STM32N6xx_HAL_Driver/Src/stm32n6xx_hal_pcd_ex.c ****   return HAL_OK;
 239              		.loc 1 149 3 is_stmt 1 view .LVU68
 150:../STM32Cube_FW_N6/Drivers/STM32N6xx_HAL_Driver/Src/stm32n6xx_hal_pcd_ex.c **** }
 240              		.loc 1 150 1 is_stmt 0 view .LVU69
 241 001e 7047     		bx	lr
 242              		.cfi_endproc
 243              	.LFE884:
 245              		.section	.text.HAL_PCDEx_ActivateBCD,"ax",%progbits
 246              		.align	1
 247              		.global	HAL_PCDEx_ActivateBCD
 248              		.syntax unified
 249              		.thumb
 250              		.thumb_func
 252              	HAL_PCDEx_ActivateBCD:
 253              	.LVL24:
 254              	.LFB886:
 151:../STM32Cube_FW_N6/Drivers/STM32N6xx_HAL_Driver/Src/stm32n6xx_hal_pcd_ex.c **** 
 152:../STM32Cube_FW_N6/Drivers/STM32N6xx_HAL_Driver/Src/stm32n6xx_hal_pcd_ex.c **** 
 153:../STM32Cube_FW_N6/Drivers/STM32N6xx_HAL_Driver/Src/stm32n6xx_hal_pcd_ex.c **** /**
 154:../STM32Cube_FW_N6/Drivers/STM32N6xx_HAL_Driver/Src/stm32n6xx_hal_pcd_ex.c ****   * @brief  Handle BatteryCharging Process.
 155:../STM32Cube_FW_N6/Drivers/STM32N6xx_HAL_Driver/Src/stm32n6xx_hal_pcd_ex.c ****   * @param  hpcd PCD handle
 156:../STM32Cube_FW_N6/Drivers/STM32N6xx_HAL_Driver/Src/stm32n6xx_hal_pcd_ex.c ****   * @retval HAL status
 157:../STM32Cube_FW_N6/Drivers/STM32N6xx_HAL_Driver/Src/stm32n6xx_hal_pcd_ex.c ****   */
 158:../STM32Cube_FW_N6/Drivers/STM32N6xx_HAL_Driver/Src/stm32n6xx_hal_pcd_ex.c **** void HAL_PCDEx_BCD_VBUSDetect(PCD_HandleTypeDef *hpcd)
 159:../STM32Cube_FW_N6/Drivers/STM32N6xx_HAL_Driver/Src/stm32n6xx_hal_pcd_ex.c **** {
 160:../STM32Cube_FW_N6/Drivers/STM32N6xx_HAL_Driver/Src/stm32n6xx_hal_pcd_ex.c ****   USB_OTG_GlobalTypeDef *USBx = hpcd->Instance;
 161:../STM32Cube_FW_N6/Drivers/STM32N6xx_HAL_Driver/Src/stm32n6xx_hal_pcd_ex.c ****   uint32_t tickstart = HAL_GetTick();
 162:../STM32Cube_FW_N6/Drivers/STM32N6xx_HAL_Driver/Src/stm32n6xx_hal_pcd_ex.c **** 
 163:../STM32Cube_FW_N6/Drivers/STM32N6xx_HAL_Driver/Src/stm32n6xx_hal_pcd_ex.c ****   /* Enable DCD : Data Contact Detect */
 164:../STM32Cube_FW_N6/Drivers/STM32N6xx_HAL_Driver/Src/stm32n6xx_hal_pcd_ex.c ****   USBx->GCCFG |= USB_OTG_GCCFG_DCDETEN;
 165:../STM32Cube_FW_N6/Drivers/STM32N6xx_HAL_Driver/Src/stm32n6xx_hal_pcd_ex.c **** 
 166:../STM32Cube_FW_N6/Drivers/STM32N6xx_HAL_Driver/Src/stm32n6xx_hal_pcd_ex.c ****   /* Wait for Min DCD Timeout */
 167:../STM32Cube_FW_N6/Drivers/STM32N6xx_HAL_Driver/Src/stm32n6xx_hal_pcd_ex.c ****   HAL_Delay(300U);
 168:../STM32Cube_FW_N6/Drivers/STM32N6xx_HAL_Driver/Src/stm32n6xx_hal_pcd_ex.c **** 
 169:../STM32Cube_FW_N6/Drivers/STM32N6xx_HAL_Driver/Src/stm32n6xx_hal_pcd_ex.c **** 
 170:../STM32Cube_FW_N6/Drivers/STM32N6xx_HAL_Driver/Src/stm32n6xx_hal_pcd_ex.c ****   /* Primary detection: checks if connected to Standard Downstream Port
 171:../STM32Cube_FW_N6/Drivers/STM32N6xx_HAL_Driver/Src/stm32n6xx_hal_pcd_ex.c ****   (without charging capability) */
 172:../STM32Cube_FW_N6/Drivers/STM32N6xx_HAL_Driver/Src/stm32n6xx_hal_pcd_ex.c ****   USBx->GCCFG &= ~USB_OTG_GCCFG_DCDETEN;
 173:../STM32Cube_FW_N6/Drivers/STM32N6xx_HAL_Driver/Src/stm32n6xx_hal_pcd_ex.c ****   HAL_Delay(50U);
 174:../STM32Cube_FW_N6/Drivers/STM32N6xx_HAL_Driver/Src/stm32n6xx_hal_pcd_ex.c ****   USBx->GCCFG |= USB_OTG_GCCFG_PDETEN;
 175:../STM32Cube_FW_N6/Drivers/STM32N6xx_HAL_Driver/Src/stm32n6xx_hal_pcd_ex.c ****   HAL_Delay(50U);
 176:../STM32Cube_FW_N6/Drivers/STM32N6xx_HAL_Driver/Src/stm32n6xx_hal_pcd_ex.c **** 
 177:../STM32Cube_FW_N6/Drivers/STM32N6xx_HAL_Driver/Src/stm32n6xx_hal_pcd_ex.c ****   if ((USBx->GCCFG & USB_OTG_GCCFG_CHGDET) == 0U)
 178:../STM32Cube_FW_N6/Drivers/STM32N6xx_HAL_Driver/Src/stm32n6xx_hal_pcd_ex.c ****   {
 179:../STM32Cube_FW_N6/Drivers/STM32N6xx_HAL_Driver/Src/stm32n6xx_hal_pcd_ex.c ****     /* Case of Standard Downstream Port */
 180:../STM32Cube_FW_N6/Drivers/STM32N6xx_HAL_Driver/Src/stm32n6xx_hal_pcd_ex.c **** #if (USE_HAL_PCD_REGISTER_CALLBACKS == 1U)
 181:../STM32Cube_FW_N6/Drivers/STM32N6xx_HAL_Driver/Src/stm32n6xx_hal_pcd_ex.c ****     hpcd->BCDCallback(hpcd, PCD_BCD_STD_DOWNSTREAM_PORT);
 182:../STM32Cube_FW_N6/Drivers/STM32N6xx_HAL_Driver/Src/stm32n6xx_hal_pcd_ex.c **** #else
 183:../STM32Cube_FW_N6/Drivers/STM32N6xx_HAL_Driver/Src/stm32n6xx_hal_pcd_ex.c ****     HAL_PCDEx_BCD_Callback(hpcd, PCD_BCD_STD_DOWNSTREAM_PORT);
 184:../STM32Cube_FW_N6/Drivers/STM32N6xx_HAL_Driver/Src/stm32n6xx_hal_pcd_ex.c **** #endif /* USE_HAL_PCD_REGISTER_CALLBACKS */
 185:../STM32Cube_FW_N6/Drivers/STM32N6xx_HAL_Driver/Src/stm32n6xx_hal_pcd_ex.c ****   }
 186:../STM32Cube_FW_N6/Drivers/STM32N6xx_HAL_Driver/Src/stm32n6xx_hal_pcd_ex.c ****   else
 187:../STM32Cube_FW_N6/Drivers/STM32N6xx_HAL_Driver/Src/stm32n6xx_hal_pcd_ex.c ****   {
 188:../STM32Cube_FW_N6/Drivers/STM32N6xx_HAL_Driver/Src/stm32n6xx_hal_pcd_ex.c ****     /* start secondary detection to check connection to Charging Downstream
ARM GAS  /tmp/ccYCCc6B.s 			page 9


 189:../STM32Cube_FW_N6/Drivers/STM32N6xx_HAL_Driver/Src/stm32n6xx_hal_pcd_ex.c ****     Port or Dedicated Charging Port */
 190:../STM32Cube_FW_N6/Drivers/STM32N6xx_HAL_Driver/Src/stm32n6xx_hal_pcd_ex.c ****     USBx->GCCFG &= ~(USB_OTG_GCCFG_PDETEN);
 191:../STM32Cube_FW_N6/Drivers/STM32N6xx_HAL_Driver/Src/stm32n6xx_hal_pcd_ex.c ****     HAL_Delay(50U);
 192:../STM32Cube_FW_N6/Drivers/STM32N6xx_HAL_Driver/Src/stm32n6xx_hal_pcd_ex.c ****     USBx->GCCFG |= USB_OTG_GCCFG_SDETEN;
 193:../STM32Cube_FW_N6/Drivers/STM32N6xx_HAL_Driver/Src/stm32n6xx_hal_pcd_ex.c ****     HAL_Delay(50U);
 194:../STM32Cube_FW_N6/Drivers/STM32N6xx_HAL_Driver/Src/stm32n6xx_hal_pcd_ex.c **** 
 195:../STM32Cube_FW_N6/Drivers/STM32N6xx_HAL_Driver/Src/stm32n6xx_hal_pcd_ex.c ****     if ((USBx->GCCFG & USB_OTG_GCCFG_FSVPLUS) == USB_OTG_GCCFG_FSVPLUS)
 196:../STM32Cube_FW_N6/Drivers/STM32N6xx_HAL_Driver/Src/stm32n6xx_hal_pcd_ex.c ****     {
 197:../STM32Cube_FW_N6/Drivers/STM32N6xx_HAL_Driver/Src/stm32n6xx_hal_pcd_ex.c ****       /* case Dedicated Charging Port  */
 198:../STM32Cube_FW_N6/Drivers/STM32N6xx_HAL_Driver/Src/stm32n6xx_hal_pcd_ex.c **** #if (USE_HAL_PCD_REGISTER_CALLBACKS == 1U)
 199:../STM32Cube_FW_N6/Drivers/STM32N6xx_HAL_Driver/Src/stm32n6xx_hal_pcd_ex.c ****       hpcd->BCDCallback(hpcd, PCD_BCD_DEDICATED_CHARGING_PORT);
 200:../STM32Cube_FW_N6/Drivers/STM32N6xx_HAL_Driver/Src/stm32n6xx_hal_pcd_ex.c **** #else
 201:../STM32Cube_FW_N6/Drivers/STM32N6xx_HAL_Driver/Src/stm32n6xx_hal_pcd_ex.c ****       HAL_PCDEx_BCD_Callback(hpcd, PCD_BCD_DEDICATED_CHARGING_PORT);
 202:../STM32Cube_FW_N6/Drivers/STM32N6xx_HAL_Driver/Src/stm32n6xx_hal_pcd_ex.c **** #endif /* USE_HAL_PCD_REGISTER_CALLBACKS */
 203:../STM32Cube_FW_N6/Drivers/STM32N6xx_HAL_Driver/Src/stm32n6xx_hal_pcd_ex.c ****     }
 204:../STM32Cube_FW_N6/Drivers/STM32N6xx_HAL_Driver/Src/stm32n6xx_hal_pcd_ex.c ****     else
 205:../STM32Cube_FW_N6/Drivers/STM32N6xx_HAL_Driver/Src/stm32n6xx_hal_pcd_ex.c ****     {
 206:../STM32Cube_FW_N6/Drivers/STM32N6xx_HAL_Driver/Src/stm32n6xx_hal_pcd_ex.c ****       /* case Charging Downstream Port */
 207:../STM32Cube_FW_N6/Drivers/STM32N6xx_HAL_Driver/Src/stm32n6xx_hal_pcd_ex.c **** #if (USE_HAL_PCD_REGISTER_CALLBACKS == 1U)
 208:../STM32Cube_FW_N6/Drivers/STM32N6xx_HAL_Driver/Src/stm32n6xx_hal_pcd_ex.c ****       hpcd->BCDCallback(hpcd, PCD_BCD_CHARGING_DOWNSTREAM_PORT);
 209:../STM32Cube_FW_N6/Drivers/STM32N6xx_HAL_Driver/Src/stm32n6xx_hal_pcd_ex.c **** #else
 210:../STM32Cube_FW_N6/Drivers/STM32N6xx_HAL_Driver/Src/stm32n6xx_hal_pcd_ex.c ****       HAL_PCDEx_BCD_Callback(hpcd, PCD_BCD_CHARGING_DOWNSTREAM_PORT);
 211:../STM32Cube_FW_N6/Drivers/STM32N6xx_HAL_Driver/Src/stm32n6xx_hal_pcd_ex.c **** #endif /* USE_HAL_PCD_REGISTER_CALLBACKS */
 212:../STM32Cube_FW_N6/Drivers/STM32N6xx_HAL_Driver/Src/stm32n6xx_hal_pcd_ex.c ****     }
 213:../STM32Cube_FW_N6/Drivers/STM32N6xx_HAL_Driver/Src/stm32n6xx_hal_pcd_ex.c ****   }
 214:../STM32Cube_FW_N6/Drivers/STM32N6xx_HAL_Driver/Src/stm32n6xx_hal_pcd_ex.c **** 
 215:../STM32Cube_FW_N6/Drivers/STM32N6xx_HAL_Driver/Src/stm32n6xx_hal_pcd_ex.c ****   /* Battery Charging capability discovery finished */
 216:../STM32Cube_FW_N6/Drivers/STM32N6xx_HAL_Driver/Src/stm32n6xx_hal_pcd_ex.c ****   (void)HAL_PCDEx_DeActivateBCD(hpcd);
 217:../STM32Cube_FW_N6/Drivers/STM32N6xx_HAL_Driver/Src/stm32n6xx_hal_pcd_ex.c **** 
 218:../STM32Cube_FW_N6/Drivers/STM32N6xx_HAL_Driver/Src/stm32n6xx_hal_pcd_ex.c ****   /* Check for the Timeout, else start USB Device */
 219:../STM32Cube_FW_N6/Drivers/STM32N6xx_HAL_Driver/Src/stm32n6xx_hal_pcd_ex.c ****   if ((HAL_GetTick() - tickstart) > 1000U)
 220:../STM32Cube_FW_N6/Drivers/STM32N6xx_HAL_Driver/Src/stm32n6xx_hal_pcd_ex.c ****   {
 221:../STM32Cube_FW_N6/Drivers/STM32N6xx_HAL_Driver/Src/stm32n6xx_hal_pcd_ex.c **** #if (USE_HAL_PCD_REGISTER_CALLBACKS == 1U)
 222:../STM32Cube_FW_N6/Drivers/STM32N6xx_HAL_Driver/Src/stm32n6xx_hal_pcd_ex.c ****     hpcd->BCDCallback(hpcd, PCD_BCD_ERROR);
 223:../STM32Cube_FW_N6/Drivers/STM32N6xx_HAL_Driver/Src/stm32n6xx_hal_pcd_ex.c **** #else
 224:../STM32Cube_FW_N6/Drivers/STM32N6xx_HAL_Driver/Src/stm32n6xx_hal_pcd_ex.c ****     HAL_PCDEx_BCD_Callback(hpcd, PCD_BCD_ERROR);
 225:../STM32Cube_FW_N6/Drivers/STM32N6xx_HAL_Driver/Src/stm32n6xx_hal_pcd_ex.c **** #endif /* USE_HAL_PCD_REGISTER_CALLBACKS */
 226:../STM32Cube_FW_N6/Drivers/STM32N6xx_HAL_Driver/Src/stm32n6xx_hal_pcd_ex.c ****   }
 227:../STM32Cube_FW_N6/Drivers/STM32N6xx_HAL_Driver/Src/stm32n6xx_hal_pcd_ex.c ****   else
 228:../STM32Cube_FW_N6/Drivers/STM32N6xx_HAL_Driver/Src/stm32n6xx_hal_pcd_ex.c ****   {
 229:../STM32Cube_FW_N6/Drivers/STM32N6xx_HAL_Driver/Src/stm32n6xx_hal_pcd_ex.c **** #if (USE_HAL_PCD_REGISTER_CALLBACKS == 1U)
 230:../STM32Cube_FW_N6/Drivers/STM32N6xx_HAL_Driver/Src/stm32n6xx_hal_pcd_ex.c ****     hpcd->BCDCallback(hpcd, PCD_BCD_DISCOVERY_COMPLETED);
 231:../STM32Cube_FW_N6/Drivers/STM32N6xx_HAL_Driver/Src/stm32n6xx_hal_pcd_ex.c **** #else
 232:../STM32Cube_FW_N6/Drivers/STM32N6xx_HAL_Driver/Src/stm32n6xx_hal_pcd_ex.c ****     HAL_PCDEx_BCD_Callback(hpcd, PCD_BCD_DISCOVERY_COMPLETED);
 233:../STM32Cube_FW_N6/Drivers/STM32N6xx_HAL_Driver/Src/stm32n6xx_hal_pcd_ex.c **** #endif /* USE_HAL_PCD_REGISTER_CALLBACKS */
 234:../STM32Cube_FW_N6/Drivers/STM32N6xx_HAL_Driver/Src/stm32n6xx_hal_pcd_ex.c ****   }
 235:../STM32Cube_FW_N6/Drivers/STM32N6xx_HAL_Driver/Src/stm32n6xx_hal_pcd_ex.c **** }
 236:../STM32Cube_FW_N6/Drivers/STM32N6xx_HAL_Driver/Src/stm32n6xx_hal_pcd_ex.c **** 
 237:../STM32Cube_FW_N6/Drivers/STM32N6xx_HAL_Driver/Src/stm32n6xx_hal_pcd_ex.c **** /**
 238:../STM32Cube_FW_N6/Drivers/STM32N6xx_HAL_Driver/Src/stm32n6xx_hal_pcd_ex.c ****   * @brief  Activate BatteryCharging feature.
 239:../STM32Cube_FW_N6/Drivers/STM32N6xx_HAL_Driver/Src/stm32n6xx_hal_pcd_ex.c ****   * @param  hpcd PCD handle
 240:../STM32Cube_FW_N6/Drivers/STM32N6xx_HAL_Driver/Src/stm32n6xx_hal_pcd_ex.c ****   * @retval HAL status
 241:../STM32Cube_FW_N6/Drivers/STM32N6xx_HAL_Driver/Src/stm32n6xx_hal_pcd_ex.c ****   */
 242:../STM32Cube_FW_N6/Drivers/STM32N6xx_HAL_Driver/Src/stm32n6xx_hal_pcd_ex.c **** HAL_StatusTypeDef HAL_PCDEx_ActivateBCD(PCD_HandleTypeDef *hpcd)
 243:../STM32Cube_FW_N6/Drivers/STM32N6xx_HAL_Driver/Src/stm32n6xx_hal_pcd_ex.c **** {
 255              		.loc 1 243 1 is_stmt 1 view -0
 256              		.cfi_startproc
ARM GAS  /tmp/ccYCCc6B.s 			page 10


 257              		@ args = 0, pretend = 0, frame = 0
 258              		@ frame_needed = 0, uses_anonymous_args = 0
 259              		@ link register save eliminated.
 244:../STM32Cube_FW_N6/Drivers/STM32N6xx_HAL_Driver/Src/stm32n6xx_hal_pcd_ex.c ****   USB_OTG_GlobalTypeDef *USBx = hpcd->Instance;
 260              		.loc 1 244 3 view .LVU71
 261              		.loc 1 244 26 is_stmt 0 view .LVU72
 262 0000 0368     		ldr	r3, [r0]
 263              	.LVL25:
 245:../STM32Cube_FW_N6/Drivers/STM32N6xx_HAL_Driver/Src/stm32n6xx_hal_pcd_ex.c **** 
 246:../STM32Cube_FW_N6/Drivers/STM32N6xx_HAL_Driver/Src/stm32n6xx_hal_pcd_ex.c ****   USBx->GCCFG &= ~(USB_OTG_GCCFG_PDETEN);
 264              		.loc 1 246 3 is_stmt 1 view .LVU73
 265              		.loc 1 246 7 is_stmt 0 view .LVU74
 266 0002 9A6B     		ldr	r2, [r3, #56]
 267              		.loc 1 246 15 view .LVU75
 268 0004 22F48012 		bic	r2, r2, #1048576
 269 0008 9A63     		str	r2, [r3, #56]
 247:../STM32Cube_FW_N6/Drivers/STM32N6xx_HAL_Driver/Src/stm32n6xx_hal_pcd_ex.c ****   USBx->GCCFG &= ~(USB_OTG_GCCFG_SDETEN);
 270              		.loc 1 247 3 is_stmt 1 view .LVU76
 271              		.loc 1 247 7 is_stmt 0 view .LVU77
 272 000a 9A6B     		ldr	r2, [r3, #56]
 273              		.loc 1 247 15 view .LVU78
 274 000c 22F48002 		bic	r2, r2, #4194304
 275 0010 9A63     		str	r2, [r3, #56]
 248:../STM32Cube_FW_N6/Drivers/STM32N6xx_HAL_Driver/Src/stm32n6xx_hal_pcd_ex.c **** 
 249:../STM32Cube_FW_N6/Drivers/STM32N6xx_HAL_Driver/Src/stm32n6xx_hal_pcd_ex.c ****   hpcd->battery_charging_active = 1U;
 276              		.loc 1 249 3 is_stmt 1 view .LVU79
 277              		.loc 1 249 33 is_stmt 0 view .LVU80
 278 0012 0123     		movs	r3, #1
 279              	.LVL26:
 280              		.loc 1 249 33 view .LVU81
 281 0014 C0F8DC34 		str	r3, [r0, #1244]
 250:../STM32Cube_FW_N6/Drivers/STM32N6xx_HAL_Driver/Src/stm32n6xx_hal_pcd_ex.c **** 
 251:../STM32Cube_FW_N6/Drivers/STM32N6xx_HAL_Driver/Src/stm32n6xx_hal_pcd_ex.c ****   return HAL_OK;
 282              		.loc 1 251 3 is_stmt 1 view .LVU82
 252:../STM32Cube_FW_N6/Drivers/STM32N6xx_HAL_Driver/Src/stm32n6xx_hal_pcd_ex.c **** }
 283              		.loc 1 252 1 is_stmt 0 view .LVU83
 284 0018 0020     		movs	r0, #0
 285              	.LVL27:
 286              		.loc 1 252 1 view .LVU84
 287 001a 7047     		bx	lr
 288              		.cfi_endproc
 289              	.LFE886:
 291              		.section	.text.HAL_PCDEx_DeActivateBCD,"ax",%progbits
 292              		.align	1
 293              		.global	HAL_PCDEx_DeActivateBCD
 294              		.syntax unified
 295              		.thumb
 296              		.thumb_func
 298              	HAL_PCDEx_DeActivateBCD:
 299              	.LVL28:
 300              	.LFB887:
 253:../STM32Cube_FW_N6/Drivers/STM32N6xx_HAL_Driver/Src/stm32n6xx_hal_pcd_ex.c **** 
 254:../STM32Cube_FW_N6/Drivers/STM32N6xx_HAL_Driver/Src/stm32n6xx_hal_pcd_ex.c **** /**
 255:../STM32Cube_FW_N6/Drivers/STM32N6xx_HAL_Driver/Src/stm32n6xx_hal_pcd_ex.c ****   * @brief  Deactivate BatteryCharging feature.
 256:../STM32Cube_FW_N6/Drivers/STM32N6xx_HAL_Driver/Src/stm32n6xx_hal_pcd_ex.c ****   * @param  hpcd PCD handle
 257:../STM32Cube_FW_N6/Drivers/STM32N6xx_HAL_Driver/Src/stm32n6xx_hal_pcd_ex.c ****   * @retval HAL status
 258:../STM32Cube_FW_N6/Drivers/STM32N6xx_HAL_Driver/Src/stm32n6xx_hal_pcd_ex.c ****   */
ARM GAS  /tmp/ccYCCc6B.s 			page 11


 259:../STM32Cube_FW_N6/Drivers/STM32N6xx_HAL_Driver/Src/stm32n6xx_hal_pcd_ex.c **** HAL_StatusTypeDef HAL_PCDEx_DeActivateBCD(PCD_HandleTypeDef *hpcd)
 260:../STM32Cube_FW_N6/Drivers/STM32N6xx_HAL_Driver/Src/stm32n6xx_hal_pcd_ex.c **** {
 301              		.loc 1 260 1 is_stmt 1 view -0
 302              		.cfi_startproc
 303              		@ args = 0, pretend = 0, frame = 0
 304              		@ frame_needed = 0, uses_anonymous_args = 0
 305              		@ link register save eliminated.
 261:../STM32Cube_FW_N6/Drivers/STM32N6xx_HAL_Driver/Src/stm32n6xx_hal_pcd_ex.c ****   USB_OTG_GlobalTypeDef *USBx = hpcd->Instance;
 306              		.loc 1 261 3 view .LVU86
 307              		.loc 1 261 26 is_stmt 0 view .LVU87
 308 0000 0268     		ldr	r2, [r0]
 309              	.LVL29:
 262:../STM32Cube_FW_N6/Drivers/STM32N6xx_HAL_Driver/Src/stm32n6xx_hal_pcd_ex.c **** 
 263:../STM32Cube_FW_N6/Drivers/STM32N6xx_HAL_Driver/Src/stm32n6xx_hal_pcd_ex.c ****   USBx->GCCFG &= ~(USB_OTG_GCCFG_PDETEN);
 310              		.loc 1 263 3 is_stmt 1 view .LVU88
 260:../STM32Cube_FW_N6/Drivers/STM32N6xx_HAL_Driver/Src/stm32n6xx_hal_pcd_ex.c ****   USB_OTG_GlobalTypeDef *USBx = hpcd->Instance;
 311              		.loc 1 260 1 is_stmt 0 view .LVU89
 312 0002 0346     		mov	r3, r0
 264:../STM32Cube_FW_N6/Drivers/STM32N6xx_HAL_Driver/Src/stm32n6xx_hal_pcd_ex.c ****   USBx->GCCFG &= ~(USB_OTG_GCCFG_SDETEN);
 265:../STM32Cube_FW_N6/Drivers/STM32N6xx_HAL_Driver/Src/stm32n6xx_hal_pcd_ex.c **** 
 266:../STM32Cube_FW_N6/Drivers/STM32N6xx_HAL_Driver/Src/stm32n6xx_hal_pcd_ex.c ****   hpcd->battery_charging_active = 0U;
 313              		.loc 1 266 33 view .LVU90
 314 0004 0020     		movs	r0, #0
 315              	.LVL30:
 263:../STM32Cube_FW_N6/Drivers/STM32N6xx_HAL_Driver/Src/stm32n6xx_hal_pcd_ex.c ****   USBx->GCCFG &= ~(USB_OTG_GCCFG_SDETEN);
 316              		.loc 1 263 7 view .LVU91
 317 0006 916B     		ldr	r1, [r2, #56]
 263:../STM32Cube_FW_N6/Drivers/STM32N6xx_HAL_Driver/Src/stm32n6xx_hal_pcd_ex.c ****   USBx->GCCFG &= ~(USB_OTG_GCCFG_SDETEN);
 318              		.loc 1 263 15 view .LVU92
 319 0008 21F48011 		bic	r1, r1, #1048576
 320 000c 9163     		str	r1, [r2, #56]
 264:../STM32Cube_FW_N6/Drivers/STM32N6xx_HAL_Driver/Src/stm32n6xx_hal_pcd_ex.c ****   USBx->GCCFG &= ~(USB_OTG_GCCFG_SDETEN);
 321              		.loc 1 264 3 is_stmt 1 view .LVU93
 264:../STM32Cube_FW_N6/Drivers/STM32N6xx_HAL_Driver/Src/stm32n6xx_hal_pcd_ex.c ****   USBx->GCCFG &= ~(USB_OTG_GCCFG_SDETEN);
 322              		.loc 1 264 7 is_stmt 0 view .LVU94
 323 000e 916B     		ldr	r1, [r2, #56]
 264:../STM32Cube_FW_N6/Drivers/STM32N6xx_HAL_Driver/Src/stm32n6xx_hal_pcd_ex.c ****   USBx->GCCFG &= ~(USB_OTG_GCCFG_SDETEN);
 324              		.loc 1 264 15 view .LVU95
 325 0010 21F48001 		bic	r1, r1, #4194304
 326 0014 9163     		str	r1, [r2, #56]
 327              		.loc 1 266 3 is_stmt 1 view .LVU96
 328              		.loc 1 266 33 is_stmt 0 view .LVU97
 329 0016 C3F8DC04 		str	r0, [r3, #1244]
 267:../STM32Cube_FW_N6/Drivers/STM32N6xx_HAL_Driver/Src/stm32n6xx_hal_pcd_ex.c **** 
 268:../STM32Cube_FW_N6/Drivers/STM32N6xx_HAL_Driver/Src/stm32n6xx_hal_pcd_ex.c ****   return HAL_OK;
 330              		.loc 1 268 3 is_stmt 1 view .LVU98
 269:../STM32Cube_FW_N6/Drivers/STM32N6xx_HAL_Driver/Src/stm32n6xx_hal_pcd_ex.c **** }
 331              		.loc 1 269 1 is_stmt 0 view .LVU99
 332 001a 7047     		bx	lr
 333              		.cfi_endproc
 334              	.LFE887:
 336              		.section	.text.HAL_PCDEx_LPM_Callback,"ax",%progbits
 337              		.align	1
 338              		.weak	HAL_PCDEx_LPM_Callback
 339              		.syntax unified
 340              		.thumb
 341              		.thumb_func
ARM GAS  /tmp/ccYCCc6B.s 			page 12


 343              	HAL_PCDEx_LPM_Callback:
 344              	.LVL31:
 345              	.LFB888:
 270:../STM32Cube_FW_N6/Drivers/STM32N6xx_HAL_Driver/Src/stm32n6xx_hal_pcd_ex.c **** 
 271:../STM32Cube_FW_N6/Drivers/STM32N6xx_HAL_Driver/Src/stm32n6xx_hal_pcd_ex.c **** #endif /* defined (USB1_OTG_HS) || defined (USB2_OTG_HS) */
 272:../STM32Cube_FW_N6/Drivers/STM32N6xx_HAL_Driver/Src/stm32n6xx_hal_pcd_ex.c **** 
 273:../STM32Cube_FW_N6/Drivers/STM32N6xx_HAL_Driver/Src/stm32n6xx_hal_pcd_ex.c **** /**
 274:../STM32Cube_FW_N6/Drivers/STM32N6xx_HAL_Driver/Src/stm32n6xx_hal_pcd_ex.c ****   * @brief  Send LPM message to user layer callback.
 275:../STM32Cube_FW_N6/Drivers/STM32N6xx_HAL_Driver/Src/stm32n6xx_hal_pcd_ex.c ****   * @param  hpcd PCD handle
 276:../STM32Cube_FW_N6/Drivers/STM32N6xx_HAL_Driver/Src/stm32n6xx_hal_pcd_ex.c ****   * @param  msg LPM message
 277:../STM32Cube_FW_N6/Drivers/STM32N6xx_HAL_Driver/Src/stm32n6xx_hal_pcd_ex.c ****   * @retval HAL status
 278:../STM32Cube_FW_N6/Drivers/STM32N6xx_HAL_Driver/Src/stm32n6xx_hal_pcd_ex.c ****   */
 279:../STM32Cube_FW_N6/Drivers/STM32N6xx_HAL_Driver/Src/stm32n6xx_hal_pcd_ex.c **** __weak void HAL_PCDEx_LPM_Callback(PCD_HandleTypeDef *hpcd, PCD_LPM_MsgTypeDef msg)
 280:../STM32Cube_FW_N6/Drivers/STM32N6xx_HAL_Driver/Src/stm32n6xx_hal_pcd_ex.c **** {
 346              		.loc 1 280 1 is_stmt 1 view -0
 347              		.cfi_startproc
 348              		@ args = 0, pretend = 0, frame = 0
 349              		@ frame_needed = 0, uses_anonymous_args = 0
 350              		@ link register save eliminated.
 281:../STM32Cube_FW_N6/Drivers/STM32N6xx_HAL_Driver/Src/stm32n6xx_hal_pcd_ex.c ****   /* Prevent unused argument(s) compilation warning */
 282:../STM32Cube_FW_N6/Drivers/STM32N6xx_HAL_Driver/Src/stm32n6xx_hal_pcd_ex.c ****   UNUSED(hpcd);
 351              		.loc 1 282 3 view .LVU101
 283:../STM32Cube_FW_N6/Drivers/STM32N6xx_HAL_Driver/Src/stm32n6xx_hal_pcd_ex.c ****   UNUSED(msg);
 352              		.loc 1 283 3 view .LVU102
 284:../STM32Cube_FW_N6/Drivers/STM32N6xx_HAL_Driver/Src/stm32n6xx_hal_pcd_ex.c **** 
 285:../STM32Cube_FW_N6/Drivers/STM32N6xx_HAL_Driver/Src/stm32n6xx_hal_pcd_ex.c ****   /* NOTE : This function should not be modified, when the callback is needed,
 286:../STM32Cube_FW_N6/Drivers/STM32N6xx_HAL_Driver/Src/stm32n6xx_hal_pcd_ex.c ****             the HAL_PCDEx_LPM_Callback could be implemented in the user file
 287:../STM32Cube_FW_N6/Drivers/STM32N6xx_HAL_Driver/Src/stm32n6xx_hal_pcd_ex.c ****    */
 288:../STM32Cube_FW_N6/Drivers/STM32N6xx_HAL_Driver/Src/stm32n6xx_hal_pcd_ex.c **** }
 353              		.loc 1 288 1 is_stmt 0 view .LVU103
 354 0000 7047     		bx	lr
 355              		.cfi_endproc
 356              	.LFE888:
 358              		.section	.text.HAL_PCDEx_BCD_Callback,"ax",%progbits
 359              		.align	1
 360              		.weak	HAL_PCDEx_BCD_Callback
 361              		.syntax unified
 362              		.thumb
 363              		.thumb_func
 365              	HAL_PCDEx_BCD_Callback:
 366              	.LFB891:
 367              		.cfi_startproc
 289:../STM32Cube_FW_N6/Drivers/STM32N6xx_HAL_Driver/Src/stm32n6xx_hal_pcd_ex.c **** 
 290:../STM32Cube_FW_N6/Drivers/STM32N6xx_HAL_Driver/Src/stm32n6xx_hal_pcd_ex.c **** /**
 291:../STM32Cube_FW_N6/Drivers/STM32N6xx_HAL_Driver/Src/stm32n6xx_hal_pcd_ex.c ****   * @brief  Send BatteryCharging message to user layer callback.
 292:../STM32Cube_FW_N6/Drivers/STM32N6xx_HAL_Driver/Src/stm32n6xx_hal_pcd_ex.c ****   * @param  hpcd PCD handle
 293:../STM32Cube_FW_N6/Drivers/STM32N6xx_HAL_Driver/Src/stm32n6xx_hal_pcd_ex.c ****   * @param  msg LPM message
 294:../STM32Cube_FW_N6/Drivers/STM32N6xx_HAL_Driver/Src/stm32n6xx_hal_pcd_ex.c ****   * @retval HAL status
 295:../STM32Cube_FW_N6/Drivers/STM32N6xx_HAL_Driver/Src/stm32n6xx_hal_pcd_ex.c ****   */
 296:../STM32Cube_FW_N6/Drivers/STM32N6xx_HAL_Driver/Src/stm32n6xx_hal_pcd_ex.c **** __weak void HAL_PCDEx_BCD_Callback(PCD_HandleTypeDef *hpcd, PCD_BCD_MsgTypeDef msg)
 368              		.loc 1 296 13 is_stmt 1 view -0
 369              		@ args = 0, pretend = 0, frame = 0
 370              		@ frame_needed = 0, uses_anonymous_args = 0
 371              		@ link register save eliminated.
 372 0000 7047     		bx	lr
 373              		.cfi_endproc
 374              	.LFE891:
ARM GAS  /tmp/ccYCCc6B.s 			page 13


 376              		.section	.text.HAL_PCDEx_BCD_VBUSDetect,"ax",%progbits
 377              		.align	1
 378              		.global	HAL_PCDEx_BCD_VBUSDetect
 379              		.syntax unified
 380              		.thumb
 381              		.thumb_func
 383              	HAL_PCDEx_BCD_VBUSDetect:
 384              	.LVL32:
 385              	.LFB885:
 159:../STM32Cube_FW_N6/Drivers/STM32N6xx_HAL_Driver/Src/stm32n6xx_hal_pcd_ex.c ****   USB_OTG_GlobalTypeDef *USBx = hpcd->Instance;
 386              		.loc 1 159 1 view -0
 387              		.cfi_startproc
 388              		@ args = 0, pretend = 0, frame = 0
 389              		@ frame_needed = 0, uses_anonymous_args = 0
 160:../STM32Cube_FW_N6/Drivers/STM32N6xx_HAL_Driver/Src/stm32n6xx_hal_pcd_ex.c ****   uint32_t tickstart = HAL_GetTick();
 390              		.loc 1 160 3 view .LVU106
 159:../STM32Cube_FW_N6/Drivers/STM32N6xx_HAL_Driver/Src/stm32n6xx_hal_pcd_ex.c ****   USB_OTG_GlobalTypeDef *USBx = hpcd->Instance;
 391              		.loc 1 159 1 is_stmt 0 view .LVU107
 392 0000 70B5     		push	{r4, r5, r6, lr}
 393              		.cfi_def_cfa_offset 16
 394              		.cfi_offset 4, -16
 395              		.cfi_offset 5, -12
 396              		.cfi_offset 6, -8
 397              		.cfi_offset 14, -4
 160:../STM32Cube_FW_N6/Drivers/STM32N6xx_HAL_Driver/Src/stm32n6xx_hal_pcd_ex.c ****   uint32_t tickstart = HAL_GetTick();
 398              		.loc 1 160 26 view .LVU108
 399 0002 0468     		ldr	r4, [r0]
 400              	.LVL33:
 161:../STM32Cube_FW_N6/Drivers/STM32N6xx_HAL_Driver/Src/stm32n6xx_hal_pcd_ex.c **** 
 401              		.loc 1 161 3 is_stmt 1 view .LVU109
 159:../STM32Cube_FW_N6/Drivers/STM32N6xx_HAL_Driver/Src/stm32n6xx_hal_pcd_ex.c ****   USB_OTG_GlobalTypeDef *USBx = hpcd->Instance;
 402              		.loc 1 159 1 is_stmt 0 view .LVU110
 403 0004 0546     		mov	r5, r0
 161:../STM32Cube_FW_N6/Drivers/STM32N6xx_HAL_Driver/Src/stm32n6xx_hal_pcd_ex.c **** 
 404              		.loc 1 161 24 view .LVU111
 405 0006 FFF7FEFF 		bl	HAL_GetTick
 406              	.LVL34:
 164:../STM32Cube_FW_N6/Drivers/STM32N6xx_HAL_Driver/Src/stm32n6xx_hal_pcd_ex.c **** 
 407              		.loc 1 164 7 view .LVU112
 408 000a A36B     		ldr	r3, [r4, #56]
 161:../STM32Cube_FW_N6/Drivers/STM32N6xx_HAL_Driver/Src/stm32n6xx_hal_pcd_ex.c **** 
 409              		.loc 1 161 24 view .LVU113
 410 000c 0646     		mov	r6, r0
 411              	.LVL35:
 164:../STM32Cube_FW_N6/Drivers/STM32N6xx_HAL_Driver/Src/stm32n6xx_hal_pcd_ex.c **** 
 412              		.loc 1 164 3 is_stmt 1 view .LVU114
 164:../STM32Cube_FW_N6/Drivers/STM32N6xx_HAL_Driver/Src/stm32n6xx_hal_pcd_ex.c **** 
 413              		.loc 1 164 15 is_stmt 0 view .LVU115
 414 000e 43F40023 		orr	r3, r3, #524288
 167:../STM32Cube_FW_N6/Drivers/STM32N6xx_HAL_Driver/Src/stm32n6xx_hal_pcd_ex.c **** 
 415              		.loc 1 167 3 view .LVU116
 416 0012 4FF49670 		mov	r0, #300
 417              	.LVL36:
 164:../STM32Cube_FW_N6/Drivers/STM32N6xx_HAL_Driver/Src/stm32n6xx_hal_pcd_ex.c **** 
 418              		.loc 1 164 15 view .LVU117
 419 0016 A363     		str	r3, [r4, #56]
 167:../STM32Cube_FW_N6/Drivers/STM32N6xx_HAL_Driver/Src/stm32n6xx_hal_pcd_ex.c **** 
ARM GAS  /tmp/ccYCCc6B.s 			page 14


 420              		.loc 1 167 3 is_stmt 1 view .LVU118
 421 0018 FFF7FEFF 		bl	HAL_Delay
 422              	.LVL37:
 172:../STM32Cube_FW_N6/Drivers/STM32N6xx_HAL_Driver/Src/stm32n6xx_hal_pcd_ex.c ****   HAL_Delay(50U);
 423              		.loc 1 172 3 view .LVU119
 172:../STM32Cube_FW_N6/Drivers/STM32N6xx_HAL_Driver/Src/stm32n6xx_hal_pcd_ex.c ****   HAL_Delay(50U);
 424              		.loc 1 172 7 is_stmt 0 view .LVU120
 425 001c A36B     		ldr	r3, [r4, #56]
 173:../STM32Cube_FW_N6/Drivers/STM32N6xx_HAL_Driver/Src/stm32n6xx_hal_pcd_ex.c ****   USBx->GCCFG |= USB_OTG_GCCFG_PDETEN;
 426              		.loc 1 173 3 view .LVU121
 427 001e 3220     		movs	r0, #50
 172:../STM32Cube_FW_N6/Drivers/STM32N6xx_HAL_Driver/Src/stm32n6xx_hal_pcd_ex.c ****   HAL_Delay(50U);
 428              		.loc 1 172 15 view .LVU122
 429 0020 23F40023 		bic	r3, r3, #524288
 430 0024 A363     		str	r3, [r4, #56]
 173:../STM32Cube_FW_N6/Drivers/STM32N6xx_HAL_Driver/Src/stm32n6xx_hal_pcd_ex.c ****   USBx->GCCFG |= USB_OTG_GCCFG_PDETEN;
 431              		.loc 1 173 3 is_stmt 1 view .LVU123
 432 0026 FFF7FEFF 		bl	HAL_Delay
 433              	.LVL38:
 174:../STM32Cube_FW_N6/Drivers/STM32N6xx_HAL_Driver/Src/stm32n6xx_hal_pcd_ex.c ****   HAL_Delay(50U);
 434              		.loc 1 174 3 view .LVU124
 174:../STM32Cube_FW_N6/Drivers/STM32N6xx_HAL_Driver/Src/stm32n6xx_hal_pcd_ex.c ****   HAL_Delay(50U);
 435              		.loc 1 174 7 is_stmt 0 view .LVU125
 436 002a A36B     		ldr	r3, [r4, #56]
 175:../STM32Cube_FW_N6/Drivers/STM32N6xx_HAL_Driver/Src/stm32n6xx_hal_pcd_ex.c **** 
 437              		.loc 1 175 3 view .LVU126
 438 002c 3220     		movs	r0, #50
 174:../STM32Cube_FW_N6/Drivers/STM32N6xx_HAL_Driver/Src/stm32n6xx_hal_pcd_ex.c ****   HAL_Delay(50U);
 439              		.loc 1 174 15 view .LVU127
 440 002e 43F48013 		orr	r3, r3, #1048576
 441 0032 A363     		str	r3, [r4, #56]
 175:../STM32Cube_FW_N6/Drivers/STM32N6xx_HAL_Driver/Src/stm32n6xx_hal_pcd_ex.c **** 
 442              		.loc 1 175 3 is_stmt 1 view .LVU128
 443 0034 FFF7FEFF 		bl	HAL_Delay
 444              	.LVL39:
 177:../STM32Cube_FW_N6/Drivers/STM32N6xx_HAL_Driver/Src/stm32n6xx_hal_pcd_ex.c ****   {
 445              		.loc 1 177 3 view .LVU129
 177:../STM32Cube_FW_N6/Drivers/STM32N6xx_HAL_Driver/Src/stm32n6xx_hal_pcd_ex.c ****   {
 446              		.loc 1 177 12 is_stmt 0 view .LVU130
 447 0038 A36B     		ldr	r3, [r4, #56]
 177:../STM32Cube_FW_N6/Drivers/STM32N6xx_HAL_Driver/Src/stm32n6xx_hal_pcd_ex.c ****   {
 448              		.loc 1 177 6 view .LVU131
 449 003a DA07     		lsls	r2, r3, #31
 450 003c 12D4     		bmi	.L15
 183:../STM32Cube_FW_N6/Drivers/STM32N6xx_HAL_Driver/Src/stm32n6xx_hal_pcd_ex.c **** #endif /* USE_HAL_PCD_REGISTER_CALLBACKS */
 451              		.loc 1 183 5 is_stmt 1 view .LVU132
 452 003e FD21     		movs	r1, #253
 453              	.L20:
 210:../STM32Cube_FW_N6/Drivers/STM32N6xx_HAL_Driver/Src/stm32n6xx_hal_pcd_ex.c **** #endif /* USE_HAL_PCD_REGISTER_CALLBACKS */
 454              		.loc 1 210 7 is_stmt 0 view .LVU133
 455 0040 2846     		mov	r0, r5
 456 0042 FFF7FEFF 		bl	HAL_PCDEx_BCD_Callback
 457              	.LVL40:
 216:../STM32Cube_FW_N6/Drivers/STM32N6xx_HAL_Driver/Src/stm32n6xx_hal_pcd_ex.c **** 
 458              		.loc 1 216 3 is_stmt 1 view .LVU134
 216:../STM32Cube_FW_N6/Drivers/STM32N6xx_HAL_Driver/Src/stm32n6xx_hal_pcd_ex.c **** 
 459              		.loc 1 216 9 is_stmt 0 view .LVU135
ARM GAS  /tmp/ccYCCc6B.s 			page 15


 460 0046 2846     		mov	r0, r5
 461 0048 FFF7FEFF 		bl	HAL_PCDEx_DeActivateBCD
 462              	.LVL41:
 219:../STM32Cube_FW_N6/Drivers/STM32N6xx_HAL_Driver/Src/stm32n6xx_hal_pcd_ex.c ****   {
 463              		.loc 1 219 3 is_stmt 1 view .LVU136
 219:../STM32Cube_FW_N6/Drivers/STM32N6xx_HAL_Driver/Src/stm32n6xx_hal_pcd_ex.c ****   {
 464              		.loc 1 219 8 is_stmt 0 view .LVU137
 465 004c FFF7FEFF 		bl	HAL_GetTick
 466              	.LVL42:
 219:../STM32Cube_FW_N6/Drivers/STM32N6xx_HAL_Driver/Src/stm32n6xx_hal_pcd_ex.c ****   {
 467              		.loc 1 219 22 discriminator 1 view .LVU138
 468 0050 801B     		subs	r0, r0, r6
 219:../STM32Cube_FW_N6/Drivers/STM32N6xx_HAL_Driver/Src/stm32n6xx_hal_pcd_ex.c ****   {
 469              		.loc 1 219 6 discriminator 1 view .LVU139
 470 0052 B0F57A7F 		cmp	r0, #1000
 224:../STM32Cube_FW_N6/Drivers/STM32N6xx_HAL_Driver/Src/stm32n6xx_hal_pcd_ex.c **** #endif /* USE_HAL_PCD_REGISTER_CALLBACKS */
 471              		.loc 1 224 5 is_stmt 1 view .LVU140
 472 0056 8CBF     		ite	hi
 473 0058 FF21     		movhi	r1, #255
 232:../STM32Cube_FW_N6/Drivers/STM32N6xx_HAL_Driver/Src/stm32n6xx_hal_pcd_ex.c **** #endif /* USE_HAL_PCD_REGISTER_CALLBACKS */
 474              		.loc 1 232 5 view .LVU141
 475 005a 0021     		movls	r1, #0
 476 005c 2846     		mov	r0, r5
 477 005e FFF7FEFF 		bl	HAL_PCDEx_BCD_Callback
 478              	.LVL43:
 235:../STM32Cube_FW_N6/Drivers/STM32N6xx_HAL_Driver/Src/stm32n6xx_hal_pcd_ex.c **** 
 479              		.loc 1 235 1 is_stmt 0 view .LVU142
 480 0062 70BD     		pop	{r4, r5, r6, pc}
 481              	.LVL44:
 482              	.L15:
 190:../STM32Cube_FW_N6/Drivers/STM32N6xx_HAL_Driver/Src/stm32n6xx_hal_pcd_ex.c ****     HAL_Delay(50U);
 483              		.loc 1 190 5 is_stmt 1 view .LVU143
 190:../STM32Cube_FW_N6/Drivers/STM32N6xx_HAL_Driver/Src/stm32n6xx_hal_pcd_ex.c ****     HAL_Delay(50U);
 484              		.loc 1 190 9 is_stmt 0 view .LVU144
 485 0064 A36B     		ldr	r3, [r4, #56]
 191:../STM32Cube_FW_N6/Drivers/STM32N6xx_HAL_Driver/Src/stm32n6xx_hal_pcd_ex.c ****     USBx->GCCFG |= USB_OTG_GCCFG_SDETEN;
 486              		.loc 1 191 5 view .LVU145
 487 0066 3220     		movs	r0, #50
 190:../STM32Cube_FW_N6/Drivers/STM32N6xx_HAL_Driver/Src/stm32n6xx_hal_pcd_ex.c ****     HAL_Delay(50U);
 488              		.loc 1 190 17 view .LVU146
 489 0068 23F48013 		bic	r3, r3, #1048576
 490 006c A363     		str	r3, [r4, #56]
 191:../STM32Cube_FW_N6/Drivers/STM32N6xx_HAL_Driver/Src/stm32n6xx_hal_pcd_ex.c ****     USBx->GCCFG |= USB_OTG_GCCFG_SDETEN;
 491              		.loc 1 191 5 is_stmt 1 view .LVU147
 492 006e FFF7FEFF 		bl	HAL_Delay
 493              	.LVL45:
 192:../STM32Cube_FW_N6/Drivers/STM32N6xx_HAL_Driver/Src/stm32n6xx_hal_pcd_ex.c ****     HAL_Delay(50U);
 494              		.loc 1 192 5 view .LVU148
 192:../STM32Cube_FW_N6/Drivers/STM32N6xx_HAL_Driver/Src/stm32n6xx_hal_pcd_ex.c ****     HAL_Delay(50U);
 495              		.loc 1 192 9 is_stmt 0 view .LVU149
 496 0072 A36B     		ldr	r3, [r4, #56]
 193:../STM32Cube_FW_N6/Drivers/STM32N6xx_HAL_Driver/Src/stm32n6xx_hal_pcd_ex.c **** 
 497              		.loc 1 193 5 view .LVU150
 498 0074 3220     		movs	r0, #50
 192:../STM32Cube_FW_N6/Drivers/STM32N6xx_HAL_Driver/Src/stm32n6xx_hal_pcd_ex.c ****     HAL_Delay(50U);
 499              		.loc 1 192 17 view .LVU151
 500 0076 43F48003 		orr	r3, r3, #4194304
ARM GAS  /tmp/ccYCCc6B.s 			page 16


 501 007a A363     		str	r3, [r4, #56]
 193:../STM32Cube_FW_N6/Drivers/STM32N6xx_HAL_Driver/Src/stm32n6xx_hal_pcd_ex.c **** 
 502              		.loc 1 193 5 is_stmt 1 view .LVU152
 503 007c FFF7FEFF 		bl	HAL_Delay
 504              	.LVL46:
 195:../STM32Cube_FW_N6/Drivers/STM32N6xx_HAL_Driver/Src/stm32n6xx_hal_pcd_ex.c ****     {
 505              		.loc 1 195 5 view .LVU153
 195:../STM32Cube_FW_N6/Drivers/STM32N6xx_HAL_Driver/Src/stm32n6xx_hal_pcd_ex.c ****     {
 506              		.loc 1 195 14 is_stmt 0 view .LVU154
 507 0080 A36B     		ldr	r3, [r4, #56]
 195:../STM32Cube_FW_N6/Drivers/STM32N6xx_HAL_Driver/Src/stm32n6xx_hal_pcd_ex.c ****     {
 508              		.loc 1 195 8 view .LVU155
 509 0082 9B07     		lsls	r3, r3, #30
 201:../STM32Cube_FW_N6/Drivers/STM32N6xx_HAL_Driver/Src/stm32n6xx_hal_pcd_ex.c **** #endif /* USE_HAL_PCD_REGISTER_CALLBACKS */
 510              		.loc 1 201 7 is_stmt 1 view .LVU156
 511 0084 4CBF     		ite	mi
 512 0086 FB21     		movmi	r1, #251
 210:../STM32Cube_FW_N6/Drivers/STM32N6xx_HAL_Driver/Src/stm32n6xx_hal_pcd_ex.c **** #endif /* USE_HAL_PCD_REGISTER_CALLBACKS */
 513              		.loc 1 210 7 view .LVU157
 514 0088 FC21     		movpl	r1, #252
 515 008a D9E7     		b	.L20
 516              		.cfi_endproc
 517              	.LFE885:
 519              		.text
 520              	.Letext0:
 521              		.file 2 "/opt/st/stm32cubeclt_1.21.0/GNU-tools-for-STM32/arm-none-eabi/include/machine/_default_ty
 522              		.file 3 "/opt/st/stm32cubeclt_1.21.0/GNU-tools-for-STM32/arm-none-eabi/include/sys/_stdint.h"
 523              		.file 4 "../STM32Cube_FW_N6/Drivers/CMSIS/Device/ST/STM32N6xx/Include/stm32n657xx.h"
 524              		.file 5 "../STM32Cube_FW_N6/Drivers/STM32N6xx_HAL_Driver/Inc/stm32n6xx_hal_def.h"
 525              		.file 6 "../STM32Cube_FW_N6/Drivers/STM32N6xx_HAL_Driver/Inc/stm32n6xx_ll_usb.h"
 526              		.file 7 "../STM32Cube_FW_N6/Drivers/STM32N6xx_HAL_Driver/Inc/stm32n6xx_hal_pcd.h"
 527              		.file 8 "../STM32Cube_FW_N6/Drivers/STM32N6xx_HAL_Driver/Inc/stm32n6xx_hal.h"
ARM GAS  /tmp/ccYCCc6B.s 			page 17

