ARM GAS  /tmp/ccId6s4B.s 			page 1


   1              		.arch armv8.1-m.main
   2              		.fpu fpv5-d16
   3              		.arch_extension dsp
   4              		.arch_extension fp
   5              		.arch_extension fp.dp
   6              		.arch_extension mve
   7              		.arch_extension mve.fp
   8              		.eabi_attribute 5, "cortex-m55"
   9              		.eabi_attribute 28, 1
  10              		.eabi_attribute 20, 1
  11              		.eabi_attribute 21, 1
  12              		.eabi_attribute 23, 3
  13              		.eabi_attribute 24, 1
  14              		.eabi_attribute 25, 1
  15              		.eabi_attribute 26, 1
  16              		.eabi_attribute 30, 4
  17              		.eabi_attribute 34, 1
  18              		.eabi_attribute 38, 1
  19              		.eabi_attribute 18, 4
  20              		.file	"stm32n6xx_hal_dma.c"
  21              		.text
  22              	.Ltext0:
  23              		.cfi_sections	.debug_frame
  24              		.file 1 "../STM32Cube_FW_N6/Drivers/STM32N6xx_HAL_Driver/Src/stm32n6xx_hal_dma.c"
  25              		.section	.rodata.HAL_DMA_Init.str1.1,"aMS",%progbits,1
  26              	.LC0:
  27 0000 2E2E2F53 		.ascii	"../STM32Cube_FW_N6/Drivers/STM32N6xx_HAL_Driver/Src"
  27      544D3332 
  27      43756265 
  27      5F46575F 
  27      4E362F44 
  28 0033 2F73746D 		.ascii	"/stm32n6xx_hal_dma.c\000"
  28      33326E36 
  28      78785F68 
  28      616C5F64 
  28      6D612E63 
  29              		.section	.text.HAL_DMA_Init,"ax",%progbits
  30              		.align	1
  31              		.global	HAL_DMA_Init
  32              		.syntax unified
  33              		.thumb
  34              		.thumb_func
  36              	HAL_DMA_Init:
  37              	.LVL0:
  38              	.LFB881:
   1:../STM32Cube_FW_N6/Drivers/STM32N6xx_HAL_Driver/Src/stm32n6xx_hal_dma.c **** /**
   2:../STM32Cube_FW_N6/Drivers/STM32N6xx_HAL_Driver/Src/stm32n6xx_hal_dma.c ****   *************************************************************************************************
   3:../STM32Cube_FW_N6/Drivers/STM32N6xx_HAL_Driver/Src/stm32n6xx_hal_dma.c ****   * @file    stm32n6xx_hal_dma.c
   4:../STM32Cube_FW_N6/Drivers/STM32N6xx_HAL_Driver/Src/stm32n6xx_hal_dma.c ****   * @author  MCD Application Team
   5:../STM32Cube_FW_N6/Drivers/STM32N6xx_HAL_Driver/Src/stm32n6xx_hal_dma.c ****   * @brief   This file provides firmware functions to manage the following functionalities of the D
   6:../STM32Cube_FW_N6/Drivers/STM32N6xx_HAL_Driver/Src/stm32n6xx_hal_dma.c ****   *          (DMA) peripheral:
   7:../STM32Cube_FW_N6/Drivers/STM32N6xx_HAL_Driver/Src/stm32n6xx_hal_dma.c ****   *            + Initialization/De-Initialization Functions
   8:../STM32Cube_FW_N6/Drivers/STM32N6xx_HAL_Driver/Src/stm32n6xx_hal_dma.c ****   *            + I/O Operation Functions
   9:../STM32Cube_FW_N6/Drivers/STM32N6xx_HAL_Driver/Src/stm32n6xx_hal_dma.c ****   *            + State and Errors Functions
  10:../STM32Cube_FW_N6/Drivers/STM32N6xx_HAL_Driver/Src/stm32n6xx_hal_dma.c ****   *            + DMA Attributes Functions
  11:../STM32Cube_FW_N6/Drivers/STM32N6xx_HAL_Driver/Src/stm32n6xx_hal_dma.c ****   *
  12:../STM32Cube_FW_N6/Drivers/STM32N6xx_HAL_Driver/Src/stm32n6xx_hal_dma.c ****   *************************************************************************************************
ARM GAS  /tmp/ccId6s4B.s 			page 2


  13:../STM32Cube_FW_N6/Drivers/STM32N6xx_HAL_Driver/Src/stm32n6xx_hal_dma.c ****   * @attention
  14:../STM32Cube_FW_N6/Drivers/STM32N6xx_HAL_Driver/Src/stm32n6xx_hal_dma.c ****   *
  15:../STM32Cube_FW_N6/Drivers/STM32N6xx_HAL_Driver/Src/stm32n6xx_hal_dma.c ****   * Copyright (c) 2023 STMicroelectronics.
  16:../STM32Cube_FW_N6/Drivers/STM32N6xx_HAL_Driver/Src/stm32n6xx_hal_dma.c ****   * All rights reserved.
  17:../STM32Cube_FW_N6/Drivers/STM32N6xx_HAL_Driver/Src/stm32n6xx_hal_dma.c ****   *
  18:../STM32Cube_FW_N6/Drivers/STM32N6xx_HAL_Driver/Src/stm32n6xx_hal_dma.c ****   * This software is licensed under terms that can be found in the LICENSE file
  19:../STM32Cube_FW_N6/Drivers/STM32N6xx_HAL_Driver/Src/stm32n6xx_hal_dma.c ****   * in the root directory of this software component.
  20:../STM32Cube_FW_N6/Drivers/STM32N6xx_HAL_Driver/Src/stm32n6xx_hal_dma.c ****   * If no LICENSE file comes with this software, it is provided AS-IS.
  21:../STM32Cube_FW_N6/Drivers/STM32N6xx_HAL_Driver/Src/stm32n6xx_hal_dma.c ****   *
  22:../STM32Cube_FW_N6/Drivers/STM32N6xx_HAL_Driver/Src/stm32n6xx_hal_dma.c ****   *************************************************************************************************
  23:../STM32Cube_FW_N6/Drivers/STM32N6xx_HAL_Driver/Src/stm32n6xx_hal_dma.c ****   @verbatim
  24:../STM32Cube_FW_N6/Drivers/STM32N6xx_HAL_Driver/Src/stm32n6xx_hal_dma.c ****   =================================================================================================
  25:../STM32Cube_FW_N6/Drivers/STM32N6xx_HAL_Driver/Src/stm32n6xx_hal_dma.c ****                        ##### How to use this driver #####
  26:../STM32Cube_FW_N6/Drivers/STM32N6xx_HAL_Driver/Src/stm32n6xx_hal_dma.c ****   =================================================================================================
  27:../STM32Cube_FW_N6/Drivers/STM32N6xx_HAL_Driver/Src/stm32n6xx_hal_dma.c ****   [..]
  28:../STM32Cube_FW_N6/Drivers/STM32N6xx_HAL_Driver/Src/stm32n6xx_hal_dma.c ****    (#) GPDMA and HPDMA are made available on this series.
  29:../STM32Cube_FW_N6/Drivers/STM32N6xx_HAL_Driver/Src/stm32n6xx_hal_dma.c ****        Transfer could be done thanks to AXI or AHB ports.
  30:../STM32Cube_FW_N6/Drivers/STM32N6xx_HAL_Driver/Src/stm32n6xx_hal_dma.c **** 
  31:../STM32Cube_FW_N6/Drivers/STM32N6xx_HAL_Driver/Src/stm32n6xx_hal_dma.c ****        HPDMA support transmission through:
  32:../STM32Cube_FW_N6/Drivers/STM32N6xx_HAL_Driver/Src/stm32n6xx_hal_dma.c ****          AXI port 0.
  33:../STM32Cube_FW_N6/Drivers/STM32N6xx_HAL_Driver/Src/stm32n6xx_hal_dma.c ****          AHB port 1.
  34:../STM32Cube_FW_N6/Drivers/STM32N6xx_HAL_Driver/Src/stm32n6xx_hal_dma.c ****        GPDMA allows transmission through:
  35:../STM32Cube_FW_N6/Drivers/STM32N6xx_HAL_Driver/Src/stm32n6xx_hal_dma.c ****          GPDMA_P = port-0.
  36:../STM32Cube_FW_N6/Drivers/STM32N6xx_HAL_Driver/Src/stm32n6xx_hal_dma.c ****          GPDMA_M = port-1
  37:../STM32Cube_FW_N6/Drivers/STM32N6xx_HAL_Driver/Src/stm32n6xx_hal_dma.c **** 
  38:../STM32Cube_FW_N6/Drivers/STM32N6xx_HAL_Driver/Src/stm32n6xx_hal_dma.c ****        The supported configurations for GPDMA and HPDMA can be found
  39:../STM32Cube_FW_N6/Drivers/STM32N6xx_HAL_Driver/Src/stm32n6xx_hal_dma.c ****        in the Connectivity matrix table of the reference manual.
  40:../STM32Cube_FW_N6/Drivers/STM32N6xx_HAL_Driver/Src/stm32n6xx_hal_dma.c ****        Mind that DTCM and ITCM can be only be accessed thanks to HPDMA
  41:../STM32Cube_FW_N6/Drivers/STM32N6xx_HAL_Driver/Src/stm32n6xx_hal_dma.c ****        AXI port 0.
  42:../STM32Cube_FW_N6/Drivers/STM32N6xx_HAL_Driver/Src/stm32n6xx_hal_dma.c ****     [..]
  43:../STM32Cube_FW_N6/Drivers/STM32N6xx_HAL_Driver/Src/stm32n6xx_hal_dma.c ****       DMA transfer modes are divided to 2 major categories :
  44:../STM32Cube_FW_N6/Drivers/STM32N6xx_HAL_Driver/Src/stm32n6xx_hal_dma.c ****           (+) Normal transfers (legacy)
  45:../STM32Cube_FW_N6/Drivers/STM32N6xx_HAL_Driver/Src/stm32n6xx_hal_dma.c ****           (+) Linked-list transfers
  46:../STM32Cube_FW_N6/Drivers/STM32N6xx_HAL_Driver/Src/stm32n6xx_hal_dma.c **** 
  47:../STM32Cube_FW_N6/Drivers/STM32N6xx_HAL_Driver/Src/stm32n6xx_hal_dma.c ****     [..]
  48:../STM32Cube_FW_N6/Drivers/STM32N6xx_HAL_Driver/Src/stm32n6xx_hal_dma.c ****       Normal transfers mode is initialized via the standard module and linked-list mode is configur
  49:../STM32Cube_FW_N6/Drivers/STM32N6xx_HAL_Driver/Src/stm32n6xx_hal_dma.c ****       module.
  50:../STM32Cube_FW_N6/Drivers/STM32N6xx_HAL_Driver/Src/stm32n6xx_hal_dma.c **** 
  51:../STM32Cube_FW_N6/Drivers/STM32N6xx_HAL_Driver/Src/stm32n6xx_hal_dma.c ****     [..]
  52:../STM32Cube_FW_N6/Drivers/STM32N6xx_HAL_Driver/Src/stm32n6xx_hal_dma.c ****       Additionally to linked-list capability, all advanced DMA features are managed and configured 
  53:../STM32Cube_FW_N6/Drivers/STM32N6xx_HAL_Driver/Src/stm32n6xx_hal_dma.c ****       module as extensions to normal mode.
  54:../STM32Cube_FW_N6/Drivers/STM32N6xx_HAL_Driver/Src/stm32n6xx_hal_dma.c ****       Advanced features are :
  55:../STM32Cube_FW_N6/Drivers/STM32N6xx_HAL_Driver/Src/stm32n6xx_hal_dma.c ****           (+) Repeated block feature.
  56:../STM32Cube_FW_N6/Drivers/STM32N6xx_HAL_Driver/Src/stm32n6xx_hal_dma.c ****           (+) Trigger feature.
  57:../STM32Cube_FW_N6/Drivers/STM32N6xx_HAL_Driver/Src/stm32n6xx_hal_dma.c ****           (+) Data handling feature.
  58:../STM32Cube_FW_N6/Drivers/STM32N6xx_HAL_Driver/Src/stm32n6xx_hal_dma.c **** 
  59:../STM32Cube_FW_N6/Drivers/STM32N6xx_HAL_Driver/Src/stm32n6xx_hal_dma.c ****     [..]
  60:../STM32Cube_FW_N6/Drivers/STM32N6xx_HAL_Driver/Src/stm32n6xx_hal_dma.c ****       DMA Legacy circular transfer, is replaced by circular linked-list configuration.
  61:../STM32Cube_FW_N6/Drivers/STM32N6xx_HAL_Driver/Src/stm32n6xx_hal_dma.c **** 
  62:../STM32Cube_FW_N6/Drivers/STM32N6xx_HAL_Driver/Src/stm32n6xx_hal_dma.c **** 
  63:../STM32Cube_FW_N6/Drivers/STM32N6xx_HAL_Driver/Src/stm32n6xx_hal_dma.c ****     *** Initialization and De-Initialization ***
  64:../STM32Cube_FW_N6/Drivers/STM32N6xx_HAL_Driver/Src/stm32n6xx_hal_dma.c ****     ============================================
  65:../STM32Cube_FW_N6/Drivers/STM32N6xx_HAL_Driver/Src/stm32n6xx_hal_dma.c ****     [..]
  66:../STM32Cube_FW_N6/Drivers/STM32N6xx_HAL_Driver/Src/stm32n6xx_hal_dma.c ****       For a given channel, enable and configure the peripheral to be connected to the DMA Channel (
  67:../STM32Cube_FW_N6/Drivers/STM32N6xx_HAL_Driver/Src/stm32n6xx_hal_dma.c ****       SRAM/FLASH memories: no initialization is necessary) please refer to Reference manual for con
  68:../STM32Cube_FW_N6/Drivers/STM32N6xx_HAL_Driver/Src/stm32n6xx_hal_dma.c ****       peripherals and DMA requests.
  69:../STM32Cube_FW_N6/Drivers/STM32N6xx_HAL_Driver/Src/stm32n6xx_hal_dma.c **** 
ARM GAS  /tmp/ccId6s4B.s 			page 3


  70:../STM32Cube_FW_N6/Drivers/STM32N6xx_HAL_Driver/Src/stm32n6xx_hal_dma.c ****     [..]
  71:../STM32Cube_FW_N6/Drivers/STM32N6xx_HAL_Driver/Src/stm32n6xx_hal_dma.c ****       For a given channel, use HAL_DMA_Init function to program the required configuration for norm
  72:../STM32Cube_FW_N6/Drivers/STM32N6xx_HAL_Driver/Src/stm32n6xx_hal_dma.c ****       the following parameters:
  73:../STM32Cube_FW_N6/Drivers/STM32N6xx_HAL_Driver/Src/stm32n6xx_hal_dma.c **** 
  74:../STM32Cube_FW_N6/Drivers/STM32N6xx_HAL_Driver/Src/stm32n6xx_hal_dma.c ****           (+) Request               : Specifies the DMA channel request
  75:../STM32Cube_FW_N6/Drivers/STM32N6xx_HAL_Driver/Src/stm32n6xx_hal_dma.c ****               Request parameters    :
  76:../STM32Cube_FW_N6/Drivers/STM32N6xx_HAL_Driver/Src/stm32n6xx_hal_dma.c ****               (++) can be a value of DMA_Request_Selection
  77:../STM32Cube_FW_N6/Drivers/STM32N6xx_HAL_Driver/Src/stm32n6xx_hal_dma.c **** 
  78:../STM32Cube_FW_N6/Drivers/STM32N6xx_HAL_Driver/Src/stm32n6xx_hal_dma.c ****           (+) BlkHWRequest          : Specifies the Block hardware request mode for DMA channel
  79:../STM32Cube_FW_N6/Drivers/STM32N6xx_HAL_Driver/Src/stm32n6xx_hal_dma.c ****               (++) can be a value of DMA_Block_Request
  80:../STM32Cube_FW_N6/Drivers/STM32N6xx_HAL_Driver/Src/stm32n6xx_hal_dma.c **** 
  81:../STM32Cube_FW_N6/Drivers/STM32N6xx_HAL_Driver/Src/stm32n6xx_hal_dma.c ****           (+) Direction             : Specifies the transfer direction for DMA channel
  82:../STM32Cube_FW_N6/Drivers/STM32N6xx_HAL_Driver/Src/stm32n6xx_hal_dma.c ****               (++) can be a value of DMA_Transfer_Direction
  83:../STM32Cube_FW_N6/Drivers/STM32N6xx_HAL_Driver/Src/stm32n6xx_hal_dma.c **** 
  84:../STM32Cube_FW_N6/Drivers/STM32N6xx_HAL_Driver/Src/stm32n6xx_hal_dma.c ****           (+) SrcInc                : Specifies the source increment mode for the DMA channel
  85:../STM32Cube_FW_N6/Drivers/STM32N6xx_HAL_Driver/Src/stm32n6xx_hal_dma.c ****               (++) can be a value of DMA_Source_Increment_Mode
  86:../STM32Cube_FW_N6/Drivers/STM32N6xx_HAL_Driver/Src/stm32n6xx_hal_dma.c **** 
  87:../STM32Cube_FW_N6/Drivers/STM32N6xx_HAL_Driver/Src/stm32n6xx_hal_dma.c ****           (+) DestInc               : Specifies the destination increment mode for the DMA channel
  88:../STM32Cube_FW_N6/Drivers/STM32N6xx_HAL_Driver/Src/stm32n6xx_hal_dma.c ****               (++) can be a value of DMA_Destination_Increment_Mode
  89:../STM32Cube_FW_N6/Drivers/STM32N6xx_HAL_Driver/Src/stm32n6xx_hal_dma.c **** 
  90:../STM32Cube_FW_N6/Drivers/STM32N6xx_HAL_Driver/Src/stm32n6xx_hal_dma.c ****           (+) SrcDataWidth          : Specifies the source data width for the DMA channel
  91:../STM32Cube_FW_N6/Drivers/STM32N6xx_HAL_Driver/Src/stm32n6xx_hal_dma.c ****               (++) can be a value of DMA_Source_Data_Width
  92:../STM32Cube_FW_N6/Drivers/STM32N6xx_HAL_Driver/Src/stm32n6xx_hal_dma.c **** 
  93:../STM32Cube_FW_N6/Drivers/STM32N6xx_HAL_Driver/Src/stm32n6xx_hal_dma.c ****           (+) DestDataWidth         : Specifies the destination data width for the DMA channel
  94:../STM32Cube_FW_N6/Drivers/STM32N6xx_HAL_Driver/Src/stm32n6xx_hal_dma.c ****               (++) can be a value of DMA_Destination_Data_Width
  95:../STM32Cube_FW_N6/Drivers/STM32N6xx_HAL_Driver/Src/stm32n6xx_hal_dma.c **** 
  96:../STM32Cube_FW_N6/Drivers/STM32N6xx_HAL_Driver/Src/stm32n6xx_hal_dma.c ****           (+) Priority              : Specifies the priority for the DMA channel
  97:../STM32Cube_FW_N6/Drivers/STM32N6xx_HAL_Driver/Src/stm32n6xx_hal_dma.c ****               (++) can be a value of DMA_Priority_Level
  98:../STM32Cube_FW_N6/Drivers/STM32N6xx_HAL_Driver/Src/stm32n6xx_hal_dma.c **** 
  99:../STM32Cube_FW_N6/Drivers/STM32N6xx_HAL_Driver/Src/stm32n6xx_hal_dma.c ****           (+) SrcBurstLength        : Specifies the source burst length (number of beats) for the D
 100:../STM32Cube_FW_N6/Drivers/STM32N6xx_HAL_Driver/Src/stm32n6xx_hal_dma.c ****               (++) can be a value of between 1 and 64
 101:../STM32Cube_FW_N6/Drivers/STM32N6xx_HAL_Driver/Src/stm32n6xx_hal_dma.c **** 
 102:../STM32Cube_FW_N6/Drivers/STM32N6xx_HAL_Driver/Src/stm32n6xx_hal_dma.c ****           (+) DestBurstLength       : Specifies the destination burst length (number of beats) for 
 103:../STM32Cube_FW_N6/Drivers/STM32N6xx_HAL_Driver/Src/stm32n6xx_hal_dma.c ****               (++) can be a value of between 1 and 64
 104:../STM32Cube_FW_N6/Drivers/STM32N6xx_HAL_Driver/Src/stm32n6xx_hal_dma.c **** 
 105:../STM32Cube_FW_N6/Drivers/STM32N6xx_HAL_Driver/Src/stm32n6xx_hal_dma.c ****           (+) TransferAllocatedPort : Specifies the source and destination allocated ports
 106:../STM32Cube_FW_N6/Drivers/STM32N6xx_HAL_Driver/Src/stm32n6xx_hal_dma.c ****               (++) can be a value of DMA_Transfer_Allocated_Port
 107:../STM32Cube_FW_N6/Drivers/STM32N6xx_HAL_Driver/Src/stm32n6xx_hal_dma.c **** 
 108:../STM32Cube_FW_N6/Drivers/STM32N6xx_HAL_Driver/Src/stm32n6xx_hal_dma.c ****           (+) TransferEventMode     : Specifies the transfer event mode for the DMA channel
 109:../STM32Cube_FW_N6/Drivers/STM32N6xx_HAL_Driver/Src/stm32n6xx_hal_dma.c ****               (++) can be a value of DMA_Transfer_Event_Mode
 110:../STM32Cube_FW_N6/Drivers/STM32N6xx_HAL_Driver/Src/stm32n6xx_hal_dma.c **** 
 111:../STM32Cube_FW_N6/Drivers/STM32N6xx_HAL_Driver/Src/stm32n6xx_hal_dma.c ****           (+) Mode                  : Specifies the transfer mode for the DMA channel
 112:../STM32Cube_FW_N6/Drivers/STM32N6xx_HAL_Driver/Src/stm32n6xx_hal_dma.c ****               (++) can be one of the following modes :
 113:../STM32Cube_FW_N6/Drivers/STM32N6xx_HAL_Driver/Src/stm32n6xx_hal_dma.c ****                   (+++) DMA_NORMAL : Normal Mode
 114:../STM32Cube_FW_N6/Drivers/STM32N6xx_HAL_Driver/Src/stm32n6xx_hal_dma.c ****                   (+++) DMA_PFCTRL : Peripheral Flow Control (peripheral early termination) Mode
 115:../STM32Cube_FW_N6/Drivers/STM32N6xx_HAL_Driver/Src/stm32n6xx_hal_dma.c **** 
 116:../STM32Cube_FW_N6/Drivers/STM32N6xx_HAL_Driver/Src/stm32n6xx_hal_dma.c ****     *** Polling mode IO operation ***
 117:../STM32Cube_FW_N6/Drivers/STM32N6xx_HAL_Driver/Src/stm32n6xx_hal_dma.c ****     =================================
 118:../STM32Cube_FW_N6/Drivers/STM32N6xx_HAL_Driver/Src/stm32n6xx_hal_dma.c ****     [..]
 119:../STM32Cube_FW_N6/Drivers/STM32N6xx_HAL_Driver/Src/stm32n6xx_hal_dma.c ****           (+) Use HAL_DMA_Start() to start a DMA normal transfer after the configuration of source 
 120:../STM32Cube_FW_N6/Drivers/STM32N6xx_HAL_Driver/Src/stm32n6xx_hal_dma.c ****               address and the size of data to be transferred.
 121:../STM32Cube_FW_N6/Drivers/STM32N6xx_HAL_Driver/Src/stm32n6xx_hal_dma.c **** 
 122:../STM32Cube_FW_N6/Drivers/STM32N6xx_HAL_Driver/Src/stm32n6xx_hal_dma.c ****           (+) Use HAL_DMA_PollForTransfer() to poll for selected transfer level. In this case a fix
 123:../STM32Cube_FW_N6/Drivers/STM32N6xx_HAL_Driver/Src/stm32n6xx_hal_dma.c ****               configured by User depending on his application.
 124:../STM32Cube_FW_N6/Drivers/STM32N6xx_HAL_Driver/Src/stm32n6xx_hal_dma.c ****               Transfer level can be :
 125:../STM32Cube_FW_N6/Drivers/STM32N6xx_HAL_Driver/Src/stm32n6xx_hal_dma.c ****               (++) HAL_DMA_HALF_TRANSFER
 126:../STM32Cube_FW_N6/Drivers/STM32N6xx_HAL_Driver/Src/stm32n6xx_hal_dma.c ****               (++) HAL_DMA_FULL_TRANSFER
ARM GAS  /tmp/ccId6s4B.s 			page 4


 127:../STM32Cube_FW_N6/Drivers/STM32N6xx_HAL_Driver/Src/stm32n6xx_hal_dma.c ****               For circular transfer, this API returns an HAL_ERROR with HAL_DMA_ERROR_NOT_SUPPORTED
 128:../STM32Cube_FW_N6/Drivers/STM32N6xx_HAL_Driver/Src/stm32n6xx_hal_dma.c **** 
 129:../STM32Cube_FW_N6/Drivers/STM32N6xx_HAL_Driver/Src/stm32n6xx_hal_dma.c ****           (+) Use HAL_DMA_Abort() function to abort any ongoing DMA transfer in blocking mode.
 130:../STM32Cube_FW_N6/Drivers/STM32N6xx_HAL_Driver/Src/stm32n6xx_hal_dma.c ****               This API returns HAL_ERROR when there is no ongoing transfer or timeout is reached wh
 131:../STM32Cube_FW_N6/Drivers/STM32N6xx_HAL_Driver/Src/stm32n6xx_hal_dma.c ****               channel. (This API should not be called from an interrupt service routine)
 132:../STM32Cube_FW_N6/Drivers/STM32N6xx_HAL_Driver/Src/stm32n6xx_hal_dma.c **** 
 133:../STM32Cube_FW_N6/Drivers/STM32N6xx_HAL_Driver/Src/stm32n6xx_hal_dma.c **** 
 134:../STM32Cube_FW_N6/Drivers/STM32N6xx_HAL_Driver/Src/stm32n6xx_hal_dma.c ****     *** Interrupt mode IO operation ***
 135:../STM32Cube_FW_N6/Drivers/STM32N6xx_HAL_Driver/Src/stm32n6xx_hal_dma.c ****     ===================================
 136:../STM32Cube_FW_N6/Drivers/STM32N6xx_HAL_Driver/Src/stm32n6xx_hal_dma.c ****     [..]
 137:../STM32Cube_FW_N6/Drivers/STM32N6xx_HAL_Driver/Src/stm32n6xx_hal_dma.c ****           (+) Configure the DMA interrupt priority using HAL_NVIC_SetPriority()
 138:../STM32Cube_FW_N6/Drivers/STM32N6xx_HAL_Driver/Src/stm32n6xx_hal_dma.c **** 
 139:../STM32Cube_FW_N6/Drivers/STM32N6xx_HAL_Driver/Src/stm32n6xx_hal_dma.c ****           (+) Enable the DMA IRQ handler using HAL_NVIC_EnableIRQ()
 140:../STM32Cube_FW_N6/Drivers/STM32N6xx_HAL_Driver/Src/stm32n6xx_hal_dma.c **** 
 141:../STM32Cube_FW_N6/Drivers/STM32N6xx_HAL_Driver/Src/stm32n6xx_hal_dma.c ****           (+) Use HAL_DMA_RegisterCallback() function to register user callbacks from the following
 142:../STM32Cube_FW_N6/Drivers/STM32N6xx_HAL_Driver/Src/stm32n6xx_hal_dma.c ****               (++) XferCpltCallback     : transfer complete callback.
 143:../STM32Cube_FW_N6/Drivers/STM32N6xx_HAL_Driver/Src/stm32n6xx_hal_dma.c ****               (++) XferHalfCpltCallback : half transfer complete callback.
 144:../STM32Cube_FW_N6/Drivers/STM32N6xx_HAL_Driver/Src/stm32n6xx_hal_dma.c ****               (++) XferErrorCallback    : transfer error callback.
 145:../STM32Cube_FW_N6/Drivers/STM32N6xx_HAL_Driver/Src/stm32n6xx_hal_dma.c ****               (++) XferAbortCallback    : transfer abort complete callback.
 146:../STM32Cube_FW_N6/Drivers/STM32N6xx_HAL_Driver/Src/stm32n6xx_hal_dma.c ****               (++) XferSuspendCallback  : transfer suspend complete callback.
 147:../STM32Cube_FW_N6/Drivers/STM32N6xx_HAL_Driver/Src/stm32n6xx_hal_dma.c **** 
 148:../STM32Cube_FW_N6/Drivers/STM32N6xx_HAL_Driver/Src/stm32n6xx_hal_dma.c ****           (+) Use HAL_DMA_Start_IT() to start the DMA transfer after the enable of DMA interrupts a
 149:../STM32Cube_FW_N6/Drivers/STM32N6xx_HAL_Driver/Src/stm32n6xx_hal_dma.c ****               of source address,destination address and the size of data to be transferred.
 150:../STM32Cube_FW_N6/Drivers/STM32N6xx_HAL_Driver/Src/stm32n6xx_hal_dma.c **** 
 151:../STM32Cube_FW_N6/Drivers/STM32N6xx_HAL_Driver/Src/stm32n6xx_hal_dma.c ****           (+) Use HAL_DMA_IRQHandler() called under DMA_IRQHandler() interrupt subroutine to handle
 152:../STM32Cube_FW_N6/Drivers/STM32N6xx_HAL_Driver/Src/stm32n6xx_hal_dma.c **** 
 153:../STM32Cube_FW_N6/Drivers/STM32N6xx_HAL_Driver/Src/stm32n6xx_hal_dma.c ****           (+) Use HAL_DMA_Abort_IT() function to abort any on-going DMA transfer in non-blocking mo
 154:../STM32Cube_FW_N6/Drivers/STM32N6xx_HAL_Driver/Src/stm32n6xx_hal_dma.c ****               This API will suspend immediately the DMA channel execution. When the transfer is eff
 155:../STM32Cube_FW_N6/Drivers/STM32N6xx_HAL_Driver/Src/stm32n6xx_hal_dma.c ****               an interrupt is generated and HAL_DMA_IRQHandler() will reset the channel and execute
 156:../STM32Cube_FW_N6/Drivers/STM32N6xx_HAL_Driver/Src/stm32n6xx_hal_dma.c ****               XferAbortCallback. (This API could be called from an interrupt service routine)
 157:../STM32Cube_FW_N6/Drivers/STM32N6xx_HAL_Driver/Src/stm32n6xx_hal_dma.c **** 
 158:../STM32Cube_FW_N6/Drivers/STM32N6xx_HAL_Driver/Src/stm32n6xx_hal_dma.c **** 
 159:../STM32Cube_FW_N6/Drivers/STM32N6xx_HAL_Driver/Src/stm32n6xx_hal_dma.c ****     *** State and errors ***
 160:../STM32Cube_FW_N6/Drivers/STM32N6xx_HAL_Driver/Src/stm32n6xx_hal_dma.c ****     ========================
 161:../STM32Cube_FW_N6/Drivers/STM32N6xx_HAL_Driver/Src/stm32n6xx_hal_dma.c ****     [..]
 162:../STM32Cube_FW_N6/Drivers/STM32N6xx_HAL_Driver/Src/stm32n6xx_hal_dma.c ****           (+) Use HAL_DMA_GetState() function to get the DMA state.
 163:../STM32Cube_FW_N6/Drivers/STM32N6xx_HAL_Driver/Src/stm32n6xx_hal_dma.c ****           (+) Use HAL_DMA_GetError() function to get the DMA error code.
 164:../STM32Cube_FW_N6/Drivers/STM32N6xx_HAL_Driver/Src/stm32n6xx_hal_dma.c **** 
 165:../STM32Cube_FW_N6/Drivers/STM32N6xx_HAL_Driver/Src/stm32n6xx_hal_dma.c **** 
 166:../STM32Cube_FW_N6/Drivers/STM32N6xx_HAL_Driver/Src/stm32n6xx_hal_dma.c ****     *** Security and privilege attributes ***
 167:../STM32Cube_FW_N6/Drivers/STM32N6xx_HAL_Driver/Src/stm32n6xx_hal_dma.c ****     =========================================
 168:../STM32Cube_FW_N6/Drivers/STM32N6xx_HAL_Driver/Src/stm32n6xx_hal_dma.c ****     [..]
 169:../STM32Cube_FW_N6/Drivers/STM32N6xx_HAL_Driver/Src/stm32n6xx_hal_dma.c ****           (+) Use HAL_DMA_ConfigChannelAttributes() function to configure DMA channel security and 
 170:../STM32Cube_FW_N6/Drivers/STM32N6xx_HAL_Driver/Src/stm32n6xx_hal_dma.c ****               (++) Security  : at channel level, at source level and at destination level.
 171:../STM32Cube_FW_N6/Drivers/STM32N6xx_HAL_Driver/Src/stm32n6xx_hal_dma.c ****               (++) Privilege : at channel level.
 172:../STM32Cube_FW_N6/Drivers/STM32N6xx_HAL_Driver/Src/stm32n6xx_hal_dma.c ****           (+) Use HAL_DMA_GetConfigChannelAttributes() function to get the DMA channel attributes.
 173:../STM32Cube_FW_N6/Drivers/STM32N6xx_HAL_Driver/Src/stm32n6xx_hal_dma.c ****           (+) Use HAL_DMA_LockChannelAttributes() function to lock the DMA channel security and pri
 174:../STM32Cube_FW_N6/Drivers/STM32N6xx_HAL_Driver/Src/stm32n6xx_hal_dma.c ****               configuration. This API can be called once after each system boot.
 175:../STM32Cube_FW_N6/Drivers/STM32N6xx_HAL_Driver/Src/stm32n6xx_hal_dma.c ****               If called again, HAL_DMA_ConfigChannelAttributes() API has no effect.
 176:../STM32Cube_FW_N6/Drivers/STM32N6xx_HAL_Driver/Src/stm32n6xx_hal_dma.c ****               Unlock is done either by a system boot or a by an RCC reset.
 177:../STM32Cube_FW_N6/Drivers/STM32N6xx_HAL_Driver/Src/stm32n6xx_hal_dma.c ****           (+) Use HAL_DMA_GetLockChannelAttributes() function to get the attributes lock status.
 178:../STM32Cube_FW_N6/Drivers/STM32N6xx_HAL_Driver/Src/stm32n6xx_hal_dma.c ****           (+) Use HAL_DMA_SetIsolationAttributes() function to configure the HPDMA channel isolatio
 179:../STM32Cube_FW_N6/Drivers/STM32N6xx_HAL_Driver/Src/stm32n6xx_hal_dma.c ****           (+) Use HAL_DMA_GetIsolationAttributes() function to get the HPDMA channel isolation attr
 180:../STM32Cube_FW_N6/Drivers/STM32N6xx_HAL_Driver/Src/stm32n6xx_hal_dma.c **** 
 181:../STM32Cube_FW_N6/Drivers/STM32N6xx_HAL_Driver/Src/stm32n6xx_hal_dma.c ****     *** Isolation attributes ***
 182:../STM32Cube_FW_N6/Drivers/STM32N6xx_HAL_Driver/Src/stm32n6xx_hal_dma.c ****     ==================================
 183:../STM32Cube_FW_N6/Drivers/STM32N6xx_HAL_Driver/Src/stm32n6xx_hal_dma.c ****     It is recommended to always enable the isolation feature of the DMA (CFEN = 1) of the HPDMA cha
ARM GAS  /tmp/ccId6s4B.s 			page 5


 184:../STM32Cube_FW_N6/Drivers/STM32N6xx_HAL_Driver/Src/stm32n6xx_hal_dma.c ****     The default isolation shall be 1. i.e. the Cortex CID.
 185:../STM32Cube_FW_N6/Drivers/STM32N6xx_HAL_Driver/Src/stm32n6xx_hal_dma.c ****     Indeed, should the isolation bit CFEN be equal to 0, a default isolation CID is still carried o
 186:../STM32Cube_FW_N6/Drivers/STM32N6xx_HAL_Driver/Src/stm32n6xx_hal_dma.c ****     the CID generated by a channel access is zero-ed when CFEN=0, even if SCID is different from 00
 187:../STM32Cube_FW_N6/Drivers/STM32N6xx_HAL_Driver/Src/stm32n6xx_hal_dma.c **** 
 188:../STM32Cube_FW_N6/Drivers/STM32N6xx_HAL_Driver/Src/stm32n6xx_hal_dma.c ****     Similarly, it is recommended that all RIMU related IP (SDMMC, OTG, ETH, GPU, DMA2D, ...) to alw
 189:../STM32Cube_FW_N6/Drivers/STM32N6xx_HAL_Driver/Src/stm32n6xx_hal_dma.c ****     generate (CID = 1).
 190:../STM32Cube_FW_N6/Drivers/STM32N6xx_HAL_Driver/Src/stm32n6xx_hal_dma.c **** 
 191:../STM32Cube_FW_N6/Drivers/STM32N6xx_HAL_Driver/Src/stm32n6xx_hal_dma.c ****     *** DMA HAL driver macros list ***
 192:../STM32Cube_FW_N6/Drivers/STM32N6xx_HAL_Driver/Src/stm32n6xx_hal_dma.c ****     ==================================
 193:../STM32Cube_FW_N6/Drivers/STM32N6xx_HAL_Driver/Src/stm32n6xx_hal_dma.c ****     [..]
 194:../STM32Cube_FW_N6/Drivers/STM32N6xx_HAL_Driver/Src/stm32n6xx_hal_dma.c ****       Below the list of most used macros in DMA HAL driver.
 195:../STM32Cube_FW_N6/Drivers/STM32N6xx_HAL_Driver/Src/stm32n6xx_hal_dma.c **** 
 196:../STM32Cube_FW_N6/Drivers/STM32N6xx_HAL_Driver/Src/stm32n6xx_hal_dma.c ****           (+) __HAL_DMA_ENABLE        : Enable the specified DMA Channel.
 197:../STM32Cube_FW_N6/Drivers/STM32N6xx_HAL_Driver/Src/stm32n6xx_hal_dma.c ****           (+) __HAL_DMA_DISABLE       : Disable the specified DMA Channel.
 198:../STM32Cube_FW_N6/Drivers/STM32N6xx_HAL_Driver/Src/stm32n6xx_hal_dma.c ****           (+) __HAL_DMA_GET_FLAG      : Get the DMA Channel pending flags.
 199:../STM32Cube_FW_N6/Drivers/STM32N6xx_HAL_Driver/Src/stm32n6xx_hal_dma.c ****           (+) __HAL_DMA_CLEAR_FLAG    : Clear the DMA Channel pending flags.
 200:../STM32Cube_FW_N6/Drivers/STM32N6xx_HAL_Driver/Src/stm32n6xx_hal_dma.c ****           (+) __HAL_DMA_ENABLE_IT     : Enable the specified DMA Channel interrupts.
 201:../STM32Cube_FW_N6/Drivers/STM32N6xx_HAL_Driver/Src/stm32n6xx_hal_dma.c ****           (+) __HAL_DMA_DISABLE_IT    : Disable the specified DMA Channel interrupts.
 202:../STM32Cube_FW_N6/Drivers/STM32N6xx_HAL_Driver/Src/stm32n6xx_hal_dma.c ****           (+) __HAL_DMA_GET_IT_SOURCE : Check whether the specified DMA Channel interrupt has occur
 203:../STM32Cube_FW_N6/Drivers/STM32N6xx_HAL_Driver/Src/stm32n6xx_hal_dma.c **** 
 204:../STM32Cube_FW_N6/Drivers/STM32N6xx_HAL_Driver/Src/stm32n6xx_hal_dma.c ****     *** Valid burst length ***
 205:../STM32Cube_FW_N6/Drivers/STM32N6xx_HAL_Driver/Src/stm32n6xx_hal_dma.c ****     ==================================
 206:../STM32Cube_FW_N6/Drivers/STM32N6xx_HAL_Driver/Src/stm32n6xx_hal_dma.c ****     [..]
 207:../STM32Cube_FW_N6/Drivers/STM32N6xx_HAL_Driver/Src/stm32n6xx_hal_dma.c ****       HPDMA allowed AXI maximum burst length
 208:../STM32Cube_FW_N6/Drivers/STM32N6xx_HAL_Driver/Src/stm32n6xx_hal_dma.c ****     (+) The maximum allowed AXI burst length shall not exceed 16.
 209:../STM32Cube_FW_N6/Drivers/STM32N6xx_HAL_Driver/Src/stm32n6xx_hal_dma.c ****             (++) If either selected source or destination length is above 16, HAL_DMA_Init will ret
 210:../STM32Cube_FW_N6/Drivers/STM32N6xx_HAL_Driver/Src/stm32n6xx_hal_dma.c **** 
 211:../STM32Cube_FW_N6/Drivers/STM32N6xx_HAL_Driver/Src/stm32n6xx_hal_dma.c ****     [..]
 212:../STM32Cube_FW_N6/Drivers/STM32N6xx_HAL_Driver/Src/stm32n6xx_hal_dma.c ****      (@) You can refer to the header file of the DMA HAL driver for more useful macros.
 213:../STM32Cube_FW_N6/Drivers/STM32N6xx_HAL_Driver/Src/stm32n6xx_hal_dma.c **** 
 214:../STM32Cube_FW_N6/Drivers/STM32N6xx_HAL_Driver/Src/stm32n6xx_hal_dma.c ****     @endverbatim
 215:../STM32Cube_FW_N6/Drivers/STM32N6xx_HAL_Driver/Src/stm32n6xx_hal_dma.c ****   *************************************************************************************************
 216:../STM32Cube_FW_N6/Drivers/STM32N6xx_HAL_Driver/Src/stm32n6xx_hal_dma.c ****   */
 217:../STM32Cube_FW_N6/Drivers/STM32N6xx_HAL_Driver/Src/stm32n6xx_hal_dma.c **** 
 218:../STM32Cube_FW_N6/Drivers/STM32N6xx_HAL_Driver/Src/stm32n6xx_hal_dma.c **** /* Includes ---------------------------------------------------------------------------------------
 219:../STM32Cube_FW_N6/Drivers/STM32N6xx_HAL_Driver/Src/stm32n6xx_hal_dma.c **** #include "stm32n6xx_hal.h"
 220:../STM32Cube_FW_N6/Drivers/STM32N6xx_HAL_Driver/Src/stm32n6xx_hal_dma.c **** 
 221:../STM32Cube_FW_N6/Drivers/STM32N6xx_HAL_Driver/Src/stm32n6xx_hal_dma.c **** /** @addtogroup STM32N6xx_HAL_Driver
 222:../STM32Cube_FW_N6/Drivers/STM32N6xx_HAL_Driver/Src/stm32n6xx_hal_dma.c ****   * @{
 223:../STM32Cube_FW_N6/Drivers/STM32N6xx_HAL_Driver/Src/stm32n6xx_hal_dma.c ****   */
 224:../STM32Cube_FW_N6/Drivers/STM32N6xx_HAL_Driver/Src/stm32n6xx_hal_dma.c **** 
 225:../STM32Cube_FW_N6/Drivers/STM32N6xx_HAL_Driver/Src/stm32n6xx_hal_dma.c **** /** @defgroup DMA DMA
 226:../STM32Cube_FW_N6/Drivers/STM32N6xx_HAL_Driver/Src/stm32n6xx_hal_dma.c ****   * @brief DMA HAL module driver
 227:../STM32Cube_FW_N6/Drivers/STM32N6xx_HAL_Driver/Src/stm32n6xx_hal_dma.c ****   * @{
 228:../STM32Cube_FW_N6/Drivers/STM32N6xx_HAL_Driver/Src/stm32n6xx_hal_dma.c ****   */
 229:../STM32Cube_FW_N6/Drivers/STM32N6xx_HAL_Driver/Src/stm32n6xx_hal_dma.c **** 
 230:../STM32Cube_FW_N6/Drivers/STM32N6xx_HAL_Driver/Src/stm32n6xx_hal_dma.c **** #ifdef HAL_DMA_MODULE_ENABLED
 231:../STM32Cube_FW_N6/Drivers/STM32N6xx_HAL_Driver/Src/stm32n6xx_hal_dma.c **** 
 232:../STM32Cube_FW_N6/Drivers/STM32N6xx_HAL_Driver/Src/stm32n6xx_hal_dma.c **** /* Private typedef --------------------------------------------------------------------------------
 233:../STM32Cube_FW_N6/Drivers/STM32N6xx_HAL_Driver/Src/stm32n6xx_hal_dma.c **** /* Private constants ------------------------------------------------------------------------------
 234:../STM32Cube_FW_N6/Drivers/STM32N6xx_HAL_Driver/Src/stm32n6xx_hal_dma.c **** /* Private macro ----------------------------------------------------------------------------------
 235:../STM32Cube_FW_N6/Drivers/STM32N6xx_HAL_Driver/Src/stm32n6xx_hal_dma.c **** /* Private variables ------------------------------------------------------------------------------
 236:../STM32Cube_FW_N6/Drivers/STM32N6xx_HAL_Driver/Src/stm32n6xx_hal_dma.c **** /* Private function prototypes --------------------------------------------------------------------
 237:../STM32Cube_FW_N6/Drivers/STM32N6xx_HAL_Driver/Src/stm32n6xx_hal_dma.c **** static void DMA_SetConfig(DMA_HandleTypeDef const *const hdma,
 238:../STM32Cube_FW_N6/Drivers/STM32N6xx_HAL_Driver/Src/stm32n6xx_hal_dma.c ****                           uint32_t SrcAddress,
 239:../STM32Cube_FW_N6/Drivers/STM32N6xx_HAL_Driver/Src/stm32n6xx_hal_dma.c ****                           uint32_t DstAddress,
 240:../STM32Cube_FW_N6/Drivers/STM32N6xx_HAL_Driver/Src/stm32n6xx_hal_dma.c ****                           uint32_t SrcDataSize);
ARM GAS  /tmp/ccId6s4B.s 			page 6


 241:../STM32Cube_FW_N6/Drivers/STM32N6xx_HAL_Driver/Src/stm32n6xx_hal_dma.c **** static void DMA_Init(DMA_HandleTypeDef const *const hdma);
 242:../STM32Cube_FW_N6/Drivers/STM32N6xx_HAL_Driver/Src/stm32n6xx_hal_dma.c **** 
 243:../STM32Cube_FW_N6/Drivers/STM32N6xx_HAL_Driver/Src/stm32n6xx_hal_dma.c **** /* Exported functions -----------------------------------------------------------------------------
 244:../STM32Cube_FW_N6/Drivers/STM32N6xx_HAL_Driver/Src/stm32n6xx_hal_dma.c **** 
 245:../STM32Cube_FW_N6/Drivers/STM32N6xx_HAL_Driver/Src/stm32n6xx_hal_dma.c **** /** @addtogroup DMA_Exported_Functions DMA Exported Functions
 246:../STM32Cube_FW_N6/Drivers/STM32N6xx_HAL_Driver/Src/stm32n6xx_hal_dma.c ****   * @{
 247:../STM32Cube_FW_N6/Drivers/STM32N6xx_HAL_Driver/Src/stm32n6xx_hal_dma.c ****   */
 248:../STM32Cube_FW_N6/Drivers/STM32N6xx_HAL_Driver/Src/stm32n6xx_hal_dma.c **** 
 249:../STM32Cube_FW_N6/Drivers/STM32N6xx_HAL_Driver/Src/stm32n6xx_hal_dma.c **** /** @addtogroup DMA_Exported_Functions_Group1
 250:../STM32Cube_FW_N6/Drivers/STM32N6xx_HAL_Driver/Src/stm32n6xx_hal_dma.c ****   *
 251:../STM32Cube_FW_N6/Drivers/STM32N6xx_HAL_Driver/Src/stm32n6xx_hal_dma.c **** @verbatim
 252:../STM32Cube_FW_N6/Drivers/STM32N6xx_HAL_Driver/Src/stm32n6xx_hal_dma.c ****   =================================================================================================
 253:../STM32Cube_FW_N6/Drivers/STM32N6xx_HAL_Driver/Src/stm32n6xx_hal_dma.c ****                        ##### Initialization and de-initialization functions #####
 254:../STM32Cube_FW_N6/Drivers/STM32N6xx_HAL_Driver/Src/stm32n6xx_hal_dma.c ****   =================================================================================================
 255:../STM32Cube_FW_N6/Drivers/STM32N6xx_HAL_Driver/Src/stm32n6xx_hal_dma.c ****     [..]
 256:../STM32Cube_FW_N6/Drivers/STM32N6xx_HAL_Driver/Src/stm32n6xx_hal_dma.c ****       This section provides functions allowing to initialize and de-initialize the DMA channel in n
 257:../STM32Cube_FW_N6/Drivers/STM32N6xx_HAL_Driver/Src/stm32n6xx_hal_dma.c **** 
 258:../STM32Cube_FW_N6/Drivers/STM32N6xx_HAL_Driver/Src/stm32n6xx_hal_dma.c ****     [..]
 259:../STM32Cube_FW_N6/Drivers/STM32N6xx_HAL_Driver/Src/stm32n6xx_hal_dma.c ****       (+) The HAL_DMA_Init() function follows the DMA channel configuration procedures as described
 260:../STM32Cube_FW_N6/Drivers/STM32N6xx_HAL_Driver/Src/stm32n6xx_hal_dma.c ****       (+) The HAL_DMA_DeInit() function allows to de-initialize the DMA channel.
 261:../STM32Cube_FW_N6/Drivers/STM32N6xx_HAL_Driver/Src/stm32n6xx_hal_dma.c **** 
 262:../STM32Cube_FW_N6/Drivers/STM32N6xx_HAL_Driver/Src/stm32n6xx_hal_dma.c **** @endverbatim
 263:../STM32Cube_FW_N6/Drivers/STM32N6xx_HAL_Driver/Src/stm32n6xx_hal_dma.c ****   * @{
 264:../STM32Cube_FW_N6/Drivers/STM32N6xx_HAL_Driver/Src/stm32n6xx_hal_dma.c ****   */
 265:../STM32Cube_FW_N6/Drivers/STM32N6xx_HAL_Driver/Src/stm32n6xx_hal_dma.c **** 
 266:../STM32Cube_FW_N6/Drivers/STM32N6xx_HAL_Driver/Src/stm32n6xx_hal_dma.c **** /**
 267:../STM32Cube_FW_N6/Drivers/STM32N6xx_HAL_Driver/Src/stm32n6xx_hal_dma.c ****   * @brief  Initialize the DMA channel in normal mode according to the specified parameters in the 
 268:../STM32Cube_FW_N6/Drivers/STM32N6xx_HAL_Driver/Src/stm32n6xx_hal_dma.c ****   *         create the associated handle.
 269:../STM32Cube_FW_N6/Drivers/STM32N6xx_HAL_Driver/Src/stm32n6xx_hal_dma.c ****   * @note   Warning: the maximum allowed AXI burst length shall not exceed 16.
 270:../STM32Cube_FW_N6/Drivers/STM32N6xx_HAL_Driver/Src/stm32n6xx_hal_dma.c ****   *         Otherwise, an error will be returned and no initialization performed.
 271:../STM32Cube_FW_N6/Drivers/STM32N6xx_HAL_Driver/Src/stm32n6xx_hal_dma.c ****   * @param  hdma : Pointer to a DMA_HandleTypeDef structure that contains the configuration informa
 272:../STM32Cube_FW_N6/Drivers/STM32N6xx_HAL_Driver/Src/stm32n6xx_hal_dma.c ****   *                specified DMA Channel.
 273:../STM32Cube_FW_N6/Drivers/STM32N6xx_HAL_Driver/Src/stm32n6xx_hal_dma.c ****   * @retval HAL status.
 274:../STM32Cube_FW_N6/Drivers/STM32N6xx_HAL_Driver/Src/stm32n6xx_hal_dma.c ****   */
 275:../STM32Cube_FW_N6/Drivers/STM32N6xx_HAL_Driver/Src/stm32n6xx_hal_dma.c **** HAL_StatusTypeDef HAL_DMA_Init(DMA_HandleTypeDef *const hdma)
 276:../STM32Cube_FW_N6/Drivers/STM32N6xx_HAL_Driver/Src/stm32n6xx_hal_dma.c **** {
  39              		.loc 1 276 1 view -0
  40              		.cfi_startproc
  41              		@ args = 0, pretend = 0, frame = 0
  42              		@ frame_needed = 0, uses_anonymous_args = 0
 277:../STM32Cube_FW_N6/Drivers/STM32N6xx_HAL_Driver/Src/stm32n6xx_hal_dma.c ****   /* Get tick number */
 278:../STM32Cube_FW_N6/Drivers/STM32N6xx_HAL_Driver/Src/stm32n6xx_hal_dma.c ****   uint32_t tickstart = HAL_GetTick();
  43              		.loc 1 278 3 view .LVU1
 276:../STM32Cube_FW_N6/Drivers/STM32N6xx_HAL_Driver/Src/stm32n6xx_hal_dma.c ****   /* Get tick number */
  44              		.loc 1 276 1 is_stmt 0 view .LVU2
  45 0000 F8B5     		push	{r3, r4, r5, r6, r7, lr}
  46              		.cfi_def_cfa_offset 24
  47              		.cfi_offset 3, -24
  48              		.cfi_offset 4, -20
  49              		.cfi_offset 5, -16
  50              		.cfi_offset 6, -12
  51              		.cfi_offset 7, -8
  52              		.cfi_offset 14, -4
 276:../STM32Cube_FW_N6/Drivers/STM32N6xx_HAL_Driver/Src/stm32n6xx_hal_dma.c ****   /* Get tick number */
  53              		.loc 1 276 1 view .LVU3
  54 0002 0446     		mov	r4, r0
  55              		.loc 1 278 24 view .LVU4
ARM GAS  /tmp/ccId6s4B.s 			page 7


  56 0004 FFF7FEFF 		bl	HAL_GetTick
  57              	.LVL1:
  58              		.loc 1 278 24 view .LVU5
  59 0008 0646     		mov	r6, r0
  60              	.LVL2:
 279:../STM32Cube_FW_N6/Drivers/STM32N6xx_HAL_Driver/Src/stm32n6xx_hal_dma.c **** 
 280:../STM32Cube_FW_N6/Drivers/STM32N6xx_HAL_Driver/Src/stm32n6xx_hal_dma.c ****   /* Check the DMA peripheral handle parameter */
 281:../STM32Cube_FW_N6/Drivers/STM32N6xx_HAL_Driver/Src/stm32n6xx_hal_dma.c ****   if (hdma == NULL)
  61              		.loc 1 281 3 is_stmt 1 view .LVU6
  62              		.loc 1 281 6 is_stmt 0 view .LVU7
  63 000a 002C     		cmp	r4, #0
  64 000c 00F04287 		beq	.L3
 282:../STM32Cube_FW_N6/Drivers/STM32N6xx_HAL_Driver/Src/stm32n6xx_hal_dma.c ****   {
 283:../STM32Cube_FW_N6/Drivers/STM32N6xx_HAL_Driver/Src/stm32n6xx_hal_dma.c ****     return HAL_ERROR;
 284:../STM32Cube_FW_N6/Drivers/STM32N6xx_HAL_Driver/Src/stm32n6xx_hal_dma.c ****   }
 285:../STM32Cube_FW_N6/Drivers/STM32N6xx_HAL_Driver/Src/stm32n6xx_hal_dma.c **** 
 286:../STM32Cube_FW_N6/Drivers/STM32N6xx_HAL_Driver/Src/stm32n6xx_hal_dma.c ****   /* Check the parameters */
 287:../STM32Cube_FW_N6/Drivers/STM32N6xx_HAL_Driver/Src/stm32n6xx_hal_dma.c ****   assert_param(IS_DMA_ALL_INSTANCE(hdma->Instance));
  65              		.loc 1 287 3 is_stmt 1 view .LVU8
  66 0010 2368     		ldr	r3, [r4]
  67 0012 BF4F     		ldr	r7, .L69
  68 0014 BB42     		cmp	r3, r7
  69 0016 00F04381 		beq	.L4
  70              		.loc 1 287 3 is_stmt 0 discriminator 1 view .LVU9
  71 001a BE4A     		ldr	r2, .L69+4
  72 001c 9342     		cmp	r3, r2
  73 001e 00F03F81 		beq	.L4
  74              		.loc 1 287 3 discriminator 2 view .LVU10
  75 0022 02F18052 		add	r2, r2, #268435456
  76 0026 8032     		adds	r2, r2, #128
  77 0028 9342     		cmp	r3, r2
  78 002a 00F03981 		beq	.L4
  79              		.loc 1 287 3 discriminator 3 view .LVU11
  80 002e 02F17042 		add	r2, r2, #-268435456
  81 0032 9342     		cmp	r3, r2
  82 0034 00F03481 		beq	.L4
  83              		.loc 1 287 3 discriminator 4 view .LVU12
  84 0038 02F18052 		add	r2, r2, #268435456
  85 003c 8032     		adds	r2, r2, #128
  86 003e 9342     		cmp	r3, r2
  87 0040 00F02E81 		beq	.L4
  88              		.loc 1 287 3 discriminator 5 view .LVU13
  89 0044 02F17042 		add	r2, r2, #-268435456
  90 0048 9342     		cmp	r3, r2
  91 004a 00F02981 		beq	.L4
  92              		.loc 1 287 3 discriminator 6 view .LVU14
  93 004e 02F18052 		add	r2, r2, #268435456
  94 0052 8032     		adds	r2, r2, #128
  95 0054 9342     		cmp	r3, r2
  96 0056 00F02381 		beq	.L4
  97              		.loc 1 287 3 discriminator 7 view .LVU15
  98 005a 02F17042 		add	r2, r2, #-268435456
  99 005e 9342     		cmp	r3, r2
 100 0060 00F01E81 		beq	.L4
 101              		.loc 1 287 3 discriminator 8 view .LVU16
 102 0064 02F18052 		add	r2, r2, #268435456
 103 0068 8032     		adds	r2, r2, #128
ARM GAS  /tmp/ccId6s4B.s 			page 8


 104 006a 9342     		cmp	r3, r2
 105 006c 00F01881 		beq	.L4
 106              		.loc 1 287 3 discriminator 9 view .LVU17
 107 0070 02F17042 		add	r2, r2, #-268435456
 108 0074 9342     		cmp	r3, r2
 109 0076 00F01381 		beq	.L4
 110              		.loc 1 287 3 discriminator 10 view .LVU18
 111 007a 02F18052 		add	r2, r2, #268435456
 112 007e 8032     		adds	r2, r2, #128
 113 0080 9342     		cmp	r3, r2
 114 0082 00F00D81 		beq	.L4
 115              		.loc 1 287 3 discriminator 11 view .LVU19
 116 0086 02F17042 		add	r2, r2, #-268435456
 117 008a 9342     		cmp	r3, r2
 118 008c 00F00881 		beq	.L4
 119              		.loc 1 287 3 discriminator 12 view .LVU20
 120 0090 02F18052 		add	r2, r2, #268435456
 121 0094 8032     		adds	r2, r2, #128
 122 0096 9342     		cmp	r3, r2
 123 0098 00F00281 		beq	.L4
 124              		.loc 1 287 3 discriminator 13 view .LVU21
 125 009c 02F17042 		add	r2, r2, #-268435456
 126 00a0 9342     		cmp	r3, r2
 127 00a2 00F0FD80 		beq	.L4
 128              		.loc 1 287 3 discriminator 14 view .LVU22
 129 00a6 02F18052 		add	r2, r2, #268435456
 130 00aa 8032     		adds	r2, r2, #128
 131 00ac 9342     		cmp	r3, r2
 132 00ae 00F0F780 		beq	.L4
 133              		.loc 1 287 3 discriminator 15 view .LVU23
 134 00b2 02F17042 		add	r2, r2, #-268435456
 135 00b6 9342     		cmp	r3, r2
 136 00b8 00F0F280 		beq	.L4
 137              		.loc 1 287 3 discriminator 16 view .LVU24
 138 00bc 02F18052 		add	r2, r2, #268435456
 139 00c0 8032     		adds	r2, r2, #128
 140 00c2 9342     		cmp	r3, r2
 141 00c4 00F0EC80 		beq	.L4
 142              		.loc 1 287 3 discriminator 17 view .LVU25
 143 00c8 02F17042 		add	r2, r2, #-268435456
 144 00cc 9342     		cmp	r3, r2
 145 00ce 00F0E780 		beq	.L4
 146              		.loc 1 287 3 discriminator 18 view .LVU26
 147 00d2 02F18052 		add	r2, r2, #268435456
 148 00d6 8032     		adds	r2, r2, #128
 149 00d8 9342     		cmp	r3, r2
 150 00da 00F0E180 		beq	.L4
 151              		.loc 1 287 3 discriminator 19 view .LVU27
 152 00de 02F17042 		add	r2, r2, #-268435456
 153 00e2 9342     		cmp	r3, r2
 154 00e4 00F0DC80 		beq	.L4
 155              		.loc 1 287 3 discriminator 20 view .LVU28
 156 00e8 02F18052 		add	r2, r2, #268435456
 157 00ec 8032     		adds	r2, r2, #128
 158 00ee 9342     		cmp	r3, r2
 159 00f0 00F0D680 		beq	.L4
 160              		.loc 1 287 3 discriminator 21 view .LVU29
ARM GAS  /tmp/ccId6s4B.s 			page 9


 161 00f4 02F17042 		add	r2, r2, #-268435456
 162 00f8 9342     		cmp	r3, r2
 163 00fa 00F0D180 		beq	.L4
 164              		.loc 1 287 3 discriminator 22 view .LVU30
 165 00fe 02F18052 		add	r2, r2, #268435456
 166 0102 8032     		adds	r2, r2, #128
 167 0104 9342     		cmp	r3, r2
 168 0106 00F0CB80 		beq	.L4
 169              		.loc 1 287 3 discriminator 23 view .LVU31
 170 010a 02F17042 		add	r2, r2, #-268435456
 171 010e 9342     		cmp	r3, r2
 172 0110 00F0C680 		beq	.L4
 173              		.loc 1 287 3 discriminator 24 view .LVU32
 174 0114 02F18052 		add	r2, r2, #268435456
 175 0118 8032     		adds	r2, r2, #128
 176 011a 9342     		cmp	r3, r2
 177 011c 00F0C080 		beq	.L4
 178              		.loc 1 287 3 discriminator 25 view .LVU33
 179 0120 02F17042 		add	r2, r2, #-268435456
 180 0124 9342     		cmp	r3, r2
 181 0126 00F0BB80 		beq	.L4
 182              		.loc 1 287 3 discriminator 26 view .LVU34
 183 012a 02F18052 		add	r2, r2, #268435456
 184 012e 8032     		adds	r2, r2, #128
 185 0130 9342     		cmp	r3, r2
 186 0132 00F0B580 		beq	.L4
 187              		.loc 1 287 3 discriminator 27 view .LVU35
 188 0136 02F17042 		add	r2, r2, #-268435456
 189 013a 9342     		cmp	r3, r2
 190 013c 00F0B080 		beq	.L4
 191              		.loc 1 287 3 discriminator 28 view .LVU36
 192 0140 02F18052 		add	r2, r2, #268435456
 193 0144 8032     		adds	r2, r2, #128
 194 0146 9342     		cmp	r3, r2
 195 0148 00F0AA80 		beq	.L4
 196              		.loc 1 287 3 discriminator 29 view .LVU37
 197 014c 02F17042 		add	r2, r2, #-268435456
 198 0150 9342     		cmp	r3, r2
 199 0152 00F0A580 		beq	.L4
 200              		.loc 1 287 3 discriminator 30 view .LVU38
 201 0156 02F18052 		add	r2, r2, #268435456
 202 015a 8032     		adds	r2, r2, #128
 203 015c 9342     		cmp	r3, r2
 204 015e 00F09F80 		beq	.L4
 205              		.loc 1 287 3 discriminator 31 view .LVU39
 206 0162 02F17042 		add	r2, r2, #-268435456
 207 0166 9342     		cmp	r3, r2
 208 0168 00F09A80 		beq	.L4
 209              		.loc 1 287 3 discriminator 32 view .LVU40
 210 016c 02F1C052 		add	r2, r2, #402653184
 211 0170 A2F5BC52 		sub	r2, r2, #6016
 212 0174 9342     		cmp	r3, r2
 213 0176 00F09380 		beq	.L4
 214              		.loc 1 287 3 discriminator 33 view .LVU41
 215 017a 02F17042 		add	r2, r2, #-268435456
 216 017e 9342     		cmp	r3, r2
 217 0180 00F08E80 		beq	.L4
ARM GAS  /tmp/ccId6s4B.s 			page 10


 218              		.loc 1 287 3 discriminator 34 view .LVU42
 219 0184 02F18052 		add	r2, r2, #268435456
 220 0188 8032     		adds	r2, r2, #128
 221 018a 9342     		cmp	r3, r2
 222 018c 00F08880 		beq	.L4
 223              		.loc 1 287 3 discriminator 35 view .LVU43
 224 0190 02F17042 		add	r2, r2, #-268435456
 225 0194 9342     		cmp	r3, r2
 226 0196 00F08380 		beq	.L4
 227              		.loc 1 287 3 discriminator 36 view .LVU44
 228 019a 02F18052 		add	r2, r2, #268435456
 229 019e 8032     		adds	r2, r2, #128
 230 01a0 9342     		cmp	r3, r2
 231 01a2 7DD0     		beq	.L4
 232              		.loc 1 287 3 discriminator 37 view .LVU45
 233 01a4 02F17042 		add	r2, r2, #-268435456
 234 01a8 9342     		cmp	r3, r2
 235 01aa 79D0     		beq	.L4
 236              		.loc 1 287 3 discriminator 38 view .LVU46
 237 01ac 02F18052 		add	r2, r2, #268435456
 238 01b0 8032     		adds	r2, r2, #128
 239 01b2 9342     		cmp	r3, r2
 240 01b4 74D0     		beq	.L4
 241              		.loc 1 287 3 discriminator 39 view .LVU47
 242 01b6 02F17042 		add	r2, r2, #-268435456
 243 01ba 9342     		cmp	r3, r2
 244 01bc 70D0     		beq	.L4
 245              		.loc 1 287 3 discriminator 40 view .LVU48
 246 01be 02F18052 		add	r2, r2, #268435456
 247 01c2 8032     		adds	r2, r2, #128
 248 01c4 9342     		cmp	r3, r2
 249 01c6 6BD0     		beq	.L4
 250              		.loc 1 287 3 discriminator 41 view .LVU49
 251 01c8 02F17042 		add	r2, r2, #-268435456
 252 01cc 9342     		cmp	r3, r2
 253 01ce 67D0     		beq	.L4
 254              		.loc 1 287 3 discriminator 42 view .LVU50
 255 01d0 02F18052 		add	r2, r2, #268435456
 256 01d4 8032     		adds	r2, r2, #128
 257 01d6 9342     		cmp	r3, r2
 258 01d8 62D0     		beq	.L4
 259              		.loc 1 287 3 discriminator 43 view .LVU51
 260 01da 02F17042 		add	r2, r2, #-268435456
 261 01de 9342     		cmp	r3, r2
 262 01e0 5ED0     		beq	.L4
 263              		.loc 1 287 3 discriminator 44 view .LVU52
 264 01e2 02F18052 		add	r2, r2, #268435456
 265 01e6 8032     		adds	r2, r2, #128
 266 01e8 9342     		cmp	r3, r2
 267 01ea 59D0     		beq	.L4
 268              		.loc 1 287 3 discriminator 45 view .LVU53
 269 01ec 02F17042 		add	r2, r2, #-268435456
 270 01f0 9342     		cmp	r3, r2
 271 01f2 55D0     		beq	.L4
 272              		.loc 1 287 3 discriminator 46 view .LVU54
 273 01f4 02F18052 		add	r2, r2, #268435456
 274 01f8 8032     		adds	r2, r2, #128
ARM GAS  /tmp/ccId6s4B.s 			page 11


 275 01fa 9342     		cmp	r3, r2
 276 01fc 50D0     		beq	.L4
 277              		.loc 1 287 3 discriminator 47 view .LVU55
 278 01fe 02F17042 		add	r2, r2, #-268435456
 279 0202 9342     		cmp	r3, r2
 280 0204 4CD0     		beq	.L4
 281              		.loc 1 287 3 discriminator 48 view .LVU56
 282 0206 02F18052 		add	r2, r2, #268435456
 283 020a 8032     		adds	r2, r2, #128
 284 020c 9342     		cmp	r3, r2
 285 020e 47D0     		beq	.L4
 286              		.loc 1 287 3 discriminator 49 view .LVU57
 287 0210 02F17042 		add	r2, r2, #-268435456
 288 0214 9342     		cmp	r3, r2
 289 0216 43D0     		beq	.L4
 290              		.loc 1 287 3 discriminator 50 view .LVU58
 291 0218 02F18052 		add	r2, r2, #268435456
 292 021c 8032     		adds	r2, r2, #128
 293 021e 9342     		cmp	r3, r2
 294 0220 3ED0     		beq	.L4
 295              		.loc 1 287 3 discriminator 51 view .LVU59
 296 0222 02F17042 		add	r2, r2, #-268435456
 297 0226 9342     		cmp	r3, r2
 298 0228 3AD0     		beq	.L4
 299              		.loc 1 287 3 discriminator 52 view .LVU60
 300 022a 02F18052 		add	r2, r2, #268435456
 301 022e 8032     		adds	r2, r2, #128
 302 0230 9342     		cmp	r3, r2
 303 0232 35D0     		beq	.L4
 304              		.loc 1 287 3 discriminator 53 view .LVU61
 305 0234 02F17042 		add	r2, r2, #-268435456
 306 0238 9342     		cmp	r3, r2
 307 023a 31D0     		beq	.L4
 308              		.loc 1 287 3 discriminator 54 view .LVU62
 309 023c 02F18052 		add	r2, r2, #268435456
 310 0240 8032     		adds	r2, r2, #128
 311 0242 9342     		cmp	r3, r2
 312 0244 2CD0     		beq	.L4
 313              		.loc 1 287 3 discriminator 55 view .LVU63
 314 0246 02F17042 		add	r2, r2, #-268435456
 315 024a 9342     		cmp	r3, r2
 316 024c 28D0     		beq	.L4
 317              		.loc 1 287 3 discriminator 56 view .LVU64
 318 024e 02F18052 		add	r2, r2, #268435456
 319 0252 8032     		adds	r2, r2, #128
 320 0254 9342     		cmp	r3, r2
 321 0256 23D0     		beq	.L4
 322              		.loc 1 287 3 discriminator 57 view .LVU65
 323 0258 02F17042 		add	r2, r2, #-268435456
 324 025c 9342     		cmp	r3, r2
 325 025e 1FD0     		beq	.L4
 326              		.loc 1 287 3 discriminator 58 view .LVU66
 327 0260 02F18052 		add	r2, r2, #268435456
 328 0264 8032     		adds	r2, r2, #128
 329 0266 9342     		cmp	r3, r2
 330 0268 1AD0     		beq	.L4
 331              		.loc 1 287 3 discriminator 59 view .LVU67
ARM GAS  /tmp/ccId6s4B.s 			page 12


 332 026a 02F17042 		add	r2, r2, #-268435456
 333 026e 9342     		cmp	r3, r2
 334 0270 16D0     		beq	.L4
 335              		.loc 1 287 3 discriminator 60 view .LVU68
 336 0272 02F18052 		add	r2, r2, #268435456
 337 0276 8032     		adds	r2, r2, #128
 338 0278 9342     		cmp	r3, r2
 339 027a 11D0     		beq	.L4
 340              		.loc 1 287 3 discriminator 61 view .LVU69
 341 027c 02F17042 		add	r2, r2, #-268435456
 342 0280 9342     		cmp	r3, r2
 343 0282 0DD0     		beq	.L4
 344              		.loc 1 287 3 discriminator 62 view .LVU70
 345 0284 02F18052 		add	r2, r2, #268435456
 346 0288 8032     		adds	r2, r2, #128
 347 028a 9342     		cmp	r3, r2
 348 028c 08D0     		beq	.L4
 349              		.loc 1 287 3 discriminator 63 view .LVU71
 350 028e 02F17042 		add	r2, r2, #-268435456
 351 0292 9342     		cmp	r3, r2
 352 0294 04D0     		beq	.L4
 353              		.loc 1 287 3 discriminator 64 view .LVU72
 354 0296 40F21F11 		movw	r1, #287
 355 029a 1F48     		ldr	r0, .L69+8
 356              	.LVL3:
 357              		.loc 1 287 3 discriminator 64 view .LVU73
 358 029c FFF7FEFF 		bl	assert_failed
 359              	.LVL4:
 360              	.L4:
 288:../STM32Cube_FW_N6/Drivers/STM32N6xx_HAL_Driver/Src/stm32n6xx_hal_dma.c ****   assert_param(IS_DMA_DIRECTION(hdma->Init.Direction));
 361              		.loc 1 288 3 is_stmt 1 view .LVU74
 362 02a0 E368     		ldr	r3, [r4, #12]
 363 02a2 33F48062 		bics	r2, r3, #1024
 364 02a6 40F08185 		bne	.L5
 365              	.L10:
 289:../STM32Cube_FW_N6/Drivers/STM32N6xx_HAL_Driver/Src/stm32n6xx_hal_dma.c ****   if (hdma->Init.Direction != DMA_MEMORY_TO_MEMORY)
 290:../STM32Cube_FW_N6/Drivers/STM32N6xx_HAL_Driver/Src/stm32n6xx_hal_dma.c ****   {
 291:../STM32Cube_FW_N6/Drivers/STM32N6xx_HAL_Driver/Src/stm32n6xx_hal_dma.c ****     assert_param(IS_DMA_REQUEST(hdma->Init.Request));
 366              		.loc 1 291 5 view .LVU75
 367 02aa 6368     		ldr	r3, [r4, #4]
 368 02ac B3F5007F 		cmp	r3, #512
 369 02b0 40F08C85 		bne	.L6
 370              	.L9:
 292:../STM32Cube_FW_N6/Drivers/STM32N6xx_HAL_Driver/Src/stm32n6xx_hal_dma.c ****   }
 293:../STM32Cube_FW_N6/Drivers/STM32N6xx_HAL_Driver/Src/stm32n6xx_hal_dma.c ****   assert_param(IS_DMA_BLOCK_HW_REQUEST(hdma->Init.BlkHWRequest));
 371              		.loc 1 293 3 view .LVU76
 372 02b4 A368     		ldr	r3, [r4, #8]
 373 02b6 33F40063 		bics	r3, r3, #2048
 374 02ba 04D0     		beq	.L11
 375              		.loc 1 293 3 is_stmt 0 discriminator 2 view .LVU77
 376 02bc 40F22511 		movw	r1, #293
 377 02c0 1548     		ldr	r0, .L69+8
 378 02c2 FFF7FEFF 		bl	assert_failed
 379              	.LVL5:
 380              	.L11:
 294:../STM32Cube_FW_N6/Drivers/STM32N6xx_HAL_Driver/Src/stm32n6xx_hal_dma.c ****   assert_param(IS_DMA_SOURCE_INC(hdma->Init.SrcInc));
 381              		.loc 1 294 3 is_stmt 1 view .LVU78
ARM GAS  /tmp/ccId6s4B.s 			page 13


 382 02c6 2369     		ldr	r3, [r4, #16]
 383 02c8 33F00803 		bics	r3, r3, #8
 384 02cc 04D0     		beq	.L12
 385              		.loc 1 294 3 is_stmt 0 discriminator 2 view .LVU79
 386 02ce 4FF49371 		mov	r1, #294
 387 02d2 1148     		ldr	r0, .L69+8
 388 02d4 FFF7FEFF 		bl	assert_failed
 389              	.LVL6:
 390              	.L12:
 295:../STM32Cube_FW_N6/Drivers/STM32N6xx_HAL_Driver/Src/stm32n6xx_hal_dma.c ****   assert_param(IS_DMA_DESTINATION_INC(hdma->Init.DestInc));
 391              		.loc 1 295 3 is_stmt 1 view .LVU80
 392 02d8 6369     		ldr	r3, [r4, #20]
 393 02da 33F40023 		bics	r3, r3, #524288
 394 02de 04D0     		beq	.L13
 395              		.loc 1 295 3 is_stmt 0 discriminator 2 view .LVU81
 396 02e0 40F22711 		movw	r1, #295
 397 02e4 0C48     		ldr	r0, .L69+8
 398 02e6 FFF7FEFF 		bl	assert_failed
 399              	.LVL7:
 400              	.L13:
 296:../STM32Cube_FW_N6/Drivers/STM32N6xx_HAL_Driver/Src/stm32n6xx_hal_dma.c ****   assert_param(IS_DMA_SOURCE_DATA_WIDTH(hdma->Init.SrcDataWidth));
 401              		.loc 1 296 3 is_stmt 1 view .LVU82
 402 02ea A369     		ldr	r3, [r4, #24]
 403 02ec 032B     		cmp	r3, #3
 404 02ee 04D9     		bls	.L14
 405              		.loc 1 296 3 is_stmt 0 discriminator 1 view .LVU83
 406 02f0 4FF49471 		mov	r1, #296
 407 02f4 0848     		ldr	r0, .L69+8
 408 02f6 FFF7FEFF 		bl	assert_failed
 409              	.LVL8:
 410              	.L14:
 297:../STM32Cube_FW_N6/Drivers/STM32N6xx_HAL_Driver/Src/stm32n6xx_hal_dma.c ****   assert_param(IS_DMA_DESTINATION_DATA_WIDTH(hdma->Init.DestDataWidth));
 411              		.loc 1 297 3 is_stmt 1 view .LVU84
 412 02fa E369     		ldr	r3, [r4, #28]
 413 02fc 33F44033 		bics	r3, r3, #196608
 414 0300 0CD0     		beq	.L15
 415              		.loc 1 297 3 is_stmt 0 discriminator 4 view .LVU85
 416 0302 40F22911 		movw	r1, #297
 417 0306 0448     		ldr	r0, .L69+8
 418 0308 FFF7FEFF 		bl	assert_failed
 419              	.LVL9:
 420 030c 06E0     		b	.L70
 421              	.L71:
 422 030e 00BF     		.align	2
 423              	.L69:
 424 0310 50100250 		.word	1342312528
 425 0314 50100240 		.word	1073877072
 426 0318 00000000 		.word	.LC0
 427              	.L70:
 428              	.L15:
 298:../STM32Cube_FW_N6/Drivers/STM32N6xx_HAL_Driver/Src/stm32n6xx_hal_dma.c ****   assert_param(IS_DMA_PRIORITY(hdma->Init.Priority));
 429              		.loc 1 298 3 is_stmt 1 view .LVU86
 430 031c 236A     		ldr	r3, [r4, #32]
 431 031e 33F44003 		bics	r3, r3, #12582912
 432 0322 04D0     		beq	.L16
 433              		.loc 1 298 3 is_stmt 0 discriminator 4 view .LVU87
 434 0324 4FF49571 		mov	r1, #298
ARM GAS  /tmp/ccId6s4B.s 			page 14


 435 0328 BD48     		ldr	r0, .L72
 436 032a FFF7FEFF 		bl	assert_failed
 437              	.LVL10:
 438              	.L16:
 299:../STM32Cube_FW_N6/Drivers/STM32N6xx_HAL_Driver/Src/stm32n6xx_hal_dma.c ****   assert_param(IS_DMA_TCEM_EVENT_MODE(hdma->Init.TransferEventMode));
 439              		.loc 1 299 3 is_stmt 1 view .LVU88
 440 032e 236B     		ldr	r3, [r4, #48]
 441 0330 33F04043 		bics	r3, r3, #-1073741824
 442 0334 04D0     		beq	.L17
 443              		.loc 1 299 3 is_stmt 0 discriminator 4 view .LVU89
 444 0336 40F22B11 		movw	r1, #299
 445 033a B948     		ldr	r0, .L72
 446 033c FFF7FEFF 		bl	assert_failed
 447              	.LVL11:
 448              	.L17:
 300:../STM32Cube_FW_N6/Drivers/STM32N6xx_HAL_Driver/Src/stm32n6xx_hal_dma.c ****   assert_param(IS_DMA_MODE(hdma->Init.Mode));
 449              		.loc 1 300 3 is_stmt 1 view .LVU90
 450 0340 636B     		ldr	r3, [r4, #52]
 451 0342 B84D     		ldr	r5, .L72+4
 452 0344 3BB1     		cbz	r3, .L19
 453              		.loc 1 300 3 is_stmt 0 discriminator 1 view .LVU91
 454 0346 B3F5805F 		cmp	r3, #4096
 455 034a 40F04985 		bne	.L20
 456              	.L23:
 301:../STM32Cube_FW_N6/Drivers/STM32N6xx_HAL_Driver/Src/stm32n6xx_hal_dma.c ****   if (hdma->Init.Mode == DMA_PFCTRL)
 302:../STM32Cube_FW_N6/Drivers/STM32N6xx_HAL_Driver/Src/stm32n6xx_hal_dma.c ****   {
 303:../STM32Cube_FW_N6/Drivers/STM32N6xx_HAL_Driver/Src/stm32n6xx_hal_dma.c ****     assert_param(IS_DMA_PFREQ_INSTANCE(hdma->Instance));
 457              		.loc 1 303 5 is_stmt 1 view .LVU92
 458 034e 2368     		ldr	r3, [r4]
 459 0350 BB42     		cmp	r3, r7
 460 0352 40F05185 		bne	.L21
 461              	.L19:
 304:../STM32Cube_FW_N6/Drivers/STM32N6xx_HAL_Driver/Src/stm32n6xx_hal_dma.c ****   }
 305:../STM32Cube_FW_N6/Drivers/STM32N6xx_HAL_Driver/Src/stm32n6xx_hal_dma.c ****   /* Check DMA channel instance */
 306:../STM32Cube_FW_N6/Drivers/STM32N6xx_HAL_Driver/Src/stm32n6xx_hal_dma.c ****   if ((IS_HPDMA_INSTANCE(hdma->Instance) != 0U) || (IS_GPDMA_INSTANCE(hdma->Instance) != 0U))
 462              		.loc 1 306 3 view .LVU93
 463              		.loc 1 306 8 is_stmt 0 view .LVU94
 464 0356 2368     		ldr	r3, [r4]
 465 0358 AB42     		cmp	r3, r5
 466 035a 00F03C81 		beq	.L24
 467              		.loc 1 306 8 discriminator 2 view .LVU95
 468 035e B24A     		ldr	r2, .L72+8
 469 0360 9342     		cmp	r3, r2
 470 0362 00F03881 		beq	.L24
 471              		.loc 1 306 8 discriminator 4 view .LVU96
 472 0366 02F18052 		add	r2, r2, #268435456
 473 036a 8032     		adds	r2, r2, #128
 474 036c 9342     		cmp	r3, r2
 475 036e 00F03281 		beq	.L24
 476              		.loc 1 306 8 discriminator 6 view .LVU97
 477 0372 02F17042 		add	r2, r2, #-268435456
 478 0376 9342     		cmp	r3, r2
 479 0378 00F02D81 		beq	.L24
 480              		.loc 1 306 8 discriminator 8 view .LVU98
 481 037c 02F18052 		add	r2, r2, #268435456
 482 0380 8032     		adds	r2, r2, #128
 483 0382 9342     		cmp	r3, r2
ARM GAS  /tmp/ccId6s4B.s 			page 15


 484 0384 00F02781 		beq	.L24
 485              		.loc 1 306 8 discriminator 10 view .LVU99
 486 0388 02F17042 		add	r2, r2, #-268435456
 487 038c 9342     		cmp	r3, r2
 488 038e 00F02281 		beq	.L24
 489              		.loc 1 306 8 discriminator 12 view .LVU100
 490 0392 02F18052 		add	r2, r2, #268435456
 491 0396 8032     		adds	r2, r2, #128
 492 0398 9342     		cmp	r3, r2
 493 039a 00F01C81 		beq	.L24
 494              		.loc 1 306 8 discriminator 14 view .LVU101
 495 039e 02F17042 		add	r2, r2, #-268435456
 496 03a2 9342     		cmp	r3, r2
 497 03a4 00F01781 		beq	.L24
 498              		.loc 1 306 8 discriminator 16 view .LVU102
 499 03a8 02F18052 		add	r2, r2, #268435456
 500 03ac 8032     		adds	r2, r2, #128
 501 03ae 9342     		cmp	r3, r2
 502 03b0 00F01181 		beq	.L24
 503              		.loc 1 306 8 discriminator 18 view .LVU103
 504 03b4 02F17042 		add	r2, r2, #-268435456
 505 03b8 9342     		cmp	r3, r2
 506 03ba 00F00C81 		beq	.L24
 507              		.loc 1 306 8 discriminator 20 view .LVU104
 508 03be 02F18052 		add	r2, r2, #268435456
 509 03c2 8032     		adds	r2, r2, #128
 510 03c4 9342     		cmp	r3, r2
 511 03c6 00F00681 		beq	.L24
 512              		.loc 1 306 8 discriminator 22 view .LVU105
 513 03ca 02F17042 		add	r2, r2, #-268435456
 514 03ce 9342     		cmp	r3, r2
 515 03d0 00F00181 		beq	.L24
 516              		.loc 1 306 8 discriminator 24 view .LVU106
 517 03d4 02F18052 		add	r2, r2, #268435456
 518 03d8 8032     		adds	r2, r2, #128
 519 03da 9342     		cmp	r3, r2
 520 03dc 00F0FB80 		beq	.L24
 521              		.loc 1 306 8 discriminator 26 view .LVU107
 522 03e0 02F17042 		add	r2, r2, #-268435456
 523 03e4 9342     		cmp	r3, r2
 524 03e6 00F0F680 		beq	.L24
 525              		.loc 1 306 8 discriminator 28 view .LVU108
 526 03ea 02F18052 		add	r2, r2, #268435456
 527 03ee 8032     		adds	r2, r2, #128
 528 03f0 9342     		cmp	r3, r2
 529 03f2 00F0F080 		beq	.L24
 530              		.loc 1 306 8 discriminator 30 view .LVU109
 531 03f6 02F17042 		add	r2, r2, #-268435456
 532 03fa 9342     		cmp	r3, r2
 533 03fc 00F0EB80 		beq	.L24
 534              		.loc 1 306 8 discriminator 32 view .LVU110
 535 0400 02F18052 		add	r2, r2, #268435456
 536 0404 8032     		adds	r2, r2, #128
 537 0406 9342     		cmp	r3, r2
 538 0408 00F0E580 		beq	.L24
 539              		.loc 1 306 8 discriminator 34 view .LVU111
 540 040c 02F17042 		add	r2, r2, #-268435456
ARM GAS  /tmp/ccId6s4B.s 			page 16


 541 0410 9342     		cmp	r3, r2
 542 0412 00F0E080 		beq	.L24
 543              		.loc 1 306 8 discriminator 36 view .LVU112
 544 0416 02F18052 		add	r2, r2, #268435456
 545 041a 8032     		adds	r2, r2, #128
 546 041c 9342     		cmp	r3, r2
 547 041e 00F0DA80 		beq	.L24
 548              		.loc 1 306 8 discriminator 38 view .LVU113
 549 0422 02F17042 		add	r2, r2, #-268435456
 550 0426 9342     		cmp	r3, r2
 551 0428 00F0D580 		beq	.L24
 552              		.loc 1 306 8 discriminator 40 view .LVU114
 553 042c 02F18052 		add	r2, r2, #268435456
 554 0430 8032     		adds	r2, r2, #128
 555 0432 9342     		cmp	r3, r2
 556 0434 00F0CF80 		beq	.L24
 557              		.loc 1 306 8 discriminator 42 view .LVU115
 558 0438 02F17042 		add	r2, r2, #-268435456
 559 043c 9342     		cmp	r3, r2
 560 043e 00F0CA80 		beq	.L24
 561              		.loc 1 306 8 discriminator 44 view .LVU116
 562 0442 02F18052 		add	r2, r2, #268435456
 563 0446 8032     		adds	r2, r2, #128
 564 0448 9342     		cmp	r3, r2
 565 044a 00F0C480 		beq	.L24
 566              		.loc 1 306 8 discriminator 46 view .LVU117
 567 044e 02F17042 		add	r2, r2, #-268435456
 568 0452 9342     		cmp	r3, r2
 569 0454 00F0BF80 		beq	.L24
 570              		.loc 1 306 8 discriminator 48 view .LVU118
 571 0458 02F18052 		add	r2, r2, #268435456
 572 045c 8032     		adds	r2, r2, #128
 573 045e 9342     		cmp	r3, r2
 574 0460 00F0B980 		beq	.L24
 575              		.loc 1 306 8 discriminator 50 view .LVU119
 576 0464 02F17042 		add	r2, r2, #-268435456
 577 0468 9342     		cmp	r3, r2
 578 046a 00F0B480 		beq	.L24
 579              		.loc 1 306 8 discriminator 52 view .LVU120
 580 046e 02F18052 		add	r2, r2, #268435456
 581 0472 8032     		adds	r2, r2, #128
 582 0474 9342     		cmp	r3, r2
 583 0476 00F0AE80 		beq	.L24
 584              		.loc 1 306 8 discriminator 54 view .LVU121
 585 047a 02F17042 		add	r2, r2, #-268435456
 586 047e 9342     		cmp	r3, r2
 587 0480 00F0A980 		beq	.L24
 588              		.loc 1 306 8 discriminator 56 view .LVU122
 589 0484 02F18052 		add	r2, r2, #268435456
 590 0488 8032     		adds	r2, r2, #128
 591 048a 9342     		cmp	r3, r2
 592 048c 00F0A380 		beq	.L24
 593              		.loc 1 306 8 discriminator 58 view .LVU123
 594 0490 02F17042 		add	r2, r2, #-268435456
 595 0494 9342     		cmp	r3, r2
 596 0496 00F09E80 		beq	.L24
 597              		.loc 1 306 8 discriminator 60 view .LVU124
ARM GAS  /tmp/ccId6s4B.s 			page 17


 598 049a 02F18052 		add	r2, r2, #268435456
 599 049e 8032     		adds	r2, r2, #128
 600 04a0 9342     		cmp	r3, r2
 601 04a2 00F09880 		beq	.L24
 602              		.loc 1 306 8 discriminator 62 view .LVU125
 603 04a6 02F17042 		add	r2, r2, #-268435456
 604 04aa 9342     		cmp	r3, r2
 605 04ac 00F09380 		beq	.L24
 606              		.loc 1 306 53 discriminator 67 view .LVU126
 607 04b0 02F10822 		add	r2, r2, #134219776
 608 04b4 8032     		adds	r2, r2, #128
 609 04b6 9342     		cmp	r3, r2
 610 04b8 00F08D80 		beq	.L24
 611              		.loc 1 306 53 discriminator 69 view .LVU127
 612 04bc 02F17042 		add	r2, r2, #-268435456
 613 04c0 9342     		cmp	r3, r2
 614 04c2 00F08880 		beq	.L24
 615              		.loc 1 306 53 discriminator 71 view .LVU128
 616 04c6 02F18052 		add	r2, r2, #268435456
 617 04ca 8032     		adds	r2, r2, #128
 618 04cc 9342     		cmp	r3, r2
 619 04ce 00F08280 		beq	.L24
 620              		.loc 1 306 53 discriminator 73 view .LVU129
 621 04d2 02F17042 		add	r2, r2, #-268435456
 622 04d6 9342     		cmp	r3, r2
 623 04d8 7DD0     		beq	.L24
 624              		.loc 1 306 53 discriminator 75 view .LVU130
 625 04da 02F18052 		add	r2, r2, #268435456
 626 04de 8032     		adds	r2, r2, #128
 627 04e0 9342     		cmp	r3, r2
 628 04e2 78D0     		beq	.L24
 629              		.loc 1 306 53 discriminator 77 view .LVU131
 630 04e4 02F17042 		add	r2, r2, #-268435456
 631 04e8 9342     		cmp	r3, r2
 632 04ea 74D0     		beq	.L24
 633              		.loc 1 306 53 discriminator 79 view .LVU132
 634 04ec 02F18052 		add	r2, r2, #268435456
 635 04f0 8032     		adds	r2, r2, #128
 636 04f2 9342     		cmp	r3, r2
 637 04f4 6FD0     		beq	.L24
 638              		.loc 1 306 53 discriminator 81 view .LVU133
 639 04f6 02F17042 		add	r2, r2, #-268435456
 640 04fa 9342     		cmp	r3, r2
 641 04fc 6BD0     		beq	.L24
 642              		.loc 1 306 53 discriminator 83 view .LVU134
 643 04fe 02F18052 		add	r2, r2, #268435456
 644 0502 8032     		adds	r2, r2, #128
 645 0504 9342     		cmp	r3, r2
 646 0506 66D0     		beq	.L24
 647              		.loc 1 306 53 discriminator 85 view .LVU135
 648 0508 02F17042 		add	r2, r2, #-268435456
 649 050c 9342     		cmp	r3, r2
 650 050e 62D0     		beq	.L24
 651              		.loc 1 306 53 discriminator 87 view .LVU136
 652 0510 02F18052 		add	r2, r2, #268435456
 653 0514 8032     		adds	r2, r2, #128
 654 0516 9342     		cmp	r3, r2
ARM GAS  /tmp/ccId6s4B.s 			page 18


 655 0518 5DD0     		beq	.L24
 656              		.loc 1 306 53 discriminator 89 view .LVU137
 657 051a 02F17042 		add	r2, r2, #-268435456
 658 051e 9342     		cmp	r3, r2
 659 0520 59D0     		beq	.L24
 660              		.loc 1 306 53 discriminator 91 view .LVU138
 661 0522 02F18052 		add	r2, r2, #268435456
 662 0526 8032     		adds	r2, r2, #128
 663 0528 9342     		cmp	r3, r2
 664 052a 54D0     		beq	.L24
 665              		.loc 1 306 53 discriminator 93 view .LVU139
 666 052c 02F17042 		add	r2, r2, #-268435456
 667 0530 9342     		cmp	r3, r2
 668 0532 50D0     		beq	.L24
 669              		.loc 1 306 53 discriminator 95 view .LVU140
 670 0534 02F18052 		add	r2, r2, #268435456
 671 0538 8032     		adds	r2, r2, #128
 672 053a 9342     		cmp	r3, r2
 673 053c 4BD0     		beq	.L24
 674              		.loc 1 306 53 discriminator 97 view .LVU141
 675 053e 02F17042 		add	r2, r2, #-268435456
 676 0542 9342     		cmp	r3, r2
 677 0544 47D0     		beq	.L24
 678              		.loc 1 306 53 discriminator 99 view .LVU142
 679 0546 02F18052 		add	r2, r2, #268435456
 680 054a 8032     		adds	r2, r2, #128
 681 054c 9342     		cmp	r3, r2
 682 054e 42D0     		beq	.L24
 683              		.loc 1 306 53 discriminator 101 view .LVU143
 684 0550 02F17042 		add	r2, r2, #-268435456
 685 0554 9342     		cmp	r3, r2
 686 0556 3ED0     		beq	.L24
 687              		.loc 1 306 53 discriminator 103 view .LVU144
 688 0558 02F18052 		add	r2, r2, #268435456
 689 055c 8032     		adds	r2, r2, #128
 690 055e 9342     		cmp	r3, r2
 691 0560 39D0     		beq	.L24
 692              		.loc 1 306 53 discriminator 105 view .LVU145
 693 0562 02F17042 		add	r2, r2, #-268435456
 694 0566 9342     		cmp	r3, r2
 695 0568 35D0     		beq	.L24
 696              		.loc 1 306 53 discriminator 107 view .LVU146
 697 056a 02F18052 		add	r2, r2, #268435456
 698 056e 8032     		adds	r2, r2, #128
 699 0570 9342     		cmp	r3, r2
 700 0572 30D0     		beq	.L24
 701              		.loc 1 306 53 discriminator 109 view .LVU147
 702 0574 02F17042 		add	r2, r2, #-268435456
 703 0578 9342     		cmp	r3, r2
 704 057a 2CD0     		beq	.L24
 705              		.loc 1 306 53 discriminator 111 view .LVU148
 706 057c 02F18052 		add	r2, r2, #268435456
 707 0580 8032     		adds	r2, r2, #128
 708 0582 9342     		cmp	r3, r2
 709 0584 27D0     		beq	.L24
 710              		.loc 1 306 53 discriminator 113 view .LVU149
 711 0586 02F17042 		add	r2, r2, #-268435456
ARM GAS  /tmp/ccId6s4B.s 			page 19


 712 058a 9342     		cmp	r3, r2
 713 058c 23D0     		beq	.L24
 714              		.loc 1 306 53 discriminator 115 view .LVU150
 715 058e 02F18052 		add	r2, r2, #268435456
 716 0592 8032     		adds	r2, r2, #128
 717 0594 9342     		cmp	r3, r2
 718 0596 1ED0     		beq	.L24
 719              		.loc 1 306 53 discriminator 117 view .LVU151
 720 0598 02F17042 		add	r2, r2, #-268435456
 721 059c 9342     		cmp	r3, r2
 722 059e 1AD0     		beq	.L24
 723              		.loc 1 306 53 discriminator 119 view .LVU152
 724 05a0 02F18052 		add	r2, r2, #268435456
 725 05a4 8032     		adds	r2, r2, #128
 726 05a6 9342     		cmp	r3, r2
 727 05a8 15D0     		beq	.L24
 728              		.loc 1 306 53 discriminator 121 view .LVU153
 729 05aa 02F17042 		add	r2, r2, #-268435456
 730 05ae 9342     		cmp	r3, r2
 731 05b0 11D0     		beq	.L24
 732              		.loc 1 306 53 discriminator 123 view .LVU154
 733 05b2 02F18052 		add	r2, r2, #268435456
 734 05b6 8032     		adds	r2, r2, #128
 735 05b8 9342     		cmp	r3, r2
 736 05ba 0CD0     		beq	.L24
 737              		.loc 1 306 53 discriminator 125 view .LVU155
 738 05bc 02F17042 		add	r2, r2, #-268435456
 739 05c0 9342     		cmp	r3, r2
 740 05c2 08D0     		beq	.L24
 741              		.loc 1 306 53 discriminator 127 view .LVU156
 742 05c4 02F18052 		add	r2, r2, #268435456
 743 05c8 8032     		adds	r2, r2, #128
 744 05ca 9342     		cmp	r3, r2
 745 05cc 03D0     		beq	.L24
 746              		.loc 1 306 53 discriminator 129 view .LVU157
 747 05ce 02F17042 		add	r2, r2, #-268435456
 748 05d2 9342     		cmp	r3, r2
 749 05d4 1AD1     		bne	.L25
 750              	.L24:
 307:../STM32Cube_FW_N6/Drivers/STM32N6xx_HAL_Driver/Src/stm32n6xx_hal_dma.c ****   {
 308:../STM32Cube_FW_N6/Drivers/STM32N6xx_HAL_Driver/Src/stm32n6xx_hal_dma.c ****     assert_param(IS_DMA_BURST_LENGTH(hdma->Init.SrcBurstLength));
 751              		.loc 1 308 5 is_stmt 1 view .LVU158
 752 05d6 636A     		ldr	r3, [r4, #36]
 753 05d8 013B     		subs	r3, r3, #1
 754 05da 3F2B     		cmp	r3, #63
 755 05dc 04D9     		bls	.L26
 756              		.loc 1 308 5 is_stmt 0 discriminator 1 view .LVU159
 757 05de 4FF49A71 		mov	r1, #308
 758 05e2 0F48     		ldr	r0, .L72
 759 05e4 FFF7FEFF 		bl	assert_failed
 760              	.LVL12:
 761              	.L26:
 309:../STM32Cube_FW_N6/Drivers/STM32N6xx_HAL_Driver/Src/stm32n6xx_hal_dma.c ****     assert_param(IS_DMA_BURST_LENGTH(hdma->Init.DestBurstLength));
 762              		.loc 1 309 5 is_stmt 1 view .LVU160
 763 05e8 A36A     		ldr	r3, [r4, #40]
 764 05ea 013B     		subs	r3, r3, #1
 765 05ec 3F2B     		cmp	r3, #63
ARM GAS  /tmp/ccId6s4B.s 			page 20


 766 05ee 04D9     		bls	.L27
 767              		.loc 1 309 5 is_stmt 0 discriminator 1 view .LVU161
 768 05f0 40F23511 		movw	r1, #309
 769 05f4 0A48     		ldr	r0, .L72
 770 05f6 FFF7FEFF 		bl	assert_failed
 771              	.LVL13:
 772              	.L27:
 310:../STM32Cube_FW_N6/Drivers/STM32N6xx_HAL_Driver/Src/stm32n6xx_hal_dma.c ****     assert_param(IS_DMA_TRANSFER_ALLOCATED_PORT(hdma->Init.TransferAllocatedPort));
 773              		.loc 1 310 5 is_stmt 1 view .LVU162
 774 05fa E36A     		ldr	r3, [r4, #44]
 775 05fc 33F04023 		bics	r3, r3, #1073758208
 776 0600 04D0     		beq	.L25
 777              		.loc 1 310 5 is_stmt 0 discriminator 1 view .LVU163
 778 0602 4FF49B71 		mov	r1, #310
 779 0606 0648     		ldr	r0, .L72
 780 0608 FFF7FEFF 		bl	assert_failed
 781              	.LVL14:
 782              	.L25:
 311:../STM32Cube_FW_N6/Drivers/STM32N6xx_HAL_Driver/Src/stm32n6xx_hal_dma.c ****   }
 312:../STM32Cube_FW_N6/Drivers/STM32N6xx_HAL_Driver/Src/stm32n6xx_hal_dma.c **** 
 313:../STM32Cube_FW_N6/Drivers/STM32N6xx_HAL_Driver/Src/stm32n6xx_hal_dma.c ****   /* Check if the burst length may face DMA AXI limitation */
 314:../STM32Cube_FW_N6/Drivers/STM32N6xx_HAL_Driver/Src/stm32n6xx_hal_dma.c ****   if (IS_HPDMA_INSTANCE(hdma->Instance) != 0U)
 783              		.loc 1 314 3 is_stmt 1 view .LVU164
 784              		.loc 1 314 7 is_stmt 0 view .LVU165
 785 060c 2368     		ldr	r3, [r4]
 786 060e AB42     		cmp	r3, r5
 787 0610 00F09480 		beq	.L29
 788              		.loc 1 314 7 discriminator 2 view .LVU166
 789 0614 044A     		ldr	r2, .L72+8
 790 0616 9342     		cmp	r3, r2
 791 0618 00F09080 		beq	.L29
 792 061c 06E0     		b	.L73
 793              	.L74:
 794 061e 00BF     		.align	2
 795              	.L72:
 796 0620 00000000 		.word	.LC0
 797 0624 50000258 		.word	1476526160
 798 0628 50000248 		.word	1208090704
 799              	.L73:
 800              		.loc 1 314 7 discriminator 4 view .LVU167
 801 062c 02F18052 		add	r2, r2, #268435456
 802 0630 8032     		adds	r2, r2, #128
 803 0632 9342     		cmp	r3, r2
 804 0634 00F08280 		beq	.L29
 805              		.loc 1 314 7 discriminator 6 view .LVU168
 806 0638 02F17042 		add	r2, r2, #-268435456
 807 063c 9342     		cmp	r3, r2
 808 063e 7DD0     		beq	.L29
 809              		.loc 1 314 7 discriminator 8 view .LVU169
 810 0640 02F18052 		add	r2, r2, #268435456
 811 0644 8032     		adds	r2, r2, #128
 812 0646 9342     		cmp	r3, r2
 813 0648 78D0     		beq	.L29
 814              		.loc 1 314 7 discriminator 10 view .LVU170
 815 064a 02F17042 		add	r2, r2, #-268435456
 816 064e 9342     		cmp	r3, r2
 817 0650 74D0     		beq	.L29
ARM GAS  /tmp/ccId6s4B.s 			page 21


 818              		.loc 1 314 7 discriminator 12 view .LVU171
 819 0652 02F18052 		add	r2, r2, #268435456
 820 0656 8032     		adds	r2, r2, #128
 821 0658 9342     		cmp	r3, r2
 822 065a 6FD0     		beq	.L29
 823              		.loc 1 314 7 discriminator 14 view .LVU172
 824 065c 02F17042 		add	r2, r2, #-268435456
 825 0660 9342     		cmp	r3, r2
 826 0662 6BD0     		beq	.L29
 827              		.loc 1 314 7 discriminator 16 view .LVU173
 828 0664 02F18052 		add	r2, r2, #268435456
 829 0668 8032     		adds	r2, r2, #128
 830 066a 9342     		cmp	r3, r2
 831 066c 66D0     		beq	.L29
 832              		.loc 1 314 7 discriminator 18 view .LVU174
 833 066e 02F17042 		add	r2, r2, #-268435456
 834 0672 9342     		cmp	r3, r2
 835 0674 62D0     		beq	.L29
 836              		.loc 1 314 7 discriminator 20 view .LVU175
 837 0676 02F18052 		add	r2, r2, #268435456
 838 067a 8032     		adds	r2, r2, #128
 839 067c 9342     		cmp	r3, r2
 840 067e 5DD0     		beq	.L29
 841              		.loc 1 314 7 discriminator 22 view .LVU176
 842 0680 02F17042 		add	r2, r2, #-268435456
 843 0684 9342     		cmp	r3, r2
 844 0686 59D0     		beq	.L29
 845              		.loc 1 314 7 discriminator 24 view .LVU177
 846 0688 02F18052 		add	r2, r2, #268435456
 847 068c 8032     		adds	r2, r2, #128
 848 068e 9342     		cmp	r3, r2
 849 0690 54D0     		beq	.L29
 850              		.loc 1 314 7 discriminator 26 view .LVU178
 851 0692 02F17042 		add	r2, r2, #-268435456
 852 0696 9342     		cmp	r3, r2
 853 0698 50D0     		beq	.L29
 854              		.loc 1 314 7 discriminator 28 view .LVU179
 855 069a 02F18052 		add	r2, r2, #268435456
 856 069e 8032     		adds	r2, r2, #128
 857 06a0 9342     		cmp	r3, r2
 858 06a2 4BD0     		beq	.L29
 859              		.loc 1 314 7 discriminator 30 view .LVU180
 860 06a4 02F17042 		add	r2, r2, #-268435456
 861 06a8 9342     		cmp	r3, r2
 862 06aa 47D0     		beq	.L29
 863              		.loc 1 314 7 discriminator 32 view .LVU181
 864 06ac 02F18052 		add	r2, r2, #268435456
 865 06b0 8032     		adds	r2, r2, #128
 866 06b2 9342     		cmp	r3, r2
 867 06b4 42D0     		beq	.L29
 868              		.loc 1 314 7 discriminator 34 view .LVU182
 869 06b6 02F17042 		add	r2, r2, #-268435456
 870 06ba 9342     		cmp	r3, r2
 871 06bc 3ED0     		beq	.L29
 872              		.loc 1 314 7 discriminator 36 view .LVU183
 873 06be 02F18052 		add	r2, r2, #268435456
 874 06c2 8032     		adds	r2, r2, #128
ARM GAS  /tmp/ccId6s4B.s 			page 22


 875 06c4 9342     		cmp	r3, r2
 876 06c6 39D0     		beq	.L29
 877              		.loc 1 314 7 discriminator 38 view .LVU184
 878 06c8 02F17042 		add	r2, r2, #-268435456
 879 06cc 9342     		cmp	r3, r2
 880 06ce 35D0     		beq	.L29
 881              		.loc 1 314 7 discriminator 40 view .LVU185
 882 06d0 02F18052 		add	r2, r2, #268435456
 883 06d4 8032     		adds	r2, r2, #128
 884 06d6 9342     		cmp	r3, r2
 885 06d8 30D0     		beq	.L29
 886              		.loc 1 314 7 discriminator 42 view .LVU186
 887 06da 02F17042 		add	r2, r2, #-268435456
 888 06de 9342     		cmp	r3, r2
 889 06e0 2CD0     		beq	.L29
 890              		.loc 1 314 7 discriminator 44 view .LVU187
 891 06e2 02F18052 		add	r2, r2, #268435456
 892 06e6 8032     		adds	r2, r2, #128
 893 06e8 9342     		cmp	r3, r2
 894 06ea 27D0     		beq	.L29
 895              		.loc 1 314 7 discriminator 46 view .LVU188
 896 06ec 02F17042 		add	r2, r2, #-268435456
 897 06f0 9342     		cmp	r3, r2
 898 06f2 23D0     		beq	.L29
 899              		.loc 1 314 7 discriminator 48 view .LVU189
 900 06f4 02F18052 		add	r2, r2, #268435456
 901 06f8 8032     		adds	r2, r2, #128
 902 06fa 9342     		cmp	r3, r2
 903 06fc 1ED0     		beq	.L29
 904              		.loc 1 314 7 discriminator 50 view .LVU190
 905 06fe 02F17042 		add	r2, r2, #-268435456
 906 0702 9342     		cmp	r3, r2
 907 0704 1AD0     		beq	.L29
 908              		.loc 1 314 7 discriminator 52 view .LVU191
 909 0706 02F18052 		add	r2, r2, #268435456
 910 070a 8032     		adds	r2, r2, #128
 911 070c 9342     		cmp	r3, r2
 912 070e 15D0     		beq	.L29
 913              		.loc 1 314 7 discriminator 54 view .LVU192
 914 0710 02F17042 		add	r2, r2, #-268435456
 915 0714 9342     		cmp	r3, r2
 916 0716 11D0     		beq	.L29
 917              		.loc 1 314 7 discriminator 56 view .LVU193
 918 0718 02F18052 		add	r2, r2, #268435456
 919 071c 8032     		adds	r2, r2, #128
 920 071e 9342     		cmp	r3, r2
 921 0720 0CD0     		beq	.L29
 922              		.loc 1 314 7 discriminator 58 view .LVU194
 923 0722 02F17042 		add	r2, r2, #-268435456
 924 0726 9342     		cmp	r3, r2
 925 0728 08D0     		beq	.L29
 926              		.loc 1 314 7 discriminator 60 view .LVU195
 927 072a 02F18052 		add	r2, r2, #268435456
 928 072e 8032     		adds	r2, r2, #128
 929 0730 9342     		cmp	r3, r2
 930 0732 03D0     		beq	.L29
 931              		.loc 1 314 7 discriminator 62 view .LVU196
ARM GAS  /tmp/ccId6s4B.s 			page 23


 932 0734 02F17042 		add	r2, r2, #-268435456
 933 0738 9342     		cmp	r3, r2
 934 073a 0CD1     		bne	.L30
 935              	.L29:
 315:../STM32Cube_FW_N6/Drivers/STM32N6xx_HAL_Driver/Src/stm32n6xx_hal_dma.c ****   {
 316:../STM32Cube_FW_N6/Drivers/STM32N6xx_HAL_Driver/Src/stm32n6xx_hal_dma.c ****     if (((hdma->Init.TransferAllocatedPort & DMA_CTR1_SAP) == DMA_SRC_ALLOCATED_PORT0) &&
 936              		.loc 1 316 5 is_stmt 1 view .LVU197
 937              		.loc 1 316 21 is_stmt 0 view .LVU198
 938 073c E26A     		ldr	r2, [r4, #44]
 939              		.loc 1 316 8 view .LVU199
 940 073e 5004     		lsls	r0, r2, #17
 941 0740 03D4     		bmi	.L31
 942              		.loc 1 316 88 discriminator 1 view .LVU200
 943 0742 616A     		ldr	r1, [r4, #36]
 944 0744 1029     		cmp	r1, #16
 945 0746 00F2A583 		bhi	.L3
 946              	.L31:
 317:../STM32Cube_FW_N6/Drivers/STM32N6xx_HAL_Driver/Src/stm32n6xx_hal_dma.c ****         (hdma->Init.SrcBurstLength > 16U))
 318:../STM32Cube_FW_N6/Drivers/STM32N6xx_HAL_Driver/Src/stm32n6xx_hal_dma.c ****     {
 319:../STM32Cube_FW_N6/Drivers/STM32N6xx_HAL_Driver/Src/stm32n6xx_hal_dma.c ****       return HAL_ERROR;
 320:../STM32Cube_FW_N6/Drivers/STM32N6xx_HAL_Driver/Src/stm32n6xx_hal_dma.c ****     }
 321:../STM32Cube_FW_N6/Drivers/STM32N6xx_HAL_Driver/Src/stm32n6xx_hal_dma.c ****     if (((hdma->Init.TransferAllocatedPort & DMA_CTR1_DAP) == DMA_DEST_ALLOCATED_PORT0) &&
 947              		.loc 1 321 5 is_stmt 1 view .LVU201
 948              		.loc 1 321 8 is_stmt 0 view .LVU202
 949 074a 5100     		lsls	r1, r2, #1
 950 074c 03D4     		bmi	.L30
 951              		.loc 1 321 89 discriminator 1 view .LVU203
 952 074e A26A     		ldr	r2, [r4, #40]
 953 0750 102A     		cmp	r2, #16
 954 0752 00F29F83 		bhi	.L3
 955              	.L30:
 322:../STM32Cube_FW_N6/Drivers/STM32N6xx_HAL_Driver/Src/stm32n6xx_hal_dma.c ****         (hdma->Init.DestBurstLength > 16U))
 323:../STM32Cube_FW_N6/Drivers/STM32N6xx_HAL_Driver/Src/stm32n6xx_hal_dma.c ****     {
 324:../STM32Cube_FW_N6/Drivers/STM32N6xx_HAL_Driver/Src/stm32n6xx_hal_dma.c ****       return HAL_ERROR;
 325:../STM32Cube_FW_N6/Drivers/STM32N6xx_HAL_Driver/Src/stm32n6xx_hal_dma.c ****     }
 326:../STM32Cube_FW_N6/Drivers/STM32N6xx_HAL_Driver/Src/stm32n6xx_hal_dma.c ****   }
 327:../STM32Cube_FW_N6/Drivers/STM32N6xx_HAL_Driver/Src/stm32n6xx_hal_dma.c **** 
 328:../STM32Cube_FW_N6/Drivers/STM32N6xx_HAL_Driver/Src/stm32n6xx_hal_dma.c ****   /* Allocate lock resource */
 329:../STM32Cube_FW_N6/Drivers/STM32N6xx_HAL_Driver/Src/stm32n6xx_hal_dma.c ****   __HAL_UNLOCK(hdma);
 956              		.loc 1 329 3 is_stmt 1 view .LVU204
 957              		.loc 1 329 3 view .LVU205
 958 0756 0022     		movs	r2, #0
 330:../STM32Cube_FW_N6/Drivers/STM32N6xx_HAL_Driver/Src/stm32n6xx_hal_dma.c **** 
 331:../STM32Cube_FW_N6/Drivers/STM32N6xx_HAL_Driver/Src/stm32n6xx_hal_dma.c ****   /* Initialize the callbacks */
 332:../STM32Cube_FW_N6/Drivers/STM32N6xx_HAL_Driver/Src/stm32n6xx_hal_dma.c ****   if (hdma->State == HAL_DMA_STATE_RESET)
 959              		.loc 1 332 11 is_stmt 0 view .LVU206
 960 0758 94F85410 		ldrb	r1, [r4, #84]	@ zero_extendqisi2
 329:../STM32Cube_FW_N6/Drivers/STM32N6xx_HAL_Driver/Src/stm32n6xx_hal_dma.c **** 
 961              		.loc 1 329 3 view .LVU207
 962 075c 84F84C20 		strb	r2, [r4, #76]
 329:../STM32Cube_FW_N6/Drivers/STM32N6xx_HAL_Driver/Src/stm32n6xx_hal_dma.c **** 
 963              		.loc 1 329 3 is_stmt 1 view .LVU208
 964              		.loc 1 332 3 view .LVU209
 965              		.loc 1 332 6 is_stmt 0 view .LVU210
 966 0760 01F0FF02 		and	r2, r1, #255
 967 0764 21B9     		cbnz	r1, .L33
 333:../STM32Cube_FW_N6/Drivers/STM32N6xx_HAL_Driver/Src/stm32n6xx_hal_dma.c ****   {
ARM GAS  /tmp/ccId6s4B.s 			page 24


 334:../STM32Cube_FW_N6/Drivers/STM32N6xx_HAL_Driver/Src/stm32n6xx_hal_dma.c ****     /* Clean all callbacks */
 335:../STM32Cube_FW_N6/Drivers/STM32N6xx_HAL_Driver/Src/stm32n6xx_hal_dma.c ****     hdma->XferCpltCallback     = NULL;
 968              		.loc 1 335 5 is_stmt 1 view .LVU211
 336:../STM32Cube_FW_N6/Drivers/STM32N6xx_HAL_Driver/Src/stm32n6xx_hal_dma.c ****     hdma->XferHalfCpltCallback = NULL;
 969              		.loc 1 336 32 is_stmt 0 view .LVU212
 970 0766 C4E91822 		strd	r2, r2, [r4, #96]
 337:../STM32Cube_FW_N6/Drivers/STM32N6xx_HAL_Driver/Src/stm32n6xx_hal_dma.c ****     hdma->XferErrorCallback    = NULL;
 971              		.loc 1 337 5 is_stmt 1 view .LVU213
 338:../STM32Cube_FW_N6/Drivers/STM32N6xx_HAL_Driver/Src/stm32n6xx_hal_dma.c ****     hdma->XferAbortCallback    = NULL;
 972              		.loc 1 338 32 is_stmt 0 view .LVU214
 973 076a C4E91A22 		strd	r2, r2, [r4, #104]
 339:../STM32Cube_FW_N6/Drivers/STM32N6xx_HAL_Driver/Src/stm32n6xx_hal_dma.c ****     hdma->XferSuspendCallback  = NULL;
 974              		.loc 1 339 5 is_stmt 1 view .LVU215
 975              		.loc 1 339 32 is_stmt 0 view .LVU216
 976 076e 2267     		str	r2, [r4, #112]
 977              	.L33:
 340:../STM32Cube_FW_N6/Drivers/STM32N6xx_HAL_Driver/Src/stm32n6xx_hal_dma.c ****   }
 341:../STM32Cube_FW_N6/Drivers/STM32N6xx_HAL_Driver/Src/stm32n6xx_hal_dma.c **** 
 342:../STM32Cube_FW_N6/Drivers/STM32N6xx_HAL_Driver/Src/stm32n6xx_hal_dma.c ****   /* Update the DMA channel state */
 343:../STM32Cube_FW_N6/Drivers/STM32N6xx_HAL_Driver/Src/stm32n6xx_hal_dma.c ****   hdma->State = HAL_DMA_STATE_BUSY;
 978              		.loc 1 343 3 is_stmt 1 view .LVU217
 979              		.loc 1 343 15 is_stmt 0 view .LVU218
 980 0770 0222     		movs	r2, #2
 981 0772 84F85420 		strb	r2, [r4, #84]
 344:../STM32Cube_FW_N6/Drivers/STM32N6xx_HAL_Driver/Src/stm32n6xx_hal_dma.c **** 
 345:../STM32Cube_FW_N6/Drivers/STM32N6xx_HAL_Driver/Src/stm32n6xx_hal_dma.c ****   /* Disable the DMA channel */
 346:../STM32Cube_FW_N6/Drivers/STM32N6xx_HAL_Driver/Src/stm32n6xx_hal_dma.c ****   __HAL_DMA_DISABLE(hdma);
 982              		.loc 1 346 3 is_stmt 1 view .LVU219
 983 0776 5A69     		ldr	r2, [r3, #20]
 984 0778 42F00602 		orr	r2, r2, #6
 985 077c 5A61     		str	r2, [r3, #20]
 347:../STM32Cube_FW_N6/Drivers/STM32N6xx_HAL_Driver/Src/stm32n6xx_hal_dma.c **** 
 348:../STM32Cube_FW_N6/Drivers/STM32N6xx_HAL_Driver/Src/stm32n6xx_hal_dma.c ****   /* Check if the DMA channel is effectively disabled */
 349:../STM32Cube_FW_N6/Drivers/STM32N6xx_HAL_Driver/Src/stm32n6xx_hal_dma.c ****   while ((hdma->Instance->CCR & DMA_CCR_EN) != 0U)
 986              		.loc 1 349 3 view .LVU220
 987              	.L34:
 988              		.loc 1 349 45 view .LVU221
 989              		.loc 1 349 15 is_stmt 0 view .LVU222
 990 077e 2368     		ldr	r3, [r4]
 991              		.loc 1 349 25 view .LVU223
 992 0780 5A69     		ldr	r2, [r3, #20]
 993              		.loc 1 349 45 view .LVU224
 994 0782 D207     		lsls	r2, r2, #31
 995 0784 00F17B83 		bmi	.L36
 350:../STM32Cube_FW_N6/Drivers/STM32N6xx_HAL_Driver/Src/stm32n6xx_hal_dma.c ****   {
 351:../STM32Cube_FW_N6/Drivers/STM32N6xx_HAL_Driver/Src/stm32n6xx_hal_dma.c ****     /* Check for the Timeout */
 352:../STM32Cube_FW_N6/Drivers/STM32N6xx_HAL_Driver/Src/stm32n6xx_hal_dma.c ****     if ((HAL_GetTick() - tickstart) > HAL_TIMEOUT_DMA_ABORT)
 353:../STM32Cube_FW_N6/Drivers/STM32N6xx_HAL_Driver/Src/stm32n6xx_hal_dma.c ****     {
 354:../STM32Cube_FW_N6/Drivers/STM32N6xx_HAL_Driver/Src/stm32n6xx_hal_dma.c ****       /* Update the DMA channel error code */
 355:../STM32Cube_FW_N6/Drivers/STM32N6xx_HAL_Driver/Src/stm32n6xx_hal_dma.c ****       hdma->ErrorCode = HAL_DMA_ERROR_TIMEOUT;
 356:../STM32Cube_FW_N6/Drivers/STM32N6xx_HAL_Driver/Src/stm32n6xx_hal_dma.c **** 
 357:../STM32Cube_FW_N6/Drivers/STM32N6xx_HAL_Driver/Src/stm32n6xx_hal_dma.c ****       /* Update the DMA channel state */
 358:../STM32Cube_FW_N6/Drivers/STM32N6xx_HAL_Driver/Src/stm32n6xx_hal_dma.c ****       hdma->State = HAL_DMA_STATE_ERROR;
 359:../STM32Cube_FW_N6/Drivers/STM32N6xx_HAL_Driver/Src/stm32n6xx_hal_dma.c **** 
 360:../STM32Cube_FW_N6/Drivers/STM32N6xx_HAL_Driver/Src/stm32n6xx_hal_dma.c ****       return HAL_ERROR;
 361:../STM32Cube_FW_N6/Drivers/STM32N6xx_HAL_Driver/Src/stm32n6xx_hal_dma.c ****     }
 362:../STM32Cube_FW_N6/Drivers/STM32N6xx_HAL_Driver/Src/stm32n6xx_hal_dma.c ****   }
ARM GAS  /tmp/ccId6s4B.s 			page 25


 363:../STM32Cube_FW_N6/Drivers/STM32N6xx_HAL_Driver/Src/stm32n6xx_hal_dma.c **** 
 364:../STM32Cube_FW_N6/Drivers/STM32N6xx_HAL_Driver/Src/stm32n6xx_hal_dma.c ****   /* Initialize the DMA channel registers */
 365:../STM32Cube_FW_N6/Drivers/STM32N6xx_HAL_Driver/Src/stm32n6xx_hal_dma.c ****   DMA_Init(hdma);
 996              		.loc 1 365 3 is_stmt 1 view .LVU225
 997              	.LVL15:
 998              	.LBB4:
 999              	.LBI4:
 366:../STM32Cube_FW_N6/Drivers/STM32N6xx_HAL_Driver/Src/stm32n6xx_hal_dma.c **** 
 367:../STM32Cube_FW_N6/Drivers/STM32N6xx_HAL_Driver/Src/stm32n6xx_hal_dma.c ****   /* Update DMA channel operation mode */
 368:../STM32Cube_FW_N6/Drivers/STM32N6xx_HAL_Driver/Src/stm32n6xx_hal_dma.c ****   hdma->Mode = hdma->Init.Mode;
 369:../STM32Cube_FW_N6/Drivers/STM32N6xx_HAL_Driver/Src/stm32n6xx_hal_dma.c **** 
 370:../STM32Cube_FW_N6/Drivers/STM32N6xx_HAL_Driver/Src/stm32n6xx_hal_dma.c ****   /* Update the DMA channel error code */
 371:../STM32Cube_FW_N6/Drivers/STM32N6xx_HAL_Driver/Src/stm32n6xx_hal_dma.c ****   hdma->ErrorCode = HAL_DMA_ERROR_NONE;
 372:../STM32Cube_FW_N6/Drivers/STM32N6xx_HAL_Driver/Src/stm32n6xx_hal_dma.c **** 
 373:../STM32Cube_FW_N6/Drivers/STM32N6xx_HAL_Driver/Src/stm32n6xx_hal_dma.c ****   /* Update the DMA channel state */
 374:../STM32Cube_FW_N6/Drivers/STM32N6xx_HAL_Driver/Src/stm32n6xx_hal_dma.c ****   hdma->State = HAL_DMA_STATE_READY;
 375:../STM32Cube_FW_N6/Drivers/STM32N6xx_HAL_Driver/Src/stm32n6xx_hal_dma.c **** 
 376:../STM32Cube_FW_N6/Drivers/STM32N6xx_HAL_Driver/Src/stm32n6xx_hal_dma.c ****   return HAL_OK;
 377:../STM32Cube_FW_N6/Drivers/STM32N6xx_HAL_Driver/Src/stm32n6xx_hal_dma.c **** }
 378:../STM32Cube_FW_N6/Drivers/STM32N6xx_HAL_Driver/Src/stm32n6xx_hal_dma.c **** 
 379:../STM32Cube_FW_N6/Drivers/STM32N6xx_HAL_Driver/Src/stm32n6xx_hal_dma.c **** /**
 380:../STM32Cube_FW_N6/Drivers/STM32N6xx_HAL_Driver/Src/stm32n6xx_hal_dma.c ****   * @brief  DeInitialize the DMA channel when it is configured in normal mode.
 381:../STM32Cube_FW_N6/Drivers/STM32N6xx_HAL_Driver/Src/stm32n6xx_hal_dma.c ****   * @param  hdma : Pointer to a DMA_HandleTypeDef structure that contains the configuration informa
 382:../STM32Cube_FW_N6/Drivers/STM32N6xx_HAL_Driver/Src/stm32n6xx_hal_dma.c ****   *                specified DMA Channel.
 383:../STM32Cube_FW_N6/Drivers/STM32N6xx_HAL_Driver/Src/stm32n6xx_hal_dma.c ****   * @retval HAL status.
 384:../STM32Cube_FW_N6/Drivers/STM32N6xx_HAL_Driver/Src/stm32n6xx_hal_dma.c ****   */
 385:../STM32Cube_FW_N6/Drivers/STM32N6xx_HAL_Driver/Src/stm32n6xx_hal_dma.c **** HAL_StatusTypeDef HAL_DMA_DeInit(DMA_HandleTypeDef *const hdma)
 386:../STM32Cube_FW_N6/Drivers/STM32N6xx_HAL_Driver/Src/stm32n6xx_hal_dma.c **** {
 387:../STM32Cube_FW_N6/Drivers/STM32N6xx_HAL_Driver/Src/stm32n6xx_hal_dma.c ****   uint32_t tickstart = HAL_GetTick();
 388:../STM32Cube_FW_N6/Drivers/STM32N6xx_HAL_Driver/Src/stm32n6xx_hal_dma.c **** 
 389:../STM32Cube_FW_N6/Drivers/STM32N6xx_HAL_Driver/Src/stm32n6xx_hal_dma.c ****   /* Check the DMA peripheral handle parameter */
 390:../STM32Cube_FW_N6/Drivers/STM32N6xx_HAL_Driver/Src/stm32n6xx_hal_dma.c ****   if (hdma == NULL)
 391:../STM32Cube_FW_N6/Drivers/STM32N6xx_HAL_Driver/Src/stm32n6xx_hal_dma.c ****   {
 392:../STM32Cube_FW_N6/Drivers/STM32N6xx_HAL_Driver/Src/stm32n6xx_hal_dma.c ****     return HAL_ERROR;
 393:../STM32Cube_FW_N6/Drivers/STM32N6xx_HAL_Driver/Src/stm32n6xx_hal_dma.c ****   }
 394:../STM32Cube_FW_N6/Drivers/STM32N6xx_HAL_Driver/Src/stm32n6xx_hal_dma.c **** 
 395:../STM32Cube_FW_N6/Drivers/STM32N6xx_HAL_Driver/Src/stm32n6xx_hal_dma.c ****   /* Check the parameters */
 396:../STM32Cube_FW_N6/Drivers/STM32N6xx_HAL_Driver/Src/stm32n6xx_hal_dma.c ****   assert_param(IS_DMA_ALL_INSTANCE(hdma->Instance));
 397:../STM32Cube_FW_N6/Drivers/STM32N6xx_HAL_Driver/Src/stm32n6xx_hal_dma.c ****   /* Disable the selected DMA Channel */
 398:../STM32Cube_FW_N6/Drivers/STM32N6xx_HAL_Driver/Src/stm32n6xx_hal_dma.c ****   __HAL_DMA_DISABLE(hdma);
 399:../STM32Cube_FW_N6/Drivers/STM32N6xx_HAL_Driver/Src/stm32n6xx_hal_dma.c **** 
 400:../STM32Cube_FW_N6/Drivers/STM32N6xx_HAL_Driver/Src/stm32n6xx_hal_dma.c ****   /* Check if the DMA channel is effectively disabled */
 401:../STM32Cube_FW_N6/Drivers/STM32N6xx_HAL_Driver/Src/stm32n6xx_hal_dma.c ****   while ((hdma->Instance->CCR & DMA_CCR_EN) != 0U)
 402:../STM32Cube_FW_N6/Drivers/STM32N6xx_HAL_Driver/Src/stm32n6xx_hal_dma.c ****   {
 403:../STM32Cube_FW_N6/Drivers/STM32N6xx_HAL_Driver/Src/stm32n6xx_hal_dma.c ****     /* Check for the Timeout */
 404:../STM32Cube_FW_N6/Drivers/STM32N6xx_HAL_Driver/Src/stm32n6xx_hal_dma.c ****     if ((HAL_GetTick() - tickstart) > HAL_TIMEOUT_DMA_ABORT)
 405:../STM32Cube_FW_N6/Drivers/STM32N6xx_HAL_Driver/Src/stm32n6xx_hal_dma.c ****     {
 406:../STM32Cube_FW_N6/Drivers/STM32N6xx_HAL_Driver/Src/stm32n6xx_hal_dma.c ****       /* Update the DMA channel error code */
 407:../STM32Cube_FW_N6/Drivers/STM32N6xx_HAL_Driver/Src/stm32n6xx_hal_dma.c ****       hdma->ErrorCode = HAL_DMA_ERROR_TIMEOUT;
 408:../STM32Cube_FW_N6/Drivers/STM32N6xx_HAL_Driver/Src/stm32n6xx_hal_dma.c **** 
 409:../STM32Cube_FW_N6/Drivers/STM32N6xx_HAL_Driver/Src/stm32n6xx_hal_dma.c ****       /* Update the DMA channel state */
 410:../STM32Cube_FW_N6/Drivers/STM32N6xx_HAL_Driver/Src/stm32n6xx_hal_dma.c ****       hdma->State = HAL_DMA_STATE_ERROR;
 411:../STM32Cube_FW_N6/Drivers/STM32N6xx_HAL_Driver/Src/stm32n6xx_hal_dma.c **** 
 412:../STM32Cube_FW_N6/Drivers/STM32N6xx_HAL_Driver/Src/stm32n6xx_hal_dma.c ****       return HAL_ERROR;
 413:../STM32Cube_FW_N6/Drivers/STM32N6xx_HAL_Driver/Src/stm32n6xx_hal_dma.c ****     }
 414:../STM32Cube_FW_N6/Drivers/STM32N6xx_HAL_Driver/Src/stm32n6xx_hal_dma.c ****   }
 415:../STM32Cube_FW_N6/Drivers/STM32N6xx_HAL_Driver/Src/stm32n6xx_hal_dma.c **** 
ARM GAS  /tmp/ccId6s4B.s 			page 26


 416:../STM32Cube_FW_N6/Drivers/STM32N6xx_HAL_Driver/Src/stm32n6xx_hal_dma.c ****   /* Reset DMA Channel registers */
 417:../STM32Cube_FW_N6/Drivers/STM32N6xx_HAL_Driver/Src/stm32n6xx_hal_dma.c ****   hdma->Instance->CLBAR = 0U;
 418:../STM32Cube_FW_N6/Drivers/STM32N6xx_HAL_Driver/Src/stm32n6xx_hal_dma.c ****   hdma->Instance->CCR   = 0U;
 419:../STM32Cube_FW_N6/Drivers/STM32N6xx_HAL_Driver/Src/stm32n6xx_hal_dma.c ****   /* As secure, privilege and CID configuration, bit field DSEC and SSEC are managed in   */
 420:../STM32Cube_FW_N6/Drivers/STM32N6xx_HAL_Driver/Src/stm32n6xx_hal_dma.c ****   /* HAL_DMA_ConfigChannelAttributes function, so it mustn't be cleaned in HAL_DMA_DeInit */
 421:../STM32Cube_FW_N6/Drivers/STM32N6xx_HAL_Driver/Src/stm32n6xx_hal_dma.c ****   hdma->Instance->CTR1  = hdma->Instance->CTR1 & (0U | DMA_CTR1_DSEC | DMA_CTR1_SSEC);
 422:../STM32Cube_FW_N6/Drivers/STM32N6xx_HAL_Driver/Src/stm32n6xx_hal_dma.c ****   hdma->Instance->CTR2  = 0U;
 423:../STM32Cube_FW_N6/Drivers/STM32N6xx_HAL_Driver/Src/stm32n6xx_hal_dma.c ****   hdma->Instance->CBR1  = 0U;
 424:../STM32Cube_FW_N6/Drivers/STM32N6xx_HAL_Driver/Src/stm32n6xx_hal_dma.c ****   hdma->Instance->CSAR  = 0U;
 425:../STM32Cube_FW_N6/Drivers/STM32N6xx_HAL_Driver/Src/stm32n6xx_hal_dma.c ****   hdma->Instance->CDAR  = 0U;
 426:../STM32Cube_FW_N6/Drivers/STM32N6xx_HAL_Driver/Src/stm32n6xx_hal_dma.c ****   hdma->Instance->CLLR  = 0U;
 427:../STM32Cube_FW_N6/Drivers/STM32N6xx_HAL_Driver/Src/stm32n6xx_hal_dma.c **** 
 428:../STM32Cube_FW_N6/Drivers/STM32N6xx_HAL_Driver/Src/stm32n6xx_hal_dma.c ****   /* Reset 2D Addressing registers */
 429:../STM32Cube_FW_N6/Drivers/STM32N6xx_HAL_Driver/Src/stm32n6xx_hal_dma.c ****   if (IS_DMA_2D_ADDRESSING_INSTANCE(hdma->Instance) != 0U)
 430:../STM32Cube_FW_N6/Drivers/STM32N6xx_HAL_Driver/Src/stm32n6xx_hal_dma.c ****   {
 431:../STM32Cube_FW_N6/Drivers/STM32N6xx_HAL_Driver/Src/stm32n6xx_hal_dma.c ****     hdma->Instance->CTR3 = 0U;
 432:../STM32Cube_FW_N6/Drivers/STM32N6xx_HAL_Driver/Src/stm32n6xx_hal_dma.c ****     hdma->Instance->CBR2 = 0U;
 433:../STM32Cube_FW_N6/Drivers/STM32N6xx_HAL_Driver/Src/stm32n6xx_hal_dma.c ****   }
 434:../STM32Cube_FW_N6/Drivers/STM32N6xx_HAL_Driver/Src/stm32n6xx_hal_dma.c **** 
 435:../STM32Cube_FW_N6/Drivers/STM32N6xx_HAL_Driver/Src/stm32n6xx_hal_dma.c ****   /* Clear all flags */
 436:../STM32Cube_FW_N6/Drivers/STM32N6xx_HAL_Driver/Src/stm32n6xx_hal_dma.c ****   __HAL_DMA_CLEAR_FLAG(hdma, (DMA_FLAG_TC | DMA_FLAG_HT | DMA_FLAG_DTE | DMA_FLAG_ULE | DMA_FLAG_US
 437:../STM32Cube_FW_N6/Drivers/STM32N6xx_HAL_Driver/Src/stm32n6xx_hal_dma.c ****                               DMA_FLAG_TO));
 438:../STM32Cube_FW_N6/Drivers/STM32N6xx_HAL_Driver/Src/stm32n6xx_hal_dma.c **** 
 439:../STM32Cube_FW_N6/Drivers/STM32N6xx_HAL_Driver/Src/stm32n6xx_hal_dma.c ****   /* Clean all callbacks */
 440:../STM32Cube_FW_N6/Drivers/STM32N6xx_HAL_Driver/Src/stm32n6xx_hal_dma.c ****   hdma->XferCpltCallback     = NULL;
 441:../STM32Cube_FW_N6/Drivers/STM32N6xx_HAL_Driver/Src/stm32n6xx_hal_dma.c ****   hdma->XferHalfCpltCallback = NULL;
 442:../STM32Cube_FW_N6/Drivers/STM32N6xx_HAL_Driver/Src/stm32n6xx_hal_dma.c ****   hdma->XferErrorCallback    = NULL;
 443:../STM32Cube_FW_N6/Drivers/STM32N6xx_HAL_Driver/Src/stm32n6xx_hal_dma.c ****   hdma->XferAbortCallback    = NULL;
 444:../STM32Cube_FW_N6/Drivers/STM32N6xx_HAL_Driver/Src/stm32n6xx_hal_dma.c ****   hdma->XferSuspendCallback  = NULL;
 445:../STM32Cube_FW_N6/Drivers/STM32N6xx_HAL_Driver/Src/stm32n6xx_hal_dma.c **** 
 446:../STM32Cube_FW_N6/Drivers/STM32N6xx_HAL_Driver/Src/stm32n6xx_hal_dma.c ****   /* Clean DMA queue */
 447:../STM32Cube_FW_N6/Drivers/STM32N6xx_HAL_Driver/Src/stm32n6xx_hal_dma.c ****   hdma->LinkedListQueue = NULL;
 448:../STM32Cube_FW_N6/Drivers/STM32N6xx_HAL_Driver/Src/stm32n6xx_hal_dma.c **** 
 449:../STM32Cube_FW_N6/Drivers/STM32N6xx_HAL_Driver/Src/stm32n6xx_hal_dma.c ****   /* Clean DMA parent */
 450:../STM32Cube_FW_N6/Drivers/STM32N6xx_HAL_Driver/Src/stm32n6xx_hal_dma.c ****   if (hdma->Parent != NULL)
 451:../STM32Cube_FW_N6/Drivers/STM32N6xx_HAL_Driver/Src/stm32n6xx_hal_dma.c ****   {
 452:../STM32Cube_FW_N6/Drivers/STM32N6xx_HAL_Driver/Src/stm32n6xx_hal_dma.c ****     hdma->Parent = NULL;
 453:../STM32Cube_FW_N6/Drivers/STM32N6xx_HAL_Driver/Src/stm32n6xx_hal_dma.c ****   }
 454:../STM32Cube_FW_N6/Drivers/STM32N6xx_HAL_Driver/Src/stm32n6xx_hal_dma.c **** 
 455:../STM32Cube_FW_N6/Drivers/STM32N6xx_HAL_Driver/Src/stm32n6xx_hal_dma.c ****   /* Update DMA channel operation mode */
 456:../STM32Cube_FW_N6/Drivers/STM32N6xx_HAL_Driver/Src/stm32n6xx_hal_dma.c ****   hdma->Mode = DMA_NORMAL;
 457:../STM32Cube_FW_N6/Drivers/STM32N6xx_HAL_Driver/Src/stm32n6xx_hal_dma.c **** 
 458:../STM32Cube_FW_N6/Drivers/STM32N6xx_HAL_Driver/Src/stm32n6xx_hal_dma.c ****   /* Update the DMA channel error code */
 459:../STM32Cube_FW_N6/Drivers/STM32N6xx_HAL_Driver/Src/stm32n6xx_hal_dma.c ****   hdma->ErrorCode = HAL_DMA_ERROR_NONE;
 460:../STM32Cube_FW_N6/Drivers/STM32N6xx_HAL_Driver/Src/stm32n6xx_hal_dma.c **** 
 461:../STM32Cube_FW_N6/Drivers/STM32N6xx_HAL_Driver/Src/stm32n6xx_hal_dma.c ****   /* Update the DMA channel state */
 462:../STM32Cube_FW_N6/Drivers/STM32N6xx_HAL_Driver/Src/stm32n6xx_hal_dma.c ****   hdma->State = HAL_DMA_STATE_RESET;
 463:../STM32Cube_FW_N6/Drivers/STM32N6xx_HAL_Driver/Src/stm32n6xx_hal_dma.c **** 
 464:../STM32Cube_FW_N6/Drivers/STM32N6xx_HAL_Driver/Src/stm32n6xx_hal_dma.c ****   /* Release Lock */
 465:../STM32Cube_FW_N6/Drivers/STM32N6xx_HAL_Driver/Src/stm32n6xx_hal_dma.c ****   __HAL_UNLOCK(hdma);
 466:../STM32Cube_FW_N6/Drivers/STM32N6xx_HAL_Driver/Src/stm32n6xx_hal_dma.c **** 
 467:../STM32Cube_FW_N6/Drivers/STM32N6xx_HAL_Driver/Src/stm32n6xx_hal_dma.c ****   return HAL_OK;
 468:../STM32Cube_FW_N6/Drivers/STM32N6xx_HAL_Driver/Src/stm32n6xx_hal_dma.c **** }
 469:../STM32Cube_FW_N6/Drivers/STM32N6xx_HAL_Driver/Src/stm32n6xx_hal_dma.c **** /**
 470:../STM32Cube_FW_N6/Drivers/STM32N6xx_HAL_Driver/Src/stm32n6xx_hal_dma.c ****   * @}
 471:../STM32Cube_FW_N6/Drivers/STM32N6xx_HAL_Driver/Src/stm32n6xx_hal_dma.c ****   */
 472:../STM32Cube_FW_N6/Drivers/STM32N6xx_HAL_Driver/Src/stm32n6xx_hal_dma.c **** 
ARM GAS  /tmp/ccId6s4B.s 			page 27


 473:../STM32Cube_FW_N6/Drivers/STM32N6xx_HAL_Driver/Src/stm32n6xx_hal_dma.c **** /** @addtogroup DMA_Exported_Functions_Group2
 474:../STM32Cube_FW_N6/Drivers/STM32N6xx_HAL_Driver/Src/stm32n6xx_hal_dma.c ****   *
 475:../STM32Cube_FW_N6/Drivers/STM32N6xx_HAL_Driver/Src/stm32n6xx_hal_dma.c **** @verbatim
 476:../STM32Cube_FW_N6/Drivers/STM32N6xx_HAL_Driver/Src/stm32n6xx_hal_dma.c ****   =================================================================================================
 477:../STM32Cube_FW_N6/Drivers/STM32N6xx_HAL_Driver/Src/stm32n6xx_hal_dma.c ****                                 ##### IO operation functions #####
 478:../STM32Cube_FW_N6/Drivers/STM32N6xx_HAL_Driver/Src/stm32n6xx_hal_dma.c ****   =================================================================================================
 479:../STM32Cube_FW_N6/Drivers/STM32N6xx_HAL_Driver/Src/stm32n6xx_hal_dma.c ****     [..]
 480:../STM32Cube_FW_N6/Drivers/STM32N6xx_HAL_Driver/Src/stm32n6xx_hal_dma.c ****       This section provides functions allowing to :
 481:../STM32Cube_FW_N6/Drivers/STM32N6xx_HAL_Driver/Src/stm32n6xx_hal_dma.c ****       (+) Configure the source, destination address and data size and Start DMA transfer in normal 
 482:../STM32Cube_FW_N6/Drivers/STM32N6xx_HAL_Driver/Src/stm32n6xx_hal_dma.c ****       (+) Abort DMA transfer
 483:../STM32Cube_FW_N6/Drivers/STM32N6xx_HAL_Driver/Src/stm32n6xx_hal_dma.c ****       (+) Poll for transfer complete
 484:../STM32Cube_FW_N6/Drivers/STM32N6xx_HAL_Driver/Src/stm32n6xx_hal_dma.c ****       (+) Handle DMA interrupt request
 485:../STM32Cube_FW_N6/Drivers/STM32N6xx_HAL_Driver/Src/stm32n6xx_hal_dma.c ****       (+) Register and Unregister DMA callbacks
 486:../STM32Cube_FW_N6/Drivers/STM32N6xx_HAL_Driver/Src/stm32n6xx_hal_dma.c **** 
 487:../STM32Cube_FW_N6/Drivers/STM32N6xx_HAL_Driver/Src/stm32n6xx_hal_dma.c ****     [..]
 488:../STM32Cube_FW_N6/Drivers/STM32N6xx_HAL_Driver/Src/stm32n6xx_hal_dma.c ****       (+) The HAL_DMA_Start() function allows to start the DMA channel transfer in normal mode (Blo
 489:../STM32Cube_FW_N6/Drivers/STM32N6xx_HAL_Driver/Src/stm32n6xx_hal_dma.c ****       (+) The HAL_DMA_Start_IT() function allows to start the DMA channel transfer in normal mode (
 490:../STM32Cube_FW_N6/Drivers/STM32N6xx_HAL_Driver/Src/stm32n6xx_hal_dma.c ****       (+) The HAL_DMA_Abort() function allows to abort any on-going transfer (Blocking mode).
 491:../STM32Cube_FW_N6/Drivers/STM32N6xx_HAL_Driver/Src/stm32n6xx_hal_dma.c ****       (+) The HAL_DMA_Abort_IT() function allows to abort any on-going transfer (Non-blocking mode)
 492:../STM32Cube_FW_N6/Drivers/STM32N6xx_HAL_Driver/Src/stm32n6xx_hal_dma.c ****       (+) The HAL_DMA_PollForTransfer() function allows to poll on half transfer and transfer compl
 493:../STM32Cube_FW_N6/Drivers/STM32N6xx_HAL_Driver/Src/stm32n6xx_hal_dma.c ****           This API cannot be used for circular transfers.
 494:../STM32Cube_FW_N6/Drivers/STM32N6xx_HAL_Driver/Src/stm32n6xx_hal_dma.c ****       (+) The HAL_DMA_IRQHandler() function allows to handle any DMA channel interrupt (Non-blockin
 495:../STM32Cube_FW_N6/Drivers/STM32N6xx_HAL_Driver/Src/stm32n6xx_hal_dma.c ****       (+) The HAL_DMA_RegisterCallback() and HAL_DMA_UnRegisterCallback() functions allow respectiv
 496:../STM32Cube_FW_N6/Drivers/STM32N6xx_HAL_Driver/Src/stm32n6xx_hal_dma.c ****           unregister user customized callbacks.
 497:../STM32Cube_FW_N6/Drivers/STM32N6xx_HAL_Driver/Src/stm32n6xx_hal_dma.c ****           User callbacks are called under HAL_DMA_IRQHandler().
 498:../STM32Cube_FW_N6/Drivers/STM32N6xx_HAL_Driver/Src/stm32n6xx_hal_dma.c **** 
 499:../STM32Cube_FW_N6/Drivers/STM32N6xx_HAL_Driver/Src/stm32n6xx_hal_dma.c **** @endverbatim
 500:../STM32Cube_FW_N6/Drivers/STM32N6xx_HAL_Driver/Src/stm32n6xx_hal_dma.c ****   * @{
 501:../STM32Cube_FW_N6/Drivers/STM32N6xx_HAL_Driver/Src/stm32n6xx_hal_dma.c ****   */
 502:../STM32Cube_FW_N6/Drivers/STM32N6xx_HAL_Driver/Src/stm32n6xx_hal_dma.c **** 
 503:../STM32Cube_FW_N6/Drivers/STM32N6xx_HAL_Driver/Src/stm32n6xx_hal_dma.c **** /**
 504:../STM32Cube_FW_N6/Drivers/STM32N6xx_HAL_Driver/Src/stm32n6xx_hal_dma.c ****   * @brief  Start the DMA channel transfer in normal mode (Blocking mode).
 505:../STM32Cube_FW_N6/Drivers/STM32N6xx_HAL_Driver/Src/stm32n6xx_hal_dma.c ****   * @param  hdma        : Pointer to a DMA_HandleTypeDef structure that contains the configuration 
 506:../STM32Cube_FW_N6/Drivers/STM32N6xx_HAL_Driver/Src/stm32n6xx_hal_dma.c ****   *                       the specified DMA Channel.
 507:../STM32Cube_FW_N6/Drivers/STM32N6xx_HAL_Driver/Src/stm32n6xx_hal_dma.c ****   * @param  SrcAddress  : The source data address.
 508:../STM32Cube_FW_N6/Drivers/STM32N6xx_HAL_Driver/Src/stm32n6xx_hal_dma.c ****   * @param  DstAddress  : The destination data address.
 509:../STM32Cube_FW_N6/Drivers/STM32N6xx_HAL_Driver/Src/stm32n6xx_hal_dma.c ****   * @param  SrcDataSize : The length of data to be transferred from source to destination in bytes.
 510:../STM32Cube_FW_N6/Drivers/STM32N6xx_HAL_Driver/Src/stm32n6xx_hal_dma.c ****   * @retval HAL status.
 511:../STM32Cube_FW_N6/Drivers/STM32N6xx_HAL_Driver/Src/stm32n6xx_hal_dma.c ****   */
 512:../STM32Cube_FW_N6/Drivers/STM32N6xx_HAL_Driver/Src/stm32n6xx_hal_dma.c **** HAL_StatusTypeDef HAL_DMA_Start(DMA_HandleTypeDef *const hdma,
 513:../STM32Cube_FW_N6/Drivers/STM32N6xx_HAL_Driver/Src/stm32n6xx_hal_dma.c ****                                 uint32_t SrcAddress,
 514:../STM32Cube_FW_N6/Drivers/STM32N6xx_HAL_Driver/Src/stm32n6xx_hal_dma.c ****                                 uint32_t DstAddress,
 515:../STM32Cube_FW_N6/Drivers/STM32N6xx_HAL_Driver/Src/stm32n6xx_hal_dma.c ****                                 uint32_t SrcDataSize)
 516:../STM32Cube_FW_N6/Drivers/STM32N6xx_HAL_Driver/Src/stm32n6xx_hal_dma.c **** {
 517:../STM32Cube_FW_N6/Drivers/STM32N6xx_HAL_Driver/Src/stm32n6xx_hal_dma.c ****   /* Check the DMA peripheral handle parameter */
 518:../STM32Cube_FW_N6/Drivers/STM32N6xx_HAL_Driver/Src/stm32n6xx_hal_dma.c ****   if (hdma == NULL)
 519:../STM32Cube_FW_N6/Drivers/STM32N6xx_HAL_Driver/Src/stm32n6xx_hal_dma.c ****   {
 520:../STM32Cube_FW_N6/Drivers/STM32N6xx_HAL_Driver/Src/stm32n6xx_hal_dma.c ****     return HAL_ERROR;
 521:../STM32Cube_FW_N6/Drivers/STM32N6xx_HAL_Driver/Src/stm32n6xx_hal_dma.c ****   }
 522:../STM32Cube_FW_N6/Drivers/STM32N6xx_HAL_Driver/Src/stm32n6xx_hal_dma.c **** 
 523:../STM32Cube_FW_N6/Drivers/STM32N6xx_HAL_Driver/Src/stm32n6xx_hal_dma.c ****   /* Check the parameters */
 524:../STM32Cube_FW_N6/Drivers/STM32N6xx_HAL_Driver/Src/stm32n6xx_hal_dma.c ****   assert_param(IS_DMA_BLOCK_SIZE(SrcDataSize));
 525:../STM32Cube_FW_N6/Drivers/STM32N6xx_HAL_Driver/Src/stm32n6xx_hal_dma.c **** 
 526:../STM32Cube_FW_N6/Drivers/STM32N6xx_HAL_Driver/Src/stm32n6xx_hal_dma.c ****   /* Process locked */
 527:../STM32Cube_FW_N6/Drivers/STM32N6xx_HAL_Driver/Src/stm32n6xx_hal_dma.c ****   __HAL_LOCK(hdma);
 528:../STM32Cube_FW_N6/Drivers/STM32N6xx_HAL_Driver/Src/stm32n6xx_hal_dma.c **** 
 529:../STM32Cube_FW_N6/Drivers/STM32N6xx_HAL_Driver/Src/stm32n6xx_hal_dma.c ****   /* Check DMA channel state */
ARM GAS  /tmp/ccId6s4B.s 			page 28


 530:../STM32Cube_FW_N6/Drivers/STM32N6xx_HAL_Driver/Src/stm32n6xx_hal_dma.c ****   if (hdma->State == HAL_DMA_STATE_READY)
 531:../STM32Cube_FW_N6/Drivers/STM32N6xx_HAL_Driver/Src/stm32n6xx_hal_dma.c ****   {
 532:../STM32Cube_FW_N6/Drivers/STM32N6xx_HAL_Driver/Src/stm32n6xx_hal_dma.c ****     /* Update the DMA channel state */
 533:../STM32Cube_FW_N6/Drivers/STM32N6xx_HAL_Driver/Src/stm32n6xx_hal_dma.c ****     hdma->State = HAL_DMA_STATE_BUSY;
 534:../STM32Cube_FW_N6/Drivers/STM32N6xx_HAL_Driver/Src/stm32n6xx_hal_dma.c **** 
 535:../STM32Cube_FW_N6/Drivers/STM32N6xx_HAL_Driver/Src/stm32n6xx_hal_dma.c ****     /* Update the DMA channel error code */
 536:../STM32Cube_FW_N6/Drivers/STM32N6xx_HAL_Driver/Src/stm32n6xx_hal_dma.c ****     hdma->ErrorCode = HAL_DMA_ERROR_NONE;
 537:../STM32Cube_FW_N6/Drivers/STM32N6xx_HAL_Driver/Src/stm32n6xx_hal_dma.c **** 
 538:../STM32Cube_FW_N6/Drivers/STM32N6xx_HAL_Driver/Src/stm32n6xx_hal_dma.c ****     /* Configure the source address, destination address, the data size and clear flags */
 539:../STM32Cube_FW_N6/Drivers/STM32N6xx_HAL_Driver/Src/stm32n6xx_hal_dma.c ****     DMA_SetConfig(hdma, SrcAddress, DstAddress, SrcDataSize);
 540:../STM32Cube_FW_N6/Drivers/STM32N6xx_HAL_Driver/Src/stm32n6xx_hal_dma.c **** 
 541:../STM32Cube_FW_N6/Drivers/STM32N6xx_HAL_Driver/Src/stm32n6xx_hal_dma.c ****     /* Enable DMA channel */
 542:../STM32Cube_FW_N6/Drivers/STM32N6xx_HAL_Driver/Src/stm32n6xx_hal_dma.c ****     __HAL_DMA_ENABLE(hdma);
 543:../STM32Cube_FW_N6/Drivers/STM32N6xx_HAL_Driver/Src/stm32n6xx_hal_dma.c ****   }
 544:../STM32Cube_FW_N6/Drivers/STM32N6xx_HAL_Driver/Src/stm32n6xx_hal_dma.c ****   else
 545:../STM32Cube_FW_N6/Drivers/STM32N6xx_HAL_Driver/Src/stm32n6xx_hal_dma.c ****   {
 546:../STM32Cube_FW_N6/Drivers/STM32N6xx_HAL_Driver/Src/stm32n6xx_hal_dma.c ****     /* Update the DMA channel error code */
 547:../STM32Cube_FW_N6/Drivers/STM32N6xx_HAL_Driver/Src/stm32n6xx_hal_dma.c ****     hdma->ErrorCode = HAL_DMA_ERROR_BUSY;
 548:../STM32Cube_FW_N6/Drivers/STM32N6xx_HAL_Driver/Src/stm32n6xx_hal_dma.c **** 
 549:../STM32Cube_FW_N6/Drivers/STM32N6xx_HAL_Driver/Src/stm32n6xx_hal_dma.c ****     /* Process unlocked */
 550:../STM32Cube_FW_N6/Drivers/STM32N6xx_HAL_Driver/Src/stm32n6xx_hal_dma.c ****     __HAL_UNLOCK(hdma);
 551:../STM32Cube_FW_N6/Drivers/STM32N6xx_HAL_Driver/Src/stm32n6xx_hal_dma.c **** 
 552:../STM32Cube_FW_N6/Drivers/STM32N6xx_HAL_Driver/Src/stm32n6xx_hal_dma.c ****     return HAL_ERROR;
 553:../STM32Cube_FW_N6/Drivers/STM32N6xx_HAL_Driver/Src/stm32n6xx_hal_dma.c ****   }
 554:../STM32Cube_FW_N6/Drivers/STM32N6xx_HAL_Driver/Src/stm32n6xx_hal_dma.c **** 
 555:../STM32Cube_FW_N6/Drivers/STM32N6xx_HAL_Driver/Src/stm32n6xx_hal_dma.c ****   return HAL_OK;
 556:../STM32Cube_FW_N6/Drivers/STM32N6xx_HAL_Driver/Src/stm32n6xx_hal_dma.c **** }
 557:../STM32Cube_FW_N6/Drivers/STM32N6xx_HAL_Driver/Src/stm32n6xx_hal_dma.c **** 
 558:../STM32Cube_FW_N6/Drivers/STM32N6xx_HAL_Driver/Src/stm32n6xx_hal_dma.c **** /**
 559:../STM32Cube_FW_N6/Drivers/STM32N6xx_HAL_Driver/Src/stm32n6xx_hal_dma.c ****   * @brief  Starts the DMA channel transfer in normal mode with interrupts enabled (Non-blocking mo
 560:../STM32Cube_FW_N6/Drivers/STM32N6xx_HAL_Driver/Src/stm32n6xx_hal_dma.c ****   * @param  hdma         : Pointer to a DMA_HandleTypeDef structure that contains the configuration
 561:../STM32Cube_FW_N6/Drivers/STM32N6xx_HAL_Driver/Src/stm32n6xx_hal_dma.c ****   *                        specified DMA Channel.
 562:../STM32Cube_FW_N6/Drivers/STM32N6xx_HAL_Driver/Src/stm32n6xx_hal_dma.c ****   * @param  SrcAddress   : The source data address.
 563:../STM32Cube_FW_N6/Drivers/STM32N6xx_HAL_Driver/Src/stm32n6xx_hal_dma.c ****   * @param  DstAddress   : The destination data address.
 564:../STM32Cube_FW_N6/Drivers/STM32N6xx_HAL_Driver/Src/stm32n6xx_hal_dma.c ****   * @param  SrcDataSize  : The length of data to be transferred from source to destination in bytes
 565:../STM32Cube_FW_N6/Drivers/STM32N6xx_HAL_Driver/Src/stm32n6xx_hal_dma.c ****   * @retval HAL status.
 566:../STM32Cube_FW_N6/Drivers/STM32N6xx_HAL_Driver/Src/stm32n6xx_hal_dma.c ****   */
 567:../STM32Cube_FW_N6/Drivers/STM32N6xx_HAL_Driver/Src/stm32n6xx_hal_dma.c **** HAL_StatusTypeDef HAL_DMA_Start_IT(DMA_HandleTypeDef *const hdma,
 568:../STM32Cube_FW_N6/Drivers/STM32N6xx_HAL_Driver/Src/stm32n6xx_hal_dma.c ****                                    uint32_t SrcAddress,
 569:../STM32Cube_FW_N6/Drivers/STM32N6xx_HAL_Driver/Src/stm32n6xx_hal_dma.c ****                                    uint32_t DstAddress,
 570:../STM32Cube_FW_N6/Drivers/STM32N6xx_HAL_Driver/Src/stm32n6xx_hal_dma.c ****                                    uint32_t SrcDataSize)
 571:../STM32Cube_FW_N6/Drivers/STM32N6xx_HAL_Driver/Src/stm32n6xx_hal_dma.c **** {
 572:../STM32Cube_FW_N6/Drivers/STM32N6xx_HAL_Driver/Src/stm32n6xx_hal_dma.c ****   /* Check the DMA peripheral handle parameter */
 573:../STM32Cube_FW_N6/Drivers/STM32N6xx_HAL_Driver/Src/stm32n6xx_hal_dma.c ****   if (hdma == NULL)
 574:../STM32Cube_FW_N6/Drivers/STM32N6xx_HAL_Driver/Src/stm32n6xx_hal_dma.c ****   {
 575:../STM32Cube_FW_N6/Drivers/STM32N6xx_HAL_Driver/Src/stm32n6xx_hal_dma.c ****     return HAL_ERROR;
 576:../STM32Cube_FW_N6/Drivers/STM32N6xx_HAL_Driver/Src/stm32n6xx_hal_dma.c ****   }
 577:../STM32Cube_FW_N6/Drivers/STM32N6xx_HAL_Driver/Src/stm32n6xx_hal_dma.c **** 
 578:../STM32Cube_FW_N6/Drivers/STM32N6xx_HAL_Driver/Src/stm32n6xx_hal_dma.c ****   /* Check the parameters */
 579:../STM32Cube_FW_N6/Drivers/STM32N6xx_HAL_Driver/Src/stm32n6xx_hal_dma.c ****   assert_param(IS_DMA_BLOCK_SIZE(SrcDataSize));
 580:../STM32Cube_FW_N6/Drivers/STM32N6xx_HAL_Driver/Src/stm32n6xx_hal_dma.c **** 
 581:../STM32Cube_FW_N6/Drivers/STM32N6xx_HAL_Driver/Src/stm32n6xx_hal_dma.c ****   /* Process locked */
 582:../STM32Cube_FW_N6/Drivers/STM32N6xx_HAL_Driver/Src/stm32n6xx_hal_dma.c ****   __HAL_LOCK(hdma);
 583:../STM32Cube_FW_N6/Drivers/STM32N6xx_HAL_Driver/Src/stm32n6xx_hal_dma.c **** 
 584:../STM32Cube_FW_N6/Drivers/STM32N6xx_HAL_Driver/Src/stm32n6xx_hal_dma.c ****   /* Check DMA channel state */
 585:../STM32Cube_FW_N6/Drivers/STM32N6xx_HAL_Driver/Src/stm32n6xx_hal_dma.c ****   if (hdma->State == HAL_DMA_STATE_READY)
 586:../STM32Cube_FW_N6/Drivers/STM32N6xx_HAL_Driver/Src/stm32n6xx_hal_dma.c ****   {
ARM GAS  /tmp/ccId6s4B.s 			page 29


 587:../STM32Cube_FW_N6/Drivers/STM32N6xx_HAL_Driver/Src/stm32n6xx_hal_dma.c ****     /* Update the DMA channel state */
 588:../STM32Cube_FW_N6/Drivers/STM32N6xx_HAL_Driver/Src/stm32n6xx_hal_dma.c ****     hdma->State = HAL_DMA_STATE_BUSY;
 589:../STM32Cube_FW_N6/Drivers/STM32N6xx_HAL_Driver/Src/stm32n6xx_hal_dma.c **** 
 590:../STM32Cube_FW_N6/Drivers/STM32N6xx_HAL_Driver/Src/stm32n6xx_hal_dma.c ****     /* Update the DMA channel error code */
 591:../STM32Cube_FW_N6/Drivers/STM32N6xx_HAL_Driver/Src/stm32n6xx_hal_dma.c ****     hdma->ErrorCode = HAL_DMA_ERROR_NONE;
 592:../STM32Cube_FW_N6/Drivers/STM32N6xx_HAL_Driver/Src/stm32n6xx_hal_dma.c **** 
 593:../STM32Cube_FW_N6/Drivers/STM32N6xx_HAL_Driver/Src/stm32n6xx_hal_dma.c ****     /* Configure the source address, destination address, the data size and clear flags */
 594:../STM32Cube_FW_N6/Drivers/STM32N6xx_HAL_Driver/Src/stm32n6xx_hal_dma.c ****     DMA_SetConfig(hdma, SrcAddress, DstAddress, SrcDataSize);
 595:../STM32Cube_FW_N6/Drivers/STM32N6xx_HAL_Driver/Src/stm32n6xx_hal_dma.c **** 
 596:../STM32Cube_FW_N6/Drivers/STM32N6xx_HAL_Driver/Src/stm32n6xx_hal_dma.c ****     /* Enable common interrupts: Transfer Complete and Transfer Errors ITs */
 597:../STM32Cube_FW_N6/Drivers/STM32N6xx_HAL_Driver/Src/stm32n6xx_hal_dma.c ****     __HAL_DMA_ENABLE_IT(hdma, (DMA_IT_TC | DMA_IT_DTE | DMA_IT_ULE | DMA_IT_USE | DMA_IT_TO));
 598:../STM32Cube_FW_N6/Drivers/STM32N6xx_HAL_Driver/Src/stm32n6xx_hal_dma.c **** 
 599:../STM32Cube_FW_N6/Drivers/STM32N6xx_HAL_Driver/Src/stm32n6xx_hal_dma.c ****     /* Check half transfer complete callback */
 600:../STM32Cube_FW_N6/Drivers/STM32N6xx_HAL_Driver/Src/stm32n6xx_hal_dma.c ****     if (hdma->XferHalfCpltCallback != NULL)
 601:../STM32Cube_FW_N6/Drivers/STM32N6xx_HAL_Driver/Src/stm32n6xx_hal_dma.c ****     {
 602:../STM32Cube_FW_N6/Drivers/STM32N6xx_HAL_Driver/Src/stm32n6xx_hal_dma.c ****       /* If Half Transfer complete callback is set, enable the corresponding IT */
 603:../STM32Cube_FW_N6/Drivers/STM32N6xx_HAL_Driver/Src/stm32n6xx_hal_dma.c ****       __HAL_DMA_ENABLE_IT(hdma, DMA_IT_HT);
 604:../STM32Cube_FW_N6/Drivers/STM32N6xx_HAL_Driver/Src/stm32n6xx_hal_dma.c ****     }
 605:../STM32Cube_FW_N6/Drivers/STM32N6xx_HAL_Driver/Src/stm32n6xx_hal_dma.c **** 
 606:../STM32Cube_FW_N6/Drivers/STM32N6xx_HAL_Driver/Src/stm32n6xx_hal_dma.c ****     /* Check Half suspend callback */
 607:../STM32Cube_FW_N6/Drivers/STM32N6xx_HAL_Driver/Src/stm32n6xx_hal_dma.c ****     if (hdma->XferSuspendCallback != NULL)
 608:../STM32Cube_FW_N6/Drivers/STM32N6xx_HAL_Driver/Src/stm32n6xx_hal_dma.c ****     {
 609:../STM32Cube_FW_N6/Drivers/STM32N6xx_HAL_Driver/Src/stm32n6xx_hal_dma.c ****       /* If Transfer suspend callback is set, enable the corresponding IT */
 610:../STM32Cube_FW_N6/Drivers/STM32N6xx_HAL_Driver/Src/stm32n6xx_hal_dma.c ****       __HAL_DMA_ENABLE_IT(hdma, DMA_IT_SUSP);
 611:../STM32Cube_FW_N6/Drivers/STM32N6xx_HAL_Driver/Src/stm32n6xx_hal_dma.c ****     }
 612:../STM32Cube_FW_N6/Drivers/STM32N6xx_HAL_Driver/Src/stm32n6xx_hal_dma.c **** 
 613:../STM32Cube_FW_N6/Drivers/STM32N6xx_HAL_Driver/Src/stm32n6xx_hal_dma.c ****     /* Enable DMA channel */
 614:../STM32Cube_FW_N6/Drivers/STM32N6xx_HAL_Driver/Src/stm32n6xx_hal_dma.c ****     __HAL_DMA_ENABLE(hdma);
 615:../STM32Cube_FW_N6/Drivers/STM32N6xx_HAL_Driver/Src/stm32n6xx_hal_dma.c ****   }
 616:../STM32Cube_FW_N6/Drivers/STM32N6xx_HAL_Driver/Src/stm32n6xx_hal_dma.c ****   else
 617:../STM32Cube_FW_N6/Drivers/STM32N6xx_HAL_Driver/Src/stm32n6xx_hal_dma.c ****   {
 618:../STM32Cube_FW_N6/Drivers/STM32N6xx_HAL_Driver/Src/stm32n6xx_hal_dma.c ****     /* Update the DMA channel error code */
 619:../STM32Cube_FW_N6/Drivers/STM32N6xx_HAL_Driver/Src/stm32n6xx_hal_dma.c ****     hdma->ErrorCode = HAL_DMA_ERROR_BUSY;
 620:../STM32Cube_FW_N6/Drivers/STM32N6xx_HAL_Driver/Src/stm32n6xx_hal_dma.c **** 
 621:../STM32Cube_FW_N6/Drivers/STM32N6xx_HAL_Driver/Src/stm32n6xx_hal_dma.c ****     /* Process unlocked */
 622:../STM32Cube_FW_N6/Drivers/STM32N6xx_HAL_Driver/Src/stm32n6xx_hal_dma.c ****     __HAL_UNLOCK(hdma);
 623:../STM32Cube_FW_N6/Drivers/STM32N6xx_HAL_Driver/Src/stm32n6xx_hal_dma.c **** 
 624:../STM32Cube_FW_N6/Drivers/STM32N6xx_HAL_Driver/Src/stm32n6xx_hal_dma.c ****     return HAL_ERROR;
 625:../STM32Cube_FW_N6/Drivers/STM32N6xx_HAL_Driver/Src/stm32n6xx_hal_dma.c ****   }
 626:../STM32Cube_FW_N6/Drivers/STM32N6xx_HAL_Driver/Src/stm32n6xx_hal_dma.c **** 
 627:../STM32Cube_FW_N6/Drivers/STM32N6xx_HAL_Driver/Src/stm32n6xx_hal_dma.c ****   return HAL_OK;
 628:../STM32Cube_FW_N6/Drivers/STM32N6xx_HAL_Driver/Src/stm32n6xx_hal_dma.c **** }
 629:../STM32Cube_FW_N6/Drivers/STM32N6xx_HAL_Driver/Src/stm32n6xx_hal_dma.c **** 
 630:../STM32Cube_FW_N6/Drivers/STM32N6xx_HAL_Driver/Src/stm32n6xx_hal_dma.c **** /**
 631:../STM32Cube_FW_N6/Drivers/STM32N6xx_HAL_Driver/Src/stm32n6xx_hal_dma.c ****   * @brief  Abort any on-going DMA channel transfer (Blocking mode).
 632:../STM32Cube_FW_N6/Drivers/STM32N6xx_HAL_Driver/Src/stm32n6xx_hal_dma.c ****   * @param  hdma : Pointer to a DMA_HandleTypeDef structure that contains the configuration informa
 633:../STM32Cube_FW_N6/Drivers/STM32N6xx_HAL_Driver/Src/stm32n6xx_hal_dma.c ****   *                specified DMA Channel.
 634:../STM32Cube_FW_N6/Drivers/STM32N6xx_HAL_Driver/Src/stm32n6xx_hal_dma.c ****   * @note   After suspending a DMA channel, a wait until the DMA channel is effectively stopped is 
 635:../STM32Cube_FW_N6/Drivers/STM32N6xx_HAL_Driver/Src/stm32n6xx_hal_dma.c ****   *         is suspended while a data transfer is on-going, the current data will be transferred an
 636:../STM32Cube_FW_N6/Drivers/STM32N6xx_HAL_Driver/Src/stm32n6xx_hal_dma.c ****   *         effectively suspended only after the transfer of any on-going data is finished.
 637:../STM32Cube_FW_N6/Drivers/STM32N6xx_HAL_Driver/Src/stm32n6xx_hal_dma.c ****   * @retval HAL status.
 638:../STM32Cube_FW_N6/Drivers/STM32N6xx_HAL_Driver/Src/stm32n6xx_hal_dma.c ****   */
 639:../STM32Cube_FW_N6/Drivers/STM32N6xx_HAL_Driver/Src/stm32n6xx_hal_dma.c **** HAL_StatusTypeDef HAL_DMA_Abort(DMA_HandleTypeDef *const hdma)
 640:../STM32Cube_FW_N6/Drivers/STM32N6xx_HAL_Driver/Src/stm32n6xx_hal_dma.c **** {
 641:../STM32Cube_FW_N6/Drivers/STM32N6xx_HAL_Driver/Src/stm32n6xx_hal_dma.c ****   /* Get tick number */
 642:../STM32Cube_FW_N6/Drivers/STM32N6xx_HAL_Driver/Src/stm32n6xx_hal_dma.c ****   uint32_t tickstart =  HAL_GetTick();
 643:../STM32Cube_FW_N6/Drivers/STM32N6xx_HAL_Driver/Src/stm32n6xx_hal_dma.c **** 
ARM GAS  /tmp/ccId6s4B.s 			page 30


 644:../STM32Cube_FW_N6/Drivers/STM32N6xx_HAL_Driver/Src/stm32n6xx_hal_dma.c ****   /* Check the DMA peripheral handle parameter */
 645:../STM32Cube_FW_N6/Drivers/STM32N6xx_HAL_Driver/Src/stm32n6xx_hal_dma.c ****   if (hdma == NULL)
 646:../STM32Cube_FW_N6/Drivers/STM32N6xx_HAL_Driver/Src/stm32n6xx_hal_dma.c ****   {
 647:../STM32Cube_FW_N6/Drivers/STM32N6xx_HAL_Driver/Src/stm32n6xx_hal_dma.c ****     return HAL_ERROR;
 648:../STM32Cube_FW_N6/Drivers/STM32N6xx_HAL_Driver/Src/stm32n6xx_hal_dma.c ****   }
 649:../STM32Cube_FW_N6/Drivers/STM32N6xx_HAL_Driver/Src/stm32n6xx_hal_dma.c **** 
 650:../STM32Cube_FW_N6/Drivers/STM32N6xx_HAL_Driver/Src/stm32n6xx_hal_dma.c ****   /* Check DMA channel state */
 651:../STM32Cube_FW_N6/Drivers/STM32N6xx_HAL_Driver/Src/stm32n6xx_hal_dma.c ****   if (hdma->State != HAL_DMA_STATE_BUSY)
 652:../STM32Cube_FW_N6/Drivers/STM32N6xx_HAL_Driver/Src/stm32n6xx_hal_dma.c ****   {
 653:../STM32Cube_FW_N6/Drivers/STM32N6xx_HAL_Driver/Src/stm32n6xx_hal_dma.c ****     /* Update the DMA channel error code */
 654:../STM32Cube_FW_N6/Drivers/STM32N6xx_HAL_Driver/Src/stm32n6xx_hal_dma.c ****     hdma->ErrorCode = HAL_DMA_ERROR_NO_XFER;
 655:../STM32Cube_FW_N6/Drivers/STM32N6xx_HAL_Driver/Src/stm32n6xx_hal_dma.c **** 
 656:../STM32Cube_FW_N6/Drivers/STM32N6xx_HAL_Driver/Src/stm32n6xx_hal_dma.c ****     /* Process Unlocked */
 657:../STM32Cube_FW_N6/Drivers/STM32N6xx_HAL_Driver/Src/stm32n6xx_hal_dma.c ****     __HAL_UNLOCK(hdma);
 658:../STM32Cube_FW_N6/Drivers/STM32N6xx_HAL_Driver/Src/stm32n6xx_hal_dma.c **** 
 659:../STM32Cube_FW_N6/Drivers/STM32N6xx_HAL_Driver/Src/stm32n6xx_hal_dma.c ****     return HAL_ERROR;
 660:../STM32Cube_FW_N6/Drivers/STM32N6xx_HAL_Driver/Src/stm32n6xx_hal_dma.c ****   }
 661:../STM32Cube_FW_N6/Drivers/STM32N6xx_HAL_Driver/Src/stm32n6xx_hal_dma.c ****   else
 662:../STM32Cube_FW_N6/Drivers/STM32N6xx_HAL_Driver/Src/stm32n6xx_hal_dma.c ****   {
 663:../STM32Cube_FW_N6/Drivers/STM32N6xx_HAL_Driver/Src/stm32n6xx_hal_dma.c ****     /* Suspend the channel */
 664:../STM32Cube_FW_N6/Drivers/STM32N6xx_HAL_Driver/Src/stm32n6xx_hal_dma.c ****     hdma->Instance->CCR |= DMA_CCR_SUSP;
 665:../STM32Cube_FW_N6/Drivers/STM32N6xx_HAL_Driver/Src/stm32n6xx_hal_dma.c **** 
 666:../STM32Cube_FW_N6/Drivers/STM32N6xx_HAL_Driver/Src/stm32n6xx_hal_dma.c ****     /* Update the DMA channel state */
 667:../STM32Cube_FW_N6/Drivers/STM32N6xx_HAL_Driver/Src/stm32n6xx_hal_dma.c ****     hdma->State = HAL_DMA_STATE_SUSPEND;
 668:../STM32Cube_FW_N6/Drivers/STM32N6xx_HAL_Driver/Src/stm32n6xx_hal_dma.c **** 
 669:../STM32Cube_FW_N6/Drivers/STM32N6xx_HAL_Driver/Src/stm32n6xx_hal_dma.c ****     /* Check if the DMA Channel is suspended */
 670:../STM32Cube_FW_N6/Drivers/STM32N6xx_HAL_Driver/Src/stm32n6xx_hal_dma.c ****     while ((hdma->Instance->CSR & DMA_CSR_SUSPF) == 0U)
 671:../STM32Cube_FW_N6/Drivers/STM32N6xx_HAL_Driver/Src/stm32n6xx_hal_dma.c ****     {
 672:../STM32Cube_FW_N6/Drivers/STM32N6xx_HAL_Driver/Src/stm32n6xx_hal_dma.c ****       /* Check for the Timeout */
 673:../STM32Cube_FW_N6/Drivers/STM32N6xx_HAL_Driver/Src/stm32n6xx_hal_dma.c ****       if ((HAL_GetTick() - tickstart) > HAL_TIMEOUT_DMA_ABORT)
 674:../STM32Cube_FW_N6/Drivers/STM32N6xx_HAL_Driver/Src/stm32n6xx_hal_dma.c ****       {
 675:../STM32Cube_FW_N6/Drivers/STM32N6xx_HAL_Driver/Src/stm32n6xx_hal_dma.c ****         /* Update the DMA channel error code */
 676:../STM32Cube_FW_N6/Drivers/STM32N6xx_HAL_Driver/Src/stm32n6xx_hal_dma.c ****         hdma->ErrorCode |= HAL_DMA_ERROR_TIMEOUT;
 677:../STM32Cube_FW_N6/Drivers/STM32N6xx_HAL_Driver/Src/stm32n6xx_hal_dma.c **** 
 678:../STM32Cube_FW_N6/Drivers/STM32N6xx_HAL_Driver/Src/stm32n6xx_hal_dma.c ****         /* Update the DMA channel state */
 679:../STM32Cube_FW_N6/Drivers/STM32N6xx_HAL_Driver/Src/stm32n6xx_hal_dma.c ****         hdma->State = HAL_DMA_STATE_ERROR;
 680:../STM32Cube_FW_N6/Drivers/STM32N6xx_HAL_Driver/Src/stm32n6xx_hal_dma.c **** 
 681:../STM32Cube_FW_N6/Drivers/STM32N6xx_HAL_Driver/Src/stm32n6xx_hal_dma.c ****         /* Check DMA channel transfer mode */
 682:../STM32Cube_FW_N6/Drivers/STM32N6xx_HAL_Driver/Src/stm32n6xx_hal_dma.c ****         if ((hdma->Mode & DMA_LINKEDLIST) == DMA_LINKEDLIST)
 683:../STM32Cube_FW_N6/Drivers/STM32N6xx_HAL_Driver/Src/stm32n6xx_hal_dma.c ****         {
 684:../STM32Cube_FW_N6/Drivers/STM32N6xx_HAL_Driver/Src/stm32n6xx_hal_dma.c ****           /* Update the linked-list queue state */
 685:../STM32Cube_FW_N6/Drivers/STM32N6xx_HAL_Driver/Src/stm32n6xx_hal_dma.c ****           hdma->LinkedListQueue->State = HAL_DMA_QUEUE_STATE_READY;
 686:../STM32Cube_FW_N6/Drivers/STM32N6xx_HAL_Driver/Src/stm32n6xx_hal_dma.c ****         }
 687:../STM32Cube_FW_N6/Drivers/STM32N6xx_HAL_Driver/Src/stm32n6xx_hal_dma.c **** 
 688:../STM32Cube_FW_N6/Drivers/STM32N6xx_HAL_Driver/Src/stm32n6xx_hal_dma.c ****         /* Process Unlocked */
 689:../STM32Cube_FW_N6/Drivers/STM32N6xx_HAL_Driver/Src/stm32n6xx_hal_dma.c ****         __HAL_UNLOCK(hdma);
 690:../STM32Cube_FW_N6/Drivers/STM32N6xx_HAL_Driver/Src/stm32n6xx_hal_dma.c **** 
 691:../STM32Cube_FW_N6/Drivers/STM32N6xx_HAL_Driver/Src/stm32n6xx_hal_dma.c ****         return HAL_ERROR;
 692:../STM32Cube_FW_N6/Drivers/STM32N6xx_HAL_Driver/Src/stm32n6xx_hal_dma.c ****       }
 693:../STM32Cube_FW_N6/Drivers/STM32N6xx_HAL_Driver/Src/stm32n6xx_hal_dma.c ****     }
 694:../STM32Cube_FW_N6/Drivers/STM32N6xx_HAL_Driver/Src/stm32n6xx_hal_dma.c **** 
 695:../STM32Cube_FW_N6/Drivers/STM32N6xx_HAL_Driver/Src/stm32n6xx_hal_dma.c ****     /* Reset the channel */
 696:../STM32Cube_FW_N6/Drivers/STM32N6xx_HAL_Driver/Src/stm32n6xx_hal_dma.c ****     hdma->Instance->CCR |= DMA_CCR_RESET;
 697:../STM32Cube_FW_N6/Drivers/STM32N6xx_HAL_Driver/Src/stm32n6xx_hal_dma.c **** 
 698:../STM32Cube_FW_N6/Drivers/STM32N6xx_HAL_Driver/Src/stm32n6xx_hal_dma.c ****     /* Update the DMA channel state */
 699:../STM32Cube_FW_N6/Drivers/STM32N6xx_HAL_Driver/Src/stm32n6xx_hal_dma.c ****     hdma->State = HAL_DMA_STATE_ABORT;
 700:../STM32Cube_FW_N6/Drivers/STM32N6xx_HAL_Driver/Src/stm32n6xx_hal_dma.c **** 
ARM GAS  /tmp/ccId6s4B.s 			page 31


 701:../STM32Cube_FW_N6/Drivers/STM32N6xx_HAL_Driver/Src/stm32n6xx_hal_dma.c ****     /* Clear all status flags */
 702:../STM32Cube_FW_N6/Drivers/STM32N6xx_HAL_Driver/Src/stm32n6xx_hal_dma.c ****     __HAL_DMA_CLEAR_FLAG(hdma, (DMA_FLAG_TC | DMA_FLAG_HT | DMA_FLAG_DTE | DMA_FLAG_ULE | DMA_FLAG_
 703:../STM32Cube_FW_N6/Drivers/STM32N6xx_HAL_Driver/Src/stm32n6xx_hal_dma.c ****                                 DMA_FLAG_TO));
 704:../STM32Cube_FW_N6/Drivers/STM32N6xx_HAL_Driver/Src/stm32n6xx_hal_dma.c **** 
 705:../STM32Cube_FW_N6/Drivers/STM32N6xx_HAL_Driver/Src/stm32n6xx_hal_dma.c ****     /* Update the DMA channel state */
 706:../STM32Cube_FW_N6/Drivers/STM32N6xx_HAL_Driver/Src/stm32n6xx_hal_dma.c ****     hdma->State = HAL_DMA_STATE_READY;
 707:../STM32Cube_FW_N6/Drivers/STM32N6xx_HAL_Driver/Src/stm32n6xx_hal_dma.c **** 
 708:../STM32Cube_FW_N6/Drivers/STM32N6xx_HAL_Driver/Src/stm32n6xx_hal_dma.c ****     /* Check DMA channel transfer mode */
 709:../STM32Cube_FW_N6/Drivers/STM32N6xx_HAL_Driver/Src/stm32n6xx_hal_dma.c ****     if ((hdma->Mode & DMA_LINKEDLIST) == DMA_LINKEDLIST)
 710:../STM32Cube_FW_N6/Drivers/STM32N6xx_HAL_Driver/Src/stm32n6xx_hal_dma.c ****     {
 711:../STM32Cube_FW_N6/Drivers/STM32N6xx_HAL_Driver/Src/stm32n6xx_hal_dma.c ****       /* Update the linked-list queue state */
 712:../STM32Cube_FW_N6/Drivers/STM32N6xx_HAL_Driver/Src/stm32n6xx_hal_dma.c ****       hdma->LinkedListQueue->State = HAL_DMA_QUEUE_STATE_READY;
 713:../STM32Cube_FW_N6/Drivers/STM32N6xx_HAL_Driver/Src/stm32n6xx_hal_dma.c **** 
 714:../STM32Cube_FW_N6/Drivers/STM32N6xx_HAL_Driver/Src/stm32n6xx_hal_dma.c ****       /* Clear remaining data size to ensure loading linked-list from memory next start */
 715:../STM32Cube_FW_N6/Drivers/STM32N6xx_HAL_Driver/Src/stm32n6xx_hal_dma.c ****       hdma->Instance->CBR1 = 0U;
 716:../STM32Cube_FW_N6/Drivers/STM32N6xx_HAL_Driver/Src/stm32n6xx_hal_dma.c ****     }
 717:../STM32Cube_FW_N6/Drivers/STM32N6xx_HAL_Driver/Src/stm32n6xx_hal_dma.c **** 
 718:../STM32Cube_FW_N6/Drivers/STM32N6xx_HAL_Driver/Src/stm32n6xx_hal_dma.c ****     /* Process Unlocked */
 719:../STM32Cube_FW_N6/Drivers/STM32N6xx_HAL_Driver/Src/stm32n6xx_hal_dma.c ****     __HAL_UNLOCK(hdma);
 720:../STM32Cube_FW_N6/Drivers/STM32N6xx_HAL_Driver/Src/stm32n6xx_hal_dma.c ****   }
 721:../STM32Cube_FW_N6/Drivers/STM32N6xx_HAL_Driver/Src/stm32n6xx_hal_dma.c **** 
 722:../STM32Cube_FW_N6/Drivers/STM32N6xx_HAL_Driver/Src/stm32n6xx_hal_dma.c ****   return HAL_OK;
 723:../STM32Cube_FW_N6/Drivers/STM32N6xx_HAL_Driver/Src/stm32n6xx_hal_dma.c **** }
 724:../STM32Cube_FW_N6/Drivers/STM32N6xx_HAL_Driver/Src/stm32n6xx_hal_dma.c **** 
 725:../STM32Cube_FW_N6/Drivers/STM32N6xx_HAL_Driver/Src/stm32n6xx_hal_dma.c **** /**
 726:../STM32Cube_FW_N6/Drivers/STM32N6xx_HAL_Driver/Src/stm32n6xx_hal_dma.c ****   * @brief  Abort any on-going DMA channel transfer in interrupt mode (Non-blocking mode).
 727:../STM32Cube_FW_N6/Drivers/STM32N6xx_HAL_Driver/Src/stm32n6xx_hal_dma.c ****   * @param  hdma : Pointer to a DMA_HandleTypeDef structure that contains the configuration informa
 728:../STM32Cube_FW_N6/Drivers/STM32N6xx_HAL_Driver/Src/stm32n6xx_hal_dma.c ****   *                specified DMA Channel.
 729:../STM32Cube_FW_N6/Drivers/STM32N6xx_HAL_Driver/Src/stm32n6xx_hal_dma.c ****   * @retval HAL status.
 730:../STM32Cube_FW_N6/Drivers/STM32N6xx_HAL_Driver/Src/stm32n6xx_hal_dma.c ****   */
 731:../STM32Cube_FW_N6/Drivers/STM32N6xx_HAL_Driver/Src/stm32n6xx_hal_dma.c **** HAL_StatusTypeDef HAL_DMA_Abort_IT(DMA_HandleTypeDef *const hdma)
 732:../STM32Cube_FW_N6/Drivers/STM32N6xx_HAL_Driver/Src/stm32n6xx_hal_dma.c **** {
 733:../STM32Cube_FW_N6/Drivers/STM32N6xx_HAL_Driver/Src/stm32n6xx_hal_dma.c ****   /* Check the DMA peripheral handle parameter */
 734:../STM32Cube_FW_N6/Drivers/STM32N6xx_HAL_Driver/Src/stm32n6xx_hal_dma.c ****   if (hdma == NULL)
 735:../STM32Cube_FW_N6/Drivers/STM32N6xx_HAL_Driver/Src/stm32n6xx_hal_dma.c ****   {
 736:../STM32Cube_FW_N6/Drivers/STM32N6xx_HAL_Driver/Src/stm32n6xx_hal_dma.c ****     return HAL_ERROR;
 737:../STM32Cube_FW_N6/Drivers/STM32N6xx_HAL_Driver/Src/stm32n6xx_hal_dma.c ****   }
 738:../STM32Cube_FW_N6/Drivers/STM32N6xx_HAL_Driver/Src/stm32n6xx_hal_dma.c **** 
 739:../STM32Cube_FW_N6/Drivers/STM32N6xx_HAL_Driver/Src/stm32n6xx_hal_dma.c ****   /* Check DMA channel state */
 740:../STM32Cube_FW_N6/Drivers/STM32N6xx_HAL_Driver/Src/stm32n6xx_hal_dma.c ****   if (hdma->State != HAL_DMA_STATE_BUSY)
 741:../STM32Cube_FW_N6/Drivers/STM32N6xx_HAL_Driver/Src/stm32n6xx_hal_dma.c ****   {
 742:../STM32Cube_FW_N6/Drivers/STM32N6xx_HAL_Driver/Src/stm32n6xx_hal_dma.c ****     /* Update the DMA channel error code */
 743:../STM32Cube_FW_N6/Drivers/STM32N6xx_HAL_Driver/Src/stm32n6xx_hal_dma.c ****     hdma->ErrorCode = HAL_DMA_ERROR_NO_XFER;
 744:../STM32Cube_FW_N6/Drivers/STM32N6xx_HAL_Driver/Src/stm32n6xx_hal_dma.c **** 
 745:../STM32Cube_FW_N6/Drivers/STM32N6xx_HAL_Driver/Src/stm32n6xx_hal_dma.c ****     return HAL_ERROR;
 746:../STM32Cube_FW_N6/Drivers/STM32N6xx_HAL_Driver/Src/stm32n6xx_hal_dma.c ****   }
 747:../STM32Cube_FW_N6/Drivers/STM32N6xx_HAL_Driver/Src/stm32n6xx_hal_dma.c ****   else
 748:../STM32Cube_FW_N6/Drivers/STM32N6xx_HAL_Driver/Src/stm32n6xx_hal_dma.c ****   {
 749:../STM32Cube_FW_N6/Drivers/STM32N6xx_HAL_Driver/Src/stm32n6xx_hal_dma.c ****     /* Update the DMA channel state */
 750:../STM32Cube_FW_N6/Drivers/STM32N6xx_HAL_Driver/Src/stm32n6xx_hal_dma.c ****     hdma->State = HAL_DMA_STATE_ABORT;
 751:../STM32Cube_FW_N6/Drivers/STM32N6xx_HAL_Driver/Src/stm32n6xx_hal_dma.c **** 
 752:../STM32Cube_FW_N6/Drivers/STM32N6xx_HAL_Driver/Src/stm32n6xx_hal_dma.c ****     /* Suspend the channel and activate suspend interrupt */
 753:../STM32Cube_FW_N6/Drivers/STM32N6xx_HAL_Driver/Src/stm32n6xx_hal_dma.c ****     hdma->Instance->CCR |= (DMA_CCR_SUSP | DMA_CCR_SUSPIE);
 754:../STM32Cube_FW_N6/Drivers/STM32N6xx_HAL_Driver/Src/stm32n6xx_hal_dma.c ****   }
 755:../STM32Cube_FW_N6/Drivers/STM32N6xx_HAL_Driver/Src/stm32n6xx_hal_dma.c **** 
 756:../STM32Cube_FW_N6/Drivers/STM32N6xx_HAL_Driver/Src/stm32n6xx_hal_dma.c ****   return HAL_OK;
 757:../STM32Cube_FW_N6/Drivers/STM32N6xx_HAL_Driver/Src/stm32n6xx_hal_dma.c **** }
ARM GAS  /tmp/ccId6s4B.s 			page 32


 758:../STM32Cube_FW_N6/Drivers/STM32N6xx_HAL_Driver/Src/stm32n6xx_hal_dma.c **** 
 759:../STM32Cube_FW_N6/Drivers/STM32N6xx_HAL_Driver/Src/stm32n6xx_hal_dma.c **** /**
 760:../STM32Cube_FW_N6/Drivers/STM32N6xx_HAL_Driver/Src/stm32n6xx_hal_dma.c ****   * @brief  Polling for transfer status (Blocking mode).
 761:../STM32Cube_FW_N6/Drivers/STM32N6xx_HAL_Driver/Src/stm32n6xx_hal_dma.c ****   * @param  hdma          : Pointer to a DMA_HandleTypeDef structure that contains the configuratio
 762:../STM32Cube_FW_N6/Drivers/STM32N6xx_HAL_Driver/Src/stm32n6xx_hal_dma.c ****   *                         specified DMA Channel.
 763:../STM32Cube_FW_N6/Drivers/STM32N6xx_HAL_Driver/Src/stm32n6xx_hal_dma.c ****   * @param  CompleteLevel : Specifies the DMA level complete.
 764:../STM32Cube_FW_N6/Drivers/STM32N6xx_HAL_Driver/Src/stm32n6xx_hal_dma.c ****   * @param  Timeout       : Timeout duration.
 765:../STM32Cube_FW_N6/Drivers/STM32N6xx_HAL_Driver/Src/stm32n6xx_hal_dma.c ****   * @retval HAL status
 766:../STM32Cube_FW_N6/Drivers/STM32N6xx_HAL_Driver/Src/stm32n6xx_hal_dma.c ****   */
 767:../STM32Cube_FW_N6/Drivers/STM32N6xx_HAL_Driver/Src/stm32n6xx_hal_dma.c **** HAL_StatusTypeDef HAL_DMA_PollForTransfer(DMA_HandleTypeDef *const hdma,
 768:../STM32Cube_FW_N6/Drivers/STM32N6xx_HAL_Driver/Src/stm32n6xx_hal_dma.c ****                                           HAL_DMA_LevelCompleteTypeDef CompleteLevel,
 769:../STM32Cube_FW_N6/Drivers/STM32N6xx_HAL_Driver/Src/stm32n6xx_hal_dma.c ****                                           uint32_t Timeout)
 770:../STM32Cube_FW_N6/Drivers/STM32N6xx_HAL_Driver/Src/stm32n6xx_hal_dma.c **** {
 771:../STM32Cube_FW_N6/Drivers/STM32N6xx_HAL_Driver/Src/stm32n6xx_hal_dma.c ****   /* Get tick number */
 772:../STM32Cube_FW_N6/Drivers/STM32N6xx_HAL_Driver/Src/stm32n6xx_hal_dma.c ****   uint32_t tickstart = HAL_GetTick();
 773:../STM32Cube_FW_N6/Drivers/STM32N6xx_HAL_Driver/Src/stm32n6xx_hal_dma.c ****   uint32_t level_flag;
 774:../STM32Cube_FW_N6/Drivers/STM32N6xx_HAL_Driver/Src/stm32n6xx_hal_dma.c ****   uint32_t tmp_csr;
 775:../STM32Cube_FW_N6/Drivers/STM32N6xx_HAL_Driver/Src/stm32n6xx_hal_dma.c **** 
 776:../STM32Cube_FW_N6/Drivers/STM32N6xx_HAL_Driver/Src/stm32n6xx_hal_dma.c ****   /* Check the DMA peripheral handle parameter */
 777:../STM32Cube_FW_N6/Drivers/STM32N6xx_HAL_Driver/Src/stm32n6xx_hal_dma.c ****   if (hdma == NULL)
 778:../STM32Cube_FW_N6/Drivers/STM32N6xx_HAL_Driver/Src/stm32n6xx_hal_dma.c ****   {
 779:../STM32Cube_FW_N6/Drivers/STM32N6xx_HAL_Driver/Src/stm32n6xx_hal_dma.c ****     return HAL_ERROR;
 780:../STM32Cube_FW_N6/Drivers/STM32N6xx_HAL_Driver/Src/stm32n6xx_hal_dma.c ****   }
 781:../STM32Cube_FW_N6/Drivers/STM32N6xx_HAL_Driver/Src/stm32n6xx_hal_dma.c **** 
 782:../STM32Cube_FW_N6/Drivers/STM32N6xx_HAL_Driver/Src/stm32n6xx_hal_dma.c ****   /* Check the parameters */
 783:../STM32Cube_FW_N6/Drivers/STM32N6xx_HAL_Driver/Src/stm32n6xx_hal_dma.c ****   assert_param(IS_DMA_LEVEL_COMPLETE(CompleteLevel));
 784:../STM32Cube_FW_N6/Drivers/STM32N6xx_HAL_Driver/Src/stm32n6xx_hal_dma.c **** 
 785:../STM32Cube_FW_N6/Drivers/STM32N6xx_HAL_Driver/Src/stm32n6xx_hal_dma.c ****   /* Check DMA channel state */
 786:../STM32Cube_FW_N6/Drivers/STM32N6xx_HAL_Driver/Src/stm32n6xx_hal_dma.c ****   if (hdma->State != HAL_DMA_STATE_BUSY)
 787:../STM32Cube_FW_N6/Drivers/STM32N6xx_HAL_Driver/Src/stm32n6xx_hal_dma.c ****   {
 788:../STM32Cube_FW_N6/Drivers/STM32N6xx_HAL_Driver/Src/stm32n6xx_hal_dma.c ****     /* Update the DMA channel error code */
 789:../STM32Cube_FW_N6/Drivers/STM32N6xx_HAL_Driver/Src/stm32n6xx_hal_dma.c ****     hdma->ErrorCode = HAL_DMA_ERROR_NO_XFER;
 790:../STM32Cube_FW_N6/Drivers/STM32N6xx_HAL_Driver/Src/stm32n6xx_hal_dma.c **** 
 791:../STM32Cube_FW_N6/Drivers/STM32N6xx_HAL_Driver/Src/stm32n6xx_hal_dma.c ****     /* Process Unlocked */
 792:../STM32Cube_FW_N6/Drivers/STM32N6xx_HAL_Driver/Src/stm32n6xx_hal_dma.c ****     __HAL_UNLOCK(hdma);
 793:../STM32Cube_FW_N6/Drivers/STM32N6xx_HAL_Driver/Src/stm32n6xx_hal_dma.c **** 
 794:../STM32Cube_FW_N6/Drivers/STM32N6xx_HAL_Driver/Src/stm32n6xx_hal_dma.c ****     return HAL_ERROR;
 795:../STM32Cube_FW_N6/Drivers/STM32N6xx_HAL_Driver/Src/stm32n6xx_hal_dma.c ****   }
 796:../STM32Cube_FW_N6/Drivers/STM32N6xx_HAL_Driver/Src/stm32n6xx_hal_dma.c **** 
 797:../STM32Cube_FW_N6/Drivers/STM32N6xx_HAL_Driver/Src/stm32n6xx_hal_dma.c ****   /* Polling mode is not supported in circular mode */
 798:../STM32Cube_FW_N6/Drivers/STM32N6xx_HAL_Driver/Src/stm32n6xx_hal_dma.c ****   if ((hdma->Mode & DMA_LINKEDLIST_CIRCULAR) == DMA_LINKEDLIST_CIRCULAR)
 799:../STM32Cube_FW_N6/Drivers/STM32N6xx_HAL_Driver/Src/stm32n6xx_hal_dma.c ****   {
 800:../STM32Cube_FW_N6/Drivers/STM32N6xx_HAL_Driver/Src/stm32n6xx_hal_dma.c ****     /* Update the DMA channel error code */
 801:../STM32Cube_FW_N6/Drivers/STM32N6xx_HAL_Driver/Src/stm32n6xx_hal_dma.c ****     hdma->ErrorCode = HAL_DMA_ERROR_NOT_SUPPORTED;
 802:../STM32Cube_FW_N6/Drivers/STM32N6xx_HAL_Driver/Src/stm32n6xx_hal_dma.c **** 
 803:../STM32Cube_FW_N6/Drivers/STM32N6xx_HAL_Driver/Src/stm32n6xx_hal_dma.c ****     return HAL_ERROR;
 804:../STM32Cube_FW_N6/Drivers/STM32N6xx_HAL_Driver/Src/stm32n6xx_hal_dma.c ****   }
 805:../STM32Cube_FW_N6/Drivers/STM32N6xx_HAL_Driver/Src/stm32n6xx_hal_dma.c **** 
 806:../STM32Cube_FW_N6/Drivers/STM32N6xx_HAL_Driver/Src/stm32n6xx_hal_dma.c ****   /* Get the level transfer complete flag */
 807:../STM32Cube_FW_N6/Drivers/STM32N6xx_HAL_Driver/Src/stm32n6xx_hal_dma.c ****   level_flag = ((CompleteLevel == HAL_DMA_FULL_TRANSFER) ? DMA_FLAG_IDLE : DMA_FLAG_HT);
 808:../STM32Cube_FW_N6/Drivers/STM32N6xx_HAL_Driver/Src/stm32n6xx_hal_dma.c **** 
 809:../STM32Cube_FW_N6/Drivers/STM32N6xx_HAL_Driver/Src/stm32n6xx_hal_dma.c ****   /* Get DMA channel status */
 810:../STM32Cube_FW_N6/Drivers/STM32N6xx_HAL_Driver/Src/stm32n6xx_hal_dma.c ****   tmp_csr = hdma->Instance->CSR;
 811:../STM32Cube_FW_N6/Drivers/STM32N6xx_HAL_Driver/Src/stm32n6xx_hal_dma.c **** 
 812:../STM32Cube_FW_N6/Drivers/STM32N6xx_HAL_Driver/Src/stm32n6xx_hal_dma.c ****   while ((tmp_csr & level_flag) == 0U)
 813:../STM32Cube_FW_N6/Drivers/STM32N6xx_HAL_Driver/Src/stm32n6xx_hal_dma.c ****   {
 814:../STM32Cube_FW_N6/Drivers/STM32N6xx_HAL_Driver/Src/stm32n6xx_hal_dma.c ****     /* Check for the timeout */
ARM GAS  /tmp/ccId6s4B.s 			page 33


 815:../STM32Cube_FW_N6/Drivers/STM32N6xx_HAL_Driver/Src/stm32n6xx_hal_dma.c ****     if (Timeout != HAL_MAX_DELAY)
 816:../STM32Cube_FW_N6/Drivers/STM32N6xx_HAL_Driver/Src/stm32n6xx_hal_dma.c ****     {
 817:../STM32Cube_FW_N6/Drivers/STM32N6xx_HAL_Driver/Src/stm32n6xx_hal_dma.c ****       if (((HAL_GetTick() - tickstart) > Timeout) || (Timeout == 0U))
 818:../STM32Cube_FW_N6/Drivers/STM32N6xx_HAL_Driver/Src/stm32n6xx_hal_dma.c ****       {
 819:../STM32Cube_FW_N6/Drivers/STM32N6xx_HAL_Driver/Src/stm32n6xx_hal_dma.c ****         /* Update the DMA channel error code */
 820:../STM32Cube_FW_N6/Drivers/STM32N6xx_HAL_Driver/Src/stm32n6xx_hal_dma.c ****         hdma->ErrorCode |= HAL_DMA_ERROR_TIMEOUT;
 821:../STM32Cube_FW_N6/Drivers/STM32N6xx_HAL_Driver/Src/stm32n6xx_hal_dma.c **** 
 822:../STM32Cube_FW_N6/Drivers/STM32N6xx_HAL_Driver/Src/stm32n6xx_hal_dma.c ****         /*
 823:../STM32Cube_FW_N6/Drivers/STM32N6xx_HAL_Driver/Src/stm32n6xx_hal_dma.c ****           If timeout, abort the current transfer.
 824:../STM32Cube_FW_N6/Drivers/STM32N6xx_HAL_Driver/Src/stm32n6xx_hal_dma.c ****           Note that the Abort function will
 825:../STM32Cube_FW_N6/Drivers/STM32N6xx_HAL_Driver/Src/stm32n6xx_hal_dma.c ****           - Clear all transfer flags.
 826:../STM32Cube_FW_N6/Drivers/STM32N6xx_HAL_Driver/Src/stm32n6xx_hal_dma.c ****           - Unlock.
 827:../STM32Cube_FW_N6/Drivers/STM32N6xx_HAL_Driver/Src/stm32n6xx_hal_dma.c ****           - Set the State.
 828:../STM32Cube_FW_N6/Drivers/STM32N6xx_HAL_Driver/Src/stm32n6xx_hal_dma.c ****         */
 829:../STM32Cube_FW_N6/Drivers/STM32N6xx_HAL_Driver/Src/stm32n6xx_hal_dma.c ****         (void)HAL_DMA_Abort(hdma);
 830:../STM32Cube_FW_N6/Drivers/STM32N6xx_HAL_Driver/Src/stm32n6xx_hal_dma.c **** 
 831:../STM32Cube_FW_N6/Drivers/STM32N6xx_HAL_Driver/Src/stm32n6xx_hal_dma.c ****         return HAL_ERROR;
 832:../STM32Cube_FW_N6/Drivers/STM32N6xx_HAL_Driver/Src/stm32n6xx_hal_dma.c ****       }
 833:../STM32Cube_FW_N6/Drivers/STM32N6xx_HAL_Driver/Src/stm32n6xx_hal_dma.c ****     }
 834:../STM32Cube_FW_N6/Drivers/STM32N6xx_HAL_Driver/Src/stm32n6xx_hal_dma.c **** 
 835:../STM32Cube_FW_N6/Drivers/STM32N6xx_HAL_Driver/Src/stm32n6xx_hal_dma.c ****     /* Get a newer CSR register value */
 836:../STM32Cube_FW_N6/Drivers/STM32N6xx_HAL_Driver/Src/stm32n6xx_hal_dma.c ****     tmp_csr = hdma->Instance->CSR;
 837:../STM32Cube_FW_N6/Drivers/STM32N6xx_HAL_Driver/Src/stm32n6xx_hal_dma.c ****   }
 838:../STM32Cube_FW_N6/Drivers/STM32N6xx_HAL_Driver/Src/stm32n6xx_hal_dma.c **** 
 839:../STM32Cube_FW_N6/Drivers/STM32N6xx_HAL_Driver/Src/stm32n6xx_hal_dma.c ****   /* Check trigger overrun flag */
 840:../STM32Cube_FW_N6/Drivers/STM32N6xx_HAL_Driver/Src/stm32n6xx_hal_dma.c ****   if ((tmp_csr & DMA_FLAG_TO) != 0U)
 841:../STM32Cube_FW_N6/Drivers/STM32N6xx_HAL_Driver/Src/stm32n6xx_hal_dma.c ****   {
 842:../STM32Cube_FW_N6/Drivers/STM32N6xx_HAL_Driver/Src/stm32n6xx_hal_dma.c ****     /* Update the DMA channel error code */
 843:../STM32Cube_FW_N6/Drivers/STM32N6xx_HAL_Driver/Src/stm32n6xx_hal_dma.c ****     hdma->ErrorCode |= HAL_DMA_ERROR_TO;
 844:../STM32Cube_FW_N6/Drivers/STM32N6xx_HAL_Driver/Src/stm32n6xx_hal_dma.c **** 
 845:../STM32Cube_FW_N6/Drivers/STM32N6xx_HAL_Driver/Src/stm32n6xx_hal_dma.c ****     /* Clear the error flag */
 846:../STM32Cube_FW_N6/Drivers/STM32N6xx_HAL_Driver/Src/stm32n6xx_hal_dma.c ****     __HAL_DMA_CLEAR_FLAG(hdma, DMA_FLAG_TO);
 847:../STM32Cube_FW_N6/Drivers/STM32N6xx_HAL_Driver/Src/stm32n6xx_hal_dma.c ****   }
 848:../STM32Cube_FW_N6/Drivers/STM32N6xx_HAL_Driver/Src/stm32n6xx_hal_dma.c **** 
 849:../STM32Cube_FW_N6/Drivers/STM32N6xx_HAL_Driver/Src/stm32n6xx_hal_dma.c ****   /* Check error flags */
 850:../STM32Cube_FW_N6/Drivers/STM32N6xx_HAL_Driver/Src/stm32n6xx_hal_dma.c ****   if ((tmp_csr & (DMA_FLAG_DTE | DMA_FLAG_ULE | DMA_FLAG_USE)) != 0U)
 851:../STM32Cube_FW_N6/Drivers/STM32N6xx_HAL_Driver/Src/stm32n6xx_hal_dma.c ****   {
 852:../STM32Cube_FW_N6/Drivers/STM32N6xx_HAL_Driver/Src/stm32n6xx_hal_dma.c ****     /* Check the data transfer error flag */
 853:../STM32Cube_FW_N6/Drivers/STM32N6xx_HAL_Driver/Src/stm32n6xx_hal_dma.c ****     if ((tmp_csr & DMA_FLAG_DTE) != 0U)
 854:../STM32Cube_FW_N6/Drivers/STM32N6xx_HAL_Driver/Src/stm32n6xx_hal_dma.c ****     {
 855:../STM32Cube_FW_N6/Drivers/STM32N6xx_HAL_Driver/Src/stm32n6xx_hal_dma.c ****       /* Update the DMA channel error code */
 856:../STM32Cube_FW_N6/Drivers/STM32N6xx_HAL_Driver/Src/stm32n6xx_hal_dma.c ****       hdma->ErrorCode |= HAL_DMA_ERROR_DTE;
 857:../STM32Cube_FW_N6/Drivers/STM32N6xx_HAL_Driver/Src/stm32n6xx_hal_dma.c **** 
 858:../STM32Cube_FW_N6/Drivers/STM32N6xx_HAL_Driver/Src/stm32n6xx_hal_dma.c ****       /* Clear the error flag */
 859:../STM32Cube_FW_N6/Drivers/STM32N6xx_HAL_Driver/Src/stm32n6xx_hal_dma.c ****       __HAL_DMA_CLEAR_FLAG(hdma, DMA_FLAG_DTE);
 860:../STM32Cube_FW_N6/Drivers/STM32N6xx_HAL_Driver/Src/stm32n6xx_hal_dma.c ****     }
 861:../STM32Cube_FW_N6/Drivers/STM32N6xx_HAL_Driver/Src/stm32n6xx_hal_dma.c **** 
 862:../STM32Cube_FW_N6/Drivers/STM32N6xx_HAL_Driver/Src/stm32n6xx_hal_dma.c ****     /* Check the update link error flag */
 863:../STM32Cube_FW_N6/Drivers/STM32N6xx_HAL_Driver/Src/stm32n6xx_hal_dma.c ****     if ((tmp_csr & DMA_FLAG_ULE) != 0U)
 864:../STM32Cube_FW_N6/Drivers/STM32N6xx_HAL_Driver/Src/stm32n6xx_hal_dma.c ****     {
 865:../STM32Cube_FW_N6/Drivers/STM32N6xx_HAL_Driver/Src/stm32n6xx_hal_dma.c ****       /* Update the DMA channel error code */
 866:../STM32Cube_FW_N6/Drivers/STM32N6xx_HAL_Driver/Src/stm32n6xx_hal_dma.c ****       hdma->ErrorCode |= HAL_DMA_ERROR_ULE;
 867:../STM32Cube_FW_N6/Drivers/STM32N6xx_HAL_Driver/Src/stm32n6xx_hal_dma.c **** 
 868:../STM32Cube_FW_N6/Drivers/STM32N6xx_HAL_Driver/Src/stm32n6xx_hal_dma.c ****       /* Clear the error flag */
 869:../STM32Cube_FW_N6/Drivers/STM32N6xx_HAL_Driver/Src/stm32n6xx_hal_dma.c ****       __HAL_DMA_CLEAR_FLAG(hdma, DMA_FLAG_ULE);
 870:../STM32Cube_FW_N6/Drivers/STM32N6xx_HAL_Driver/Src/stm32n6xx_hal_dma.c ****     }
 871:../STM32Cube_FW_N6/Drivers/STM32N6xx_HAL_Driver/Src/stm32n6xx_hal_dma.c **** 
ARM GAS  /tmp/ccId6s4B.s 			page 34


 872:../STM32Cube_FW_N6/Drivers/STM32N6xx_HAL_Driver/Src/stm32n6xx_hal_dma.c ****     /* Check the user setting error flag */
 873:../STM32Cube_FW_N6/Drivers/STM32N6xx_HAL_Driver/Src/stm32n6xx_hal_dma.c ****     if ((tmp_csr & DMA_FLAG_USE) != 0U)
 874:../STM32Cube_FW_N6/Drivers/STM32N6xx_HAL_Driver/Src/stm32n6xx_hal_dma.c ****     {
 875:../STM32Cube_FW_N6/Drivers/STM32N6xx_HAL_Driver/Src/stm32n6xx_hal_dma.c ****       /* Update the DMA channel error code */
 876:../STM32Cube_FW_N6/Drivers/STM32N6xx_HAL_Driver/Src/stm32n6xx_hal_dma.c ****       hdma->ErrorCode |= HAL_DMA_ERROR_USE;
 877:../STM32Cube_FW_N6/Drivers/STM32N6xx_HAL_Driver/Src/stm32n6xx_hal_dma.c **** 
 878:../STM32Cube_FW_N6/Drivers/STM32N6xx_HAL_Driver/Src/stm32n6xx_hal_dma.c ****       /* Clear the error flag */
 879:../STM32Cube_FW_N6/Drivers/STM32N6xx_HAL_Driver/Src/stm32n6xx_hal_dma.c ****       __HAL_DMA_CLEAR_FLAG(hdma, DMA_FLAG_USE);
 880:../STM32Cube_FW_N6/Drivers/STM32N6xx_HAL_Driver/Src/stm32n6xx_hal_dma.c ****     }
 881:../STM32Cube_FW_N6/Drivers/STM32N6xx_HAL_Driver/Src/stm32n6xx_hal_dma.c **** 
 882:../STM32Cube_FW_N6/Drivers/STM32N6xx_HAL_Driver/Src/stm32n6xx_hal_dma.c ****     /* Reset the channel */
 883:../STM32Cube_FW_N6/Drivers/STM32N6xx_HAL_Driver/Src/stm32n6xx_hal_dma.c ****     hdma->Instance->CCR |= DMA_CCR_RESET;
 884:../STM32Cube_FW_N6/Drivers/STM32N6xx_HAL_Driver/Src/stm32n6xx_hal_dma.c **** 
 885:../STM32Cube_FW_N6/Drivers/STM32N6xx_HAL_Driver/Src/stm32n6xx_hal_dma.c ****     /* Update the DMA channel state */
 886:../STM32Cube_FW_N6/Drivers/STM32N6xx_HAL_Driver/Src/stm32n6xx_hal_dma.c ****     hdma->State = HAL_DMA_STATE_READY;
 887:../STM32Cube_FW_N6/Drivers/STM32N6xx_HAL_Driver/Src/stm32n6xx_hal_dma.c **** 
 888:../STM32Cube_FW_N6/Drivers/STM32N6xx_HAL_Driver/Src/stm32n6xx_hal_dma.c ****     /* Check DMA channel transfer mode */
 889:../STM32Cube_FW_N6/Drivers/STM32N6xx_HAL_Driver/Src/stm32n6xx_hal_dma.c ****     if ((hdma->Mode & DMA_LINKEDLIST) == DMA_LINKEDLIST)
 890:../STM32Cube_FW_N6/Drivers/STM32N6xx_HAL_Driver/Src/stm32n6xx_hal_dma.c ****     {
 891:../STM32Cube_FW_N6/Drivers/STM32N6xx_HAL_Driver/Src/stm32n6xx_hal_dma.c ****       /* Update the linked-list queue state */
 892:../STM32Cube_FW_N6/Drivers/STM32N6xx_HAL_Driver/Src/stm32n6xx_hal_dma.c ****       hdma->LinkedListQueue->State = HAL_DMA_QUEUE_STATE_READY;
 893:../STM32Cube_FW_N6/Drivers/STM32N6xx_HAL_Driver/Src/stm32n6xx_hal_dma.c ****     }
 894:../STM32Cube_FW_N6/Drivers/STM32N6xx_HAL_Driver/Src/stm32n6xx_hal_dma.c **** 
 895:../STM32Cube_FW_N6/Drivers/STM32N6xx_HAL_Driver/Src/stm32n6xx_hal_dma.c ****     /* Process Unlocked */
 896:../STM32Cube_FW_N6/Drivers/STM32N6xx_HAL_Driver/Src/stm32n6xx_hal_dma.c ****     __HAL_UNLOCK(hdma);
 897:../STM32Cube_FW_N6/Drivers/STM32N6xx_HAL_Driver/Src/stm32n6xx_hal_dma.c **** 
 898:../STM32Cube_FW_N6/Drivers/STM32N6xx_HAL_Driver/Src/stm32n6xx_hal_dma.c ****     return HAL_ERROR;
 899:../STM32Cube_FW_N6/Drivers/STM32N6xx_HAL_Driver/Src/stm32n6xx_hal_dma.c ****   }
 900:../STM32Cube_FW_N6/Drivers/STM32N6xx_HAL_Driver/Src/stm32n6xx_hal_dma.c **** 
 901:../STM32Cube_FW_N6/Drivers/STM32N6xx_HAL_Driver/Src/stm32n6xx_hal_dma.c ****   /* Clear the transfer level flag */
 902:../STM32Cube_FW_N6/Drivers/STM32N6xx_HAL_Driver/Src/stm32n6xx_hal_dma.c ****   if (CompleteLevel == HAL_DMA_HALF_TRANSFER)
 903:../STM32Cube_FW_N6/Drivers/STM32N6xx_HAL_Driver/Src/stm32n6xx_hal_dma.c ****   {
 904:../STM32Cube_FW_N6/Drivers/STM32N6xx_HAL_Driver/Src/stm32n6xx_hal_dma.c ****     /* Clear the Half Transfer flag */
 905:../STM32Cube_FW_N6/Drivers/STM32N6xx_HAL_Driver/Src/stm32n6xx_hal_dma.c ****     __HAL_DMA_CLEAR_FLAG(hdma, DMA_FLAG_HT);
 906:../STM32Cube_FW_N6/Drivers/STM32N6xx_HAL_Driver/Src/stm32n6xx_hal_dma.c ****   }
 907:../STM32Cube_FW_N6/Drivers/STM32N6xx_HAL_Driver/Src/stm32n6xx_hal_dma.c ****   else if (CompleteLevel == HAL_DMA_FULL_TRANSFER)
 908:../STM32Cube_FW_N6/Drivers/STM32N6xx_HAL_Driver/Src/stm32n6xx_hal_dma.c ****   {
 909:../STM32Cube_FW_N6/Drivers/STM32N6xx_HAL_Driver/Src/stm32n6xx_hal_dma.c ****     /* Clear the transfer flags */
 910:../STM32Cube_FW_N6/Drivers/STM32N6xx_HAL_Driver/Src/stm32n6xx_hal_dma.c ****     __HAL_DMA_CLEAR_FLAG(hdma, (DMA_FLAG_TC | DMA_FLAG_HT));
 911:../STM32Cube_FW_N6/Drivers/STM32N6xx_HAL_Driver/Src/stm32n6xx_hal_dma.c **** 
 912:../STM32Cube_FW_N6/Drivers/STM32N6xx_HAL_Driver/Src/stm32n6xx_hal_dma.c ****     /* Update the DMA channel state */
 913:../STM32Cube_FW_N6/Drivers/STM32N6xx_HAL_Driver/Src/stm32n6xx_hal_dma.c ****     hdma->State = HAL_DMA_STATE_READY;
 914:../STM32Cube_FW_N6/Drivers/STM32N6xx_HAL_Driver/Src/stm32n6xx_hal_dma.c **** 
 915:../STM32Cube_FW_N6/Drivers/STM32N6xx_HAL_Driver/Src/stm32n6xx_hal_dma.c ****     /* Check DMA channel transfer mode */
 916:../STM32Cube_FW_N6/Drivers/STM32N6xx_HAL_Driver/Src/stm32n6xx_hal_dma.c ****     if ((hdma->Mode & DMA_LINKEDLIST) == DMA_LINKEDLIST)
 917:../STM32Cube_FW_N6/Drivers/STM32N6xx_HAL_Driver/Src/stm32n6xx_hal_dma.c ****     {
 918:../STM32Cube_FW_N6/Drivers/STM32N6xx_HAL_Driver/Src/stm32n6xx_hal_dma.c ****       /* Update the linked-list queue state */
 919:../STM32Cube_FW_N6/Drivers/STM32N6xx_HAL_Driver/Src/stm32n6xx_hal_dma.c ****       hdma->LinkedListQueue->State = HAL_DMA_QUEUE_STATE_READY;
 920:../STM32Cube_FW_N6/Drivers/STM32N6xx_HAL_Driver/Src/stm32n6xx_hal_dma.c ****     }
 921:../STM32Cube_FW_N6/Drivers/STM32N6xx_HAL_Driver/Src/stm32n6xx_hal_dma.c **** 
 922:../STM32Cube_FW_N6/Drivers/STM32N6xx_HAL_Driver/Src/stm32n6xx_hal_dma.c ****     /* Process unlocked */
 923:../STM32Cube_FW_N6/Drivers/STM32N6xx_HAL_Driver/Src/stm32n6xx_hal_dma.c ****     __HAL_UNLOCK(hdma);
 924:../STM32Cube_FW_N6/Drivers/STM32N6xx_HAL_Driver/Src/stm32n6xx_hal_dma.c ****   }
 925:../STM32Cube_FW_N6/Drivers/STM32N6xx_HAL_Driver/Src/stm32n6xx_hal_dma.c ****   else
 926:../STM32Cube_FW_N6/Drivers/STM32N6xx_HAL_Driver/Src/stm32n6xx_hal_dma.c ****   {
 927:../STM32Cube_FW_N6/Drivers/STM32N6xx_HAL_Driver/Src/stm32n6xx_hal_dma.c ****     return HAL_ERROR;
 928:../STM32Cube_FW_N6/Drivers/STM32N6xx_HAL_Driver/Src/stm32n6xx_hal_dma.c ****   }
ARM GAS  /tmp/ccId6s4B.s 			page 35


 929:../STM32Cube_FW_N6/Drivers/STM32N6xx_HAL_Driver/Src/stm32n6xx_hal_dma.c **** 
 930:../STM32Cube_FW_N6/Drivers/STM32N6xx_HAL_Driver/Src/stm32n6xx_hal_dma.c ****   return HAL_OK;
 931:../STM32Cube_FW_N6/Drivers/STM32N6xx_HAL_Driver/Src/stm32n6xx_hal_dma.c **** }
 932:../STM32Cube_FW_N6/Drivers/STM32N6xx_HAL_Driver/Src/stm32n6xx_hal_dma.c **** 
 933:../STM32Cube_FW_N6/Drivers/STM32N6xx_HAL_Driver/Src/stm32n6xx_hal_dma.c **** /**
 934:../STM32Cube_FW_N6/Drivers/STM32N6xx_HAL_Driver/Src/stm32n6xx_hal_dma.c ****   * @brief  Handle DMA interrupt request (Non-blocking mode).
 935:../STM32Cube_FW_N6/Drivers/STM32N6xx_HAL_Driver/Src/stm32n6xx_hal_dma.c ****   * @param  hdma : Pointer to a DMA_HandleTypeDef structure that contains the configuration informa
 936:../STM32Cube_FW_N6/Drivers/STM32N6xx_HAL_Driver/Src/stm32n6xx_hal_dma.c ****   *                specified DMA Channel.
 937:../STM32Cube_FW_N6/Drivers/STM32N6xx_HAL_Driver/Src/stm32n6xx_hal_dma.c ****   * @retval None.
 938:../STM32Cube_FW_N6/Drivers/STM32N6xx_HAL_Driver/Src/stm32n6xx_hal_dma.c ****   */
 939:../STM32Cube_FW_N6/Drivers/STM32N6xx_HAL_Driver/Src/stm32n6xx_hal_dma.c **** void HAL_DMA_IRQHandler(DMA_HandleTypeDef *const hdma)
 940:../STM32Cube_FW_N6/Drivers/STM32N6xx_HAL_Driver/Src/stm32n6xx_hal_dma.c **** {
 941:../STM32Cube_FW_N6/Drivers/STM32N6xx_HAL_Driver/Src/stm32n6xx_hal_dma.c ****   const DMA_TypeDef *p_dma_instance = GET_DMA_INSTANCE(hdma);
 942:../STM32Cube_FW_N6/Drivers/STM32N6xx_HAL_Driver/Src/stm32n6xx_hal_dma.c ****   uint32_t global_it_flag =  1UL << (GET_DMA_CHANNEL(hdma) & 0x1FU);
 943:../STM32Cube_FW_N6/Drivers/STM32N6xx_HAL_Driver/Src/stm32n6xx_hal_dma.c ****   uint32_t global_active_flag_ns = IS_DMA_GLOBAL_ACTIVE_FLAG_NS(p_dma_instance, global_it_flag);
 944:../STM32Cube_FW_N6/Drivers/STM32N6xx_HAL_Driver/Src/stm32n6xx_hal_dma.c **** #if defined (CPU_IN_SECURE_STATE)
 945:../STM32Cube_FW_N6/Drivers/STM32N6xx_HAL_Driver/Src/stm32n6xx_hal_dma.c ****   uint32_t global_active_flag_s = IS_DMA_GLOBAL_ACTIVE_FLAG_S(p_dma_instance, global_it_flag);
 946:../STM32Cube_FW_N6/Drivers/STM32N6xx_HAL_Driver/Src/stm32n6xx_hal_dma.c **** #endif /* CPU_IN_SECURE_STATE */
 947:../STM32Cube_FW_N6/Drivers/STM32N6xx_HAL_Driver/Src/stm32n6xx_hal_dma.c **** 
 948:../STM32Cube_FW_N6/Drivers/STM32N6xx_HAL_Driver/Src/stm32n6xx_hal_dma.c ****   /* Global Interrupt Flag management *************************************************************
 949:../STM32Cube_FW_N6/Drivers/STM32N6xx_HAL_Driver/Src/stm32n6xx_hal_dma.c **** #if defined (CPU_IN_SECURE_STATE)
 950:../STM32Cube_FW_N6/Drivers/STM32N6xx_HAL_Driver/Src/stm32n6xx_hal_dma.c ****   if ((global_active_flag_s == 0U) && (global_active_flag_ns == 0U))
 951:../STM32Cube_FW_N6/Drivers/STM32N6xx_HAL_Driver/Src/stm32n6xx_hal_dma.c **** #else
 952:../STM32Cube_FW_N6/Drivers/STM32N6xx_HAL_Driver/Src/stm32n6xx_hal_dma.c ****   if (global_active_flag_ns == 0U)
 953:../STM32Cube_FW_N6/Drivers/STM32N6xx_HAL_Driver/Src/stm32n6xx_hal_dma.c **** #endif /* CPU_IN_SECURE_STATE */
 954:../STM32Cube_FW_N6/Drivers/STM32N6xx_HAL_Driver/Src/stm32n6xx_hal_dma.c ****   {
 955:../STM32Cube_FW_N6/Drivers/STM32N6xx_HAL_Driver/Src/stm32n6xx_hal_dma.c ****     return; /* the global interrupt flag for the current channel is down , nothing to do */
 956:../STM32Cube_FW_N6/Drivers/STM32N6xx_HAL_Driver/Src/stm32n6xx_hal_dma.c ****   }
 957:../STM32Cube_FW_N6/Drivers/STM32N6xx_HAL_Driver/Src/stm32n6xx_hal_dma.c **** 
 958:../STM32Cube_FW_N6/Drivers/STM32N6xx_HAL_Driver/Src/stm32n6xx_hal_dma.c ****   /* Data Transfer Error Interrupt management *****************************************************
 959:../STM32Cube_FW_N6/Drivers/STM32N6xx_HAL_Driver/Src/stm32n6xx_hal_dma.c ****   if (__HAL_DMA_GET_FLAG(hdma, DMA_FLAG_DTE) != 0U)
 960:../STM32Cube_FW_N6/Drivers/STM32N6xx_HAL_Driver/Src/stm32n6xx_hal_dma.c ****   {
 961:../STM32Cube_FW_N6/Drivers/STM32N6xx_HAL_Driver/Src/stm32n6xx_hal_dma.c ****     /* Check if interrupt source is enabled */
 962:../STM32Cube_FW_N6/Drivers/STM32N6xx_HAL_Driver/Src/stm32n6xx_hal_dma.c ****     if (__HAL_DMA_GET_IT_SOURCE(hdma, DMA_IT_DTE) != 0U)
 963:../STM32Cube_FW_N6/Drivers/STM32N6xx_HAL_Driver/Src/stm32n6xx_hal_dma.c ****     {
 964:../STM32Cube_FW_N6/Drivers/STM32N6xx_HAL_Driver/Src/stm32n6xx_hal_dma.c ****       /* Clear the transfer error flag */
 965:../STM32Cube_FW_N6/Drivers/STM32N6xx_HAL_Driver/Src/stm32n6xx_hal_dma.c ****       __HAL_DMA_CLEAR_FLAG(hdma, DMA_FLAG_DTE);
 966:../STM32Cube_FW_N6/Drivers/STM32N6xx_HAL_Driver/Src/stm32n6xx_hal_dma.c **** 
 967:../STM32Cube_FW_N6/Drivers/STM32N6xx_HAL_Driver/Src/stm32n6xx_hal_dma.c ****       /* Update the DMA channel error code */
 968:../STM32Cube_FW_N6/Drivers/STM32N6xx_HAL_Driver/Src/stm32n6xx_hal_dma.c ****       hdma->ErrorCode |= HAL_DMA_ERROR_DTE;
 969:../STM32Cube_FW_N6/Drivers/STM32N6xx_HAL_Driver/Src/stm32n6xx_hal_dma.c ****     }
 970:../STM32Cube_FW_N6/Drivers/STM32N6xx_HAL_Driver/Src/stm32n6xx_hal_dma.c ****   }
 971:../STM32Cube_FW_N6/Drivers/STM32N6xx_HAL_Driver/Src/stm32n6xx_hal_dma.c **** 
 972:../STM32Cube_FW_N6/Drivers/STM32N6xx_HAL_Driver/Src/stm32n6xx_hal_dma.c ****   /* Update Linked-list Error Interrupt management ************************************************
 973:../STM32Cube_FW_N6/Drivers/STM32N6xx_HAL_Driver/Src/stm32n6xx_hal_dma.c ****   if (__HAL_DMA_GET_FLAG(hdma, DMA_FLAG_ULE) != 0U)
 974:../STM32Cube_FW_N6/Drivers/STM32N6xx_HAL_Driver/Src/stm32n6xx_hal_dma.c ****   {
 975:../STM32Cube_FW_N6/Drivers/STM32N6xx_HAL_Driver/Src/stm32n6xx_hal_dma.c ****     /* Check if interrupt source is enabled */
 976:../STM32Cube_FW_N6/Drivers/STM32N6xx_HAL_Driver/Src/stm32n6xx_hal_dma.c ****     if (__HAL_DMA_GET_IT_SOURCE(hdma, DMA_IT_ULE) != 0U)
 977:../STM32Cube_FW_N6/Drivers/STM32N6xx_HAL_Driver/Src/stm32n6xx_hal_dma.c ****     {
 978:../STM32Cube_FW_N6/Drivers/STM32N6xx_HAL_Driver/Src/stm32n6xx_hal_dma.c ****       /* Clear the update linked-list error flag */
 979:../STM32Cube_FW_N6/Drivers/STM32N6xx_HAL_Driver/Src/stm32n6xx_hal_dma.c ****       __HAL_DMA_CLEAR_FLAG(hdma, DMA_FLAG_ULE);
 980:../STM32Cube_FW_N6/Drivers/STM32N6xx_HAL_Driver/Src/stm32n6xx_hal_dma.c **** 
 981:../STM32Cube_FW_N6/Drivers/STM32N6xx_HAL_Driver/Src/stm32n6xx_hal_dma.c ****       /* Update the DMA channel error code */
 982:../STM32Cube_FW_N6/Drivers/STM32N6xx_HAL_Driver/Src/stm32n6xx_hal_dma.c ****       hdma->ErrorCode |= HAL_DMA_ERROR_ULE;
 983:../STM32Cube_FW_N6/Drivers/STM32N6xx_HAL_Driver/Src/stm32n6xx_hal_dma.c ****     }
 984:../STM32Cube_FW_N6/Drivers/STM32N6xx_HAL_Driver/Src/stm32n6xx_hal_dma.c ****   }
 985:../STM32Cube_FW_N6/Drivers/STM32N6xx_HAL_Driver/Src/stm32n6xx_hal_dma.c **** 
ARM GAS  /tmp/ccId6s4B.s 			page 36


 986:../STM32Cube_FW_N6/Drivers/STM32N6xx_HAL_Driver/Src/stm32n6xx_hal_dma.c ****   /* User Setting Error Interrupt management ******************************************************
 987:../STM32Cube_FW_N6/Drivers/STM32N6xx_HAL_Driver/Src/stm32n6xx_hal_dma.c ****   if (__HAL_DMA_GET_FLAG(hdma, DMA_FLAG_USE) != 0U)
 988:../STM32Cube_FW_N6/Drivers/STM32N6xx_HAL_Driver/Src/stm32n6xx_hal_dma.c ****   {
 989:../STM32Cube_FW_N6/Drivers/STM32N6xx_HAL_Driver/Src/stm32n6xx_hal_dma.c ****     /* Check if interrupt source is enabled */
 990:../STM32Cube_FW_N6/Drivers/STM32N6xx_HAL_Driver/Src/stm32n6xx_hal_dma.c ****     if (__HAL_DMA_GET_IT_SOURCE(hdma, DMA_IT_USE) != 0U)
 991:../STM32Cube_FW_N6/Drivers/STM32N6xx_HAL_Driver/Src/stm32n6xx_hal_dma.c ****     {
 992:../STM32Cube_FW_N6/Drivers/STM32N6xx_HAL_Driver/Src/stm32n6xx_hal_dma.c ****       /* Clear the user setting error flag */
 993:../STM32Cube_FW_N6/Drivers/STM32N6xx_HAL_Driver/Src/stm32n6xx_hal_dma.c ****       __HAL_DMA_CLEAR_FLAG(hdma, DMA_FLAG_USE);
 994:../STM32Cube_FW_N6/Drivers/STM32N6xx_HAL_Driver/Src/stm32n6xx_hal_dma.c **** 
 995:../STM32Cube_FW_N6/Drivers/STM32N6xx_HAL_Driver/Src/stm32n6xx_hal_dma.c ****       /* Update the DMA channel error code */
 996:../STM32Cube_FW_N6/Drivers/STM32N6xx_HAL_Driver/Src/stm32n6xx_hal_dma.c ****       hdma->ErrorCode |= HAL_DMA_ERROR_USE;
 997:../STM32Cube_FW_N6/Drivers/STM32N6xx_HAL_Driver/Src/stm32n6xx_hal_dma.c ****     }
 998:../STM32Cube_FW_N6/Drivers/STM32N6xx_HAL_Driver/Src/stm32n6xx_hal_dma.c ****   }
 999:../STM32Cube_FW_N6/Drivers/STM32N6xx_HAL_Driver/Src/stm32n6xx_hal_dma.c **** 
1000:../STM32Cube_FW_N6/Drivers/STM32N6xx_HAL_Driver/Src/stm32n6xx_hal_dma.c ****   /* Trigger Overrun Interrupt management *********************************************************
1001:../STM32Cube_FW_N6/Drivers/STM32N6xx_HAL_Driver/Src/stm32n6xx_hal_dma.c ****   if (__HAL_DMA_GET_FLAG(hdma, DMA_FLAG_TO) != 0U)
1002:../STM32Cube_FW_N6/Drivers/STM32N6xx_HAL_Driver/Src/stm32n6xx_hal_dma.c ****   {
1003:../STM32Cube_FW_N6/Drivers/STM32N6xx_HAL_Driver/Src/stm32n6xx_hal_dma.c ****     /* Check if interrupt source is enabled */
1004:../STM32Cube_FW_N6/Drivers/STM32N6xx_HAL_Driver/Src/stm32n6xx_hal_dma.c ****     if (__HAL_DMA_GET_IT_SOURCE(hdma, DMA_IT_TO) != 0U)
1005:../STM32Cube_FW_N6/Drivers/STM32N6xx_HAL_Driver/Src/stm32n6xx_hal_dma.c ****     {
1006:../STM32Cube_FW_N6/Drivers/STM32N6xx_HAL_Driver/Src/stm32n6xx_hal_dma.c ****       /* Clear the trigger overrun flag */
1007:../STM32Cube_FW_N6/Drivers/STM32N6xx_HAL_Driver/Src/stm32n6xx_hal_dma.c ****       __HAL_DMA_CLEAR_FLAG(hdma, DMA_FLAG_TO);
1008:../STM32Cube_FW_N6/Drivers/STM32N6xx_HAL_Driver/Src/stm32n6xx_hal_dma.c **** 
1009:../STM32Cube_FW_N6/Drivers/STM32N6xx_HAL_Driver/Src/stm32n6xx_hal_dma.c ****       /* Update the DMA channel error code */
1010:../STM32Cube_FW_N6/Drivers/STM32N6xx_HAL_Driver/Src/stm32n6xx_hal_dma.c ****       hdma->ErrorCode |= HAL_DMA_ERROR_TO;
1011:../STM32Cube_FW_N6/Drivers/STM32N6xx_HAL_Driver/Src/stm32n6xx_hal_dma.c ****     }
1012:../STM32Cube_FW_N6/Drivers/STM32N6xx_HAL_Driver/Src/stm32n6xx_hal_dma.c ****   }
1013:../STM32Cube_FW_N6/Drivers/STM32N6xx_HAL_Driver/Src/stm32n6xx_hal_dma.c **** 
1014:../STM32Cube_FW_N6/Drivers/STM32N6xx_HAL_Driver/Src/stm32n6xx_hal_dma.c ****   /* Half Transfer Complete Interrupt management **************************************************
1015:../STM32Cube_FW_N6/Drivers/STM32N6xx_HAL_Driver/Src/stm32n6xx_hal_dma.c ****   if (__HAL_DMA_GET_FLAG(hdma, DMA_FLAG_HT) != 0U)
1016:../STM32Cube_FW_N6/Drivers/STM32N6xx_HAL_Driver/Src/stm32n6xx_hal_dma.c ****   {
1017:../STM32Cube_FW_N6/Drivers/STM32N6xx_HAL_Driver/Src/stm32n6xx_hal_dma.c ****     /* Check if interrupt source is enabled */
1018:../STM32Cube_FW_N6/Drivers/STM32N6xx_HAL_Driver/Src/stm32n6xx_hal_dma.c ****     if (__HAL_DMA_GET_IT_SOURCE(hdma, DMA_IT_HT) != 0U)
1019:../STM32Cube_FW_N6/Drivers/STM32N6xx_HAL_Driver/Src/stm32n6xx_hal_dma.c ****     {
1020:../STM32Cube_FW_N6/Drivers/STM32N6xx_HAL_Driver/Src/stm32n6xx_hal_dma.c ****       /* Clear the half transfer flag */
1021:../STM32Cube_FW_N6/Drivers/STM32N6xx_HAL_Driver/Src/stm32n6xx_hal_dma.c ****       __HAL_DMA_CLEAR_FLAG(hdma, DMA_FLAG_HT);
1022:../STM32Cube_FW_N6/Drivers/STM32N6xx_HAL_Driver/Src/stm32n6xx_hal_dma.c **** 
1023:../STM32Cube_FW_N6/Drivers/STM32N6xx_HAL_Driver/Src/stm32n6xx_hal_dma.c ****       /* Check half transfer complete callback */
1024:../STM32Cube_FW_N6/Drivers/STM32N6xx_HAL_Driver/Src/stm32n6xx_hal_dma.c ****       if (hdma->XferHalfCpltCallback != NULL)
1025:../STM32Cube_FW_N6/Drivers/STM32N6xx_HAL_Driver/Src/stm32n6xx_hal_dma.c ****       {
1026:../STM32Cube_FW_N6/Drivers/STM32N6xx_HAL_Driver/Src/stm32n6xx_hal_dma.c ****         /* Half transfer callback */
1027:../STM32Cube_FW_N6/Drivers/STM32N6xx_HAL_Driver/Src/stm32n6xx_hal_dma.c ****         hdma->XferHalfCpltCallback(hdma);
1028:../STM32Cube_FW_N6/Drivers/STM32N6xx_HAL_Driver/Src/stm32n6xx_hal_dma.c ****       }
1029:../STM32Cube_FW_N6/Drivers/STM32N6xx_HAL_Driver/Src/stm32n6xx_hal_dma.c ****     }
1030:../STM32Cube_FW_N6/Drivers/STM32N6xx_HAL_Driver/Src/stm32n6xx_hal_dma.c ****   }
1031:../STM32Cube_FW_N6/Drivers/STM32N6xx_HAL_Driver/Src/stm32n6xx_hal_dma.c **** 
1032:../STM32Cube_FW_N6/Drivers/STM32N6xx_HAL_Driver/Src/stm32n6xx_hal_dma.c ****   /* Suspend Transfer Interrupt management ********************************************************
1033:../STM32Cube_FW_N6/Drivers/STM32N6xx_HAL_Driver/Src/stm32n6xx_hal_dma.c ****   if (__HAL_DMA_GET_FLAG(hdma, DMA_FLAG_SUSP) != 0U)
1034:../STM32Cube_FW_N6/Drivers/STM32N6xx_HAL_Driver/Src/stm32n6xx_hal_dma.c ****   {
1035:../STM32Cube_FW_N6/Drivers/STM32N6xx_HAL_Driver/Src/stm32n6xx_hal_dma.c ****     /* Check if interrupt source is enabled */
1036:../STM32Cube_FW_N6/Drivers/STM32N6xx_HAL_Driver/Src/stm32n6xx_hal_dma.c ****     if (__HAL_DMA_GET_IT_SOURCE(hdma, DMA_IT_SUSP) != 0U)
1037:../STM32Cube_FW_N6/Drivers/STM32N6xx_HAL_Driver/Src/stm32n6xx_hal_dma.c ****     {
1038:../STM32Cube_FW_N6/Drivers/STM32N6xx_HAL_Driver/Src/stm32n6xx_hal_dma.c ****       /* Clear the block transfer complete flag */
1039:../STM32Cube_FW_N6/Drivers/STM32N6xx_HAL_Driver/Src/stm32n6xx_hal_dma.c ****       __HAL_DMA_CLEAR_FLAG(hdma, DMA_FLAG_SUSP);
1040:../STM32Cube_FW_N6/Drivers/STM32N6xx_HAL_Driver/Src/stm32n6xx_hal_dma.c **** 
1041:../STM32Cube_FW_N6/Drivers/STM32N6xx_HAL_Driver/Src/stm32n6xx_hal_dma.c ****       /* Check DMA channel state */
1042:../STM32Cube_FW_N6/Drivers/STM32N6xx_HAL_Driver/Src/stm32n6xx_hal_dma.c ****       if (hdma->State == HAL_DMA_STATE_ABORT)
ARM GAS  /tmp/ccId6s4B.s 			page 37


1043:../STM32Cube_FW_N6/Drivers/STM32N6xx_HAL_Driver/Src/stm32n6xx_hal_dma.c ****       {
1044:../STM32Cube_FW_N6/Drivers/STM32N6xx_HAL_Driver/Src/stm32n6xx_hal_dma.c ****         /* Disable the suspend transfer interrupt */
1045:../STM32Cube_FW_N6/Drivers/STM32N6xx_HAL_Driver/Src/stm32n6xx_hal_dma.c ****         __HAL_DMA_DISABLE_IT(hdma, DMA_IT_SUSP);
1046:../STM32Cube_FW_N6/Drivers/STM32N6xx_HAL_Driver/Src/stm32n6xx_hal_dma.c **** 
1047:../STM32Cube_FW_N6/Drivers/STM32N6xx_HAL_Driver/Src/stm32n6xx_hal_dma.c ****         /* Reset the channel internal state and reset the FIFO */
1048:../STM32Cube_FW_N6/Drivers/STM32N6xx_HAL_Driver/Src/stm32n6xx_hal_dma.c ****         hdma->Instance->CCR |= DMA_CCR_RESET;
1049:../STM32Cube_FW_N6/Drivers/STM32N6xx_HAL_Driver/Src/stm32n6xx_hal_dma.c **** 
1050:../STM32Cube_FW_N6/Drivers/STM32N6xx_HAL_Driver/Src/stm32n6xx_hal_dma.c ****         /* Update the DMA channel state */
1051:../STM32Cube_FW_N6/Drivers/STM32N6xx_HAL_Driver/Src/stm32n6xx_hal_dma.c ****         hdma->State = HAL_DMA_STATE_READY;
1052:../STM32Cube_FW_N6/Drivers/STM32N6xx_HAL_Driver/Src/stm32n6xx_hal_dma.c **** 
1053:../STM32Cube_FW_N6/Drivers/STM32N6xx_HAL_Driver/Src/stm32n6xx_hal_dma.c ****         /* Check DMA channel transfer mode */
1054:../STM32Cube_FW_N6/Drivers/STM32N6xx_HAL_Driver/Src/stm32n6xx_hal_dma.c ****         if ((hdma->Mode & DMA_LINKEDLIST) == DMA_LINKEDLIST)
1055:../STM32Cube_FW_N6/Drivers/STM32N6xx_HAL_Driver/Src/stm32n6xx_hal_dma.c ****         {
1056:../STM32Cube_FW_N6/Drivers/STM32N6xx_HAL_Driver/Src/stm32n6xx_hal_dma.c ****           /* Update the linked-list queue state */
1057:../STM32Cube_FW_N6/Drivers/STM32N6xx_HAL_Driver/Src/stm32n6xx_hal_dma.c ****           hdma->LinkedListQueue->State = HAL_DMA_QUEUE_STATE_READY;
1058:../STM32Cube_FW_N6/Drivers/STM32N6xx_HAL_Driver/Src/stm32n6xx_hal_dma.c **** 
1059:../STM32Cube_FW_N6/Drivers/STM32N6xx_HAL_Driver/Src/stm32n6xx_hal_dma.c ****           /* Clear remaining data size to ensure loading linked-list from memory next start */
1060:../STM32Cube_FW_N6/Drivers/STM32N6xx_HAL_Driver/Src/stm32n6xx_hal_dma.c ****           hdma->Instance->CBR1 = 0U;
1061:../STM32Cube_FW_N6/Drivers/STM32N6xx_HAL_Driver/Src/stm32n6xx_hal_dma.c ****         }
1062:../STM32Cube_FW_N6/Drivers/STM32N6xx_HAL_Driver/Src/stm32n6xx_hal_dma.c **** 
1063:../STM32Cube_FW_N6/Drivers/STM32N6xx_HAL_Driver/Src/stm32n6xx_hal_dma.c ****         /* Process Unlocked */
1064:../STM32Cube_FW_N6/Drivers/STM32N6xx_HAL_Driver/Src/stm32n6xx_hal_dma.c ****         __HAL_UNLOCK(hdma);
1065:../STM32Cube_FW_N6/Drivers/STM32N6xx_HAL_Driver/Src/stm32n6xx_hal_dma.c **** 
1066:../STM32Cube_FW_N6/Drivers/STM32N6xx_HAL_Driver/Src/stm32n6xx_hal_dma.c ****         /* Check transfer abort callback */
1067:../STM32Cube_FW_N6/Drivers/STM32N6xx_HAL_Driver/Src/stm32n6xx_hal_dma.c ****         if (hdma->XferAbortCallback != NULL)
1068:../STM32Cube_FW_N6/Drivers/STM32N6xx_HAL_Driver/Src/stm32n6xx_hal_dma.c ****         {
1069:../STM32Cube_FW_N6/Drivers/STM32N6xx_HAL_Driver/Src/stm32n6xx_hal_dma.c ****           /* Transfer abort callback */
1070:../STM32Cube_FW_N6/Drivers/STM32N6xx_HAL_Driver/Src/stm32n6xx_hal_dma.c ****           hdma->XferAbortCallback(hdma);
1071:../STM32Cube_FW_N6/Drivers/STM32N6xx_HAL_Driver/Src/stm32n6xx_hal_dma.c ****         }
1072:../STM32Cube_FW_N6/Drivers/STM32N6xx_HAL_Driver/Src/stm32n6xx_hal_dma.c **** 
1073:../STM32Cube_FW_N6/Drivers/STM32N6xx_HAL_Driver/Src/stm32n6xx_hal_dma.c ****         return;
1074:../STM32Cube_FW_N6/Drivers/STM32N6xx_HAL_Driver/Src/stm32n6xx_hal_dma.c ****       }
1075:../STM32Cube_FW_N6/Drivers/STM32N6xx_HAL_Driver/Src/stm32n6xx_hal_dma.c ****       else
1076:../STM32Cube_FW_N6/Drivers/STM32N6xx_HAL_Driver/Src/stm32n6xx_hal_dma.c ****       {
1077:../STM32Cube_FW_N6/Drivers/STM32N6xx_HAL_Driver/Src/stm32n6xx_hal_dma.c ****         /* Update the DMA channel state */
1078:../STM32Cube_FW_N6/Drivers/STM32N6xx_HAL_Driver/Src/stm32n6xx_hal_dma.c ****         hdma->State = HAL_DMA_STATE_SUSPEND;
1079:../STM32Cube_FW_N6/Drivers/STM32N6xx_HAL_Driver/Src/stm32n6xx_hal_dma.c **** 
1080:../STM32Cube_FW_N6/Drivers/STM32N6xx_HAL_Driver/Src/stm32n6xx_hal_dma.c ****         /* Check transfer suspend callback */
1081:../STM32Cube_FW_N6/Drivers/STM32N6xx_HAL_Driver/Src/stm32n6xx_hal_dma.c ****         if (hdma->XferSuspendCallback != NULL)
1082:../STM32Cube_FW_N6/Drivers/STM32N6xx_HAL_Driver/Src/stm32n6xx_hal_dma.c ****         {
1083:../STM32Cube_FW_N6/Drivers/STM32N6xx_HAL_Driver/Src/stm32n6xx_hal_dma.c ****           /* Transfer suspend callback */
1084:../STM32Cube_FW_N6/Drivers/STM32N6xx_HAL_Driver/Src/stm32n6xx_hal_dma.c ****           hdma->XferSuspendCallback(hdma);
1085:../STM32Cube_FW_N6/Drivers/STM32N6xx_HAL_Driver/Src/stm32n6xx_hal_dma.c ****         }
1086:../STM32Cube_FW_N6/Drivers/STM32N6xx_HAL_Driver/Src/stm32n6xx_hal_dma.c ****       }
1087:../STM32Cube_FW_N6/Drivers/STM32N6xx_HAL_Driver/Src/stm32n6xx_hal_dma.c ****     }
1088:../STM32Cube_FW_N6/Drivers/STM32N6xx_HAL_Driver/Src/stm32n6xx_hal_dma.c ****   }
1089:../STM32Cube_FW_N6/Drivers/STM32N6xx_HAL_Driver/Src/stm32n6xx_hal_dma.c **** 
1090:../STM32Cube_FW_N6/Drivers/STM32N6xx_HAL_Driver/Src/stm32n6xx_hal_dma.c ****   /* Transfer Complete Interrupt management *******************************************************
1091:../STM32Cube_FW_N6/Drivers/STM32N6xx_HAL_Driver/Src/stm32n6xx_hal_dma.c ****   if (__HAL_DMA_GET_FLAG(hdma, DMA_FLAG_TC) != 0U)
1092:../STM32Cube_FW_N6/Drivers/STM32N6xx_HAL_Driver/Src/stm32n6xx_hal_dma.c ****   {
1093:../STM32Cube_FW_N6/Drivers/STM32N6xx_HAL_Driver/Src/stm32n6xx_hal_dma.c ****     /* Check if interrupt source is enabled */
1094:../STM32Cube_FW_N6/Drivers/STM32N6xx_HAL_Driver/Src/stm32n6xx_hal_dma.c ****     if (__HAL_DMA_GET_IT_SOURCE(hdma, DMA_IT_TC) != 0U)
1095:../STM32Cube_FW_N6/Drivers/STM32N6xx_HAL_Driver/Src/stm32n6xx_hal_dma.c ****     {
1096:../STM32Cube_FW_N6/Drivers/STM32N6xx_HAL_Driver/Src/stm32n6xx_hal_dma.c ****       /* Check DMA channel transfer mode */
1097:../STM32Cube_FW_N6/Drivers/STM32N6xx_HAL_Driver/Src/stm32n6xx_hal_dma.c ****       if ((hdma->Mode & DMA_LINKEDLIST) == DMA_LINKEDLIST)
1098:../STM32Cube_FW_N6/Drivers/STM32N6xx_HAL_Driver/Src/stm32n6xx_hal_dma.c ****       {
1099:../STM32Cube_FW_N6/Drivers/STM32N6xx_HAL_Driver/Src/stm32n6xx_hal_dma.c ****         /* If linked-list transfer */
ARM GAS  /tmp/ccId6s4B.s 			page 38


1100:../STM32Cube_FW_N6/Drivers/STM32N6xx_HAL_Driver/Src/stm32n6xx_hal_dma.c ****         if (hdma->Instance->CLLR == 0U)
1101:../STM32Cube_FW_N6/Drivers/STM32N6xx_HAL_Driver/Src/stm32n6xx_hal_dma.c ****         {
1102:../STM32Cube_FW_N6/Drivers/STM32N6xx_HAL_Driver/Src/stm32n6xx_hal_dma.c ****           if (hdma->Instance->CBR1 == 0U)
1103:../STM32Cube_FW_N6/Drivers/STM32N6xx_HAL_Driver/Src/stm32n6xx_hal_dma.c ****           {
1104:../STM32Cube_FW_N6/Drivers/STM32N6xx_HAL_Driver/Src/stm32n6xx_hal_dma.c ****             /* Update the DMA channel state */
1105:../STM32Cube_FW_N6/Drivers/STM32N6xx_HAL_Driver/Src/stm32n6xx_hal_dma.c ****             hdma->State = HAL_DMA_STATE_READY;
1106:../STM32Cube_FW_N6/Drivers/STM32N6xx_HAL_Driver/Src/stm32n6xx_hal_dma.c **** 
1107:../STM32Cube_FW_N6/Drivers/STM32N6xx_HAL_Driver/Src/stm32n6xx_hal_dma.c ****             /* Update the linked-list queue state */
1108:../STM32Cube_FW_N6/Drivers/STM32N6xx_HAL_Driver/Src/stm32n6xx_hal_dma.c ****             hdma->LinkedListQueue->State = HAL_DMA_QUEUE_STATE_READY;
1109:../STM32Cube_FW_N6/Drivers/STM32N6xx_HAL_Driver/Src/stm32n6xx_hal_dma.c ****           }
1110:../STM32Cube_FW_N6/Drivers/STM32N6xx_HAL_Driver/Src/stm32n6xx_hal_dma.c ****         }
1111:../STM32Cube_FW_N6/Drivers/STM32N6xx_HAL_Driver/Src/stm32n6xx_hal_dma.c ****       }
1112:../STM32Cube_FW_N6/Drivers/STM32N6xx_HAL_Driver/Src/stm32n6xx_hal_dma.c ****       else
1113:../STM32Cube_FW_N6/Drivers/STM32N6xx_HAL_Driver/Src/stm32n6xx_hal_dma.c ****       {
1114:../STM32Cube_FW_N6/Drivers/STM32N6xx_HAL_Driver/Src/stm32n6xx_hal_dma.c ****         /* If normal transfer */
1115:../STM32Cube_FW_N6/Drivers/STM32N6xx_HAL_Driver/Src/stm32n6xx_hal_dma.c ****         if (hdma->Instance->CBR1 == 0U)
1116:../STM32Cube_FW_N6/Drivers/STM32N6xx_HAL_Driver/Src/stm32n6xx_hal_dma.c ****         {
1117:../STM32Cube_FW_N6/Drivers/STM32N6xx_HAL_Driver/Src/stm32n6xx_hal_dma.c ****           /* Update the DMA channel state */
1118:../STM32Cube_FW_N6/Drivers/STM32N6xx_HAL_Driver/Src/stm32n6xx_hal_dma.c ****           hdma->State = HAL_DMA_STATE_READY;
1119:../STM32Cube_FW_N6/Drivers/STM32N6xx_HAL_Driver/Src/stm32n6xx_hal_dma.c ****         }
1120:../STM32Cube_FW_N6/Drivers/STM32N6xx_HAL_Driver/Src/stm32n6xx_hal_dma.c ****       }
1121:../STM32Cube_FW_N6/Drivers/STM32N6xx_HAL_Driver/Src/stm32n6xx_hal_dma.c **** 
1122:../STM32Cube_FW_N6/Drivers/STM32N6xx_HAL_Driver/Src/stm32n6xx_hal_dma.c ****       /* Clear TC and HT transfer flags */
1123:../STM32Cube_FW_N6/Drivers/STM32N6xx_HAL_Driver/Src/stm32n6xx_hal_dma.c ****       __HAL_DMA_CLEAR_FLAG(hdma, (DMA_FLAG_TC | DMA_FLAG_HT));
1124:../STM32Cube_FW_N6/Drivers/STM32N6xx_HAL_Driver/Src/stm32n6xx_hal_dma.c **** 
1125:../STM32Cube_FW_N6/Drivers/STM32N6xx_HAL_Driver/Src/stm32n6xx_hal_dma.c ****       /* Process Unlocked */
1126:../STM32Cube_FW_N6/Drivers/STM32N6xx_HAL_Driver/Src/stm32n6xx_hal_dma.c ****       __HAL_UNLOCK(hdma);
1127:../STM32Cube_FW_N6/Drivers/STM32N6xx_HAL_Driver/Src/stm32n6xx_hal_dma.c **** 
1128:../STM32Cube_FW_N6/Drivers/STM32N6xx_HAL_Driver/Src/stm32n6xx_hal_dma.c ****       /* Check transfer complete callback */
1129:../STM32Cube_FW_N6/Drivers/STM32N6xx_HAL_Driver/Src/stm32n6xx_hal_dma.c ****       if (hdma->XferCpltCallback != NULL)
1130:../STM32Cube_FW_N6/Drivers/STM32N6xx_HAL_Driver/Src/stm32n6xx_hal_dma.c ****       {
1131:../STM32Cube_FW_N6/Drivers/STM32N6xx_HAL_Driver/Src/stm32n6xx_hal_dma.c ****         /* Channel Transfer Complete callback */
1132:../STM32Cube_FW_N6/Drivers/STM32N6xx_HAL_Driver/Src/stm32n6xx_hal_dma.c ****         hdma->XferCpltCallback(hdma);
1133:../STM32Cube_FW_N6/Drivers/STM32N6xx_HAL_Driver/Src/stm32n6xx_hal_dma.c ****       }
1134:../STM32Cube_FW_N6/Drivers/STM32N6xx_HAL_Driver/Src/stm32n6xx_hal_dma.c ****     }
1135:../STM32Cube_FW_N6/Drivers/STM32N6xx_HAL_Driver/Src/stm32n6xx_hal_dma.c ****   }
1136:../STM32Cube_FW_N6/Drivers/STM32N6xx_HAL_Driver/Src/stm32n6xx_hal_dma.c **** 
1137:../STM32Cube_FW_N6/Drivers/STM32N6xx_HAL_Driver/Src/stm32n6xx_hal_dma.c ****   /* Manage error case ****************************************************************************
1138:../STM32Cube_FW_N6/Drivers/STM32N6xx_HAL_Driver/Src/stm32n6xx_hal_dma.c ****   if (hdma->ErrorCode != HAL_DMA_ERROR_NONE)
1139:../STM32Cube_FW_N6/Drivers/STM32N6xx_HAL_Driver/Src/stm32n6xx_hal_dma.c ****   {
1140:../STM32Cube_FW_N6/Drivers/STM32N6xx_HAL_Driver/Src/stm32n6xx_hal_dma.c ****     /* Reset the channel internal state and reset the FIFO */
1141:../STM32Cube_FW_N6/Drivers/STM32N6xx_HAL_Driver/Src/stm32n6xx_hal_dma.c ****     hdma->Instance->CCR |= DMA_CCR_RESET;
1142:../STM32Cube_FW_N6/Drivers/STM32N6xx_HAL_Driver/Src/stm32n6xx_hal_dma.c **** 
1143:../STM32Cube_FW_N6/Drivers/STM32N6xx_HAL_Driver/Src/stm32n6xx_hal_dma.c ****     /* Update the DMA channel state */
1144:../STM32Cube_FW_N6/Drivers/STM32N6xx_HAL_Driver/Src/stm32n6xx_hal_dma.c ****     hdma->State = HAL_DMA_STATE_READY;
1145:../STM32Cube_FW_N6/Drivers/STM32N6xx_HAL_Driver/Src/stm32n6xx_hal_dma.c **** 
1146:../STM32Cube_FW_N6/Drivers/STM32N6xx_HAL_Driver/Src/stm32n6xx_hal_dma.c ****     /* Check DMA channel transfer mode */
1147:../STM32Cube_FW_N6/Drivers/STM32N6xx_HAL_Driver/Src/stm32n6xx_hal_dma.c ****     if ((hdma->Mode & DMA_LINKEDLIST) == DMA_LINKEDLIST)
1148:../STM32Cube_FW_N6/Drivers/STM32N6xx_HAL_Driver/Src/stm32n6xx_hal_dma.c ****     {
1149:../STM32Cube_FW_N6/Drivers/STM32N6xx_HAL_Driver/Src/stm32n6xx_hal_dma.c ****       /* Update the linked-list queue state */
1150:../STM32Cube_FW_N6/Drivers/STM32N6xx_HAL_Driver/Src/stm32n6xx_hal_dma.c ****       hdma->LinkedListQueue->State = HAL_DMA_QUEUE_STATE_READY;
1151:../STM32Cube_FW_N6/Drivers/STM32N6xx_HAL_Driver/Src/stm32n6xx_hal_dma.c ****     }
1152:../STM32Cube_FW_N6/Drivers/STM32N6xx_HAL_Driver/Src/stm32n6xx_hal_dma.c **** 
1153:../STM32Cube_FW_N6/Drivers/STM32N6xx_HAL_Driver/Src/stm32n6xx_hal_dma.c ****     /* Process Unlocked */
1154:../STM32Cube_FW_N6/Drivers/STM32N6xx_HAL_Driver/Src/stm32n6xx_hal_dma.c ****     __HAL_UNLOCK(hdma);
1155:../STM32Cube_FW_N6/Drivers/STM32N6xx_HAL_Driver/Src/stm32n6xx_hal_dma.c **** 
1156:../STM32Cube_FW_N6/Drivers/STM32N6xx_HAL_Driver/Src/stm32n6xx_hal_dma.c ****     /* Check transfer error callback */
ARM GAS  /tmp/ccId6s4B.s 			page 39


1157:../STM32Cube_FW_N6/Drivers/STM32N6xx_HAL_Driver/Src/stm32n6xx_hal_dma.c ****     if (hdma->XferErrorCallback != NULL)
1158:../STM32Cube_FW_N6/Drivers/STM32N6xx_HAL_Driver/Src/stm32n6xx_hal_dma.c ****     {
1159:../STM32Cube_FW_N6/Drivers/STM32N6xx_HAL_Driver/Src/stm32n6xx_hal_dma.c ****       /* Transfer error callback */
1160:../STM32Cube_FW_N6/Drivers/STM32N6xx_HAL_Driver/Src/stm32n6xx_hal_dma.c ****       hdma->XferErrorCallback(hdma);
1161:../STM32Cube_FW_N6/Drivers/STM32N6xx_HAL_Driver/Src/stm32n6xx_hal_dma.c ****     }
1162:../STM32Cube_FW_N6/Drivers/STM32N6xx_HAL_Driver/Src/stm32n6xx_hal_dma.c ****   }
1163:../STM32Cube_FW_N6/Drivers/STM32N6xx_HAL_Driver/Src/stm32n6xx_hal_dma.c **** }
1164:../STM32Cube_FW_N6/Drivers/STM32N6xx_HAL_Driver/Src/stm32n6xx_hal_dma.c **** 
1165:../STM32Cube_FW_N6/Drivers/STM32N6xx_HAL_Driver/Src/stm32n6xx_hal_dma.c **** /**
1166:../STM32Cube_FW_N6/Drivers/STM32N6xx_HAL_Driver/Src/stm32n6xx_hal_dma.c ****   * @brief  Register callback according to specified ID.
1167:../STM32Cube_FW_N6/Drivers/STM32N6xx_HAL_Driver/Src/stm32n6xx_hal_dma.c ****   * @note   The HAL_DMA_RegisterCallback() may be called before HAL_DMA_Init() in HAL_DMA_STATE_RES
1168:../STM32Cube_FW_N6/Drivers/STM32N6xx_HAL_Driver/Src/stm32n6xx_hal_dma.c ****   *         to register callbacks for HAL_DMA_MSPINIT_CB_ID and HAL_DMA_MSPDEINIT_CB_ID.
1169:../STM32Cube_FW_N6/Drivers/STM32N6xx_HAL_Driver/Src/stm32n6xx_hal_dma.c ****   * @param  hdma       : Pointer to a DMA_HandleTypeDef structure that contains the configuration i
1170:../STM32Cube_FW_N6/Drivers/STM32N6xx_HAL_Driver/Src/stm32n6xx_hal_dma.c ****   *                      specified DMA Channel.
1171:../STM32Cube_FW_N6/Drivers/STM32N6xx_HAL_Driver/Src/stm32n6xx_hal_dma.c ****   * @param  CallbackID : User Callback identifier which could be a value of HAL_DMA_CallbackIDTypeD
1172:../STM32Cube_FW_N6/Drivers/STM32N6xx_HAL_Driver/Src/stm32n6xx_hal_dma.c ****   * @param  pCallback  : Pointer to private callback function.
1173:../STM32Cube_FW_N6/Drivers/STM32N6xx_HAL_Driver/Src/stm32n6xx_hal_dma.c ****   * @retval HAL status.
1174:../STM32Cube_FW_N6/Drivers/STM32N6xx_HAL_Driver/Src/stm32n6xx_hal_dma.c ****   */
1175:../STM32Cube_FW_N6/Drivers/STM32N6xx_HAL_Driver/Src/stm32n6xx_hal_dma.c **** HAL_StatusTypeDef HAL_DMA_RegisterCallback(DMA_HandleTypeDef *const hdma,
1176:../STM32Cube_FW_N6/Drivers/STM32N6xx_HAL_Driver/Src/stm32n6xx_hal_dma.c ****                                            HAL_DMA_CallbackIDTypeDef CallbackID,
1177:../STM32Cube_FW_N6/Drivers/STM32N6xx_HAL_Driver/Src/stm32n6xx_hal_dma.c ****                                            void (*const pCallback)(DMA_HandleTypeDef *const _hdma))
1178:../STM32Cube_FW_N6/Drivers/STM32N6xx_HAL_Driver/Src/stm32n6xx_hal_dma.c **** {
1179:../STM32Cube_FW_N6/Drivers/STM32N6xx_HAL_Driver/Src/stm32n6xx_hal_dma.c ****   HAL_StatusTypeDef status = HAL_OK;
1180:../STM32Cube_FW_N6/Drivers/STM32N6xx_HAL_Driver/Src/stm32n6xx_hal_dma.c **** 
1181:../STM32Cube_FW_N6/Drivers/STM32N6xx_HAL_Driver/Src/stm32n6xx_hal_dma.c ****   /* Check the DMA peripheral handle parameter */
1182:../STM32Cube_FW_N6/Drivers/STM32N6xx_HAL_Driver/Src/stm32n6xx_hal_dma.c ****   if (hdma == NULL)
1183:../STM32Cube_FW_N6/Drivers/STM32N6xx_HAL_Driver/Src/stm32n6xx_hal_dma.c ****   {
1184:../STM32Cube_FW_N6/Drivers/STM32N6xx_HAL_Driver/Src/stm32n6xx_hal_dma.c ****     return HAL_ERROR;
1185:../STM32Cube_FW_N6/Drivers/STM32N6xx_HAL_Driver/Src/stm32n6xx_hal_dma.c ****   }
1186:../STM32Cube_FW_N6/Drivers/STM32N6xx_HAL_Driver/Src/stm32n6xx_hal_dma.c **** 
1187:../STM32Cube_FW_N6/Drivers/STM32N6xx_HAL_Driver/Src/stm32n6xx_hal_dma.c ****   /* Check DMA channel state */
1188:../STM32Cube_FW_N6/Drivers/STM32N6xx_HAL_Driver/Src/stm32n6xx_hal_dma.c ****   if (hdma->State == HAL_DMA_STATE_READY)
1189:../STM32Cube_FW_N6/Drivers/STM32N6xx_HAL_Driver/Src/stm32n6xx_hal_dma.c ****   {
1190:../STM32Cube_FW_N6/Drivers/STM32N6xx_HAL_Driver/Src/stm32n6xx_hal_dma.c ****     /* Check callback ID */
1191:../STM32Cube_FW_N6/Drivers/STM32N6xx_HAL_Driver/Src/stm32n6xx_hal_dma.c ****     switch (CallbackID)
1192:../STM32Cube_FW_N6/Drivers/STM32N6xx_HAL_Driver/Src/stm32n6xx_hal_dma.c ****     {
1193:../STM32Cube_FW_N6/Drivers/STM32N6xx_HAL_Driver/Src/stm32n6xx_hal_dma.c ****       case HAL_DMA_XFER_CPLT_CB_ID:
1194:../STM32Cube_FW_N6/Drivers/STM32N6xx_HAL_Driver/Src/stm32n6xx_hal_dma.c ****       {
1195:../STM32Cube_FW_N6/Drivers/STM32N6xx_HAL_Driver/Src/stm32n6xx_hal_dma.c ****         /* Register transfer complete callback */
1196:../STM32Cube_FW_N6/Drivers/STM32N6xx_HAL_Driver/Src/stm32n6xx_hal_dma.c ****         hdma->XferCpltCallback = pCallback;
1197:../STM32Cube_FW_N6/Drivers/STM32N6xx_HAL_Driver/Src/stm32n6xx_hal_dma.c ****         break;
1198:../STM32Cube_FW_N6/Drivers/STM32N6xx_HAL_Driver/Src/stm32n6xx_hal_dma.c ****       }
1199:../STM32Cube_FW_N6/Drivers/STM32N6xx_HAL_Driver/Src/stm32n6xx_hal_dma.c **** 
1200:../STM32Cube_FW_N6/Drivers/STM32N6xx_HAL_Driver/Src/stm32n6xx_hal_dma.c ****       case HAL_DMA_XFER_HALFCPLT_CB_ID:
1201:../STM32Cube_FW_N6/Drivers/STM32N6xx_HAL_Driver/Src/stm32n6xx_hal_dma.c ****       {
1202:../STM32Cube_FW_N6/Drivers/STM32N6xx_HAL_Driver/Src/stm32n6xx_hal_dma.c ****         /* Register half transfer callback */
1203:../STM32Cube_FW_N6/Drivers/STM32N6xx_HAL_Driver/Src/stm32n6xx_hal_dma.c ****         hdma->XferHalfCpltCallback = pCallback;
1204:../STM32Cube_FW_N6/Drivers/STM32N6xx_HAL_Driver/Src/stm32n6xx_hal_dma.c ****         break;
1205:../STM32Cube_FW_N6/Drivers/STM32N6xx_HAL_Driver/Src/stm32n6xx_hal_dma.c ****       }
1206:../STM32Cube_FW_N6/Drivers/STM32N6xx_HAL_Driver/Src/stm32n6xx_hal_dma.c **** 
1207:../STM32Cube_FW_N6/Drivers/STM32N6xx_HAL_Driver/Src/stm32n6xx_hal_dma.c ****       case HAL_DMA_XFER_ERROR_CB_ID:
1208:../STM32Cube_FW_N6/Drivers/STM32N6xx_HAL_Driver/Src/stm32n6xx_hal_dma.c ****       {
1209:../STM32Cube_FW_N6/Drivers/STM32N6xx_HAL_Driver/Src/stm32n6xx_hal_dma.c ****         /* Register transfer error callback */
1210:../STM32Cube_FW_N6/Drivers/STM32N6xx_HAL_Driver/Src/stm32n6xx_hal_dma.c ****         hdma->XferErrorCallback = pCallback;
1211:../STM32Cube_FW_N6/Drivers/STM32N6xx_HAL_Driver/Src/stm32n6xx_hal_dma.c ****         break;
1212:../STM32Cube_FW_N6/Drivers/STM32N6xx_HAL_Driver/Src/stm32n6xx_hal_dma.c ****       }
1213:../STM32Cube_FW_N6/Drivers/STM32N6xx_HAL_Driver/Src/stm32n6xx_hal_dma.c **** 
ARM GAS  /tmp/ccId6s4B.s 			page 40


1214:../STM32Cube_FW_N6/Drivers/STM32N6xx_HAL_Driver/Src/stm32n6xx_hal_dma.c ****       case HAL_DMA_XFER_ABORT_CB_ID:
1215:../STM32Cube_FW_N6/Drivers/STM32N6xx_HAL_Driver/Src/stm32n6xx_hal_dma.c ****       {
1216:../STM32Cube_FW_N6/Drivers/STM32N6xx_HAL_Driver/Src/stm32n6xx_hal_dma.c ****         /* Register abort callback */
1217:../STM32Cube_FW_N6/Drivers/STM32N6xx_HAL_Driver/Src/stm32n6xx_hal_dma.c ****         hdma->XferAbortCallback = pCallback;
1218:../STM32Cube_FW_N6/Drivers/STM32N6xx_HAL_Driver/Src/stm32n6xx_hal_dma.c ****         break;
1219:../STM32Cube_FW_N6/Drivers/STM32N6xx_HAL_Driver/Src/stm32n6xx_hal_dma.c ****       }
1220:../STM32Cube_FW_N6/Drivers/STM32N6xx_HAL_Driver/Src/stm32n6xx_hal_dma.c **** 
1221:../STM32Cube_FW_N6/Drivers/STM32N6xx_HAL_Driver/Src/stm32n6xx_hal_dma.c ****       case HAL_DMA_XFER_SUSPEND_CB_ID:
1222:../STM32Cube_FW_N6/Drivers/STM32N6xx_HAL_Driver/Src/stm32n6xx_hal_dma.c ****       {
1223:../STM32Cube_FW_N6/Drivers/STM32N6xx_HAL_Driver/Src/stm32n6xx_hal_dma.c ****         /* Register suspend callback */
1224:../STM32Cube_FW_N6/Drivers/STM32N6xx_HAL_Driver/Src/stm32n6xx_hal_dma.c ****         hdma->XferSuspendCallback = pCallback;
1225:../STM32Cube_FW_N6/Drivers/STM32N6xx_HAL_Driver/Src/stm32n6xx_hal_dma.c ****         break;
1226:../STM32Cube_FW_N6/Drivers/STM32N6xx_HAL_Driver/Src/stm32n6xx_hal_dma.c ****       }
1227:../STM32Cube_FW_N6/Drivers/STM32N6xx_HAL_Driver/Src/stm32n6xx_hal_dma.c **** 
1228:../STM32Cube_FW_N6/Drivers/STM32N6xx_HAL_Driver/Src/stm32n6xx_hal_dma.c ****       default:
1229:../STM32Cube_FW_N6/Drivers/STM32N6xx_HAL_Driver/Src/stm32n6xx_hal_dma.c ****       {
1230:../STM32Cube_FW_N6/Drivers/STM32N6xx_HAL_Driver/Src/stm32n6xx_hal_dma.c ****         /* Update error status */
1231:../STM32Cube_FW_N6/Drivers/STM32N6xx_HAL_Driver/Src/stm32n6xx_hal_dma.c ****         status = HAL_ERROR;
1232:../STM32Cube_FW_N6/Drivers/STM32N6xx_HAL_Driver/Src/stm32n6xx_hal_dma.c ****         break;
1233:../STM32Cube_FW_N6/Drivers/STM32N6xx_HAL_Driver/Src/stm32n6xx_hal_dma.c ****       }
1234:../STM32Cube_FW_N6/Drivers/STM32N6xx_HAL_Driver/Src/stm32n6xx_hal_dma.c ****     }
1235:../STM32Cube_FW_N6/Drivers/STM32N6xx_HAL_Driver/Src/stm32n6xx_hal_dma.c ****   }
1236:../STM32Cube_FW_N6/Drivers/STM32N6xx_HAL_Driver/Src/stm32n6xx_hal_dma.c ****   else
1237:../STM32Cube_FW_N6/Drivers/STM32N6xx_HAL_Driver/Src/stm32n6xx_hal_dma.c ****   {
1238:../STM32Cube_FW_N6/Drivers/STM32N6xx_HAL_Driver/Src/stm32n6xx_hal_dma.c ****     /* Update error status */
1239:../STM32Cube_FW_N6/Drivers/STM32N6xx_HAL_Driver/Src/stm32n6xx_hal_dma.c ****     status =  HAL_ERROR;
1240:../STM32Cube_FW_N6/Drivers/STM32N6xx_HAL_Driver/Src/stm32n6xx_hal_dma.c ****   }
1241:../STM32Cube_FW_N6/Drivers/STM32N6xx_HAL_Driver/Src/stm32n6xx_hal_dma.c **** 
1242:../STM32Cube_FW_N6/Drivers/STM32N6xx_HAL_Driver/Src/stm32n6xx_hal_dma.c ****   return status;
1243:../STM32Cube_FW_N6/Drivers/STM32N6xx_HAL_Driver/Src/stm32n6xx_hal_dma.c **** }
1244:../STM32Cube_FW_N6/Drivers/STM32N6xx_HAL_Driver/Src/stm32n6xx_hal_dma.c **** 
1245:../STM32Cube_FW_N6/Drivers/STM32N6xx_HAL_Driver/Src/stm32n6xx_hal_dma.c **** /**
1246:../STM32Cube_FW_N6/Drivers/STM32N6xx_HAL_Driver/Src/stm32n6xx_hal_dma.c ****   * @brief  Unregister callback according to specified ID.
1247:../STM32Cube_FW_N6/Drivers/STM32N6xx_HAL_Driver/Src/stm32n6xx_hal_dma.c ****   * @note   The HAL_DMA_UnRegisterCallback() may be called before HAL_DMA_Init() in HAL_DMA_STATE_R
1248:../STM32Cube_FW_N6/Drivers/STM32N6xx_HAL_Driver/Src/stm32n6xx_hal_dma.c ****   *         to un-register callbacks for HAL_DMA_MSPINIT_CB_ID and HAL_DMA_MSPDEINIT_CB_ID.
1249:../STM32Cube_FW_N6/Drivers/STM32N6xx_HAL_Driver/Src/stm32n6xx_hal_dma.c ****   * @param  hdma       : Pointer to a DMA_HandleTypeDef structure that contains the configuration i
1250:../STM32Cube_FW_N6/Drivers/STM32N6xx_HAL_Driver/Src/stm32n6xx_hal_dma.c ****   *                      specified DMA Channel.
1251:../STM32Cube_FW_N6/Drivers/STM32N6xx_HAL_Driver/Src/stm32n6xx_hal_dma.c ****   * @param  CallbackID : User Callback identifier which could be a value of HAL_DMA_CallbackIDTypeD
1252:../STM32Cube_FW_N6/Drivers/STM32N6xx_HAL_Driver/Src/stm32n6xx_hal_dma.c ****   * @retval HAL status.
1253:../STM32Cube_FW_N6/Drivers/STM32N6xx_HAL_Driver/Src/stm32n6xx_hal_dma.c ****   */
1254:../STM32Cube_FW_N6/Drivers/STM32N6xx_HAL_Driver/Src/stm32n6xx_hal_dma.c **** HAL_StatusTypeDef HAL_DMA_UnRegisterCallback(DMA_HandleTypeDef *const hdma,
1255:../STM32Cube_FW_N6/Drivers/STM32N6xx_HAL_Driver/Src/stm32n6xx_hal_dma.c ****                                              HAL_DMA_CallbackIDTypeDef CallbackID)
1256:../STM32Cube_FW_N6/Drivers/STM32N6xx_HAL_Driver/Src/stm32n6xx_hal_dma.c **** {
1257:../STM32Cube_FW_N6/Drivers/STM32N6xx_HAL_Driver/Src/stm32n6xx_hal_dma.c ****   HAL_StatusTypeDef status = HAL_OK;
1258:../STM32Cube_FW_N6/Drivers/STM32N6xx_HAL_Driver/Src/stm32n6xx_hal_dma.c **** 
1259:../STM32Cube_FW_N6/Drivers/STM32N6xx_HAL_Driver/Src/stm32n6xx_hal_dma.c ****   /* Check the DMA peripheral handle parameter */
1260:../STM32Cube_FW_N6/Drivers/STM32N6xx_HAL_Driver/Src/stm32n6xx_hal_dma.c ****   if (hdma == NULL)
1261:../STM32Cube_FW_N6/Drivers/STM32N6xx_HAL_Driver/Src/stm32n6xx_hal_dma.c ****   {
1262:../STM32Cube_FW_N6/Drivers/STM32N6xx_HAL_Driver/Src/stm32n6xx_hal_dma.c ****     return HAL_ERROR;
1263:../STM32Cube_FW_N6/Drivers/STM32N6xx_HAL_Driver/Src/stm32n6xx_hal_dma.c ****   }
1264:../STM32Cube_FW_N6/Drivers/STM32N6xx_HAL_Driver/Src/stm32n6xx_hal_dma.c **** 
1265:../STM32Cube_FW_N6/Drivers/STM32N6xx_HAL_Driver/Src/stm32n6xx_hal_dma.c ****   /* Check DMA channel state */
1266:../STM32Cube_FW_N6/Drivers/STM32N6xx_HAL_Driver/Src/stm32n6xx_hal_dma.c ****   if (hdma->State == HAL_DMA_STATE_READY)
1267:../STM32Cube_FW_N6/Drivers/STM32N6xx_HAL_Driver/Src/stm32n6xx_hal_dma.c ****   {
1268:../STM32Cube_FW_N6/Drivers/STM32N6xx_HAL_Driver/Src/stm32n6xx_hal_dma.c ****     /* Check callback ID */
1269:../STM32Cube_FW_N6/Drivers/STM32N6xx_HAL_Driver/Src/stm32n6xx_hal_dma.c ****     switch (CallbackID)
1270:../STM32Cube_FW_N6/Drivers/STM32N6xx_HAL_Driver/Src/stm32n6xx_hal_dma.c ****     {
ARM GAS  /tmp/ccId6s4B.s 			page 41


1271:../STM32Cube_FW_N6/Drivers/STM32N6xx_HAL_Driver/Src/stm32n6xx_hal_dma.c ****       case HAL_DMA_XFER_CPLT_CB_ID:
1272:../STM32Cube_FW_N6/Drivers/STM32N6xx_HAL_Driver/Src/stm32n6xx_hal_dma.c ****       {
1273:../STM32Cube_FW_N6/Drivers/STM32N6xx_HAL_Driver/Src/stm32n6xx_hal_dma.c ****         /* UnRegister transfer complete callback */
1274:../STM32Cube_FW_N6/Drivers/STM32N6xx_HAL_Driver/Src/stm32n6xx_hal_dma.c ****         hdma->XferCpltCallback = NULL;
1275:../STM32Cube_FW_N6/Drivers/STM32N6xx_HAL_Driver/Src/stm32n6xx_hal_dma.c ****         break;
1276:../STM32Cube_FW_N6/Drivers/STM32N6xx_HAL_Driver/Src/stm32n6xx_hal_dma.c ****       }
1277:../STM32Cube_FW_N6/Drivers/STM32N6xx_HAL_Driver/Src/stm32n6xx_hal_dma.c **** 
1278:../STM32Cube_FW_N6/Drivers/STM32N6xx_HAL_Driver/Src/stm32n6xx_hal_dma.c ****       case HAL_DMA_XFER_HALFCPLT_CB_ID:
1279:../STM32Cube_FW_N6/Drivers/STM32N6xx_HAL_Driver/Src/stm32n6xx_hal_dma.c ****       {
1280:../STM32Cube_FW_N6/Drivers/STM32N6xx_HAL_Driver/Src/stm32n6xx_hal_dma.c ****         /* UnRegister half transfer callback */
1281:../STM32Cube_FW_N6/Drivers/STM32N6xx_HAL_Driver/Src/stm32n6xx_hal_dma.c ****         hdma->XferHalfCpltCallback = NULL;
1282:../STM32Cube_FW_N6/Drivers/STM32N6xx_HAL_Driver/Src/stm32n6xx_hal_dma.c ****         break;
1283:../STM32Cube_FW_N6/Drivers/STM32N6xx_HAL_Driver/Src/stm32n6xx_hal_dma.c ****       }
1284:../STM32Cube_FW_N6/Drivers/STM32N6xx_HAL_Driver/Src/stm32n6xx_hal_dma.c **** 
1285:../STM32Cube_FW_N6/Drivers/STM32N6xx_HAL_Driver/Src/stm32n6xx_hal_dma.c ****       case HAL_DMA_XFER_ERROR_CB_ID:
1286:../STM32Cube_FW_N6/Drivers/STM32N6xx_HAL_Driver/Src/stm32n6xx_hal_dma.c ****       {
1287:../STM32Cube_FW_N6/Drivers/STM32N6xx_HAL_Driver/Src/stm32n6xx_hal_dma.c ****         /* UnRegister transfer error callback */
1288:../STM32Cube_FW_N6/Drivers/STM32N6xx_HAL_Driver/Src/stm32n6xx_hal_dma.c ****         hdma->XferErrorCallback = NULL;
1289:../STM32Cube_FW_N6/Drivers/STM32N6xx_HAL_Driver/Src/stm32n6xx_hal_dma.c ****         break;
1290:../STM32Cube_FW_N6/Drivers/STM32N6xx_HAL_Driver/Src/stm32n6xx_hal_dma.c ****       }
1291:../STM32Cube_FW_N6/Drivers/STM32N6xx_HAL_Driver/Src/stm32n6xx_hal_dma.c **** 
1292:../STM32Cube_FW_N6/Drivers/STM32N6xx_HAL_Driver/Src/stm32n6xx_hal_dma.c ****       case HAL_DMA_XFER_ABORT_CB_ID:
1293:../STM32Cube_FW_N6/Drivers/STM32N6xx_HAL_Driver/Src/stm32n6xx_hal_dma.c ****       {
1294:../STM32Cube_FW_N6/Drivers/STM32N6xx_HAL_Driver/Src/stm32n6xx_hal_dma.c ****         /* UnRegister abort callback */
1295:../STM32Cube_FW_N6/Drivers/STM32N6xx_HAL_Driver/Src/stm32n6xx_hal_dma.c ****         hdma->XferAbortCallback = NULL;
1296:../STM32Cube_FW_N6/Drivers/STM32N6xx_HAL_Driver/Src/stm32n6xx_hal_dma.c ****         break;
1297:../STM32Cube_FW_N6/Drivers/STM32N6xx_HAL_Driver/Src/stm32n6xx_hal_dma.c ****       }
1298:../STM32Cube_FW_N6/Drivers/STM32N6xx_HAL_Driver/Src/stm32n6xx_hal_dma.c **** 
1299:../STM32Cube_FW_N6/Drivers/STM32N6xx_HAL_Driver/Src/stm32n6xx_hal_dma.c ****       case HAL_DMA_XFER_SUSPEND_CB_ID:
1300:../STM32Cube_FW_N6/Drivers/STM32N6xx_HAL_Driver/Src/stm32n6xx_hal_dma.c ****       {
1301:../STM32Cube_FW_N6/Drivers/STM32N6xx_HAL_Driver/Src/stm32n6xx_hal_dma.c ****         /* UnRegister suspend callback */
1302:../STM32Cube_FW_N6/Drivers/STM32N6xx_HAL_Driver/Src/stm32n6xx_hal_dma.c ****         hdma->XferSuspendCallback = NULL;
1303:../STM32Cube_FW_N6/Drivers/STM32N6xx_HAL_Driver/Src/stm32n6xx_hal_dma.c ****         break;
1304:../STM32Cube_FW_N6/Drivers/STM32N6xx_HAL_Driver/Src/stm32n6xx_hal_dma.c ****       }
1305:../STM32Cube_FW_N6/Drivers/STM32N6xx_HAL_Driver/Src/stm32n6xx_hal_dma.c **** 
1306:../STM32Cube_FW_N6/Drivers/STM32N6xx_HAL_Driver/Src/stm32n6xx_hal_dma.c ****       case HAL_DMA_XFER_ALL_CB_ID:
1307:../STM32Cube_FW_N6/Drivers/STM32N6xx_HAL_Driver/Src/stm32n6xx_hal_dma.c ****       {
1308:../STM32Cube_FW_N6/Drivers/STM32N6xx_HAL_Driver/Src/stm32n6xx_hal_dma.c ****         /* UnRegister all available callbacks */
1309:../STM32Cube_FW_N6/Drivers/STM32N6xx_HAL_Driver/Src/stm32n6xx_hal_dma.c ****         hdma->XferCpltCallback     = NULL;
1310:../STM32Cube_FW_N6/Drivers/STM32N6xx_HAL_Driver/Src/stm32n6xx_hal_dma.c ****         hdma->XferHalfCpltCallback = NULL;
1311:../STM32Cube_FW_N6/Drivers/STM32N6xx_HAL_Driver/Src/stm32n6xx_hal_dma.c ****         hdma->XferErrorCallback    = NULL;
1312:../STM32Cube_FW_N6/Drivers/STM32N6xx_HAL_Driver/Src/stm32n6xx_hal_dma.c ****         hdma->XferAbortCallback    = NULL;
1313:../STM32Cube_FW_N6/Drivers/STM32N6xx_HAL_Driver/Src/stm32n6xx_hal_dma.c ****         hdma->XferSuspendCallback  = NULL;
1314:../STM32Cube_FW_N6/Drivers/STM32N6xx_HAL_Driver/Src/stm32n6xx_hal_dma.c ****         break;
1315:../STM32Cube_FW_N6/Drivers/STM32N6xx_HAL_Driver/Src/stm32n6xx_hal_dma.c ****       }
1316:../STM32Cube_FW_N6/Drivers/STM32N6xx_HAL_Driver/Src/stm32n6xx_hal_dma.c **** 
1317:../STM32Cube_FW_N6/Drivers/STM32N6xx_HAL_Driver/Src/stm32n6xx_hal_dma.c ****       default:
1318:../STM32Cube_FW_N6/Drivers/STM32N6xx_HAL_Driver/Src/stm32n6xx_hal_dma.c ****       {
1319:../STM32Cube_FW_N6/Drivers/STM32N6xx_HAL_Driver/Src/stm32n6xx_hal_dma.c ****         /* Update error status */
1320:../STM32Cube_FW_N6/Drivers/STM32N6xx_HAL_Driver/Src/stm32n6xx_hal_dma.c ****         status = HAL_ERROR;
1321:../STM32Cube_FW_N6/Drivers/STM32N6xx_HAL_Driver/Src/stm32n6xx_hal_dma.c ****         break;
1322:../STM32Cube_FW_N6/Drivers/STM32N6xx_HAL_Driver/Src/stm32n6xx_hal_dma.c ****       }
1323:../STM32Cube_FW_N6/Drivers/STM32N6xx_HAL_Driver/Src/stm32n6xx_hal_dma.c ****     }
1324:../STM32Cube_FW_N6/Drivers/STM32N6xx_HAL_Driver/Src/stm32n6xx_hal_dma.c ****   }
1325:../STM32Cube_FW_N6/Drivers/STM32N6xx_HAL_Driver/Src/stm32n6xx_hal_dma.c ****   else
1326:../STM32Cube_FW_N6/Drivers/STM32N6xx_HAL_Driver/Src/stm32n6xx_hal_dma.c ****   {
1327:../STM32Cube_FW_N6/Drivers/STM32N6xx_HAL_Driver/Src/stm32n6xx_hal_dma.c ****     /* Update error status */
ARM GAS  /tmp/ccId6s4B.s 			page 42


1328:../STM32Cube_FW_N6/Drivers/STM32N6xx_HAL_Driver/Src/stm32n6xx_hal_dma.c ****     status = HAL_ERROR;
1329:../STM32Cube_FW_N6/Drivers/STM32N6xx_HAL_Driver/Src/stm32n6xx_hal_dma.c ****   }
1330:../STM32Cube_FW_N6/Drivers/STM32N6xx_HAL_Driver/Src/stm32n6xx_hal_dma.c **** 
1331:../STM32Cube_FW_N6/Drivers/STM32N6xx_HAL_Driver/Src/stm32n6xx_hal_dma.c ****   return status;
1332:../STM32Cube_FW_N6/Drivers/STM32N6xx_HAL_Driver/Src/stm32n6xx_hal_dma.c **** }
1333:../STM32Cube_FW_N6/Drivers/STM32N6xx_HAL_Driver/Src/stm32n6xx_hal_dma.c **** /**
1334:../STM32Cube_FW_N6/Drivers/STM32N6xx_HAL_Driver/Src/stm32n6xx_hal_dma.c ****   * @}
1335:../STM32Cube_FW_N6/Drivers/STM32N6xx_HAL_Driver/Src/stm32n6xx_hal_dma.c ****   */
1336:../STM32Cube_FW_N6/Drivers/STM32N6xx_HAL_Driver/Src/stm32n6xx_hal_dma.c **** 
1337:../STM32Cube_FW_N6/Drivers/STM32N6xx_HAL_Driver/Src/stm32n6xx_hal_dma.c **** /** @addtogroup DMA_Exported_Functions_Group3
1338:../STM32Cube_FW_N6/Drivers/STM32N6xx_HAL_Driver/Src/stm32n6xx_hal_dma.c ****   *
1339:../STM32Cube_FW_N6/Drivers/STM32N6xx_HAL_Driver/Src/stm32n6xx_hal_dma.c **** @verbatim
1340:../STM32Cube_FW_N6/Drivers/STM32N6xx_HAL_Driver/Src/stm32n6xx_hal_dma.c ****   =================================================================================================
1341:../STM32Cube_FW_N6/Drivers/STM32N6xx_HAL_Driver/Src/stm32n6xx_hal_dma.c ****                               ##### State and Errors functions #####
1342:../STM32Cube_FW_N6/Drivers/STM32N6xx_HAL_Driver/Src/stm32n6xx_hal_dma.c ****   =================================================================================================
1343:../STM32Cube_FW_N6/Drivers/STM32N6xx_HAL_Driver/Src/stm32n6xx_hal_dma.c ****     [..]
1344:../STM32Cube_FW_N6/Drivers/STM32N6xx_HAL_Driver/Src/stm32n6xx_hal_dma.c ****       This section provides functions allowing to :
1345:../STM32Cube_FW_N6/Drivers/STM32N6xx_HAL_Driver/Src/stm32n6xx_hal_dma.c ****       (+) Check the DMA state
1346:../STM32Cube_FW_N6/Drivers/STM32N6xx_HAL_Driver/Src/stm32n6xx_hal_dma.c ****       (+) Get error code
1347:../STM32Cube_FW_N6/Drivers/STM32N6xx_HAL_Driver/Src/stm32n6xx_hal_dma.c **** 
1348:../STM32Cube_FW_N6/Drivers/STM32N6xx_HAL_Driver/Src/stm32n6xx_hal_dma.c ****     [..]
1349:../STM32Cube_FW_N6/Drivers/STM32N6xx_HAL_Driver/Src/stm32n6xx_hal_dma.c ****       (+) The HAL_DMA_GetState() function allows to get the DMA channel state.
1350:../STM32Cube_FW_N6/Drivers/STM32N6xx_HAL_Driver/Src/stm32n6xx_hal_dma.c ****       (+) The HAL_DMA_DeInit() function allows to get the DMA channel error code.
1351:../STM32Cube_FW_N6/Drivers/STM32N6xx_HAL_Driver/Src/stm32n6xx_hal_dma.c **** 
1352:../STM32Cube_FW_N6/Drivers/STM32N6xx_HAL_Driver/Src/stm32n6xx_hal_dma.c **** @endverbatim
1353:../STM32Cube_FW_N6/Drivers/STM32N6xx_HAL_Driver/Src/stm32n6xx_hal_dma.c ****   * @{
1354:../STM32Cube_FW_N6/Drivers/STM32N6xx_HAL_Driver/Src/stm32n6xx_hal_dma.c ****   */
1355:../STM32Cube_FW_N6/Drivers/STM32N6xx_HAL_Driver/Src/stm32n6xx_hal_dma.c **** 
1356:../STM32Cube_FW_N6/Drivers/STM32N6xx_HAL_Driver/Src/stm32n6xx_hal_dma.c **** /**
1357:../STM32Cube_FW_N6/Drivers/STM32N6xx_HAL_Driver/Src/stm32n6xx_hal_dma.c ****   * @brief  Returns the DMA channel state.
1358:../STM32Cube_FW_N6/Drivers/STM32N6xx_HAL_Driver/Src/stm32n6xx_hal_dma.c ****   * @param  hdma : Pointer to a DMA_HandleTypeDef structure that contains the configuration informa
1359:../STM32Cube_FW_N6/Drivers/STM32N6xx_HAL_Driver/Src/stm32n6xx_hal_dma.c ****   *                specified DMA Channel.
1360:../STM32Cube_FW_N6/Drivers/STM32N6xx_HAL_Driver/Src/stm32n6xx_hal_dma.c ****   * @retval DMA state.
1361:../STM32Cube_FW_N6/Drivers/STM32N6xx_HAL_Driver/Src/stm32n6xx_hal_dma.c ****   */
1362:../STM32Cube_FW_N6/Drivers/STM32N6xx_HAL_Driver/Src/stm32n6xx_hal_dma.c **** HAL_DMA_StateTypeDef HAL_DMA_GetState(DMA_HandleTypeDef const *const hdma)
1363:../STM32Cube_FW_N6/Drivers/STM32N6xx_HAL_Driver/Src/stm32n6xx_hal_dma.c **** {
1364:../STM32Cube_FW_N6/Drivers/STM32N6xx_HAL_Driver/Src/stm32n6xx_hal_dma.c ****   /* Return the DMA channel state */
1365:../STM32Cube_FW_N6/Drivers/STM32N6xx_HAL_Driver/Src/stm32n6xx_hal_dma.c ****   return hdma->State;
1366:../STM32Cube_FW_N6/Drivers/STM32N6xx_HAL_Driver/Src/stm32n6xx_hal_dma.c **** }
1367:../STM32Cube_FW_N6/Drivers/STM32N6xx_HAL_Driver/Src/stm32n6xx_hal_dma.c **** 
1368:../STM32Cube_FW_N6/Drivers/STM32N6xx_HAL_Driver/Src/stm32n6xx_hal_dma.c **** /**
1369:../STM32Cube_FW_N6/Drivers/STM32N6xx_HAL_Driver/Src/stm32n6xx_hal_dma.c ****   * @brief  Return the DMA channel error code.
1370:../STM32Cube_FW_N6/Drivers/STM32N6xx_HAL_Driver/Src/stm32n6xx_hal_dma.c ****   * @param  hdma : Pointer to a DMA_HandleTypeDef structure that contains the configuration informa
1371:../STM32Cube_FW_N6/Drivers/STM32N6xx_HAL_Driver/Src/stm32n6xx_hal_dma.c ****   *                specified DMA Channel.
1372:../STM32Cube_FW_N6/Drivers/STM32N6xx_HAL_Driver/Src/stm32n6xx_hal_dma.c ****   * @retval DMA Error Code.
1373:../STM32Cube_FW_N6/Drivers/STM32N6xx_HAL_Driver/Src/stm32n6xx_hal_dma.c ****   */
1374:../STM32Cube_FW_N6/Drivers/STM32N6xx_HAL_Driver/Src/stm32n6xx_hal_dma.c **** uint32_t HAL_DMA_GetError(DMA_HandleTypeDef const *const hdma)
1375:../STM32Cube_FW_N6/Drivers/STM32N6xx_HAL_Driver/Src/stm32n6xx_hal_dma.c **** {
1376:../STM32Cube_FW_N6/Drivers/STM32N6xx_HAL_Driver/Src/stm32n6xx_hal_dma.c ****   /* Return the DMA channel error code */
1377:../STM32Cube_FW_N6/Drivers/STM32N6xx_HAL_Driver/Src/stm32n6xx_hal_dma.c ****   return hdma->ErrorCode;
1378:../STM32Cube_FW_N6/Drivers/STM32N6xx_HAL_Driver/Src/stm32n6xx_hal_dma.c **** }
1379:../STM32Cube_FW_N6/Drivers/STM32N6xx_HAL_Driver/Src/stm32n6xx_hal_dma.c **** /**
1380:../STM32Cube_FW_N6/Drivers/STM32N6xx_HAL_Driver/Src/stm32n6xx_hal_dma.c ****   * @}
1381:../STM32Cube_FW_N6/Drivers/STM32N6xx_HAL_Driver/Src/stm32n6xx_hal_dma.c ****   */
1382:../STM32Cube_FW_N6/Drivers/STM32N6xx_HAL_Driver/Src/stm32n6xx_hal_dma.c **** 
1383:../STM32Cube_FW_N6/Drivers/STM32N6xx_HAL_Driver/Src/stm32n6xx_hal_dma.c **** /** @addtogroup DMA_Exported_Functions_Group4
1384:../STM32Cube_FW_N6/Drivers/STM32N6xx_HAL_Driver/Src/stm32n6xx_hal_dma.c ****   *
ARM GAS  /tmp/ccId6s4B.s 			page 43


1385:../STM32Cube_FW_N6/Drivers/STM32N6xx_HAL_Driver/Src/stm32n6xx_hal_dma.c **** @verbatim
1386:../STM32Cube_FW_N6/Drivers/STM32N6xx_HAL_Driver/Src/stm32n6xx_hal_dma.c ****   =================================================================================================
1387:../STM32Cube_FW_N6/Drivers/STM32N6xx_HAL_Driver/Src/stm32n6xx_hal_dma.c ****                            ##### DMA Attributes functions #####
1388:../STM32Cube_FW_N6/Drivers/STM32N6xx_HAL_Driver/Src/stm32n6xx_hal_dma.c ****   =================================================================================================
1389:../STM32Cube_FW_N6/Drivers/STM32N6xx_HAL_Driver/Src/stm32n6xx_hal_dma.c ****     [..]
1390:../STM32Cube_FW_N6/Drivers/STM32N6xx_HAL_Driver/Src/stm32n6xx_hal_dma.c ****       This section provides functions allowing to :
1391:../STM32Cube_FW_N6/Drivers/STM32N6xx_HAL_Driver/Src/stm32n6xx_hal_dma.c ****       (+) Configure DMA channel secure and privilege attributes.
1392:../STM32Cube_FW_N6/Drivers/STM32N6xx_HAL_Driver/Src/stm32n6xx_hal_dma.c ****       (+) Get DMA channel secure and privilege attributes.
1393:../STM32Cube_FW_N6/Drivers/STM32N6xx_HAL_Driver/Src/stm32n6xx_hal_dma.c ****       (+) Lock DMA channel secure and privilege attributes configuration.
1394:../STM32Cube_FW_N6/Drivers/STM32N6xx_HAL_Driver/Src/stm32n6xx_hal_dma.c ****       (+) Check whether DMA channel secure and privilege attributes configuration is locked or not.
1395:../STM32Cube_FW_N6/Drivers/STM32N6xx_HAL_Driver/Src/stm32n6xx_hal_dma.c **** 
1396:../STM32Cube_FW_N6/Drivers/STM32N6xx_HAL_Driver/Src/stm32n6xx_hal_dma.c ****     [..]
1397:../STM32Cube_FW_N6/Drivers/STM32N6xx_HAL_Driver/Src/stm32n6xx_hal_dma.c ****       (+) The HAL_DMA_ConfigChannelAttributes() function allows to configure DMA channel security a
1398:../STM32Cube_FW_N6/Drivers/STM32N6xx_HAL_Driver/Src/stm32n6xx_hal_dma.c ****           attributes.
1399:../STM32Cube_FW_N6/Drivers/STM32N6xx_HAL_Driver/Src/stm32n6xx_hal_dma.c ****       (+) The HAL_DMA_GetConfigChannelAttributes() function allows to get DMA channel security and 
1400:../STM32Cube_FW_N6/Drivers/STM32N6xx_HAL_Driver/Src/stm32n6xx_hal_dma.c ****           configuration.
1401:../STM32Cube_FW_N6/Drivers/STM32N6xx_HAL_Driver/Src/stm32n6xx_hal_dma.c ****       (+) The HAL_DMA_LockChannelAttributes() function allows to lock the DMA channel security and 
1402:../STM32Cube_FW_N6/Drivers/STM32N6xx_HAL_Driver/Src/stm32n6xx_hal_dma.c ****       (+) The HAL_DMA_GetLockChannelAttributes() function allows to get the DMA channel security an
1403:../STM32Cube_FW_N6/Drivers/STM32N6xx_HAL_Driver/Src/stm32n6xx_hal_dma.c ****           attributes lock status.
1404:../STM32Cube_FW_N6/Drivers/STM32N6xx_HAL_Driver/Src/stm32n6xx_hal_dma.c **** 
1405:../STM32Cube_FW_N6/Drivers/STM32N6xx_HAL_Driver/Src/stm32n6xx_hal_dma.c **** @endverbatim
1406:../STM32Cube_FW_N6/Drivers/STM32N6xx_HAL_Driver/Src/stm32n6xx_hal_dma.c ****   * @{
1407:../STM32Cube_FW_N6/Drivers/STM32N6xx_HAL_Driver/Src/stm32n6xx_hal_dma.c ****   */
1408:../STM32Cube_FW_N6/Drivers/STM32N6xx_HAL_Driver/Src/stm32n6xx_hal_dma.c **** 
1409:../STM32Cube_FW_N6/Drivers/STM32N6xx_HAL_Driver/Src/stm32n6xx_hal_dma.c **** /**
1410:../STM32Cube_FW_N6/Drivers/STM32N6xx_HAL_Driver/Src/stm32n6xx_hal_dma.c ****   * @brief  Configure the DMA channel security and privilege attribute(s).
1411:../STM32Cube_FW_N6/Drivers/STM32N6xx_HAL_Driver/Src/stm32n6xx_hal_dma.c ****   * @note   These attributes cannot be modified when the corresponding lock state is enabled.
1412:../STM32Cube_FW_N6/Drivers/STM32N6xx_HAL_Driver/Src/stm32n6xx_hal_dma.c ****   * @param  hdma              : Pointer to a DMA_HandleTypeDef structure that contains the configur
1413:../STM32Cube_FW_N6/Drivers/STM32N6xx_HAL_Driver/Src/stm32n6xx_hal_dma.c ****   *                             the specified DMA Channel.
1414:../STM32Cube_FW_N6/Drivers/STM32N6xx_HAL_Driver/Src/stm32n6xx_hal_dma.c ****   * @param  ChannelAttributes : Specifies the DMA channel secure/privilege attributes.
1415:../STM32Cube_FW_N6/Drivers/STM32N6xx_HAL_Driver/Src/stm32n6xx_hal_dma.c ****   *                             This parameter can be a one or a combination of @ref DMA_Channel_At
1416:../STM32Cube_FW_N6/Drivers/STM32N6xx_HAL_Driver/Src/stm32n6xx_hal_dma.c ****   * @retval HAL Status.
1417:../STM32Cube_FW_N6/Drivers/STM32N6xx_HAL_Driver/Src/stm32n6xx_hal_dma.c ****   */
1418:../STM32Cube_FW_N6/Drivers/STM32N6xx_HAL_Driver/Src/stm32n6xx_hal_dma.c **** HAL_StatusTypeDef HAL_DMA_ConfigChannelAttributes(DMA_HandleTypeDef *const hdma, uint32_t ChannelAt
1419:../STM32Cube_FW_N6/Drivers/STM32N6xx_HAL_Driver/Src/stm32n6xx_hal_dma.c **** {
1420:../STM32Cube_FW_N6/Drivers/STM32N6xx_HAL_Driver/Src/stm32n6xx_hal_dma.c ****   DMA_TypeDef *p_dma_instance;
1421:../STM32Cube_FW_N6/Drivers/STM32N6xx_HAL_Driver/Src/stm32n6xx_hal_dma.c ****   uint32_t channel_idx;
1422:../STM32Cube_FW_N6/Drivers/STM32N6xx_HAL_Driver/Src/stm32n6xx_hal_dma.c **** 
1423:../STM32Cube_FW_N6/Drivers/STM32N6xx_HAL_Driver/Src/stm32n6xx_hal_dma.c ****   /* Check the DMA peripheral handle parameter */
1424:../STM32Cube_FW_N6/Drivers/STM32N6xx_HAL_Driver/Src/stm32n6xx_hal_dma.c ****   if (hdma == NULL)
1425:../STM32Cube_FW_N6/Drivers/STM32N6xx_HAL_Driver/Src/stm32n6xx_hal_dma.c ****   {
1426:../STM32Cube_FW_N6/Drivers/STM32N6xx_HAL_Driver/Src/stm32n6xx_hal_dma.c ****     return HAL_ERROR;
1427:../STM32Cube_FW_N6/Drivers/STM32N6xx_HAL_Driver/Src/stm32n6xx_hal_dma.c ****   }
1428:../STM32Cube_FW_N6/Drivers/STM32N6xx_HAL_Driver/Src/stm32n6xx_hal_dma.c **** 
1429:../STM32Cube_FW_N6/Drivers/STM32N6xx_HAL_Driver/Src/stm32n6xx_hal_dma.c ****   /* Check the parameters */
1430:../STM32Cube_FW_N6/Drivers/STM32N6xx_HAL_Driver/Src/stm32n6xx_hal_dma.c ****   assert_param(IS_DMA_ATTRIBUTES(ChannelAttributes));
1431:../STM32Cube_FW_N6/Drivers/STM32N6xx_HAL_Driver/Src/stm32n6xx_hal_dma.c **** 
1432:../STM32Cube_FW_N6/Drivers/STM32N6xx_HAL_Driver/Src/stm32n6xx_hal_dma.c ****   /* Get DMA instance */
1433:../STM32Cube_FW_N6/Drivers/STM32N6xx_HAL_Driver/Src/stm32n6xx_hal_dma.c ****   p_dma_instance = GET_DMA_INSTANCE(hdma);
1434:../STM32Cube_FW_N6/Drivers/STM32N6xx_HAL_Driver/Src/stm32n6xx_hal_dma.c **** 
1435:../STM32Cube_FW_N6/Drivers/STM32N6xx_HAL_Driver/Src/stm32n6xx_hal_dma.c ****   /* Get channel index */
1436:../STM32Cube_FW_N6/Drivers/STM32N6xx_HAL_Driver/Src/stm32n6xx_hal_dma.c ****   channel_idx = 1UL << (GET_DMA_CHANNEL(hdma) & 0x1FU);
1437:../STM32Cube_FW_N6/Drivers/STM32N6xx_HAL_Driver/Src/stm32n6xx_hal_dma.c **** 
1438:../STM32Cube_FW_N6/Drivers/STM32N6xx_HAL_Driver/Src/stm32n6xx_hal_dma.c ****   /* Check DMA channel privilege attribute management */
1439:../STM32Cube_FW_N6/Drivers/STM32N6xx_HAL_Driver/Src/stm32n6xx_hal_dma.c ****   if ((ChannelAttributes & DMA_CHANNEL_ATTR_PRIV_MASK) == DMA_CHANNEL_ATTR_PRIV_MASK)
1440:../STM32Cube_FW_N6/Drivers/STM32N6xx_HAL_Driver/Src/stm32n6xx_hal_dma.c ****   {
1441:../STM32Cube_FW_N6/Drivers/STM32N6xx_HAL_Driver/Src/stm32n6xx_hal_dma.c ****     /* Configure DMA channel privilege attribute */
ARM GAS  /tmp/ccId6s4B.s 			page 44


1442:../STM32Cube_FW_N6/Drivers/STM32N6xx_HAL_Driver/Src/stm32n6xx_hal_dma.c ****     if ((ChannelAttributes & DMA_CHANNEL_PRIV) == DMA_CHANNEL_PRIV)
1443:../STM32Cube_FW_N6/Drivers/STM32N6xx_HAL_Driver/Src/stm32n6xx_hal_dma.c ****     {
1444:../STM32Cube_FW_N6/Drivers/STM32N6xx_HAL_Driver/Src/stm32n6xx_hal_dma.c ****       p_dma_instance->PRIVCFGR |= channel_idx;
1445:../STM32Cube_FW_N6/Drivers/STM32N6xx_HAL_Driver/Src/stm32n6xx_hal_dma.c ****     }
1446:../STM32Cube_FW_N6/Drivers/STM32N6xx_HAL_Driver/Src/stm32n6xx_hal_dma.c ****     else
1447:../STM32Cube_FW_N6/Drivers/STM32N6xx_HAL_Driver/Src/stm32n6xx_hal_dma.c ****     {
1448:../STM32Cube_FW_N6/Drivers/STM32N6xx_HAL_Driver/Src/stm32n6xx_hal_dma.c ****       p_dma_instance->PRIVCFGR &= (~channel_idx);
1449:../STM32Cube_FW_N6/Drivers/STM32N6xx_HAL_Driver/Src/stm32n6xx_hal_dma.c ****     }
1450:../STM32Cube_FW_N6/Drivers/STM32N6xx_HAL_Driver/Src/stm32n6xx_hal_dma.c ****   }
1451:../STM32Cube_FW_N6/Drivers/STM32N6xx_HAL_Driver/Src/stm32n6xx_hal_dma.c **** 
1452:../STM32Cube_FW_N6/Drivers/STM32N6xx_HAL_Driver/Src/stm32n6xx_hal_dma.c **** #if defined (CPU_IN_SECURE_STATE)
1453:../STM32Cube_FW_N6/Drivers/STM32N6xx_HAL_Driver/Src/stm32n6xx_hal_dma.c ****   /* Check DMA channel security attribute management */
1454:../STM32Cube_FW_N6/Drivers/STM32N6xx_HAL_Driver/Src/stm32n6xx_hal_dma.c ****   if ((ChannelAttributes & DMA_CHANNEL_ATTR_SEC_MASK) == DMA_CHANNEL_ATTR_SEC_MASK)
1455:../STM32Cube_FW_N6/Drivers/STM32N6xx_HAL_Driver/Src/stm32n6xx_hal_dma.c ****   {
1456:../STM32Cube_FW_N6/Drivers/STM32N6xx_HAL_Driver/Src/stm32n6xx_hal_dma.c ****     /* Configure DMA channel security attribute */
1457:../STM32Cube_FW_N6/Drivers/STM32N6xx_HAL_Driver/Src/stm32n6xx_hal_dma.c ****     if ((ChannelAttributes & DMA_CHANNEL_SEC) == DMA_CHANNEL_SEC)
1458:../STM32Cube_FW_N6/Drivers/STM32N6xx_HAL_Driver/Src/stm32n6xx_hal_dma.c ****     {
1459:../STM32Cube_FW_N6/Drivers/STM32N6xx_HAL_Driver/Src/stm32n6xx_hal_dma.c ****       p_dma_instance->SECCFGR |= channel_idx;
1460:../STM32Cube_FW_N6/Drivers/STM32N6xx_HAL_Driver/Src/stm32n6xx_hal_dma.c ****     }
1461:../STM32Cube_FW_N6/Drivers/STM32N6xx_HAL_Driver/Src/stm32n6xx_hal_dma.c ****     else
1462:../STM32Cube_FW_N6/Drivers/STM32N6xx_HAL_Driver/Src/stm32n6xx_hal_dma.c ****     {
1463:../STM32Cube_FW_N6/Drivers/STM32N6xx_HAL_Driver/Src/stm32n6xx_hal_dma.c ****       p_dma_instance->SECCFGR &= (~channel_idx);
1464:../STM32Cube_FW_N6/Drivers/STM32N6xx_HAL_Driver/Src/stm32n6xx_hal_dma.c ****     }
1465:../STM32Cube_FW_N6/Drivers/STM32N6xx_HAL_Driver/Src/stm32n6xx_hal_dma.c ****   }
1466:../STM32Cube_FW_N6/Drivers/STM32N6xx_HAL_Driver/Src/stm32n6xx_hal_dma.c **** 
1467:../STM32Cube_FW_N6/Drivers/STM32N6xx_HAL_Driver/Src/stm32n6xx_hal_dma.c ****   /* Channel source security attribute management */
1468:../STM32Cube_FW_N6/Drivers/STM32N6xx_HAL_Driver/Src/stm32n6xx_hal_dma.c ****   if ((ChannelAttributes & DMA_CHANNEL_ATTR_SEC_SRC_MASK) == DMA_CHANNEL_ATTR_SEC_SRC_MASK)
1469:../STM32Cube_FW_N6/Drivers/STM32N6xx_HAL_Driver/Src/stm32n6xx_hal_dma.c ****   {
1470:../STM32Cube_FW_N6/Drivers/STM32N6xx_HAL_Driver/Src/stm32n6xx_hal_dma.c ****     /* Configure DMA channel source security attribute */
1471:../STM32Cube_FW_N6/Drivers/STM32N6xx_HAL_Driver/Src/stm32n6xx_hal_dma.c ****     if ((ChannelAttributes & DMA_CHANNEL_SRC_SEC) == DMA_CHANNEL_SRC_SEC)
1472:../STM32Cube_FW_N6/Drivers/STM32N6xx_HAL_Driver/Src/stm32n6xx_hal_dma.c ****     {
1473:../STM32Cube_FW_N6/Drivers/STM32N6xx_HAL_Driver/Src/stm32n6xx_hal_dma.c ****       hdma->Instance->CTR1 |= DMA_CTR1_SSEC;
1474:../STM32Cube_FW_N6/Drivers/STM32N6xx_HAL_Driver/Src/stm32n6xx_hal_dma.c ****     }
1475:../STM32Cube_FW_N6/Drivers/STM32N6xx_HAL_Driver/Src/stm32n6xx_hal_dma.c ****     else
1476:../STM32Cube_FW_N6/Drivers/STM32N6xx_HAL_Driver/Src/stm32n6xx_hal_dma.c ****     {
1477:../STM32Cube_FW_N6/Drivers/STM32N6xx_HAL_Driver/Src/stm32n6xx_hal_dma.c ****       hdma->Instance->CTR1 &= (~DMA_CTR1_SSEC);
1478:../STM32Cube_FW_N6/Drivers/STM32N6xx_HAL_Driver/Src/stm32n6xx_hal_dma.c ****     }
1479:../STM32Cube_FW_N6/Drivers/STM32N6xx_HAL_Driver/Src/stm32n6xx_hal_dma.c ****   }
1480:../STM32Cube_FW_N6/Drivers/STM32N6xx_HAL_Driver/Src/stm32n6xx_hal_dma.c **** 
1481:../STM32Cube_FW_N6/Drivers/STM32N6xx_HAL_Driver/Src/stm32n6xx_hal_dma.c ****   /* Channel destination security attribute management */
1482:../STM32Cube_FW_N6/Drivers/STM32N6xx_HAL_Driver/Src/stm32n6xx_hal_dma.c ****   if ((ChannelAttributes & DMA_CHANNEL_ATTR_SEC_DEST_MASK) == DMA_CHANNEL_ATTR_SEC_DEST_MASK)
1483:../STM32Cube_FW_N6/Drivers/STM32N6xx_HAL_Driver/Src/stm32n6xx_hal_dma.c ****   {
1484:../STM32Cube_FW_N6/Drivers/STM32N6xx_HAL_Driver/Src/stm32n6xx_hal_dma.c ****     /* Configure DMA channel destination security attribute */
1485:../STM32Cube_FW_N6/Drivers/STM32N6xx_HAL_Driver/Src/stm32n6xx_hal_dma.c ****     if ((ChannelAttributes & DMA_CHANNEL_DEST_SEC) == DMA_CHANNEL_DEST_SEC)
1486:../STM32Cube_FW_N6/Drivers/STM32N6xx_HAL_Driver/Src/stm32n6xx_hal_dma.c ****     {
1487:../STM32Cube_FW_N6/Drivers/STM32N6xx_HAL_Driver/Src/stm32n6xx_hal_dma.c ****       hdma->Instance->CTR1 |= DMA_CTR1_DSEC;
1488:../STM32Cube_FW_N6/Drivers/STM32N6xx_HAL_Driver/Src/stm32n6xx_hal_dma.c ****     }
1489:../STM32Cube_FW_N6/Drivers/STM32N6xx_HAL_Driver/Src/stm32n6xx_hal_dma.c ****     else
1490:../STM32Cube_FW_N6/Drivers/STM32N6xx_HAL_Driver/Src/stm32n6xx_hal_dma.c ****     {
1491:../STM32Cube_FW_N6/Drivers/STM32N6xx_HAL_Driver/Src/stm32n6xx_hal_dma.c ****       hdma->Instance->CTR1 &= (~DMA_CTR1_DSEC);
1492:../STM32Cube_FW_N6/Drivers/STM32N6xx_HAL_Driver/Src/stm32n6xx_hal_dma.c ****     }
1493:../STM32Cube_FW_N6/Drivers/STM32N6xx_HAL_Driver/Src/stm32n6xx_hal_dma.c ****   }
1494:../STM32Cube_FW_N6/Drivers/STM32N6xx_HAL_Driver/Src/stm32n6xx_hal_dma.c **** #endif /* CPU_IN_SECURE_STATE */
1495:../STM32Cube_FW_N6/Drivers/STM32N6xx_HAL_Driver/Src/stm32n6xx_hal_dma.c **** 
1496:../STM32Cube_FW_N6/Drivers/STM32N6xx_HAL_Driver/Src/stm32n6xx_hal_dma.c ****   return HAL_OK;
1497:../STM32Cube_FW_N6/Drivers/STM32N6xx_HAL_Driver/Src/stm32n6xx_hal_dma.c **** }
1498:../STM32Cube_FW_N6/Drivers/STM32N6xx_HAL_Driver/Src/stm32n6xx_hal_dma.c **** 
ARM GAS  /tmp/ccId6s4B.s 			page 45


1499:../STM32Cube_FW_N6/Drivers/STM32N6xx_HAL_Driver/Src/stm32n6xx_hal_dma.c **** /**
1500:../STM32Cube_FW_N6/Drivers/STM32N6xx_HAL_Driver/Src/stm32n6xx_hal_dma.c ****   * @brief  Get the DMA channel security and privilege attributes.
1501:../STM32Cube_FW_N6/Drivers/STM32N6xx_HAL_Driver/Src/stm32n6xx_hal_dma.c ****   * @param  hdma               : Pointer to a DMA_HandleTypeDef structure that contains the configu
1502:../STM32Cube_FW_N6/Drivers/STM32N6xx_HAL_Driver/Src/stm32n6xx_hal_dma.c ****   *                              for the specified DMA Channel.
1503:../STM32Cube_FW_N6/Drivers/STM32N6xx_HAL_Driver/Src/stm32n6xx_hal_dma.c ****   * @param  pChannelAttributes : Pointer to the returned attributes.
1504:../STM32Cube_FW_N6/Drivers/STM32N6xx_HAL_Driver/Src/stm32n6xx_hal_dma.c ****   * @retval HAL Status.
1505:../STM32Cube_FW_N6/Drivers/STM32N6xx_HAL_Driver/Src/stm32n6xx_hal_dma.c ****   */
1506:../STM32Cube_FW_N6/Drivers/STM32N6xx_HAL_Driver/Src/stm32n6xx_hal_dma.c **** HAL_StatusTypeDef HAL_DMA_GetConfigChannelAttributes(DMA_HandleTypeDef const *const hdma,
1507:../STM32Cube_FW_N6/Drivers/STM32N6xx_HAL_Driver/Src/stm32n6xx_hal_dma.c ****                                                      uint32_t *const pChannelAttributes)
1508:../STM32Cube_FW_N6/Drivers/STM32N6xx_HAL_Driver/Src/stm32n6xx_hal_dma.c **** {
1509:../STM32Cube_FW_N6/Drivers/STM32N6xx_HAL_Driver/Src/stm32n6xx_hal_dma.c ****   const DMA_TypeDef *p_dma_instance;
1510:../STM32Cube_FW_N6/Drivers/STM32N6xx_HAL_Driver/Src/stm32n6xx_hal_dma.c ****   uint32_t attributes;
1511:../STM32Cube_FW_N6/Drivers/STM32N6xx_HAL_Driver/Src/stm32n6xx_hal_dma.c ****   uint32_t channel_idx;
1512:../STM32Cube_FW_N6/Drivers/STM32N6xx_HAL_Driver/Src/stm32n6xx_hal_dma.c **** 
1513:../STM32Cube_FW_N6/Drivers/STM32N6xx_HAL_Driver/Src/stm32n6xx_hal_dma.c ****   /* Check the DMA peripheral handle and channel attributes parameters */
1514:../STM32Cube_FW_N6/Drivers/STM32N6xx_HAL_Driver/Src/stm32n6xx_hal_dma.c ****   if ((hdma == NULL) || (pChannelAttributes == NULL))
1515:../STM32Cube_FW_N6/Drivers/STM32N6xx_HAL_Driver/Src/stm32n6xx_hal_dma.c ****   {
1516:../STM32Cube_FW_N6/Drivers/STM32N6xx_HAL_Driver/Src/stm32n6xx_hal_dma.c ****     return HAL_ERROR;
1517:../STM32Cube_FW_N6/Drivers/STM32N6xx_HAL_Driver/Src/stm32n6xx_hal_dma.c ****   }
1518:../STM32Cube_FW_N6/Drivers/STM32N6xx_HAL_Driver/Src/stm32n6xx_hal_dma.c **** 
1519:../STM32Cube_FW_N6/Drivers/STM32N6xx_HAL_Driver/Src/stm32n6xx_hal_dma.c ****   /* Get DMA instance */
1520:../STM32Cube_FW_N6/Drivers/STM32N6xx_HAL_Driver/Src/stm32n6xx_hal_dma.c ****   p_dma_instance = GET_DMA_INSTANCE(hdma);
1521:../STM32Cube_FW_N6/Drivers/STM32N6xx_HAL_Driver/Src/stm32n6xx_hal_dma.c **** 
1522:../STM32Cube_FW_N6/Drivers/STM32N6xx_HAL_Driver/Src/stm32n6xx_hal_dma.c ****   /* Get channel index */
1523:../STM32Cube_FW_N6/Drivers/STM32N6xx_HAL_Driver/Src/stm32n6xx_hal_dma.c ****   channel_idx = 1UL << (GET_DMA_CHANNEL(hdma) & 0x1FU);
1524:../STM32Cube_FW_N6/Drivers/STM32N6xx_HAL_Driver/Src/stm32n6xx_hal_dma.c **** 
1525:../STM32Cube_FW_N6/Drivers/STM32N6xx_HAL_Driver/Src/stm32n6xx_hal_dma.c ****   /* Get DMA channel privilege attribute */
1526:../STM32Cube_FW_N6/Drivers/STM32N6xx_HAL_Driver/Src/stm32n6xx_hal_dma.c ****   attributes = ((p_dma_instance->PRIVCFGR & channel_idx) == 0U) ? DMA_CHANNEL_NPRIV : DMA_CHANNEL_P
1527:../STM32Cube_FW_N6/Drivers/STM32N6xx_HAL_Driver/Src/stm32n6xx_hal_dma.c **** 
1528:../STM32Cube_FW_N6/Drivers/STM32N6xx_HAL_Driver/Src/stm32n6xx_hal_dma.c ****   /* Get DMA channel security attribute */
1529:../STM32Cube_FW_N6/Drivers/STM32N6xx_HAL_Driver/Src/stm32n6xx_hal_dma.c ****   attributes |= ((p_dma_instance->SECCFGR & channel_idx) == 0U) ? DMA_CHANNEL_NSEC : DMA_CHANNEL_SE
1530:../STM32Cube_FW_N6/Drivers/STM32N6xx_HAL_Driver/Src/stm32n6xx_hal_dma.c **** 
1531:../STM32Cube_FW_N6/Drivers/STM32N6xx_HAL_Driver/Src/stm32n6xx_hal_dma.c ****   /* Get DMA channel source security attribute */
1532:../STM32Cube_FW_N6/Drivers/STM32N6xx_HAL_Driver/Src/stm32n6xx_hal_dma.c ****   attributes |= ((hdma->Instance->CTR1 & DMA_CTR1_SSEC) == 0U) ? DMA_CHANNEL_SRC_NSEC : DMA_CHANNEL
1533:../STM32Cube_FW_N6/Drivers/STM32N6xx_HAL_Driver/Src/stm32n6xx_hal_dma.c **** 
1534:../STM32Cube_FW_N6/Drivers/STM32N6xx_HAL_Driver/Src/stm32n6xx_hal_dma.c ****   /* Get DMA channel destination security attribute */
1535:../STM32Cube_FW_N6/Drivers/STM32N6xx_HAL_Driver/Src/stm32n6xx_hal_dma.c ****   attributes |= ((hdma->Instance->CTR1 & DMA_CTR1_DSEC) == 0U) ? DMA_CHANNEL_DEST_NSEC : DMA_CHANNE
1536:../STM32Cube_FW_N6/Drivers/STM32N6xx_HAL_Driver/Src/stm32n6xx_hal_dma.c **** 
1537:../STM32Cube_FW_N6/Drivers/STM32N6xx_HAL_Driver/Src/stm32n6xx_hal_dma.c ****   /* return value */
1538:../STM32Cube_FW_N6/Drivers/STM32N6xx_HAL_Driver/Src/stm32n6xx_hal_dma.c ****   *pChannelAttributes = attributes;
1539:../STM32Cube_FW_N6/Drivers/STM32N6xx_HAL_Driver/Src/stm32n6xx_hal_dma.c **** 
1540:../STM32Cube_FW_N6/Drivers/STM32N6xx_HAL_Driver/Src/stm32n6xx_hal_dma.c ****   return HAL_OK;
1541:../STM32Cube_FW_N6/Drivers/STM32N6xx_HAL_Driver/Src/stm32n6xx_hal_dma.c **** }
1542:../STM32Cube_FW_N6/Drivers/STM32N6xx_HAL_Driver/Src/stm32n6xx_hal_dma.c **** 
1543:../STM32Cube_FW_N6/Drivers/STM32N6xx_HAL_Driver/Src/stm32n6xx_hal_dma.c **** #if defined (CPU_IN_SECURE_STATE)
1544:../STM32Cube_FW_N6/Drivers/STM32N6xx_HAL_Driver/Src/stm32n6xx_hal_dma.c **** /**
1545:../STM32Cube_FW_N6/Drivers/STM32N6xx_HAL_Driver/Src/stm32n6xx_hal_dma.c ****   * @brief  Set the DMA channel filtering CID (Isolation configuration). It can be
1546:../STM32Cube_FW_N6/Drivers/STM32N6xx_HAL_Driver/Src/stm32n6xx_hal_dma.c ****   *             - static: the CID passed as parameter is programmed;
1547:../STM32Cube_FW_N6/Drivers/STM32N6xx_HAL_Driver/Src/stm32n6xx_hal_dma.c ****   *             - disabled: the whole register is cleared.
1548:../STM32Cube_FW_N6/Drivers/STM32N6xx_HAL_Driver/Src/stm32n6xx_hal_dma.c ****   * @param  hdma    : Pointer to a DMA_HandleTypeDef structure that contains the configuration info
1549:../STM32Cube_FW_N6/Drivers/STM32N6xx_HAL_Driver/Src/stm32n6xx_hal_dma.c ****   *                of the HPDMA channel.
1550:../STM32Cube_FW_N6/Drivers/STM32N6xx_HAL_Driver/Src/stm32n6xx_hal_dma.c ****   * @param  pConfig : Pointer on the DMA Isolation structure
1551:../STM32Cube_FW_N6/Drivers/STM32N6xx_HAL_Driver/Src/stm32n6xx_hal_dma.c ****   * @retval None
1552:../STM32Cube_FW_N6/Drivers/STM32N6xx_HAL_Driver/Src/stm32n6xx_hal_dma.c ****   */
1553:../STM32Cube_FW_N6/Drivers/STM32N6xx_HAL_Driver/Src/stm32n6xx_hal_dma.c **** HAL_StatusTypeDef HAL_DMA_SetIsolationAttributes(DMA_HandleTypeDef *const hdma,
1554:../STM32Cube_FW_N6/Drivers/STM32N6xx_HAL_Driver/Src/stm32n6xx_hal_dma.c ****                                                  DMA_IsolationConfigTypeDef const *const pConfig)
1555:../STM32Cube_FW_N6/Drivers/STM32N6xx_HAL_Driver/Src/stm32n6xx_hal_dma.c **** {
ARM GAS  /tmp/ccId6s4B.s 			page 46


1556:../STM32Cube_FW_N6/Drivers/STM32N6xx_HAL_Driver/Src/stm32n6xx_hal_dma.c ****   /* Check the DMA peripheral handle parameter */
1557:../STM32Cube_FW_N6/Drivers/STM32N6xx_HAL_Driver/Src/stm32n6xx_hal_dma.c ****   if ((hdma == NULL) || (pConfig == NULL))
1558:../STM32Cube_FW_N6/Drivers/STM32N6xx_HAL_Driver/Src/stm32n6xx_hal_dma.c ****   {
1559:../STM32Cube_FW_N6/Drivers/STM32N6xx_HAL_Driver/Src/stm32n6xx_hal_dma.c ****     return HAL_ERROR;
1560:../STM32Cube_FW_N6/Drivers/STM32N6xx_HAL_Driver/Src/stm32n6xx_hal_dma.c ****   }
1561:../STM32Cube_FW_N6/Drivers/STM32N6xx_HAL_Driver/Src/stm32n6xx_hal_dma.c **** 
1562:../STM32Cube_FW_N6/Drivers/STM32N6xx_HAL_Driver/Src/stm32n6xx_hal_dma.c ****   /* Check the parameters */
1563:../STM32Cube_FW_N6/Drivers/STM32N6xx_HAL_Driver/Src/stm32n6xx_hal_dma.c ****   assert_param(IS_HPDMA_INSTANCE(hdma->Instance));
1564:../STM32Cube_FW_N6/Drivers/STM32N6xx_HAL_Driver/Src/stm32n6xx_hal_dma.c ****   assert_param(IS_DMA_ISOLATION_MODE(pConfig->CidFiltering));
1565:../STM32Cube_FW_N6/Drivers/STM32N6xx_HAL_Driver/Src/stm32n6xx_hal_dma.c ****   assert_param(IS_DMA_ISOLATION_STATIC_CID(pConfig->StaticCid));
1566:../STM32Cube_FW_N6/Drivers/STM32N6xx_HAL_Driver/Src/stm32n6xx_hal_dma.c **** 
1567:../STM32Cube_FW_N6/Drivers/STM32N6xx_HAL_Driver/Src/stm32n6xx_hal_dma.c ****   /* static CID field value used when filtering is enable */
1568:../STM32Cube_FW_N6/Drivers/STM32N6xx_HAL_Driver/Src/stm32n6xx_hal_dma.c ****   if ((pConfig->CidFiltering) == DMA_ISOLATION_ON)
1569:../STM32Cube_FW_N6/Drivers/STM32N6xx_HAL_Driver/Src/stm32n6xx_hal_dma.c ****   {
1570:../STM32Cube_FW_N6/Drivers/STM32N6xx_HAL_Driver/Src/stm32n6xx_hal_dma.c ****     /* Write static CID configuration */
1571:../STM32Cube_FW_N6/Drivers/STM32N6xx_HAL_Driver/Src/stm32n6xx_hal_dma.c ****     hdma->Instance->CCIDCFGR = ((pConfig->StaticCid & DMA_CCIDCFGR_SCID_Msk) | DMA_CCIDCFGR_CFEN);
1572:../STM32Cube_FW_N6/Drivers/STM32N6xx_HAL_Driver/Src/stm32n6xx_hal_dma.c ****   }
1573:../STM32Cube_FW_N6/Drivers/STM32N6xx_HAL_Driver/Src/stm32n6xx_hal_dma.c ****   else
1574:../STM32Cube_FW_N6/Drivers/STM32N6xx_HAL_Driver/Src/stm32n6xx_hal_dma.c ****   {
1575:../STM32Cube_FW_N6/Drivers/STM32N6xx_HAL_Driver/Src/stm32n6xx_hal_dma.c ****     /* CID configuration is off */
1576:../STM32Cube_FW_N6/Drivers/STM32N6xx_HAL_Driver/Src/stm32n6xx_hal_dma.c ****     hdma->Instance->CCIDCFGR = 0U;
1577:../STM32Cube_FW_N6/Drivers/STM32N6xx_HAL_Driver/Src/stm32n6xx_hal_dma.c ****   }
1578:../STM32Cube_FW_N6/Drivers/STM32N6xx_HAL_Driver/Src/stm32n6xx_hal_dma.c **** 
1579:../STM32Cube_FW_N6/Drivers/STM32N6xx_HAL_Driver/Src/stm32n6xx_hal_dma.c ****   return HAL_OK;
1580:../STM32Cube_FW_N6/Drivers/STM32N6xx_HAL_Driver/Src/stm32n6xx_hal_dma.c **** }
1581:../STM32Cube_FW_N6/Drivers/STM32N6xx_HAL_Driver/Src/stm32n6xx_hal_dma.c **** #endif /* CPU_IN_SECURE_STATE */
1582:../STM32Cube_FW_N6/Drivers/STM32N6xx_HAL_Driver/Src/stm32n6xx_hal_dma.c **** /**
1583:../STM32Cube_FW_N6/Drivers/STM32N6xx_HAL_Driver/Src/stm32n6xx_hal_dma.c ****   * @brief  Read the DMA channel filtering CID (Isolation configuration). It can be
1584:../STM32Cube_FW_N6/Drivers/STM32N6xx_HAL_Driver/Src/stm32n6xx_hal_dma.c ****   *             - static: the CID passed as parameter is programmed;
1585:../STM32Cube_FW_N6/Drivers/STM32N6xx_HAL_Driver/Src/stm32n6xx_hal_dma.c ****   *             - disabled: the whole register is cleared.
1586:../STM32Cube_FW_N6/Drivers/STM32N6xx_HAL_Driver/Src/stm32n6xx_hal_dma.c ****   * @param  hdma    : Pointer to a DMA_HandleTypeDef structure that contains the configuration info
1587:../STM32Cube_FW_N6/Drivers/STM32N6xx_HAL_Driver/Src/stm32n6xx_hal_dma.c ****   *                of the HPDMA channel.
1588:../STM32Cube_FW_N6/Drivers/STM32N6xx_HAL_Driver/Src/stm32n6xx_hal_dma.c ****   * @param  pConfig : Pointer on the DMA Isolation structure
1589:../STM32Cube_FW_N6/Drivers/STM32N6xx_HAL_Driver/Src/stm32n6xx_hal_dma.c ****   * @retval None
1590:../STM32Cube_FW_N6/Drivers/STM32N6xx_HAL_Driver/Src/stm32n6xx_hal_dma.c ****   */
1591:../STM32Cube_FW_N6/Drivers/STM32N6xx_HAL_Driver/Src/stm32n6xx_hal_dma.c **** HAL_StatusTypeDef HAL_DMA_GetIsolationAttributes(DMA_HandleTypeDef const *const hdma,
1592:../STM32Cube_FW_N6/Drivers/STM32N6xx_HAL_Driver/Src/stm32n6xx_hal_dma.c ****                                                  DMA_IsolationConfigTypeDef *const pConfig)
1593:../STM32Cube_FW_N6/Drivers/STM32N6xx_HAL_Driver/Src/stm32n6xx_hal_dma.c **** {
1594:../STM32Cube_FW_N6/Drivers/STM32N6xx_HAL_Driver/Src/stm32n6xx_hal_dma.c ****   uint32_t ccidcfgr;
1595:../STM32Cube_FW_N6/Drivers/STM32N6xx_HAL_Driver/Src/stm32n6xx_hal_dma.c **** 
1596:../STM32Cube_FW_N6/Drivers/STM32N6xx_HAL_Driver/Src/stm32n6xx_hal_dma.c ****   /* Check the DMA peripheral handle parameter */
1597:../STM32Cube_FW_N6/Drivers/STM32N6xx_HAL_Driver/Src/stm32n6xx_hal_dma.c ****   if ((hdma == NULL) || (pConfig == NULL))
1598:../STM32Cube_FW_N6/Drivers/STM32N6xx_HAL_Driver/Src/stm32n6xx_hal_dma.c ****   {
1599:../STM32Cube_FW_N6/Drivers/STM32N6xx_HAL_Driver/Src/stm32n6xx_hal_dma.c ****     return HAL_ERROR;
1600:../STM32Cube_FW_N6/Drivers/STM32N6xx_HAL_Driver/Src/stm32n6xx_hal_dma.c ****   }
1601:../STM32Cube_FW_N6/Drivers/STM32N6xx_HAL_Driver/Src/stm32n6xx_hal_dma.c **** 
1602:../STM32Cube_FW_N6/Drivers/STM32N6xx_HAL_Driver/Src/stm32n6xx_hal_dma.c ****   ccidcfgr = hdma->Instance->CCIDCFGR;
1603:../STM32Cube_FW_N6/Drivers/STM32N6xx_HAL_Driver/Src/stm32n6xx_hal_dma.c **** 
1604:../STM32Cube_FW_N6/Drivers/STM32N6xx_HAL_Driver/Src/stm32n6xx_hal_dma.c ****   /* Check the parameters */
1605:../STM32Cube_FW_N6/Drivers/STM32N6xx_HAL_Driver/Src/stm32n6xx_hal_dma.c ****   assert_param(IS_HPDMA_INSTANCE(hdma->Instance));
1606:../STM32Cube_FW_N6/Drivers/STM32N6xx_HAL_Driver/Src/stm32n6xx_hal_dma.c **** 
1607:../STM32Cube_FW_N6/Drivers/STM32N6xx_HAL_Driver/Src/stm32n6xx_hal_dma.c ****   if ((ccidcfgr & DMA_CCIDCFGR_CFEN) == DMA_CCIDCFGR_CFEN)
1608:../STM32Cube_FW_N6/Drivers/STM32N6xx_HAL_Driver/Src/stm32n6xx_hal_dma.c ****   {
1609:../STM32Cube_FW_N6/Drivers/STM32N6xx_HAL_Driver/Src/stm32n6xx_hal_dma.c ****     pConfig->CidFiltering = DMA_ISOLATION_ON;
1610:../STM32Cube_FW_N6/Drivers/STM32N6xx_HAL_Driver/Src/stm32n6xx_hal_dma.c ****   }
1611:../STM32Cube_FW_N6/Drivers/STM32N6xx_HAL_Driver/Src/stm32n6xx_hal_dma.c ****   else
1612:../STM32Cube_FW_N6/Drivers/STM32N6xx_HAL_Driver/Src/stm32n6xx_hal_dma.c ****   {
ARM GAS  /tmp/ccId6s4B.s 			page 47


1613:../STM32Cube_FW_N6/Drivers/STM32N6xx_HAL_Driver/Src/stm32n6xx_hal_dma.c ****     pConfig->CidFiltering = DMA_ISOLATION_OFF;
1614:../STM32Cube_FW_N6/Drivers/STM32N6xx_HAL_Driver/Src/stm32n6xx_hal_dma.c ****   }
1615:../STM32Cube_FW_N6/Drivers/STM32N6xx_HAL_Driver/Src/stm32n6xx_hal_dma.c ****   pConfig->StaticCid = (ccidcfgr & DMA_CCIDCFGR_SCID_Msk);
1616:../STM32Cube_FW_N6/Drivers/STM32N6xx_HAL_Driver/Src/stm32n6xx_hal_dma.c **** 
1617:../STM32Cube_FW_N6/Drivers/STM32N6xx_HAL_Driver/Src/stm32n6xx_hal_dma.c ****   return HAL_OK;
1618:../STM32Cube_FW_N6/Drivers/STM32N6xx_HAL_Driver/Src/stm32n6xx_hal_dma.c **** }
1619:../STM32Cube_FW_N6/Drivers/STM32N6xx_HAL_Driver/Src/stm32n6xx_hal_dma.c **** 
1620:../STM32Cube_FW_N6/Drivers/STM32N6xx_HAL_Driver/Src/stm32n6xx_hal_dma.c **** #if defined (CPU_IN_SECURE_STATE)
1621:../STM32Cube_FW_N6/Drivers/STM32N6xx_HAL_Driver/Src/stm32n6xx_hal_dma.c **** /**
1622:../STM32Cube_FW_N6/Drivers/STM32N6xx_HAL_Driver/Src/stm32n6xx_hal_dma.c ****   * @brief  Lock the DMA channel security and privilege attribute(s).
1623:../STM32Cube_FW_N6/Drivers/STM32N6xx_HAL_Driver/Src/stm32n6xx_hal_dma.c ****   * @param  hdma : Pointer to a DMA_HandleTypeDef structure that contains the configuration informa
1624:../STM32Cube_FW_N6/Drivers/STM32N6xx_HAL_Driver/Src/stm32n6xx_hal_dma.c ****   *                specified DMA Channel.
1625:../STM32Cube_FW_N6/Drivers/STM32N6xx_HAL_Driver/Src/stm32n6xx_hal_dma.c ****   * @retval HAL Status.
1626:../STM32Cube_FW_N6/Drivers/STM32N6xx_HAL_Driver/Src/stm32n6xx_hal_dma.c ****   */
1627:../STM32Cube_FW_N6/Drivers/STM32N6xx_HAL_Driver/Src/stm32n6xx_hal_dma.c **** HAL_StatusTypeDef HAL_DMA_LockChannelAttributes(DMA_HandleTypeDef const *const hdma)
1628:../STM32Cube_FW_N6/Drivers/STM32N6xx_HAL_Driver/Src/stm32n6xx_hal_dma.c **** {
1629:../STM32Cube_FW_N6/Drivers/STM32N6xx_HAL_Driver/Src/stm32n6xx_hal_dma.c ****   DMA_TypeDef *p_dma_instance;
1630:../STM32Cube_FW_N6/Drivers/STM32N6xx_HAL_Driver/Src/stm32n6xx_hal_dma.c ****   uint32_t channel_idx;
1631:../STM32Cube_FW_N6/Drivers/STM32N6xx_HAL_Driver/Src/stm32n6xx_hal_dma.c **** 
1632:../STM32Cube_FW_N6/Drivers/STM32N6xx_HAL_Driver/Src/stm32n6xx_hal_dma.c ****   /* Check the DMA peripheral handle parameter */
1633:../STM32Cube_FW_N6/Drivers/STM32N6xx_HAL_Driver/Src/stm32n6xx_hal_dma.c ****   if (hdma == NULL)
1634:../STM32Cube_FW_N6/Drivers/STM32N6xx_HAL_Driver/Src/stm32n6xx_hal_dma.c ****   {
1635:../STM32Cube_FW_N6/Drivers/STM32N6xx_HAL_Driver/Src/stm32n6xx_hal_dma.c ****     return HAL_ERROR;
1636:../STM32Cube_FW_N6/Drivers/STM32N6xx_HAL_Driver/Src/stm32n6xx_hal_dma.c ****   }
1637:../STM32Cube_FW_N6/Drivers/STM32N6xx_HAL_Driver/Src/stm32n6xx_hal_dma.c **** 
1638:../STM32Cube_FW_N6/Drivers/STM32N6xx_HAL_Driver/Src/stm32n6xx_hal_dma.c ****   /* Get DMA instance */
1639:../STM32Cube_FW_N6/Drivers/STM32N6xx_HAL_Driver/Src/stm32n6xx_hal_dma.c ****   p_dma_instance = GET_DMA_INSTANCE(hdma);
1640:../STM32Cube_FW_N6/Drivers/STM32N6xx_HAL_Driver/Src/stm32n6xx_hal_dma.c **** 
1641:../STM32Cube_FW_N6/Drivers/STM32N6xx_HAL_Driver/Src/stm32n6xx_hal_dma.c ****   /* Get channel index */
1642:../STM32Cube_FW_N6/Drivers/STM32N6xx_HAL_Driver/Src/stm32n6xx_hal_dma.c ****   channel_idx = 1UL << (GET_DMA_CHANNEL(hdma) & 0x1FU);
1643:../STM32Cube_FW_N6/Drivers/STM32N6xx_HAL_Driver/Src/stm32n6xx_hal_dma.c **** 
1644:../STM32Cube_FW_N6/Drivers/STM32N6xx_HAL_Driver/Src/stm32n6xx_hal_dma.c ****   /* Lock the DMA channel privilege and security attributes */
1645:../STM32Cube_FW_N6/Drivers/STM32N6xx_HAL_Driver/Src/stm32n6xx_hal_dma.c ****   p_dma_instance->RCFGLOCKR |= channel_idx;
1646:../STM32Cube_FW_N6/Drivers/STM32N6xx_HAL_Driver/Src/stm32n6xx_hal_dma.c **** 
1647:../STM32Cube_FW_N6/Drivers/STM32N6xx_HAL_Driver/Src/stm32n6xx_hal_dma.c ****   return HAL_OK;
1648:../STM32Cube_FW_N6/Drivers/STM32N6xx_HAL_Driver/Src/stm32n6xx_hal_dma.c **** }
1649:../STM32Cube_FW_N6/Drivers/STM32N6xx_HAL_Driver/Src/stm32n6xx_hal_dma.c **** #endif /* CPU_IN_SECURE_STATE */
1650:../STM32Cube_FW_N6/Drivers/STM32N6xx_HAL_Driver/Src/stm32n6xx_hal_dma.c **** 
1651:../STM32Cube_FW_N6/Drivers/STM32N6xx_HAL_Driver/Src/stm32n6xx_hal_dma.c **** /**
1652:../STM32Cube_FW_N6/Drivers/STM32N6xx_HAL_Driver/Src/stm32n6xx_hal_dma.c ****   * @brief  Get the security and privilege attribute lock state of a DMA channel.
1653:../STM32Cube_FW_N6/Drivers/STM32N6xx_HAL_Driver/Src/stm32n6xx_hal_dma.c ****   * @param  hdma       : Pointer to a DMA_HandleTypeDef structure that contains the configuration i
1654:../STM32Cube_FW_N6/Drivers/STM32N6xx_HAL_Driver/Src/stm32n6xx_hal_dma.c ****   *                      specified DMA Channel.
1655:../STM32Cube_FW_N6/Drivers/STM32N6xx_HAL_Driver/Src/stm32n6xx_hal_dma.c ****   * @param  pLockState : Pointer to lock state (returned value can be DMA_CHANNEL_ATTRIBUTE_UNLOCKE
1656:../STM32Cube_FW_N6/Drivers/STM32N6xx_HAL_Driver/Src/stm32n6xx_hal_dma.c ****   *                      DMA_CHANNEL_ATTRIBUTE_LOCKED).
1657:../STM32Cube_FW_N6/Drivers/STM32N6xx_HAL_Driver/Src/stm32n6xx_hal_dma.c ****   * @retval HAL status.
1658:../STM32Cube_FW_N6/Drivers/STM32N6xx_HAL_Driver/Src/stm32n6xx_hal_dma.c ****   */
1659:../STM32Cube_FW_N6/Drivers/STM32N6xx_HAL_Driver/Src/stm32n6xx_hal_dma.c **** HAL_StatusTypeDef HAL_DMA_GetLockChannelAttributes(DMA_HandleTypeDef const *const hdma, uint32_t *c
1660:../STM32Cube_FW_N6/Drivers/STM32N6xx_HAL_Driver/Src/stm32n6xx_hal_dma.c **** {
1661:../STM32Cube_FW_N6/Drivers/STM32N6xx_HAL_Driver/Src/stm32n6xx_hal_dma.c ****   const DMA_TypeDef *p_dma_instance;
1662:../STM32Cube_FW_N6/Drivers/STM32N6xx_HAL_Driver/Src/stm32n6xx_hal_dma.c ****   uint32_t channel_idx;
1663:../STM32Cube_FW_N6/Drivers/STM32N6xx_HAL_Driver/Src/stm32n6xx_hal_dma.c **** 
1664:../STM32Cube_FW_N6/Drivers/STM32N6xx_HAL_Driver/Src/stm32n6xx_hal_dma.c ****   /* Check the DMA peripheral handle and lock state parameters */
1665:../STM32Cube_FW_N6/Drivers/STM32N6xx_HAL_Driver/Src/stm32n6xx_hal_dma.c ****   if ((hdma == NULL) || (pLockState == NULL))
1666:../STM32Cube_FW_N6/Drivers/STM32N6xx_HAL_Driver/Src/stm32n6xx_hal_dma.c ****   {
1667:../STM32Cube_FW_N6/Drivers/STM32N6xx_HAL_Driver/Src/stm32n6xx_hal_dma.c ****     return HAL_ERROR;
1668:../STM32Cube_FW_N6/Drivers/STM32N6xx_HAL_Driver/Src/stm32n6xx_hal_dma.c ****   }
1669:../STM32Cube_FW_N6/Drivers/STM32N6xx_HAL_Driver/Src/stm32n6xx_hal_dma.c **** 
ARM GAS  /tmp/ccId6s4B.s 			page 48


1670:../STM32Cube_FW_N6/Drivers/STM32N6xx_HAL_Driver/Src/stm32n6xx_hal_dma.c ****   /* Get DMA instance */
1671:../STM32Cube_FW_N6/Drivers/STM32N6xx_HAL_Driver/Src/stm32n6xx_hal_dma.c ****   p_dma_instance = GET_DMA_INSTANCE(hdma);
1672:../STM32Cube_FW_N6/Drivers/STM32N6xx_HAL_Driver/Src/stm32n6xx_hal_dma.c **** 
1673:../STM32Cube_FW_N6/Drivers/STM32N6xx_HAL_Driver/Src/stm32n6xx_hal_dma.c ****   /* Get channel index */
1674:../STM32Cube_FW_N6/Drivers/STM32N6xx_HAL_Driver/Src/stm32n6xx_hal_dma.c ****   channel_idx = 1UL << (GET_DMA_CHANNEL(hdma) & 0x1FU);
1675:../STM32Cube_FW_N6/Drivers/STM32N6xx_HAL_Driver/Src/stm32n6xx_hal_dma.c **** 
1676:../STM32Cube_FW_N6/Drivers/STM32N6xx_HAL_Driver/Src/stm32n6xx_hal_dma.c ****   /* Get channel lock attribute state */
1677:../STM32Cube_FW_N6/Drivers/STM32N6xx_HAL_Driver/Src/stm32n6xx_hal_dma.c ****   *pLockState = ((p_dma_instance->RCFGLOCKR & channel_idx) == 0U) ? DMA_CHANNEL_ATTRIBUTE_UNLOCKED 
1678:../STM32Cube_FW_N6/Drivers/STM32N6xx_HAL_Driver/Src/stm32n6xx_hal_dma.c ****                 DMA_CHANNEL_ATTRIBUTE_LOCKED;
1679:../STM32Cube_FW_N6/Drivers/STM32N6xx_HAL_Driver/Src/stm32n6xx_hal_dma.c **** 
1680:../STM32Cube_FW_N6/Drivers/STM32N6xx_HAL_Driver/Src/stm32n6xx_hal_dma.c ****   return HAL_OK;
1681:../STM32Cube_FW_N6/Drivers/STM32N6xx_HAL_Driver/Src/stm32n6xx_hal_dma.c **** }
1682:../STM32Cube_FW_N6/Drivers/STM32N6xx_HAL_Driver/Src/stm32n6xx_hal_dma.c **** /**
1683:../STM32Cube_FW_N6/Drivers/STM32N6xx_HAL_Driver/Src/stm32n6xx_hal_dma.c ****   * @}
1684:../STM32Cube_FW_N6/Drivers/STM32N6xx_HAL_Driver/Src/stm32n6xx_hal_dma.c ****   */
1685:../STM32Cube_FW_N6/Drivers/STM32N6xx_HAL_Driver/Src/stm32n6xx_hal_dma.c **** 
1686:../STM32Cube_FW_N6/Drivers/STM32N6xx_HAL_Driver/Src/stm32n6xx_hal_dma.c **** /**
1687:../STM32Cube_FW_N6/Drivers/STM32N6xx_HAL_Driver/Src/stm32n6xx_hal_dma.c ****   * @}
1688:../STM32Cube_FW_N6/Drivers/STM32N6xx_HAL_Driver/Src/stm32n6xx_hal_dma.c ****   */
1689:../STM32Cube_FW_N6/Drivers/STM32N6xx_HAL_Driver/Src/stm32n6xx_hal_dma.c **** 
1690:../STM32Cube_FW_N6/Drivers/STM32N6xx_HAL_Driver/Src/stm32n6xx_hal_dma.c **** 
1691:../STM32Cube_FW_N6/Drivers/STM32N6xx_HAL_Driver/Src/stm32n6xx_hal_dma.c **** /* Private functions ------------------------------------------------------------------------------
1692:../STM32Cube_FW_N6/Drivers/STM32N6xx_HAL_Driver/Src/stm32n6xx_hal_dma.c **** /** @defgroup DMA_Private_Functions DMA Private Functions
1693:../STM32Cube_FW_N6/Drivers/STM32N6xx_HAL_Driver/Src/stm32n6xx_hal_dma.c ****   * @brief    DMA Private Functions
1694:../STM32Cube_FW_N6/Drivers/STM32N6xx_HAL_Driver/Src/stm32n6xx_hal_dma.c ****   * @{
1695:../STM32Cube_FW_N6/Drivers/STM32N6xx_HAL_Driver/Src/stm32n6xx_hal_dma.c ****   */
1696:../STM32Cube_FW_N6/Drivers/STM32N6xx_HAL_Driver/Src/stm32n6xx_hal_dma.c **** 
1697:../STM32Cube_FW_N6/Drivers/STM32N6xx_HAL_Driver/Src/stm32n6xx_hal_dma.c **** /**
1698:../STM32Cube_FW_N6/Drivers/STM32N6xx_HAL_Driver/Src/stm32n6xx_hal_dma.c ****   * @brief  Set the DMA channel normal transfer parameters.
1699:../STM32Cube_FW_N6/Drivers/STM32N6xx_HAL_Driver/Src/stm32n6xx_hal_dma.c ****   * @param  hdma        : Pointer to a DMA_HandleTypeDef structure that contains the configuration 
1700:../STM32Cube_FW_N6/Drivers/STM32N6xx_HAL_Driver/Src/stm32n6xx_hal_dma.c ****   *                       specified DMA Channel.
1701:../STM32Cube_FW_N6/Drivers/STM32N6xx_HAL_Driver/Src/stm32n6xx_hal_dma.c ****   * @param  SrcAddress  : The source data address.
1702:../STM32Cube_FW_N6/Drivers/STM32N6xx_HAL_Driver/Src/stm32n6xx_hal_dma.c ****   * @param  DstAddress  : The destination data address.
1703:../STM32Cube_FW_N6/Drivers/STM32N6xx_HAL_Driver/Src/stm32n6xx_hal_dma.c ****   * @param  SrcDataSize : The length of data to be transferred from source to destination in bytes.
1704:../STM32Cube_FW_N6/Drivers/STM32N6xx_HAL_Driver/Src/stm32n6xx_hal_dma.c ****   * @retval None.
1705:../STM32Cube_FW_N6/Drivers/STM32N6xx_HAL_Driver/Src/stm32n6xx_hal_dma.c ****   */
1706:../STM32Cube_FW_N6/Drivers/STM32N6xx_HAL_Driver/Src/stm32n6xx_hal_dma.c **** static void DMA_SetConfig(DMA_HandleTypeDef const *const hdma,
1707:../STM32Cube_FW_N6/Drivers/STM32N6xx_HAL_Driver/Src/stm32n6xx_hal_dma.c ****                           uint32_t SrcAddress,
1708:../STM32Cube_FW_N6/Drivers/STM32N6xx_HAL_Driver/Src/stm32n6xx_hal_dma.c ****                           uint32_t DstAddress,
1709:../STM32Cube_FW_N6/Drivers/STM32N6xx_HAL_Driver/Src/stm32n6xx_hal_dma.c ****                           uint32_t SrcDataSize)
1710:../STM32Cube_FW_N6/Drivers/STM32N6xx_HAL_Driver/Src/stm32n6xx_hal_dma.c **** {
1711:../STM32Cube_FW_N6/Drivers/STM32N6xx_HAL_Driver/Src/stm32n6xx_hal_dma.c ****   /* Configure the DMA channel data size */
1712:../STM32Cube_FW_N6/Drivers/STM32N6xx_HAL_Driver/Src/stm32n6xx_hal_dma.c ****   MODIFY_REG(hdma->Instance->CBR1, DMA_CBR1_BNDT, (SrcDataSize & DMA_CBR1_BNDT));
1713:../STM32Cube_FW_N6/Drivers/STM32N6xx_HAL_Driver/Src/stm32n6xx_hal_dma.c **** 
1714:../STM32Cube_FW_N6/Drivers/STM32N6xx_HAL_Driver/Src/stm32n6xx_hal_dma.c ****   /* Clear all interrupt flags */
1715:../STM32Cube_FW_N6/Drivers/STM32N6xx_HAL_Driver/Src/stm32n6xx_hal_dma.c ****   __HAL_DMA_CLEAR_FLAG(hdma, DMA_FLAG_TC | DMA_FLAG_HT | DMA_FLAG_DTE | DMA_FLAG_ULE | DMA_FLAG_USE
1716:../STM32Cube_FW_N6/Drivers/STM32N6xx_HAL_Driver/Src/stm32n6xx_hal_dma.c ****                        DMA_FLAG_TO);
1717:../STM32Cube_FW_N6/Drivers/STM32N6xx_HAL_Driver/Src/stm32n6xx_hal_dma.c **** 
1718:../STM32Cube_FW_N6/Drivers/STM32N6xx_HAL_Driver/Src/stm32n6xx_hal_dma.c ****   /* Configure DMA channel source address */
1719:../STM32Cube_FW_N6/Drivers/STM32N6xx_HAL_Driver/Src/stm32n6xx_hal_dma.c ****   hdma->Instance->CSAR = SrcAddress;
1720:../STM32Cube_FW_N6/Drivers/STM32N6xx_HAL_Driver/Src/stm32n6xx_hal_dma.c **** 
1721:../STM32Cube_FW_N6/Drivers/STM32N6xx_HAL_Driver/Src/stm32n6xx_hal_dma.c ****   /* Configure DMA channel destination address */
1722:../STM32Cube_FW_N6/Drivers/STM32N6xx_HAL_Driver/Src/stm32n6xx_hal_dma.c ****   hdma->Instance->CDAR = DstAddress;
1723:../STM32Cube_FW_N6/Drivers/STM32N6xx_HAL_Driver/Src/stm32n6xx_hal_dma.c **** }
1724:../STM32Cube_FW_N6/Drivers/STM32N6xx_HAL_Driver/Src/stm32n6xx_hal_dma.c **** 
1725:../STM32Cube_FW_N6/Drivers/STM32N6xx_HAL_Driver/Src/stm32n6xx_hal_dma.c **** /**
1726:../STM32Cube_FW_N6/Drivers/STM32N6xx_HAL_Driver/Src/stm32n6xx_hal_dma.c ****   * @brief  Initialize the DMA channel in normal mode according to the specified parameters in the 
ARM GAS  /tmp/ccId6s4B.s 			page 49


1727:../STM32Cube_FW_N6/Drivers/STM32N6xx_HAL_Driver/Src/stm32n6xx_hal_dma.c ****   * @param  hdma : pointer to a DMA_HandleTypeDef structure that contains the configuration informa
1728:../STM32Cube_FW_N6/Drivers/STM32N6xx_HAL_Driver/Src/stm32n6xx_hal_dma.c ****   *                specified DMA Channel.
1729:../STM32Cube_FW_N6/Drivers/STM32N6xx_HAL_Driver/Src/stm32n6xx_hal_dma.c ****   * @retval None.
1730:../STM32Cube_FW_N6/Drivers/STM32N6xx_HAL_Driver/Src/stm32n6xx_hal_dma.c ****   */
1731:../STM32Cube_FW_N6/Drivers/STM32N6xx_HAL_Driver/Src/stm32n6xx_hal_dma.c **** static void DMA_Init(DMA_HandleTypeDef const *const hdma)
 1000              		.loc 1 1731 13 view .LVU226
 1001              	.LBB5:
1732:../STM32Cube_FW_N6/Drivers/STM32N6xx_HAL_Driver/Src/stm32n6xx_hal_dma.c **** {
1733:../STM32Cube_FW_N6/Drivers/STM32N6xx_HAL_Driver/Src/stm32n6xx_hal_dma.c ****   uint32_t tmpreg;
 1002              		.loc 1 1733 3 view .LVU227
1734:../STM32Cube_FW_N6/Drivers/STM32N6xx_HAL_Driver/Src/stm32n6xx_hal_dma.c **** 
1735:../STM32Cube_FW_N6/Drivers/STM32N6xx_HAL_Driver/Src/stm32n6xx_hal_dma.c ****   /* Prepare DMA Channel Control Register (CCR) value *********************************************
1736:../STM32Cube_FW_N6/Drivers/STM32N6xx_HAL_Driver/Src/stm32n6xx_hal_dma.c ****   tmpreg = hdma->Init.Priority;
 1003              		.loc 1 1736 3 view .LVU228
1737:../STM32Cube_FW_N6/Drivers/STM32N6xx_HAL_Driver/Src/stm32n6xx_hal_dma.c **** 
1738:../STM32Cube_FW_N6/Drivers/STM32N6xx_HAL_Driver/Src/stm32n6xx_hal_dma.c ****   /* Write DMA Channel Control Register (CCR) */
1739:../STM32Cube_FW_N6/Drivers/STM32N6xx_HAL_Driver/Src/stm32n6xx_hal_dma.c ****   MODIFY_REG(hdma->Instance->CCR, DMA_CCR_PRIO | DMA_CCR_LAP | DMA_CCR_LSM, tmpreg);
 1004              		.loc 1 1739 3 view .LVU229
 1005 0788 5A69     		ldr	r2, [r3, #20]
 1006 078a 216A     		ldr	r1, [r4, #32]
 1007 078c 22F44302 		bic	r2, r2, #12779520
 1008 0790 0A43     		orrs	r2, r2, r1
 1009 0792 5A61     		str	r2, [r3, #20]
1740:../STM32Cube_FW_N6/Drivers/STM32N6xx_HAL_Driver/Src/stm32n6xx_hal_dma.c **** 
1741:../STM32Cube_FW_N6/Drivers/STM32N6xx_HAL_Driver/Src/stm32n6xx_hal_dma.c ****   /* Prepare DMA Channel Transfer Register (CTR1) value *******************************************
1742:../STM32Cube_FW_N6/Drivers/STM32N6xx_HAL_Driver/Src/stm32n6xx_hal_dma.c ****   tmpreg = hdma->Init.DestInc | hdma->Init.DestDataWidth | hdma->Init.SrcInc | hdma->Init.SrcDataWi
 1010              		.loc 1 1742 3 view .LVU230
 1011              		.loc 1 1742 31 is_stmt 0 view .LVU231
 1012 0794 E169     		ldr	r1, [r4, #28]
 1013 0796 6269     		ldr	r2, [r4, #20]
1743:../STM32Cube_FW_N6/Drivers/STM32N6xx_HAL_Driver/Src/stm32n6xx_hal_dma.c **** 
1744:../STM32Cube_FW_N6/Drivers/STM32N6xx_HAL_Driver/Src/stm32n6xx_hal_dma.c ****   /* Add parameters specific to HPDMA and GPDMA */
1745:../STM32Cube_FW_N6/Drivers/STM32N6xx_HAL_Driver/Src/stm32n6xx_hal_dma.c ****   if ((IS_HPDMA_INSTANCE(hdma->Instance) != 0U) || (IS_GPDMA_INSTANCE(hdma->Instance) != 0U))
 1014              		.loc 1 1745 8 view .LVU232
 1015 0798 AB42     		cmp	r3, r5
1742:../STM32Cube_FW_N6/Drivers/STM32N6xx_HAL_Driver/Src/stm32n6xx_hal_dma.c **** 
 1016              		.loc 1 1742 31 view .LVU233
 1017 079a 42EA0102 		orr	r2, r2, r1
1742:../STM32Cube_FW_N6/Drivers/STM32N6xx_HAL_Driver/Src/stm32n6xx_hal_dma.c **** 
 1018              		.loc 1 1742 58 view .LVU234
 1019 079e 2169     		ldr	r1, [r4, #16]
 1020 07a0 42EA0102 		orr	r2, r2, r1
1742:../STM32Cube_FW_N6/Drivers/STM32N6xx_HAL_Driver/Src/stm32n6xx_hal_dma.c **** 
 1021              		.loc 1 1742 10 view .LVU235
 1022 07a4 A169     		ldr	r1, [r4, #24]
 1023 07a6 42EA0102 		orr	r2, r2, r1
 1024              	.LVL16:
 1025              		.loc 1 1745 3 is_stmt 1 view .LVU236
 1026              		.loc 1 1745 8 is_stmt 0 view .LVU237
 1027 07aa 00F03C81 		beq	.L37
 1028              		.loc 1 1745 8 discriminator 2 view .LVU238
 1029 07ae C449     		ldr	r1, .L75
 1030 07b0 8B42     		cmp	r3, r1
 1031 07b2 00F03881 		beq	.L37
 1032              		.loc 1 1745 8 discriminator 4 view .LVU239
 1033 07b6 01F18051 		add	r1, r1, #268435456
 1034 07ba 8031     		adds	r1, r1, #128
ARM GAS  /tmp/ccId6s4B.s 			page 50


 1035 07bc 8B42     		cmp	r3, r1
 1036 07be 00F03281 		beq	.L37
 1037              		.loc 1 1745 8 discriminator 6 view .LVU240
 1038 07c2 01F17041 		add	r1, r1, #-268435456
 1039 07c6 8B42     		cmp	r3, r1
 1040 07c8 00F02D81 		beq	.L37
 1041              		.loc 1 1745 8 discriminator 8 view .LVU241
 1042 07cc 01F18051 		add	r1, r1, #268435456
 1043 07d0 8031     		adds	r1, r1, #128
 1044 07d2 8B42     		cmp	r3, r1
 1045 07d4 00F02781 		beq	.L37
 1046              		.loc 1 1745 8 discriminator 10 view .LVU242
 1047 07d8 01F17041 		add	r1, r1, #-268435456
 1048 07dc 8B42     		cmp	r3, r1
 1049 07de 00F02281 		beq	.L37
 1050              		.loc 1 1745 8 discriminator 12 view .LVU243
 1051 07e2 01F18051 		add	r1, r1, #268435456
 1052 07e6 8031     		adds	r1, r1, #128
 1053 07e8 8B42     		cmp	r3, r1
 1054 07ea 00F01C81 		beq	.L37
 1055              		.loc 1 1745 8 discriminator 14 view .LVU244
 1056 07ee 01F17041 		add	r1, r1, #-268435456
 1057 07f2 8B42     		cmp	r3, r1
 1058 07f4 00F01781 		beq	.L37
 1059              		.loc 1 1745 8 discriminator 16 view .LVU245
 1060 07f8 01F18051 		add	r1, r1, #268435456
 1061 07fc 8031     		adds	r1, r1, #128
 1062 07fe 8B42     		cmp	r3, r1
 1063 0800 00F01181 		beq	.L37
 1064              		.loc 1 1745 8 discriminator 18 view .LVU246
 1065 0804 01F17041 		add	r1, r1, #-268435456
 1066 0808 8B42     		cmp	r3, r1
 1067 080a 00F00C81 		beq	.L37
 1068              		.loc 1 1745 8 discriminator 20 view .LVU247
 1069 080e 01F18051 		add	r1, r1, #268435456
 1070 0812 8031     		adds	r1, r1, #128
 1071 0814 8B42     		cmp	r3, r1
 1072 0816 00F00681 		beq	.L37
 1073              		.loc 1 1745 8 discriminator 22 view .LVU248
 1074 081a 01F17041 		add	r1, r1, #-268435456
 1075 081e 8B42     		cmp	r3, r1
 1076 0820 00F00181 		beq	.L37
 1077              		.loc 1 1745 8 discriminator 24 view .LVU249
 1078 0824 01F18051 		add	r1, r1, #268435456
 1079 0828 8031     		adds	r1, r1, #128
 1080 082a 8B42     		cmp	r3, r1
 1081 082c 00F0FB80 		beq	.L37
 1082              		.loc 1 1745 8 discriminator 26 view .LVU250
 1083 0830 01F17041 		add	r1, r1, #-268435456
 1084 0834 8B42     		cmp	r3, r1
 1085 0836 00F0F680 		beq	.L37
 1086              		.loc 1 1745 8 discriminator 28 view .LVU251
 1087 083a 01F18051 		add	r1, r1, #268435456
 1088 083e 8031     		adds	r1, r1, #128
 1089 0840 8B42     		cmp	r3, r1
 1090 0842 00F0F080 		beq	.L37
 1091              		.loc 1 1745 8 discriminator 30 view .LVU252
ARM GAS  /tmp/ccId6s4B.s 			page 51


 1092 0846 01F17041 		add	r1, r1, #-268435456
 1093 084a 8B42     		cmp	r3, r1
 1094 084c 00F0EB80 		beq	.L37
 1095              		.loc 1 1745 8 discriminator 32 view .LVU253
 1096 0850 01F18051 		add	r1, r1, #268435456
 1097 0854 8031     		adds	r1, r1, #128
 1098 0856 8B42     		cmp	r3, r1
 1099 0858 00F0E580 		beq	.L37
 1100              		.loc 1 1745 8 discriminator 34 view .LVU254
 1101 085c 01F17041 		add	r1, r1, #-268435456
 1102 0860 8B42     		cmp	r3, r1
 1103 0862 00F0E080 		beq	.L37
 1104              		.loc 1 1745 8 discriminator 36 view .LVU255
 1105 0866 01F18051 		add	r1, r1, #268435456
 1106 086a 8031     		adds	r1, r1, #128
 1107 086c 8B42     		cmp	r3, r1
 1108 086e 00F0DA80 		beq	.L37
 1109              		.loc 1 1745 8 discriminator 38 view .LVU256
 1110 0872 01F17041 		add	r1, r1, #-268435456
 1111 0876 8B42     		cmp	r3, r1
 1112 0878 00F0D580 		beq	.L37
 1113              		.loc 1 1745 8 discriminator 40 view .LVU257
 1114 087c 01F18051 		add	r1, r1, #268435456
 1115 0880 8031     		adds	r1, r1, #128
 1116 0882 8B42     		cmp	r3, r1
 1117 0884 00F0CF80 		beq	.L37
 1118              		.loc 1 1745 8 discriminator 42 view .LVU258
 1119 0888 01F17041 		add	r1, r1, #-268435456
 1120 088c 8B42     		cmp	r3, r1
 1121 088e 00F0CA80 		beq	.L37
 1122              		.loc 1 1745 8 discriminator 44 view .LVU259
 1123 0892 01F18051 		add	r1, r1, #268435456
 1124 0896 8031     		adds	r1, r1, #128
 1125 0898 8B42     		cmp	r3, r1
 1126 089a 00F0C480 		beq	.L37
 1127              		.loc 1 1745 8 discriminator 46 view .LVU260
 1128 089e 01F17041 		add	r1, r1, #-268435456
 1129 08a2 8B42     		cmp	r3, r1
 1130 08a4 00F0BF80 		beq	.L37
 1131              		.loc 1 1745 8 discriminator 48 view .LVU261
 1132 08a8 01F18051 		add	r1, r1, #268435456
 1133 08ac 8031     		adds	r1, r1, #128
 1134 08ae 8B42     		cmp	r3, r1
 1135 08b0 00F0B980 		beq	.L37
 1136              		.loc 1 1745 8 discriminator 50 view .LVU262
 1137 08b4 01F17041 		add	r1, r1, #-268435456
 1138 08b8 8B42     		cmp	r3, r1
 1139 08ba 00F0B480 		beq	.L37
 1140              		.loc 1 1745 8 discriminator 52 view .LVU263
 1141 08be 01F18051 		add	r1, r1, #268435456
 1142 08c2 8031     		adds	r1, r1, #128
 1143 08c4 8B42     		cmp	r3, r1
 1144 08c6 00F0AE80 		beq	.L37
 1145              		.loc 1 1745 8 discriminator 54 view .LVU264
 1146 08ca 01F17041 		add	r1, r1, #-268435456
 1147 08ce 8B42     		cmp	r3, r1
 1148 08d0 00F0A980 		beq	.L37
ARM GAS  /tmp/ccId6s4B.s 			page 52


 1149              		.loc 1 1745 8 discriminator 56 view .LVU265
 1150 08d4 01F18051 		add	r1, r1, #268435456
 1151 08d8 8031     		adds	r1, r1, #128
 1152 08da 8B42     		cmp	r3, r1
 1153 08dc 00F0A380 		beq	.L37
 1154              		.loc 1 1745 8 discriminator 58 view .LVU266
 1155 08e0 01F17041 		add	r1, r1, #-268435456
 1156 08e4 8B42     		cmp	r3, r1
 1157 08e6 00F09E80 		beq	.L37
 1158              		.loc 1 1745 8 discriminator 60 view .LVU267
 1159 08ea 01F18051 		add	r1, r1, #268435456
 1160 08ee 8031     		adds	r1, r1, #128
 1161 08f0 8B42     		cmp	r3, r1
 1162 08f2 00F09880 		beq	.L37
 1163              		.loc 1 1745 8 discriminator 62 view .LVU268
 1164 08f6 01F17041 		add	r1, r1, #-268435456
 1165 08fa 8B42     		cmp	r3, r1
 1166 08fc 00F09380 		beq	.L37
 1167              		.loc 1 1745 53 discriminator 67 view .LVU269
 1168 0900 01F10821 		add	r1, r1, #134219776
 1169 0904 8031     		adds	r1, r1, #128
 1170 0906 8B42     		cmp	r3, r1
 1171 0908 00F08D80 		beq	.L37
 1172              		.loc 1 1745 53 discriminator 69 view .LVU270
 1173 090c 01F17041 		add	r1, r1, #-268435456
 1174 0910 8B42     		cmp	r3, r1
 1175 0912 00F08880 		beq	.L37
 1176              		.loc 1 1745 53 discriminator 71 view .LVU271
 1177 0916 01F18051 		add	r1, r1, #268435456
 1178 091a 8031     		adds	r1, r1, #128
 1179 091c 8B42     		cmp	r3, r1
 1180 091e 00F08280 		beq	.L37
 1181              		.loc 1 1745 53 discriminator 73 view .LVU272
 1182 0922 01F17041 		add	r1, r1, #-268435456
 1183 0926 8B42     		cmp	r3, r1
 1184 0928 7DD0     		beq	.L37
 1185              		.loc 1 1745 53 discriminator 75 view .LVU273
 1186 092a 01F18051 		add	r1, r1, #268435456
 1187 092e 8031     		adds	r1, r1, #128
 1188 0930 8B42     		cmp	r3, r1
 1189 0932 78D0     		beq	.L37
 1190              		.loc 1 1745 53 discriminator 77 view .LVU274
 1191 0934 01F17041 		add	r1, r1, #-268435456
 1192 0938 8B42     		cmp	r3, r1
 1193 093a 74D0     		beq	.L37
 1194              		.loc 1 1745 53 discriminator 79 view .LVU275
 1195 093c 01F18051 		add	r1, r1, #268435456
 1196 0940 8031     		adds	r1, r1, #128
 1197 0942 8B42     		cmp	r3, r1
 1198 0944 6FD0     		beq	.L37
 1199              		.loc 1 1745 53 discriminator 81 view .LVU276
 1200 0946 01F17041 		add	r1, r1, #-268435456
 1201 094a 8B42     		cmp	r3, r1
 1202 094c 6BD0     		beq	.L37
 1203              		.loc 1 1745 53 discriminator 83 view .LVU277
 1204 094e 01F18051 		add	r1, r1, #268435456
 1205 0952 8031     		adds	r1, r1, #128
ARM GAS  /tmp/ccId6s4B.s 			page 53


 1206 0954 8B42     		cmp	r3, r1
 1207 0956 66D0     		beq	.L37
 1208              		.loc 1 1745 53 discriminator 85 view .LVU278
 1209 0958 01F17041 		add	r1, r1, #-268435456
 1210 095c 8B42     		cmp	r3, r1
 1211 095e 62D0     		beq	.L37
 1212              		.loc 1 1745 53 discriminator 87 view .LVU279
 1213 0960 01F18051 		add	r1, r1, #268435456
 1214 0964 8031     		adds	r1, r1, #128
 1215 0966 8B42     		cmp	r3, r1
 1216 0968 5DD0     		beq	.L37
 1217              		.loc 1 1745 53 discriminator 89 view .LVU280
 1218 096a 01F17041 		add	r1, r1, #-268435456
 1219 096e 8B42     		cmp	r3, r1
 1220 0970 59D0     		beq	.L37
 1221              		.loc 1 1745 53 discriminator 91 view .LVU281
 1222 0972 01F18051 		add	r1, r1, #268435456
 1223 0976 8031     		adds	r1, r1, #128
 1224 0978 8B42     		cmp	r3, r1
 1225 097a 54D0     		beq	.L37
 1226              		.loc 1 1745 53 discriminator 93 view .LVU282
 1227 097c 01F17041 		add	r1, r1, #-268435456
 1228 0980 8B42     		cmp	r3, r1
 1229 0982 50D0     		beq	.L37
 1230              		.loc 1 1745 53 discriminator 95 view .LVU283
 1231 0984 01F18051 		add	r1, r1, #268435456
 1232 0988 8031     		adds	r1, r1, #128
 1233 098a 8B42     		cmp	r3, r1
 1234 098c 4BD0     		beq	.L37
 1235              		.loc 1 1745 53 discriminator 97 view .LVU284
 1236 098e 01F17041 		add	r1, r1, #-268435456
 1237 0992 8B42     		cmp	r3, r1
 1238 0994 47D0     		beq	.L37
 1239              		.loc 1 1745 53 discriminator 99 view .LVU285
 1240 0996 01F18051 		add	r1, r1, #268435456
 1241 099a 8031     		adds	r1, r1, #128
 1242 099c 8B42     		cmp	r3, r1
 1243 099e 42D0     		beq	.L37
 1244              		.loc 1 1745 53 discriminator 101 view .LVU286
 1245 09a0 01F17041 		add	r1, r1, #-268435456
 1246 09a4 8B42     		cmp	r3, r1
 1247 09a6 3ED0     		beq	.L37
 1248              		.loc 1 1745 53 discriminator 103 view .LVU287
 1249 09a8 01F18051 		add	r1, r1, #268435456
 1250 09ac 8031     		adds	r1, r1, #128
 1251 09ae 8B42     		cmp	r3, r1
 1252 09b0 39D0     		beq	.L37
 1253              		.loc 1 1745 53 discriminator 105 view .LVU288
 1254 09b2 01F17041 		add	r1, r1, #-268435456
 1255 09b6 8B42     		cmp	r3, r1
 1256 09b8 35D0     		beq	.L37
 1257              		.loc 1 1745 53 discriminator 107 view .LVU289
 1258 09ba 01F18051 		add	r1, r1, #268435456
 1259 09be 8031     		adds	r1, r1, #128
 1260 09c0 8B42     		cmp	r3, r1
 1261 09c2 30D0     		beq	.L37
 1262              		.loc 1 1745 53 discriminator 109 view .LVU290
ARM GAS  /tmp/ccId6s4B.s 			page 54


 1263 09c4 01F17041 		add	r1, r1, #-268435456
 1264 09c8 8B42     		cmp	r3, r1
 1265 09ca 2CD0     		beq	.L37
 1266              		.loc 1 1745 53 discriminator 111 view .LVU291
 1267 09cc 01F18051 		add	r1, r1, #268435456
 1268 09d0 8031     		adds	r1, r1, #128
 1269 09d2 8B42     		cmp	r3, r1
 1270 09d4 27D0     		beq	.L37
 1271              		.loc 1 1745 53 discriminator 113 view .LVU292
 1272 09d6 01F17041 		add	r1, r1, #-268435456
 1273 09da 8B42     		cmp	r3, r1
 1274 09dc 23D0     		beq	.L37
 1275              		.loc 1 1745 53 discriminator 115 view .LVU293
 1276 09de 01F18051 		add	r1, r1, #268435456
 1277 09e2 8031     		adds	r1, r1, #128
 1278 09e4 8B42     		cmp	r3, r1
 1279 09e6 1ED0     		beq	.L37
 1280              		.loc 1 1745 53 discriminator 117 view .LVU294
 1281 09e8 01F17041 		add	r1, r1, #-268435456
 1282 09ec 8B42     		cmp	r3, r1
 1283 09ee 1AD0     		beq	.L37
 1284              		.loc 1 1745 53 discriminator 119 view .LVU295
 1285 09f0 01F18051 		add	r1, r1, #268435456
 1286 09f4 8031     		adds	r1, r1, #128
 1287 09f6 8B42     		cmp	r3, r1
 1288 09f8 15D0     		beq	.L37
 1289              		.loc 1 1745 53 discriminator 121 view .LVU296
 1290 09fa 01F17041 		add	r1, r1, #-268435456
 1291 09fe 8B42     		cmp	r3, r1
 1292 0a00 11D0     		beq	.L37
 1293              		.loc 1 1745 53 discriminator 123 view .LVU297
 1294 0a02 01F18051 		add	r1, r1, #268435456
 1295 0a06 8031     		adds	r1, r1, #128
 1296 0a08 8B42     		cmp	r3, r1
 1297 0a0a 0CD0     		beq	.L37
 1298              		.loc 1 1745 53 discriminator 125 view .LVU298
 1299 0a0c 01F17041 		add	r1, r1, #-268435456
 1300 0a10 8B42     		cmp	r3, r1
 1301 0a12 08D0     		beq	.L37
 1302              		.loc 1 1745 53 discriminator 127 view .LVU299
 1303 0a14 01F18051 		add	r1, r1, #268435456
 1304 0a18 8031     		adds	r1, r1, #128
 1305 0a1a 8B42     		cmp	r3, r1
 1306 0a1c 03D0     		beq	.L37
 1307              		.loc 1 1745 53 discriminator 129 view .LVU300
 1308 0a1e 01F17041 		add	r1, r1, #-268435456
 1309 0a22 8B42     		cmp	r3, r1
 1310 0a24 0DD1     		bne	.L38
 1311              	.L37:
1746:../STM32Cube_FW_N6/Drivers/STM32N6xx_HAL_Driver/Src/stm32n6xx_hal_dma.c ****   {
1747:../STM32Cube_FW_N6/Drivers/STM32N6xx_HAL_Driver/Src/stm32n6xx_hal_dma.c ****     tmpreg |= (hdma->Init.TransferAllocatedPort                                             |
 1312              		.loc 1 1747 5 is_stmt 1 view .LVU301
1748:../STM32Cube_FW_N6/Drivers/STM32N6xx_HAL_Driver/Src/stm32n6xx_hal_dma.c ****                (((hdma->Init.DestBurstLength - 1U) << DMA_CTR1_DBL_1_Pos) & DMA_CTR1_DBL_1) |
 1313              		.loc 1 1748 46 is_stmt 0 view .LVU302
 1314 0a26 A16A     		ldr	r1, [r4, #40]
 1315 0a28 0139     		subs	r1, r1, #1
 1316              		.loc 1 1748 52 view .LVU303
ARM GAS  /tmp/ccId6s4B.s 			page 55


 1317 0a2a 0905     		lsls	r1, r1, #20
 1318              		.loc 1 1748 75 view .LVU304
 1319 0a2c 01F07C71 		and	r1, r1, #66060288
 1320 0a30 1143     		orrs	r1, r1, r2
 1321 0a32 E26A     		ldr	r2, [r4, #44]
 1322              	.LVL17:
 1323              		.loc 1 1748 75 view .LVU305
 1324 0a34 1143     		orrs	r1, r1, r2
1749:../STM32Cube_FW_N6/Drivers/STM32N6xx_HAL_Driver/Src/stm32n6xx_hal_dma.c ****                (((hdma->Init.SrcBurstLength - 1U) << DMA_CTR1_SBL_1_Pos) & DMA_CTR1_SBL_1));
 1325              		.loc 1 1749 45 view .LVU306
 1326 0a36 626A     		ldr	r2, [r4, #36]
 1327 0a38 013A     		subs	r2, r2, #1
 1328              		.loc 1 1749 51 view .LVU307
 1329 0a3a 1201     		lsls	r2, r2, #4
 1330              		.loc 1 1749 74 view .LVU308
 1331 0a3c 02F47C72 		and	r2, r2, #1008
1747:../STM32Cube_FW_N6/Drivers/STM32N6xx_HAL_Driver/Src/stm32n6xx_hal_dma.c ****                (((hdma->Init.DestBurstLength - 1U) << DMA_CTR1_DBL_1_Pos) & DMA_CTR1_DBL_1) |
 1332              		.loc 1 1747 12 view .LVU309
 1333 0a40 0A43     		orrs	r2, r2, r1
 1334              	.L38:
 1335              	.LVL18:
1750:../STM32Cube_FW_N6/Drivers/STM32N6xx_HAL_Driver/Src/stm32n6xx_hal_dma.c ****   }
1751:../STM32Cube_FW_N6/Drivers/STM32N6xx_HAL_Driver/Src/stm32n6xx_hal_dma.c **** 
1752:../STM32Cube_FW_N6/Drivers/STM32N6xx_HAL_Driver/Src/stm32n6xx_hal_dma.c ****   /* Write DMA Channel Transfer Register 1 (CTR1) */
1753:../STM32Cube_FW_N6/Drivers/STM32N6xx_HAL_Driver/Src/stm32n6xx_hal_dma.c ****   MODIFY_REG(hdma->Instance->CTR1, ~(DMA_CTR1_SSEC | DMA_CTR1_DSEC), tmpreg);
 1336              		.loc 1 1753 3 is_stmt 1 view .LVU310
 1337 0a42 196C     		ldr	r1, [r3, #64]
 1338 0a44 01F08021 		and	r1, r1, #-2147450880
 1339 0a48 0A43     		orrs	r2, r2, r1
 1340              	.LVL19:
 1341              		.loc 1 1753 3 is_stmt 0 view .LVU311
 1342 0a4a 1A64     		str	r2, [r3, #64]
1754:../STM32Cube_FW_N6/Drivers/STM32N6xx_HAL_Driver/Src/stm32n6xx_hal_dma.c **** 
1755:../STM32Cube_FW_N6/Drivers/STM32N6xx_HAL_Driver/Src/stm32n6xx_hal_dma.c ****   /* Prepare DMA Channel Transfer Register 2 (CTR2) value *****************************************
1756:../STM32Cube_FW_N6/Drivers/STM32N6xx_HAL_Driver/Src/stm32n6xx_hal_dma.c ****   tmpreg = hdma->Init.BlkHWRequest | (hdma->Init.Request & DMA_CTR2_REQSEL) | hdma->Init.TransferEv
 1343              		.loc 1 1756 3 is_stmt 1 view .LVU312
 1344              		.loc 1 1756 10 is_stmt 0 view .LVU313
 1345 0a4c A168     		ldr	r1, [r4, #8]
 1346 0a4e 226B     		ldr	r2, [r4, #48]
 1347 0a50 1143     		orrs	r1, r1, r2
 1348              		.loc 1 1756 58 view .LVU314
 1349 0a52 2279     		ldrb	r2, [r4, #4]	@ zero_extendqisi2
 1350              		.loc 1 1756 10 view .LVU315
 1351 0a54 1143     		orrs	r1, r1, r2
 1352              	.LVL20:
1757:../STM32Cube_FW_N6/Drivers/STM32N6xx_HAL_Driver/Src/stm32n6xx_hal_dma.c **** 
1758:../STM32Cube_FW_N6/Drivers/STM32N6xx_HAL_Driver/Src/stm32n6xx_hal_dma.c ****   /* Memory to Peripheral Transfer */
1759:../STM32Cube_FW_N6/Drivers/STM32N6xx_HAL_Driver/Src/stm32n6xx_hal_dma.c ****   if ((hdma->Init.Direction) == DMA_MEMORY_TO_PERIPH)
 1353              		.loc 1 1759 3 is_stmt 1 view .LVU316
 1354              		.loc 1 1759 18 is_stmt 0 view .LVU317
 1355 0a56 E268     		ldr	r2, [r4, #12]
 1356              		.loc 1 1759 6 view .LVU318
 1357 0a58 B2F5806F 		cmp	r2, #1024
 1358 0a5c 40F01C82 		bne	.L39
1760:../STM32Cube_FW_N6/Drivers/STM32N6xx_HAL_Driver/Src/stm32n6xx_hal_dma.c ****   {
1761:../STM32Cube_FW_N6/Drivers/STM32N6xx_HAL_Driver/Src/stm32n6xx_hal_dma.c ****     if ((IS_HPDMA_INSTANCE(hdma->Instance) != 0U) || (IS_GPDMA_INSTANCE(hdma->Instance) != 0U))
 1359              		.loc 1 1761 5 is_stmt 1 view .LVU319
ARM GAS  /tmp/ccId6s4B.s 			page 56


 1360              		.loc 1 1761 10 is_stmt 0 view .LVU320
 1361 0a60 AB42     		cmp	r3, r5
 1362 0a62 00F04081 		beq	.L40
 1363              		.loc 1 1761 10 discriminator 2 view .LVU321
 1364 0a66 164A     		ldr	r2, .L75
 1365 0a68 9342     		cmp	r3, r2
 1366 0a6a 00F03C81 		beq	.L40
 1367              		.loc 1 1761 10 discriminator 4 view .LVU322
 1368 0a6e 02F18052 		add	r2, r2, #268435456
 1369 0a72 8032     		adds	r2, r2, #128
 1370 0a74 9342     		cmp	r3, r2
 1371 0a76 00F03681 		beq	.L40
 1372              		.loc 1 1761 10 discriminator 6 view .LVU323
 1373 0a7a 02F17042 		add	r2, r2, #-268435456
 1374 0a7e 9342     		cmp	r3, r2
 1375 0a80 00F03181 		beq	.L40
 1376              		.loc 1 1761 10 discriminator 8 view .LVU324
 1377 0a84 02F18052 		add	r2, r2, #268435456
 1378 0a88 8032     		adds	r2, r2, #128
 1379 0a8a 9342     		cmp	r3, r2
 1380 0a8c 00F02B81 		beq	.L40
 1381              		.loc 1 1761 10 discriminator 10 view .LVU325
 1382 0a90 02F17042 		add	r2, r2, #-268435456
 1383 0a94 9342     		cmp	r3, r2
 1384 0a96 00F02681 		beq	.L40
 1385              		.loc 1 1761 10 discriminator 12 view .LVU326
 1386 0a9a 02F18052 		add	r2, r2, #268435456
 1387 0a9e 8032     		adds	r2, r2, #128
 1388 0aa0 9342     		cmp	r3, r2
 1389 0aa2 00F02081 		beq	.L40
 1390              		.loc 1 1761 10 discriminator 14 view .LVU327
 1391 0aa6 02F17042 		add	r2, r2, #-268435456
 1392 0aaa 9342     		cmp	r3, r2
 1393 0aac 00F01B81 		beq	.L40
 1394              		.loc 1 1761 10 discriminator 16 view .LVU328
 1395 0ab0 02F18052 		add	r2, r2, #268435456
 1396 0ab4 8032     		adds	r2, r2, #128
 1397 0ab6 9342     		cmp	r3, r2
 1398 0ab8 00F01581 		beq	.L40
 1399 0abc 02E0     		b	.L76
 1400              	.L77:
 1401 0abe 00BF     		.align	2
 1402              	.L75:
 1403 0ac0 50000248 		.word	1208090704
 1404              	.L76:
 1405              		.loc 1 1761 10 discriminator 18 view .LVU329
 1406 0ac4 02F17042 		add	r2, r2, #-268435456
 1407 0ac8 9342     		cmp	r3, r2
 1408 0aca 00F00C81 		beq	.L40
 1409              		.loc 1 1761 10 discriminator 20 view .LVU330
 1410 0ace 02F18052 		add	r2, r2, #268435456
 1411 0ad2 8032     		adds	r2, r2, #128
 1412 0ad4 9342     		cmp	r3, r2
 1413 0ad6 00F00681 		beq	.L40
 1414              		.loc 1 1761 10 discriminator 22 view .LVU331
 1415 0ada 02F17042 		add	r2, r2, #-268435456
 1416 0ade 9342     		cmp	r3, r2
ARM GAS  /tmp/ccId6s4B.s 			page 57


 1417 0ae0 00F00181 		beq	.L40
 1418              		.loc 1 1761 10 discriminator 24 view .LVU332
 1419 0ae4 02F18052 		add	r2, r2, #268435456
 1420 0ae8 8032     		adds	r2, r2, #128
 1421 0aea 9342     		cmp	r3, r2
 1422 0aec 00F0FB80 		beq	.L40
 1423              		.loc 1 1761 10 discriminator 26 view .LVU333
 1424 0af0 02F17042 		add	r2, r2, #-268435456
 1425 0af4 9342     		cmp	r3, r2
 1426 0af6 00F0F680 		beq	.L40
 1427              		.loc 1 1761 10 discriminator 28 view .LVU334
 1428 0afa 02F18052 		add	r2, r2, #268435456
 1429 0afe 8032     		adds	r2, r2, #128
 1430 0b00 9342     		cmp	r3, r2
 1431 0b02 00F0F080 		beq	.L40
 1432              		.loc 1 1761 10 discriminator 30 view .LVU335
 1433 0b06 02F17042 		add	r2, r2, #-268435456
 1434 0b0a 9342     		cmp	r3, r2
 1435 0b0c 00F0EB80 		beq	.L40
 1436              		.loc 1 1761 10 discriminator 32 view .LVU336
 1437 0b10 02F18052 		add	r2, r2, #268435456
 1438 0b14 8032     		adds	r2, r2, #128
 1439 0b16 9342     		cmp	r3, r2
 1440 0b18 00F0E580 		beq	.L40
 1441              		.loc 1 1761 10 discriminator 34 view .LVU337
 1442 0b1c 02F17042 		add	r2, r2, #-268435456
 1443 0b20 9342     		cmp	r3, r2
 1444 0b22 00F0E080 		beq	.L40
 1445              		.loc 1 1761 10 discriminator 36 view .LVU338
 1446 0b26 02F18052 		add	r2, r2, #268435456
 1447 0b2a 8032     		adds	r2, r2, #128
 1448 0b2c 9342     		cmp	r3, r2
 1449 0b2e 00F0DA80 		beq	.L40
 1450              		.loc 1 1761 10 discriminator 38 view .LVU339
 1451 0b32 02F17042 		add	r2, r2, #-268435456
 1452 0b36 9342     		cmp	r3, r2
 1453 0b38 00F0D580 		beq	.L40
 1454              		.loc 1 1761 10 discriminator 40 view .LVU340
 1455 0b3c 02F18052 		add	r2, r2, #268435456
 1456 0b40 8032     		adds	r2, r2, #128
 1457 0b42 9342     		cmp	r3, r2
 1458 0b44 00F0CF80 		beq	.L40
 1459              		.loc 1 1761 10 discriminator 42 view .LVU341
 1460 0b48 02F17042 		add	r2, r2, #-268435456
 1461 0b4c 9342     		cmp	r3, r2
 1462 0b4e 00F0CA80 		beq	.L40
 1463              		.loc 1 1761 10 discriminator 44 view .LVU342
 1464 0b52 02F18052 		add	r2, r2, #268435456
 1465 0b56 8032     		adds	r2, r2, #128
 1466 0b58 9342     		cmp	r3, r2
 1467 0b5a 00F0C480 		beq	.L40
 1468              		.loc 1 1761 10 discriminator 46 view .LVU343
 1469 0b5e 02F17042 		add	r2, r2, #-268435456
 1470 0b62 9342     		cmp	r3, r2
 1471 0b64 00F0BF80 		beq	.L40
 1472              		.loc 1 1761 10 discriminator 48 view .LVU344
 1473 0b68 02F18052 		add	r2, r2, #268435456
ARM GAS  /tmp/ccId6s4B.s 			page 58


 1474 0b6c 8032     		adds	r2, r2, #128
 1475 0b6e 9342     		cmp	r3, r2
 1476 0b70 00F0B980 		beq	.L40
 1477              		.loc 1 1761 10 discriminator 50 view .LVU345
 1478 0b74 02F17042 		add	r2, r2, #-268435456
 1479 0b78 9342     		cmp	r3, r2
 1480 0b7a 00F0B480 		beq	.L40
 1481              		.loc 1 1761 10 discriminator 52 view .LVU346
 1482 0b7e 02F18052 		add	r2, r2, #268435456
 1483 0b82 8032     		adds	r2, r2, #128
 1484 0b84 9342     		cmp	r3, r2
 1485 0b86 00F0AE80 		beq	.L40
 1486              		.loc 1 1761 10 discriminator 54 view .LVU347
 1487 0b8a 02F17042 		add	r2, r2, #-268435456
 1488 0b8e 9342     		cmp	r3, r2
 1489 0b90 00F0A980 		beq	.L40
 1490              		.loc 1 1761 10 discriminator 56 view .LVU348
 1491 0b94 02F18052 		add	r2, r2, #268435456
 1492 0b98 8032     		adds	r2, r2, #128
 1493 0b9a 9342     		cmp	r3, r2
 1494 0b9c 00F0A380 		beq	.L40
 1495              		.loc 1 1761 10 discriminator 58 view .LVU349
 1496 0ba0 02F17042 		add	r2, r2, #-268435456
 1497 0ba4 9342     		cmp	r3, r2
 1498 0ba6 00F09E80 		beq	.L40
 1499              		.loc 1 1761 10 discriminator 60 view .LVU350
 1500 0baa 02F18052 		add	r2, r2, #268435456
 1501 0bae 8032     		adds	r2, r2, #128
 1502 0bb0 9342     		cmp	r3, r2
 1503 0bb2 00F09880 		beq	.L40
 1504              		.loc 1 1761 10 discriminator 62 view .LVU351
 1505 0bb6 02F17042 		add	r2, r2, #-268435456
 1506 0bba 9342     		cmp	r3, r2
 1507 0bbc 00F09380 		beq	.L40
 1508              		.loc 1 1761 55 discriminator 67 view .LVU352
 1509 0bc0 02F10822 		add	r2, r2, #134219776
 1510 0bc4 8032     		adds	r2, r2, #128
 1511 0bc6 9342     		cmp	r3, r2
 1512 0bc8 00F08D80 		beq	.L40
 1513              		.loc 1 1761 55 discriminator 69 view .LVU353
 1514 0bcc 02F17042 		add	r2, r2, #-268435456
 1515 0bd0 9342     		cmp	r3, r2
 1516 0bd2 00F08880 		beq	.L40
 1517              		.loc 1 1761 55 discriminator 71 view .LVU354
 1518 0bd6 02F18052 		add	r2, r2, #268435456
 1519 0bda 8032     		adds	r2, r2, #128
 1520 0bdc 9342     		cmp	r3, r2
 1521 0bde 00F08280 		beq	.L40
 1522              		.loc 1 1761 55 discriminator 73 view .LVU355
 1523 0be2 02F17042 		add	r2, r2, #-268435456
 1524 0be6 9342     		cmp	r3, r2
 1525 0be8 7DD0     		beq	.L40
 1526              		.loc 1 1761 55 discriminator 75 view .LVU356
 1527 0bea 02F18052 		add	r2, r2, #268435456
 1528 0bee 8032     		adds	r2, r2, #128
 1529 0bf0 9342     		cmp	r3, r2
 1530 0bf2 78D0     		beq	.L40
ARM GAS  /tmp/ccId6s4B.s 			page 59


 1531              		.loc 1 1761 55 discriminator 77 view .LVU357
 1532 0bf4 02F17042 		add	r2, r2, #-268435456
 1533 0bf8 9342     		cmp	r3, r2
 1534 0bfa 74D0     		beq	.L40
 1535              		.loc 1 1761 55 discriminator 79 view .LVU358
 1536 0bfc 02F18052 		add	r2, r2, #268435456
 1537 0c00 8032     		adds	r2, r2, #128
 1538 0c02 9342     		cmp	r3, r2
 1539 0c04 6FD0     		beq	.L40
 1540              		.loc 1 1761 55 discriminator 81 view .LVU359
 1541 0c06 02F17042 		add	r2, r2, #-268435456
 1542 0c0a 9342     		cmp	r3, r2
 1543 0c0c 6BD0     		beq	.L40
 1544              		.loc 1 1761 55 discriminator 83 view .LVU360
 1545 0c0e 02F18052 		add	r2, r2, #268435456
 1546 0c12 8032     		adds	r2, r2, #128
 1547 0c14 9342     		cmp	r3, r2
 1548 0c16 66D0     		beq	.L40
 1549              		.loc 1 1761 55 discriminator 85 view .LVU361
 1550 0c18 02F17042 		add	r2, r2, #-268435456
 1551 0c1c 9342     		cmp	r3, r2
 1552 0c1e 62D0     		beq	.L40
 1553              		.loc 1 1761 55 discriminator 87 view .LVU362
 1554 0c20 02F18052 		add	r2, r2, #268435456
 1555 0c24 8032     		adds	r2, r2, #128
 1556 0c26 9342     		cmp	r3, r2
 1557 0c28 5DD0     		beq	.L40
 1558              		.loc 1 1761 55 discriminator 89 view .LVU363
 1559 0c2a 02F17042 		add	r2, r2, #-268435456
 1560 0c2e 9342     		cmp	r3, r2
 1561 0c30 59D0     		beq	.L40
 1562              		.loc 1 1761 55 discriminator 91 view .LVU364
 1563 0c32 02F18052 		add	r2, r2, #268435456
 1564 0c36 8032     		adds	r2, r2, #128
 1565 0c38 9342     		cmp	r3, r2
 1566 0c3a 54D0     		beq	.L40
 1567              		.loc 1 1761 55 discriminator 93 view .LVU365
 1568 0c3c 02F17042 		add	r2, r2, #-268435456
 1569 0c40 9342     		cmp	r3, r2
 1570 0c42 50D0     		beq	.L40
 1571              		.loc 1 1761 55 discriminator 95 view .LVU366
 1572 0c44 02F18052 		add	r2, r2, #268435456
 1573 0c48 8032     		adds	r2, r2, #128
 1574 0c4a 9342     		cmp	r3, r2
 1575 0c4c 4BD0     		beq	.L40
 1576              		.loc 1 1761 55 discriminator 97 view .LVU367
 1577 0c4e 02F17042 		add	r2, r2, #-268435456
 1578 0c52 9342     		cmp	r3, r2
 1579 0c54 47D0     		beq	.L40
 1580              		.loc 1 1761 55 discriminator 99 view .LVU368
 1581 0c56 02F18052 		add	r2, r2, #268435456
 1582 0c5a 8032     		adds	r2, r2, #128
 1583 0c5c 9342     		cmp	r3, r2
 1584 0c5e 42D0     		beq	.L40
 1585              		.loc 1 1761 55 discriminator 101 view .LVU369
 1586 0c60 02F17042 		add	r2, r2, #-268435456
 1587 0c64 9342     		cmp	r3, r2
ARM GAS  /tmp/ccId6s4B.s 			page 60


 1588 0c66 3ED0     		beq	.L40
 1589              		.loc 1 1761 55 discriminator 103 view .LVU370
 1590 0c68 02F18052 		add	r2, r2, #268435456
 1591 0c6c 8032     		adds	r2, r2, #128
 1592 0c6e 9342     		cmp	r3, r2
 1593 0c70 39D0     		beq	.L40
 1594              		.loc 1 1761 55 discriminator 105 view .LVU371
 1595 0c72 02F17042 		add	r2, r2, #-268435456
 1596 0c76 9342     		cmp	r3, r2
 1597 0c78 35D0     		beq	.L40
 1598              		.loc 1 1761 55 discriminator 107 view .LVU372
 1599 0c7a 02F18052 		add	r2, r2, #268435456
 1600 0c7e 8032     		adds	r2, r2, #128
 1601 0c80 9342     		cmp	r3, r2
 1602 0c82 30D0     		beq	.L40
 1603              		.loc 1 1761 55 discriminator 109 view .LVU373
 1604 0c84 02F17042 		add	r2, r2, #-268435456
 1605 0c88 9342     		cmp	r3, r2
 1606 0c8a 2CD0     		beq	.L40
 1607              		.loc 1 1761 55 discriminator 111 view .LVU374
 1608 0c8c 02F18052 		add	r2, r2, #268435456
 1609 0c90 8032     		adds	r2, r2, #128
 1610 0c92 9342     		cmp	r3, r2
 1611 0c94 27D0     		beq	.L40
 1612              		.loc 1 1761 55 discriminator 113 view .LVU375
 1613 0c96 02F17042 		add	r2, r2, #-268435456
 1614 0c9a 9342     		cmp	r3, r2
 1615 0c9c 23D0     		beq	.L40
 1616              		.loc 1 1761 55 discriminator 115 view .LVU376
 1617 0c9e 02F18052 		add	r2, r2, #268435456
 1618 0ca2 8032     		adds	r2, r2, #128
 1619 0ca4 9342     		cmp	r3, r2
 1620 0ca6 1ED0     		beq	.L40
 1621              		.loc 1 1761 55 discriminator 117 view .LVU377
 1622 0ca8 02F17042 		add	r2, r2, #-268435456
 1623 0cac 9342     		cmp	r3, r2
 1624 0cae 1AD0     		beq	.L40
 1625              		.loc 1 1761 55 discriminator 119 view .LVU378
 1626 0cb0 02F18052 		add	r2, r2, #268435456
 1627 0cb4 8032     		adds	r2, r2, #128
 1628 0cb6 9342     		cmp	r3, r2
 1629 0cb8 15D0     		beq	.L40
 1630              		.loc 1 1761 55 discriminator 121 view .LVU379
 1631 0cba 02F17042 		add	r2, r2, #-268435456
 1632 0cbe 9342     		cmp	r3, r2
 1633 0cc0 11D0     		beq	.L40
 1634              		.loc 1 1761 55 discriminator 123 view .LVU380
 1635 0cc2 02F18052 		add	r2, r2, #268435456
 1636 0cc6 8032     		adds	r2, r2, #128
 1637 0cc8 9342     		cmp	r3, r2
 1638 0cca 0CD0     		beq	.L40
 1639              		.loc 1 1761 55 discriminator 125 view .LVU381
 1640 0ccc 02F17042 		add	r2, r2, #-268435456
 1641 0cd0 9342     		cmp	r3, r2
 1642 0cd2 08D0     		beq	.L40
 1643              		.loc 1 1761 55 discriminator 127 view .LVU382
 1644 0cd4 02F18052 		add	r2, r2, #268435456
ARM GAS  /tmp/ccId6s4B.s 			page 61


 1645 0cd8 8032     		adds	r2, r2, #128
 1646 0cda 9342     		cmp	r3, r2
 1647 0cdc 03D0     		beq	.L40
 1648              		.loc 1 1761 55 discriminator 129 view .LVU383
 1649 0cde 02F17042 		add	r2, r2, #-268435456
 1650 0ce2 9342     		cmp	r3, r2
 1651 0ce4 01D1     		bne	.L41
 1652              	.L40:
1762:../STM32Cube_FW_N6/Drivers/STM32N6xx_HAL_Driver/Src/stm32n6xx_hal_dma.c ****     {
1763:../STM32Cube_FW_N6/Drivers/STM32N6xx_HAL_Driver/Src/stm32n6xx_hal_dma.c ****       tmpreg |= DMA_CTR2_DREQ;
 1653              		.loc 1 1763 7 is_stmt 1 view .LVU384
 1654              		.loc 1 1763 14 is_stmt 0 view .LVU385
 1655 0ce6 41F48061 		orr	r1, r1, #1024
 1656              	.LVL21:
 1657              	.L41:
1764:../STM32Cube_FW_N6/Drivers/STM32N6xx_HAL_Driver/Src/stm32n6xx_hal_dma.c ****     }
1765:../STM32Cube_FW_N6/Drivers/STM32N6xx_HAL_Driver/Src/stm32n6xx_hal_dma.c ****   }
1766:../STM32Cube_FW_N6/Drivers/STM32N6xx_HAL_Driver/Src/stm32n6xx_hal_dma.c ****   /* Memory to Memory Transfer */
1767:../STM32Cube_FW_N6/Drivers/STM32N6xx_HAL_Driver/Src/stm32n6xx_hal_dma.c ****   else if ((hdma->Init.Direction) == DMA_MEMORY_TO_MEMORY)
1768:../STM32Cube_FW_N6/Drivers/STM32N6xx_HAL_Driver/Src/stm32n6xx_hal_dma.c ****   {
1769:../STM32Cube_FW_N6/Drivers/STM32N6xx_HAL_Driver/Src/stm32n6xx_hal_dma.c ****     tmpreg |= DMA_CTR2_SWREQ;
1770:../STM32Cube_FW_N6/Drivers/STM32N6xx_HAL_Driver/Src/stm32n6xx_hal_dma.c ****   }
1771:../STM32Cube_FW_N6/Drivers/STM32N6xx_HAL_Driver/Src/stm32n6xx_hal_dma.c ****   else
1772:../STM32Cube_FW_N6/Drivers/STM32N6xx_HAL_Driver/Src/stm32n6xx_hal_dma.c ****   {
1773:../STM32Cube_FW_N6/Drivers/STM32N6xx_HAL_Driver/Src/stm32n6xx_hal_dma.c ****     /* Nothing to do */
1774:../STM32Cube_FW_N6/Drivers/STM32N6xx_HAL_Driver/Src/stm32n6xx_hal_dma.c ****   }
 1658              		.loc 1 1774 3 is_stmt 1 view .LVU386
1775:../STM32Cube_FW_N6/Drivers/STM32N6xx_HAL_Driver/Src/stm32n6xx_hal_dma.c **** 
1776:../STM32Cube_FW_N6/Drivers/STM32N6xx_HAL_Driver/Src/stm32n6xx_hal_dma.c ****   /* Set DMA channel operation mode */
1777:../STM32Cube_FW_N6/Drivers/STM32N6xx_HAL_Driver/Src/stm32n6xx_hal_dma.c ****   tmpreg |= hdma->Init.Mode;
 1659              		.loc 1 1777 3 view .LVU387
1778:../STM32Cube_FW_N6/Drivers/STM32N6xx_HAL_Driver/Src/stm32n6xx_hal_dma.c **** 
1779:../STM32Cube_FW_N6/Drivers/STM32N6xx_HAL_Driver/Src/stm32n6xx_hal_dma.c ****   /* Write DMA Channel Transfer Register 2 (CTR2) */
1780:../STM32Cube_FW_N6/Drivers/STM32N6xx_HAL_Driver/Src/stm32n6xx_hal_dma.c ****   MODIFY_REG(hdma->Instance->CTR2, (DMA_CTR2_TCEM  | DMA_CTR2_TRIGPOL | DMA_CTR2_TRIGSEL | DMA_CTR2
 1660              		.loc 1 1780 3 is_stmt 0 view .LVU388
 1661 0cea 5A6C     		ldr	r2, [r3, #68]
1777:../STM32Cube_FW_N6/Drivers/STM32N6xx_HAL_Driver/Src/stm32n6xx_hal_dma.c **** 
 1662              		.loc 1 1777 23 view .LVU389
 1663 0cec 656B     		ldr	r5, [r4, #52]
 1664              	.LVL22:
 1665              		.loc 1 1780 3 is_stmt 1 view .LVU390
 1666 0cee 22F04342 		bic	r2, r2, #-1023410176
 1667 0cf2 22F4FF02 		bic	r2, r2, #8355840
 1668 0cf6 22F4BD42 		bic	r2, r2, #24192
 1669 0cfa 22F07F02 		bic	r2, r2, #127
 1670 0cfe 2A43     		orrs	r2, r2, r5
 1671 0d00 0A43     		orrs	r2, r2, r1
 1672 0d02 5A64     		str	r2, [r3, #68]
1781:../STM32Cube_FW_N6/Drivers/STM32N6xx_HAL_Driver/Src/stm32n6xx_hal_dma.c ****                                     DMA_CTR2_PFREQ | DMA_CTR2_BREQ  | DMA_CTR2_DREQ    | DMA_CTR2_S
1782:../STM32Cube_FW_N6/Drivers/STM32N6xx_HAL_Driver/Src/stm32n6xx_hal_dma.c ****                                     DMA_CTR2_REQSEL), tmpreg);
1783:../STM32Cube_FW_N6/Drivers/STM32N6xx_HAL_Driver/Src/stm32n6xx_hal_dma.c **** 
1784:../STM32Cube_FW_N6/Drivers/STM32N6xx_HAL_Driver/Src/stm32n6xx_hal_dma.c **** 
1785:../STM32Cube_FW_N6/Drivers/STM32N6xx_HAL_Driver/Src/stm32n6xx_hal_dma.c ****   /* Write DMA Channel Block Register 1 (CBR1) ****************************************************
1786:../STM32Cube_FW_N6/Drivers/STM32N6xx_HAL_Driver/Src/stm32n6xx_hal_dma.c ****   WRITE_REG(hdma->Instance->CBR1, 0U);
 1673              		.loc 1 1786 3 view .LVU391
 1674 0d04 0022     		movs	r2, #0
 1675 0d06 9A64     		str	r2, [r3, #72]
ARM GAS  /tmp/ccId6s4B.s 			page 62


1787:../STM32Cube_FW_N6/Drivers/STM32N6xx_HAL_Driver/Src/stm32n6xx_hal_dma.c **** 
1788:../STM32Cube_FW_N6/Drivers/STM32N6xx_HAL_Driver/Src/stm32n6xx_hal_dma.c ****   /* If 2D Addressing is supported by current channel */
1789:../STM32Cube_FW_N6/Drivers/STM32N6xx_HAL_Driver/Src/stm32n6xx_hal_dma.c ****   if (IS_DMA_2D_ADDRESSING_INSTANCE(hdma->Instance) != 0U)
 1676              		.loc 1 1789 3 view .LVU392
 1677              		.loc 1 1789 7 is_stmt 0 view .LVU393
 1678 0d08 664A     		ldr	r2, .L78
 1679 0d0a 9342     		cmp	r3, r2
 1680 0d0c 43D0     		beq	.L42
 1681              		.loc 1 1789 7 discriminator 2 view .LVU394
 1682 0d0e 02F17042 		add	r2, r2, #-268435456
 1683 0d12 9342     		cmp	r3, r2
 1684 0d14 3FD0     		beq	.L42
 1685              		.loc 1 1789 7 discriminator 4 view .LVU395
 1686 0d16 02F18052 		add	r2, r2, #268435456
 1687 0d1a 8032     		adds	r2, r2, #128
 1688 0d1c 9342     		cmp	r3, r2
 1689 0d1e 3AD0     		beq	.L42
 1690              		.loc 1 1789 7 discriminator 6 view .LVU396
 1691 0d20 02F17042 		add	r2, r2, #-268435456
 1692 0d24 9342     		cmp	r3, r2
 1693 0d26 36D0     		beq	.L42
 1694              		.loc 1 1789 7 discriminator 8 view .LVU397
 1695 0d28 02F18052 		add	r2, r2, #268435456
 1696 0d2c 8032     		adds	r2, r2, #128
 1697 0d2e 9342     		cmp	r3, r2
 1698 0d30 31D0     		beq	.L42
 1699              		.loc 1 1789 7 discriminator 10 view .LVU398
 1700 0d32 02F17042 		add	r2, r2, #-268435456
 1701 0d36 9342     		cmp	r3, r2
 1702 0d38 2DD0     		beq	.L42
 1703              		.loc 1 1789 7 discriminator 12 view .LVU399
 1704 0d3a 02F18052 		add	r2, r2, #268435456
 1705 0d3e 8032     		adds	r2, r2, #128
 1706 0d40 9342     		cmp	r3, r2
 1707 0d42 28D0     		beq	.L42
 1708              		.loc 1 1789 7 discriminator 14 view .LVU400
 1709 0d44 02F17042 		add	r2, r2, #-268435456
 1710 0d48 9342     		cmp	r3, r2
 1711 0d4a 24D0     		beq	.L42
 1712              		.loc 1 1789 7 discriminator 16 view .LVU401
 1713 0d4c 02F1C052 		add	r2, r2, #402653184
 1714 0d50 A2F58C52 		sub	r2, r2, #4480
 1715 0d54 9342     		cmp	r3, r2
 1716 0d56 1ED0     		beq	.L42
 1717              		.loc 1 1789 7 discriminator 18 view .LVU402
 1718 0d58 02F17042 		add	r2, r2, #-268435456
 1719 0d5c 9342     		cmp	r3, r2
 1720 0d5e 1AD0     		beq	.L42
 1721              		.loc 1 1789 7 discriminator 20 view .LVU403
 1722 0d60 02F18052 		add	r2, r2, #268435456
 1723 0d64 8032     		adds	r2, r2, #128
 1724 0d66 9342     		cmp	r3, r2
 1725 0d68 15D0     		beq	.L42
 1726              		.loc 1 1789 7 discriminator 22 view .LVU404
 1727 0d6a 02F17042 		add	r2, r2, #-268435456
 1728 0d6e 9342     		cmp	r3, r2
 1729 0d70 11D0     		beq	.L42
ARM GAS  /tmp/ccId6s4B.s 			page 63


 1730              		.loc 1 1789 7 discriminator 24 view .LVU405
 1731 0d72 02F18052 		add	r2, r2, #268435456
 1732 0d76 8032     		adds	r2, r2, #128
 1733 0d78 9342     		cmp	r3, r2
 1734 0d7a 0CD0     		beq	.L42
 1735              		.loc 1 1789 7 discriminator 26 view .LVU406
 1736 0d7c 02F17042 		add	r2, r2, #-268435456
 1737 0d80 9342     		cmp	r3, r2
 1738 0d82 08D0     		beq	.L42
 1739              		.loc 1 1789 7 discriminator 28 view .LVU407
 1740 0d84 02F18052 		add	r2, r2, #268435456
 1741 0d88 8032     		adds	r2, r2, #128
 1742 0d8a 9342     		cmp	r3, r2
 1743 0d8c 03D0     		beq	.L42
 1744              		.loc 1 1789 7 discriminator 30 view .LVU408
 1745 0d8e 02F17042 		add	r2, r2, #-268435456
 1746 0d92 9342     		cmp	r3, r2
 1747 0d94 02D1     		bne	.L43
 1748              	.L42:
1790:../STM32Cube_FW_N6/Drivers/STM32N6xx_HAL_Driver/Src/stm32n6xx_hal_dma.c ****   {
1791:../STM32Cube_FW_N6/Drivers/STM32N6xx_HAL_Driver/Src/stm32n6xx_hal_dma.c ****     /* Write DMA Channel Transfer Register 3 (CTR3) ***********************************************
1792:../STM32Cube_FW_N6/Drivers/STM32N6xx_HAL_Driver/Src/stm32n6xx_hal_dma.c ****     WRITE_REG(hdma->Instance->CTR3, 0U);
 1749              		.loc 1 1792 5 is_stmt 1 view .LVU409
 1750 0d96 0022     		movs	r2, #0
 1751 0d98 5A65     		str	r2, [r3, #84]
1793:../STM32Cube_FW_N6/Drivers/STM32N6xx_HAL_Driver/Src/stm32n6xx_hal_dma.c **** 
1794:../STM32Cube_FW_N6/Drivers/STM32N6xx_HAL_Driver/Src/stm32n6xx_hal_dma.c ****     /* Write DMA Channel Block Register 2 (CBR2) **************************************************
1795:../STM32Cube_FW_N6/Drivers/STM32N6xx_HAL_Driver/Src/stm32n6xx_hal_dma.c ****     WRITE_REG(hdma->Instance->CBR2, 0U);
 1752              		.loc 1 1795 5 view .LVU410
 1753 0d9a 9A65     		str	r2, [r3, #88]
 1754              	.L43:
1796:../STM32Cube_FW_N6/Drivers/STM32N6xx_HAL_Driver/Src/stm32n6xx_hal_dma.c ****   }
1797:../STM32Cube_FW_N6/Drivers/STM32N6xx_HAL_Driver/Src/stm32n6xx_hal_dma.c **** 
1798:../STM32Cube_FW_N6/Drivers/STM32N6xx_HAL_Driver/Src/stm32n6xx_hal_dma.c ****   /* Write DMA Channel linked-list address register (CLLR) ****************************************
1799:../STM32Cube_FW_N6/Drivers/STM32N6xx_HAL_Driver/Src/stm32n6xx_hal_dma.c ****   WRITE_REG(hdma->Instance->CLLR, 0U);
 1755              		.loc 1 1799 3 view .LVU411
 1756 0d9c 0020     		movs	r0, #0
 1757 0d9e D867     		str	r0, [r3, #124]
 1758              	.LVL23:
 1759              		.loc 1 1799 3 is_stmt 0 view .LVU412
 1760              	.LBE5:
 1761              	.LBE4:
 368:../STM32Cube_FW_N6/Drivers/STM32N6xx_HAL_Driver/Src/stm32n6xx_hal_dma.c **** 
 1762              		.loc 1 368 3 is_stmt 1 view .LVU413
 374:../STM32Cube_FW_N6/Drivers/STM32N6xx_HAL_Driver/Src/stm32n6xx_hal_dma.c **** 
 1763              		.loc 1 374 15 is_stmt 0 view .LVU414
 1764 0da0 0123     		movs	r3, #1
 371:../STM32Cube_FW_N6/Drivers/STM32N6xx_HAL_Driver/Src/stm32n6xx_hal_dma.c **** 
 1765              		.loc 1 371 19 view .LVU415
 1766 0da2 A065     		str	r0, [r4, #88]
 368:../STM32Cube_FW_N6/Drivers/STM32N6xx_HAL_Driver/Src/stm32n6xx_hal_dma.c **** 
 1767              		.loc 1 368 14 view .LVU416
 1768 0da4 2565     		str	r5, [r4, #80]
 371:../STM32Cube_FW_N6/Drivers/STM32N6xx_HAL_Driver/Src/stm32n6xx_hal_dma.c **** 
 1769              		.loc 1 371 3 is_stmt 1 view .LVU417
 374:../STM32Cube_FW_N6/Drivers/STM32N6xx_HAL_Driver/Src/stm32n6xx_hal_dma.c **** 
 1770              		.loc 1 374 3 view .LVU418
ARM GAS  /tmp/ccId6s4B.s 			page 64


 374:../STM32Cube_FW_N6/Drivers/STM32N6xx_HAL_Driver/Src/stm32n6xx_hal_dma.c **** 
 1771              		.loc 1 374 15 is_stmt 0 view .LVU419
 1772 0da6 84F85430 		strb	r3, [r4, #84]
 376:../STM32Cube_FW_N6/Drivers/STM32N6xx_HAL_Driver/Src/stm32n6xx_hal_dma.c **** }
 1773              		.loc 1 376 3 is_stmt 1 view .LVU420
 376:../STM32Cube_FW_N6/Drivers/STM32N6xx_HAL_Driver/Src/stm32n6xx_hal_dma.c **** }
 1774              		.loc 1 376 10 is_stmt 0 view .LVU421
 1775 0daa 74E0     		b	.L35
 1776              	.L5:
 288:../STM32Cube_FW_N6/Drivers/STM32N6xx_HAL_Driver/Src/stm32n6xx_hal_dma.c ****   if (hdma->Init.Direction != DMA_MEMORY_TO_MEMORY)
 1777              		.loc 1 288 3 discriminator 2 view .LVU422
 1778 0dac B3F5007F 		cmp	r3, #512
 1779 0db0 3FF480AA 		beq	.L9
 288:../STM32Cube_FW_N6/Drivers/STM32N6xx_HAL_Driver/Src/stm32n6xx_hal_dma.c ****   if (hdma->Init.Direction != DMA_MEMORY_TO_MEMORY)
 1780              		.loc 1 288 3 discriminator 3 view .LVU423
 1781 0db4 4FF49071 		mov	r1, #288
 1782 0db8 3B48     		ldr	r0, .L78+4
 1783 0dba FFF7FEFF 		bl	assert_failed
 1784              	.LVL24:
 289:../STM32Cube_FW_N6/Drivers/STM32N6xx_HAL_Driver/Src/stm32n6xx_hal_dma.c ****   {
 1785              		.loc 1 289 3 is_stmt 1 view .LVU424
 289:../STM32Cube_FW_N6/Drivers/STM32N6xx_HAL_Driver/Src/stm32n6xx_hal_dma.c ****   {
 1786              		.loc 1 289 6 is_stmt 0 view .LVU425
 1787 0dbe E368     		ldr	r3, [r4, #12]
 1788 0dc0 B3F5007F 		cmp	r3, #512
 1789 0dc4 3FF476AA 		beq	.L9
 1790 0dc8 FFF76FBA 		b	.L10
 1791              	.L6:
 291:../STM32Cube_FW_N6/Drivers/STM32N6xx_HAL_Driver/Src/stm32n6xx_hal_dma.c ****   }
 1792              		.loc 1 291 5 discriminator 1 view .LVU426
 1793 0dcc 902B     		cmp	r3, #144
 1794 0dce 7FF671AA 		bls	.L9
 291:../STM32Cube_FW_N6/Drivers/STM32N6xx_HAL_Driver/Src/stm32n6xx_hal_dma.c ****   }
 1795              		.loc 1 291 5 discriminator 2 view .LVU427
 1796 0dd2 40F22311 		movw	r1, #291
 1797 0dd6 3448     		ldr	r0, .L78+4
 1798 0dd8 FFF7FEFF 		bl	assert_failed
 1799              	.LVL25:
 1800 0ddc FFF76ABA 		b	.L9
 1801              	.L20:
 300:../STM32Cube_FW_N6/Drivers/STM32N6xx_HAL_Driver/Src/stm32n6xx_hal_dma.c ****   if (hdma->Init.Mode == DMA_PFCTRL)
 1802              		.loc 1 300 3 discriminator 2 view .LVU428
 1803 0de0 4FF49671 		mov	r1, #300
 1804 0de4 3048     		ldr	r0, .L78+4
 1805 0de6 FFF7FEFF 		bl	assert_failed
 1806              	.LVL26:
 301:../STM32Cube_FW_N6/Drivers/STM32N6xx_HAL_Driver/Src/stm32n6xx_hal_dma.c ****   {
 1807              		.loc 1 301 3 is_stmt 1 view .LVU429
 301:../STM32Cube_FW_N6/Drivers/STM32N6xx_HAL_Driver/Src/stm32n6xx_hal_dma.c ****   {
 1808              		.loc 1 301 6 is_stmt 0 view .LVU430
 1809 0dea 636B     		ldr	r3, [r4, #52]
 1810 0dec B3F5805F 		cmp	r3, #4096
 1811 0df0 7FF4B1AA 		bne	.L19
 1812 0df4 FFF7ABBA 		b	.L23
 1813              	.L21:
 303:../STM32Cube_FW_N6/Drivers/STM32N6xx_HAL_Driver/Src/stm32n6xx_hal_dma.c ****   }
 1814              		.loc 1 303 5 discriminator 1 view .LVU431
ARM GAS  /tmp/ccId6s4B.s 			page 65


 1815 0df8 2C4A     		ldr	r2, .L78+8
 1816 0dfa 9342     		cmp	r3, r2
 1817 0dfc 3FF4ABAA 		beq	.L19
 303:../STM32Cube_FW_N6/Drivers/STM32N6xx_HAL_Driver/Src/stm32n6xx_hal_dma.c ****   }
 1818              		.loc 1 303 5 discriminator 2 view .LVU432
 1819 0e00 02F18052 		add	r2, r2, #268435456
 1820 0e04 8032     		adds	r2, r2, #128
 1821 0e06 9342     		cmp	r3, r2
 1822 0e08 3FF4A5AA 		beq	.L19
 303:../STM32Cube_FW_N6/Drivers/STM32N6xx_HAL_Driver/Src/stm32n6xx_hal_dma.c ****   }
 1823              		.loc 1 303 5 discriminator 3 view .LVU433
 1824 0e0c 02F17042 		add	r2, r2, #-268435456
 1825 0e10 9342     		cmp	r3, r2
 1826 0e12 3FF4A0AA 		beq	.L19
 303:../STM32Cube_FW_N6/Drivers/STM32N6xx_HAL_Driver/Src/stm32n6xx_hal_dma.c ****   }
 1827              		.loc 1 303 5 discriminator 4 view .LVU434
 1828 0e16 02F18052 		add	r2, r2, #268435456
 1829 0e1a 02F5E062 		add	r2, r2, #1792
 1830 0e1e 9342     		cmp	r3, r2
 1831 0e20 3FF499AA 		beq	.L19
 303:../STM32Cube_FW_N6/Drivers/STM32N6xx_HAL_Driver/Src/stm32n6xx_hal_dma.c ****   }
 1832              		.loc 1 303 5 discriminator 5 view .LVU435
 1833 0e24 02F17042 		add	r2, r2, #-268435456
 1834 0e28 9342     		cmp	r3, r2
 1835 0e2a 3FF494AA 		beq	.L19
 303:../STM32Cube_FW_N6/Drivers/STM32N6xx_HAL_Driver/Src/stm32n6xx_hal_dma.c ****   }
 1836              		.loc 1 303 5 discriminator 6 view .LVU436
 1837 0e2e AB42     		cmp	r3, r5
 1838 0e30 3FF491AA 		beq	.L19
 303:../STM32Cube_FW_N6/Drivers/STM32N6xx_HAL_Driver/Src/stm32n6xx_hal_dma.c ****   }
 1839              		.loc 1 303 5 discriminator 7 view .LVU437
 1840 0e34 02F10062 		add	r2, r2, #134217728
 1841 0e38 A2F5BC52 		sub	r2, r2, #6016
 1842 0e3c 9342     		cmp	r3, r2
 1843 0e3e 3FF48AAA 		beq	.L19
 303:../STM32Cube_FW_N6/Drivers/STM32N6xx_HAL_Driver/Src/stm32n6xx_hal_dma.c ****   }
 1844              		.loc 1 303 5 discriminator 8 view .LVU438
 1845 0e42 02F18052 		add	r2, r2, #268435456
 1846 0e46 8032     		adds	r2, r2, #128
 1847 0e48 9342     		cmp	r3, r2
 1848 0e4a 3FF484AA 		beq	.L19
 303:../STM32Cube_FW_N6/Drivers/STM32N6xx_HAL_Driver/Src/stm32n6xx_hal_dma.c ****   }
 1849              		.loc 1 303 5 discriminator 9 view .LVU439
 1850 0e4e 02F17042 		add	r2, r2, #-268435456
 1851 0e52 9342     		cmp	r3, r2
 1852 0e54 3FF47FAA 		beq	.L19
 303:../STM32Cube_FW_N6/Drivers/STM32N6xx_HAL_Driver/Src/stm32n6xx_hal_dma.c ****   }
 1853              		.loc 1 303 5 discriminator 10 view .LVU440
 1854 0e58 02F18052 		add	r2, r2, #268435456
 1855 0e5c 02F5E062 		add	r2, r2, #1792
 1856 0e60 9342     		cmp	r3, r2
 1857 0e62 3FF478AA 		beq	.L19
 303:../STM32Cube_FW_N6/Drivers/STM32N6xx_HAL_Driver/Src/stm32n6xx_hal_dma.c ****   }
 1858              		.loc 1 303 5 discriminator 11 view .LVU441
 1859 0e66 02F17042 		add	r2, r2, #-268435456
 1860 0e6a 9342     		cmp	r3, r2
 1861 0e6c 3FF473AA 		beq	.L19
ARM GAS  /tmp/ccId6s4B.s 			page 66


 303:../STM32Cube_FW_N6/Drivers/STM32N6xx_HAL_Driver/Src/stm32n6xx_hal_dma.c ****   }
 1862              		.loc 1 303 5 discriminator 12 view .LVU442
 1863 0e70 40F22F11 		movw	r1, #303
 1864 0e74 0C48     		ldr	r0, .L78+4
 1865 0e76 FFF7FEFF 		bl	assert_failed
 1866              	.LVL27:
 1867 0e7a FFF76CBA 		b	.L19
 1868              	.L36:
 352:../STM32Cube_FW_N6/Drivers/STM32N6xx_HAL_Driver/Src/stm32n6xx_hal_dma.c ****     {
 1869              		.loc 1 352 5 is_stmt 1 view .LVU443
 352:../STM32Cube_FW_N6/Drivers/STM32N6xx_HAL_Driver/Src/stm32n6xx_hal_dma.c ****     {
 1870              		.loc 1 352 10 is_stmt 0 view .LVU444
 1871 0e7e FFF7FEFF 		bl	HAL_GetTick
 1872              	.LVL28:
 352:../STM32Cube_FW_N6/Drivers/STM32N6xx_HAL_Driver/Src/stm32n6xx_hal_dma.c ****     {
 1873              		.loc 1 352 24 discriminator 1 view .LVU445
 1874 0e82 801B     		subs	r0, r0, r6
 352:../STM32Cube_FW_N6/Drivers/STM32N6xx_HAL_Driver/Src/stm32n6xx_hal_dma.c ****     {
 1875              		.loc 1 352 8 discriminator 1 view .LVU446
 1876 0e84 0528     		cmp	r0, #5
 1877 0e86 7FF67AAC 		bls	.L34
 355:../STM32Cube_FW_N6/Drivers/STM32N6xx_HAL_Driver/Src/stm32n6xx_hal_dma.c **** 
 1878              		.loc 1 355 7 is_stmt 1 view .LVU447
 355:../STM32Cube_FW_N6/Drivers/STM32N6xx_HAL_Driver/Src/stm32n6xx_hal_dma.c **** 
 1879              		.loc 1 355 23 is_stmt 0 view .LVU448
 1880 0e8a 1023     		movs	r3, #16
 1881 0e8c A365     		str	r3, [r4, #88]
 358:../STM32Cube_FW_N6/Drivers/STM32N6xx_HAL_Driver/Src/stm32n6xx_hal_dma.c **** 
 1882              		.loc 1 358 7 is_stmt 1 view .LVU449
 358:../STM32Cube_FW_N6/Drivers/STM32N6xx_HAL_Driver/Src/stm32n6xx_hal_dma.c **** 
 1883              		.loc 1 358 19 is_stmt 0 view .LVU450
 1884 0e8e 0323     		movs	r3, #3
 1885 0e90 84F85430 		strb	r3, [r4, #84]
 360:../STM32Cube_FW_N6/Drivers/STM32N6xx_HAL_Driver/Src/stm32n6xx_hal_dma.c ****     }
 1886              		.loc 1 360 7 is_stmt 1 view .LVU451
 1887              	.L3:
 283:../STM32Cube_FW_N6/Drivers/STM32N6xx_HAL_Driver/Src/stm32n6xx_hal_dma.c ****   }
 1888              		.loc 1 283 12 is_stmt 0 view .LVU452
 1889 0e94 0120     		movs	r0, #1
 1890              	.L35:
 377:../STM32Cube_FW_N6/Drivers/STM32N6xx_HAL_Driver/Src/stm32n6xx_hal_dma.c **** 
 1891              		.loc 1 377 1 view .LVU453
 1892 0e96 F8BD     		pop	{r3, r4, r5, r6, r7, pc}
 1893              	.LVL29:
 1894              	.L39:
 1895              	.LBB7:
 1896              	.LBB6:
1767:../STM32Cube_FW_N6/Drivers/STM32N6xx_HAL_Driver/Src/stm32n6xx_hal_dma.c ****   {
 1897              		.loc 1 1767 8 is_stmt 1 view .LVU454
1767:../STM32Cube_FW_N6/Drivers/STM32N6xx_HAL_Driver/Src/stm32n6xx_hal_dma.c ****   {
 1898              		.loc 1 1767 11 is_stmt 0 view .LVU455
 1899 0e98 B2F5007F 		cmp	r2, #512
1769:../STM32Cube_FW_N6/Drivers/STM32N6xx_HAL_Driver/Src/stm32n6xx_hal_dma.c ****   }
 1900              		.loc 1 1769 5 is_stmt 1 view .LVU456
1769:../STM32Cube_FW_N6/Drivers/STM32N6xx_HAL_Driver/Src/stm32n6xx_hal_dma.c ****   }
 1901              		.loc 1 1769 12 is_stmt 0 view .LVU457
 1902 0e9c 08BF     		it	eq
ARM GAS  /tmp/ccId6s4B.s 			page 67


 1903 0e9e 41F40071 		orreq	r1, r1, #512
 1904              	.LVL30:
1769:../STM32Cube_FW_N6/Drivers/STM32N6xx_HAL_Driver/Src/stm32n6xx_hal_dma.c ****   }
 1905              		.loc 1 1769 12 view .LVU458
 1906 0ea2 22E7     		b	.L41
 1907              	.L79:
 1908              		.align	2
 1909              	.L78:
 1910 0ea4 50160250 		.word	1342314064
 1911 0ea8 00000000 		.word	.LC0
 1912 0eac 50100240 		.word	1073877072
 1913              	.LBE6:
 1914              	.LBE7:
 1915              		.cfi_endproc
 1916              	.LFE881:
 1918              		.section	.text.HAL_DMA_DeInit,"ax",%progbits
 1919              		.align	1
 1920              		.global	HAL_DMA_DeInit
 1921              		.syntax unified
 1922              		.thumb
 1923              		.thumb_func
 1925              	HAL_DMA_DeInit:
 1926              	.LVL31:
 1927              	.LFB882:
 386:../STM32Cube_FW_N6/Drivers/STM32N6xx_HAL_Driver/Src/stm32n6xx_hal_dma.c ****   uint32_t tickstart = HAL_GetTick();
 1928              		.loc 1 386 1 is_stmt 1 view -0
 1929              		.cfi_startproc
 1930              		@ args = 0, pretend = 0, frame = 0
 1931              		@ frame_needed = 0, uses_anonymous_args = 0
 387:../STM32Cube_FW_N6/Drivers/STM32N6xx_HAL_Driver/Src/stm32n6xx_hal_dma.c **** 
 1932              		.loc 1 387 3 view .LVU460
 386:../STM32Cube_FW_N6/Drivers/STM32N6xx_HAL_Driver/Src/stm32n6xx_hal_dma.c ****   uint32_t tickstart = HAL_GetTick();
 1933              		.loc 1 386 1 is_stmt 0 view .LVU461
 1934 0000 38B5     		push	{r3, r4, r5, lr}
 1935              		.cfi_def_cfa_offset 16
 1936              		.cfi_offset 3, -16
 1937              		.cfi_offset 4, -12
 1938              		.cfi_offset 5, -8
 1939              		.cfi_offset 14, -4
 386:../STM32Cube_FW_N6/Drivers/STM32N6xx_HAL_Driver/Src/stm32n6xx_hal_dma.c ****   uint32_t tickstart = HAL_GetTick();
 1940              		.loc 1 386 1 view .LVU462
 1941 0002 0446     		mov	r4, r0
 387:../STM32Cube_FW_N6/Drivers/STM32N6xx_HAL_Driver/Src/stm32n6xx_hal_dma.c **** 
 1942              		.loc 1 387 24 view .LVU463
 1943 0004 FFF7FEFF 		bl	HAL_GetTick
 1944              	.LVL32:
 387:../STM32Cube_FW_N6/Drivers/STM32N6xx_HAL_Driver/Src/stm32n6xx_hal_dma.c **** 
 1945              		.loc 1 387 24 view .LVU464
 1946 0008 0546     		mov	r5, r0
 1947              	.LVL33:
 390:../STM32Cube_FW_N6/Drivers/STM32N6xx_HAL_Driver/Src/stm32n6xx_hal_dma.c ****   {
 1948              		.loc 1 390 3 is_stmt 1 view .LVU465
 390:../STM32Cube_FW_N6/Drivers/STM32N6xx_HAL_Driver/Src/stm32n6xx_hal_dma.c ****   {
 1949              		.loc 1 390 6 is_stmt 0 view .LVU466
 1950 000a 002C     		cmp	r4, #0
 1951 000c 00F0CF81 		beq	.L81
 396:../STM32Cube_FW_N6/Drivers/STM32N6xx_HAL_Driver/Src/stm32n6xx_hal_dma.c ****   /* Disable the selected DMA Channel */
ARM GAS  /tmp/ccId6s4B.s 			page 68


 1952              		.loc 1 396 3 is_stmt 1 view .LVU467
 1953 0010 2368     		ldr	r3, [r4]
 1954 0012 BE4A     		ldr	r2, .L96
 1955 0014 9342     		cmp	r3, r2
 1956 0016 00F04481 		beq	.L82
 396:../STM32Cube_FW_N6/Drivers/STM32N6xx_HAL_Driver/Src/stm32n6xx_hal_dma.c ****   /* Disable the selected DMA Channel */
 1957              		.loc 1 396 3 is_stmt 0 discriminator 1 view .LVU468
 1958 001a 02F17042 		add	r2, r2, #-268435456
 1959 001e 9342     		cmp	r3, r2
 1960 0020 00F03F81 		beq	.L82
 396:../STM32Cube_FW_N6/Drivers/STM32N6xx_HAL_Driver/Src/stm32n6xx_hal_dma.c ****   /* Disable the selected DMA Channel */
 1961              		.loc 1 396 3 discriminator 2 view .LVU469
 1962 0024 02F18052 		add	r2, r2, #268435456
 1963 0028 8032     		adds	r2, r2, #128
 1964 002a 9342     		cmp	r3, r2
 1965 002c 00F03981 		beq	.L82
 396:../STM32Cube_FW_N6/Drivers/STM32N6xx_HAL_Driver/Src/stm32n6xx_hal_dma.c ****   /* Disable the selected DMA Channel */
 1966              		.loc 1 396 3 discriminator 3 view .LVU470
 1967 0030 02F17042 		add	r2, r2, #-268435456
 1968 0034 9342     		cmp	r3, r2
 1969 0036 00F03481 		beq	.L82
 396:../STM32Cube_FW_N6/Drivers/STM32N6xx_HAL_Driver/Src/stm32n6xx_hal_dma.c ****   /* Disable the selected DMA Channel */
 1970              		.loc 1 396 3 discriminator 4 view .LVU471
 1971 003a 02F18052 		add	r2, r2, #268435456
 1972 003e 8032     		adds	r2, r2, #128
 1973 0040 9342     		cmp	r3, r2
 1974 0042 00F02E81 		beq	.L82
 396:../STM32Cube_FW_N6/Drivers/STM32N6xx_HAL_Driver/Src/stm32n6xx_hal_dma.c ****   /* Disable the selected DMA Channel */
 1975              		.loc 1 396 3 discriminator 5 view .LVU472
 1976 0046 02F17042 		add	r2, r2, #-268435456
 1977 004a 9342     		cmp	r3, r2
 1978 004c 00F02981 		beq	.L82
 396:../STM32Cube_FW_N6/Drivers/STM32N6xx_HAL_Driver/Src/stm32n6xx_hal_dma.c ****   /* Disable the selected DMA Channel */
 1979              		.loc 1 396 3 discriminator 6 view .LVU473
 1980 0050 02F18052 		add	r2, r2, #268435456
 1981 0054 8032     		adds	r2, r2, #128
 1982 0056 9342     		cmp	r3, r2
 1983 0058 00F02381 		beq	.L82
 396:../STM32Cube_FW_N6/Drivers/STM32N6xx_HAL_Driver/Src/stm32n6xx_hal_dma.c ****   /* Disable the selected DMA Channel */
 1984              		.loc 1 396 3 discriminator 7 view .LVU474
 1985 005c 02F17042 		add	r2, r2, #-268435456
 1986 0060 9342     		cmp	r3, r2
 1987 0062 00F01E81 		beq	.L82
 396:../STM32Cube_FW_N6/Drivers/STM32N6xx_HAL_Driver/Src/stm32n6xx_hal_dma.c ****   /* Disable the selected DMA Channel */
 1988              		.loc 1 396 3 discriminator 8 view .LVU475
 1989 0066 02F18052 		add	r2, r2, #268435456
 1990 006a 8032     		adds	r2, r2, #128
 1991 006c 9342     		cmp	r3, r2
 1992 006e 00F01881 		beq	.L82
 396:../STM32Cube_FW_N6/Drivers/STM32N6xx_HAL_Driver/Src/stm32n6xx_hal_dma.c ****   /* Disable the selected DMA Channel */
 1993              		.loc 1 396 3 discriminator 9 view .LVU476
 1994 0072 02F17042 		add	r2, r2, #-268435456
 1995 0076 9342     		cmp	r3, r2
 1996 0078 00F01381 		beq	.L82
 396:../STM32Cube_FW_N6/Drivers/STM32N6xx_HAL_Driver/Src/stm32n6xx_hal_dma.c ****   /* Disable the selected DMA Channel */
 1997              		.loc 1 396 3 discriminator 10 view .LVU477
 1998 007c 02F18052 		add	r2, r2, #268435456
ARM GAS  /tmp/ccId6s4B.s 			page 69


 1999 0080 8032     		adds	r2, r2, #128
 2000 0082 9342     		cmp	r3, r2
 2001 0084 00F00D81 		beq	.L82
 396:../STM32Cube_FW_N6/Drivers/STM32N6xx_HAL_Driver/Src/stm32n6xx_hal_dma.c ****   /* Disable the selected DMA Channel */
 2002              		.loc 1 396 3 discriminator 11 view .LVU478
 2003 0088 02F17042 		add	r2, r2, #-268435456
 2004 008c 9342     		cmp	r3, r2
 2005 008e 00F00881 		beq	.L82
 396:../STM32Cube_FW_N6/Drivers/STM32N6xx_HAL_Driver/Src/stm32n6xx_hal_dma.c ****   /* Disable the selected DMA Channel */
 2006              		.loc 1 396 3 discriminator 12 view .LVU479
 2007 0092 02F18052 		add	r2, r2, #268435456
 2008 0096 8032     		adds	r2, r2, #128
 2009 0098 9342     		cmp	r3, r2
 2010 009a 00F00281 		beq	.L82
 396:../STM32Cube_FW_N6/Drivers/STM32N6xx_HAL_Driver/Src/stm32n6xx_hal_dma.c ****   /* Disable the selected DMA Channel */
 2011              		.loc 1 396 3 discriminator 13 view .LVU480
 2012 009e 02F17042 		add	r2, r2, #-268435456
 2013 00a2 9342     		cmp	r3, r2
 2014 00a4 00F0FD80 		beq	.L82
 396:../STM32Cube_FW_N6/Drivers/STM32N6xx_HAL_Driver/Src/stm32n6xx_hal_dma.c ****   /* Disable the selected DMA Channel */
 2015              		.loc 1 396 3 discriminator 14 view .LVU481
 2016 00a8 02F18052 		add	r2, r2, #268435456
 2017 00ac 8032     		adds	r2, r2, #128
 2018 00ae 9342     		cmp	r3, r2
 2019 00b0 00F0F780 		beq	.L82
 396:../STM32Cube_FW_N6/Drivers/STM32N6xx_HAL_Driver/Src/stm32n6xx_hal_dma.c ****   /* Disable the selected DMA Channel */
 2020              		.loc 1 396 3 discriminator 15 view .LVU482
 2021 00b4 02F17042 		add	r2, r2, #-268435456
 2022 00b8 9342     		cmp	r3, r2
 2023 00ba 00F0F280 		beq	.L82
 396:../STM32Cube_FW_N6/Drivers/STM32N6xx_HAL_Driver/Src/stm32n6xx_hal_dma.c ****   /* Disable the selected DMA Channel */
 2024              		.loc 1 396 3 discriminator 16 view .LVU483
 2025 00be 02F18052 		add	r2, r2, #268435456
 2026 00c2 8032     		adds	r2, r2, #128
 2027 00c4 9342     		cmp	r3, r2
 2028 00c6 00F0EC80 		beq	.L82
 396:../STM32Cube_FW_N6/Drivers/STM32N6xx_HAL_Driver/Src/stm32n6xx_hal_dma.c ****   /* Disable the selected DMA Channel */
 2029              		.loc 1 396 3 discriminator 17 view .LVU484
 2030 00ca 02F17042 		add	r2, r2, #-268435456
 2031 00ce 9342     		cmp	r3, r2
 2032 00d0 00F0E780 		beq	.L82
 396:../STM32Cube_FW_N6/Drivers/STM32N6xx_HAL_Driver/Src/stm32n6xx_hal_dma.c ****   /* Disable the selected DMA Channel */
 2033              		.loc 1 396 3 discriminator 18 view .LVU485
 2034 00d4 02F18052 		add	r2, r2, #268435456
 2035 00d8 8032     		adds	r2, r2, #128
 2036 00da 9342     		cmp	r3, r2
 2037 00dc 00F0E180 		beq	.L82
 396:../STM32Cube_FW_N6/Drivers/STM32N6xx_HAL_Driver/Src/stm32n6xx_hal_dma.c ****   /* Disable the selected DMA Channel */
 2038              		.loc 1 396 3 discriminator 19 view .LVU486
 2039 00e0 02F17042 		add	r2, r2, #-268435456
 2040 00e4 9342     		cmp	r3, r2
 2041 00e6 00F0DC80 		beq	.L82
 396:../STM32Cube_FW_N6/Drivers/STM32N6xx_HAL_Driver/Src/stm32n6xx_hal_dma.c ****   /* Disable the selected DMA Channel */
 2042              		.loc 1 396 3 discriminator 20 view .LVU487
 2043 00ea 02F18052 		add	r2, r2, #268435456
 2044 00ee 8032     		adds	r2, r2, #128
 2045 00f0 9342     		cmp	r3, r2
ARM GAS  /tmp/ccId6s4B.s 			page 70


 2046 00f2 00F0D680 		beq	.L82
 396:../STM32Cube_FW_N6/Drivers/STM32N6xx_HAL_Driver/Src/stm32n6xx_hal_dma.c ****   /* Disable the selected DMA Channel */
 2047              		.loc 1 396 3 discriminator 21 view .LVU488
 2048 00f6 02F17042 		add	r2, r2, #-268435456
 2049 00fa 9342     		cmp	r3, r2
 2050 00fc 00F0D180 		beq	.L82
 396:../STM32Cube_FW_N6/Drivers/STM32N6xx_HAL_Driver/Src/stm32n6xx_hal_dma.c ****   /* Disable the selected DMA Channel */
 2051              		.loc 1 396 3 discriminator 22 view .LVU489
 2052 0100 02F18052 		add	r2, r2, #268435456
 2053 0104 8032     		adds	r2, r2, #128
 2054 0106 9342     		cmp	r3, r2
 2055 0108 00F0CB80 		beq	.L82
 396:../STM32Cube_FW_N6/Drivers/STM32N6xx_HAL_Driver/Src/stm32n6xx_hal_dma.c ****   /* Disable the selected DMA Channel */
 2056              		.loc 1 396 3 discriminator 23 view .LVU490
 2057 010c 02F17042 		add	r2, r2, #-268435456
 2058 0110 9342     		cmp	r3, r2
 2059 0112 00F0C680 		beq	.L82
 396:../STM32Cube_FW_N6/Drivers/STM32N6xx_HAL_Driver/Src/stm32n6xx_hal_dma.c ****   /* Disable the selected DMA Channel */
 2060              		.loc 1 396 3 discriminator 24 view .LVU491
 2061 0116 02F18052 		add	r2, r2, #268435456
 2062 011a 8032     		adds	r2, r2, #128
 2063 011c 9342     		cmp	r3, r2
 2064 011e 00F0C080 		beq	.L82
 396:../STM32Cube_FW_N6/Drivers/STM32N6xx_HAL_Driver/Src/stm32n6xx_hal_dma.c ****   /* Disable the selected DMA Channel */
 2065              		.loc 1 396 3 discriminator 25 view .LVU492
 2066 0122 02F17042 		add	r2, r2, #-268435456
 2067 0126 9342     		cmp	r3, r2
 2068 0128 00F0BB80 		beq	.L82
 396:../STM32Cube_FW_N6/Drivers/STM32N6xx_HAL_Driver/Src/stm32n6xx_hal_dma.c ****   /* Disable the selected DMA Channel */
 2069              		.loc 1 396 3 discriminator 26 view .LVU493
 2070 012c 02F18052 		add	r2, r2, #268435456
 2071 0130 8032     		adds	r2, r2, #128
 2072 0132 9342     		cmp	r3, r2
 2073 0134 00F0B580 		beq	.L82
 396:../STM32Cube_FW_N6/Drivers/STM32N6xx_HAL_Driver/Src/stm32n6xx_hal_dma.c ****   /* Disable the selected DMA Channel */
 2074              		.loc 1 396 3 discriminator 27 view .LVU494
 2075 0138 02F17042 		add	r2, r2, #-268435456
 2076 013c 9342     		cmp	r3, r2
 2077 013e 00F0B080 		beq	.L82
 396:../STM32Cube_FW_N6/Drivers/STM32N6xx_HAL_Driver/Src/stm32n6xx_hal_dma.c ****   /* Disable the selected DMA Channel */
 2078              		.loc 1 396 3 discriminator 28 view .LVU495
 2079 0142 02F18052 		add	r2, r2, #268435456
 2080 0146 8032     		adds	r2, r2, #128
 2081 0148 9342     		cmp	r3, r2
 2082 014a 00F0AA80 		beq	.L82
 396:../STM32Cube_FW_N6/Drivers/STM32N6xx_HAL_Driver/Src/stm32n6xx_hal_dma.c ****   /* Disable the selected DMA Channel */
 2083              		.loc 1 396 3 discriminator 29 view .LVU496
 2084 014e 02F17042 		add	r2, r2, #-268435456
 2085 0152 9342     		cmp	r3, r2
 2086 0154 00F0A580 		beq	.L82
 396:../STM32Cube_FW_N6/Drivers/STM32N6xx_HAL_Driver/Src/stm32n6xx_hal_dma.c ****   /* Disable the selected DMA Channel */
 2087              		.loc 1 396 3 discriminator 30 view .LVU497
 2088 0158 02F18052 		add	r2, r2, #268435456
 2089 015c 8032     		adds	r2, r2, #128
 2090 015e 9342     		cmp	r3, r2
 2091 0160 00F09F80 		beq	.L82
 396:../STM32Cube_FW_N6/Drivers/STM32N6xx_HAL_Driver/Src/stm32n6xx_hal_dma.c ****   /* Disable the selected DMA Channel */
ARM GAS  /tmp/ccId6s4B.s 			page 71


 2092              		.loc 1 396 3 discriminator 31 view .LVU498
 2093 0164 02F17042 		add	r2, r2, #-268435456
 2094 0168 9342     		cmp	r3, r2
 2095 016a 00F09A80 		beq	.L82
 396:../STM32Cube_FW_N6/Drivers/STM32N6xx_HAL_Driver/Src/stm32n6xx_hal_dma.c ****   /* Disable the selected DMA Channel */
 2096              		.loc 1 396 3 discriminator 32 view .LVU499
 2097 016e 02F1C052 		add	r2, r2, #402653184
 2098 0172 A2F5BC52 		sub	r2, r2, #6016
 2099 0176 9342     		cmp	r3, r2
 2100 0178 00F09380 		beq	.L82
 396:../STM32Cube_FW_N6/Drivers/STM32N6xx_HAL_Driver/Src/stm32n6xx_hal_dma.c ****   /* Disable the selected DMA Channel */
 2101              		.loc 1 396 3 discriminator 33 view .LVU500
 2102 017c 02F17042 		add	r2, r2, #-268435456
 2103 0180 9342     		cmp	r3, r2
 2104 0182 00F08E80 		beq	.L82
 396:../STM32Cube_FW_N6/Drivers/STM32N6xx_HAL_Driver/Src/stm32n6xx_hal_dma.c ****   /* Disable the selected DMA Channel */
 2105              		.loc 1 396 3 discriminator 34 view .LVU501
 2106 0186 02F18052 		add	r2, r2, #268435456
 2107 018a 8032     		adds	r2, r2, #128
 2108 018c 9342     		cmp	r3, r2
 2109 018e 00F08880 		beq	.L82
 396:../STM32Cube_FW_N6/Drivers/STM32N6xx_HAL_Driver/Src/stm32n6xx_hal_dma.c ****   /* Disable the selected DMA Channel */
 2110              		.loc 1 396 3 discriminator 35 view .LVU502
 2111 0192 02F17042 		add	r2, r2, #-268435456
 2112 0196 9342     		cmp	r3, r2
 2113 0198 00F08380 		beq	.L82
 396:../STM32Cube_FW_N6/Drivers/STM32N6xx_HAL_Driver/Src/stm32n6xx_hal_dma.c ****   /* Disable the selected DMA Channel */
 2114              		.loc 1 396 3 discriminator 36 view .LVU503
 2115 019c 02F18052 		add	r2, r2, #268435456
 2116 01a0 8032     		adds	r2, r2, #128
 2117 01a2 9342     		cmp	r3, r2
 2118 01a4 7DD0     		beq	.L82
 396:../STM32Cube_FW_N6/Drivers/STM32N6xx_HAL_Driver/Src/stm32n6xx_hal_dma.c ****   /* Disable the selected DMA Channel */
 2119              		.loc 1 396 3 discriminator 37 view .LVU504
 2120 01a6 02F17042 		add	r2, r2, #-268435456
 2121 01aa 9342     		cmp	r3, r2
 2122 01ac 79D0     		beq	.L82
 396:../STM32Cube_FW_N6/Drivers/STM32N6xx_HAL_Driver/Src/stm32n6xx_hal_dma.c ****   /* Disable the selected DMA Channel */
 2123              		.loc 1 396 3 discriminator 38 view .LVU505
 2124 01ae 02F18052 		add	r2, r2, #268435456
 2125 01b2 8032     		adds	r2, r2, #128
 2126 01b4 9342     		cmp	r3, r2
 2127 01b6 74D0     		beq	.L82
 396:../STM32Cube_FW_N6/Drivers/STM32N6xx_HAL_Driver/Src/stm32n6xx_hal_dma.c ****   /* Disable the selected DMA Channel */
 2128              		.loc 1 396 3 discriminator 39 view .LVU506
 2129 01b8 02F17042 		add	r2, r2, #-268435456
 2130 01bc 9342     		cmp	r3, r2
 2131 01be 70D0     		beq	.L82
 396:../STM32Cube_FW_N6/Drivers/STM32N6xx_HAL_Driver/Src/stm32n6xx_hal_dma.c ****   /* Disable the selected DMA Channel */
 2132              		.loc 1 396 3 discriminator 40 view .LVU507
 2133 01c0 02F18052 		add	r2, r2, #268435456
 2134 01c4 8032     		adds	r2, r2, #128
 2135 01c6 9342     		cmp	r3, r2
 2136 01c8 6BD0     		beq	.L82
 396:../STM32Cube_FW_N6/Drivers/STM32N6xx_HAL_Driver/Src/stm32n6xx_hal_dma.c ****   /* Disable the selected DMA Channel */
 2137              		.loc 1 396 3 discriminator 41 view .LVU508
 2138 01ca 02F17042 		add	r2, r2, #-268435456
ARM GAS  /tmp/ccId6s4B.s 			page 72


 2139 01ce 9342     		cmp	r3, r2
 2140 01d0 67D0     		beq	.L82
 396:../STM32Cube_FW_N6/Drivers/STM32N6xx_HAL_Driver/Src/stm32n6xx_hal_dma.c ****   /* Disable the selected DMA Channel */
 2141              		.loc 1 396 3 discriminator 42 view .LVU509
 2142 01d2 02F18052 		add	r2, r2, #268435456
 2143 01d6 8032     		adds	r2, r2, #128
 2144 01d8 9342     		cmp	r3, r2
 2145 01da 62D0     		beq	.L82
 396:../STM32Cube_FW_N6/Drivers/STM32N6xx_HAL_Driver/Src/stm32n6xx_hal_dma.c ****   /* Disable the selected DMA Channel */
 2146              		.loc 1 396 3 discriminator 43 view .LVU510
 2147 01dc 02F17042 		add	r2, r2, #-268435456
 2148 01e0 9342     		cmp	r3, r2
 2149 01e2 5ED0     		beq	.L82
 396:../STM32Cube_FW_N6/Drivers/STM32N6xx_HAL_Driver/Src/stm32n6xx_hal_dma.c ****   /* Disable the selected DMA Channel */
 2150              		.loc 1 396 3 discriminator 44 view .LVU511
 2151 01e4 02F18052 		add	r2, r2, #268435456
 2152 01e8 8032     		adds	r2, r2, #128
 2153 01ea 9342     		cmp	r3, r2
 2154 01ec 59D0     		beq	.L82
 396:../STM32Cube_FW_N6/Drivers/STM32N6xx_HAL_Driver/Src/stm32n6xx_hal_dma.c ****   /* Disable the selected DMA Channel */
 2155              		.loc 1 396 3 discriminator 45 view .LVU512
 2156 01ee 02F17042 		add	r2, r2, #-268435456
 2157 01f2 9342     		cmp	r3, r2
 2158 01f4 55D0     		beq	.L82
 396:../STM32Cube_FW_N6/Drivers/STM32N6xx_HAL_Driver/Src/stm32n6xx_hal_dma.c ****   /* Disable the selected DMA Channel */
 2159              		.loc 1 396 3 discriminator 46 view .LVU513
 2160 01f6 02F18052 		add	r2, r2, #268435456
 2161 01fa 8032     		adds	r2, r2, #128
 2162 01fc 9342     		cmp	r3, r2
 2163 01fe 50D0     		beq	.L82
 396:../STM32Cube_FW_N6/Drivers/STM32N6xx_HAL_Driver/Src/stm32n6xx_hal_dma.c ****   /* Disable the selected DMA Channel */
 2164              		.loc 1 396 3 discriminator 47 view .LVU514
 2165 0200 02F17042 		add	r2, r2, #-268435456
 2166 0204 9342     		cmp	r3, r2
 2167 0206 4CD0     		beq	.L82
 396:../STM32Cube_FW_N6/Drivers/STM32N6xx_HAL_Driver/Src/stm32n6xx_hal_dma.c ****   /* Disable the selected DMA Channel */
 2168              		.loc 1 396 3 discriminator 48 view .LVU515
 2169 0208 02F18052 		add	r2, r2, #268435456
 2170 020c 8032     		adds	r2, r2, #128
 2171 020e 9342     		cmp	r3, r2
 2172 0210 47D0     		beq	.L82
 396:../STM32Cube_FW_N6/Drivers/STM32N6xx_HAL_Driver/Src/stm32n6xx_hal_dma.c ****   /* Disable the selected DMA Channel */
 2173              		.loc 1 396 3 discriminator 49 view .LVU516
 2174 0212 02F17042 		add	r2, r2, #-268435456
 2175 0216 9342     		cmp	r3, r2
 2176 0218 43D0     		beq	.L82
 396:../STM32Cube_FW_N6/Drivers/STM32N6xx_HAL_Driver/Src/stm32n6xx_hal_dma.c ****   /* Disable the selected DMA Channel */
 2177              		.loc 1 396 3 discriminator 50 view .LVU517
 2178 021a 02F18052 		add	r2, r2, #268435456
 2179 021e 8032     		adds	r2, r2, #128
 2180 0220 9342     		cmp	r3, r2
 2181 0222 3ED0     		beq	.L82
 396:../STM32Cube_FW_N6/Drivers/STM32N6xx_HAL_Driver/Src/stm32n6xx_hal_dma.c ****   /* Disable the selected DMA Channel */
 2182              		.loc 1 396 3 discriminator 51 view .LVU518
 2183 0224 02F17042 		add	r2, r2, #-268435456
 2184 0228 9342     		cmp	r3, r2
 2185 022a 3AD0     		beq	.L82
ARM GAS  /tmp/ccId6s4B.s 			page 73


 396:../STM32Cube_FW_N6/Drivers/STM32N6xx_HAL_Driver/Src/stm32n6xx_hal_dma.c ****   /* Disable the selected DMA Channel */
 2186              		.loc 1 396 3 discriminator 52 view .LVU519
 2187 022c 02F18052 		add	r2, r2, #268435456
 2188 0230 8032     		adds	r2, r2, #128
 2189 0232 9342     		cmp	r3, r2
 2190 0234 35D0     		beq	.L82
 396:../STM32Cube_FW_N6/Drivers/STM32N6xx_HAL_Driver/Src/stm32n6xx_hal_dma.c ****   /* Disable the selected DMA Channel */
 2191              		.loc 1 396 3 discriminator 53 view .LVU520
 2192 0236 02F17042 		add	r2, r2, #-268435456
 2193 023a 9342     		cmp	r3, r2
 2194 023c 31D0     		beq	.L82
 396:../STM32Cube_FW_N6/Drivers/STM32N6xx_HAL_Driver/Src/stm32n6xx_hal_dma.c ****   /* Disable the selected DMA Channel */
 2195              		.loc 1 396 3 discriminator 54 view .LVU521
 2196 023e 02F18052 		add	r2, r2, #268435456
 2197 0242 8032     		adds	r2, r2, #128
 2198 0244 9342     		cmp	r3, r2
 2199 0246 2CD0     		beq	.L82
 396:../STM32Cube_FW_N6/Drivers/STM32N6xx_HAL_Driver/Src/stm32n6xx_hal_dma.c ****   /* Disable the selected DMA Channel */
 2200              		.loc 1 396 3 discriminator 55 view .LVU522
 2201 0248 02F17042 		add	r2, r2, #-268435456
 2202 024c 9342     		cmp	r3, r2
 2203 024e 28D0     		beq	.L82
 396:../STM32Cube_FW_N6/Drivers/STM32N6xx_HAL_Driver/Src/stm32n6xx_hal_dma.c ****   /* Disable the selected DMA Channel */
 2204              		.loc 1 396 3 discriminator 56 view .LVU523
 2205 0250 02F18052 		add	r2, r2, #268435456
 2206 0254 8032     		adds	r2, r2, #128
 2207 0256 9342     		cmp	r3, r2
 2208 0258 23D0     		beq	.L82
 396:../STM32Cube_FW_N6/Drivers/STM32N6xx_HAL_Driver/Src/stm32n6xx_hal_dma.c ****   /* Disable the selected DMA Channel */
 2209              		.loc 1 396 3 discriminator 57 view .LVU524
 2210 025a 02F17042 		add	r2, r2, #-268435456
 2211 025e 9342     		cmp	r3, r2
 2212 0260 1FD0     		beq	.L82
 396:../STM32Cube_FW_N6/Drivers/STM32N6xx_HAL_Driver/Src/stm32n6xx_hal_dma.c ****   /* Disable the selected DMA Channel */
 2213              		.loc 1 396 3 discriminator 58 view .LVU525
 2214 0262 02F18052 		add	r2, r2, #268435456
 2215 0266 8032     		adds	r2, r2, #128
 2216 0268 9342     		cmp	r3, r2
 2217 026a 1AD0     		beq	.L82
 396:../STM32Cube_FW_N6/Drivers/STM32N6xx_HAL_Driver/Src/stm32n6xx_hal_dma.c ****   /* Disable the selected DMA Channel */
 2218              		.loc 1 396 3 discriminator 59 view .LVU526
 2219 026c 02F17042 		add	r2, r2, #-268435456
 2220 0270 9342     		cmp	r3, r2
 2221 0272 16D0     		beq	.L82
 396:../STM32Cube_FW_N6/Drivers/STM32N6xx_HAL_Driver/Src/stm32n6xx_hal_dma.c ****   /* Disable the selected DMA Channel */
 2222              		.loc 1 396 3 discriminator 60 view .LVU527
 2223 0274 02F18052 		add	r2, r2, #268435456
 2224 0278 8032     		adds	r2, r2, #128
 2225 027a 9342     		cmp	r3, r2
 2226 027c 11D0     		beq	.L82
 396:../STM32Cube_FW_N6/Drivers/STM32N6xx_HAL_Driver/Src/stm32n6xx_hal_dma.c ****   /* Disable the selected DMA Channel */
 2227              		.loc 1 396 3 discriminator 61 view .LVU528
 2228 027e 02F17042 		add	r2, r2, #-268435456
 2229 0282 9342     		cmp	r3, r2
 2230 0284 0DD0     		beq	.L82
 396:../STM32Cube_FW_N6/Drivers/STM32N6xx_HAL_Driver/Src/stm32n6xx_hal_dma.c ****   /* Disable the selected DMA Channel */
 2231              		.loc 1 396 3 discriminator 62 view .LVU529
ARM GAS  /tmp/ccId6s4B.s 			page 74


 2232 0286 02F18052 		add	r2, r2, #268435456
 2233 028a 8032     		adds	r2, r2, #128
 2234 028c 9342     		cmp	r3, r2
 2235 028e 08D0     		beq	.L82
 396:../STM32Cube_FW_N6/Drivers/STM32N6xx_HAL_Driver/Src/stm32n6xx_hal_dma.c ****   /* Disable the selected DMA Channel */
 2236              		.loc 1 396 3 discriminator 63 view .LVU530
 2237 0290 02F17042 		add	r2, r2, #-268435456
 2238 0294 9342     		cmp	r3, r2
 2239 0296 04D0     		beq	.L82
 396:../STM32Cube_FW_N6/Drivers/STM32N6xx_HAL_Driver/Src/stm32n6xx_hal_dma.c ****   /* Disable the selected DMA Channel */
 2240              		.loc 1 396 3 discriminator 64 view .LVU531
 2241 0298 4FF4C671 		mov	r1, #396
 2242 029c 1C48     		ldr	r0, .L96+4
 2243              	.LVL34:
 396:../STM32Cube_FW_N6/Drivers/STM32N6xx_HAL_Driver/Src/stm32n6xx_hal_dma.c ****   /* Disable the selected DMA Channel */
 2244              		.loc 1 396 3 discriminator 64 view .LVU532
 2245 029e FFF7FEFF 		bl	assert_failed
 2246              	.LVL35:
 2247              	.L82:
 398:../STM32Cube_FW_N6/Drivers/STM32N6xx_HAL_Driver/Src/stm32n6xx_hal_dma.c **** 
 2248              		.loc 1 398 3 is_stmt 1 view .LVU533
 2249 02a2 2268     		ldr	r2, [r4]
 2250 02a4 5369     		ldr	r3, [r2, #20]
 2251 02a6 43F00603 		orr	r3, r3, #6
 2252 02aa 5361     		str	r3, [r2, #20]
 401:../STM32Cube_FW_N6/Drivers/STM32N6xx_HAL_Driver/Src/stm32n6xx_hal_dma.c ****   {
 2253              		.loc 1 401 3 view .LVU534
 2254              	.L83:
 401:../STM32Cube_FW_N6/Drivers/STM32N6xx_HAL_Driver/Src/stm32n6xx_hal_dma.c ****   {
 2255              		.loc 1 401 45 view .LVU535
 401:../STM32Cube_FW_N6/Drivers/STM32N6xx_HAL_Driver/Src/stm32n6xx_hal_dma.c ****   {
 2256              		.loc 1 401 15 is_stmt 0 view .LVU536
 2257 02ac 2368     		ldr	r3, [r4]
 401:../STM32Cube_FW_N6/Drivers/STM32N6xx_HAL_Driver/Src/stm32n6xx_hal_dma.c ****   {
 2258              		.loc 1 401 25 view .LVU537
 2259 02ae 5A69     		ldr	r2, [r3, #20]
 401:../STM32Cube_FW_N6/Drivers/STM32N6xx_HAL_Driver/Src/stm32n6xx_hal_dma.c ****   {
 2260              		.loc 1 401 45 view .LVU538
 2261 02b0 12F00102 		ands	r2, r2, #1
 2262 02b4 71D1     		bne	.L85
 417:../STM32Cube_FW_N6/Drivers/STM32N6xx_HAL_Driver/Src/stm32n6xx_hal_dma.c ****   hdma->Instance->CCR   = 0U;
 2263              		.loc 1 417 3 is_stmt 1 view .LVU539
 417:../STM32Cube_FW_N6/Drivers/STM32N6xx_HAL_Driver/Src/stm32n6xx_hal_dma.c ****   hdma->Instance->CCR   = 0U;
 2264              		.loc 1 417 25 is_stmt 0 view .LVU540
 2265 02b6 1A60     		str	r2, [r3]
 418:../STM32Cube_FW_N6/Drivers/STM32N6xx_HAL_Driver/Src/stm32n6xx_hal_dma.c ****   /* As secure, privilege and CID configuration, bit field DSEC and SSEC are managed in   */
 2266              		.loc 1 418 3 is_stmt 1 view .LVU541
 418:../STM32Cube_FW_N6/Drivers/STM32N6xx_HAL_Driver/Src/stm32n6xx_hal_dma.c ****   /* As secure, privilege and CID configuration, bit field DSEC and SSEC are managed in   */
 2267              		.loc 1 418 25 is_stmt 0 view .LVU542
 2268 02b8 5A61     		str	r2, [r3, #20]
 421:../STM32Cube_FW_N6/Drivers/STM32N6xx_HAL_Driver/Src/stm32n6xx_hal_dma.c ****   hdma->Instance->CTR2  = 0U;
 2269              		.loc 1 421 3 is_stmt 1 view .LVU543
 421:../STM32Cube_FW_N6/Drivers/STM32N6xx_HAL_Driver/Src/stm32n6xx_hal_dma.c ****   hdma->Instance->CTR2  = 0U;
 2270              		.loc 1 421 41 is_stmt 0 view .LVU544
 2271 02ba 196C     		ldr	r1, [r3, #64]
 421:../STM32Cube_FW_N6/Drivers/STM32N6xx_HAL_Driver/Src/stm32n6xx_hal_dma.c ****   hdma->Instance->CTR2  = 0U;
 2272              		.loc 1 421 48 view .LVU545
ARM GAS  /tmp/ccId6s4B.s 			page 75


 2273 02bc 01F08021 		and	r1, r1, #-2147450880
 421:../STM32Cube_FW_N6/Drivers/STM32N6xx_HAL_Driver/Src/stm32n6xx_hal_dma.c ****   hdma->Instance->CTR2  = 0U;
 2274              		.loc 1 421 25 view .LVU546
 2275 02c0 1964     		str	r1, [r3, #64]
 422:../STM32Cube_FW_N6/Drivers/STM32N6xx_HAL_Driver/Src/stm32n6xx_hal_dma.c ****   hdma->Instance->CBR1  = 0U;
 2276              		.loc 1 422 3 is_stmt 1 view .LVU547
 422:../STM32Cube_FW_N6/Drivers/STM32N6xx_HAL_Driver/Src/stm32n6xx_hal_dma.c ****   hdma->Instance->CBR1  = 0U;
 2277              		.loc 1 422 25 is_stmt 0 view .LVU548
 2278 02c2 5A64     		str	r2, [r3, #68]
 423:../STM32Cube_FW_N6/Drivers/STM32N6xx_HAL_Driver/Src/stm32n6xx_hal_dma.c ****   hdma->Instance->CSAR  = 0U;
 2279              		.loc 1 423 3 is_stmt 1 view .LVU549
 423:../STM32Cube_FW_N6/Drivers/STM32N6xx_HAL_Driver/Src/stm32n6xx_hal_dma.c ****   hdma->Instance->CSAR  = 0U;
 2280              		.loc 1 423 25 is_stmt 0 view .LVU550
 2281 02c4 9A64     		str	r2, [r3, #72]
 424:../STM32Cube_FW_N6/Drivers/STM32N6xx_HAL_Driver/Src/stm32n6xx_hal_dma.c ****   hdma->Instance->CDAR  = 0U;
 2282              		.loc 1 424 3 is_stmt 1 view .LVU551
 424:../STM32Cube_FW_N6/Drivers/STM32N6xx_HAL_Driver/Src/stm32n6xx_hal_dma.c ****   hdma->Instance->CDAR  = 0U;
 2283              		.loc 1 424 25 is_stmt 0 view .LVU552
 2284 02c6 DA64     		str	r2, [r3, #76]
 425:../STM32Cube_FW_N6/Drivers/STM32N6xx_HAL_Driver/Src/stm32n6xx_hal_dma.c ****   hdma->Instance->CLLR  = 0U;
 2285              		.loc 1 425 3 is_stmt 1 view .LVU553
 425:../STM32Cube_FW_N6/Drivers/STM32N6xx_HAL_Driver/Src/stm32n6xx_hal_dma.c ****   hdma->Instance->CLLR  = 0U;
 2286              		.loc 1 425 25 is_stmt 0 view .LVU554
 2287 02c8 1A65     		str	r2, [r3, #80]
 426:../STM32Cube_FW_N6/Drivers/STM32N6xx_HAL_Driver/Src/stm32n6xx_hal_dma.c **** 
 2288              		.loc 1 426 3 is_stmt 1 view .LVU555
 426:../STM32Cube_FW_N6/Drivers/STM32N6xx_HAL_Driver/Src/stm32n6xx_hal_dma.c **** 
 2289              		.loc 1 426 25 is_stmt 0 view .LVU556
 2290 02ca DA67     		str	r2, [r3, #124]
 429:../STM32Cube_FW_N6/Drivers/STM32N6xx_HAL_Driver/Src/stm32n6xx_hal_dma.c ****   {
 2291              		.loc 1 429 3 is_stmt 1 view .LVU557
 429:../STM32Cube_FW_N6/Drivers/STM32N6xx_HAL_Driver/Src/stm32n6xx_hal_dma.c ****   {
 2292              		.loc 1 429 7 is_stmt 0 view .LVU558
 2293 02cc 114A     		ldr	r2, .L96+8
 2294 02ce 9342     		cmp	r3, r2
 2295 02d0 4BD0     		beq	.L86
 429:../STM32Cube_FW_N6/Drivers/STM32N6xx_HAL_Driver/Src/stm32n6xx_hal_dma.c ****   {
 2296              		.loc 1 429 7 discriminator 2 view .LVU559
 2297 02d2 02F17042 		add	r2, r2, #-268435456
 2298 02d6 9342     		cmp	r3, r2
 2299 02d8 47D0     		beq	.L86
 429:../STM32Cube_FW_N6/Drivers/STM32N6xx_HAL_Driver/Src/stm32n6xx_hal_dma.c ****   {
 2300              		.loc 1 429 7 discriminator 4 view .LVU560
 2301 02da 02F18052 		add	r2, r2, #268435456
 2302 02de 8032     		adds	r2, r2, #128
 2303 02e0 9342     		cmp	r3, r2
 2304 02e2 42D0     		beq	.L86
 429:../STM32Cube_FW_N6/Drivers/STM32N6xx_HAL_Driver/Src/stm32n6xx_hal_dma.c ****   {
 2305              		.loc 1 429 7 discriminator 6 view .LVU561
 2306 02e4 02F17042 		add	r2, r2, #-268435456
 2307 02e8 9342     		cmp	r3, r2
 2308 02ea 3ED0     		beq	.L86
 429:../STM32Cube_FW_N6/Drivers/STM32N6xx_HAL_Driver/Src/stm32n6xx_hal_dma.c ****   {
 2309              		.loc 1 429 7 discriminator 8 view .LVU562
 2310 02ec 02F18052 		add	r2, r2, #268435456
 2311 02f0 8032     		adds	r2, r2, #128
 2312 02f2 9342     		cmp	r3, r2
ARM GAS  /tmp/ccId6s4B.s 			page 76


 2313 02f4 39D0     		beq	.L86
 429:../STM32Cube_FW_N6/Drivers/STM32N6xx_HAL_Driver/Src/stm32n6xx_hal_dma.c ****   {
 2314              		.loc 1 429 7 discriminator 10 view .LVU563
 2315 02f6 02F17042 		add	r2, r2, #-268435456
 2316 02fa 9342     		cmp	r3, r2
 2317 02fc 35D0     		beq	.L86
 429:../STM32Cube_FW_N6/Drivers/STM32N6xx_HAL_Driver/Src/stm32n6xx_hal_dma.c ****   {
 2318              		.loc 1 429 7 discriminator 12 view .LVU564
 2319 02fe 02F18052 		add	r2, r2, #268435456
 2320 0302 8032     		adds	r2, r2, #128
 2321 0304 9342     		cmp	r3, r2
 2322 0306 30D0     		beq	.L86
 2323 0308 06E0     		b	.L97
 2324              	.L98:
 2325 030a 00BF     		.align	2
 2326              	.L96:
 2327 030c 50100250 		.word	1342312528
 2328 0310 00000000 		.word	.LC0
 2329 0314 50160250 		.word	1342314064
 2330              	.L97:
 429:../STM32Cube_FW_N6/Drivers/STM32N6xx_HAL_Driver/Src/stm32n6xx_hal_dma.c ****   {
 2331              		.loc 1 429 7 discriminator 14 view .LVU565
 2332 0318 02F17042 		add	r2, r2, #-268435456
 2333 031c 9342     		cmp	r3, r2
 2334 031e 24D0     		beq	.L86
 429:../STM32Cube_FW_N6/Drivers/STM32N6xx_HAL_Driver/Src/stm32n6xx_hal_dma.c ****   {
 2335              		.loc 1 429 7 discriminator 16 view .LVU566
 2336 0320 02F1C052 		add	r2, r2, #402653184
 2337 0324 A2F58C52 		sub	r2, r2, #4480
 2338 0328 9342     		cmp	r3, r2
 2339 032a 1ED0     		beq	.L86
 429:../STM32Cube_FW_N6/Drivers/STM32N6xx_HAL_Driver/Src/stm32n6xx_hal_dma.c ****   {
 2340              		.loc 1 429 7 discriminator 18 view .LVU567
 2341 032c 02F17042 		add	r2, r2, #-268435456
 2342 0330 9342     		cmp	r3, r2
 2343 0332 1AD0     		beq	.L86
 429:../STM32Cube_FW_N6/Drivers/STM32N6xx_HAL_Driver/Src/stm32n6xx_hal_dma.c ****   {
 2344              		.loc 1 429 7 discriminator 20 view .LVU568
 2345 0334 02F18052 		add	r2, r2, #268435456
 2346 0338 8032     		adds	r2, r2, #128
 2347 033a 9342     		cmp	r3, r2
 2348 033c 15D0     		beq	.L86
 429:../STM32Cube_FW_N6/Drivers/STM32N6xx_HAL_Driver/Src/stm32n6xx_hal_dma.c ****   {
 2349              		.loc 1 429 7 discriminator 22 view .LVU569
 2350 033e 02F17042 		add	r2, r2, #-268435456
 2351 0342 9342     		cmp	r3, r2
 2352 0344 11D0     		beq	.L86
 429:../STM32Cube_FW_N6/Drivers/STM32N6xx_HAL_Driver/Src/stm32n6xx_hal_dma.c ****   {
 2353              		.loc 1 429 7 discriminator 24 view .LVU570
 2354 0346 02F18052 		add	r2, r2, #268435456
 2355 034a 8032     		adds	r2, r2, #128
 2356 034c 9342     		cmp	r3, r2
 2357 034e 0CD0     		beq	.L86
 429:../STM32Cube_FW_N6/Drivers/STM32N6xx_HAL_Driver/Src/stm32n6xx_hal_dma.c ****   {
 2358              		.loc 1 429 7 discriminator 26 view .LVU571
 2359 0350 02F17042 		add	r2, r2, #-268435456
 2360 0354 9342     		cmp	r3, r2
ARM GAS  /tmp/ccId6s4B.s 			page 77


 2361 0356 08D0     		beq	.L86
 429:../STM32Cube_FW_N6/Drivers/STM32N6xx_HAL_Driver/Src/stm32n6xx_hal_dma.c ****   {
 2362              		.loc 1 429 7 discriminator 28 view .LVU572
 2363 0358 02F18052 		add	r2, r2, #268435456
 2364 035c 8032     		adds	r2, r2, #128
 2365 035e 9342     		cmp	r3, r2
 2366 0360 03D0     		beq	.L86
 429:../STM32Cube_FW_N6/Drivers/STM32N6xx_HAL_Driver/Src/stm32n6xx_hal_dma.c ****   {
 2367              		.loc 1 429 7 discriminator 30 view .LVU573
 2368 0362 02F17042 		add	r2, r2, #-268435456
 2369 0366 9342     		cmp	r3, r2
 2370 0368 02D1     		bne	.L87
 2371              	.L86:
 431:../STM32Cube_FW_N6/Drivers/STM32N6xx_HAL_Driver/Src/stm32n6xx_hal_dma.c ****     hdma->Instance->CBR2 = 0U;
 2372              		.loc 1 431 5 is_stmt 1 view .LVU574
 431:../STM32Cube_FW_N6/Drivers/STM32N6xx_HAL_Driver/Src/stm32n6xx_hal_dma.c ****     hdma->Instance->CBR2 = 0U;
 2373              		.loc 1 431 26 is_stmt 0 view .LVU575
 2374 036a 0022     		movs	r2, #0
 2375 036c 5A65     		str	r2, [r3, #84]
 432:../STM32Cube_FW_N6/Drivers/STM32N6xx_HAL_Driver/Src/stm32n6xx_hal_dma.c ****   }
 2376              		.loc 1 432 5 is_stmt 1 view .LVU576
 432:../STM32Cube_FW_N6/Drivers/STM32N6xx_HAL_Driver/Src/stm32n6xx_hal_dma.c ****   }
 2377              		.loc 1 432 26 is_stmt 0 view .LVU577
 2378 036e 9A65     		str	r2, [r3, #88]
 2379              	.L87:
 436:../STM32Cube_FW_N6/Drivers/STM32N6xx_HAL_Driver/Src/stm32n6xx_hal_dma.c ****                               DMA_FLAG_TO));
 2380              		.loc 1 436 3 is_stmt 1 view .LVU578
 2381 0370 4FF4FE42 		mov	r2, #32512
 2382 0374 DA60     		str	r2, [r3, #12]
 440:../STM32Cube_FW_N6/Drivers/STM32N6xx_HAL_Driver/Src/stm32n6xx_hal_dma.c ****   hdma->XferHalfCpltCallback = NULL;
 2383              		.loc 1 440 3 view .LVU579
 440:../STM32Cube_FW_N6/Drivers/STM32N6xx_HAL_Driver/Src/stm32n6xx_hal_dma.c ****   hdma->XferHalfCpltCallback = NULL;
 2384              		.loc 1 440 30 is_stmt 0 view .LVU580
 2385 0376 0023     		movs	r3, #0
 450:../STM32Cube_FW_N6/Drivers/STM32N6xx_HAL_Driver/Src/stm32n6xx_hal_dma.c ****   {
 2386              		.loc 1 450 6 view .LVU581
 2387 0378 E26D     		ldr	r2, [r4, #92]
 441:../STM32Cube_FW_N6/Drivers/STM32N6xx_HAL_Driver/Src/stm32n6xx_hal_dma.c ****   hdma->XferErrorCallback    = NULL;
 2388              		.loc 1 441 30 view .LVU582
 2389 037a C4E91833 		strd	r3, r3, [r4, #96]
 442:../STM32Cube_FW_N6/Drivers/STM32N6xx_HAL_Driver/Src/stm32n6xx_hal_dma.c ****   hdma->XferAbortCallback    = NULL;
 2390              		.loc 1 442 3 is_stmt 1 view .LVU583
 443:../STM32Cube_FW_N6/Drivers/STM32N6xx_HAL_Driver/Src/stm32n6xx_hal_dma.c ****   hdma->XferSuspendCallback  = NULL;
 2391              		.loc 1 443 30 is_stmt 0 view .LVU584
 2392 037e C4E91A33 		strd	r3, r3, [r4, #104]
 444:../STM32Cube_FW_N6/Drivers/STM32N6xx_HAL_Driver/Src/stm32n6xx_hal_dma.c **** 
 2393              		.loc 1 444 3 is_stmt 1 view .LVU585
 447:../STM32Cube_FW_N6/Drivers/STM32N6xx_HAL_Driver/Src/stm32n6xx_hal_dma.c **** 
 2394              		.loc 1 447 25 is_stmt 0 view .LVU586
 2395 0382 C4E91C33 		strd	r3, r3, [r4, #112]
 450:../STM32Cube_FW_N6/Drivers/STM32N6xx_HAL_Driver/Src/stm32n6xx_hal_dma.c ****   {
 2396              		.loc 1 450 3 is_stmt 1 view .LVU587
 450:../STM32Cube_FW_N6/Drivers/STM32N6xx_HAL_Driver/Src/stm32n6xx_hal_dma.c ****   {
 2397              		.loc 1 450 6 is_stmt 0 view .LVU588
 2398 0386 02B1     		cbz	r2, .L88
 452:../STM32Cube_FW_N6/Drivers/STM32N6xx_HAL_Driver/Src/stm32n6xx_hal_dma.c ****   }
 2399              		.loc 1 452 5 is_stmt 1 view .LVU589
ARM GAS  /tmp/ccId6s4B.s 			page 78


 452:../STM32Cube_FW_N6/Drivers/STM32N6xx_HAL_Driver/Src/stm32n6xx_hal_dma.c ****   }
 2400              		.loc 1 452 18 is_stmt 0 view .LVU590
 2401 0388 E365     		str	r3, [r4, #92]
 2402              	.L88:
 456:../STM32Cube_FW_N6/Drivers/STM32N6xx_HAL_Driver/Src/stm32n6xx_hal_dma.c **** 
 2403              		.loc 1 456 3 is_stmt 1 view .LVU591
 459:../STM32Cube_FW_N6/Drivers/STM32N6xx_HAL_Driver/Src/stm32n6xx_hal_dma.c **** 
 2404              		.loc 1 459 19 is_stmt 0 view .LVU592
 2405 038a A365     		str	r3, [r4, #88]
 467:../STM32Cube_FW_N6/Drivers/STM32N6xx_HAL_Driver/Src/stm32n6xx_hal_dma.c **** }
 2406              		.loc 1 467 10 view .LVU593
 2407 038c 0020     		movs	r0, #0
 456:../STM32Cube_FW_N6/Drivers/STM32N6xx_HAL_Driver/Src/stm32n6xx_hal_dma.c **** 
 2408              		.loc 1 456 14 view .LVU594
 2409 038e 2365     		str	r3, [r4, #80]
 459:../STM32Cube_FW_N6/Drivers/STM32N6xx_HAL_Driver/Src/stm32n6xx_hal_dma.c **** 
 2410              		.loc 1 459 3 is_stmt 1 view .LVU595
 462:../STM32Cube_FW_N6/Drivers/STM32N6xx_HAL_Driver/Src/stm32n6xx_hal_dma.c **** 
 2411              		.loc 1 462 3 view .LVU596
 462:../STM32Cube_FW_N6/Drivers/STM32N6xx_HAL_Driver/Src/stm32n6xx_hal_dma.c **** 
 2412              		.loc 1 462 15 is_stmt 0 view .LVU597
 2413 0390 84F85430 		strb	r3, [r4, #84]
 465:../STM32Cube_FW_N6/Drivers/STM32N6xx_HAL_Driver/Src/stm32n6xx_hal_dma.c **** 
 2414              		.loc 1 465 3 is_stmt 1 view .LVU598
 465:../STM32Cube_FW_N6/Drivers/STM32N6xx_HAL_Driver/Src/stm32n6xx_hal_dma.c **** 
 2415              		.loc 1 465 3 view .LVU599
 2416 0394 84F84C30 		strb	r3, [r4, #76]
 465:../STM32Cube_FW_N6/Drivers/STM32N6xx_HAL_Driver/Src/stm32n6xx_hal_dma.c **** 
 2417              		.loc 1 465 3 view .LVU600
 467:../STM32Cube_FW_N6/Drivers/STM32N6xx_HAL_Driver/Src/stm32n6xx_hal_dma.c **** }
 2418              		.loc 1 467 3 view .LVU601
 467:../STM32Cube_FW_N6/Drivers/STM32N6xx_HAL_Driver/Src/stm32n6xx_hal_dma.c **** }
 2419              		.loc 1 467 10 is_stmt 0 view .LVU602
 2420 0398 0AE0     		b	.L84
 2421              	.L85:
 404:../STM32Cube_FW_N6/Drivers/STM32N6xx_HAL_Driver/Src/stm32n6xx_hal_dma.c ****     {
 2422              		.loc 1 404 5 is_stmt 1 view .LVU603
 404:../STM32Cube_FW_N6/Drivers/STM32N6xx_HAL_Driver/Src/stm32n6xx_hal_dma.c ****     {
 2423              		.loc 1 404 10 is_stmt 0 view .LVU604
 2424 039a FFF7FEFF 		bl	HAL_GetTick
 2425              	.LVL36:
 404:../STM32Cube_FW_N6/Drivers/STM32N6xx_HAL_Driver/Src/stm32n6xx_hal_dma.c ****     {
 2426              		.loc 1 404 24 discriminator 1 view .LVU605
 2427 039e 401B     		subs	r0, r0, r5
 404:../STM32Cube_FW_N6/Drivers/STM32N6xx_HAL_Driver/Src/stm32n6xx_hal_dma.c ****     {
 2428              		.loc 1 404 8 discriminator 1 view .LVU606
 2429 03a0 0528     		cmp	r0, #5
 2430 03a2 83D9     		bls	.L83
 407:../STM32Cube_FW_N6/Drivers/STM32N6xx_HAL_Driver/Src/stm32n6xx_hal_dma.c **** 
 2431              		.loc 1 407 7 is_stmt 1 view .LVU607
 407:../STM32Cube_FW_N6/Drivers/STM32N6xx_HAL_Driver/Src/stm32n6xx_hal_dma.c **** 
 2432              		.loc 1 407 23 is_stmt 0 view .LVU608
 2433 03a4 1023     		movs	r3, #16
 2434 03a6 A365     		str	r3, [r4, #88]
 410:../STM32Cube_FW_N6/Drivers/STM32N6xx_HAL_Driver/Src/stm32n6xx_hal_dma.c **** 
 2435              		.loc 1 410 7 is_stmt 1 view .LVU609
 410:../STM32Cube_FW_N6/Drivers/STM32N6xx_HAL_Driver/Src/stm32n6xx_hal_dma.c **** 
ARM GAS  /tmp/ccId6s4B.s 			page 79


 2436              		.loc 1 410 19 is_stmt 0 view .LVU610
 2437 03a8 0323     		movs	r3, #3
 2438 03aa 84F85430 		strb	r3, [r4, #84]
 412:../STM32Cube_FW_N6/Drivers/STM32N6xx_HAL_Driver/Src/stm32n6xx_hal_dma.c ****     }
 2439              		.loc 1 412 7 is_stmt 1 view .LVU611
 2440              	.L81:
 392:../STM32Cube_FW_N6/Drivers/STM32N6xx_HAL_Driver/Src/stm32n6xx_hal_dma.c ****   }
 2441              		.loc 1 392 12 is_stmt 0 view .LVU612
 2442 03ae 0120     		movs	r0, #1
 2443              	.L84:
 468:../STM32Cube_FW_N6/Drivers/STM32N6xx_HAL_Driver/Src/stm32n6xx_hal_dma.c **** /**
 2444              		.loc 1 468 1 view .LVU613
 2445 03b0 38BD     		pop	{r3, r4, r5, pc}
 468:../STM32Cube_FW_N6/Drivers/STM32N6xx_HAL_Driver/Src/stm32n6xx_hal_dma.c **** /**
 2446              		.loc 1 468 1 view .LVU614
 2447              		.cfi_endproc
 2448              	.LFE882:
 2450 03b2 00BF     		.section	.text.HAL_DMA_Start,"ax",%progbits
 2451              		.align	1
 2452              		.global	HAL_DMA_Start
 2453              		.syntax unified
 2454              		.thumb
 2455              		.thumb_func
 2457              	HAL_DMA_Start:
 2458              	.LVL37:
 2459              	.LFB883:
 516:../STM32Cube_FW_N6/Drivers/STM32N6xx_HAL_Driver/Src/stm32n6xx_hal_dma.c ****   /* Check the DMA peripheral handle parameter */
 2460              		.loc 1 516 1 is_stmt 1 view -0
 2461              		.cfi_startproc
 2462              		@ args = 0, pretend = 0, frame = 0
 2463              		@ frame_needed = 0, uses_anonymous_args = 0
 518:../STM32Cube_FW_N6/Drivers/STM32N6xx_HAL_Driver/Src/stm32n6xx_hal_dma.c ****   {
 2464              		.loc 1 518 3 view .LVU616
 516:../STM32Cube_FW_N6/Drivers/STM32N6xx_HAL_Driver/Src/stm32n6xx_hal_dma.c ****   /* Check the DMA peripheral handle parameter */
 2465              		.loc 1 516 1 is_stmt 0 view .LVU617
 2466 0000 F8B5     		push	{r3, r4, r5, r6, r7, lr}
 2467              		.cfi_def_cfa_offset 24
 2468              		.cfi_offset 3, -24
 2469              		.cfi_offset 4, -20
 2470              		.cfi_offset 5, -16
 2471              		.cfi_offset 6, -12
 2472              		.cfi_offset 7, -8
 2473              		.cfi_offset 14, -4
 516:../STM32Cube_FW_N6/Drivers/STM32N6xx_HAL_Driver/Src/stm32n6xx_hal_dma.c ****   /* Check the DMA peripheral handle parameter */
 2474              		.loc 1 516 1 view .LVU618
 2475 0002 0F46     		mov	r7, r1
 2476 0004 1646     		mov	r6, r2
 2477 0006 1D46     		mov	r5, r3
 518:../STM32Cube_FW_N6/Drivers/STM32N6xx_HAL_Driver/Src/stm32n6xx_hal_dma.c ****   {
 2478              		.loc 1 518 6 view .LVU619
 2479 0008 0446     		mov	r4, r0
 2480 000a 60B3     		cbz	r0, .L100
 524:../STM32Cube_FW_N6/Drivers/STM32N6xx_HAL_Driver/Src/stm32n6xx_hal_dma.c **** 
 2481              		.loc 1 524 3 is_stmt 1 view .LVU620
 2482 000c 5A1E     		subs	r2, r3, #1
 2483              	.LVL38:
 524:../STM32Cube_FW_N6/Drivers/STM32N6xx_HAL_Driver/Src/stm32n6xx_hal_dma.c **** 
ARM GAS  /tmp/ccId6s4B.s 			page 80


 2484              		.loc 1 524 3 is_stmt 0 view .LVU621
 2485 000e 4FF6FE73 		movw	r3, #65534
 2486              	.LVL39:
 524:../STM32Cube_FW_N6/Drivers/STM32N6xx_HAL_Driver/Src/stm32n6xx_hal_dma.c **** 
 2487              		.loc 1 524 3 view .LVU622
 2488 0012 9A42     		cmp	r2, r3
 2489 0014 04D9     		bls	.L101
 524:../STM32Cube_FW_N6/Drivers/STM32N6xx_HAL_Driver/Src/stm32n6xx_hal_dma.c **** 
 2490              		.loc 1 524 3 discriminator 1 view .LVU623
 2491 0016 4FF40371 		mov	r1, #524
 2492              	.LVL40:
 524:../STM32Cube_FW_N6/Drivers/STM32N6xx_HAL_Driver/Src/stm32n6xx_hal_dma.c **** 
 2493              		.loc 1 524 3 discriminator 1 view .LVU624
 2494 001a 1548     		ldr	r0, .L108
 2495              	.LVL41:
 524:../STM32Cube_FW_N6/Drivers/STM32N6xx_HAL_Driver/Src/stm32n6xx_hal_dma.c **** 
 2496              		.loc 1 524 3 discriminator 1 view .LVU625
 2497 001c FFF7FEFF 		bl	assert_failed
 2498              	.LVL42:
 2499              	.L101:
 527:../STM32Cube_FW_N6/Drivers/STM32N6xx_HAL_Driver/Src/stm32n6xx_hal_dma.c **** 
 2500              		.loc 1 527 3 is_stmt 1 view .LVU626
 527:../STM32Cube_FW_N6/Drivers/STM32N6xx_HAL_Driver/Src/stm32n6xx_hal_dma.c **** 
 2501              		.loc 1 527 3 view .LVU627
 2502 0020 94F84C30 		ldrb	r3, [r4, #76]	@ zero_extendqisi2
 2503 0024 012B     		cmp	r3, #1
 2504 0026 20D0     		beq	.L104
 527:../STM32Cube_FW_N6/Drivers/STM32N6xx_HAL_Driver/Src/stm32n6xx_hal_dma.c **** 
 2505              		.loc 1 527 3 discriminator 2 view .LVU628
 2506 0028 0123     		movs	r3, #1
 2507 002a 84F84C30 		strb	r3, [r4, #76]
 527:../STM32Cube_FW_N6/Drivers/STM32N6xx_HAL_Driver/Src/stm32n6xx_hal_dma.c **** 
 2508              		.loc 1 527 3 view .LVU629
 530:../STM32Cube_FW_N6/Drivers/STM32N6xx_HAL_Driver/Src/stm32n6xx_hal_dma.c ****   {
 2509              		.loc 1 530 3 view .LVU630
 530:../STM32Cube_FW_N6/Drivers/STM32N6xx_HAL_Driver/Src/stm32n6xx_hal_dma.c ****   {
 2510              		.loc 1 530 11 is_stmt 0 view .LVU631
 2511 002e 94F85430 		ldrb	r3, [r4, #84]	@ zero_extendqisi2
 2512 0032 0020     		movs	r0, #0
 530:../STM32Cube_FW_N6/Drivers/STM32N6xx_HAL_Driver/Src/stm32n6xx_hal_dma.c ****   {
 2513              		.loc 1 530 6 view .LVU632
 2514 0034 012B     		cmp	r3, #1
 2515 0036 12D1     		bne	.L103
 533:../STM32Cube_FW_N6/Drivers/STM32N6xx_HAL_Driver/Src/stm32n6xx_hal_dma.c **** 
 2516              		.loc 1 533 5 is_stmt 1 view .LVU633
 533:../STM32Cube_FW_N6/Drivers/STM32N6xx_HAL_Driver/Src/stm32n6xx_hal_dma.c **** 
 2517              		.loc 1 533 17 is_stmt 0 view .LVU634
 2518 0038 0223     		movs	r3, #2
 2519 003a 84F85430 		strb	r3, [r4, #84]
 536:../STM32Cube_FW_N6/Drivers/STM32N6xx_HAL_Driver/Src/stm32n6xx_hal_dma.c **** 
 2520              		.loc 1 536 5 is_stmt 1 view .LVU635
 536:../STM32Cube_FW_N6/Drivers/STM32N6xx_HAL_Driver/Src/stm32n6xx_hal_dma.c **** 
 2521              		.loc 1 536 21 is_stmt 0 view .LVU636
 2522 003e A065     		str	r0, [r4, #88]
 539:../STM32Cube_FW_N6/Drivers/STM32N6xx_HAL_Driver/Src/stm32n6xx_hal_dma.c **** 
 2523              		.loc 1 539 5 is_stmt 1 view .LVU637
 2524              	.LVL43:
ARM GAS  /tmp/ccId6s4B.s 			page 81


 2525              	.LBB10:
 2526              	.LBI10:
1706:../STM32Cube_FW_N6/Drivers/STM32N6xx_HAL_Driver/Src/stm32n6xx_hal_dma.c ****                           uint32_t SrcAddress,
 2527              		.loc 1 1706 13 view .LVU638
 2528              	.LBB11:
1712:../STM32Cube_FW_N6/Drivers/STM32N6xx_HAL_Driver/Src/stm32n6xx_hal_dma.c **** 
 2529              		.loc 1 1712 3 view .LVU639
 2530 0040 2468     		ldr	r4, [r4]
 2531              	.LVL44:
1712:../STM32Cube_FW_N6/Drivers/STM32N6xx_HAL_Driver/Src/stm32n6xx_hal_dma.c **** 
 2532              		.loc 1 1712 3 is_stmt 0 view .LVU640
 2533 0042 A36C     		ldr	r3, [r4, #72]
 2534 0044 65F30F03 		bfi	r3, r5, #0, #16
 2535 0048 A364     		str	r3, [r4, #72]
1715:../STM32Cube_FW_N6/Drivers/STM32N6xx_HAL_Driver/Src/stm32n6xx_hal_dma.c ****                        DMA_FLAG_TO);
 2536              		.loc 1 1715 3 is_stmt 1 view .LVU641
 2537 004a 4FF4FE43 		mov	r3, #32512
 2538 004e E360     		str	r3, [r4, #12]
1719:../STM32Cube_FW_N6/Drivers/STM32N6xx_HAL_Driver/Src/stm32n6xx_hal_dma.c **** 
 2539              		.loc 1 1719 3 view .LVU642
1719:../STM32Cube_FW_N6/Drivers/STM32N6xx_HAL_Driver/Src/stm32n6xx_hal_dma.c **** 
 2540              		.loc 1 1719 24 is_stmt 0 view .LVU643
 2541 0050 E764     		str	r7, [r4, #76]
1722:../STM32Cube_FW_N6/Drivers/STM32N6xx_HAL_Driver/Src/stm32n6xx_hal_dma.c **** }
 2542              		.loc 1 1722 3 is_stmt 1 view .LVU644
1722:../STM32Cube_FW_N6/Drivers/STM32N6xx_HAL_Driver/Src/stm32n6xx_hal_dma.c **** }
 2543              		.loc 1 1722 24 is_stmt 0 view .LVU645
 2544 0052 2665     		str	r6, [r4, #80]
 2545              	.LVL45:
1722:../STM32Cube_FW_N6/Drivers/STM32N6xx_HAL_Driver/Src/stm32n6xx_hal_dma.c **** }
 2546              		.loc 1 1722 24 view .LVU646
 2547              	.LBE11:
 2548              	.LBE10:
 542:../STM32Cube_FW_N6/Drivers/STM32N6xx_HAL_Driver/Src/stm32n6xx_hal_dma.c ****   }
 2549              		.loc 1 542 5 is_stmt 1 view .LVU647
 2550 0054 6369     		ldr	r3, [r4, #20]
 2551 0056 43F00103 		orr	r3, r3, #1
 2552 005a 6361     		str	r3, [r4, #20]
 555:../STM32Cube_FW_N6/Drivers/STM32N6xx_HAL_Driver/Src/stm32n6xx_hal_dma.c **** }
 2553              		.loc 1 555 3 view .LVU648
 2554              	.L102:
 556:../STM32Cube_FW_N6/Drivers/STM32N6xx_HAL_Driver/Src/stm32n6xx_hal_dma.c **** 
 2555              		.loc 1 556 1 is_stmt 0 view .LVU649
 2556 005c F8BD     		pop	{r3, r4, r5, r6, r7, pc}
 2557              	.LVL46:
 2558              	.L103:
 547:../STM32Cube_FW_N6/Drivers/STM32N6xx_HAL_Driver/Src/stm32n6xx_hal_dma.c **** 
 2559              		.loc 1 547 5 is_stmt 1 view .LVU650
 547:../STM32Cube_FW_N6/Drivers/STM32N6xx_HAL_Driver/Src/stm32n6xx_hal_dma.c **** 
 2560              		.loc 1 547 21 is_stmt 0 view .LVU651
 2561 005e 4023     		movs	r3, #64
 550:../STM32Cube_FW_N6/Drivers/STM32N6xx_HAL_Driver/Src/stm32n6xx_hal_dma.c **** 
 2562              		.loc 1 550 5 view .LVU652
 2563 0060 84F84C00 		strb	r0, [r4, #76]
 547:../STM32Cube_FW_N6/Drivers/STM32N6xx_HAL_Driver/Src/stm32n6xx_hal_dma.c **** 
 2564              		.loc 1 547 21 view .LVU653
 2565 0064 A365     		str	r3, [r4, #88]
ARM GAS  /tmp/ccId6s4B.s 			page 82


 550:../STM32Cube_FW_N6/Drivers/STM32N6xx_HAL_Driver/Src/stm32n6xx_hal_dma.c **** 
 2566              		.loc 1 550 5 is_stmt 1 view .LVU654
 550:../STM32Cube_FW_N6/Drivers/STM32N6xx_HAL_Driver/Src/stm32n6xx_hal_dma.c **** 
 2567              		.loc 1 550 5 view .LVU655
 550:../STM32Cube_FW_N6/Drivers/STM32N6xx_HAL_Driver/Src/stm32n6xx_hal_dma.c **** 
 2568              		.loc 1 550 5 view .LVU656
 552:../STM32Cube_FW_N6/Drivers/STM32N6xx_HAL_Driver/Src/stm32n6xx_hal_dma.c ****   }
 2569              		.loc 1 552 5 view .LVU657
 2570              	.L100:
 520:../STM32Cube_FW_N6/Drivers/STM32N6xx_HAL_Driver/Src/stm32n6xx_hal_dma.c ****   }
 2571              		.loc 1 520 12 is_stmt 0 view .LVU658
 2572 0066 0120     		movs	r0, #1
 2573 0068 F8E7     		b	.L102
 2574              	.L104:
 527:../STM32Cube_FW_N6/Drivers/STM32N6xx_HAL_Driver/Src/stm32n6xx_hal_dma.c **** 
 2575              		.loc 1 527 3 discriminator 1 view .LVU659
 2576 006a 0220     		movs	r0, #2
 2577 006c F6E7     		b	.L102
 2578              	.L109:
 2579 006e 00BF     		.align	2
 2580              	.L108:
 2581 0070 00000000 		.word	.LC0
 2582              		.cfi_endproc
 2583              	.LFE883:
 2585              		.section	.text.HAL_DMA_Start_IT,"ax",%progbits
 2586              		.align	1
 2587              		.global	HAL_DMA_Start_IT
 2588              		.syntax unified
 2589              		.thumb
 2590              		.thumb_func
 2592              	HAL_DMA_Start_IT:
 2593              	.LVL47:
 2594              	.LFB884:
 571:../STM32Cube_FW_N6/Drivers/STM32N6xx_HAL_Driver/Src/stm32n6xx_hal_dma.c ****   /* Check the DMA peripheral handle parameter */
 2595              		.loc 1 571 1 is_stmt 1 view -0
 2596              		.cfi_startproc
 2597              		@ args = 0, pretend = 0, frame = 0
 2598              		@ frame_needed = 0, uses_anonymous_args = 0
 573:../STM32Cube_FW_N6/Drivers/STM32N6xx_HAL_Driver/Src/stm32n6xx_hal_dma.c ****   {
 2599              		.loc 1 573 3 view .LVU661
 571:../STM32Cube_FW_N6/Drivers/STM32N6xx_HAL_Driver/Src/stm32n6xx_hal_dma.c ****   /* Check the DMA peripheral handle parameter */
 2600              		.loc 1 571 1 is_stmt 0 view .LVU662
 2601 0000 F8B5     		push	{r3, r4, r5, r6, r7, lr}
 2602              		.cfi_def_cfa_offset 24
 2603              		.cfi_offset 3, -24
 2604              		.cfi_offset 4, -20
 2605              		.cfi_offset 5, -16
 2606              		.cfi_offset 6, -12
 2607              		.cfi_offset 7, -8
 2608              		.cfi_offset 14, -4
 571:../STM32Cube_FW_N6/Drivers/STM32N6xx_HAL_Driver/Src/stm32n6xx_hal_dma.c ****   /* Check the DMA peripheral handle parameter */
 2609              		.loc 1 571 1 view .LVU663
 2610 0002 0F46     		mov	r7, r1
 2611 0004 1646     		mov	r6, r2
 2612 0006 1D46     		mov	r5, r3
 573:../STM32Cube_FW_N6/Drivers/STM32N6xx_HAL_Driver/Src/stm32n6xx_hal_dma.c ****   {
 2613              		.loc 1 573 6 view .LVU664
ARM GAS  /tmp/ccId6s4B.s 			page 83


 2614 0008 0446     		mov	r4, r0
 2615 000a 0028     		cmp	r0, #0
 2616 000c 3ED0     		beq	.L111
 579:../STM32Cube_FW_N6/Drivers/STM32N6xx_HAL_Driver/Src/stm32n6xx_hal_dma.c **** 
 2617              		.loc 1 579 3 is_stmt 1 view .LVU665
 2618 000e 5A1E     		subs	r2, r3, #1
 2619              	.LVL48:
 579:../STM32Cube_FW_N6/Drivers/STM32N6xx_HAL_Driver/Src/stm32n6xx_hal_dma.c **** 
 2620              		.loc 1 579 3 is_stmt 0 view .LVU666
 2621 0010 4FF6FE73 		movw	r3, #65534
 2622              	.LVL49:
 579:../STM32Cube_FW_N6/Drivers/STM32N6xx_HAL_Driver/Src/stm32n6xx_hal_dma.c **** 
 2623              		.loc 1 579 3 view .LVU667
 2624 0014 9A42     		cmp	r2, r3
 2625 0016 04D9     		bls	.L112
 579:../STM32Cube_FW_N6/Drivers/STM32N6xx_HAL_Driver/Src/stm32n6xx_hal_dma.c **** 
 2626              		.loc 1 579 3 discriminator 1 view .LVU668
 2627 0018 40F24321 		movw	r1, #579
 2628              	.LVL50:
 579:../STM32Cube_FW_N6/Drivers/STM32N6xx_HAL_Driver/Src/stm32n6xx_hal_dma.c **** 
 2629              		.loc 1 579 3 discriminator 1 view .LVU669
 2630 001c 1D48     		ldr	r0, .L127
 2631              	.LVL51:
 579:../STM32Cube_FW_N6/Drivers/STM32N6xx_HAL_Driver/Src/stm32n6xx_hal_dma.c **** 
 2632              		.loc 1 579 3 discriminator 1 view .LVU670
 2633 001e FFF7FEFF 		bl	assert_failed
 2634              	.LVL52:
 2635              	.L112:
 582:../STM32Cube_FW_N6/Drivers/STM32N6xx_HAL_Driver/Src/stm32n6xx_hal_dma.c **** 
 2636              		.loc 1 582 3 is_stmt 1 view .LVU671
 582:../STM32Cube_FW_N6/Drivers/STM32N6xx_HAL_Driver/Src/stm32n6xx_hal_dma.c **** 
 2637              		.loc 1 582 3 view .LVU672
 2638 0022 94F84C30 		ldrb	r3, [r4, #76]	@ zero_extendqisi2
 2639 0026 012B     		cmp	r3, #1
 2640 0028 32D0     		beq	.L117
 582:../STM32Cube_FW_N6/Drivers/STM32N6xx_HAL_Driver/Src/stm32n6xx_hal_dma.c **** 
 2641              		.loc 1 582 3 discriminator 2 view .LVU673
 2642 002a 0123     		movs	r3, #1
 2643 002c 84F84C30 		strb	r3, [r4, #76]
 582:../STM32Cube_FW_N6/Drivers/STM32N6xx_HAL_Driver/Src/stm32n6xx_hal_dma.c **** 
 2644              		.loc 1 582 3 view .LVU674
 585:../STM32Cube_FW_N6/Drivers/STM32N6xx_HAL_Driver/Src/stm32n6xx_hal_dma.c ****   {
 2645              		.loc 1 585 3 view .LVU675
 585:../STM32Cube_FW_N6/Drivers/STM32N6xx_HAL_Driver/Src/stm32n6xx_hal_dma.c ****   {
 2646              		.loc 1 585 11 is_stmt 0 view .LVU676
 2647 0030 94F85430 		ldrb	r3, [r4, #84]	@ zero_extendqisi2
 585:../STM32Cube_FW_N6/Drivers/STM32N6xx_HAL_Driver/Src/stm32n6xx_hal_dma.c ****   {
 2648              		.loc 1 585 6 view .LVU677
 2649 0034 012B     		cmp	r3, #1
 2650 0036 4FF00003 		mov	r3, #0
 2651 003a 23D1     		bne	.L114
 588:../STM32Cube_FW_N6/Drivers/STM32N6xx_HAL_Driver/Src/stm32n6xx_hal_dma.c **** 
 2652              		.loc 1 588 5 is_stmt 1 view .LVU678
 588:../STM32Cube_FW_N6/Drivers/STM32N6xx_HAL_Driver/Src/stm32n6xx_hal_dma.c **** 
 2653              		.loc 1 588 17 is_stmt 0 view .LVU679
 2654 003c 0222     		movs	r2, #2
 2655              	.LBB14:
ARM GAS  /tmp/ccId6s4B.s 			page 84


 2656              	.LBB15:
1712:../STM32Cube_FW_N6/Drivers/STM32N6xx_HAL_Driver/Src/stm32n6xx_hal_dma.c **** 
 2657              		.loc 1 1712 3 view .LVU680
 2658 003e 2068     		ldr	r0, [r4]
 2659              	.LBE15:
 2660              	.LBE14:
 588:../STM32Cube_FW_N6/Drivers/STM32N6xx_HAL_Driver/Src/stm32n6xx_hal_dma.c **** 
 2661              		.loc 1 588 17 view .LVU681
 2662 0040 84F85420 		strb	r2, [r4, #84]
 591:../STM32Cube_FW_N6/Drivers/STM32N6xx_HAL_Driver/Src/stm32n6xx_hal_dma.c **** 
 2663              		.loc 1 591 5 is_stmt 1 view .LVU682
 591:../STM32Cube_FW_N6/Drivers/STM32N6xx_HAL_Driver/Src/stm32n6xx_hal_dma.c **** 
 2664              		.loc 1 591 21 is_stmt 0 view .LVU683
 2665 0044 A365     		str	r3, [r4, #88]
 594:../STM32Cube_FW_N6/Drivers/STM32N6xx_HAL_Driver/Src/stm32n6xx_hal_dma.c **** 
 2666              		.loc 1 594 5 is_stmt 1 view .LVU684
 2667              	.LVL53:
 2668              	.LBB17:
 2669              	.LBI14:
1706:../STM32Cube_FW_N6/Drivers/STM32N6xx_HAL_Driver/Src/stm32n6xx_hal_dma.c ****                           uint32_t SrcAddress,
 2670              		.loc 1 1706 13 view .LVU685
 2671              	.LBB16:
1712:../STM32Cube_FW_N6/Drivers/STM32N6xx_HAL_Driver/Src/stm32n6xx_hal_dma.c **** 
 2672              		.loc 1 1712 3 view .LVU686
 2673 0046 836C     		ldr	r3, [r0, #72]
 2674 0048 65F30F03 		bfi	r3, r5, #0, #16
 2675 004c 8364     		str	r3, [r0, #72]
1715:../STM32Cube_FW_N6/Drivers/STM32N6xx_HAL_Driver/Src/stm32n6xx_hal_dma.c ****                        DMA_FLAG_TO);
 2676              		.loc 1 1715 3 view .LVU687
 2677 004e 4FF4FE43 		mov	r3, #32512
 2678 0052 C360     		str	r3, [r0, #12]
1719:../STM32Cube_FW_N6/Drivers/STM32N6xx_HAL_Driver/Src/stm32n6xx_hal_dma.c **** 
 2679              		.loc 1 1719 3 view .LVU688
1719:../STM32Cube_FW_N6/Drivers/STM32N6xx_HAL_Driver/Src/stm32n6xx_hal_dma.c **** 
 2680              		.loc 1 1719 24 is_stmt 0 view .LVU689
 2681 0054 C764     		str	r7, [r0, #76]
1722:../STM32Cube_FW_N6/Drivers/STM32N6xx_HAL_Driver/Src/stm32n6xx_hal_dma.c **** }
 2682              		.loc 1 1722 3 is_stmt 1 view .LVU690
1722:../STM32Cube_FW_N6/Drivers/STM32N6xx_HAL_Driver/Src/stm32n6xx_hal_dma.c **** }
 2683              		.loc 1 1722 24 is_stmt 0 view .LVU691
 2684 0056 0665     		str	r6, [r0, #80]
 2685              	.LVL54:
1722:../STM32Cube_FW_N6/Drivers/STM32N6xx_HAL_Driver/Src/stm32n6xx_hal_dma.c **** }
 2686              		.loc 1 1722 24 view .LVU692
 2687              	.LBE16:
 2688              	.LBE17:
 597:../STM32Cube_FW_N6/Drivers/STM32N6xx_HAL_Driver/Src/stm32n6xx_hal_dma.c **** 
 2689              		.loc 1 597 5 is_stmt 1 view .LVU693
 2690 0058 4369     		ldr	r3, [r0, #20]
 2691 005a 43F4BA43 		orr	r3, r3, #23808
 2692 005e 4361     		str	r3, [r0, #20]
 600:../STM32Cube_FW_N6/Drivers/STM32N6xx_HAL_Driver/Src/stm32n6xx_hal_dma.c ****     {
 2693              		.loc 1 600 5 view .LVU694
 600:../STM32Cube_FW_N6/Drivers/STM32N6xx_HAL_Driver/Src/stm32n6xx_hal_dma.c ****     {
 2694              		.loc 1 600 8 is_stmt 0 view .LVU695
 2695 0060 636E     		ldr	r3, [r4, #100]
 2696 0062 1BB1     		cbz	r3, .L115
ARM GAS  /tmp/ccId6s4B.s 			page 85


 603:../STM32Cube_FW_N6/Drivers/STM32N6xx_HAL_Driver/Src/stm32n6xx_hal_dma.c ****     }
 2697              		.loc 1 603 7 is_stmt 1 view .LVU696
 2698 0064 4369     		ldr	r3, [r0, #20]
 2699 0066 43F40073 		orr	r3, r3, #512
 2700 006a 4361     		str	r3, [r0, #20]
 2701              	.L115:
 607:../STM32Cube_FW_N6/Drivers/STM32N6xx_HAL_Driver/Src/stm32n6xx_hal_dma.c ****     {
 2702              		.loc 1 607 5 view .LVU697
 607:../STM32Cube_FW_N6/Drivers/STM32N6xx_HAL_Driver/Src/stm32n6xx_hal_dma.c ****     {
 2703              		.loc 1 607 8 is_stmt 0 view .LVU698
 2704 006c 236F     		ldr	r3, [r4, #112]
 2705 006e 1BB1     		cbz	r3, .L116
 610:../STM32Cube_FW_N6/Drivers/STM32N6xx_HAL_Driver/Src/stm32n6xx_hal_dma.c ****     }
 2706              		.loc 1 610 7 is_stmt 1 view .LVU699
 2707 0070 4369     		ldr	r3, [r0, #20]
 2708 0072 43F40053 		orr	r3, r3, #8192
 2709 0076 4361     		str	r3, [r0, #20]
 2710              	.L116:
 614:../STM32Cube_FW_N6/Drivers/STM32N6xx_HAL_Driver/Src/stm32n6xx_hal_dma.c ****   }
 2711              		.loc 1 614 5 view .LVU700
 2712 0078 4369     		ldr	r3, [r0, #20]
 2713 007a 43F00103 		orr	r3, r3, #1
 2714 007e 4361     		str	r3, [r0, #20]
 627:../STM32Cube_FW_N6/Drivers/STM32N6xx_HAL_Driver/Src/stm32n6xx_hal_dma.c **** }
 2715              		.loc 1 627 3 view .LVU701
 627:../STM32Cube_FW_N6/Drivers/STM32N6xx_HAL_Driver/Src/stm32n6xx_hal_dma.c **** }
 2716              		.loc 1 627 10 is_stmt 0 view .LVU702
 2717 0080 0020     		movs	r0, #0
 2718              	.L113:
 628:../STM32Cube_FW_N6/Drivers/STM32N6xx_HAL_Driver/Src/stm32n6xx_hal_dma.c **** 
 2719              		.loc 1 628 1 view .LVU703
 2720 0082 F8BD     		pop	{r3, r4, r5, r6, r7, pc}
 2721              	.LVL55:
 2722              	.L114:
 619:../STM32Cube_FW_N6/Drivers/STM32N6xx_HAL_Driver/Src/stm32n6xx_hal_dma.c **** 
 2723              		.loc 1 619 5 is_stmt 1 view .LVU704
 619:../STM32Cube_FW_N6/Drivers/STM32N6xx_HAL_Driver/Src/stm32n6xx_hal_dma.c **** 
 2724              		.loc 1 619 21 is_stmt 0 view .LVU705
 2725 0084 4022     		movs	r2, #64
 622:../STM32Cube_FW_N6/Drivers/STM32N6xx_HAL_Driver/Src/stm32n6xx_hal_dma.c **** 
 2726              		.loc 1 622 5 view .LVU706
 2727 0086 84F84C30 		strb	r3, [r4, #76]
 619:../STM32Cube_FW_N6/Drivers/STM32N6xx_HAL_Driver/Src/stm32n6xx_hal_dma.c **** 
 2728              		.loc 1 619 21 view .LVU707
 2729 008a A265     		str	r2, [r4, #88]
 622:../STM32Cube_FW_N6/Drivers/STM32N6xx_HAL_Driver/Src/stm32n6xx_hal_dma.c **** 
 2730              		.loc 1 622 5 is_stmt 1 view .LVU708
 622:../STM32Cube_FW_N6/Drivers/STM32N6xx_HAL_Driver/Src/stm32n6xx_hal_dma.c **** 
 2731              		.loc 1 622 5 view .LVU709
 622:../STM32Cube_FW_N6/Drivers/STM32N6xx_HAL_Driver/Src/stm32n6xx_hal_dma.c **** 
 2732              		.loc 1 622 5 view .LVU710
 624:../STM32Cube_FW_N6/Drivers/STM32N6xx_HAL_Driver/Src/stm32n6xx_hal_dma.c ****   }
 2733              		.loc 1 624 5 view .LVU711
 2734              	.L111:
 575:../STM32Cube_FW_N6/Drivers/STM32N6xx_HAL_Driver/Src/stm32n6xx_hal_dma.c ****   }
 2735              		.loc 1 575 12 is_stmt 0 view .LVU712
 2736 008c 0120     		movs	r0, #1
ARM GAS  /tmp/ccId6s4B.s 			page 86


 2737 008e F8E7     		b	.L113
 2738              	.L117:
 582:../STM32Cube_FW_N6/Drivers/STM32N6xx_HAL_Driver/Src/stm32n6xx_hal_dma.c **** 
 2739              		.loc 1 582 3 discriminator 1 view .LVU713
 2740 0090 0220     		movs	r0, #2
 2741 0092 F6E7     		b	.L113
 2742              	.L128:
 2743              		.align	2
 2744              	.L127:
 2745 0094 00000000 		.word	.LC0
 2746              		.cfi_endproc
 2747              	.LFE884:
 2749              		.section	.text.HAL_DMA_Abort,"ax",%progbits
 2750              		.align	1
 2751              		.global	HAL_DMA_Abort
 2752              		.syntax unified
 2753              		.thumb
 2754              		.thumb_func
 2756              	HAL_DMA_Abort:
 2757              	.LVL56:
 2758              	.LFB885:
 640:../STM32Cube_FW_N6/Drivers/STM32N6xx_HAL_Driver/Src/stm32n6xx_hal_dma.c ****   /* Get tick number */
 2759              		.loc 1 640 1 is_stmt 1 view -0
 2760              		.cfi_startproc
 2761              		@ args = 0, pretend = 0, frame = 0
 2762              		@ frame_needed = 0, uses_anonymous_args = 0
 642:../STM32Cube_FW_N6/Drivers/STM32N6xx_HAL_Driver/Src/stm32n6xx_hal_dma.c **** 
 2763              		.loc 1 642 3 view .LVU715
 640:../STM32Cube_FW_N6/Drivers/STM32N6xx_HAL_Driver/Src/stm32n6xx_hal_dma.c ****   /* Get tick number */
 2764              		.loc 1 640 1 is_stmt 0 view .LVU716
 2765 0000 38B5     		push	{r3, r4, r5, lr}
 2766              		.cfi_def_cfa_offset 16
 2767              		.cfi_offset 3, -16
 2768              		.cfi_offset 4, -12
 2769              		.cfi_offset 5, -8
 2770              		.cfi_offset 14, -4
 640:../STM32Cube_FW_N6/Drivers/STM32N6xx_HAL_Driver/Src/stm32n6xx_hal_dma.c ****   /* Get tick number */
 2771              		.loc 1 640 1 view .LVU717
 2772 0002 0446     		mov	r4, r0
 642:../STM32Cube_FW_N6/Drivers/STM32N6xx_HAL_Driver/Src/stm32n6xx_hal_dma.c **** 
 2773              		.loc 1 642 25 view .LVU718
 2774 0004 FFF7FEFF 		bl	HAL_GetTick
 2775              	.LVL57:
 642:../STM32Cube_FW_N6/Drivers/STM32N6xx_HAL_Driver/Src/stm32n6xx_hal_dma.c **** 
 2776              		.loc 1 642 25 view .LVU719
 2777 0008 0546     		mov	r5, r0
 2778              	.LVL58:
 645:../STM32Cube_FW_N6/Drivers/STM32N6xx_HAL_Driver/Src/stm32n6xx_hal_dma.c ****   {
 2779              		.loc 1 645 3 is_stmt 1 view .LVU720
 645:../STM32Cube_FW_N6/Drivers/STM32N6xx_HAL_Driver/Src/stm32n6xx_hal_dma.c ****   {
 2780              		.loc 1 645 6 is_stmt 0 view .LVU721
 2781 000a 44B1     		cbz	r4, .L130
 651:../STM32Cube_FW_N6/Drivers/STM32N6xx_HAL_Driver/Src/stm32n6xx_hal_dma.c ****   {
 2782              		.loc 1 651 3 is_stmt 1 view .LVU722
 651:../STM32Cube_FW_N6/Drivers/STM32N6xx_HAL_Driver/Src/stm32n6xx_hal_dma.c ****   {
 2783              		.loc 1 651 11 is_stmt 0 view .LVU723
 2784 000c 94F85430 		ldrb	r3, [r4, #84]	@ zero_extendqisi2
ARM GAS  /tmp/ccId6s4B.s 			page 87


 651:../STM32Cube_FW_N6/Drivers/STM32N6xx_HAL_Driver/Src/stm32n6xx_hal_dma.c ****   {
 2785              		.loc 1 651 6 view .LVU724
 2786 0010 022B     		cmp	r3, #2
 2787 0012 06D0     		beq	.L131
 654:../STM32Cube_FW_N6/Drivers/STM32N6xx_HAL_Driver/Src/stm32n6xx_hal_dma.c **** 
 2788              		.loc 1 654 5 is_stmt 1 view .LVU725
 654:../STM32Cube_FW_N6/Drivers/STM32N6xx_HAL_Driver/Src/stm32n6xx_hal_dma.c **** 
 2789              		.loc 1 654 21 is_stmt 0 view .LVU726
 2790 0014 2023     		movs	r3, #32
 2791 0016 A365     		str	r3, [r4, #88]
 2792              	.LVL59:
 2793              	.L147:
 657:../STM32Cube_FW_N6/Drivers/STM32N6xx_HAL_Driver/Src/stm32n6xx_hal_dma.c **** 
 2794              		.loc 1 657 5 is_stmt 1 view .LVU727
 657:../STM32Cube_FW_N6/Drivers/STM32N6xx_HAL_Driver/Src/stm32n6xx_hal_dma.c **** 
 2795              		.loc 1 657 5 view .LVU728
 2796 0018 0023     		movs	r3, #0
 2797 001a 84F84C30 		strb	r3, [r4, #76]
 657:../STM32Cube_FW_N6/Drivers/STM32N6xx_HAL_Driver/Src/stm32n6xx_hal_dma.c **** 
 2798              		.loc 1 657 5 view .LVU729
 659:../STM32Cube_FW_N6/Drivers/STM32N6xx_HAL_Driver/Src/stm32n6xx_hal_dma.c ****   }
 2799              		.loc 1 659 5 view .LVU730
 2800              	.L130:
 647:../STM32Cube_FW_N6/Drivers/STM32N6xx_HAL_Driver/Src/stm32n6xx_hal_dma.c ****   }
 2801              		.loc 1 647 12 is_stmt 0 view .LVU731
 2802 001e 0120     		movs	r0, #1
 2803              	.L132:
 723:../STM32Cube_FW_N6/Drivers/STM32N6xx_HAL_Driver/Src/stm32n6xx_hal_dma.c **** 
 2804              		.loc 1 723 1 view .LVU732
 2805 0020 38BD     		pop	{r3, r4, r5, pc}
 2806              	.LVL60:
 2807              	.L131:
 664:../STM32Cube_FW_N6/Drivers/STM32N6xx_HAL_Driver/Src/stm32n6xx_hal_dma.c **** 
 2808              		.loc 1 664 5 is_stmt 1 view .LVU733
 664:../STM32Cube_FW_N6/Drivers/STM32N6xx_HAL_Driver/Src/stm32n6xx_hal_dma.c **** 
 2809              		.loc 1 664 9 is_stmt 0 view .LVU734
 2810 0022 2268     		ldr	r2, [r4]
 664:../STM32Cube_FW_N6/Drivers/STM32N6xx_HAL_Driver/Src/stm32n6xx_hal_dma.c **** 
 2811              		.loc 1 664 19 view .LVU735
 2812 0024 5369     		ldr	r3, [r2, #20]
 664:../STM32Cube_FW_N6/Drivers/STM32N6xx_HAL_Driver/Src/stm32n6xx_hal_dma.c **** 
 2813              		.loc 1 664 25 view .LVU736
 2814 0026 43F00403 		orr	r3, r3, #4
 2815 002a 5361     		str	r3, [r2, #20]
 667:../STM32Cube_FW_N6/Drivers/STM32N6xx_HAL_Driver/Src/stm32n6xx_hal_dma.c **** 
 2816              		.loc 1 667 5 is_stmt 1 view .LVU737
 667:../STM32Cube_FW_N6/Drivers/STM32N6xx_HAL_Driver/Src/stm32n6xx_hal_dma.c **** 
 2817              		.loc 1 667 17 is_stmt 0 view .LVU738
 2818 002c 0523     		movs	r3, #5
 2819 002e 84F85430 		strb	r3, [r4, #84]
 670:../STM32Cube_FW_N6/Drivers/STM32N6xx_HAL_Driver/Src/stm32n6xx_hal_dma.c ****     {
 2820              		.loc 1 670 5 is_stmt 1 view .LVU739
 2821              	.LVL61:
 2822              	.L133:
 670:../STM32Cube_FW_N6/Drivers/STM32N6xx_HAL_Driver/Src/stm32n6xx_hal_dma.c ****     {
 2823              		.loc 1 670 50 view .LVU740
 670:../STM32Cube_FW_N6/Drivers/STM32N6xx_HAL_Driver/Src/stm32n6xx_hal_dma.c ****     {
ARM GAS  /tmp/ccId6s4B.s 			page 88


 2824              		.loc 1 670 17 is_stmt 0 view .LVU741
 2825 0032 2368     		ldr	r3, [r4]
 670:../STM32Cube_FW_N6/Drivers/STM32N6xx_HAL_Driver/Src/stm32n6xx_hal_dma.c ****     {
 2826              		.loc 1 670 27 view .LVU742
 2827 0034 1A69     		ldr	r2, [r3, #16]
 670:../STM32Cube_FW_N6/Drivers/STM32N6xx_HAL_Driver/Src/stm32n6xx_hal_dma.c ****     {
 2828              		.loc 1 670 50 view .LVU743
 2829 0036 9004     		lsls	r0, r2, #18
 2830 0038 19D5     		bpl	.L135
 696:../STM32Cube_FW_N6/Drivers/STM32N6xx_HAL_Driver/Src/stm32n6xx_hal_dma.c **** 
 2831              		.loc 1 696 5 is_stmt 1 view .LVU744
 696:../STM32Cube_FW_N6/Drivers/STM32N6xx_HAL_Driver/Src/stm32n6xx_hal_dma.c **** 
 2832              		.loc 1 696 19 is_stmt 0 view .LVU745
 2833 003a 5A69     		ldr	r2, [r3, #20]
 709:../STM32Cube_FW_N6/Drivers/STM32N6xx_HAL_Driver/Src/stm32n6xx_hal_dma.c ****     {
 2834              		.loc 1 709 21 view .LVU746
 2835 003c 216D     		ldr	r1, [r4, #80]
 696:../STM32Cube_FW_N6/Drivers/STM32N6xx_HAL_Driver/Src/stm32n6xx_hal_dma.c **** 
 2836              		.loc 1 696 25 view .LVU747
 2837 003e 42F00202 		orr	r2, r2, #2
 2838 0042 5A61     		str	r2, [r3, #20]
 699:../STM32Cube_FW_N6/Drivers/STM32N6xx_HAL_Driver/Src/stm32n6xx_hal_dma.c **** 
 2839              		.loc 1 699 5 is_stmt 1 view .LVU748
 699:../STM32Cube_FW_N6/Drivers/STM32N6xx_HAL_Driver/Src/stm32n6xx_hal_dma.c **** 
 2840              		.loc 1 699 17 is_stmt 0 view .LVU749
 2841 0044 0422     		movs	r2, #4
 2842 0046 84F85420 		strb	r2, [r4, #84]
 702:../STM32Cube_FW_N6/Drivers/STM32N6xx_HAL_Driver/Src/stm32n6xx_hal_dma.c ****                                 DMA_FLAG_TO));
 2843              		.loc 1 702 5 is_stmt 1 view .LVU750
 2844 004a 4FF4FE42 		mov	r2, #32512
 2845 004e DA60     		str	r2, [r3, #12]
 706:../STM32Cube_FW_N6/Drivers/STM32N6xx_HAL_Driver/Src/stm32n6xx_hal_dma.c **** 
 2846              		.loc 1 706 5 view .LVU751
 706:../STM32Cube_FW_N6/Drivers/STM32N6xx_HAL_Driver/Src/stm32n6xx_hal_dma.c **** 
 2847              		.loc 1 706 17 is_stmt 0 view .LVU752
 2848 0050 0122     		movs	r2, #1
 709:../STM32Cube_FW_N6/Drivers/STM32N6xx_HAL_Driver/Src/stm32n6xx_hal_dma.c ****     {
 2849              		.loc 1 709 8 view .LVU753
 2850 0052 0906     		lsls	r1, r1, #24
 712:../STM32Cube_FW_N6/Drivers/STM32N6xx_HAL_Driver/Src/stm32n6xx_hal_dma.c **** 
 2851              		.loc 1 712 11 view .LVU754
 2852 0054 48BF     		it	mi
 2853 0056 616F     		ldrmi	r1, [r4, #116]
 706:../STM32Cube_FW_N6/Drivers/STM32N6xx_HAL_Driver/Src/stm32n6xx_hal_dma.c **** 
 2854              		.loc 1 706 17 view .LVU755
 2855 0058 84F85420 		strb	r2, [r4, #84]
 709:../STM32Cube_FW_N6/Drivers/STM32N6xx_HAL_Driver/Src/stm32n6xx_hal_dma.c ****     {
 2856              		.loc 1 709 5 is_stmt 1 view .LVU756
 712:../STM32Cube_FW_N6/Drivers/STM32N6xx_HAL_Driver/Src/stm32n6xx_hal_dma.c **** 
 2857              		.loc 1 712 7 view .LVU757
 719:../STM32Cube_FW_N6/Drivers/STM32N6xx_HAL_Driver/Src/stm32n6xx_hal_dma.c ****   }
 2858              		.loc 1 719 5 is_stmt 0 view .LVU758
 2859 005c 4FF00000 		mov	r0, #0
 712:../STM32Cube_FW_N6/Drivers/STM32N6xx_HAL_Driver/Src/stm32n6xx_hal_dma.c **** 
 2860              		.loc 1 712 36 view .LVU759
 2861 0060 42BF     		ittt	mi
 2862 0062 0A73     		strbmi	r2, [r1, #12]
ARM GAS  /tmp/ccId6s4B.s 			page 89


 715:../STM32Cube_FW_N6/Drivers/STM32N6xx_HAL_Driver/Src/stm32n6xx_hal_dma.c ****     }
 2863              		.loc 1 715 7 is_stmt 1 view .LVU760
 715:../STM32Cube_FW_N6/Drivers/STM32N6xx_HAL_Driver/Src/stm32n6xx_hal_dma.c ****     }
 2864              		.loc 1 715 28 is_stmt 0 view .LVU761
 2865 0064 0022     		movmi	r2, #0
 2866 0066 9A64     		strmi	r2, [r3, #72]
 719:../STM32Cube_FW_N6/Drivers/STM32N6xx_HAL_Driver/Src/stm32n6xx_hal_dma.c ****   }
 2867              		.loc 1 719 5 is_stmt 1 view .LVU762
 719:../STM32Cube_FW_N6/Drivers/STM32N6xx_HAL_Driver/Src/stm32n6xx_hal_dma.c ****   }
 2868              		.loc 1 719 5 view .LVU763
 2869 0068 84F84C00 		strb	r0, [r4, #76]
 719:../STM32Cube_FW_N6/Drivers/STM32N6xx_HAL_Driver/Src/stm32n6xx_hal_dma.c ****   }
 2870              		.loc 1 719 5 view .LVU764
 722:../STM32Cube_FW_N6/Drivers/STM32N6xx_HAL_Driver/Src/stm32n6xx_hal_dma.c **** }
 2871              		.loc 1 722 3 view .LVU765
 722:../STM32Cube_FW_N6/Drivers/STM32N6xx_HAL_Driver/Src/stm32n6xx_hal_dma.c **** }
 2872              		.loc 1 722 10 is_stmt 0 view .LVU766
 2873 006c D8E7     		b	.L132
 2874              	.L135:
 673:../STM32Cube_FW_N6/Drivers/STM32N6xx_HAL_Driver/Src/stm32n6xx_hal_dma.c ****       {
 2875              		.loc 1 673 7 is_stmt 1 view .LVU767
 673:../STM32Cube_FW_N6/Drivers/STM32N6xx_HAL_Driver/Src/stm32n6xx_hal_dma.c ****       {
 2876              		.loc 1 673 12 is_stmt 0 view .LVU768
 2877 006e FFF7FEFF 		bl	HAL_GetTick
 2878              	.LVL62:
 673:../STM32Cube_FW_N6/Drivers/STM32N6xx_HAL_Driver/Src/stm32n6xx_hal_dma.c ****       {
 2879              		.loc 1 673 26 discriminator 1 view .LVU769
 2880 0072 401B     		subs	r0, r0, r5
 673:../STM32Cube_FW_N6/Drivers/STM32N6xx_HAL_Driver/Src/stm32n6xx_hal_dma.c ****       {
 2881              		.loc 1 673 10 discriminator 1 view .LVU770
 2882 0074 0528     		cmp	r0, #5
 2883 0076 DCD9     		bls	.L133
 676:../STM32Cube_FW_N6/Drivers/STM32N6xx_HAL_Driver/Src/stm32n6xx_hal_dma.c **** 
 2884              		.loc 1 676 9 is_stmt 1 view .LVU771
 676:../STM32Cube_FW_N6/Drivers/STM32N6xx_HAL_Driver/Src/stm32n6xx_hal_dma.c **** 
 2885              		.loc 1 676 13 is_stmt 0 view .LVU772
 2886 0078 A36D     		ldr	r3, [r4, #88]
 676:../STM32Cube_FW_N6/Drivers/STM32N6xx_HAL_Driver/Src/stm32n6xx_hal_dma.c **** 
 2887              		.loc 1 676 25 view .LVU773
 2888 007a 43F01003 		orr	r3, r3, #16
 2889 007e A365     		str	r3, [r4, #88]
 679:../STM32Cube_FW_N6/Drivers/STM32N6xx_HAL_Driver/Src/stm32n6xx_hal_dma.c **** 
 2890              		.loc 1 679 9 is_stmt 1 view .LVU774
 679:../STM32Cube_FW_N6/Drivers/STM32N6xx_HAL_Driver/Src/stm32n6xx_hal_dma.c **** 
 2891              		.loc 1 679 21 is_stmt 0 view .LVU775
 2892 0080 0323     		movs	r3, #3
 2893 0082 84F85430 		strb	r3, [r4, #84]
 682:../STM32Cube_FW_N6/Drivers/STM32N6xx_HAL_Driver/Src/stm32n6xx_hal_dma.c ****         {
 2894              		.loc 1 682 9 is_stmt 1 view .LVU776
 682:../STM32Cube_FW_N6/Drivers/STM32N6xx_HAL_Driver/Src/stm32n6xx_hal_dma.c ****         {
 2895              		.loc 1 682 25 is_stmt 0 view .LVU777
 2896 0086 236D     		ldr	r3, [r4, #80]
 682:../STM32Cube_FW_N6/Drivers/STM32N6xx_HAL_Driver/Src/stm32n6xx_hal_dma.c ****         {
 2897              		.loc 1 682 12 view .LVU778
 2898 0088 1D06     		lsls	r5, r3, #24
 2899              	.LVL63:
 682:../STM32Cube_FW_N6/Drivers/STM32N6xx_HAL_Driver/Src/stm32n6xx_hal_dma.c ****         {
ARM GAS  /tmp/ccId6s4B.s 			page 90


 2900              		.loc 1 682 12 view .LVU779
 2901 008a C5D5     		bpl	.L147
 685:../STM32Cube_FW_N6/Drivers/STM32N6xx_HAL_Driver/Src/stm32n6xx_hal_dma.c ****         }
 2902              		.loc 1 685 11 is_stmt 1 view .LVU780
 685:../STM32Cube_FW_N6/Drivers/STM32N6xx_HAL_Driver/Src/stm32n6xx_hal_dma.c ****         }
 2903              		.loc 1 685 40 is_stmt 0 view .LVU781
 2904 008c 0122     		movs	r2, #1
 685:../STM32Cube_FW_N6/Drivers/STM32N6xx_HAL_Driver/Src/stm32n6xx_hal_dma.c ****         }
 2905              		.loc 1 685 15 view .LVU782
 2906 008e 636F     		ldr	r3, [r4, #116]
 685:../STM32Cube_FW_N6/Drivers/STM32N6xx_HAL_Driver/Src/stm32n6xx_hal_dma.c ****         }
 2907              		.loc 1 685 40 view .LVU783
 2908 0090 1A73     		strb	r2, [r3, #12]
 689:../STM32Cube_FW_N6/Drivers/STM32N6xx_HAL_Driver/Src/stm32n6xx_hal_dma.c **** 
 2909              		.loc 1 689 9 is_stmt 1 view .LVU784
 689:../STM32Cube_FW_N6/Drivers/STM32N6xx_HAL_Driver/Src/stm32n6xx_hal_dma.c **** 
 2910              		.loc 1 689 9 view .LVU785
 2911 0092 C1E7     		b	.L147
 2912              		.cfi_endproc
 2913              	.LFE885:
 2915              		.section	.text.HAL_DMA_Abort_IT,"ax",%progbits
 2916              		.align	1
 2917              		.global	HAL_DMA_Abort_IT
 2918              		.syntax unified
 2919              		.thumb
 2920              		.thumb_func
 2922              	HAL_DMA_Abort_IT:
 2923              	.LVL64:
 2924              	.LFB886:
 732:../STM32Cube_FW_N6/Drivers/STM32N6xx_HAL_Driver/Src/stm32n6xx_hal_dma.c ****   /* Check the DMA peripheral handle parameter */
 2925              		.loc 1 732 1 view -0
 2926              		.cfi_startproc
 2927              		@ args = 0, pretend = 0, frame = 0
 2928              		@ frame_needed = 0, uses_anonymous_args = 0
 2929              		@ link register save eliminated.
 734:../STM32Cube_FW_N6/Drivers/STM32N6xx_HAL_Driver/Src/stm32n6xx_hal_dma.c ****   {
 2930              		.loc 1 734 3 view .LVU787
 734:../STM32Cube_FW_N6/Drivers/STM32N6xx_HAL_Driver/Src/stm32n6xx_hal_dma.c ****   {
 2931              		.loc 1 734 6 is_stmt 0 view .LVU788
 2932 0000 28B1     		cbz	r0, .L149
 740:../STM32Cube_FW_N6/Drivers/STM32N6xx_HAL_Driver/Src/stm32n6xx_hal_dma.c ****   {
 2933              		.loc 1 740 3 is_stmt 1 view .LVU789
 740:../STM32Cube_FW_N6/Drivers/STM32N6xx_HAL_Driver/Src/stm32n6xx_hal_dma.c ****   {
 2934              		.loc 1 740 11 is_stmt 0 view .LVU790
 2935 0002 90F85430 		ldrb	r3, [r0, #84]	@ zero_extendqisi2
 740:../STM32Cube_FW_N6/Drivers/STM32N6xx_HAL_Driver/Src/stm32n6xx_hal_dma.c ****   {
 2936              		.loc 1 740 6 view .LVU791
 2937 0006 022B     		cmp	r3, #2
 2938 0008 03D0     		beq	.L150
 743:../STM32Cube_FW_N6/Drivers/STM32N6xx_HAL_Driver/Src/stm32n6xx_hal_dma.c **** 
 2939              		.loc 1 743 5 is_stmt 1 view .LVU792
 743:../STM32Cube_FW_N6/Drivers/STM32N6xx_HAL_Driver/Src/stm32n6xx_hal_dma.c **** 
 2940              		.loc 1 743 21 is_stmt 0 view .LVU793
 2941 000a 2023     		movs	r3, #32
 2942 000c 8365     		str	r3, [r0, #88]
 745:../STM32Cube_FW_N6/Drivers/STM32N6xx_HAL_Driver/Src/stm32n6xx_hal_dma.c ****   }
 2943              		.loc 1 745 5 is_stmt 1 view .LVU794
ARM GAS  /tmp/ccId6s4B.s 			page 91


 2944              	.L149:
 736:../STM32Cube_FW_N6/Drivers/STM32N6xx_HAL_Driver/Src/stm32n6xx_hal_dma.c ****   }
 2945              		.loc 1 736 12 is_stmt 0 view .LVU795
 2946 000e 0120     		movs	r0, #1
 2947              	.LVL65:
 736:../STM32Cube_FW_N6/Drivers/STM32N6xx_HAL_Driver/Src/stm32n6xx_hal_dma.c ****   }
 2948              		.loc 1 736 12 view .LVU796
 2949 0010 7047     		bx	lr
 2950              	.LVL66:
 2951              	.L150:
 750:../STM32Cube_FW_N6/Drivers/STM32N6xx_HAL_Driver/Src/stm32n6xx_hal_dma.c **** 
 2952              		.loc 1 750 5 is_stmt 1 view .LVU797
 750:../STM32Cube_FW_N6/Drivers/STM32N6xx_HAL_Driver/Src/stm32n6xx_hal_dma.c **** 
 2953              		.loc 1 750 17 is_stmt 0 view .LVU798
 2954 0012 0423     		movs	r3, #4
 753:../STM32Cube_FW_N6/Drivers/STM32N6xx_HAL_Driver/Src/stm32n6xx_hal_dma.c ****   }
 2955              		.loc 1 753 9 view .LVU799
 2956 0014 0268     		ldr	r2, [r0]
 750:../STM32Cube_FW_N6/Drivers/STM32N6xx_HAL_Driver/Src/stm32n6xx_hal_dma.c **** 
 2957              		.loc 1 750 17 view .LVU800
 2958 0016 80F85430 		strb	r3, [r0, #84]
 753:../STM32Cube_FW_N6/Drivers/STM32N6xx_HAL_Driver/Src/stm32n6xx_hal_dma.c ****   }
 2959              		.loc 1 753 5 is_stmt 1 view .LVU801
 753:../STM32Cube_FW_N6/Drivers/STM32N6xx_HAL_Driver/Src/stm32n6xx_hal_dma.c ****   }
 2960              		.loc 1 753 19 is_stmt 0 view .LVU802
 2961 001a 5369     		ldr	r3, [r2, #20]
 756:../STM32Cube_FW_N6/Drivers/STM32N6xx_HAL_Driver/Src/stm32n6xx_hal_dma.c **** }
 2962              		.loc 1 756 10 view .LVU803
 2963 001c 0020     		movs	r0, #0
 2964              	.LVL67:
 753:../STM32Cube_FW_N6/Drivers/STM32N6xx_HAL_Driver/Src/stm32n6xx_hal_dma.c ****   }
 2965              		.loc 1 753 25 view .LVU804
 2966 001e 43F40053 		orr	r3, r3, #8192
 2967 0022 43F00403 		orr	r3, r3, #4
 2968 0026 5361     		str	r3, [r2, #20]
 756:../STM32Cube_FW_N6/Drivers/STM32N6xx_HAL_Driver/Src/stm32n6xx_hal_dma.c **** }
 2969              		.loc 1 756 3 is_stmt 1 view .LVU805
 757:../STM32Cube_FW_N6/Drivers/STM32N6xx_HAL_Driver/Src/stm32n6xx_hal_dma.c **** 
 2970              		.loc 1 757 1 is_stmt 0 view .LVU806
 2971 0028 7047     		bx	lr
 2972              		.cfi_endproc
 2973              	.LFE886:
 2975              		.section	.text.HAL_DMA_PollForTransfer,"ax",%progbits
 2976              		.align	1
 2977              		.global	HAL_DMA_PollForTransfer
 2978              		.syntax unified
 2979              		.thumb
 2980              		.thumb_func
 2982              	HAL_DMA_PollForTransfer:
 2983              	.LVL68:
 2984              	.LFB887:
 770:../STM32Cube_FW_N6/Drivers/STM32N6xx_HAL_Driver/Src/stm32n6xx_hal_dma.c ****   /* Get tick number */
 2985              		.loc 1 770 1 is_stmt 1 view -0
 2986              		.cfi_startproc
 2987              		@ args = 0, pretend = 0, frame = 0
 2988              		@ frame_needed = 0, uses_anonymous_args = 0
 772:../STM32Cube_FW_N6/Drivers/STM32N6xx_HAL_Driver/Src/stm32n6xx_hal_dma.c ****   uint32_t level_flag;
ARM GAS  /tmp/ccId6s4B.s 			page 92


 2989              		.loc 1 772 3 view .LVU808
 770:../STM32Cube_FW_N6/Drivers/STM32N6xx_HAL_Driver/Src/stm32n6xx_hal_dma.c ****   /* Get tick number */
 2990              		.loc 1 770 1 is_stmt 0 view .LVU809
 2991 0000 2DE9F041 		push	{r4, r5, r6, r7, r8, lr}
 2992              		.cfi_def_cfa_offset 24
 2993              		.cfi_offset 4, -24
 2994              		.cfi_offset 5, -20
 2995              		.cfi_offset 6, -16
 2996              		.cfi_offset 7, -12
 2997              		.cfi_offset 8, -8
 2998              		.cfi_offset 14, -4
 770:../STM32Cube_FW_N6/Drivers/STM32N6xx_HAL_Driver/Src/stm32n6xx_hal_dma.c ****   /* Get tick number */
 2999              		.loc 1 770 1 view .LVU810
 3000 0004 0446     		mov	r4, r0
 3001 0006 0D46     		mov	r5, r1
 3002 0008 1646     		mov	r6, r2
 772:../STM32Cube_FW_N6/Drivers/STM32N6xx_HAL_Driver/Src/stm32n6xx_hal_dma.c ****   uint32_t level_flag;
 3003              		.loc 1 772 24 view .LVU811
 3004 000a FFF7FEFF 		bl	HAL_GetTick
 3005              	.LVL69:
 772:../STM32Cube_FW_N6/Drivers/STM32N6xx_HAL_Driver/Src/stm32n6xx_hal_dma.c ****   uint32_t level_flag;
 3006              		.loc 1 772 24 view .LVU812
 3007 000e 0746     		mov	r7, r0
 3008              	.LVL70:
 773:../STM32Cube_FW_N6/Drivers/STM32N6xx_HAL_Driver/Src/stm32n6xx_hal_dma.c ****   uint32_t tmp_csr;
 3009              		.loc 1 773 3 is_stmt 1 view .LVU813
 774:../STM32Cube_FW_N6/Drivers/STM32N6xx_HAL_Driver/Src/stm32n6xx_hal_dma.c **** 
 3010              		.loc 1 774 3 view .LVU814
 777:../STM32Cube_FW_N6/Drivers/STM32N6xx_HAL_Driver/Src/stm32n6xx_hal_dma.c ****   {
 3011              		.loc 1 777 3 view .LVU815
 777:../STM32Cube_FW_N6/Drivers/STM32N6xx_HAL_Driver/Src/stm32n6xx_hal_dma.c ****   {
 3012              		.loc 1 777 6 is_stmt 0 view .LVU816
 3013 0010 C4B1     		cbz	r4, .L157
 783:../STM32Cube_FW_N6/Drivers/STM32N6xx_HAL_Driver/Src/stm32n6xx_hal_dma.c **** 
 3014              		.loc 1 783 3 is_stmt 1 view .LVU817
 3015 0012 012D     		cmp	r5, #1
 3016 0014 04D9     		bls	.L158
 783:../STM32Cube_FW_N6/Drivers/STM32N6xx_HAL_Driver/Src/stm32n6xx_hal_dma.c **** 
 3017              		.loc 1 783 3 is_stmt 0 discriminator 1 view .LVU818
 3018 0016 40F20F31 		movw	r1, #783
 3019 001a 4248     		ldr	r0, .L199
 3020              	.LVL71:
 783:../STM32Cube_FW_N6/Drivers/STM32N6xx_HAL_Driver/Src/stm32n6xx_hal_dma.c **** 
 3021              		.loc 1 783 3 discriminator 1 view .LVU819
 3022 001c FFF7FEFF 		bl	assert_failed
 3023              	.LVL72:
 3024              	.L158:
 786:../STM32Cube_FW_N6/Drivers/STM32N6xx_HAL_Driver/Src/stm32n6xx_hal_dma.c ****   {
 3025              		.loc 1 786 3 is_stmt 1 view .LVU820
 786:../STM32Cube_FW_N6/Drivers/STM32N6xx_HAL_Driver/Src/stm32n6xx_hal_dma.c ****   {
 3026              		.loc 1 786 11 is_stmt 0 view .LVU821
 3027 0020 94F85430 		ldrb	r3, [r4, #84]	@ zero_extendqisi2
 786:../STM32Cube_FW_N6/Drivers/STM32N6xx_HAL_Driver/Src/stm32n6xx_hal_dma.c ****   {
 3028              		.loc 1 786 6 view .LVU822
 3029 0024 022B     		cmp	r3, #2
 3030 0026 05D0     		beq	.L159
 789:../STM32Cube_FW_N6/Drivers/STM32N6xx_HAL_Driver/Src/stm32n6xx_hal_dma.c **** 
ARM GAS  /tmp/ccId6s4B.s 			page 93


 3031              		.loc 1 789 5 is_stmt 1 view .LVU823
 789:../STM32Cube_FW_N6/Drivers/STM32N6xx_HAL_Driver/Src/stm32n6xx_hal_dma.c **** 
 3032              		.loc 1 789 21 is_stmt 0 view .LVU824
 3033 0028 2023     		movs	r3, #32
 3034 002a A365     		str	r3, [r4, #88]
 792:../STM32Cube_FW_N6/Drivers/STM32N6xx_HAL_Driver/Src/stm32n6xx_hal_dma.c **** 
 3035              		.loc 1 792 5 is_stmt 1 view .LVU825
 792:../STM32Cube_FW_N6/Drivers/STM32N6xx_HAL_Driver/Src/stm32n6xx_hal_dma.c **** 
 3036              		.loc 1 792 5 view .LVU826
 3037              	.LVL73:
 3038              	.L171:
 896:../STM32Cube_FW_N6/Drivers/STM32N6xx_HAL_Driver/Src/stm32n6xx_hal_dma.c **** 
 3039              		.loc 1 896 5 view .LVU827
 896:../STM32Cube_FW_N6/Drivers/STM32N6xx_HAL_Driver/Src/stm32n6xx_hal_dma.c **** 
 3040              		.loc 1 896 5 view .LVU828
 3041 002c 0023     		movs	r3, #0
 3042 002e 84F84C30 		strb	r3, [r4, #76]
 896:../STM32Cube_FW_N6/Drivers/STM32N6xx_HAL_Driver/Src/stm32n6xx_hal_dma.c **** 
 3043              		.loc 1 896 5 view .LVU829
 898:../STM32Cube_FW_N6/Drivers/STM32N6xx_HAL_Driver/Src/stm32n6xx_hal_dma.c ****   }
 3044              		.loc 1 898 5 view .LVU830
 898:../STM32Cube_FW_N6/Drivers/STM32N6xx_HAL_Driver/Src/stm32n6xx_hal_dma.c ****   }
 3045              		.loc 1 898 12 is_stmt 0 view .LVU831
 3046 0032 07E0     		b	.L157
 3047              	.LVL74:
 3048              	.L159:
 798:../STM32Cube_FW_N6/Drivers/STM32N6xx_HAL_Driver/Src/stm32n6xx_hal_dma.c ****   {
 3049              		.loc 1 798 3 is_stmt 1 view .LVU832
 798:../STM32Cube_FW_N6/Drivers/STM32N6xx_HAL_Driver/Src/stm32n6xx_hal_dma.c ****   {
 3050              		.loc 1 798 19 is_stmt 0 view .LVU833
 3051 0034 236D     		ldr	r3, [r4, #80]
 3052 0036 03F08103 		and	r3, r3, #129
 798:../STM32Cube_FW_N6/Drivers/STM32N6xx_HAL_Driver/Src/stm32n6xx_hal_dma.c ****   {
 3053              		.loc 1 798 6 view .LVU834
 3054 003a 812B     		cmp	r3, #129
 3055 003c 04D1     		bne	.L160
 801:../STM32Cube_FW_N6/Drivers/STM32N6xx_HAL_Driver/Src/stm32n6xx_hal_dma.c **** 
 3056              		.loc 1 801 5 is_stmt 1 view .LVU835
 801:../STM32Cube_FW_N6/Drivers/STM32N6xx_HAL_Driver/Src/stm32n6xx_hal_dma.c **** 
 3057              		.loc 1 801 21 is_stmt 0 view .LVU836
 3058 003e 4FF48073 		mov	r3, #256
 3059 0042 A365     		str	r3, [r4, #88]
 803:../STM32Cube_FW_N6/Drivers/STM32N6xx_HAL_Driver/Src/stm32n6xx_hal_dma.c ****   }
 3060              		.loc 1 803 5 is_stmt 1 view .LVU837
 3061              	.LVL75:
 3062              	.L157:
 779:../STM32Cube_FW_N6/Drivers/STM32N6xx_HAL_Driver/Src/stm32n6xx_hal_dma.c ****   }
 3063              		.loc 1 779 12 is_stmt 0 view .LVU838
 3064 0044 0120     		movs	r0, #1
 3065 0046 58E0     		b	.L173
 3066              	.LVL76:
 3067              	.L160:
 807:../STM32Cube_FW_N6/Drivers/STM32N6xx_HAL_Driver/Src/stm32n6xx_hal_dma.c **** 
 3068              		.loc 1 807 3 is_stmt 1 view .LVU839
 807:../STM32Cube_FW_N6/Drivers/STM32N6xx_HAL_Driver/Src/stm32n6xx_hal_dma.c **** 
 3069              		.loc 1 807 74 is_stmt 0 discriminator 1 view .LVU840
 3070 0048 002D     		cmp	r5, #0
ARM GAS  /tmp/ccId6s4B.s 			page 94


 3071 004a 14BF     		ite	ne
 3072 004c 4FF40078 		movne	r8, #512
 3073 0050 4FF00108 		moveq	r8, #1
 3074              	.LVL77:
 810:../STM32Cube_FW_N6/Drivers/STM32N6xx_HAL_Driver/Src/stm32n6xx_hal_dma.c **** 
 3075              		.loc 1 810 3 is_stmt 1 view .LVU841
 3076              	.L163:
 836:../STM32Cube_FW_N6/Drivers/STM32N6xx_HAL_Driver/Src/stm32n6xx_hal_dma.c ****   }
 3077              		.loc 1 836 5 view .LVU842
 836:../STM32Cube_FW_N6/Drivers/STM32N6xx_HAL_Driver/Src/stm32n6xx_hal_dma.c ****   }
 3078              		.loc 1 836 19 is_stmt 0 view .LVU843
 3079 0054 2368     		ldr	r3, [r4]
 836:../STM32Cube_FW_N6/Drivers/STM32N6xx_HAL_Driver/Src/stm32n6xx_hal_dma.c ****   }
 3080              		.loc 1 836 13 view .LVU844
 3081 0056 1B69     		ldr	r3, [r3, #16]
 3082              	.LVL78:
 812:../STM32Cube_FW_N6/Drivers/STM32N6xx_HAL_Driver/Src/stm32n6xx_hal_dma.c ****   {
 3083              		.loc 1 812 33 is_stmt 1 view .LVU845
 3084 0058 13EA080F 		tst	r3, r8
 3085 005c 35D0     		beq	.L165
 840:../STM32Cube_FW_N6/Drivers/STM32N6xx_HAL_Driver/Src/stm32n6xx_hal_dma.c ****   {
 3086              		.loc 1 840 3 view .LVU846
 840:../STM32Cube_FW_N6/Drivers/STM32N6xx_HAL_Driver/Src/stm32n6xx_hal_dma.c ****   {
 3087              		.loc 1 840 6 is_stmt 0 view .LVU847
 3088 005e 5F04     		lsls	r7, r3, #17
 3089              	.LVL79:
 840:../STM32Cube_FW_N6/Drivers/STM32N6xx_HAL_Driver/Src/stm32n6xx_hal_dma.c ****   {
 3090              		.loc 1 840 6 view .LVU848
 3091 0060 07D5     		bpl	.L166
 843:../STM32Cube_FW_N6/Drivers/STM32N6xx_HAL_Driver/Src/stm32n6xx_hal_dma.c **** 
 3092              		.loc 1 843 5 is_stmt 1 view .LVU849
 846:../STM32Cube_FW_N6/Drivers/STM32N6xx_HAL_Driver/Src/stm32n6xx_hal_dma.c ****   }
 3093              		.loc 1 846 5 is_stmt 0 view .LVU850
 3094 0062 4FF48041 		mov	r1, #16384
 843:../STM32Cube_FW_N6/Drivers/STM32N6xx_HAL_Driver/Src/stm32n6xx_hal_dma.c **** 
 3095              		.loc 1 843 9 view .LVU851
 3096 0066 A26D     		ldr	r2, [r4, #88]
 843:../STM32Cube_FW_N6/Drivers/STM32N6xx_HAL_Driver/Src/stm32n6xx_hal_dma.c **** 
 3097              		.loc 1 843 21 view .LVU852
 3098 0068 42F00802 		orr	r2, r2, #8
 3099 006c A265     		str	r2, [r4, #88]
 846:../STM32Cube_FW_N6/Drivers/STM32N6xx_HAL_Driver/Src/stm32n6xx_hal_dma.c ****   }
 3100              		.loc 1 846 5 is_stmt 1 view .LVU853
 3101 006e 2268     		ldr	r2, [r4]
 3102 0070 D160     		str	r1, [r2, #12]
 3103              	.L166:
 850:../STM32Cube_FW_N6/Drivers/STM32N6xx_HAL_Driver/Src/stm32n6xx_hal_dma.c ****   {
 3104              		.loc 1 850 3 view .LVU854
 850:../STM32Cube_FW_N6/Drivers/STM32N6xx_HAL_Driver/Src/stm32n6xx_hal_dma.c ****   {
 3105              		.loc 1 850 6 is_stmt 0 view .LVU855
 3106 0072 13F4E05F 		tst	r3, #7168
 3107 0076 39D0     		beq	.L167
 853:../STM32Cube_FW_N6/Drivers/STM32N6xx_HAL_Driver/Src/stm32n6xx_hal_dma.c ****     {
 3108              		.loc 1 853 5 is_stmt 1 view .LVU856
 853:../STM32Cube_FW_N6/Drivers/STM32N6xx_HAL_Driver/Src/stm32n6xx_hal_dma.c ****     {
 3109              		.loc 1 853 8 is_stmt 0 view .LVU857
 3110 0078 5E05     		lsls	r6, r3, #21
ARM GAS  /tmp/ccId6s4B.s 			page 95


 3111              	.LVL80:
 859:../STM32Cube_FW_N6/Drivers/STM32N6xx_HAL_Driver/Src/stm32n6xx_hal_dma.c ****     }
 3112              		.loc 1 859 7 view .LVU858
 3113 007a 2268     		ldr	r2, [r4]
 853:../STM32Cube_FW_N6/Drivers/STM32N6xx_HAL_Driver/Src/stm32n6xx_hal_dma.c ****     {
 3114              		.loc 1 853 8 view .LVU859
 3115 007c 06D5     		bpl	.L168
 856:../STM32Cube_FW_N6/Drivers/STM32N6xx_HAL_Driver/Src/stm32n6xx_hal_dma.c **** 
 3116              		.loc 1 856 7 is_stmt 1 view .LVU860
 856:../STM32Cube_FW_N6/Drivers/STM32N6xx_HAL_Driver/Src/stm32n6xx_hal_dma.c **** 
 3117              		.loc 1 856 11 is_stmt 0 view .LVU861
 3118 007e A16D     		ldr	r1, [r4, #88]
 856:../STM32Cube_FW_N6/Drivers/STM32N6xx_HAL_Driver/Src/stm32n6xx_hal_dma.c **** 
 3119              		.loc 1 856 23 view .LVU862
 3120 0080 41F00101 		orr	r1, r1, #1
 3121 0084 A165     		str	r1, [r4, #88]
 859:../STM32Cube_FW_N6/Drivers/STM32N6xx_HAL_Driver/Src/stm32n6xx_hal_dma.c ****     }
 3122              		.loc 1 859 7 is_stmt 1 view .LVU863
 3123 0086 4FF48061 		mov	r1, #1024
 3124 008a D160     		str	r1, [r2, #12]
 3125              	.L168:
 863:../STM32Cube_FW_N6/Drivers/STM32N6xx_HAL_Driver/Src/stm32n6xx_hal_dma.c ****     {
 3126              		.loc 1 863 5 view .LVU864
 863:../STM32Cube_FW_N6/Drivers/STM32N6xx_HAL_Driver/Src/stm32n6xx_hal_dma.c ****     {
 3127              		.loc 1 863 8 is_stmt 0 view .LVU865
 3128 008c 1D05     		lsls	r5, r3, #20
 3129 008e 06D5     		bpl	.L169
 866:../STM32Cube_FW_N6/Drivers/STM32N6xx_HAL_Driver/Src/stm32n6xx_hal_dma.c **** 
 3130              		.loc 1 866 7 is_stmt 1 view .LVU866
 866:../STM32Cube_FW_N6/Drivers/STM32N6xx_HAL_Driver/Src/stm32n6xx_hal_dma.c **** 
 3131              		.loc 1 866 11 is_stmt 0 view .LVU867
 3132 0090 A16D     		ldr	r1, [r4, #88]
 866:../STM32Cube_FW_N6/Drivers/STM32N6xx_HAL_Driver/Src/stm32n6xx_hal_dma.c **** 
 3133              		.loc 1 866 23 view .LVU868
 3134 0092 41F00201 		orr	r1, r1, #2
 3135 0096 A165     		str	r1, [r4, #88]
 869:../STM32Cube_FW_N6/Drivers/STM32N6xx_HAL_Driver/Src/stm32n6xx_hal_dma.c ****     }
 3136              		.loc 1 869 7 is_stmt 1 view .LVU869
 3137 0098 4FF40061 		mov	r1, #2048
 3138 009c D160     		str	r1, [r2, #12]
 3139              	.L169:
 873:../STM32Cube_FW_N6/Drivers/STM32N6xx_HAL_Driver/Src/stm32n6xx_hal_dma.c ****     {
 3140              		.loc 1 873 5 view .LVU870
 873:../STM32Cube_FW_N6/Drivers/STM32N6xx_HAL_Driver/Src/stm32n6xx_hal_dma.c ****     {
 3141              		.loc 1 873 8 is_stmt 0 view .LVU871
 3142 009e D804     		lsls	r0, r3, #19
 3143 00a0 06D5     		bpl	.L170
 876:../STM32Cube_FW_N6/Drivers/STM32N6xx_HAL_Driver/Src/stm32n6xx_hal_dma.c **** 
 3144              		.loc 1 876 7 is_stmt 1 view .LVU872
 876:../STM32Cube_FW_N6/Drivers/STM32N6xx_HAL_Driver/Src/stm32n6xx_hal_dma.c **** 
 3145              		.loc 1 876 11 is_stmt 0 view .LVU873
 3146 00a2 A36D     		ldr	r3, [r4, #88]
 3147              	.LVL81:
 876:../STM32Cube_FW_N6/Drivers/STM32N6xx_HAL_Driver/Src/stm32n6xx_hal_dma.c **** 
 3148              		.loc 1 876 23 view .LVU874
 3149 00a4 43F00403 		orr	r3, r3, #4
 3150 00a8 A365     		str	r3, [r4, #88]
ARM GAS  /tmp/ccId6s4B.s 			page 96


 879:../STM32Cube_FW_N6/Drivers/STM32N6xx_HAL_Driver/Src/stm32n6xx_hal_dma.c ****     }
 3151              		.loc 1 879 7 is_stmt 1 view .LVU875
 3152 00aa 4FF48053 		mov	r3, #4096
 3153 00ae D360     		str	r3, [r2, #12]
 3154              	.L170:
 883:../STM32Cube_FW_N6/Drivers/STM32N6xx_HAL_Driver/Src/stm32n6xx_hal_dma.c **** 
 3155              		.loc 1 883 5 view .LVU876
 883:../STM32Cube_FW_N6/Drivers/STM32N6xx_HAL_Driver/Src/stm32n6xx_hal_dma.c **** 
 3156              		.loc 1 883 19 is_stmt 0 view .LVU877
 3157 00b0 5369     		ldr	r3, [r2, #20]
 883:../STM32Cube_FW_N6/Drivers/STM32N6xx_HAL_Driver/Src/stm32n6xx_hal_dma.c **** 
 3158              		.loc 1 883 25 view .LVU878
 3159 00b2 43F00203 		orr	r3, r3, #2
 3160 00b6 5361     		str	r3, [r2, #20]
 886:../STM32Cube_FW_N6/Drivers/STM32N6xx_HAL_Driver/Src/stm32n6xx_hal_dma.c **** 
 3161              		.loc 1 886 5 is_stmt 1 view .LVU879
 886:../STM32Cube_FW_N6/Drivers/STM32N6xx_HAL_Driver/Src/stm32n6xx_hal_dma.c **** 
 3162              		.loc 1 886 17 is_stmt 0 view .LVU880
 3163 00b8 0123     		movs	r3, #1
 889:../STM32Cube_FW_N6/Drivers/STM32N6xx_HAL_Driver/Src/stm32n6xx_hal_dma.c ****     {
 3164              		.loc 1 889 21 view .LVU881
 3165 00ba 226D     		ldr	r2, [r4, #80]
 886:../STM32Cube_FW_N6/Drivers/STM32N6xx_HAL_Driver/Src/stm32n6xx_hal_dma.c **** 
 3166              		.loc 1 886 17 view .LVU882
 3167 00bc 84F85430 		strb	r3, [r4, #84]
 889:../STM32Cube_FW_N6/Drivers/STM32N6xx_HAL_Driver/Src/stm32n6xx_hal_dma.c ****     {
 3168              		.loc 1 889 5 is_stmt 1 view .LVU883
 889:../STM32Cube_FW_N6/Drivers/STM32N6xx_HAL_Driver/Src/stm32n6xx_hal_dma.c ****     {
 3169              		.loc 1 889 8 is_stmt 0 view .LVU884
 3170 00c0 1106     		lsls	r1, r2, #24
 892:../STM32Cube_FW_N6/Drivers/STM32N6xx_HAL_Driver/Src/stm32n6xx_hal_dma.c ****     }
 3171              		.loc 1 892 7 is_stmt 1 view .LVU885
 892:../STM32Cube_FW_N6/Drivers/STM32N6xx_HAL_Driver/Src/stm32n6xx_hal_dma.c ****     }
 3172              		.loc 1 892 11 is_stmt 0 view .LVU886
 3173 00c2 44BF     		itt	mi
 3174 00c4 626F     		ldrmi	r2, [r4, #116]
 892:../STM32Cube_FW_N6/Drivers/STM32N6xx_HAL_Driver/Src/stm32n6xx_hal_dma.c ****     }
 3175              		.loc 1 892 36 view .LVU887
 3176 00c6 1373     		strbmi	r3, [r2, #12]
 3177 00c8 B0E7     		b	.L171
 3178              	.LVL82:
 3179              	.L165:
 815:../STM32Cube_FW_N6/Drivers/STM32N6xx_HAL_Driver/Src/stm32n6xx_hal_dma.c ****     {
 3180              		.loc 1 815 5 is_stmt 1 view .LVU888
 815:../STM32Cube_FW_N6/Drivers/STM32N6xx_HAL_Driver/Src/stm32n6xx_hal_dma.c ****     {
 3181              		.loc 1 815 8 is_stmt 0 view .LVU889
 3182 00ca 731C     		adds	r3, r6, #1
 3183              	.LVL83:
 815:../STM32Cube_FW_N6/Drivers/STM32N6xx_HAL_Driver/Src/stm32n6xx_hal_dma.c ****     {
 3184              		.loc 1 815 8 view .LVU890
 3185 00cc C2D0     		beq	.L163
 817:../STM32Cube_FW_N6/Drivers/STM32N6xx_HAL_Driver/Src/stm32n6xx_hal_dma.c ****       {
 3186              		.loc 1 817 7 is_stmt 1 view .LVU891
 817:../STM32Cube_FW_N6/Drivers/STM32N6xx_HAL_Driver/Src/stm32n6xx_hal_dma.c ****       {
 3187              		.loc 1 817 13 is_stmt 0 view .LVU892
 3188 00ce FFF7FEFF 		bl	HAL_GetTick
 3189              	.LVL84:
ARM GAS  /tmp/ccId6s4B.s 			page 97


 817:../STM32Cube_FW_N6/Drivers/STM32N6xx_HAL_Driver/Src/stm32n6xx_hal_dma.c ****       {
 3190              		.loc 1 817 27 discriminator 1 view .LVU893
 3191 00d2 C01B     		subs	r0, r0, r7
 817:../STM32Cube_FW_N6/Drivers/STM32N6xx_HAL_Driver/Src/stm32n6xx_hal_dma.c ****       {
 3192              		.loc 1 817 10 discriminator 1 view .LVU894
 3193 00d4 B042     		cmp	r0, r6
 3194 00d6 01D8     		bhi	.L164
 817:../STM32Cube_FW_N6/Drivers/STM32N6xx_HAL_Driver/Src/stm32n6xx_hal_dma.c ****       {
 3195              		.loc 1 817 51 discriminator 1 view .LVU895
 3196 00d8 002E     		cmp	r6, #0
 3197 00da BBD1     		bne	.L163
 3198              	.L164:
 820:../STM32Cube_FW_N6/Drivers/STM32N6xx_HAL_Driver/Src/stm32n6xx_hal_dma.c **** 
 3199              		.loc 1 820 9 is_stmt 1 view .LVU896
 820:../STM32Cube_FW_N6/Drivers/STM32N6xx_HAL_Driver/Src/stm32n6xx_hal_dma.c **** 
 3200              		.loc 1 820 13 is_stmt 0 view .LVU897
 3201 00dc A36D     		ldr	r3, [r4, #88]
 829:../STM32Cube_FW_N6/Drivers/STM32N6xx_HAL_Driver/Src/stm32n6xx_hal_dma.c **** 
 3202              		.loc 1 829 15 view .LVU898
 3203 00de 2046     		mov	r0, r4
 820:../STM32Cube_FW_N6/Drivers/STM32N6xx_HAL_Driver/Src/stm32n6xx_hal_dma.c **** 
 3204              		.loc 1 820 25 view .LVU899
 3205 00e0 43F01003 		orr	r3, r3, #16
 3206 00e4 A365     		str	r3, [r4, #88]
 829:../STM32Cube_FW_N6/Drivers/STM32N6xx_HAL_Driver/Src/stm32n6xx_hal_dma.c **** 
 3207              		.loc 1 829 9 is_stmt 1 view .LVU900
 829:../STM32Cube_FW_N6/Drivers/STM32N6xx_HAL_Driver/Src/stm32n6xx_hal_dma.c **** 
 3208              		.loc 1 829 15 is_stmt 0 view .LVU901
 3209 00e6 FFF7FEFF 		bl	HAL_DMA_Abort
 3210              	.LVL85:
 831:../STM32Cube_FW_N6/Drivers/STM32N6xx_HAL_Driver/Src/stm32n6xx_hal_dma.c ****       }
 3211              		.loc 1 831 9 is_stmt 1 view .LVU902
 831:../STM32Cube_FW_N6/Drivers/STM32N6xx_HAL_Driver/Src/stm32n6xx_hal_dma.c ****       }
 3212              		.loc 1 831 16 is_stmt 0 view .LVU903
 3213 00ea ABE7     		b	.L157
 3214              	.LVL86:
 3215              	.L167:
 902:../STM32Cube_FW_N6/Drivers/STM32N6xx_HAL_Driver/Src/stm32n6xx_hal_dma.c ****   {
 3216              		.loc 1 902 3 is_stmt 1 view .LVU904
 902:../STM32Cube_FW_N6/Drivers/STM32N6xx_HAL_Driver/Src/stm32n6xx_hal_dma.c ****   {
 3217              		.loc 1 902 6 is_stmt 0 view .LVU905
 3218 00ec 012D     		cmp	r5, #1
 3219 00ee 06D1     		bne	.L172
 905:../STM32Cube_FW_N6/Drivers/STM32N6xx_HAL_Driver/Src/stm32n6xx_hal_dma.c ****   }
 3220              		.loc 1 905 5 is_stmt 1 view .LVU906
 3221 00f0 4FF40072 		mov	r2, #512
 3222 00f4 2368     		ldr	r3, [r4]
 3223              	.LVL87:
 905:../STM32Cube_FW_N6/Drivers/STM32N6xx_HAL_Driver/Src/stm32n6xx_hal_dma.c ****   }
 3224              		.loc 1 905 5 is_stmt 0 view .LVU907
 3225 00f6 DA60     		str	r2, [r3, #12]
 3226              	.L176:
 930:../STM32Cube_FW_N6/Drivers/STM32N6xx_HAL_Driver/Src/stm32n6xx_hal_dma.c **** }
 3227              		.loc 1 930 10 view .LVU908
 3228 00f8 0020     		movs	r0, #0
 3229              	.LVL88:
 3230              	.L173:
ARM GAS  /tmp/ccId6s4B.s 			page 98


 931:../STM32Cube_FW_N6/Drivers/STM32N6xx_HAL_Driver/Src/stm32n6xx_hal_dma.c **** 
 3231              		.loc 1 931 1 view .LVU909
 3232 00fa BDE8F081 		pop	{r4, r5, r6, r7, r8, pc}
 3233              	.LVL89:
 3234              	.L172:
 907:../STM32Cube_FW_N6/Drivers/STM32N6xx_HAL_Driver/Src/stm32n6xx_hal_dma.c ****   {
 3235              		.loc 1 907 8 is_stmt 1 view .LVU910
 907:../STM32Cube_FW_N6/Drivers/STM32N6xx_HAL_Driver/Src/stm32n6xx_hal_dma.c ****   {
 3236              		.loc 1 907 11 is_stmt 0 view .LVU911
 3237 00fe 002D     		cmp	r5, #0
 3238 0100 A0D1     		bne	.L157
 910:../STM32Cube_FW_N6/Drivers/STM32N6xx_HAL_Driver/Src/stm32n6xx_hal_dma.c **** 
 3239              		.loc 1 910 5 is_stmt 1 view .LVU912
 3240 0102 4FF44072 		mov	r2, #768
 3241 0106 2368     		ldr	r3, [r4]
 3242              	.LVL90:
 910:../STM32Cube_FW_N6/Drivers/STM32N6xx_HAL_Driver/Src/stm32n6xx_hal_dma.c **** 
 3243              		.loc 1 910 5 is_stmt 0 view .LVU913
 3244 0108 DA60     		str	r2, [r3, #12]
 913:../STM32Cube_FW_N6/Drivers/STM32N6xx_HAL_Driver/Src/stm32n6xx_hal_dma.c **** 
 3245              		.loc 1 913 5 is_stmt 1 view .LVU914
 913:../STM32Cube_FW_N6/Drivers/STM32N6xx_HAL_Driver/Src/stm32n6xx_hal_dma.c **** 
 3246              		.loc 1 913 17 is_stmt 0 view .LVU915
 3247 010a 0123     		movs	r3, #1
 916:../STM32Cube_FW_N6/Drivers/STM32N6xx_HAL_Driver/Src/stm32n6xx_hal_dma.c ****     {
 3248              		.loc 1 916 21 view .LVU916
 3249 010c 226D     		ldr	r2, [r4, #80]
 913:../STM32Cube_FW_N6/Drivers/STM32N6xx_HAL_Driver/Src/stm32n6xx_hal_dma.c **** 
 3250              		.loc 1 913 17 view .LVU917
 3251 010e 84F85430 		strb	r3, [r4, #84]
 916:../STM32Cube_FW_N6/Drivers/STM32N6xx_HAL_Driver/Src/stm32n6xx_hal_dma.c ****     {
 3252              		.loc 1 916 5 is_stmt 1 view .LVU918
 916:../STM32Cube_FW_N6/Drivers/STM32N6xx_HAL_Driver/Src/stm32n6xx_hal_dma.c ****     {
 3253              		.loc 1 916 8 is_stmt 0 view .LVU919
 3254 0112 1206     		lsls	r2, r2, #24
 919:../STM32Cube_FW_N6/Drivers/STM32N6xx_HAL_Driver/Src/stm32n6xx_hal_dma.c ****     }
 3255              		.loc 1 919 7 is_stmt 1 view .LVU920
 919:../STM32Cube_FW_N6/Drivers/STM32N6xx_HAL_Driver/Src/stm32n6xx_hal_dma.c ****     }
 3256              		.loc 1 919 11 is_stmt 0 view .LVU921
 3257 0114 44BF     		itt	mi
 3258 0116 626F     		ldrmi	r2, [r4, #116]
 919:../STM32Cube_FW_N6/Drivers/STM32N6xx_HAL_Driver/Src/stm32n6xx_hal_dma.c ****     }
 3259              		.loc 1 919 36 view .LVU922
 3260 0118 1373     		strbmi	r3, [r2, #12]
 923:../STM32Cube_FW_N6/Drivers/STM32N6xx_HAL_Driver/Src/stm32n6xx_hal_dma.c ****   }
 3261              		.loc 1 923 5 is_stmt 1 view .LVU923
 923:../STM32Cube_FW_N6/Drivers/STM32N6xx_HAL_Driver/Src/stm32n6xx_hal_dma.c ****   }
 3262              		.loc 1 923 5 view .LVU924
 3263 011a 0023     		movs	r3, #0
 3264 011c 84F84C30 		strb	r3, [r4, #76]
 923:../STM32Cube_FW_N6/Drivers/STM32N6xx_HAL_Driver/Src/stm32n6xx_hal_dma.c ****   }
 3265              		.loc 1 923 5 view .LVU925
 3266 0120 EAE7     		b	.L176
 3267              	.L200:
 3268 0122 00BF     		.align	2
 3269              	.L199:
 3270 0124 00000000 		.word	.LC0
ARM GAS  /tmp/ccId6s4B.s 			page 99


 3271              		.cfi_endproc
 3272              	.LFE887:
 3274              		.section	.text.HAL_DMA_IRQHandler,"ax",%progbits
 3275              		.align	1
 3276              		.global	HAL_DMA_IRQHandler
 3277              		.syntax unified
 3278              		.thumb
 3279              		.thumb_func
 3281              	HAL_DMA_IRQHandler:
 3282              	.LVL91:
 3283              	.LFB888:
 940:../STM32Cube_FW_N6/Drivers/STM32N6xx_HAL_Driver/Src/stm32n6xx_hal_dma.c ****   const DMA_TypeDef *p_dma_instance = GET_DMA_INSTANCE(hdma);
 3284              		.loc 1 940 1 view -0
 3285              		.cfi_startproc
 3286              		@ args = 0, pretend = 0, frame = 0
 3287              		@ frame_needed = 0, uses_anonymous_args = 0
 941:../STM32Cube_FW_N6/Drivers/STM32N6xx_HAL_Driver/Src/stm32n6xx_hal_dma.c ****   uint32_t global_it_flag =  1UL << (GET_DMA_CHANNEL(hdma) & 0x1FU);
 3288              		.loc 1 941 3 view .LVU927
 941:../STM32Cube_FW_N6/Drivers/STM32N6xx_HAL_Driver/Src/stm32n6xx_hal_dma.c ****   uint32_t global_it_flag =  1UL << (GET_DMA_CHANNEL(hdma) & 0x1FU);
 3289              		.loc 1 941 39 is_stmt 0 view .LVU928
 3290 0000 0368     		ldr	r3, [r0]
 940:../STM32Cube_FW_N6/Drivers/STM32N6xx_HAL_Driver/Src/stm32n6xx_hal_dma.c ****   const DMA_TypeDef *p_dma_instance = GET_DMA_INSTANCE(hdma);
 3291              		.loc 1 940 1 view .LVU929
 3292 0002 70B5     		push	{r4, r5, r6, lr}
 3293              		.cfi_def_cfa_offset 16
 3294              		.cfi_offset 4, -16
 3295              		.cfi_offset 5, -12
 3296              		.cfi_offset 6, -8
 3297              		.cfi_offset 14, -4
 940:../STM32Cube_FW_N6/Drivers/STM32N6xx_HAL_Driver/Src/stm32n6xx_hal_dma.c ****   const DMA_TypeDef *p_dma_instance = GET_DMA_INSTANCE(hdma);
 3298              		.loc 1 940 1 view .LVU930
 3299 0004 0446     		mov	r4, r0
 942:../STM32Cube_FW_N6/Drivers/STM32N6xx_HAL_Driver/Src/stm32n6xx_hal_dma.c ****   uint32_t global_active_flag_ns = IS_DMA_GLOBAL_ACTIVE_FLAG_NS(p_dma_instance, global_it_flag);
 3300              		.loc 1 942 12 view .LVU931
 3301 0006 0120     		movs	r0, #1
 3302              	.LVL92:
 941:../STM32Cube_FW_N6/Drivers/STM32N6xx_HAL_Driver/Src/stm32n6xx_hal_dma.c ****   uint32_t global_it_flag =  1UL << (GET_DMA_CHANNEL(hdma) & 0x1FU);
 3303              		.loc 1 941 39 view .LVU932
 3304 0008 23F47F62 		bic	r2, r3, #4080
 3305 000c 22F00F02 		bic	r2, r2, #15
 3306              	.LVL93:
 942:../STM32Cube_FW_N6/Drivers/STM32N6xx_HAL_Driver/Src/stm32n6xx_hal_dma.c ****   uint32_t global_active_flag_ns = IS_DMA_GLOBAL_ACTIVE_FLAG_NS(p_dma_instance, global_it_flag);
 3307              		.loc 1 942 3 is_stmt 1 view .LVU933
 943:../STM32Cube_FW_N6/Drivers/STM32N6xx_HAL_Driver/Src/stm32n6xx_hal_dma.c **** #if defined (CPU_IN_SECURE_STATE)
 3308              		.loc 1 943 3 view .LVU934
 943:../STM32Cube_FW_N6/Drivers/STM32N6xx_HAL_Driver/Src/stm32n6xx_hal_dma.c **** #if defined (CPU_IN_SECURE_STATE)
 3309              		.loc 1 943 36 is_stmt 0 view .LVU935
 3310 0010 D168     		ldr	r1, [r2, #12]
 3311              	.LVL94:
 945:../STM32Cube_FW_N6/Drivers/STM32N6xx_HAL_Driver/Src/stm32n6xx_hal_dma.c **** #endif /* CPU_IN_SECURE_STATE */
 3312              		.loc 1 945 3 is_stmt 1 view .LVU936
 945:../STM32Cube_FW_N6/Drivers/STM32N6xx_HAL_Driver/Src/stm32n6xx_hal_dma.c **** #endif /* CPU_IN_SECURE_STATE */
 3313              		.loc 1 945 35 is_stmt 0 view .LVU937
 3314 0012 1569     		ldr	r5, [r2, #16]
 3315              	.LVL95:
 950:../STM32Cube_FW_N6/Drivers/STM32N6xx_HAL_Driver/Src/stm32n6xx_hal_dma.c **** #else
 3316              		.loc 1 950 3 is_stmt 1 view .LVU938
ARM GAS  /tmp/ccId6s4B.s 			page 100


 942:../STM32Cube_FW_N6/Drivers/STM32N6xx_HAL_Driver/Src/stm32n6xx_hal_dma.c ****   uint32_t global_active_flag_ns = IS_DMA_GLOBAL_ACTIVE_FLAG_NS(p_dma_instance, global_it_flag);
 3317              		.loc 1 942 38 is_stmt 0 view .LVU939
 3318 0014 C3F30B02 		ubfx	r2, r3, #0, #12
 3319              	.LVL96:
 942:../STM32Cube_FW_N6/Drivers/STM32N6xx_HAL_Driver/Src/stm32n6xx_hal_dma.c ****   uint32_t global_active_flag_ns = IS_DMA_GLOBAL_ACTIVE_FLAG_NS(p_dma_instance, global_it_flag);
 3320              		.loc 1 942 38 view .LVU940
 3321 0018 503A     		subs	r2, r2, #80
 942:../STM32Cube_FW_N6/Drivers/STM32N6xx_HAL_Driver/Src/stm32n6xx_hal_dma.c ****   uint32_t global_active_flag_ns = IS_DMA_GLOBAL_ACTIVE_FLAG_NS(p_dma_instance, global_it_flag);
 3322              		.loc 1 942 60 view .LVU941
 3323 001a C2F3C412 		ubfx	r2, r2, #7, #5
 942:../STM32Cube_FW_N6/Drivers/STM32N6xx_HAL_Driver/Src/stm32n6xx_hal_dma.c ****   uint32_t global_active_flag_ns = IS_DMA_GLOBAL_ACTIVE_FLAG_NS(p_dma_instance, global_it_flag);
 3324              		.loc 1 942 12 view .LVU942
 3325 001e 9040     		lsls	r0, r0, r2
 950:../STM32Cube_FW_N6/Drivers/STM32N6xx_HAL_Driver/Src/stm32n6xx_hal_dma.c **** #else
 3326              		.loc 1 950 36 discriminator 1 view .LVU943
 3327 0020 41EA0502 		orr	r2, r1, r5
 3328 0024 1042     		tst	r0, r2
 3329 0026 00F0AC80 		beq	.L201
 959:../STM32Cube_FW_N6/Drivers/STM32N6xx_HAL_Driver/Src/stm32n6xx_hal_dma.c ****   {
 3330              		.loc 1 959 3 is_stmt 1 view .LVU944
 959:../STM32Cube_FW_N6/Drivers/STM32N6xx_HAL_Driver/Src/stm32n6xx_hal_dma.c ****   {
 3331              		.loc 1 959 7 is_stmt 0 view .LVU945
 3332 002a 1A69     		ldr	r2, [r3, #16]
 959:../STM32Cube_FW_N6/Drivers/STM32N6xx_HAL_Driver/Src/stm32n6xx_hal_dma.c ****   {
 3333              		.loc 1 959 6 view .LVU946
 3334 002c 5105     		lsls	r1, r2, #21
 3335              	.LVL97:
 959:../STM32Cube_FW_N6/Drivers/STM32N6xx_HAL_Driver/Src/stm32n6xx_hal_dma.c ****   {
 3336              		.loc 1 959 6 view .LVU947
 3337 002e 09D5     		bpl	.L204
 962:../STM32Cube_FW_N6/Drivers/STM32N6xx_HAL_Driver/Src/stm32n6xx_hal_dma.c ****     {
 3338              		.loc 1 962 5 is_stmt 1 view .LVU948
 962:../STM32Cube_FW_N6/Drivers/STM32N6xx_HAL_Driver/Src/stm32n6xx_hal_dma.c ****     {
 3339              		.loc 1 962 9 is_stmt 0 view .LVU949
 3340 0030 5A69     		ldr	r2, [r3, #20]
 962:../STM32Cube_FW_N6/Drivers/STM32N6xx_HAL_Driver/Src/stm32n6xx_hal_dma.c ****     {
 3341              		.loc 1 962 8 view .LVU950
 3342 0032 5205     		lsls	r2, r2, #21
 3343 0034 06D5     		bpl	.L204
 965:../STM32Cube_FW_N6/Drivers/STM32N6xx_HAL_Driver/Src/stm32n6xx_hal_dma.c **** 
 3344              		.loc 1 965 7 is_stmt 1 view .LVU951
 3345 0036 4FF48062 		mov	r2, #1024
 3346 003a DA60     		str	r2, [r3, #12]
 968:../STM32Cube_FW_N6/Drivers/STM32N6xx_HAL_Driver/Src/stm32n6xx_hal_dma.c ****     }
 3347              		.loc 1 968 7 view .LVU952
 968:../STM32Cube_FW_N6/Drivers/STM32N6xx_HAL_Driver/Src/stm32n6xx_hal_dma.c ****     }
 3348              		.loc 1 968 11 is_stmt 0 view .LVU953
 3349 003c A26D     		ldr	r2, [r4, #88]
 968:../STM32Cube_FW_N6/Drivers/STM32N6xx_HAL_Driver/Src/stm32n6xx_hal_dma.c ****     }
 3350              		.loc 1 968 23 view .LVU954
 3351 003e 42F00102 		orr	r2, r2, #1
 3352 0042 A265     		str	r2, [r4, #88]
 3353              	.L204:
 973:../STM32Cube_FW_N6/Drivers/STM32N6xx_HAL_Driver/Src/stm32n6xx_hal_dma.c ****   {
 3354              		.loc 1 973 3 is_stmt 1 view .LVU955
 973:../STM32Cube_FW_N6/Drivers/STM32N6xx_HAL_Driver/Src/stm32n6xx_hal_dma.c ****   {
 3355              		.loc 1 973 7 is_stmt 0 view .LVU956
ARM GAS  /tmp/ccId6s4B.s 			page 101


 3356 0044 1A69     		ldr	r2, [r3, #16]
 973:../STM32Cube_FW_N6/Drivers/STM32N6xx_HAL_Driver/Src/stm32n6xx_hal_dma.c ****   {
 3357              		.loc 1 973 6 view .LVU957
 3358 0046 1605     		lsls	r6, r2, #20
 3359 0048 09D5     		bpl	.L205
 976:../STM32Cube_FW_N6/Drivers/STM32N6xx_HAL_Driver/Src/stm32n6xx_hal_dma.c ****     {
 3360              		.loc 1 976 5 is_stmt 1 view .LVU958
 976:../STM32Cube_FW_N6/Drivers/STM32N6xx_HAL_Driver/Src/stm32n6xx_hal_dma.c ****     {
 3361              		.loc 1 976 9 is_stmt 0 view .LVU959
 3362 004a 5A69     		ldr	r2, [r3, #20]
 976:../STM32Cube_FW_N6/Drivers/STM32N6xx_HAL_Driver/Src/stm32n6xx_hal_dma.c ****     {
 3363              		.loc 1 976 8 view .LVU960
 3364 004c 1505     		lsls	r5, r2, #20
 3365              	.LVL98:
 976:../STM32Cube_FW_N6/Drivers/STM32N6xx_HAL_Driver/Src/stm32n6xx_hal_dma.c ****     {
 3366              		.loc 1 976 8 view .LVU961
 3367 004e 06D5     		bpl	.L205
 979:../STM32Cube_FW_N6/Drivers/STM32N6xx_HAL_Driver/Src/stm32n6xx_hal_dma.c **** 
 3368              		.loc 1 979 7 is_stmt 1 view .LVU962
 3369 0050 4FF40062 		mov	r2, #2048
 3370 0054 DA60     		str	r2, [r3, #12]
 982:../STM32Cube_FW_N6/Drivers/STM32N6xx_HAL_Driver/Src/stm32n6xx_hal_dma.c ****     }
 3371              		.loc 1 982 7 view .LVU963
 982:../STM32Cube_FW_N6/Drivers/STM32N6xx_HAL_Driver/Src/stm32n6xx_hal_dma.c ****     }
 3372              		.loc 1 982 11 is_stmt 0 view .LVU964
 3373 0056 A26D     		ldr	r2, [r4, #88]
 982:../STM32Cube_FW_N6/Drivers/STM32N6xx_HAL_Driver/Src/stm32n6xx_hal_dma.c ****     }
 3374              		.loc 1 982 23 view .LVU965
 3375 0058 42F00202 		orr	r2, r2, #2
 3376 005c A265     		str	r2, [r4, #88]
 3377              	.L205:
 987:../STM32Cube_FW_N6/Drivers/STM32N6xx_HAL_Driver/Src/stm32n6xx_hal_dma.c ****   {
 3378              		.loc 1 987 3 is_stmt 1 view .LVU966
 987:../STM32Cube_FW_N6/Drivers/STM32N6xx_HAL_Driver/Src/stm32n6xx_hal_dma.c ****   {
 3379              		.loc 1 987 7 is_stmt 0 view .LVU967
 3380 005e 1A69     		ldr	r2, [r3, #16]
 987:../STM32Cube_FW_N6/Drivers/STM32N6xx_HAL_Driver/Src/stm32n6xx_hal_dma.c ****   {
 3381              		.loc 1 987 6 view .LVU968
 3382 0060 D004     		lsls	r0, r2, #19
 3383 0062 09D5     		bpl	.L206
 990:../STM32Cube_FW_N6/Drivers/STM32N6xx_HAL_Driver/Src/stm32n6xx_hal_dma.c ****     {
 3384              		.loc 1 990 5 is_stmt 1 view .LVU969
 990:../STM32Cube_FW_N6/Drivers/STM32N6xx_HAL_Driver/Src/stm32n6xx_hal_dma.c ****     {
 3385              		.loc 1 990 9 is_stmt 0 view .LVU970
 3386 0064 5A69     		ldr	r2, [r3, #20]
 990:../STM32Cube_FW_N6/Drivers/STM32N6xx_HAL_Driver/Src/stm32n6xx_hal_dma.c ****     {
 3387              		.loc 1 990 8 view .LVU971
 3388 0066 D104     		lsls	r1, r2, #19
 3389 0068 06D5     		bpl	.L206
 993:../STM32Cube_FW_N6/Drivers/STM32N6xx_HAL_Driver/Src/stm32n6xx_hal_dma.c **** 
 3390              		.loc 1 993 7 is_stmt 1 view .LVU972
 3391 006a 4FF48052 		mov	r2, #4096
 3392 006e DA60     		str	r2, [r3, #12]
 996:../STM32Cube_FW_N6/Drivers/STM32N6xx_HAL_Driver/Src/stm32n6xx_hal_dma.c ****     }
 3393              		.loc 1 996 7 view .LVU973
 996:../STM32Cube_FW_N6/Drivers/STM32N6xx_HAL_Driver/Src/stm32n6xx_hal_dma.c ****     }
 3394              		.loc 1 996 11 is_stmt 0 view .LVU974
ARM GAS  /tmp/ccId6s4B.s 			page 102


 3395 0070 A26D     		ldr	r2, [r4, #88]
 996:../STM32Cube_FW_N6/Drivers/STM32N6xx_HAL_Driver/Src/stm32n6xx_hal_dma.c ****     }
 3396              		.loc 1 996 23 view .LVU975
 3397 0072 42F00402 		orr	r2, r2, #4
 3398 0076 A265     		str	r2, [r4, #88]
 3399              	.L206:
1001:../STM32Cube_FW_N6/Drivers/STM32N6xx_HAL_Driver/Src/stm32n6xx_hal_dma.c ****   {
 3400              		.loc 1 1001 3 is_stmt 1 view .LVU976
1001:../STM32Cube_FW_N6/Drivers/STM32N6xx_HAL_Driver/Src/stm32n6xx_hal_dma.c ****   {
 3401              		.loc 1 1001 7 is_stmt 0 view .LVU977
 3402 0078 1A69     		ldr	r2, [r3, #16]
1001:../STM32Cube_FW_N6/Drivers/STM32N6xx_HAL_Driver/Src/stm32n6xx_hal_dma.c ****   {
 3403              		.loc 1 1001 6 view .LVU978
 3404 007a 5204     		lsls	r2, r2, #17
 3405 007c 09D5     		bpl	.L207
1004:../STM32Cube_FW_N6/Drivers/STM32N6xx_HAL_Driver/Src/stm32n6xx_hal_dma.c ****     {
 3406              		.loc 1 1004 5 is_stmt 1 view .LVU979
1004:../STM32Cube_FW_N6/Drivers/STM32N6xx_HAL_Driver/Src/stm32n6xx_hal_dma.c ****     {
 3407              		.loc 1 1004 9 is_stmt 0 view .LVU980
 3408 007e 5A69     		ldr	r2, [r3, #20]
1004:../STM32Cube_FW_N6/Drivers/STM32N6xx_HAL_Driver/Src/stm32n6xx_hal_dma.c ****     {
 3409              		.loc 1 1004 8 view .LVU981
 3410 0080 5604     		lsls	r6, r2, #17
 3411 0082 06D5     		bpl	.L207
1007:../STM32Cube_FW_N6/Drivers/STM32N6xx_HAL_Driver/Src/stm32n6xx_hal_dma.c **** 
 3412              		.loc 1 1007 7 is_stmt 1 view .LVU982
 3413 0084 4FF48042 		mov	r2, #16384
 3414 0088 DA60     		str	r2, [r3, #12]
1010:../STM32Cube_FW_N6/Drivers/STM32N6xx_HAL_Driver/Src/stm32n6xx_hal_dma.c ****     }
 3415              		.loc 1 1010 7 view .LVU983
1010:../STM32Cube_FW_N6/Drivers/STM32N6xx_HAL_Driver/Src/stm32n6xx_hal_dma.c ****     }
 3416              		.loc 1 1010 11 is_stmt 0 view .LVU984
 3417 008a A26D     		ldr	r2, [r4, #88]
1010:../STM32Cube_FW_N6/Drivers/STM32N6xx_HAL_Driver/Src/stm32n6xx_hal_dma.c ****     }
 3418              		.loc 1 1010 23 view .LVU985
 3419 008c 42F00802 		orr	r2, r2, #8
 3420 0090 A265     		str	r2, [r4, #88]
 3421              	.L207:
1015:../STM32Cube_FW_N6/Drivers/STM32N6xx_HAL_Driver/Src/stm32n6xx_hal_dma.c ****   {
 3422              		.loc 1 1015 3 is_stmt 1 view .LVU986
1015:../STM32Cube_FW_N6/Drivers/STM32N6xx_HAL_Driver/Src/stm32n6xx_hal_dma.c ****   {
 3423              		.loc 1 1015 7 is_stmt 0 view .LVU987
 3424 0092 1A69     		ldr	r2, [r3, #16]
1015:../STM32Cube_FW_N6/Drivers/STM32N6xx_HAL_Driver/Src/stm32n6xx_hal_dma.c ****   {
 3425              		.loc 1 1015 6 view .LVU988
 3426 0094 9505     		lsls	r5, r2, #22
 3427 0096 09D5     		bpl	.L209
1018:../STM32Cube_FW_N6/Drivers/STM32N6xx_HAL_Driver/Src/stm32n6xx_hal_dma.c ****     {
 3428              		.loc 1 1018 5 is_stmt 1 view .LVU989
1018:../STM32Cube_FW_N6/Drivers/STM32N6xx_HAL_Driver/Src/stm32n6xx_hal_dma.c ****     {
 3429              		.loc 1 1018 9 is_stmt 0 view .LVU990
 3430 0098 5A69     		ldr	r2, [r3, #20]
1018:../STM32Cube_FW_N6/Drivers/STM32N6xx_HAL_Driver/Src/stm32n6xx_hal_dma.c ****     {
 3431              		.loc 1 1018 8 view .LVU991
 3432 009a 9005     		lsls	r0, r2, #22
 3433 009c 06D5     		bpl	.L209
1021:../STM32Cube_FW_N6/Drivers/STM32N6xx_HAL_Driver/Src/stm32n6xx_hal_dma.c **** 
ARM GAS  /tmp/ccId6s4B.s 			page 103


 3434              		.loc 1 1021 7 is_stmt 1 view .LVU992
 3435 009e 4FF40072 		mov	r2, #512
 3436 00a2 DA60     		str	r2, [r3, #12]
1024:../STM32Cube_FW_N6/Drivers/STM32N6xx_HAL_Driver/Src/stm32n6xx_hal_dma.c ****       {
 3437              		.loc 1 1024 7 view .LVU993
1024:../STM32Cube_FW_N6/Drivers/STM32N6xx_HAL_Driver/Src/stm32n6xx_hal_dma.c ****       {
 3438              		.loc 1 1024 15 is_stmt 0 view .LVU994
 3439 00a4 636E     		ldr	r3, [r4, #100]
 3440              	.LVL99:
1024:../STM32Cube_FW_N6/Drivers/STM32N6xx_HAL_Driver/Src/stm32n6xx_hal_dma.c ****       {
 3441              		.loc 1 1024 10 view .LVU995
 3442 00a6 0BB1     		cbz	r3, .L209
1027:../STM32Cube_FW_N6/Drivers/STM32N6xx_HAL_Driver/Src/stm32n6xx_hal_dma.c ****       }
 3443              		.loc 1 1027 9 is_stmt 1 view .LVU996
 3444 00a8 2046     		mov	r0, r4
 3445 00aa 9847     		blx	r3
 3446              	.LVL100:
 3447              	.L209:
1033:../STM32Cube_FW_N6/Drivers/STM32N6xx_HAL_Driver/Src/stm32n6xx_hal_dma.c ****   {
 3448              		.loc 1 1033 3 view .LVU997
1033:../STM32Cube_FW_N6/Drivers/STM32N6xx_HAL_Driver/Src/stm32n6xx_hal_dma.c ****   {
 3449              		.loc 1 1033 7 is_stmt 0 view .LVU998
 3450 00ac 2368     		ldr	r3, [r4]
 3451 00ae 1A69     		ldr	r2, [r3, #16]
1033:../STM32Cube_FW_N6/Drivers/STM32N6xx_HAL_Driver/Src/stm32n6xx_hal_dma.c ****   {
 3452              		.loc 1 1033 6 view .LVU999
 3453 00b0 9104     		lsls	r1, r2, #18
 3454 00b2 2ED5     		bpl	.L212
1036:../STM32Cube_FW_N6/Drivers/STM32N6xx_HAL_Driver/Src/stm32n6xx_hal_dma.c ****     {
 3455              		.loc 1 1036 5 is_stmt 1 view .LVU1000
1036:../STM32Cube_FW_N6/Drivers/STM32N6xx_HAL_Driver/Src/stm32n6xx_hal_dma.c ****     {
 3456              		.loc 1 1036 9 is_stmt 0 view .LVU1001
 3457 00b4 5A69     		ldr	r2, [r3, #20]
1036:../STM32Cube_FW_N6/Drivers/STM32N6xx_HAL_Driver/Src/stm32n6xx_hal_dma.c ****     {
 3458              		.loc 1 1036 8 view .LVU1002
 3459 00b6 9204     		lsls	r2, r2, #18
 3460 00b8 2BD5     		bpl	.L212
1039:../STM32Cube_FW_N6/Drivers/STM32N6xx_HAL_Driver/Src/stm32n6xx_hal_dma.c **** 
 3461              		.loc 1 1039 7 is_stmt 1 view .LVU1003
 3462 00ba 4FF40052 		mov	r2, #8192
 3463 00be DA60     		str	r2, [r3, #12]
1042:../STM32Cube_FW_N6/Drivers/STM32N6xx_HAL_Driver/Src/stm32n6xx_hal_dma.c ****       {
 3464              		.loc 1 1042 7 view .LVU1004
1042:../STM32Cube_FW_N6/Drivers/STM32N6xx_HAL_Driver/Src/stm32n6xx_hal_dma.c ****       {
 3465              		.loc 1 1042 15 is_stmt 0 view .LVU1005
 3466 00c0 94F85420 		ldrb	r2, [r4, #84]	@ zero_extendqisi2
1042:../STM32Cube_FW_N6/Drivers/STM32N6xx_HAL_Driver/Src/stm32n6xx_hal_dma.c ****       {
 3467              		.loc 1 1042 10 view .LVU1006
 3468 00c4 042A     		cmp	r2, #4
 3469 00c6 1DD1     		bne	.L214
1045:../STM32Cube_FW_N6/Drivers/STM32N6xx_HAL_Driver/Src/stm32n6xx_hal_dma.c **** 
 3470              		.loc 1 1045 9 is_stmt 1 view .LVU1007
 3471 00c8 5A69     		ldr	r2, [r3, #20]
1054:../STM32Cube_FW_N6/Drivers/STM32N6xx_HAL_Driver/Src/stm32n6xx_hal_dma.c ****         {
 3472              		.loc 1 1054 25 is_stmt 0 view .LVU1008
 3473 00ca 216D     		ldr	r1, [r4, #80]
1045:../STM32Cube_FW_N6/Drivers/STM32N6xx_HAL_Driver/Src/stm32n6xx_hal_dma.c **** 
ARM GAS  /tmp/ccId6s4B.s 			page 104


 3474              		.loc 1 1045 9 view .LVU1009
 3475 00cc 22F40052 		bic	r2, r2, #8192
 3476 00d0 5A61     		str	r2, [r3, #20]
1048:../STM32Cube_FW_N6/Drivers/STM32N6xx_HAL_Driver/Src/stm32n6xx_hal_dma.c **** 
 3477              		.loc 1 1048 9 is_stmt 1 view .LVU1010
1048:../STM32Cube_FW_N6/Drivers/STM32N6xx_HAL_Driver/Src/stm32n6xx_hal_dma.c **** 
 3478              		.loc 1 1048 23 is_stmt 0 view .LVU1011
 3479 00d2 5A69     		ldr	r2, [r3, #20]
1054:../STM32Cube_FW_N6/Drivers/STM32N6xx_HAL_Driver/Src/stm32n6xx_hal_dma.c ****         {
 3480              		.loc 1 1054 12 view .LVU1012
 3481 00d4 0E06     		lsls	r6, r1, #24
1048:../STM32Cube_FW_N6/Drivers/STM32N6xx_HAL_Driver/Src/stm32n6xx_hal_dma.c **** 
 3482              		.loc 1 1048 29 view .LVU1013
 3483 00d6 42F00202 		orr	r2, r2, #2
 3484 00da 5A61     		str	r2, [r3, #20]
1051:../STM32Cube_FW_N6/Drivers/STM32N6xx_HAL_Driver/Src/stm32n6xx_hal_dma.c **** 
 3485              		.loc 1 1051 9 is_stmt 1 view .LVU1014
1051:../STM32Cube_FW_N6/Drivers/STM32N6xx_HAL_Driver/Src/stm32n6xx_hal_dma.c **** 
 3486              		.loc 1 1051 21 is_stmt 0 view .LVU1015
 3487 00dc 4FF00102 		mov	r2, #1
1057:../STM32Cube_FW_N6/Drivers/STM32N6xx_HAL_Driver/Src/stm32n6xx_hal_dma.c **** 
 3488              		.loc 1 1057 15 view .LVU1016
 3489 00e0 48BF     		it	mi
 3490 00e2 616F     		ldrmi	r1, [r4, #116]
1051:../STM32Cube_FW_N6/Drivers/STM32N6xx_HAL_Driver/Src/stm32n6xx_hal_dma.c **** 
 3491              		.loc 1 1051 21 view .LVU1017
 3492 00e4 84F85420 		strb	r2, [r4, #84]
1054:../STM32Cube_FW_N6/Drivers/STM32N6xx_HAL_Driver/Src/stm32n6xx_hal_dma.c ****         {
 3493              		.loc 1 1054 9 is_stmt 1 view .LVU1018
1057:../STM32Cube_FW_N6/Drivers/STM32N6xx_HAL_Driver/Src/stm32n6xx_hal_dma.c **** 
 3494              		.loc 1 1057 11 view .LVU1019
1057:../STM32Cube_FW_N6/Drivers/STM32N6xx_HAL_Driver/Src/stm32n6xx_hal_dma.c **** 
 3495              		.loc 1 1057 40 is_stmt 0 view .LVU1020
 3496 00e8 42BF     		ittt	mi
 3497 00ea 0A73     		strbmi	r2, [r1, #12]
1060:../STM32Cube_FW_N6/Drivers/STM32N6xx_HAL_Driver/Src/stm32n6xx_hal_dma.c ****         }
 3498              		.loc 1 1060 11 is_stmt 1 view .LVU1021
1060:../STM32Cube_FW_N6/Drivers/STM32N6xx_HAL_Driver/Src/stm32n6xx_hal_dma.c ****         }
 3499              		.loc 1 1060 32 is_stmt 0 view .LVU1022
 3500 00ec 0022     		movmi	r2, #0
 3501 00ee 9A64     		strmi	r2, [r3, #72]
1064:../STM32Cube_FW_N6/Drivers/STM32N6xx_HAL_Driver/Src/stm32n6xx_hal_dma.c **** 
 3502              		.loc 1 1064 9 is_stmt 1 view .LVU1023
1064:../STM32Cube_FW_N6/Drivers/STM32N6xx_HAL_Driver/Src/stm32n6xx_hal_dma.c **** 
 3503              		.loc 1 1064 9 view .LVU1024
 3504 00f0 0023     		movs	r3, #0
 3505 00f2 84F84C30 		strb	r3, [r4, #76]
1064:../STM32Cube_FW_N6/Drivers/STM32N6xx_HAL_Driver/Src/stm32n6xx_hal_dma.c **** 
 3506              		.loc 1 1064 9 view .LVU1025
1067:../STM32Cube_FW_N6/Drivers/STM32N6xx_HAL_Driver/Src/stm32n6xx_hal_dma.c ****         {
 3507              		.loc 1 1067 9 view .LVU1026
1067:../STM32Cube_FW_N6/Drivers/STM32N6xx_HAL_Driver/Src/stm32n6xx_hal_dma.c ****         {
 3508              		.loc 1 1067 17 is_stmt 0 view .LVU1027
 3509 00f6 E36E     		ldr	r3, [r4, #108]
 3510              	.L282:
1157:../STM32Cube_FW_N6/Drivers/STM32N6xx_HAL_Driver/Src/stm32n6xx_hal_dma.c ****     {
 3511              		.loc 1 1157 8 view .LVU1028
ARM GAS  /tmp/ccId6s4B.s 			page 105


 3512 00f8 002B     		cmp	r3, #0
 3513 00fa 42D0     		beq	.L201
1160:../STM32Cube_FW_N6/Drivers/STM32N6xx_HAL_Driver/Src/stm32n6xx_hal_dma.c ****     }
 3514              		.loc 1 1160 7 is_stmt 1 view .LVU1029
 3515 00fc 2046     		mov	r0, r4
1163:../STM32Cube_FW_N6/Drivers/STM32N6xx_HAL_Driver/Src/stm32n6xx_hal_dma.c **** 
 3516              		.loc 1 1163 1 is_stmt 0 view .LVU1030
 3517 00fe BDE87040 		pop	{r4, r5, r6, lr}
 3518              		.cfi_remember_state
 3519              		.cfi_restore 14
 3520              		.cfi_restore 6
 3521              		.cfi_restore 5
 3522              		.cfi_restore 4
 3523              		.cfi_def_cfa_offset 0
 3524              	.LVL101:
1160:../STM32Cube_FW_N6/Drivers/STM32N6xx_HAL_Driver/Src/stm32n6xx_hal_dma.c ****     }
 3525              		.loc 1 1160 7 view .LVU1031
 3526 0102 1847     		bx	r3	@ indirect register sibling call
 3527              	.LVL102:
 3528              	.L214:
 3529              		.cfi_restore_state
1078:../STM32Cube_FW_N6/Drivers/STM32N6xx_HAL_Driver/Src/stm32n6xx_hal_dma.c **** 
 3530              		.loc 1 1078 9 is_stmt 1 view .LVU1032
1078:../STM32Cube_FW_N6/Drivers/STM32N6xx_HAL_Driver/Src/stm32n6xx_hal_dma.c **** 
 3531              		.loc 1 1078 21 is_stmt 0 view .LVU1033
 3532 0104 0523     		movs	r3, #5
 3533 0106 84F85430 		strb	r3, [r4, #84]
1081:../STM32Cube_FW_N6/Drivers/STM32N6xx_HAL_Driver/Src/stm32n6xx_hal_dma.c ****         {
 3534              		.loc 1 1081 9 is_stmt 1 view .LVU1034
1081:../STM32Cube_FW_N6/Drivers/STM32N6xx_HAL_Driver/Src/stm32n6xx_hal_dma.c ****         {
 3535              		.loc 1 1081 17 is_stmt 0 view .LVU1035
 3536 010a 236F     		ldr	r3, [r4, #112]
1081:../STM32Cube_FW_N6/Drivers/STM32N6xx_HAL_Driver/Src/stm32n6xx_hal_dma.c ****         {
 3537              		.loc 1 1081 12 view .LVU1036
 3538 010c 0BB1     		cbz	r3, .L212
1084:../STM32Cube_FW_N6/Drivers/STM32N6xx_HAL_Driver/Src/stm32n6xx_hal_dma.c ****         }
 3539              		.loc 1 1084 11 is_stmt 1 view .LVU1037
 3540 010e 2046     		mov	r0, r4
 3541 0110 9847     		blx	r3
 3542              	.LVL103:
 3543              	.L212:
1091:../STM32Cube_FW_N6/Drivers/STM32N6xx_HAL_Driver/Src/stm32n6xx_hal_dma.c ****   {
 3544              		.loc 1 1091 3 view .LVU1038
1091:../STM32Cube_FW_N6/Drivers/STM32N6xx_HAL_Driver/Src/stm32n6xx_hal_dma.c ****   {
 3545              		.loc 1 1091 7 is_stmt 0 view .LVU1039
 3546 0112 2368     		ldr	r3, [r4]
 3547 0114 1A69     		ldr	r2, [r3, #16]
1091:../STM32Cube_FW_N6/Drivers/STM32N6xx_HAL_Driver/Src/stm32n6xx_hal_dma.c ****   {
 3548              		.loc 1 1091 6 view .LVU1040
 3549 0116 D505     		lsls	r5, r2, #23
 3550 0118 18D5     		bpl	.L218
1094:../STM32Cube_FW_N6/Drivers/STM32N6xx_HAL_Driver/Src/stm32n6xx_hal_dma.c ****     {
 3551              		.loc 1 1094 5 is_stmt 1 view .LVU1041
1094:../STM32Cube_FW_N6/Drivers/STM32N6xx_HAL_Driver/Src/stm32n6xx_hal_dma.c ****     {
 3552              		.loc 1 1094 9 is_stmt 0 view .LVU1042
 3553 011a 5A69     		ldr	r2, [r3, #20]
1094:../STM32Cube_FW_N6/Drivers/STM32N6xx_HAL_Driver/Src/stm32n6xx_hal_dma.c ****     {
ARM GAS  /tmp/ccId6s4B.s 			page 106


 3554              		.loc 1 1094 8 view .LVU1043
 3555 011c D005     		lsls	r0, r2, #23
 3556 011e 15D5     		bpl	.L218
1097:../STM32Cube_FW_N6/Drivers/STM32N6xx_HAL_Driver/Src/stm32n6xx_hal_dma.c ****       {
 3557              		.loc 1 1097 7 is_stmt 1 view .LVU1044
1097:../STM32Cube_FW_N6/Drivers/STM32N6xx_HAL_Driver/Src/stm32n6xx_hal_dma.c ****       {
 3558              		.loc 1 1097 23 is_stmt 0 view .LVU1045
 3559 0120 226D     		ldr	r2, [r4, #80]
1097:../STM32Cube_FW_N6/Drivers/STM32N6xx_HAL_Driver/Src/stm32n6xx_hal_dma.c ****       {
 3560              		.loc 1 1097 10 view .LVU1046
 3561 0122 1106     		lsls	r1, r2, #24
 3562 0124 26D5     		bpl	.L220
1100:../STM32Cube_FW_N6/Drivers/STM32N6xx_HAL_Driver/Src/stm32n6xx_hal_dma.c ****         {
 3563              		.loc 1 1100 9 is_stmt 1 view .LVU1047
1100:../STM32Cube_FW_N6/Drivers/STM32N6xx_HAL_Driver/Src/stm32n6xx_hal_dma.c ****         {
 3564              		.loc 1 1100 27 is_stmt 0 view .LVU1048
 3565 0126 DA6F     		ldr	r2, [r3, #124]
1100:../STM32Cube_FW_N6/Drivers/STM32N6xx_HAL_Driver/Src/stm32n6xx_hal_dma.c ****         {
 3566              		.loc 1 1100 12 view .LVU1049
 3567 0128 32B9     		cbnz	r2, .L221
1102:../STM32Cube_FW_N6/Drivers/STM32N6xx_HAL_Driver/Src/stm32n6xx_hal_dma.c ****           {
 3568              		.loc 1 1102 11 is_stmt 1 view .LVU1050
1102:../STM32Cube_FW_N6/Drivers/STM32N6xx_HAL_Driver/Src/stm32n6xx_hal_dma.c ****           {
 3569              		.loc 1 1102 29 is_stmt 0 view .LVU1051
 3570 012a 9A6C     		ldr	r2, [r3, #72]
1102:../STM32Cube_FW_N6/Drivers/STM32N6xx_HAL_Driver/Src/stm32n6xx_hal_dma.c ****           {
 3571              		.loc 1 1102 14 view .LVU1052
 3572 012c 22B9     		cbnz	r2, .L221
1105:../STM32Cube_FW_N6/Drivers/STM32N6xx_HAL_Driver/Src/stm32n6xx_hal_dma.c **** 
 3573              		.loc 1 1105 13 is_stmt 1 view .LVU1053
1105:../STM32Cube_FW_N6/Drivers/STM32N6xx_HAL_Driver/Src/stm32n6xx_hal_dma.c **** 
 3574              		.loc 1 1105 25 is_stmt 0 view .LVU1054
 3575 012e 0122     		movs	r2, #1
1108:../STM32Cube_FW_N6/Drivers/STM32N6xx_HAL_Driver/Src/stm32n6xx_hal_dma.c ****           }
 3576              		.loc 1 1108 17 view .LVU1055
 3577 0130 616F     		ldr	r1, [r4, #116]
1105:../STM32Cube_FW_N6/Drivers/STM32N6xx_HAL_Driver/Src/stm32n6xx_hal_dma.c **** 
 3578              		.loc 1 1105 25 view .LVU1056
 3579 0132 84F85420 		strb	r2, [r4, #84]
1108:../STM32Cube_FW_N6/Drivers/STM32N6xx_HAL_Driver/Src/stm32n6xx_hal_dma.c ****           }
 3580              		.loc 1 1108 13 is_stmt 1 view .LVU1057
1108:../STM32Cube_FW_N6/Drivers/STM32N6xx_HAL_Driver/Src/stm32n6xx_hal_dma.c ****           }
 3581              		.loc 1 1108 42 is_stmt 0 view .LVU1058
 3582 0136 0A73     		strb	r2, [r1, #12]
 3583              	.L221:
1123:../STM32Cube_FW_N6/Drivers/STM32N6xx_HAL_Driver/Src/stm32n6xx_hal_dma.c **** 
 3584              		.loc 1 1123 7 is_stmt 1 view .LVU1059
 3585 0138 4FF44072 		mov	r2, #768
 3586 013c DA60     		str	r2, [r3, #12]
1126:../STM32Cube_FW_N6/Drivers/STM32N6xx_HAL_Driver/Src/stm32n6xx_hal_dma.c **** 
 3587              		.loc 1 1126 7 view .LVU1060
1126:../STM32Cube_FW_N6/Drivers/STM32N6xx_HAL_Driver/Src/stm32n6xx_hal_dma.c **** 
 3588              		.loc 1 1126 7 view .LVU1061
 3589 013e 0023     		movs	r3, #0
 3590 0140 84F84C30 		strb	r3, [r4, #76]
1126:../STM32Cube_FW_N6/Drivers/STM32N6xx_HAL_Driver/Src/stm32n6xx_hal_dma.c **** 
 3591              		.loc 1 1126 7 view .LVU1062
ARM GAS  /tmp/ccId6s4B.s 			page 107


1129:../STM32Cube_FW_N6/Drivers/STM32N6xx_HAL_Driver/Src/stm32n6xx_hal_dma.c ****       {
 3592              		.loc 1 1129 7 view .LVU1063
1129:../STM32Cube_FW_N6/Drivers/STM32N6xx_HAL_Driver/Src/stm32n6xx_hal_dma.c ****       {
 3593              		.loc 1 1129 15 is_stmt 0 view .LVU1064
 3594 0144 236E     		ldr	r3, [r4, #96]
1129:../STM32Cube_FW_N6/Drivers/STM32N6xx_HAL_Driver/Src/stm32n6xx_hal_dma.c ****       {
 3595              		.loc 1 1129 10 view .LVU1065
 3596 0146 0BB1     		cbz	r3, .L218
1132:../STM32Cube_FW_N6/Drivers/STM32N6xx_HAL_Driver/Src/stm32n6xx_hal_dma.c ****       }
 3597              		.loc 1 1132 9 is_stmt 1 view .LVU1066
 3598 0148 2046     		mov	r0, r4
 3599 014a 9847     		blx	r3
 3600              	.LVL104:
 3601              	.L218:
1138:../STM32Cube_FW_N6/Drivers/STM32N6xx_HAL_Driver/Src/stm32n6xx_hal_dma.c ****   {
 3602              		.loc 1 1138 3 view .LVU1067
1138:../STM32Cube_FW_N6/Drivers/STM32N6xx_HAL_Driver/Src/stm32n6xx_hal_dma.c ****   {
 3603              		.loc 1 1138 11 is_stmt 0 view .LVU1068
 3604 014c A36D     		ldr	r3, [r4, #88]
1138:../STM32Cube_FW_N6/Drivers/STM32N6xx_HAL_Driver/Src/stm32n6xx_hal_dma.c ****   {
 3605              		.loc 1 1138 6 view .LVU1069
 3606 014e C3B1     		cbz	r3, .L201
1141:../STM32Cube_FW_N6/Drivers/STM32N6xx_HAL_Driver/Src/stm32n6xx_hal_dma.c **** 
 3607              		.loc 1 1141 5 is_stmt 1 view .LVU1070
1141:../STM32Cube_FW_N6/Drivers/STM32N6xx_HAL_Driver/Src/stm32n6xx_hal_dma.c **** 
 3608              		.loc 1 1141 9 is_stmt 0 view .LVU1071
 3609 0150 2268     		ldr	r2, [r4]
1141:../STM32Cube_FW_N6/Drivers/STM32N6xx_HAL_Driver/Src/stm32n6xx_hal_dma.c **** 
 3610              		.loc 1 1141 19 view .LVU1072
 3611 0152 5369     		ldr	r3, [r2, #20]
1141:../STM32Cube_FW_N6/Drivers/STM32N6xx_HAL_Driver/Src/stm32n6xx_hal_dma.c **** 
 3612              		.loc 1 1141 25 view .LVU1073
 3613 0154 43F00203 		orr	r3, r3, #2
 3614 0158 5361     		str	r3, [r2, #20]
1144:../STM32Cube_FW_N6/Drivers/STM32N6xx_HAL_Driver/Src/stm32n6xx_hal_dma.c **** 
 3615              		.loc 1 1144 5 is_stmt 1 view .LVU1074
1144:../STM32Cube_FW_N6/Drivers/STM32N6xx_HAL_Driver/Src/stm32n6xx_hal_dma.c **** 
 3616              		.loc 1 1144 17 is_stmt 0 view .LVU1075
 3617 015a 0123     		movs	r3, #1
1147:../STM32Cube_FW_N6/Drivers/STM32N6xx_HAL_Driver/Src/stm32n6xx_hal_dma.c ****     {
 3618              		.loc 1 1147 21 view .LVU1076
 3619 015c 226D     		ldr	r2, [r4, #80]
1144:../STM32Cube_FW_N6/Drivers/STM32N6xx_HAL_Driver/Src/stm32n6xx_hal_dma.c **** 
 3620              		.loc 1 1144 17 view .LVU1077
 3621 015e 84F85430 		strb	r3, [r4, #84]
1147:../STM32Cube_FW_N6/Drivers/STM32N6xx_HAL_Driver/Src/stm32n6xx_hal_dma.c ****     {
 3622              		.loc 1 1147 5 is_stmt 1 view .LVU1078
1147:../STM32Cube_FW_N6/Drivers/STM32N6xx_HAL_Driver/Src/stm32n6xx_hal_dma.c ****     {
 3623              		.loc 1 1147 8 is_stmt 0 view .LVU1079
 3624 0162 1206     		lsls	r2, r2, #24
1150:../STM32Cube_FW_N6/Drivers/STM32N6xx_HAL_Driver/Src/stm32n6xx_hal_dma.c ****     }
 3625              		.loc 1 1150 7 is_stmt 1 view .LVU1080
1150:../STM32Cube_FW_N6/Drivers/STM32N6xx_HAL_Driver/Src/stm32n6xx_hal_dma.c ****     }
 3626              		.loc 1 1150 11 is_stmt 0 view .LVU1081
 3627 0164 44BF     		itt	mi
 3628 0166 626F     		ldrmi	r2, [r4, #116]
1150:../STM32Cube_FW_N6/Drivers/STM32N6xx_HAL_Driver/Src/stm32n6xx_hal_dma.c ****     }
ARM GAS  /tmp/ccId6s4B.s 			page 108


 3629              		.loc 1 1150 36 view .LVU1082
 3630 0168 1373     		strbmi	r3, [r2, #12]
1154:../STM32Cube_FW_N6/Drivers/STM32N6xx_HAL_Driver/Src/stm32n6xx_hal_dma.c **** 
 3631              		.loc 1 1154 5 is_stmt 1 view .LVU1083
1154:../STM32Cube_FW_N6/Drivers/STM32N6xx_HAL_Driver/Src/stm32n6xx_hal_dma.c **** 
 3632              		.loc 1 1154 5 view .LVU1084
 3633 016a 0023     		movs	r3, #0
 3634 016c 84F84C30 		strb	r3, [r4, #76]
1154:../STM32Cube_FW_N6/Drivers/STM32N6xx_HAL_Driver/Src/stm32n6xx_hal_dma.c **** 
 3635              		.loc 1 1154 5 view .LVU1085
1157:../STM32Cube_FW_N6/Drivers/STM32N6xx_HAL_Driver/Src/stm32n6xx_hal_dma.c ****     {
 3636              		.loc 1 1157 5 view .LVU1086
1157:../STM32Cube_FW_N6/Drivers/STM32N6xx_HAL_Driver/Src/stm32n6xx_hal_dma.c ****     {
 3637              		.loc 1 1157 13 is_stmt 0 view .LVU1087
 3638 0170 A36E     		ldr	r3, [r4, #104]
 3639 0172 C1E7     		b	.L282
 3640              	.L220:
1115:../STM32Cube_FW_N6/Drivers/STM32N6xx_HAL_Driver/Src/stm32n6xx_hal_dma.c ****         {
 3641              		.loc 1 1115 9 is_stmt 1 view .LVU1088
1115:../STM32Cube_FW_N6/Drivers/STM32N6xx_HAL_Driver/Src/stm32n6xx_hal_dma.c ****         {
 3642              		.loc 1 1115 27 is_stmt 0 view .LVU1089
 3643 0174 9A6C     		ldr	r2, [r3, #72]
1115:../STM32Cube_FW_N6/Drivers/STM32N6xx_HAL_Driver/Src/stm32n6xx_hal_dma.c ****         {
 3644              		.loc 1 1115 12 view .LVU1090
 3645 0176 002A     		cmp	r2, #0
 3646 0178 DED1     		bne	.L221
1118:../STM32Cube_FW_N6/Drivers/STM32N6xx_HAL_Driver/Src/stm32n6xx_hal_dma.c ****         }
 3647              		.loc 1 1118 11 is_stmt 1 view .LVU1091
1118:../STM32Cube_FW_N6/Drivers/STM32N6xx_HAL_Driver/Src/stm32n6xx_hal_dma.c ****         }
 3648              		.loc 1 1118 23 is_stmt 0 view .LVU1092
 3649 017a 0122     		movs	r2, #1
 3650 017c 84F85420 		strb	r2, [r4, #84]
 3651 0180 DAE7     		b	.L221
 3652              	.L201:
1163:../STM32Cube_FW_N6/Drivers/STM32N6xx_HAL_Driver/Src/stm32n6xx_hal_dma.c **** 
 3653              		.loc 1 1163 1 view .LVU1093
 3654 0182 70BD     		pop	{r4, r5, r6, pc}
1163:../STM32Cube_FW_N6/Drivers/STM32N6xx_HAL_Driver/Src/stm32n6xx_hal_dma.c **** 
 3655              		.loc 1 1163 1 view .LVU1094
 3656              		.cfi_endproc
 3657              	.LFE888:
 3659              		.section	.text.HAL_DMA_RegisterCallback,"ax",%progbits
 3660              		.align	1
 3661              		.global	HAL_DMA_RegisterCallback
 3662              		.syntax unified
 3663              		.thumb
 3664              		.thumb_func
 3666              	HAL_DMA_RegisterCallback:
 3667              	.LVL105:
 3668              	.LFB889:
1178:../STM32Cube_FW_N6/Drivers/STM32N6xx_HAL_Driver/Src/stm32n6xx_hal_dma.c ****   HAL_StatusTypeDef status = HAL_OK;
 3669              		.loc 1 1178 1 is_stmt 1 view -0
 3670              		.cfi_startproc
 3671              		@ args = 0, pretend = 0, frame = 0
 3672              		@ frame_needed = 0, uses_anonymous_args = 0
1179:../STM32Cube_FW_N6/Drivers/STM32N6xx_HAL_Driver/Src/stm32n6xx_hal_dma.c **** 
 3673              		.loc 1 1179 3 view .LVU1096
ARM GAS  /tmp/ccId6s4B.s 			page 109


1182:../STM32Cube_FW_N6/Drivers/STM32N6xx_HAL_Driver/Src/stm32n6xx_hal_dma.c ****   {
 3674              		.loc 1 1182 3 view .LVU1097
1182:../STM32Cube_FW_N6/Drivers/STM32N6xx_HAL_Driver/Src/stm32n6xx_hal_dma.c ****   {
 3675              		.loc 1 1182 6 is_stmt 0 view .LVU1098
 3676 0000 0346     		mov	r3, r0
1178:../STM32Cube_FW_N6/Drivers/STM32N6xx_HAL_Driver/Src/stm32n6xx_hal_dma.c ****   HAL_StatusTypeDef status = HAL_OK;
 3677              		.loc 1 1178 1 view .LVU1099
 3678 0002 10B5     		push	{r4, lr}
 3679              		.cfi_def_cfa_offset 8
 3680              		.cfi_offset 4, -8
 3681              		.cfi_offset 14, -4
1182:../STM32Cube_FW_N6/Drivers/STM32N6xx_HAL_Driver/Src/stm32n6xx_hal_dma.c ****   {
 3682              		.loc 1 1182 6 view .LVU1100
 3683 0004 B0B1     		cbz	r0, .L293
1188:../STM32Cube_FW_N6/Drivers/STM32N6xx_HAL_Driver/Src/stm32n6xx_hal_dma.c ****   {
 3684              		.loc 1 1188 3 is_stmt 1 view .LVU1101
1188:../STM32Cube_FW_N6/Drivers/STM32N6xx_HAL_Driver/Src/stm32n6xx_hal_dma.c ****   {
 3685              		.loc 1 1188 11 is_stmt 0 view .LVU1102
 3686 0006 90F85440 		ldrb	r4, [r0, #84]	@ zero_extendqisi2
1188:../STM32Cube_FW_N6/Drivers/STM32N6xx_HAL_Driver/Src/stm32n6xx_hal_dma.c ****   {
 3687              		.loc 1 1188 6 view .LVU1103
 3688 000a 012C     		cmp	r4, #1
1188:../STM32Cube_FW_N6/Drivers/STM32N6xx_HAL_Driver/Src/stm32n6xx_hal_dma.c ****   {
 3689              		.loc 1 1188 11 view .LVU1104
 3690 000c E0B2     		uxtb	r0, r4
 3691              	.LVL106:
1188:../STM32Cube_FW_N6/Drivers/STM32N6xx_HAL_Driver/Src/stm32n6xx_hal_dma.c ****   {
 3692              		.loc 1 1188 6 view .LVU1105
 3693 000e 11D1     		bne	.L293
1191:../STM32Cube_FW_N6/Drivers/STM32N6xx_HAL_Driver/Src/stm32n6xx_hal_dma.c ****     {
 3694              		.loc 1 1191 5 is_stmt 1 view .LVU1106
 3695 0010 0429     		cmp	r1, #4
 3696 0012 06D8     		bhi	.L284
 3697 0014 DFE801F0 		tbb	[pc, r1]
 3698              	.L286:
 3699 0018 03       		.byte	(.L290-.L286)/2
 3700 0019 06       		.byte	(.L289-.L286)/2
 3701 001a 08       		.byte	(.L288-.L286)/2
 3702 001b 0A       		.byte	(.L287-.L286)/2
 3703 001c 0C       		.byte	(.L285-.L286)/2
 3704 001d 00       		.p2align 1
 3705              	.L290:
1196:../STM32Cube_FW_N6/Drivers/STM32N6xx_HAL_Driver/Src/stm32n6xx_hal_dma.c ****         break;
 3706              		.loc 1 1196 9 view .LVU1107
1196:../STM32Cube_FW_N6/Drivers/STM32N6xx_HAL_Driver/Src/stm32n6xx_hal_dma.c ****         break;
 3707              		.loc 1 1196 32 is_stmt 0 view .LVU1108
 3708 001e 1A66     		str	r2, [r3, #96]
1197:../STM32Cube_FW_N6/Drivers/STM32N6xx_HAL_Driver/Src/stm32n6xx_hal_dma.c ****       }
 3709              		.loc 1 1197 9 is_stmt 1 view .LVU1109
 3710              	.L291:
1179:../STM32Cube_FW_N6/Drivers/STM32N6xx_HAL_Driver/Src/stm32n6xx_hal_dma.c **** 
 3711              		.loc 1 1179 21 is_stmt 0 view .LVU1110
 3712 0020 0020     		movs	r0, #0
 3713              	.L284:
 3714              	.LVL107:
1243:../STM32Cube_FW_N6/Drivers/STM32N6xx_HAL_Driver/Src/stm32n6xx_hal_dma.c **** 
 3715              		.loc 1 1243 1 view .LVU1111
ARM GAS  /tmp/ccId6s4B.s 			page 110


 3716 0022 10BD     		pop	{r4, pc}
 3717              	.LVL108:
 3718              	.L289:
1203:../STM32Cube_FW_N6/Drivers/STM32N6xx_HAL_Driver/Src/stm32n6xx_hal_dma.c ****         break;
 3719              		.loc 1 1203 9 is_stmt 1 view .LVU1112
1203:../STM32Cube_FW_N6/Drivers/STM32N6xx_HAL_Driver/Src/stm32n6xx_hal_dma.c ****         break;
 3720              		.loc 1 1203 36 is_stmt 0 view .LVU1113
 3721 0024 5A66     		str	r2, [r3, #100]
1204:../STM32Cube_FW_N6/Drivers/STM32N6xx_HAL_Driver/Src/stm32n6xx_hal_dma.c ****       }
 3722              		.loc 1 1204 9 is_stmt 1 view .LVU1114
 3723 0026 FBE7     		b	.L291
 3724              	.L288:
1210:../STM32Cube_FW_N6/Drivers/STM32N6xx_HAL_Driver/Src/stm32n6xx_hal_dma.c ****         break;
 3725              		.loc 1 1210 9 view .LVU1115
1210:../STM32Cube_FW_N6/Drivers/STM32N6xx_HAL_Driver/Src/stm32n6xx_hal_dma.c ****         break;
 3726              		.loc 1 1210 33 is_stmt 0 view .LVU1116
 3727 0028 9A66     		str	r2, [r3, #104]
1211:../STM32Cube_FW_N6/Drivers/STM32N6xx_HAL_Driver/Src/stm32n6xx_hal_dma.c ****       }
 3728              		.loc 1 1211 9 is_stmt 1 view .LVU1117
 3729 002a F9E7     		b	.L291
 3730              	.L287:
1217:../STM32Cube_FW_N6/Drivers/STM32N6xx_HAL_Driver/Src/stm32n6xx_hal_dma.c ****         break;
 3731              		.loc 1 1217 9 view .LVU1118
1217:../STM32Cube_FW_N6/Drivers/STM32N6xx_HAL_Driver/Src/stm32n6xx_hal_dma.c ****         break;
 3732              		.loc 1 1217 33 is_stmt 0 view .LVU1119
 3733 002c DA66     		str	r2, [r3, #108]
1218:../STM32Cube_FW_N6/Drivers/STM32N6xx_HAL_Driver/Src/stm32n6xx_hal_dma.c ****       }
 3734              		.loc 1 1218 9 is_stmt 1 view .LVU1120
 3735 002e F7E7     		b	.L291
 3736              	.L285:
1224:../STM32Cube_FW_N6/Drivers/STM32N6xx_HAL_Driver/Src/stm32n6xx_hal_dma.c ****         break;
 3737              		.loc 1 1224 9 view .LVU1121
1224:../STM32Cube_FW_N6/Drivers/STM32N6xx_HAL_Driver/Src/stm32n6xx_hal_dma.c ****         break;
 3738              		.loc 1 1224 35 is_stmt 0 view .LVU1122
 3739 0030 1A67     		str	r2, [r3, #112]
1225:../STM32Cube_FW_N6/Drivers/STM32N6xx_HAL_Driver/Src/stm32n6xx_hal_dma.c ****       }
 3740              		.loc 1 1225 9 is_stmt 1 view .LVU1123
 3741 0032 F5E7     		b	.L291
 3742              	.L293:
1184:../STM32Cube_FW_N6/Drivers/STM32N6xx_HAL_Driver/Src/stm32n6xx_hal_dma.c ****   }
 3743              		.loc 1 1184 12 is_stmt 0 view .LVU1124
 3744 0034 0120     		movs	r0, #1
 3745 0036 F4E7     		b	.L284
 3746              		.cfi_endproc
 3747              	.LFE889:
 3749              		.section	.text.HAL_DMA_UnRegisterCallback,"ax",%progbits
 3750              		.align	1
 3751              		.global	HAL_DMA_UnRegisterCallback
 3752              		.syntax unified
 3753              		.thumb
 3754              		.thumb_func
 3756              	HAL_DMA_UnRegisterCallback:
 3757              	.LVL109:
 3758              	.LFB890:
1256:../STM32Cube_FW_N6/Drivers/STM32N6xx_HAL_Driver/Src/stm32n6xx_hal_dma.c ****   HAL_StatusTypeDef status = HAL_OK;
 3759              		.loc 1 1256 1 is_stmt 1 view -0
 3760              		.cfi_startproc
ARM GAS  /tmp/ccId6s4B.s 			page 111


 3761              		@ args = 0, pretend = 0, frame = 0
 3762              		@ frame_needed = 0, uses_anonymous_args = 0
 3763              		@ link register save eliminated.
1257:../STM32Cube_FW_N6/Drivers/STM32N6xx_HAL_Driver/Src/stm32n6xx_hal_dma.c **** 
 3764              		.loc 1 1257 3 view .LVU1126
1260:../STM32Cube_FW_N6/Drivers/STM32N6xx_HAL_Driver/Src/stm32n6xx_hal_dma.c ****   {
 3765              		.loc 1 1260 3 view .LVU1127
1260:../STM32Cube_FW_N6/Drivers/STM32N6xx_HAL_Driver/Src/stm32n6xx_hal_dma.c ****   {
 3766              		.loc 1 1260 6 is_stmt 0 view .LVU1128
 3767 0000 0346     		mov	r3, r0
 3768 0002 08B3     		cbz	r0, .L306
1266:../STM32Cube_FW_N6/Drivers/STM32N6xx_HAL_Driver/Src/stm32n6xx_hal_dma.c ****   {
 3769              		.loc 1 1266 3 is_stmt 1 view .LVU1129
1266:../STM32Cube_FW_N6/Drivers/STM32N6xx_HAL_Driver/Src/stm32n6xx_hal_dma.c ****   {
 3770              		.loc 1 1266 11 is_stmt 0 view .LVU1130
 3771 0004 90F85420 		ldrb	r2, [r0, #84]	@ zero_extendqisi2
1266:../STM32Cube_FW_N6/Drivers/STM32N6xx_HAL_Driver/Src/stm32n6xx_hal_dma.c ****   {
 3772              		.loc 1 1266 6 view .LVU1131
 3773 0008 012A     		cmp	r2, #1
1266:../STM32Cube_FW_N6/Drivers/STM32N6xx_HAL_Driver/Src/stm32n6xx_hal_dma.c ****   {
 3774              		.loc 1 1266 11 view .LVU1132
 3775 000a D0B2     		uxtb	r0, r2
 3776              	.LVL110:
1266:../STM32Cube_FW_N6/Drivers/STM32N6xx_HAL_Driver/Src/stm32n6xx_hal_dma.c ****   {
 3777              		.loc 1 1266 6 view .LVU1133
 3778 000c 1CD1     		bne	.L306
1269:../STM32Cube_FW_N6/Drivers/STM32N6xx_HAL_Driver/Src/stm32n6xx_hal_dma.c ****     {
 3779              		.loc 1 1269 5 is_stmt 1 view .LVU1134
 3780 000e 0529     		cmp	r1, #5
 3781 0010 1BD8     		bhi	.L296
 3782 0012 DFE801F0 		tbb	[pc, r1]
 3783              	.L298:
 3784 0016 03       		.byte	(.L303-.L298)/2
 3785 0017 07       		.byte	(.L302-.L298)/2
 3786 0018 0A       		.byte	(.L301-.L298)/2
 3787 0019 0D       		.byte	(.L300-.L298)/2
 3788 001a 10       		.byte	(.L299-.L298)/2
 3789 001b 13       		.byte	(.L297-.L298)/2
 3790              		.p2align 1
 3791              	.L303:
1274:../STM32Cube_FW_N6/Drivers/STM32N6xx_HAL_Driver/Src/stm32n6xx_hal_dma.c ****         break;
 3792              		.loc 1 1274 9 view .LVU1135
1274:../STM32Cube_FW_N6/Drivers/STM32N6xx_HAL_Driver/Src/stm32n6xx_hal_dma.c ****         break;
 3793              		.loc 1 1274 32 is_stmt 0 view .LVU1136
 3794 001c 0022     		movs	r2, #0
 3795 001e 1A66     		str	r2, [r3, #96]
1275:../STM32Cube_FW_N6/Drivers/STM32N6xx_HAL_Driver/Src/stm32n6xx_hal_dma.c ****       }
 3796              		.loc 1 1275 9 is_stmt 1 view .LVU1137
 3797              	.L304:
1257:../STM32Cube_FW_N6/Drivers/STM32N6xx_HAL_Driver/Src/stm32n6xx_hal_dma.c **** 
 3798              		.loc 1 1257 21 is_stmt 0 view .LVU1138
 3799 0020 0020     		movs	r0, #0
 3800 0022 7047     		bx	lr
 3801              	.L302:
1281:../STM32Cube_FW_N6/Drivers/STM32N6xx_HAL_Driver/Src/stm32n6xx_hal_dma.c ****         break;
 3802              		.loc 1 1281 9 is_stmt 1 view .LVU1139
1281:../STM32Cube_FW_N6/Drivers/STM32N6xx_HAL_Driver/Src/stm32n6xx_hal_dma.c ****         break;
ARM GAS  /tmp/ccId6s4B.s 			page 112


 3803              		.loc 1 1281 36 is_stmt 0 view .LVU1140
 3804 0024 0022     		movs	r2, #0
 3805 0026 5A66     		str	r2, [r3, #100]
1282:../STM32Cube_FW_N6/Drivers/STM32N6xx_HAL_Driver/Src/stm32n6xx_hal_dma.c ****       }
 3806              		.loc 1 1282 9 is_stmt 1 view .LVU1141
 3807 0028 FAE7     		b	.L304
 3808              	.L301:
1288:../STM32Cube_FW_N6/Drivers/STM32N6xx_HAL_Driver/Src/stm32n6xx_hal_dma.c ****         break;
 3809              		.loc 1 1288 9 view .LVU1142
1288:../STM32Cube_FW_N6/Drivers/STM32N6xx_HAL_Driver/Src/stm32n6xx_hal_dma.c ****         break;
 3810              		.loc 1 1288 33 is_stmt 0 view .LVU1143
 3811 002a 0022     		movs	r2, #0
 3812 002c 9A66     		str	r2, [r3, #104]
1289:../STM32Cube_FW_N6/Drivers/STM32N6xx_HAL_Driver/Src/stm32n6xx_hal_dma.c ****       }
 3813              		.loc 1 1289 9 is_stmt 1 view .LVU1144
 3814 002e F7E7     		b	.L304
 3815              	.L300:
1295:../STM32Cube_FW_N6/Drivers/STM32N6xx_HAL_Driver/Src/stm32n6xx_hal_dma.c ****         break;
 3816              		.loc 1 1295 9 view .LVU1145
1295:../STM32Cube_FW_N6/Drivers/STM32N6xx_HAL_Driver/Src/stm32n6xx_hal_dma.c ****         break;
 3817              		.loc 1 1295 33 is_stmt 0 view .LVU1146
 3818 0030 0022     		movs	r2, #0
 3819 0032 DA66     		str	r2, [r3, #108]
1296:../STM32Cube_FW_N6/Drivers/STM32N6xx_HAL_Driver/Src/stm32n6xx_hal_dma.c ****       }
 3820              		.loc 1 1296 9 is_stmt 1 view .LVU1147
 3821 0034 F4E7     		b	.L304
 3822              	.L299:
1302:../STM32Cube_FW_N6/Drivers/STM32N6xx_HAL_Driver/Src/stm32n6xx_hal_dma.c ****         break;
 3823              		.loc 1 1302 9 view .LVU1148
1302:../STM32Cube_FW_N6/Drivers/STM32N6xx_HAL_Driver/Src/stm32n6xx_hal_dma.c ****         break;
 3824              		.loc 1 1302 35 is_stmt 0 view .LVU1149
 3825 0036 0022     		movs	r2, #0
 3826              	.L308:
1313:../STM32Cube_FW_N6/Drivers/STM32N6xx_HAL_Driver/Src/stm32n6xx_hal_dma.c ****         break;
 3827              		.loc 1 1313 9 is_stmt 1 view .LVU1150
1313:../STM32Cube_FW_N6/Drivers/STM32N6xx_HAL_Driver/Src/stm32n6xx_hal_dma.c ****         break;
 3828              		.loc 1 1313 36 is_stmt 0 view .LVU1151
 3829 0038 1A67     		str	r2, [r3, #112]
1314:../STM32Cube_FW_N6/Drivers/STM32N6xx_HAL_Driver/Src/stm32n6xx_hal_dma.c ****       }
 3830              		.loc 1 1314 9 is_stmt 1 view .LVU1152
 3831 003a F1E7     		b	.L304
 3832              	.L297:
1309:../STM32Cube_FW_N6/Drivers/STM32N6xx_HAL_Driver/Src/stm32n6xx_hal_dma.c ****         hdma->XferHalfCpltCallback = NULL;
 3833              		.loc 1 1309 9 view .LVU1153
1309:../STM32Cube_FW_N6/Drivers/STM32N6xx_HAL_Driver/Src/stm32n6xx_hal_dma.c ****         hdma->XferHalfCpltCallback = NULL;
 3834              		.loc 1 1309 36 is_stmt 0 view .LVU1154
 3835 003c 0022     		movs	r2, #0
1310:../STM32Cube_FW_N6/Drivers/STM32N6xx_HAL_Driver/Src/stm32n6xx_hal_dma.c ****         hdma->XferErrorCallback    = NULL;
 3836              		.loc 1 1310 36 view .LVU1155
 3837 003e C3E91822 		strd	r2, r2, [r3, #96]
1311:../STM32Cube_FW_N6/Drivers/STM32N6xx_HAL_Driver/Src/stm32n6xx_hal_dma.c ****         hdma->XferAbortCallback    = NULL;
 3838              		.loc 1 1311 9 is_stmt 1 view .LVU1156
1312:../STM32Cube_FW_N6/Drivers/STM32N6xx_HAL_Driver/Src/stm32n6xx_hal_dma.c ****         hdma->XferSuspendCallback  = NULL;
 3839              		.loc 1 1312 36 is_stmt 0 view .LVU1157
 3840 0042 C3E91A22 		strd	r2, r2, [r3, #104]
 3841 0046 F7E7     		b	.L308
 3842              	.L306:
ARM GAS  /tmp/ccId6s4B.s 			page 113


1262:../STM32Cube_FW_N6/Drivers/STM32N6xx_HAL_Driver/Src/stm32n6xx_hal_dma.c ****   }
 3843              		.loc 1 1262 12 view .LVU1158
 3844 0048 0120     		movs	r0, #1
 3845              	.L296:
 3846              	.LVL111:
1332:../STM32Cube_FW_N6/Drivers/STM32N6xx_HAL_Driver/Src/stm32n6xx_hal_dma.c **** /**
 3847              		.loc 1 1332 1 view .LVU1159
 3848 004a 7047     		bx	lr
 3849              		.cfi_endproc
 3850              	.LFE890:
 3852              		.section	.text.HAL_DMA_GetState,"ax",%progbits
 3853              		.align	1
 3854              		.global	HAL_DMA_GetState
 3855              		.syntax unified
 3856              		.thumb
 3857              		.thumb_func
 3859              	HAL_DMA_GetState:
 3860              	.LVL112:
 3861              	.LFB891:
1363:../STM32Cube_FW_N6/Drivers/STM32N6xx_HAL_Driver/Src/stm32n6xx_hal_dma.c ****   /* Return the DMA channel state */
 3862              		.loc 1 1363 1 is_stmt 1 view -0
 3863              		.cfi_startproc
 3864              		@ args = 0, pretend = 0, frame = 0
 3865              		@ frame_needed = 0, uses_anonymous_args = 0
 3866              		@ link register save eliminated.
1365:../STM32Cube_FW_N6/Drivers/STM32N6xx_HAL_Driver/Src/stm32n6xx_hal_dma.c **** }
 3867              		.loc 1 1365 3 view .LVU1161
1365:../STM32Cube_FW_N6/Drivers/STM32N6xx_HAL_Driver/Src/stm32n6xx_hal_dma.c **** }
 3868              		.loc 1 1365 14 is_stmt 0 view .LVU1162
 3869 0000 90F85400 		ldrb	r0, [r0, #84]	@ zero_extendqisi2
 3870              	.LVL113:
1366:../STM32Cube_FW_N6/Drivers/STM32N6xx_HAL_Driver/Src/stm32n6xx_hal_dma.c **** 
 3871              		.loc 1 1366 1 view .LVU1163
 3872 0004 7047     		bx	lr
 3873              		.cfi_endproc
 3874              	.LFE891:
 3876              		.section	.text.HAL_DMA_GetError,"ax",%progbits
 3877              		.align	1
 3878              		.global	HAL_DMA_GetError
 3879              		.syntax unified
 3880              		.thumb
 3881              		.thumb_func
 3883              	HAL_DMA_GetError:
 3884              	.LVL114:
 3885              	.LFB892:
1375:../STM32Cube_FW_N6/Drivers/STM32N6xx_HAL_Driver/Src/stm32n6xx_hal_dma.c ****   /* Return the DMA channel error code */
 3886              		.loc 1 1375 1 is_stmt 1 view -0
 3887              		.cfi_startproc
 3888              		@ args = 0, pretend = 0, frame = 0
 3889              		@ frame_needed = 0, uses_anonymous_args = 0
 3890              		@ link register save eliminated.
1377:../STM32Cube_FW_N6/Drivers/STM32N6xx_HAL_Driver/Src/stm32n6xx_hal_dma.c **** }
 3891              		.loc 1 1377 3 view .LVU1165
1377:../STM32Cube_FW_N6/Drivers/STM32N6xx_HAL_Driver/Src/stm32n6xx_hal_dma.c **** }
 3892              		.loc 1 1377 14 is_stmt 0 view .LVU1166
 3893 0000 806D     		ldr	r0, [r0, #88]
 3894              	.LVL115:
ARM GAS  /tmp/ccId6s4B.s 			page 114


1378:../STM32Cube_FW_N6/Drivers/STM32N6xx_HAL_Driver/Src/stm32n6xx_hal_dma.c **** /**
 3895              		.loc 1 1378 1 view .LVU1167
 3896 0002 7047     		bx	lr
 3897              		.cfi_endproc
 3898              	.LFE892:
 3900              		.section	.text.HAL_DMA_ConfigChannelAttributes,"ax",%progbits
 3901              		.align	1
 3902              		.global	HAL_DMA_ConfigChannelAttributes
 3903              		.syntax unified
 3904              		.thumb
 3905              		.thumb_func
 3907              	HAL_DMA_ConfigChannelAttributes:
 3908              	.LVL116:
 3909              	.LFB893:
1419:../STM32Cube_FW_N6/Drivers/STM32N6xx_HAL_Driver/Src/stm32n6xx_hal_dma.c ****   DMA_TypeDef *p_dma_instance;
 3910              		.loc 1 1419 1 is_stmt 1 view -0
 3911              		.cfi_startproc
 3912              		@ args = 0, pretend = 0, frame = 0
 3913              		@ frame_needed = 0, uses_anonymous_args = 0
1420:../STM32Cube_FW_N6/Drivers/STM32N6xx_HAL_Driver/Src/stm32n6xx_hal_dma.c ****   uint32_t channel_idx;
 3914              		.loc 1 1420 3 view .LVU1169
1421:../STM32Cube_FW_N6/Drivers/STM32N6xx_HAL_Driver/Src/stm32n6xx_hal_dma.c **** 
 3915              		.loc 1 1421 3 view .LVU1170
1424:../STM32Cube_FW_N6/Drivers/STM32N6xx_HAL_Driver/Src/stm32n6xx_hal_dma.c ****   {
 3916              		.loc 1 1424 3 view .LVU1171
1419:../STM32Cube_FW_N6/Drivers/STM32N6xx_HAL_Driver/Src/stm32n6xx_hal_dma.c ****   DMA_TypeDef *p_dma_instance;
 3917              		.loc 1 1419 1 is_stmt 0 view .LVU1172
 3918 0000 38B5     		push	{r3, r4, r5, lr}
 3919              		.cfi_def_cfa_offset 16
 3920              		.cfi_offset 3, -16
 3921              		.cfi_offset 4, -12
 3922              		.cfi_offset 5, -8
 3923              		.cfi_offset 14, -4
1419:../STM32Cube_FW_N6/Drivers/STM32N6xx_HAL_Driver/Src/stm32n6xx_hal_dma.c ****   DMA_TypeDef *p_dma_instance;
 3924              		.loc 1 1419 1 view .LVU1173
 3925 0002 0C46     		mov	r4, r1
1424:../STM32Cube_FW_N6/Drivers/STM32N6xx_HAL_Driver/Src/stm32n6xx_hal_dma.c ****   {
 3926              		.loc 1 1424 6 view .LVU1174
 3927 0004 0546     		mov	r5, r0
 3928 0006 0028     		cmp	r0, #0
 3929 0008 49D0     		beq	.L324
1430:../STM32Cube_FW_N6/Drivers/STM32N6xx_HAL_Driver/Src/stm32n6xx_hal_dma.c **** 
 3930              		.loc 1 1430 3 is_stmt 1 view .LVU1175
 3931 000a 4B1E     		subs	r3, r1, #1
 3932 000c FE2B     		cmp	r3, #254
 3933 000e 03D8     		bhi	.L313
1430:../STM32Cube_FW_N6/Drivers/STM32N6xx_HAL_Driver/Src/stm32n6xx_hal_dma.c **** 
 3934              		.loc 1 1430 3 is_stmt 0 discriminator 2 view .LVU1176
 3935 0010 21EA1113 		bic	r3, r1, r1, lsr #4
 3936 0014 1B07     		lsls	r3, r3, #28
 3937 0016 04D0     		beq	.L314
 3938              	.L313:
1430:../STM32Cube_FW_N6/Drivers/STM32N6xx_HAL_Driver/Src/stm32n6xx_hal_dma.c **** 
 3939              		.loc 1 1430 3 discriminator 3 view .LVU1177
 3940 0018 40F29651 		movw	r1, #1430
 3941              	.LVL117:
1430:../STM32Cube_FW_N6/Drivers/STM32N6xx_HAL_Driver/Src/stm32n6xx_hal_dma.c **** 
ARM GAS  /tmp/ccId6s4B.s 			page 115


 3942              		.loc 1 1430 3 discriminator 3 view .LVU1178
 3943 001c 2148     		ldr	r0, .L341
 3944              	.LVL118:
1430:../STM32Cube_FW_N6/Drivers/STM32N6xx_HAL_Driver/Src/stm32n6xx_hal_dma.c **** 
 3945              		.loc 1 1430 3 discriminator 3 view .LVU1179
 3946 001e FFF7FEFF 		bl	assert_failed
 3947              	.LVL119:
 3948              	.L314:
1433:../STM32Cube_FW_N6/Drivers/STM32N6xx_HAL_Driver/Src/stm32n6xx_hal_dma.c **** 
 3949              		.loc 1 1433 3 is_stmt 1 view .LVU1180
1436:../STM32Cube_FW_N6/Drivers/STM32N6xx_HAL_Driver/Src/stm32n6xx_hal_dma.c **** 
 3950              		.loc 1 1436 15 is_stmt 0 view .LVU1181
 3951 0022 0121     		movs	r1, #1
1433:../STM32Cube_FW_N6/Drivers/STM32N6xx_HAL_Driver/Src/stm32n6xx_hal_dma.c **** 
 3952              		.loc 1 1433 20 view .LVU1182
 3953 0024 2B68     		ldr	r3, [r5]
1439:../STM32Cube_FW_N6/Drivers/STM32N6xx_HAL_Driver/Src/stm32n6xx_hal_dma.c ****   {
 3954              		.loc 1 1439 6 view .LVU1183
 3955 0026 E506     		lsls	r5, r4, #27
 3956              	.LVL120:
1436:../STM32Cube_FW_N6/Drivers/STM32N6xx_HAL_Driver/Src/stm32n6xx_hal_dma.c **** 
 3957              		.loc 1 1436 25 view .LVU1184
 3958 0028 C3F30B00 		ubfx	r0, r3, #0, #12
 3959 002c A0F15000 		sub	r0, r0, #80
1433:../STM32Cube_FW_N6/Drivers/STM32N6xx_HAL_Driver/Src/stm32n6xx_hal_dma.c **** 
 3960              		.loc 1 1433 20 view .LVU1185
 3961 0030 23F47F62 		bic	r2, r3, #4080
1436:../STM32Cube_FW_N6/Drivers/STM32N6xx_HAL_Driver/Src/stm32n6xx_hal_dma.c **** 
 3962              		.loc 1 1436 47 view .LVU1186
 3963 0034 C0F3C410 		ubfx	r0, r0, #7, #5
1433:../STM32Cube_FW_N6/Drivers/STM32N6xx_HAL_Driver/Src/stm32n6xx_hal_dma.c **** 
 3964              		.loc 1 1433 20 view .LVU1187
 3965 0038 22F00F02 		bic	r2, r2, #15
 3966              	.LVL121:
1436:../STM32Cube_FW_N6/Drivers/STM32N6xx_HAL_Driver/Src/stm32n6xx_hal_dma.c **** 
 3967              		.loc 1 1436 3 is_stmt 1 view .LVU1188
1436:../STM32Cube_FW_N6/Drivers/STM32N6xx_HAL_Driver/Src/stm32n6xx_hal_dma.c **** 
 3968              		.loc 1 1436 15 is_stmt 0 view .LVU1189
 3969 003c 01FA00F1 		lsl	r1, r1, r0
 3970              	.LVL122:
1439:../STM32Cube_FW_N6/Drivers/STM32N6xx_HAL_Driver/Src/stm32n6xx_hal_dma.c ****   {
 3971              		.loc 1 1439 3 is_stmt 1 view .LVU1190
1439:../STM32Cube_FW_N6/Drivers/STM32N6xx_HAL_Driver/Src/stm32n6xx_hal_dma.c ****   {
 3972              		.loc 1 1439 6 is_stmt 0 view .LVU1191
 3973 0040 07D5     		bpl	.L315
1442:../STM32Cube_FW_N6/Drivers/STM32N6xx_HAL_Driver/Src/stm32n6xx_hal_dma.c ****     {
 3974              		.loc 1 1442 5 is_stmt 1 view .LVU1192
1442:../STM32Cube_FW_N6/Drivers/STM32N6xx_HAL_Driver/Src/stm32n6xx_hal_dma.c ****     {
 3975              		.loc 1 1442 28 is_stmt 0 view .LVU1193
 3976 0042 04F01100 		and	r0, r4, #17
1442:../STM32Cube_FW_N6/Drivers/STM32N6xx_HAL_Driver/Src/stm32n6xx_hal_dma.c ****     {
 3977              		.loc 1 1442 8 view .LVU1194
 3978 0046 1128     		cmp	r0, #17
1444:../STM32Cube_FW_N6/Drivers/STM32N6xx_HAL_Driver/Src/stm32n6xx_hal_dma.c ****     }
 3979              		.loc 1 1444 21 view .LVU1195
 3980 0048 5068     		ldr	r0, [r2, #4]
1444:../STM32Cube_FW_N6/Drivers/STM32N6xx_HAL_Driver/Src/stm32n6xx_hal_dma.c ****     }
ARM GAS  /tmp/ccId6s4B.s 			page 116


 3981              		.loc 1 1444 7 is_stmt 1 view .LVU1196
1444:../STM32Cube_FW_N6/Drivers/STM32N6xx_HAL_Driver/Src/stm32n6xx_hal_dma.c ****     }
 3982              		.loc 1 1444 32 is_stmt 0 view .LVU1197
 3983 004a 0CBF     		ite	eq
 3984 004c 0843     		orreq	r0, r0, r1
1448:../STM32Cube_FW_N6/Drivers/STM32N6xx_HAL_Driver/Src/stm32n6xx_hal_dma.c ****     }
 3985              		.loc 1 1448 7 is_stmt 1 view .LVU1198
1448:../STM32Cube_FW_N6/Drivers/STM32N6xx_HAL_Driver/Src/stm32n6xx_hal_dma.c ****     }
 3986              		.loc 1 1448 32 is_stmt 0 view .LVU1199
 3987 004e 8843     		bicne	r0, r0, r1
 3988 0050 5060     		str	r0, [r2, #4]
 3989              	.L315:
1454:../STM32Cube_FW_N6/Drivers/STM32N6xx_HAL_Driver/Src/stm32n6xx_hal_dma.c ****   {
 3990              		.loc 1 1454 3 is_stmt 1 view .LVU1200
1454:../STM32Cube_FW_N6/Drivers/STM32N6xx_HAL_Driver/Src/stm32n6xx_hal_dma.c ****   {
 3991              		.loc 1 1454 6 is_stmt 0 view .LVU1201
 3992 0052 A006     		lsls	r0, r4, #26
 3993 0054 08D5     		bpl	.L317
1457:../STM32Cube_FW_N6/Drivers/STM32N6xx_HAL_Driver/Src/stm32n6xx_hal_dma.c ****     {
 3994              		.loc 1 1457 5 is_stmt 1 view .LVU1202
1457:../STM32Cube_FW_N6/Drivers/STM32N6xx_HAL_Driver/Src/stm32n6xx_hal_dma.c ****     {
 3995              		.loc 1 1457 28 is_stmt 0 view .LVU1203
 3996 0056 04F02200 		and	r0, r4, #34
1457:../STM32Cube_FW_N6/Drivers/STM32N6xx_HAL_Driver/Src/stm32n6xx_hal_dma.c ****     {
 3997              		.loc 1 1457 8 view .LVU1204
 3998 005a 2228     		cmp	r0, #34
1459:../STM32Cube_FW_N6/Drivers/STM32N6xx_HAL_Driver/Src/stm32n6xx_hal_dma.c ****     }
 3999              		.loc 1 1459 21 view .LVU1205
 4000 005c 1068     		ldr	r0, [r2]
1459:../STM32Cube_FW_N6/Drivers/STM32N6xx_HAL_Driver/Src/stm32n6xx_hal_dma.c ****     }
 4001              		.loc 1 1459 7 is_stmt 1 view .LVU1206
1459:../STM32Cube_FW_N6/Drivers/STM32N6xx_HAL_Driver/Src/stm32n6xx_hal_dma.c ****     }
 4002              		.loc 1 1459 31 is_stmt 0 view .LVU1207
 4003 005e 0CBF     		ite	eq
 4004 0060 0143     		orreq	r1, r1, r0
 4005              	.LVL123:
1463:../STM32Cube_FW_N6/Drivers/STM32N6xx_HAL_Driver/Src/stm32n6xx_hal_dma.c ****     }
 4006              		.loc 1 1463 7 is_stmt 1 view .LVU1208
1463:../STM32Cube_FW_N6/Drivers/STM32N6xx_HAL_Driver/Src/stm32n6xx_hal_dma.c ****     }
 4007              		.loc 1 1463 31 is_stmt 0 view .LVU1209
 4008 0062 20EA0101 		bicne	r1, r0, r1
 4009 0066 1160     		str	r1, [r2]
 4010              	.L317:
1468:../STM32Cube_FW_N6/Drivers/STM32N6xx_HAL_Driver/Src/stm32n6xx_hal_dma.c ****   {
 4011              		.loc 1 1468 3 is_stmt 1 view .LVU1210
1468:../STM32Cube_FW_N6/Drivers/STM32N6xx_HAL_Driver/Src/stm32n6xx_hal_dma.c ****   {
 4012              		.loc 1 1468 6 is_stmt 0 view .LVU1211
 4013 0068 6106     		lsls	r1, r4, #25
 4014 006a 09D5     		bpl	.L319
1471:../STM32Cube_FW_N6/Drivers/STM32N6xx_HAL_Driver/Src/stm32n6xx_hal_dma.c ****     {
 4015              		.loc 1 1471 5 is_stmt 1 view .LVU1212
1471:../STM32Cube_FW_N6/Drivers/STM32N6xx_HAL_Driver/Src/stm32n6xx_hal_dma.c ****     {
 4016              		.loc 1 1471 28 is_stmt 0 view .LVU1213
 4017 006c 04F04402 		and	r2, r4, #68
 4018              	.LVL124:
1471:../STM32Cube_FW_N6/Drivers/STM32N6xx_HAL_Driver/Src/stm32n6xx_hal_dma.c ****     {
 4019              		.loc 1 1471 8 view .LVU1214
ARM GAS  /tmp/ccId6s4B.s 			page 117


 4020 0070 442A     		cmp	r2, #68
1473:../STM32Cube_FW_N6/Drivers/STM32N6xx_HAL_Driver/Src/stm32n6xx_hal_dma.c ****     }
 4021              		.loc 1 1473 21 view .LVU1215
 4022 0072 1A6C     		ldr	r2, [r3, #64]
1473:../STM32Cube_FW_N6/Drivers/STM32N6xx_HAL_Driver/Src/stm32n6xx_hal_dma.c ****     }
 4023              		.loc 1 1473 7 is_stmt 1 view .LVU1216
1473:../STM32Cube_FW_N6/Drivers/STM32N6xx_HAL_Driver/Src/stm32n6xx_hal_dma.c ****     }
 4024              		.loc 1 1473 28 is_stmt 0 view .LVU1217
 4025 0074 0CBF     		ite	eq
 4026 0076 42F40042 		orreq	r2, r2, #32768
1477:../STM32Cube_FW_N6/Drivers/STM32N6xx_HAL_Driver/Src/stm32n6xx_hal_dma.c ****     }
 4027              		.loc 1 1477 7 is_stmt 1 view .LVU1218
1477:../STM32Cube_FW_N6/Drivers/STM32N6xx_HAL_Driver/Src/stm32n6xx_hal_dma.c ****     }
 4028              		.loc 1 1477 28 is_stmt 0 view .LVU1219
 4029 007a 22F40042 		bicne	r2, r2, #32768
 4030 007e 1A64     		str	r2, [r3, #64]
 4031              	.L319:
1482:../STM32Cube_FW_N6/Drivers/STM32N6xx_HAL_Driver/Src/stm32n6xx_hal_dma.c ****   {
 4032              		.loc 1 1482 3 is_stmt 1 view .LVU1220
1482:../STM32Cube_FW_N6/Drivers/STM32N6xx_HAL_Driver/Src/stm32n6xx_hal_dma.c ****   {
 4033              		.loc 1 1482 6 is_stmt 0 view .LVU1221
 4034 0080 2206     		lsls	r2, r4, #24
 4035 0082 01D4     		bmi	.L321
 4036              	.LVL125:
 4037              	.L323:
1496:../STM32Cube_FW_N6/Drivers/STM32N6xx_HAL_Driver/Src/stm32n6xx_hal_dma.c **** }
 4038              		.loc 1 1496 10 view .LVU1222
 4039 0084 0020     		movs	r0, #0
 4040              	.LVL126:
 4041              	.L312:
1497:../STM32Cube_FW_N6/Drivers/STM32N6xx_HAL_Driver/Src/stm32n6xx_hal_dma.c **** 
 4042              		.loc 1 1497 1 view .LVU1223
 4043 0086 38BD     		pop	{r3, r4, r5, pc}
 4044              	.LVL127:
 4045              	.L321:
1485:../STM32Cube_FW_N6/Drivers/STM32N6xx_HAL_Driver/Src/stm32n6xx_hal_dma.c ****     {
 4046              		.loc 1 1485 5 is_stmt 1 view .LVU1224
1487:../STM32Cube_FW_N6/Drivers/STM32N6xx_HAL_Driver/Src/stm32n6xx_hal_dma.c ****     }
 4047              		.loc 1 1487 21 is_stmt 0 view .LVU1225
 4048 0088 1A6C     		ldr	r2, [r3, #64]
1485:../STM32Cube_FW_N6/Drivers/STM32N6xx_HAL_Driver/Src/stm32n6xx_hal_dma.c ****     {
 4049              		.loc 1 1485 28 view .LVU1226
 4050 008a 04F08804 		and	r4, r4, #136
 4051              	.LVL128:
1485:../STM32Cube_FW_N6/Drivers/STM32N6xx_HAL_Driver/Src/stm32n6xx_hal_dma.c ****     {
 4052              		.loc 1 1485 8 view .LVU1227
 4053 008e 882C     		cmp	r4, #136
1487:../STM32Cube_FW_N6/Drivers/STM32N6xx_HAL_Driver/Src/stm32n6xx_hal_dma.c ****     }
 4054              		.loc 1 1487 7 is_stmt 1 view .LVU1228
1487:../STM32Cube_FW_N6/Drivers/STM32N6xx_HAL_Driver/Src/stm32n6xx_hal_dma.c ****     }
 4055              		.loc 1 1487 28 is_stmt 0 view .LVU1229
 4056 0090 0CBF     		ite	eq
 4057 0092 42F00042 		orreq	r2, r2, #-2147483648
1491:../STM32Cube_FW_N6/Drivers/STM32N6xx_HAL_Driver/Src/stm32n6xx_hal_dma.c ****     }
 4058              		.loc 1 1491 7 is_stmt 1 view .LVU1230
1491:../STM32Cube_FW_N6/Drivers/STM32N6xx_HAL_Driver/Src/stm32n6xx_hal_dma.c ****     }
 4059              		.loc 1 1491 28 is_stmt 0 view .LVU1231
ARM GAS  /tmp/ccId6s4B.s 			page 118


 4060 0096 22F00042 		bicne	r2, r2, #-2147483648
 4061 009a 1A64     		str	r2, [r3, #64]
 4062 009c F2E7     		b	.L323
 4063              	.LVL129:
 4064              	.L324:
1426:../STM32Cube_FW_N6/Drivers/STM32N6xx_HAL_Driver/Src/stm32n6xx_hal_dma.c ****   }
 4065              		.loc 1 1426 12 view .LVU1232
 4066 009e 0120     		movs	r0, #1
 4067              	.LVL130:
1426:../STM32Cube_FW_N6/Drivers/STM32N6xx_HAL_Driver/Src/stm32n6xx_hal_dma.c ****   }
 4068              		.loc 1 1426 12 view .LVU1233
 4069 00a0 F1E7     		b	.L312
 4070              	.L342:
 4071 00a2 00BF     		.align	2
 4072              	.L341:
 4073 00a4 00000000 		.word	.LC0
 4074              		.cfi_endproc
 4075              	.LFE893:
 4077              		.section	.text.HAL_DMA_GetConfigChannelAttributes,"ax",%progbits
 4078              		.align	1
 4079              		.global	HAL_DMA_GetConfigChannelAttributes
 4080              		.syntax unified
 4081              		.thumb
 4082              		.thumb_func
 4084              	HAL_DMA_GetConfigChannelAttributes:
 4085              	.LVL131:
 4086              	.LFB894:
1508:../STM32Cube_FW_N6/Drivers/STM32N6xx_HAL_Driver/Src/stm32n6xx_hal_dma.c ****   const DMA_TypeDef *p_dma_instance;
 4087              		.loc 1 1508 1 is_stmt 1 view -0
 4088              		.cfi_startproc
 4089              		@ args = 0, pretend = 0, frame = 0
 4090              		@ frame_needed = 0, uses_anonymous_args = 0
1509:../STM32Cube_FW_N6/Drivers/STM32N6xx_HAL_Driver/Src/stm32n6xx_hal_dma.c ****   uint32_t attributes;
 4091              		.loc 1 1509 3 view .LVU1235
1510:../STM32Cube_FW_N6/Drivers/STM32N6xx_HAL_Driver/Src/stm32n6xx_hal_dma.c ****   uint32_t channel_idx;
 4092              		.loc 1 1510 3 view .LVU1236
1511:../STM32Cube_FW_N6/Drivers/STM32N6xx_HAL_Driver/Src/stm32n6xx_hal_dma.c **** 
 4093              		.loc 1 1511 3 view .LVU1237
1514:../STM32Cube_FW_N6/Drivers/STM32N6xx_HAL_Driver/Src/stm32n6xx_hal_dma.c ****   {
 4094              		.loc 1 1514 3 view .LVU1238
1508:../STM32Cube_FW_N6/Drivers/STM32N6xx_HAL_Driver/Src/stm32n6xx_hal_dma.c ****   const DMA_TypeDef *p_dma_instance;
 4095              		.loc 1 1508 1 is_stmt 0 view .LVU1239
 4096 0000 10B5     		push	{r4, lr}
 4097              		.cfi_def_cfa_offset 8
 4098              		.cfi_offset 4, -8
 4099              		.cfi_offset 14, -4
1514:../STM32Cube_FW_N6/Drivers/STM32N6xx_HAL_Driver/Src/stm32n6xx_hal_dma.c ****   {
 4100              		.loc 1 1514 6 view .LVU1240
 4101 0002 40B3     		cbz	r0, .L350
1514:../STM32Cube_FW_N6/Drivers/STM32N6xx_HAL_Driver/Src/stm32n6xx_hal_dma.c ****   {
 4102              		.loc 1 1514 22 discriminator 1 view .LVU1241
 4103 0004 39B3     		cbz	r1, .L350
1520:../STM32Cube_FW_N6/Drivers/STM32N6xx_HAL_Driver/Src/stm32n6xx_hal_dma.c **** 
 4104              		.loc 1 1520 3 is_stmt 1 view .LVU1242
1520:../STM32Cube_FW_N6/Drivers/STM32N6xx_HAL_Driver/Src/stm32n6xx_hal_dma.c **** 
 4105              		.loc 1 1520 20 is_stmt 0 view .LVU1243
 4106 0006 0268     		ldr	r2, [r0]
ARM GAS  /tmp/ccId6s4B.s 			page 119


1523:../STM32Cube_FW_N6/Drivers/STM32N6xx_HAL_Driver/Src/stm32n6xx_hal_dma.c **** 
 4107              		.loc 1 1523 15 view .LVU1244
 4108 0008 0120     		movs	r0, #1
 4109              	.LVL132:
1523:../STM32Cube_FW_N6/Drivers/STM32N6xx_HAL_Driver/Src/stm32n6xx_hal_dma.c **** 
 4110              		.loc 1 1523 25 view .LVU1245
 4111 000a C2F30B03 		ubfx	r3, r2, #0, #12
1520:../STM32Cube_FW_N6/Drivers/STM32N6xx_HAL_Driver/Src/stm32n6xx_hal_dma.c **** 
 4112              		.loc 1 1520 20 view .LVU1246
 4113 000e 22F47F64 		bic	r4, r2, #4080
1523:../STM32Cube_FW_N6/Drivers/STM32N6xx_HAL_Driver/Src/stm32n6xx_hal_dma.c **** 
 4114              		.loc 1 1523 25 view .LVU1247
 4115 0012 503B     		subs	r3, r3, #80
1520:../STM32Cube_FW_N6/Drivers/STM32N6xx_HAL_Driver/Src/stm32n6xx_hal_dma.c **** 
 4116              		.loc 1 1520 20 view .LVU1248
 4117 0014 24F00F04 		bic	r4, r4, #15
 4118              	.LVL133:
1523:../STM32Cube_FW_N6/Drivers/STM32N6xx_HAL_Driver/Src/stm32n6xx_hal_dma.c **** 
 4119              		.loc 1 1523 3 is_stmt 1 view .LVU1249
1523:../STM32Cube_FW_N6/Drivers/STM32N6xx_HAL_Driver/Src/stm32n6xx_hal_dma.c **** 
 4120              		.loc 1 1523 47 is_stmt 0 view .LVU1250
 4121 0018 C3F3C413 		ubfx	r3, r3, #7, #5
1523:../STM32Cube_FW_N6/Drivers/STM32N6xx_HAL_Driver/Src/stm32n6xx_hal_dma.c **** 
 4122              		.loc 1 1523 15 view .LVU1251
 4123 001c 00FA03F3 		lsl	r3, r0, r3
 4124              	.LVL134:
1526:../STM32Cube_FW_N6/Drivers/STM32N6xx_HAL_Driver/Src/stm32n6xx_hal_dma.c **** 
 4125              		.loc 1 1526 3 is_stmt 1 view .LVU1252
1526:../STM32Cube_FW_N6/Drivers/STM32N6xx_HAL_Driver/Src/stm32n6xx_hal_dma.c **** 
 4126              		.loc 1 1526 32 is_stmt 0 view .LVU1253
 4127 0020 6068     		ldr	r0, [r4, #4]
1529:../STM32Cube_FW_N6/Drivers/STM32N6xx_HAL_Driver/Src/stm32n6xx_hal_dma.c **** 
 4128              		.loc 1 1529 33 view .LVU1254
 4129 0022 2468     		ldr	r4, [r4]
 4130              	.LVL135:
1526:../STM32Cube_FW_N6/Drivers/STM32N6xx_HAL_Driver/Src/stm32n6xx_hal_dma.c **** 
 4131              		.loc 1 1526 85 discriminator 1 view .LVU1255
 4132 0024 1842     		tst	r0, r3
 4133 0026 14BF     		ite	ne
 4134 0028 1120     		movne	r0, #17
 4135 002a 1020     		moveq	r0, #16
 4136              	.LVL136:
1529:../STM32Cube_FW_N6/Drivers/STM32N6xx_HAL_Driver/Src/stm32n6xx_hal_dma.c **** 
 4137              		.loc 1 1529 3 is_stmt 1 view .LVU1256
1529:../STM32Cube_FW_N6/Drivers/STM32N6xx_HAL_Driver/Src/stm32n6xx_hal_dma.c **** 
 4138              		.loc 1 1529 84 is_stmt 0 discriminator 1 view .LVU1257
 4139 002c 1C42     		tst	r4, r3
 4140 002e 14BF     		ite	ne
 4141 0030 2223     		movne	r3, #34
 4142              	.LVL137:
1529:../STM32Cube_FW_N6/Drivers/STM32N6xx_HAL_Driver/Src/stm32n6xx_hal_dma.c **** 
 4143              		.loc 1 1529 84 discriminator 1 view .LVU1258
 4144 0032 2023     		moveq	r3, #32
1529:../STM32Cube_FW_N6/Drivers/STM32N6xx_HAL_Driver/Src/stm32n6xx_hal_dma.c **** 
 4145              		.loc 1 1529 14 discriminator 4 view .LVU1259
 4146 0034 0343     		orrs	r3, r3, r0
 4147              	.LVL138:
ARM GAS  /tmp/ccId6s4B.s 			page 120


1532:../STM32Cube_FW_N6/Drivers/STM32N6xx_HAL_Driver/Src/stm32n6xx_hal_dma.c **** 
 4148              		.loc 1 1532 3 is_stmt 1 view .LVU1260
1532:../STM32Cube_FW_N6/Drivers/STM32N6xx_HAL_Driver/Src/stm32n6xx_hal_dma.c **** 
 4149              		.loc 1 1532 33 is_stmt 0 view .LVU1261
 4150 0036 106C     		ldr	r0, [r2, #64]
1532:../STM32Cube_FW_N6/Drivers/STM32N6xx_HAL_Driver/Src/stm32n6xx_hal_dma.c **** 
 4151              		.loc 1 1532 87 discriminator 1 view .LVU1262
 4152 0038 10F4004F 		tst	r0, #32768
 4153 003c 14BF     		ite	ne
 4154 003e 4420     		movne	r0, #68
 4155 0040 4020     		moveq	r0, #64
1532:../STM32Cube_FW_N6/Drivers/STM32N6xx_HAL_Driver/Src/stm32n6xx_hal_dma.c **** 
 4156              		.loc 1 1532 14 discriminator 4 view .LVU1263
 4157 0042 1843     		orrs	r0, r0, r3
 4158              	.LVL139:
1535:../STM32Cube_FW_N6/Drivers/STM32N6xx_HAL_Driver/Src/stm32n6xx_hal_dma.c **** 
 4159              		.loc 1 1535 3 is_stmt 1 view .LVU1264
1535:../STM32Cube_FW_N6/Drivers/STM32N6xx_HAL_Driver/Src/stm32n6xx_hal_dma.c **** 
 4160              		.loc 1 1535 33 is_stmt 0 view .LVU1265
 4161 0044 136C     		ldr	r3, [r2, #64]
1535:../STM32Cube_FW_N6/Drivers/STM32N6xx_HAL_Driver/Src/stm32n6xx_hal_dma.c **** 
 4162              		.loc 1 1535 88 discriminator 1 view .LVU1266
 4163 0046 002B     		cmp	r3, #0
 4164 0048 B4BF     		ite	lt
 4165 004a 8823     		movlt	r3, #136
 4166 004c 8023     		movge	r3, #128
 4167              	.LVL140:
1538:../STM32Cube_FW_N6/Drivers/STM32N6xx_HAL_Driver/Src/stm32n6xx_hal_dma.c **** 
 4168              		.loc 1 1538 3 is_stmt 1 view .LVU1267
1535:../STM32Cube_FW_N6/Drivers/STM32N6xx_HAL_Driver/Src/stm32n6xx_hal_dma.c **** 
 4169              		.loc 1 1535 14 is_stmt 0 discriminator 4 view .LVU1268
 4170 004e 0343     		orrs	r3, r3, r0
 4171              	.LVL141:
1540:../STM32Cube_FW_N6/Drivers/STM32N6xx_HAL_Driver/Src/stm32n6xx_hal_dma.c **** }
 4172              		.loc 1 1540 10 view .LVU1269
 4173 0050 0020     		movs	r0, #0
1538:../STM32Cube_FW_N6/Drivers/STM32N6xx_HAL_Driver/Src/stm32n6xx_hal_dma.c **** 
 4174              		.loc 1 1538 23 view .LVU1270
 4175 0052 0B60     		str	r3, [r1]
1540:../STM32Cube_FW_N6/Drivers/STM32N6xx_HAL_Driver/Src/stm32n6xx_hal_dma.c **** }
 4176              		.loc 1 1540 3 is_stmt 1 view .LVU1271
 4177              	.LVL142:
 4178              	.L344:
1541:../STM32Cube_FW_N6/Drivers/STM32N6xx_HAL_Driver/Src/stm32n6xx_hal_dma.c **** 
 4179              		.loc 1 1541 1 is_stmt 0 view .LVU1272
 4180 0054 10BD     		pop	{r4, pc}
 4181              	.LVL143:
 4182              	.L350:
1516:../STM32Cube_FW_N6/Drivers/STM32N6xx_HAL_Driver/Src/stm32n6xx_hal_dma.c ****   }
 4183              		.loc 1 1516 12 view .LVU1273
 4184 0056 0120     		movs	r0, #1
 4185              	.LVL144:
1516:../STM32Cube_FW_N6/Drivers/STM32N6xx_HAL_Driver/Src/stm32n6xx_hal_dma.c ****   }
 4186              		.loc 1 1516 12 view .LVU1274
 4187 0058 FCE7     		b	.L344
 4188              		.cfi_endproc
 4189              	.LFE894:
ARM GAS  /tmp/ccId6s4B.s 			page 121


 4191              		.section	.text.HAL_DMA_SetIsolationAttributes,"ax",%progbits
 4192              		.align	1
 4193              		.global	HAL_DMA_SetIsolationAttributes
 4194              		.syntax unified
 4195              		.thumb
 4196              		.thumb_func
 4198              	HAL_DMA_SetIsolationAttributes:
 4199              	.LVL145:
 4200              	.LFB895:
1555:../STM32Cube_FW_N6/Drivers/STM32N6xx_HAL_Driver/Src/stm32n6xx_hal_dma.c ****   /* Check the DMA peripheral handle parameter */
 4201              		.loc 1 1555 1 is_stmt 1 view -0
 4202              		.cfi_startproc
 4203              		@ args = 0, pretend = 0, frame = 0
 4204              		@ frame_needed = 0, uses_anonymous_args = 0
1557:../STM32Cube_FW_N6/Drivers/STM32N6xx_HAL_Driver/Src/stm32n6xx_hal_dma.c ****   {
 4205              		.loc 1 1557 3 view .LVU1276
1555:../STM32Cube_FW_N6/Drivers/STM32N6xx_HAL_Driver/Src/stm32n6xx_hal_dma.c ****   /* Check the DMA peripheral handle parameter */
 4206              		.loc 1 1555 1 is_stmt 0 view .LVU1277
 4207 0000 38B5     		push	{r3, r4, r5, lr}
 4208              		.cfi_def_cfa_offset 16
 4209              		.cfi_offset 3, -16
 4210              		.cfi_offset 4, -12
 4211              		.cfi_offset 5, -8
 4212              		.cfi_offset 14, -4
1555:../STM32Cube_FW_N6/Drivers/STM32N6xx_HAL_Driver/Src/stm32n6xx_hal_dma.c ****   /* Check the DMA peripheral handle parameter */
 4213              		.loc 1 1555 1 view .LVU1278
 4214 0002 0C46     		mov	r4, r1
1557:../STM32Cube_FW_N6/Drivers/STM32N6xx_HAL_Driver/Src/stm32n6xx_hal_dma.c ****   {
 4215              		.loc 1 1557 6 view .LVU1279
 4216 0004 0546     		mov	r5, r0
 4217 0006 0028     		cmp	r0, #0
 4218 0008 00F0C080 		beq	.L363
1557:../STM32Cube_FW_N6/Drivers/STM32N6xx_HAL_Driver/Src/stm32n6xx_hal_dma.c ****   {
 4219              		.loc 1 1557 22 discriminator 1 view .LVU1280
 4220 000c 0029     		cmp	r1, #0
 4221 000e 00F0BD80 		beq	.L363
1563:../STM32Cube_FW_N6/Drivers/STM32N6xx_HAL_Driver/Src/stm32n6xx_hal_dma.c ****   assert_param(IS_DMA_ISOLATION_MODE(pConfig->CidFiltering));
 4222              		.loc 1 1563 3 is_stmt 1 view .LVU1281
 4223 0012 0368     		ldr	r3, [r0]
 4224 0014 5E4A     		ldr	r2, .L374
 4225 0016 9342     		cmp	r3, r2
 4226 0018 00F09380 		beq	.L357
1563:../STM32Cube_FW_N6/Drivers/STM32N6xx_HAL_Driver/Src/stm32n6xx_hal_dma.c ****   assert_param(IS_DMA_ISOLATION_MODE(pConfig->CidFiltering));
 4227              		.loc 1 1563 3 is_stmt 0 discriminator 1 view .LVU1282
 4228 001c 02F17042 		add	r2, r2, #-268435456
 4229 0020 9342     		cmp	r3, r2
 4230 0022 00F08E80 		beq	.L357
1563:../STM32Cube_FW_N6/Drivers/STM32N6xx_HAL_Driver/Src/stm32n6xx_hal_dma.c ****   assert_param(IS_DMA_ISOLATION_MODE(pConfig->CidFiltering));
 4231              		.loc 1 1563 3 discriminator 2 view .LVU1283
 4232 0026 02F18052 		add	r2, r2, #268435456
 4233 002a 8032     		adds	r2, r2, #128
 4234 002c 9342     		cmp	r3, r2
 4235 002e 00F08880 		beq	.L357
1563:../STM32Cube_FW_N6/Drivers/STM32N6xx_HAL_Driver/Src/stm32n6xx_hal_dma.c ****   assert_param(IS_DMA_ISOLATION_MODE(pConfig->CidFiltering));
 4236              		.loc 1 1563 3 discriminator 3 view .LVU1284
 4237 0032 02F17042 		add	r2, r2, #-268435456
 4238 0036 9342     		cmp	r3, r2
ARM GAS  /tmp/ccId6s4B.s 			page 122


 4239 0038 00F08380 		beq	.L357
1563:../STM32Cube_FW_N6/Drivers/STM32N6xx_HAL_Driver/Src/stm32n6xx_hal_dma.c ****   assert_param(IS_DMA_ISOLATION_MODE(pConfig->CidFiltering));
 4240              		.loc 1 1563 3 discriminator 4 view .LVU1285
 4241 003c 02F18052 		add	r2, r2, #268435456
 4242 0040 8032     		adds	r2, r2, #128
 4243 0042 9342     		cmp	r3, r2
 4244 0044 7DD0     		beq	.L357
1563:../STM32Cube_FW_N6/Drivers/STM32N6xx_HAL_Driver/Src/stm32n6xx_hal_dma.c ****   assert_param(IS_DMA_ISOLATION_MODE(pConfig->CidFiltering));
 4245              		.loc 1 1563 3 discriminator 5 view .LVU1286
 4246 0046 02F17042 		add	r2, r2, #-268435456
 4247 004a 9342     		cmp	r3, r2
 4248 004c 79D0     		beq	.L357
1563:../STM32Cube_FW_N6/Drivers/STM32N6xx_HAL_Driver/Src/stm32n6xx_hal_dma.c ****   assert_param(IS_DMA_ISOLATION_MODE(pConfig->CidFiltering));
 4249              		.loc 1 1563 3 discriminator 6 view .LVU1287
 4250 004e 02F18052 		add	r2, r2, #268435456
 4251 0052 8032     		adds	r2, r2, #128
 4252 0054 9342     		cmp	r3, r2
 4253 0056 74D0     		beq	.L357
1563:../STM32Cube_FW_N6/Drivers/STM32N6xx_HAL_Driver/Src/stm32n6xx_hal_dma.c ****   assert_param(IS_DMA_ISOLATION_MODE(pConfig->CidFiltering));
 4254              		.loc 1 1563 3 discriminator 7 view .LVU1288
 4255 0058 02F17042 		add	r2, r2, #-268435456
 4256 005c 9342     		cmp	r3, r2
 4257 005e 70D0     		beq	.L357
1563:../STM32Cube_FW_N6/Drivers/STM32N6xx_HAL_Driver/Src/stm32n6xx_hal_dma.c ****   assert_param(IS_DMA_ISOLATION_MODE(pConfig->CidFiltering));
 4258              		.loc 1 1563 3 discriminator 8 view .LVU1289
 4259 0060 02F18052 		add	r2, r2, #268435456
 4260 0064 8032     		adds	r2, r2, #128
 4261 0066 9342     		cmp	r3, r2
 4262 0068 6BD0     		beq	.L357
1563:../STM32Cube_FW_N6/Drivers/STM32N6xx_HAL_Driver/Src/stm32n6xx_hal_dma.c ****   assert_param(IS_DMA_ISOLATION_MODE(pConfig->CidFiltering));
 4263              		.loc 1 1563 3 discriminator 9 view .LVU1290
 4264 006a 02F17042 		add	r2, r2, #-268435456
 4265 006e 9342     		cmp	r3, r2
 4266 0070 67D0     		beq	.L357
1563:../STM32Cube_FW_N6/Drivers/STM32N6xx_HAL_Driver/Src/stm32n6xx_hal_dma.c ****   assert_param(IS_DMA_ISOLATION_MODE(pConfig->CidFiltering));
 4267              		.loc 1 1563 3 discriminator 10 view .LVU1291
 4268 0072 02F18052 		add	r2, r2, #268435456
 4269 0076 8032     		adds	r2, r2, #128
 4270 0078 9342     		cmp	r3, r2
 4271 007a 62D0     		beq	.L357
1563:../STM32Cube_FW_N6/Drivers/STM32N6xx_HAL_Driver/Src/stm32n6xx_hal_dma.c ****   assert_param(IS_DMA_ISOLATION_MODE(pConfig->CidFiltering));
 4272              		.loc 1 1563 3 discriminator 11 view .LVU1292
 4273 007c 02F17042 		add	r2, r2, #-268435456
 4274 0080 9342     		cmp	r3, r2
 4275 0082 5ED0     		beq	.L357
1563:../STM32Cube_FW_N6/Drivers/STM32N6xx_HAL_Driver/Src/stm32n6xx_hal_dma.c ****   assert_param(IS_DMA_ISOLATION_MODE(pConfig->CidFiltering));
 4276              		.loc 1 1563 3 discriminator 12 view .LVU1293
 4277 0084 02F18052 		add	r2, r2, #268435456
 4278 0088 8032     		adds	r2, r2, #128
 4279 008a 9342     		cmp	r3, r2
 4280 008c 59D0     		beq	.L357
1563:../STM32Cube_FW_N6/Drivers/STM32N6xx_HAL_Driver/Src/stm32n6xx_hal_dma.c ****   assert_param(IS_DMA_ISOLATION_MODE(pConfig->CidFiltering));
 4281              		.loc 1 1563 3 discriminator 13 view .LVU1294
 4282 008e 02F17042 		add	r2, r2, #-268435456
 4283 0092 9342     		cmp	r3, r2
 4284 0094 55D0     		beq	.L357
1563:../STM32Cube_FW_N6/Drivers/STM32N6xx_HAL_Driver/Src/stm32n6xx_hal_dma.c ****   assert_param(IS_DMA_ISOLATION_MODE(pConfig->CidFiltering));
ARM GAS  /tmp/ccId6s4B.s 			page 123


 4285              		.loc 1 1563 3 discriminator 14 view .LVU1295
 4286 0096 02F18052 		add	r2, r2, #268435456
 4287 009a 8032     		adds	r2, r2, #128
 4288 009c 9342     		cmp	r3, r2
 4289 009e 50D0     		beq	.L357
1563:../STM32Cube_FW_N6/Drivers/STM32N6xx_HAL_Driver/Src/stm32n6xx_hal_dma.c ****   assert_param(IS_DMA_ISOLATION_MODE(pConfig->CidFiltering));
 4290              		.loc 1 1563 3 discriminator 15 view .LVU1296
 4291 00a0 02F17042 		add	r2, r2, #-268435456
 4292 00a4 9342     		cmp	r3, r2
 4293 00a6 4CD0     		beq	.L357
1563:../STM32Cube_FW_N6/Drivers/STM32N6xx_HAL_Driver/Src/stm32n6xx_hal_dma.c ****   assert_param(IS_DMA_ISOLATION_MODE(pConfig->CidFiltering));
 4294              		.loc 1 1563 3 discriminator 16 view .LVU1297
 4295 00a8 02F18052 		add	r2, r2, #268435456
 4296 00ac 8032     		adds	r2, r2, #128
 4297 00ae 9342     		cmp	r3, r2
 4298 00b0 47D0     		beq	.L357
1563:../STM32Cube_FW_N6/Drivers/STM32N6xx_HAL_Driver/Src/stm32n6xx_hal_dma.c ****   assert_param(IS_DMA_ISOLATION_MODE(pConfig->CidFiltering));
 4299              		.loc 1 1563 3 discriminator 17 view .LVU1298
 4300 00b2 02F17042 		add	r2, r2, #-268435456
 4301 00b6 9342     		cmp	r3, r2
 4302 00b8 43D0     		beq	.L357
1563:../STM32Cube_FW_N6/Drivers/STM32N6xx_HAL_Driver/Src/stm32n6xx_hal_dma.c ****   assert_param(IS_DMA_ISOLATION_MODE(pConfig->CidFiltering));
 4303              		.loc 1 1563 3 discriminator 18 view .LVU1299
 4304 00ba 02F18052 		add	r2, r2, #268435456
 4305 00be 8032     		adds	r2, r2, #128
 4306 00c0 9342     		cmp	r3, r2
 4307 00c2 3ED0     		beq	.L357
1563:../STM32Cube_FW_N6/Drivers/STM32N6xx_HAL_Driver/Src/stm32n6xx_hal_dma.c ****   assert_param(IS_DMA_ISOLATION_MODE(pConfig->CidFiltering));
 4308              		.loc 1 1563 3 discriminator 19 view .LVU1300
 4309 00c4 02F17042 		add	r2, r2, #-268435456
 4310 00c8 9342     		cmp	r3, r2
 4311 00ca 3AD0     		beq	.L357
1563:../STM32Cube_FW_N6/Drivers/STM32N6xx_HAL_Driver/Src/stm32n6xx_hal_dma.c ****   assert_param(IS_DMA_ISOLATION_MODE(pConfig->CidFiltering));
 4312              		.loc 1 1563 3 discriminator 20 view .LVU1301
 4313 00cc 02F18052 		add	r2, r2, #268435456
 4314 00d0 8032     		adds	r2, r2, #128
 4315 00d2 9342     		cmp	r3, r2
 4316 00d4 35D0     		beq	.L357
1563:../STM32Cube_FW_N6/Drivers/STM32N6xx_HAL_Driver/Src/stm32n6xx_hal_dma.c ****   assert_param(IS_DMA_ISOLATION_MODE(pConfig->CidFiltering));
 4317              		.loc 1 1563 3 discriminator 21 view .LVU1302
 4318 00d6 02F17042 		add	r2, r2, #-268435456
 4319 00da 9342     		cmp	r3, r2
 4320 00dc 31D0     		beq	.L357
1563:../STM32Cube_FW_N6/Drivers/STM32N6xx_HAL_Driver/Src/stm32n6xx_hal_dma.c ****   assert_param(IS_DMA_ISOLATION_MODE(pConfig->CidFiltering));
 4321              		.loc 1 1563 3 discriminator 22 view .LVU1303
 4322 00de 02F18052 		add	r2, r2, #268435456
 4323 00e2 8032     		adds	r2, r2, #128
 4324 00e4 9342     		cmp	r3, r2
 4325 00e6 2CD0     		beq	.L357
1563:../STM32Cube_FW_N6/Drivers/STM32N6xx_HAL_Driver/Src/stm32n6xx_hal_dma.c ****   assert_param(IS_DMA_ISOLATION_MODE(pConfig->CidFiltering));
 4326              		.loc 1 1563 3 discriminator 23 view .LVU1304
 4327 00e8 02F17042 		add	r2, r2, #-268435456
 4328 00ec 9342     		cmp	r3, r2
 4329 00ee 28D0     		beq	.L357
1563:../STM32Cube_FW_N6/Drivers/STM32N6xx_HAL_Driver/Src/stm32n6xx_hal_dma.c ****   assert_param(IS_DMA_ISOLATION_MODE(pConfig->CidFiltering));
 4330              		.loc 1 1563 3 discriminator 24 view .LVU1305
 4331 00f0 02F18052 		add	r2, r2, #268435456
ARM GAS  /tmp/ccId6s4B.s 			page 124


 4332 00f4 8032     		adds	r2, r2, #128
 4333 00f6 9342     		cmp	r3, r2
 4334 00f8 23D0     		beq	.L357
1563:../STM32Cube_FW_N6/Drivers/STM32N6xx_HAL_Driver/Src/stm32n6xx_hal_dma.c ****   assert_param(IS_DMA_ISOLATION_MODE(pConfig->CidFiltering));
 4335              		.loc 1 1563 3 discriminator 25 view .LVU1306
 4336 00fa 02F17042 		add	r2, r2, #-268435456
 4337 00fe 9342     		cmp	r3, r2
 4338 0100 1FD0     		beq	.L357
1563:../STM32Cube_FW_N6/Drivers/STM32N6xx_HAL_Driver/Src/stm32n6xx_hal_dma.c ****   assert_param(IS_DMA_ISOLATION_MODE(pConfig->CidFiltering));
 4339              		.loc 1 1563 3 discriminator 26 view .LVU1307
 4340 0102 02F18052 		add	r2, r2, #268435456
 4341 0106 8032     		adds	r2, r2, #128
 4342 0108 9342     		cmp	r3, r2
 4343 010a 1AD0     		beq	.L357
1563:../STM32Cube_FW_N6/Drivers/STM32N6xx_HAL_Driver/Src/stm32n6xx_hal_dma.c ****   assert_param(IS_DMA_ISOLATION_MODE(pConfig->CidFiltering));
 4344              		.loc 1 1563 3 discriminator 27 view .LVU1308
 4345 010c 02F17042 		add	r2, r2, #-268435456
 4346 0110 9342     		cmp	r3, r2
 4347 0112 16D0     		beq	.L357
1563:../STM32Cube_FW_N6/Drivers/STM32N6xx_HAL_Driver/Src/stm32n6xx_hal_dma.c ****   assert_param(IS_DMA_ISOLATION_MODE(pConfig->CidFiltering));
 4348              		.loc 1 1563 3 discriminator 28 view .LVU1309
 4349 0114 02F18052 		add	r2, r2, #268435456
 4350 0118 8032     		adds	r2, r2, #128
 4351 011a 9342     		cmp	r3, r2
 4352 011c 11D0     		beq	.L357
1563:../STM32Cube_FW_N6/Drivers/STM32N6xx_HAL_Driver/Src/stm32n6xx_hal_dma.c ****   assert_param(IS_DMA_ISOLATION_MODE(pConfig->CidFiltering));
 4353              		.loc 1 1563 3 discriminator 29 view .LVU1310
 4354 011e 02F17042 		add	r2, r2, #-268435456
 4355 0122 9342     		cmp	r3, r2
 4356 0124 0DD0     		beq	.L357
1563:../STM32Cube_FW_N6/Drivers/STM32N6xx_HAL_Driver/Src/stm32n6xx_hal_dma.c ****   assert_param(IS_DMA_ISOLATION_MODE(pConfig->CidFiltering));
 4357              		.loc 1 1563 3 discriminator 30 view .LVU1311
 4358 0126 02F18052 		add	r2, r2, #268435456
 4359 012a 8032     		adds	r2, r2, #128
 4360 012c 9342     		cmp	r3, r2
 4361 012e 08D0     		beq	.L357
1563:../STM32Cube_FW_N6/Drivers/STM32N6xx_HAL_Driver/Src/stm32n6xx_hal_dma.c ****   assert_param(IS_DMA_ISOLATION_MODE(pConfig->CidFiltering));
 4362              		.loc 1 1563 3 discriminator 31 view .LVU1312
 4363 0130 02F17042 		add	r2, r2, #-268435456
 4364 0134 9342     		cmp	r3, r2
 4365 0136 04D0     		beq	.L357
1563:../STM32Cube_FW_N6/Drivers/STM32N6xx_HAL_Driver/Src/stm32n6xx_hal_dma.c ****   assert_param(IS_DMA_ISOLATION_MODE(pConfig->CidFiltering));
 4366              		.loc 1 1563 3 discriminator 32 view .LVU1313
 4367 0138 40F21B61 		movw	r1, #1563
 4368              	.LVL146:
1563:../STM32Cube_FW_N6/Drivers/STM32N6xx_HAL_Driver/Src/stm32n6xx_hal_dma.c ****   assert_param(IS_DMA_ISOLATION_MODE(pConfig->CidFiltering));
 4369              		.loc 1 1563 3 discriminator 32 view .LVU1314
 4370 013c 1548     		ldr	r0, .L374+4
 4371              	.LVL147:
1563:../STM32Cube_FW_N6/Drivers/STM32N6xx_HAL_Driver/Src/stm32n6xx_hal_dma.c ****   assert_param(IS_DMA_ISOLATION_MODE(pConfig->CidFiltering));
 4372              		.loc 1 1563 3 discriminator 32 view .LVU1315
 4373 013e FFF7FEFF 		bl	assert_failed
 4374              	.LVL148:
 4375              	.L357:
1564:../STM32Cube_FW_N6/Drivers/STM32N6xx_HAL_Driver/Src/stm32n6xx_hal_dma.c ****   assert_param(IS_DMA_ISOLATION_STATIC_CID(pConfig->StaticCid));
 4376              		.loc 1 1564 3 is_stmt 1 view .LVU1316
 4377 0142 2368     		ldr	r3, [r4]
ARM GAS  /tmp/ccId6s4B.s 			page 125


 4378 0144 012B     		cmp	r3, #1
 4379 0146 04D9     		bls	.L358
1564:../STM32Cube_FW_N6/Drivers/STM32N6xx_HAL_Driver/Src/stm32n6xx_hal_dma.c ****   assert_param(IS_DMA_ISOLATION_STATIC_CID(pConfig->StaticCid));
 4380              		.loc 1 1564 3 is_stmt 0 discriminator 1 view .LVU1317
 4381 0148 40F21C61 		movw	r1, #1564
 4382 014c 1148     		ldr	r0, .L374+4
 4383 014e FFF7FEFF 		bl	assert_failed
 4384              	.LVL149:
 4385              	.L358:
1565:../STM32Cube_FW_N6/Drivers/STM32N6xx_HAL_Driver/Src/stm32n6xx_hal_dma.c **** 
 4386              		.loc 1 1565 3 is_stmt 1 view .LVU1318
 4387 0152 6368     		ldr	r3, [r4, #4]
 4388 0154 33F03002 		bics	r2, r3, #48
 4389 0158 0AD0     		beq	.L359
 4390 015a 23F01002 		bic	r2, r3, #16
1565:../STM32Cube_FW_N6/Drivers/STM32N6xx_HAL_Driver/Src/stm32n6xx_hal_dma.c **** 
 4391              		.loc 1 1565 3 is_stmt 0 discriminator 4 view .LVU1319
 4392 015e 402A     		cmp	r2, #64
 4393 0160 06D0     		beq	.L359
1565:../STM32Cube_FW_N6/Drivers/STM32N6xx_HAL_Driver/Src/stm32n6xx_hal_dma.c **** 
 4394              		.loc 1 1565 3 discriminator 6 view .LVU1320
 4395 0162 602B     		cmp	r3, #96
 4396 0164 04D0     		beq	.L359
1565:../STM32Cube_FW_N6/Drivers/STM32N6xx_HAL_Driver/Src/stm32n6xx_hal_dma.c **** 
 4397              		.loc 1 1565 3 discriminator 7 view .LVU1321
 4398 0166 40F21D61 		movw	r1, #1565
 4399 016a 0A48     		ldr	r0, .L374+4
 4400 016c FFF7FEFF 		bl	assert_failed
 4401              	.LVL150:
 4402              	.L359:
1568:../STM32Cube_FW_N6/Drivers/STM32N6xx_HAL_Driver/Src/stm32n6xx_hal_dma.c ****   {
 4403              		.loc 1 1568 3 is_stmt 1 view .LVU1322
1568:../STM32Cube_FW_N6/Drivers/STM32N6xx_HAL_Driver/Src/stm32n6xx_hal_dma.c ****   {
 4404              		.loc 1 1568 6 is_stmt 0 view .LVU1323
 4405 0170 2368     		ldr	r3, [r4]
1579:../STM32Cube_FW_N6/Drivers/STM32N6xx_HAL_Driver/Src/stm32n6xx_hal_dma.c **** }
 4406              		.loc 1 1579 10 view .LVU1324
 4407 0172 0020     		movs	r0, #0
1568:../STM32Cube_FW_N6/Drivers/STM32N6xx_HAL_Driver/Src/stm32n6xx_hal_dma.c ****   {
 4408              		.loc 1 1568 6 view .LVU1325
 4409 0174 012B     		cmp	r3, #1
1571:../STM32Cube_FW_N6/Drivers/STM32N6xx_HAL_Driver/Src/stm32n6xx_hal_dma.c ****   }
 4410              		.loc 1 1571 5 is_stmt 1 view .LVU1326
1576:../STM32Cube_FW_N6/Drivers/STM32N6xx_HAL_Driver/Src/stm32n6xx_hal_dma.c ****   }
 4411              		.loc 1 1576 30 is_stmt 0 view .LVU1327
 4412 0176 14BF     		ite	ne
 4413 0178 0023     		movne	r3, #0
1571:../STM32Cube_FW_N6/Drivers/STM32N6xx_HAL_Driver/Src/stm32n6xx_hal_dma.c ****   }
 4414              		.loc 1 1571 53 view .LVU1328
 4415 017a 6368     		ldreq	r3, [r4, #4]
1571:../STM32Cube_FW_N6/Drivers/STM32N6xx_HAL_Driver/Src/stm32n6xx_hal_dma.c ****   }
 4416              		.loc 1 1571 9 view .LVU1329
 4417 017c 2A68     		ldr	r2, [r5]
1571:../STM32Cube_FW_N6/Drivers/STM32N6xx_HAL_Driver/Src/stm32n6xx_hal_dma.c ****   }
 4418              		.loc 1 1571 53 view .LVU1330
 4419 017e 04BF     		itt	eq
 4420 0180 03F07003 		andeq	r3, r3, #112
ARM GAS  /tmp/ccId6s4B.s 			page 126


1571:../STM32Cube_FW_N6/Drivers/STM32N6xx_HAL_Driver/Src/stm32n6xx_hal_dma.c ****   }
 4421              		.loc 1 1571 78 view .LVU1331
 4422 0184 43F00103 		orreq	r3, r3, #1
1576:../STM32Cube_FW_N6/Drivers/STM32N6xx_HAL_Driver/Src/stm32n6xx_hal_dma.c ****   }
 4423              		.loc 1 1576 5 is_stmt 1 view .LVU1332
1576:../STM32Cube_FW_N6/Drivers/STM32N6xx_HAL_Driver/Src/stm32n6xx_hal_dma.c ****   }
 4424              		.loc 1 1576 30 is_stmt 0 view .LVU1333
 4425 0188 5360     		str	r3, [r2, #4]
 4426              	.L356:
1580:../STM32Cube_FW_N6/Drivers/STM32N6xx_HAL_Driver/Src/stm32n6xx_hal_dma.c **** #endif /* CPU_IN_SECURE_STATE */
 4427              		.loc 1 1580 1 view .LVU1334
 4428 018a 38BD     		pop	{r3, r4, r5, pc}
 4429              	.LVL151:
 4430              	.L363:
1559:../STM32Cube_FW_N6/Drivers/STM32N6xx_HAL_Driver/Src/stm32n6xx_hal_dma.c ****   }
 4431              		.loc 1 1559 12 view .LVU1335
 4432 018c 0120     		movs	r0, #1
 4433              	.LVL152:
1559:../STM32Cube_FW_N6/Drivers/STM32N6xx_HAL_Driver/Src/stm32n6xx_hal_dma.c ****   }
 4434              		.loc 1 1559 12 view .LVU1336
 4435 018e FCE7     		b	.L356
 4436              	.L375:
 4437              		.align	2
 4438              	.L374:
 4439 0190 50000258 		.word	1476526160
 4440 0194 00000000 		.word	.LC0
 4441              		.cfi_endproc
 4442              	.LFE895:
 4444              		.section	.text.HAL_DMA_GetIsolationAttributes,"ax",%progbits
 4445              		.align	1
 4446              		.global	HAL_DMA_GetIsolationAttributes
 4447              		.syntax unified
 4448              		.thumb
 4449              		.thumb_func
 4451              	HAL_DMA_GetIsolationAttributes:
 4452              	.LVL153:
 4453              	.LFB896:
1593:../STM32Cube_FW_N6/Drivers/STM32N6xx_HAL_Driver/Src/stm32n6xx_hal_dma.c ****   uint32_t ccidcfgr;
 4454              		.loc 1 1593 1 is_stmt 1 view -0
 4455              		.cfi_startproc
 4456              		@ args = 0, pretend = 0, frame = 0
 4457              		@ frame_needed = 0, uses_anonymous_args = 0
1594:../STM32Cube_FW_N6/Drivers/STM32N6xx_HAL_Driver/Src/stm32n6xx_hal_dma.c **** 
 4458              		.loc 1 1594 3 view .LVU1338
1597:../STM32Cube_FW_N6/Drivers/STM32N6xx_HAL_Driver/Src/stm32n6xx_hal_dma.c ****   {
 4459              		.loc 1 1597 3 view .LVU1339
1593:../STM32Cube_FW_N6/Drivers/STM32N6xx_HAL_Driver/Src/stm32n6xx_hal_dma.c ****   uint32_t ccidcfgr;
 4460              		.loc 1 1593 1 is_stmt 0 view .LVU1340
 4461 0000 38B5     		push	{r3, r4, r5, lr}
 4462              		.cfi_def_cfa_offset 16
 4463              		.cfi_offset 3, -16
 4464              		.cfi_offset 4, -12
 4465              		.cfi_offset 5, -8
 4466              		.cfi_offset 14, -4
1593:../STM32Cube_FW_N6/Drivers/STM32N6xx_HAL_Driver/Src/stm32n6xx_hal_dma.c ****   uint32_t ccidcfgr;
 4467              		.loc 1 1593 1 view .LVU1341
 4468 0002 0C46     		mov	r4, r1
ARM GAS  /tmp/ccId6s4B.s 			page 127


1597:../STM32Cube_FW_N6/Drivers/STM32N6xx_HAL_Driver/Src/stm32n6xx_hal_dma.c ****   {
 4469              		.loc 1 1597 6 view .LVU1342
 4470 0004 0028     		cmp	r0, #0
 4471 0006 00F0A480 		beq	.L380
1597:../STM32Cube_FW_N6/Drivers/STM32N6xx_HAL_Driver/Src/stm32n6xx_hal_dma.c ****   {
 4472              		.loc 1 1597 22 discriminator 1 view .LVU1343
 4473 000a 0029     		cmp	r1, #0
 4474 000c 00F0A180 		beq	.L380
1602:../STM32Cube_FW_N6/Drivers/STM32N6xx_HAL_Driver/Src/stm32n6xx_hal_dma.c **** 
 4475              		.loc 1 1602 3 is_stmt 1 view .LVU1344
1602:../STM32Cube_FW_N6/Drivers/STM32N6xx_HAL_Driver/Src/stm32n6xx_hal_dma.c **** 
 4476              		.loc 1 1602 18 is_stmt 0 view .LVU1345
 4477 0010 0368     		ldr	r3, [r0]
1605:../STM32Cube_FW_N6/Drivers/STM32N6xx_HAL_Driver/Src/stm32n6xx_hal_dma.c **** 
 4478              		.loc 1 1605 3 view .LVU1346
 4479 0012 514A     		ldr	r2, .L381
1602:../STM32Cube_FW_N6/Drivers/STM32N6xx_HAL_Driver/Src/stm32n6xx_hal_dma.c **** 
 4480              		.loc 1 1602 12 view .LVU1347
 4481 0014 5D68     		ldr	r5, [r3, #4]
 4482              	.LVL154:
1605:../STM32Cube_FW_N6/Drivers/STM32N6xx_HAL_Driver/Src/stm32n6xx_hal_dma.c **** 
 4483              		.loc 1 1605 3 is_stmt 1 view .LVU1348
 4484 0016 9342     		cmp	r3, r2
 4485 0018 00F09380 		beq	.L378
1605:../STM32Cube_FW_N6/Drivers/STM32N6xx_HAL_Driver/Src/stm32n6xx_hal_dma.c **** 
 4486              		.loc 1 1605 3 is_stmt 0 discriminator 1 view .LVU1349
 4487 001c 02F17042 		add	r2, r2, #-268435456
 4488 0020 9342     		cmp	r3, r2
 4489 0022 00F08E80 		beq	.L378
1605:../STM32Cube_FW_N6/Drivers/STM32N6xx_HAL_Driver/Src/stm32n6xx_hal_dma.c **** 
 4490              		.loc 1 1605 3 discriminator 2 view .LVU1350
 4491 0026 02F18052 		add	r2, r2, #268435456
 4492 002a 8032     		adds	r2, r2, #128
 4493 002c 9342     		cmp	r3, r2
 4494 002e 00F08880 		beq	.L378
1605:../STM32Cube_FW_N6/Drivers/STM32N6xx_HAL_Driver/Src/stm32n6xx_hal_dma.c **** 
 4495              		.loc 1 1605 3 discriminator 3 view .LVU1351
 4496 0032 02F17042 		add	r2, r2, #-268435456
 4497 0036 9342     		cmp	r3, r2
 4498 0038 00F08380 		beq	.L378
1605:../STM32Cube_FW_N6/Drivers/STM32N6xx_HAL_Driver/Src/stm32n6xx_hal_dma.c **** 
 4499              		.loc 1 1605 3 discriminator 4 view .LVU1352
 4500 003c 02F18052 		add	r2, r2, #268435456
 4501 0040 8032     		adds	r2, r2, #128
 4502 0042 9342     		cmp	r3, r2
 4503 0044 7DD0     		beq	.L378
1605:../STM32Cube_FW_N6/Drivers/STM32N6xx_HAL_Driver/Src/stm32n6xx_hal_dma.c **** 
 4504              		.loc 1 1605 3 discriminator 5 view .LVU1353
 4505 0046 02F17042 		add	r2, r2, #-268435456
 4506 004a 9342     		cmp	r3, r2
 4507 004c 79D0     		beq	.L378
1605:../STM32Cube_FW_N6/Drivers/STM32N6xx_HAL_Driver/Src/stm32n6xx_hal_dma.c **** 
 4508              		.loc 1 1605 3 discriminator 6 view .LVU1354
 4509 004e 02F18052 		add	r2, r2, #268435456
 4510 0052 8032     		adds	r2, r2, #128
 4511 0054 9342     		cmp	r3, r2
 4512 0056 74D0     		beq	.L378
ARM GAS  /tmp/ccId6s4B.s 			page 128


1605:../STM32Cube_FW_N6/Drivers/STM32N6xx_HAL_Driver/Src/stm32n6xx_hal_dma.c **** 
 4513              		.loc 1 1605 3 discriminator 7 view .LVU1355
 4514 0058 02F17042 		add	r2, r2, #-268435456
 4515 005c 9342     		cmp	r3, r2
 4516 005e 70D0     		beq	.L378
1605:../STM32Cube_FW_N6/Drivers/STM32N6xx_HAL_Driver/Src/stm32n6xx_hal_dma.c **** 
 4517              		.loc 1 1605 3 discriminator 8 view .LVU1356
 4518 0060 02F18052 		add	r2, r2, #268435456
 4519 0064 8032     		adds	r2, r2, #128
 4520 0066 9342     		cmp	r3, r2
 4521 0068 6BD0     		beq	.L378
1605:../STM32Cube_FW_N6/Drivers/STM32N6xx_HAL_Driver/Src/stm32n6xx_hal_dma.c **** 
 4522              		.loc 1 1605 3 discriminator 9 view .LVU1357
 4523 006a 02F17042 		add	r2, r2, #-268435456
 4524 006e 9342     		cmp	r3, r2
 4525 0070 67D0     		beq	.L378
1605:../STM32Cube_FW_N6/Drivers/STM32N6xx_HAL_Driver/Src/stm32n6xx_hal_dma.c **** 
 4526              		.loc 1 1605 3 discriminator 10 view .LVU1358
 4527 0072 02F18052 		add	r2, r2, #268435456
 4528 0076 8032     		adds	r2, r2, #128
 4529 0078 9342     		cmp	r3, r2
 4530 007a 62D0     		beq	.L378
1605:../STM32Cube_FW_N6/Drivers/STM32N6xx_HAL_Driver/Src/stm32n6xx_hal_dma.c **** 
 4531              		.loc 1 1605 3 discriminator 11 view .LVU1359
 4532 007c 02F17042 		add	r2, r2, #-268435456
 4533 0080 9342     		cmp	r3, r2
 4534 0082 5ED0     		beq	.L378
1605:../STM32Cube_FW_N6/Drivers/STM32N6xx_HAL_Driver/Src/stm32n6xx_hal_dma.c **** 
 4535              		.loc 1 1605 3 discriminator 12 view .LVU1360
 4536 0084 02F18052 		add	r2, r2, #268435456
 4537 0088 8032     		adds	r2, r2, #128
 4538 008a 9342     		cmp	r3, r2
 4539 008c 59D0     		beq	.L378
1605:../STM32Cube_FW_N6/Drivers/STM32N6xx_HAL_Driver/Src/stm32n6xx_hal_dma.c **** 
 4540              		.loc 1 1605 3 discriminator 13 view .LVU1361
 4541 008e 02F17042 		add	r2, r2, #-268435456
 4542 0092 9342     		cmp	r3, r2
 4543 0094 55D0     		beq	.L378
1605:../STM32Cube_FW_N6/Drivers/STM32N6xx_HAL_Driver/Src/stm32n6xx_hal_dma.c **** 
 4544              		.loc 1 1605 3 discriminator 14 view .LVU1362
 4545 0096 02F18052 		add	r2, r2, #268435456
 4546 009a 8032     		adds	r2, r2, #128
 4547 009c 9342     		cmp	r3, r2
 4548 009e 50D0     		beq	.L378
1605:../STM32Cube_FW_N6/Drivers/STM32N6xx_HAL_Driver/Src/stm32n6xx_hal_dma.c **** 
 4549              		.loc 1 1605 3 discriminator 15 view .LVU1363
 4550 00a0 02F17042 		add	r2, r2, #-268435456
 4551 00a4 9342     		cmp	r3, r2
 4552 00a6 4CD0     		beq	.L378
1605:../STM32Cube_FW_N6/Drivers/STM32N6xx_HAL_Driver/Src/stm32n6xx_hal_dma.c **** 
 4553              		.loc 1 1605 3 discriminator 16 view .LVU1364
 4554 00a8 02F18052 		add	r2, r2, #268435456
 4555 00ac 8032     		adds	r2, r2, #128
 4556 00ae 9342     		cmp	r3, r2
 4557 00b0 47D0     		beq	.L378
1605:../STM32Cube_FW_N6/Drivers/STM32N6xx_HAL_Driver/Src/stm32n6xx_hal_dma.c **** 
 4558              		.loc 1 1605 3 discriminator 17 view .LVU1365
ARM GAS  /tmp/ccId6s4B.s 			page 129


 4559 00b2 02F17042 		add	r2, r2, #-268435456
 4560 00b6 9342     		cmp	r3, r2
 4561 00b8 43D0     		beq	.L378
1605:../STM32Cube_FW_N6/Drivers/STM32N6xx_HAL_Driver/Src/stm32n6xx_hal_dma.c **** 
 4562              		.loc 1 1605 3 discriminator 18 view .LVU1366
 4563 00ba 02F18052 		add	r2, r2, #268435456
 4564 00be 8032     		adds	r2, r2, #128
 4565 00c0 9342     		cmp	r3, r2
 4566 00c2 3ED0     		beq	.L378
1605:../STM32Cube_FW_N6/Drivers/STM32N6xx_HAL_Driver/Src/stm32n6xx_hal_dma.c **** 
 4567              		.loc 1 1605 3 discriminator 19 view .LVU1367
 4568 00c4 02F17042 		add	r2, r2, #-268435456
 4569 00c8 9342     		cmp	r3, r2
 4570 00ca 3AD0     		beq	.L378
1605:../STM32Cube_FW_N6/Drivers/STM32N6xx_HAL_Driver/Src/stm32n6xx_hal_dma.c **** 
 4571              		.loc 1 1605 3 discriminator 20 view .LVU1368
 4572 00cc 02F18052 		add	r2, r2, #268435456
 4573 00d0 8032     		adds	r2, r2, #128
 4574 00d2 9342     		cmp	r3, r2
 4575 00d4 35D0     		beq	.L378
1605:../STM32Cube_FW_N6/Drivers/STM32N6xx_HAL_Driver/Src/stm32n6xx_hal_dma.c **** 
 4576              		.loc 1 1605 3 discriminator 21 view .LVU1369
 4577 00d6 02F17042 		add	r2, r2, #-268435456
 4578 00da 9342     		cmp	r3, r2
 4579 00dc 31D0     		beq	.L378
1605:../STM32Cube_FW_N6/Drivers/STM32N6xx_HAL_Driver/Src/stm32n6xx_hal_dma.c **** 
 4580              		.loc 1 1605 3 discriminator 22 view .LVU1370
 4581 00de 02F18052 		add	r2, r2, #268435456
 4582 00e2 8032     		adds	r2, r2, #128
 4583 00e4 9342     		cmp	r3, r2
 4584 00e6 2CD0     		beq	.L378
1605:../STM32Cube_FW_N6/Drivers/STM32N6xx_HAL_Driver/Src/stm32n6xx_hal_dma.c **** 
 4585              		.loc 1 1605 3 discriminator 23 view .LVU1371
 4586 00e8 02F17042 		add	r2, r2, #-268435456
 4587 00ec 9342     		cmp	r3, r2
 4588 00ee 28D0     		beq	.L378
1605:../STM32Cube_FW_N6/Drivers/STM32N6xx_HAL_Driver/Src/stm32n6xx_hal_dma.c **** 
 4589              		.loc 1 1605 3 discriminator 24 view .LVU1372
 4590 00f0 02F18052 		add	r2, r2, #268435456
 4591 00f4 8032     		adds	r2, r2, #128
 4592 00f6 9342     		cmp	r3, r2
 4593 00f8 23D0     		beq	.L378
1605:../STM32Cube_FW_N6/Drivers/STM32N6xx_HAL_Driver/Src/stm32n6xx_hal_dma.c **** 
 4594              		.loc 1 1605 3 discriminator 25 view .LVU1373
 4595 00fa 02F17042 		add	r2, r2, #-268435456
 4596 00fe 9342     		cmp	r3, r2
 4597 0100 1FD0     		beq	.L378
1605:../STM32Cube_FW_N6/Drivers/STM32N6xx_HAL_Driver/Src/stm32n6xx_hal_dma.c **** 
 4598              		.loc 1 1605 3 discriminator 26 view .LVU1374
 4599 0102 02F18052 		add	r2, r2, #268435456
 4600 0106 8032     		adds	r2, r2, #128
 4601 0108 9342     		cmp	r3, r2
 4602 010a 1AD0     		beq	.L378
1605:../STM32Cube_FW_N6/Drivers/STM32N6xx_HAL_Driver/Src/stm32n6xx_hal_dma.c **** 
 4603              		.loc 1 1605 3 discriminator 27 view .LVU1375
 4604 010c 02F17042 		add	r2, r2, #-268435456
 4605 0110 9342     		cmp	r3, r2
ARM GAS  /tmp/ccId6s4B.s 			page 130


 4606 0112 16D0     		beq	.L378
1605:../STM32Cube_FW_N6/Drivers/STM32N6xx_HAL_Driver/Src/stm32n6xx_hal_dma.c **** 
 4607              		.loc 1 1605 3 discriminator 28 view .LVU1376
 4608 0114 02F18052 		add	r2, r2, #268435456
 4609 0118 8032     		adds	r2, r2, #128
 4610 011a 9342     		cmp	r3, r2
 4611 011c 11D0     		beq	.L378
1605:../STM32Cube_FW_N6/Drivers/STM32N6xx_HAL_Driver/Src/stm32n6xx_hal_dma.c **** 
 4612              		.loc 1 1605 3 discriminator 29 view .LVU1377
 4613 011e 02F17042 		add	r2, r2, #-268435456
 4614 0122 9342     		cmp	r3, r2
 4615 0124 0DD0     		beq	.L378
1605:../STM32Cube_FW_N6/Drivers/STM32N6xx_HAL_Driver/Src/stm32n6xx_hal_dma.c **** 
 4616              		.loc 1 1605 3 discriminator 30 view .LVU1378
 4617 0126 02F18052 		add	r2, r2, #268435456
 4618 012a 8032     		adds	r2, r2, #128
 4619 012c 9342     		cmp	r3, r2
 4620 012e 08D0     		beq	.L378
1605:../STM32Cube_FW_N6/Drivers/STM32N6xx_HAL_Driver/Src/stm32n6xx_hal_dma.c **** 
 4621              		.loc 1 1605 3 discriminator 31 view .LVU1379
 4622 0130 02F17042 		add	r2, r2, #-268435456
 4623 0134 9342     		cmp	r3, r2
 4624 0136 04D0     		beq	.L378
1605:../STM32Cube_FW_N6/Drivers/STM32N6xx_HAL_Driver/Src/stm32n6xx_hal_dma.c **** 
 4625              		.loc 1 1605 3 discriminator 32 view .LVU1380
 4626 0138 40F24561 		movw	r1, #1605
 4627              	.LVL155:
1605:../STM32Cube_FW_N6/Drivers/STM32N6xx_HAL_Driver/Src/stm32n6xx_hal_dma.c **** 
 4628              		.loc 1 1605 3 discriminator 32 view .LVU1381
 4629 013c 0748     		ldr	r0, .L381+4
 4630              	.LVL156:
1605:../STM32Cube_FW_N6/Drivers/STM32N6xx_HAL_Driver/Src/stm32n6xx_hal_dma.c **** 
 4631              		.loc 1 1605 3 discriminator 32 view .LVU1382
 4632 013e FFF7FEFF 		bl	assert_failed
 4633              	.LVL157:
 4634              	.L378:
1607:../STM32Cube_FW_N6/Drivers/STM32N6xx_HAL_Driver/Src/stm32n6xx_hal_dma.c ****   {
 4635              		.loc 1 1607 3 is_stmt 1 view .LVU1383
1617:../STM32Cube_FW_N6/Drivers/STM32N6xx_HAL_Driver/Src/stm32n6xx_hal_dma.c **** }
 4636              		.loc 1 1617 10 is_stmt 0 view .LVU1384
 4637 0142 0020     		movs	r0, #0
1607:../STM32Cube_FW_N6/Drivers/STM32N6xx_HAL_Driver/Src/stm32n6xx_hal_dma.c ****   {
 4638              		.loc 1 1607 17 view .LVU1385
 4639 0144 05F00103 		and	r3, r5, #1
1615:../STM32Cube_FW_N6/Drivers/STM32N6xx_HAL_Driver/Src/stm32n6xx_hal_dma.c **** 
 4640              		.loc 1 1615 34 view .LVU1386
 4641 0148 05F07005 		and	r5, r5, #112
 4642              	.LVL158:
1615:../STM32Cube_FW_N6/Drivers/STM32N6xx_HAL_Driver/Src/stm32n6xx_hal_dma.c **** 
 4643              		.loc 1 1615 34 view .LVU1387
 4644 014c 2360     		str	r3, [r4]
1615:../STM32Cube_FW_N6/Drivers/STM32N6xx_HAL_Driver/Src/stm32n6xx_hal_dma.c **** 
 4645              		.loc 1 1615 3 is_stmt 1 view .LVU1388
1615:../STM32Cube_FW_N6/Drivers/STM32N6xx_HAL_Driver/Src/stm32n6xx_hal_dma.c **** 
 4646              		.loc 1 1615 22 is_stmt 0 view .LVU1389
 4647 014e 6560     		str	r5, [r4, #4]
1617:../STM32Cube_FW_N6/Drivers/STM32N6xx_HAL_Driver/Src/stm32n6xx_hal_dma.c **** }
ARM GAS  /tmp/ccId6s4B.s 			page 131


 4648              		.loc 1 1617 3 is_stmt 1 view .LVU1390
 4649              	.LVL159:
 4650              	.L377:
1618:../STM32Cube_FW_N6/Drivers/STM32N6xx_HAL_Driver/Src/stm32n6xx_hal_dma.c **** 
 4651              		.loc 1 1618 1 is_stmt 0 view .LVU1391
 4652 0150 38BD     		pop	{r3, r4, r5, pc}
 4653              	.LVL160:
 4654              	.L380:
1599:../STM32Cube_FW_N6/Drivers/STM32N6xx_HAL_Driver/Src/stm32n6xx_hal_dma.c ****   }
 4655              		.loc 1 1599 12 view .LVU1392
 4656 0152 0120     		movs	r0, #1
 4657              	.LVL161:
1599:../STM32Cube_FW_N6/Drivers/STM32N6xx_HAL_Driver/Src/stm32n6xx_hal_dma.c ****   }
 4658              		.loc 1 1599 12 view .LVU1393
 4659 0154 FCE7     		b	.L377
 4660              	.L382:
 4661 0156 00BF     		.align	2
 4662              	.L381:
 4663 0158 50000258 		.word	1476526160
 4664 015c 00000000 		.word	.LC0
 4665              		.cfi_endproc
 4666              	.LFE896:
 4668              		.section	.text.HAL_DMA_LockChannelAttributes,"ax",%progbits
 4669              		.align	1
 4670              		.global	HAL_DMA_LockChannelAttributes
 4671              		.syntax unified
 4672              		.thumb
 4673              		.thumb_func
 4675              	HAL_DMA_LockChannelAttributes:
 4676              	.LVL162:
 4677              	.LFB897:
1628:../STM32Cube_FW_N6/Drivers/STM32N6xx_HAL_Driver/Src/stm32n6xx_hal_dma.c ****   DMA_TypeDef *p_dma_instance;
 4678              		.loc 1 1628 1 is_stmt 1 view -0
 4679              		.cfi_startproc
 4680              		@ args = 0, pretend = 0, frame = 0
 4681              		@ frame_needed = 0, uses_anonymous_args = 0
 4682              		@ link register save eliminated.
1629:../STM32Cube_FW_N6/Drivers/STM32N6xx_HAL_Driver/Src/stm32n6xx_hal_dma.c ****   uint32_t channel_idx;
 4683              		.loc 1 1629 3 view .LVU1395
1630:../STM32Cube_FW_N6/Drivers/STM32N6xx_HAL_Driver/Src/stm32n6xx_hal_dma.c **** 
 4684              		.loc 1 1630 3 view .LVU1396
1633:../STM32Cube_FW_N6/Drivers/STM32N6xx_HAL_Driver/Src/stm32n6xx_hal_dma.c ****   {
 4685              		.loc 1 1633 3 view .LVU1397
1633:../STM32Cube_FW_N6/Drivers/STM32N6xx_HAL_Driver/Src/stm32n6xx_hal_dma.c ****   {
 4686              		.loc 1 1633 6 is_stmt 0 view .LVU1398
 4687 0000 88B1     		cbz	r0, .L385
1639:../STM32Cube_FW_N6/Drivers/STM32N6xx_HAL_Driver/Src/stm32n6xx_hal_dma.c **** 
 4688              		.loc 1 1639 3 is_stmt 1 view .LVU1399
1642:../STM32Cube_FW_N6/Drivers/STM32N6xx_HAL_Driver/Src/stm32n6xx_hal_dma.c **** 
 4689              		.loc 1 1642 15 is_stmt 0 view .LVU1400
 4690 0002 0122     		movs	r2, #1
1639:../STM32Cube_FW_N6/Drivers/STM32N6xx_HAL_Driver/Src/stm32n6xx_hal_dma.c **** 
 4691              		.loc 1 1639 20 view .LVU1401
 4692 0004 0368     		ldr	r3, [r0]
 4693 0006 23F47F61 		bic	r1, r3, #4080
1642:../STM32Cube_FW_N6/Drivers/STM32N6xx_HAL_Driver/Src/stm32n6xx_hal_dma.c **** 
 4694              		.loc 1 1642 25 view .LVU1402
ARM GAS  /tmp/ccId6s4B.s 			page 132


 4695 000a C3F30B03 		ubfx	r3, r3, #0, #12
1639:../STM32Cube_FW_N6/Drivers/STM32N6xx_HAL_Driver/Src/stm32n6xx_hal_dma.c **** 
 4696              		.loc 1 1639 20 view .LVU1403
 4697 000e 21F00F01 		bic	r1, r1, #15
 4698              	.LVL163:
1642:../STM32Cube_FW_N6/Drivers/STM32N6xx_HAL_Driver/Src/stm32n6xx_hal_dma.c **** 
 4699              		.loc 1 1642 3 is_stmt 1 view .LVU1404
1645:../STM32Cube_FW_N6/Drivers/STM32N6xx_HAL_Driver/Src/stm32n6xx_hal_dma.c **** 
 4700              		.loc 1 1645 3 view .LVU1405
1642:../STM32Cube_FW_N6/Drivers/STM32N6xx_HAL_Driver/Src/stm32n6xx_hal_dma.c **** 
 4701              		.loc 1 1642 25 is_stmt 0 view .LVU1406
 4702 0012 503B     		subs	r3, r3, #80
1645:../STM32Cube_FW_N6/Drivers/STM32N6xx_HAL_Driver/Src/stm32n6xx_hal_dma.c **** 
 4703              		.loc 1 1645 17 view .LVU1407
 4704 0014 8868     		ldr	r0, [r1, #8]
 4705              	.LVL164:
1642:../STM32Cube_FW_N6/Drivers/STM32N6xx_HAL_Driver/Src/stm32n6xx_hal_dma.c **** 
 4706              		.loc 1 1642 47 view .LVU1408
 4707 0016 C3F3C413 		ubfx	r3, r3, #7, #5
1642:../STM32Cube_FW_N6/Drivers/STM32N6xx_HAL_Driver/Src/stm32n6xx_hal_dma.c **** 
 4708              		.loc 1 1642 15 view .LVU1409
 4709 001a 02FA03F3 		lsl	r3, r2, r3
1645:../STM32Cube_FW_N6/Drivers/STM32N6xx_HAL_Driver/Src/stm32n6xx_hal_dma.c **** 
 4710              		.loc 1 1645 29 view .LVU1410
 4711 001e 0343     		orrs	r3, r3, r0
 4712 0020 8B60     		str	r3, [r1, #8]
1647:../STM32Cube_FW_N6/Drivers/STM32N6xx_HAL_Driver/Src/stm32n6xx_hal_dma.c **** }
 4713              		.loc 1 1647 3 is_stmt 1 view .LVU1411
1647:../STM32Cube_FW_N6/Drivers/STM32N6xx_HAL_Driver/Src/stm32n6xx_hal_dma.c **** }
 4714              		.loc 1 1647 10 is_stmt 0 view .LVU1412
 4715 0022 0020     		movs	r0, #0
 4716 0024 7047     		bx	lr
 4717              	.LVL165:
 4718              	.L385:
1635:../STM32Cube_FW_N6/Drivers/STM32N6xx_HAL_Driver/Src/stm32n6xx_hal_dma.c ****   }
 4719              		.loc 1 1635 12 view .LVU1413
 4720 0026 0120     		movs	r0, #1
 4721              	.LVL166:
1648:../STM32Cube_FW_N6/Drivers/STM32N6xx_HAL_Driver/Src/stm32n6xx_hal_dma.c **** #endif /* CPU_IN_SECURE_STATE */
 4722              		.loc 1 1648 1 view .LVU1414
 4723 0028 7047     		bx	lr
 4724              		.cfi_endproc
 4725              	.LFE897:
 4727              		.section	.text.HAL_DMA_GetLockChannelAttributes,"ax",%progbits
 4728              		.align	1
 4729              		.global	HAL_DMA_GetLockChannelAttributes
 4730              		.syntax unified
 4731              		.thumb
 4732              		.thumb_func
 4734              	HAL_DMA_GetLockChannelAttributes:
 4735              	.LVL167:
 4736              	.LFB898:
1660:../STM32Cube_FW_N6/Drivers/STM32N6xx_HAL_Driver/Src/stm32n6xx_hal_dma.c ****   const DMA_TypeDef *p_dma_instance;
 4737              		.loc 1 1660 1 is_stmt 1 view -0
 4738              		.cfi_startproc
 4739              		@ args = 0, pretend = 0, frame = 0
 4740              		@ frame_needed = 0, uses_anonymous_args = 0
ARM GAS  /tmp/ccId6s4B.s 			page 133


 4741              		@ link register save eliminated.
1661:../STM32Cube_FW_N6/Drivers/STM32N6xx_HAL_Driver/Src/stm32n6xx_hal_dma.c ****   uint32_t channel_idx;
 4742              		.loc 1 1661 3 view .LVU1416
1662:../STM32Cube_FW_N6/Drivers/STM32N6xx_HAL_Driver/Src/stm32n6xx_hal_dma.c **** 
 4743              		.loc 1 1662 3 view .LVU1417
1665:../STM32Cube_FW_N6/Drivers/STM32N6xx_HAL_Driver/Src/stm32n6xx_hal_dma.c ****   {
 4744              		.loc 1 1665 3 view .LVU1418
1665:../STM32Cube_FW_N6/Drivers/STM32N6xx_HAL_Driver/Src/stm32n6xx_hal_dma.c ****   {
 4745              		.loc 1 1665 6 is_stmt 0 view .LVU1419
 4746 0000 A8B1     		cbz	r0, .L389
1665:../STM32Cube_FW_N6/Drivers/STM32N6xx_HAL_Driver/Src/stm32n6xx_hal_dma.c ****   {
 4747              		.loc 1 1665 22 discriminator 1 view .LVU1420
 4748 0002 A1B1     		cbz	r1, .L389
1671:../STM32Cube_FW_N6/Drivers/STM32N6xx_HAL_Driver/Src/stm32n6xx_hal_dma.c **** 
 4749              		.loc 1 1671 3 is_stmt 1 view .LVU1421
1671:../STM32Cube_FW_N6/Drivers/STM32N6xx_HAL_Driver/Src/stm32n6xx_hal_dma.c **** 
 4750              		.loc 1 1671 20 is_stmt 0 view .LVU1422
 4751 0004 0368     		ldr	r3, [r0]
 4752 0006 23F47F62 		bic	r2, r3, #4080
 4753 000a 22F00F02 		bic	r2, r2, #15
 4754              	.LVL168:
1674:../STM32Cube_FW_N6/Drivers/STM32N6xx_HAL_Driver/Src/stm32n6xx_hal_dma.c **** 
 4755              		.loc 1 1674 3 is_stmt 1 view .LVU1423
1677:../STM32Cube_FW_N6/Drivers/STM32N6xx_HAL_Driver/Src/stm32n6xx_hal_dma.c ****                 DMA_CHANNEL_ATTRIBUTE_LOCKED;
 4756              		.loc 1 1677 3 view .LVU1424
1677:../STM32Cube_FW_N6/Drivers/STM32N6xx_HAL_Driver/Src/stm32n6xx_hal_dma.c ****                 DMA_CHANNEL_ATTRIBUTE_LOCKED;
 4757              		.loc 1 1677 33 is_stmt 0 view .LVU1425
 4758 000e 9068     		ldr	r0, [r2, #8]
 4759              	.LVL169:
1674:../STM32Cube_FW_N6/Drivers/STM32N6xx_HAL_Driver/Src/stm32n6xx_hal_dma.c **** 
 4760              		.loc 1 1674 15 view .LVU1426
 4761 0010 0122     		movs	r2, #1
 4762              	.LVL170:
1674:../STM32Cube_FW_N6/Drivers/STM32N6xx_HAL_Driver/Src/stm32n6xx_hal_dma.c **** 
 4763              		.loc 1 1674 25 view .LVU1427
 4764 0012 C3F30B03 		ubfx	r3, r3, #0, #12
 4765              	.LVL171:
1674:../STM32Cube_FW_N6/Drivers/STM32N6xx_HAL_Driver/Src/stm32n6xx_hal_dma.c **** 
 4766              		.loc 1 1674 25 view .LVU1428
 4767 0016 503B     		subs	r3, r3, #80
1674:../STM32Cube_FW_N6/Drivers/STM32N6xx_HAL_Driver/Src/stm32n6xx_hal_dma.c **** 
 4768              		.loc 1 1674 47 view .LVU1429
 4769 0018 C3F3C413 		ubfx	r3, r3, #7, #5
1674:../STM32Cube_FW_N6/Drivers/STM32N6xx_HAL_Driver/Src/stm32n6xx_hal_dma.c **** 
 4770              		.loc 1 1674 15 view .LVU1430
 4771 001c 02FA03F3 		lsl	r3, r2, r3
1677:../STM32Cube_FW_N6/Drivers/STM32N6xx_HAL_Driver/Src/stm32n6xx_hal_dma.c ****                 DMA_CHANNEL_ATTRIBUTE_LOCKED;
 4772              		.loc 1 1677 45 view .LVU1431
 4773 0020 0340     		ands	r3, r3, r0
1677:../STM32Cube_FW_N6/Drivers/STM32N6xx_HAL_Driver/Src/stm32n6xx_hal_dma.c ****                 DMA_CHANNEL_ATTRIBUTE_LOCKED;
 4774              		.loc 1 1677 100 view .LVU1432
 4775 0022 003B     		subs	r3, r3, #0
 4776 0024 18BF     		it	ne
 4777 0026 0123     		movne	r3, #1
1680:../STM32Cube_FW_N6/Drivers/STM32N6xx_HAL_Driver/Src/stm32n6xx_hal_dma.c **** }
 4778              		.loc 1 1680 10 view .LVU1433
 4779 0028 0020     		movs	r0, #0
ARM GAS  /tmp/ccId6s4B.s 			page 134


1677:../STM32Cube_FW_N6/Drivers/STM32N6xx_HAL_Driver/Src/stm32n6xx_hal_dma.c ****                 DMA_CHANNEL_ATTRIBUTE_LOCKED;
 4780              		.loc 1 1677 15 view .LVU1434
 4781 002a 0B60     		str	r3, [r1]
1680:../STM32Cube_FW_N6/Drivers/STM32N6xx_HAL_Driver/Src/stm32n6xx_hal_dma.c **** }
 4782              		.loc 1 1680 3 is_stmt 1 view .LVU1435
1680:../STM32Cube_FW_N6/Drivers/STM32N6xx_HAL_Driver/Src/stm32n6xx_hal_dma.c **** }
 4783              		.loc 1 1680 10 is_stmt 0 view .LVU1436
 4784 002c 7047     		bx	lr
 4785              	.LVL172:
 4786              	.L389:
1667:../STM32Cube_FW_N6/Drivers/STM32N6xx_HAL_Driver/Src/stm32n6xx_hal_dma.c ****   }
 4787              		.loc 1 1667 12 view .LVU1437
 4788 002e 0120     		movs	r0, #1
 4789              	.LVL173:
1681:../STM32Cube_FW_N6/Drivers/STM32N6xx_HAL_Driver/Src/stm32n6xx_hal_dma.c **** /**
 4790              		.loc 1 1681 1 view .LVU1438
 4791 0030 7047     		bx	lr
 4792              		.cfi_endproc
 4793              	.LFE898:
 4795              		.text
 4796              	.Letext0:
 4797              		.file 2 "/opt/st/stm32cubeclt_1.21.0/GNU-tools-for-STM32/arm-none-eabi/include/machine/_default_ty
 4798              		.file 3 "/opt/st/stm32cubeclt_1.21.0/GNU-tools-for-STM32/arm-none-eabi/include/sys/_stdint.h"
 4799              		.file 4 "../STM32Cube_FW_N6/Drivers/CMSIS/Device/ST/STM32N6xx/Include/stm32n657xx.h"
 4800              		.file 5 "../STM32Cube_FW_N6/Drivers/STM32N6xx_HAL_Driver/Inc/stm32n6xx_hal_def.h"
 4801              		.file 6 "../STM32Cube_FW_N6/Drivers/STM32N6xx_HAL_Driver/Inc/stm32n6xx_hal_dma.h"
 4802              		.file 7 "../STM32Cube_FW_N6/Drivers/STM32N6xx_HAL_Driver/Inc/stm32n6xx_hal_dma_ex.h"
 4803              		.file 8 "Inc/stm32n6xx_hal_conf.h"
 4804              		.file 9 "../STM32Cube_FW_N6/Drivers/STM32N6xx_HAL_Driver/Inc/stm32n6xx_hal.h"
ARM GAS  /tmp/ccId6s4B.s 			page 135


DEFINED SYMBOLS
                            *ABS*:00000000 stm32n6xx_hal_dma.c
     /tmp/ccId6s4B.s:30     .text.HAL_DMA_Init:00000000 $t
     /tmp/ccId6s4B.s:36     .text.HAL_DMA_Init:00000000 HAL_DMA_Init
     /tmp/ccId6s4B.s:424    .text.HAL_DMA_Init:00000310 $d
     /tmp/ccId6s4B.s:430    .text.HAL_DMA_Init:0000031c $t
     /tmp/ccId6s4B.s:796    .text.HAL_DMA_Init:00000620 $d
     /tmp/ccId6s4B.s:801    .text.HAL_DMA_Init:0000062c $t
     /tmp/ccId6s4B.s:1403   .text.HAL_DMA_Init:00000ac0 $d
     /tmp/ccId6s4B.s:1406   .text.HAL_DMA_Init:00000ac4 $t
     /tmp/ccId6s4B.s:1910   .text.HAL_DMA_Init:00000ea4 $d
     /tmp/ccId6s4B.s:1919   .text.HAL_DMA_DeInit:00000000 $t
     /tmp/ccId6s4B.s:1925   .text.HAL_DMA_DeInit:00000000 HAL_DMA_DeInit
     /tmp/ccId6s4B.s:2327   .text.HAL_DMA_DeInit:0000030c $d
     /tmp/ccId6s4B.s:2332   .text.HAL_DMA_DeInit:00000318 $t
     /tmp/ccId6s4B.s:2451   .text.HAL_DMA_Start:00000000 $t
     /tmp/ccId6s4B.s:2457   .text.HAL_DMA_Start:00000000 HAL_DMA_Start
     /tmp/ccId6s4B.s:2581   .text.HAL_DMA_Start:00000070 $d
     /tmp/ccId6s4B.s:2586   .text.HAL_DMA_Start_IT:00000000 $t
     /tmp/ccId6s4B.s:2592   .text.HAL_DMA_Start_IT:00000000 HAL_DMA_Start_IT
     /tmp/ccId6s4B.s:2745   .text.HAL_DMA_Start_IT:00000094 $d
     /tmp/ccId6s4B.s:2750   .text.HAL_DMA_Abort:00000000 $t
     /tmp/ccId6s4B.s:2756   .text.HAL_DMA_Abort:00000000 HAL_DMA_Abort
     /tmp/ccId6s4B.s:2916   .text.HAL_DMA_Abort_IT:00000000 $t
     /tmp/ccId6s4B.s:2922   .text.HAL_DMA_Abort_IT:00000000 HAL_DMA_Abort_IT
     /tmp/ccId6s4B.s:2976   .text.HAL_DMA_PollForTransfer:00000000 $t
     /tmp/ccId6s4B.s:2982   .text.HAL_DMA_PollForTransfer:00000000 HAL_DMA_PollForTransfer
     /tmp/ccId6s4B.s:3270   .text.HAL_DMA_PollForTransfer:00000124 $d
     /tmp/ccId6s4B.s:3275   .text.HAL_DMA_IRQHandler:00000000 $t
     /tmp/ccId6s4B.s:3281   .text.HAL_DMA_IRQHandler:00000000 HAL_DMA_IRQHandler
     /tmp/ccId6s4B.s:3660   .text.HAL_DMA_RegisterCallback:00000000 $t
     /tmp/ccId6s4B.s:3666   .text.HAL_DMA_RegisterCallback:00000000 HAL_DMA_RegisterCallback
     /tmp/ccId6s4B.s:3699   .text.HAL_DMA_RegisterCallback:00000018 $d
     /tmp/ccId6s4B.s:3750   .text.HAL_DMA_UnRegisterCallback:00000000 $t
     /tmp/ccId6s4B.s:3756   .text.HAL_DMA_UnRegisterCallback:00000000 HAL_DMA_UnRegisterCallback
     /tmp/ccId6s4B.s:3784   .text.HAL_DMA_UnRegisterCallback:00000016 $d
     /tmp/ccId6s4B.s:3790   .text.HAL_DMA_UnRegisterCallback:0000001c $t
     /tmp/ccId6s4B.s:3853   .text.HAL_DMA_GetState:00000000 $t
     /tmp/ccId6s4B.s:3859   .text.HAL_DMA_GetState:00000000 HAL_DMA_GetState
     /tmp/ccId6s4B.s:3877   .text.HAL_DMA_GetError:00000000 $t
     /tmp/ccId6s4B.s:3883   .text.HAL_DMA_GetError:00000000 HAL_DMA_GetError
     /tmp/ccId6s4B.s:3901   .text.HAL_DMA_ConfigChannelAttributes:00000000 $t
     /tmp/ccId6s4B.s:3907   .text.HAL_DMA_ConfigChannelAttributes:00000000 HAL_DMA_ConfigChannelAttributes
     /tmp/ccId6s4B.s:4073   .text.HAL_DMA_ConfigChannelAttributes:000000a4 $d
     /tmp/ccId6s4B.s:4078   .text.HAL_DMA_GetConfigChannelAttributes:00000000 $t
     /tmp/ccId6s4B.s:4084   .text.HAL_DMA_GetConfigChannelAttributes:00000000 HAL_DMA_GetConfigChannelAttributes
     /tmp/ccId6s4B.s:4192   .text.HAL_DMA_SetIsolationAttributes:00000000 $t
     /tmp/ccId6s4B.s:4198   .text.HAL_DMA_SetIsolationAttributes:00000000 HAL_DMA_SetIsolationAttributes
     /tmp/ccId6s4B.s:4439   .text.HAL_DMA_SetIsolationAttributes:00000190 $d
     /tmp/ccId6s4B.s:4445   .text.HAL_DMA_GetIsolationAttributes:00000000 $t
     /tmp/ccId6s4B.s:4451   .text.HAL_DMA_GetIsolationAttributes:00000000 HAL_DMA_GetIsolationAttributes
     /tmp/ccId6s4B.s:4663   .text.HAL_DMA_GetIsolationAttributes:00000158 $d
     /tmp/ccId6s4B.s:4669   .text.HAL_DMA_LockChannelAttributes:00000000 $t
     /tmp/ccId6s4B.s:4675   .text.HAL_DMA_LockChannelAttributes:00000000 HAL_DMA_LockChannelAttributes
     /tmp/ccId6s4B.s:4728   .text.HAL_DMA_GetLockChannelAttributes:00000000 $t
     /tmp/ccId6s4B.s:4734   .text.HAL_DMA_GetLockChannelAttributes:00000000 HAL_DMA_GetLockChannelAttributes
     /tmp/ccId6s4B.s:3704   .text.HAL_DMA_RegisterCallback:0000001d $d
ARM GAS  /tmp/ccId6s4B.s 			page 136


     /tmp/ccId6s4B.s:3704   .text.HAL_DMA_RegisterCallback:0000001e $t
                           .group:00000000 wm4.0.43608cab4da50df6ba2dfee95636a2b5
                           .group:00000000 wm4.stm32n6xx_hal_conf.h.21.d32f04f7ae387b70d8c80735cac3eea9
                           .group:00000000 wm4.stddef.h.39.811583f327f35b0df7808fda70b062a0
                           .group:00000000 wm4.arm_cmse.h.103.a0d15a79c4c9a67da8d5831704d7248e
                           .group:00000000 wm4.stm32n6xx.h.34.c523a1ffdf274a69e8802892c6776332
                           .group:00000000 wm4.stm32n657xx.h.26.acd272cb67318cc1a4791ce2f0720ca6
                           .group:00000000 wm4._newlib_version.h.4.0eb654b64686e2bd29646258853f6c22
                           .group:00000000 wm4.features.h.33.d554620bb17bd3b714c3fb5c268772bc
                           .group:00000000 wm4._default_types.h.15.247e5cd201eca3442cbf5404108c4935
                           .group:00000000 wm4._intsup.h.10.48bafbb683905c4daa4565a85aeeb264
                           .group:00000000 wm4._stdint.h.10.c24fa3af3bc1706662bb5593a907e841
                           .group:00000000 wm4.stdint.h.23.d53047a68f4a85177f80b422d52785ed
                           .group:00000000 wm4.cmsis_version.h.30.d128735bf87720f7436b74fefeb5043c
                           .group:00000000 wm4.core_cm55.h.67.25006a3ce7048d64bcddd2996d5fac93
                           .group:00000000 wm4.arm_acle.h.28.a0697f530ff2dbf8c463bef049b82760
                           .group:00000000 wm4.cmsis_gcc.h.39.eba7438bc45fd1a6e6376b63ffe44436
                           .group:00000000 wm4.cmsis_gcc_m.h.24.e590ec51aeda3a1242400351d73f5dce
                           .group:00000000 wm4.core_cm55.h.213.0528f46a674315ef8d35c4477e230358
                           .group:00000000 wm4.armv8m_mpu.h.24.bf28cc25bee30a7ff9d2f7a44a5e2230
                           .group:00000000 wm4.armv8m_pmu.h.24.6ded195d2625055391fd378c0e1d2519
                           .group:00000000 wm4.core_cm55.h.4477.396e822ef855bcfb932819ad48de1c4c
                           .group:00000000 wm4.armv7m_cachel1.h.24.936dd92d6e204a8d0b17d5e4ea4a356e
                           .group:00000000 wm4.stm32n657xx.h.575.78d331c417ec710388ced647138f735f
                           .group:00000000 wm4.stm32n6xx.h.116.b4247d9785590e7c5ec9234ffb2153bf
                           .group:00000000 wm4.stm32_hal_legacy.h.22.e62aae2fd3ae33360b6781c8a72e5b18
                           .group:00000000 wm4.newlib.h.7.decd5b9657e2c5df625d9eac6e10520c
                           .group:00000000 wm4.ieeefp.h.77.99029d7b8220a2cd73dd257e2bbe825d
                           .group:00000000 wm4.config.h.224.10ee1ad185d877c6e334e6581faab44d
                           .group:00000000 wm4._ansi.h.31.de524f58584151836e90d8620a16f8e8
                           .group:00000000 wm4.cdefs.h.49.56fd742369e655e7e8a7e365e706e208
                           .group:00000000 wm4._types.h.20.dd0d04dca3800a0d2a6129b87f3adbb2
                           .group:00000000 wm4.stddef.h.173.4903093a50a8482cb062b176ea61fac3
                           .group:00000000 wm4._types.h.127.3bdfe3ff8ea2d0985b03d9cbe93480e3
                           .group:00000000 wm4.reent.h.18.25503cdc8b7e55dd0d6ea7b3e5af7a03
                           .group:00000000 wm4.lock.h.2.1461d1fff82dffe8bfddc23307f6484f
                           .group:00000000 wm4.reent.h.78.6d702f69a6d6435d2dbe915b10150b1a
                           .group:00000000 wm4.math.h.13.47cfc34cae8a1153323939c4d32cf7c2
                           .group:00000000 wm4.stm32n6xx_hal_def.h.63.3a8f01490e8852464e9fcb69092e9c75
                           .group:00000000 wm4.stm32n6xx_ll_bus.h.38.2366a295ee4cdb04833997d3787fcd2d
                           .group:00000000 wm4.stm32n6xx_ll_rcc.h.21.656bd5637db608589ad16ea57d39430c
                           .group:00000000 wm4.stm32n6xx_hal_rcc.h.194.69b522b1afdf59a82d05a1f71efe03c7
                           .group:00000000 wm4.stm32n6xx_hal_rcc_ex.h.21.cc6be0a7d168882a1a6f470236ba784c
                           .group:00000000 wm4.stm32n6xx_hal_rcc.h.4361.4b490a4a19722e68c21f88cb8a774a30
                           .group:00000000 wm4.stm32n6xx_hal_gpio.h.21.89d54af663b98eb8fc098192053f7eeb
                           .group:00000000 wm4.stm32n6xx_hal_gpio_ex.h.22.f7e795fb05a69a19b87d946b47c8db8b
                           .group:00000000 wm4.stm32n6xx_hal_rif.h.21.33f2c553a8a3fc14dca8c470b213ab19
                           .group:00000000 wm4.stm32n6xx_hal_dma.h.21.61e48c5c2e8d25d22177834b232fe45c
                           .group:00000000 wm4.stm32n6xx_hal_dma_ex.h.21.82f854ecdb6a463b06d0b4e5c217c368
                           .group:00000000 wm4.stm32n6xx_hal_dma.h.1020.87e2180c009560b617c1f8208140c950
                           .group:00000000 wm4.stm32n6xx_hal_cortex.h.21.f493623cc58f9454ab4eae41e395c5cc
                           .group:00000000 wm4.stm32n6xx_hal_bsec.h.21.1ee89319140541f82434908b4267aa30
                           .group:00000000 wm4.stm32n6xx_hal_dcmipp.h.21.e2b87dce83d7d722d696a597f6ac56bf
                           .group:00000000 wm4.stm32n6xx_hal_dma2d.h.21.75c8d46cdbb72970123b3f34ae2043d7
                           .group:00000000 wm4.stm32n6xx_hal_exti.h.21.e0efb23591051684dc14f1f2431c6aab
                           .group:00000000 wm4.stm32n6xx_hal_i2c.h.21.3f483626ff64c5bf027265bb2e1d1331
                           .group:00000000 wm4.stm32n6xx_hal_i2c_ex.h.21.79e9196c22282cdaf6b4047893638c45
ARM GAS  /tmp/ccId6s4B.s 			page 137


                           .group:00000000 wm4.stm32n6xx_hal_i2c.h.741.1084702632703acc669e4282b3043372
                           .group:00000000 wm4.stm32n6xx_hal_ltdc.h.21.ae1eb09930e7e550e48e418ac5849e4d
                           .group:00000000 wm4.stm32n6xx_hal_ltdc.h.1002.b13ede7fc94ed5ad1c6768a157d2149a
                           .group:00000000 wm4.stm32n6xx_ll_usb.h.21.daaf86158046f2cf02166c495d637480
                           .group:00000000 wm4.stm32n6xx_hal_pcd.h.155.27040aac6844effe2af8c180caf1dd2e
                           .group:00000000 wm4.stm32n6xx_hal_pwr.h.21.cdb73e4869c3fed3fc84f901ec0e5f0a
                           .group:00000000 wm4.stm32n6xx_hal_pwr_ex.h.21.1a673224a58b0c1e5fad8eeda6514208
                           .group:00000000 wm4.stm32n6xx_hal_ramcfg.h.21.a62dfbb4d2c14e9a8c634a215e37bd3d
                           .group:00000000 wm4.stm32n6xx_hal_spi.h.21.9f810303326e2d91749800e9911f8e4d
                           .group:00000000 wm4.stm32n6xx_hal_spi.h.906.8ad9375f39dce09dc0a4db0025ee7a76
                           .group:00000000 wm4.stm32n6xx_hal_uart.h.21.230f549bfa0d5ebfd77bfb311b2aca15
                           .group:00000000 wm4.stm32n6xx_hal_uart_ex.h.21.a0d5511e1d0703b7b5278c8f5472b96d
                           .group:00000000 wm4.stm32n6xx_hal_xspi.h.21.7fd922d3bdb871475cf18436a68935bb
                           .group:00000000 wm4.stm32n6xx_hal_cacheaxi.h.21.7c3375b7903ec42376e4883320997f74
                           .group:00000000 wm4.stm32n6xx_hal.h.81.e79d59262ba173c33cf1d69281830d15

UNDEFINED SYMBOLS
HAL_GetTick
assert_failed
