ARM GAS  /tmp/ccHKmbxS.s 			page 1


   1              		.arch armv8.1-m.main
   2              		.fpu fpv5-d16
   3              		.arch_extension dsp
   4              		.arch_extension fp
   5              		.arch_extension fp.dp
   6              		.arch_extension mve
   7              		.arch_extension mve.fp
   8              		.eabi_attribute 5, "cortex-m55"
   9              		.eabi_attribute 28, 1
  10              		.eabi_attribute 20, 1
  11              		.eabi_attribute 21, 1
  12              		.eabi_attribute 23, 3
  13              		.eabi_attribute 24, 1
  14              		.eabi_attribute 25, 1
  15              		.eabi_attribute 26, 1
  16              		.eabi_attribute 30, 4
  17              		.eabi_attribute 34, 1
  18              		.eabi_attribute 38, 1
  19              		.eabi_attribute 18, 4
  20              		.file	"stm32n6xx_hal_rif.c"
  21              		.text
  22              	.Ltext0:
  23              		.cfi_sections	.debug_frame
  24              		.file 1 "../STM32Cube_FW_N6/Drivers/STM32N6xx_HAL_Driver/Src/stm32n6xx_hal_rif.c"
  25              		.section	.text.HAL_RIF_RIMC_Lock,"ax",%progbits
  26              		.align	1
  27              		.global	HAL_RIF_RIMC_Lock
  28              		.syntax unified
  29              		.thumb
  30              		.thumb_func
  32              	HAL_RIF_RIMC_Lock:
  33              	.LFB881:
   1:../STM32Cube_FW_N6/Drivers/STM32N6xx_HAL_Driver/Src/stm32n6xx_hal_rif.c **** /**
   2:../STM32Cube_FW_N6/Drivers/STM32N6xx_HAL_Driver/Src/stm32n6xx_hal_rif.c ****   ******************************************************************************
   3:../STM32Cube_FW_N6/Drivers/STM32N6xx_HAL_Driver/Src/stm32n6xx_hal_rif.c ****   * @file    stm32n6xx_hal_rif.c
   4:../STM32Cube_FW_N6/Drivers/STM32N6xx_HAL_Driver/Src/stm32n6xx_hal_rif.c ****   * @author  MCD Application Team
   5:../STM32Cube_FW_N6/Drivers/STM32N6xx_HAL_Driver/Src/stm32n6xx_hal_rif.c ****   * @brief   RIF HAL module driver.
   6:../STM32Cube_FW_N6/Drivers/STM32N6xx_HAL_Driver/Src/stm32n6xx_hal_rif.c ****   *          This file provides firmware functions to manage the following
   7:../STM32Cube_FW_N6/Drivers/STM32N6xx_HAL_Driver/Src/stm32n6xx_hal_rif.c ****   *          functionalities of the Resource Isolation Framework (RIF) peripheral:
   8:../STM32Cube_FW_N6/Drivers/STM32N6xx_HAL_Driver/Src/stm32n6xx_hal_rif.c ****   *           + Initialization and de-initialization functions
   9:../STM32Cube_FW_N6/Drivers/STM32N6xx_HAL_Driver/Src/stm32n6xx_hal_rif.c ****   *           + Peripheral Control functions
  10:../STM32Cube_FW_N6/Drivers/STM32N6xx_HAL_Driver/Src/stm32n6xx_hal_rif.c ****   *
  11:../STM32Cube_FW_N6/Drivers/STM32N6xx_HAL_Driver/Src/stm32n6xx_hal_rif.c ****   ******************************************************************************
  12:../STM32Cube_FW_N6/Drivers/STM32N6xx_HAL_Driver/Src/stm32n6xx_hal_rif.c ****   * @attention
  13:../STM32Cube_FW_N6/Drivers/STM32N6xx_HAL_Driver/Src/stm32n6xx_hal_rif.c ****   *
  14:../STM32Cube_FW_N6/Drivers/STM32N6xx_HAL_Driver/Src/stm32n6xx_hal_rif.c ****   * Copyright (c) 2023 STMicroelectronics.
  15:../STM32Cube_FW_N6/Drivers/STM32N6xx_HAL_Driver/Src/stm32n6xx_hal_rif.c ****   * All rights reserved.
  16:../STM32Cube_FW_N6/Drivers/STM32N6xx_HAL_Driver/Src/stm32n6xx_hal_rif.c ****   *
  17:../STM32Cube_FW_N6/Drivers/STM32N6xx_HAL_Driver/Src/stm32n6xx_hal_rif.c ****   * This software is licensed under terms that can be found in the LICENSE file
  18:../STM32Cube_FW_N6/Drivers/STM32N6xx_HAL_Driver/Src/stm32n6xx_hal_rif.c ****   * in the root directory of this software component.
  19:../STM32Cube_FW_N6/Drivers/STM32N6xx_HAL_Driver/Src/stm32n6xx_hal_rif.c ****   * If no LICENSE file comes with this software, it is provided AS-IS.
  20:../STM32Cube_FW_N6/Drivers/STM32N6xx_HAL_Driver/Src/stm32n6xx_hal_rif.c ****   *
  21:../STM32Cube_FW_N6/Drivers/STM32N6xx_HAL_Driver/Src/stm32n6xx_hal_rif.c ****   ******************************************************************************
  22:../STM32Cube_FW_N6/Drivers/STM32N6xx_HAL_Driver/Src/stm32n6xx_hal_rif.c ****   @verbatim
  23:../STM32Cube_FW_N6/Drivers/STM32N6xx_HAL_Driver/Src/stm32n6xx_hal_rif.c ****   ==============================================================================
  24:../STM32Cube_FW_N6/Drivers/STM32N6xx_HAL_Driver/Src/stm32n6xx_hal_rif.c ****                 ##### RIF main features #####
  25:../STM32Cube_FW_N6/Drivers/STM32N6xx_HAL_Driver/Src/stm32n6xx_hal_rif.c ****   ==============================================================================
ARM GAS  /tmp/ccHKmbxS.s 			page 2


  26:../STM32Cube_FW_N6/Drivers/STM32N6xx_HAL_Driver/Src/stm32n6xx_hal_rif.c ****   [..]
  27:../STM32Cube_FW_N6/Drivers/STM32N6xx_HAL_Driver/Src/stm32n6xx_hal_rif.c ****     (+) Resource Isolation framework (RIF) is a comprehensive set of hardware
  28:../STM32Cube_FW_N6/Drivers/STM32N6xx_HAL_Driver/Src/stm32n6xx_hal_rif.c ****     blocks designed to enforce and manage isolation of STM32 hardware resources
  29:../STM32Cube_FW_N6/Drivers/STM32N6xx_HAL_Driver/Src/stm32n6xx_hal_rif.c ****     like memory and peripherals.
  30:../STM32Cube_FW_N6/Drivers/STM32N6xx_HAL_Driver/Src/stm32n6xx_hal_rif.c **** 
  31:../STM32Cube_FW_N6/Drivers/STM32N6xx_HAL_Driver/Src/stm32n6xx_hal_rif.c ****     (+) Resource Isolation Framework (RIF) composed of the following sub-blocks:
  32:../STM32Cube_FW_N6/Drivers/STM32N6xx_HAL_Driver/Src/stm32n6xx_hal_rif.c ****       (++) RIMC:  Resource Isolation Master Controller
  33:../STM32Cube_FW_N6/Drivers/STM32N6xx_HAL_Driver/Src/stm32n6xx_hal_rif.c ****                   This sub-block assigns all non RIF-aware bus master to one
  34:../STM32Cube_FW_N6/Drivers/STM32N6xx_HAL_Driver/Src/stm32n6xx_hal_rif.c ****                   security domain by setting secure, privileged and compartment
  35:../STM32Cube_FW_N6/Drivers/STM32N6xx_HAL_Driver/Src/stm32n6xx_hal_rif.c ****                   information on the system bus.
  36:../STM32Cube_FW_N6/Drivers/STM32N6xx_HAL_Driver/Src/stm32n6xx_hal_rif.c ****                   Note that if non-secure software is permitted to configure one of
  37:../STM32Cube_FW_N6/Drivers/STM32N6xx_HAL_Driver/Src/stm32n6xx_hal_rif.c ****                   these peripherals, then this setting is ignored and all accesses
  38:../STM32Cube_FW_N6/Drivers/STM32N6xx_HAL_Driver/Src/stm32n6xx_hal_rif.c ****                   initiated by the peripheral are forced to be non-secure.
  39:../STM32Cube_FW_N6/Drivers/STM32N6xx_HAL_Driver/Src/stm32n6xx_hal_rif.c ****       (++) RISC:  Resource Isolation Slave Controller
  40:../STM32Cube_FW_N6/Drivers/STM32N6xx_HAL_Driver/Src/stm32n6xx_hal_rif.c ****                   This sub-block assigns all non-RIF aware peripherals to zero,
  41:../STM32Cube_FW_N6/Drivers/STM32N6xx_HAL_Driver/Src/stm32n6xx_hal_rif.c ****                   one or any security domains (secure, privilege, compartment).
  42:../STM32Cube_FW_N6/Drivers/STM32N6xx_HAL_Driver/Src/stm32n6xx_hal_rif.c ****       (++) RISAF: Resource Isolation Slave unit for Address space (Full version)
  43:../STM32Cube_FW_N6/Drivers/STM32N6xx_HAL_Driver/Src/stm32n6xx_hal_rif.c ****                   This sub-block assigns memory regions and subregions to one or
  44:../STM32Cube_FW_N6/Drivers/STM32N6xx_HAL_Driver/Src/stm32n6xx_hal_rif.c ****                   more security domains (secure, privilege, compartment).
  45:../STM32Cube_FW_N6/Drivers/STM32N6xx_HAL_Driver/Src/stm32n6xx_hal_rif.c ****       (++) IAC:   Illegal Access Controller
  46:../STM32Cube_FW_N6/Drivers/STM32N6xx_HAL_Driver/Src/stm32n6xx_hal_rif.c ****                   This sub-block centralizes detection of RIF-related accesses,
  47:../STM32Cube_FW_N6/Drivers/STM32N6xx_HAL_Driver/Src/stm32n6xx_hal_rif.c ****                   managed by a secure application. Supported illegal accesses are:
  48:../STM32Cube_FW_N6/Drivers/STM32N6xx_HAL_Driver/Src/stm32n6xx_hal_rif.c ****                   secure, privileged.
  49:../STM32Cube_FW_N6/Drivers/STM32N6xx_HAL_Driver/Src/stm32n6xx_hal_rif.c **** 
  50:../STM32Cube_FW_N6/Drivers/STM32N6xx_HAL_Driver/Src/stm32n6xx_hal_rif.c ****   [..]
  51:../STM32Cube_FW_N6/Drivers/STM32N6xx_HAL_Driver/Src/stm32n6xx_hal_rif.c ****     (+) All the setter functions are protected under the CPU_AS_TRUSTED_DOMAIN
  52:../STM32Cube_FW_N6/Drivers/STM32N6xx_HAL_Driver/Src/stm32n6xx_hal_rif.c ****         directive.
  53:../STM32Cube_FW_N6/Drivers/STM32N6xx_HAL_Driver/Src/stm32n6xx_hal_rif.c ****         It ensures that only the trusted domain can manage the critical
  54:../STM32Cube_FW_N6/Drivers/STM32N6xx_HAL_Driver/Src/stm32n6xx_hal_rif.c ****         configurations of the RIF.
  55:../STM32Cube_FW_N6/Drivers/STM32N6xx_HAL_Driver/Src/stm32n6xx_hal_rif.c ****         This directive is defined in the CMSIS file.
  56:../STM32Cube_FW_N6/Drivers/STM32N6xx_HAL_Driver/Src/stm32n6xx_hal_rif.c **** 
  57:../STM32Cube_FW_N6/Drivers/STM32N6xx_HAL_Driver/Src/stm32n6xx_hal_rif.c ****  ===============================================================================
  58:../STM32Cube_FW_N6/Drivers/STM32N6xx_HAL_Driver/Src/stm32n6xx_hal_rif.c ****                      ##### How to use this driver #####
  59:../STM32Cube_FW_N6/Drivers/STM32N6xx_HAL_Driver/Src/stm32n6xx_hal_rif.c ****  ===============================================================================
  60:../STM32Cube_FW_N6/Drivers/STM32N6xx_HAL_Driver/Src/stm32n6xx_hal_rif.c ****   [..]
  61:../STM32Cube_FW_N6/Drivers/STM32N6xx_HAL_Driver/Src/stm32n6xx_hal_rif.c ****     *** Locking RIF components configuration ***
  62:../STM32Cube_FW_N6/Drivers/STM32N6xx_HAL_Driver/Src/stm32n6xx_hal_rif.c ****     ============================================================
  63:../STM32Cube_FW_N6/Drivers/STM32N6xx_HAL_Driver/Src/stm32n6xx_hal_rif.c ****     [..]
  64:../STM32Cube_FW_N6/Drivers/STM32N6xx_HAL_Driver/Src/stm32n6xx_hal_rif.c ****     (#) Lock and get the lock configuration of RIMC registers until next reset
  65:../STM32Cube_FW_N6/Drivers/STM32N6xx_HAL_Driver/Src/stm32n6xx_hal_rif.c ****         with HAL_RIF_RIMC_Lock / HAL_RIF_RIMC_GetLock.
  66:../STM32Cube_FW_N6/Drivers/STM32N6xx_HAL_Driver/Src/stm32n6xx_hal_rif.c ****     (#) Lock and get the lock configuration of RISC registers until next reset
  67:../STM32Cube_FW_N6/Drivers/STM32N6xx_HAL_Driver/Src/stm32n6xx_hal_rif.c ****         with HAL_RIF_RISC_Lock / HAL_RIF_RISC_GetLock.
  68:../STM32Cube_FW_N6/Drivers/STM32N6xx_HAL_Driver/Src/stm32n6xx_hal_rif.c ****     (#) Lock and get the lock configuration of slave resources registers until
  69:../STM32Cube_FW_N6/Drivers/STM32N6xx_HAL_Driver/Src/stm32n6xx_hal_rif.c ****         next reset with HAL_RIF_RISC_SlaveConfigLock / HAL_RIF_RISC_GetSlaveConfigLock.
  70:../STM32Cube_FW_N6/Drivers/STM32N6xx_HAL_Driver/Src/stm32n6xx_hal_rif.c ****     (#) Lock and get the lock configuration of RISAF registers until next reset
  71:../STM32Cube_FW_N6/Drivers/STM32N6xx_HAL_Driver/Src/stm32n6xx_hal_rif.c ****         with HAL_RIF_RISAF_Lock / HAL_RIF_RISAF_GetLock.
  72:../STM32Cube_FW_N6/Drivers/STM32N6xx_HAL_Driver/Src/stm32n6xx_hal_rif.c **** 
  73:../STM32Cube_FW_N6/Drivers/STM32N6xx_HAL_Driver/Src/stm32n6xx_hal_rif.c ****     *** Context-related functions ***
  74:../STM32Cube_FW_N6/Drivers/STM32N6xx_HAL_Driver/Src/stm32n6xx_hal_rif.c ****     ============================================================
  75:../STM32Cube_FW_N6/Drivers/STM32N6xx_HAL_Driver/Src/stm32n6xx_hal_rif.c ****     [..]
  76:../STM32Cube_FW_N6/Drivers/STM32N6xx_HAL_Driver/Src/stm32n6xx_hal_rif.c ****     (#) Set or get Debugger Access Port Compartment ID with HAL_RIF_RIMC_SetDebugAccessPortCID /
  77:../STM32Cube_FW_N6/Drivers/STM32N6xx_HAL_Driver/Src/stm32n6xx_hal_rif.c ****         HAL_RIF_RIMC_GetDebugAccessPortCID functions.
  78:../STM32Cube_FW_N6/Drivers/STM32N6xx_HAL_Driver/Src/stm32n6xx_hal_rif.c ****     (#) Check the Debug Domain and Global Debug Domain status with
  79:../STM32Cube_FW_N6/Drivers/STM32N6xx_HAL_Driver/Src/stm32n6xx_hal_rif.c ****         HAL_RIF_RIMC_GetDebugStatus.
  80:../STM32Cube_FW_N6/Drivers/STM32N6xx_HAL_Driver/Src/stm32n6xx_hal_rif.c **** 
  81:../STM32Cube_FW_N6/Drivers/STM32N6xx_HAL_Driver/Src/stm32n6xx_hal_rif.c **** #if defined(GENERATOR_RIF_FEATURE_ENCRYPTION_IMPLEMENTED)
  82:../STM32Cube_FW_N6/Drivers/STM32N6xx_HAL_Driver/Src/stm32n6xx_hal_rif.c ****     *** Encryption-related functions ***
ARM GAS  /tmp/ccHKmbxS.s 			page 3


  83:../STM32Cube_FW_N6/Drivers/STM32N6xx_HAL_Driver/Src/stm32n6xx_hal_rif.c ****     ============================================================
  84:../STM32Cube_FW_N6/Drivers/STM32N6xx_HAL_Driver/Src/stm32n6xx_hal_rif.c ****     [..]
  85:../STM32Cube_FW_N6/Drivers/STM32N6xx_HAL_Driver/Src/stm32n6xx_hal_rif.c ****     (#) Read of write RISAF encryption keys and related flags.
  86:../STM32Cube_FW_N6/Drivers/STM32N6xx_HAL_Driver/Src/stm32n6xx_hal_rif.c **** 
  87:../STM32Cube_FW_N6/Drivers/STM32N6xx_HAL_Driver/Src/stm32n6xx_hal_rif.c **** #endif
  88:../STM32Cube_FW_N6/Drivers/STM32N6xx_HAL_Driver/Src/stm32n6xx_hal_rif.c ****      *** Configuration of master-related attributes ***
  89:../STM32Cube_FW_N6/Drivers/STM32N6xx_HAL_Driver/Src/stm32n6xx_hal_rif.c ****     ============================================================
  90:../STM32Cube_FW_N6/Drivers/STM32N6xx_HAL_Driver/Src/stm32n6xx_hal_rif.c ****     [..]
  91:../STM32Cube_FW_N6/Drivers/STM32N6xx_HAL_Driver/Src/stm32n6xx_hal_rif.c ****     (#) Set or get the secure, privilege and compartment configuration of a
  92:../STM32Cube_FW_N6/Drivers/STM32N6xx_HAL_Driver/Src/stm32n6xx_hal_rif.c ****         bus master thanks to the HAL_RIF_RIMC_ConfigMasterAttributes /
  93:../STM32Cube_FW_N6/Drivers/STM32N6xx_HAL_Driver/Src/stm32n6xx_hal_rif.c ****         HAL_RIF_RIMC_GetConfigMasterAttributes functions.
  94:../STM32Cube_FW_N6/Drivers/STM32N6xx_HAL_Driver/Src/stm32n6xx_hal_rif.c ****     (#) Lock and get lock status the bus master attributes configuration until
  95:../STM32Cube_FW_N6/Drivers/STM32N6xx_HAL_Driver/Src/stm32n6xx_hal_rif.c ****         next system reset using HAL_RIF_RIMC_Lock.
  96:../STM32Cube_FW_N6/Drivers/STM32N6xx_HAL_Driver/Src/stm32n6xx_hal_rif.c **** 
  97:../STM32Cube_FW_N6/Drivers/STM32N6xx_HAL_Driver/Src/stm32n6xx_hal_rif.c ****      *** Configuration of slave-related attributes ***
  98:../STM32Cube_FW_N6/Drivers/STM32N6xx_HAL_Driver/Src/stm32n6xx_hal_rif.c ****     ============================================================
  99:../STM32Cube_FW_N6/Drivers/STM32N6xx_HAL_Driver/Src/stm32n6xx_hal_rif.c ****     [..]
 100:../STM32Cube_FW_N6/Drivers/STM32N6xx_HAL_Driver/Src/stm32n6xx_hal_rif.c ****     (#) Set or get the secure and privilege configuration of a bus slave
 101:../STM32Cube_FW_N6/Drivers/STM32N6xx_HAL_Driver/Src/stm32n6xx_hal_rif.c ****         thanks to the HAL_RIF_RISC_SetSlaveSecureAttributes /
 102:../STM32Cube_FW_N6/Drivers/STM32N6xx_HAL_Driver/Src/stm32n6xx_hal_rif.c ****         HAL_RIF_RISC_GetSlaveSecureAttributes functions.
 103:../STM32Cube_FW_N6/Drivers/STM32N6xx_HAL_Driver/Src/stm32n6xx_hal_rif.c ****     (#) Lock and get lock status each bus slave attributes configuration using
 104:../STM32Cube_FW_N6/Drivers/STM32N6xx_HAL_Driver/Src/stm32n6xx_hal_rif.c ****         HAL_RIF_RISC_SlaveConfigLock or lock the whole RISC configuration with
 105:../STM32Cube_FW_N6/Drivers/STM32N6xx_HAL_Driver/Src/stm32n6xx_hal_rif.c ****         HAL_RIF_RISC_Lock until next system reset.
 106:../STM32Cube_FW_N6/Drivers/STM32N6xx_HAL_Driver/Src/stm32n6xx_hal_rif.c **** 
 107:../STM32Cube_FW_N6/Drivers/STM32N6xx_HAL_Driver/Src/stm32n6xx_hal_rif.c ****      *** Configuration of RISAF attributes ***
 108:../STM32Cube_FW_N6/Drivers/STM32N6xx_HAL_Driver/Src/stm32n6xx_hal_rif.c ****     ============================================================
 109:../STM32Cube_FW_N6/Drivers/STM32N6xx_HAL_Driver/Src/stm32n6xx_hal_rif.c ****     [..]
 110:../STM32Cube_FW_N6/Drivers/STM32N6xx_HAL_Driver/Src/stm32n6xx_hal_rif.c ****     (#) Set or get a base region configuration with HAL_RIF_RISAF_ConfigBaseRegion /
 111:../STM32Cube_FW_N6/Drivers/STM32N6xx_HAL_Driver/Src/stm32n6xx_hal_rif.c ****         HAL_RIF_RISAF_GetConfigBaseRegion.
 112:../STM32Cube_FW_N6/Drivers/STM32N6xx_HAL_Driver/Src/stm32n6xx_hal_rif.c ****     (#) Set or get a subregion configuration with HAL_RIF_RISAF_ConfigSubRegion /
 113:../STM32Cube_FW_N6/Drivers/STM32N6xx_HAL_Driver/Src/stm32n6xx_hal_rif.c ****         HAL_RIF_RISAF_GetConfigSubRegion.
 114:../STM32Cube_FW_N6/Drivers/STM32N6xx_HAL_Driver/Src/stm32n6xx_hal_rif.c ****     (#) Delegate a subregion configuration to another CID with HAL_RIF_RISAF_ConfigSubRegionDelegat
 115:../STM32Cube_FW_N6/Drivers/STM32N6xx_HAL_Driver/Src/stm32n6xx_hal_rif.c ****     (#) Get the data from an illegal access to a protected memory region with
 116:../STM32Cube_FW_N6/Drivers/STM32N6xx_HAL_Driver/Src/stm32n6xx_hal_rif.c ****         HAL_RIF_RISAF_GetIllegalAccess.
 117:../STM32Cube_FW_N6/Drivers/STM32N6xx_HAL_Driver/Src/stm32n6xx_hal_rif.c **** 
 118:../STM32Cube_FW_N6/Drivers/STM32N6xx_HAL_Driver/Src/stm32n6xx_hal_rif.c ****      *** IAC related functions ***
 119:../STM32Cube_FW_N6/Drivers/STM32N6xx_HAL_Driver/Src/stm32n6xx_hal_rif.c ****     ============================================================
 120:../STM32Cube_FW_N6/Drivers/STM32N6xx_HAL_Driver/Src/stm32n6xx_hal_rif.c ****     [..]
 121:../STM32Cube_FW_N6/Drivers/STM32N6xx_HAL_Driver/Src/stm32n6xx_hal_rif.c ****     (#) Enable or disable peripheral illegal access detection with HAL_RIF_IAC_EnableIT /
 122:../STM32Cube_FW_N6/Drivers/STM32N6xx_HAL_Driver/Src/stm32n6xx_hal_rif.c ****         HAL_RIF_IAC_DisableIT.
 123:../STM32Cube_FW_N6/Drivers/STM32N6xx_HAL_Driver/Src/stm32n6xx_hal_rif.c ****     (#) Retrieve an illegal access flag from a designated peripheral with HAL_RIF_IAC_GetFlag
 124:../STM32Cube_FW_N6/Drivers/STM32N6xx_HAL_Driver/Src/stm32n6xx_hal_rif.c ****         or clear it with HAL_RIF_IAC_ClearFlag.
 125:../STM32Cube_FW_N6/Drivers/STM32N6xx_HAL_Driver/Src/stm32n6xx_hal_rif.c ****     (#) Illegal access interrupt service routines are served by HAL_RIF_IRQHandler()
 126:../STM32Cube_FW_N6/Drivers/STM32N6xx_HAL_Driver/Src/stm32n6xx_hal_rif.c ****         and user can add his own code using HAL_RIF_ILA_Callback().
 127:../STM32Cube_FW_N6/Drivers/STM32N6xx_HAL_Driver/Src/stm32n6xx_hal_rif.c **** 
 128:../STM32Cube_FW_N6/Drivers/STM32N6xx_HAL_Driver/Src/stm32n6xx_hal_rif.c ****   @endverbatim
 129:../STM32Cube_FW_N6/Drivers/STM32N6xx_HAL_Driver/Src/stm32n6xx_hal_rif.c ****   ******************************************************************************
 130:../STM32Cube_FW_N6/Drivers/STM32N6xx_HAL_Driver/Src/stm32n6xx_hal_rif.c ****   */
 131:../STM32Cube_FW_N6/Drivers/STM32N6xx_HAL_Driver/Src/stm32n6xx_hal_rif.c **** 
 132:../STM32Cube_FW_N6/Drivers/STM32N6xx_HAL_Driver/Src/stm32n6xx_hal_rif.c **** /* Includes ------------------------------------------------------------------*/
 133:../STM32Cube_FW_N6/Drivers/STM32N6xx_HAL_Driver/Src/stm32n6xx_hal_rif.c **** #include "stm32n6xx_hal.h"
 134:../STM32Cube_FW_N6/Drivers/STM32N6xx_HAL_Driver/Src/stm32n6xx_hal_rif.c **** 
 135:../STM32Cube_FW_N6/Drivers/STM32N6xx_HAL_Driver/Src/stm32n6xx_hal_rif.c **** /** @addtogroup STM32N6xx_HAL_Driver
 136:../STM32Cube_FW_N6/Drivers/STM32N6xx_HAL_Driver/Src/stm32n6xx_hal_rif.c ****   * @{
 137:../STM32Cube_FW_N6/Drivers/STM32N6xx_HAL_Driver/Src/stm32n6xx_hal_rif.c ****   */
 138:../STM32Cube_FW_N6/Drivers/STM32N6xx_HAL_Driver/Src/stm32n6xx_hal_rif.c **** 
 139:../STM32Cube_FW_N6/Drivers/STM32N6xx_HAL_Driver/Src/stm32n6xx_hal_rif.c **** /** @defgroup RIF RIF
ARM GAS  /tmp/ccHKmbxS.s 			page 4


 140:../STM32Cube_FW_N6/Drivers/STM32N6xx_HAL_Driver/Src/stm32n6xx_hal_rif.c ****   * @brief RIF HAL module driver.
 141:../STM32Cube_FW_N6/Drivers/STM32N6xx_HAL_Driver/Src/stm32n6xx_hal_rif.c ****   * @{
 142:../STM32Cube_FW_N6/Drivers/STM32N6xx_HAL_Driver/Src/stm32n6xx_hal_rif.c ****   */
 143:../STM32Cube_FW_N6/Drivers/STM32N6xx_HAL_Driver/Src/stm32n6xx_hal_rif.c **** 
 144:../STM32Cube_FW_N6/Drivers/STM32N6xx_HAL_Driver/Src/stm32n6xx_hal_rif.c **** #ifdef HAL_RIF_MODULE_ENABLED
 145:../STM32Cube_FW_N6/Drivers/STM32N6xx_HAL_Driver/Src/stm32n6xx_hal_rif.c **** 
 146:../STM32Cube_FW_N6/Drivers/STM32N6xx_HAL_Driver/Src/stm32n6xx_hal_rif.c **** /* Private typedef -----------------------------------------------------------*/
 147:../STM32Cube_FW_N6/Drivers/STM32N6xx_HAL_Driver/Src/stm32n6xx_hal_rif.c **** /* Private defines ------------------------------------------------------------*/
 148:../STM32Cube_FW_N6/Drivers/STM32N6xx_HAL_Driver/Src/stm32n6xx_hal_rif.c **** /** @addtogroup RIF_Private_Defines RIF Private Defines
 149:../STM32Cube_FW_N6/Drivers/STM32N6xx_HAL_Driver/Src/stm32n6xx_hal_rif.c ****   * @{
 150:../STM32Cube_FW_N6/Drivers/STM32N6xx_HAL_Driver/Src/stm32n6xx_hal_rif.c ****   */
 151:../STM32Cube_FW_N6/Drivers/STM32N6xx_HAL_Driver/Src/stm32n6xx_hal_rif.c **** #define RIF_PERIPH_IAC_REG_MAX             4U
 152:../STM32Cube_FW_N6/Drivers/STM32N6xx_HAL_Driver/Src/stm32n6xx_hal_rif.c **** /**
 153:../STM32Cube_FW_N6/Drivers/STM32N6xx_HAL_Driver/Src/stm32n6xx_hal_rif.c ****   * @}
 154:../STM32Cube_FW_N6/Drivers/STM32N6xx_HAL_Driver/Src/stm32n6xx_hal_rif.c ****   */
 155:../STM32Cube_FW_N6/Drivers/STM32N6xx_HAL_Driver/Src/stm32n6xx_hal_rif.c **** 
 156:../STM32Cube_FW_N6/Drivers/STM32N6xx_HAL_Driver/Src/stm32n6xx_hal_rif.c **** /* Private macro -------------------------------------------------------------*/
 157:../STM32Cube_FW_N6/Drivers/STM32N6xx_HAL_Driver/Src/stm32n6xx_hal_rif.c **** /* Private variables ---------------------------------------------------------*/
 158:../STM32Cube_FW_N6/Drivers/STM32N6xx_HAL_Driver/Src/stm32n6xx_hal_rif.c **** /* Private function prototypes -----------------------------------------------*/
 159:../STM32Cube_FW_N6/Drivers/STM32N6xx_HAL_Driver/Src/stm32n6xx_hal_rif.c **** /* Exported functions --------------------------------------------------------*/
 160:../STM32Cube_FW_N6/Drivers/STM32N6xx_HAL_Driver/Src/stm32n6xx_hal_rif.c **** 
 161:../STM32Cube_FW_N6/Drivers/STM32N6xx_HAL_Driver/Src/stm32n6xx_hal_rif.c **** /** @defgroup RIF_Exported_Functions RIF Exported Functions
 162:../STM32Cube_FW_N6/Drivers/STM32N6xx_HAL_Driver/Src/stm32n6xx_hal_rif.c ****   *  @{
 163:../STM32Cube_FW_N6/Drivers/STM32N6xx_HAL_Driver/Src/stm32n6xx_hal_rif.c ****   */
 164:../STM32Cube_FW_N6/Drivers/STM32N6xx_HAL_Driver/Src/stm32n6xx_hal_rif.c **** 
 165:../STM32Cube_FW_N6/Drivers/STM32N6xx_HAL_Driver/Src/stm32n6xx_hal_rif.c **** /** @defgroup RIF_Exported_Functions_Group1  RIMC Configuration functions
 166:../STM32Cube_FW_N6/Drivers/STM32N6xx_HAL_Driver/Src/stm32n6xx_hal_rif.c ****   *  @brief    RIMC Configuration functions
 167:../STM32Cube_FW_N6/Drivers/STM32N6xx_HAL_Driver/Src/stm32n6xx_hal_rif.c ****   *
 168:../STM32Cube_FW_N6/Drivers/STM32N6xx_HAL_Driver/Src/stm32n6xx_hal_rif.c **** @verbatim
 169:../STM32Cube_FW_N6/Drivers/STM32N6xx_HAL_Driver/Src/stm32n6xx_hal_rif.c ****   ==============================================================================
 170:../STM32Cube_FW_N6/Drivers/STM32N6xx_HAL_Driver/Src/stm32n6xx_hal_rif.c ****             ##### RIMC Configuration functions #####
 171:../STM32Cube_FW_N6/Drivers/STM32N6xx_HAL_Driver/Src/stm32n6xx_hal_rif.c ****   ==============================================================================
 172:../STM32Cube_FW_N6/Drivers/STM32N6xx_HAL_Driver/Src/stm32n6xx_hal_rif.c ****   [..]
 173:../STM32Cube_FW_N6/Drivers/STM32N6xx_HAL_Driver/Src/stm32n6xx_hal_rif.c ****     This section provides functions allowing to configure RIMC
 174:../STM32Cube_FW_N6/Drivers/STM32N6xx_HAL_Driver/Src/stm32n6xx_hal_rif.c ****     RIMC is Resource Isolation Master Controller
 175:../STM32Cube_FW_N6/Drivers/STM32N6xx_HAL_Driver/Src/stm32n6xx_hal_rif.c **** @endverbatim
 176:../STM32Cube_FW_N6/Drivers/STM32N6xx_HAL_Driver/Src/stm32n6xx_hal_rif.c ****   * @{
 177:../STM32Cube_FW_N6/Drivers/STM32N6xx_HAL_Driver/Src/stm32n6xx_hal_rif.c ****   */
 178:../STM32Cube_FW_N6/Drivers/STM32N6xx_HAL_Driver/Src/stm32n6xx_hal_rif.c **** #if defined(CPU_AS_TRUSTED_DOMAIN) && defined(CPU_IN_SECURE_STATE)
 179:../STM32Cube_FW_N6/Drivers/STM32N6xx_HAL_Driver/Src/stm32n6xx_hal_rif.c **** /**
 180:../STM32Cube_FW_N6/Drivers/STM32N6xx_HAL_Driver/Src/stm32n6xx_hal_rif.c ****   * @brief  Lock overall configuration of RIMC.
 181:../STM32Cube_FW_N6/Drivers/STM32N6xx_HAL_Driver/Src/stm32n6xx_hal_rif.c ****   * @note   Once set, the overall configuration of RIMC cannot be modified
 182:../STM32Cube_FW_N6/Drivers/STM32N6xx_HAL_Driver/Src/stm32n6xx_hal_rif.c ****   *         upon next system reset.
 183:../STM32Cube_FW_N6/Drivers/STM32N6xx_HAL_Driver/Src/stm32n6xx_hal_rif.c ****   * @note   This API is protected by the Trusted Domain compilation directive.
 184:../STM32Cube_FW_N6/Drivers/STM32N6xx_HAL_Driver/Src/stm32n6xx_hal_rif.c ****   * @note   This API is protected by the TrustZone Enabled compilation directive.
 185:../STM32Cube_FW_N6/Drivers/STM32N6xx_HAL_Driver/Src/stm32n6xx_hal_rif.c ****   * @retval None
 186:../STM32Cube_FW_N6/Drivers/STM32N6xx_HAL_Driver/Src/stm32n6xx_hal_rif.c ****   */
 187:../STM32Cube_FW_N6/Drivers/STM32N6xx_HAL_Driver/Src/stm32n6xx_hal_rif.c **** void HAL_RIF_RIMC_Lock(void)
 188:../STM32Cube_FW_N6/Drivers/STM32N6xx_HAL_Driver/Src/stm32n6xx_hal_rif.c **** {
  34              		.loc 1 188 1 view -0
  35              		.cfi_startproc
  36              		@ args = 0, pretend = 0, frame = 0
  37              		@ frame_needed = 0, uses_anonymous_args = 0
  38              		@ link register save eliminated.
 189:../STM32Cube_FW_N6/Drivers/STM32N6xx_HAL_Driver/Src/stm32n6xx_hal_rif.c ****   /* Set RIMC Lock bit */
 190:../STM32Cube_FW_N6/Drivers/STM32N6xx_HAL_Driver/Src/stm32n6xx_hal_rif.c ****   RIFSC->RIMC_CR |= RIFSC_RIMC_CR_GLOCK;
  39              		.loc 1 190 3 view .LVU1
ARM GAS  /tmp/ccHKmbxS.s 			page 5


  40              		.loc 1 190 8 is_stmt 0 view .LVU2
  41 0000 034A     		ldr	r2, .L2
  42 0002 D2F8003C 		ldr	r3, [r2, #3072]
  43              		.loc 1 190 18 view .LVU3
  44 0006 43F00103 		orr	r3, r3, #1
  45 000a C2F8003C 		str	r3, [r2, #3072]
 191:../STM32Cube_FW_N6/Drivers/STM32N6xx_HAL_Driver/Src/stm32n6xx_hal_rif.c **** }
  46              		.loc 1 191 1 view .LVU4
  47 000e 7047     		bx	lr
  48              	.L3:
  49              		.align	2
  50              	.L2:
  51 0010 00400254 		.word	1409433600
  52              		.cfi_endproc
  53              	.LFE881:
  55              		.section	.text.HAL_RIF_RIMC_GetLock,"ax",%progbits
  56              		.align	1
  57              		.global	HAL_RIF_RIMC_GetLock
  58              		.syntax unified
  59              		.thumb
  60              		.thumb_func
  62              	HAL_RIF_RIMC_GetLock:
  63              	.LFB882:
 192:../STM32Cube_FW_N6/Drivers/STM32N6xx_HAL_Driver/Src/stm32n6xx_hal_rif.c **** #endif /* defined(CPU_AS_TRUSTED_DOMAIN) && defined(CPU_IN_SECURE_STATE) */
 193:../STM32Cube_FW_N6/Drivers/STM32N6xx_HAL_Driver/Src/stm32n6xx_hal_rif.c **** 
 194:../STM32Cube_FW_N6/Drivers/STM32N6xx_HAL_Driver/Src/stm32n6xx_hal_rif.c **** /**
 195:../STM32Cube_FW_N6/Drivers/STM32N6xx_HAL_Driver/Src/stm32n6xx_hal_rif.c ****   * @brief  Get RIMC global lock status.
 196:../STM32Cube_FW_N6/Drivers/STM32N6xx_HAL_Driver/Src/stm32n6xx_hal_rif.c ****   * @retval RIF_LOCK_ENABLE if RIMC configuration is locked, else RIF_LOCK_DISABLE
 197:../STM32Cube_FW_N6/Drivers/STM32N6xx_HAL_Driver/Src/stm32n6xx_hal_rif.c ****   */
 198:../STM32Cube_FW_N6/Drivers/STM32N6xx_HAL_Driver/Src/stm32n6xx_hal_rif.c **** uint32_t HAL_RIF_RIMC_GetLock(void)
 199:../STM32Cube_FW_N6/Drivers/STM32N6xx_HAL_Driver/Src/stm32n6xx_hal_rif.c **** {
  64              		.loc 1 199 1 is_stmt 1 view -0
  65              		.cfi_startproc
  66              		@ args = 0, pretend = 0, frame = 0
  67              		@ frame_needed = 0, uses_anonymous_args = 0
  68              		@ link register save eliminated.
 200:../STM32Cube_FW_N6/Drivers/STM32N6xx_HAL_Driver/Src/stm32n6xx_hal_rif.c ****   uint32_t lock_status;
  69              		.loc 1 200 3 view .LVU6
 201:../STM32Cube_FW_N6/Drivers/STM32N6xx_HAL_Driver/Src/stm32n6xx_hal_rif.c **** 
 202:../STM32Cube_FW_N6/Drivers/STM32N6xx_HAL_Driver/Src/stm32n6xx_hal_rif.c ****   /* Read RIMC lock bit */
 203:../STM32Cube_FW_N6/Drivers/STM32N6xx_HAL_Driver/Src/stm32n6xx_hal_rif.c ****   lock_status = (RIFSC->RIMC_CR & RIF_LOCK_ENABLE);
  70              		.loc 1 203 3 view .LVU7
  71              		.loc 1 203 23 is_stmt 0 view .LVU8
  72 0000 024B     		ldr	r3, .L5
  73 0002 D3F8000C 		ldr	r0, [r3, #3072]
  74              	.LVL0:
 204:../STM32Cube_FW_N6/Drivers/STM32N6xx_HAL_Driver/Src/stm32n6xx_hal_rif.c **** 
 205:../STM32Cube_FW_N6/Drivers/STM32N6xx_HAL_Driver/Src/stm32n6xx_hal_rif.c ****   return lock_status;
  75              		.loc 1 205 3 is_stmt 1 view .LVU9
 206:../STM32Cube_FW_N6/Drivers/STM32N6xx_HAL_Driver/Src/stm32n6xx_hal_rif.c **** }
  76              		.loc 1 206 1 is_stmt 0 view .LVU10
  77 0006 00F00100 		and	r0, r0, #1
  78              	.LVL1:
  79              		.loc 1 206 1 view .LVU11
  80 000a 7047     		bx	lr
  81              	.L6:
  82              		.align	2
ARM GAS  /tmp/ccHKmbxS.s 			page 6


  83              	.L5:
  84 000c 00400254 		.word	1409433600
  85              		.cfi_endproc
  86              	.LFE882:
  88              		.section	.rodata.HAL_RIF_RIMC_SetDebugAccessPortCID.str1.1,"aMS",%progbits,1
  89              	.LC0:
  90 0000 2E2E2F53 		.ascii	"../STM32Cube_FW_N6/Drivers/STM32N6xx_HAL_Driver/Src"
  90      544D3332 
  90      43756265 
  90      5F46575F 
  90      4E362F44 
  91 0033 2F73746D 		.ascii	"/stm32n6xx_hal_rif.c\000"
  91      33326E36 
  91      78785F68 
  91      616C5F72 
  91      69662E63 
  92              		.section	.text.HAL_RIF_RIMC_SetDebugAccessPortCID,"ax",%progbits
  93              		.align	1
  94              		.global	HAL_RIF_RIMC_SetDebugAccessPortCID
  95              		.syntax unified
  96              		.thumb
  97              		.thumb_func
  99              	HAL_RIF_RIMC_SetDebugAccessPortCID:
 100              	.LVL2:
 101              	.LFB883:
 207:../STM32Cube_FW_N6/Drivers/STM32N6xx_HAL_Driver/Src/stm32n6xx_hal_rif.c **** 
 208:../STM32Cube_FW_N6/Drivers/STM32N6xx_HAL_Driver/Src/stm32n6xx_hal_rif.c **** #if defined(CPU_AS_TRUSTED_DOMAIN) && defined(CPU_IN_SECURE_STATE)
 209:../STM32Cube_FW_N6/Drivers/STM32N6xx_HAL_Driver/Src/stm32n6xx_hal_rif.c **** /**
 210:../STM32Cube_FW_N6/Drivers/STM32N6xx_HAL_Driver/Src/stm32n6xx_hal_rif.c ****   * @brief  Change the Debugger Access Port ID
 211:../STM32Cube_FW_N6/Drivers/STM32N6xx_HAL_Driver/Src/stm32n6xx_hal_rif.c ****   * @note   This API is protected by the Trusted Domain compilation directive.
 212:../STM32Cube_FW_N6/Drivers/STM32N6xx_HAL_Driver/Src/stm32n6xx_hal_rif.c ****   * @note   This API is protected by the TrustZone Enabled compilation directive.
 213:../STM32Cube_FW_N6/Drivers/STM32N6xx_HAL_Driver/Src/stm32n6xx_hal_rif.c ****   * @param  CID  specifies the Debugger Access Port CID
 214:../STM32Cube_FW_N6/Drivers/STM32N6xx_HAL_Driver/Src/stm32n6xx_hal_rif.c ****   *         This parameter can be a combination of following values:
 215:../STM32Cube_FW_N6/Drivers/STM32N6xx_HAL_Driver/Src/stm32n6xx_hal_rif.c ****   *           @arg @ref RIF_CID_0    Compartment 0 ID selected as Debug access port ID
 216:../STM32Cube_FW_N6/Drivers/STM32N6xx_HAL_Driver/Src/stm32n6xx_hal_rif.c ****   *           @arg @ref RIF_CID_1    Compartment 1 ID selected as Debug access port ID
 217:../STM32Cube_FW_N6/Drivers/STM32N6xx_HAL_Driver/Src/stm32n6xx_hal_rif.c ****   *           @arg @ref RIF_CID_2    Compartment 2 ID selected as Debug access port ID
 218:../STM32Cube_FW_N6/Drivers/STM32N6xx_HAL_Driver/Src/stm32n6xx_hal_rif.c ****   *           @arg @ref RIF_CID_3    Compartment 3 ID selected as Debug access port ID
 219:../STM32Cube_FW_N6/Drivers/STM32N6xx_HAL_Driver/Src/stm32n6xx_hal_rif.c ****   *           @arg @ref RIF_CID_4    Compartment 4 ID selected as Debug access port ID
 220:../STM32Cube_FW_N6/Drivers/STM32N6xx_HAL_Driver/Src/stm32n6xx_hal_rif.c ****   *           @arg @ref RIF_CID_5    Compartment 5 ID selected as Debug access port ID
 221:../STM32Cube_FW_N6/Drivers/STM32N6xx_HAL_Driver/Src/stm32n6xx_hal_rif.c ****   *           @arg @ref RIF_CID_6    Compartment 6 ID selected as Debug access port ID
 222:../STM32Cube_FW_N6/Drivers/STM32N6xx_HAL_Driver/Src/stm32n6xx_hal_rif.c ****   *           @arg @ref RIF_CID_7    Compartment 7 ID selected as Debug access port ID
 223:../STM32Cube_FW_N6/Drivers/STM32N6xx_HAL_Driver/Src/stm32n6xx_hal_rif.c ****   * @retval None
 224:../STM32Cube_FW_N6/Drivers/STM32N6xx_HAL_Driver/Src/stm32n6xx_hal_rif.c ****   */
 225:../STM32Cube_FW_N6/Drivers/STM32N6xx_HAL_Driver/Src/stm32n6xx_hal_rif.c **** void HAL_RIF_RIMC_SetDebugAccessPortCID(uint32_t CID)
 226:../STM32Cube_FW_N6/Drivers/STM32N6xx_HAL_Driver/Src/stm32n6xx_hal_rif.c **** {
 102              		.loc 1 226 1 is_stmt 1 view -0
 103              		.cfi_startproc
 104              		@ args = 0, pretend = 0, frame = 0
 105              		@ frame_needed = 0, uses_anonymous_args = 0
 227:../STM32Cube_FW_N6/Drivers/STM32N6xx_HAL_Driver/Src/stm32n6xx_hal_rif.c ****   uint32_t dap_cid;
 106              		.loc 1 227 3 view .LVU13
 228:../STM32Cube_FW_N6/Drivers/STM32N6xx_HAL_Driver/Src/stm32n6xx_hal_rif.c ****   uint32_t rimc_cr_reg;
 107              		.loc 1 228 3 view .LVU14
 229:../STM32Cube_FW_N6/Drivers/STM32N6xx_HAL_Driver/Src/stm32n6xx_hal_rif.c **** 
 230:../STM32Cube_FW_N6/Drivers/STM32N6xx_HAL_Driver/Src/stm32n6xx_hal_rif.c ****   /* Check the parameter */
 231:../STM32Cube_FW_N6/Drivers/STM32N6xx_HAL_Driver/Src/stm32n6xx_hal_rif.c ****   assert_param(IS_RIF_SINGLE_CID(CID));
 108              		.loc 1 231 3 view .LVU15
ARM GAS  /tmp/ccHKmbxS.s 			page 7


 109 0000 2028     		cmp	r0, #32
 226:../STM32Cube_FW_N6/Drivers/STM32N6xx_HAL_Driver/Src/stm32n6xx_hal_rif.c ****   uint32_t dap_cid;
 110              		.loc 1 226 1 is_stmt 0 view .LVU16
 111 0002 10B5     		push	{r4, lr}
 112              		.cfi_def_cfa_offset 8
 113              		.cfi_offset 4, -8
 114              		.cfi_offset 14, -4
 226:../STM32Cube_FW_N6/Drivers/STM32N6xx_HAL_Driver/Src/stm32n6xx_hal_rif.c ****   uint32_t dap_cid;
 115              		.loc 1 226 1 view .LVU17
 116 0004 0446     		mov	r4, r0
 117 0006 1CD8     		bhi	.L8
 118 0008 0328     		cmp	r0, #3
 119 000a 10D8     		bhi	.L9
 120 000c 431E     		subs	r3, r0, #1
 121 000e 012B     		cmp	r3, #1
 122 0010 12D8     		bhi	.L10
 123              	.LVL3:
 124              	.L11:
 232:../STM32Cube_FW_N6/Drivers/STM32N6xx_HAL_Driver/Src/stm32n6xx_hal_rif.c **** 
 233:../STM32Cube_FW_N6/Drivers/STM32N6xx_HAL_Driver/Src/stm32n6xx_hal_rif.c ****   /* Set Debug Access Port CID bits */
 234:../STM32Cube_FW_N6/Drivers/STM32N6xx_HAL_Driver/Src/stm32n6xx_hal_rif.c ****   dap_cid = POSITION_VAL(CID);
 125              		.loc 1 234 3 is_stmt 1 view .LVU18
 126              	.LBB18:
 127              	.LBI18:
 128              		.file 2 "../STM32Cube_FW_N6/Drivers/CMSIS/Include/cmsis_gcc.h"
   1:../STM32Cube_FW_N6/Drivers/CMSIS/Include/cmsis_gcc.h **** /**************************************************************************//**
   2:../STM32Cube_FW_N6/Drivers/CMSIS/Include/cmsis_gcc.h ****  * @file     cmsis_gcc.h
   3:../STM32Cube_FW_N6/Drivers/CMSIS/Include/cmsis_gcc.h ****  * @brief    CMSIS compiler GCC header file
   4:../STM32Cube_FW_N6/Drivers/CMSIS/Include/cmsis_gcc.h ****  * @version  V6.0.0
   5:../STM32Cube_FW_N6/Drivers/CMSIS/Include/cmsis_gcc.h ****  * @date     27. July 2024
   6:../STM32Cube_FW_N6/Drivers/CMSIS/Include/cmsis_gcc.h ****  ******************************************************************************/
   7:../STM32Cube_FW_N6/Drivers/CMSIS/Include/cmsis_gcc.h **** /*
   8:../STM32Cube_FW_N6/Drivers/CMSIS/Include/cmsis_gcc.h ****  * Copyright (c) 2009-2023 Arm Limited. All rights reserved.
   9:../STM32Cube_FW_N6/Drivers/CMSIS/Include/cmsis_gcc.h ****  *
  10:../STM32Cube_FW_N6/Drivers/CMSIS/Include/cmsis_gcc.h ****  * SPDX-License-Identifier: Apache-2.0
  11:../STM32Cube_FW_N6/Drivers/CMSIS/Include/cmsis_gcc.h ****  *
  12:../STM32Cube_FW_N6/Drivers/CMSIS/Include/cmsis_gcc.h ****  * Licensed under the Apache License, Version 2.0 (the License); you may
  13:../STM32Cube_FW_N6/Drivers/CMSIS/Include/cmsis_gcc.h ****  * not use this file except in compliance with the License.
  14:../STM32Cube_FW_N6/Drivers/CMSIS/Include/cmsis_gcc.h ****  * You may obtain a copy of the License at
  15:../STM32Cube_FW_N6/Drivers/CMSIS/Include/cmsis_gcc.h ****  *
  16:../STM32Cube_FW_N6/Drivers/CMSIS/Include/cmsis_gcc.h ****  * www.apache.org/licenses/LICENSE-2.0
  17:../STM32Cube_FW_N6/Drivers/CMSIS/Include/cmsis_gcc.h ****  *
  18:../STM32Cube_FW_N6/Drivers/CMSIS/Include/cmsis_gcc.h ****  * Unless required by applicable law or agreed to in writing, software
  19:../STM32Cube_FW_N6/Drivers/CMSIS/Include/cmsis_gcc.h ****  * distributed under the License is distributed on an AS IS BASIS, WITHOUT
  20:../STM32Cube_FW_N6/Drivers/CMSIS/Include/cmsis_gcc.h ****  * WARRANTIES OR CONDITIONS OF ANY KIND, either express or implied.
  21:../STM32Cube_FW_N6/Drivers/CMSIS/Include/cmsis_gcc.h ****  * See the License for the specific language governing permissions and
  22:../STM32Cube_FW_N6/Drivers/CMSIS/Include/cmsis_gcc.h ****  * limitations under the License.
  23:../STM32Cube_FW_N6/Drivers/CMSIS/Include/cmsis_gcc.h ****  */
  24:../STM32Cube_FW_N6/Drivers/CMSIS/Include/cmsis_gcc.h **** 
  25:../STM32Cube_FW_N6/Drivers/CMSIS/Include/cmsis_gcc.h **** #ifndef __CMSIS_GCC_H
  26:../STM32Cube_FW_N6/Drivers/CMSIS/Include/cmsis_gcc.h **** #define __CMSIS_GCC_H
  27:../STM32Cube_FW_N6/Drivers/CMSIS/Include/cmsis_gcc.h **** 
  28:../STM32Cube_FW_N6/Drivers/CMSIS/Include/cmsis_gcc.h **** #pragma GCC system_header   /* treat file as system include file */
  29:../STM32Cube_FW_N6/Drivers/CMSIS/Include/cmsis_gcc.h **** 
  30:../STM32Cube_FW_N6/Drivers/CMSIS/Include/cmsis_gcc.h **** #include <arm_acle.h>
  31:../STM32Cube_FW_N6/Drivers/CMSIS/Include/cmsis_gcc.h **** 
  32:../STM32Cube_FW_N6/Drivers/CMSIS/Include/cmsis_gcc.h **** /* Fallback for __has_builtin */
ARM GAS  /tmp/ccHKmbxS.s 			page 8


  33:../STM32Cube_FW_N6/Drivers/CMSIS/Include/cmsis_gcc.h **** #ifndef __has_builtin
  34:../STM32Cube_FW_N6/Drivers/CMSIS/Include/cmsis_gcc.h ****   #define __has_builtin(x) (0)
  35:../STM32Cube_FW_N6/Drivers/CMSIS/Include/cmsis_gcc.h **** #endif
  36:../STM32Cube_FW_N6/Drivers/CMSIS/Include/cmsis_gcc.h **** 
  37:../STM32Cube_FW_N6/Drivers/CMSIS/Include/cmsis_gcc.h **** /* CMSIS compiler specific defines */
  38:../STM32Cube_FW_N6/Drivers/CMSIS/Include/cmsis_gcc.h **** #ifndef   __ASM
  39:../STM32Cube_FW_N6/Drivers/CMSIS/Include/cmsis_gcc.h ****   #define __ASM                                  __asm
  40:../STM32Cube_FW_N6/Drivers/CMSIS/Include/cmsis_gcc.h **** #endif
  41:../STM32Cube_FW_N6/Drivers/CMSIS/Include/cmsis_gcc.h **** #ifndef   __INLINE
  42:../STM32Cube_FW_N6/Drivers/CMSIS/Include/cmsis_gcc.h ****   #define __INLINE                               inline
  43:../STM32Cube_FW_N6/Drivers/CMSIS/Include/cmsis_gcc.h **** #endif
  44:../STM32Cube_FW_N6/Drivers/CMSIS/Include/cmsis_gcc.h **** #ifndef   __STATIC_INLINE
  45:../STM32Cube_FW_N6/Drivers/CMSIS/Include/cmsis_gcc.h ****   #define __STATIC_INLINE                        static inline
  46:../STM32Cube_FW_N6/Drivers/CMSIS/Include/cmsis_gcc.h **** #endif
  47:../STM32Cube_FW_N6/Drivers/CMSIS/Include/cmsis_gcc.h **** #ifndef   __STATIC_FORCEINLINE
  48:../STM32Cube_FW_N6/Drivers/CMSIS/Include/cmsis_gcc.h ****   #define __STATIC_FORCEINLINE                   __attribute__((always_inline)) static inline
  49:../STM32Cube_FW_N6/Drivers/CMSIS/Include/cmsis_gcc.h **** #endif
  50:../STM32Cube_FW_N6/Drivers/CMSIS/Include/cmsis_gcc.h **** #ifndef   __NO_RETURN
  51:../STM32Cube_FW_N6/Drivers/CMSIS/Include/cmsis_gcc.h ****   #define __NO_RETURN                            __attribute__((__noreturn__))
  52:../STM32Cube_FW_N6/Drivers/CMSIS/Include/cmsis_gcc.h **** #endif
  53:../STM32Cube_FW_N6/Drivers/CMSIS/Include/cmsis_gcc.h **** #ifndef   CMSIS_DEPRECATED
  54:../STM32Cube_FW_N6/Drivers/CMSIS/Include/cmsis_gcc.h ****   #define CMSIS_DEPRECATED                       __attribute__((deprecated))
  55:../STM32Cube_FW_N6/Drivers/CMSIS/Include/cmsis_gcc.h **** #endif
  56:../STM32Cube_FW_N6/Drivers/CMSIS/Include/cmsis_gcc.h **** #ifndef   __USED
  57:../STM32Cube_FW_N6/Drivers/CMSIS/Include/cmsis_gcc.h ****   #define __USED                                 __attribute__((used))
  58:../STM32Cube_FW_N6/Drivers/CMSIS/Include/cmsis_gcc.h **** #endif
  59:../STM32Cube_FW_N6/Drivers/CMSIS/Include/cmsis_gcc.h **** #ifndef   __WEAK
  60:../STM32Cube_FW_N6/Drivers/CMSIS/Include/cmsis_gcc.h ****   #define __WEAK                                 __attribute__((weak))
  61:../STM32Cube_FW_N6/Drivers/CMSIS/Include/cmsis_gcc.h **** #endif
  62:../STM32Cube_FW_N6/Drivers/CMSIS/Include/cmsis_gcc.h **** #ifndef   __PACKED
  63:../STM32Cube_FW_N6/Drivers/CMSIS/Include/cmsis_gcc.h ****   #define __PACKED                               __attribute__((packed, aligned(1)))
  64:../STM32Cube_FW_N6/Drivers/CMSIS/Include/cmsis_gcc.h **** #endif
  65:../STM32Cube_FW_N6/Drivers/CMSIS/Include/cmsis_gcc.h **** #ifndef   __PACKED_STRUCT
  66:../STM32Cube_FW_N6/Drivers/CMSIS/Include/cmsis_gcc.h ****   #define __PACKED_STRUCT                        struct __attribute__((packed, aligned(1)))
  67:../STM32Cube_FW_N6/Drivers/CMSIS/Include/cmsis_gcc.h **** #endif
  68:../STM32Cube_FW_N6/Drivers/CMSIS/Include/cmsis_gcc.h **** #ifndef   __PACKED_UNION
  69:../STM32Cube_FW_N6/Drivers/CMSIS/Include/cmsis_gcc.h ****   #define __PACKED_UNION                         union __attribute__((packed, aligned(1)))
  70:../STM32Cube_FW_N6/Drivers/CMSIS/Include/cmsis_gcc.h **** #endif
  71:../STM32Cube_FW_N6/Drivers/CMSIS/Include/cmsis_gcc.h **** #ifndef   __UNALIGNED_UINT16_WRITE
  72:../STM32Cube_FW_N6/Drivers/CMSIS/Include/cmsis_gcc.h ****   #pragma GCC diagnostic push
  73:../STM32Cube_FW_N6/Drivers/CMSIS/Include/cmsis_gcc.h ****   #pragma GCC diagnostic ignored "-Wpacked"
  74:../STM32Cube_FW_N6/Drivers/CMSIS/Include/cmsis_gcc.h ****   #pragma GCC diagnostic ignored "-Wattributes"
  75:../STM32Cube_FW_N6/Drivers/CMSIS/Include/cmsis_gcc.h ****   __PACKED_STRUCT T_UINT16_WRITE { uint16_t v; };
  76:../STM32Cube_FW_N6/Drivers/CMSIS/Include/cmsis_gcc.h ****   #pragma GCC diagnostic pop
  77:../STM32Cube_FW_N6/Drivers/CMSIS/Include/cmsis_gcc.h ****   #define __UNALIGNED_UINT16_WRITE(addr, val)    (void)((((struct T_UINT16_WRITE *)(void *)(addr))-
  78:../STM32Cube_FW_N6/Drivers/CMSIS/Include/cmsis_gcc.h **** #endif
  79:../STM32Cube_FW_N6/Drivers/CMSIS/Include/cmsis_gcc.h **** #ifndef   __UNALIGNED_UINT16_READ
  80:../STM32Cube_FW_N6/Drivers/CMSIS/Include/cmsis_gcc.h ****   #pragma GCC diagnostic push
  81:../STM32Cube_FW_N6/Drivers/CMSIS/Include/cmsis_gcc.h ****   #pragma GCC diagnostic ignored "-Wpacked"
  82:../STM32Cube_FW_N6/Drivers/CMSIS/Include/cmsis_gcc.h ****   #pragma GCC diagnostic ignored "-Wattributes"
  83:../STM32Cube_FW_N6/Drivers/CMSIS/Include/cmsis_gcc.h ****   __PACKED_STRUCT T_UINT16_READ { uint16_t v; };
  84:../STM32Cube_FW_N6/Drivers/CMSIS/Include/cmsis_gcc.h ****   #pragma GCC diagnostic pop
  85:../STM32Cube_FW_N6/Drivers/CMSIS/Include/cmsis_gcc.h ****   #define __UNALIGNED_UINT16_READ(addr)          (((const struct T_UINT16_READ *)(const void *)(add
  86:../STM32Cube_FW_N6/Drivers/CMSIS/Include/cmsis_gcc.h **** #endif
  87:../STM32Cube_FW_N6/Drivers/CMSIS/Include/cmsis_gcc.h **** #ifndef   __UNALIGNED_UINT32_WRITE
  88:../STM32Cube_FW_N6/Drivers/CMSIS/Include/cmsis_gcc.h ****   #pragma GCC diagnostic push
  89:../STM32Cube_FW_N6/Drivers/CMSIS/Include/cmsis_gcc.h ****   #pragma GCC diagnostic ignored "-Wpacked"
ARM GAS  /tmp/ccHKmbxS.s 			page 9


  90:../STM32Cube_FW_N6/Drivers/CMSIS/Include/cmsis_gcc.h ****   #pragma GCC diagnostic ignored "-Wattributes"
  91:../STM32Cube_FW_N6/Drivers/CMSIS/Include/cmsis_gcc.h ****   __PACKED_STRUCT T_UINT32_WRITE { uint32_t v; };
  92:../STM32Cube_FW_N6/Drivers/CMSIS/Include/cmsis_gcc.h ****   #pragma GCC diagnostic pop
  93:../STM32Cube_FW_N6/Drivers/CMSIS/Include/cmsis_gcc.h ****   #define __UNALIGNED_UINT32_WRITE(addr, val)    (void)((((struct T_UINT32_WRITE *)(void *)(addr))-
  94:../STM32Cube_FW_N6/Drivers/CMSIS/Include/cmsis_gcc.h **** #endif
  95:../STM32Cube_FW_N6/Drivers/CMSIS/Include/cmsis_gcc.h **** #ifndef   __UNALIGNED_UINT32_READ
  96:../STM32Cube_FW_N6/Drivers/CMSIS/Include/cmsis_gcc.h ****   #pragma GCC diagnostic push
  97:../STM32Cube_FW_N6/Drivers/CMSIS/Include/cmsis_gcc.h ****   #pragma GCC diagnostic ignored "-Wpacked"
  98:../STM32Cube_FW_N6/Drivers/CMSIS/Include/cmsis_gcc.h ****   #pragma GCC diagnostic ignored "-Wattributes"
  99:../STM32Cube_FW_N6/Drivers/CMSIS/Include/cmsis_gcc.h ****   __PACKED_STRUCT T_UINT32_READ { uint32_t v; };
 100:../STM32Cube_FW_N6/Drivers/CMSIS/Include/cmsis_gcc.h ****   #pragma GCC diagnostic pop
 101:../STM32Cube_FW_N6/Drivers/CMSIS/Include/cmsis_gcc.h ****   #define __UNALIGNED_UINT32_READ(addr)          (((const struct T_UINT32_READ *)(const void *)(add
 102:../STM32Cube_FW_N6/Drivers/CMSIS/Include/cmsis_gcc.h **** #endif
 103:../STM32Cube_FW_N6/Drivers/CMSIS/Include/cmsis_gcc.h **** #ifndef   __ALIGNED
 104:../STM32Cube_FW_N6/Drivers/CMSIS/Include/cmsis_gcc.h ****   #define __ALIGNED(x)                           __attribute__((aligned(x)))
 105:../STM32Cube_FW_N6/Drivers/CMSIS/Include/cmsis_gcc.h **** #endif
 106:../STM32Cube_FW_N6/Drivers/CMSIS/Include/cmsis_gcc.h **** #ifndef   __RESTRICT
 107:../STM32Cube_FW_N6/Drivers/CMSIS/Include/cmsis_gcc.h ****   #define __RESTRICT                             __restrict
 108:../STM32Cube_FW_N6/Drivers/CMSIS/Include/cmsis_gcc.h **** #endif
 109:../STM32Cube_FW_N6/Drivers/CMSIS/Include/cmsis_gcc.h **** #ifndef   __COMPILER_BARRIER
 110:../STM32Cube_FW_N6/Drivers/CMSIS/Include/cmsis_gcc.h ****   #define __COMPILER_BARRIER()                   __ASM volatile("":::"memory")
 111:../STM32Cube_FW_N6/Drivers/CMSIS/Include/cmsis_gcc.h **** #endif
 112:../STM32Cube_FW_N6/Drivers/CMSIS/Include/cmsis_gcc.h **** #ifndef __NO_INIT
 113:../STM32Cube_FW_N6/Drivers/CMSIS/Include/cmsis_gcc.h ****   #define __NO_INIT                              __attribute__ ((section (".noinit")))
 114:../STM32Cube_FW_N6/Drivers/CMSIS/Include/cmsis_gcc.h **** #endif
 115:../STM32Cube_FW_N6/Drivers/CMSIS/Include/cmsis_gcc.h **** #ifndef __ALIAS
 116:../STM32Cube_FW_N6/Drivers/CMSIS/Include/cmsis_gcc.h ****   #define __ALIAS(x)                             __attribute__ ((alias(x)))
 117:../STM32Cube_FW_N6/Drivers/CMSIS/Include/cmsis_gcc.h **** #endif
 118:../STM32Cube_FW_N6/Drivers/CMSIS/Include/cmsis_gcc.h **** 
 119:../STM32Cube_FW_N6/Drivers/CMSIS/Include/cmsis_gcc.h **** /* ##########################  Core Instruction Access  ######################### */
 120:../STM32Cube_FW_N6/Drivers/CMSIS/Include/cmsis_gcc.h **** /** \defgroup CMSIS_Core_InstructionInterface CMSIS Core Instruction Interface
 121:../STM32Cube_FW_N6/Drivers/CMSIS/Include/cmsis_gcc.h ****   Access to dedicated instructions
 122:../STM32Cube_FW_N6/Drivers/CMSIS/Include/cmsis_gcc.h ****   @{
 123:../STM32Cube_FW_N6/Drivers/CMSIS/Include/cmsis_gcc.h **** */
 124:../STM32Cube_FW_N6/Drivers/CMSIS/Include/cmsis_gcc.h **** 
 125:../STM32Cube_FW_N6/Drivers/CMSIS/Include/cmsis_gcc.h **** /* Define macros for porting to both thumb1 and thumb2.
 126:../STM32Cube_FW_N6/Drivers/CMSIS/Include/cmsis_gcc.h ****  * For thumb1, use low register (r0-r7), specified by constraint "l"
 127:../STM32Cube_FW_N6/Drivers/CMSIS/Include/cmsis_gcc.h ****  * Otherwise, use general registers, specified by constraint "r" */
 128:../STM32Cube_FW_N6/Drivers/CMSIS/Include/cmsis_gcc.h **** #if defined (__thumb__) && !defined (__thumb2__)
 129:../STM32Cube_FW_N6/Drivers/CMSIS/Include/cmsis_gcc.h **** #define __CMSIS_GCC_OUT_REG(r) "=l" (r)
 130:../STM32Cube_FW_N6/Drivers/CMSIS/Include/cmsis_gcc.h **** #define __CMSIS_GCC_RW_REG(r) "+l" (r)
 131:../STM32Cube_FW_N6/Drivers/CMSIS/Include/cmsis_gcc.h **** #define __CMSIS_GCC_USE_REG(r) "l" (r)
 132:../STM32Cube_FW_N6/Drivers/CMSIS/Include/cmsis_gcc.h **** #else
 133:../STM32Cube_FW_N6/Drivers/CMSIS/Include/cmsis_gcc.h **** #define __CMSIS_GCC_OUT_REG(r) "=r" (r)
 134:../STM32Cube_FW_N6/Drivers/CMSIS/Include/cmsis_gcc.h **** #define __CMSIS_GCC_RW_REG(r) "+r" (r)
 135:../STM32Cube_FW_N6/Drivers/CMSIS/Include/cmsis_gcc.h **** #define __CMSIS_GCC_USE_REG(r) "r" (r)
 136:../STM32Cube_FW_N6/Drivers/CMSIS/Include/cmsis_gcc.h **** #endif
 137:../STM32Cube_FW_N6/Drivers/CMSIS/Include/cmsis_gcc.h **** 
 138:../STM32Cube_FW_N6/Drivers/CMSIS/Include/cmsis_gcc.h **** /**
 139:../STM32Cube_FW_N6/Drivers/CMSIS/Include/cmsis_gcc.h ****   \brief   No Operation
 140:../STM32Cube_FW_N6/Drivers/CMSIS/Include/cmsis_gcc.h ****   \details No Operation does nothing. This instruction can be used for code alignment purposes.
 141:../STM32Cube_FW_N6/Drivers/CMSIS/Include/cmsis_gcc.h ****  */
 142:../STM32Cube_FW_N6/Drivers/CMSIS/Include/cmsis_gcc.h **** #define __NOP()         __ASM volatile ("nop")
 143:../STM32Cube_FW_N6/Drivers/CMSIS/Include/cmsis_gcc.h **** 
 144:../STM32Cube_FW_N6/Drivers/CMSIS/Include/cmsis_gcc.h **** 
 145:../STM32Cube_FW_N6/Drivers/CMSIS/Include/cmsis_gcc.h **** /**
 146:../STM32Cube_FW_N6/Drivers/CMSIS/Include/cmsis_gcc.h ****   \brief   Wait For Interrupt
ARM GAS  /tmp/ccHKmbxS.s 			page 10


 147:../STM32Cube_FW_N6/Drivers/CMSIS/Include/cmsis_gcc.h ****   \details Wait For Interrupt is a hint instruction that suspends execution until one of a number o
 148:../STM32Cube_FW_N6/Drivers/CMSIS/Include/cmsis_gcc.h ****  */
 149:../STM32Cube_FW_N6/Drivers/CMSIS/Include/cmsis_gcc.h **** #define __WFI()         __ASM volatile ("wfi":::"memory")
 150:../STM32Cube_FW_N6/Drivers/CMSIS/Include/cmsis_gcc.h **** 
 151:../STM32Cube_FW_N6/Drivers/CMSIS/Include/cmsis_gcc.h **** 
 152:../STM32Cube_FW_N6/Drivers/CMSIS/Include/cmsis_gcc.h **** /**
 153:../STM32Cube_FW_N6/Drivers/CMSIS/Include/cmsis_gcc.h ****   \brief   Wait For Event
 154:../STM32Cube_FW_N6/Drivers/CMSIS/Include/cmsis_gcc.h ****   \details Wait For Event is a hint instruction that permits the processor to enter
 155:../STM32Cube_FW_N6/Drivers/CMSIS/Include/cmsis_gcc.h ****            a low-power state until one of a number of events occurs.
 156:../STM32Cube_FW_N6/Drivers/CMSIS/Include/cmsis_gcc.h ****  */
 157:../STM32Cube_FW_N6/Drivers/CMSIS/Include/cmsis_gcc.h **** #define __WFE()         __ASM volatile ("wfe":::"memory")
 158:../STM32Cube_FW_N6/Drivers/CMSIS/Include/cmsis_gcc.h **** 
 159:../STM32Cube_FW_N6/Drivers/CMSIS/Include/cmsis_gcc.h **** 
 160:../STM32Cube_FW_N6/Drivers/CMSIS/Include/cmsis_gcc.h **** /**
 161:../STM32Cube_FW_N6/Drivers/CMSIS/Include/cmsis_gcc.h ****   \brief   Send Event
 162:../STM32Cube_FW_N6/Drivers/CMSIS/Include/cmsis_gcc.h ****   \details Send Event is a hint instruction. It causes an event to be signaled to the CPU.
 163:../STM32Cube_FW_N6/Drivers/CMSIS/Include/cmsis_gcc.h ****  */
 164:../STM32Cube_FW_N6/Drivers/CMSIS/Include/cmsis_gcc.h **** #define __SEV()         __ASM volatile ("sev")
 165:../STM32Cube_FW_N6/Drivers/CMSIS/Include/cmsis_gcc.h **** 
 166:../STM32Cube_FW_N6/Drivers/CMSIS/Include/cmsis_gcc.h **** 
 167:../STM32Cube_FW_N6/Drivers/CMSIS/Include/cmsis_gcc.h **** /**
 168:../STM32Cube_FW_N6/Drivers/CMSIS/Include/cmsis_gcc.h ****   \brief   Instruction Synchronization Barrier
 169:../STM32Cube_FW_N6/Drivers/CMSIS/Include/cmsis_gcc.h ****   \details Instruction Synchronization Barrier flushes the pipeline in the processor,
 170:../STM32Cube_FW_N6/Drivers/CMSIS/Include/cmsis_gcc.h ****            so that all instructions following the ISB are fetched from cache or memory,
 171:../STM32Cube_FW_N6/Drivers/CMSIS/Include/cmsis_gcc.h ****            after the instruction has been completed.
 172:../STM32Cube_FW_N6/Drivers/CMSIS/Include/cmsis_gcc.h ****  */
 173:../STM32Cube_FW_N6/Drivers/CMSIS/Include/cmsis_gcc.h **** __STATIC_FORCEINLINE void __ISB(void)
 174:../STM32Cube_FW_N6/Drivers/CMSIS/Include/cmsis_gcc.h **** {
 175:../STM32Cube_FW_N6/Drivers/CMSIS/Include/cmsis_gcc.h ****   __ASM volatile ("isb 0xF":::"memory");
 176:../STM32Cube_FW_N6/Drivers/CMSIS/Include/cmsis_gcc.h **** }
 177:../STM32Cube_FW_N6/Drivers/CMSIS/Include/cmsis_gcc.h **** 
 178:../STM32Cube_FW_N6/Drivers/CMSIS/Include/cmsis_gcc.h **** 
 179:../STM32Cube_FW_N6/Drivers/CMSIS/Include/cmsis_gcc.h **** /**
 180:../STM32Cube_FW_N6/Drivers/CMSIS/Include/cmsis_gcc.h ****   \brief   Data Synchronization Barrier
 181:../STM32Cube_FW_N6/Drivers/CMSIS/Include/cmsis_gcc.h ****   \details Acts as a special kind of Data Memory Barrier.
 182:../STM32Cube_FW_N6/Drivers/CMSIS/Include/cmsis_gcc.h ****            It completes when all explicit memory accesses before this instruction complete.
 183:../STM32Cube_FW_N6/Drivers/CMSIS/Include/cmsis_gcc.h ****  */
 184:../STM32Cube_FW_N6/Drivers/CMSIS/Include/cmsis_gcc.h **** __STATIC_FORCEINLINE void __DSB(void)
 185:../STM32Cube_FW_N6/Drivers/CMSIS/Include/cmsis_gcc.h **** {
 186:../STM32Cube_FW_N6/Drivers/CMSIS/Include/cmsis_gcc.h ****   __ASM volatile ("dsb 0xF":::"memory");
 187:../STM32Cube_FW_N6/Drivers/CMSIS/Include/cmsis_gcc.h **** }
 188:../STM32Cube_FW_N6/Drivers/CMSIS/Include/cmsis_gcc.h **** 
 189:../STM32Cube_FW_N6/Drivers/CMSIS/Include/cmsis_gcc.h **** 
 190:../STM32Cube_FW_N6/Drivers/CMSIS/Include/cmsis_gcc.h **** /**
 191:../STM32Cube_FW_N6/Drivers/CMSIS/Include/cmsis_gcc.h ****   \brief   Data Memory Barrier
 192:../STM32Cube_FW_N6/Drivers/CMSIS/Include/cmsis_gcc.h ****   \details Ensures the apparent order of the explicit memory operations before
 193:../STM32Cube_FW_N6/Drivers/CMSIS/Include/cmsis_gcc.h ****            and after the instruction, without ensuring their completion.
 194:../STM32Cube_FW_N6/Drivers/CMSIS/Include/cmsis_gcc.h ****  */
 195:../STM32Cube_FW_N6/Drivers/CMSIS/Include/cmsis_gcc.h **** __STATIC_FORCEINLINE void __DMB(void)
 196:../STM32Cube_FW_N6/Drivers/CMSIS/Include/cmsis_gcc.h **** {
 197:../STM32Cube_FW_N6/Drivers/CMSIS/Include/cmsis_gcc.h ****   __ASM volatile ("dmb 0xF":::"memory");
 198:../STM32Cube_FW_N6/Drivers/CMSIS/Include/cmsis_gcc.h **** }
 199:../STM32Cube_FW_N6/Drivers/CMSIS/Include/cmsis_gcc.h **** 
 200:../STM32Cube_FW_N6/Drivers/CMSIS/Include/cmsis_gcc.h **** 
 201:../STM32Cube_FW_N6/Drivers/CMSIS/Include/cmsis_gcc.h **** /**
 202:../STM32Cube_FW_N6/Drivers/CMSIS/Include/cmsis_gcc.h ****   \brief   Reverse byte order (32 bit)
 203:../STM32Cube_FW_N6/Drivers/CMSIS/Include/cmsis_gcc.h ****   \details Reverses the byte order in unsigned integer value. For example, 0x12345678 becomes 0x785
ARM GAS  /tmp/ccHKmbxS.s 			page 11


 204:../STM32Cube_FW_N6/Drivers/CMSIS/Include/cmsis_gcc.h ****   \param [in]    value  Value to reverse
 205:../STM32Cube_FW_N6/Drivers/CMSIS/Include/cmsis_gcc.h ****   \return               Reversed value
 206:../STM32Cube_FW_N6/Drivers/CMSIS/Include/cmsis_gcc.h ****  */
 207:../STM32Cube_FW_N6/Drivers/CMSIS/Include/cmsis_gcc.h **** __STATIC_FORCEINLINE uint32_t __REV(uint32_t value)
 208:../STM32Cube_FW_N6/Drivers/CMSIS/Include/cmsis_gcc.h **** {
 209:../STM32Cube_FW_N6/Drivers/CMSIS/Include/cmsis_gcc.h ****   return __builtin_bswap32(value);
 210:../STM32Cube_FW_N6/Drivers/CMSIS/Include/cmsis_gcc.h **** }
 211:../STM32Cube_FW_N6/Drivers/CMSIS/Include/cmsis_gcc.h **** 
 212:../STM32Cube_FW_N6/Drivers/CMSIS/Include/cmsis_gcc.h **** 
 213:../STM32Cube_FW_N6/Drivers/CMSIS/Include/cmsis_gcc.h **** /**
 214:../STM32Cube_FW_N6/Drivers/CMSIS/Include/cmsis_gcc.h ****   \brief   Reverse byte order (16 bit)
 215:../STM32Cube_FW_N6/Drivers/CMSIS/Include/cmsis_gcc.h ****   \details Reverses the byte order within each halfword of a word. For example, 0x12345678 becomes 
 216:../STM32Cube_FW_N6/Drivers/CMSIS/Include/cmsis_gcc.h ****   \param [in]    value  Value to reverse
 217:../STM32Cube_FW_N6/Drivers/CMSIS/Include/cmsis_gcc.h ****   \return               Reversed value
 218:../STM32Cube_FW_N6/Drivers/CMSIS/Include/cmsis_gcc.h ****  */
 219:../STM32Cube_FW_N6/Drivers/CMSIS/Include/cmsis_gcc.h **** __STATIC_FORCEINLINE uint32_t __REV16(uint32_t value)
 220:../STM32Cube_FW_N6/Drivers/CMSIS/Include/cmsis_gcc.h **** {
 221:../STM32Cube_FW_N6/Drivers/CMSIS/Include/cmsis_gcc.h ****   uint32_t result;
 222:../STM32Cube_FW_N6/Drivers/CMSIS/Include/cmsis_gcc.h **** 
 223:../STM32Cube_FW_N6/Drivers/CMSIS/Include/cmsis_gcc.h ****   __ASM ("rev16 %0, %1" : __CMSIS_GCC_OUT_REG (result) : __CMSIS_GCC_USE_REG (value) );
 224:../STM32Cube_FW_N6/Drivers/CMSIS/Include/cmsis_gcc.h ****   return (result);
 225:../STM32Cube_FW_N6/Drivers/CMSIS/Include/cmsis_gcc.h **** }
 226:../STM32Cube_FW_N6/Drivers/CMSIS/Include/cmsis_gcc.h **** 
 227:../STM32Cube_FW_N6/Drivers/CMSIS/Include/cmsis_gcc.h **** 
 228:../STM32Cube_FW_N6/Drivers/CMSIS/Include/cmsis_gcc.h **** /**
 229:../STM32Cube_FW_N6/Drivers/CMSIS/Include/cmsis_gcc.h ****   \brief   Reverse byte order (16 bit)
 230:../STM32Cube_FW_N6/Drivers/CMSIS/Include/cmsis_gcc.h ****   \details Reverses the byte order in a 16-bit value and returns the signed 16-bit result. For exam
 231:../STM32Cube_FW_N6/Drivers/CMSIS/Include/cmsis_gcc.h ****   \param [in]    value  Value to reverse
 232:../STM32Cube_FW_N6/Drivers/CMSIS/Include/cmsis_gcc.h ****   \return               Reversed value
 233:../STM32Cube_FW_N6/Drivers/CMSIS/Include/cmsis_gcc.h ****  */
 234:../STM32Cube_FW_N6/Drivers/CMSIS/Include/cmsis_gcc.h **** __STATIC_FORCEINLINE int16_t __REVSH(int16_t value)
 235:../STM32Cube_FW_N6/Drivers/CMSIS/Include/cmsis_gcc.h **** {
 236:../STM32Cube_FW_N6/Drivers/CMSIS/Include/cmsis_gcc.h ****   return (int16_t)__builtin_bswap16(value);
 237:../STM32Cube_FW_N6/Drivers/CMSIS/Include/cmsis_gcc.h **** }
 238:../STM32Cube_FW_N6/Drivers/CMSIS/Include/cmsis_gcc.h **** 
 239:../STM32Cube_FW_N6/Drivers/CMSIS/Include/cmsis_gcc.h **** 
 240:../STM32Cube_FW_N6/Drivers/CMSIS/Include/cmsis_gcc.h **** /**
 241:../STM32Cube_FW_N6/Drivers/CMSIS/Include/cmsis_gcc.h ****   \brief   Rotate Right in unsigned value (32 bit)
 242:../STM32Cube_FW_N6/Drivers/CMSIS/Include/cmsis_gcc.h ****   \details Rotate Right (immediate) provides the value of the contents of a register rotated by a v
 243:../STM32Cube_FW_N6/Drivers/CMSIS/Include/cmsis_gcc.h ****   \param [in]    op1  Value to rotate
 244:../STM32Cube_FW_N6/Drivers/CMSIS/Include/cmsis_gcc.h ****   \param [in]    op2  Number of Bits to rotate
 245:../STM32Cube_FW_N6/Drivers/CMSIS/Include/cmsis_gcc.h ****   \return               Rotated value
 246:../STM32Cube_FW_N6/Drivers/CMSIS/Include/cmsis_gcc.h ****  */
 247:../STM32Cube_FW_N6/Drivers/CMSIS/Include/cmsis_gcc.h **** __STATIC_FORCEINLINE uint32_t __ROR(uint32_t op1, uint32_t op2)
 248:../STM32Cube_FW_N6/Drivers/CMSIS/Include/cmsis_gcc.h **** {
 249:../STM32Cube_FW_N6/Drivers/CMSIS/Include/cmsis_gcc.h ****   op2 %= 32U;
 250:../STM32Cube_FW_N6/Drivers/CMSIS/Include/cmsis_gcc.h ****   if (op2 == 0U)
 251:../STM32Cube_FW_N6/Drivers/CMSIS/Include/cmsis_gcc.h ****   {
 252:../STM32Cube_FW_N6/Drivers/CMSIS/Include/cmsis_gcc.h ****     return op1;
 253:../STM32Cube_FW_N6/Drivers/CMSIS/Include/cmsis_gcc.h ****   }
 254:../STM32Cube_FW_N6/Drivers/CMSIS/Include/cmsis_gcc.h ****   return (op1 >> op2) | (op1 << (32U - op2));
 255:../STM32Cube_FW_N6/Drivers/CMSIS/Include/cmsis_gcc.h **** }
 256:../STM32Cube_FW_N6/Drivers/CMSIS/Include/cmsis_gcc.h **** 
 257:../STM32Cube_FW_N6/Drivers/CMSIS/Include/cmsis_gcc.h **** 
 258:../STM32Cube_FW_N6/Drivers/CMSIS/Include/cmsis_gcc.h **** /**
 259:../STM32Cube_FW_N6/Drivers/CMSIS/Include/cmsis_gcc.h ****   \brief   Breakpoint
 260:../STM32Cube_FW_N6/Drivers/CMSIS/Include/cmsis_gcc.h ****   \details Causes the processor to enter Debug state.
ARM GAS  /tmp/ccHKmbxS.s 			page 12


 261:../STM32Cube_FW_N6/Drivers/CMSIS/Include/cmsis_gcc.h ****            Debug tools can use this to investigate system state when the instruction at a particula
 262:../STM32Cube_FW_N6/Drivers/CMSIS/Include/cmsis_gcc.h ****   \param [in]    value  is ignored by the processor.
 263:../STM32Cube_FW_N6/Drivers/CMSIS/Include/cmsis_gcc.h ****                  If required, a debugger can use it to store additional information about the break
 264:../STM32Cube_FW_N6/Drivers/CMSIS/Include/cmsis_gcc.h ****  */
 265:../STM32Cube_FW_N6/Drivers/CMSIS/Include/cmsis_gcc.h **** #define __BKPT(value) __ASM volatile ("bkpt "#value)
 266:../STM32Cube_FW_N6/Drivers/CMSIS/Include/cmsis_gcc.h **** 
 267:../STM32Cube_FW_N6/Drivers/CMSIS/Include/cmsis_gcc.h **** 
 268:../STM32Cube_FW_N6/Drivers/CMSIS/Include/cmsis_gcc.h **** /**
 269:../STM32Cube_FW_N6/Drivers/CMSIS/Include/cmsis_gcc.h ****   \brief   Reverse bit order of value
 270:../STM32Cube_FW_N6/Drivers/CMSIS/Include/cmsis_gcc.h ****   \details Reverses the bit order of the given value.
 271:../STM32Cube_FW_N6/Drivers/CMSIS/Include/cmsis_gcc.h ****   \param [in]    value  Value to reverse
 272:../STM32Cube_FW_N6/Drivers/CMSIS/Include/cmsis_gcc.h ****   \return               Reversed value
 273:../STM32Cube_FW_N6/Drivers/CMSIS/Include/cmsis_gcc.h ****  */
 274:../STM32Cube_FW_N6/Drivers/CMSIS/Include/cmsis_gcc.h **** __STATIC_FORCEINLINE uint32_t __RBIT(uint32_t value)
 129              		.loc 2 274 31 view .LVU19
 130              	.LBB19:
 275:../STM32Cube_FW_N6/Drivers/CMSIS/Include/cmsis_gcc.h **** {
 276:../STM32Cube_FW_N6/Drivers/CMSIS/Include/cmsis_gcc.h ****   uint32_t result;
 131              		.loc 2 276 3 view .LVU20
 277:../STM32Cube_FW_N6/Drivers/CMSIS/Include/cmsis_gcc.h **** 
 278:../STM32Cube_FW_N6/Drivers/CMSIS/Include/cmsis_gcc.h **** #if (__ARM_ARCH_ISA_THUMB >= 2)
 279:../STM32Cube_FW_N6/Drivers/CMSIS/Include/cmsis_gcc.h ****    __ASM ("rbit %0, %1" : "=r" (result) : "r" (value) );
 132              		.loc 2 279 4 view .LVU21
 133              		.syntax unified
 134              	@ 279 "../STM32Cube_FW_N6/Drivers/CMSIS/Include/cmsis_gcc.h" 1
 135 0012 94FAA4F4 		rbit r4, r4
 136              	@ 0 "" 2
 137              	.LVL4:
 280:../STM32Cube_FW_N6/Drivers/CMSIS/Include/cmsis_gcc.h **** #else
 281:../STM32Cube_FW_N6/Drivers/CMSIS/Include/cmsis_gcc.h ****   uint32_t s = (4U /*sizeof(v)*/ * 8U) - 1U; /* extra shift needed at end */
 282:../STM32Cube_FW_N6/Drivers/CMSIS/Include/cmsis_gcc.h **** 
 283:../STM32Cube_FW_N6/Drivers/CMSIS/Include/cmsis_gcc.h ****   result = value;                      /* r will be reversed bits of v; first get LSB of v */
 284:../STM32Cube_FW_N6/Drivers/CMSIS/Include/cmsis_gcc.h ****   for (value >>= 1U; value != 0U; value >>= 1U)
 285:../STM32Cube_FW_N6/Drivers/CMSIS/Include/cmsis_gcc.h ****   {
 286:../STM32Cube_FW_N6/Drivers/CMSIS/Include/cmsis_gcc.h ****     result <<= 1U;
 287:../STM32Cube_FW_N6/Drivers/CMSIS/Include/cmsis_gcc.h ****     result |= value & 1U;
 288:../STM32Cube_FW_N6/Drivers/CMSIS/Include/cmsis_gcc.h ****     s--;
 289:../STM32Cube_FW_N6/Drivers/CMSIS/Include/cmsis_gcc.h ****   }
 290:../STM32Cube_FW_N6/Drivers/CMSIS/Include/cmsis_gcc.h ****   result <<= s;                        /* shift when v's highest bits are zero */
 291:../STM32Cube_FW_N6/Drivers/CMSIS/Include/cmsis_gcc.h **** #endif
 292:../STM32Cube_FW_N6/Drivers/CMSIS/Include/cmsis_gcc.h ****   return (result);
 138              		.loc 2 292 3 view .LVU22
 139              		.loc 2 292 3 is_stmt 0 view .LVU23
 140              		.thumb
 141              		.syntax unified
 142              	.LBE19:
 143              	.LBE18:
 144              	.LBB20:
 145              	.LBI20:
 293:../STM32Cube_FW_N6/Drivers/CMSIS/Include/cmsis_gcc.h **** }
 294:../STM32Cube_FW_N6/Drivers/CMSIS/Include/cmsis_gcc.h **** 
 295:../STM32Cube_FW_N6/Drivers/CMSIS/Include/cmsis_gcc.h **** 
 296:../STM32Cube_FW_N6/Drivers/CMSIS/Include/cmsis_gcc.h **** /**
 297:../STM32Cube_FW_N6/Drivers/CMSIS/Include/cmsis_gcc.h ****   \brief   Count leading zeros
 298:../STM32Cube_FW_N6/Drivers/CMSIS/Include/cmsis_gcc.h ****   \details Counts the number of leading zeros of a data value.
 299:../STM32Cube_FW_N6/Drivers/CMSIS/Include/cmsis_gcc.h ****   \param [in]  value  Value to count the leading zeros
 300:../STM32Cube_FW_N6/Drivers/CMSIS/Include/cmsis_gcc.h ****   \return             number of leading zeros in value
ARM GAS  /tmp/ccHKmbxS.s 			page 13


 301:../STM32Cube_FW_N6/Drivers/CMSIS/Include/cmsis_gcc.h ****  */
 302:../STM32Cube_FW_N6/Drivers/CMSIS/Include/cmsis_gcc.h **** __STATIC_FORCEINLINE uint8_t __CLZ(uint32_t value)
 146              		.loc 2 302 30 is_stmt 1 view .LVU24
 147              	.LBB21:
 303:../STM32Cube_FW_N6/Drivers/CMSIS/Include/cmsis_gcc.h **** {
 304:../STM32Cube_FW_N6/Drivers/CMSIS/Include/cmsis_gcc.h ****   /* Even though __builtin_clz produces a CLZ instruction on ARM, formally
 305:../STM32Cube_FW_N6/Drivers/CMSIS/Include/cmsis_gcc.h ****      __builtin_clz(0) is undefined behaviour, so handle this case specially.
 306:../STM32Cube_FW_N6/Drivers/CMSIS/Include/cmsis_gcc.h ****      This guarantees ARM-compatible results if happening to compile on a non-ARM
 307:../STM32Cube_FW_N6/Drivers/CMSIS/Include/cmsis_gcc.h ****      target, and ensures the compiler doesn't decide to activate any
 308:../STM32Cube_FW_N6/Drivers/CMSIS/Include/cmsis_gcc.h ****      optimisations using the logic "value was passed to __builtin_clz, so it
 309:../STM32Cube_FW_N6/Drivers/CMSIS/Include/cmsis_gcc.h ****      is non-zero".
 310:../STM32Cube_FW_N6/Drivers/CMSIS/Include/cmsis_gcc.h ****      ARM GCC 7.3 and possibly earlier will optimise this test away, leaving a
 311:../STM32Cube_FW_N6/Drivers/CMSIS/Include/cmsis_gcc.h ****      single CLZ instruction.
 312:../STM32Cube_FW_N6/Drivers/CMSIS/Include/cmsis_gcc.h ****    */
 313:../STM32Cube_FW_N6/Drivers/CMSIS/Include/cmsis_gcc.h ****   if (value == 0U)
 148              		.loc 2 313 3 view .LVU25
 314:../STM32Cube_FW_N6/Drivers/CMSIS/Include/cmsis_gcc.h ****   {
 315:../STM32Cube_FW_N6/Drivers/CMSIS/Include/cmsis_gcc.h ****     return 32U;
 316:../STM32Cube_FW_N6/Drivers/CMSIS/Include/cmsis_gcc.h ****   }
 317:../STM32Cube_FW_N6/Drivers/CMSIS/Include/cmsis_gcc.h ****   return __builtin_clz(value);
 149              		.loc 2 317 10 is_stmt 0 discriminator 1 view .LVU26
 150 0016 B4FA84F4 		clz	r4, r4
 151              	.LVL5:
 152              		.loc 2 317 10 discriminator 1 view .LVU27
 153              	.LBE21:
 154              	.LBE20:
 235:../STM32Cube_FW_N6/Drivers/STM32N6xx_HAL_Driver/Src/stm32n6xx_hal_rif.c ****   rimc_cr_reg = RIFSC->RIMC_CR;
 155              		.loc 1 235 3 is_stmt 1 view .LVU28
 156              		.loc 1 235 15 is_stmt 0 view .LVU29
 157 001a 0C4A     		ldr	r2, .L20
 158 001c D2F8003C 		ldr	r3, [r2, #3072]
 159              	.LVL6:
 236:../STM32Cube_FW_N6/Drivers/STM32N6xx_HAL_Driver/Src/stm32n6xx_hal_rif.c ****   rimc_cr_reg &= (~RIFSC_RIMC_CR_DAPCID);
 160              		.loc 1 236 3 is_stmt 1 view .LVU30
 161              		.loc 1 236 15 is_stmt 0 view .LVU31
 162 0020 23F4E063 		bic	r3, r3, #1792
 163              	.LVL7:
 237:../STM32Cube_FW_N6/Drivers/STM32N6xx_HAL_Driver/Src/stm32n6xx_hal_rif.c ****   rimc_cr_reg |= (dap_cid << RIFSC_RIMC_CR_DAPCID_Pos);
 164              		.loc 1 237 3 is_stmt 1 view .LVU32
 165              		.loc 1 237 15 is_stmt 0 view .LVU33
 166 0024 43EA0423 		orr	r3, r3, r4, lsl #8
 167              	.LVL8:
 238:../STM32Cube_FW_N6/Drivers/STM32N6xx_HAL_Driver/Src/stm32n6xx_hal_rif.c ****   RIFSC->RIMC_CR = rimc_cr_reg;
 168              		.loc 1 238 3 is_stmt 1 view .LVU34
 169              		.loc 1 238 18 is_stmt 0 view .LVU35
 170 0028 C2F8003C 		str	r3, [r2, #3072]
 239:../STM32Cube_FW_N6/Drivers/STM32N6xx_HAL_Driver/Src/stm32n6xx_hal_rif.c **** }
 171              		.loc 1 239 1 view .LVU36
 172 002c 10BD     		pop	{r4, pc}
 173              	.LVL9:
 174              	.L9:
 175              		.loc 1 239 1 view .LVU37
 176 002e 084B     		ldr	r3, .L20+4
 177 0030 021F     		subs	r2, r0, #4
 178 0032 D340     		lsrs	r3, r3, r2
 179 0034 DB07     		lsls	r3, r3, #31
 180 0036 ECD4     		bmi	.L11
ARM GAS  /tmp/ccHKmbxS.s 			page 14


 181              	.L10:
 231:../STM32Cube_FW_N6/Drivers/STM32N6xx_HAL_Driver/Src/stm32n6xx_hal_rif.c **** 
 182              		.loc 1 231 3 discriminator 7 view .LVU38
 183 0038 E721     		movs	r1, #231
 184 003a 0648     		ldr	r0, .L20+8
 185              	.LVL10:
 231:../STM32Cube_FW_N6/Drivers/STM32N6xx_HAL_Driver/Src/stm32n6xx_hal_rif.c **** 
 186              		.loc 1 231 3 discriminator 7 view .LVU39
 187 003c FFF7FEFF 		bl	assert_failed
 188              	.LVL11:
 189 0040 E7E7     		b	.L11
 190              	.LVL12:
 191              	.L8:
 231:../STM32Cube_FW_N6/Drivers/STM32N6xx_HAL_Driver/Src/stm32n6xx_hal_rif.c **** 
 192              		.loc 1 231 3 discriminator 7 view .LVU40
 193 0042 4028     		cmp	r0, #64
 194 0044 E5D0     		beq	.L11
 195 0046 8028     		cmp	r0, #128
 196 0048 F6D1     		bne	.L10
 197 004a E2E7     		b	.L11
 198              	.L21:
 199              		.align	2
 200              	.L20:
 201 004c 00400254 		.word	1409433600
 202 0050 11100010 		.word	268439569
 203 0054 00000000 		.word	.LC0
 204              		.cfi_endproc
 205              	.LFE883:
 207              		.section	.text.HAL_RIF_RIMC_GetDebugAccessPortCID,"ax",%progbits
 208              		.align	1
 209              		.global	HAL_RIF_RIMC_GetDebugAccessPortCID
 210              		.syntax unified
 211              		.thumb
 212              		.thumb_func
 214              	HAL_RIF_RIMC_GetDebugAccessPortCID:
 215              	.LFB884:
 240:../STM32Cube_FW_N6/Drivers/STM32N6xx_HAL_Driver/Src/stm32n6xx_hal_rif.c **** #endif /* defined(CPU_AS_TRUSTED_DOMAIN) && defined(CPU_IN_SECURE_STATE) */
 241:../STM32Cube_FW_N6/Drivers/STM32N6xx_HAL_Driver/Src/stm32n6xx_hal_rif.c **** 
 242:../STM32Cube_FW_N6/Drivers/STM32N6xx_HAL_Driver/Src/stm32n6xx_hal_rif.c **** /**
 243:../STM32Cube_FW_N6/Drivers/STM32N6xx_HAL_Driver/Src/stm32n6xx_hal_rif.c ****   * @brief  Get the Debugger Access Port ID
 244:../STM32Cube_FW_N6/Drivers/STM32N6xx_HAL_Driver/Src/stm32n6xx_hal_rif.c ****   * @retval Debugger Access Port ID
 245:../STM32Cube_FW_N6/Drivers/STM32N6xx_HAL_Driver/Src/stm32n6xx_hal_rif.c ****   */
 246:../STM32Cube_FW_N6/Drivers/STM32N6xx_HAL_Driver/Src/stm32n6xx_hal_rif.c **** uint32_t HAL_RIF_RIMC_GetDebugAccessPortCID(void)
 247:../STM32Cube_FW_N6/Drivers/STM32N6xx_HAL_Driver/Src/stm32n6xx_hal_rif.c **** {
 216              		.loc 1 247 1 is_stmt 1 view -0
 217              		.cfi_startproc
 218              		@ args = 0, pretend = 0, frame = 0
 219              		@ frame_needed = 0, uses_anonymous_args = 0
 220              		@ link register save eliminated.
 248:../STM32Cube_FW_N6/Drivers/STM32N6xx_HAL_Driver/Src/stm32n6xx_hal_rif.c ****   uint32_t dap_cid;
 221              		.loc 1 248 3 view .LVU42
 249:../STM32Cube_FW_N6/Drivers/STM32N6xx_HAL_Driver/Src/stm32n6xx_hal_rif.c **** 
 250:../STM32Cube_FW_N6/Drivers/STM32N6xx_HAL_Driver/Src/stm32n6xx_hal_rif.c ****   /* Read Debug Access Port CID bits */
 251:../STM32Cube_FW_N6/Drivers/STM32N6xx_HAL_Driver/Src/stm32n6xx_hal_rif.c ****   dap_cid = (RIFSC->RIMC_CR & RIFSC_RIMC_CR_DAPCID) >> RIFSC_RIMC_CR_DAPCID_Pos;
 222              		.loc 1 251 3 view .LVU43
 252:../STM32Cube_FW_N6/Drivers/STM32N6xx_HAL_Driver/Src/stm32n6xx_hal_rif.c ****   dap_cid = (1UL << dap_cid);
 253:../STM32Cube_FW_N6/Drivers/STM32N6xx_HAL_Driver/Src/stm32n6xx_hal_rif.c ****   return dap_cid;
ARM GAS  /tmp/ccHKmbxS.s 			page 15


 254:../STM32Cube_FW_N6/Drivers/STM32N6xx_HAL_Driver/Src/stm32n6xx_hal_rif.c **** }
 223              		.loc 1 254 1 is_stmt 0 view .LVU44
 224 0000 0120     		movs	r0, #1
 251:../STM32Cube_FW_N6/Drivers/STM32N6xx_HAL_Driver/Src/stm32n6xx_hal_rif.c ****   dap_cid = (1UL << dap_cid);
 225              		.loc 1 251 19 view .LVU45
 226 0002 034B     		ldr	r3, .L23
 227 0004 D3F8003C 		ldr	r3, [r3, #3072]
 251:../STM32Cube_FW_N6/Drivers/STM32N6xx_HAL_Driver/Src/stm32n6xx_hal_rif.c ****   dap_cid = (1UL << dap_cid);
 228              		.loc 1 251 11 view .LVU46
 229 0008 C3F30223 		ubfx	r3, r3, #8, #3
 230              	.LVL13:
 252:../STM32Cube_FW_N6/Drivers/STM32N6xx_HAL_Driver/Src/stm32n6xx_hal_rif.c ****   dap_cid = (1UL << dap_cid);
 231              		.loc 1 252 3 is_stmt 1 view .LVU47
 253:../STM32Cube_FW_N6/Drivers/STM32N6xx_HAL_Driver/Src/stm32n6xx_hal_rif.c **** }
 232              		.loc 1 253 3 view .LVU48
 233              		.loc 1 254 1 is_stmt 0 view .LVU49
 234 000c 9840     		lsls	r0, r0, r3
 235              	.LVL14:
 236              		.loc 1 254 1 view .LVU50
 237 000e 7047     		bx	lr
 238              	.L24:
 239              		.align	2
 240              	.L23:
 241 0010 00400254 		.word	1409433600
 242              		.cfi_endproc
 243              	.LFE884:
 245              		.section	.text.HAL_RIF_RIMC_ConfigMasterAttributes,"ax",%progbits
 246              		.align	1
 247              		.global	HAL_RIF_RIMC_ConfigMasterAttributes
 248              		.syntax unified
 249              		.thumb
 250              		.thumb_func
 252              	HAL_RIF_RIMC_ConfigMasterAttributes:
 253              	.LVL15:
 254              	.LFB885:
 255:../STM32Cube_FW_N6/Drivers/STM32N6xx_HAL_Driver/Src/stm32n6xx_hal_rif.c **** 
 256:../STM32Cube_FW_N6/Drivers/STM32N6xx_HAL_Driver/Src/stm32n6xx_hal_rif.c **** #if defined(CPU_AS_TRUSTED_DOMAIN) && defined(CPU_IN_SECURE_STATE)
 257:../STM32Cube_FW_N6/Drivers/STM32N6xx_HAL_Driver/Src/stm32n6xx_hal_rif.c **** /**
 258:../STM32Cube_FW_N6/Drivers/STM32N6xx_HAL_Driver/Src/stm32n6xx_hal_rif.c ****   * @brief  Configure CID, Secure and Privilege attributes for the designated master.
 259:../STM32Cube_FW_N6/Drivers/STM32N6xx_HAL_Driver/Src/stm32n6xx_hal_rif.c ****   * @note   RIF_CID_7 is not an authorized value for the MasterCID field.
 260:../STM32Cube_FW_N6/Drivers/STM32N6xx_HAL_Driver/Src/stm32n6xx_hal_rif.c ****   * @note   This API is protected by the Trusted Domain compilation directive.
 261:../STM32Cube_FW_N6/Drivers/STM32N6xx_HAL_Driver/Src/stm32n6xx_hal_rif.c ****   * @note   This API is protected by the TrustZone Enabled compilation directive.
 262:../STM32Cube_FW_N6/Drivers/STM32N6xx_HAL_Driver/Src/stm32n6xx_hal_rif.c ****   * @param  MasterId specifies the index of the bus master.
 263:../STM32Cube_FW_N6/Drivers/STM32N6xx_HAL_Driver/Src/stm32n6xx_hal_rif.c ****   *         This parameter can be one of @ref RIF_MASTER_INDEX
 264:../STM32Cube_FW_N6/Drivers/STM32N6xx_HAL_Driver/Src/stm32n6xx_hal_rif.c ****   * @param  pConfig Pointer on Master Isolation configuration structure
 265:../STM32Cube_FW_N6/Drivers/STM32N6xx_HAL_Driver/Src/stm32n6xx_hal_rif.c ****   * @retval None
 266:../STM32Cube_FW_N6/Drivers/STM32N6xx_HAL_Driver/Src/stm32n6xx_hal_rif.c ****   */
 267:../STM32Cube_FW_N6/Drivers/STM32N6xx_HAL_Driver/Src/stm32n6xx_hal_rif.c **** void HAL_RIF_RIMC_ConfigMasterAttributes(uint32_t MasterId, const RIMC_MasterConfig_t *pConfig)
 268:../STM32Cube_FW_N6/Drivers/STM32N6xx_HAL_Driver/Src/stm32n6xx_hal_rif.c **** {
 255              		.loc 1 268 1 is_stmt 1 view -0
 256              		.cfi_startproc
 257              		@ args = 0, pretend = 0, frame = 0
 258              		@ frame_needed = 0, uses_anonymous_args = 0
 269:../STM32Cube_FW_N6/Drivers/STM32N6xx_HAL_Driver/Src/stm32n6xx_hal_rif.c ****   uint32_t master_cid;
 259              		.loc 1 269 3 view .LVU52
 270:../STM32Cube_FW_N6/Drivers/STM32N6xx_HAL_Driver/Src/stm32n6xx_hal_rif.c ****   uint32_t rimc_attr_val;
 260              		.loc 1 270 3 view .LVU53
ARM GAS  /tmp/ccHKmbxS.s 			page 16


 271:../STM32Cube_FW_N6/Drivers/STM32N6xx_HAL_Driver/Src/stm32n6xx_hal_rif.c **** 
 272:../STM32Cube_FW_N6/Drivers/STM32N6xx_HAL_Driver/Src/stm32n6xx_hal_rif.c ****   /* Check the parameter */
 273:../STM32Cube_FW_N6/Drivers/STM32N6xx_HAL_Driver/Src/stm32n6xx_hal_rif.c ****   assert_param(pConfig != (void *)NULL);
 261              		.loc 1 273 3 view .LVU54
 268:../STM32Cube_FW_N6/Drivers/STM32N6xx_HAL_Driver/Src/stm32n6xx_hal_rif.c ****   uint32_t master_cid;
 262              		.loc 1 268 1 is_stmt 0 view .LVU55
 263 0000 38B5     		push	{r3, r4, r5, lr}
 264              		.cfi_def_cfa_offset 16
 265              		.cfi_offset 3, -16
 266              		.cfi_offset 4, -12
 267              		.cfi_offset 5, -8
 268              		.cfi_offset 14, -4
 268:../STM32Cube_FW_N6/Drivers/STM32N6xx_HAL_Driver/Src/stm32n6xx_hal_rif.c ****   uint32_t master_cid;
 269              		.loc 1 268 1 view .LVU56
 270 0002 0446     		mov	r4, r0
 271              		.loc 1 273 3 view .LVU57
 272 0004 0D46     		mov	r5, r1
 273 0006 21B9     		cbnz	r1, .L26
 274              		.loc 1 273 3 discriminator 1 view .LVU58
 275 0008 40F21111 		movw	r1, #273
 276              	.LVL16:
 277              		.loc 1 273 3 discriminator 1 view .LVU59
 278 000c 2548     		ldr	r0, .L46
 279              	.LVL17:
 280              		.loc 1 273 3 discriminator 1 view .LVU60
 281 000e FFF7FEFF 		bl	assert_failed
 282              	.LVL18:
 283              	.L26:
 274:../STM32Cube_FW_N6/Drivers/STM32N6xx_HAL_Driver/Src/stm32n6xx_hal_rif.c ****   assert_param(IS_RIF_MASTER_INDEX(MasterId));
 284              		.loc 1 274 3 is_stmt 1 view .LVU61
 285 0012 0C2C     		cmp	r4, #12
 286 0014 04D9     		bls	.L27
 287              		.loc 1 274 3 is_stmt 0 discriminator 1 view .LVU62
 288 0016 4FF48971 		mov	r1, #274
 289 001a 2248     		ldr	r0, .L46
 290 001c FFF7FEFF 		bl	assert_failed
 291              	.LVL19:
 292              	.L27:
 275:../STM32Cube_FW_N6/Drivers/STM32N6xx_HAL_Driver/Src/stm32n6xx_hal_rif.c ****   assert_param(IS_RIF_SINGLE_CID(pConfig->MasterCID));
 293              		.loc 1 275 3 is_stmt 1 view .LVU63
 294 0020 2B68     		ldr	r3, [r5]
 295 0022 202B     		cmp	r3, #32
 296 0024 38D8     		bhi	.L28
 297 0026 032B     		cmp	r3, #3
 298 0028 2AD8     		bhi	.L29
 299 002a 013B     		subs	r3, r3, #1
 300 002c 012B     		cmp	r3, #1
 301 002e 2DD8     		bhi	.L30
 302              	.L31:
 276:../STM32Cube_FW_N6/Drivers/STM32N6xx_HAL_Driver/Src/stm32n6xx_hal_rif.c ****   assert_param(IS_RIF_MASTER_CID(pConfig->MasterCID));
 303              		.loc 1 276 3 view .LVU64
 304 0030 2B68     		ldr	r3, [r5]
 305 0032 802B     		cmp	r3, #128
 306 0034 01D0     		beq	.L32
 307              		.loc 1 276 3 is_stmt 0 discriminator 2 view .LVU65
 308 0036 FF2B     		cmp	r3, #255
 309 0038 04D9     		bls	.L33
ARM GAS  /tmp/ccHKmbxS.s 			page 17


 310              	.L32:
 311              		.loc 1 276 3 discriminator 3 view .LVU66
 312 003a 4FF48A71 		mov	r1, #276
 313 003e 1948     		ldr	r0, .L46
 314 0040 FFF7FEFF 		bl	assert_failed
 315              	.LVL20:
 316              	.L33:
 277:../STM32Cube_FW_N6/Drivers/STM32N6xx_HAL_Driver/Src/stm32n6xx_hal_rif.c ****   assert_param(IS_RIF_SEC_PRIV_ATTRIBUTE(pConfig->SecPriv));
 317              		.loc 1 277 3 is_stmt 1 view .LVU67
 318 0044 6B68     		ldr	r3, [r5, #4]
 319 0046 032B     		cmp	r3, #3
 320 0048 04D9     		bls	.L34
 321              		.loc 1 277 3 is_stmt 0 discriminator 1 view .LVU68
 322 004a 40F21511 		movw	r1, #277
 323 004e 1548     		ldr	r0, .L46
 324 0050 FFF7FEFF 		bl	assert_failed
 325              	.LVL21:
 326              	.L34:
 278:../STM32Cube_FW_N6/Drivers/STM32N6xx_HAL_Driver/Src/stm32n6xx_hal_rif.c **** 
 279:../STM32Cube_FW_N6/Drivers/STM32N6xx_HAL_Driver/Src/stm32n6xx_hal_rif.c ****   master_cid = POSITION_VAL(pConfig->MasterCID);
 327              		.loc 1 279 3 is_stmt 1 view .LVU69
 328              	.LBB22:
 329              	.LBI22:
 274:../STM32Cube_FW_N6/Drivers/CMSIS/Include/cmsis_gcc.h **** {
 330              		.loc 2 274 31 view .LVU70
 331              	.LBB23:
 276:../STM32Cube_FW_N6/Drivers/CMSIS/Include/cmsis_gcc.h **** 
 332              		.loc 2 276 3 view .LVU71
 279:../STM32Cube_FW_N6/Drivers/CMSIS/Include/cmsis_gcc.h **** #else
 333              		.loc 2 279 4 view .LVU72
 334 0054 2B68     		ldr	r3, [r5]
 335              		.syntax unified
 336              	@ 279 "../STM32Cube_FW_N6/Drivers/CMSIS/Include/cmsis_gcc.h" 1
 337 0056 93FAA3F3 		rbit r3, r3
 338              	@ 0 "" 2
 339              	.LVL22:
 292:../STM32Cube_FW_N6/Drivers/CMSIS/Include/cmsis_gcc.h **** }
 340              		.loc 2 292 3 view .LVU73
 292:../STM32Cube_FW_N6/Drivers/CMSIS/Include/cmsis_gcc.h **** }
 341              		.loc 2 292 3 is_stmt 0 view .LVU74
 342              		.thumb
 343              		.syntax unified
 344              	.LBE23:
 345              	.LBE22:
 346              	.LBB24:
 347              	.LBI24:
 302:../STM32Cube_FW_N6/Drivers/CMSIS/Include/cmsis_gcc.h **** {
 348              		.loc 2 302 30 is_stmt 1 view .LVU75
 349              	.LBB25:
 313:../STM32Cube_FW_N6/Drivers/CMSIS/Include/cmsis_gcc.h ****   {
 350              		.loc 2 313 3 view .LVU76
 351              		.loc 2 317 10 is_stmt 0 discriminator 1 view .LVU77
 352 005a B3FA83F2 		clz	r2, r3
 353              	.LVL23:
 354              		.loc 2 317 10 discriminator 1 view .LVU78
 355              	.LBE25:
 356              	.LBE24:
ARM GAS  /tmp/ccHKmbxS.s 			page 18


 280:../STM32Cube_FW_N6/Drivers/STM32N6xx_HAL_Driver/Src/stm32n6xx_hal_rif.c ****   rimc_attr_val = RIFSC->RIMC_ATTRx[MasterId];
 357              		.loc 1 280 3 is_stmt 1 view .LVU79
 358 005e A000     		lsls	r0, r4, #2
 359 0060 00F1A840 		add	r0, r0, #1409286144
 360 0064 00F51030 		add	r0, r0, #147456
 361              		.loc 1 280 17 is_stmt 0 view .LVU80
 362 0068 D0F8103C 		ldr	r3, [r0, #3088]
 363              	.LVL24:
 281:../STM32Cube_FW_N6/Drivers/STM32N6xx_HAL_Driver/Src/stm32n6xx_hal_rif.c ****   rimc_attr_val &= (~(RIFSC_RIMC_ATTRx_MCID | RIFSC_RIMC_ATTRx_MPRIV | RIFSC_RIMC_ATTRx_MSEC));
 364              		.loc 1 281 3 is_stmt 1 view .LVU81
 282:../STM32Cube_FW_N6/Drivers/STM32N6xx_HAL_Driver/Src/stm32n6xx_hal_rif.c ****   rimc_attr_val |= ((master_cid << RIFSC_RIMC_ATTRx_MCID_Pos) | (pConfig->SecPriv << RIFSC_RIMC_ATT
 365              		.loc 1 282 3 view .LVU82
 366              		.loc 1 282 83 is_stmt 0 view .LVU83
 367 006c 6968     		ldr	r1, [r5, #4]
 281:../STM32Cube_FW_N6/Drivers/STM32N6xx_HAL_Driver/Src/stm32n6xx_hal_rif.c ****   rimc_attr_val &= (~(RIFSC_RIMC_ATTRx_MCID | RIFSC_RIMC_ATTRx_MPRIV | RIFSC_RIMC_ATTRx_MSEC));
 368              		.loc 1 281 17 view .LVU84
 369 006e 23F45C73 		bic	r3, r3, #880
 370              	.LVL25:
 281:../STM32Cube_FW_N6/Drivers/STM32N6xx_HAL_Driver/Src/stm32n6xx_hal_rif.c ****   rimc_attr_val &= (~(RIFSC_RIMC_ATTRx_MCID | RIFSC_RIMC_ATTRx_MPRIV | RIFSC_RIMC_ATTRx_MSEC));
 371              		.loc 1 281 17 view .LVU85
 372 0072 43EA0123 		orr	r3, r3, r1, lsl #8
 373              	.LVL26:
 374              		.loc 1 282 17 view .LVU86
 375 0076 43EA0213 		orr	r3, r3, r2, lsl #4
 376              	.LVL27:
 283:../STM32Cube_FW_N6/Drivers/STM32N6xx_HAL_Driver/Src/stm32n6xx_hal_rif.c ****   RIFSC->RIMC_ATTRx[MasterId] = rimc_attr_val;
 377              		.loc 1 283 3 is_stmt 1 view .LVU87
 378              		.loc 1 283 31 is_stmt 0 view .LVU88
 379 007a C0F8103C 		str	r3, [r0, #3088]
 284:../STM32Cube_FW_N6/Drivers/STM32N6xx_HAL_Driver/Src/stm32n6xx_hal_rif.c **** }
 380              		.loc 1 284 1 view .LVU89
 381 007e 38BD     		pop	{r3, r4, r5, pc}
 382              	.LVL28:
 383              	.L29:
 384              		.loc 1 284 1 view .LVU90
 385 0080 094A     		ldr	r2, .L46+4
 386 0082 043B     		subs	r3, r3, #4
 387 0084 22FA03F3 		lsr	r3, r2, r3
 388 0088 DB07     		lsls	r3, r3, #31
 389 008a D1D4     		bmi	.L31
 390              	.L30:
 275:../STM32Cube_FW_N6/Drivers/STM32N6xx_HAL_Driver/Src/stm32n6xx_hal_rif.c ****   assert_param(IS_RIF_MASTER_CID(pConfig->MasterCID));
 391              		.loc 1 275 3 discriminator 7 view .LVU91
 392 008c 40F21311 		movw	r1, #275
 393 0090 0448     		ldr	r0, .L46
 394 0092 FFF7FEFF 		bl	assert_failed
 395              	.LVL29:
 396 0096 CBE7     		b	.L31
 397              	.L28:
 398 0098 402B     		cmp	r3, #64
 399 009a C9D0     		beq	.L31
 400 009c 802B     		cmp	r3, #128
 401 009e F5D1     		bne	.L30
 402 00a0 C6E7     		b	.L31
 403              	.L47:
 404 00a2 00BF     		.align	2
 405              	.L46:
ARM GAS  /tmp/ccHKmbxS.s 			page 19


 406 00a4 00000000 		.word	.LC0
 407 00a8 11100010 		.word	268439569
 408              		.cfi_endproc
 409              	.LFE885:
 411              		.section	.text.HAL_RIF_RIMC_GetConfigMasterAttributes,"ax",%progbits
 412              		.align	1
 413              		.global	HAL_RIF_RIMC_GetConfigMasterAttributes
 414              		.syntax unified
 415              		.thumb
 416              		.thumb_func
 418              	HAL_RIF_RIMC_GetConfigMasterAttributes:
 419              	.LVL30:
 420              	.LFB886:
 285:../STM32Cube_FW_N6/Drivers/STM32N6xx_HAL_Driver/Src/stm32n6xx_hal_rif.c **** #endif /* defined(CPU_AS_TRUSTED_DOMAIN) && defined(CPU_IN_SECURE_STATE) */
 286:../STM32Cube_FW_N6/Drivers/STM32N6xx_HAL_Driver/Src/stm32n6xx_hal_rif.c **** 
 287:../STM32Cube_FW_N6/Drivers/STM32N6xx_HAL_Driver/Src/stm32n6xx_hal_rif.c **** /**
 288:../STM32Cube_FW_N6/Drivers/STM32N6xx_HAL_Driver/Src/stm32n6xx_hal_rif.c ****   * @brief  Get the CID, Secure and Privilege attributes for the designated master.
 289:../STM32Cube_FW_N6/Drivers/STM32N6xx_HAL_Driver/Src/stm32n6xx_hal_rif.c ****   * @note   This API is protected by the Trusted Domain compilation directive.
 290:../STM32Cube_FW_N6/Drivers/STM32N6xx_HAL_Driver/Src/stm32n6xx_hal_rif.c ****   * @param  MasterId specifies the index of the bus master.
 291:../STM32Cube_FW_N6/Drivers/STM32N6xx_HAL_Driver/Src/stm32n6xx_hal_rif.c ****   *         This parameter can be one of @ref RIF_MASTER_INDEX
 292:../STM32Cube_FW_N6/Drivers/STM32N6xx_HAL_Driver/Src/stm32n6xx_hal_rif.c ****   * @param  pConfig Pointer on Master Isolation configuration structure
 293:../STM32Cube_FW_N6/Drivers/STM32N6xx_HAL_Driver/Src/stm32n6xx_hal_rif.c ****   * @retval None
 294:../STM32Cube_FW_N6/Drivers/STM32N6xx_HAL_Driver/Src/stm32n6xx_hal_rif.c ****   */
 295:../STM32Cube_FW_N6/Drivers/STM32N6xx_HAL_Driver/Src/stm32n6xx_hal_rif.c **** void HAL_RIF_RIMC_GetConfigMasterAttributes(uint32_t MasterId, RIMC_MasterConfig_t *pConfig)
 296:../STM32Cube_FW_N6/Drivers/STM32N6xx_HAL_Driver/Src/stm32n6xx_hal_rif.c **** {
 421              		.loc 1 296 1 is_stmt 1 view -0
 422              		.cfi_startproc
 423              		@ args = 0, pretend = 0, frame = 0
 424              		@ frame_needed = 0, uses_anonymous_args = 0
 297:../STM32Cube_FW_N6/Drivers/STM32N6xx_HAL_Driver/Src/stm32n6xx_hal_rif.c ****   uint32_t master_cid;
 425              		.loc 1 297 3 view .LVU93
 298:../STM32Cube_FW_N6/Drivers/STM32N6xx_HAL_Driver/Src/stm32n6xx_hal_rif.c ****   uint32_t rimc_attr_val;
 426              		.loc 1 298 3 view .LVU94
 299:../STM32Cube_FW_N6/Drivers/STM32N6xx_HAL_Driver/Src/stm32n6xx_hal_rif.c **** 
 300:../STM32Cube_FW_N6/Drivers/STM32N6xx_HAL_Driver/Src/stm32n6xx_hal_rif.c ****   /* Check the parameter */
 301:../STM32Cube_FW_N6/Drivers/STM32N6xx_HAL_Driver/Src/stm32n6xx_hal_rif.c ****   assert_param(pConfig != (void *)NULL);
 427              		.loc 1 301 3 view .LVU95
 296:../STM32Cube_FW_N6/Drivers/STM32N6xx_HAL_Driver/Src/stm32n6xx_hal_rif.c ****   uint32_t master_cid;
 428              		.loc 1 296 1 is_stmt 0 view .LVU96
 429 0000 38B5     		push	{r3, r4, r5, lr}
 430              		.cfi_def_cfa_offset 16
 431              		.cfi_offset 3, -16
 432              		.cfi_offset 4, -12
 433              		.cfi_offset 5, -8
 434              		.cfi_offset 14, -4
 296:../STM32Cube_FW_N6/Drivers/STM32N6xx_HAL_Driver/Src/stm32n6xx_hal_rif.c ****   uint32_t master_cid;
 435              		.loc 1 296 1 view .LVU97
 436 0002 0446     		mov	r4, r0
 437              		.loc 1 301 3 view .LVU98
 438 0004 0D46     		mov	r5, r1
 439 0006 21B9     		cbnz	r1, .L49
 440              		.loc 1 301 3 discriminator 1 view .LVU99
 441 0008 40F22D11 		movw	r1, #301
 442              	.LVL31:
 443              		.loc 1 301 3 discriminator 1 view .LVU100
 444 000c 0C48     		ldr	r0, .L51
 445              	.LVL32:
ARM GAS  /tmp/ccHKmbxS.s 			page 20


 446              		.loc 1 301 3 discriminator 1 view .LVU101
 447 000e FFF7FEFF 		bl	assert_failed
 448              	.LVL33:
 449              	.L49:
 302:../STM32Cube_FW_N6/Drivers/STM32N6xx_HAL_Driver/Src/stm32n6xx_hal_rif.c ****   assert_param(IS_RIF_MASTER_INDEX(MasterId));
 450              		.loc 1 302 3 is_stmt 1 view .LVU102
 451 0012 0C2C     		cmp	r4, #12
 452 0014 04D9     		bls	.L50
 453              		.loc 1 302 3 is_stmt 0 discriminator 1 view .LVU103
 454 0016 4FF49771 		mov	r1, #302
 455 001a 0948     		ldr	r0, .L51
 456 001c FFF7FEFF 		bl	assert_failed
 457              	.LVL34:
 458              	.L50:
 303:../STM32Cube_FW_N6/Drivers/STM32N6xx_HAL_Driver/Src/stm32n6xx_hal_rif.c **** 
 304:../STM32Cube_FW_N6/Drivers/STM32N6xx_HAL_Driver/Src/stm32n6xx_hal_rif.c ****   rimc_attr_val = RIFSC->RIMC_ATTRx[MasterId];
 459              		.loc 1 304 3 is_stmt 1 view .LVU104
 460              		.loc 1 304 17 is_stmt 0 view .LVU105
 461 0020 084B     		ldr	r3, .L51+4
 462 0022 04F54174 		add	r4, r4, #772
 463              	.LVL35:
 464              		.loc 1 304 17 view .LVU106
 465 0026 53F82430 		ldr	r3, [r3, r4, lsl #2]
 466              	.LVL36:
 305:../STM32Cube_FW_N6/Drivers/STM32N6xx_HAL_Driver/Src/stm32n6xx_hal_rif.c ****   pConfig->SecPriv = ((rimc_attr_val & (RIFSC_RIMC_ATTRx_MPRIV | RIFSC_RIMC_ATTRx_MSEC))
 467              		.loc 1 305 3 is_stmt 1 view .LVU107
 306:../STM32Cube_FW_N6/Drivers/STM32N6xx_HAL_Driver/Src/stm32n6xx_hal_rif.c ****                       >> RIFSC_RIMC_ATTRx_MSEC_Pos);
 468              		.loc 1 306 23 is_stmt 0 view .LVU108
 469 002a C3F30122 		ubfx	r2, r3, #8, #2
 305:../STM32Cube_FW_N6/Drivers/STM32N6xx_HAL_Driver/Src/stm32n6xx_hal_rif.c ****   pConfig->SecPriv = ((rimc_attr_val & (RIFSC_RIMC_ATTRx_MPRIV | RIFSC_RIMC_ATTRx_MSEC))
 470              		.loc 1 305 20 view .LVU109
 471 002e 6A60     		str	r2, [r5, #4]
 307:../STM32Cube_FW_N6/Drivers/STM32N6xx_HAL_Driver/Src/stm32n6xx_hal_rif.c ****   master_cid = ((rimc_attr_val & RIFSC_RIMC_ATTRx_MCID) >> RIFSC_RIMC_ATTRx_MCID_Pos);
 472              		.loc 1 307 3 is_stmt 1 view .LVU110
 473              	.LVL37:
 308:../STM32Cube_FW_N6/Drivers/STM32N6xx_HAL_Driver/Src/stm32n6xx_hal_rif.c ****   pConfig->MasterCID = (1UL << master_cid);
 474              		.loc 1 308 3 view .LVU111
 475              		.loc 1 308 29 is_stmt 0 view .LVU112
 476 0030 0122     		movs	r2, #1
 307:../STM32Cube_FW_N6/Drivers/STM32N6xx_HAL_Driver/Src/stm32n6xx_hal_rif.c ****   master_cid = ((rimc_attr_val & RIFSC_RIMC_ATTRx_MCID) >> RIFSC_RIMC_ATTRx_MCID_Pos);
 477              		.loc 1 307 14 view .LVU113
 478 0032 C3F30213 		ubfx	r3, r3, #4, #3
 479              	.LVL38:
 480              		.loc 1 308 29 view .LVU114
 481 0036 02FA03F3 		lsl	r3, r2, r3
 482              		.loc 1 308 22 view .LVU115
 483 003a 2B60     		str	r3, [r5]
 309:../STM32Cube_FW_N6/Drivers/STM32N6xx_HAL_Driver/Src/stm32n6xx_hal_rif.c **** }
 484              		.loc 1 309 1 view .LVU116
 485 003c 38BD     		pop	{r3, r4, r5, pc}
 486              	.LVL39:
 487              	.L52:
 488              		.loc 1 309 1 view .LVU117
 489 003e 00BF     		.align	2
 490              	.L51:
 491 0040 00000000 		.word	.LC0
 492 0044 00400254 		.word	1409433600
ARM GAS  /tmp/ccHKmbxS.s 			page 21


 493              		.cfi_endproc
 494              	.LFE886:
 496              		.section	.text.HAL_RIF_RISC_Lock,"ax",%progbits
 497              		.align	1
 498              		.global	HAL_RIF_RISC_Lock
 499              		.syntax unified
 500              		.thumb
 501              		.thumb_func
 503              	HAL_RIF_RISC_Lock:
 504              	.LFB887:
 310:../STM32Cube_FW_N6/Drivers/STM32N6xx_HAL_Driver/Src/stm32n6xx_hal_rif.c **** /**
 311:../STM32Cube_FW_N6/Drivers/STM32N6xx_HAL_Driver/Src/stm32n6xx_hal_rif.c ****   * @}
 312:../STM32Cube_FW_N6/Drivers/STM32N6xx_HAL_Driver/Src/stm32n6xx_hal_rif.c ****   */
 313:../STM32Cube_FW_N6/Drivers/STM32N6xx_HAL_Driver/Src/stm32n6xx_hal_rif.c **** 
 314:../STM32Cube_FW_N6/Drivers/STM32N6xx_HAL_Driver/Src/stm32n6xx_hal_rif.c **** /** @defgroup RIF_Exported_Functions_Group2  RIFSC Configuration functions
 315:../STM32Cube_FW_N6/Drivers/STM32N6xx_HAL_Driver/Src/stm32n6xx_hal_rif.c ****   *  @brief    RIFSC Configuration functions
 316:../STM32Cube_FW_N6/Drivers/STM32N6xx_HAL_Driver/Src/stm32n6xx_hal_rif.c ****   *
 317:../STM32Cube_FW_N6/Drivers/STM32N6xx_HAL_Driver/Src/stm32n6xx_hal_rif.c **** @verbatim
 318:../STM32Cube_FW_N6/Drivers/STM32N6xx_HAL_Driver/Src/stm32n6xx_hal_rif.c ****   ==============================================================================
 319:../STM32Cube_FW_N6/Drivers/STM32N6xx_HAL_Driver/Src/stm32n6xx_hal_rif.c ****             ##### RIFSC Configuration functions #####
 320:../STM32Cube_FW_N6/Drivers/STM32N6xx_HAL_Driver/Src/stm32n6xx_hal_rif.c ****   ==============================================================================
 321:../STM32Cube_FW_N6/Drivers/STM32N6xx_HAL_Driver/Src/stm32n6xx_hal_rif.c ****   [..]
 322:../STM32Cube_FW_N6/Drivers/STM32N6xx_HAL_Driver/Src/stm32n6xx_hal_rif.c ****     This section provides functions allowing to configure RIFSC
 323:../STM32Cube_FW_N6/Drivers/STM32N6xx_HAL_Driver/Src/stm32n6xx_hal_rif.c ****     RIFSC is Resource Isolation Framework Secure Controller
 324:../STM32Cube_FW_N6/Drivers/STM32N6xx_HAL_Driver/Src/stm32n6xx_hal_rif.c **** @endverbatim
 325:../STM32Cube_FW_N6/Drivers/STM32N6xx_HAL_Driver/Src/stm32n6xx_hal_rif.c ****   * @{
 326:../STM32Cube_FW_N6/Drivers/STM32N6xx_HAL_Driver/Src/stm32n6xx_hal_rif.c ****   */
 327:../STM32Cube_FW_N6/Drivers/STM32N6xx_HAL_Driver/Src/stm32n6xx_hal_rif.c **** #if defined(CPU_AS_TRUSTED_DOMAIN) && defined(CPU_IN_SECURE_STATE)
 328:../STM32Cube_FW_N6/Drivers/STM32N6xx_HAL_Driver/Src/stm32n6xx_hal_rif.c **** /**
 329:../STM32Cube_FW_N6/Drivers/STM32N6xx_HAL_Driver/Src/stm32n6xx_hal_rif.c ****   * @brief  Lock overall configuration of RISC.
 330:../STM32Cube_FW_N6/Drivers/STM32N6xx_HAL_Driver/Src/stm32n6xx_hal_rif.c ****   * @note   Once set, the overall configuration of RIFSC cannot be modified
 331:../STM32Cube_FW_N6/Drivers/STM32N6xx_HAL_Driver/Src/stm32n6xx_hal_rif.c ****   *         upon next system reset.
 332:../STM32Cube_FW_N6/Drivers/STM32N6xx_HAL_Driver/Src/stm32n6xx_hal_rif.c ****   * @note   This API is protected by the Trusted Domain compilation directive.
 333:../STM32Cube_FW_N6/Drivers/STM32N6xx_HAL_Driver/Src/stm32n6xx_hal_rif.c ****   * @note   This API is protected by the TrustZone Enabled compilation directive.
 334:../STM32Cube_FW_N6/Drivers/STM32N6xx_HAL_Driver/Src/stm32n6xx_hal_rif.c ****   * @retval None
 335:../STM32Cube_FW_N6/Drivers/STM32N6xx_HAL_Driver/Src/stm32n6xx_hal_rif.c ****   */
 336:../STM32Cube_FW_N6/Drivers/STM32N6xx_HAL_Driver/Src/stm32n6xx_hal_rif.c **** void HAL_RIF_RISC_Lock(void)
 337:../STM32Cube_FW_N6/Drivers/STM32N6xx_HAL_Driver/Src/stm32n6xx_hal_rif.c **** {
 505              		.loc 1 337 1 is_stmt 1 view -0
 506              		.cfi_startproc
 507              		@ args = 0, pretend = 0, frame = 0
 508              		@ frame_needed = 0, uses_anonymous_args = 0
 509              		@ link register save eliminated.
 338:../STM32Cube_FW_N6/Drivers/STM32N6xx_HAL_Driver/Src/stm32n6xx_hal_rif.c ****   /* Set RISC Lock bit */
 339:../STM32Cube_FW_N6/Drivers/STM32N6xx_HAL_Driver/Src/stm32n6xx_hal_rif.c ****   RIFSC->RISC_CR |= RIFSC_RISC_CR_GLOCK;
 510              		.loc 1 339 3 view .LVU119
 511              		.loc 1 339 8 is_stmt 0 view .LVU120
 512 0000 024A     		ldr	r2, .L54
 513 0002 1368     		ldr	r3, [r2]
 514              		.loc 1 339 18 view .LVU121
 515 0004 43F00103 		orr	r3, r3, #1
 516 0008 1360     		str	r3, [r2]
 340:../STM32Cube_FW_N6/Drivers/STM32N6xx_HAL_Driver/Src/stm32n6xx_hal_rif.c **** }
 517              		.loc 1 340 1 view .LVU122
 518 000a 7047     		bx	lr
 519              	.L55:
 520              		.align	2
ARM GAS  /tmp/ccHKmbxS.s 			page 22


 521              	.L54:
 522 000c 00400254 		.word	1409433600
 523              		.cfi_endproc
 524              	.LFE887:
 526              		.section	.text.HAL_RIF_RISC_GetLock,"ax",%progbits
 527              		.align	1
 528              		.global	HAL_RIF_RISC_GetLock
 529              		.syntax unified
 530              		.thumb
 531              		.thumb_func
 533              	HAL_RIF_RISC_GetLock:
 534              	.LFB888:
 341:../STM32Cube_FW_N6/Drivers/STM32N6xx_HAL_Driver/Src/stm32n6xx_hal_rif.c **** #endif /* defined(CPU_AS_TRUSTED_DOMAIN) && defined(CPU_IN_SECURE_STATE) */
 342:../STM32Cube_FW_N6/Drivers/STM32N6xx_HAL_Driver/Src/stm32n6xx_hal_rif.c **** 
 343:../STM32Cube_FW_N6/Drivers/STM32N6xx_HAL_Driver/Src/stm32n6xx_hal_rif.c **** /**
 344:../STM32Cube_FW_N6/Drivers/STM32N6xx_HAL_Driver/Src/stm32n6xx_hal_rif.c ****   * @brief  Get the RIFSC global lock status.
 345:../STM32Cube_FW_N6/Drivers/STM32N6xx_HAL_Driver/Src/stm32n6xx_hal_rif.c ****   * @retval 1 if RISC configuration is locked, else 0
 346:../STM32Cube_FW_N6/Drivers/STM32N6xx_HAL_Driver/Src/stm32n6xx_hal_rif.c ****   */
 347:../STM32Cube_FW_N6/Drivers/STM32N6xx_HAL_Driver/Src/stm32n6xx_hal_rif.c **** uint32_t HAL_RIF_RISC_GetLock(void)
 348:../STM32Cube_FW_N6/Drivers/STM32N6xx_HAL_Driver/Src/stm32n6xx_hal_rif.c **** {
 535              		.loc 1 348 1 is_stmt 1 view -0
 536              		.cfi_startproc
 537              		@ args = 0, pretend = 0, frame = 0
 538              		@ frame_needed = 0, uses_anonymous_args = 0
 539              		@ link register save eliminated.
 349:../STM32Cube_FW_N6/Drivers/STM32N6xx_HAL_Driver/Src/stm32n6xx_hal_rif.c ****   uint32_t lock_status;
 540              		.loc 1 349 3 view .LVU124
 350:../STM32Cube_FW_N6/Drivers/STM32N6xx_HAL_Driver/Src/stm32n6xx_hal_rif.c **** 
 351:../STM32Cube_FW_N6/Drivers/STM32N6xx_HAL_Driver/Src/stm32n6xx_hal_rif.c ****   /* Read RISC lock bit */
 352:../STM32Cube_FW_N6/Drivers/STM32N6xx_HAL_Driver/Src/stm32n6xx_hal_rif.c ****   lock_status = (RIFSC->RISC_CR & RIF_LOCK_ENABLE);
 541              		.loc 1 352 3 view .LVU125
 542              		.loc 1 352 23 is_stmt 0 view .LVU126
 543 0000 024B     		ldr	r3, .L57
 544 0002 1868     		ldr	r0, [r3]
 545              	.LVL40:
 353:../STM32Cube_FW_N6/Drivers/STM32N6xx_HAL_Driver/Src/stm32n6xx_hal_rif.c **** 
 354:../STM32Cube_FW_N6/Drivers/STM32N6xx_HAL_Driver/Src/stm32n6xx_hal_rif.c ****   return lock_status;
 546              		.loc 1 354 3 is_stmt 1 view .LVU127
 355:../STM32Cube_FW_N6/Drivers/STM32N6xx_HAL_Driver/Src/stm32n6xx_hal_rif.c **** }
 547              		.loc 1 355 1 is_stmt 0 view .LVU128
 548 0004 00F00100 		and	r0, r0, #1
 549              	.LVL41:
 550              		.loc 1 355 1 view .LVU129
 551 0008 7047     		bx	lr
 552              	.L58:
 553 000a 00BF     		.align	2
 554              	.L57:
 555 000c 00400254 		.word	1409433600
 556              		.cfi_endproc
 557              	.LFE888:
 559              		.section	.text.HAL_RIF_RISC_SetSlaveSecureAttributes,"ax",%progbits
 560              		.align	1
 561              		.global	HAL_RIF_RISC_SetSlaveSecureAttributes
 562              		.syntax unified
 563              		.thumb
 564              		.thumb_func
 566              	HAL_RIF_RISC_SetSlaveSecureAttributes:
ARM GAS  /tmp/ccHKmbxS.s 			page 23


 567              	.LVL42:
 568              	.LFB889:
 356:../STM32Cube_FW_N6/Drivers/STM32N6xx_HAL_Driver/Src/stm32n6xx_hal_rif.c **** 
 357:../STM32Cube_FW_N6/Drivers/STM32N6xx_HAL_Driver/Src/stm32n6xx_hal_rif.c **** /**
 358:../STM32Cube_FW_N6/Drivers/STM32N6xx_HAL_Driver/Src/stm32n6xx_hal_rif.c ****   * @brief  Configure the Security and Privilege of a designated slave peripheral.
 359:../STM32Cube_FW_N6/Drivers/STM32N6xx_HAL_Driver/Src/stm32n6xx_hal_rif.c ****   * @param  PeriphId specifies the index of the bus slave.
 360:../STM32Cube_FW_N6/Drivers/STM32N6xx_HAL_Driver/Src/stm32n6xx_hal_rif.c ****   *         This parameter can be one of @ref RIF_PERIPHERAL_INDEX
 361:../STM32Cube_FW_N6/Drivers/STM32N6xx_HAL_Driver/Src/stm32n6xx_hal_rif.c ****   *         bits[31:28] define the register index a peripheral belongs to, value from 0 to 5
 362:../STM32Cube_FW_N6/Drivers/STM32N6xx_HAL_Driver/Src/stm32n6xx_hal_rif.c ****   *         bits[4:0]   define the bit position within the register, value from 0 to 31
 363:../STM32Cube_FW_N6/Drivers/STM32N6xx_HAL_Driver/Src/stm32n6xx_hal_rif.c ****   * @param  SecPriv specifies the security and privilege attributes of the peripheral.
 364:../STM32Cube_FW_N6/Drivers/STM32N6xx_HAL_Driver/Src/stm32n6xx_hal_rif.c ****   *         This parameter can be one or a combination of @ref RIF_SEC_PRIV
 365:../STM32Cube_FW_N6/Drivers/STM32N6xx_HAL_Driver/Src/stm32n6xx_hal_rif.c ****   * @retval None
 366:../STM32Cube_FW_N6/Drivers/STM32N6xx_HAL_Driver/Src/stm32n6xx_hal_rif.c ****   */
 367:../STM32Cube_FW_N6/Drivers/STM32N6xx_HAL_Driver/Src/stm32n6xx_hal_rif.c **** void HAL_RIF_RISC_SetSlaveSecureAttributes(uint32_t PeriphId, uint32_t SecPriv)
 368:../STM32Cube_FW_N6/Drivers/STM32N6xx_HAL_Driver/Src/stm32n6xx_hal_rif.c **** {
 569              		.loc 1 368 1 is_stmt 1 view -0
 570              		.cfi_startproc
 571              		@ args = 0, pretend = 0, frame = 8
 572              		@ frame_needed = 0, uses_anonymous_args = 0
 369:../STM32Cube_FW_N6/Drivers/STM32N6xx_HAL_Driver/Src/stm32n6xx_hal_rif.c ****   __IO uint32_t sec_reg_val;
 573              		.loc 1 369 3 view .LVU131
 370:../STM32Cube_FW_N6/Drivers/STM32N6xx_HAL_Driver/Src/stm32n6xx_hal_rif.c **** 
 371:../STM32Cube_FW_N6/Drivers/STM32N6xx_HAL_Driver/Src/stm32n6xx_hal_rif.c ****   assert_param(IS_RIF_RISC_PERIPH_INDEX(PeriphId) || IS_RIF_RCC_PERIPH_INDEX(PeriphId));
 574              		.loc 1 371 3 view .LVU132
 575 0000 384B     		ldr	r3, .L76
 368:../STM32Cube_FW_N6/Drivers/STM32N6xx_HAL_Driver/Src/stm32n6xx_hal_rif.c ****   __IO uint32_t sec_reg_val;
 576              		.loc 1 368 1 is_stmt 0 view .LVU133
 577 0002 37B5     		push	{r0, r1, r2, r4, r5, lr}
 578              		.cfi_def_cfa_offset 24
 579              		.cfi_offset 4, -12
 580              		.cfi_offset 5, -8
 581              		.cfi_offset 14, -4
 582 0004 9842     		cmp	r0, r3
 368:../STM32Cube_FW_N6/Drivers/STM32N6xx_HAL_Driver/Src/stm32n6xx_hal_rif.c ****   __IO uint32_t sec_reg_val;
 583              		.loc 1 368 1 view .LVU134
 584 0006 0446     		mov	r4, r0
 585 0008 0D46     		mov	r5, r1
 586 000a 5CD8     		bhi	.L60
 587 000c 1E3B     		subs	r3, r3, #30
 588 000e 9842     		cmp	r0, r3
 589 0010 3BD8     		bhi	.L61
 590 0012 354B     		ldr	r3, .L76+4
 591 0014 9842     		cmp	r0, r3
 592 0016 4BD8     		bhi	.L62
 593 0018 B0F1005F 		cmp	r0, #536870912
 594 001c 3AD2     		bcs	.L63
 595 001e 334B     		ldr	r3, .L76+8
 596 0020 9842     		cmp	r0, r3
 597 0022 40D8     		bhi	.L64
 598 0024 C21F     		subs	r2, r0, #7
 599 0026 223B     		subs	r3, r3, #34
 600 0028 9A42     		cmp	r2, r3
 601 002a 37D9     		bls	.L71
 602              	.LVL43:
 603              	.L65:
 372:../STM32Cube_FW_N6/Drivers/STM32N6xx_HAL_Driver/Src/stm32n6xx_hal_rif.c ****   assert_param(IS_RIF_SEC_PRIV_ATTRIBUTE(SecPriv));
 604              		.loc 1 372 3 is_stmt 1 view .LVU135
ARM GAS  /tmp/ccHKmbxS.s 			page 24


 605 002c 032D     		cmp	r5, #3
 606 002e 04D9     		bls	.L70
 607              		.loc 1 372 3 is_stmt 0 discriminator 1 view .LVU136
 608 0030 4FF4BA71 		mov	r1, #372
 609 0034 2E48     		ldr	r0, .L76+12
 610 0036 FFF7FEFF 		bl	assert_failed
 611              	.LVL44:
 612              	.L70:
 373:../STM32Cube_FW_N6/Drivers/STM32N6xx_HAL_Driver/Src/stm32n6xx_hal_rif.c **** 
 374:../STM32Cube_FW_N6/Drivers/STM32N6xx_HAL_Driver/Src/stm32n6xx_hal_rif.c ****   sec_reg_val = RIFSC->RISC_SECCFGRx[PeriphId >> RIF_PERIPH_REG_SHIFT];
 613              		.loc 1 374 3 is_stmt 1 view .LVU137
 375:../STM32Cube_FW_N6/Drivers/STM32N6xx_HAL_Driver/Src/stm32n6xx_hal_rif.c ****   sec_reg_val &= (~(1UL << (PeriphId & RIF_PERIPH_BIT_POSITION)));
 614              		.loc 1 375 25 is_stmt 0 view .LVU138
 615 003a 0122     		movs	r2, #1
 374:../STM32Cube_FW_N6/Drivers/STM32N6xx_HAL_Driver/Src/stm32n6xx_hal_rif.c ****   sec_reg_val &= (~(1UL << (PeriphId & RIF_PERIPH_BIT_POSITION)));
 616              		.loc 1 374 47 view .LVU139
 617 003c 200F     		lsrs	r0, r4, #28
 618 003e 8000     		lsls	r0, r0, #2
 619 0040 00F1A840 		add	r0, r0, #1409286144
 620 0044 00F51030 		add	r0, r0, #147456
 374:../STM32Cube_FW_N6/Drivers/STM32N6xx_HAL_Driver/Src/stm32n6xx_hal_rif.c ****   sec_reg_val &= (~(1UL << (PeriphId & RIF_PERIPH_BIT_POSITION)));
 621              		.loc 1 374 37 view .LVU140
 622 0048 0369     		ldr	r3, [r0, #16]
 623              		.loc 1 375 38 view .LVU141
 624 004a 04F01F04 		and	r4, r4, #31
 625              	.LVL45:
 374:../STM32Cube_FW_N6/Drivers/STM32N6xx_HAL_Driver/Src/stm32n6xx_hal_rif.c ****   sec_reg_val &= (~(1UL << (PeriphId & RIF_PERIPH_BIT_POSITION)));
 626              		.loc 1 374 15 view .LVU142
 627 004e 0193     		str	r3, [sp, #4]
 628              		.loc 1 375 3 is_stmt 1 view .LVU143
 629              		.loc 1 375 15 is_stmt 0 view .LVU144
 630 0050 019B     		ldr	r3, [sp, #4]
 631              		.loc 1 375 25 view .LVU145
 632 0052 A240     		lsls	r2, r2, r4
 633              		.loc 1 375 15 view .LVU146
 634 0054 23EA0203 		bic	r3, r3, r2
 635 0058 0193     		str	r3, [sp, #4]
 376:../STM32Cube_FW_N6/Drivers/STM32N6xx_HAL_Driver/Src/stm32n6xx_hal_rif.c ****   sec_reg_val |= ((SecPriv & RIF_ATTRIBUTE_SEC) << (PeriphId & RIF_PERIPH_BIT_POSITION));
 636              		.loc 1 376 3 is_stmt 1 view .LVU147
 637              		.loc 1 376 15 is_stmt 0 view .LVU148
 638 005a 0199     		ldr	r1, [sp, #4]
 639              		.loc 1 376 28 view .LVU149
 640 005c 05F00103 		and	r3, r5, #1
 641              		.loc 1 376 49 view .LVU150
 642 0060 A340     		lsls	r3, r3, r4
 643              		.loc 1 376 15 view .LVU151
 644 0062 0B43     		orrs	r3, r3, r1
 645 0064 0193     		str	r3, [sp, #4]
 377:../STM32Cube_FW_N6/Drivers/STM32N6xx_HAL_Driver/Src/stm32n6xx_hal_rif.c ****   RIFSC->RISC_SECCFGRx[PeriphId >> RIF_PERIPH_REG_SHIFT] = sec_reg_val;
 646              		.loc 1 377 3 is_stmt 1 view .LVU152
 647              		.loc 1 377 58 is_stmt 0 view .LVU153
 648 0066 019B     		ldr	r3, [sp, #4]
 378:../STM32Cube_FW_N6/Drivers/STM32N6xx_HAL_Driver/Src/stm32n6xx_hal_rif.c **** 
 379:../STM32Cube_FW_N6/Drivers/STM32N6xx_HAL_Driver/Src/stm32n6xx_hal_rif.c ****   sec_reg_val = RIFSC->RISC_PRIVCFGRx[PeriphId >> RIF_PERIPH_REG_SHIFT];
 380:../STM32Cube_FW_N6/Drivers/STM32N6xx_HAL_Driver/Src/stm32n6xx_hal_rif.c ****   sec_reg_val &= (~(1UL << (PeriphId & RIF_PERIPH_BIT_POSITION)));
 381:../STM32Cube_FW_N6/Drivers/STM32N6xx_HAL_Driver/Src/stm32n6xx_hal_rif.c ****   sec_reg_val |= (((SecPriv & RIF_ATTRIBUTE_PRIV) >> 1U) << (PeriphId & RIF_PERIPH_BIT_POSITION));
 649              		.loc 1 381 51 view .LVU154
ARM GAS  /tmp/ccHKmbxS.s 			page 25


 650 0068 C5F34001 		ubfx	r1, r5, #1, #1
 377:../STM32Cube_FW_N6/Drivers/STM32N6xx_HAL_Driver/Src/stm32n6xx_hal_rif.c ****   RIFSC->RISC_SECCFGRx[PeriphId >> RIF_PERIPH_REG_SHIFT] = sec_reg_val;
 651              		.loc 1 377 58 view .LVU155
 652 006c 0361     		str	r3, [r0, #16]
 379:../STM32Cube_FW_N6/Drivers/STM32N6xx_HAL_Driver/Src/stm32n6xx_hal_rif.c ****   sec_reg_val &= (~(1UL << (PeriphId & RIF_PERIPH_BIT_POSITION)));
 653              		.loc 1 379 3 is_stmt 1 view .LVU156
 379:../STM32Cube_FW_N6/Drivers/STM32N6xx_HAL_Driver/Src/stm32n6xx_hal_rif.c ****   sec_reg_val &= (~(1UL << (PeriphId & RIF_PERIPH_BIT_POSITION)));
 654              		.loc 1 379 38 is_stmt 0 view .LVU157
 655 006e 036B     		ldr	r3, [r0, #48]
 656              		.loc 1 381 58 view .LVU158
 657 0070 A140     		lsls	r1, r1, r4
 379:../STM32Cube_FW_N6/Drivers/STM32N6xx_HAL_Driver/Src/stm32n6xx_hal_rif.c ****   sec_reg_val &= (~(1UL << (PeriphId & RIF_PERIPH_BIT_POSITION)));
 658              		.loc 1 379 15 view .LVU159
 659 0072 0193     		str	r3, [sp, #4]
 380:../STM32Cube_FW_N6/Drivers/STM32N6xx_HAL_Driver/Src/stm32n6xx_hal_rif.c ****   sec_reg_val |= (((SecPriv & RIF_ATTRIBUTE_PRIV) >> 1U) << (PeriphId & RIF_PERIPH_BIT_POSITION));
 660              		.loc 1 380 3 is_stmt 1 view .LVU160
 380:../STM32Cube_FW_N6/Drivers/STM32N6xx_HAL_Driver/Src/stm32n6xx_hal_rif.c ****   sec_reg_val |= (((SecPriv & RIF_ATTRIBUTE_PRIV) >> 1U) << (PeriphId & RIF_PERIPH_BIT_POSITION));
 661              		.loc 1 380 15 is_stmt 0 view .LVU161
 662 0074 019B     		ldr	r3, [sp, #4]
 663 0076 23EA0203 		bic	r3, r3, r2
 664 007a 0193     		str	r3, [sp, #4]
 665              		.loc 1 381 3 is_stmt 1 view .LVU162
 666              		.loc 1 381 15 is_stmt 0 view .LVU163
 667 007c 019B     		ldr	r3, [sp, #4]
 668 007e 1943     		orrs	r1, r1, r3
 669 0080 0191     		str	r1, [sp, #4]
 382:../STM32Cube_FW_N6/Drivers/STM32N6xx_HAL_Driver/Src/stm32n6xx_hal_rif.c ****   RIFSC->RISC_PRIVCFGRx[PeriphId >> RIF_PERIPH_REG_SHIFT] = sec_reg_val;
 670              		.loc 1 382 3 is_stmt 1 view .LVU164
 671              		.loc 1 382 59 is_stmt 0 view .LVU165
 672 0082 019B     		ldr	r3, [sp, #4]
 673 0084 0363     		str	r3, [r0, #48]
 383:../STM32Cube_FW_N6/Drivers/STM32N6xx_HAL_Driver/Src/stm32n6xx_hal_rif.c **** }
 674              		.loc 1 383 1 view .LVU166
 675 0086 03B0     		add	sp, sp, #12
 676              		.cfi_remember_state
 677              		.cfi_def_cfa_offset 12
 678              		@ sp needed
 679 0088 30BD     		pop	{r4, r5, pc}
 680              	.LVL46:
 681              	.L61:
 682              		.cfi_restore_state
 683              		.loc 1 383 1 view .LVU167
 684 008a 00F14042 		add	r2, r0, #-1073741824
 685 008e 194B     		ldr	r3, .L76+16
 686 0090 023A     		subs	r2, r2, #2
 687 0092 1DE0     		b	.L72
 688              	.L63:
 689              		.loc 1 383 1 view .LVU168
 690 0094 184B     		ldr	r3, .L76+20
 691 0096 00F16042 		add	r2, r0, #-536870912
 692 009a 19E0     		b	.L72
 693              	.L71:
 694              		.loc 1 383 1 view .LVU169
 695 009c A0F10803 		sub	r3, r0, #8
 696 00a0 172B     		cmp	r3, #23
 697              	.L75:
 698              		.loc 1 383 1 view .LVU170
ARM GAS  /tmp/ccHKmbxS.s 			page 26


 699 00a2 C3D9     		bls	.L65
 700 00a4 17E0     		b	.L67
 701              	.L64:
 702 00a6 00F17043 		add	r3, r0, #-268435456
 703 00aa 1C3B     		subs	r3, r3, #28
 704 00ac 022B     		cmp	r3, #2
 705 00ae F8E7     		b	.L75
 706              	.L62:
 707              		.loc 1 383 1 view .LVU171
 708 00b0 124B     		ldr	r3, .L76+24
 709 00b2 9842     		cmp	r0, r3
 710 00b4 03D8     		bhi	.L68
 711 00b6 B0F1405F 		cmp	r0, #805306368
 712 00ba B7D2     		bcs	.L65
 713 00bc 0BE0     		b	.L67
 714              	.L68:
 715 00be 104B     		ldr	r3, .L76+28
 716 00c0 9842     		cmp	r0, r3
 717 00c2 B3D0     		beq	.L65
 718 00c4 07E0     		b	.L67
 719              	.L60:
 720              		.loc 1 383 1 view .LVU172
 721 00c6 00F13042 		add	r2, r0, #-1342177280
 722 00ca 1E2A     		cmp	r2, #30
 723 00cc 03D8     		bhi	.L67
 724 00ce 0D4B     		ldr	r3, .L76+32
 725              	.L72:
 726              		.loc 1 383 1 view .LVU173
 727 00d0 D340     		lsrs	r3, r3, r2
 728 00d2 DB07     		lsls	r3, r3, #31
 729 00d4 AAD4     		bmi	.L65
 730              	.L67:
 371:../STM32Cube_FW_N6/Drivers/STM32N6xx_HAL_Driver/Src/stm32n6xx_hal_rif.c ****   assert_param(IS_RIF_SEC_PRIV_ATTRIBUTE(SecPriv));
 731              		.loc 1 371 3 discriminator 122 view .LVU174
 732 00d6 40F27311 		movw	r1, #371
 733              	.LVL47:
 371:../STM32Cube_FW_N6/Drivers/STM32N6xx_HAL_Driver/Src/stm32n6xx_hal_rif.c ****   assert_param(IS_RIF_SEC_PRIV_ATTRIBUTE(SecPriv));
 734              		.loc 1 371 3 discriminator 122 view .LVU175
 735 00da 0548     		ldr	r0, .L76+12
 736              	.LVL48:
 371:../STM32Cube_FW_N6/Drivers/STM32N6xx_HAL_Driver/Src/stm32n6xx_hal_rif.c ****   assert_param(IS_RIF_SEC_PRIV_ATTRIBUTE(SecPriv));
 737              		.loc 1 371 3 discriminator 122 view .LVU176
 738 00dc FFF7FEFF 		bl	assert_failed
 739              	.LVL49:
 740 00e0 A4E7     		b	.L65
 741              	.L77:
 742 00e2 00BF     		.align	2
 743              	.L76:
 744 00e4 1F000040 		.word	1073741855
 745 00e8 1E000020 		.word	536870942
 746 00ec 1A000010 		.word	268435482
 747 00f0 00000000 		.word	.LC0
 748 00f4 0B8C832E 		.word	780373003
 749 00f8 3BF0DF77 		.word	2011164731
 750 00fc 08000030 		.word	805306376
 751 0100 0A000030 		.word	805306378
 752 0104 7FEFDE49 		.word	1239347071
ARM GAS  /tmp/ccHKmbxS.s 			page 27


 753              		.cfi_endproc
 754              	.LFE889:
 756              		.section	.text.HAL_RIF_RISC_GetSlaveSecureAttributes,"ax",%progbits
 757              		.align	1
 758              		.global	HAL_RIF_RISC_GetSlaveSecureAttributes
 759              		.syntax unified
 760              		.thumb
 761              		.thumb_func
 763              	HAL_RIF_RISC_GetSlaveSecureAttributes:
 764              	.LVL50:
 765              	.LFB890:
 384:../STM32Cube_FW_N6/Drivers/STM32N6xx_HAL_Driver/Src/stm32n6xx_hal_rif.c **** 
 385:../STM32Cube_FW_N6/Drivers/STM32N6xx_HAL_Driver/Src/stm32n6xx_hal_rif.c **** /**
 386:../STM32Cube_FW_N6/Drivers/STM32N6xx_HAL_Driver/Src/stm32n6xx_hal_rif.c ****   * @brief  Get the Security and Privilege configuration of a designated slave peripheral.
 387:../STM32Cube_FW_N6/Drivers/STM32N6xx_HAL_Driver/Src/stm32n6xx_hal_rif.c ****   * @param  PeriphId specifies the index of the bus slave.
 388:../STM32Cube_FW_N6/Drivers/STM32N6xx_HAL_Driver/Src/stm32n6xx_hal_rif.c ****   *         This parameter can be one of @ref RIF_PERIPHERAL_INDEX
 389:../STM32Cube_FW_N6/Drivers/STM32N6xx_HAL_Driver/Src/stm32n6xx_hal_rif.c ****   *         bits[31:28] define the register index a peripheral belongs to, value from 0 to 5
 390:../STM32Cube_FW_N6/Drivers/STM32N6xx_HAL_Driver/Src/stm32n6xx_hal_rif.c ****   *         bits[4:0]   define the bit position within the register, value from 0 to 31
 391:../STM32Cube_FW_N6/Drivers/STM32N6xx_HAL_Driver/Src/stm32n6xx_hal_rif.c ****   * @retval can be a combination of @ref RIF_SEC_PRIV
 392:../STM32Cube_FW_N6/Drivers/STM32N6xx_HAL_Driver/Src/stm32n6xx_hal_rif.c ****   */
 393:../STM32Cube_FW_N6/Drivers/STM32N6xx_HAL_Driver/Src/stm32n6xx_hal_rif.c **** uint32_t HAL_RIF_RISC_GetSlaveSecureAttributes(uint32_t PeriphId)
 394:../STM32Cube_FW_N6/Drivers/STM32N6xx_HAL_Driver/Src/stm32n6xx_hal_rif.c **** {
 766              		.loc 1 394 1 is_stmt 1 view -0
 767              		.cfi_startproc
 768              		@ args = 0, pretend = 0, frame = 0
 769              		@ frame_needed = 0, uses_anonymous_args = 0
 395:../STM32Cube_FW_N6/Drivers/STM32N6xx_HAL_Driver/Src/stm32n6xx_hal_rif.c ****   uint32_t sec_attr;
 770              		.loc 1 395 3 view .LVU178
 396:../STM32Cube_FW_N6/Drivers/STM32N6xx_HAL_Driver/Src/stm32n6xx_hal_rif.c ****   const __IO uint32_t *p_sec_reg;
 771              		.loc 1 396 3 view .LVU179
 397:../STM32Cube_FW_N6/Drivers/STM32N6xx_HAL_Driver/Src/stm32n6xx_hal_rif.c **** 
 398:../STM32Cube_FW_N6/Drivers/STM32N6xx_HAL_Driver/Src/stm32n6xx_hal_rif.c ****   assert_param(IS_RIF_RISC_PERIPH_INDEX(PeriphId) || IS_RIF_RCC_PERIPH_INDEX(PeriphId));
 772              		.loc 1 398 3 view .LVU180
 773 0000 294B     		ldr	r3, .L94
 394:../STM32Cube_FW_N6/Drivers/STM32N6xx_HAL_Driver/Src/stm32n6xx_hal_rif.c ****   uint32_t sec_attr;
 774              		.loc 1 394 1 is_stmt 0 view .LVU181
 775 0002 10B5     		push	{r4, lr}
 776              		.cfi_def_cfa_offset 8
 777              		.cfi_offset 4, -8
 778              		.cfi_offset 14, -4
 779 0004 9842     		cmp	r0, r3
 394:../STM32Cube_FW_N6/Drivers/STM32N6xx_HAL_Driver/Src/stm32n6xx_hal_rif.c ****   uint32_t sec_attr;
 780              		.loc 1 394 1 view .LVU182
 781 0006 0446     		mov	r4, r0
 782 0008 3FD8     		bhi	.L79
 783 000a 1E3B     		subs	r3, r3, #30
 784 000c 9842     		cmp	r0, r3
 785 000e 1ED8     		bhi	.L80
 786 0010 264B     		ldr	r3, .L94+4
 787 0012 9842     		cmp	r0, r3
 788 0014 2ED8     		bhi	.L81
 789 0016 B0F1005F 		cmp	r0, #536870912
 790 001a 1DD2     		bcs	.L82
 791 001c 244B     		ldr	r3, .L94+8
 792 001e 9842     		cmp	r0, r3
 793 0020 23D8     		bhi	.L83
 794 0022 C21F     		subs	r2, r0, #7
ARM GAS  /tmp/ccHKmbxS.s 			page 28


 795 0024 223B     		subs	r3, r3, #34
 796 0026 9A42     		cmp	r2, r3
 797 0028 1AD9     		bls	.L89
 798              	.LVL51:
 799              	.L84:
 399:../STM32Cube_FW_N6/Drivers/STM32N6xx_HAL_Driver/Src/stm32n6xx_hal_rif.c **** 
 400:../STM32Cube_FW_N6/Drivers/STM32N6xx_HAL_Driver/Src/stm32n6xx_hal_rif.c ****   p_sec_reg = &(RIFSC->RISC_SECCFGRx[PeriphId >> RIF_PERIPH_REG_SHIFT]);
 800              		.loc 1 400 3 is_stmt 1 view .LVU183
 801              		.loc 1 400 13 is_stmt 0 view .LVU184
 802 002a 224B     		ldr	r3, .L94+12
 803              		.loc 1 400 47 view .LVU185
 804 002c 220F     		lsrs	r2, r4, #28
 805              	.LVL52:
 401:../STM32Cube_FW_N6/Drivers/STM32N6xx_HAL_Driver/Src/stm32n6xx_hal_rif.c ****   sec_attr = ((*p_sec_reg & ((uint32_t)RIF_ATTRIBUTE_SEC << (PeriphId & RIF_PERIPH_BIT_POSITION))) 
 806              		.loc 1 401 3 is_stmt 1 view .LVU186
 807              		.loc 1 401 16 is_stmt 0 view .LVU187
 808 002e 53F82200 		ldr	r0, [r3, r2, lsl #2]
 809              		.loc 1 401 58 view .LVU188
 810 0032 0123     		movs	r3, #1
 811              	.LVL53:
 402:../STM32Cube_FW_N6/Drivers/STM32N6xx_HAL_Driver/Src/stm32n6xx_hal_rif.c **** 
 403:../STM32Cube_FW_N6/Drivers/STM32N6xx_HAL_Driver/Src/stm32n6xx_hal_rif.c ****   p_sec_reg = &(RIFSC->RISC_PRIVCFGRx[PeriphId >> RIF_PERIPH_REG_SHIFT]);
 812              		.loc 1 403 13 view .LVU189
 813 0034 2049     		ldr	r1, .L94+16
 401:../STM32Cube_FW_N6/Drivers/STM32N6xx_HAL_Driver/Src/stm32n6xx_hal_rif.c ****   sec_attr = ((*p_sec_reg & ((uint32_t)RIF_ATTRIBUTE_SEC << (PeriphId & RIF_PERIPH_BIT_POSITION))) 
 814              		.loc 1 401 71 view .LVU190
 815 0036 04F01F04 		and	r4, r4, #31
 816              	.LVL54:
 404:../STM32Cube_FW_N6/Drivers/STM32N6xx_HAL_Driver/Src/stm32n6xx_hal_rif.c ****   sec_attr |= (((*p_sec_reg & ((uint32_t)RIF_ATTRIBUTE_SEC << (PeriphId & RIF_PERIPH_BIT_POSITION))
 817              		.loc 1 404 18 view .LVU191
 818 003a 51F82220 		ldr	r2, [r1, r2, lsl #2]
 819              	.LVL55:
 401:../STM32Cube_FW_N6/Drivers/STM32N6xx_HAL_Driver/Src/stm32n6xx_hal_rif.c ****   sec_attr = ((*p_sec_reg & ((uint32_t)RIF_ATTRIBUTE_SEC << (PeriphId & RIF_PERIPH_BIT_POSITION))) 
 820              		.loc 1 401 58 view .LVU192
 821 003e A340     		lsls	r3, r3, r4
 401:../STM32Cube_FW_N6/Drivers/STM32N6xx_HAL_Driver/Src/stm32n6xx_hal_rif.c ****   sec_attr = ((*p_sec_reg & ((uint32_t)RIF_ATTRIBUTE_SEC << (PeriphId & RIF_PERIPH_BIT_POSITION))) 
 822              		.loc 1 401 27 view .LVU193
 823 0040 1840     		ands	r0, r0, r3
 824              		.loc 1 404 29 view .LVU194
 825 0042 1340     		ands	r3, r3, r2
 401:../STM32Cube_FW_N6/Drivers/STM32N6xx_HAL_Driver/Src/stm32n6xx_hal_rif.c ****   sec_attr = ((*p_sec_reg & ((uint32_t)RIF_ATTRIBUTE_SEC << (PeriphId & RIF_PERIPH_BIT_POSITION))) 
 826              		.loc 1 401 12 view .LVU195
 827 0044 E040     		lsrs	r0, r0, r4
 828              	.LVL56:
 403:../STM32Cube_FW_N6/Drivers/STM32N6xx_HAL_Driver/Src/stm32n6xx_hal_rif.c ****   sec_attr |= (((*p_sec_reg & ((uint32_t)RIF_ATTRIBUTE_SEC << (PeriphId & RIF_PERIPH_BIT_POSITION))
 829              		.loc 1 403 3 is_stmt 1 view .LVU196
 830              		.loc 1 404 3 view .LVU197
 405:../STM32Cube_FW_N6/Drivers/STM32N6xx_HAL_Driver/Src/stm32n6xx_hal_rif.c **** 
 406:../STM32Cube_FW_N6/Drivers/STM32N6xx_HAL_Driver/Src/stm32n6xx_hal_rif.c ****   return sec_attr;
 831              		.loc 1 406 3 view .LVU198
 404:../STM32Cube_FW_N6/Drivers/STM32N6xx_HAL_Driver/Src/stm32n6xx_hal_rif.c **** 
 832              		.loc 1 404 102 is_stmt 0 view .LVU199
 833 0046 E340     		lsrs	r3, r3, r4
 407:../STM32Cube_FW_N6/Drivers/STM32N6xx_HAL_Driver/Src/stm32n6xx_hal_rif.c **** }
 834              		.loc 1 407 1 view .LVU200
 835 0048 40EA4300 		orr	r0, r0, r3, lsl #1
 836 004c 10BD     		pop	{r4, pc}
ARM GAS  /tmp/ccHKmbxS.s 			page 29


 837              	.LVL57:
 838              	.L80:
 839              		.loc 1 407 1 view .LVU201
 840 004e 00F14042 		add	r2, r0, #-1073741824
 841 0052 1A4B     		ldr	r3, .L94+20
 842 0054 023A     		subs	r2, r2, #2
 843 0056 1DE0     		b	.L90
 844              	.L82:
 845              		.loc 1 407 1 view .LVU202
 846 0058 194B     		ldr	r3, .L94+24
 847 005a 00F16042 		add	r2, r0, #-536870912
 848 005e 19E0     		b	.L90
 849              	.L89:
 850              		.loc 1 407 1 view .LVU203
 851 0060 A0F10803 		sub	r3, r0, #8
 852 0064 172B     		cmp	r3, #23
 853              	.L93:
 854              		.loc 1 407 1 view .LVU204
 855 0066 E0D9     		bls	.L84
 856 0068 17E0     		b	.L86
 857              	.L83:
 858 006a 00F17043 		add	r3, r0, #-268435456
 859 006e 1C3B     		subs	r3, r3, #28
 860 0070 022B     		cmp	r3, #2
 861 0072 F8E7     		b	.L93
 862              	.L81:
 863              		.loc 1 407 1 view .LVU205
 864 0074 134B     		ldr	r3, .L94+28
 865 0076 9842     		cmp	r0, r3
 866 0078 03D8     		bhi	.L87
 867 007a B0F1405F 		cmp	r0, #805306368
 868 007e D4D2     		bcs	.L84
 869 0080 0BE0     		b	.L86
 870              	.L87:
 871 0082 114B     		ldr	r3, .L94+32
 872 0084 9842     		cmp	r0, r3
 873 0086 D0D0     		beq	.L84
 874 0088 07E0     		b	.L86
 875              	.L79:
 876              		.loc 1 407 1 view .LVU206
 877 008a 00F13042 		add	r2, r0, #-1342177280
 878 008e 1E2A     		cmp	r2, #30
 879 0090 03D8     		bhi	.L86
 880 0092 0E4B     		ldr	r3, .L94+36
 881              	.L90:
 882              		.loc 1 407 1 view .LVU207
 883 0094 D340     		lsrs	r3, r3, r2
 884 0096 DB07     		lsls	r3, r3, #31
 885 0098 C7D4     		bmi	.L84
 886              	.L86:
 398:../STM32Cube_FW_N6/Drivers/STM32N6xx_HAL_Driver/Src/stm32n6xx_hal_rif.c **** 
 887              		.loc 1 398 3 discriminator 122 view .LVU208
 888 009a 4FF4C771 		mov	r1, #398
 889 009e 0C48     		ldr	r0, .L94+40
 890              	.LVL58:
 398:../STM32Cube_FW_N6/Drivers/STM32N6xx_HAL_Driver/Src/stm32n6xx_hal_rif.c **** 
 891              		.loc 1 398 3 discriminator 122 view .LVU209
ARM GAS  /tmp/ccHKmbxS.s 			page 30


 892 00a0 FFF7FEFF 		bl	assert_failed
 893              	.LVL59:
 894 00a4 C1E7     		b	.L84
 895              	.L95:
 896 00a6 00BF     		.align	2
 897              	.L94:
 898 00a8 1F000040 		.word	1073741855
 899 00ac 1E000020 		.word	536870942
 900 00b0 1A000010 		.word	268435482
 901 00b4 10400254 		.word	1409433616
 902 00b8 30400254 		.word	1409433648
 903 00bc 0B8C832E 		.word	780373003
 904 00c0 3BF0DF77 		.word	2011164731
 905 00c4 08000030 		.word	805306376
 906 00c8 0A000030 		.word	805306378
 907 00cc 7FEFDE49 		.word	1239347071
 908 00d0 00000000 		.word	.LC0
 909              		.cfi_endproc
 910              	.LFE890:
 912              		.section	.text.HAL_RIF_RISC_SlaveConfigLock,"ax",%progbits
 913              		.align	1
 914              		.global	HAL_RIF_RISC_SlaveConfigLock
 915              		.syntax unified
 916              		.thumb
 917              		.thumb_func
 919              	HAL_RIF_RISC_SlaveConfigLock:
 920              	.LVL60:
 921              	.LFB891:
 408:../STM32Cube_FW_N6/Drivers/STM32N6xx_HAL_Driver/Src/stm32n6xx_hal_rif.c **** 
 409:../STM32Cube_FW_N6/Drivers/STM32N6xx_HAL_Driver/Src/stm32n6xx_hal_rif.c **** #if defined(CPU_AS_TRUSTED_DOMAIN)
 410:../STM32Cube_FW_N6/Drivers/STM32N6xx_HAL_Driver/Src/stm32n6xx_hal_rif.c **** /**
 411:../STM32Cube_FW_N6/Drivers/STM32N6xx_HAL_Driver/Src/stm32n6xx_hal_rif.c ****   * @brief  Lock the Isolation and Security configuration of the designated slave peripheral.
 412:../STM32Cube_FW_N6/Drivers/STM32N6xx_HAL_Driver/Src/stm32n6xx_hal_rif.c ****   * @note   This API is protected by the Trusted Domain compilation directive.
 413:../STM32Cube_FW_N6/Drivers/STM32N6xx_HAL_Driver/Src/stm32n6xx_hal_rif.c ****   * @param  PeriphId specifies the index of the bus slave.
 414:../STM32Cube_FW_N6/Drivers/STM32N6xx_HAL_Driver/Src/stm32n6xx_hal_rif.c ****   *         This parameter can be one of @ref RIF_PERIPHERAL_INDEX
 415:../STM32Cube_FW_N6/Drivers/STM32N6xx_HAL_Driver/Src/stm32n6xx_hal_rif.c ****   *         bits[31:28] define the register index a peripheral belongs to, value from 0 to 5
 416:../STM32Cube_FW_N6/Drivers/STM32N6xx_HAL_Driver/Src/stm32n6xx_hal_rif.c ****   *         bits[4:0]   define the bit position within the register, value from 0 to 31
 417:../STM32Cube_FW_N6/Drivers/STM32N6xx_HAL_Driver/Src/stm32n6xx_hal_rif.c ****   * @retval None
 418:../STM32Cube_FW_N6/Drivers/STM32N6xx_HAL_Driver/Src/stm32n6xx_hal_rif.c ****   */
 419:../STM32Cube_FW_N6/Drivers/STM32N6xx_HAL_Driver/Src/stm32n6xx_hal_rif.c **** void HAL_RIF_RISC_SlaveConfigLock(uint32_t PeriphId)
 420:../STM32Cube_FW_N6/Drivers/STM32N6xx_HAL_Driver/Src/stm32n6xx_hal_rif.c **** {
 922              		.loc 1 420 1 is_stmt 1 view -0
 923              		.cfi_startproc
 924              		@ args = 0, pretend = 0, frame = 0
 925              		@ frame_needed = 0, uses_anonymous_args = 0
 421:../STM32Cube_FW_N6/Drivers/STM32N6xx_HAL_Driver/Src/stm32n6xx_hal_rif.c ****   __IO uint32_t *p_lock_reg;
 926              		.loc 1 421 3 view .LVU211
 422:../STM32Cube_FW_N6/Drivers/STM32N6xx_HAL_Driver/Src/stm32n6xx_hal_rif.c **** 
 423:../STM32Cube_FW_N6/Drivers/STM32N6xx_HAL_Driver/Src/stm32n6xx_hal_rif.c ****   assert_param(IS_RIF_RISC_PERIPH_INDEX(PeriphId) || IS_RIF_RCC_PERIPH_INDEX(PeriphId));
 927              		.loc 1 423 3 view .LVU212
 928 0000 264B     		ldr	r3, .L112
 420:../STM32Cube_FW_N6/Drivers/STM32N6xx_HAL_Driver/Src/stm32n6xx_hal_rif.c ****   __IO uint32_t *p_lock_reg;
 929              		.loc 1 420 1 is_stmt 0 view .LVU213
 930 0002 10B5     		push	{r4, lr}
 931              		.cfi_def_cfa_offset 8
 932              		.cfi_offset 4, -8
 933              		.cfi_offset 14, -4
ARM GAS  /tmp/ccHKmbxS.s 			page 31


 934 0004 9842     		cmp	r0, r3
 420:../STM32Cube_FW_N6/Drivers/STM32N6xx_HAL_Driver/Src/stm32n6xx_hal_rif.c ****   __IO uint32_t *p_lock_reg;
 935              		.loc 1 420 1 view .LVU214
 936 0006 0446     		mov	r4, r0
 937 0008 39D8     		bhi	.L97
 938 000a 1E3B     		subs	r3, r3, #30
 939 000c 9842     		cmp	r0, r3
 940 000e 18D8     		bhi	.L98
 941 0010 234B     		ldr	r3, .L112+4
 942 0012 9842     		cmp	r0, r3
 943 0014 28D8     		bhi	.L99
 944 0016 B0F1005F 		cmp	r0, #536870912
 945 001a 17D2     		bcs	.L100
 946 001c 214B     		ldr	r3, .L112+8
 947 001e 9842     		cmp	r0, r3
 948 0020 1DD8     		bhi	.L101
 949 0022 C21F     		subs	r2, r0, #7
 950 0024 223B     		subs	r3, r3, #34
 951 0026 9A42     		cmp	r2, r3
 952 0028 14D9     		bls	.L107
 953              	.LVL61:
 954              	.L102:
 424:../STM32Cube_FW_N6/Drivers/STM32N6xx_HAL_Driver/Src/stm32n6xx_hal_rif.c **** 
 425:../STM32Cube_FW_N6/Drivers/STM32N6xx_HAL_Driver/Src/stm32n6xx_hal_rif.c ****   /* Set RISC Peripheral Lock bit */
 426:../STM32Cube_FW_N6/Drivers/STM32N6xx_HAL_Driver/Src/stm32n6xx_hal_rif.c ****   p_lock_reg = &(RIFSC->RISC_RCFGLOCKRx[PeriphId >> RIF_PERIPH_REG_SHIFT]);
 955              		.loc 1 426 3 is_stmt 1 view .LVU215
 427:../STM32Cube_FW_N6/Drivers/STM32N6xx_HAL_Driver/Src/stm32n6xx_hal_rif.c ****   *p_lock_reg |= (RIF_LOCK_ENABLE << (PeriphId & RIF_PERIPH_BIT_POSITION));
 956              		.loc 1 427 35 is_stmt 0 view .LVU216
 957 002a 0123     		movs	r3, #1
 426:../STM32Cube_FW_N6/Drivers/STM32N6xx_HAL_Driver/Src/stm32n6xx_hal_rif.c ****   *p_lock_reg |= (RIF_LOCK_ENABLE << (PeriphId & RIF_PERIPH_BIT_POSITION));
 958              		.loc 1 426 14 view .LVU217
 959 002c 1E4A     		ldr	r2, .L112+12
 426:../STM32Cube_FW_N6/Drivers/STM32N6xx_HAL_Driver/Src/stm32n6xx_hal_rif.c ****   *p_lock_reg |= (RIF_LOCK_ENABLE << (PeriphId & RIF_PERIPH_BIT_POSITION));
 960              		.loc 1 426 50 view .LVU218
 961 002e 210F     		lsrs	r1, r4, #28
 962              	.LVL62:
 963              		.loc 1 427 3 is_stmt 1 view .LVU219
 964 0030 52F82100 		ldr	r0, [r2, r1, lsl #2]
 965              		.loc 1 427 48 is_stmt 0 view .LVU220
 966 0034 04F01F04 		and	r4, r4, #31
 967              	.LVL63:
 968              		.loc 1 427 35 view .LVU221
 969 0038 A340     		lsls	r3, r3, r4
 970              		.loc 1 427 15 view .LVU222
 971 003a 0343     		orrs	r3, r3, r0
 972 003c 42F82130 		str	r3, [r2, r1, lsl #2]
 428:../STM32Cube_FW_N6/Drivers/STM32N6xx_HAL_Driver/Src/stm32n6xx_hal_rif.c **** }
 973              		.loc 1 428 1 view .LVU223
 974 0040 10BD     		pop	{r4, pc}
 975              	.LVL64:
 976              	.L98:
 977              		.loc 1 428 1 view .LVU224
 978 0042 00F14042 		add	r2, r0, #-1073741824
 979 0046 194B     		ldr	r3, .L112+16
 980 0048 023A     		subs	r2, r2, #2
 981 004a 1DE0     		b	.L108
 982              	.L100:
ARM GAS  /tmp/ccHKmbxS.s 			page 32


 983              		.loc 1 428 1 view .LVU225
 984 004c 184B     		ldr	r3, .L112+20
 985 004e 00F16042 		add	r2, r0, #-536870912
 986 0052 19E0     		b	.L108
 987              	.L107:
 988              		.loc 1 428 1 view .LVU226
 989 0054 A0F10803 		sub	r3, r0, #8
 990 0058 172B     		cmp	r3, #23
 991              	.L111:
 992              		.loc 1 428 1 view .LVU227
 993 005a E6D9     		bls	.L102
 994 005c 17E0     		b	.L104
 995              	.L101:
 996 005e 00F17043 		add	r3, r0, #-268435456
 997 0062 1C3B     		subs	r3, r3, #28
 998 0064 022B     		cmp	r3, #2
 999 0066 F8E7     		b	.L111
 1000              	.L99:
 1001              		.loc 1 428 1 view .LVU228
 1002 0068 124B     		ldr	r3, .L112+24
 1003 006a 9842     		cmp	r0, r3
 1004 006c 03D8     		bhi	.L105
 1005 006e B0F1405F 		cmp	r0, #805306368
 1006 0072 DAD2     		bcs	.L102
 1007 0074 0BE0     		b	.L104
 1008              	.L105:
 1009 0076 104B     		ldr	r3, .L112+28
 1010 0078 9842     		cmp	r0, r3
 1011 007a D6D0     		beq	.L102
 1012 007c 07E0     		b	.L104
 1013              	.L97:
 1014              		.loc 1 428 1 view .LVU229
 1015 007e 00F13042 		add	r2, r0, #-1342177280
 1016 0082 1E2A     		cmp	r2, #30
 1017 0084 03D8     		bhi	.L104
 1018 0086 0D4B     		ldr	r3, .L112+32
 1019              	.L108:
 1020              		.loc 1 428 1 view .LVU230
 1021 0088 D340     		lsrs	r3, r3, r2
 1022 008a DB07     		lsls	r3, r3, #31
 1023 008c CDD4     		bmi	.L102
 1024              	.L104:
 423:../STM32Cube_FW_N6/Drivers/STM32N6xx_HAL_Driver/Src/stm32n6xx_hal_rif.c **** 
 1025              		.loc 1 423 3 discriminator 122 view .LVU231
 1026 008e 40F2A711 		movw	r1, #423
 1027 0092 0B48     		ldr	r0, .L112+36
 1028              	.LVL65:
 423:../STM32Cube_FW_N6/Drivers/STM32N6xx_HAL_Driver/Src/stm32n6xx_hal_rif.c **** 
 1029              		.loc 1 423 3 discriminator 122 view .LVU232
 1030 0094 FFF7FEFF 		bl	assert_failed
 1031              	.LVL66:
 1032 0098 C7E7     		b	.L102
 1033              	.L113:
 1034 009a 00BF     		.align	2
 1035              	.L112:
 1036 009c 1F000040 		.word	1073741855
 1037 00a0 1E000020 		.word	536870942
ARM GAS  /tmp/ccHKmbxS.s 			page 33


 1038 00a4 1A000010 		.word	268435482
 1039 00a8 50400254 		.word	1409433680
 1040 00ac 0B8C832E 		.word	780373003
 1041 00b0 3BF0DF77 		.word	2011164731
 1042 00b4 08000030 		.word	805306376
 1043 00b8 0A000030 		.word	805306378
 1044 00bc 7FEFDE49 		.word	1239347071
 1045 00c0 00000000 		.word	.LC0
 1046              		.cfi_endproc
 1047              	.LFE891:
 1049              		.section	.text.HAL_RIF_RISC_GetSlaveConfigLock,"ax",%progbits
 1050              		.align	1
 1051              		.global	HAL_RIF_RISC_GetSlaveConfigLock
 1052              		.syntax unified
 1053              		.thumb
 1054              		.thumb_func
 1056              	HAL_RIF_RISC_GetSlaveConfigLock:
 1057              	.LVL67:
 1058              	.LFB892:
 429:../STM32Cube_FW_N6/Drivers/STM32N6xx_HAL_Driver/Src/stm32n6xx_hal_rif.c **** #endif /* defined(CPU_AS_TRUSTED_DOMAIN) */
 430:../STM32Cube_FW_N6/Drivers/STM32N6xx_HAL_Driver/Src/stm32n6xx_hal_rif.c **** 
 431:../STM32Cube_FW_N6/Drivers/STM32N6xx_HAL_Driver/Src/stm32n6xx_hal_rif.c **** /**
 432:../STM32Cube_FW_N6/Drivers/STM32N6xx_HAL_Driver/Src/stm32n6xx_hal_rif.c ****   * @brief  Get the Isolation and Security configuration lock status.
 433:../STM32Cube_FW_N6/Drivers/STM32N6xx_HAL_Driver/Src/stm32n6xx_hal_rif.c ****   * @param  PeriphId specifies the index of the bus slave.
 434:../STM32Cube_FW_N6/Drivers/STM32N6xx_HAL_Driver/Src/stm32n6xx_hal_rif.c ****   *         This parameter can be one of @ref RIF_PERIPHERAL_INDEX
 435:../STM32Cube_FW_N6/Drivers/STM32N6xx_HAL_Driver/Src/stm32n6xx_hal_rif.c ****   *         bits[31:28] define the register index a peripheral belongs to, value from 0 to 5
 436:../STM32Cube_FW_N6/Drivers/STM32N6xx_HAL_Driver/Src/stm32n6xx_hal_rif.c ****   *         bits[4:0]   define the bit position within the register, value from 0 to 31
 437:../STM32Cube_FW_N6/Drivers/STM32N6xx_HAL_Driver/Src/stm32n6xx_hal_rif.c ****   * @retval 1 if the Isolation and Security configuration is locked, else 0
 438:../STM32Cube_FW_N6/Drivers/STM32N6xx_HAL_Driver/Src/stm32n6xx_hal_rif.c ****   */
 439:../STM32Cube_FW_N6/Drivers/STM32N6xx_HAL_Driver/Src/stm32n6xx_hal_rif.c **** uint32_t HAL_RIF_RISC_GetSlaveConfigLock(uint32_t PeriphId)
 440:../STM32Cube_FW_N6/Drivers/STM32N6xx_HAL_Driver/Src/stm32n6xx_hal_rif.c **** {
 1059              		.loc 1 440 1 is_stmt 1 view -0
 1060              		.cfi_startproc
 1061              		@ args = 0, pretend = 0, frame = 0
 1062              		@ frame_needed = 0, uses_anonymous_args = 0
 441:../STM32Cube_FW_N6/Drivers/STM32N6xx_HAL_Driver/Src/stm32n6xx_hal_rif.c ****   uint32_t lock_status;
 1063              		.loc 1 441 3 view .LVU234
 442:../STM32Cube_FW_N6/Drivers/STM32N6xx_HAL_Driver/Src/stm32n6xx_hal_rif.c ****   const __IO uint32_t *p_lock_reg;
 1064              		.loc 1 442 3 view .LVU235
 443:../STM32Cube_FW_N6/Drivers/STM32N6xx_HAL_Driver/Src/stm32n6xx_hal_rif.c **** 
 444:../STM32Cube_FW_N6/Drivers/STM32N6xx_HAL_Driver/Src/stm32n6xx_hal_rif.c ****   assert_param(IS_RIF_RISC_PERIPH_INDEX(PeriphId) || IS_RIF_RCC_PERIPH_INDEX(PeriphId));
 1065              		.loc 1 444 3 view .LVU236
 1066 0000 254B     		ldr	r3, .L130
 440:../STM32Cube_FW_N6/Drivers/STM32N6xx_HAL_Driver/Src/stm32n6xx_hal_rif.c ****   uint32_t lock_status;
 1067              		.loc 1 440 1 is_stmt 0 view .LVU237
 1068 0002 10B5     		push	{r4, lr}
 1069              		.cfi_def_cfa_offset 8
 1070              		.cfi_offset 4, -8
 1071              		.cfi_offset 14, -4
 1072 0004 9842     		cmp	r0, r3
 440:../STM32Cube_FW_N6/Drivers/STM32N6xx_HAL_Driver/Src/stm32n6xx_hal_rif.c ****   uint32_t lock_status;
 1073              		.loc 1 440 1 view .LVU238
 1074 0006 0446     		mov	r4, r0
 1075 0008 38D8     		bhi	.L115
 1076 000a 1E3B     		subs	r3, r3, #30
 1077 000c 9842     		cmp	r0, r3
 1078 000e 17D8     		bhi	.L116
ARM GAS  /tmp/ccHKmbxS.s 			page 34


 1079 0010 224B     		ldr	r3, .L130+4
 1080 0012 9842     		cmp	r0, r3
 1081 0014 27D8     		bhi	.L117
 1082 0016 B0F1005F 		cmp	r0, #536870912
 1083 001a 16D2     		bcs	.L118
 1084 001c 204B     		ldr	r3, .L130+8
 1085 001e 9842     		cmp	r0, r3
 1086 0020 1CD8     		bhi	.L119
 1087 0022 C21F     		subs	r2, r0, #7
 1088 0024 223B     		subs	r3, r3, #34
 1089 0026 9A42     		cmp	r2, r3
 1090 0028 13D9     		bls	.L125
 1091              	.LVL68:
 1092              	.L120:
 445:../STM32Cube_FW_N6/Drivers/STM32N6xx_HAL_Driver/Src/stm32n6xx_hal_rif.c **** 
 446:../STM32Cube_FW_N6/Drivers/STM32N6xx_HAL_Driver/Src/stm32n6xx_hal_rif.c ****   p_lock_reg = &(RIFSC->RISC_RCFGLOCKRx[PeriphId >> RIF_PERIPH_REG_SHIFT]);
 1093              		.loc 1 446 3 is_stmt 1 view .LVU239
 447:../STM32Cube_FW_N6/Drivers/STM32N6xx_HAL_Driver/Src/stm32n6xx_hal_rif.c ****   lock_status = ((*p_lock_reg & (RIF_LOCK_ENABLE << (PeriphId & RIF_PERIPH_BIT_POSITION))) >> (Peri
 1094              		.loc 1 447 50 is_stmt 0 view .LVU240
 1095 002a 0120     		movs	r0, #1
 446:../STM32Cube_FW_N6/Drivers/STM32N6xx_HAL_Driver/Src/stm32n6xx_hal_rif.c ****   lock_status = ((*p_lock_reg & (RIF_LOCK_ENABLE << (PeriphId & RIF_PERIPH_BIT_POSITION))) >> (Peri
 1096              		.loc 1 446 14 view .LVU241
 1097 002c 1D4B     		ldr	r3, .L130+12
 446:../STM32Cube_FW_N6/Drivers/STM32N6xx_HAL_Driver/Src/stm32n6xx_hal_rif.c ****   lock_status = ((*p_lock_reg & (RIF_LOCK_ENABLE << (PeriphId & RIF_PERIPH_BIT_POSITION))) >> (Peri
 1098              		.loc 1 446 50 view .LVU242
 1099 002e 220F     		lsrs	r2, r4, #28
 1100              	.LVL69:
 1101              		.loc 1 447 3 is_stmt 1 view .LVU243
 1102              		.loc 1 447 19 is_stmt 0 view .LVU244
 1103 0030 53F82230 		ldr	r3, [r3, r2, lsl #2]
 1104              	.LVL70:
 1105              		.loc 1 447 63 view .LVU245
 1106 0034 04F01F04 		and	r4, r4, #31
 1107              	.LVL71:
 448:../STM32Cube_FW_N6/Drivers/STM32N6xx_HAL_Driver/Src/stm32n6xx_hal_rif.c **** 
 449:../STM32Cube_FW_N6/Drivers/STM32N6xx_HAL_Driver/Src/stm32n6xx_hal_rif.c ****   return lock_status;
 1108              		.loc 1 449 3 is_stmt 1 view .LVU246
 447:../STM32Cube_FW_N6/Drivers/STM32N6xx_HAL_Driver/Src/stm32n6xx_hal_rif.c **** 
 1109              		.loc 1 447 50 is_stmt 0 view .LVU247
 1110 0038 A040     		lsls	r0, r0, r4
 447:../STM32Cube_FW_N6/Drivers/STM32N6xx_HAL_Driver/Src/stm32n6xx_hal_rif.c **** 
 1111              		.loc 1 447 31 view .LVU248
 1112 003a 1840     		ands	r0, r0, r3
 450:../STM32Cube_FW_N6/Drivers/STM32N6xx_HAL_Driver/Src/stm32n6xx_hal_rif.c **** }
 1113              		.loc 1 450 1 view .LVU249
 1114 003c E040     		lsrs	r0, r0, r4
 1115              	.LVL72:
 1116              		.loc 1 450 1 view .LVU250
 1117 003e 10BD     		pop	{r4, pc}
 1118              	.LVL73:
 1119              	.L116:
 1120              		.loc 1 450 1 view .LVU251
 1121 0040 00F14042 		add	r2, r0, #-1073741824
 1122 0044 184B     		ldr	r3, .L130+16
 1123 0046 023A     		subs	r2, r2, #2
 1124 0048 1DE0     		b	.L126
 1125              	.L118:
ARM GAS  /tmp/ccHKmbxS.s 			page 35


 1126              		.loc 1 450 1 view .LVU252
 1127 004a 184B     		ldr	r3, .L130+20
 1128 004c 00F16042 		add	r2, r0, #-536870912
 1129 0050 19E0     		b	.L126
 1130              	.L125:
 1131              		.loc 1 450 1 view .LVU253
 1132 0052 A0F10803 		sub	r3, r0, #8
 1133 0056 172B     		cmp	r3, #23
 1134              	.L129:
 1135              		.loc 1 450 1 view .LVU254
 1136 0058 E7D9     		bls	.L120
 1137 005a 17E0     		b	.L122
 1138              	.L119:
 1139 005c 00F17043 		add	r3, r0, #-268435456
 1140 0060 1C3B     		subs	r3, r3, #28
 1141 0062 022B     		cmp	r3, #2
 1142 0064 F8E7     		b	.L129
 1143              	.L117:
 1144              		.loc 1 450 1 view .LVU255
 1145 0066 124B     		ldr	r3, .L130+24
 1146 0068 9842     		cmp	r0, r3
 1147 006a 03D8     		bhi	.L123
 1148 006c B0F1405F 		cmp	r0, #805306368
 1149 0070 DBD2     		bcs	.L120
 1150 0072 0BE0     		b	.L122
 1151              	.L123:
 1152 0074 0F4B     		ldr	r3, .L130+28
 1153 0076 9842     		cmp	r0, r3
 1154 0078 D7D0     		beq	.L120
 1155 007a 07E0     		b	.L122
 1156              	.L115:
 1157              		.loc 1 450 1 view .LVU256
 1158 007c 00F13042 		add	r2, r0, #-1342177280
 1159 0080 1E2A     		cmp	r2, #30
 1160 0082 03D8     		bhi	.L122
 1161 0084 0C4B     		ldr	r3, .L130+32
 1162              	.L126:
 1163              		.loc 1 450 1 view .LVU257
 1164 0086 D340     		lsrs	r3, r3, r2
 1165 0088 DB07     		lsls	r3, r3, #31
 1166 008a CED4     		bmi	.L120
 1167              	.L122:
 444:../STM32Cube_FW_N6/Drivers/STM32N6xx_HAL_Driver/Src/stm32n6xx_hal_rif.c **** 
 1168              		.loc 1 444 3 discriminator 122 view .LVU258
 1169 008c 4FF4DE71 		mov	r1, #444
 1170 0090 0A48     		ldr	r0, .L130+36
 1171              	.LVL74:
 444:../STM32Cube_FW_N6/Drivers/STM32N6xx_HAL_Driver/Src/stm32n6xx_hal_rif.c **** 
 1172              		.loc 1 444 3 discriminator 122 view .LVU259
 1173 0092 FFF7FEFF 		bl	assert_failed
 1174              	.LVL75:
 1175 0096 C8E7     		b	.L120
 1176              	.L131:
 1177              		.align	2
 1178              	.L130:
 1179 0098 1F000040 		.word	1073741855
 1180 009c 1E000020 		.word	536870942
ARM GAS  /tmp/ccHKmbxS.s 			page 36


 1181 00a0 1A000010 		.word	268435482
 1182 00a4 50400254 		.word	1409433680
 1183 00a8 0B8C832E 		.word	780373003
 1184 00ac 3BF0DF77 		.word	2011164731
 1185 00b0 08000030 		.word	805306376
 1186 00b4 0A000030 		.word	805306378
 1187 00b8 7FEFDE49 		.word	1239347071
 1188 00bc 00000000 		.word	.LC0
 1189              		.cfi_endproc
 1190              	.LFE892:
 1192              		.section	.text.HAL_RIF_RISAF_Lock,"ax",%progbits
 1193              		.align	1
 1194              		.global	HAL_RIF_RISAF_Lock
 1195              		.syntax unified
 1196              		.thumb
 1197              		.thumb_func
 1199              	HAL_RIF_RISAF_Lock:
 1200              	.LVL76:
 1201              	.LFB893:
 451:../STM32Cube_FW_N6/Drivers/STM32N6xx_HAL_Driver/Src/stm32n6xx_hal_rif.c **** 
 452:../STM32Cube_FW_N6/Drivers/STM32N6xx_HAL_Driver/Src/stm32n6xx_hal_rif.c **** /**
 453:../STM32Cube_FW_N6/Drivers/STM32N6xx_HAL_Driver/Src/stm32n6xx_hal_rif.c ****   * @}
 454:../STM32Cube_FW_N6/Drivers/STM32N6xx_HAL_Driver/Src/stm32n6xx_hal_rif.c ****   */
 455:../STM32Cube_FW_N6/Drivers/STM32N6xx_HAL_Driver/Src/stm32n6xx_hal_rif.c **** 
 456:../STM32Cube_FW_N6/Drivers/STM32N6xx_HAL_Driver/Src/stm32n6xx_hal_rif.c **** /** @defgroup RIF_Exported_Functions_Group4  RISAF Configuration functions
 457:../STM32Cube_FW_N6/Drivers/STM32N6xx_HAL_Driver/Src/stm32n6xx_hal_rif.c ****   *  @brief    RISAF Configuration functions
 458:../STM32Cube_FW_N6/Drivers/STM32N6xx_HAL_Driver/Src/stm32n6xx_hal_rif.c ****   *
 459:../STM32Cube_FW_N6/Drivers/STM32N6xx_HAL_Driver/Src/stm32n6xx_hal_rif.c **** @verbatim
 460:../STM32Cube_FW_N6/Drivers/STM32N6xx_HAL_Driver/Src/stm32n6xx_hal_rif.c ****   ==============================================================================
 461:../STM32Cube_FW_N6/Drivers/STM32N6xx_HAL_Driver/Src/stm32n6xx_hal_rif.c ****             ##### RISAF Configuration functions #####
 462:../STM32Cube_FW_N6/Drivers/STM32N6xx_HAL_Driver/Src/stm32n6xx_hal_rif.c ****   ==============================================================================
 463:../STM32Cube_FW_N6/Drivers/STM32N6xx_HAL_Driver/Src/stm32n6xx_hal_rif.c ****   [..]
 464:../STM32Cube_FW_N6/Drivers/STM32N6xx_HAL_Driver/Src/stm32n6xx_hal_rif.c ****     This section provides functions allowing to configure RISAF
 465:../STM32Cube_FW_N6/Drivers/STM32N6xx_HAL_Driver/Src/stm32n6xx_hal_rif.c ****     RISAL is Resource Isolation Slave unit for Address space protection (Full version)
 466:../STM32Cube_FW_N6/Drivers/STM32N6xx_HAL_Driver/Src/stm32n6xx_hal_rif.c **** @endverbatim
 467:../STM32Cube_FW_N6/Drivers/STM32N6xx_HAL_Driver/Src/stm32n6xx_hal_rif.c ****   * @{
 468:../STM32Cube_FW_N6/Drivers/STM32N6xx_HAL_Driver/Src/stm32n6xx_hal_rif.c ****   */
 469:../STM32Cube_FW_N6/Drivers/STM32N6xx_HAL_Driver/Src/stm32n6xx_hal_rif.c **** #if defined(CPU_AS_TRUSTED_DOMAIN)
 470:../STM32Cube_FW_N6/Drivers/STM32N6xx_HAL_Driver/Src/stm32n6xx_hal_rif.c **** /**
 471:../STM32Cube_FW_N6/Drivers/STM32N6xx_HAL_Driver/Src/stm32n6xx_hal_rif.c ****   * @brief  Lock overall configuration of RISAF.
 472:../STM32Cube_FW_N6/Drivers/STM32N6xx_HAL_Driver/Src/stm32n6xx_hal_rif.c ****   * @note   Once set, the overall configuration of RISAF cannot be modified
 473:../STM32Cube_FW_N6/Drivers/STM32N6xx_HAL_Driver/Src/stm32n6xx_hal_rif.c ****   *         upon next system reset.
 474:../STM32Cube_FW_N6/Drivers/STM32N6xx_HAL_Driver/Src/stm32n6xx_hal_rif.c ****   * @note   This API is protected by the Trusted Domain compilation directive.
 475:../STM32Cube_FW_N6/Drivers/STM32N6xx_HAL_Driver/Src/stm32n6xx_hal_rif.c ****   * @param  RISAFx specifies the RISAF instance.
 476:../STM32Cube_FW_N6/Drivers/STM32N6xx_HAL_Driver/Src/stm32n6xx_hal_rif.c ****   *         This parameter is one of the RISAF instances defined in the CMSIS.
 477:../STM32Cube_FW_N6/Drivers/STM32N6xx_HAL_Driver/Src/stm32n6xx_hal_rif.c ****   * @retval None
 478:../STM32Cube_FW_N6/Drivers/STM32N6xx_HAL_Driver/Src/stm32n6xx_hal_rif.c ****   */
 479:../STM32Cube_FW_N6/Drivers/STM32N6xx_HAL_Driver/Src/stm32n6xx_hal_rif.c **** void HAL_RIF_RISAF_Lock(RISAF_TypeDef *RISAFx)
 480:../STM32Cube_FW_N6/Drivers/STM32N6xx_HAL_Driver/Src/stm32n6xx_hal_rif.c **** {
 1202              		.loc 1 480 1 is_stmt 1 view -0
 1203              		.cfi_startproc
 1204              		@ args = 0, pretend = 0, frame = 0
 1205              		@ frame_needed = 0, uses_anonymous_args = 0
 481:../STM32Cube_FW_N6/Drivers/STM32N6xx_HAL_Driver/Src/stm32n6xx_hal_rif.c ****   /* Check the parameters */
 482:../STM32Cube_FW_N6/Drivers/STM32N6xx_HAL_Driver/Src/stm32n6xx_hal_rif.c ****   assert_param(IS_RISAF_INSTANCE(RISAFx));
 1206              		.loc 1 482 3 view .LVU261
 1207 0000 274B     		ldr	r3, .L134
ARM GAS  /tmp/ccHKmbxS.s 			page 37


 480:../STM32Cube_FW_N6/Drivers/STM32N6xx_HAL_Driver/Src/stm32n6xx_hal_rif.c ****   /* Check the parameters */
 1208              		.loc 1 480 1 is_stmt 0 view .LVU262
 1209 0002 10B5     		push	{r4, lr}
 1210              		.cfi_def_cfa_offset 8
 1211              		.cfi_offset 4, -8
 1212              		.cfi_offset 14, -4
 1213              		.loc 1 482 3 view .LVU263
 1214 0004 9842     		cmp	r0, r3
 480:../STM32Cube_FW_N6/Drivers/STM32N6xx_HAL_Driver/Src/stm32n6xx_hal_rif.c ****   /* Check the parameters */
 1215              		.loc 1 480 1 view .LVU264
 1216 0006 0446     		mov	r4, r0
 1217              		.loc 1 482 3 view .LVU265
 1218 0008 44D0     		beq	.L133
 1219              		.loc 1 482 3 discriminator 1 view .LVU266
 1220 000a 03F58053 		add	r3, r3, #4096
 1221 000e 9842     		cmp	r0, r3
 1222 0010 40D0     		beq	.L133
 1223              		.loc 1 482 3 discriminator 2 view .LVU267
 1224 0012 03F58053 		add	r3, r3, #4096
 1225 0016 9842     		cmp	r0, r3
 1226 0018 3CD0     		beq	.L133
 1227              		.loc 1 482 3 discriminator 3 view .LVU268
 1228 001a 03F58053 		add	r3, r3, #4096
 1229 001e 9842     		cmp	r0, r3
 1230 0020 38D0     		beq	.L133
 1231              		.loc 1 482 3 discriminator 4 view .LVU269
 1232 0022 03F58053 		add	r3, r3, #4096
 1233 0026 9842     		cmp	r0, r3
 1234 0028 34D0     		beq	.L133
 1235              		.loc 1 482 3 discriminator 5 view .LVU270
 1236 002a 03F58053 		add	r3, r3, #4096
 1237 002e 9842     		cmp	r0, r3
 1238 0030 30D0     		beq	.L133
 1239              		.loc 1 482 3 discriminator 6 view .LVU271
 1240 0032 03F58053 		add	r3, r3, #4096
 1241 0036 9842     		cmp	r0, r3
 1242 0038 2CD0     		beq	.L133
 1243              		.loc 1 482 3 discriminator 7 view .LVU272
 1244 003a 03F58053 		add	r3, r3, #4096
 1245 003e 9842     		cmp	r0, r3
 1246 0040 28D0     		beq	.L133
 1247              		.loc 1 482 3 discriminator 8 view .LVU273
 1248 0042 03F58053 		add	r3, r3, #4096
 1249 0046 9842     		cmp	r0, r3
 1250 0048 24D0     		beq	.L133
 1251              		.loc 1 482 3 discriminator 9 view .LVU274
 1252 004a 03F50053 		add	r3, r3, #8192
 1253 004e 9842     		cmp	r0, r3
 1254 0050 20D0     		beq	.L133
 1255              		.loc 1 482 3 discriminator 10 view .LVU275
 1256 0052 03F58053 		add	r3, r3, #4096
 1257 0056 9842     		cmp	r0, r3
 1258 0058 1CD0     		beq	.L133
 1259              		.loc 1 482 3 discriminator 11 view .LVU276
 1260 005a 03F58053 		add	r3, r3, #4096
 1261 005e 9842     		cmp	r0, r3
 1262 0060 18D0     		beq	.L133
ARM GAS  /tmp/ccHKmbxS.s 			page 38


 1263              		.loc 1 482 3 discriminator 12 view .LVU277
 1264 0062 03F58053 		add	r3, r3, #4096
 1265 0066 9842     		cmp	r0, r3
 1266 0068 14D0     		beq	.L133
 1267              		.loc 1 482 3 discriminator 13 view .LVU278
 1268 006a 03F58053 		add	r3, r3, #4096
 1269 006e 9842     		cmp	r0, r3
 1270 0070 10D0     		beq	.L133
 1271              		.loc 1 482 3 discriminator 14 view .LVU279
 1272 0072 03F58053 		add	r3, r3, #4096
 1273 0076 9842     		cmp	r0, r3
 1274 0078 0CD0     		beq	.L133
 1275              		.loc 1 482 3 discriminator 15 view .LVU280
 1276 007a 03F58053 		add	r3, r3, #4096
 1277 007e 9842     		cmp	r0, r3
 1278 0080 08D0     		beq	.L133
 1279              		.loc 1 482 3 discriminator 16 view .LVU281
 1280 0082 03F58053 		add	r3, r3, #4096
 1281 0086 9842     		cmp	r0, r3
 1282 0088 04D0     		beq	.L133
 1283              		.loc 1 482 3 discriminator 17 view .LVU282
 1284 008a 4FF4F171 		mov	r1, #482
 1285 008e 0548     		ldr	r0, .L134+4
 1286              	.LVL77:
 1287              		.loc 1 482 3 discriminator 17 view .LVU283
 1288 0090 FFF7FEFF 		bl	assert_failed
 1289              	.LVL78:
 1290              	.L133:
 483:../STM32Cube_FW_N6/Drivers/STM32N6xx_HAL_Driver/Src/stm32n6xx_hal_rif.c **** 
 484:../STM32Cube_FW_N6/Drivers/STM32N6xx_HAL_Driver/Src/stm32n6xx_hal_rif.c ****   /* Set RISAF Lock bit */
 485:../STM32Cube_FW_N6/Drivers/STM32N6xx_HAL_Driver/Src/stm32n6xx_hal_rif.c ****   RISAFx->CR |= RISAF_CR_GLOCK;
 1291              		.loc 1 485 3 is_stmt 1 view .LVU284
 1292              		.loc 1 485 9 is_stmt 0 view .LVU285
 1293 0094 2368     		ldr	r3, [r4]
 1294              		.loc 1 485 14 view .LVU286
 1295 0096 43F00103 		orr	r3, r3, #1
 1296 009a 2360     		str	r3, [r4]
 486:../STM32Cube_FW_N6/Drivers/STM32N6xx_HAL_Driver/Src/stm32n6xx_hal_rif.c **** }
 1297              		.loc 1 486 1 view .LVU287
 1298 009c 10BD     		pop	{r4, pc}
 1299              	.LVL79:
 1300              	.L135:
 1301              		.loc 1 486 1 view .LVU288
 1302 009e 00BF     		.align	2
 1303              	.L134:
 1304 00a0 00600254 		.word	1409441792
 1305 00a4 00000000 		.word	.LC0
 1306              		.cfi_endproc
 1307              	.LFE893:
 1309              		.section	.text.HAL_RIF_RISAF_GetLock,"ax",%progbits
 1310              		.align	1
 1311              		.global	HAL_RIF_RISAF_GetLock
 1312              		.syntax unified
 1313              		.thumb
 1314              		.thumb_func
 1316              	HAL_RIF_RISAF_GetLock:
 1317              	.LVL80:
ARM GAS  /tmp/ccHKmbxS.s 			page 39


 1318              	.LFB894:
 487:../STM32Cube_FW_N6/Drivers/STM32N6xx_HAL_Driver/Src/stm32n6xx_hal_rif.c **** #endif /* defined(CPU_AS_TRUSTED_DOMAIN) */
 488:../STM32Cube_FW_N6/Drivers/STM32N6xx_HAL_Driver/Src/stm32n6xx_hal_rif.c **** 
 489:../STM32Cube_FW_N6/Drivers/STM32N6xx_HAL_Driver/Src/stm32n6xx_hal_rif.c **** /**
 490:../STM32Cube_FW_N6/Drivers/STM32N6xx_HAL_Driver/Src/stm32n6xx_hal_rif.c ****   * @brief  Get RISAF global lock status.
 491:../STM32Cube_FW_N6/Drivers/STM32N6xx_HAL_Driver/Src/stm32n6xx_hal_rif.c ****   * @param  RISAFx specifies the RISAF instance.
 492:../STM32Cube_FW_N6/Drivers/STM32N6xx_HAL_Driver/Src/stm32n6xx_hal_rif.c ****   *         This parameter is one of the RISAF instances defined in the CMSIS.
 493:../STM32Cube_FW_N6/Drivers/STM32N6xx_HAL_Driver/Src/stm32n6xx_hal_rif.c ****   * @retval 1 if RISAF configuration is locked, else 0
 494:../STM32Cube_FW_N6/Drivers/STM32N6xx_HAL_Driver/Src/stm32n6xx_hal_rif.c ****   */
 495:../STM32Cube_FW_N6/Drivers/STM32N6xx_HAL_Driver/Src/stm32n6xx_hal_rif.c **** uint32_t HAL_RIF_RISAF_GetLock(const RISAF_TypeDef *RISAFx)
 496:../STM32Cube_FW_N6/Drivers/STM32N6xx_HAL_Driver/Src/stm32n6xx_hal_rif.c **** {
 1319              		.loc 1 496 1 is_stmt 1 view -0
 1320              		.cfi_startproc
 1321              		@ args = 0, pretend = 0, frame = 0
 1322              		@ frame_needed = 0, uses_anonymous_args = 0
 1323              		@ link register save eliminated.
 497:../STM32Cube_FW_N6/Drivers/STM32N6xx_HAL_Driver/Src/stm32n6xx_hal_rif.c ****   uint32_t lock_status;
 1324              		.loc 1 497 3 view .LVU290
 498:../STM32Cube_FW_N6/Drivers/STM32N6xx_HAL_Driver/Src/stm32n6xx_hal_rif.c **** 
 499:../STM32Cube_FW_N6/Drivers/STM32N6xx_HAL_Driver/Src/stm32n6xx_hal_rif.c ****   /* Read RIMC lock bit */
 500:../STM32Cube_FW_N6/Drivers/STM32N6xx_HAL_Driver/Src/stm32n6xx_hal_rif.c ****   lock_status = (RISAFx->CR & RIF_LOCK_ENABLE);
 1325              		.loc 1 500 3 view .LVU291
 1326              		.loc 1 500 24 is_stmt 0 view .LVU292
 1327 0000 0068     		ldr	r0, [r0]
 1328              	.LVL81:
 501:../STM32Cube_FW_N6/Drivers/STM32N6xx_HAL_Driver/Src/stm32n6xx_hal_rif.c **** 
 502:../STM32Cube_FW_N6/Drivers/STM32N6xx_HAL_Driver/Src/stm32n6xx_hal_rif.c ****   return lock_status;
 1329              		.loc 1 502 3 is_stmt 1 view .LVU293
 503:../STM32Cube_FW_N6/Drivers/STM32N6xx_HAL_Driver/Src/stm32n6xx_hal_rif.c **** }
 1330              		.loc 1 503 1 is_stmt 0 view .LVU294
 1331 0002 00F00100 		and	r0, r0, #1
 1332              	.LVL82:
 1333              		.loc 1 503 1 view .LVU295
 1334 0006 7047     		bx	lr
 1335              		.cfi_endproc
 1336              	.LFE894:
 1338              		.section	.text.HAL_RIF_RISAF_ConfigBaseRegion,"ax",%progbits
 1339              		.align	1
 1340              		.global	HAL_RIF_RISAF_ConfigBaseRegion
 1341              		.syntax unified
 1342              		.thumb
 1343              		.thumb_func
 1345              	HAL_RIF_RISAF_ConfigBaseRegion:
 1346              	.LVL83:
 1347              	.LFB895:
 504:../STM32Cube_FW_N6/Drivers/STM32N6xx_HAL_Driver/Src/stm32n6xx_hal_rif.c **** 
 505:../STM32Cube_FW_N6/Drivers/STM32N6xx_HAL_Driver/Src/stm32n6xx_hal_rif.c **** #if defined(GENERATOR_RIF_FEATURE_ENCRYPTION_IMPLEMENTED)
 506:../STM32Cube_FW_N6/Drivers/STM32N6xx_HAL_Driver/Src/stm32n6xx_hal_rif.c **** /**
 507:../STM32Cube_FW_N6/Drivers/STM32N6xx_HAL_Driver/Src/stm32n6xx_hal_rif.c ****   * @brief  Get encryption and key related flags.
 508:../STM32Cube_FW_N6/Drivers/STM32N6xx_HAL_Driver/Src/stm32n6xx_hal_rif.c ****   * @param  RISAFx specifies the RISAF instance.
 509:../STM32Cube_FW_N6/Drivers/STM32N6xx_HAL_Driver/Src/stm32n6xx_hal_rif.c ****   *         This parameter is one of the RISAF instances defined in the CMSIS.
 510:../STM32Cube_FW_N6/Drivers/STM32N6xx_HAL_Driver/Src/stm32n6xx_hal_rif.c ****   * @retval A combination of the three encryption related flags
 511:../STM32Cube_FW_N6/Drivers/STM32N6xx_HAL_Driver/Src/stm32n6xx_hal_rif.c ****   */
 512:../STM32Cube_FW_N6/Drivers/STM32N6xx_HAL_Driver/Src/stm32n6xx_hal_rif.c **** uint32_t HAL_RIF_RISAF_GetEncryptionStatus(RISAF_TypeDef *RISAFx)
 513:../STM32Cube_FW_N6/Drivers/STM32N6xx_HAL_Driver/Src/stm32n6xx_hal_rif.c **** {
 514:../STM32Cube_FW_N6/Drivers/STM32N6xx_HAL_Driver/Src/stm32n6xx_hal_rif.c ****   uint32_t tmp = 0;
 515:../STM32Cube_FW_N6/Drivers/STM32N6xx_HAL_Driver/Src/stm32n6xx_hal_rif.c **** 
ARM GAS  /tmp/ccHKmbxS.s 			page 40


 516:../STM32Cube_FW_N6/Drivers/STM32N6xx_HAL_Driver/Src/stm32n6xx_hal_rif.c ****   return tmp;
 517:../STM32Cube_FW_N6/Drivers/STM32N6xx_HAL_Driver/Src/stm32n6xx_hal_rif.c **** }
 518:../STM32Cube_FW_N6/Drivers/STM32N6xx_HAL_Driver/Src/stm32n6xx_hal_rif.c **** 
 519:../STM32Cube_FW_N6/Drivers/STM32N6xx_HAL_Driver/Src/stm32n6xx_hal_rif.c **** #if defined(CPU_AS_TRUSTED_DOMAIN)
 520:../STM32Cube_FW_N6/Drivers/STM32N6xx_HAL_Driver/Src/stm32n6xx_hal_rif.c **** /**
 521:../STM32Cube_FW_N6/Drivers/STM32N6xx_HAL_Driver/Src/stm32n6xx_hal_rif.c ****   * @brief  Write the encryption keys used by the DDRMCE.
 522:../STM32Cube_FW_N6/Drivers/STM32N6xx_HAL_Driver/Src/stm32n6xx_hal_rif.c ****   * @note   This API is protected by the Trusted Domain compilation directive.
 523:../STM32Cube_FW_N6/Drivers/STM32N6xx_HAL_Driver/Src/stm32n6xx_hal_rif.c ****   * @param  RISAFx specifies the RISAF instance.
 524:../STM32Cube_FW_N6/Drivers/STM32N6xx_HAL_Driver/Src/stm32n6xx_hal_rif.c ****   *         This parameter is one of the RISAF instances defined in the CMSIS.
 525:../STM32Cube_FW_N6/Drivers/STM32N6xx_HAL_Driver/Src/stm32n6xx_hal_rif.c ****   * @param  Keys Pointer on the Encryption keys structure
 526:../STM32Cube_FW_N6/Drivers/STM32N6xx_HAL_Driver/Src/stm32n6xx_hal_rif.c ****   * @retval None
 527:../STM32Cube_FW_N6/Drivers/STM32N6xx_HAL_Driver/Src/stm32n6xx_hal_rif.c ****   */
 528:../STM32Cube_FW_N6/Drivers/STM32N6xx_HAL_Driver/Src/stm32n6xx_hal_rif.c **** void HAL_RIF_RISAF_WriteEncryptionKeys(RISAF_TypeDef *RISAFx, RISAF_EncryptionKeys_t *Keys)
 529:../STM32Cube_FW_N6/Drivers/STM32N6xx_HAL_Driver/Src/stm32n6xx_hal_rif.c **** {
 530:../STM32Cube_FW_N6/Drivers/STM32N6xx_HAL_Driver/Src/stm32n6xx_hal_rif.c **** }
 531:../STM32Cube_FW_N6/Drivers/STM32N6xx_HAL_Driver/Src/stm32n6xx_hal_rif.c **** #endif /* defined(CPU_AS_TRUSTED_DOMAIN) */
 532:../STM32Cube_FW_N6/Drivers/STM32N6xx_HAL_Driver/Src/stm32n6xx_hal_rif.c **** 
 533:../STM32Cube_FW_N6/Drivers/STM32N6xx_HAL_Driver/Src/stm32n6xx_hal_rif.c **** #endif /* defined(GENERATOR_RIF_FEATURE_ENCRYPTION_IMPLEMENTED) */
 534:../STM32Cube_FW_N6/Drivers/STM32N6xx_HAL_Driver/Src/stm32n6xx_hal_rif.c **** #if defined(CPU_AS_TRUSTED_DOMAIN)
 535:../STM32Cube_FW_N6/Drivers/STM32N6xx_HAL_Driver/Src/stm32n6xx_hal_rif.c **** /**
 536:../STM32Cube_FW_N6/Drivers/STM32N6xx_HAL_Driver/Src/stm32n6xx_hal_rif.c ****   * @brief  Configure a RISAF Base region.
 537:../STM32Cube_FW_N6/Drivers/STM32N6xx_HAL_Driver/Src/stm32n6xx_hal_rif.c ****   * @note   If pConfig->Filtering is equal to RISAF_FILTER_DISABLE, this API only disable the filte
 538:../STM32Cube_FW_N6/Drivers/STM32N6xx_HAL_Driver/Src/stm32n6xx_hal_rif.c ****   *         its configuration.
 539:../STM32Cube_FW_N6/Drivers/STM32N6xx_HAL_Driver/Src/stm32n6xx_hal_rif.c ****   * @note   It is not possible to modify the start and end address of the region if the filtering i
 540:../STM32Cube_FW_N6/Drivers/STM32N6xx_HAL_Driver/Src/stm32n6xx_hal_rif.c ****   * @note   This API is protected by the Trusted Domain compilation directive.
 541:../STM32Cube_FW_N6/Drivers/STM32N6xx_HAL_Driver/Src/stm32n6xx_hal_rif.c ****   * @param  RISAFx specifies the RISAF instance.
 542:../STM32Cube_FW_N6/Drivers/STM32N6xx_HAL_Driver/Src/stm32n6xx_hal_rif.c ****   *         This parameter is one of the RISAF instances defined in the CMSIS.
 543:../STM32Cube_FW_N6/Drivers/STM32N6xx_HAL_Driver/Src/stm32n6xx_hal_rif.c ****   * @param  Region specifies the RISAF region index
 544:../STM32Cube_FW_N6/Drivers/STM32N6xx_HAL_Driver/Src/stm32n6xx_hal_rif.c ****   *         This parameter can be one one of the following values:
 545:../STM32Cube_FW_N6/Drivers/STM32N6xx_HAL_Driver/Src/stm32n6xx_hal_rif.c ****   *           @arg @ref RISAF_REGION_1
 546:../STM32Cube_FW_N6/Drivers/STM32N6xx_HAL_Driver/Src/stm32n6xx_hal_rif.c ****   *           @arg @ref RISAF_REGION_2
 547:../STM32Cube_FW_N6/Drivers/STM32N6xx_HAL_Driver/Src/stm32n6xx_hal_rif.c ****   *           @arg @ref RISAF_REGION_3
 548:../STM32Cube_FW_N6/Drivers/STM32N6xx_HAL_Driver/Src/stm32n6xx_hal_rif.c ****   *           @arg @ref RISAF_REGION_4
 549:../STM32Cube_FW_N6/Drivers/STM32N6xx_HAL_Driver/Src/stm32n6xx_hal_rif.c ****   *           @arg @ref RISAF_REGION_5
 550:../STM32Cube_FW_N6/Drivers/STM32N6xx_HAL_Driver/Src/stm32n6xx_hal_rif.c ****   *           @arg @ref RISAF_REGION_6
 551:../STM32Cube_FW_N6/Drivers/STM32N6xx_HAL_Driver/Src/stm32n6xx_hal_rif.c ****   *           @arg @ref RISAF_REGION_7
 552:../STM32Cube_FW_N6/Drivers/STM32N6xx_HAL_Driver/Src/stm32n6xx_hal_rif.c ****   *           @arg @ref RISAF_REGION_8
 553:../STM32Cube_FW_N6/Drivers/STM32N6xx_HAL_Driver/Src/stm32n6xx_hal_rif.c ****   *           @arg @ref RISAF_REGION_9
 554:../STM32Cube_FW_N6/Drivers/STM32N6xx_HAL_Driver/Src/stm32n6xx_hal_rif.c ****   *           @arg @ref RISAF_REGION_10
 555:../STM32Cube_FW_N6/Drivers/STM32N6xx_HAL_Driver/Src/stm32n6xx_hal_rif.c ****   *           @arg @ref RISAF_REGION_11
 556:../STM32Cube_FW_N6/Drivers/STM32N6xx_HAL_Driver/Src/stm32n6xx_hal_rif.c ****   *           @arg @ref RISAF_REGION_12
 557:../STM32Cube_FW_N6/Drivers/STM32N6xx_HAL_Driver/Src/stm32n6xx_hal_rif.c ****   *           @arg @ref RISAF_REGION_13
 558:../STM32Cube_FW_N6/Drivers/STM32N6xx_HAL_Driver/Src/stm32n6xx_hal_rif.c ****   *           @arg @ref RISAF_REGION_14
 559:../STM32Cube_FW_N6/Drivers/STM32N6xx_HAL_Driver/Src/stm32n6xx_hal_rif.c ****   *           @arg @ref RISAF_REGION_15
 560:../STM32Cube_FW_N6/Drivers/STM32N6xx_HAL_Driver/Src/stm32n6xx_hal_rif.c ****   * @param  pConfig Pointer on RISAF Base Region configuration structure
 561:../STM32Cube_FW_N6/Drivers/STM32N6xx_HAL_Driver/Src/stm32n6xx_hal_rif.c ****   * @retval None
 562:../STM32Cube_FW_N6/Drivers/STM32N6xx_HAL_Driver/Src/stm32n6xx_hal_rif.c ****   */
 563:../STM32Cube_FW_N6/Drivers/STM32N6xx_HAL_Driver/Src/stm32n6xx_hal_rif.c **** void HAL_RIF_RISAF_ConfigBaseRegion(RISAF_TypeDef *RISAFx, uint32_t Region, const RISAF_BaseRegionC
 564:../STM32Cube_FW_N6/Drivers/STM32N6xx_HAL_Driver/Src/stm32n6xx_hal_rif.c **** {
 1348              		.loc 1 564 1 is_stmt 1 view -0
 1349              		.cfi_startproc
 1350              		@ args = 0, pretend = 0, frame = 0
 1351              		@ frame_needed = 0, uses_anonymous_args = 0
 565:../STM32Cube_FW_N6/Drivers/STM32N6xx_HAL_Driver/Src/stm32n6xx_hal_rif.c ****   /* Check the parameters */
 566:../STM32Cube_FW_N6/Drivers/STM32N6xx_HAL_Driver/Src/stm32n6xx_hal_rif.c ****   assert_param(pConfig != (void *)NULL);
 1352              		.loc 1 566 3 view .LVU297
 564:../STM32Cube_FW_N6/Drivers/STM32N6xx_HAL_Driver/Src/stm32n6xx_hal_rif.c ****   /* Check the parameters */
ARM GAS  /tmp/ccHKmbxS.s 			page 41


 1353              		.loc 1 564 1 is_stmt 0 view .LVU298
 1354 0000 70B5     		push	{r4, r5, r6, lr}
 1355              		.cfi_def_cfa_offset 16
 1356              		.cfi_offset 4, -16
 1357              		.cfi_offset 5, -12
 1358              		.cfi_offset 6, -8
 1359              		.cfi_offset 14, -4
 564:../STM32Cube_FW_N6/Drivers/STM32N6xx_HAL_Driver/Src/stm32n6xx_hal_rif.c ****   /* Check the parameters */
 1360              		.loc 1 564 1 view .LVU299
 1361 0002 0446     		mov	r4, r0
 1362 0004 0D46     		mov	r5, r1
 1363              		.loc 1 566 3 view .LVU300
 1364 0006 1646     		mov	r6, r2
 1365 0008 22B9     		cbnz	r2, .L138
 1366              		.loc 1 566 3 discriminator 1 view .LVU301
 1367 000a 40F23621 		movw	r1, #566
 1368              	.LVL84:
 1369              		.loc 1 566 3 discriminator 1 view .LVU302
 1370 000e A548     		ldr	r0, .L311
 1371              	.LVL85:
 1372              		.loc 1 566 3 discriminator 1 view .LVU303
 1373 0010 FFF7FEFF 		bl	assert_failed
 1374              	.LVL86:
 1375              	.L138:
 567:../STM32Cube_FW_N6/Drivers/STM32N6xx_HAL_Driver/Src/stm32n6xx_hal_rif.c ****   assert_param(IS_RISAF_INSTANCE(RISAFx));
 1376              		.loc 1 567 3 is_stmt 1 view .LVU304
 1377 0014 A44B     		ldr	r3, .L311+4
 1378 0016 9C42     		cmp	r4, r3
 1379 0018 00F09F82 		beq	.L141
 1380              		.loc 1 567 3 is_stmt 0 discriminator 1 view .LVU305
 1381 001c 03F58053 		add	r3, r3, #4096
 1382 0020 9C42     		cmp	r4, r3
 1383 0022 00F09A82 		beq	.L141
 1384              		.loc 1 567 3 discriminator 2 view .LVU306
 1385 0026 03F58053 		add	r3, r3, #4096
 1386 002a 9C42     		cmp	r4, r3
 1387 002c 00F09582 		beq	.L141
 1388              		.loc 1 567 3 discriminator 3 view .LVU307
 1389 0030 03F58053 		add	r3, r3, #4096
 1390 0034 9C42     		cmp	r4, r3
 1391 0036 00F06E82 		beq	.L144
 1392              		.loc 1 567 3 discriminator 4 view .LVU308
 1393 003a 03F58053 		add	r3, r3, #4096
 1394 003e 9C42     		cmp	r4, r3
 1395 0040 00F06982 		beq	.L144
 1396              		.loc 1 567 3 discriminator 5 view .LVU309
 1397 0044 03F58053 		add	r3, r3, #4096
 1398 0048 9C42     		cmp	r4, r3
 1399 004a 00F06482 		beq	.L144
 1400              		.loc 1 567 3 discriminator 6 view .LVU310
 1401 004e 03F58053 		add	r3, r3, #4096
 1402 0052 9C42     		cmp	r4, r3
 1403 0054 00F08182 		beq	.L141
 1404              		.loc 1 567 3 discriminator 7 view .LVU311
 1405 0058 03F58053 		add	r3, r3, #4096
 1406 005c 9C42     		cmp	r4, r3
 1407 005e 00F07C82 		beq	.L141
ARM GAS  /tmp/ccHKmbxS.s 			page 42


 1408              		.loc 1 567 3 discriminator 8 view .LVU312
 1409 0062 03F58053 		add	r3, r3, #4096
 1410 0066 9C42     		cmp	r4, r3
 1411 0068 00F07782 		beq	.L141
 1412              		.loc 1 567 3 discriminator 9 view .LVU313
 1413 006c 03F50053 		add	r3, r3, #8192
 1414 0070 9C42     		cmp	r4, r3
 1415 0072 00F07282 		beq	.L141
 1416              		.loc 1 567 3 discriminator 10 view .LVU314
 1417 0076 03F58053 		add	r3, r3, #4096
 1418 007a 9C42     		cmp	r4, r3
 1419 007c 00F06D82 		beq	.L141
 1420              		.loc 1 567 3 discriminator 11 view .LVU315
 1421 0080 03F58053 		add	r3, r3, #4096
 1422 0084 9C42     		cmp	r4, r3
 1423 0086 00F06882 		beq	.L141
 1424              		.loc 1 567 3 discriminator 12 view .LVU316
 1425 008a 03F58053 		add	r3, r3, #4096
 1426 008e 9C42     		cmp	r4, r3
 1427 0090 00F06382 		beq	.L141
 1428              		.loc 1 567 3 discriminator 13 view .LVU317
 1429 0094 03F58053 		add	r3, r3, #4096
 1430 0098 9C42     		cmp	r4, r3
 1431 009a 00F05A82 		beq	.L152
 1432              		.loc 1 567 3 discriminator 14 view .LVU318
 1433 009e 03F58053 		add	r3, r3, #4096
 1434 00a2 9C42     		cmp	r4, r3
 1435 00a4 00F05982 		beq	.L141
 1436              		.loc 1 567 3 discriminator 15 view .LVU319
 1437 00a8 03F58053 		add	r3, r3, #4096
 1438 00ac 9C42     		cmp	r4, r3
 1439 00ae 00F05482 		beq	.L141
 1440              		.loc 1 567 3 discriminator 16 view .LVU320
 1441 00b2 03F58053 		add	r3, r3, #4096
 1442 00b6 9C42     		cmp	r4, r3
 1443 00b8 04D0     		beq	.L155
 1444              		.loc 1 567 3 discriminator 17 view .LVU321
 1445 00ba 40F23721 		movw	r1, #567
 1446 00be 7948     		ldr	r0, .L311
 1447 00c0 FFF7FEFF 		bl	assert_failed
 1448              	.LVL87:
 1449              	.L155:
 568:../STM32Cube_FW_N6/Drivers/STM32N6xx_HAL_Driver/Src/stm32n6xx_hal_rif.c ****   assert_param(IS_RISAF_REGION(Region));
 1450              		.loc 1 568 3 is_stmt 1 view .LVU322
 1451 00c4 0E2D     		cmp	r5, #14
 1452 00c6 00F22982 		bhi	.L237
 569:../STM32Cube_FW_N6/Drivers/STM32N6xx_HAL_Driver/Src/stm32n6xx_hal_rif.c ****   assert_param(IS_RISAF_MAX_REGION(RISAFx, Region));
 1453              		.loc 1 569 3 is_stmt 0 discriminator 47 view .LVU323
 1454 00ca 022D     		cmp	r5, #2
 1455 00cc 30E2     		b	.L301
 1456              	.L156:
 1457              		.loc 1 569 3 discriminator 2 view .LVU324
 1458 00ce 774B     		ldr	r3, .L311+8
 1459 00d0 9C42     		cmp	r4, r3
 1460 00d2 00F02C82 		beq	.L158
 1461              		.loc 1 569 3 discriminator 5 view .LVU325
 1462 00d6 03F58053 		add	r3, r3, #4096
ARM GAS  /tmp/ccHKmbxS.s 			page 43


 1463 00da 9C42     		cmp	r4, r3
 1464 00dc 00F02782 		beq	.L158
 1465              		.loc 1 569 3 discriminator 8 view .LVU326
 1466 00e0 03F58053 		add	r3, r3, #4096
 1467 00e4 9C42     		cmp	r4, r3
 1468 00e6 07D1     		bne	.L276
 1469              	.L159:
 1470              		.loc 1 569 3 discriminator 65 view .LVU327
 1471 00e8 40F23921 		movw	r1, #569
 1472 00ec 6D48     		ldr	r0, .L311
 1473 00ee FFF7FEFF 		bl	assert_failed
 1474              	.LVL88:
 1475 00f2 23E2     		b	.L242
 1476              	.L238:
 1477              		.loc 1 569 3 discriminator 10 view .LVU328
 1478 00f4 0A2D     		cmp	r5, #10
 1479 00f6 1BE2     		b	.L301
 1480              	.L276:
 1481              		.loc 1 569 3 discriminator 11 view .LVU329
 1482 00f8 6D4B     		ldr	r3, .L311+12
 1483 00fa 9C42     		cmp	r4, r3
 1484 00fc F4D0     		beq	.L159
 1485              		.loc 1 569 3 discriminator 14 view .LVU330
 1486 00fe 03F58053 		add	r3, r3, #4096
 1487 0102 9C42     		cmp	r4, r3
 1488 0104 F0D0     		beq	.L159
 1489              		.loc 1 569 3 discriminator 17 view .LVU331
 1490 0106 03F58053 		add	r3, r3, #4096
 1491 010a 9C42     		cmp	r4, r3
 1492 010c 00F00F82 		beq	.L158
 1493              		.loc 1 569 3 discriminator 20 view .LVU332
 1494 0110 03F58053 		add	r3, r3, #4096
 1495 0114 9C42     		cmp	r4, r3
 1496 0116 00F00A82 		beq	.L158
 1497              		.loc 1 569 3 discriminator 23 view .LVU333
 1498 011a 03F58053 		add	r3, r3, #4096
 1499 011e 9C42     		cmp	r4, r3
 1500 0120 00F00582 		beq	.L158
 1501              		.loc 1 569 3 discriminator 26 view .LVU334
 1502 0124 03F50053 		add	r3, r3, #8192
 1503 0128 9C42     		cmp	r4, r3
 1504 012a 00F00082 		beq	.L158
 1505              		.loc 1 569 3 discriminator 29 view .LVU335
 1506 012e 03F58053 		add	r3, r3, #4096
 1507 0132 9C42     		cmp	r4, r3
 1508 0134 00F0FB81 		beq	.L158
 1509              		.loc 1 569 3 discriminator 32 view .LVU336
 1510 0138 03F58053 		add	r3, r3, #4096
 1511 013c 9C42     		cmp	r4, r3
 1512 013e 00F0F681 		beq	.L158
 1513              		.loc 1 569 3 discriminator 35 view .LVU337
 1514 0142 03F58053 		add	r3, r3, #4096
 1515 0146 9C42     		cmp	r4, r3
 1516 0148 00F0F181 		beq	.L158
 1517              		.loc 1 569 3 discriminator 38 view .LVU338
 1518 014c 03F58053 		add	r3, r3, #4096
 1519 0150 9C42     		cmp	r4, r3
ARM GAS  /tmp/ccHKmbxS.s 			page 44


 1520 0152 C9D0     		beq	.L159
 1521              		.loc 1 569 3 discriminator 41 view .LVU339
 1522 0154 574B     		ldr	r3, .L311+16
 1523 0156 9C42     		cmp	r4, r3
 1524 0158 00F0E981 		beq	.L158
 1525              		.loc 1 569 3 discriminator 44 view .LVU340
 1526 015c 03F58053 		add	r3, r3, #4096
 1527 0160 9C42     		cmp	r4, r3
 1528 0162 C1D1     		bne	.L159
 1529 0164 E3E1     		b	.L158
 1530              	.LVL89:
 1531              	.L162:
 570:../STM32Cube_FW_N6/Drivers/STM32N6xx_HAL_Driver/Src/stm32n6xx_hal_rif.c **** 
 571:../STM32Cube_FW_N6/Drivers/STM32N6xx_HAL_Driver/Src/stm32n6xx_hal_rif.c ****   /* Only disable the section */
 572:../STM32Cube_FW_N6/Drivers/STM32N6xx_HAL_Driver/Src/stm32n6xx_hal_rif.c ****   if (pConfig->Filtering == RISAF_FILTER_DISABLE)
 573:../STM32Cube_FW_N6/Drivers/STM32N6xx_HAL_Driver/Src/stm32n6xx_hal_rif.c ****   {
 574:../STM32Cube_FW_N6/Drivers/STM32N6xx_HAL_Driver/Src/stm32n6xx_hal_rif.c ****     RISAFx->REG[Region].CFGR &= (~(RISAF_FILTER_ENABLE));
 575:../STM32Cube_FW_N6/Drivers/STM32N6xx_HAL_Driver/Src/stm32n6xx_hal_rif.c ****   }
 576:../STM32Cube_FW_N6/Drivers/STM32N6xx_HAL_Driver/Src/stm32n6xx_hal_rif.c ****   else
 577:../STM32Cube_FW_N6/Drivers/STM32N6xx_HAL_Driver/Src/stm32n6xx_hal_rif.c ****   {
 578:../STM32Cube_FW_N6/Drivers/STM32N6xx_HAL_Driver/Src/stm32n6xx_hal_rif.c ****     /* Check the parameters */
 579:../STM32Cube_FW_N6/Drivers/STM32N6xx_HAL_Driver/Src/stm32n6xx_hal_rif.c ****     assert_param(IS_RISAF_FILTERING(pConfig->Filtering));
 1532              		.loc 1 579 5 is_stmt 1 view .LVU341
 1533 0166 012B     		cmp	r3, #1
 1534 0168 04D0     		beq	.L164
 1535              		.loc 1 579 5 is_stmt 0 discriminator 1 view .LVU342
 1536 016a 40F24321 		movw	r1, #579
 1537 016e 4D48     		ldr	r0, .L311
 1538 0170 FFF7FEFF 		bl	assert_failed
 1539              	.LVL90:
 1540              	.L164:
 580:../STM32Cube_FW_N6/Drivers/STM32N6xx_HAL_Driver/Src/stm32n6xx_hal_rif.c ****     assert_param(IS_RIF_CID(pConfig->PrivWhitelist));
 1541              		.loc 1 580 5 is_stmt 1 view .LVU343
 1542 0174 B368     		ldr	r3, [r6, #8]
 1543 0176 FF2B     		cmp	r3, #255
 1544 0178 04D9     		bls	.L165
 1545              		.loc 1 580 5 is_stmt 0 discriminator 1 view .LVU344
 1546 017a 4FF41171 		mov	r1, #580
 1547 017e 4948     		ldr	r0, .L311
 1548 0180 FFF7FEFF 		bl	assert_failed
 1549              	.LVL91:
 1550              	.L165:
 581:../STM32Cube_FW_N6/Drivers/STM32N6xx_HAL_Driver/Src/stm32n6xx_hal_rif.c ****     assert_param(IS_RIF_CID(pConfig->ReadWhitelist));
 1551              		.loc 1 581 5 is_stmt 1 view .LVU345
 1552 0184 F368     		ldr	r3, [r6, #12]
 1553 0186 FF2B     		cmp	r3, #255
 1554 0188 04D9     		bls	.L166
 1555              		.loc 1 581 5 is_stmt 0 discriminator 1 view .LVU346
 1556 018a 40F24521 		movw	r1, #581
 1557 018e 4548     		ldr	r0, .L311
 1558 0190 FFF7FEFF 		bl	assert_failed
 1559              	.LVL92:
 1560              	.L166:
 582:../STM32Cube_FW_N6/Drivers/STM32N6xx_HAL_Driver/Src/stm32n6xx_hal_rif.c ****     assert_param(IS_RIF_CID(pConfig->WriteWhitelist));
 1561              		.loc 1 582 5 is_stmt 1 view .LVU347
 1562 0194 3369     		ldr	r3, [r6, #16]
 1563 0196 FF2B     		cmp	r3, #255
ARM GAS  /tmp/ccHKmbxS.s 			page 45


 1564 0198 04D9     		bls	.L167
 1565              		.loc 1 582 5 is_stmt 0 discriminator 1 view .LVU348
 1566 019a 40F24621 		movw	r1, #582
 1567 019e 4148     		ldr	r0, .L311
 1568 01a0 FFF7FEFF 		bl	assert_failed
 1569              	.LVL93:
 1570              	.L167:
 583:../STM32Cube_FW_N6/Drivers/STM32N6xx_HAL_Driver/Src/stm32n6xx_hal_rif.c ****     assert_param(IS_RIF_SEC_PRIV_ATTRIBUTE(pConfig->Secure));
 1571              		.loc 1 583 5 is_stmt 1 view .LVU349
 1572 01a4 7368     		ldr	r3, [r6, #4]
 1573 01a6 032B     		cmp	r3, #3
 1574 01a8 04D9     		bls	.L168
 1575              		.loc 1 583 5 is_stmt 0 discriminator 1 view .LVU350
 1576 01aa 40F24721 		movw	r1, #583
 1577 01ae 3D48     		ldr	r0, .L311
 1578 01b0 FFF7FEFF 		bl	assert_failed
 1579              	.LVL94:
 1580              	.L168:
 584:../STM32Cube_FW_N6/Drivers/STM32N6xx_HAL_Driver/Src/stm32n6xx_hal_rif.c ****     assert_param(IS_RISAF_GRANULARITY(RISAFx, pConfig->StartAddress));
 1581              		.loc 1 584 5 is_stmt 1 view .LVU351
 1582 01b4 3C4A     		ldr	r2, .L311+4
 1583              		.loc 1 584 5 is_stmt 0 discriminator 1 view .LVU352
 1584 01b6 7369     		ldr	r3, [r6, #20]
 1585              		.loc 1 584 5 view .LVU353
 1586 01b8 9442     		cmp	r4, r2
 1587 01ba 37D1     		bne	.L169
 1588              		.loc 1 584 5 discriminator 1 view .LVU354
 1589 01bc C3F30B03 		ubfx	r3, r3, #0, #12
 1590              		.loc 1 584 5 discriminator 56 view .LVU355
 1591 01c0 002B     		cmp	r3, #0
 1592 01c2 40F09180 		bne	.L170
 1593              	.L193:
 585:../STM32Cube_FW_N6/Drivers/STM32N6xx_HAL_Driver/Src/stm32n6xx_hal_rif.c ****     assert_param(IS_RISAF_LIMIT_ADDRESS_SPACE_SIZE(RISAFx, pConfig->StartAddress));
 1594              		.loc 1 585 5 discriminator 2 view .LVU356
 1595 01c6 7369     		ldr	r3, [r6, #20]
 1596 01c8 B3F1804F 		cmp	r3, #1073741824
 1597              	.L310:
 1598              		.loc 1 585 5 discriminator 5 view .LVU357
 1599 01cc 80F02281 		bcs	.L171
 1600              	.L174:
 586:../STM32Cube_FW_N6/Drivers/STM32N6xx_HAL_Driver/Src/stm32n6xx_hal_rif.c ****     assert_param(IS_RISAF_GRANULARITY(RISAFx, (pConfig->EndAddress + 1U)));
 1601              		.loc 1 586 5 discriminator 4 view .LVU358
 1602 01d0 B369     		ldr	r3, [r6, #24]
 1603 01d2 0133     		adds	r3, r3, #1
 1604              	.L300:
 1605              		.loc 1 586 5 discriminator 34 view .LVU359
 1606 01d4 C3F30B03 		ubfx	r3, r3, #0, #12
 1607 01d8 B3FA83F3 		clz	r3, r3
 1608 01dc 5B09     		lsrs	r3, r3, #5
 1609              		.loc 1 586 5 discriminator 56 view .LVU360
 1610 01de 002B     		cmp	r3, #0
 1611 01e0 00F02C81 		beq	.L211
 1612              	.L241:
 587:../STM32Cube_FW_N6/Drivers/STM32N6xx_HAL_Driver/Src/stm32n6xx_hal_rif.c ****     assert_param(IS_RISAF_LIMIT_ADDRESS_SPACE_SIZE(RISAFx, pConfig->EndAddress));
 1613              		.loc 1 587 5 is_stmt 1 view .LVU361
 1614 01e4 304B     		ldr	r3, .L311+4
 1615 01e6 9C42     		cmp	r4, r3
ARM GAS  /tmp/ccHKmbxS.s 			page 46


 1616 01e8 40F04281 		bne	.L222
 1617              		.loc 1 587 5 is_stmt 0 discriminator 2 view .LVU362
 1618 01ec B369     		ldr	r3, [r6, #24]
 1619 01ee B3F1804F 		cmp	r3, #1073741824
 1620              	.L299:
 1621              		.loc 1 587 5 discriminator 38 view .LVU363
 1622 01f2 80F08A81 		bcs	.L223
 1623              	.L210:
 588:../STM32Cube_FW_N6/Drivers/STM32N6xx_HAL_Driver/Src/stm32n6xx_hal_rif.c ****     assert_param(pConfig->StartAddress < pConfig->EndAddress);
 1624              		.loc 1 588 5 is_stmt 1 view .LVU364
 1625 01f6 D6E90523 		ldrd	r2, r3, [r6, #20]
 1626 01fa 9A42     		cmp	r2, r3
 1627 01fc 04D3     		bcc	.L232
 1628              		.loc 1 588 5 is_stmt 0 discriminator 1 view .LVU365
 1629 01fe 4FF41371 		mov	r1, #588
 1630 0202 2848     		ldr	r0, .L311
 1631 0204 FFF7FEFF 		bl	assert_failed
 1632              	.LVL95:
 1633              	.L232:
 589:../STM32Cube_FW_N6/Drivers/STM32N6xx_HAL_Driver/Src/stm32n6xx_hal_rif.c **** 
 590:../STM32Cube_FW_N6/Drivers/STM32N6xx_HAL_Driver/Src/stm32n6xx_hal_rif.c ****     /* Update region start and end addresses */
 591:../STM32Cube_FW_N6/Drivers/STM32N6xx_HAL_Driver/Src/stm32n6xx_hal_rif.c ****     RISAFx->REG[Region].STARTR = pConfig->StartAddress;
 1634              		.loc 1 591 5 is_stmt 1 view .LVU366
 1635              		.loc 1 591 41 is_stmt 0 view .LVU367
 1636 0208 7369     		ldr	r3, [r6, #20]
 1637 020a 2C44     		add	r4, r4, r5
 1638              	.LVL96:
 1639              		.loc 1 591 32 view .LVU368
 1640 020c 6364     		str	r3, [r4, #68]
 592:../STM32Cube_FW_N6/Drivers/STM32N6xx_HAL_Driver/Src/stm32n6xx_hal_rif.c ****     RISAFx->REG[Region].ENDR = pConfig->EndAddress;
 1641              		.loc 1 592 5 is_stmt 1 view .LVU369
 1642              		.loc 1 592 39 is_stmt 0 view .LVU370
 1643 020e B369     		ldr	r3, [r6, #24]
 1644              		.loc 1 592 30 view .LVU371
 1645 0210 A364     		str	r3, [r4, #72]
 593:../STM32Cube_FW_N6/Drivers/STM32N6xx_HAL_Driver/Src/stm32n6xx_hal_rif.c **** 
 594:../STM32Cube_FW_N6/Drivers/STM32N6xx_HAL_Driver/Src/stm32n6xx_hal_rif.c ****     /* Update filtering mode, security and privilege attributes and whitelists */
 595:../STM32Cube_FW_N6/Drivers/STM32N6xx_HAL_Driver/Src/stm32n6xx_hal_rif.c ****     RISAFx->REG[Region].CIDCFGR = (pConfig->ReadWhitelist | (pConfig->WriteWhitelist << RISAF_REGx_
 1646              		.loc 1 595 5 is_stmt 1 view .LVU372
 1647              		.loc 1 595 59 is_stmt 0 view .LVU373
 1648 0212 D6E90332 		ldrd	r3, r2, [r6, #12]
 1649 0216 43EA0243 		orr	r3, r3, r2, lsl #16
 1650              		.loc 1 595 33 view .LVU374
 1651 021a E364     		str	r3, [r4, #76]
 596:../STM32Cube_FW_N6/Drivers/STM32N6xx_HAL_Driver/Src/stm32n6xx_hal_rif.c ****     RISAFx->REG[Region].CFGR = (pConfig->Filtering | (pConfig->Secure << RISAF_REGx_CFGR_SEC_Pos)
 1652              		.loc 1 596 5 is_stmt 1 view .LVU375
 597:../STM32Cube_FW_N6/Drivers/STM32N6xx_HAL_Driver/Src/stm32n6xx_hal_rif.c ****                                 | (pConfig->PrivWhitelist << RISAF_REGx_CFGR_PRIVC0_Pos));
 1653              		.loc 1 597 59 is_stmt 0 view .LVU376
 1654 021c D6E90123 		ldrd	r2, r3, [r6, #4]
 1655 0220 1B04     		lsls	r3, r3, #16
 1656              		.loc 1 597 33 view .LVU377
 1657 0222 43EA0223 		orr	r3, r3, r2, lsl #8
 1658 0226 3268     		ldr	r2, [r6]
 1659 0228 1343     		orrs	r3, r3, r2
 1660 022a 90E1     		b	.L302
 1661              	.LVL97:
 1662              	.L169:
ARM GAS  /tmp/ccHKmbxS.s 			page 47


 584:../STM32Cube_FW_N6/Drivers/STM32N6xx_HAL_Driver/Src/stm32n6xx_hal_rif.c ****     assert_param(IS_RISAF_LIMIT_ADDRESS_SPACE_SIZE(RISAFx, pConfig->StartAddress));
 1663              		.loc 1 584 5 discriminator 2 view .LVU378
 1664 022c 1F4A     		ldr	r2, .L311+8
 1665 022e 9442     		cmp	r4, r2
 1666 0230 07D1     		bne	.L173
 584:../STM32Cube_FW_N6/Drivers/STM32N6xx_HAL_Driver/Src/stm32n6xx_hal_rif.c ****     assert_param(IS_RISAF_LIMIT_ADDRESS_SPACE_SIZE(RISAFx, pConfig->StartAddress));
 1667              		.loc 1 584 5 discriminator 4 view .LVU379
 1668 0232 C3F30B03 		ubfx	r3, r3, #0, #12
 584:../STM32Cube_FW_N6/Drivers/STM32N6xx_HAL_Driver/Src/stm32n6xx_hal_rif.c ****     assert_param(IS_RISAF_LIMIT_ADDRESS_SPACE_SIZE(RISAFx, pConfig->StartAddress));
 1669              		.loc 1 584 5 discriminator 56 view .LVU380
 1670 0236 002B     		cmp	r3, #0
 1671 0238 56D1     		bne	.L170
 1672              	.L197:
 585:../STM32Cube_FW_N6/Drivers/STM32N6xx_HAL_Driver/Src/stm32n6xx_hal_rif.c ****     assert_param(IS_RISAF_GRANULARITY(RISAFx, (pConfig->EndAddress + 1U)));
 1673              		.loc 1 585 5 discriminator 5 view .LVU381
 1674 023a 7369     		ldr	r3, [r6, #20]
 1675 023c B3F5801F 		cmp	r3, #1048576
 1676 0240 C4E7     		b	.L310
 1677              	.L173:
 584:../STM32Cube_FW_N6/Drivers/STM32N6xx_HAL_Driver/Src/stm32n6xx_hal_rif.c ****     assert_param(IS_RISAF_LIMIT_ADDRESS_SPACE_SIZE(RISAFx, pConfig->StartAddress));
 1678              		.loc 1 584 5 discriminator 5 view .LVU382
 1679 0242 1D4A     		ldr	r2, .L311+20
 1680 0244 9442     		cmp	r4, r2
 1681 0246 47D1     		bne	.L175
 584:../STM32Cube_FW_N6/Drivers/STM32N6xx_HAL_Driver/Src/stm32n6xx_hal_rif.c ****     assert_param(IS_RISAF_LIMIT_ADDRESS_SPACE_SIZE(RISAFx, pConfig->StartAddress));
 1682              		.loc 1 584 5 discriminator 7 view .LVU383
 1683 0248 C3F30B03 		ubfx	r3, r3, #0, #12
 584:../STM32Cube_FW_N6/Drivers/STM32N6xx_HAL_Driver/Src/stm32n6xx_hal_rif.c ****     assert_param(IS_RISAF_LIMIT_ADDRESS_SPACE_SIZE(RISAFx, pConfig->StartAddress));
 1684              		.loc 1 584 5 discriminator 56 view .LVU384
 1685 024c 002B     		cmp	r3, #0
 1686 024e 4BD1     		bne	.L170
 1687              	.L198:
 585:../STM32Cube_FW_N6/Drivers/STM32N6xx_HAL_Driver/Src/stm32n6xx_hal_rif.c ****     assert_param(IS_RISAF_GRANULARITY(RISAFx, (pConfig->EndAddress + 1U)));
 1688              		.loc 1 585 5 discriminator 8 view .LVU385
 1689 0250 7369     		ldr	r3, [r6, #20]
 1690 0252 B3F5801F 		cmp	r3, #1048576
 1691              	.L296:
 585:../STM32Cube_FW_N6/Drivers/STM32N6xx_HAL_Driver/Src/stm32n6xx_hal_rif.c ****     assert_param(IS_RISAF_GRANULARITY(RISAFx, (pConfig->EndAddress + 1U)));
 1692              		.loc 1 585 5 discriminator 14 view .LVU386
 1693 0256 80F0DD80 		bcs	.L171
 1694              	.L209:
 586:../STM32Cube_FW_N6/Drivers/STM32N6xx_HAL_Driver/Src/stm32n6xx_hal_rif.c ****     assert_param(IS_RISAF_LIMIT_ADDRESS_SPACE_SIZE(RISAFx, pConfig->EndAddress));
 1695              		.loc 1 586 5 discriminator 5 view .LVU387
 1696 025a 174A     		ldr	r2, .L311+20
 586:../STM32Cube_FW_N6/Drivers/STM32N6xx_HAL_Driver/Src/stm32n6xx_hal_rif.c ****     assert_param(IS_RISAF_LIMIT_ADDRESS_SPACE_SIZE(RISAFx, pConfig->EndAddress));
 1697              		.loc 1 586 5 discriminator 7 view .LVU388
 1698 025c B369     		ldr	r3, [r6, #24]
 586:../STM32Cube_FW_N6/Drivers/STM32N6xx_HAL_Driver/Src/stm32n6xx_hal_rif.c ****     assert_param(IS_RISAF_LIMIT_ADDRESS_SPACE_SIZE(RISAFx, pConfig->EndAddress));
 1699              		.loc 1 586 5 discriminator 5 view .LVU389
 1700 025e 9442     		cmp	r4, r2
 586:../STM32Cube_FW_N6/Drivers/STM32N6xx_HAL_Driver/Src/stm32n6xx_hal_rif.c ****     assert_param(IS_RISAF_LIMIT_ADDRESS_SPACE_SIZE(RISAFx, pConfig->EndAddress));
 1701              		.loc 1 586 5 discriminator 7 view .LVU390
 1702 0260 03F10103 		add	r3, r3, #1
 586:../STM32Cube_FW_N6/Drivers/STM32N6xx_HAL_Driver/Src/stm32n6xx_hal_rif.c ****     assert_param(IS_RISAF_LIMIT_ADDRESS_SPACE_SIZE(RISAFx, pConfig->EndAddress));
 1703              		.loc 1 586 5 discriminator 5 view .LVU391
 1704 0264 B6D0     		beq	.L300
 586:../STM32Cube_FW_N6/Drivers/STM32N6xx_HAL_Driver/Src/stm32n6xx_hal_rif.c ****     assert_param(IS_RISAF_LIMIT_ADDRESS_SPACE_SIZE(RISAFx, pConfig->EndAddress));
ARM GAS  /tmp/ccHKmbxS.s 			page 48


 1705              		.loc 1 586 5 discriminator 17 view .LVU392
 1706 0266 154A     		ldr	r2, .L311+24
 1707 0268 9442     		cmp	r4, r2
 1708 026a B3D0     		beq	.L300
 586:../STM32Cube_FW_N6/Drivers/STM32N6xx_HAL_Driver/Src/stm32n6xx_hal_rif.c ****     assert_param(IS_RISAF_LIMIT_ADDRESS_SPACE_SIZE(RISAFx, pConfig->EndAddress));
 1709              		.loc 1 586 5 discriminator 20 view .LVU393
 1710 026c 144A     		ldr	r2, .L311+28
 1711 026e 9442     		cmp	r4, r2
 1712 0270 B0D0     		beq	.L300
 586:../STM32Cube_FW_N6/Drivers/STM32N6xx_HAL_Driver/Src/stm32n6xx_hal_rif.c ****     assert_param(IS_RISAF_LIMIT_ADDRESS_SPACE_SIZE(RISAFx, pConfig->EndAddress));
 1713              		.loc 1 586 5 discriminator 23 view .LVU394
 1714 0272 144A     		ldr	r2, .L311+32
 1715 0274 9442     		cmp	r4, r2
 1716 0276 ADD0     		beq	.L300
 586:../STM32Cube_FW_N6/Drivers/STM32N6xx_HAL_Driver/Src/stm32n6xx_hal_rif.c ****     assert_param(IS_RISAF_LIMIT_ADDRESS_SPACE_SIZE(RISAFx, pConfig->EndAddress));
 1717              		.loc 1 586 5 discriminator 26 view .LVU395
 1718 0278 134A     		ldr	r2, .L311+36
 1719 027a 9442     		cmp	r4, r2
 1720 027c AAD0     		beq	.L300
 586:../STM32Cube_FW_N6/Drivers/STM32N6xx_HAL_Driver/Src/stm32n6xx_hal_rif.c ****     assert_param(IS_RISAF_LIMIT_ADDRESS_SPACE_SIZE(RISAFx, pConfig->EndAddress));
 1721              		.loc 1 586 5 discriminator 29 view .LVU396
 1722 027e 134A     		ldr	r2, .L311+40
 1723 0280 9442     		cmp	r4, r2
 1724 0282 A7D0     		beq	.L300
 586:../STM32Cube_FW_N6/Drivers/STM32N6xx_HAL_Driver/Src/stm32n6xx_hal_rif.c ****     assert_param(IS_RISAF_LIMIT_ADDRESS_SPACE_SIZE(RISAFx, pConfig->EndAddress));
 1725              		.loc 1 586 5 discriminator 32 view .LVU397
 1726 0284 124A     		ldr	r2, .L311+44
 1727 0286 9442     		cmp	r4, r2
 1728 0288 A4D0     		beq	.L300
 586:../STM32Cube_FW_N6/Drivers/STM32N6xx_HAL_Driver/Src/stm32n6xx_hal_rif.c ****     assert_param(IS_RISAF_LIMIT_ADDRESS_SPACE_SIZE(RISAFx, pConfig->EndAddress));
 1729              		.loc 1 586 5 discriminator 35 view .LVU398
 1730 028a 124A     		ldr	r2, .L311+48
 1731 028c 9442     		cmp	r4, r2
 1732 028e 40F0DB80 		bne	.L217
 586:../STM32Cube_FW_N6/Drivers/STM32N6xx_HAL_Driver/Src/stm32n6xx_hal_rif.c ****     assert_param(IS_RISAF_LIMIT_ADDRESS_SPACE_SIZE(RISAFx, pConfig->EndAddress));
 1733              		.loc 1 586 5 discriminator 37 view .LVU399
 1734 0292 C3F30B03 		ubfx	r3, r3, #0, #12
 586:../STM32Cube_FW_N6/Drivers/STM32N6xx_HAL_Driver/Src/stm32n6xx_hal_rif.c ****     assert_param(IS_RISAF_LIMIT_ADDRESS_SPACE_SIZE(RISAFx, pConfig->EndAddress));
 1735              		.loc 1 586 5 discriminator 56 view .LVU400
 1736 0296 002B     		cmp	r3, #0
 1737 0298 40F0D080 		bne	.L211
 1738              	.L218:
 587:../STM32Cube_FW_N6/Drivers/STM32N6xx_HAL_Driver/Src/stm32n6xx_hal_rif.c ****     assert_param(pConfig->StartAddress < pConfig->EndAddress);
 1739              		.loc 1 587 5 discriminator 23 view .LVU401
 1740 029c B369     		ldr	r3, [r6, #24]
 1741 029e B3F1805F 		cmp	r3, #268435456
 1742 02a2 A6E7     		b	.L299
 1743              	.L312:
 1744              		.align	2
 1745              	.L311:
 1746 02a4 00000000 		.word	.LC0
 1747 02a8 00600254 		.word	1409441792
 1748 02ac 00700254 		.word	1409445888
 1749 02b0 00A00254 		.word	1409458176
 1750 02b4 00500354 		.word	1409503232
 1751 02b8 00800254 		.word	1409449984
 1752 02bc 00C00254 		.word	1409466368
ARM GAS  /tmp/ccHKmbxS.s 			page 49


 1753 02c0 00D00254 		.word	1409470464
 1754 02c4 00E00254 		.word	1409474560
 1755 02c8 00000354 		.word	1409482752
 1756 02cc 00100354 		.word	1409486848
 1757 02d0 00200354 		.word	1409490944
 1758 02d4 00300354 		.word	1409495040
 1759              	.L175:
 584:../STM32Cube_FW_N6/Drivers/STM32N6xx_HAL_Driver/Src/stm32n6xx_hal_rif.c ****     assert_param(IS_RISAF_LIMIT_ADDRESS_SPACE_SIZE(RISAFx, pConfig->StartAddress));
 1760              		.loc 1 584 5 discriminator 8 view .LVU402
 1761 02d8 A14A     		ldr	r2, .L313
 1762 02da 9442     		cmp	r4, r2
 1763 02dc 43D1     		bne	.L177
 1764              	.L304:
 584:../STM32Cube_FW_N6/Drivers/STM32N6xx_HAL_Driver/Src/stm32n6xx_hal_rif.c ****     assert_param(IS_RISAF_LIMIT_ADDRESS_SPACE_SIZE(RISAFx, pConfig->StartAddress));
 1765              		.loc 1 584 5 discriminator 16 view .LVU403
 1766 02de C3F30B03 		ubfx	r3, r3, #0, #12
 584:../STM32Cube_FW_N6/Drivers/STM32N6xx_HAL_Driver/Src/stm32n6xx_hal_rif.c ****     assert_param(IS_RISAF_LIMIT_ADDRESS_SPACE_SIZE(RISAFx, pConfig->StartAddress));
 1767              		.loc 1 584 5 discriminator 56 view .LVU404
 1768 02e2 002B     		cmp	r3, #0
 1769 02e4 00F0A480 		beq	.L182
 1770              	.L170:
 584:../STM32Cube_FW_N6/Drivers/STM32N6xx_HAL_Driver/Src/stm32n6xx_hal_rif.c ****     assert_param(IS_RISAF_LIMIT_ADDRESS_SPACE_SIZE(RISAFx, pConfig->StartAddress));
 1771              		.loc 1 584 5 discriminator 57 view .LVU405
 1772 02e8 4FF41271 		mov	r1, #584
 1773 02ec 9D48     		ldr	r0, .L313+4
 1774 02ee FFF7FEFF 		bl	assert_failed
 1775              	.LVL98:
 585:../STM32Cube_FW_N6/Drivers/STM32N6xx_HAL_Driver/Src/stm32n6xx_hal_rif.c ****     assert_param(IS_RISAF_GRANULARITY(RISAFx, (pConfig->EndAddress + 1U)));
 1776              		.loc 1 585 5 is_stmt 1 view .LVU406
 1777 02f2 9D4B     		ldr	r3, .L313+8
 1778 02f4 9C42     		cmp	r4, r3
 1779 02f6 3FF466AF 		beq	.L193
 585:../STM32Cube_FW_N6/Drivers/STM32N6xx_HAL_Driver/Src/stm32n6xx_hal_rif.c ****     assert_param(IS_RISAF_GRANULARITY(RISAFx, (pConfig->EndAddress + 1U)));
 1780              		.loc 1 585 5 is_stmt 0 discriminator 3 view .LVU407
 1781 02fa 9C4B     		ldr	r3, .L313+12
 1782 02fc 9C42     		cmp	r4, r3
 1783 02fe 9CD0     		beq	.L197
 585:../STM32Cube_FW_N6/Drivers/STM32N6xx_HAL_Driver/Src/stm32n6xx_hal_rif.c ****     assert_param(IS_RISAF_GRANULARITY(RISAFx, (pConfig->EndAddress + 1U)));
 1784              		.loc 1 585 5 discriminator 6 view .LVU408
 1785 0300 9B4B     		ldr	r3, .L313+16
 1786 0302 9C42     		cmp	r4, r3
 1787 0304 A4D0     		beq	.L198
 585:../STM32Cube_FW_N6/Drivers/STM32N6xx_HAL_Driver/Src/stm32n6xx_hal_rif.c ****     assert_param(IS_RISAF_GRANULARITY(RISAFx, (pConfig->EndAddress + 1U)));
 1788              		.loc 1 585 5 discriminator 9 view .LVU409
 1789 0306 03F58053 		add	r3, r3, #4096
 1790 030a 9C42     		cmp	r4, r3
 1791 030c 00F09080 		beq	.L182
 585:../STM32Cube_FW_N6/Drivers/STM32N6xx_HAL_Driver/Src/stm32n6xx_hal_rif.c ****     assert_param(IS_RISAF_GRANULARITY(RISAFx, (pConfig->EndAddress + 1U)));
 1792              		.loc 1 585 5 discriminator 10 view .LVU410
 1793 0310 03F58053 		add	r3, r3, #4096
 1794 0314 9C42     		cmp	r4, r3
 1795 0316 00F08B80 		beq	.L182
 585:../STM32Cube_FW_N6/Drivers/STM32N6xx_HAL_Driver/Src/stm32n6xx_hal_rif.c ****     assert_param(IS_RISAF_GRANULARITY(RISAFx, (pConfig->EndAddress + 1U)));
 1796              		.loc 1 585 5 discriminator 11 view .LVU411
 1797 031a 03F58053 		add	r3, r3, #4096
 1798 031e 9C42     		cmp	r4, r3
 1799 0320 00F08680 		beq	.L182
ARM GAS  /tmp/ccHKmbxS.s 			page 50


 585:../STM32Cube_FW_N6/Drivers/STM32N6xx_HAL_Driver/Src/stm32n6xx_hal_rif.c ****     assert_param(IS_RISAF_GRANULARITY(RISAFx, (pConfig->EndAddress + 1U)));
 1800              		.loc 1 585 5 discriminator 12 view .LVU412
 1801 0324 03F58053 		add	r3, r3, #4096
 1802 0328 9C42     		cmp	r4, r3
 1803 032a 29D0     		beq	.L199
 585:../STM32Cube_FW_N6/Drivers/STM32N6xx_HAL_Driver/Src/stm32n6xx_hal_rif.c ****     assert_param(IS_RISAF_GRANULARITY(RISAFx, (pConfig->EndAddress + 1U)));
 1804              		.loc 1 585 5 discriminator 15 view .LVU413
 1805 032c 03F58053 		add	r3, r3, #4096
 1806 0330 9C42     		cmp	r4, r3
 1807 0332 30D0     		beq	.L200
 585:../STM32Cube_FW_N6/Drivers/STM32N6xx_HAL_Driver/Src/stm32n6xx_hal_rif.c ****     assert_param(IS_RISAF_GRANULARITY(RISAFx, (pConfig->EndAddress + 1U)));
 1808              		.loc 1 585 5 discriminator 18 view .LVU414
 1809 0334 03F58053 		add	r3, r3, #4096
 1810 0338 9C42     		cmp	r4, r3
 1811 033a 37D0     		beq	.L201
 585:../STM32Cube_FW_N6/Drivers/STM32N6xx_HAL_Driver/Src/stm32n6xx_hal_rif.c ****     assert_param(IS_RISAF_GRANULARITY(RISAFx, (pConfig->EndAddress + 1U)));
 1812              		.loc 1 585 5 discriminator 21 view .LVU415
 1813 033c 03F50053 		add	r3, r3, #8192
 1814 0340 9C42     		cmp	r4, r3
 1815 0342 3ED0     		beq	.L205
 585:../STM32Cube_FW_N6/Drivers/STM32N6xx_HAL_Driver/Src/stm32n6xx_hal_rif.c ****     assert_param(IS_RISAF_GRANULARITY(RISAFx, (pConfig->EndAddress + 1U)));
 1816              		.loc 1 585 5 discriminator 24 view .LVU416
 1817 0344 03F58053 		add	r3, r3, #4096
 1818 0348 9C42     		cmp	r4, r3
 1819 034a 3AD0     		beq	.L205
 585:../STM32Cube_FW_N6/Drivers/STM32N6xx_HAL_Driver/Src/stm32n6xx_hal_rif.c ****     assert_param(IS_RISAF_GRANULARITY(RISAFx, (pConfig->EndAddress + 1U)));
 1820              		.loc 1 585 5 discriminator 27 view .LVU417
 1821 034c 03F58053 		add	r3, r3, #4096
 1822 0350 9C42     		cmp	r4, r3
 1823 0352 36D0     		beq	.L205
 585:../STM32Cube_FW_N6/Drivers/STM32N6xx_HAL_Driver/Src/stm32n6xx_hal_rif.c ****     assert_param(IS_RISAF_GRANULARITY(RISAFx, (pConfig->EndAddress + 1U)));
 1824              		.loc 1 585 5 discriminator 30 view .LVU418
 1825 0354 03F58053 		add	r3, r3, #4096
 1826 0358 9C42     		cmp	r4, r3
 1827 035a 32D0     		beq	.L205
 585:../STM32Cube_FW_N6/Drivers/STM32N6xx_HAL_Driver/Src/stm32n6xx_hal_rif.c ****     assert_param(IS_RISAF_GRANULARITY(RISAFx, (pConfig->EndAddress + 1U)));
 1828              		.loc 1 585 5 discriminator 33 view .LVU419
 1829 035c 03F58053 		add	r3, r3, #4096
 1830 0360 9C42     		cmp	r4, r3
 1831 0362 49D1     		bne	.L191
 1832 0364 3FE0     		b	.L303
 1833              	.L177:
 584:../STM32Cube_FW_N6/Drivers/STM32N6xx_HAL_Driver/Src/stm32n6xx_hal_rif.c ****     assert_param(IS_RISAF_LIMIT_ADDRESS_SPACE_SIZE(RISAFx, pConfig->StartAddress));
 1834              		.loc 1 584 5 discriminator 11 view .LVU420
 1835 0366 834A     		ldr	r2, .L313+20
 1836 0368 9442     		cmp	r4, r2
 1837 036a B8D0     		beq	.L304
 584:../STM32Cube_FW_N6/Drivers/STM32N6xx_HAL_Driver/Src/stm32n6xx_hal_rif.c ****     assert_param(IS_RISAF_LIMIT_ADDRESS_SPACE_SIZE(RISAFx, pConfig->StartAddress));
 1838              		.loc 1 584 5 discriminator 14 view .LVU421
 1839 036c 824A     		ldr	r2, .L313+24
 1840 036e 9442     		cmp	r4, r2
 1841 0370 B5D0     		beq	.L304
 584:../STM32Cube_FW_N6/Drivers/STM32N6xx_HAL_Driver/Src/stm32n6xx_hal_rif.c ****     assert_param(IS_RISAF_LIMIT_ADDRESS_SPACE_SIZE(RISAFx, pConfig->StartAddress));
 1842              		.loc 1 584 5 discriminator 17 view .LVU422
 1843 0372 824A     		ldr	r2, .L313+28
 1844 0374 9442     		cmp	r4, r2
 1845 0376 07D1     		bne	.L183
ARM GAS  /tmp/ccHKmbxS.s 			page 51


 584:../STM32Cube_FW_N6/Drivers/STM32N6xx_HAL_Driver/Src/stm32n6xx_hal_rif.c ****     assert_param(IS_RISAF_LIMIT_ADDRESS_SPACE_SIZE(RISAFx, pConfig->StartAddress));
 1846              		.loc 1 584 5 discriminator 19 view .LVU423
 1847 0378 C3F30B03 		ubfx	r3, r3, #0, #12
 584:../STM32Cube_FW_N6/Drivers/STM32N6xx_HAL_Driver/Src/stm32n6xx_hal_rif.c ****     assert_param(IS_RISAF_LIMIT_ADDRESS_SPACE_SIZE(RISAFx, pConfig->StartAddress));
 1848              		.loc 1 584 5 discriminator 56 view .LVU424
 1849 037c 002B     		cmp	r3, #0
 1850 037e B3D1     		bne	.L170
 1851              	.L199:
 585:../STM32Cube_FW_N6/Drivers/STM32N6xx_HAL_Driver/Src/stm32n6xx_hal_rif.c ****     assert_param(IS_RISAF_GRANULARITY(RISAFx, (pConfig->EndAddress + 1U)));
 1852              		.loc 1 585 5 discriminator 14 view .LVU425
 1853 0380 7369     		ldr	r3, [r6, #20]
 1854 0382 B3F5002F 		cmp	r3, #524288
 1855 0386 66E7     		b	.L296
 1856              	.L183:
 584:../STM32Cube_FW_N6/Drivers/STM32N6xx_HAL_Driver/Src/stm32n6xx_hal_rif.c ****     assert_param(IS_RISAF_LIMIT_ADDRESS_SPACE_SIZE(RISAFx, pConfig->StartAddress));
 1857              		.loc 1 584 5 discriminator 20 view .LVU426
 1858 0388 7D4A     		ldr	r2, .L313+32
 1859 038a 9442     		cmp	r4, r2
 1860 038c 07D1     		bne	.L184
 584:../STM32Cube_FW_N6/Drivers/STM32N6xx_HAL_Driver/Src/stm32n6xx_hal_rif.c ****     assert_param(IS_RISAF_LIMIT_ADDRESS_SPACE_SIZE(RISAFx, pConfig->StartAddress));
 1861              		.loc 1 584 5 discriminator 22 view .LVU427
 1862 038e C3F30B03 		ubfx	r3, r3, #0, #12
 584:../STM32Cube_FW_N6/Drivers/STM32N6xx_HAL_Driver/Src/stm32n6xx_hal_rif.c ****     assert_param(IS_RISAF_LIMIT_ADDRESS_SPACE_SIZE(RISAFx, pConfig->StartAddress));
 1863              		.loc 1 584 5 discriminator 56 view .LVU428
 1864 0392 002B     		cmp	r3, #0
 1865 0394 A8D1     		bne	.L170
 1866              	.L200:
 585:../STM32Cube_FW_N6/Drivers/STM32N6xx_HAL_Driver/Src/stm32n6xx_hal_rif.c ****     assert_param(IS_RISAF_GRANULARITY(RISAFx, (pConfig->EndAddress + 1U)));
 1867              		.loc 1 585 5 discriminator 17 view .LVU429
 1868 0396 7369     		ldr	r3, [r6, #20]
 1869 0398 B3F5802F 		cmp	r3, #262144
 1870 039c 5BE7     		b	.L296
 1871              	.L184:
 584:../STM32Cube_FW_N6/Drivers/STM32N6xx_HAL_Driver/Src/stm32n6xx_hal_rif.c ****     assert_param(IS_RISAF_LIMIT_ADDRESS_SPACE_SIZE(RISAFx, pConfig->StartAddress));
 1872              		.loc 1 584 5 discriminator 23 view .LVU430
 1873 039e 794A     		ldr	r2, .L313+36
 1874 03a0 9442     		cmp	r4, r2
 1875 03a2 07D1     		bne	.L185
 584:../STM32Cube_FW_N6/Drivers/STM32N6xx_HAL_Driver/Src/stm32n6xx_hal_rif.c ****     assert_param(IS_RISAF_LIMIT_ADDRESS_SPACE_SIZE(RISAFx, pConfig->StartAddress));
 1876              		.loc 1 584 5 discriminator 25 view .LVU431
 1877 03a4 C3F30B03 		ubfx	r3, r3, #0, #12
 584:../STM32Cube_FW_N6/Drivers/STM32N6xx_HAL_Driver/Src/stm32n6xx_hal_rif.c ****     assert_param(IS_RISAF_LIMIT_ADDRESS_SPACE_SIZE(RISAFx, pConfig->StartAddress));
 1878              		.loc 1 584 5 discriminator 56 view .LVU432
 1879 03a8 002B     		cmp	r3, #0
 1880 03aa 9DD1     		bne	.L170
 1881              	.L201:
 585:../STM32Cube_FW_N6/Drivers/STM32N6xx_HAL_Driver/Src/stm32n6xx_hal_rif.c ****     assert_param(IS_RISAF_GRANULARITY(RISAFx, (pConfig->EndAddress + 1U)));
 1882              		.loc 1 585 5 discriminator 20 view .LVU433
 1883 03ac 7369     		ldr	r3, [r6, #20]
 1884 03ae B3F5003F 		cmp	r3, #131072
 1885 03b2 50E7     		b	.L296
 1886              	.L185:
 584:../STM32Cube_FW_N6/Drivers/STM32N6xx_HAL_Driver/Src/stm32n6xx_hal_rif.c ****     assert_param(IS_RISAF_LIMIT_ADDRESS_SPACE_SIZE(RISAFx, pConfig->StartAddress));
 1887              		.loc 1 584 5 discriminator 26 view .LVU434
 1888 03b4 744A     		ldr	r2, .L313+40
 1889 03b6 9442     		cmp	r4, r2
 1890 03b8 07D1     		bne	.L186
ARM GAS  /tmp/ccHKmbxS.s 			page 52


 1891              	.L306:
 584:../STM32Cube_FW_N6/Drivers/STM32N6xx_HAL_Driver/Src/stm32n6xx_hal_rif.c ****     assert_param(IS_RISAF_LIMIT_ADDRESS_SPACE_SIZE(RISAFx, pConfig->StartAddress));
 1892              		.loc 1 584 5 discriminator 37 view .LVU435
 1893 03ba C3F30B03 		ubfx	r3, r3, #0, #12
 584:../STM32Cube_FW_N6/Drivers/STM32N6xx_HAL_Driver/Src/stm32n6xx_hal_rif.c ****     assert_param(IS_RISAF_LIMIT_ADDRESS_SPACE_SIZE(RISAFx, pConfig->StartAddress));
 1894              		.loc 1 584 5 discriminator 56 view .LVU436
 1895 03be 002B     		cmp	r3, #0
 1896 03c0 92D1     		bne	.L170
 1897              	.L205:
 585:../STM32Cube_FW_N6/Drivers/STM32N6xx_HAL_Driver/Src/stm32n6xx_hal_rif.c ****     assert_param(IS_RISAF_GRANULARITY(RISAFx, (pConfig->EndAddress + 1U)));
 1898              		.loc 1 585 5 discriminator 32 view .LVU437
 1899 03c2 7369     		ldr	r3, [r6, #20]
 1900 03c4 B3F1805F 		cmp	r3, #268435456
 1901 03c8 45E7     		b	.L296
 1902              	.L186:
 584:../STM32Cube_FW_N6/Drivers/STM32N6xx_HAL_Driver/Src/stm32n6xx_hal_rif.c ****     assert_param(IS_RISAF_LIMIT_ADDRESS_SPACE_SIZE(RISAFx, pConfig->StartAddress));
 1903              		.loc 1 584 5 discriminator 29 view .LVU438
 1904 03ca 704A     		ldr	r2, .L313+44
 1905 03cc 9442     		cmp	r4, r2
 1906 03ce F4D0     		beq	.L306
 584:../STM32Cube_FW_N6/Drivers/STM32N6xx_HAL_Driver/Src/stm32n6xx_hal_rif.c ****     assert_param(IS_RISAF_LIMIT_ADDRESS_SPACE_SIZE(RISAFx, pConfig->StartAddress));
 1907              		.loc 1 584 5 discriminator 32 view .LVU439
 1908 03d0 6F4A     		ldr	r2, .L313+48
 1909 03d2 9442     		cmp	r4, r2
 1910 03d4 F1D0     		beq	.L306
 584:../STM32Cube_FW_N6/Drivers/STM32N6xx_HAL_Driver/Src/stm32n6xx_hal_rif.c ****     assert_param(IS_RISAF_LIMIT_ADDRESS_SPACE_SIZE(RISAFx, pConfig->StartAddress));
 1911              		.loc 1 584 5 discriminator 35 view .LVU440
 1912 03d6 6F4A     		ldr	r2, .L313+52
 1913 03d8 9442     		cmp	r4, r2
 1914 03da EED0     		beq	.L306
 584:../STM32Cube_FW_N6/Drivers/STM32N6xx_HAL_Driver/Src/stm32n6xx_hal_rif.c ****     assert_param(IS_RISAF_LIMIT_ADDRESS_SPACE_SIZE(RISAFx, pConfig->StartAddress));
 1915              		.loc 1 584 5 discriminator 38 view .LVU441
 1916 03dc 6E4A     		ldr	r2, .L313+56
 1917 03de 9442     		cmp	r4, r2
 1918 03e0 05D1     		bne	.L190
 584:../STM32Cube_FW_N6/Drivers/STM32N6xx_HAL_Driver/Src/stm32n6xx_hal_rif.c ****     assert_param(IS_RISAF_LIMIT_ADDRESS_SPACE_SIZE(RISAFx, pConfig->StartAddress));
 1919              		.loc 1 584 5 discriminator 56 view .LVU442
 1920 03e2 9A07     		lsls	r2, r3, #30
 1921 03e4 80D1     		bne	.L170
 1922              	.L303:
 585:../STM32Cube_FW_N6/Drivers/STM32N6xx_HAL_Driver/Src/stm32n6xx_hal_rif.c ****     assert_param(IS_RISAF_GRANULARITY(RISAFx, (pConfig->EndAddress + 1U)));
 1923              		.loc 1 585 5 discriminator 44 view .LVU443
 1924 03e6 7369     		ldr	r3, [r6, #20]
 1925 03e8 B3F5805F 		cmp	r3, #4096
 1926 03ec 33E7     		b	.L296
 1927              	.L190:
 584:../STM32Cube_FW_N6/Drivers/STM32N6xx_HAL_Driver/Src/stm32n6xx_hal_rif.c ****     assert_param(IS_RISAF_LIMIT_ADDRESS_SPACE_SIZE(RISAFx, pConfig->StartAddress));
 1928              		.loc 1 584 5 discriminator 41 view .LVU444
 1929 03ee C3F30803 		ubfx	r3, r3, #0, #9
 584:../STM32Cube_FW_N6/Drivers/STM32N6xx_HAL_Driver/Src/stm32n6xx_hal_rif.c ****     assert_param(IS_RISAF_LIMIT_ADDRESS_SPACE_SIZE(RISAFx, pConfig->StartAddress));
 1930              		.loc 1 584 5 discriminator 56 view .LVU445
 1931 03f2 002B     		cmp	r3, #0
 1932 03f4 7FF478AF 		bne	.L170
 1933              	.L191:
 585:../STM32Cube_FW_N6/Drivers/STM32N6xx_HAL_Driver/Src/stm32n6xx_hal_rif.c ****     assert_param(IS_RISAF_GRANULARITY(RISAFx, (pConfig->EndAddress + 1U)));
 1934              		.loc 1 585 5 discriminator 36 view .LVU446
 1935 03f8 684B     		ldr	r3, .L313+60
ARM GAS  /tmp/ccHKmbxS.s 			page 53


 1936 03fa 9C42     		cmp	r4, r3
 1937 03fc 03D1     		bne	.L207
 1938              	.L208:
 585:../STM32Cube_FW_N6/Drivers/STM32N6xx_HAL_Driver/Src/stm32n6xx_hal_rif.c ****     assert_param(IS_RISAF_GRANULARITY(RISAFx, (pConfig->EndAddress + 1U)));
 1939              		.loc 1 585 5 discriminator 38 view .LVU447
 1940 03fe 7369     		ldr	r3, [r6, #20]
 1941 0400 B3F5005F 		cmp	r3, #8192
 1942 0404 27E7     		b	.L296
 1943              	.L207:
 585:../STM32Cube_FW_N6/Drivers/STM32N6xx_HAL_Driver/Src/stm32n6xx_hal_rif.c ****     assert_param(IS_RISAF_GRANULARITY(RISAFx, (pConfig->EndAddress + 1U)));
 1944              		.loc 1 585 5 discriminator 39 view .LVU448
 1945 0406 664B     		ldr	r3, .L313+64
 1946 0408 9C42     		cmp	r4, r3
 1947 040a F8D0     		beq	.L208
 585:../STM32Cube_FW_N6/Drivers/STM32N6xx_HAL_Driver/Src/stm32n6xx_hal_rif.c ****     assert_param(IS_RISAF_GRANULARITY(RISAFx, (pConfig->EndAddress + 1U)));
 1948              		.loc 1 585 5 discriminator 42 view .LVU449
 1949 040c 03F58053 		add	r3, r3, #4096
 1950 0410 9C42     		cmp	r4, r3
 1951 0412 E8D0     		beq	.L303
 1952              	.L171:
 585:../STM32Cube_FW_N6/Drivers/STM32N6xx_HAL_Driver/Src/stm32n6xx_hal_rif.c ****     assert_param(IS_RISAF_GRANULARITY(RISAFx, (pConfig->EndAddress + 1U)));
 1953              		.loc 1 585 5 discriminator 45 view .LVU450
 1954 0414 40F24921 		movw	r1, #585
 1955 0418 5248     		ldr	r0, .L313+4
 1956 041a FFF7FEFF 		bl	assert_failed
 1957              	.LVL99:
 586:../STM32Cube_FW_N6/Drivers/STM32N6xx_HAL_Driver/Src/stm32n6xx_hal_rif.c ****     assert_param(IS_RISAF_LIMIT_ADDRESS_SPACE_SIZE(RISAFx, pConfig->EndAddress));
 1958              		.loc 1 586 5 is_stmt 1 view .LVU451
 1959 041e 524B     		ldr	r3, .L313+8
 1960 0420 9C42     		cmp	r4, r3
 1961 0422 3FF4D5AE 		beq	.L174
 586:../STM32Cube_FW_N6/Drivers/STM32N6xx_HAL_Driver/Src/stm32n6xx_hal_rif.c ****     assert_param(IS_RISAF_LIMIT_ADDRESS_SPACE_SIZE(RISAFx, pConfig->EndAddress));
 1962              		.loc 1 586 5 is_stmt 0 discriminator 2 view .LVU452
 1963 0426 514B     		ldr	r3, .L313+12
 1964 0428 9C42     		cmp	r4, r3
 1965 042a 3FF4D1AE 		beq	.L174
 1966 042e 14E7     		b	.L209
 1967              	.L182:
 586:../STM32Cube_FW_N6/Drivers/STM32N6xx_HAL_Driver/Src/stm32n6xx_hal_rif.c ****     assert_param(IS_RISAF_LIMIT_ADDRESS_SPACE_SIZE(RISAFx, pConfig->EndAddress));
 1968              		.loc 1 586 5 discriminator 16 view .LVU453
 1969 0430 B369     		ldr	r3, [r6, #24]
 1970 0432 1B05     		lsls	r3, r3, #20
 586:../STM32Cube_FW_N6/Drivers/STM32N6xx_HAL_Driver/Src/stm32n6xx_hal_rif.c ****     assert_param(IS_RISAF_LIMIT_ADDRESS_SPACE_SIZE(RISAFx, pConfig->EndAddress));
 1971              		.loc 1 586 5 discriminator 56 view .LVU454
 1972 0434 13F5801F 		cmn	r3, #1048576
 1973 0438 3FF4DDAE 		beq	.L210
 1974              	.L211:
 586:../STM32Cube_FW_N6/Drivers/STM32N6xx_HAL_Driver/Src/stm32n6xx_hal_rif.c ****     assert_param(IS_RISAF_LIMIT_ADDRESS_SPACE_SIZE(RISAFx, pConfig->EndAddress));
 1975              		.loc 1 586 5 discriminator 57 view .LVU455
 1976 043c 40F24A21 		movw	r1, #586
 1977 0440 4848     		ldr	r0, .L313+4
 1978 0442 FFF7FEFF 		bl	assert_failed
 1979              	.LVL100:
 1980 0446 CDE6     		b	.L241
 1981              	.L217:
 586:../STM32Cube_FW_N6/Drivers/STM32N6xx_HAL_Driver/Src/stm32n6xx_hal_rif.c ****     assert_param(IS_RISAF_LIMIT_ADDRESS_SPACE_SIZE(RISAFx, pConfig->EndAddress));
 1982              		.loc 1 586 5 discriminator 38 view .LVU456
ARM GAS  /tmp/ccHKmbxS.s 			page 54


 1983 0448 534A     		ldr	r2, .L313+56
 1984 044a 9442     		cmp	r4, r2
 1985 044c 05D1     		bne	.L219
 586:../STM32Cube_FW_N6/Drivers/STM32N6xx_HAL_Driver/Src/stm32n6xx_hal_rif.c ****     assert_param(IS_RISAF_LIMIT_ADDRESS_SPACE_SIZE(RISAFx, pConfig->EndAddress));
 1986              		.loc 1 586 5 discriminator 56 view .LVU457
 1987 044e 9B07     		lsls	r3, r3, #30
 1988 0450 F4D1     		bne	.L211
 1989              	.L220:
 587:../STM32Cube_FW_N6/Drivers/STM32N6xx_HAL_Driver/Src/stm32n6xx_hal_rif.c ****     assert_param(pConfig->StartAddress < pConfig->EndAddress);
 1990              		.loc 1 587 5 discriminator 35 view .LVU458
 1991 0452 B369     		ldr	r3, [r6, #24]
 1992 0454 B3F5805F 		cmp	r3, #4096
 1993 0458 CBE6     		b	.L299
 1994              	.L219:
 586:../STM32Cube_FW_N6/Drivers/STM32N6xx_HAL_Driver/Src/stm32n6xx_hal_rif.c ****     assert_param(IS_RISAF_LIMIT_ADDRESS_SPACE_SIZE(RISAFx, pConfig->EndAddress));
 1995              		.loc 1 586 5 discriminator 41 view .LVU459
 1996 045a C3F30803 		ubfx	r3, r3, #0, #9
 586:../STM32Cube_FW_N6/Drivers/STM32N6xx_HAL_Driver/Src/stm32n6xx_hal_rif.c ****     assert_param(IS_RISAF_LIMIT_ADDRESS_SPACE_SIZE(RISAFx, pConfig->EndAddress));
 1997              		.loc 1 586 5 discriminator 56 view .LVU460
 1998 045e 002B     		cmp	r3, #0
 1999 0460 ECD1     		bne	.L211
 2000              	.L221:
 587:../STM32Cube_FW_N6/Drivers/STM32N6xx_HAL_Driver/Src/stm32n6xx_hal_rif.c ****     assert_param(pConfig->StartAddress < pConfig->EndAddress);
 2001              		.loc 1 587 5 discriminator 36 view .LVU461
 2002 0462 4E4B     		ldr	r3, .L313+60
 2003 0464 9C42     		cmp	r4, r3
 2004 0466 49D1     		bne	.L230
 2005              	.L231:
 587:../STM32Cube_FW_N6/Drivers/STM32N6xx_HAL_Driver/Src/stm32n6xx_hal_rif.c ****     assert_param(pConfig->StartAddress < pConfig->EndAddress);
 2006              		.loc 1 587 5 discriminator 38 view .LVU462
 2007 0468 B369     		ldr	r3, [r6, #24]
 2008 046a B3F5005F 		cmp	r3, #8192
 2009 046e C0E6     		b	.L299
 2010              	.L222:
 587:../STM32Cube_FW_N6/Drivers/STM32N6xx_HAL_Driver/Src/stm32n6xx_hal_rif.c ****     assert_param(pConfig->StartAddress < pConfig->EndAddress);
 2011              		.loc 1 587 5 discriminator 3 view .LVU463
 2012 0470 3E4B     		ldr	r3, .L313+12
 2013 0472 9C42     		cmp	r4, r3
 2014 0474 03D1     		bne	.L224
 2015              	.L225:
 587:../STM32Cube_FW_N6/Drivers/STM32N6xx_HAL_Driver/Src/stm32n6xx_hal_rif.c ****     assert_param(pConfig->StartAddress < pConfig->EndAddress);
 2016              		.loc 1 587 5 discriminator 5 view .LVU464
 2017 0476 B369     		ldr	r3, [r6, #24]
 2018 0478 B3F5801F 		cmp	r3, #1048576
 2019 047c B9E6     		b	.L299
 2020              	.L224:
 587:../STM32Cube_FW_N6/Drivers/STM32N6xx_HAL_Driver/Src/stm32n6xx_hal_rif.c ****     assert_param(pConfig->StartAddress < pConfig->EndAddress);
 2021              		.loc 1 587 5 discriminator 6 view .LVU465
 2022 047e 3C4B     		ldr	r3, .L313+16
 2023 0480 9C42     		cmp	r4, r3
 2024 0482 F8D0     		beq	.L225
 587:../STM32Cube_FW_N6/Drivers/STM32N6xx_HAL_Driver/Src/stm32n6xx_hal_rif.c ****     assert_param(pConfig->StartAddress < pConfig->EndAddress);
 2025              		.loc 1 587 5 discriminator 9 view .LVU466
 2026 0484 03F58053 		add	r3, r3, #4096
 2027 0488 9C42     		cmp	r4, r3
 2028 048a 3FF4B4AE 		beq	.L210
 587:../STM32Cube_FW_N6/Drivers/STM32N6xx_HAL_Driver/Src/stm32n6xx_hal_rif.c ****     assert_param(pConfig->StartAddress < pConfig->EndAddress);
ARM GAS  /tmp/ccHKmbxS.s 			page 55


 2029              		.loc 1 587 5 discriminator 10 view .LVU467
 2030 048e 03F58053 		add	r3, r3, #4096
 2031 0492 9C42     		cmp	r4, r3
 2032 0494 3FF4AFAE 		beq	.L210
 587:../STM32Cube_FW_N6/Drivers/STM32N6xx_HAL_Driver/Src/stm32n6xx_hal_rif.c ****     assert_param(pConfig->StartAddress < pConfig->EndAddress);
 2033              		.loc 1 587 5 discriminator 11 view .LVU468
 2034 0498 03F58053 		add	r3, r3, #4096
 2035 049c 9C42     		cmp	r4, r3
 2036 049e 3FF4AAAE 		beq	.L210
 587:../STM32Cube_FW_N6/Drivers/STM32N6xx_HAL_Driver/Src/stm32n6xx_hal_rif.c ****     assert_param(pConfig->StartAddress < pConfig->EndAddress);
 2037              		.loc 1 587 5 discriminator 12 view .LVU469
 2038 04a2 03F58053 		add	r3, r3, #4096
 2039 04a6 9C42     		cmp	r4, r3
 2040 04a8 03D1     		bne	.L226
 587:../STM32Cube_FW_N6/Drivers/STM32N6xx_HAL_Driver/Src/stm32n6xx_hal_rif.c ****     assert_param(pConfig->StartAddress < pConfig->EndAddress);
 2041              		.loc 1 587 5 discriminator 14 view .LVU470
 2042 04aa B369     		ldr	r3, [r6, #24]
 2043 04ac B3F5002F 		cmp	r3, #524288
 2044 04b0 9FE6     		b	.L299
 2045              	.L226:
 587:../STM32Cube_FW_N6/Drivers/STM32N6xx_HAL_Driver/Src/stm32n6xx_hal_rif.c ****     assert_param(pConfig->StartAddress < pConfig->EndAddress);
 2046              		.loc 1 587 5 discriminator 15 view .LVU471
 2047 04b2 334B     		ldr	r3, .L313+32
 2048 04b4 9C42     		cmp	r4, r3
 2049 04b6 03D1     		bne	.L227
 587:../STM32Cube_FW_N6/Drivers/STM32N6xx_HAL_Driver/Src/stm32n6xx_hal_rif.c ****     assert_param(pConfig->StartAddress < pConfig->EndAddress);
 2050              		.loc 1 587 5 discriminator 17 view .LVU472
 2051 04b8 B369     		ldr	r3, [r6, #24]
 2052 04ba B3F5802F 		cmp	r3, #262144
 2053 04be 98E6     		b	.L299
 2054              	.L227:
 587:../STM32Cube_FW_N6/Drivers/STM32N6xx_HAL_Driver/Src/stm32n6xx_hal_rif.c ****     assert_param(pConfig->StartAddress < pConfig->EndAddress);
 2055              		.loc 1 587 5 discriminator 18 view .LVU473
 2056 04c0 304B     		ldr	r3, .L313+36
 2057 04c2 9C42     		cmp	r4, r3
 2058 04c4 03D1     		bne	.L228
 587:../STM32Cube_FW_N6/Drivers/STM32N6xx_HAL_Driver/Src/stm32n6xx_hal_rif.c ****     assert_param(pConfig->StartAddress < pConfig->EndAddress);
 2059              		.loc 1 587 5 discriminator 20 view .LVU474
 2060 04c6 B369     		ldr	r3, [r6, #24]
 2061 04c8 B3F5003F 		cmp	r3, #131072
 2062 04cc 91E6     		b	.L299
 2063              	.L228:
 587:../STM32Cube_FW_N6/Drivers/STM32N6xx_HAL_Driver/Src/stm32n6xx_hal_rif.c ****     assert_param(pConfig->StartAddress < pConfig->EndAddress);
 2064              		.loc 1 587 5 discriminator 21 view .LVU475
 2065 04ce 2E4B     		ldr	r3, .L313+40
 2066 04d0 9C42     		cmp	r4, r3
 2067 04d2 3FF4E3AE 		beq	.L218
 587:../STM32Cube_FW_N6/Drivers/STM32N6xx_HAL_Driver/Src/stm32n6xx_hal_rif.c ****     assert_param(pConfig->StartAddress < pConfig->EndAddress);
 2068              		.loc 1 587 5 discriminator 24 view .LVU476
 2069 04d6 2D4B     		ldr	r3, .L313+44
 2070 04d8 9C42     		cmp	r4, r3
 2071 04da 3FF4DFAE 		beq	.L218
 587:../STM32Cube_FW_N6/Drivers/STM32N6xx_HAL_Driver/Src/stm32n6xx_hal_rif.c ****     assert_param(pConfig->StartAddress < pConfig->EndAddress);
 2072              		.loc 1 587 5 discriminator 27 view .LVU477
 2073 04de 03F58053 		add	r3, r3, #4096
 2074 04e2 9C42     		cmp	r4, r3
 2075 04e4 3FF4DAAE 		beq	.L218
ARM GAS  /tmp/ccHKmbxS.s 			page 56


 587:../STM32Cube_FW_N6/Drivers/STM32N6xx_HAL_Driver/Src/stm32n6xx_hal_rif.c ****     assert_param(pConfig->StartAddress < pConfig->EndAddress);
 2076              		.loc 1 587 5 discriminator 30 view .LVU478
 2077 04e8 03F58053 		add	r3, r3, #4096
 2078 04ec 9C42     		cmp	r4, r3
 2079 04ee 3FF4D5AE 		beq	.L218
 587:../STM32Cube_FW_N6/Drivers/STM32N6xx_HAL_Driver/Src/stm32n6xx_hal_rif.c ****     assert_param(pConfig->StartAddress < pConfig->EndAddress);
 2080              		.loc 1 587 5 discriminator 33 view .LVU479
 2081 04f2 03F58053 		add	r3, r3, #4096
 2082 04f6 9C42     		cmp	r4, r3
 2083 04f8 B3D1     		bne	.L221
 2084 04fa AAE7     		b	.L220
 2085              	.L230:
 587:../STM32Cube_FW_N6/Drivers/STM32N6xx_HAL_Driver/Src/stm32n6xx_hal_rif.c ****     assert_param(pConfig->StartAddress < pConfig->EndAddress);
 2086              		.loc 1 587 5 discriminator 39 view .LVU480
 2087 04fc 284B     		ldr	r3, .L313+64
 2088 04fe 9C42     		cmp	r4, r3
 2089 0500 B2D0     		beq	.L231
 587:../STM32Cube_FW_N6/Drivers/STM32N6xx_HAL_Driver/Src/stm32n6xx_hal_rif.c ****     assert_param(pConfig->StartAddress < pConfig->EndAddress);
 2090              		.loc 1 587 5 discriminator 42 view .LVU481
 2091 0502 03F58053 		add	r3, r3, #4096
 2092 0506 9C42     		cmp	r4, r3
 2093 0508 A3D0     		beq	.L220
 2094              	.L223:
 587:../STM32Cube_FW_N6/Drivers/STM32N6xx_HAL_Driver/Src/stm32n6xx_hal_rif.c ****     assert_param(pConfig->StartAddress < pConfig->EndAddress);
 2095              		.loc 1 587 5 discriminator 45 view .LVU482
 2096 050a 40F24B21 		movw	r1, #587
 2097 050e 1548     		ldr	r0, .L313+4
 2098 0510 FFF7FEFF 		bl	assert_failed
 2099              	.LVL101:
 2100 0514 6FE6     		b	.L210
 2101              	.LVL102:
 2102              	.L144:
 568:../STM32Cube_FW_N6/Drivers/STM32N6xx_HAL_Driver/Src/stm32n6xx_hal_rif.c ****   assert_param(IS_RISAF_MAX_REGION(RISAFx, Region));
 2103              		.loc 1 568 3 is_stmt 1 view .LVU483
 2104 0516 0E2D     		cmp	r5, #14
 2105 0518 7FF6ECAD 		bls	.L238
 2106              	.L237:
 568:../STM32Cube_FW_N6/Drivers/STM32N6xx_HAL_Driver/Src/stm32n6xx_hal_rif.c ****   assert_param(IS_RISAF_MAX_REGION(RISAFx, Region));
 2107              		.loc 1 568 3 is_stmt 0 discriminator 1 view .LVU484
 2108 051c 4FF40E71 		mov	r1, #568
 2109 0520 1048     		ldr	r0, .L313+4
 2110 0522 FFF7FEFF 		bl	assert_failed
 2111              	.LVL103:
 569:../STM32Cube_FW_N6/Drivers/STM32N6xx_HAL_Driver/Src/stm32n6xx_hal_rif.c **** 
 2112              		.loc 1 569 3 is_stmt 1 view .LVU485
 2113 0526 104B     		ldr	r3, .L313+8
 2114 0528 9C42     		cmp	r4, r3
 2115 052a 7FF4D0AD 		bne	.L156
 2116              	.L158:
 569:../STM32Cube_FW_N6/Drivers/STM32N6xx_HAL_Driver/Src/stm32n6xx_hal_rif.c **** 
 2117              		.loc 1 569 3 is_stmt 0 discriminator 1 view .LVU486
 2118 052e 062D     		cmp	r5, #6
 2119              	.L301:
 569:../STM32Cube_FW_N6/Drivers/STM32N6xx_HAL_Driver/Src/stm32n6xx_hal_rif.c **** 
 2120              		.loc 1 569 3 discriminator 47 view .LVU487
 2121 0530 8CBF     		ite	hi
 2122 0532 0023     		movhi	r3, #0
ARM GAS  /tmp/ccHKmbxS.s 			page 57


 2123 0534 0123     		movls	r3, #1
 569:../STM32Cube_FW_N6/Drivers/STM32N6xx_HAL_Driver/Src/stm32n6xx_hal_rif.c **** 
 2124              		.loc 1 569 3 discriminator 64 view .LVU488
 2125 0536 002B     		cmp	r3, #0
 2126 0538 3FF4D6AD 		beq	.L159
 2127              	.L242:
 572:../STM32Cube_FW_N6/Drivers/STM32N6xx_HAL_Driver/Src/stm32n6xx_hal_rif.c ****   {
 2128              		.loc 1 572 3 is_stmt 1 view .LVU489
 572:../STM32Cube_FW_N6/Drivers/STM32N6xx_HAL_Driver/Src/stm32n6xx_hal_rif.c ****   {
 2129              		.loc 1 572 14 is_stmt 0 view .LVU490
 2130 053c 3368     		ldr	r3, [r6]
 2131 053e AD01     		lsls	r5, r5, #6
 2132              	.LVL104:
 572:../STM32Cube_FW_N6/Drivers/STM32N6xx_HAL_Driver/Src/stm32n6xx_hal_rif.c ****   {
 2133              		.loc 1 572 6 view .LVU491
 2134 0540 002B     		cmp	r3, #0
 2135 0542 7FF410AE 		bne	.L162
 574:../STM32Cube_FW_N6/Drivers/STM32N6xx_HAL_Driver/Src/stm32n6xx_hal_rif.c ****   }
 2136              		.loc 1 574 5 is_stmt 1 view .LVU492
 2137 0546 2C44     		add	r4, r4, r5
 2138              	.LVL105:
 574:../STM32Cube_FW_N6/Drivers/STM32N6xx_HAL_Driver/Src/stm32n6xx_hal_rif.c ****   }
 2139              		.loc 1 574 24 is_stmt 0 view .LVU493
 2140 0548 236C     		ldr	r3, [r4, #64]
 574:../STM32Cube_FW_N6/Drivers/STM32N6xx_HAL_Driver/Src/stm32n6xx_hal_rif.c ****   }
 2141              		.loc 1 574 30 view .LVU494
 2142 054a 23F00103 		bic	r3, r3, #1
 2143              	.L302:
 596:../STM32Cube_FW_N6/Drivers/STM32N6xx_HAL_Driver/Src/stm32n6xx_hal_rif.c ****                                 | (pConfig->PrivWhitelist << RISAF_REGx_CFGR_PRIVC0_Pos));
 2144              		.loc 1 596 30 view .LVU495
 2145 054e 2364     		str	r3, [r4, #64]
 598:../STM32Cube_FW_N6/Drivers/STM32N6xx_HAL_Driver/Src/stm32n6xx_hal_rif.c ****   }
 599:../STM32Cube_FW_N6/Drivers/STM32N6xx_HAL_Driver/Src/stm32n6xx_hal_rif.c **** }
 2146              		.loc 1 599 1 view .LVU496
 2147 0550 70BD     		pop	{r4, r5, r6, pc}
 2148              	.LVL106:
 2149              	.L152:
 568:../STM32Cube_FW_N6/Drivers/STM32N6xx_HAL_Driver/Src/stm32n6xx_hal_rif.c ****   assert_param(IS_RISAF_MAX_REGION(RISAFx, Region));
 2150              		.loc 1 568 3 is_stmt 1 view .LVU497
 2151 0552 0E2D     		cmp	r5, #14
 2152 0554 E2D8     		bhi	.L237
 569:../STM32Cube_FW_N6/Drivers/STM32N6xx_HAL_Driver/Src/stm32n6xx_hal_rif.c **** 
 2153              		.loc 1 569 3 is_stmt 0 discriminator 40 view .LVU498
 2154 0556 012D     		cmp	r5, #1
 2155 0558 EAE7     		b	.L301
 2156              	.L141:
 568:../STM32Cube_FW_N6/Drivers/STM32N6xx_HAL_Driver/Src/stm32n6xx_hal_rif.c ****   assert_param(IS_RISAF_MAX_REGION(RISAFx, Region));
 2157              		.loc 1 568 3 is_stmt 1 view .LVU499
 2158 055a 0E2D     		cmp	r5, #14
 2159 055c E7D9     		bls	.L158
 2160 055e DDE7     		b	.L237
 2161              	.L314:
 2162              		.align	2
 2163              	.L313:
 2164 0560 00900254 		.word	1409454080
 2165 0564 00000000 		.word	.LC0
 2166 0568 00600254 		.word	1409441792
ARM GAS  /tmp/ccHKmbxS.s 			page 58


 2167 056c 00700254 		.word	1409445888
 2168 0570 00800254 		.word	1409449984
 2169 0574 00A00254 		.word	1409458176
 2170 0578 00B00254 		.word	1409462272
 2171 057c 00C00254 		.word	1409466368
 2172 0580 00D00254 		.word	1409470464
 2173 0584 00E00254 		.word	1409474560
 2174 0588 00000354 		.word	1409482752
 2175 058c 00100354 		.word	1409486848
 2176 0590 00200354 		.word	1409490944
 2177 0594 00300354 		.word	1409495040
 2178 0598 00400354 		.word	1409499136
 2179 059c 00500354 		.word	1409503232
 2180 05a0 00600354 		.word	1409507328
 2181              		.cfi_endproc
 2182              	.LFE895:
 2184              		.section	.text.HAL_RIF_RISAF_GetConfigBaseRegion,"ax",%progbits
 2185              		.align	1
 2186              		.global	HAL_RIF_RISAF_GetConfigBaseRegion
 2187              		.syntax unified
 2188              		.thumb
 2189              		.thumb_func
 2191              	HAL_RIF_RISAF_GetConfigBaseRegion:
 2192              	.LVL107:
 2193              	.LFB896:
 600:../STM32Cube_FW_N6/Drivers/STM32N6xx_HAL_Driver/Src/stm32n6xx_hal_rif.c **** #endif /* defined(CPU_AS_TRUSTED_DOMAIN) */
 601:../STM32Cube_FW_N6/Drivers/STM32N6xx_HAL_Driver/Src/stm32n6xx_hal_rif.c **** 
 602:../STM32Cube_FW_N6/Drivers/STM32N6xx_HAL_Driver/Src/stm32n6xx_hal_rif.c **** /**
 603:../STM32Cube_FW_N6/Drivers/STM32N6xx_HAL_Driver/Src/stm32n6xx_hal_rif.c ****   * @brief  Get the configuration of a RISAF Base region.
 604:../STM32Cube_FW_N6/Drivers/STM32N6xx_HAL_Driver/Src/stm32n6xx_hal_rif.c ****   * @param  RISAFx specifies the RISAF instance.
 605:../STM32Cube_FW_N6/Drivers/STM32N6xx_HAL_Driver/Src/stm32n6xx_hal_rif.c ****   *         This parameter is one of the RISAF instances defined in the CMSIS.
 606:../STM32Cube_FW_N6/Drivers/STM32N6xx_HAL_Driver/Src/stm32n6xx_hal_rif.c ****   * @param  Region specifies the RISAF region index
 607:../STM32Cube_FW_N6/Drivers/STM32N6xx_HAL_Driver/Src/stm32n6xx_hal_rif.c ****   *         This parameter can be one one of the following values:
 608:../STM32Cube_FW_N6/Drivers/STM32N6xx_HAL_Driver/Src/stm32n6xx_hal_rif.c ****   *           @arg @ref RISAF_REGION_1
 609:../STM32Cube_FW_N6/Drivers/STM32N6xx_HAL_Driver/Src/stm32n6xx_hal_rif.c ****   *           @arg @ref RISAF_REGION_2
 610:../STM32Cube_FW_N6/Drivers/STM32N6xx_HAL_Driver/Src/stm32n6xx_hal_rif.c ****   *           @arg @ref RISAF_REGION_3
 611:../STM32Cube_FW_N6/Drivers/STM32N6xx_HAL_Driver/Src/stm32n6xx_hal_rif.c ****   *           @arg @ref RISAF_REGION_4
 612:../STM32Cube_FW_N6/Drivers/STM32N6xx_HAL_Driver/Src/stm32n6xx_hal_rif.c ****   *           @arg @ref RISAF_REGION_5
 613:../STM32Cube_FW_N6/Drivers/STM32N6xx_HAL_Driver/Src/stm32n6xx_hal_rif.c ****   *           @arg @ref RISAF_REGION_6
 614:../STM32Cube_FW_N6/Drivers/STM32N6xx_HAL_Driver/Src/stm32n6xx_hal_rif.c ****   *           @arg @ref RISAF_REGION_7
 615:../STM32Cube_FW_N6/Drivers/STM32N6xx_HAL_Driver/Src/stm32n6xx_hal_rif.c ****   *           @arg @ref RISAF_REGION_8
 616:../STM32Cube_FW_N6/Drivers/STM32N6xx_HAL_Driver/Src/stm32n6xx_hal_rif.c ****   *           @arg @ref RISAF_REGION_9
 617:../STM32Cube_FW_N6/Drivers/STM32N6xx_HAL_Driver/Src/stm32n6xx_hal_rif.c ****   *           @arg @ref RISAF_REGION_10
 618:../STM32Cube_FW_N6/Drivers/STM32N6xx_HAL_Driver/Src/stm32n6xx_hal_rif.c ****   *           @arg @ref RISAF_REGION_11
 619:../STM32Cube_FW_N6/Drivers/STM32N6xx_HAL_Driver/Src/stm32n6xx_hal_rif.c ****   *           @arg @ref RISAF_REGION_12
 620:../STM32Cube_FW_N6/Drivers/STM32N6xx_HAL_Driver/Src/stm32n6xx_hal_rif.c ****   *           @arg @ref RISAF_REGION_13
 621:../STM32Cube_FW_N6/Drivers/STM32N6xx_HAL_Driver/Src/stm32n6xx_hal_rif.c ****   *           @arg @ref RISAF_REGION_14
 622:../STM32Cube_FW_N6/Drivers/STM32N6xx_HAL_Driver/Src/stm32n6xx_hal_rif.c ****   *           @arg @ref RISAF_REGION_15
 623:../STM32Cube_FW_N6/Drivers/STM32N6xx_HAL_Driver/Src/stm32n6xx_hal_rif.c ****   * @param  pConfig Pointer on RISAF Base Region configuration structure
 624:../STM32Cube_FW_N6/Drivers/STM32N6xx_HAL_Driver/Src/stm32n6xx_hal_rif.c ****   * @retval None
 625:../STM32Cube_FW_N6/Drivers/STM32N6xx_HAL_Driver/Src/stm32n6xx_hal_rif.c ****   */
 626:../STM32Cube_FW_N6/Drivers/STM32N6xx_HAL_Driver/Src/stm32n6xx_hal_rif.c **** void HAL_RIF_RISAF_GetConfigBaseRegion(const RISAF_TypeDef *RISAFx, uint32_t Region, RISAF_BaseRegi
 627:../STM32Cube_FW_N6/Drivers/STM32N6xx_HAL_Driver/Src/stm32n6xx_hal_rif.c **** {
 2194              		.loc 1 627 1 view -0
 2195              		.cfi_startproc
 2196              		@ args = 0, pretend = 0, frame = 0
 2197              		@ frame_needed = 0, uses_anonymous_args = 0
ARM GAS  /tmp/ccHKmbxS.s 			page 59


 628:../STM32Cube_FW_N6/Drivers/STM32N6xx_HAL_Driver/Src/stm32n6xx_hal_rif.c ****   uint32_t cfgr_reg;
 2198              		.loc 1 628 3 view .LVU501
 629:../STM32Cube_FW_N6/Drivers/STM32N6xx_HAL_Driver/Src/stm32n6xx_hal_rif.c ****   uint32_t cidcfgr_reg;
 2199              		.loc 1 629 3 view .LVU502
 630:../STM32Cube_FW_N6/Drivers/STM32N6xx_HAL_Driver/Src/stm32n6xx_hal_rif.c **** 
 631:../STM32Cube_FW_N6/Drivers/STM32N6xx_HAL_Driver/Src/stm32n6xx_hal_rif.c ****   /* Check the parameters */
 632:../STM32Cube_FW_N6/Drivers/STM32N6xx_HAL_Driver/Src/stm32n6xx_hal_rif.c ****   assert_param(IS_RISAF_INSTANCE(RISAFx));
 2200              		.loc 1 632 3 view .LVU503
 2201 0000 434B     		ldr	r3, .L364
 627:../STM32Cube_FW_N6/Drivers/STM32N6xx_HAL_Driver/Src/stm32n6xx_hal_rif.c ****   uint32_t cfgr_reg;
 2202              		.loc 1 627 1 is_stmt 0 view .LVU504
 2203 0002 70B5     		push	{r4, r5, r6, lr}
 2204              		.cfi_def_cfa_offset 16
 2205              		.cfi_offset 4, -16
 2206              		.cfi_offset 5, -12
 2207              		.cfi_offset 6, -8
 2208              		.cfi_offset 14, -4
 2209              		.loc 1 632 3 view .LVU505
 2210 0004 9842     		cmp	r0, r3
 627:../STM32Cube_FW_N6/Drivers/STM32N6xx_HAL_Driver/Src/stm32n6xx_hal_rif.c ****   uint32_t cfgr_reg;
 2211              		.loc 1 627 1 view .LVU506
 2212 0006 0546     		mov	r5, r0
 2213 0008 0C46     		mov	r4, r1
 2214 000a 1646     		mov	r6, r2
 2215              		.loc 1 632 3 view .LVU507
 2216 000c 57D0     		beq	.L318
 2217              		.loc 1 632 3 discriminator 1 view .LVU508
 2218 000e 03F58053 		add	r3, r3, #4096
 2219 0012 9842     		cmp	r0, r3
 2220 0014 53D0     		beq	.L318
 2221              		.loc 1 632 3 discriminator 2 view .LVU509
 2222 0016 03F58053 		add	r3, r3, #4096
 2223 001a 9842     		cmp	r0, r3
 2224 001c 4FD0     		beq	.L318
 2225              		.loc 1 632 3 discriminator 3 view .LVU510
 2226 001e 03F58053 		add	r3, r3, #4096
 2227 0022 9842     		cmp	r0, r3
 2228 0024 4FD0     		beq	.L319
 2229              		.loc 1 632 3 discriminator 4 view .LVU511
 2230 0026 03F58053 		add	r3, r3, #4096
 2231 002a 9842     		cmp	r0, r3
 2232 002c 4BD0     		beq	.L319
 2233              		.loc 1 632 3 discriminator 5 view .LVU512
 2234 002e 03F58053 		add	r3, r3, #4096
 2235 0032 9842     		cmp	r0, r3
 2236 0034 47D0     		beq	.L319
 2237              		.loc 1 632 3 discriminator 6 view .LVU513
 2238 0036 03F58053 		add	r3, r3, #4096
 2239 003a 9842     		cmp	r0, r3
 2240 003c 3FD0     		beq	.L318
 2241              		.loc 1 632 3 discriminator 7 view .LVU514
 2242 003e 03F58053 		add	r3, r3, #4096
 2243 0042 9842     		cmp	r0, r3
 2244 0044 3BD0     		beq	.L318
 2245              		.loc 1 632 3 discriminator 8 view .LVU515
 2246 0046 03F58053 		add	r3, r3, #4096
 2247 004a 9842     		cmp	r0, r3
ARM GAS  /tmp/ccHKmbxS.s 			page 60


 2248 004c 37D0     		beq	.L318
 2249              		.loc 1 632 3 discriminator 9 view .LVU516
 2250 004e 03F50053 		add	r3, r3, #8192
 2251 0052 9842     		cmp	r0, r3
 2252 0054 33D0     		beq	.L318
 2253              		.loc 1 632 3 discriminator 10 view .LVU517
 2254 0056 03F58053 		add	r3, r3, #4096
 2255 005a 9842     		cmp	r0, r3
 2256 005c 2FD0     		beq	.L318
 2257              		.loc 1 632 3 discriminator 11 view .LVU518
 2258 005e 03F58053 		add	r3, r3, #4096
 2259 0062 9842     		cmp	r0, r3
 2260 0064 2BD0     		beq	.L318
 2261              		.loc 1 632 3 discriminator 12 view .LVU519
 2262 0066 03F58053 		add	r3, r3, #4096
 2263 006a 9842     		cmp	r0, r3
 2264 006c 27D0     		beq	.L318
 2265              		.loc 1 632 3 discriminator 13 view .LVU520
 2266 006e 03F58053 		add	r3, r3, #4096
 2267 0072 9842     		cmp	r0, r3
 2268 0074 1FD0     		beq	.L329
 2269              		.loc 1 632 3 discriminator 14 view .LVU521
 2270 0076 03F58053 		add	r3, r3, #4096
 2271 007a 9842     		cmp	r0, r3
 2272 007c 1FD0     		beq	.L318
 2273              		.loc 1 632 3 discriminator 15 view .LVU522
 2274 007e 03F58053 		add	r3, r3, #4096
 2275 0082 9842     		cmp	r0, r3
 2276 0084 1BD0     		beq	.L318
 2277              		.loc 1 632 3 discriminator 16 view .LVU523
 2278 0086 03F58053 		add	r3, r3, #4096
 2279 008a 9842     		cmp	r0, r3
 2280 008c 04D0     		beq	.L332
 2281              		.loc 1 632 3 discriminator 17 view .LVU524
 2282 008e 4FF41E71 		mov	r1, #632
 2283              	.LVL108:
 2284              		.loc 1 632 3 discriminator 17 view .LVU525
 2285 0092 2048     		ldr	r0, .L364+4
 2286              	.LVL109:
 2287              		.loc 1 632 3 discriminator 17 view .LVU526
 2288 0094 FFF7FEFF 		bl	assert_failed
 2289              	.LVL110:
 2290              	.L332:
 633:../STM32Cube_FW_N6/Drivers/STM32N6xx_HAL_Driver/Src/stm32n6xx_hal_rif.c ****   assert_param(IS_RISAF_REGION(Region));
 2291              		.loc 1 633 3 is_stmt 1 view .LVU527
 2292 0098 0E2C     		cmp	r4, #14
 2293 009a 0AD9     		bls	.L346
 2294              	.L338:
 2295              		.loc 1 633 3 is_stmt 0 discriminator 1 view .LVU528
 2296 009c 40F27921 		movw	r1, #633
 2297 00a0 1C48     		ldr	r0, .L364+4
 2298 00a2 FFF7FEFF 		bl	assert_failed
 2299              	.LVL111:
 634:../STM32Cube_FW_N6/Drivers/STM32N6xx_HAL_Driver/Src/stm32n6xx_hal_rif.c ****   assert_param(IS_RISAF_MAX_REGION(RISAFx, Region));
 2300              		.loc 1 634 3 is_stmt 1 view .LVU529
 2301              	.L333:
 2302              		.loc 1 634 3 is_stmt 0 discriminator 65 view .LVU530
ARM GAS  /tmp/ccHKmbxS.s 			page 61


 2303 00a6 40F27A21 		movw	r1, #634
 2304 00aa 1A48     		ldr	r0, .L364+4
 2305 00ac FFF7FEFF 		bl	assert_failed
 2306              	.LVL112:
 2307 00b0 11E0     		b	.L337
 2308              	.L346:
 2309              		.loc 1 634 3 discriminator 47 view .LVU531
 2310 00b2 022C     		cmp	r4, #2
 2311 00b4 0AE0     		b	.L361
 2312              	.LVL113:
 2313              	.L329:
 633:../STM32Cube_FW_N6/Drivers/STM32N6xx_HAL_Driver/Src/stm32n6xx_hal_rif.c ****   assert_param(IS_RISAF_REGION(Region));
 2314              		.loc 1 633 3 is_stmt 1 view .LVU532
 2315 00b6 0E29     		cmp	r1, #14
 2316 00b8 F0D8     		bhi	.L338
 2317              		.loc 1 634 3 is_stmt 0 discriminator 40 view .LVU533
 2318 00ba 012C     		cmp	r4, #1
 2319 00bc 06E0     		b	.L361
 2320              	.L318:
 633:../STM32Cube_FW_N6/Drivers/STM32N6xx_HAL_Driver/Src/stm32n6xx_hal_rif.c ****   assert_param(IS_RISAF_REGION(Region));
 2321              		.loc 1 633 3 is_stmt 1 view .LVU534
 2322 00be 0E2C     		cmp	r4, #14
 2323 00c0 ECD8     		bhi	.L338
 2324              		.loc 1 634 3 is_stmt 0 discriminator 25 view .LVU535
 2325 00c2 062C     		cmp	r4, #6
 2326 00c4 02E0     		b	.L361
 2327              	.L319:
 633:../STM32Cube_FW_N6/Drivers/STM32N6xx_HAL_Driver/Src/stm32n6xx_hal_rif.c ****   assert_param(IS_RISAF_REGION(Region));
 2328              		.loc 1 633 3 is_stmt 1 view .LVU536
 2329 00c6 0E2C     		cmp	r4, #14
 2330 00c8 E8D8     		bhi	.L338
 2331              		.loc 1 634 3 is_stmt 0 discriminator 10 view .LVU537
 2332 00ca 0A2C     		cmp	r4, #10
 2333              	.LVL114:
 2334              	.L361:
 2335              		.loc 1 634 3 discriminator 10 view .LVU538
 2336 00cc 8CBF     		ite	hi
 2337 00ce 0023     		movhi	r3, #0
 2338 00d0 0123     		movls	r3, #1
 2339              		.loc 1 634 3 discriminator 64 view .LVU539
 2340 00d2 002B     		cmp	r3, #0
 2341 00d4 E7D0     		beq	.L333
 2342              	.L337:
 635:../STM32Cube_FW_N6/Drivers/STM32N6xx_HAL_Driver/Src/stm32n6xx_hal_rif.c ****   assert_param(pConfig != (void *)NULL);
 2343              		.loc 1 635 3 is_stmt 1 view .LVU540
 2344 00d6 26B9     		cbnz	r6, .L336
 2345              		.loc 1 635 3 is_stmt 0 discriminator 1 view .LVU541
 2346 00d8 40F27B21 		movw	r1, #635
 2347 00dc 0D48     		ldr	r0, .L364+4
 2348 00de FFF7FEFF 		bl	assert_failed
 2349              	.LVL115:
 2350              	.L336:
 636:../STM32Cube_FW_N6/Drivers/STM32N6xx_HAL_Driver/Src/stm32n6xx_hal_rif.c **** 
 637:../STM32Cube_FW_N6/Drivers/STM32N6xx_HAL_Driver/Src/stm32n6xx_hal_rif.c ****   cfgr_reg = RISAFx->REG[Region].CFGR;
 2351              		.loc 1 637 3 is_stmt 1 view .LVU542
 2352 00e2 05EB8414 		add	r4, r5, r4, lsl #6
 2353              	.LVL116:
ARM GAS  /tmp/ccHKmbxS.s 			page 62


 2354              		.loc 1 637 12 is_stmt 0 view .LVU543
 2355 00e6 236C     		ldr	r3, [r4, #64]
 2356              	.LVL117:
 638:../STM32Cube_FW_N6/Drivers/STM32N6xx_HAL_Driver/Src/stm32n6xx_hal_rif.c ****   cidcfgr_reg = RISAFx->REG[Region].CIDCFGR;
 2357              		.loc 1 638 3 is_stmt 1 view .LVU544
 2358              		.loc 1 638 15 is_stmt 0 view .LVU545
 2359 00e8 E26C     		ldr	r2, [r4, #76]
 2360              	.LVL118:
 639:../STM32Cube_FW_N6/Drivers/STM32N6xx_HAL_Driver/Src/stm32n6xx_hal_rif.c **** 
 640:../STM32Cube_FW_N6/Drivers/STM32N6xx_HAL_Driver/Src/stm32n6xx_hal_rif.c ****   pConfig->Filtering = (cfgr_reg & RISAF_REGx_CFGR_BREN);
 2361              		.loc 1 640 3 is_stmt 1 view .LVU546
 2362              		.loc 1 640 34 is_stmt 0 view .LVU547
 2363 00ea 03F00101 		and	r1, r3, #1
 2364              		.loc 1 640 22 view .LVU548
 2365 00ee 3160     		str	r1, [r6]
 641:../STM32Cube_FW_N6/Drivers/STM32N6xx_HAL_Driver/Src/stm32n6xx_hal_rif.c ****   pConfig->Secure = ((cfgr_reg & RISAF_REGx_CFGR_SEC) >> RISAF_REGx_CFGR_SEC_Pos);
 2366              		.loc 1 641 3 is_stmt 1 view .LVU549
 2367              		.loc 1 641 55 is_stmt 0 view .LVU550
 2368 00f0 C3F30021 		ubfx	r1, r3, #8, #1
 642:../STM32Cube_FW_N6/Drivers/STM32N6xx_HAL_Driver/Src/stm32n6xx_hal_rif.c ****   pConfig->PrivWhitelist = ((cfgr_reg & (RIF_CID_MASK << RISAF_REGx_CFGR_PRIVC0_Pos)) >> RISAF_REGx
 2369              		.loc 1 642 87 view .LVU551
 2370 00f4 C3F30743 		ubfx	r3, r3, #16, #8
 2371              	.LVL119:
 2372              		.loc 1 642 26 view .LVU552
 2373 00f8 B360     		str	r3, [r6, #8]
 643:../STM32Cube_FW_N6/Drivers/STM32N6xx_HAL_Driver/Src/stm32n6xx_hal_rif.c ****   pConfig->ReadWhitelist = (cidcfgr_reg & RIF_CID_MASK);
 2374              		.loc 1 643 41 view .LVU553
 2375 00fa D3B2     		uxtb	r3, r2
 2376              		.loc 1 643 26 view .LVU554
 2377 00fc F360     		str	r3, [r6, #12]
 644:../STM32Cube_FW_N6/Drivers/STM32N6xx_HAL_Driver/Src/stm32n6xx_hal_rif.c ****   pConfig->WriteWhitelist = ((cidcfgr_reg & (RIF_CID_MASK << RISAF_REGx_CIDCFGR_WRENC0_Pos)) >> RIS
 645:../STM32Cube_FW_N6/Drivers/STM32N6xx_HAL_Driver/Src/stm32n6xx_hal_rif.c ****   pConfig->StartAddress = RISAFx->REG[Region].STARTR;
 2378              		.loc 1 645 46 view .LVU555
 2379 00fe 636C     		ldr	r3, [r4, #68]
 644:../STM32Cube_FW_N6/Drivers/STM32N6xx_HAL_Driver/Src/stm32n6xx_hal_rif.c ****   pConfig->WriteWhitelist = ((cidcfgr_reg & (RIF_CID_MASK << RISAF_REGx_CIDCFGR_WRENC0_Pos)) >> RIS
 2380              		.loc 1 644 94 view .LVU556
 2381 0100 C2F30742 		ubfx	r2, r2, #16, #8
 2382              	.LVL120:
 2383              		.loc 1 645 25 view .LVU557
 2384 0104 7361     		str	r3, [r6, #20]
 646:../STM32Cube_FW_N6/Drivers/STM32N6xx_HAL_Driver/Src/stm32n6xx_hal_rif.c ****   pConfig->EndAddress = RISAFx->REG[Region].ENDR;
 2385              		.loc 1 646 44 view .LVU558
 2386 0106 A36C     		ldr	r3, [r4, #72]
 641:../STM32Cube_FW_N6/Drivers/STM32N6xx_HAL_Driver/Src/stm32n6xx_hal_rif.c ****   pConfig->PrivWhitelist = ((cfgr_reg & (RIF_CID_MASK << RISAF_REGx_CFGR_PRIVC0_Pos)) >> RISAF_REGx
 2387              		.loc 1 641 19 view .LVU559
 2388 0108 7160     		str	r1, [r6, #4]
 642:../STM32Cube_FW_N6/Drivers/STM32N6xx_HAL_Driver/Src/stm32n6xx_hal_rif.c ****   pConfig->ReadWhitelist = (cidcfgr_reg & RIF_CID_MASK);
 2389              		.loc 1 642 3 is_stmt 1 view .LVU560
 643:../STM32Cube_FW_N6/Drivers/STM32N6xx_HAL_Driver/Src/stm32n6xx_hal_rif.c ****   pConfig->WriteWhitelist = ((cidcfgr_reg & (RIF_CID_MASK << RISAF_REGx_CIDCFGR_WRENC0_Pos)) >> RIS
 2390              		.loc 1 643 3 view .LVU561
 644:../STM32Cube_FW_N6/Drivers/STM32N6xx_HAL_Driver/Src/stm32n6xx_hal_rif.c ****   pConfig->StartAddress = RISAFx->REG[Region].STARTR;
 2391              		.loc 1 644 3 view .LVU562
 644:../STM32Cube_FW_N6/Drivers/STM32N6xx_HAL_Driver/Src/stm32n6xx_hal_rif.c ****   pConfig->StartAddress = RISAFx->REG[Region].STARTR;
 2392              		.loc 1 644 27 is_stmt 0 view .LVU563
 2393 010a 3261     		str	r2, [r6, #16]
 645:../STM32Cube_FW_N6/Drivers/STM32N6xx_HAL_Driver/Src/stm32n6xx_hal_rif.c ****   pConfig->EndAddress = RISAFx->REG[Region].ENDR;
 2394              		.loc 1 645 3 is_stmt 1 view .LVU564
ARM GAS  /tmp/ccHKmbxS.s 			page 63


 2395              		.loc 1 646 3 view .LVU565
 2396              		.loc 1 646 23 is_stmt 0 view .LVU566
 2397 010c B361     		str	r3, [r6, #24]
 647:../STM32Cube_FW_N6/Drivers/STM32N6xx_HAL_Driver/Src/stm32n6xx_hal_rif.c **** }
 2398              		.loc 1 647 1 view .LVU567
 2399 010e 70BD     		pop	{r4, r5, r6, pc}
 2400              	.LVL121:
 2401              	.L365:
 2402              		.loc 1 647 1 view .LVU568
 2403              		.align	2
 2404              	.L364:
 2405 0110 00600254 		.word	1409441792
 2406 0114 00000000 		.word	.LC0
 2407              		.cfi_endproc
 2408              	.LFE896:
 2410              		.section	.text.HAL_RIF_RISAF_ConfigSubRegionDelegation,"ax",%progbits
 2411              		.align	1
 2412              		.global	HAL_RIF_RISAF_ConfigSubRegionDelegation
 2413              		.syntax unified
 2414              		.thumb
 2415              		.thumb_func
 2417              	HAL_RIF_RISAF_ConfigSubRegionDelegation:
 2418              	.LVL122:
 2419              	.LFB897:
 648:../STM32Cube_FW_N6/Drivers/STM32N6xx_HAL_Driver/Src/stm32n6xx_hal_rif.c **** 
 649:../STM32Cube_FW_N6/Drivers/STM32N6xx_HAL_Driver/Src/stm32n6xx_hal_rif.c **** #if defined(CPU_AS_TRUSTED_DOMAIN)
 650:../STM32Cube_FW_N6/Drivers/STM32N6xx_HAL_Driver/Src/stm32n6xx_hal_rif.c **** /**
 651:../STM32Cube_FW_N6/Drivers/STM32N6xx_HAL_Driver/Src/stm32n6xx_hal_rif.c ****   * @brief  Delegate a Subregion configuration to another CID.
 652:../STM32Cube_FW_N6/Drivers/STM32N6xx_HAL_Driver/Src/stm32n6xx_hal_rif.c ****   * @note   This API is protected by the Trusted Domain compilation directive.
 653:../STM32Cube_FW_N6/Drivers/STM32N6xx_HAL_Driver/Src/stm32n6xx_hal_rif.c ****   * @param  RISAFx specifies the RISAF instance.
 654:../STM32Cube_FW_N6/Drivers/STM32N6xx_HAL_Driver/Src/stm32n6xx_hal_rif.c ****   *         This parameter is one of the RISAF instances defined in the CMSIS.
 655:../STM32Cube_FW_N6/Drivers/STM32N6xx_HAL_Driver/Src/stm32n6xx_hal_rif.c ****   * @param  Region specifies the RISAF region index
 656:../STM32Cube_FW_N6/Drivers/STM32N6xx_HAL_Driver/Src/stm32n6xx_hal_rif.c ****   *         This parameter can be one one of the following values:
 657:../STM32Cube_FW_N6/Drivers/STM32N6xx_HAL_Driver/Src/stm32n6xx_hal_rif.c ****   *           @arg @ref RISAF_REGION_1
 658:../STM32Cube_FW_N6/Drivers/STM32N6xx_HAL_Driver/Src/stm32n6xx_hal_rif.c ****   *           @arg @ref RISAF_REGION_2
 659:../STM32Cube_FW_N6/Drivers/STM32N6xx_HAL_Driver/Src/stm32n6xx_hal_rif.c ****   *           @arg @ref RISAF_REGION_3
 660:../STM32Cube_FW_N6/Drivers/STM32N6xx_HAL_Driver/Src/stm32n6xx_hal_rif.c ****   *           @arg @ref RISAF_REGION_4
 661:../STM32Cube_FW_N6/Drivers/STM32N6xx_HAL_Driver/Src/stm32n6xx_hal_rif.c ****   *           @arg @ref RISAF_REGION_5
 662:../STM32Cube_FW_N6/Drivers/STM32N6xx_HAL_Driver/Src/stm32n6xx_hal_rif.c ****   *           @arg @ref RISAF_REGION_6
 663:../STM32Cube_FW_N6/Drivers/STM32N6xx_HAL_Driver/Src/stm32n6xx_hal_rif.c ****   *           @arg @ref RISAF_REGION_7
 664:../STM32Cube_FW_N6/Drivers/STM32N6xx_HAL_Driver/Src/stm32n6xx_hal_rif.c ****   *           @arg @ref RISAF_REGION_8
 665:../STM32Cube_FW_N6/Drivers/STM32N6xx_HAL_Driver/Src/stm32n6xx_hal_rif.c ****   *           @arg @ref RISAF_REGION_9
 666:../STM32Cube_FW_N6/Drivers/STM32N6xx_HAL_Driver/Src/stm32n6xx_hal_rif.c ****   *           @arg @ref RISAF_REGION_10
 667:../STM32Cube_FW_N6/Drivers/STM32N6xx_HAL_Driver/Src/stm32n6xx_hal_rif.c ****   *           @arg @ref RISAF_REGION_11
 668:../STM32Cube_FW_N6/Drivers/STM32N6xx_HAL_Driver/Src/stm32n6xx_hal_rif.c ****   *           @arg @ref RISAF_REGION_12
 669:../STM32Cube_FW_N6/Drivers/STM32N6xx_HAL_Driver/Src/stm32n6xx_hal_rif.c ****   *           @arg @ref RISAF_REGION_13
 670:../STM32Cube_FW_N6/Drivers/STM32N6xx_HAL_Driver/Src/stm32n6xx_hal_rif.c ****   *           @arg @ref RISAF_REGION_14
 671:../STM32Cube_FW_N6/Drivers/STM32N6xx_HAL_Driver/Src/stm32n6xx_hal_rif.c ****   *           @arg @ref RISAF_REGION_15
 672:../STM32Cube_FW_N6/Drivers/STM32N6xx_HAL_Driver/Src/stm32n6xx_hal_rif.c ****   * @param  SubRegion specifies the RISAB Subregion index
 673:../STM32Cube_FW_N6/Drivers/STM32N6xx_HAL_Driver/Src/stm32n6xx_hal_rif.c ****   *         This parameter can be one of the following values:
 674:../STM32Cube_FW_N6/Drivers/STM32N6xx_HAL_Driver/Src/stm32n6xx_hal_rif.c ****   *           @arg @ref RISAF_SUBREGION_A
 675:../STM32Cube_FW_N6/Drivers/STM32N6xx_HAL_Driver/Src/stm32n6xx_hal_rif.c ****   *           @arg @ref RISAF_SUBREGION_B
 676:../STM32Cube_FW_N6/Drivers/STM32N6xx_HAL_Driver/Src/stm32n6xx_hal_rif.c ****   * @param  pConfig Pointer on RISAF Subregion configuration structure
 677:../STM32Cube_FW_N6/Drivers/STM32N6xx_HAL_Driver/Src/stm32n6xx_hal_rif.c ****   * @retval None
 678:../STM32Cube_FW_N6/Drivers/STM32N6xx_HAL_Driver/Src/stm32n6xx_hal_rif.c ****   */
 679:../STM32Cube_FW_N6/Drivers/STM32N6xx_HAL_Driver/Src/stm32n6xx_hal_rif.c **** void HAL_RIF_RISAF_ConfigSubRegionDelegation(RISAF_TypeDef *RISAFx, uint32_t Region, uint32_t SubRe
 680:../STM32Cube_FW_N6/Drivers/STM32N6xx_HAL_Driver/Src/stm32n6xx_hal_rif.c ****                                              const RISAF_DelegationConfig_t *pConfig)
ARM GAS  /tmp/ccHKmbxS.s 			page 64


 681:../STM32Cube_FW_N6/Drivers/STM32N6xx_HAL_Driver/Src/stm32n6xx_hal_rif.c **** {
 2420              		.loc 1 681 1 is_stmt 1 view -0
 2421              		.cfi_startproc
 2422              		@ args = 0, pretend = 0, frame = 0
 2423              		@ frame_needed = 0, uses_anonymous_args = 0
 682:../STM32Cube_FW_N6/Drivers/STM32N6xx_HAL_Driver/Src/stm32n6xx_hal_rif.c ****   uint32_t cid;
 2424              		.loc 1 682 3 view .LVU570
 683:../STM32Cube_FW_N6/Drivers/STM32N6xx_HAL_Driver/Src/stm32n6xx_hal_rif.c ****   uint32_t nestr_reg;
 2425              		.loc 1 683 3 view .LVU571
 684:../STM32Cube_FW_N6/Drivers/STM32N6xx_HAL_Driver/Src/stm32n6xx_hal_rif.c **** 
 685:../STM32Cube_FW_N6/Drivers/STM32N6xx_HAL_Driver/Src/stm32n6xx_hal_rif.c ****   /* Check the parameters */
 686:../STM32Cube_FW_N6/Drivers/STM32N6xx_HAL_Driver/Src/stm32n6xx_hal_rif.c ****   assert_param(pConfig != (void *)NULL);
 2426              		.loc 1 686 3 view .LVU572
 681:../STM32Cube_FW_N6/Drivers/STM32N6xx_HAL_Driver/Src/stm32n6xx_hal_rif.c ****   uint32_t cid;
 2427              		.loc 1 681 1 is_stmt 0 view .LVU573
 2428 0000 F8B5     		push	{r3, r4, r5, r6, r7, lr}
 2429              		.cfi_def_cfa_offset 24
 2430              		.cfi_offset 3, -24
 2431              		.cfi_offset 4, -20
 2432              		.cfi_offset 5, -16
 2433              		.cfi_offset 6, -12
 2434              		.cfi_offset 7, -8
 2435              		.cfi_offset 14, -4
 681:../STM32Cube_FW_N6/Drivers/STM32N6xx_HAL_Driver/Src/stm32n6xx_hal_rif.c ****   uint32_t cid;
 2436              		.loc 1 681 1 view .LVU574
 2437 0002 0546     		mov	r5, r0
 2438 0004 0C46     		mov	r4, r1
 2439 0006 1646     		mov	r6, r2
 2440              		.loc 1 686 3 view .LVU575
 2441 0008 1F46     		mov	r7, r3
 2442 000a 23B9     		cbnz	r3, .L367
 2443              		.loc 1 686 3 discriminator 1 view .LVU576
 2444 000c 40F2AE21 		movw	r1, #686
 2445              	.LVL123:
 2446              		.loc 1 686 3 discriminator 1 view .LVU577
 2447 0010 5948     		ldr	r0, .L433
 2448              	.LVL124:
 2449              		.loc 1 686 3 discriminator 1 view .LVU578
 2450 0012 FFF7FEFF 		bl	assert_failed
 2451              	.LVL125:
 2452              	.L367:
 687:../STM32Cube_FW_N6/Drivers/STM32N6xx_HAL_Driver/Src/stm32n6xx_hal_rif.c ****   assert_param(IS_RISAF_INSTANCE(RISAFx));
 2453              		.loc 1 687 3 is_stmt 1 view .LVU579
 2454 0016 594B     		ldr	r3, .L433+4
 2455 0018 9D42     		cmp	r5, r3
 2456 001a 00F0A880 		beq	.L370
 2457              		.loc 1 687 3 is_stmt 0 discriminator 1 view .LVU580
 2458 001e 03F58053 		add	r3, r3, #4096
 2459 0022 9D42     		cmp	r5, r3
 2460 0024 00F0A380 		beq	.L370
 2461              		.loc 1 687 3 discriminator 2 view .LVU581
 2462 0028 03F58053 		add	r3, r3, #4096
 2463 002c 9D42     		cmp	r5, r3
 2464 002e 00F09E80 		beq	.L370
 2465              		.loc 1 687 3 discriminator 3 view .LVU582
 2466 0032 03F58053 		add	r3, r3, #4096
 2467 0036 9D42     		cmp	r5, r3
ARM GAS  /tmp/ccHKmbxS.s 			page 65


 2468 0038 00F08880 		beq	.L373
 2469              		.loc 1 687 3 discriminator 4 view .LVU583
 2470 003c 03F58053 		add	r3, r3, #4096
 2471 0040 9D42     		cmp	r5, r3
 2472 0042 00F08380 		beq	.L373
 2473              		.loc 1 687 3 discriminator 5 view .LVU584
 2474 0046 03F58053 		add	r3, r3, #4096
 2475 004a 9D42     		cmp	r5, r3
 2476 004c 7ED0     		beq	.L373
 2477              		.loc 1 687 3 discriminator 6 view .LVU585
 2478 004e 03F58053 		add	r3, r3, #4096
 2479 0052 9D42     		cmp	r5, r3
 2480 0054 00F08B80 		beq	.L370
 2481              		.loc 1 687 3 discriminator 7 view .LVU586
 2482 0058 03F58053 		add	r3, r3, #4096
 2483 005c 9D42     		cmp	r5, r3
 2484 005e 00F08680 		beq	.L370
 2485              		.loc 1 687 3 discriminator 8 view .LVU587
 2486 0062 03F58053 		add	r3, r3, #4096
 2487 0066 9D42     		cmp	r5, r3
 2488 0068 00F08180 		beq	.L370
 2489              		.loc 1 687 3 discriminator 9 view .LVU588
 2490 006c 03F50053 		add	r3, r3, #8192
 2491 0070 9D42     		cmp	r5, r3
 2492 0072 7CD0     		beq	.L370
 2493              		.loc 1 687 3 discriminator 10 view .LVU589
 2494 0074 03F58053 		add	r3, r3, #4096
 2495 0078 9D42     		cmp	r5, r3
 2496 007a 78D0     		beq	.L370
 2497              		.loc 1 687 3 discriminator 11 view .LVU590
 2498 007c 03F58053 		add	r3, r3, #4096
 2499 0080 9D42     		cmp	r5, r3
 2500 0082 74D0     		beq	.L370
 2501              		.loc 1 687 3 discriminator 12 view .LVU591
 2502 0084 03F58053 		add	r3, r3, #4096
 2503 0088 9D42     		cmp	r5, r3
 2504 008a 70D0     		beq	.L370
 2505              		.loc 1 687 3 discriminator 13 view .LVU592
 2506 008c 03F58053 		add	r3, r3, #4096
 2507 0090 9D42     		cmp	r5, r3
 2508 0092 68D0     		beq	.L381
 2509              		.loc 1 687 3 discriminator 14 view .LVU593
 2510 0094 03F58053 		add	r3, r3, #4096
 2511 0098 9D42     		cmp	r5, r3
 2512 009a 68D0     		beq	.L370
 2513              		.loc 1 687 3 discriminator 15 view .LVU594
 2514 009c 03F58053 		add	r3, r3, #4096
 2515 00a0 9D42     		cmp	r5, r3
 2516 00a2 64D0     		beq	.L370
 2517              		.loc 1 687 3 discriminator 16 view .LVU595
 2518 00a4 03F58053 		add	r3, r3, #4096
 2519 00a8 9D42     		cmp	r5, r3
 2520 00aa 04D0     		beq	.L384
 2521              		.loc 1 687 3 discriminator 17 view .LVU596
 2522 00ac 40F2AF21 		movw	r1, #687
 2523 00b0 3148     		ldr	r0, .L433
 2524 00b2 FFF7FEFF 		bl	assert_failed
ARM GAS  /tmp/ccHKmbxS.s 			page 66


 2525              	.LVL126:
 2526              	.L384:
 688:../STM32Cube_FW_N6/Drivers/STM32N6xx_HAL_Driver/Src/stm32n6xx_hal_rif.c ****   assert_param(IS_RISAF_REGION(Region));
 2527              		.loc 1 688 3 is_stmt 1 view .LVU597
 2528 00b6 0E2C     		cmp	r4, #14
 2529 00b8 4AD8     		bhi	.L398
 689:../STM32Cube_FW_N6/Drivers/STM32N6xx_HAL_Driver/Src/stm32n6xx_hal_rif.c ****   assert_param(IS_RISAF_MAX_REGION(RISAFx, Region));
 2530              		.loc 1 689 3 is_stmt 0 discriminator 47 view .LVU598
 2531 00ba 022C     		cmp	r4, #2
 2532 00bc 00E0     		b	.L430
 2533              	.L399:
 2534              		.loc 1 689 3 discriminator 10 view .LVU599
 2535 00be 0A2C     		cmp	r4, #10
 2536              	.L430:
 2537              		.loc 1 689 3 discriminator 10 view .LVU600
 2538 00c0 8CBF     		ite	hi
 2539 00c2 0023     		movhi	r3, #0
 2540 00c4 0123     		movls	r3, #1
 2541              		.loc 1 689 3 discriminator 64 view .LVU601
 2542 00c6 002B     		cmp	r3, #0
 2543 00c8 47D0     		beq	.L385
 2544              	.L397:
 690:../STM32Cube_FW_N6/Drivers/STM32N6xx_HAL_Driver/Src/stm32n6xx_hal_rif.c ****   assert_param(IS_RISAF_SUBREGION(SubRegion));
 2545              		.loc 1 690 3 is_stmt 1 view .LVU602
 2546 00ca 012E     		cmp	r6, #1
 2547 00cc 04D9     		bls	.L388
 2548              		.loc 1 690 3 is_stmt 0 discriminator 1 view .LVU603
 2549 00ce 40F2B221 		movw	r1, #690
 2550 00d2 2948     		ldr	r0, .L433
 2551 00d4 FFF7FEFF 		bl	assert_failed
 2552              	.LVL127:
 2553              	.L388:
 691:../STM32Cube_FW_N6/Drivers/STM32N6xx_HAL_Driver/Src/stm32n6xx_hal_rif.c ****   assert_param(IS_RISAF_DELEGATION(pConfig->Delegation));
 2554              		.loc 1 691 3 is_stmt 1 view .LVU604
 2555 00d8 3B68     		ldr	r3, [r7]
 2556 00da 33F00403 		bics	r3, r3, #4
 2557 00de 04D0     		beq	.L389
 2558              		.loc 1 691 3 is_stmt 0 discriminator 2 view .LVU605
 2559 00e0 40F2B321 		movw	r1, #691
 2560 00e4 2448     		ldr	r0, .L433
 2561 00e6 FFF7FEFF 		bl	assert_failed
 2562              	.LVL128:
 2563              	.L389:
 692:../STM32Cube_FW_N6/Drivers/STM32N6xx_HAL_Driver/Src/stm32n6xx_hal_rif.c ****   assert_param(IS_RIF_SINGLE_CID(pConfig->DelegatedCID));
 2564              		.loc 1 692 3 is_stmt 1 view .LVU606
 2565 00ea 7968     		ldr	r1, [r7, #4]
 2566 00ec 2029     		cmp	r1, #32
 2567 00ee 20D8     		bhi	.L390
 2568 00f0 0329     		cmp	r1, #3
 2569 00f2 13D8     		bhi	.L391
 2570 00f4 0139     		subs	r1, r1, #1
 2571 00f6 0129     		cmp	r1, #1
 2572 00f8 15D8     		bhi	.L392
 2573              	.L393:
 693:../STM32Cube_FW_N6/Drivers/STM32N6xx_HAL_Driver/Src/stm32n6xx_hal_rif.c **** 
 694:../STM32Cube_FW_N6/Drivers/STM32N6xx_HAL_Driver/Src/stm32n6xx_hal_rif.c ****   /* Convert mask into bit position */
 695:../STM32Cube_FW_N6/Drivers/STM32N6xx_HAL_Driver/Src/stm32n6xx_hal_rif.c ****   cid = POSITION_VAL(pConfig->DelegatedCID);
ARM GAS  /tmp/ccHKmbxS.s 			page 67


 2574              		.loc 1 695 3 view .LVU607
 2575              	.LVL129:
 2576              	.LBB26:
 2577              	.LBI26:
 274:../STM32Cube_FW_N6/Drivers/CMSIS/Include/cmsis_gcc.h **** {
 2578              		.loc 2 274 31 view .LVU608
 2579              	.LBB27:
 276:../STM32Cube_FW_N6/Drivers/CMSIS/Include/cmsis_gcc.h **** 
 2580              		.loc 2 276 3 view .LVU609
 279:../STM32Cube_FW_N6/Drivers/CMSIS/Include/cmsis_gcc.h **** #else
 2581              		.loc 2 279 4 view .LVU610
 2582 00fa 7A68     		ldr	r2, [r7, #4]
 2583              		.syntax unified
 2584              	@ 279 "../STM32Cube_FW_N6/Drivers/CMSIS/Include/cmsis_gcc.h" 1
