ARM GAS  /tmp/ccmkd0xc.s 			page 1


   1              		.arch armv8.1-m.main
   2              		.fpu fpv5-d16
   3              		.arch_extension dsp
   4              		.arch_extension fp
   5              		.arch_extension fp.dp
   6              		.arch_extension mve
   7              		.arch_extension mve.fp
   8              		.eabi_attribute 5, "cortex-m55"
   9              		.eabi_attribute 28, 1
  10              		.eabi_attribute 20, 1
  11              		.eabi_attribute 21, 1
  12              		.eabi_attribute 23, 3
  13              		.eabi_attribute 24, 1
  14              		.eabi_attribute 25, 1
  15              		.eabi_attribute 26, 1
  16              		.eabi_attribute 30, 4
  17              		.eabi_attribute 34, 1
  18              		.eabi_attribute 38, 1
  19              		.eabi_attribute 18, 4
  20              		.file	"tx_byte_pool_search.c"
  21              		.text
  22              	.Ltext0:
  23              		.cfi_sections	.debug_frame
  24              		.file 1 "../Middlewares/threadx/common/src/tx_byte_pool_search.c"
  25              		.section	.text._tx_byte_pool_search,"ax",%progbits
  26              		.align	1
  27              		.global	_tx_byte_pool_search
  28              		.syntax unified
  29              		.thumb
  30              		.thumb_func
  32              	_tx_byte_pool_search:
  33              	.LVL0:
  34              	.LFB8:
   1:../Middlewares/threadx/common/src/tx_byte_pool_search.c **** /**************************************************************************/
   2:../Middlewares/threadx/common/src/tx_byte_pool_search.c **** /*                                                                        */
   3:../Middlewares/threadx/common/src/tx_byte_pool_search.c **** /*       Copyright (c) Microsoft Corporation. All rights reserved.        */
   4:../Middlewares/threadx/common/src/tx_byte_pool_search.c **** /*                                                                        */
   5:../Middlewares/threadx/common/src/tx_byte_pool_search.c **** /*       This software is licensed under the Microsoft Software License   */
   6:../Middlewares/threadx/common/src/tx_byte_pool_search.c **** /*       Terms for Microsoft Azure RTOS. Full text of the license can be  */
   7:../Middlewares/threadx/common/src/tx_byte_pool_search.c **** /*       found in the LICENSE file at https://aka.ms/AzureRTOS_EULA       */
   8:../Middlewares/threadx/common/src/tx_byte_pool_search.c **** /*       and in the root directory of this software.                      */
   9:../Middlewares/threadx/common/src/tx_byte_pool_search.c **** /*                                                                        */
  10:../Middlewares/threadx/common/src/tx_byte_pool_search.c **** /**************************************************************************/
  11:../Middlewares/threadx/common/src/tx_byte_pool_search.c **** 
  12:../Middlewares/threadx/common/src/tx_byte_pool_search.c **** 
  13:../Middlewares/threadx/common/src/tx_byte_pool_search.c **** /**************************************************************************/
  14:../Middlewares/threadx/common/src/tx_byte_pool_search.c **** /**************************************************************************/
  15:../Middlewares/threadx/common/src/tx_byte_pool_search.c **** /**                                                                       */
  16:../Middlewares/threadx/common/src/tx_byte_pool_search.c **** /** ThreadX Component                                                     */
  17:../Middlewares/threadx/common/src/tx_byte_pool_search.c **** /**                                                                       */
  18:../Middlewares/threadx/common/src/tx_byte_pool_search.c **** /**   Byte Pool                                                           */
  19:../Middlewares/threadx/common/src/tx_byte_pool_search.c **** /**                                                                       */
  20:../Middlewares/threadx/common/src/tx_byte_pool_search.c **** /**************************************************************************/
  21:../Middlewares/threadx/common/src/tx_byte_pool_search.c **** /**************************************************************************/
  22:../Middlewares/threadx/common/src/tx_byte_pool_search.c **** 
  23:../Middlewares/threadx/common/src/tx_byte_pool_search.c **** #define TX_SOURCE_CODE
  24:../Middlewares/threadx/common/src/tx_byte_pool_search.c **** 
ARM GAS  /tmp/ccmkd0xc.s 			page 2


  25:../Middlewares/threadx/common/src/tx_byte_pool_search.c **** 
  26:../Middlewares/threadx/common/src/tx_byte_pool_search.c **** /* Include necessary system files.  */
  27:../Middlewares/threadx/common/src/tx_byte_pool_search.c **** 
  28:../Middlewares/threadx/common/src/tx_byte_pool_search.c **** #include "tx_api.h"
  29:../Middlewares/threadx/common/src/tx_byte_pool_search.c **** #include "tx_thread.h"
  30:../Middlewares/threadx/common/src/tx_byte_pool_search.c **** #include "tx_byte_pool.h"
  31:../Middlewares/threadx/common/src/tx_byte_pool_search.c **** 
  32:../Middlewares/threadx/common/src/tx_byte_pool_search.c **** 
  33:../Middlewares/threadx/common/src/tx_byte_pool_search.c **** /**************************************************************************/
  34:../Middlewares/threadx/common/src/tx_byte_pool_search.c **** /*                                                                        */
  35:../Middlewares/threadx/common/src/tx_byte_pool_search.c **** /*  FUNCTION                                               RELEASE        */
  36:../Middlewares/threadx/common/src/tx_byte_pool_search.c **** /*                                                                        */
  37:../Middlewares/threadx/common/src/tx_byte_pool_search.c **** /*    _tx_byte_pool_search                                PORTABLE C      */
  38:../Middlewares/threadx/common/src/tx_byte_pool_search.c **** /*                                                           6.1.7        */
  39:../Middlewares/threadx/common/src/tx_byte_pool_search.c **** /*  AUTHOR                                                                */
  40:../Middlewares/threadx/common/src/tx_byte_pool_search.c **** /*                                                                        */
  41:../Middlewares/threadx/common/src/tx_byte_pool_search.c **** /*    William E. Lamie, Microsoft Corporation                             */
  42:../Middlewares/threadx/common/src/tx_byte_pool_search.c **** /*                                                                        */
  43:../Middlewares/threadx/common/src/tx_byte_pool_search.c **** /*  DESCRIPTION                                                           */
  44:../Middlewares/threadx/common/src/tx_byte_pool_search.c **** /*                                                                        */
  45:../Middlewares/threadx/common/src/tx_byte_pool_search.c **** /*    This function searches a byte pool for a memory block to satisfy    */
  46:../Middlewares/threadx/common/src/tx_byte_pool_search.c **** /*    the requested number of bytes.  Merging of adjacent free blocks     */
  47:../Middlewares/threadx/common/src/tx_byte_pool_search.c **** /*    takes place during the search and a split of the block that         */
  48:../Middlewares/threadx/common/src/tx_byte_pool_search.c **** /*    satisfies the request may occur before this function returns.       */
  49:../Middlewares/threadx/common/src/tx_byte_pool_search.c **** /*                                                                        */
  50:../Middlewares/threadx/common/src/tx_byte_pool_search.c **** /*    It is assumed that this function is called with interrupts enabled  */
  51:../Middlewares/threadx/common/src/tx_byte_pool_search.c **** /*    and with the tx_pool_owner field set to the thread performing the   */
  52:../Middlewares/threadx/common/src/tx_byte_pool_search.c **** /*    search.  Also note that the search can occur during allocation and  */
  53:../Middlewares/threadx/common/src/tx_byte_pool_search.c **** /*    release of a memory block.                                          */
  54:../Middlewares/threadx/common/src/tx_byte_pool_search.c **** /*                                                                        */
  55:../Middlewares/threadx/common/src/tx_byte_pool_search.c **** /*  INPUT                                                                 */
  56:../Middlewares/threadx/common/src/tx_byte_pool_search.c **** /*                                                                        */
  57:../Middlewares/threadx/common/src/tx_byte_pool_search.c **** /*    pool_ptr                          Pointer to pool control block     */
  58:../Middlewares/threadx/common/src/tx_byte_pool_search.c **** /*    memory_size                       Number of bytes required          */
  59:../Middlewares/threadx/common/src/tx_byte_pool_search.c **** /*                                                                        */
  60:../Middlewares/threadx/common/src/tx_byte_pool_search.c **** /*  OUTPUT                                                                */
  61:../Middlewares/threadx/common/src/tx_byte_pool_search.c **** /*                                                                        */
  62:../Middlewares/threadx/common/src/tx_byte_pool_search.c **** /*    UCHAR *                           Pointer to the allocated memory,  */
  63:../Middlewares/threadx/common/src/tx_byte_pool_search.c **** /*                                        if successful.  Otherwise, a    */
  64:../Middlewares/threadx/common/src/tx_byte_pool_search.c **** /*                                        NULL is returned                */
  65:../Middlewares/threadx/common/src/tx_byte_pool_search.c **** /*                                                                        */
  66:../Middlewares/threadx/common/src/tx_byte_pool_search.c **** /*  CALLS                                                                 */
  67:../Middlewares/threadx/common/src/tx_byte_pool_search.c **** /*                                                                        */
  68:../Middlewares/threadx/common/src/tx_byte_pool_search.c **** /*    None                                                                */
  69:../Middlewares/threadx/common/src/tx_byte_pool_search.c **** /*                                                                        */
  70:../Middlewares/threadx/common/src/tx_byte_pool_search.c **** /*  CALLED BY                                                             */
  71:../Middlewares/threadx/common/src/tx_byte_pool_search.c **** /*                                                                        */
  72:../Middlewares/threadx/common/src/tx_byte_pool_search.c **** /*    _tx_byte_allocate                 Allocate bytes of memory          */
  73:../Middlewares/threadx/common/src/tx_byte_pool_search.c **** /*    _tx_byte_release                  Release bytes of memory           */
  74:../Middlewares/threadx/common/src/tx_byte_pool_search.c **** /*                                                                        */
  75:../Middlewares/threadx/common/src/tx_byte_pool_search.c **** /*  RELEASE HISTORY                                                       */
  76:../Middlewares/threadx/common/src/tx_byte_pool_search.c **** /*                                                                        */
  77:../Middlewares/threadx/common/src/tx_byte_pool_search.c **** /*    DATE              NAME                      DESCRIPTION             */
  78:../Middlewares/threadx/common/src/tx_byte_pool_search.c **** /*                                                                        */
  79:../Middlewares/threadx/common/src/tx_byte_pool_search.c **** /*  05-19-2020      William E. Lamie        Initial Version 6.0           */
  80:../Middlewares/threadx/common/src/tx_byte_pool_search.c **** /*  09-30-2020      Yuxin Zhou              Modified comment(s),          */
  81:../Middlewares/threadx/common/src/tx_byte_pool_search.c **** /*                                            resulting in version 6.1    */
ARM GAS  /tmp/ccmkd0xc.s 			page 3


  82:../Middlewares/threadx/common/src/tx_byte_pool_search.c **** /*  06-02-2021      Scott Larson            Improve possible free bytes   */
  83:../Middlewares/threadx/common/src/tx_byte_pool_search.c **** /*                                            calculation,                */
  84:../Middlewares/threadx/common/src/tx_byte_pool_search.c **** /*                                            resulting in version 6.1.7  */
  85:../Middlewares/threadx/common/src/tx_byte_pool_search.c **** /*                                                                        */
  86:../Middlewares/threadx/common/src/tx_byte_pool_search.c **** /**************************************************************************/
  87:../Middlewares/threadx/common/src/tx_byte_pool_search.c **** UCHAR  *_tx_byte_pool_search(TX_BYTE_POOL *pool_ptr, ULONG memory_size)
  88:../Middlewares/threadx/common/src/tx_byte_pool_search.c **** {
  35              		.loc 1 88 1 view -0
  36              		.cfi_startproc
  37              		@ args = 0, pretend = 0, frame = 0
  38              		@ frame_needed = 0, uses_anonymous_args = 0
  89:../Middlewares/threadx/common/src/tx_byte_pool_search.c **** 
  90:../Middlewares/threadx/common/src/tx_byte_pool_search.c **** TX_INTERRUPT_SAVE_AREA
  39              		.loc 1 90 1 view .LVU1
  91:../Middlewares/threadx/common/src/tx_byte_pool_search.c **** 
  92:../Middlewares/threadx/common/src/tx_byte_pool_search.c **** UCHAR           *current_ptr;
  40              		.loc 1 92 1 view .LVU2
  93:../Middlewares/threadx/common/src/tx_byte_pool_search.c **** UCHAR           *next_ptr;
  41              		.loc 1 93 1 view .LVU3
  94:../Middlewares/threadx/common/src/tx_byte_pool_search.c **** UCHAR           **this_block_link_ptr;
  42              		.loc 1 94 1 view .LVU4
  95:../Middlewares/threadx/common/src/tx_byte_pool_search.c **** UCHAR           **next_block_link_ptr;
  43              		.loc 1 95 1 view .LVU5
  96:../Middlewares/threadx/common/src/tx_byte_pool_search.c **** ULONG           available_bytes;
  44              		.loc 1 96 1 view .LVU6
  97:../Middlewares/threadx/common/src/tx_byte_pool_search.c **** UINT            examine_blocks;
  45              		.loc 1 97 1 view .LVU7
  98:../Middlewares/threadx/common/src/tx_byte_pool_search.c **** UINT            first_free_block_found =  TX_FALSE;
  46              		.loc 1 98 1 view .LVU8
  99:../Middlewares/threadx/common/src/tx_byte_pool_search.c **** TX_THREAD       *thread_ptr;
  47              		.loc 1 99 1 view .LVU9
 100:../Middlewares/threadx/common/src/tx_byte_pool_search.c **** ALIGN_TYPE      *free_ptr;
  48              		.loc 1 100 1 view .LVU10
 101:../Middlewares/threadx/common/src/tx_byte_pool_search.c **** UCHAR           *work_ptr;
  49              		.loc 1 101 1 view .LVU11
 102:../Middlewares/threadx/common/src/tx_byte_pool_search.c **** ULONG           total_theoretical_available;
  50              		.loc 1 102 1 view .LVU12
 103:../Middlewares/threadx/common/src/tx_byte_pool_search.c **** 
 104:../Middlewares/threadx/common/src/tx_byte_pool_search.c **** 
 105:../Middlewares/threadx/common/src/tx_byte_pool_search.c ****     /* Disable interrupts.  */
 106:../Middlewares/threadx/common/src/tx_byte_pool_search.c ****     TX_DISABLE
  51              		.loc 1 106 5 view .LVU13
  52              	.LBB20:
  53              	.LBI20:
  54              		.file 2 "../Middlewares/threadx/ports/cortex_m55/gnu/inc/tx_port.h"
   1:../Middlewares/threadx/ports/cortex_m55/gnu/inc/tx_port.h **** /**************************************************************************/
   2:../Middlewares/threadx/ports/cortex_m55/gnu/inc/tx_port.h **** /*                                                                        */
   3:../Middlewares/threadx/ports/cortex_m55/gnu/inc/tx_port.h **** /*       Copyright (c) Microsoft Corporation. All rights reserved.        */
   4:../Middlewares/threadx/ports/cortex_m55/gnu/inc/tx_port.h **** /*                                                                        */
   5:../Middlewares/threadx/ports/cortex_m55/gnu/inc/tx_port.h **** /*       This software is licensed under the Microsoft Software License   */
   6:../Middlewares/threadx/ports/cortex_m55/gnu/inc/tx_port.h **** /*       Terms for Microsoft Azure RTOS. Full text of the license can be  */
   7:../Middlewares/threadx/ports/cortex_m55/gnu/inc/tx_port.h **** /*       found in the LICENSE file at https://aka.ms/AzureRTOS_EULA       */
   8:../Middlewares/threadx/ports/cortex_m55/gnu/inc/tx_port.h **** /*       and in the root directory of this software.                      */
   9:../Middlewares/threadx/ports/cortex_m55/gnu/inc/tx_port.h **** /*                                                                        */
  10:../Middlewares/threadx/ports/cortex_m55/gnu/inc/tx_port.h **** /**************************************************************************/
  11:../Middlewares/threadx/ports/cortex_m55/gnu/inc/tx_port.h **** 
  12:../Middlewares/threadx/ports/cortex_m55/gnu/inc/tx_port.h **** 
ARM GAS  /tmp/ccmkd0xc.s 			page 4


  13:../Middlewares/threadx/ports/cortex_m55/gnu/inc/tx_port.h **** /**************************************************************************/
  14:../Middlewares/threadx/ports/cortex_m55/gnu/inc/tx_port.h **** /**************************************************************************/
  15:../Middlewares/threadx/ports/cortex_m55/gnu/inc/tx_port.h **** /**                                                                       */
  16:../Middlewares/threadx/ports/cortex_m55/gnu/inc/tx_port.h **** /** ThreadX Component                                                     */
  17:../Middlewares/threadx/ports/cortex_m55/gnu/inc/tx_port.h **** /**                                                                       */
  18:../Middlewares/threadx/ports/cortex_m55/gnu/inc/tx_port.h **** /**   Port Specific                                                       */
  19:../Middlewares/threadx/ports/cortex_m55/gnu/inc/tx_port.h **** /**                                                                       */
  20:../Middlewares/threadx/ports/cortex_m55/gnu/inc/tx_port.h **** /**************************************************************************/
  21:../Middlewares/threadx/ports/cortex_m55/gnu/inc/tx_port.h **** /**************************************************************************/
  22:../Middlewares/threadx/ports/cortex_m55/gnu/inc/tx_port.h **** 
  23:../Middlewares/threadx/ports/cortex_m55/gnu/inc/tx_port.h **** 
  24:../Middlewares/threadx/ports/cortex_m55/gnu/inc/tx_port.h **** /**************************************************************************/
  25:../Middlewares/threadx/ports/cortex_m55/gnu/inc/tx_port.h **** /*                                                                        */
  26:../Middlewares/threadx/ports/cortex_m55/gnu/inc/tx_port.h **** /*  PORT SPECIFIC C INFORMATION                            RELEASE        */
  27:../Middlewares/threadx/ports/cortex_m55/gnu/inc/tx_port.h **** /*                                                                        */
  28:../Middlewares/threadx/ports/cortex_m55/gnu/inc/tx_port.h **** /*    tx_port.h                                         Cortex-M55/GNU    */
  29:../Middlewares/threadx/ports/cortex_m55/gnu/inc/tx_port.h **** /*                                                           6.2.1        */
  30:../Middlewares/threadx/ports/cortex_m55/gnu/inc/tx_port.h **** /*                                                                        */
  31:../Middlewares/threadx/ports/cortex_m55/gnu/inc/tx_port.h **** /*  AUTHOR                                                                */
  32:../Middlewares/threadx/ports/cortex_m55/gnu/inc/tx_port.h **** /*                                                                        */
  33:../Middlewares/threadx/ports/cortex_m55/gnu/inc/tx_port.h **** /*    Scott Larson, Microsoft Corporation                                 */
  34:../Middlewares/threadx/ports/cortex_m55/gnu/inc/tx_port.h **** /*                                                                        */
  35:../Middlewares/threadx/ports/cortex_m55/gnu/inc/tx_port.h **** /*  DESCRIPTION                                                           */
  36:../Middlewares/threadx/ports/cortex_m55/gnu/inc/tx_port.h **** /*                                                                        */
  37:../Middlewares/threadx/ports/cortex_m55/gnu/inc/tx_port.h **** /*    This file contains data type definitions that make the ThreadX      */
  38:../Middlewares/threadx/ports/cortex_m55/gnu/inc/tx_port.h **** /*    real-time kernel function identically on a variety of different     */
  39:../Middlewares/threadx/ports/cortex_m55/gnu/inc/tx_port.h **** /*    processor architectures.  For example, the size or number of bits   */
  40:../Middlewares/threadx/ports/cortex_m55/gnu/inc/tx_port.h **** /*    in an "int" data type vary between microprocessor architectures and */
  41:../Middlewares/threadx/ports/cortex_m55/gnu/inc/tx_port.h **** /*    even C compilers for the same microprocessor.  ThreadX does not     */
  42:../Middlewares/threadx/ports/cortex_m55/gnu/inc/tx_port.h **** /*    directly use native C data types.  Instead, ThreadX creates its     */
  43:../Middlewares/threadx/ports/cortex_m55/gnu/inc/tx_port.h **** /*    own special types that can be mapped to actual data types by this   */
  44:../Middlewares/threadx/ports/cortex_m55/gnu/inc/tx_port.h **** /*    file to guarantee consistency in the interface and functionality.   */
  45:../Middlewares/threadx/ports/cortex_m55/gnu/inc/tx_port.h **** /*                                                                        */
  46:../Middlewares/threadx/ports/cortex_m55/gnu/inc/tx_port.h **** /*    This file replaces the previous Cortex-M55 files. It unifies        */
  47:../Middlewares/threadx/ports/cortex_m55/gnu/inc/tx_port.h **** /*    the Cortex-M55 compilers into one common file.                      */
  48:../Middlewares/threadx/ports/cortex_m55/gnu/inc/tx_port.h **** /*                                                                        */
  49:../Middlewares/threadx/ports/cortex_m55/gnu/inc/tx_port.h **** /*  RELEASE HISTORY                                                       */
  50:../Middlewares/threadx/ports/cortex_m55/gnu/inc/tx_port.h **** /*                                                                        */
  51:../Middlewares/threadx/ports/cortex_m55/gnu/inc/tx_port.h **** /*    DATE              NAME                      DESCRIPTION             */
  52:../Middlewares/threadx/ports/cortex_m55/gnu/inc/tx_port.h **** /*                                                                        */
  53:../Middlewares/threadx/ports/cortex_m55/gnu/inc/tx_port.h **** /*  09-30-2020      Scott Larson            Initial Version 6.1           */
  54:../Middlewares/threadx/ports/cortex_m55/gnu/inc/tx_port.h **** /*  03-02-2021      Scott Larson            Modified comment(s), added    */
  55:../Middlewares/threadx/ports/cortex_m55/gnu/inc/tx_port.h **** /*                                            ULONG64_DEFINED,            */
  56:../Middlewares/threadx/ports/cortex_m55/gnu/inc/tx_port.h **** /*                                            resulting in version 6.1.5  */
  57:../Middlewares/threadx/ports/cortex_m55/gnu/inc/tx_port.h **** /*  06-02-2021      Scott Larson            Modified comment(s), removed  */
  58:../Middlewares/threadx/ports/cortex_m55/gnu/inc/tx_port.h **** /*                                            unneeded header file, funcs */
  59:../Middlewares/threadx/ports/cortex_m55/gnu/inc/tx_port.h **** /*                                            set_control and get_control */
  60:../Middlewares/threadx/ports/cortex_m55/gnu/inc/tx_port.h **** /*                                            changed to inline,          */
  61:../Middlewares/threadx/ports/cortex_m55/gnu/inc/tx_port.h **** /*                                            added symbol to enable      */
  62:../Middlewares/threadx/ports/cortex_m55/gnu/inc/tx_port.h **** /*                                            stack error handler,        */
  63:../Middlewares/threadx/ports/cortex_m55/gnu/inc/tx_port.h **** /*                                            resulting in version 6.1.7  */
  64:../Middlewares/threadx/ports/cortex_m55/gnu/inc/tx_port.h **** /*  10-15-2021      Scott Larson            Modified comment(s), improved */
  65:../Middlewares/threadx/ports/cortex_m55/gnu/inc/tx_port.h **** /*                                            stack check error handling, */
  66:../Middlewares/threadx/ports/cortex_m55/gnu/inc/tx_port.h **** /*                                            resulting in version 6.1.9  */
  67:../Middlewares/threadx/ports/cortex_m55/gnu/inc/tx_port.h **** /*  01-31-2022      Scott Larson            Modified comment(s), unified  */
  68:../Middlewares/threadx/ports/cortex_m55/gnu/inc/tx_port.h **** /*                                            this file across compilers, */
  69:../Middlewares/threadx/ports/cortex_m55/gnu/inc/tx_port.h **** /*                                            fixed predefined macro,     */
ARM GAS  /tmp/ccmkd0xc.s 			page 5


  70:../Middlewares/threadx/ports/cortex_m55/gnu/inc/tx_port.h **** /*                                            resulting in version 6.1.10 */
  71:../Middlewares/threadx/ports/cortex_m55/gnu/inc/tx_port.h **** /*  04-25-2022      Scott Larson            Modified comments and added   */
  72:../Middlewares/threadx/ports/cortex_m55/gnu/inc/tx_port.h **** /*                                            volatile to registers,      */
  73:../Middlewares/threadx/ports/cortex_m55/gnu/inc/tx_port.h **** /*                                            resulting in version 6.1.11 */
  74:../Middlewares/threadx/ports/cortex_m55/gnu/inc/tx_port.h **** /*  07-29-2022      Scott Larson            Modified comments and changed */
  75:../Middlewares/threadx/ports/cortex_m55/gnu/inc/tx_port.h **** /*                                            secure stack initialization */
  76:../Middlewares/threadx/ports/cortex_m55/gnu/inc/tx_port.h **** /*                                            macro to port-specific,     */
  77:../Middlewares/threadx/ports/cortex_m55/gnu/inc/tx_port.h **** /*                                            described BASEPRI usage,    */
  78:../Middlewares/threadx/ports/cortex_m55/gnu/inc/tx_port.h **** /*                                            resulting in version 6.1.12 */
  79:../Middlewares/threadx/ports/cortex_m55/gnu/inc/tx_port.h **** /*  03-08-2023      Scott Larson            Removed unneeded #include,    */
  80:../Middlewares/threadx/ports/cortex_m55/gnu/inc/tx_port.h **** /*                                            resulting in version 6.2.1  */
  81:../Middlewares/threadx/ports/cortex_m55/gnu/inc/tx_port.h **** /*                                                                        */
  82:../Middlewares/threadx/ports/cortex_m55/gnu/inc/tx_port.h **** /**************************************************************************/
  83:../Middlewares/threadx/ports/cortex_m55/gnu/inc/tx_port.h **** 
  84:../Middlewares/threadx/ports/cortex_m55/gnu/inc/tx_port.h **** #ifndef TX_PORT_H
  85:../Middlewares/threadx/ports/cortex_m55/gnu/inc/tx_port.h **** #define TX_PORT_H
  86:../Middlewares/threadx/ports/cortex_m55/gnu/inc/tx_port.h **** 
  87:../Middlewares/threadx/ports/cortex_m55/gnu/inc/tx_port.h **** /* Determine if the optional ThreadX user define file should be used.  */
  88:../Middlewares/threadx/ports/cortex_m55/gnu/inc/tx_port.h **** #ifdef TX_INCLUDE_USER_DEFINE_FILE
  89:../Middlewares/threadx/ports/cortex_m55/gnu/inc/tx_port.h **** 
  90:../Middlewares/threadx/ports/cortex_m55/gnu/inc/tx_port.h **** /* Yes, include the user defines in tx_user.h. The defines in this file may
  91:../Middlewares/threadx/ports/cortex_m55/gnu/inc/tx_port.h ****    alternately be defined on the command line.  */
  92:../Middlewares/threadx/ports/cortex_m55/gnu/inc/tx_port.h **** 
  93:../Middlewares/threadx/ports/cortex_m55/gnu/inc/tx_port.h **** #include "tx_user.h"
  94:../Middlewares/threadx/ports/cortex_m55/gnu/inc/tx_port.h **** #endif /* TX_INCLUDE_USER_DEFINE_FILE */
  95:../Middlewares/threadx/ports/cortex_m55/gnu/inc/tx_port.h **** 
  96:../Middlewares/threadx/ports/cortex_m55/gnu/inc/tx_port.h **** /* Define compiler library include files.  */
  97:../Middlewares/threadx/ports/cortex_m55/gnu/inc/tx_port.h **** 
  98:../Middlewares/threadx/ports/cortex_m55/gnu/inc/tx_port.h **** #include <stdlib.h>
  99:../Middlewares/threadx/ports/cortex_m55/gnu/inc/tx_port.h **** #include <string.h>
 100:../Middlewares/threadx/ports/cortex_m55/gnu/inc/tx_port.h **** 
 101:../Middlewares/threadx/ports/cortex_m55/gnu/inc/tx_port.h **** #ifdef __ICCARM__
 102:../Middlewares/threadx/ports/cortex_m55/gnu/inc/tx_port.h **** #include <intrinsics.h>                         /* IAR Intrinsics */
 103:../Middlewares/threadx/ports/cortex_m55/gnu/inc/tx_port.h **** #define __asm__                 __asm           /* Define to make all inline asm from each compiler
 104:../Middlewares/threadx/ports/cortex_m55/gnu/inc/tx_port.h **** #define _tx_control_get         __get_CONTROL
 105:../Middlewares/threadx/ports/cortex_m55/gnu/inc/tx_port.h **** #define _tx_control_set         __set_CONTROL
 106:../Middlewares/threadx/ports/cortex_m55/gnu/inc/tx_port.h **** #define _tx_ipsr_get            __get_IPSR
 107:../Middlewares/threadx/ports/cortex_m55/gnu/inc/tx_port.h **** #ifdef  TX_ENABLE_IAR_LIBRARY_SUPPORT
 108:../Middlewares/threadx/ports/cortex_m55/gnu/inc/tx_port.h **** #include <yvals.h>
 109:../Middlewares/threadx/ports/cortex_m55/gnu/inc/tx_port.h **** #endif /* TX_ENABLE_IAR_LIBRARY_SUPPORT */
 110:../Middlewares/threadx/ports/cortex_m55/gnu/inc/tx_port.h **** #endif /* __ICCARM__ */
 111:../Middlewares/threadx/ports/cortex_m55/gnu/inc/tx_port.h **** 
 112:../Middlewares/threadx/ports/cortex_m55/gnu/inc/tx_port.h **** 
 113:../Middlewares/threadx/ports/cortex_m55/gnu/inc/tx_port.h **** /* Define ThreadX basic types for this port.  */
 114:../Middlewares/threadx/ports/cortex_m55/gnu/inc/tx_port.h **** 
 115:../Middlewares/threadx/ports/cortex_m55/gnu/inc/tx_port.h **** #define VOID                                    void
 116:../Middlewares/threadx/ports/cortex_m55/gnu/inc/tx_port.h **** typedef char                                    CHAR;
 117:../Middlewares/threadx/ports/cortex_m55/gnu/inc/tx_port.h **** typedef unsigned char                           UCHAR;
 118:../Middlewares/threadx/ports/cortex_m55/gnu/inc/tx_port.h **** typedef int                                     INT;
 119:../Middlewares/threadx/ports/cortex_m55/gnu/inc/tx_port.h **** typedef unsigned int                            UINT;
 120:../Middlewares/threadx/ports/cortex_m55/gnu/inc/tx_port.h **** typedef long                                    LONG;
 121:../Middlewares/threadx/ports/cortex_m55/gnu/inc/tx_port.h **** typedef unsigned long                           ULONG;
 122:../Middlewares/threadx/ports/cortex_m55/gnu/inc/tx_port.h **** typedef unsigned long long                      ULONG64;
 123:../Middlewares/threadx/ports/cortex_m55/gnu/inc/tx_port.h **** typedef short                                   SHORT;
 124:../Middlewares/threadx/ports/cortex_m55/gnu/inc/tx_port.h **** typedef unsigned short                          USHORT;
 125:../Middlewares/threadx/ports/cortex_m55/gnu/inc/tx_port.h **** #define ULONG64_DEFINED
 126:../Middlewares/threadx/ports/cortex_m55/gnu/inc/tx_port.h **** 
ARM GAS  /tmp/ccmkd0xc.s 			page 6


 127:../Middlewares/threadx/ports/cortex_m55/gnu/inc/tx_port.h **** /* Function prototypes for this port. */
 128:../Middlewares/threadx/ports/cortex_m55/gnu/inc/tx_port.h **** struct  TX_THREAD_STRUCT;
 129:../Middlewares/threadx/ports/cortex_m55/gnu/inc/tx_port.h **** UINT    _txe_thread_secure_stack_allocate(struct TX_THREAD_STRUCT *thread_ptr, ULONG stack_size);
 130:../Middlewares/threadx/ports/cortex_m55/gnu/inc/tx_port.h **** UINT    _txe_thread_secure_stack_free(struct TX_THREAD_STRUCT *thread_ptr);
 131:../Middlewares/threadx/ports/cortex_m55/gnu/inc/tx_port.h **** UINT    _tx_thread_secure_stack_allocate(struct TX_THREAD_STRUCT *tx_thread, ULONG stack_size);
 132:../Middlewares/threadx/ports/cortex_m55/gnu/inc/tx_port.h **** UINT    _tx_thread_secure_stack_free(struct TX_THREAD_STRUCT *tx_thread);
 133:../Middlewares/threadx/ports/cortex_m55/gnu/inc/tx_port.h **** 
 134:../Middlewares/threadx/ports/cortex_m55/gnu/inc/tx_port.h **** /* Define the system API mappings based on the error checking
 135:../Middlewares/threadx/ports/cortex_m55/gnu/inc/tx_port.h ****    selected by the user.  Note: this section is only applicable to
 136:../Middlewares/threadx/ports/cortex_m55/gnu/inc/tx_port.h ****    application source code, hence the conditional that turns off this
 137:../Middlewares/threadx/ports/cortex_m55/gnu/inc/tx_port.h ****    stuff when the include file is processed by the ThreadX source. */
 138:../Middlewares/threadx/ports/cortex_m55/gnu/inc/tx_port.h **** 
 139:../Middlewares/threadx/ports/cortex_m55/gnu/inc/tx_port.h **** #ifndef TX_SOURCE_CODE
 140:../Middlewares/threadx/ports/cortex_m55/gnu/inc/tx_port.h **** 
 141:../Middlewares/threadx/ports/cortex_m55/gnu/inc/tx_port.h **** 
 142:../Middlewares/threadx/ports/cortex_m55/gnu/inc/tx_port.h **** /* Determine if error checking is desired.  If so, map API functions
 143:../Middlewares/threadx/ports/cortex_m55/gnu/inc/tx_port.h ****    to the appropriate error checking front-ends.  Otherwise, map API
 144:../Middlewares/threadx/ports/cortex_m55/gnu/inc/tx_port.h ****    functions to the core functions that actually perform the work.
 145:../Middlewares/threadx/ports/cortex_m55/gnu/inc/tx_port.h ****    Note: error checking is enabled by default.  */
 146:../Middlewares/threadx/ports/cortex_m55/gnu/inc/tx_port.h **** 
 147:../Middlewares/threadx/ports/cortex_m55/gnu/inc/tx_port.h **** #ifdef TX_DISABLE_ERROR_CHECKING
 148:../Middlewares/threadx/ports/cortex_m55/gnu/inc/tx_port.h **** 
 149:../Middlewares/threadx/ports/cortex_m55/gnu/inc/tx_port.h **** /* Services without error checking.  */
 150:../Middlewares/threadx/ports/cortex_m55/gnu/inc/tx_port.h **** 
 151:../Middlewares/threadx/ports/cortex_m55/gnu/inc/tx_port.h **** #define tx_thread_secure_stack_allocate   _tx_thread_secure_stack_allocate
 152:../Middlewares/threadx/ports/cortex_m55/gnu/inc/tx_port.h **** #define tx_thread_secure_stack_free       _tx_thread_secure_stack_free
 153:../Middlewares/threadx/ports/cortex_m55/gnu/inc/tx_port.h **** 
 154:../Middlewares/threadx/ports/cortex_m55/gnu/inc/tx_port.h **** #else
 155:../Middlewares/threadx/ports/cortex_m55/gnu/inc/tx_port.h **** 
 156:../Middlewares/threadx/ports/cortex_m55/gnu/inc/tx_port.h **** /* Services with error checking.  */
 157:../Middlewares/threadx/ports/cortex_m55/gnu/inc/tx_port.h **** 
 158:../Middlewares/threadx/ports/cortex_m55/gnu/inc/tx_port.h **** #define tx_thread_secure_stack_allocate   _txe_thread_secure_stack_allocate
 159:../Middlewares/threadx/ports/cortex_m55/gnu/inc/tx_port.h **** #define tx_thread_secure_stack_free       _txe_thread_secure_stack_free
 160:../Middlewares/threadx/ports/cortex_m55/gnu/inc/tx_port.h **** 
 161:../Middlewares/threadx/ports/cortex_m55/gnu/inc/tx_port.h **** #endif  /* TX_DISABLE_ERROR_CHECKING */
 162:../Middlewares/threadx/ports/cortex_m55/gnu/inc/tx_port.h **** #endif  /* TX_SOURCE_CODE */
 163:../Middlewares/threadx/ports/cortex_m55/gnu/inc/tx_port.h **** 
 164:../Middlewares/threadx/ports/cortex_m55/gnu/inc/tx_port.h **** /* This port has a usage fault handler in _tx_initialize_low_level for stack exceptions.  */
 165:../Middlewares/threadx/ports/cortex_m55/gnu/inc/tx_port.h **** #define TX_PORT_THREAD_STACK_ERROR_HANDLING
 166:../Middlewares/threadx/ports/cortex_m55/gnu/inc/tx_port.h **** 
 167:../Middlewares/threadx/ports/cortex_m55/gnu/inc/tx_port.h **** /* Define the priority levels for ThreadX.  Legal values range
 168:../Middlewares/threadx/ports/cortex_m55/gnu/inc/tx_port.h ****    from 32 to 1024 and MUST be evenly divisible by 32.  */
 169:../Middlewares/threadx/ports/cortex_m55/gnu/inc/tx_port.h **** 
 170:../Middlewares/threadx/ports/cortex_m55/gnu/inc/tx_port.h **** #ifndef TX_MAX_PRIORITIES
 171:../Middlewares/threadx/ports/cortex_m55/gnu/inc/tx_port.h **** #define TX_MAX_PRIORITIES                       32
 172:../Middlewares/threadx/ports/cortex_m55/gnu/inc/tx_port.h **** #endif
 173:../Middlewares/threadx/ports/cortex_m55/gnu/inc/tx_port.h **** 
 174:../Middlewares/threadx/ports/cortex_m55/gnu/inc/tx_port.h **** 
 175:../Middlewares/threadx/ports/cortex_m55/gnu/inc/tx_port.h **** /* Define the minimum stack for a ThreadX thread on this processor. If the size supplied during
 176:../Middlewares/threadx/ports/cortex_m55/gnu/inc/tx_port.h ****    thread creation is less than this value, the thread create call will return an error.  */
 177:../Middlewares/threadx/ports/cortex_m55/gnu/inc/tx_port.h **** 
 178:../Middlewares/threadx/ports/cortex_m55/gnu/inc/tx_port.h **** #ifndef TX_MINIMUM_STACK
 179:../Middlewares/threadx/ports/cortex_m55/gnu/inc/tx_port.h **** #define TX_MINIMUM_STACK                        200         /* Minimum stack size for this port  */
 180:../Middlewares/threadx/ports/cortex_m55/gnu/inc/tx_port.h **** #endif
 181:../Middlewares/threadx/ports/cortex_m55/gnu/inc/tx_port.h **** 
 182:../Middlewares/threadx/ports/cortex_m55/gnu/inc/tx_port.h **** 
 183:../Middlewares/threadx/ports/cortex_m55/gnu/inc/tx_port.h **** /* Define the system timer thread's default stack size and priority.  These are only applicable
ARM GAS  /tmp/ccmkd0xc.s 			page 7


 184:../Middlewares/threadx/ports/cortex_m55/gnu/inc/tx_port.h ****    if TX_TIMER_PROCESS_IN_ISR is not defined.  */
 185:../Middlewares/threadx/ports/cortex_m55/gnu/inc/tx_port.h **** 
 186:../Middlewares/threadx/ports/cortex_m55/gnu/inc/tx_port.h **** #ifndef TX_TIMER_THREAD_STACK_SIZE
 187:../Middlewares/threadx/ports/cortex_m55/gnu/inc/tx_port.h **** #define TX_TIMER_THREAD_STACK_SIZE              1024        /* Default timer thread stack size  */
 188:../Middlewares/threadx/ports/cortex_m55/gnu/inc/tx_port.h **** #endif
 189:../Middlewares/threadx/ports/cortex_m55/gnu/inc/tx_port.h **** 
 190:../Middlewares/threadx/ports/cortex_m55/gnu/inc/tx_port.h **** #ifndef TX_TIMER_THREAD_PRIORITY
 191:../Middlewares/threadx/ports/cortex_m55/gnu/inc/tx_port.h **** #define TX_TIMER_THREAD_PRIORITY                0           /* Default timer thread priority    */
 192:../Middlewares/threadx/ports/cortex_m55/gnu/inc/tx_port.h **** #endif
 193:../Middlewares/threadx/ports/cortex_m55/gnu/inc/tx_port.h **** 
 194:../Middlewares/threadx/ports/cortex_m55/gnu/inc/tx_port.h **** /* By default, ThreadX for Cortex-M uses the PRIMASK register to enable/disable interrupts.
 195:../Middlewares/threadx/ports/cortex_m55/gnu/inc/tx_port.h **** If using BASEPRI is desired, define the following two symbols for both c and assembly files:
 196:../Middlewares/threadx/ports/cortex_m55/gnu/inc/tx_port.h **** TX_PORT_USE_BASEPRI - This tells ThreadX to use BASEPRI instead of PRIMASK.
 197:../Middlewares/threadx/ports/cortex_m55/gnu/inc/tx_port.h **** TX_PORT_BASEPRI = (priority_mask << (8 - number_priority_bits)) - this defines the maximum priority
 198:../Middlewares/threadx/ports/cortex_m55/gnu/inc/tx_port.h **** Any interrupt with a higher priority than priority_mask will not be masked, thus the interrupt will
 199:../Middlewares/threadx/ports/cortex_m55/gnu/inc/tx_port.h **** */
 200:../Middlewares/threadx/ports/cortex_m55/gnu/inc/tx_port.h **** 
 201:../Middlewares/threadx/ports/cortex_m55/gnu/inc/tx_port.h **** /* Define various constants for the ThreadX Cortex-M port.  */
 202:../Middlewares/threadx/ports/cortex_m55/gnu/inc/tx_port.h **** 
 203:../Middlewares/threadx/ports/cortex_m55/gnu/inc/tx_port.h **** #define TX_INT_DISABLE                          1           /* Disable interrupts               */
 204:../Middlewares/threadx/ports/cortex_m55/gnu/inc/tx_port.h **** #define TX_INT_ENABLE                           0           /* Enable interrupts                */
 205:../Middlewares/threadx/ports/cortex_m55/gnu/inc/tx_port.h **** 
 206:../Middlewares/threadx/ports/cortex_m55/gnu/inc/tx_port.h **** 
 207:../Middlewares/threadx/ports/cortex_m55/gnu/inc/tx_port.h **** /* Define the clock source for trace event entry time stamp. The following two item are port specif
 208:../Middlewares/threadx/ports/cortex_m55/gnu/inc/tx_port.h ****    For example, if the time source is at the address 0x0a800024 and is 16-bits in size, the clock
 209:../Middlewares/threadx/ports/cortex_m55/gnu/inc/tx_port.h ****    source constants would be:
 210:../Middlewares/threadx/ports/cortex_m55/gnu/inc/tx_port.h **** 
 211:../Middlewares/threadx/ports/cortex_m55/gnu/inc/tx_port.h **** #define TX_TRACE_TIME_SOURCE                    *((volatile ULONG *) 0x0a800024)
 212:../Middlewares/threadx/ports/cortex_m55/gnu/inc/tx_port.h **** #define TX_TRACE_TIME_MASK                      0x0000FFFFUL
 213:../Middlewares/threadx/ports/cortex_m55/gnu/inc/tx_port.h **** 
 214:../Middlewares/threadx/ports/cortex_m55/gnu/inc/tx_port.h **** */
 215:../Middlewares/threadx/ports/cortex_m55/gnu/inc/tx_port.h **** 
 216:../Middlewares/threadx/ports/cortex_m55/gnu/inc/tx_port.h **** #ifndef TX_MISRA_ENABLE
 217:../Middlewares/threadx/ports/cortex_m55/gnu/inc/tx_port.h **** #ifndef TX_TRACE_TIME_SOURCE
 218:../Middlewares/threadx/ports/cortex_m55/gnu/inc/tx_port.h **** #define TX_TRACE_TIME_SOURCE                    *((volatile ULONG *) 0xE0001004)
 219:../Middlewares/threadx/ports/cortex_m55/gnu/inc/tx_port.h **** #endif
 220:../Middlewares/threadx/ports/cortex_m55/gnu/inc/tx_port.h **** #else
 221:../Middlewares/threadx/ports/cortex_m55/gnu/inc/tx_port.h **** ULONG   _tx_misra_time_stamp_get(VOID);
 222:../Middlewares/threadx/ports/cortex_m55/gnu/inc/tx_port.h **** #define TX_TRACE_TIME_SOURCE                    _tx_misra_time_stamp_get()
 223:../Middlewares/threadx/ports/cortex_m55/gnu/inc/tx_port.h **** #endif
 224:../Middlewares/threadx/ports/cortex_m55/gnu/inc/tx_port.h **** 
 225:../Middlewares/threadx/ports/cortex_m55/gnu/inc/tx_port.h **** #ifndef TX_TRACE_TIME_MASK
 226:../Middlewares/threadx/ports/cortex_m55/gnu/inc/tx_port.h **** #define TX_TRACE_TIME_MASK                      0xFFFFFFFFUL
 227:../Middlewares/threadx/ports/cortex_m55/gnu/inc/tx_port.h **** #endif
 228:../Middlewares/threadx/ports/cortex_m55/gnu/inc/tx_port.h **** 
 229:../Middlewares/threadx/ports/cortex_m55/gnu/inc/tx_port.h **** 
 230:../Middlewares/threadx/ports/cortex_m55/gnu/inc/tx_port.h **** /* Define the port specific options for the _tx_build_options variable. This variable indicates
 231:../Middlewares/threadx/ports/cortex_m55/gnu/inc/tx_port.h ****    how the ThreadX library was built.  */
 232:../Middlewares/threadx/ports/cortex_m55/gnu/inc/tx_port.h **** 
 233:../Middlewares/threadx/ports/cortex_m55/gnu/inc/tx_port.h **** #define TX_PORT_SPECIFIC_BUILD_OPTIONS          (0)
 234:../Middlewares/threadx/ports/cortex_m55/gnu/inc/tx_port.h **** 
 235:../Middlewares/threadx/ports/cortex_m55/gnu/inc/tx_port.h **** 
 236:../Middlewares/threadx/ports/cortex_m55/gnu/inc/tx_port.h **** /* Define the in-line initialization constant so that modules with in-line
 237:../Middlewares/threadx/ports/cortex_m55/gnu/inc/tx_port.h ****    initialization capabilities can prevent their initialization from being
 238:../Middlewares/threadx/ports/cortex_m55/gnu/inc/tx_port.h ****    a function call.  */
 239:../Middlewares/threadx/ports/cortex_m55/gnu/inc/tx_port.h **** 
 240:../Middlewares/threadx/ports/cortex_m55/gnu/inc/tx_port.h **** #ifdef TX_MISRA_ENABLE
ARM GAS  /tmp/ccmkd0xc.s 			page 8


 241:../Middlewares/threadx/ports/cortex_m55/gnu/inc/tx_port.h **** #define TX_DISABLE_INLINE
 242:../Middlewares/threadx/ports/cortex_m55/gnu/inc/tx_port.h **** #else
 243:../Middlewares/threadx/ports/cortex_m55/gnu/inc/tx_port.h **** #define TX_INLINE_INITIALIZATION
 244:../Middlewares/threadx/ports/cortex_m55/gnu/inc/tx_port.h **** #endif
 245:../Middlewares/threadx/ports/cortex_m55/gnu/inc/tx_port.h **** 
 246:../Middlewares/threadx/ports/cortex_m55/gnu/inc/tx_port.h **** 
 247:../Middlewares/threadx/ports/cortex_m55/gnu/inc/tx_port.h **** /* Determine whether or not stack checking is enabled. By default, ThreadX stack checking is
 248:../Middlewares/threadx/ports/cortex_m55/gnu/inc/tx_port.h ****    disabled. When the following is defined, ThreadX thread stack checking is enabled.  If stack
 249:../Middlewares/threadx/ports/cortex_m55/gnu/inc/tx_port.h ****    checking is enabled (TX_ENABLE_STACK_CHECKING is defined), the TX_DISABLE_STACK_FILLING
 250:../Middlewares/threadx/ports/cortex_m55/gnu/inc/tx_port.h ****    define is negated, thereby forcing the stack fill which is necessary for the stack checking
 251:../Middlewares/threadx/ports/cortex_m55/gnu/inc/tx_port.h ****    logic.  */
 252:../Middlewares/threadx/ports/cortex_m55/gnu/inc/tx_port.h **** 
 253:../Middlewares/threadx/ports/cortex_m55/gnu/inc/tx_port.h **** #ifndef TX_MISRA_ENABLE
 254:../Middlewares/threadx/ports/cortex_m55/gnu/inc/tx_port.h **** #ifdef TX_ENABLE_STACK_CHECKING
 255:../Middlewares/threadx/ports/cortex_m55/gnu/inc/tx_port.h **** #undef TX_DISABLE_STACK_FILLING
 256:../Middlewares/threadx/ports/cortex_m55/gnu/inc/tx_port.h **** #endif
 257:../Middlewares/threadx/ports/cortex_m55/gnu/inc/tx_port.h **** #endif
 258:../Middlewares/threadx/ports/cortex_m55/gnu/inc/tx_port.h **** 
 259:../Middlewares/threadx/ports/cortex_m55/gnu/inc/tx_port.h **** 
 260:../Middlewares/threadx/ports/cortex_m55/gnu/inc/tx_port.h **** /* Define the TX_THREAD control block extensions for this port. The main reason
 261:../Middlewares/threadx/ports/cortex_m55/gnu/inc/tx_port.h ****    for the multiple macros is so that backward compatibility can be maintained with
 262:../Middlewares/threadx/ports/cortex_m55/gnu/inc/tx_port.h ****    existing ThreadX kernel awareness modules.  */
 263:../Middlewares/threadx/ports/cortex_m55/gnu/inc/tx_port.h **** 
 264:../Middlewares/threadx/ports/cortex_m55/gnu/inc/tx_port.h **** #define TX_THREAD_EXTENSION_0
 265:../Middlewares/threadx/ports/cortex_m55/gnu/inc/tx_port.h **** #define TX_THREAD_EXTENSION_1
 266:../Middlewares/threadx/ports/cortex_m55/gnu/inc/tx_port.h **** 
 267:../Middlewares/threadx/ports/cortex_m55/gnu/inc/tx_port.h **** #ifdef  TX_ENABLE_IAR_LIBRARY_SUPPORT
 268:../Middlewares/threadx/ports/cortex_m55/gnu/inc/tx_port.h **** /* IAR library support */
 269:../Middlewares/threadx/ports/cortex_m55/gnu/inc/tx_port.h **** #if !defined(TX_SINGLE_MODE_SECURE) && !defined(TX_SINGLE_MODE_NON_SECURE)
 270:../Middlewares/threadx/ports/cortex_m55/gnu/inc/tx_port.h **** /* ThreadX in non-secure zone with calls to secure zone. */
 271:../Middlewares/threadx/ports/cortex_m55/gnu/inc/tx_port.h **** #define TX_THREAD_EXTENSION_2           VOID    *tx_thread_secure_stack_context;    \
 272:../Middlewares/threadx/ports/cortex_m55/gnu/inc/tx_port.h ****                                         VOID    *tx_thread_iar_tls_pointer;
 273:../Middlewares/threadx/ports/cortex_m55/gnu/inc/tx_port.h **** #else
 274:../Middlewares/threadx/ports/cortex_m55/gnu/inc/tx_port.h **** /* ThreadX in only one zone. */
 275:../Middlewares/threadx/ports/cortex_m55/gnu/inc/tx_port.h **** #define TX_THREAD_EXTENSION_2           VOID    *tx_thread_iar_tls_pointer;
 276:../Middlewares/threadx/ports/cortex_m55/gnu/inc/tx_port.h **** #endif
 277:../Middlewares/threadx/ports/cortex_m55/gnu/inc/tx_port.h **** 
 278:../Middlewares/threadx/ports/cortex_m55/gnu/inc/tx_port.h **** #else
 279:../Middlewares/threadx/ports/cortex_m55/gnu/inc/tx_port.h **** /* No IAR library support */
 280:../Middlewares/threadx/ports/cortex_m55/gnu/inc/tx_port.h **** #if !defined(TX_SINGLE_MODE_SECURE) && !defined(TX_SINGLE_MODE_NON_SECURE)
 281:../Middlewares/threadx/ports/cortex_m55/gnu/inc/tx_port.h **** /* ThreadX in non-secure zone with calls to secure zone. */
 282:../Middlewares/threadx/ports/cortex_m55/gnu/inc/tx_port.h **** #define TX_THREAD_EXTENSION_2           VOID    *tx_thread_secure_stack_context;
 283:../Middlewares/threadx/ports/cortex_m55/gnu/inc/tx_port.h **** #else
 284:../Middlewares/threadx/ports/cortex_m55/gnu/inc/tx_port.h **** /* ThreadX in only one zone. */
 285:../Middlewares/threadx/ports/cortex_m55/gnu/inc/tx_port.h **** #define TX_THREAD_EXTENSION_2
 286:../Middlewares/threadx/ports/cortex_m55/gnu/inc/tx_port.h **** #endif
 287:../Middlewares/threadx/ports/cortex_m55/gnu/inc/tx_port.h **** 
 288:../Middlewares/threadx/ports/cortex_m55/gnu/inc/tx_port.h **** #endif  /* TX_ENABLE_IAR_LIBRARY_SUPPORT */
 289:../Middlewares/threadx/ports/cortex_m55/gnu/inc/tx_port.h **** 
 290:../Middlewares/threadx/ports/cortex_m55/gnu/inc/tx_port.h **** #define TX_THREAD_EXTENSION_3
 291:../Middlewares/threadx/ports/cortex_m55/gnu/inc/tx_port.h **** 
 292:../Middlewares/threadx/ports/cortex_m55/gnu/inc/tx_port.h **** 
 293:../Middlewares/threadx/ports/cortex_m55/gnu/inc/tx_port.h **** /* Define the port extensions of the remaining ThreadX objects.  */
 294:../Middlewares/threadx/ports/cortex_m55/gnu/inc/tx_port.h **** 
 295:../Middlewares/threadx/ports/cortex_m55/gnu/inc/tx_port.h **** #define TX_BLOCK_POOL_EXTENSION
 296:../Middlewares/threadx/ports/cortex_m55/gnu/inc/tx_port.h **** #define TX_BYTE_POOL_EXTENSION
 297:../Middlewares/threadx/ports/cortex_m55/gnu/inc/tx_port.h **** #define TX_EVENT_FLAGS_GROUP_EXTENSION
ARM GAS  /tmp/ccmkd0xc.s 			page 9


 298:../Middlewares/threadx/ports/cortex_m55/gnu/inc/tx_port.h **** #define TX_MUTEX_EXTENSION
 299:../Middlewares/threadx/ports/cortex_m55/gnu/inc/tx_port.h **** #define TX_QUEUE_EXTENSION
 300:../Middlewares/threadx/ports/cortex_m55/gnu/inc/tx_port.h **** #define TX_SEMAPHORE_EXTENSION
 301:../Middlewares/threadx/ports/cortex_m55/gnu/inc/tx_port.h **** #define TX_TIMER_EXTENSION
 302:../Middlewares/threadx/ports/cortex_m55/gnu/inc/tx_port.h **** 
 303:../Middlewares/threadx/ports/cortex_m55/gnu/inc/tx_port.h **** 
 304:../Middlewares/threadx/ports/cortex_m55/gnu/inc/tx_port.h **** /* Define the user extension field of the thread control block.  Nothing
 305:../Middlewares/threadx/ports/cortex_m55/gnu/inc/tx_port.h ****    additional is needed for this port so it is defined as white space.  */
 306:../Middlewares/threadx/ports/cortex_m55/gnu/inc/tx_port.h **** 
 307:../Middlewares/threadx/ports/cortex_m55/gnu/inc/tx_port.h **** #ifndef TX_THREAD_USER_EXTENSION
 308:../Middlewares/threadx/ports/cortex_m55/gnu/inc/tx_port.h **** #define TX_THREAD_USER_EXTENSION
 309:../Middlewares/threadx/ports/cortex_m55/gnu/inc/tx_port.h **** #endif
 310:../Middlewares/threadx/ports/cortex_m55/gnu/inc/tx_port.h **** 
 311:../Middlewares/threadx/ports/cortex_m55/gnu/inc/tx_port.h **** 
 312:../Middlewares/threadx/ports/cortex_m55/gnu/inc/tx_port.h **** /* Define the macros for processing extensions in tx_thread_create, tx_thread_delete,
 313:../Middlewares/threadx/ports/cortex_m55/gnu/inc/tx_port.h ****    tx_thread_shell_entry, and tx_thread_terminate.  */
 314:../Middlewares/threadx/ports/cortex_m55/gnu/inc/tx_port.h **** #ifdef  TX_ENABLE_IAR_LIBRARY_SUPPORT
 315:../Middlewares/threadx/ports/cortex_m55/gnu/inc/tx_port.h **** void    *_tx_iar_create_per_thread_tls_area(void);
 316:../Middlewares/threadx/ports/cortex_m55/gnu/inc/tx_port.h **** void    _tx_iar_destroy_per_thread_tls_area(void *tls_ptr);
 317:../Middlewares/threadx/ports/cortex_m55/gnu/inc/tx_port.h **** void    __iar_Initlocks(void);
 318:../Middlewares/threadx/ports/cortex_m55/gnu/inc/tx_port.h **** #define TX_THREAD_CREATE_EXTENSION(thread_ptr)                      thread_ptr -> tx_thread_iar_tls
 319:../Middlewares/threadx/ports/cortex_m55/gnu/inc/tx_port.h **** 
 320:../Middlewares/threadx/ports/cortex_m55/gnu/inc/tx_port.h **** #if !defined(TX_SINGLE_MODE_SECURE) && !defined(TX_SINGLE_MODE_NON_SECURE)
 321:../Middlewares/threadx/ports/cortex_m55/gnu/inc/tx_port.h **** #define TX_THREAD_DELETE_EXTENSION(thread_ptr)                      do {_tx_iar_destroy_per_thread_
 322:../Middlewares/threadx/ports/cortex_m55/gnu/inc/tx_port.h ****                                                                         thread_ptr -> tx_thread_iar
 323:../Middlewares/threadx/ports/cortex_m55/gnu/inc/tx_port.h ****                                                                     if(thread_ptr -> tx_thread_secu
 324:../Middlewares/threadx/ports/cortex_m55/gnu/inc/tx_port.h **** #else
 325:../Middlewares/threadx/ports/cortex_m55/gnu/inc/tx_port.h **** #define TX_THREAD_DELETE_EXTENSION(thread_ptr)                      do {_tx_iar_destroy_per_thread_
 326:../Middlewares/threadx/ports/cortex_m55/gnu/inc/tx_port.h ****                                                                         thread_ptr -> tx_thread_iar
 327:../Middlewares/threadx/ports/cortex_m55/gnu/inc/tx_port.h **** #endif
 328:../Middlewares/threadx/ports/cortex_m55/gnu/inc/tx_port.h **** #define TX_PORT_SPECIFIC_PRE_SCHEDULER_INITIALIZATION               do {__iar_Initlocks();} while(0
 329:../Middlewares/threadx/ports/cortex_m55/gnu/inc/tx_port.h **** 
 330:../Middlewares/threadx/ports/cortex_m55/gnu/inc/tx_port.h **** #else   /* No IAR library support. */
 331:../Middlewares/threadx/ports/cortex_m55/gnu/inc/tx_port.h **** #define TX_THREAD_CREATE_EXTENSION(thread_ptr)
 332:../Middlewares/threadx/ports/cortex_m55/gnu/inc/tx_port.h **** #if !defined(TX_SINGLE_MODE_SECURE) && !defined(TX_SINGLE_MODE_NON_SECURE)
 333:../Middlewares/threadx/ports/cortex_m55/gnu/inc/tx_port.h **** #define TX_THREAD_DELETE_EXTENSION(thread_ptr)                      if(thread_ptr -> tx_thread_secu
 334:../Middlewares/threadx/ports/cortex_m55/gnu/inc/tx_port.h **** #else
 335:../Middlewares/threadx/ports/cortex_m55/gnu/inc/tx_port.h **** #define TX_THREAD_DELETE_EXTENSION(thread_ptr)
 336:../Middlewares/threadx/ports/cortex_m55/gnu/inc/tx_port.h **** #endif
 337:../Middlewares/threadx/ports/cortex_m55/gnu/inc/tx_port.h **** #endif  /* TX_ENABLE_IAR_LIBRARY_SUPPORT */
 338:../Middlewares/threadx/ports/cortex_m55/gnu/inc/tx_port.h **** 
 339:../Middlewares/threadx/ports/cortex_m55/gnu/inc/tx_port.h **** #if !defined(TX_SINGLE_MODE_SECURE) && !defined(TX_SINGLE_MODE_NON_SECURE)
 340:../Middlewares/threadx/ports/cortex_m55/gnu/inc/tx_port.h **** /* Define the size of the secure stack for the timer thread and use the extension to allocate the s
 341:../Middlewares/threadx/ports/cortex_m55/gnu/inc/tx_port.h **** #define TX_TIMER_THREAD_SECURE_STACK_SIZE       256
 342:../Middlewares/threadx/ports/cortex_m55/gnu/inc/tx_port.h **** #define TX_TIMER_INITIALIZE_EXTENSION(status)   _tx_thread_secure_stack_allocate(&_tx_timer_thread,
 343:../Middlewares/threadx/ports/cortex_m55/gnu/inc/tx_port.h **** #endif
 344:../Middlewares/threadx/ports/cortex_m55/gnu/inc/tx_port.h **** 
 345:../Middlewares/threadx/ports/cortex_m55/gnu/inc/tx_port.h **** 
 346:../Middlewares/threadx/ports/cortex_m55/gnu/inc/tx_port.h **** #if defined(__ARMVFP__) || defined(__ARM_PCS_VFP) || defined(__ARM_FP) || defined(__TARGET_FPU_VFP)
 347:../Middlewares/threadx/ports/cortex_m55/gnu/inc/tx_port.h **** 
 348:../Middlewares/threadx/ports/cortex_m55/gnu/inc/tx_port.h **** #ifdef TX_MISRA_ENABLE
 349:../Middlewares/threadx/ports/cortex_m55/gnu/inc/tx_port.h **** 
 350:../Middlewares/threadx/ports/cortex_m55/gnu/inc/tx_port.h **** ULONG  _tx_misra_control_get(void);
 351:../Middlewares/threadx/ports/cortex_m55/gnu/inc/tx_port.h **** void   _tx_misra_control_set(ULONG value);
 352:../Middlewares/threadx/ports/cortex_m55/gnu/inc/tx_port.h **** ULONG  _tx_misra_fpccr_get(void);
 353:../Middlewares/threadx/ports/cortex_m55/gnu/inc/tx_port.h **** void   _tx_misra_vfp_touch(void);
 354:../Middlewares/threadx/ports/cortex_m55/gnu/inc/tx_port.h **** 
ARM GAS  /tmp/ccmkd0xc.s 			page 10


 355:../Middlewares/threadx/ports/cortex_m55/gnu/inc/tx_port.h **** #else   /* TX_MISRA_ENABLE not defined */
 356:../Middlewares/threadx/ports/cortex_m55/gnu/inc/tx_port.h **** 
 357:../Middlewares/threadx/ports/cortex_m55/gnu/inc/tx_port.h **** #ifdef __GNUC__ /* GCC and ARM Compiler 6 */
 358:../Middlewares/threadx/ports/cortex_m55/gnu/inc/tx_port.h **** 
 359:../Middlewares/threadx/ports/cortex_m55/gnu/inc/tx_port.h **** __attribute__( ( always_inline ) ) static inline ULONG _tx_control_get(void)
 360:../Middlewares/threadx/ports/cortex_m55/gnu/inc/tx_port.h **** {
 361:../Middlewares/threadx/ports/cortex_m55/gnu/inc/tx_port.h **** ULONG  control_value;
 362:../Middlewares/threadx/ports/cortex_m55/gnu/inc/tx_port.h **** 
 363:../Middlewares/threadx/ports/cortex_m55/gnu/inc/tx_port.h ****     __asm__ volatile (" MRS  %0,CONTROL ": "=r" (control_value) );
 364:../Middlewares/threadx/ports/cortex_m55/gnu/inc/tx_port.h ****     return(control_value);
 365:../Middlewares/threadx/ports/cortex_m55/gnu/inc/tx_port.h **** }
 366:../Middlewares/threadx/ports/cortex_m55/gnu/inc/tx_port.h **** 
 367:../Middlewares/threadx/ports/cortex_m55/gnu/inc/tx_port.h **** __attribute__( ( always_inline ) ) static inline void _tx_control_set(ULONG control_value)
 368:../Middlewares/threadx/ports/cortex_m55/gnu/inc/tx_port.h **** {
 369:../Middlewares/threadx/ports/cortex_m55/gnu/inc/tx_port.h ****     __asm__ volatile (" MSR  CONTROL,%0": : "r" (control_value): "memory" );
 370:../Middlewares/threadx/ports/cortex_m55/gnu/inc/tx_port.h **** }
 371:../Middlewares/threadx/ports/cortex_m55/gnu/inc/tx_port.h **** 
 372:../Middlewares/threadx/ports/cortex_m55/gnu/inc/tx_port.h **** #endif  /* __GNUC__ */
 373:../Middlewares/threadx/ports/cortex_m55/gnu/inc/tx_port.h **** 
 374:../Middlewares/threadx/ports/cortex_m55/gnu/inc/tx_port.h **** /* Touch VFP register in order to flush. Works for AC6/GCC/IAR compilers. */
 375:../Middlewares/threadx/ports/cortex_m55/gnu/inc/tx_port.h **** #define TX_VFP_TOUCH()  __asm__ volatile ("VMOV.F32 s0, s0");
 376:../Middlewares/threadx/ports/cortex_m55/gnu/inc/tx_port.h **** 
 377:../Middlewares/threadx/ports/cortex_m55/gnu/inc/tx_port.h **** #endif  /* TX_MISRA_ENABLE */
 378:../Middlewares/threadx/ports/cortex_m55/gnu/inc/tx_port.h **** 
 379:../Middlewares/threadx/ports/cortex_m55/gnu/inc/tx_port.h **** /* A completed thread falls into _thread_shell_entry and we can simply deactivate the FPU via CONTR
 380:../Middlewares/threadx/ports/cortex_m55/gnu/inc/tx_port.h ****    in order to ensure no lazy stacking will occur. */
 381:../Middlewares/threadx/ports/cortex_m55/gnu/inc/tx_port.h **** 
 382:../Middlewares/threadx/ports/cortex_m55/gnu/inc/tx_port.h **** #ifndef TX_MISRA_ENABLE
 383:../Middlewares/threadx/ports/cortex_m55/gnu/inc/tx_port.h **** 
 384:../Middlewares/threadx/ports/cortex_m55/gnu/inc/tx_port.h **** #define TX_THREAD_COMPLETED_EXTENSION(thread_ptr)   {                                              
 385:../Middlewares/threadx/ports/cortex_m55/gnu/inc/tx_port.h ****                                                     ULONG  _tx_vfp_state;                          
 386:../Middlewares/threadx/ports/cortex_m55/gnu/inc/tx_port.h ****                                                         _tx_vfp_state = _tx_control_get();         
 387:../Middlewares/threadx/ports/cortex_m55/gnu/inc/tx_port.h ****                                                         _tx_vfp_state = _tx_vfp_state & ~((ULONG) 0
 388:../Middlewares/threadx/ports/cortex_m55/gnu/inc/tx_port.h ****                                                         _tx_control_set(_tx_vfp_state);            
 389:../Middlewares/threadx/ports/cortex_m55/gnu/inc/tx_port.h ****                                                     }
 390:../Middlewares/threadx/ports/cortex_m55/gnu/inc/tx_port.h **** #else
 391:../Middlewares/threadx/ports/cortex_m55/gnu/inc/tx_port.h **** 
 392:../Middlewares/threadx/ports/cortex_m55/gnu/inc/tx_port.h **** #define TX_THREAD_COMPLETED_EXTENSION(thread_ptr)   {                                              
 393:../Middlewares/threadx/ports/cortex_m55/gnu/inc/tx_port.h ****                                                     ULONG  _tx_vfp_state;                          
 394:../Middlewares/threadx/ports/cortex_m55/gnu/inc/tx_port.h ****                                                         _tx_vfp_state = _tx_misra_control_get();   
 395:../Middlewares/threadx/ports/cortex_m55/gnu/inc/tx_port.h ****                                                         _tx_vfp_state = _tx_vfp_state & ~((ULONG) 0
 396:../Middlewares/threadx/ports/cortex_m55/gnu/inc/tx_port.h ****                                                         _tx_misra_control_set(_tx_vfp_state);      
 397:../Middlewares/threadx/ports/cortex_m55/gnu/inc/tx_port.h ****                                                     }
 398:../Middlewares/threadx/ports/cortex_m55/gnu/inc/tx_port.h **** #endif
 399:../Middlewares/threadx/ports/cortex_m55/gnu/inc/tx_port.h **** 
 400:../Middlewares/threadx/ports/cortex_m55/gnu/inc/tx_port.h **** /* A thread can be terminated by another thread, so we first check if it's self-terminating and not
 401:../Middlewares/threadx/ports/cortex_m55/gnu/inc/tx_port.h ****    If so, deactivate the FPU via CONTROL.FPCA. Otherwise we are in an interrupt or another thread i
 402:../Middlewares/threadx/ports/cortex_m55/gnu/inc/tx_port.h ****    this one, so if the FPCCR.LSPACT bit is set, we need to save the CONTROL.FPCA state, touch the F
 403:../Middlewares/threadx/ports/cortex_m55/gnu/inc/tx_port.h ****    the lazy FPU save, then restore the CONTROL.FPCA state. */
 404:../Middlewares/threadx/ports/cortex_m55/gnu/inc/tx_port.h **** 
 405:../Middlewares/threadx/ports/cortex_m55/gnu/inc/tx_port.h **** #ifndef TX_MISRA_ENABLE
 406:../Middlewares/threadx/ports/cortex_m55/gnu/inc/tx_port.h **** 
 407:../Middlewares/threadx/ports/cortex_m55/gnu/inc/tx_port.h **** #define TX_THREAD_TERMINATED_EXTENSION(thread_ptr)  {                                              
 408:../Middlewares/threadx/ports/cortex_m55/gnu/inc/tx_port.h ****                                                     ULONG  _tx_system_state;                       
 409:../Middlewares/threadx/ports/cortex_m55/gnu/inc/tx_port.h ****                                                         _tx_system_state = TX_THREAD_GET_SYSTEM_STA
 410:../Middlewares/threadx/ports/cortex_m55/gnu/inc/tx_port.h ****                                                         if ((_tx_system_state == ((ULONG) 0)) && ((
 411:../Middlewares/threadx/ports/cortex_m55/gnu/inc/tx_port.h ****                                                         {                                          
ARM GAS  /tmp/ccmkd0xc.s 			page 11


 412:../Middlewares/threadx/ports/cortex_m55/gnu/inc/tx_port.h ****                                                         ULONG  _tx_vfp_state;                      
 413:../Middlewares/threadx/ports/cortex_m55/gnu/inc/tx_port.h ****                                                             _tx_vfp_state = _tx_control_get();     
 414:../Middlewares/threadx/ports/cortex_m55/gnu/inc/tx_port.h ****                                                             _tx_vfp_state = _tx_vfp_state & ~((ULON
 415:../Middlewares/threadx/ports/cortex_m55/gnu/inc/tx_port.h ****                                                             _tx_control_set(_tx_vfp_state);        
 416:../Middlewares/threadx/ports/cortex_m55/gnu/inc/tx_port.h ****                                                         }                                          
 417:../Middlewares/threadx/ports/cortex_m55/gnu/inc/tx_port.h ****                                                         else                                       
 418:../Middlewares/threadx/ports/cortex_m55/gnu/inc/tx_port.h ****                                                         {                                          
 419:../Middlewares/threadx/ports/cortex_m55/gnu/inc/tx_port.h ****                                                         ULONG  _tx_fpccr;                          
 420:../Middlewares/threadx/ports/cortex_m55/gnu/inc/tx_port.h ****                                                             _tx_fpccr = *((volatile ULONG *) 0xE000
 421:../Middlewares/threadx/ports/cortex_m55/gnu/inc/tx_port.h ****                                                             _tx_fpccr = _tx_fpccr & ((ULONG) 0x01);
 422:../Middlewares/threadx/ports/cortex_m55/gnu/inc/tx_port.h ****                                                             if (_tx_fpccr == ((ULONG) 0x01))       
 423:../Middlewares/threadx/ports/cortex_m55/gnu/inc/tx_port.h ****                                                             {                                      
 424:../Middlewares/threadx/ports/cortex_m55/gnu/inc/tx_port.h ****                                                             ULONG _tx_vfp_state;                   
 425:../Middlewares/threadx/ports/cortex_m55/gnu/inc/tx_port.h ****                                                                 _tx_vfp_state = _tx_control_get(); 
 426:../Middlewares/threadx/ports/cortex_m55/gnu/inc/tx_port.h ****                                                                 _tx_vfp_state = _tx_vfp_state & ((U
 427:../Middlewares/threadx/ports/cortex_m55/gnu/inc/tx_port.h ****                                                                 TX_VFP_TOUCH();                    
 428:../Middlewares/threadx/ports/cortex_m55/gnu/inc/tx_port.h ****                                                                 if (_tx_vfp_state == ((ULONG) 0))  
 429:../Middlewares/threadx/ports/cortex_m55/gnu/inc/tx_port.h ****                                                                 {                                  
 430:../Middlewares/threadx/ports/cortex_m55/gnu/inc/tx_port.h ****                                                                     _tx_vfp_state = _tx_control_get
 431:../Middlewares/threadx/ports/cortex_m55/gnu/inc/tx_port.h ****                                                                     _tx_vfp_state = _tx_vfp_state &
 432:../Middlewares/threadx/ports/cortex_m55/gnu/inc/tx_port.h ****                                                                     _tx_control_set(_tx_vfp_state);
 433:../Middlewares/threadx/ports/cortex_m55/gnu/inc/tx_port.h ****                                                                 }                                  
 434:../Middlewares/threadx/ports/cortex_m55/gnu/inc/tx_port.h ****                                                             }                                      
 435:../Middlewares/threadx/ports/cortex_m55/gnu/inc/tx_port.h ****                                                         }                                          
 436:../Middlewares/threadx/ports/cortex_m55/gnu/inc/tx_port.h ****                                                     }
 437:../Middlewares/threadx/ports/cortex_m55/gnu/inc/tx_port.h **** #else
 438:../Middlewares/threadx/ports/cortex_m55/gnu/inc/tx_port.h **** 
 439:../Middlewares/threadx/ports/cortex_m55/gnu/inc/tx_port.h **** #define TX_THREAD_TERMINATED_EXTENSION(thread_ptr)  {                                              
 440:../Middlewares/threadx/ports/cortex_m55/gnu/inc/tx_port.h ****                                                     ULONG  _tx_system_state;                       
 441:../Middlewares/threadx/ports/cortex_m55/gnu/inc/tx_port.h ****                                                         _tx_system_state = TX_THREAD_GET_SYSTEM_STA
 442:../Middlewares/threadx/ports/cortex_m55/gnu/inc/tx_port.h ****                                                         if ((_tx_system_state == ((ULONG) 0)) && ((
 443:../Middlewares/threadx/ports/cortex_m55/gnu/inc/tx_port.h ****                                                         {                                          
 444:../Middlewares/threadx/ports/cortex_m55/gnu/inc/tx_port.h ****                                                         ULONG  _tx_vfp_state;                      
 445:../Middlewares/threadx/ports/cortex_m55/gnu/inc/tx_port.h ****                                                             _tx_vfp_state = _tx_misra_control_get()
 446:../Middlewares/threadx/ports/cortex_m55/gnu/inc/tx_port.h ****                                                             _tx_vfp_state = _tx_vfp_state & ~((ULON
 447:../Middlewares/threadx/ports/cortex_m55/gnu/inc/tx_port.h ****                                                             _tx_misra_control_set(_tx_vfp_state);  
 448:../Middlewares/threadx/ports/cortex_m55/gnu/inc/tx_port.h ****                                                         }                                          
 449:../Middlewares/threadx/ports/cortex_m55/gnu/inc/tx_port.h ****                                                         else                                       
 450:../Middlewares/threadx/ports/cortex_m55/gnu/inc/tx_port.h ****                                                         {                                          
 451:../Middlewares/threadx/ports/cortex_m55/gnu/inc/tx_port.h ****                                                         ULONG  _tx_fpccr;                          
 452:../Middlewares/threadx/ports/cortex_m55/gnu/inc/tx_port.h ****                                                             _tx_fpccr = _tx_misra_fpccr_get();     
 453:../Middlewares/threadx/ports/cortex_m55/gnu/inc/tx_port.h ****                                                             _tx_fpccr = _tx_fpccr & ((ULONG) 0x01);
 454:../Middlewares/threadx/ports/cortex_m55/gnu/inc/tx_port.h ****                                                             if (_tx_fpccr == ((ULONG) 0x01))       
 455:../Middlewares/threadx/ports/cortex_m55/gnu/inc/tx_port.h ****                                                             {                                      
 456:../Middlewares/threadx/ports/cortex_m55/gnu/inc/tx_port.h ****                                                             ULONG _tx_vfp_state;                   
 457:../Middlewares/threadx/ports/cortex_m55/gnu/inc/tx_port.h ****                                                                 _tx_vfp_state = _tx_misra_control_g
 458:../Middlewares/threadx/ports/cortex_m55/gnu/inc/tx_port.h ****                                                                 _tx_vfp_state = _tx_vfp_state & ((U
 459:../Middlewares/threadx/ports/cortex_m55/gnu/inc/tx_port.h ****                                                                 _tx_misra_vfp_touch();             
 460:../Middlewares/threadx/ports/cortex_m55/gnu/inc/tx_port.h ****                                                                 if (_tx_vfp_state == ((ULONG) 0))  
 461:../Middlewares/threadx/ports/cortex_m55/gnu/inc/tx_port.h ****                                                                 {                                  
 462:../Middlewares/threadx/ports/cortex_m55/gnu/inc/tx_port.h ****                                                                     _tx_vfp_state = _tx_misra_contr
 463:../Middlewares/threadx/ports/cortex_m55/gnu/inc/tx_port.h ****                                                                     _tx_vfp_state = _tx_vfp_state &
 464:../Middlewares/threadx/ports/cortex_m55/gnu/inc/tx_port.h ****                                                                     _tx_misra_control_set(_tx_vfp_s
 465:../Middlewares/threadx/ports/cortex_m55/gnu/inc/tx_port.h ****                                                                 }                                  
 466:../Middlewares/threadx/ports/cortex_m55/gnu/inc/tx_port.h ****                                                             }                                      
 467:../Middlewares/threadx/ports/cortex_m55/gnu/inc/tx_port.h ****                                                         }                                          
 468:../Middlewares/threadx/ports/cortex_m55/gnu/inc/tx_port.h ****                                                     }
ARM GAS  /tmp/ccmkd0xc.s 			page 12


 469:../Middlewares/threadx/ports/cortex_m55/gnu/inc/tx_port.h **** #endif
 470:../Middlewares/threadx/ports/cortex_m55/gnu/inc/tx_port.h **** 
 471:../Middlewares/threadx/ports/cortex_m55/gnu/inc/tx_port.h **** #else   /* No VFP in use */
 472:../Middlewares/threadx/ports/cortex_m55/gnu/inc/tx_port.h **** 
 473:../Middlewares/threadx/ports/cortex_m55/gnu/inc/tx_port.h **** #define TX_THREAD_COMPLETED_EXTENSION(thread_ptr)
 474:../Middlewares/threadx/ports/cortex_m55/gnu/inc/tx_port.h **** #define TX_THREAD_TERMINATED_EXTENSION(thread_ptr)
 475:../Middlewares/threadx/ports/cortex_m55/gnu/inc/tx_port.h **** 
 476:../Middlewares/threadx/ports/cortex_m55/gnu/inc/tx_port.h **** #endif  /* defined(__ARMVFP__) || defined(__ARM_PCS_VFP) || defined(__ARM_FP) || defined(__TARGET_F
 477:../Middlewares/threadx/ports/cortex_m55/gnu/inc/tx_port.h **** 
 478:../Middlewares/threadx/ports/cortex_m55/gnu/inc/tx_port.h **** 
 479:../Middlewares/threadx/ports/cortex_m55/gnu/inc/tx_port.h **** /* Define the ThreadX object creation extensions for the remaining objects.  */
 480:../Middlewares/threadx/ports/cortex_m55/gnu/inc/tx_port.h **** 
 481:../Middlewares/threadx/ports/cortex_m55/gnu/inc/tx_port.h **** #define TX_BLOCK_POOL_CREATE_EXTENSION(pool_ptr)
 482:../Middlewares/threadx/ports/cortex_m55/gnu/inc/tx_port.h **** #define TX_BYTE_POOL_CREATE_EXTENSION(pool_ptr)
 483:../Middlewares/threadx/ports/cortex_m55/gnu/inc/tx_port.h **** #define TX_EVENT_FLAGS_GROUP_CREATE_EXTENSION(group_ptr)
 484:../Middlewares/threadx/ports/cortex_m55/gnu/inc/tx_port.h **** #define TX_MUTEX_CREATE_EXTENSION(mutex_ptr)
 485:../Middlewares/threadx/ports/cortex_m55/gnu/inc/tx_port.h **** #define TX_QUEUE_CREATE_EXTENSION(queue_ptr)
 486:../Middlewares/threadx/ports/cortex_m55/gnu/inc/tx_port.h **** #define TX_SEMAPHORE_CREATE_EXTENSION(semaphore_ptr)
 487:../Middlewares/threadx/ports/cortex_m55/gnu/inc/tx_port.h **** #define TX_TIMER_CREATE_EXTENSION(timer_ptr)
 488:../Middlewares/threadx/ports/cortex_m55/gnu/inc/tx_port.h **** 
 489:../Middlewares/threadx/ports/cortex_m55/gnu/inc/tx_port.h **** 
 490:../Middlewares/threadx/ports/cortex_m55/gnu/inc/tx_port.h **** /* Define the ThreadX object deletion extensions for the remaining objects.  */
 491:../Middlewares/threadx/ports/cortex_m55/gnu/inc/tx_port.h **** 
 492:../Middlewares/threadx/ports/cortex_m55/gnu/inc/tx_port.h **** #define TX_BLOCK_POOL_DELETE_EXTENSION(pool_ptr)
 493:../Middlewares/threadx/ports/cortex_m55/gnu/inc/tx_port.h **** #define TX_BYTE_POOL_DELETE_EXTENSION(pool_ptr)
 494:../Middlewares/threadx/ports/cortex_m55/gnu/inc/tx_port.h **** #define TX_EVENT_FLAGS_GROUP_DELETE_EXTENSION(group_ptr)
 495:../Middlewares/threadx/ports/cortex_m55/gnu/inc/tx_port.h **** #define TX_MUTEX_DELETE_EXTENSION(mutex_ptr)
 496:../Middlewares/threadx/ports/cortex_m55/gnu/inc/tx_port.h **** #define TX_QUEUE_DELETE_EXTENSION(queue_ptr)
 497:../Middlewares/threadx/ports/cortex_m55/gnu/inc/tx_port.h **** #define TX_SEMAPHORE_DELETE_EXTENSION(semaphore_ptr)
 498:../Middlewares/threadx/ports/cortex_m55/gnu/inc/tx_port.h **** #define TX_TIMER_DELETE_EXTENSION(timer_ptr)
 499:../Middlewares/threadx/ports/cortex_m55/gnu/inc/tx_port.h **** 
 500:../Middlewares/threadx/ports/cortex_m55/gnu/inc/tx_port.h **** 
 501:../Middlewares/threadx/ports/cortex_m55/gnu/inc/tx_port.h **** /* Define the get system state macro.  */
 502:../Middlewares/threadx/ports/cortex_m55/gnu/inc/tx_port.h **** 
 503:../Middlewares/threadx/ports/cortex_m55/gnu/inc/tx_port.h **** #ifndef TX_THREAD_GET_SYSTEM_STATE
 504:../Middlewares/threadx/ports/cortex_m55/gnu/inc/tx_port.h **** #ifndef TX_MISRA_ENABLE
 505:../Middlewares/threadx/ports/cortex_m55/gnu/inc/tx_port.h **** 
 506:../Middlewares/threadx/ports/cortex_m55/gnu/inc/tx_port.h **** #if defined(__GNUC__) /* GCC and AC6 */
 507:../Middlewares/threadx/ports/cortex_m55/gnu/inc/tx_port.h **** __attribute__( ( always_inline ) ) static inline UINT _tx_ipsr_get(void)
 508:../Middlewares/threadx/ports/cortex_m55/gnu/inc/tx_port.h **** {
 509:../Middlewares/threadx/ports/cortex_m55/gnu/inc/tx_port.h **** UINT ipsr_value;
 510:../Middlewares/threadx/ports/cortex_m55/gnu/inc/tx_port.h ****     __asm__ volatile (" MRS  %0,IPSR ": "=r" (ipsr_value) );
 511:../Middlewares/threadx/ports/cortex_m55/gnu/inc/tx_port.h ****     return(ipsr_value);
 512:../Middlewares/threadx/ports/cortex_m55/gnu/inc/tx_port.h **** }
 513:../Middlewares/threadx/ports/cortex_m55/gnu/inc/tx_port.h **** #endif  /* GCC and AC6 IPSR_get function. */
 514:../Middlewares/threadx/ports/cortex_m55/gnu/inc/tx_port.h **** 
 515:../Middlewares/threadx/ports/cortex_m55/gnu/inc/tx_port.h **** #define TX_THREAD_GET_SYSTEM_STATE()        (_tx_thread_system_state | _tx_ipsr_get())
 516:../Middlewares/threadx/ports/cortex_m55/gnu/inc/tx_port.h **** 
 517:../Middlewares/threadx/ports/cortex_m55/gnu/inc/tx_port.h **** #else   /* TX_MISRA_ENABLE is defined, use MISRA function. */
 518:../Middlewares/threadx/ports/cortex_m55/gnu/inc/tx_port.h **** ULONG   _tx_misra_ipsr_get(VOID);
 519:../Middlewares/threadx/ports/cortex_m55/gnu/inc/tx_port.h **** #define TX_THREAD_GET_SYSTEM_STATE()        (_tx_thread_system_state | _tx_misra_ipsr_get())
 520:../Middlewares/threadx/ports/cortex_m55/gnu/inc/tx_port.h **** #endif  /* TX_MISRA_ENABLE */
 521:../Middlewares/threadx/ports/cortex_m55/gnu/inc/tx_port.h **** #endif  /* TX_THREAD_GET_SYSTEM_STATE */
 522:../Middlewares/threadx/ports/cortex_m55/gnu/inc/tx_port.h **** 
 523:../Middlewares/threadx/ports/cortex_m55/gnu/inc/tx_port.h **** 
 524:../Middlewares/threadx/ports/cortex_m55/gnu/inc/tx_port.h **** /* Define the check for whether or not to call the _tx_thread_system_return function.  A non-zero v
 525:../Middlewares/threadx/ports/cortex_m55/gnu/inc/tx_port.h ****    indicates that _tx_thread_system_return should not be called. This overrides the definition in t
ARM GAS  /tmp/ccmkd0xc.s 			page 13


 526:../Middlewares/threadx/ports/cortex_m55/gnu/inc/tx_port.h ****    for Cortex-M since so we don't waste time checking the _tx_thread_system_state variable that is 
 527:../Middlewares/threadx/ports/cortex_m55/gnu/inc/tx_port.h ****    zero after initialization for Cortex-M ports. */
 528:../Middlewares/threadx/ports/cortex_m55/gnu/inc/tx_port.h **** 
 529:../Middlewares/threadx/ports/cortex_m55/gnu/inc/tx_port.h **** #ifndef TX_THREAD_SYSTEM_RETURN_CHECK
 530:../Middlewares/threadx/ports/cortex_m55/gnu/inc/tx_port.h **** #define TX_THREAD_SYSTEM_RETURN_CHECK(c)    (c) = ((ULONG) _tx_thread_preempt_disable);
 531:../Middlewares/threadx/ports/cortex_m55/gnu/inc/tx_port.h **** #endif
 532:../Middlewares/threadx/ports/cortex_m55/gnu/inc/tx_port.h **** 
 533:../Middlewares/threadx/ports/cortex_m55/gnu/inc/tx_port.h **** #if !defined(TX_SINGLE_MODE_SECURE) && !defined(TX_SINGLE_MODE_NON_SECURE)
 534:../Middlewares/threadx/ports/cortex_m55/gnu/inc/tx_port.h **** /* Initialize secure stacks for threads calling secure functions. */
 535:../Middlewares/threadx/ports/cortex_m55/gnu/inc/tx_port.h **** extern void    _tx_thread_secure_stack_initialize(void);
 536:../Middlewares/threadx/ports/cortex_m55/gnu/inc/tx_port.h **** #define TX_PORT_SPECIFIC_PRE_INITIALIZATION             _tx_thread_secure_stack_initialize();
 537:../Middlewares/threadx/ports/cortex_m55/gnu/inc/tx_port.h **** #endif
 538:../Middlewares/threadx/ports/cortex_m55/gnu/inc/tx_port.h **** 
 539:../Middlewares/threadx/ports/cortex_m55/gnu/inc/tx_port.h **** /* Define the macro to ensure _tx_thread_preempt_disable is set early in initialization in order to
 540:../Middlewares/threadx/ports/cortex_m55/gnu/inc/tx_port.h ****    prevent early scheduling on Cortex-M parts.  */
 541:../Middlewares/threadx/ports/cortex_m55/gnu/inc/tx_port.h **** 
 542:../Middlewares/threadx/ports/cortex_m55/gnu/inc/tx_port.h **** #define TX_PORT_SPECIFIC_POST_INITIALIZATION    _tx_thread_preempt_disable++;
 543:../Middlewares/threadx/ports/cortex_m55/gnu/inc/tx_port.h **** 
 544:../Middlewares/threadx/ports/cortex_m55/gnu/inc/tx_port.h **** 
 545:../Middlewares/threadx/ports/cortex_m55/gnu/inc/tx_port.h **** 
 546:../Middlewares/threadx/ports/cortex_m55/gnu/inc/tx_port.h **** 
 547:../Middlewares/threadx/ports/cortex_m55/gnu/inc/tx_port.h **** #ifndef TX_DISABLE_INLINE
 548:../Middlewares/threadx/ports/cortex_m55/gnu/inc/tx_port.h **** 
 549:../Middlewares/threadx/ports/cortex_m55/gnu/inc/tx_port.h **** /* Define the TX_LOWEST_SET_BIT_CALCULATE macro for each compiler. */
 550:../Middlewares/threadx/ports/cortex_m55/gnu/inc/tx_port.h **** #ifdef __ICCARM__       /* IAR Compiler */
 551:../Middlewares/threadx/ports/cortex_m55/gnu/inc/tx_port.h **** #define TX_LOWEST_SET_BIT_CALCULATE(m, b)       (b) = (UINT) __CLZ(__RBIT((m)));
 552:../Middlewares/threadx/ports/cortex_m55/gnu/inc/tx_port.h **** #elif defined(__GNUC__) /* GCC and AC6 Compiler */
 553:../Middlewares/threadx/ports/cortex_m55/gnu/inc/tx_port.h **** #define TX_LOWEST_SET_BIT_CALCULATE(m, b)       __asm__ volatile (" RBIT %0,%1 ": "=r" (m) : "r" (m
 554:../Middlewares/threadx/ports/cortex_m55/gnu/inc/tx_port.h ****                                                 __asm__ volatile (" CLZ  %0,%1 ": "=r" (b) : "r" (m
 555:../Middlewares/threadx/ports/cortex_m55/gnu/inc/tx_port.h **** #else
 556:../Middlewares/threadx/ports/cortex_m55/gnu/inc/tx_port.h **** #error "Compiler not supported."
 557:../Middlewares/threadx/ports/cortex_m55/gnu/inc/tx_port.h **** #endif
 558:../Middlewares/threadx/ports/cortex_m55/gnu/inc/tx_port.h **** 
 559:../Middlewares/threadx/ports/cortex_m55/gnu/inc/tx_port.h **** 
 560:../Middlewares/threadx/ports/cortex_m55/gnu/inc/tx_port.h **** 
 561:../Middlewares/threadx/ports/cortex_m55/gnu/inc/tx_port.h **** /* Define the interrupt disable/restore macros. */
 562:../Middlewares/threadx/ports/cortex_m55/gnu/inc/tx_port.h **** 
 563:../Middlewares/threadx/ports/cortex_m55/gnu/inc/tx_port.h **** __attribute__( ( always_inline ) ) static inline UINT __get_interrupt_posture(void)
 564:../Middlewares/threadx/ports/cortex_m55/gnu/inc/tx_port.h **** {
 565:../Middlewares/threadx/ports/cortex_m55/gnu/inc/tx_port.h **** UINT posture;
 566:../Middlewares/threadx/ports/cortex_m55/gnu/inc/tx_port.h **** #ifdef TX_PORT_USE_BASEPRI
 567:../Middlewares/threadx/ports/cortex_m55/gnu/inc/tx_port.h ****     __asm__ volatile ("MRS  %0, BASEPRI ": "=r" (posture));
 568:../Middlewares/threadx/ports/cortex_m55/gnu/inc/tx_port.h **** #else
 569:../Middlewares/threadx/ports/cortex_m55/gnu/inc/tx_port.h ****     __asm__ volatile ("MRS  %0, PRIMASK ": "=r" (posture));
 570:../Middlewares/threadx/ports/cortex_m55/gnu/inc/tx_port.h **** #endif
 571:../Middlewares/threadx/ports/cortex_m55/gnu/inc/tx_port.h ****     return(posture);
 572:../Middlewares/threadx/ports/cortex_m55/gnu/inc/tx_port.h **** }
 573:../Middlewares/threadx/ports/cortex_m55/gnu/inc/tx_port.h **** 
 574:../Middlewares/threadx/ports/cortex_m55/gnu/inc/tx_port.h **** #ifdef TX_PORT_USE_BASEPRI
 575:../Middlewares/threadx/ports/cortex_m55/gnu/inc/tx_port.h **** __attribute__( ( always_inline ) ) static inline void __set_basepri_value(UINT basepri_value)
 576:../Middlewares/threadx/ports/cortex_m55/gnu/inc/tx_port.h **** {
 577:../Middlewares/threadx/ports/cortex_m55/gnu/inc/tx_port.h ****     __asm__ volatile ("MSR  BASEPRI,%0 ": : "r" (basepri_value));
 578:../Middlewares/threadx/ports/cortex_m55/gnu/inc/tx_port.h **** }
 579:../Middlewares/threadx/ports/cortex_m55/gnu/inc/tx_port.h **** #else
 580:../Middlewares/threadx/ports/cortex_m55/gnu/inc/tx_port.h **** __attribute__( ( always_inline ) ) static inline void __enable_interrupts(void)
 581:../Middlewares/threadx/ports/cortex_m55/gnu/inc/tx_port.h **** {
 582:../Middlewares/threadx/ports/cortex_m55/gnu/inc/tx_port.h ****     __asm__ volatile ("CPSIE  i": : : "memory");
ARM GAS  /tmp/ccmkd0xc.s 			page 14


 583:../Middlewares/threadx/ports/cortex_m55/gnu/inc/tx_port.h **** }
 584:../Middlewares/threadx/ports/cortex_m55/gnu/inc/tx_port.h **** #endif
 585:../Middlewares/threadx/ports/cortex_m55/gnu/inc/tx_port.h **** 
 586:../Middlewares/threadx/ports/cortex_m55/gnu/inc/tx_port.h **** __attribute__( ( always_inline ) ) static inline void __restore_interrupt(UINT int_posture)
 587:../Middlewares/threadx/ports/cortex_m55/gnu/inc/tx_port.h **** {
 588:../Middlewares/threadx/ports/cortex_m55/gnu/inc/tx_port.h **** #ifdef TX_PORT_USE_BASEPRI
 589:../Middlewares/threadx/ports/cortex_m55/gnu/inc/tx_port.h ****     __set_basepri_value(int_posture);
 590:../Middlewares/threadx/ports/cortex_m55/gnu/inc/tx_port.h **** #else
 591:../Middlewares/threadx/ports/cortex_m55/gnu/inc/tx_port.h ****     __asm__ volatile ("MSR  PRIMASK,%0": : "r" (int_posture): "memory");
 592:../Middlewares/threadx/ports/cortex_m55/gnu/inc/tx_port.h **** #endif
 593:../Middlewares/threadx/ports/cortex_m55/gnu/inc/tx_port.h **** }
 594:../Middlewares/threadx/ports/cortex_m55/gnu/inc/tx_port.h **** 
 595:../Middlewares/threadx/ports/cortex_m55/gnu/inc/tx_port.h **** __attribute__( ( always_inline ) ) static inline UINT __disable_interrupts(void)
  55              		.loc 2 595 55 view .LVU14
  56              	.LBB21:
 596:../Middlewares/threadx/ports/cortex_m55/gnu/inc/tx_port.h **** {
 597:../Middlewares/threadx/ports/cortex_m55/gnu/inc/tx_port.h **** UINT int_posture;
  57              		.loc 2 597 1 view .LVU15
 598:../Middlewares/threadx/ports/cortex_m55/gnu/inc/tx_port.h **** 
 599:../Middlewares/threadx/ports/cortex_m55/gnu/inc/tx_port.h ****     int_posture = __get_interrupt_posture();
  58              		.loc 2 599 5 view .LVU16
  59              	.LBB22:
  60              	.LBI22:
 563:../Middlewares/threadx/ports/cortex_m55/gnu/inc/tx_port.h **** {
  61              		.loc 2 563 55 view .LVU17
  62              	.LBB23:
 565:../Middlewares/threadx/ports/cortex_m55/gnu/inc/tx_port.h **** #ifdef TX_PORT_USE_BASEPRI
  63              		.loc 2 565 1 view .LVU18
 569:../Middlewares/threadx/ports/cortex_m55/gnu/inc/tx_port.h **** #endif
  64              		.loc 2 569 5 view .LVU19
  65              	.LBE23:
  66              	.LBE22:
  67              	.LBE21:
  68              	.LBE20:
  88:../Middlewares/threadx/common/src/tx_byte_pool_search.c **** 
  69              		.loc 1 88 1 is_stmt 0 view .LVU20
  70 0000 F0B5     		push	{r4, r5, r6, r7, lr}
  71              		.cfi_def_cfa_offset 20
  72              		.cfi_offset 4, -20
  73              		.cfi_offset 5, -16
  74              		.cfi_offset 6, -12
  75              		.cfi_offset 7, -8
  76              		.cfi_offset 14, -4
  77              	.LBB27:
  78              	.LBB26:
  79              	.LBB25:
  80              	.LBB24:
 569:../Middlewares/threadx/ports/cortex_m55/gnu/inc/tx_port.h **** #endif
  81              		.loc 2 569 5 view .LVU21
  82              		.syntax unified
  83              	@ 569 "../Middlewares/threadx/ports/cortex_m55/gnu/inc/tx_port.h" 1
  84 0002 EFF31085 		MRS  r5, PRIMASK 
  85              	@ 0 "" 2
  86              	.LVL1:
 571:../Middlewares/threadx/ports/cortex_m55/gnu/inc/tx_port.h **** }
  87              		.loc 2 571 5 is_stmt 1 view .LVU22
 571:../Middlewares/threadx/ports/cortex_m55/gnu/inc/tx_port.h **** }
ARM GAS  /tmp/ccmkd0xc.s 			page 15


  88              		.loc 2 571 5 is_stmt 0 view .LVU23
  89              		.thumb
  90              		.syntax unified
  91              	.LBE24:
  92              	.LBE25:
 600:../Middlewares/threadx/ports/cortex_m55/gnu/inc/tx_port.h **** 
 601:../Middlewares/threadx/ports/cortex_m55/gnu/inc/tx_port.h **** #ifdef TX_PORT_USE_BASEPRI
 602:../Middlewares/threadx/ports/cortex_m55/gnu/inc/tx_port.h ****     __set_basepri_value(TX_PORT_BASEPRI);
 603:../Middlewares/threadx/ports/cortex_m55/gnu/inc/tx_port.h **** #else
 604:../Middlewares/threadx/ports/cortex_m55/gnu/inc/tx_port.h ****     __asm__ volatile ("CPSID i" : : : "memory");
  93              		.loc 2 604 5 is_stmt 1 view .LVU24
  94              		.syntax unified
  95              	@ 604 "../Middlewares/threadx/ports/cortex_m55/gnu/inc/tx_port.h" 1
  96 0006 72B6     		CPSID i
  97              	@ 0 "" 2
 605:../Middlewares/threadx/ports/cortex_m55/gnu/inc/tx_port.h **** #endif
 606:../Middlewares/threadx/ports/cortex_m55/gnu/inc/tx_port.h ****     return(int_posture);
  98              		.loc 2 606 5 view .LVU25
  99              	.LVL2:
 100              		.loc 2 606 5 is_stmt 0 view .LVU26
 101              		.thumb
 102              		.syntax unified
 103              	.LBE26:
 104              	.LBE27:
 107:../Middlewares/threadx/common/src/tx_byte_pool_search.c **** 
 108:../Middlewares/threadx/common/src/tx_byte_pool_search.c ****     /* First, determine if there are enough bytes in the pool.  */
 109:../Middlewares/threadx/common/src/tx_byte_pool_search.c ****     /* Theoretical bytes available = free bytes + ((fragments-2) * overhead of each block) */
 110:../Middlewares/threadx/common/src/tx_byte_pool_search.c ****     total_theoretical_available = pool_ptr -> tx_byte_pool_available + ((pool_ptr -> tx_byte_pool_f
 105              		.loc 1 110 5 is_stmt 1 view .LVU27
 106              		.loc 1 110 83 is_stmt 0 view .LVU28
 107 0008 C268     		ldr	r2, [r0, #12]
 108              	.LVL3:
 111:../Middlewares/threadx/common/src/tx_byte_pool_search.c ****     if (memory_size >= total_theoretical_available)
 109              		.loc 1 111 5 is_stmt 1 view .LVU29
 110:../Middlewares/threadx/common/src/tx_byte_pool_search.c ****     if (memory_size >= total_theoretical_available)
 110              		.loc 1 110 33 is_stmt 0 view .LVU30
 111 000a 8368     		ldr	r3, [r0, #8]
 110:../Middlewares/threadx/common/src/tx_byte_pool_search.c ****     if (memory_size >= total_theoretical_available)
 112              		.loc 1 110 109 view .LVU31
 113 000c 941E     		subs	r4, r2, #2
 110:../Middlewares/threadx/common/src/tx_byte_pool_search.c ****     if (memory_size >= total_theoretical_available)
 114              		.loc 1 110 33 view .LVU32
 115 000e 03EBC403 		add	r3, r3, r4, lsl #3
 116              	.LVL4:
 117              		.loc 1 111 8 view .LVU33
 118 0012 8B42     		cmp	r3, r1
 119 0014 03D8     		bhi	.L2
 120              	.LVL5:
 121              	.L14:
 112:../Middlewares/threadx/common/src/tx_byte_pool_search.c ****     {
 113:../Middlewares/threadx/common/src/tx_byte_pool_search.c **** 
 114:../Middlewares/threadx/common/src/tx_byte_pool_search.c ****         /* Restore interrupts.  */
 115:../Middlewares/threadx/common/src/tx_byte_pool_search.c ****         TX_RESTORE
 116:../Middlewares/threadx/common/src/tx_byte_pool_search.c **** 
 117:../Middlewares/threadx/common/src/tx_byte_pool_search.c ****         /* Not enough memory, return a NULL pointer.  */
 118:../Middlewares/threadx/common/src/tx_byte_pool_search.c ****         current_ptr =  TX_NULL;
 119:../Middlewares/threadx/common/src/tx_byte_pool_search.c ****     }
ARM GAS  /tmp/ccmkd0xc.s 			page 16


 120:../Middlewares/threadx/common/src/tx_byte_pool_search.c ****     else
 121:../Middlewares/threadx/common/src/tx_byte_pool_search.c ****     {
 122:../Middlewares/threadx/common/src/tx_byte_pool_search.c **** 
 123:../Middlewares/threadx/common/src/tx_byte_pool_search.c ****         /* Pickup thread pointer.  */
 124:../Middlewares/threadx/common/src/tx_byte_pool_search.c ****         TX_THREAD_GET_CURRENT(thread_ptr)
 125:../Middlewares/threadx/common/src/tx_byte_pool_search.c **** 
 126:../Middlewares/threadx/common/src/tx_byte_pool_search.c ****         /* Setup ownership of the byte pool.  */
 127:../Middlewares/threadx/common/src/tx_byte_pool_search.c ****         pool_ptr -> tx_byte_pool_owner =  thread_ptr;
 128:../Middlewares/threadx/common/src/tx_byte_pool_search.c **** 
 129:../Middlewares/threadx/common/src/tx_byte_pool_search.c ****         /* Walk through the memory pool in search for a large enough block.  */
 130:../Middlewares/threadx/common/src/tx_byte_pool_search.c ****         current_ptr =      pool_ptr -> tx_byte_pool_search;
 131:../Middlewares/threadx/common/src/tx_byte_pool_search.c ****         examine_blocks =   pool_ptr -> tx_byte_pool_fragments + ((UINT) 1);
 132:../Middlewares/threadx/common/src/tx_byte_pool_search.c ****         available_bytes =  ((ULONG) 0);
 133:../Middlewares/threadx/common/src/tx_byte_pool_search.c ****         do
 134:../Middlewares/threadx/common/src/tx_byte_pool_search.c ****         {
 135:../Middlewares/threadx/common/src/tx_byte_pool_search.c **** 
 136:../Middlewares/threadx/common/src/tx_byte_pool_search.c **** 
 137:../Middlewares/threadx/common/src/tx_byte_pool_search.c **** #ifdef TX_BYTE_POOL_ENABLE_PERFORMANCE_INFO
 138:../Middlewares/threadx/common/src/tx_byte_pool_search.c **** 
 139:../Middlewares/threadx/common/src/tx_byte_pool_search.c ****             /* Increment the total fragment search counter.  */
 140:../Middlewares/threadx/common/src/tx_byte_pool_search.c ****             _tx_byte_pool_performance_search_count++;
 141:../Middlewares/threadx/common/src/tx_byte_pool_search.c **** 
 142:../Middlewares/threadx/common/src/tx_byte_pool_search.c ****             /* Increment the number of fragments searched on this pool.  */
 143:../Middlewares/threadx/common/src/tx_byte_pool_search.c ****             pool_ptr -> tx_byte_pool_performance_search_count++;
 144:../Middlewares/threadx/common/src/tx_byte_pool_search.c **** #endif
 145:../Middlewares/threadx/common/src/tx_byte_pool_search.c **** 
 146:../Middlewares/threadx/common/src/tx_byte_pool_search.c ****             /* Check to see if this block is free.  */
 147:../Middlewares/threadx/common/src/tx_byte_pool_search.c ****             work_ptr =  TX_UCHAR_POINTER_ADD(current_ptr, (sizeof(UCHAR *)));
 148:../Middlewares/threadx/common/src/tx_byte_pool_search.c ****             free_ptr =  TX_UCHAR_TO_ALIGN_TYPE_POINTER_CONVERT(work_ptr);
 149:../Middlewares/threadx/common/src/tx_byte_pool_search.c ****             if ((*free_ptr) == TX_BYTE_BLOCK_FREE)
 150:../Middlewares/threadx/common/src/tx_byte_pool_search.c ****             {
 151:../Middlewares/threadx/common/src/tx_byte_pool_search.c **** 
 152:../Middlewares/threadx/common/src/tx_byte_pool_search.c ****                 /* Determine if this is the first free block.  */
 153:../Middlewares/threadx/common/src/tx_byte_pool_search.c ****                 if (first_free_block_found == TX_FALSE)
 154:../Middlewares/threadx/common/src/tx_byte_pool_search.c ****                 {
 155:../Middlewares/threadx/common/src/tx_byte_pool_search.c ****                     /* This is the first free block.  */
 156:../Middlewares/threadx/common/src/tx_byte_pool_search.c ****                     pool_ptr->tx_byte_pool_search =  current_ptr;
 157:../Middlewares/threadx/common/src/tx_byte_pool_search.c **** 
 158:../Middlewares/threadx/common/src/tx_byte_pool_search.c ****                     /* Set the flag to indicate we have found the first free
 159:../Middlewares/threadx/common/src/tx_byte_pool_search.c ****                        block.  */
 160:../Middlewares/threadx/common/src/tx_byte_pool_search.c ****                     first_free_block_found =  TX_TRUE;
 161:../Middlewares/threadx/common/src/tx_byte_pool_search.c ****                 }
 162:../Middlewares/threadx/common/src/tx_byte_pool_search.c **** 
 163:../Middlewares/threadx/common/src/tx_byte_pool_search.c ****                 /* Block is free, see if it is large enough.  */
 164:../Middlewares/threadx/common/src/tx_byte_pool_search.c **** 
 165:../Middlewares/threadx/common/src/tx_byte_pool_search.c ****                 /* Pickup the next block's pointer.  */
 166:../Middlewares/threadx/common/src/tx_byte_pool_search.c ****                 this_block_link_ptr =  TX_UCHAR_TO_INDIRECT_UCHAR_POINTER_CONVERT(current_ptr);
 167:../Middlewares/threadx/common/src/tx_byte_pool_search.c ****                 next_ptr =             *this_block_link_ptr;
 168:../Middlewares/threadx/common/src/tx_byte_pool_search.c **** 
 169:../Middlewares/threadx/common/src/tx_byte_pool_search.c ****                 /* Calculate the number of bytes available in this block.  */
 170:../Middlewares/threadx/common/src/tx_byte_pool_search.c ****                 available_bytes =   TX_UCHAR_POINTER_DIF(next_ptr, current_ptr);
 171:../Middlewares/threadx/common/src/tx_byte_pool_search.c ****                 available_bytes =   available_bytes - ((sizeof(UCHAR *)) + (sizeof(ALIGN_TYPE)));
 172:../Middlewares/threadx/common/src/tx_byte_pool_search.c **** 
 173:../Middlewares/threadx/common/src/tx_byte_pool_search.c ****                 /* If this is large enough, we are done because our first-fit algorithm
 174:../Middlewares/threadx/common/src/tx_byte_pool_search.c ****                    has been satisfied!  */
 175:../Middlewares/threadx/common/src/tx_byte_pool_search.c ****                 if (available_bytes >= memory_size)
 176:../Middlewares/threadx/common/src/tx_byte_pool_search.c ****                 {
ARM GAS  /tmp/ccmkd0xc.s 			page 17


 177:../Middlewares/threadx/common/src/tx_byte_pool_search.c ****                     /* Get out of the search loop!  */
 178:../Middlewares/threadx/common/src/tx_byte_pool_search.c ****                     break;
 179:../Middlewares/threadx/common/src/tx_byte_pool_search.c ****                 }
 180:../Middlewares/threadx/common/src/tx_byte_pool_search.c ****                 else
 181:../Middlewares/threadx/common/src/tx_byte_pool_search.c ****                 {
 182:../Middlewares/threadx/common/src/tx_byte_pool_search.c **** 
 183:../Middlewares/threadx/common/src/tx_byte_pool_search.c ****                     /* Clear the available bytes variable.  */
 184:../Middlewares/threadx/common/src/tx_byte_pool_search.c ****                     available_bytes =  ((ULONG) 0);
 185:../Middlewares/threadx/common/src/tx_byte_pool_search.c **** 
 186:../Middlewares/threadx/common/src/tx_byte_pool_search.c ****                     /* Not enough memory, check to see if the neighbor is
 187:../Middlewares/threadx/common/src/tx_byte_pool_search.c ****                        free and can be merged.  */
 188:../Middlewares/threadx/common/src/tx_byte_pool_search.c ****                     work_ptr =  TX_UCHAR_POINTER_ADD(next_ptr, (sizeof(UCHAR *)));
 189:../Middlewares/threadx/common/src/tx_byte_pool_search.c ****                     free_ptr =  TX_UCHAR_TO_ALIGN_TYPE_POINTER_CONVERT(work_ptr);
 190:../Middlewares/threadx/common/src/tx_byte_pool_search.c ****                     if ((*free_ptr) == TX_BYTE_BLOCK_FREE)
 191:../Middlewares/threadx/common/src/tx_byte_pool_search.c ****                     {
 192:../Middlewares/threadx/common/src/tx_byte_pool_search.c **** 
 193:../Middlewares/threadx/common/src/tx_byte_pool_search.c ****                         /* Yes, neighbor block can be merged!  This is quickly accomplished
 194:../Middlewares/threadx/common/src/tx_byte_pool_search.c ****                            by updating the current block with the next blocks pointer.  */
 195:../Middlewares/threadx/common/src/tx_byte_pool_search.c ****                         next_block_link_ptr =  TX_UCHAR_TO_INDIRECT_UCHAR_POINTER_CONVERT(next_ptr)
 196:../Middlewares/threadx/common/src/tx_byte_pool_search.c ****                         *this_block_link_ptr =  *next_block_link_ptr;
 197:../Middlewares/threadx/common/src/tx_byte_pool_search.c **** 
 198:../Middlewares/threadx/common/src/tx_byte_pool_search.c ****                         /* Reduce the fragment total.  We don't need to increase the bytes
 199:../Middlewares/threadx/common/src/tx_byte_pool_search.c ****                            available because all free headers are also included in the available
 200:../Middlewares/threadx/common/src/tx_byte_pool_search.c ****                            count.  */
 201:../Middlewares/threadx/common/src/tx_byte_pool_search.c ****                         pool_ptr -> tx_byte_pool_fragments--;
 202:../Middlewares/threadx/common/src/tx_byte_pool_search.c **** 
 203:../Middlewares/threadx/common/src/tx_byte_pool_search.c **** #ifdef TX_BYTE_POOL_ENABLE_PERFORMANCE_INFO
 204:../Middlewares/threadx/common/src/tx_byte_pool_search.c **** 
 205:../Middlewares/threadx/common/src/tx_byte_pool_search.c ****                         /* Increment the total merge counter.  */
 206:../Middlewares/threadx/common/src/tx_byte_pool_search.c ****                         _tx_byte_pool_performance_merge_count++;
 207:../Middlewares/threadx/common/src/tx_byte_pool_search.c **** 
 208:../Middlewares/threadx/common/src/tx_byte_pool_search.c ****                         /* Increment the number of blocks merged on this pool.  */
 209:../Middlewares/threadx/common/src/tx_byte_pool_search.c ****                         pool_ptr -> tx_byte_pool_performance_merge_count++;
 210:../Middlewares/threadx/common/src/tx_byte_pool_search.c **** #endif
 211:../Middlewares/threadx/common/src/tx_byte_pool_search.c **** 
 212:../Middlewares/threadx/common/src/tx_byte_pool_search.c ****                         /* See if the search pointer is affected.  */
 213:../Middlewares/threadx/common/src/tx_byte_pool_search.c ****                         if (pool_ptr -> tx_byte_pool_search ==  next_ptr)
 214:../Middlewares/threadx/common/src/tx_byte_pool_search.c ****                         {
 215:../Middlewares/threadx/common/src/tx_byte_pool_search.c ****                             /* Yes, update the search pointer.   */
 216:../Middlewares/threadx/common/src/tx_byte_pool_search.c ****                             pool_ptr -> tx_byte_pool_search =  current_ptr;
 217:../Middlewares/threadx/common/src/tx_byte_pool_search.c ****                         }
 218:../Middlewares/threadx/common/src/tx_byte_pool_search.c ****                     }
 219:../Middlewares/threadx/common/src/tx_byte_pool_search.c ****                     else
 220:../Middlewares/threadx/common/src/tx_byte_pool_search.c ****                     {
 221:../Middlewares/threadx/common/src/tx_byte_pool_search.c ****                         /* Neighbor is not free so we can skip over it!  */
 222:../Middlewares/threadx/common/src/tx_byte_pool_search.c ****                         next_block_link_ptr =  TX_UCHAR_TO_INDIRECT_UCHAR_POINTER_CONVERT(next_ptr)
 223:../Middlewares/threadx/common/src/tx_byte_pool_search.c ****                         current_ptr =  *next_block_link_ptr;
 224:../Middlewares/threadx/common/src/tx_byte_pool_search.c **** 
 225:../Middlewares/threadx/common/src/tx_byte_pool_search.c ****                         /* Decrement the examined block count to account for this one.  */
 226:../Middlewares/threadx/common/src/tx_byte_pool_search.c ****                         if (examine_blocks != ((UINT) 0))
 227:../Middlewares/threadx/common/src/tx_byte_pool_search.c ****                         {
 228:../Middlewares/threadx/common/src/tx_byte_pool_search.c ****                             examine_blocks--;
 229:../Middlewares/threadx/common/src/tx_byte_pool_search.c **** 
 230:../Middlewares/threadx/common/src/tx_byte_pool_search.c **** #ifdef TX_BYTE_POOL_ENABLE_PERFORMANCE_INFO
 231:../Middlewares/threadx/common/src/tx_byte_pool_search.c **** 
 232:../Middlewares/threadx/common/src/tx_byte_pool_search.c ****                             /* Increment the total fragment search counter.  */
 233:../Middlewares/threadx/common/src/tx_byte_pool_search.c ****                             _tx_byte_pool_performance_search_count++;
ARM GAS  /tmp/ccmkd0xc.s 			page 18


 234:../Middlewares/threadx/common/src/tx_byte_pool_search.c **** 
 235:../Middlewares/threadx/common/src/tx_byte_pool_search.c ****                             /* Increment the number of fragments searched on this pool.  */
 236:../Middlewares/threadx/common/src/tx_byte_pool_search.c ****                             pool_ptr -> tx_byte_pool_performance_search_count++;
 237:../Middlewares/threadx/common/src/tx_byte_pool_search.c **** #endif
 238:../Middlewares/threadx/common/src/tx_byte_pool_search.c ****                         }
 239:../Middlewares/threadx/common/src/tx_byte_pool_search.c ****                     }
 240:../Middlewares/threadx/common/src/tx_byte_pool_search.c ****                 }
 241:../Middlewares/threadx/common/src/tx_byte_pool_search.c ****             }
 242:../Middlewares/threadx/common/src/tx_byte_pool_search.c ****             else
 243:../Middlewares/threadx/common/src/tx_byte_pool_search.c ****             {
 244:../Middlewares/threadx/common/src/tx_byte_pool_search.c **** 
 245:../Middlewares/threadx/common/src/tx_byte_pool_search.c ****                 /* Block is not free, move to next block.  */
 246:../Middlewares/threadx/common/src/tx_byte_pool_search.c ****                 this_block_link_ptr =  TX_UCHAR_TO_INDIRECT_UCHAR_POINTER_CONVERT(current_ptr);
 247:../Middlewares/threadx/common/src/tx_byte_pool_search.c ****                 current_ptr =  *this_block_link_ptr;
 248:../Middlewares/threadx/common/src/tx_byte_pool_search.c ****             }
 249:../Middlewares/threadx/common/src/tx_byte_pool_search.c **** 
 250:../Middlewares/threadx/common/src/tx_byte_pool_search.c ****             /* Another block has been searched... decrement counter.  */
 251:../Middlewares/threadx/common/src/tx_byte_pool_search.c ****             if (examine_blocks != ((UINT) 0))
 252:../Middlewares/threadx/common/src/tx_byte_pool_search.c ****             {
 253:../Middlewares/threadx/common/src/tx_byte_pool_search.c **** 
 254:../Middlewares/threadx/common/src/tx_byte_pool_search.c ****                 examine_blocks--;
 255:../Middlewares/threadx/common/src/tx_byte_pool_search.c ****             }
 256:../Middlewares/threadx/common/src/tx_byte_pool_search.c **** 
 257:../Middlewares/threadx/common/src/tx_byte_pool_search.c ****             /* Restore interrupts temporarily.  */
 258:../Middlewares/threadx/common/src/tx_byte_pool_search.c ****             TX_RESTORE
 259:../Middlewares/threadx/common/src/tx_byte_pool_search.c **** 
 260:../Middlewares/threadx/common/src/tx_byte_pool_search.c ****             /* Disable interrupts.  */
 261:../Middlewares/threadx/common/src/tx_byte_pool_search.c ****             TX_DISABLE
 262:../Middlewares/threadx/common/src/tx_byte_pool_search.c **** 
 263:../Middlewares/threadx/common/src/tx_byte_pool_search.c ****             /* Determine if anything has changed in terms of pool ownership.  */
 264:../Middlewares/threadx/common/src/tx_byte_pool_search.c ****             if (pool_ptr -> tx_byte_pool_owner != thread_ptr)
 265:../Middlewares/threadx/common/src/tx_byte_pool_search.c ****             {
 266:../Middlewares/threadx/common/src/tx_byte_pool_search.c **** 
 267:../Middlewares/threadx/common/src/tx_byte_pool_search.c ****                 /* Pool changed ownership in the brief period interrupts were
 268:../Middlewares/threadx/common/src/tx_byte_pool_search.c ****                    enabled.  Reset the search.  */
 269:../Middlewares/threadx/common/src/tx_byte_pool_search.c ****                 current_ptr =      pool_ptr -> tx_byte_pool_search;
 270:../Middlewares/threadx/common/src/tx_byte_pool_search.c ****                 examine_blocks =   pool_ptr -> tx_byte_pool_fragments + ((UINT) 1);
 271:../Middlewares/threadx/common/src/tx_byte_pool_search.c **** 
 272:../Middlewares/threadx/common/src/tx_byte_pool_search.c ****                 /* Setup our ownership again.  */
 273:../Middlewares/threadx/common/src/tx_byte_pool_search.c ****                 pool_ptr -> tx_byte_pool_owner =  thread_ptr;
 274:../Middlewares/threadx/common/src/tx_byte_pool_search.c ****             }
 275:../Middlewares/threadx/common/src/tx_byte_pool_search.c ****         } while(examine_blocks != ((UINT) 0));
 276:../Middlewares/threadx/common/src/tx_byte_pool_search.c **** 
 277:../Middlewares/threadx/common/src/tx_byte_pool_search.c ****         /* Determine if a block was found.  If so, determine if it needs to be
 278:../Middlewares/threadx/common/src/tx_byte_pool_search.c ****            split.  */
 279:../Middlewares/threadx/common/src/tx_byte_pool_search.c ****         if (available_bytes != ((ULONG) 0))
 280:../Middlewares/threadx/common/src/tx_byte_pool_search.c ****         {
 281:../Middlewares/threadx/common/src/tx_byte_pool_search.c **** 
 282:../Middlewares/threadx/common/src/tx_byte_pool_search.c ****             /* Determine if we need to split this block.  */
 283:../Middlewares/threadx/common/src/tx_byte_pool_search.c ****             if ((available_bytes - memory_size) >= ((ULONG) TX_BYTE_BLOCK_MIN))
 284:../Middlewares/threadx/common/src/tx_byte_pool_search.c ****             {
 285:../Middlewares/threadx/common/src/tx_byte_pool_search.c **** 
 286:../Middlewares/threadx/common/src/tx_byte_pool_search.c ****                 /* Split the block.  */
 287:../Middlewares/threadx/common/src/tx_byte_pool_search.c ****                 next_ptr =  TX_UCHAR_POINTER_ADD(current_ptr, (memory_size + ((sizeof(UCHAR *)) + (
 288:../Middlewares/threadx/common/src/tx_byte_pool_search.c **** 
 289:../Middlewares/threadx/common/src/tx_byte_pool_search.c ****                 /* Setup the new free block.  */
 290:../Middlewares/threadx/common/src/tx_byte_pool_search.c ****                 next_block_link_ptr =   TX_UCHAR_TO_INDIRECT_UCHAR_POINTER_CONVERT(next_ptr);
ARM GAS  /tmp/ccmkd0xc.s 			page 19


 291:../Middlewares/threadx/common/src/tx_byte_pool_search.c ****                 this_block_link_ptr =   TX_UCHAR_TO_INDIRECT_UCHAR_POINTER_CONVERT(current_ptr);
 292:../Middlewares/threadx/common/src/tx_byte_pool_search.c ****                 *next_block_link_ptr =  *this_block_link_ptr;
 293:../Middlewares/threadx/common/src/tx_byte_pool_search.c ****                 work_ptr =              TX_UCHAR_POINTER_ADD(next_ptr, (sizeof(UCHAR *)));
 294:../Middlewares/threadx/common/src/tx_byte_pool_search.c ****                 free_ptr =              TX_UCHAR_TO_ALIGN_TYPE_POINTER_CONVERT(work_ptr);
 295:../Middlewares/threadx/common/src/tx_byte_pool_search.c ****                 *free_ptr =             TX_BYTE_BLOCK_FREE;
 296:../Middlewares/threadx/common/src/tx_byte_pool_search.c **** 
 297:../Middlewares/threadx/common/src/tx_byte_pool_search.c ****                 /* Increase the total fragment counter.  */
 298:../Middlewares/threadx/common/src/tx_byte_pool_search.c ****                 pool_ptr -> tx_byte_pool_fragments++;
 299:../Middlewares/threadx/common/src/tx_byte_pool_search.c **** 
 300:../Middlewares/threadx/common/src/tx_byte_pool_search.c ****                 /* Update the current pointer to point at the newly created block.  */
 301:../Middlewares/threadx/common/src/tx_byte_pool_search.c ****                 *this_block_link_ptr =  next_ptr;
 302:../Middlewares/threadx/common/src/tx_byte_pool_search.c **** 
 303:../Middlewares/threadx/common/src/tx_byte_pool_search.c ****                 /* Set available equal to memory size for subsequent calculation.  */
 304:../Middlewares/threadx/common/src/tx_byte_pool_search.c ****                 available_bytes =  memory_size;
 305:../Middlewares/threadx/common/src/tx_byte_pool_search.c **** 
 306:../Middlewares/threadx/common/src/tx_byte_pool_search.c **** #ifdef TX_BYTE_POOL_ENABLE_PERFORMANCE_INFO
 307:../Middlewares/threadx/common/src/tx_byte_pool_search.c **** 
 308:../Middlewares/threadx/common/src/tx_byte_pool_search.c ****                 /* Increment the total split counter.  */
 309:../Middlewares/threadx/common/src/tx_byte_pool_search.c ****                 _tx_byte_pool_performance_split_count++;
 310:../Middlewares/threadx/common/src/tx_byte_pool_search.c **** 
 311:../Middlewares/threadx/common/src/tx_byte_pool_search.c ****                 /* Increment the number of blocks split on this pool.  */
 312:../Middlewares/threadx/common/src/tx_byte_pool_search.c ****                 pool_ptr -> tx_byte_pool_performance_split_count++;
 313:../Middlewares/threadx/common/src/tx_byte_pool_search.c **** #endif
 314:../Middlewares/threadx/common/src/tx_byte_pool_search.c ****             }
 315:../Middlewares/threadx/common/src/tx_byte_pool_search.c **** 
 316:../Middlewares/threadx/common/src/tx_byte_pool_search.c ****             /* In any case, mark the current block as allocated.  */
 317:../Middlewares/threadx/common/src/tx_byte_pool_search.c ****             work_ptr =              TX_UCHAR_POINTER_ADD(current_ptr, (sizeof(UCHAR *)));
 318:../Middlewares/threadx/common/src/tx_byte_pool_search.c ****             this_block_link_ptr =   TX_UCHAR_TO_INDIRECT_UCHAR_POINTER_CONVERT(work_ptr);
 319:../Middlewares/threadx/common/src/tx_byte_pool_search.c ****             *this_block_link_ptr =  TX_BYTE_POOL_TO_UCHAR_POINTER_CONVERT(pool_ptr);
 320:../Middlewares/threadx/common/src/tx_byte_pool_search.c **** 
 321:../Middlewares/threadx/common/src/tx_byte_pool_search.c ****             /* Reduce the number of available bytes in the pool.  */
 322:../Middlewares/threadx/common/src/tx_byte_pool_search.c ****             pool_ptr -> tx_byte_pool_available =  (pool_ptr -> tx_byte_pool_available - available_b
 323:../Middlewares/threadx/common/src/tx_byte_pool_search.c **** 
 324:../Middlewares/threadx/common/src/tx_byte_pool_search.c ****             /* Determine if the search pointer needs to be updated. This is only done
 325:../Middlewares/threadx/common/src/tx_byte_pool_search.c ****                if the search pointer matches the block to be returned.  */
 326:../Middlewares/threadx/common/src/tx_byte_pool_search.c ****             if (current_ptr == pool_ptr -> tx_byte_pool_search)
 327:../Middlewares/threadx/common/src/tx_byte_pool_search.c ****             {
 328:../Middlewares/threadx/common/src/tx_byte_pool_search.c **** 
 329:../Middlewares/threadx/common/src/tx_byte_pool_search.c ****                 /* Yes, update the search pointer to the next block.  */
 330:../Middlewares/threadx/common/src/tx_byte_pool_search.c ****                 this_block_link_ptr =   TX_UCHAR_TO_INDIRECT_UCHAR_POINTER_CONVERT(current_ptr);
 331:../Middlewares/threadx/common/src/tx_byte_pool_search.c ****                 pool_ptr -> tx_byte_pool_search =  *this_block_link_ptr;
 332:../Middlewares/threadx/common/src/tx_byte_pool_search.c ****             }
 333:../Middlewares/threadx/common/src/tx_byte_pool_search.c **** 
 334:../Middlewares/threadx/common/src/tx_byte_pool_search.c ****             /* Restore interrupts.  */
 335:../Middlewares/threadx/common/src/tx_byte_pool_search.c ****             TX_RESTORE
 336:../Middlewares/threadx/common/src/tx_byte_pool_search.c **** 
 337:../Middlewares/threadx/common/src/tx_byte_pool_search.c ****             /* Adjust the pointer for the application.  */
 338:../Middlewares/threadx/common/src/tx_byte_pool_search.c ****             current_ptr =  TX_UCHAR_POINTER_ADD(current_ptr, (((sizeof(UCHAR *)) + (sizeof(ALIGN_TY
 339:../Middlewares/threadx/common/src/tx_byte_pool_search.c ****         }
 340:../Middlewares/threadx/common/src/tx_byte_pool_search.c ****         else
 341:../Middlewares/threadx/common/src/tx_byte_pool_search.c ****         {
 342:../Middlewares/threadx/common/src/tx_byte_pool_search.c **** 
 343:../Middlewares/threadx/common/src/tx_byte_pool_search.c ****             /* Restore interrupts.  */
 344:../Middlewares/threadx/common/src/tx_byte_pool_search.c ****             TX_RESTORE
 122              		.loc 1 344 13 is_stmt 1 view .LVU34
 123              	.LBB28:
 124              	.LBI28:
ARM GAS  /tmp/ccmkd0xc.s 			page 20


 586:../Middlewares/threadx/ports/cortex_m55/gnu/inc/tx_port.h **** {
 125              		.loc 2 586 55 view .LVU35
 126              	.LBB29:
 591:../Middlewares/threadx/ports/cortex_m55/gnu/inc/tx_port.h **** #endif
 127              		.loc 2 591 5 view .LVU36
 128              		.syntax unified
 129              	@ 591 "../Middlewares/threadx/ports/cortex_m55/gnu/inc/tx_port.h" 1
 130 0016 85F31088 		MSR  PRIMASK,r5
 131              	@ 0 "" 2
 132              	.LVL6:
 591:../Middlewares/threadx/ports/cortex_m55/gnu/inc/tx_port.h **** #endif
 133              		.loc 2 591 5 is_stmt 0 view .LVU37
 134              		.thumb
 135              		.syntax unified
 136              	.LBE29:
 137              	.LBE28:
 345:../Middlewares/threadx/common/src/tx_byte_pool_search.c **** 
 346:../Middlewares/threadx/common/src/tx_byte_pool_search.c ****             /* Set current pointer to NULL to indicate nothing was found.  */
 347:../Middlewares/threadx/common/src/tx_byte_pool_search.c ****             current_ptr =  TX_NULL;
 138              		.loc 1 347 13 is_stmt 1 view .LVU38
 118:../Middlewares/threadx/common/src/tx_byte_pool_search.c ****     }
 139              		.loc 1 118 21 is_stmt 0 view .LVU39
 140 001a 0020     		movs	r0, #0
 141              	.LVL7:
 348:../Middlewares/threadx/common/src/tx_byte_pool_search.c ****         }
 349:../Middlewares/threadx/common/src/tx_byte_pool_search.c ****     }
 350:../Middlewares/threadx/common/src/tx_byte_pool_search.c **** 
 351:../Middlewares/threadx/common/src/tx_byte_pool_search.c ****     /* Return the search pointer.  */
 352:../Middlewares/threadx/common/src/tx_byte_pool_search.c ****     return(current_ptr);
 142              		.loc 1 352 5 is_stmt 1 view .LVU40
 143              		.loc 1 352 11 is_stmt 0 view .LVU41
 144 001c 59E0     		b	.L1
 145              	.LVL8:
 146              	.L2:
 124:../Middlewares/threadx/common/src/tx_byte_pool_search.c **** 
 147              		.loc 1 124 9 is_stmt 1 view .LVU42
  98:../Middlewares/threadx/common/src/tx_byte_pool_search.c **** TX_THREAD       *thread_ptr;
 148              		.loc 1 98 17 is_stmt 0 view .LVU43
 149 001e 0026     		movs	r6, #0
 124:../Middlewares/threadx/common/src/tx_byte_pool_search.c **** 
 150              		.loc 1 124 9 view .LVU44
 151 0020 2C4B     		ldr	r3, .L26
 152              	.LVL9:
 149:../Middlewares/threadx/common/src/tx_byte_pool_search.c ****             {
 153              		.loc 1 149 16 view .LVU45
 154 0022 DFF8B4C0 		ldr	ip, .L26+4
 124:../Middlewares/threadx/common/src/tx_byte_pool_search.c **** 
 155              		.loc 1 124 9 view .LVU46
 156 0026 1F68     		ldr	r7, [r3]
 157              	.LVL10:
 127:../Middlewares/threadx/common/src/tx_byte_pool_search.c **** 
 158              		.loc 1 127 9 is_stmt 1 view .LVU47
 130:../Middlewares/threadx/common/src/tx_byte_pool_search.c ****         examine_blocks =   pool_ptr -> tx_byte_pool_fragments + ((UINT) 1);
 159              		.loc 1 130 21 is_stmt 0 view .LVU48
 160 0028 4369     		ldr	r3, [r0, #20]
 127:../Middlewares/threadx/common/src/tx_byte_pool_search.c **** 
 161              		.loc 1 127 40 view .LVU49
ARM GAS  /tmp/ccmkd0xc.s 			page 21


 162 002a 0762     		str	r7, [r0, #32]
 130:../Middlewares/threadx/common/src/tx_byte_pool_search.c ****         examine_blocks =   pool_ptr -> tx_byte_pool_fragments + ((UINT) 1);
 163              		.loc 1 130 9 is_stmt 1 view .LVU50
 164              	.LVL11:
 131:../Middlewares/threadx/common/src/tx_byte_pool_search.c ****         available_bytes =  ((ULONG) 0);
 165              		.loc 1 131 9 view .LVU51
 131:../Middlewares/threadx/common/src/tx_byte_pool_search.c ****         available_bytes =  ((ULONG) 0);
 166              		.loc 1 131 24 is_stmt 0 view .LVU52
 167 002c 0132     		adds	r2, r2, #1
 168              	.LVL12:
 132:../Middlewares/threadx/common/src/tx_byte_pool_search.c ****         do
 169              		.loc 1 132 9 is_stmt 1 view .LVU53
 170              	.L13:
 133:../Middlewares/threadx/common/src/tx_byte_pool_search.c ****         {
 171              		.loc 1 133 9 view .LVU54
 147:../Middlewares/threadx/common/src/tx_byte_pool_search.c ****             free_ptr =  TX_UCHAR_TO_ALIGN_TYPE_POINTER_CONVERT(work_ptr);
 172              		.loc 1 147 13 view .LVU55
 148:../Middlewares/threadx/common/src/tx_byte_pool_search.c ****             if ((*free_ptr) == TX_BYTE_BLOCK_FREE)
 173              		.loc 1 148 13 view .LVU56
 149:../Middlewares/threadx/common/src/tx_byte_pool_search.c ****             {
 174              		.loc 1 149 13 view .LVU57
 149:../Middlewares/threadx/common/src/tx_byte_pool_search.c ****             {
 175              		.loc 1 149 16 is_stmt 0 view .LVU58
 176 002e 5C68     		ldr	r4, [r3, #4]
 177 0030 6445     		cmp	r4, ip
 178 0032 2BD1     		bne	.L4
 153:../Middlewares/threadx/common/src/tx_byte_pool_search.c ****                 {
 179              		.loc 1 153 17 is_stmt 1 view .LVU59
 153:../Middlewares/threadx/common/src/tx_byte_pool_search.c ****                 {
 180              		.loc 1 153 20 is_stmt 0 view .LVU60
 181 0034 06B9     		cbnz	r6, .L5
 156:../Middlewares/threadx/common/src/tx_byte_pool_search.c **** 
 182              		.loc 1 156 21 is_stmt 1 view .LVU61
 156:../Middlewares/threadx/common/src/tx_byte_pool_search.c **** 
 183              		.loc 1 156 51 is_stmt 0 view .LVU62
 184 0036 4361     		str	r3, [r0, #20]
 160:../Middlewares/threadx/common/src/tx_byte_pool_search.c ****                 }
 185              		.loc 1 160 21 is_stmt 1 view .LVU63
 186              	.L5:
 187              	.LVL13:
 166:../Middlewares/threadx/common/src/tx_byte_pool_search.c ****                 next_ptr =             *this_block_link_ptr;
 188              		.loc 1 166 17 view .LVU64
 167:../Middlewares/threadx/common/src/tx_byte_pool_search.c **** 
 189              		.loc 1 167 17 view .LVU65
 167:../Middlewares/threadx/common/src/tx_byte_pool_search.c **** 
 190              		.loc 1 167 26 is_stmt 0 view .LVU66
 191 0038 1E68     		ldr	r6, [r3]
 192              	.LVL14:
 170:../Middlewares/threadx/common/src/tx_byte_pool_search.c ****                 available_bytes =   available_bytes - ((sizeof(UCHAR *)) + (sizeof(ALIGN_TYPE)));
 193              		.loc 1 170 17 is_stmt 1 view .LVU67
 170:../Middlewares/threadx/common/src/tx_byte_pool_search.c ****                 available_bytes =   available_bytes - ((sizeof(UCHAR *)) + (sizeof(ALIGN_TYPE)));
 194              		.loc 1 170 37 is_stmt 0 view .LVU68
 195 003a F41A     		subs	r4, r6, r3
 196              	.LVL15:
 171:../Middlewares/threadx/common/src/tx_byte_pool_search.c **** 
 197              		.loc 1 171 17 is_stmt 1 view .LVU69
 171:../Middlewares/threadx/common/src/tx_byte_pool_search.c **** 
ARM GAS  /tmp/ccmkd0xc.s 			page 22


 198              		.loc 1 171 33 is_stmt 0 view .LVU70
 199 003c 083C     		subs	r4, r4, #8
 200              	.LVL16:
 175:../Middlewares/threadx/common/src/tx_byte_pool_search.c ****                 {
 201              		.loc 1 175 17 is_stmt 1 view .LVU71
 175:../Middlewares/threadx/common/src/tx_byte_pool_search.c ****                 {
 202              		.loc 1 175 20 is_stmt 0 view .LVU72
 203 003e A142     		cmp	r1, r4
 204 0040 29D9     		bls	.L6
 184:../Middlewares/threadx/common/src/tx_byte_pool_search.c **** 
 205              		.loc 1 184 21 is_stmt 1 view .LVU73
 206              	.LVL17:
 188:../Middlewares/threadx/common/src/tx_byte_pool_search.c ****                     free_ptr =  TX_UCHAR_TO_ALIGN_TYPE_POINTER_CONVERT(work_ptr);
 207              		.loc 1 188 21 view .LVU74
 189:../Middlewares/threadx/common/src/tx_byte_pool_search.c ****                     if ((*free_ptr) == TX_BYTE_BLOCK_FREE)
 208              		.loc 1 189 21 view .LVU75
 190:../Middlewares/threadx/common/src/tx_byte_pool_search.c ****                     {
 209              		.loc 1 190 21 view .LVU76
 190:../Middlewares/threadx/common/src/tx_byte_pool_search.c ****                     {
 210              		.loc 1 190 24 is_stmt 0 view .LVU77
 211 0042 D6E900E4 		ldrd	lr, r4, [r6]
 212 0046 6445     		cmp	r4, ip
 213 0048 1CD1     		bne	.L7
 195:../Middlewares/threadx/common/src/tx_byte_pool_search.c ****                         *this_block_link_ptr =  *next_block_link_ptr;
 214              		.loc 1 195 25 is_stmt 1 view .LVU78
 215              	.LVL18:
 196:../Middlewares/threadx/common/src/tx_byte_pool_search.c **** 
 216              		.loc 1 196 25 view .LVU79
 201:../Middlewares/threadx/common/src/tx_byte_pool_search.c **** 
 217              		.loc 1 201 59 is_stmt 0 view .LVU80
 218 004a C468     		ldr	r4, [r0, #12]
 196:../Middlewares/threadx/common/src/tx_byte_pool_search.c **** 
 219              		.loc 1 196 46 view .LVU81
 220 004c C3F800E0 		str	lr, [r3]
 201:../Middlewares/threadx/common/src/tx_byte_pool_search.c **** 
 221              		.loc 1 201 25 is_stmt 1 view .LVU82
 201:../Middlewares/threadx/common/src/tx_byte_pool_search.c **** 
 222              		.loc 1 201 59 is_stmt 0 view .LVU83
 223 0050 013C     		subs	r4, r4, #1
 224 0052 C460     		str	r4, [r0, #12]
 213:../Middlewares/threadx/common/src/tx_byte_pool_search.c ****                         {
 225              		.loc 1 213 25 is_stmt 1 view .LVU84
 213:../Middlewares/threadx/common/src/tx_byte_pool_search.c ****                         {
 226              		.loc 1 213 28 is_stmt 0 view .LVU85
 227 0054 4469     		ldr	r4, [r0, #20]
 228 0056 B442     		cmp	r4, r6
 216:../Middlewares/threadx/common/src/tx_byte_pool_search.c ****                         }
 229              		.loc 1 216 29 is_stmt 1 view .LVU86
 216:../Middlewares/threadx/common/src/tx_byte_pool_search.c ****                         }
 230              		.loc 1 216 61 is_stmt 0 view .LVU87
 231 0058 08BF     		it	eq
 232 005a 4361     		streq	r3, [r0, #20]
 233              	.LVL19:
 234              	.L25:
 228:../Middlewares/threadx/common/src/tx_byte_pool_search.c **** 
 235              		.loc 1 228 43 view .LVU88
 236 005c 0126     		movs	r6, #1
ARM GAS  /tmp/ccmkd0xc.s 			page 23


 237              	.LVL20:
 238              	.L9:
 251:../Middlewares/threadx/common/src/tx_byte_pool_search.c ****             {
 239              		.loc 1 251 13 is_stmt 1 view .LVU89
 254:../Middlewares/threadx/common/src/tx_byte_pool_search.c ****             }
 240              		.loc 1 254 31 is_stmt 0 view .LVU90
 241 005e 541E     		subs	r4, r2, #1
 242 0060 002A     		cmp	r2, #0
 243 0062 18BF     		it	ne
 244 0064 2246     		movne	r2, r4
 245              	.LVL21:
 246              	.L11:
 258:../Middlewares/threadx/common/src/tx_byte_pool_search.c **** 
 247              		.loc 1 258 13 is_stmt 1 view .LVU91
 248              	.LBB30:
 249              	.LBI30:
 586:../Middlewares/threadx/ports/cortex_m55/gnu/inc/tx_port.h **** {
 250              		.loc 2 586 55 view .LVU92
 251              	.LBB31:
 591:../Middlewares/threadx/ports/cortex_m55/gnu/inc/tx_port.h **** #endif
 252              		.loc 2 591 5 view .LVU93
 253              		.syntax unified
 254              	@ 591 "../Middlewares/threadx/ports/cortex_m55/gnu/inc/tx_port.h" 1
 255 0066 85F31088 		MSR  PRIMASK,r5
 256              	@ 0 "" 2
 257              	.LVL22:
 591:../Middlewares/threadx/ports/cortex_m55/gnu/inc/tx_port.h **** #endif
 258              		.loc 2 591 5 is_stmt 0 view .LVU94
 259              		.thumb
 260              		.syntax unified
 261              	.LBE31:
 262              	.LBE30:
 261:../Middlewares/threadx/common/src/tx_byte_pool_search.c **** 
 263              		.loc 1 261 13 is_stmt 1 view .LVU95
 264              	.LBB32:
 265              	.LBI32:
 595:../Middlewares/threadx/ports/cortex_m55/gnu/inc/tx_port.h **** {
 266              		.loc 2 595 55 view .LVU96
 267              	.LBB33:
 597:../Middlewares/threadx/ports/cortex_m55/gnu/inc/tx_port.h **** 
 268              		.loc 2 597 1 view .LVU97
 599:../Middlewares/threadx/ports/cortex_m55/gnu/inc/tx_port.h **** 
 269              		.loc 2 599 5 view .LVU98
 270              	.LBB34:
 271              	.LBI34:
 563:../Middlewares/threadx/ports/cortex_m55/gnu/inc/tx_port.h **** {
 272              		.loc 2 563 55 view .LVU99
 273              	.LBB35:
 565:../Middlewares/threadx/ports/cortex_m55/gnu/inc/tx_port.h **** #ifdef TX_PORT_USE_BASEPRI
 274              		.loc 2 565 1 view .LVU100
 569:../Middlewares/threadx/ports/cortex_m55/gnu/inc/tx_port.h **** #endif
 275              		.loc 2 569 5 view .LVU101
 276              		.syntax unified
 277              	@ 569 "../Middlewares/threadx/ports/cortex_m55/gnu/inc/tx_port.h" 1
 278 006a EFF31085 		MRS  r5, PRIMASK 
 279              	@ 0 "" 2
 280              	.LVL23:
ARM GAS  /tmp/ccmkd0xc.s 			page 24


 571:../Middlewares/threadx/ports/cortex_m55/gnu/inc/tx_port.h **** }
 281              		.loc 2 571 5 view .LVU102
 571:../Middlewares/threadx/ports/cortex_m55/gnu/inc/tx_port.h **** }
 282              		.loc 2 571 5 is_stmt 0 view .LVU103
 283              		.thumb
 284              		.syntax unified
 285              	.LBE35:
 286              	.LBE34:
 604:../Middlewares/threadx/ports/cortex_m55/gnu/inc/tx_port.h **** #endif
 287              		.loc 2 604 5 is_stmt 1 view .LVU104
 288              		.syntax unified
 289              	@ 604 "../Middlewares/threadx/ports/cortex_m55/gnu/inc/tx_port.h" 1
 290 006e 72B6     		CPSID i
 291              	@ 0 "" 2
 292              		.loc 2 606 5 view .LVU105
 293              	.LVL24:
 294              		.loc 2 606 5 is_stmt 0 view .LVU106
 295              		.thumb
 296              		.syntax unified
 297              	.LBE33:
 298              	.LBE32:
 264:../Middlewares/threadx/common/src/tx_byte_pool_search.c ****             {
 299              		.loc 1 264 13 is_stmt 1 view .LVU107
 264:../Middlewares/threadx/common/src/tx_byte_pool_search.c ****             {
 300              		.loc 1 264 16 is_stmt 0 view .LVU108
 301 0070 046A     		ldr	r4, [r0, #32]
 302 0072 BC42     		cmp	r4, r7
 269:../Middlewares/threadx/common/src/tx_byte_pool_search.c ****                 examine_blocks =   pool_ptr -> tx_byte_pool_fragments + ((UINT) 1);
 303              		.loc 1 269 17 is_stmt 1 view .LVU109
 270:../Middlewares/threadx/common/src/tx_byte_pool_search.c **** 
 304              		.loc 1 270 32 is_stmt 0 view .LVU110
 305 0074 1FBF     		itttt	ne
 306 0076 C268     		ldrne	r2, [r0, #12]
 307              	.LVL25:
 269:../Middlewares/threadx/common/src/tx_byte_pool_search.c ****                 examine_blocks =   pool_ptr -> tx_byte_pool_fragments + ((UINT) 1);
 308              		.loc 1 269 29 view .LVU111
 309 0078 4369     		ldrne	r3, [r0, #20]
 310              	.LVL26:
 270:../Middlewares/threadx/common/src/tx_byte_pool_search.c **** 
 311              		.loc 1 270 17 is_stmt 1 view .LVU112
 270:../Middlewares/threadx/common/src/tx_byte_pool_search.c **** 
 312              		.loc 1 270 32 is_stmt 0 view .LVU113
 313 007a 0132     		addne	r2, r2, #1
 314              	.LVL27:
 273:../Middlewares/threadx/common/src/tx_byte_pool_search.c ****             }
 315              		.loc 1 273 17 is_stmt 1 view .LVU114
 273:../Middlewares/threadx/common/src/tx_byte_pool_search.c ****             }
 316              		.loc 1 273 48 is_stmt 0 view .LVU115
 317 007c 0762     		strne	r7, [r0, #32]
 275:../Middlewares/threadx/common/src/tx_byte_pool_search.c **** 
 318              		.loc 1 275 32 is_stmt 1 view .LVU116
 319 007e 002A     		cmp	r2, #0
 320 0080 D5D1     		bne	.L13
 321 0082 C8E7     		b	.L14
 322              	.LVL28:
 323              	.L7:
 222:../Middlewares/threadx/common/src/tx_byte_pool_search.c ****                         current_ptr =  *next_block_link_ptr;
ARM GAS  /tmp/ccmkd0xc.s 			page 25


 324              		.loc 1 222 25 view .LVU117
 223:../Middlewares/threadx/common/src/tx_byte_pool_search.c **** 
 325              		.loc 1 223 25 view .LVU118
 226:../Middlewares/threadx/common/src/tx_byte_pool_search.c ****                         {
 326              		.loc 1 226 25 view .LVU119
 226:../Middlewares/threadx/common/src/tx_byte_pool_search.c ****                         {
 327              		.loc 1 226 28 is_stmt 0 view .LVU120
 328 0084 22B1     		cbz	r2, .L18
 228:../Middlewares/threadx/common/src/tx_byte_pool_search.c **** 
 329              		.loc 1 228 29 is_stmt 1 view .LVU121
 223:../Middlewares/threadx/common/src/tx_byte_pool_search.c **** 
 330              		.loc 1 223 37 is_stmt 0 view .LVU122
 331 0086 7346     		mov	r3, lr
 332              	.LVL29:
 228:../Middlewares/threadx/common/src/tx_byte_pool_search.c **** 
 333              		.loc 1 228 43 view .LVU123
 334 0088 013A     		subs	r2, r2, #1
 335              	.LVL30:
 228:../Middlewares/threadx/common/src/tx_byte_pool_search.c **** 
 336              		.loc 1 228 43 view .LVU124
 337 008a E7E7     		b	.L25
 338              	.LVL31:
 339              	.L4:
 246:../Middlewares/threadx/common/src/tx_byte_pool_search.c ****                 current_ptr =  *this_block_link_ptr;
 340              		.loc 1 246 17 is_stmt 1 view .LVU125
 247:../Middlewares/threadx/common/src/tx_byte_pool_search.c ****             }
 341              		.loc 1 247 17 view .LVU126
 247:../Middlewares/threadx/common/src/tx_byte_pool_search.c ****             }
 342              		.loc 1 247 29 is_stmt 0 view .LVU127
 343 008c 1B68     		ldr	r3, [r3]
 344              	.LVL32:
 247:../Middlewares/threadx/common/src/tx_byte_pool_search.c ****             }
 345              		.loc 1 247 29 view .LVU128
 346 008e E6E7     		b	.L9
 347              	.LVL33:
 348              	.L18:
 223:../Middlewares/threadx/common/src/tx_byte_pool_search.c **** 
 349              		.loc 1 223 37 view .LVU129
 350 0090 7346     		mov	r3, lr
 351              	.LVL34:
 223:../Middlewares/threadx/common/src/tx_byte_pool_search.c **** 
 352              		.loc 1 223 37 view .LVU130
 353 0092 0126     		movs	r6, #1
 354              	.LVL35:
 223:../Middlewares/threadx/common/src/tx_byte_pool_search.c **** 
 355              		.loc 1 223 37 view .LVU131
 356 0094 E7E7     		b	.L11
 357              	.LVL36:
 358              	.L6:
 279:../Middlewares/threadx/common/src/tx_byte_pool_search.c ****         {
 359              		.loc 1 279 9 is_stmt 1 view .LVU132
 279:../Middlewares/threadx/common/src/tx_byte_pool_search.c ****         {
 360              		.loc 1 279 12 is_stmt 0 view .LVU133
 361 0096 002C     		cmp	r4, #0
 362 0098 BDD0     		beq	.L14
 283:../Middlewares/threadx/common/src/tx_byte_pool_search.c ****             {
 363              		.loc 1 283 13 is_stmt 1 view .LVU134
ARM GAS  /tmp/ccmkd0xc.s 			page 26


 283:../Middlewares/threadx/common/src/tx_byte_pool_search.c ****             {
 364              		.loc 1 283 34 is_stmt 0 view .LVU135
 365 009a 621A     		subs	r2, r4, r1
 366              	.LVL37:
 283:../Middlewares/threadx/common/src/tx_byte_pool_search.c ****             {
 367              		.loc 1 283 16 view .LVU136
 368 009c 132A     		cmp	r2, #19
 369 009e 0AD9     		bls	.L15
 287:../Middlewares/threadx/common/src/tx_byte_pool_search.c **** 
 370              		.loc 1 287 17 is_stmt 1 view .LVU137
 287:../Middlewares/threadx/common/src/tx_byte_pool_search.c **** 
 371              		.loc 1 287 29 is_stmt 0 view .LVU138
 372 00a0 01F10802 		add	r2, r1, #8
 287:../Middlewares/threadx/common/src/tx_byte_pool_search.c **** 
 373              		.loc 1 287 26 view .LVU139
 374 00a4 9C18     		adds	r4, r3, r2
 375              	.LVL38:
 290:../Middlewares/threadx/common/src/tx_byte_pool_search.c ****                 this_block_link_ptr =   TX_UCHAR_TO_INDIRECT_UCHAR_POINTER_CONVERT(current_ptr);
 376              		.loc 1 290 17 is_stmt 1 view .LVU140
 291:../Middlewares/threadx/common/src/tx_byte_pool_search.c ****                 *next_block_link_ptr =  *this_block_link_ptr;
 377              		.loc 1 291 17 view .LVU141
 292:../Middlewares/threadx/common/src/tx_byte_pool_search.c ****                 work_ptr =              TX_UCHAR_POINTER_ADD(next_ptr, (sizeof(UCHAR *)));
 378              		.loc 1 292 17 view .LVU142
 292:../Middlewares/threadx/common/src/tx_byte_pool_search.c ****                 work_ptr =              TX_UCHAR_POINTER_ADD(next_ptr, (sizeof(UCHAR *)));
 379              		.loc 1 292 38 is_stmt 0 view .LVU143
 380 00a6 9E50     		str	r6, [r3, r2]
 293:../Middlewares/threadx/common/src/tx_byte_pool_search.c ****                 free_ptr =              TX_UCHAR_TO_ALIGN_TYPE_POINTER_CONVERT(work_ptr);
 381              		.loc 1 293 17 is_stmt 1 view .LVU144
 382              	.LVL39:
 294:../Middlewares/threadx/common/src/tx_byte_pool_search.c ****                 *free_ptr =             TX_BYTE_BLOCK_FREE;
 383              		.loc 1 294 17 view .LVU145
 295:../Middlewares/threadx/common/src/tx_byte_pool_search.c **** 
 384              		.loc 1 295 17 view .LVU146
 295:../Middlewares/threadx/common/src/tx_byte_pool_search.c **** 
 385              		.loc 1 295 27 is_stmt 0 view .LVU147
 386 00a8 0B4A     		ldr	r2, .L26+4
 387 00aa 6260     		str	r2, [r4, #4]
 298:../Middlewares/threadx/common/src/tx_byte_pool_search.c **** 
 388              		.loc 1 298 17 is_stmt 1 view .LVU148
 298:../Middlewares/threadx/common/src/tx_byte_pool_search.c **** 
 389              		.loc 1 298 51 is_stmt 0 view .LVU149
 390 00ac C268     		ldr	r2, [r0, #12]
 391 00ae 0132     		adds	r2, r2, #1
 392 00b0 C260     		str	r2, [r0, #12]
 301:../Middlewares/threadx/common/src/tx_byte_pool_search.c **** 
 393              		.loc 1 301 17 is_stmt 1 view .LVU150
 301:../Middlewares/threadx/common/src/tx_byte_pool_search.c **** 
 394              		.loc 1 301 38 is_stmt 0 view .LVU151
 395 00b2 1C60     		str	r4, [r3]
 304:../Middlewares/threadx/common/src/tx_byte_pool_search.c **** 
 396              		.loc 1 304 17 is_stmt 1 view .LVU152
 397              	.LVL40:
 304:../Middlewares/threadx/common/src/tx_byte_pool_search.c **** 
 398              		.loc 1 304 33 is_stmt 0 view .LVU153
 399 00b4 0C46     		mov	r4, r1
 400              	.LVL41:
 401              	.L15:
ARM GAS  /tmp/ccmkd0xc.s 			page 27


 317:../Middlewares/threadx/common/src/tx_byte_pool_search.c ****             this_block_link_ptr =   TX_UCHAR_TO_INDIRECT_UCHAR_POINTER_CONVERT(work_ptr);
 402              		.loc 1 317 13 is_stmt 1 view .LVU154
 318:../Middlewares/threadx/common/src/tx_byte_pool_search.c ****             *this_block_link_ptr =  TX_BYTE_POOL_TO_UCHAR_POINTER_CONVERT(pool_ptr);
 403              		.loc 1 318 13 view .LVU155
 319:../Middlewares/threadx/common/src/tx_byte_pool_search.c **** 
 404              		.loc 1 319 13 view .LVU156
 322:../Middlewares/threadx/common/src/tx_byte_pool_search.c **** 
 405              		.loc 1 322 106 is_stmt 0 view .LVU157
 406 00b6 8268     		ldr	r2, [r0, #8]
 319:../Middlewares/threadx/common/src/tx_byte_pool_search.c **** 
 407              		.loc 1 319 34 view .LVU158
 408 00b8 5860     		str	r0, [r3, #4]
 322:../Middlewares/threadx/common/src/tx_byte_pool_search.c **** 
 409              		.loc 1 322 13 is_stmt 1 view .LVU159
 322:../Middlewares/threadx/common/src/tx_byte_pool_search.c **** 
 410              		.loc 1 322 106 is_stmt 0 view .LVU160
 411 00ba 083A     		subs	r2, r2, #8
 412 00bc 121B     		subs	r2, r2, r4
 322:../Middlewares/threadx/common/src/tx_byte_pool_search.c **** 
 413              		.loc 1 322 48 view .LVU161
 414 00be 8260     		str	r2, [r0, #8]
 326:../Middlewares/threadx/common/src/tx_byte_pool_search.c ****             {
 415              		.loc 1 326 13 is_stmt 1 view .LVU162
 326:../Middlewares/threadx/common/src/tx_byte_pool_search.c ****             {
 416              		.loc 1 326 16 is_stmt 0 view .LVU163
 417 00c0 4269     		ldr	r2, [r0, #20]
 418 00c2 9A42     		cmp	r2, r3
 330:../Middlewares/threadx/common/src/tx_byte_pool_search.c ****                 pool_ptr -> tx_byte_pool_search =  *this_block_link_ptr;
 419              		.loc 1 330 17 is_stmt 1 view .LVU164
 420              	.LVL42:
 331:../Middlewares/threadx/common/src/tx_byte_pool_search.c ****             }
 421              		.loc 1 331 17 view .LVU165
 331:../Middlewares/threadx/common/src/tx_byte_pool_search.c ****             }
 422              		.loc 1 331 52 is_stmt 0 view .LVU166
 423 00c4 04BF     		itt	eq
 424 00c6 1A68     		ldreq	r2, [r3]
 331:../Middlewares/threadx/common/src/tx_byte_pool_search.c ****             }
 425              		.loc 1 331 49 view .LVU167
 426 00c8 4261     		streq	r2, [r0, #20]
 335:../Middlewares/threadx/common/src/tx_byte_pool_search.c **** 
 427              		.loc 1 335 13 is_stmt 1 view .LVU168
 428              	.LVL43:
 429              	.LBB36:
 430              	.LBI36:
 586:../Middlewares/threadx/ports/cortex_m55/gnu/inc/tx_port.h **** {
 431              		.loc 2 586 55 view .LVU169
 432              	.LBB37:
 591:../Middlewares/threadx/ports/cortex_m55/gnu/inc/tx_port.h **** #endif
 433              		.loc 2 591 5 view .LVU170
 434              		.syntax unified
 435              	@ 591 "../Middlewares/threadx/ports/cortex_m55/gnu/inc/tx_port.h" 1
 436 00ca 85F31088 		MSR  PRIMASK,r5
 437              	@ 0 "" 2
 438              	.LVL44:
 591:../Middlewares/threadx/ports/cortex_m55/gnu/inc/tx_port.h **** #endif
 439              		.loc 2 591 5 is_stmt 0 view .LVU171
 440              		.thumb
ARM GAS  /tmp/ccmkd0xc.s 			page 28


 441              		.syntax unified
 442              	.LBE37:
 443              	.LBE36:
 338:../Middlewares/threadx/common/src/tx_byte_pool_search.c ****         }
 444              		.loc 1 338 13 is_stmt 1 view .LVU172
 338:../Middlewares/threadx/common/src/tx_byte_pool_search.c ****         }
 445              		.loc 1 338 25 is_stmt 0 view .LVU173
 446 00ce 03F10800 		add	r0, r3, #8
 447              	.LVL45:
 448              	.L1:
 353:../Middlewares/threadx/common/src/tx_byte_pool_search.c **** }
 449              		.loc 1 353 1 view .LVU174
 450 00d2 F0BD     		pop	{r4, r5, r6, r7, pc}
 451              	.LVL46:
 452              	.L27:
 453              		.loc 1 353 1 view .LVU175
 454              		.align	2
 455              	.L26:
 456 00d4 00000000 		.word	_tx_thread_current_ptr
 457 00d8 EEEEFFFF 		.word	-4370
 458              		.cfi_endproc
 459              	.LFE8:
 461              		.text
 462              	.Letext0:
 463              		.file 3 "../Middlewares/threadx/common/inc/tx_api.h"
 464              		.file 4 "../Middlewares/threadx/common/inc/tx_thread.h"
ARM GAS  /tmp/ccmkd0xc.s 			page 29

