ARM GAS  /tmp/ccNroJea.s 			page 1


   1              		.arch armv8.1-m.main
   2              		.fpu fpv5-d16
   3              		.arch_extension dsp
   4              		.arch_extension fp
   5              		.arch_extension fp.dp
   6              		.arch_extension mve
   7              		.arch_extension mve.fp
   8              		.eabi_attribute 5, "cortex-m55"
   9              		.eabi_attribute 28, 1
  10              		.eabi_attribute 20, 1
  11              		.eabi_attribute 21, 1
  12              		.eabi_attribute 23, 3
  13              		.eabi_attribute 24, 1
  14              		.eabi_attribute 25, 1
  15              		.eabi_attribute 26, 1
  16              		.eabi_attribute 30, 4
  17              		.eabi_attribute 34, 1
  18              		.eabi_attribute 38, 1
  19              		.eabi_attribute 18, 4
  20              		.file	"tx_byte_release.c"
  21              		.text
  22              	.Ltext0:
  23              		.cfi_sections	.debug_frame
  24              		.file 1 "../Middlewares/threadx/common/src/tx_byte_release.c"
  25              		.section	.text._tx_byte_release,"ax",%progbits
  26              		.align	1
  27              		.global	_tx_byte_release
  28              		.syntax unified
  29              		.thumb
  30              		.thumb_func
  32              	_tx_byte_release:
  33              	.LVL0:
  34              	.LFB8:
   1:../Middlewares/threadx/common/src/tx_byte_release.c **** /**************************************************************************/
   2:../Middlewares/threadx/common/src/tx_byte_release.c **** /*                                                                        */
   3:../Middlewares/threadx/common/src/tx_byte_release.c **** /*       Copyright (c) Microsoft Corporation. All rights reserved.        */
   4:../Middlewares/threadx/common/src/tx_byte_release.c **** /*                                                                        */
   5:../Middlewares/threadx/common/src/tx_byte_release.c **** /*       This software is licensed under the Microsoft Software License   */
   6:../Middlewares/threadx/common/src/tx_byte_release.c **** /*       Terms for Microsoft Azure RTOS. Full text of the license can be  */
   7:../Middlewares/threadx/common/src/tx_byte_release.c **** /*       found in the LICENSE file at https://aka.ms/AzureRTOS_EULA       */
   8:../Middlewares/threadx/common/src/tx_byte_release.c **** /*       and in the root directory of this software.                      */
   9:../Middlewares/threadx/common/src/tx_byte_release.c **** /*                                                                        */
  10:../Middlewares/threadx/common/src/tx_byte_release.c **** /**************************************************************************/
  11:../Middlewares/threadx/common/src/tx_byte_release.c **** 
  12:../Middlewares/threadx/common/src/tx_byte_release.c **** 
  13:../Middlewares/threadx/common/src/tx_byte_release.c **** /**************************************************************************/
  14:../Middlewares/threadx/common/src/tx_byte_release.c **** /**************************************************************************/
  15:../Middlewares/threadx/common/src/tx_byte_release.c **** /**                                                                       */
  16:../Middlewares/threadx/common/src/tx_byte_release.c **** /** ThreadX Component                                                     */
  17:../Middlewares/threadx/common/src/tx_byte_release.c **** /**                                                                       */
  18:../Middlewares/threadx/common/src/tx_byte_release.c **** /**   Byte Memory                                                         */
  19:../Middlewares/threadx/common/src/tx_byte_release.c **** /**                                                                       */
  20:../Middlewares/threadx/common/src/tx_byte_release.c **** /**************************************************************************/
  21:../Middlewares/threadx/common/src/tx_byte_release.c **** /**************************************************************************/
  22:../Middlewares/threadx/common/src/tx_byte_release.c **** 
  23:../Middlewares/threadx/common/src/tx_byte_release.c **** #define TX_SOURCE_CODE
  24:../Middlewares/threadx/common/src/tx_byte_release.c **** 
ARM GAS  /tmp/ccNroJea.s 			page 2


  25:../Middlewares/threadx/common/src/tx_byte_release.c **** 
  26:../Middlewares/threadx/common/src/tx_byte_release.c **** /* Include necessary system files.  */
  27:../Middlewares/threadx/common/src/tx_byte_release.c **** 
  28:../Middlewares/threadx/common/src/tx_byte_release.c **** #include "tx_api.h"
  29:../Middlewares/threadx/common/src/tx_byte_release.c **** #include "tx_trace.h"
  30:../Middlewares/threadx/common/src/tx_byte_release.c **** #include "tx_thread.h"
  31:../Middlewares/threadx/common/src/tx_byte_release.c **** #include "tx_byte_pool.h"
  32:../Middlewares/threadx/common/src/tx_byte_release.c **** 
  33:../Middlewares/threadx/common/src/tx_byte_release.c **** 
  34:../Middlewares/threadx/common/src/tx_byte_release.c **** /**************************************************************************/
  35:../Middlewares/threadx/common/src/tx_byte_release.c **** /*                                                                        */
  36:../Middlewares/threadx/common/src/tx_byte_release.c **** /*  FUNCTION                                               RELEASE        */
  37:../Middlewares/threadx/common/src/tx_byte_release.c **** /*                                                                        */
  38:../Middlewares/threadx/common/src/tx_byte_release.c **** /*    _tx_byte_release                                    PORTABLE C      */
  39:../Middlewares/threadx/common/src/tx_byte_release.c **** /*                                                           6.1          */
  40:../Middlewares/threadx/common/src/tx_byte_release.c **** /*  AUTHOR                                                                */
  41:../Middlewares/threadx/common/src/tx_byte_release.c **** /*                                                                        */
  42:../Middlewares/threadx/common/src/tx_byte_release.c **** /*    William E. Lamie, Microsoft Corporation                             */
  43:../Middlewares/threadx/common/src/tx_byte_release.c **** /*                                                                        */
  44:../Middlewares/threadx/common/src/tx_byte_release.c **** /*  DESCRIPTION                                                           */
  45:../Middlewares/threadx/common/src/tx_byte_release.c **** /*                                                                        */
  46:../Middlewares/threadx/common/src/tx_byte_release.c **** /*    This function returns previously allocated memory to its            */
  47:../Middlewares/threadx/common/src/tx_byte_release.c **** /*    associated memory byte pool.                                        */
  48:../Middlewares/threadx/common/src/tx_byte_release.c **** /*                                                                        */
  49:../Middlewares/threadx/common/src/tx_byte_release.c **** /*  INPUT                                                                 */
  50:../Middlewares/threadx/common/src/tx_byte_release.c **** /*                                                                        */
  51:../Middlewares/threadx/common/src/tx_byte_release.c **** /*    memory_ptr                        Pointer to allocated memory       */
  52:../Middlewares/threadx/common/src/tx_byte_release.c **** /*                                                                        */
  53:../Middlewares/threadx/common/src/tx_byte_release.c **** /*  OUTPUT                                                                */
  54:../Middlewares/threadx/common/src/tx_byte_release.c **** /*                                                                        */
  55:../Middlewares/threadx/common/src/tx_byte_release.c **** /*    [TX_PTR_ERROR | TX_SUCCESS]       Completion status                 */
  56:../Middlewares/threadx/common/src/tx_byte_release.c **** /*                                                                        */
  57:../Middlewares/threadx/common/src/tx_byte_release.c **** /*  CALLS                                                                 */
  58:../Middlewares/threadx/common/src/tx_byte_release.c **** /*                                                                        */
  59:../Middlewares/threadx/common/src/tx_byte_release.c **** /*    _tx_thread_system_preempt_check   Check for preemption              */
  60:../Middlewares/threadx/common/src/tx_byte_release.c **** /*    _tx_thread_system_resume          Resume thread service             */
  61:../Middlewares/threadx/common/src/tx_byte_release.c **** /*    _tx_thread_system_ni_resume       Non-interruptable resume thread   */
  62:../Middlewares/threadx/common/src/tx_byte_release.c **** /*    _tx_byte_pool_search              Search the byte pool for memory   */
  63:../Middlewares/threadx/common/src/tx_byte_release.c **** /*                                                                        */
  64:../Middlewares/threadx/common/src/tx_byte_release.c **** /*  CALLED BY                                                             */
  65:../Middlewares/threadx/common/src/tx_byte_release.c **** /*                                                                        */
  66:../Middlewares/threadx/common/src/tx_byte_release.c **** /*    Application Code                                                    */
  67:../Middlewares/threadx/common/src/tx_byte_release.c **** /*                                                                        */
  68:../Middlewares/threadx/common/src/tx_byte_release.c **** /*  RELEASE HISTORY                                                       */
  69:../Middlewares/threadx/common/src/tx_byte_release.c **** /*                                                                        */
  70:../Middlewares/threadx/common/src/tx_byte_release.c **** /*    DATE              NAME                      DESCRIPTION             */
  71:../Middlewares/threadx/common/src/tx_byte_release.c **** /*                                                                        */
  72:../Middlewares/threadx/common/src/tx_byte_release.c **** /*  05-19-2020     William E. Lamie         Initial Version 6.0           */
  73:../Middlewares/threadx/common/src/tx_byte_release.c **** /*  09-30-2020     Yuxin Zhou               Modified comment(s),          */
  74:../Middlewares/threadx/common/src/tx_byte_release.c **** /*                                            resulting in version 6.1    */
  75:../Middlewares/threadx/common/src/tx_byte_release.c **** /*                                                                        */
  76:../Middlewares/threadx/common/src/tx_byte_release.c **** /**************************************************************************/
  77:../Middlewares/threadx/common/src/tx_byte_release.c **** UINT  _tx_byte_release(VOID *memory_ptr)
  78:../Middlewares/threadx/common/src/tx_byte_release.c **** {
  35              		.loc 1 78 1 view -0
  36              		.cfi_startproc
  37              		@ args = 0, pretend = 0, frame = 0
ARM GAS  /tmp/ccNroJea.s 			page 3


  38              		@ frame_needed = 0, uses_anonymous_args = 0
  79:../Middlewares/threadx/common/src/tx_byte_release.c **** 
  80:../Middlewares/threadx/common/src/tx_byte_release.c **** TX_INTERRUPT_SAVE_AREA
  39              		.loc 1 80 1 view .LVU1
  81:../Middlewares/threadx/common/src/tx_byte_release.c **** 
  82:../Middlewares/threadx/common/src/tx_byte_release.c **** UINT                status;
  40              		.loc 1 82 1 view .LVU2
  83:../Middlewares/threadx/common/src/tx_byte_release.c **** TX_BYTE_POOL        *pool_ptr;
  41              		.loc 1 83 1 view .LVU3
  84:../Middlewares/threadx/common/src/tx_byte_release.c **** TX_THREAD           *thread_ptr;
  42              		.loc 1 84 1 view .LVU4
  85:../Middlewares/threadx/common/src/tx_byte_release.c **** UCHAR               *work_ptr;
  43              		.loc 1 85 1 view .LVU5
  86:../Middlewares/threadx/common/src/tx_byte_release.c **** UCHAR               *temp_ptr;
  44              		.loc 1 86 1 view .LVU6
  87:../Middlewares/threadx/common/src/tx_byte_release.c **** UCHAR               *next_block_ptr;
  45              		.loc 1 87 1 view .LVU7
  88:../Middlewares/threadx/common/src/tx_byte_release.c **** TX_THREAD           *susp_thread_ptr;
  46              		.loc 1 88 1 view .LVU8
  89:../Middlewares/threadx/common/src/tx_byte_release.c **** UINT                suspended_count;
  47              		.loc 1 89 1 view .LVU9
  90:../Middlewares/threadx/common/src/tx_byte_release.c **** TX_THREAD           *next_thread;
  48              		.loc 1 90 1 view .LVU10
  91:../Middlewares/threadx/common/src/tx_byte_release.c **** TX_THREAD           *previous_thread;
  49              		.loc 1 91 1 view .LVU11
  92:../Middlewares/threadx/common/src/tx_byte_release.c **** ULONG               memory_size;
  50              		.loc 1 92 1 view .LVU12
  93:../Middlewares/threadx/common/src/tx_byte_release.c **** ALIGN_TYPE          *free_ptr;
  51              		.loc 1 93 1 view .LVU13
  94:../Middlewares/threadx/common/src/tx_byte_release.c **** TX_BYTE_POOL        **byte_pool_ptr;
  52              		.loc 1 94 1 view .LVU14
  95:../Middlewares/threadx/common/src/tx_byte_release.c **** UCHAR               **block_link_ptr;
  53              		.loc 1 95 1 view .LVU15
  96:../Middlewares/threadx/common/src/tx_byte_release.c **** UCHAR               **suspend_info_ptr;
  54              		.loc 1 96 1 view .LVU16
  97:../Middlewares/threadx/common/src/tx_byte_release.c **** 
  98:../Middlewares/threadx/common/src/tx_byte_release.c **** 
  99:../Middlewares/threadx/common/src/tx_byte_release.c ****     /* Default to successful status.  */
 100:../Middlewares/threadx/common/src/tx_byte_release.c ****     status =  TX_SUCCESS;
  55              		.loc 1 100 5 view .LVU17
 101:../Middlewares/threadx/common/src/tx_byte_release.c **** 
 102:../Middlewares/threadx/common/src/tx_byte_release.c ****     /* Set the pool pointer to NULL.  */
 103:../Middlewares/threadx/common/src/tx_byte_release.c ****     pool_ptr =  TX_NULL;
  56              		.loc 1 103 5 view .LVU18
 104:../Middlewares/threadx/common/src/tx_byte_release.c **** 
 105:../Middlewares/threadx/common/src/tx_byte_release.c ****     /* Lockout interrupts.  */
 106:../Middlewares/threadx/common/src/tx_byte_release.c ****     TX_DISABLE
  57              		.loc 1 106 5 view .LVU19
  58              	.LBB29:
  59              	.LBI29:
  60              		.file 2 "../Middlewares/threadx/ports/cortex_m55/gnu/inc/tx_port.h"
   1:../Middlewares/threadx/ports/cortex_m55/gnu/inc/tx_port.h **** /**************************************************************************/
   2:../Middlewares/threadx/ports/cortex_m55/gnu/inc/tx_port.h **** /*                                                                        */
   3:../Middlewares/threadx/ports/cortex_m55/gnu/inc/tx_port.h **** /*       Copyright (c) Microsoft Corporation. All rights reserved.        */
   4:../Middlewares/threadx/ports/cortex_m55/gnu/inc/tx_port.h **** /*                                                                        */
   5:../Middlewares/threadx/ports/cortex_m55/gnu/inc/tx_port.h **** /*       This software is licensed under the Microsoft Software License   */
   6:../Middlewares/threadx/ports/cortex_m55/gnu/inc/tx_port.h **** /*       Terms for Microsoft Azure RTOS. Full text of the license can be  */
ARM GAS  /tmp/ccNroJea.s 			page 4


   7:../Middlewares/threadx/ports/cortex_m55/gnu/inc/tx_port.h **** /*       found in the LICENSE file at https://aka.ms/AzureRTOS_EULA       */
   8:../Middlewares/threadx/ports/cortex_m55/gnu/inc/tx_port.h **** /*       and in the root directory of this software.                      */
   9:../Middlewares/threadx/ports/cortex_m55/gnu/inc/tx_port.h **** /*                                                                        */
  10:../Middlewares/threadx/ports/cortex_m55/gnu/inc/tx_port.h **** /**************************************************************************/
  11:../Middlewares/threadx/ports/cortex_m55/gnu/inc/tx_port.h **** 
  12:../Middlewares/threadx/ports/cortex_m55/gnu/inc/tx_port.h **** 
  13:../Middlewares/threadx/ports/cortex_m55/gnu/inc/tx_port.h **** /**************************************************************************/
  14:../Middlewares/threadx/ports/cortex_m55/gnu/inc/tx_port.h **** /**************************************************************************/
  15:../Middlewares/threadx/ports/cortex_m55/gnu/inc/tx_port.h **** /**                                                                       */
  16:../Middlewares/threadx/ports/cortex_m55/gnu/inc/tx_port.h **** /** ThreadX Component                                                     */
  17:../Middlewares/threadx/ports/cortex_m55/gnu/inc/tx_port.h **** /**                                                                       */
  18:../Middlewares/threadx/ports/cortex_m55/gnu/inc/tx_port.h **** /**   Port Specific                                                       */
  19:../Middlewares/threadx/ports/cortex_m55/gnu/inc/tx_port.h **** /**                                                                       */
  20:../Middlewares/threadx/ports/cortex_m55/gnu/inc/tx_port.h **** /**************************************************************************/
  21:../Middlewares/threadx/ports/cortex_m55/gnu/inc/tx_port.h **** /**************************************************************************/
  22:../Middlewares/threadx/ports/cortex_m55/gnu/inc/tx_port.h **** 
  23:../Middlewares/threadx/ports/cortex_m55/gnu/inc/tx_port.h **** 
  24:../Middlewares/threadx/ports/cortex_m55/gnu/inc/tx_port.h **** /**************************************************************************/
  25:../Middlewares/threadx/ports/cortex_m55/gnu/inc/tx_port.h **** /*                                                                        */
  26:../Middlewares/threadx/ports/cortex_m55/gnu/inc/tx_port.h **** /*  PORT SPECIFIC C INFORMATION                            RELEASE        */
  27:../Middlewares/threadx/ports/cortex_m55/gnu/inc/tx_port.h **** /*                                                                        */
  28:../Middlewares/threadx/ports/cortex_m55/gnu/inc/tx_port.h **** /*    tx_port.h                                         Cortex-M55/GNU    */
  29:../Middlewares/threadx/ports/cortex_m55/gnu/inc/tx_port.h **** /*                                                           6.2.1        */
  30:../Middlewares/threadx/ports/cortex_m55/gnu/inc/tx_port.h **** /*                                                                        */
  31:../Middlewares/threadx/ports/cortex_m55/gnu/inc/tx_port.h **** /*  AUTHOR                                                                */
  32:../Middlewares/threadx/ports/cortex_m55/gnu/inc/tx_port.h **** /*                                                                        */
  33:../Middlewares/threadx/ports/cortex_m55/gnu/inc/tx_port.h **** /*    Scott Larson, Microsoft Corporation                                 */
  34:../Middlewares/threadx/ports/cortex_m55/gnu/inc/tx_port.h **** /*                                                                        */
  35:../Middlewares/threadx/ports/cortex_m55/gnu/inc/tx_port.h **** /*  DESCRIPTION                                                           */
  36:../Middlewares/threadx/ports/cortex_m55/gnu/inc/tx_port.h **** /*                                                                        */
  37:../Middlewares/threadx/ports/cortex_m55/gnu/inc/tx_port.h **** /*    This file contains data type definitions that make the ThreadX      */
  38:../Middlewares/threadx/ports/cortex_m55/gnu/inc/tx_port.h **** /*    real-time kernel function identically on a variety of different     */
  39:../Middlewares/threadx/ports/cortex_m55/gnu/inc/tx_port.h **** /*    processor architectures.  For example, the size or number of bits   */
  40:../Middlewares/threadx/ports/cortex_m55/gnu/inc/tx_port.h **** /*    in an "int" data type vary between microprocessor architectures and */
  41:../Middlewares/threadx/ports/cortex_m55/gnu/inc/tx_port.h **** /*    even C compilers for the same microprocessor.  ThreadX does not     */
  42:../Middlewares/threadx/ports/cortex_m55/gnu/inc/tx_port.h **** /*    directly use native C data types.  Instead, ThreadX creates its     */
  43:../Middlewares/threadx/ports/cortex_m55/gnu/inc/tx_port.h **** /*    own special types that can be mapped to actual data types by this   */
  44:../Middlewares/threadx/ports/cortex_m55/gnu/inc/tx_port.h **** /*    file to guarantee consistency in the interface and functionality.   */
  45:../Middlewares/threadx/ports/cortex_m55/gnu/inc/tx_port.h **** /*                                                                        */
  46:../Middlewares/threadx/ports/cortex_m55/gnu/inc/tx_port.h **** /*    This file replaces the previous Cortex-M55 files. It unifies        */
  47:../Middlewares/threadx/ports/cortex_m55/gnu/inc/tx_port.h **** /*    the Cortex-M55 compilers into one common file.                      */
  48:../Middlewares/threadx/ports/cortex_m55/gnu/inc/tx_port.h **** /*                                                                        */
  49:../Middlewares/threadx/ports/cortex_m55/gnu/inc/tx_port.h **** /*  RELEASE HISTORY                                                       */
  50:../Middlewares/threadx/ports/cortex_m55/gnu/inc/tx_port.h **** /*                                                                        */
  51:../Middlewares/threadx/ports/cortex_m55/gnu/inc/tx_port.h **** /*    DATE              NAME                      DESCRIPTION             */
  52:../Middlewares/threadx/ports/cortex_m55/gnu/inc/tx_port.h **** /*                                                                        */
  53:../Middlewares/threadx/ports/cortex_m55/gnu/inc/tx_port.h **** /*  09-30-2020      Scott Larson            Initial Version 6.1           */
  54:../Middlewares/threadx/ports/cortex_m55/gnu/inc/tx_port.h **** /*  03-02-2021      Scott Larson            Modified comment(s), added    */
  55:../Middlewares/threadx/ports/cortex_m55/gnu/inc/tx_port.h **** /*                                            ULONG64_DEFINED,            */
  56:../Middlewares/threadx/ports/cortex_m55/gnu/inc/tx_port.h **** /*                                            resulting in version 6.1.5  */
  57:../Middlewares/threadx/ports/cortex_m55/gnu/inc/tx_port.h **** /*  06-02-2021      Scott Larson            Modified comment(s), removed  */
  58:../Middlewares/threadx/ports/cortex_m55/gnu/inc/tx_port.h **** /*                                            unneeded header file, funcs */
  59:../Middlewares/threadx/ports/cortex_m55/gnu/inc/tx_port.h **** /*                                            set_control and get_control */
  60:../Middlewares/threadx/ports/cortex_m55/gnu/inc/tx_port.h **** /*                                            changed to inline,          */
  61:../Middlewares/threadx/ports/cortex_m55/gnu/inc/tx_port.h **** /*                                            added symbol to enable      */
  62:../Middlewares/threadx/ports/cortex_m55/gnu/inc/tx_port.h **** /*                                            stack error handler,        */
  63:../Middlewares/threadx/ports/cortex_m55/gnu/inc/tx_port.h **** /*                                            resulting in version 6.1.7  */
ARM GAS  /tmp/ccNroJea.s 			page 5


  64:../Middlewares/threadx/ports/cortex_m55/gnu/inc/tx_port.h **** /*  10-15-2021      Scott Larson            Modified comment(s), improved */
  65:../Middlewares/threadx/ports/cortex_m55/gnu/inc/tx_port.h **** /*                                            stack check error handling, */
  66:../Middlewares/threadx/ports/cortex_m55/gnu/inc/tx_port.h **** /*                                            resulting in version 6.1.9  */
  67:../Middlewares/threadx/ports/cortex_m55/gnu/inc/tx_port.h **** /*  01-31-2022      Scott Larson            Modified comment(s), unified  */
  68:../Middlewares/threadx/ports/cortex_m55/gnu/inc/tx_port.h **** /*                                            this file across compilers, */
  69:../Middlewares/threadx/ports/cortex_m55/gnu/inc/tx_port.h **** /*                                            fixed predefined macro,     */
  70:../Middlewares/threadx/ports/cortex_m55/gnu/inc/tx_port.h **** /*                                            resulting in version 6.1.10 */
  71:../Middlewares/threadx/ports/cortex_m55/gnu/inc/tx_port.h **** /*  04-25-2022      Scott Larson            Modified comments and added   */
  72:../Middlewares/threadx/ports/cortex_m55/gnu/inc/tx_port.h **** /*                                            volatile to registers,      */
  73:../Middlewares/threadx/ports/cortex_m55/gnu/inc/tx_port.h **** /*                                            resulting in version 6.1.11 */
  74:../Middlewares/threadx/ports/cortex_m55/gnu/inc/tx_port.h **** /*  07-29-2022      Scott Larson            Modified comments and changed */
  75:../Middlewares/threadx/ports/cortex_m55/gnu/inc/tx_port.h **** /*                                            secure stack initialization */
  76:../Middlewares/threadx/ports/cortex_m55/gnu/inc/tx_port.h **** /*                                            macro to port-specific,     */
  77:../Middlewares/threadx/ports/cortex_m55/gnu/inc/tx_port.h **** /*                                            described BASEPRI usage,    */
  78:../Middlewares/threadx/ports/cortex_m55/gnu/inc/tx_port.h **** /*                                            resulting in version 6.1.12 */
  79:../Middlewares/threadx/ports/cortex_m55/gnu/inc/tx_port.h **** /*  03-08-2023      Scott Larson            Removed unneeded #include,    */
  80:../Middlewares/threadx/ports/cortex_m55/gnu/inc/tx_port.h **** /*                                            resulting in version 6.2.1  */
  81:../Middlewares/threadx/ports/cortex_m55/gnu/inc/tx_port.h **** /*                                                                        */
  82:../Middlewares/threadx/ports/cortex_m55/gnu/inc/tx_port.h **** /**************************************************************************/
  83:../Middlewares/threadx/ports/cortex_m55/gnu/inc/tx_port.h **** 
  84:../Middlewares/threadx/ports/cortex_m55/gnu/inc/tx_port.h **** #ifndef TX_PORT_H
  85:../Middlewares/threadx/ports/cortex_m55/gnu/inc/tx_port.h **** #define TX_PORT_H
  86:../Middlewares/threadx/ports/cortex_m55/gnu/inc/tx_port.h **** 
  87:../Middlewares/threadx/ports/cortex_m55/gnu/inc/tx_port.h **** /* Determine if the optional ThreadX user define file should be used.  */
  88:../Middlewares/threadx/ports/cortex_m55/gnu/inc/tx_port.h **** #ifdef TX_INCLUDE_USER_DEFINE_FILE
  89:../Middlewares/threadx/ports/cortex_m55/gnu/inc/tx_port.h **** 
  90:../Middlewares/threadx/ports/cortex_m55/gnu/inc/tx_port.h **** /* Yes, include the user defines in tx_user.h. The defines in this file may
  91:../Middlewares/threadx/ports/cortex_m55/gnu/inc/tx_port.h ****    alternately be defined on the command line.  */
  92:../Middlewares/threadx/ports/cortex_m55/gnu/inc/tx_port.h **** 
  93:../Middlewares/threadx/ports/cortex_m55/gnu/inc/tx_port.h **** #include "tx_user.h"
  94:../Middlewares/threadx/ports/cortex_m55/gnu/inc/tx_port.h **** #endif /* TX_INCLUDE_USER_DEFINE_FILE */
  95:../Middlewares/threadx/ports/cortex_m55/gnu/inc/tx_port.h **** 
  96:../Middlewares/threadx/ports/cortex_m55/gnu/inc/tx_port.h **** /* Define compiler library include files.  */
  97:../Middlewares/threadx/ports/cortex_m55/gnu/inc/tx_port.h **** 
  98:../Middlewares/threadx/ports/cortex_m55/gnu/inc/tx_port.h **** #include <stdlib.h>
  99:../Middlewares/threadx/ports/cortex_m55/gnu/inc/tx_port.h **** #include <string.h>
 100:../Middlewares/threadx/ports/cortex_m55/gnu/inc/tx_port.h **** 
 101:../Middlewares/threadx/ports/cortex_m55/gnu/inc/tx_port.h **** #ifdef __ICCARM__
 102:../Middlewares/threadx/ports/cortex_m55/gnu/inc/tx_port.h **** #include <intrinsics.h>                         /* IAR Intrinsics */
 103:../Middlewares/threadx/ports/cortex_m55/gnu/inc/tx_port.h **** #define __asm__                 __asm           /* Define to make all inline asm from each compiler
 104:../Middlewares/threadx/ports/cortex_m55/gnu/inc/tx_port.h **** #define _tx_control_get         __get_CONTROL
 105:../Middlewares/threadx/ports/cortex_m55/gnu/inc/tx_port.h **** #define _tx_control_set         __set_CONTROL
 106:../Middlewares/threadx/ports/cortex_m55/gnu/inc/tx_port.h **** #define _tx_ipsr_get            __get_IPSR
 107:../Middlewares/threadx/ports/cortex_m55/gnu/inc/tx_port.h **** #ifdef  TX_ENABLE_IAR_LIBRARY_SUPPORT
 108:../Middlewares/threadx/ports/cortex_m55/gnu/inc/tx_port.h **** #include <yvals.h>
 109:../Middlewares/threadx/ports/cortex_m55/gnu/inc/tx_port.h **** #endif /* TX_ENABLE_IAR_LIBRARY_SUPPORT */
 110:../Middlewares/threadx/ports/cortex_m55/gnu/inc/tx_port.h **** #endif /* __ICCARM__ */
 111:../Middlewares/threadx/ports/cortex_m55/gnu/inc/tx_port.h **** 
 112:../Middlewares/threadx/ports/cortex_m55/gnu/inc/tx_port.h **** 
 113:../Middlewares/threadx/ports/cortex_m55/gnu/inc/tx_port.h **** /* Define ThreadX basic types for this port.  */
 114:../Middlewares/threadx/ports/cortex_m55/gnu/inc/tx_port.h **** 
 115:../Middlewares/threadx/ports/cortex_m55/gnu/inc/tx_port.h **** #define VOID                                    void
 116:../Middlewares/threadx/ports/cortex_m55/gnu/inc/tx_port.h **** typedef char                                    CHAR;
 117:../Middlewares/threadx/ports/cortex_m55/gnu/inc/tx_port.h **** typedef unsigned char                           UCHAR;
 118:../Middlewares/threadx/ports/cortex_m55/gnu/inc/tx_port.h **** typedef int                                     INT;
 119:../Middlewares/threadx/ports/cortex_m55/gnu/inc/tx_port.h **** typedef unsigned int                            UINT;
 120:../Middlewares/threadx/ports/cortex_m55/gnu/inc/tx_port.h **** typedef long                                    LONG;
ARM GAS  /tmp/ccNroJea.s 			page 6


 121:../Middlewares/threadx/ports/cortex_m55/gnu/inc/tx_port.h **** typedef unsigned long                           ULONG;
 122:../Middlewares/threadx/ports/cortex_m55/gnu/inc/tx_port.h **** typedef unsigned long long                      ULONG64;
 123:../Middlewares/threadx/ports/cortex_m55/gnu/inc/tx_port.h **** typedef short                                   SHORT;
 124:../Middlewares/threadx/ports/cortex_m55/gnu/inc/tx_port.h **** typedef unsigned short                          USHORT;
 125:../Middlewares/threadx/ports/cortex_m55/gnu/inc/tx_port.h **** #define ULONG64_DEFINED
 126:../Middlewares/threadx/ports/cortex_m55/gnu/inc/tx_port.h **** 
 127:../Middlewares/threadx/ports/cortex_m55/gnu/inc/tx_port.h **** /* Function prototypes for this port. */
 128:../Middlewares/threadx/ports/cortex_m55/gnu/inc/tx_port.h **** struct  TX_THREAD_STRUCT;
 129:../Middlewares/threadx/ports/cortex_m55/gnu/inc/tx_port.h **** UINT    _txe_thread_secure_stack_allocate(struct TX_THREAD_STRUCT *thread_ptr, ULONG stack_size);
 130:../Middlewares/threadx/ports/cortex_m55/gnu/inc/tx_port.h **** UINT    _txe_thread_secure_stack_free(struct TX_THREAD_STRUCT *thread_ptr);
 131:../Middlewares/threadx/ports/cortex_m55/gnu/inc/tx_port.h **** UINT    _tx_thread_secure_stack_allocate(struct TX_THREAD_STRUCT *tx_thread, ULONG stack_size);
 132:../Middlewares/threadx/ports/cortex_m55/gnu/inc/tx_port.h **** UINT    _tx_thread_secure_stack_free(struct TX_THREAD_STRUCT *tx_thread);
 133:../Middlewares/threadx/ports/cortex_m55/gnu/inc/tx_port.h **** 
 134:../Middlewares/threadx/ports/cortex_m55/gnu/inc/tx_port.h **** /* Define the system API mappings based on the error checking
 135:../Middlewares/threadx/ports/cortex_m55/gnu/inc/tx_port.h ****    selected by the user.  Note: this section is only applicable to
 136:../Middlewares/threadx/ports/cortex_m55/gnu/inc/tx_port.h ****    application source code, hence the conditional that turns off this
 137:../Middlewares/threadx/ports/cortex_m55/gnu/inc/tx_port.h ****    stuff when the include file is processed by the ThreadX source. */
 138:../Middlewares/threadx/ports/cortex_m55/gnu/inc/tx_port.h **** 
 139:../Middlewares/threadx/ports/cortex_m55/gnu/inc/tx_port.h **** #ifndef TX_SOURCE_CODE
 140:../Middlewares/threadx/ports/cortex_m55/gnu/inc/tx_port.h **** 
 141:../Middlewares/threadx/ports/cortex_m55/gnu/inc/tx_port.h **** 
 142:../Middlewares/threadx/ports/cortex_m55/gnu/inc/tx_port.h **** /* Determine if error checking is desired.  If so, map API functions
 143:../Middlewares/threadx/ports/cortex_m55/gnu/inc/tx_port.h ****    to the appropriate error checking front-ends.  Otherwise, map API
 144:../Middlewares/threadx/ports/cortex_m55/gnu/inc/tx_port.h ****    functions to the core functions that actually perform the work.
 145:../Middlewares/threadx/ports/cortex_m55/gnu/inc/tx_port.h ****    Note: error checking is enabled by default.  */
 146:../Middlewares/threadx/ports/cortex_m55/gnu/inc/tx_port.h **** 
 147:../Middlewares/threadx/ports/cortex_m55/gnu/inc/tx_port.h **** #ifdef TX_DISABLE_ERROR_CHECKING
 148:../Middlewares/threadx/ports/cortex_m55/gnu/inc/tx_port.h **** 
 149:../Middlewares/threadx/ports/cortex_m55/gnu/inc/tx_port.h **** /* Services without error checking.  */
 150:../Middlewares/threadx/ports/cortex_m55/gnu/inc/tx_port.h **** 
 151:../Middlewares/threadx/ports/cortex_m55/gnu/inc/tx_port.h **** #define tx_thread_secure_stack_allocate   _tx_thread_secure_stack_allocate
 152:../Middlewares/threadx/ports/cortex_m55/gnu/inc/tx_port.h **** #define tx_thread_secure_stack_free       _tx_thread_secure_stack_free
 153:../Middlewares/threadx/ports/cortex_m55/gnu/inc/tx_port.h **** 
 154:../Middlewares/threadx/ports/cortex_m55/gnu/inc/tx_port.h **** #else
 155:../Middlewares/threadx/ports/cortex_m55/gnu/inc/tx_port.h **** 
 156:../Middlewares/threadx/ports/cortex_m55/gnu/inc/tx_port.h **** /* Services with error checking.  */
 157:../Middlewares/threadx/ports/cortex_m55/gnu/inc/tx_port.h **** 
 158:../Middlewares/threadx/ports/cortex_m55/gnu/inc/tx_port.h **** #define tx_thread_secure_stack_allocate   _txe_thread_secure_stack_allocate
 159:../Middlewares/threadx/ports/cortex_m55/gnu/inc/tx_port.h **** #define tx_thread_secure_stack_free       _txe_thread_secure_stack_free
 160:../Middlewares/threadx/ports/cortex_m55/gnu/inc/tx_port.h **** 
 161:../Middlewares/threadx/ports/cortex_m55/gnu/inc/tx_port.h **** #endif  /* TX_DISABLE_ERROR_CHECKING */
 162:../Middlewares/threadx/ports/cortex_m55/gnu/inc/tx_port.h **** #endif  /* TX_SOURCE_CODE */
 163:../Middlewares/threadx/ports/cortex_m55/gnu/inc/tx_port.h **** 
 164:../Middlewares/threadx/ports/cortex_m55/gnu/inc/tx_port.h **** /* This port has a usage fault handler in _tx_initialize_low_level for stack exceptions.  */
 165:../Middlewares/threadx/ports/cortex_m55/gnu/inc/tx_port.h **** #define TX_PORT_THREAD_STACK_ERROR_HANDLING
 166:../Middlewares/threadx/ports/cortex_m55/gnu/inc/tx_port.h **** 
 167:../Middlewares/threadx/ports/cortex_m55/gnu/inc/tx_port.h **** /* Define the priority levels for ThreadX.  Legal values range
 168:../Middlewares/threadx/ports/cortex_m55/gnu/inc/tx_port.h ****    from 32 to 1024 and MUST be evenly divisible by 32.  */
 169:../Middlewares/threadx/ports/cortex_m55/gnu/inc/tx_port.h **** 
 170:../Middlewares/threadx/ports/cortex_m55/gnu/inc/tx_port.h **** #ifndef TX_MAX_PRIORITIES
 171:../Middlewares/threadx/ports/cortex_m55/gnu/inc/tx_port.h **** #define TX_MAX_PRIORITIES                       32
 172:../Middlewares/threadx/ports/cortex_m55/gnu/inc/tx_port.h **** #endif
 173:../Middlewares/threadx/ports/cortex_m55/gnu/inc/tx_port.h **** 
 174:../Middlewares/threadx/ports/cortex_m55/gnu/inc/tx_port.h **** 
 175:../Middlewares/threadx/ports/cortex_m55/gnu/inc/tx_port.h **** /* Define the minimum stack for a ThreadX thread on this processor. If the size supplied during
 176:../Middlewares/threadx/ports/cortex_m55/gnu/inc/tx_port.h ****    thread creation is less than this value, the thread create call will return an error.  */
 177:../Middlewares/threadx/ports/cortex_m55/gnu/inc/tx_port.h **** 
ARM GAS  /tmp/ccNroJea.s 			page 7


 178:../Middlewares/threadx/ports/cortex_m55/gnu/inc/tx_port.h **** #ifndef TX_MINIMUM_STACK
 179:../Middlewares/threadx/ports/cortex_m55/gnu/inc/tx_port.h **** #define TX_MINIMUM_STACK                        200         /* Minimum stack size for this port  */
 180:../Middlewares/threadx/ports/cortex_m55/gnu/inc/tx_port.h **** #endif
 181:../Middlewares/threadx/ports/cortex_m55/gnu/inc/tx_port.h **** 
 182:../Middlewares/threadx/ports/cortex_m55/gnu/inc/tx_port.h **** 
 183:../Middlewares/threadx/ports/cortex_m55/gnu/inc/tx_port.h **** /* Define the system timer thread's default stack size and priority.  These are only applicable
 184:../Middlewares/threadx/ports/cortex_m55/gnu/inc/tx_port.h ****    if TX_TIMER_PROCESS_IN_ISR is not defined.  */
 185:../Middlewares/threadx/ports/cortex_m55/gnu/inc/tx_port.h **** 
 186:../Middlewares/threadx/ports/cortex_m55/gnu/inc/tx_port.h **** #ifndef TX_TIMER_THREAD_STACK_SIZE
 187:../Middlewares/threadx/ports/cortex_m55/gnu/inc/tx_port.h **** #define TX_TIMER_THREAD_STACK_SIZE              1024        /* Default timer thread stack size  */
 188:../Middlewares/threadx/ports/cortex_m55/gnu/inc/tx_port.h **** #endif
 189:../Middlewares/threadx/ports/cortex_m55/gnu/inc/tx_port.h **** 
 190:../Middlewares/threadx/ports/cortex_m55/gnu/inc/tx_port.h **** #ifndef TX_TIMER_THREAD_PRIORITY
 191:../Middlewares/threadx/ports/cortex_m55/gnu/inc/tx_port.h **** #define TX_TIMER_THREAD_PRIORITY                0           /* Default timer thread priority    */
 192:../Middlewares/threadx/ports/cortex_m55/gnu/inc/tx_port.h **** #endif
 193:../Middlewares/threadx/ports/cortex_m55/gnu/inc/tx_port.h **** 
 194:../Middlewares/threadx/ports/cortex_m55/gnu/inc/tx_port.h **** /* By default, ThreadX for Cortex-M uses the PRIMASK register to enable/disable interrupts.
 195:../Middlewares/threadx/ports/cortex_m55/gnu/inc/tx_port.h **** If using BASEPRI is desired, define the following two symbols for both c and assembly files:
 196:../Middlewares/threadx/ports/cortex_m55/gnu/inc/tx_port.h **** TX_PORT_USE_BASEPRI - This tells ThreadX to use BASEPRI instead of PRIMASK.
 197:../Middlewares/threadx/ports/cortex_m55/gnu/inc/tx_port.h **** TX_PORT_BASEPRI = (priority_mask << (8 - number_priority_bits)) - this defines the maximum priority
 198:../Middlewares/threadx/ports/cortex_m55/gnu/inc/tx_port.h **** Any interrupt with a higher priority than priority_mask will not be masked, thus the interrupt will
 199:../Middlewares/threadx/ports/cortex_m55/gnu/inc/tx_port.h **** */
 200:../Middlewares/threadx/ports/cortex_m55/gnu/inc/tx_port.h **** 
 201:../Middlewares/threadx/ports/cortex_m55/gnu/inc/tx_port.h **** /* Define various constants for the ThreadX Cortex-M port.  */
 202:../Middlewares/threadx/ports/cortex_m55/gnu/inc/tx_port.h **** 
 203:../Middlewares/threadx/ports/cortex_m55/gnu/inc/tx_port.h **** #define TX_INT_DISABLE                          1           /* Disable interrupts               */
 204:../Middlewares/threadx/ports/cortex_m55/gnu/inc/tx_port.h **** #define TX_INT_ENABLE                           0           /* Enable interrupts                */
 205:../Middlewares/threadx/ports/cortex_m55/gnu/inc/tx_port.h **** 
 206:../Middlewares/threadx/ports/cortex_m55/gnu/inc/tx_port.h **** 
 207:../Middlewares/threadx/ports/cortex_m55/gnu/inc/tx_port.h **** /* Define the clock source for trace event entry time stamp. The following two item are port specif
 208:../Middlewares/threadx/ports/cortex_m55/gnu/inc/tx_port.h ****    For example, if the time source is at the address 0x0a800024 and is 16-bits in size, the clock
 209:../Middlewares/threadx/ports/cortex_m55/gnu/inc/tx_port.h ****    source constants would be:
 210:../Middlewares/threadx/ports/cortex_m55/gnu/inc/tx_port.h **** 
 211:../Middlewares/threadx/ports/cortex_m55/gnu/inc/tx_port.h **** #define TX_TRACE_TIME_SOURCE                    *((volatile ULONG *) 0x0a800024)
 212:../Middlewares/threadx/ports/cortex_m55/gnu/inc/tx_port.h **** #define TX_TRACE_TIME_MASK                      0x0000FFFFUL
 213:../Middlewares/threadx/ports/cortex_m55/gnu/inc/tx_port.h **** 
 214:../Middlewares/threadx/ports/cortex_m55/gnu/inc/tx_port.h **** */
 215:../Middlewares/threadx/ports/cortex_m55/gnu/inc/tx_port.h **** 
 216:../Middlewares/threadx/ports/cortex_m55/gnu/inc/tx_port.h **** #ifndef TX_MISRA_ENABLE
 217:../Middlewares/threadx/ports/cortex_m55/gnu/inc/tx_port.h **** #ifndef TX_TRACE_TIME_SOURCE
 218:../Middlewares/threadx/ports/cortex_m55/gnu/inc/tx_port.h **** #define TX_TRACE_TIME_SOURCE                    *((volatile ULONG *) 0xE0001004)
 219:../Middlewares/threadx/ports/cortex_m55/gnu/inc/tx_port.h **** #endif
 220:../Middlewares/threadx/ports/cortex_m55/gnu/inc/tx_port.h **** #else
 221:../Middlewares/threadx/ports/cortex_m55/gnu/inc/tx_port.h **** ULONG   _tx_misra_time_stamp_get(VOID);
 222:../Middlewares/threadx/ports/cortex_m55/gnu/inc/tx_port.h **** #define TX_TRACE_TIME_SOURCE                    _tx_misra_time_stamp_get()
 223:../Middlewares/threadx/ports/cortex_m55/gnu/inc/tx_port.h **** #endif
 224:../Middlewares/threadx/ports/cortex_m55/gnu/inc/tx_port.h **** 
 225:../Middlewares/threadx/ports/cortex_m55/gnu/inc/tx_port.h **** #ifndef TX_TRACE_TIME_MASK
 226:../Middlewares/threadx/ports/cortex_m55/gnu/inc/tx_port.h **** #define TX_TRACE_TIME_MASK                      0xFFFFFFFFUL
 227:../Middlewares/threadx/ports/cortex_m55/gnu/inc/tx_port.h **** #endif
 228:../Middlewares/threadx/ports/cortex_m55/gnu/inc/tx_port.h **** 
 229:../Middlewares/threadx/ports/cortex_m55/gnu/inc/tx_port.h **** 
 230:../Middlewares/threadx/ports/cortex_m55/gnu/inc/tx_port.h **** /* Define the port specific options for the _tx_build_options variable. This variable indicates
 231:../Middlewares/threadx/ports/cortex_m55/gnu/inc/tx_port.h ****    how the ThreadX library was built.  */
 232:../Middlewares/threadx/ports/cortex_m55/gnu/inc/tx_port.h **** 
 233:../Middlewares/threadx/ports/cortex_m55/gnu/inc/tx_port.h **** #define TX_PORT_SPECIFIC_BUILD_OPTIONS          (0)
 234:../Middlewares/threadx/ports/cortex_m55/gnu/inc/tx_port.h **** 
ARM GAS  /tmp/ccNroJea.s 			page 8


 235:../Middlewares/threadx/ports/cortex_m55/gnu/inc/tx_port.h **** 
 236:../Middlewares/threadx/ports/cortex_m55/gnu/inc/tx_port.h **** /* Define the in-line initialization constant so that modules with in-line
 237:../Middlewares/threadx/ports/cortex_m55/gnu/inc/tx_port.h ****    initialization capabilities can prevent their initialization from being
 238:../Middlewares/threadx/ports/cortex_m55/gnu/inc/tx_port.h ****    a function call.  */
 239:../Middlewares/threadx/ports/cortex_m55/gnu/inc/tx_port.h **** 
 240:../Middlewares/threadx/ports/cortex_m55/gnu/inc/tx_port.h **** #ifdef TX_MISRA_ENABLE
 241:../Middlewares/threadx/ports/cortex_m55/gnu/inc/tx_port.h **** #define TX_DISABLE_INLINE
 242:../Middlewares/threadx/ports/cortex_m55/gnu/inc/tx_port.h **** #else
 243:../Middlewares/threadx/ports/cortex_m55/gnu/inc/tx_port.h **** #define TX_INLINE_INITIALIZATION
 244:../Middlewares/threadx/ports/cortex_m55/gnu/inc/tx_port.h **** #endif
 245:../Middlewares/threadx/ports/cortex_m55/gnu/inc/tx_port.h **** 
 246:../Middlewares/threadx/ports/cortex_m55/gnu/inc/tx_port.h **** 
 247:../Middlewares/threadx/ports/cortex_m55/gnu/inc/tx_port.h **** /* Determine whether or not stack checking is enabled. By default, ThreadX stack checking is
 248:../Middlewares/threadx/ports/cortex_m55/gnu/inc/tx_port.h ****    disabled. When the following is defined, ThreadX thread stack checking is enabled.  If stack
 249:../Middlewares/threadx/ports/cortex_m55/gnu/inc/tx_port.h ****    checking is enabled (TX_ENABLE_STACK_CHECKING is defined), the TX_DISABLE_STACK_FILLING
 250:../Middlewares/threadx/ports/cortex_m55/gnu/inc/tx_port.h ****    define is negated, thereby forcing the stack fill which is necessary for the stack checking
 251:../Middlewares/threadx/ports/cortex_m55/gnu/inc/tx_port.h ****    logic.  */
 252:../Middlewares/threadx/ports/cortex_m55/gnu/inc/tx_port.h **** 
 253:../Middlewares/threadx/ports/cortex_m55/gnu/inc/tx_port.h **** #ifndef TX_MISRA_ENABLE
 254:../Middlewares/threadx/ports/cortex_m55/gnu/inc/tx_port.h **** #ifdef TX_ENABLE_STACK_CHECKING
 255:../Middlewares/threadx/ports/cortex_m55/gnu/inc/tx_port.h **** #undef TX_DISABLE_STACK_FILLING
 256:../Middlewares/threadx/ports/cortex_m55/gnu/inc/tx_port.h **** #endif
 257:../Middlewares/threadx/ports/cortex_m55/gnu/inc/tx_port.h **** #endif
 258:../Middlewares/threadx/ports/cortex_m55/gnu/inc/tx_port.h **** 
 259:../Middlewares/threadx/ports/cortex_m55/gnu/inc/tx_port.h **** 
 260:../Middlewares/threadx/ports/cortex_m55/gnu/inc/tx_port.h **** /* Define the TX_THREAD control block extensions for this port. The main reason
 261:../Middlewares/threadx/ports/cortex_m55/gnu/inc/tx_port.h ****    for the multiple macros is so that backward compatibility can be maintained with
 262:../Middlewares/threadx/ports/cortex_m55/gnu/inc/tx_port.h ****    existing ThreadX kernel awareness modules.  */
 263:../Middlewares/threadx/ports/cortex_m55/gnu/inc/tx_port.h **** 
 264:../Middlewares/threadx/ports/cortex_m55/gnu/inc/tx_port.h **** #define TX_THREAD_EXTENSION_0
 265:../Middlewares/threadx/ports/cortex_m55/gnu/inc/tx_port.h **** #define TX_THREAD_EXTENSION_1
 266:../Middlewares/threadx/ports/cortex_m55/gnu/inc/tx_port.h **** 
 267:../Middlewares/threadx/ports/cortex_m55/gnu/inc/tx_port.h **** #ifdef  TX_ENABLE_IAR_LIBRARY_SUPPORT
 268:../Middlewares/threadx/ports/cortex_m55/gnu/inc/tx_port.h **** /* IAR library support */
 269:../Middlewares/threadx/ports/cortex_m55/gnu/inc/tx_port.h **** #if !defined(TX_SINGLE_MODE_SECURE) && !defined(TX_SINGLE_MODE_NON_SECURE)
 270:../Middlewares/threadx/ports/cortex_m55/gnu/inc/tx_port.h **** /* ThreadX in non-secure zone with calls to secure zone. */
 271:../Middlewares/threadx/ports/cortex_m55/gnu/inc/tx_port.h **** #define TX_THREAD_EXTENSION_2           VOID    *tx_thread_secure_stack_context;    \
 272:../Middlewares/threadx/ports/cortex_m55/gnu/inc/tx_port.h ****                                         VOID    *tx_thread_iar_tls_pointer;
 273:../Middlewares/threadx/ports/cortex_m55/gnu/inc/tx_port.h **** #else
 274:../Middlewares/threadx/ports/cortex_m55/gnu/inc/tx_port.h **** /* ThreadX in only one zone. */
 275:../Middlewares/threadx/ports/cortex_m55/gnu/inc/tx_port.h **** #define TX_THREAD_EXTENSION_2           VOID    *tx_thread_iar_tls_pointer;
 276:../Middlewares/threadx/ports/cortex_m55/gnu/inc/tx_port.h **** #endif
 277:../Middlewares/threadx/ports/cortex_m55/gnu/inc/tx_port.h **** 
 278:../Middlewares/threadx/ports/cortex_m55/gnu/inc/tx_port.h **** #else
 279:../Middlewares/threadx/ports/cortex_m55/gnu/inc/tx_port.h **** /* No IAR library support */
 280:../Middlewares/threadx/ports/cortex_m55/gnu/inc/tx_port.h **** #if !defined(TX_SINGLE_MODE_SECURE) && !defined(TX_SINGLE_MODE_NON_SECURE)
 281:../Middlewares/threadx/ports/cortex_m55/gnu/inc/tx_port.h **** /* ThreadX in non-secure zone with calls to secure zone. */
 282:../Middlewares/threadx/ports/cortex_m55/gnu/inc/tx_port.h **** #define TX_THREAD_EXTENSION_2           VOID    *tx_thread_secure_stack_context;
 283:../Middlewares/threadx/ports/cortex_m55/gnu/inc/tx_port.h **** #else
 284:../Middlewares/threadx/ports/cortex_m55/gnu/inc/tx_port.h **** /* ThreadX in only one zone. */
 285:../Middlewares/threadx/ports/cortex_m55/gnu/inc/tx_port.h **** #define TX_THREAD_EXTENSION_2
 286:../Middlewares/threadx/ports/cortex_m55/gnu/inc/tx_port.h **** #endif
 287:../Middlewares/threadx/ports/cortex_m55/gnu/inc/tx_port.h **** 
 288:../Middlewares/threadx/ports/cortex_m55/gnu/inc/tx_port.h **** #endif  /* TX_ENABLE_IAR_LIBRARY_SUPPORT */
 289:../Middlewares/threadx/ports/cortex_m55/gnu/inc/tx_port.h **** 
 290:../Middlewares/threadx/ports/cortex_m55/gnu/inc/tx_port.h **** #define TX_THREAD_EXTENSION_3
 291:../Middlewares/threadx/ports/cortex_m55/gnu/inc/tx_port.h **** 
ARM GAS  /tmp/ccNroJea.s 			page 9


 292:../Middlewares/threadx/ports/cortex_m55/gnu/inc/tx_port.h **** 
 293:../Middlewares/threadx/ports/cortex_m55/gnu/inc/tx_port.h **** /* Define the port extensions of the remaining ThreadX objects.  */
 294:../Middlewares/threadx/ports/cortex_m55/gnu/inc/tx_port.h **** 
 295:../Middlewares/threadx/ports/cortex_m55/gnu/inc/tx_port.h **** #define TX_BLOCK_POOL_EXTENSION
 296:../Middlewares/threadx/ports/cortex_m55/gnu/inc/tx_port.h **** #define TX_BYTE_POOL_EXTENSION
 297:../Middlewares/threadx/ports/cortex_m55/gnu/inc/tx_port.h **** #define TX_EVENT_FLAGS_GROUP_EXTENSION
 298:../Middlewares/threadx/ports/cortex_m55/gnu/inc/tx_port.h **** #define TX_MUTEX_EXTENSION
 299:../Middlewares/threadx/ports/cortex_m55/gnu/inc/tx_port.h **** #define TX_QUEUE_EXTENSION
 300:../Middlewares/threadx/ports/cortex_m55/gnu/inc/tx_port.h **** #define TX_SEMAPHORE_EXTENSION
 301:../Middlewares/threadx/ports/cortex_m55/gnu/inc/tx_port.h **** #define TX_TIMER_EXTENSION
 302:../Middlewares/threadx/ports/cortex_m55/gnu/inc/tx_port.h **** 
 303:../Middlewares/threadx/ports/cortex_m55/gnu/inc/tx_port.h **** 
 304:../Middlewares/threadx/ports/cortex_m55/gnu/inc/tx_port.h **** /* Define the user extension field of the thread control block.  Nothing
 305:../Middlewares/threadx/ports/cortex_m55/gnu/inc/tx_port.h ****    additional is needed for this port so it is defined as white space.  */
 306:../Middlewares/threadx/ports/cortex_m55/gnu/inc/tx_port.h **** 
 307:../Middlewares/threadx/ports/cortex_m55/gnu/inc/tx_port.h **** #ifndef TX_THREAD_USER_EXTENSION
 308:../Middlewares/threadx/ports/cortex_m55/gnu/inc/tx_port.h **** #define TX_THREAD_USER_EXTENSION
 309:../Middlewares/threadx/ports/cortex_m55/gnu/inc/tx_port.h **** #endif
 310:../Middlewares/threadx/ports/cortex_m55/gnu/inc/tx_port.h **** 
 311:../Middlewares/threadx/ports/cortex_m55/gnu/inc/tx_port.h **** 
 312:../Middlewares/threadx/ports/cortex_m55/gnu/inc/tx_port.h **** /* Define the macros for processing extensions in tx_thread_create, tx_thread_delete,
 313:../Middlewares/threadx/ports/cortex_m55/gnu/inc/tx_port.h ****    tx_thread_shell_entry, and tx_thread_terminate.  */
 314:../Middlewares/threadx/ports/cortex_m55/gnu/inc/tx_port.h **** #ifdef  TX_ENABLE_IAR_LIBRARY_SUPPORT
 315:../Middlewares/threadx/ports/cortex_m55/gnu/inc/tx_port.h **** void    *_tx_iar_create_per_thread_tls_area(void);
 316:../Middlewares/threadx/ports/cortex_m55/gnu/inc/tx_port.h **** void    _tx_iar_destroy_per_thread_tls_area(void *tls_ptr);
 317:../Middlewares/threadx/ports/cortex_m55/gnu/inc/tx_port.h **** void    __iar_Initlocks(void);
 318:../Middlewares/threadx/ports/cortex_m55/gnu/inc/tx_port.h **** #define TX_THREAD_CREATE_EXTENSION(thread_ptr)                      thread_ptr -> tx_thread_iar_tls
 319:../Middlewares/threadx/ports/cortex_m55/gnu/inc/tx_port.h **** 
 320:../Middlewares/threadx/ports/cortex_m55/gnu/inc/tx_port.h **** #if !defined(TX_SINGLE_MODE_SECURE) && !defined(TX_SINGLE_MODE_NON_SECURE)
 321:../Middlewares/threadx/ports/cortex_m55/gnu/inc/tx_port.h **** #define TX_THREAD_DELETE_EXTENSION(thread_ptr)                      do {_tx_iar_destroy_per_thread_
 322:../Middlewares/threadx/ports/cortex_m55/gnu/inc/tx_port.h ****                                                                         thread_ptr -> tx_thread_iar
 323:../Middlewares/threadx/ports/cortex_m55/gnu/inc/tx_port.h ****                                                                     if(thread_ptr -> tx_thread_secu
 324:../Middlewares/threadx/ports/cortex_m55/gnu/inc/tx_port.h **** #else
 325:../Middlewares/threadx/ports/cortex_m55/gnu/inc/tx_port.h **** #define TX_THREAD_DELETE_EXTENSION(thread_ptr)                      do {_tx_iar_destroy_per_thread_
 326:../Middlewares/threadx/ports/cortex_m55/gnu/inc/tx_port.h ****                                                                         thread_ptr -> tx_thread_iar
 327:../Middlewares/threadx/ports/cortex_m55/gnu/inc/tx_port.h **** #endif
 328:../Middlewares/threadx/ports/cortex_m55/gnu/inc/tx_port.h **** #define TX_PORT_SPECIFIC_PRE_SCHEDULER_INITIALIZATION               do {__iar_Initlocks();} while(0
 329:../Middlewares/threadx/ports/cortex_m55/gnu/inc/tx_port.h **** 
 330:../Middlewares/threadx/ports/cortex_m55/gnu/inc/tx_port.h **** #else   /* No IAR library support. */
 331:../Middlewares/threadx/ports/cortex_m55/gnu/inc/tx_port.h **** #define TX_THREAD_CREATE_EXTENSION(thread_ptr)
 332:../Middlewares/threadx/ports/cortex_m55/gnu/inc/tx_port.h **** #if !defined(TX_SINGLE_MODE_SECURE) && !defined(TX_SINGLE_MODE_NON_SECURE)
 333:../Middlewares/threadx/ports/cortex_m55/gnu/inc/tx_port.h **** #define TX_THREAD_DELETE_EXTENSION(thread_ptr)                      if(thread_ptr -> tx_thread_secu
 334:../Middlewares/threadx/ports/cortex_m55/gnu/inc/tx_port.h **** #else
 335:../Middlewares/threadx/ports/cortex_m55/gnu/inc/tx_port.h **** #define TX_THREAD_DELETE_EXTENSION(thread_ptr)
 336:../Middlewares/threadx/ports/cortex_m55/gnu/inc/tx_port.h **** #endif
 337:../Middlewares/threadx/ports/cortex_m55/gnu/inc/tx_port.h **** #endif  /* TX_ENABLE_IAR_LIBRARY_SUPPORT */
 338:../Middlewares/threadx/ports/cortex_m55/gnu/inc/tx_port.h **** 
 339:../Middlewares/threadx/ports/cortex_m55/gnu/inc/tx_port.h **** #if !defined(TX_SINGLE_MODE_SECURE) && !defined(TX_SINGLE_MODE_NON_SECURE)
 340:../Middlewares/threadx/ports/cortex_m55/gnu/inc/tx_port.h **** /* Define the size of the secure stack for the timer thread and use the extension to allocate the s
 341:../Middlewares/threadx/ports/cortex_m55/gnu/inc/tx_port.h **** #define TX_TIMER_THREAD_SECURE_STACK_SIZE       256
 342:../Middlewares/threadx/ports/cortex_m55/gnu/inc/tx_port.h **** #define TX_TIMER_INITIALIZE_EXTENSION(status)   _tx_thread_secure_stack_allocate(&_tx_timer_thread,
 343:../Middlewares/threadx/ports/cortex_m55/gnu/inc/tx_port.h **** #endif
 344:../Middlewares/threadx/ports/cortex_m55/gnu/inc/tx_port.h **** 
 345:../Middlewares/threadx/ports/cortex_m55/gnu/inc/tx_port.h **** 
 346:../Middlewares/threadx/ports/cortex_m55/gnu/inc/tx_port.h **** #if defined(__ARMVFP__) || defined(__ARM_PCS_VFP) || defined(__ARM_FP) || defined(__TARGET_FPU_VFP)
 347:../Middlewares/threadx/ports/cortex_m55/gnu/inc/tx_port.h **** 
 348:../Middlewares/threadx/ports/cortex_m55/gnu/inc/tx_port.h **** #ifdef TX_MISRA_ENABLE
ARM GAS  /tmp/ccNroJea.s 			page 10


 349:../Middlewares/threadx/ports/cortex_m55/gnu/inc/tx_port.h **** 
 350:../Middlewares/threadx/ports/cortex_m55/gnu/inc/tx_port.h **** ULONG  _tx_misra_control_get(void);
 351:../Middlewares/threadx/ports/cortex_m55/gnu/inc/tx_port.h **** void   _tx_misra_control_set(ULONG value);
 352:../Middlewares/threadx/ports/cortex_m55/gnu/inc/tx_port.h **** ULONG  _tx_misra_fpccr_get(void);
 353:../Middlewares/threadx/ports/cortex_m55/gnu/inc/tx_port.h **** void   _tx_misra_vfp_touch(void);
 354:../Middlewares/threadx/ports/cortex_m55/gnu/inc/tx_port.h **** 
 355:../Middlewares/threadx/ports/cortex_m55/gnu/inc/tx_port.h **** #else   /* TX_MISRA_ENABLE not defined */
 356:../Middlewares/threadx/ports/cortex_m55/gnu/inc/tx_port.h **** 
 357:../Middlewares/threadx/ports/cortex_m55/gnu/inc/tx_port.h **** #ifdef __GNUC__ /* GCC and ARM Compiler 6 */
 358:../Middlewares/threadx/ports/cortex_m55/gnu/inc/tx_port.h **** 
 359:../Middlewares/threadx/ports/cortex_m55/gnu/inc/tx_port.h **** __attribute__( ( always_inline ) ) static inline ULONG _tx_control_get(void)
 360:../Middlewares/threadx/ports/cortex_m55/gnu/inc/tx_port.h **** {
 361:../Middlewares/threadx/ports/cortex_m55/gnu/inc/tx_port.h **** ULONG  control_value;
 362:../Middlewares/threadx/ports/cortex_m55/gnu/inc/tx_port.h **** 
 363:../Middlewares/threadx/ports/cortex_m55/gnu/inc/tx_port.h ****     __asm__ volatile (" MRS  %0,CONTROL ": "=r" (control_value) );
 364:../Middlewares/threadx/ports/cortex_m55/gnu/inc/tx_port.h ****     return(control_value);
 365:../Middlewares/threadx/ports/cortex_m55/gnu/inc/tx_port.h **** }
 366:../Middlewares/threadx/ports/cortex_m55/gnu/inc/tx_port.h **** 
 367:../Middlewares/threadx/ports/cortex_m55/gnu/inc/tx_port.h **** __attribute__( ( always_inline ) ) static inline void _tx_control_set(ULONG control_value)
 368:../Middlewares/threadx/ports/cortex_m55/gnu/inc/tx_port.h **** {
 369:../Middlewares/threadx/ports/cortex_m55/gnu/inc/tx_port.h ****     __asm__ volatile (" MSR  CONTROL,%0": : "r" (control_value): "memory" );
 370:../Middlewares/threadx/ports/cortex_m55/gnu/inc/tx_port.h **** }
 371:../Middlewares/threadx/ports/cortex_m55/gnu/inc/tx_port.h **** 
 372:../Middlewares/threadx/ports/cortex_m55/gnu/inc/tx_port.h **** #endif  /* __GNUC__ */
 373:../Middlewares/threadx/ports/cortex_m55/gnu/inc/tx_port.h **** 
 374:../Middlewares/threadx/ports/cortex_m55/gnu/inc/tx_port.h **** /* Touch VFP register in order to flush. Works for AC6/GCC/IAR compilers. */
 375:../Middlewares/threadx/ports/cortex_m55/gnu/inc/tx_port.h **** #define TX_VFP_TOUCH()  __asm__ volatile ("VMOV.F32 s0, s0");
 376:../Middlewares/threadx/ports/cortex_m55/gnu/inc/tx_port.h **** 
 377:../Middlewares/threadx/ports/cortex_m55/gnu/inc/tx_port.h **** #endif  /* TX_MISRA_ENABLE */
 378:../Middlewares/threadx/ports/cortex_m55/gnu/inc/tx_port.h **** 
 379:../Middlewares/threadx/ports/cortex_m55/gnu/inc/tx_port.h **** /* A completed thread falls into _thread_shell_entry and we can simply deactivate the FPU via CONTR
 380:../Middlewares/threadx/ports/cortex_m55/gnu/inc/tx_port.h ****    in order to ensure no lazy stacking will occur. */
 381:../Middlewares/threadx/ports/cortex_m55/gnu/inc/tx_port.h **** 
 382:../Middlewares/threadx/ports/cortex_m55/gnu/inc/tx_port.h **** #ifndef TX_MISRA_ENABLE
 383:../Middlewares/threadx/ports/cortex_m55/gnu/inc/tx_port.h **** 
 384:../Middlewares/threadx/ports/cortex_m55/gnu/inc/tx_port.h **** #define TX_THREAD_COMPLETED_EXTENSION(thread_ptr)   {                                              
 385:../Middlewares/threadx/ports/cortex_m55/gnu/inc/tx_port.h ****                                                     ULONG  _tx_vfp_state;                          
 386:../Middlewares/threadx/ports/cortex_m55/gnu/inc/tx_port.h ****                                                         _tx_vfp_state = _tx_control_get();         
 387:../Middlewares/threadx/ports/cortex_m55/gnu/inc/tx_port.h ****                                                         _tx_vfp_state = _tx_vfp_state & ~((ULONG) 0
 388:../Middlewares/threadx/ports/cortex_m55/gnu/inc/tx_port.h ****                                                         _tx_control_set(_tx_vfp_state);            
 389:../Middlewares/threadx/ports/cortex_m55/gnu/inc/tx_port.h ****                                                     }
 390:../Middlewares/threadx/ports/cortex_m55/gnu/inc/tx_port.h **** #else
 391:../Middlewares/threadx/ports/cortex_m55/gnu/inc/tx_port.h **** 
 392:../Middlewares/threadx/ports/cortex_m55/gnu/inc/tx_port.h **** #define TX_THREAD_COMPLETED_EXTENSION(thread_ptr)   {                                              
 393:../Middlewares/threadx/ports/cortex_m55/gnu/inc/tx_port.h ****                                                     ULONG  _tx_vfp_state;                          
 394:../Middlewares/threadx/ports/cortex_m55/gnu/inc/tx_port.h ****                                                         _tx_vfp_state = _tx_misra_control_get();   
 395:../Middlewares/threadx/ports/cortex_m55/gnu/inc/tx_port.h ****                                                         _tx_vfp_state = _tx_vfp_state & ~((ULONG) 0
 396:../Middlewares/threadx/ports/cortex_m55/gnu/inc/tx_port.h ****                                                         _tx_misra_control_set(_tx_vfp_state);      
 397:../Middlewares/threadx/ports/cortex_m55/gnu/inc/tx_port.h ****                                                     }
 398:../Middlewares/threadx/ports/cortex_m55/gnu/inc/tx_port.h **** #endif
 399:../Middlewares/threadx/ports/cortex_m55/gnu/inc/tx_port.h **** 
 400:../Middlewares/threadx/ports/cortex_m55/gnu/inc/tx_port.h **** /* A thread can be terminated by another thread, so we first check if it's self-terminating and not
 401:../Middlewares/threadx/ports/cortex_m55/gnu/inc/tx_port.h ****    If so, deactivate the FPU via CONTROL.FPCA. Otherwise we are in an interrupt or another thread i
 402:../Middlewares/threadx/ports/cortex_m55/gnu/inc/tx_port.h ****    this one, so if the FPCCR.LSPACT bit is set, we need to save the CONTROL.FPCA state, touch the F
 403:../Middlewares/threadx/ports/cortex_m55/gnu/inc/tx_port.h ****    the lazy FPU save, then restore the CONTROL.FPCA state. */
 404:../Middlewares/threadx/ports/cortex_m55/gnu/inc/tx_port.h **** 
 405:../Middlewares/threadx/ports/cortex_m55/gnu/inc/tx_port.h **** #ifndef TX_MISRA_ENABLE
ARM GAS  /tmp/ccNroJea.s 			page 11


 406:../Middlewares/threadx/ports/cortex_m55/gnu/inc/tx_port.h **** 
 407:../Middlewares/threadx/ports/cortex_m55/gnu/inc/tx_port.h **** #define TX_THREAD_TERMINATED_EXTENSION(thread_ptr)  {                                              
 408:../Middlewares/threadx/ports/cortex_m55/gnu/inc/tx_port.h ****                                                     ULONG  _tx_system_state;                       
 409:../Middlewares/threadx/ports/cortex_m55/gnu/inc/tx_port.h ****                                                         _tx_system_state = TX_THREAD_GET_SYSTEM_STA
 410:../Middlewares/threadx/ports/cortex_m55/gnu/inc/tx_port.h ****                                                         if ((_tx_system_state == ((ULONG) 0)) && ((
 411:../Middlewares/threadx/ports/cortex_m55/gnu/inc/tx_port.h ****                                                         {                                          
 412:../Middlewares/threadx/ports/cortex_m55/gnu/inc/tx_port.h ****                                                         ULONG  _tx_vfp_state;                      
 413:../Middlewares/threadx/ports/cortex_m55/gnu/inc/tx_port.h ****                                                             _tx_vfp_state = _tx_control_get();     
 414:../Middlewares/threadx/ports/cortex_m55/gnu/inc/tx_port.h ****                                                             _tx_vfp_state = _tx_vfp_state & ~((ULON
 415:../Middlewares/threadx/ports/cortex_m55/gnu/inc/tx_port.h ****                                                             _tx_control_set(_tx_vfp_state);        
 416:../Middlewares/threadx/ports/cortex_m55/gnu/inc/tx_port.h ****                                                         }                                          
 417:../Middlewares/threadx/ports/cortex_m55/gnu/inc/tx_port.h ****                                                         else                                       
 418:../Middlewares/threadx/ports/cortex_m55/gnu/inc/tx_port.h ****                                                         {                                          
 419:../Middlewares/threadx/ports/cortex_m55/gnu/inc/tx_port.h ****                                                         ULONG  _tx_fpccr;                          
 420:../Middlewares/threadx/ports/cortex_m55/gnu/inc/tx_port.h ****                                                             _tx_fpccr = *((volatile ULONG *) 0xE000
 421:../Middlewares/threadx/ports/cortex_m55/gnu/inc/tx_port.h ****                                                             _tx_fpccr = _tx_fpccr & ((ULONG) 0x01);
 422:../Middlewares/threadx/ports/cortex_m55/gnu/inc/tx_port.h ****                                                             if (_tx_fpccr == ((ULONG) 0x01))       
 423:../Middlewares/threadx/ports/cortex_m55/gnu/inc/tx_port.h ****                                                             {                                      
 424:../Middlewares/threadx/ports/cortex_m55/gnu/inc/tx_port.h ****                                                             ULONG _tx_vfp_state;                   
 425:../Middlewares/threadx/ports/cortex_m55/gnu/inc/tx_port.h ****                                                                 _tx_vfp_state = _tx_control_get(); 
 426:../Middlewares/threadx/ports/cortex_m55/gnu/inc/tx_port.h ****                                                                 _tx_vfp_state = _tx_vfp_state & ((U
 427:../Middlewares/threadx/ports/cortex_m55/gnu/inc/tx_port.h ****                                                                 TX_VFP_TOUCH();                    
 428:../Middlewares/threadx/ports/cortex_m55/gnu/inc/tx_port.h ****                                                                 if (_tx_vfp_state == ((ULONG) 0))  
 429:../Middlewares/threadx/ports/cortex_m55/gnu/inc/tx_port.h ****                                                                 {                                  
 430:../Middlewares/threadx/ports/cortex_m55/gnu/inc/tx_port.h ****                                                                     _tx_vfp_state = _tx_control_get
 431:../Middlewares/threadx/ports/cortex_m55/gnu/inc/tx_port.h ****                                                                     _tx_vfp_state = _tx_vfp_state &
 432:../Middlewares/threadx/ports/cortex_m55/gnu/inc/tx_port.h ****                                                                     _tx_control_set(_tx_vfp_state);
 433:../Middlewares/threadx/ports/cortex_m55/gnu/inc/tx_port.h ****                                                                 }                                  
 434:../Middlewares/threadx/ports/cortex_m55/gnu/inc/tx_port.h ****                                                             }                                      
 435:../Middlewares/threadx/ports/cortex_m55/gnu/inc/tx_port.h ****                                                         }                                          
 436:../Middlewares/threadx/ports/cortex_m55/gnu/inc/tx_port.h ****                                                     }
 437:../Middlewares/threadx/ports/cortex_m55/gnu/inc/tx_port.h **** #else
 438:../Middlewares/threadx/ports/cortex_m55/gnu/inc/tx_port.h **** 
 439:../Middlewares/threadx/ports/cortex_m55/gnu/inc/tx_port.h **** #define TX_THREAD_TERMINATED_EXTENSION(thread_ptr)  {                                              
 440:../Middlewares/threadx/ports/cortex_m55/gnu/inc/tx_port.h ****                                                     ULONG  _tx_system_state;                       
 441:../Middlewares/threadx/ports/cortex_m55/gnu/inc/tx_port.h ****                                                         _tx_system_state = TX_THREAD_GET_SYSTEM_STA
 442:../Middlewares/threadx/ports/cortex_m55/gnu/inc/tx_port.h ****                                                         if ((_tx_system_state == ((ULONG) 0)) && ((
 443:../Middlewares/threadx/ports/cortex_m55/gnu/inc/tx_port.h ****                                                         {                                          
 444:../Middlewares/threadx/ports/cortex_m55/gnu/inc/tx_port.h ****                                                         ULONG  _tx_vfp_state;                      
 445:../Middlewares/threadx/ports/cortex_m55/gnu/inc/tx_port.h ****                                                             _tx_vfp_state = _tx_misra_control_get()
 446:../Middlewares/threadx/ports/cortex_m55/gnu/inc/tx_port.h ****                                                             _tx_vfp_state = _tx_vfp_state & ~((ULON
 447:../Middlewares/threadx/ports/cortex_m55/gnu/inc/tx_port.h ****                                                             _tx_misra_control_set(_tx_vfp_state);  
 448:../Middlewares/threadx/ports/cortex_m55/gnu/inc/tx_port.h ****                                                         }                                          
 449:../Middlewares/threadx/ports/cortex_m55/gnu/inc/tx_port.h ****                                                         else                                       
 450:../Middlewares/threadx/ports/cortex_m55/gnu/inc/tx_port.h ****                                                         {                                          
 451:../Middlewares/threadx/ports/cortex_m55/gnu/inc/tx_port.h ****                                                         ULONG  _tx_fpccr;                          
 452:../Middlewares/threadx/ports/cortex_m55/gnu/inc/tx_port.h ****                                                             _tx_fpccr = _tx_misra_fpccr_get();     
 453:../Middlewares/threadx/ports/cortex_m55/gnu/inc/tx_port.h ****                                                             _tx_fpccr = _tx_fpccr & ((ULONG) 0x01);
 454:../Middlewares/threadx/ports/cortex_m55/gnu/inc/tx_port.h ****                                                             if (_tx_fpccr == ((ULONG) 0x01))       
 455:../Middlewares/threadx/ports/cortex_m55/gnu/inc/tx_port.h ****                                                             {                                      
 456:../Middlewares/threadx/ports/cortex_m55/gnu/inc/tx_port.h ****                                                             ULONG _tx_vfp_state;                   
 457:../Middlewares/threadx/ports/cortex_m55/gnu/inc/tx_port.h ****                                                                 _tx_vfp_state = _tx_misra_control_g
 458:../Middlewares/threadx/ports/cortex_m55/gnu/inc/tx_port.h ****                                                                 _tx_vfp_state = _tx_vfp_state & ((U
 459:../Middlewares/threadx/ports/cortex_m55/gnu/inc/tx_port.h ****                                                                 _tx_misra_vfp_touch();             
 460:../Middlewares/threadx/ports/cortex_m55/gnu/inc/tx_port.h ****                                                                 if (_tx_vfp_state == ((ULONG) 0))  
 461:../Middlewares/threadx/ports/cortex_m55/gnu/inc/tx_port.h ****                                                                 {                                  
 462:../Middlewares/threadx/ports/cortex_m55/gnu/inc/tx_port.h ****                                                                     _tx_vfp_state = _tx_misra_contr
ARM GAS  /tmp/ccNroJea.s 			page 12


 463:../Middlewares/threadx/ports/cortex_m55/gnu/inc/tx_port.h ****                                                                     _tx_vfp_state = _tx_vfp_state &
 464:../Middlewares/threadx/ports/cortex_m55/gnu/inc/tx_port.h ****                                                                     _tx_misra_control_set(_tx_vfp_s
 465:../Middlewares/threadx/ports/cortex_m55/gnu/inc/tx_port.h ****                                                                 }                                  
 466:../Middlewares/threadx/ports/cortex_m55/gnu/inc/tx_port.h ****                                                             }                                      
 467:../Middlewares/threadx/ports/cortex_m55/gnu/inc/tx_port.h ****                                                         }                                          
 468:../Middlewares/threadx/ports/cortex_m55/gnu/inc/tx_port.h ****                                                     }
 469:../Middlewares/threadx/ports/cortex_m55/gnu/inc/tx_port.h **** #endif
 470:../Middlewares/threadx/ports/cortex_m55/gnu/inc/tx_port.h **** 
 471:../Middlewares/threadx/ports/cortex_m55/gnu/inc/tx_port.h **** #else   /* No VFP in use */
 472:../Middlewares/threadx/ports/cortex_m55/gnu/inc/tx_port.h **** 
 473:../Middlewares/threadx/ports/cortex_m55/gnu/inc/tx_port.h **** #define TX_THREAD_COMPLETED_EXTENSION(thread_ptr)
 474:../Middlewares/threadx/ports/cortex_m55/gnu/inc/tx_port.h **** #define TX_THREAD_TERMINATED_EXTENSION(thread_ptr)
 475:../Middlewares/threadx/ports/cortex_m55/gnu/inc/tx_port.h **** 
 476:../Middlewares/threadx/ports/cortex_m55/gnu/inc/tx_port.h **** #endif  /* defined(__ARMVFP__) || defined(__ARM_PCS_VFP) || defined(__ARM_FP) || defined(__TARGET_F
 477:../Middlewares/threadx/ports/cortex_m55/gnu/inc/tx_port.h **** 
 478:../Middlewares/threadx/ports/cortex_m55/gnu/inc/tx_port.h **** 
 479:../Middlewares/threadx/ports/cortex_m55/gnu/inc/tx_port.h **** /* Define the ThreadX object creation extensions for the remaining objects.  */
 480:../Middlewares/threadx/ports/cortex_m55/gnu/inc/tx_port.h **** 
 481:../Middlewares/threadx/ports/cortex_m55/gnu/inc/tx_port.h **** #define TX_BLOCK_POOL_CREATE_EXTENSION(pool_ptr)
 482:../Middlewares/threadx/ports/cortex_m55/gnu/inc/tx_port.h **** #define TX_BYTE_POOL_CREATE_EXTENSION(pool_ptr)
 483:../Middlewares/threadx/ports/cortex_m55/gnu/inc/tx_port.h **** #define TX_EVENT_FLAGS_GROUP_CREATE_EXTENSION(group_ptr)
 484:../Middlewares/threadx/ports/cortex_m55/gnu/inc/tx_port.h **** #define TX_MUTEX_CREATE_EXTENSION(mutex_ptr)
 485:../Middlewares/threadx/ports/cortex_m55/gnu/inc/tx_port.h **** #define TX_QUEUE_CREATE_EXTENSION(queue_ptr)
 486:../Middlewares/threadx/ports/cortex_m55/gnu/inc/tx_port.h **** #define TX_SEMAPHORE_CREATE_EXTENSION(semaphore_ptr)
 487:../Middlewares/threadx/ports/cortex_m55/gnu/inc/tx_port.h **** #define TX_TIMER_CREATE_EXTENSION(timer_ptr)
 488:../Middlewares/threadx/ports/cortex_m55/gnu/inc/tx_port.h **** 
 489:../Middlewares/threadx/ports/cortex_m55/gnu/inc/tx_port.h **** 
 490:../Middlewares/threadx/ports/cortex_m55/gnu/inc/tx_port.h **** /* Define the ThreadX object deletion extensions for the remaining objects.  */
 491:../Middlewares/threadx/ports/cortex_m55/gnu/inc/tx_port.h **** 
 492:../Middlewares/threadx/ports/cortex_m55/gnu/inc/tx_port.h **** #define TX_BLOCK_POOL_DELETE_EXTENSION(pool_ptr)
 493:../Middlewares/threadx/ports/cortex_m55/gnu/inc/tx_port.h **** #define TX_BYTE_POOL_DELETE_EXTENSION(pool_ptr)
 494:../Middlewares/threadx/ports/cortex_m55/gnu/inc/tx_port.h **** #define TX_EVENT_FLAGS_GROUP_DELETE_EXTENSION(group_ptr)
 495:../Middlewares/threadx/ports/cortex_m55/gnu/inc/tx_port.h **** #define TX_MUTEX_DELETE_EXTENSION(mutex_ptr)
 496:../Middlewares/threadx/ports/cortex_m55/gnu/inc/tx_port.h **** #define TX_QUEUE_DELETE_EXTENSION(queue_ptr)
 497:../Middlewares/threadx/ports/cortex_m55/gnu/inc/tx_port.h **** #define TX_SEMAPHORE_DELETE_EXTENSION(semaphore_ptr)
 498:../Middlewares/threadx/ports/cortex_m55/gnu/inc/tx_port.h **** #define TX_TIMER_DELETE_EXTENSION(timer_ptr)
 499:../Middlewares/threadx/ports/cortex_m55/gnu/inc/tx_port.h **** 
 500:../Middlewares/threadx/ports/cortex_m55/gnu/inc/tx_port.h **** 
 501:../Middlewares/threadx/ports/cortex_m55/gnu/inc/tx_port.h **** /* Define the get system state macro.  */
 502:../Middlewares/threadx/ports/cortex_m55/gnu/inc/tx_port.h **** 
 503:../Middlewares/threadx/ports/cortex_m55/gnu/inc/tx_port.h **** #ifndef TX_THREAD_GET_SYSTEM_STATE
 504:../Middlewares/threadx/ports/cortex_m55/gnu/inc/tx_port.h **** #ifndef TX_MISRA_ENABLE
 505:../Middlewares/threadx/ports/cortex_m55/gnu/inc/tx_port.h **** 
 506:../Middlewares/threadx/ports/cortex_m55/gnu/inc/tx_port.h **** #if defined(__GNUC__) /* GCC and AC6 */
 507:../Middlewares/threadx/ports/cortex_m55/gnu/inc/tx_port.h **** __attribute__( ( always_inline ) ) static inline UINT _tx_ipsr_get(void)
 508:../Middlewares/threadx/ports/cortex_m55/gnu/inc/tx_port.h **** {
 509:../Middlewares/threadx/ports/cortex_m55/gnu/inc/tx_port.h **** UINT ipsr_value;
 510:../Middlewares/threadx/ports/cortex_m55/gnu/inc/tx_port.h ****     __asm__ volatile (" MRS  %0,IPSR ": "=r" (ipsr_value) );
 511:../Middlewares/threadx/ports/cortex_m55/gnu/inc/tx_port.h ****     return(ipsr_value);
 512:../Middlewares/threadx/ports/cortex_m55/gnu/inc/tx_port.h **** }
 513:../Middlewares/threadx/ports/cortex_m55/gnu/inc/tx_port.h **** #endif  /* GCC and AC6 IPSR_get function. */
 514:../Middlewares/threadx/ports/cortex_m55/gnu/inc/tx_port.h **** 
 515:../Middlewares/threadx/ports/cortex_m55/gnu/inc/tx_port.h **** #define TX_THREAD_GET_SYSTEM_STATE()        (_tx_thread_system_state | _tx_ipsr_get())
 516:../Middlewares/threadx/ports/cortex_m55/gnu/inc/tx_port.h **** 
 517:../Middlewares/threadx/ports/cortex_m55/gnu/inc/tx_port.h **** #else   /* TX_MISRA_ENABLE is defined, use MISRA function. */
 518:../Middlewares/threadx/ports/cortex_m55/gnu/inc/tx_port.h **** ULONG   _tx_misra_ipsr_get(VOID);
 519:../Middlewares/threadx/ports/cortex_m55/gnu/inc/tx_port.h **** #define TX_THREAD_GET_SYSTEM_STATE()        (_tx_thread_system_state | _tx_misra_ipsr_get())
ARM GAS  /tmp/ccNroJea.s 			page 13


 520:../Middlewares/threadx/ports/cortex_m55/gnu/inc/tx_port.h **** #endif  /* TX_MISRA_ENABLE */
 521:../Middlewares/threadx/ports/cortex_m55/gnu/inc/tx_port.h **** #endif  /* TX_THREAD_GET_SYSTEM_STATE */
 522:../Middlewares/threadx/ports/cortex_m55/gnu/inc/tx_port.h **** 
 523:../Middlewares/threadx/ports/cortex_m55/gnu/inc/tx_port.h **** 
 524:../Middlewares/threadx/ports/cortex_m55/gnu/inc/tx_port.h **** /* Define the check for whether or not to call the _tx_thread_system_return function.  A non-zero v
 525:../Middlewares/threadx/ports/cortex_m55/gnu/inc/tx_port.h ****    indicates that _tx_thread_system_return should not be called. This overrides the definition in t
 526:../Middlewares/threadx/ports/cortex_m55/gnu/inc/tx_port.h ****    for Cortex-M since so we don't waste time checking the _tx_thread_system_state variable that is 
 527:../Middlewares/threadx/ports/cortex_m55/gnu/inc/tx_port.h ****    zero after initialization for Cortex-M ports. */
 528:../Middlewares/threadx/ports/cortex_m55/gnu/inc/tx_port.h **** 
 529:../Middlewares/threadx/ports/cortex_m55/gnu/inc/tx_port.h **** #ifndef TX_THREAD_SYSTEM_RETURN_CHECK
 530:../Middlewares/threadx/ports/cortex_m55/gnu/inc/tx_port.h **** #define TX_THREAD_SYSTEM_RETURN_CHECK(c)    (c) = ((ULONG) _tx_thread_preempt_disable);
 531:../Middlewares/threadx/ports/cortex_m55/gnu/inc/tx_port.h **** #endif
 532:../Middlewares/threadx/ports/cortex_m55/gnu/inc/tx_port.h **** 
 533:../Middlewares/threadx/ports/cortex_m55/gnu/inc/tx_port.h **** #if !defined(TX_SINGLE_MODE_SECURE) && !defined(TX_SINGLE_MODE_NON_SECURE)
 534:../Middlewares/threadx/ports/cortex_m55/gnu/inc/tx_port.h **** /* Initialize secure stacks for threads calling secure functions. */
 535:../Middlewares/threadx/ports/cortex_m55/gnu/inc/tx_port.h **** extern void    _tx_thread_secure_stack_initialize(void);
 536:../Middlewares/threadx/ports/cortex_m55/gnu/inc/tx_port.h **** #define TX_PORT_SPECIFIC_PRE_INITIALIZATION             _tx_thread_secure_stack_initialize();
 537:../Middlewares/threadx/ports/cortex_m55/gnu/inc/tx_port.h **** #endif
 538:../Middlewares/threadx/ports/cortex_m55/gnu/inc/tx_port.h **** 
 539:../Middlewares/threadx/ports/cortex_m55/gnu/inc/tx_port.h **** /* Define the macro to ensure _tx_thread_preempt_disable is set early in initialization in order to
 540:../Middlewares/threadx/ports/cortex_m55/gnu/inc/tx_port.h ****    prevent early scheduling on Cortex-M parts.  */
 541:../Middlewares/threadx/ports/cortex_m55/gnu/inc/tx_port.h **** 
 542:../Middlewares/threadx/ports/cortex_m55/gnu/inc/tx_port.h **** #define TX_PORT_SPECIFIC_POST_INITIALIZATION    _tx_thread_preempt_disable++;
 543:../Middlewares/threadx/ports/cortex_m55/gnu/inc/tx_port.h **** 
 544:../Middlewares/threadx/ports/cortex_m55/gnu/inc/tx_port.h **** 
 545:../Middlewares/threadx/ports/cortex_m55/gnu/inc/tx_port.h **** 
 546:../Middlewares/threadx/ports/cortex_m55/gnu/inc/tx_port.h **** 
 547:../Middlewares/threadx/ports/cortex_m55/gnu/inc/tx_port.h **** #ifndef TX_DISABLE_INLINE
 548:../Middlewares/threadx/ports/cortex_m55/gnu/inc/tx_port.h **** 
 549:../Middlewares/threadx/ports/cortex_m55/gnu/inc/tx_port.h **** /* Define the TX_LOWEST_SET_BIT_CALCULATE macro for each compiler. */
 550:../Middlewares/threadx/ports/cortex_m55/gnu/inc/tx_port.h **** #ifdef __ICCARM__       /* IAR Compiler */
 551:../Middlewares/threadx/ports/cortex_m55/gnu/inc/tx_port.h **** #define TX_LOWEST_SET_BIT_CALCULATE(m, b)       (b) = (UINT) __CLZ(__RBIT((m)));
 552:../Middlewares/threadx/ports/cortex_m55/gnu/inc/tx_port.h **** #elif defined(__GNUC__) /* GCC and AC6 Compiler */
 553:../Middlewares/threadx/ports/cortex_m55/gnu/inc/tx_port.h **** #define TX_LOWEST_SET_BIT_CALCULATE(m, b)       __asm__ volatile (" RBIT %0,%1 ": "=r" (m) : "r" (m
 554:../Middlewares/threadx/ports/cortex_m55/gnu/inc/tx_port.h ****                                                 __asm__ volatile (" CLZ  %0,%1 ": "=r" (b) : "r" (m
 555:../Middlewares/threadx/ports/cortex_m55/gnu/inc/tx_port.h **** #else
 556:../Middlewares/threadx/ports/cortex_m55/gnu/inc/tx_port.h **** #error "Compiler not supported."
 557:../Middlewares/threadx/ports/cortex_m55/gnu/inc/tx_port.h **** #endif
 558:../Middlewares/threadx/ports/cortex_m55/gnu/inc/tx_port.h **** 
 559:../Middlewares/threadx/ports/cortex_m55/gnu/inc/tx_port.h **** 
 560:../Middlewares/threadx/ports/cortex_m55/gnu/inc/tx_port.h **** 
 561:../Middlewares/threadx/ports/cortex_m55/gnu/inc/tx_port.h **** /* Define the interrupt disable/restore macros. */
 562:../Middlewares/threadx/ports/cortex_m55/gnu/inc/tx_port.h **** 
 563:../Middlewares/threadx/ports/cortex_m55/gnu/inc/tx_port.h **** __attribute__( ( always_inline ) ) static inline UINT __get_interrupt_posture(void)
 564:../Middlewares/threadx/ports/cortex_m55/gnu/inc/tx_port.h **** {
 565:../Middlewares/threadx/ports/cortex_m55/gnu/inc/tx_port.h **** UINT posture;
 566:../Middlewares/threadx/ports/cortex_m55/gnu/inc/tx_port.h **** #ifdef TX_PORT_USE_BASEPRI
 567:../Middlewares/threadx/ports/cortex_m55/gnu/inc/tx_port.h ****     __asm__ volatile ("MRS  %0, BASEPRI ": "=r" (posture));
 568:../Middlewares/threadx/ports/cortex_m55/gnu/inc/tx_port.h **** #else
 569:../Middlewares/threadx/ports/cortex_m55/gnu/inc/tx_port.h ****     __asm__ volatile ("MRS  %0, PRIMASK ": "=r" (posture));
 570:../Middlewares/threadx/ports/cortex_m55/gnu/inc/tx_port.h **** #endif
 571:../Middlewares/threadx/ports/cortex_m55/gnu/inc/tx_port.h ****     return(posture);
 572:../Middlewares/threadx/ports/cortex_m55/gnu/inc/tx_port.h **** }
 573:../Middlewares/threadx/ports/cortex_m55/gnu/inc/tx_port.h **** 
 574:../Middlewares/threadx/ports/cortex_m55/gnu/inc/tx_port.h **** #ifdef TX_PORT_USE_BASEPRI
 575:../Middlewares/threadx/ports/cortex_m55/gnu/inc/tx_port.h **** __attribute__( ( always_inline ) ) static inline void __set_basepri_value(UINT basepri_value)
 576:../Middlewares/threadx/ports/cortex_m55/gnu/inc/tx_port.h **** {
ARM GAS  /tmp/ccNroJea.s 			page 14


 577:../Middlewares/threadx/ports/cortex_m55/gnu/inc/tx_port.h ****     __asm__ volatile ("MSR  BASEPRI,%0 ": : "r" (basepri_value));
 578:../Middlewares/threadx/ports/cortex_m55/gnu/inc/tx_port.h **** }
 579:../Middlewares/threadx/ports/cortex_m55/gnu/inc/tx_port.h **** #else
 580:../Middlewares/threadx/ports/cortex_m55/gnu/inc/tx_port.h **** __attribute__( ( always_inline ) ) static inline void __enable_interrupts(void)
 581:../Middlewares/threadx/ports/cortex_m55/gnu/inc/tx_port.h **** {
 582:../Middlewares/threadx/ports/cortex_m55/gnu/inc/tx_port.h ****     __asm__ volatile ("CPSIE  i": : : "memory");
 583:../Middlewares/threadx/ports/cortex_m55/gnu/inc/tx_port.h **** }
 584:../Middlewares/threadx/ports/cortex_m55/gnu/inc/tx_port.h **** #endif
 585:../Middlewares/threadx/ports/cortex_m55/gnu/inc/tx_port.h **** 
 586:../Middlewares/threadx/ports/cortex_m55/gnu/inc/tx_port.h **** __attribute__( ( always_inline ) ) static inline void __restore_interrupt(UINT int_posture)
 587:../Middlewares/threadx/ports/cortex_m55/gnu/inc/tx_port.h **** {
 588:../Middlewares/threadx/ports/cortex_m55/gnu/inc/tx_port.h **** #ifdef TX_PORT_USE_BASEPRI
 589:../Middlewares/threadx/ports/cortex_m55/gnu/inc/tx_port.h ****     __set_basepri_value(int_posture);
 590:../Middlewares/threadx/ports/cortex_m55/gnu/inc/tx_port.h **** #else
 591:../Middlewares/threadx/ports/cortex_m55/gnu/inc/tx_port.h ****     __asm__ volatile ("MSR  PRIMASK,%0": : "r" (int_posture): "memory");
 592:../Middlewares/threadx/ports/cortex_m55/gnu/inc/tx_port.h **** #endif
 593:../Middlewares/threadx/ports/cortex_m55/gnu/inc/tx_port.h **** }
 594:../Middlewares/threadx/ports/cortex_m55/gnu/inc/tx_port.h **** 
 595:../Middlewares/threadx/ports/cortex_m55/gnu/inc/tx_port.h **** __attribute__( ( always_inline ) ) static inline UINT __disable_interrupts(void)
  61              		.loc 2 595 55 view .LVU20
  62              	.LBB30:
 596:../Middlewares/threadx/ports/cortex_m55/gnu/inc/tx_port.h **** {
 597:../Middlewares/threadx/ports/cortex_m55/gnu/inc/tx_port.h **** UINT int_posture;
  63              		.loc 2 597 1 view .LVU21
 598:../Middlewares/threadx/ports/cortex_m55/gnu/inc/tx_port.h **** 
 599:../Middlewares/threadx/ports/cortex_m55/gnu/inc/tx_port.h ****     int_posture = __get_interrupt_posture();
  64              		.loc 2 599 5 view .LVU22
  65              	.LBB31:
  66              	.LBI31:
 563:../Middlewares/threadx/ports/cortex_m55/gnu/inc/tx_port.h **** {
  67              		.loc 2 563 55 view .LVU23
  68              	.LBB32:
 565:../Middlewares/threadx/ports/cortex_m55/gnu/inc/tx_port.h **** #ifdef TX_PORT_USE_BASEPRI
  69              		.loc 2 565 1 view .LVU24
 569:../Middlewares/threadx/ports/cortex_m55/gnu/inc/tx_port.h **** #endif
  70              		.loc 2 569 5 view .LVU25
  71              	.LBE32:
  72              	.LBE31:
  73              	.LBE30:
  74              	.LBE29:
  78:../Middlewares/threadx/common/src/tx_byte_release.c **** 
  75              		.loc 1 78 1 is_stmt 0 view .LVU26
  76 0000 2DE9F843 		push	{r3, r4, r5, r6, r7, r8, r9, lr}
  77              		.cfi_def_cfa_offset 32
  78              		.cfi_offset 3, -32
  79              		.cfi_offset 4, -28
  80              		.cfi_offset 5, -24
  81              		.cfi_offset 6, -20
  82              		.cfi_offset 7, -16
  83              		.cfi_offset 8, -12
  84              		.cfi_offset 9, -8
  85              		.cfi_offset 14, -4
  78:../Middlewares/threadx/common/src/tx_byte_release.c **** 
  86              		.loc 1 78 1 view .LVU27
  87 0004 0546     		mov	r5, r0
  88              	.LBB36:
  89              	.LBB35:
ARM GAS  /tmp/ccNroJea.s 			page 15


  90              	.LBB34:
  91              	.LBB33:
 569:../Middlewares/threadx/ports/cortex_m55/gnu/inc/tx_port.h **** #endif
  92              		.loc 2 569 5 view .LVU28
  93              		.syntax unified
  94              	@ 569 "../Middlewares/threadx/ports/cortex_m55/gnu/inc/tx_port.h" 1
  95 0006 EFF31086 		MRS  r6, PRIMASK 
  96              	@ 0 "" 2
  97              	.LVL1:
 571:../Middlewares/threadx/ports/cortex_m55/gnu/inc/tx_port.h **** }
  98              		.loc 2 571 5 is_stmt 1 view .LVU29
 571:../Middlewares/threadx/ports/cortex_m55/gnu/inc/tx_port.h **** }
  99              		.loc 2 571 5 is_stmt 0 view .LVU30
 100              		.thumb
 101              		.syntax unified
 102              	.LBE33:
 103              	.LBE34:
 600:../Middlewares/threadx/ports/cortex_m55/gnu/inc/tx_port.h **** 
 601:../Middlewares/threadx/ports/cortex_m55/gnu/inc/tx_port.h **** #ifdef TX_PORT_USE_BASEPRI
 602:../Middlewares/threadx/ports/cortex_m55/gnu/inc/tx_port.h ****     __set_basepri_value(TX_PORT_BASEPRI);
 603:../Middlewares/threadx/ports/cortex_m55/gnu/inc/tx_port.h **** #else
 604:../Middlewares/threadx/ports/cortex_m55/gnu/inc/tx_port.h ****     __asm__ volatile ("CPSID i" : : : "memory");
 104              		.loc 2 604 5 is_stmt 1 view .LVU31
 105              		.syntax unified
 106              	@ 604 "../Middlewares/threadx/ports/cortex_m55/gnu/inc/tx_port.h" 1
 107 000a 72B6     		CPSID i
 108              	@ 0 "" 2
 605:../Middlewares/threadx/ports/cortex_m55/gnu/inc/tx_port.h **** #endif
 606:../Middlewares/threadx/ports/cortex_m55/gnu/inc/tx_port.h ****     return(int_posture);
 109              		.loc 2 606 5 view .LVU32
 110              	.LVL2:
 111              		.loc 2 606 5 is_stmt 0 view .LVU33
 112              		.thumb
 113              		.syntax unified
 114              	.LBE35:
 115              	.LBE36:
 107:../Middlewares/threadx/common/src/tx_byte_release.c **** 
 108:../Middlewares/threadx/common/src/tx_byte_release.c ****     /* Determine if the memory pointer is valid.  */
 109:../Middlewares/threadx/common/src/tx_byte_release.c ****     work_ptr =  TX_VOID_TO_UCHAR_POINTER_CONVERT(memory_ptr);
 116              		.loc 1 109 5 is_stmt 1 view .LVU34
 110:../Middlewares/threadx/common/src/tx_byte_release.c ****     if (work_ptr != TX_NULL)
 117              		.loc 1 110 5 view .LVU35
 118              		.loc 1 110 8 is_stmt 0 view .LVU36
 119 000c 68B3     		cbz	r0, .L2
 111:../Middlewares/threadx/common/src/tx_byte_release.c ****     {
 112:../Middlewares/threadx/common/src/tx_byte_release.c **** 
 113:../Middlewares/threadx/common/src/tx_byte_release.c ****         /* Back off the memory pointer to pickup its header.  */
 114:../Middlewares/threadx/common/src/tx_byte_release.c ****         work_ptr =  TX_UCHAR_POINTER_SUB(work_ptr, ((sizeof(UCHAR *)) + (sizeof(ALIGN_TYPE))));
 120              		.loc 1 114 9 is_stmt 1 view .LVU37
 121              	.LVL3:
 115:../Middlewares/threadx/common/src/tx_byte_release.c **** 
 116:../Middlewares/threadx/common/src/tx_byte_release.c ****         /* There is a pointer, pickup the pool pointer address.  */
 117:../Middlewares/threadx/common/src/tx_byte_release.c ****         temp_ptr =  TX_UCHAR_POINTER_ADD(work_ptr, (sizeof(UCHAR *)));
 122              		.loc 1 117 9 view .LVU38
 118:../Middlewares/threadx/common/src/tx_byte_release.c ****         free_ptr =  TX_UCHAR_TO_ALIGN_TYPE_POINTER_CONVERT(temp_ptr);
 123              		.loc 1 118 9 view .LVU39
 119:../Middlewares/threadx/common/src/tx_byte_release.c ****         if ((*free_ptr) != TX_BYTE_BLOCK_FREE)
ARM GAS  /tmp/ccNroJea.s 			page 16


 124              		.loc 1 119 9 view .LVU40
 125              		.loc 1 119 14 is_stmt 0 view .LVU41
 126 000e 50F8044C 		ldr	r4, [r0, #-4]
 127              		.loc 1 119 12 view .LVU42
 128 0012 5A4B     		ldr	r3, .L39
 129 0014 9C42     		cmp	r4, r3
 130 0016 28D0     		beq	.L2
 120:../Middlewares/threadx/common/src/tx_byte_release.c ****         {
 121:../Middlewares/threadx/common/src/tx_byte_release.c **** 
 122:../Middlewares/threadx/common/src/tx_byte_release.c ****             /* Pickup the pool pointer.  */
 123:../Middlewares/threadx/common/src/tx_byte_release.c ****             temp_ptr =  TX_UCHAR_POINTER_ADD(work_ptr, (sizeof(UCHAR *)));
 131              		.loc 1 123 13 is_stmt 1 view .LVU43
 124:../Middlewares/threadx/common/src/tx_byte_release.c ****             byte_pool_ptr =  TX_UCHAR_TO_INDIRECT_BYTE_POOL_POINTER(temp_ptr);
 132              		.loc 1 124 13 view .LVU44
 133              	.LVL4:
 125:../Middlewares/threadx/common/src/tx_byte_release.c ****             pool_ptr =  *byte_pool_ptr;
 134              		.loc 1 125 13 view .LVU45
 126:../Middlewares/threadx/common/src/tx_byte_release.c **** 
 127:../Middlewares/threadx/common/src/tx_byte_release.c ****             /* See if we have a valid pool pointer.  */
 128:../Middlewares/threadx/common/src/tx_byte_release.c ****             if (pool_ptr == TX_NULL)
 135              		.loc 1 128 13 view .LVU46
 136              		.loc 1 128 16 is_stmt 0 view .LVU47
 137 0018 3CB3     		cbz	r4, .L2
 129:../Middlewares/threadx/common/src/tx_byte_release.c ****             {
 130:../Middlewares/threadx/common/src/tx_byte_release.c **** 
 131:../Middlewares/threadx/common/src/tx_byte_release.c ****                 /* Return pointer error.  */
 132:../Middlewares/threadx/common/src/tx_byte_release.c ****                 status =  TX_PTR_ERROR;
 133:../Middlewares/threadx/common/src/tx_byte_release.c ****             }
 134:../Middlewares/threadx/common/src/tx_byte_release.c ****             else
 135:../Middlewares/threadx/common/src/tx_byte_release.c ****             {
 136:../Middlewares/threadx/common/src/tx_byte_release.c **** 
 137:../Middlewares/threadx/common/src/tx_byte_release.c ****                 /* See if we have a valid pool.  */
 138:../Middlewares/threadx/common/src/tx_byte_release.c ****                 if (pool_ptr -> tx_byte_pool_id != TX_BYTE_POOL_ID)
 138              		.loc 1 138 17 is_stmt 1 view .LVU48
 139              		.loc 1 138 20 is_stmt 0 view .LVU49
 140 001a 2268     		ldr	r2, [r4]
 141 001c 584B     		ldr	r3, .L39+4
 142 001e 9A42     		cmp	r2, r3
 143 0020 23D1     		bne	.L2
 139:../Middlewares/threadx/common/src/tx_byte_release.c ****                 {
 140:../Middlewares/threadx/common/src/tx_byte_release.c **** 
 141:../Middlewares/threadx/common/src/tx_byte_release.c ****                     /* Return pointer error.  */
 142:../Middlewares/threadx/common/src/tx_byte_release.c ****                     status =  TX_PTR_ERROR;
 143:../Middlewares/threadx/common/src/tx_byte_release.c **** 
 144:../Middlewares/threadx/common/src/tx_byte_release.c ****                     /* Reset the pool pointer is NULL.  */
 145:../Middlewares/threadx/common/src/tx_byte_release.c ****                     pool_ptr =  TX_NULL;
 146:../Middlewares/threadx/common/src/tx_byte_release.c ****                 }
 147:../Middlewares/threadx/common/src/tx_byte_release.c ****             }
 148:../Middlewares/threadx/common/src/tx_byte_release.c ****         }
 149:../Middlewares/threadx/common/src/tx_byte_release.c ****         else
 150:../Middlewares/threadx/common/src/tx_byte_release.c ****         {
 151:../Middlewares/threadx/common/src/tx_byte_release.c **** 
 152:../Middlewares/threadx/common/src/tx_byte_release.c ****             /* Return pointer error.  */
 153:../Middlewares/threadx/common/src/tx_byte_release.c ****             status =  TX_PTR_ERROR;
 154:../Middlewares/threadx/common/src/tx_byte_release.c ****         }
 155:../Middlewares/threadx/common/src/tx_byte_release.c ****     }
 156:../Middlewares/threadx/common/src/tx_byte_release.c ****     else
ARM GAS  /tmp/ccNroJea.s 			page 17


 157:../Middlewares/threadx/common/src/tx_byte_release.c ****     {
 158:../Middlewares/threadx/common/src/tx_byte_release.c **** 
 159:../Middlewares/threadx/common/src/tx_byte_release.c ****         /* Return pointer error.  */
 160:../Middlewares/threadx/common/src/tx_byte_release.c ****         status =  TX_PTR_ERROR;
 161:../Middlewares/threadx/common/src/tx_byte_release.c ****     }
 162:../Middlewares/threadx/common/src/tx_byte_release.c **** 
 163:../Middlewares/threadx/common/src/tx_byte_release.c ****     /* Determine if the pointer is valid.  */
 164:../Middlewares/threadx/common/src/tx_byte_release.c ****     if (pool_ptr == TX_NULL)
 144              		.loc 1 164 5 is_stmt 1 view .LVU50
 165:../Middlewares/threadx/common/src/tx_byte_release.c ****     {
 166:../Middlewares/threadx/common/src/tx_byte_release.c **** 
 167:../Middlewares/threadx/common/src/tx_byte_release.c ****         /* Restore interrupts.  */
 168:../Middlewares/threadx/common/src/tx_byte_release.c ****         TX_RESTORE
 169:../Middlewares/threadx/common/src/tx_byte_release.c ****     }
 170:../Middlewares/threadx/common/src/tx_byte_release.c ****     else
 171:../Middlewares/threadx/common/src/tx_byte_release.c ****     {
 172:../Middlewares/threadx/common/src/tx_byte_release.c **** 
 173:../Middlewares/threadx/common/src/tx_byte_release.c ****         /* At this point, we know that the pointer is valid.  */
 174:../Middlewares/threadx/common/src/tx_byte_release.c **** 
 175:../Middlewares/threadx/common/src/tx_byte_release.c ****         /* Pickup thread pointer.  */
 176:../Middlewares/threadx/common/src/tx_byte_release.c ****         TX_THREAD_GET_CURRENT(thread_ptr)
 145              		.loc 1 176 9 view .LVU51
 146 0022 584B     		ldr	r3, .L39+8
 147              	.LBB37:
 177:../Middlewares/threadx/common/src/tx_byte_release.c **** 
 178:../Middlewares/threadx/common/src/tx_byte_release.c ****         /* Indicate that this thread is the current owner.  */
 179:../Middlewares/threadx/common/src/tx_byte_release.c ****         pool_ptr -> tx_byte_pool_owner =  thread_ptr;
 180:../Middlewares/threadx/common/src/tx_byte_release.c **** 
 181:../Middlewares/threadx/common/src/tx_byte_release.c **** #ifdef TX_BYTE_POOL_ENABLE_PERFORMANCE_INFO
 182:../Middlewares/threadx/common/src/tx_byte_release.c **** 
 183:../Middlewares/threadx/common/src/tx_byte_release.c ****         /* Increment the total release counter.  */
 184:../Middlewares/threadx/common/src/tx_byte_release.c ****         _tx_byte_pool_performance_release_count++;
 185:../Middlewares/threadx/common/src/tx_byte_release.c **** 
 186:../Middlewares/threadx/common/src/tx_byte_release.c ****         /* Increment the number of releases on this pool.  */
 187:../Middlewares/threadx/common/src/tx_byte_release.c ****         pool_ptr -> tx_byte_pool_performance_release_count++;
 188:../Middlewares/threadx/common/src/tx_byte_release.c **** #endif
 189:../Middlewares/threadx/common/src/tx_byte_release.c **** 
 190:../Middlewares/threadx/common/src/tx_byte_release.c ****         /* If trace is enabled, insert this event into the trace buffer.  */
 191:../Middlewares/threadx/common/src/tx_byte_release.c ****         TX_TRACE_IN_LINE_INSERT(TX_TRACE_BYTE_RELEASE, pool_ptr, TX_POINTER_TO_ULONG_CONVERT(memory
 148              		.loc 1 191 9 is_stmt 0 view .LVU52
 149 0024 5849     		ldr	r1, .L39+12
 150              	.LBE37:
 176:../Middlewares/threadx/common/src/tx_byte_release.c **** 
 151              		.loc 1 176 9 view .LVU53
 152 0026 1F68     		ldr	r7, [r3]
 153              	.LVL5:
 179:../Middlewares/threadx/common/src/tx_byte_release.c **** 
 154              		.loc 1 179 9 is_stmt 1 view .LVU54
 155              	.LBB40:
 156              		.loc 1 191 9 is_stmt 0 view .LVU55
 157 0028 0B68     		ldr	r3, [r1]
 158              	.LBE40:
 179:../Middlewares/threadx/common/src/tx_byte_release.c **** 
 159              		.loc 1 179 40 view .LVU56
 160 002a 2762     		str	r7, [r4, #32]
 161              	.LBB41:
 162              		.loc 1 191 9 is_stmt 1 view .LVU57
ARM GAS  /tmp/ccNroJea.s 			page 18


 163              		.loc 1 191 9 view .LVU58
 164              		.loc 1 191 9 view .LVU59
 165              		.loc 1 191 9 view .LVU60
 166              		.loc 1 191 9 view .LVU61
 167              	.LVL6:
 168              		.loc 1 191 9 view .LVU62
 169 002c 13BB     		cbnz	r3, .L3
 170              	.LVL7:
 171              	.L4:
 172              		.loc 1 191 9 is_stmt 0 view .LVU63
 173              	.LBE41:
 192:../Middlewares/threadx/common/src/tx_byte_release.c **** 
 193:../Middlewares/threadx/common/src/tx_byte_release.c ****         /* Log this kernel call.  */
 194:../Middlewares/threadx/common/src/tx_byte_release.c ****         TX_EL_BYTE_RELEASE_INSERT
 195:../Middlewares/threadx/common/src/tx_byte_release.c **** 
 196:../Middlewares/threadx/common/src/tx_byte_release.c ****         /* Release the memory.  */
 197:../Middlewares/threadx/common/src/tx_byte_release.c ****         temp_ptr =   TX_UCHAR_POINTER_ADD(work_ptr, (sizeof(UCHAR *)));
 198:../Middlewares/threadx/common/src/tx_byte_release.c ****         free_ptr =   TX_UCHAR_TO_ALIGN_TYPE_POINTER_CONVERT(temp_ptr);
 199:../Middlewares/threadx/common/src/tx_byte_release.c ****         *free_ptr =  TX_BYTE_BLOCK_FREE;
 174              		.loc 1 199 19 view .LVU64
 175 002e 534A     		ldr	r2, .L39
 200:../Middlewares/threadx/common/src/tx_byte_release.c **** 
 201:../Middlewares/threadx/common/src/tx_byte_release.c ****         /* Update the number of available bytes in the pool.  */
 202:../Middlewares/threadx/common/src/tx_byte_release.c ****         block_link_ptr =  TX_UCHAR_TO_INDIRECT_UCHAR_POINTER_CONVERT(work_ptr);
 203:../Middlewares/threadx/common/src/tx_byte_release.c ****         next_block_ptr =  *block_link_ptr;
 204:../Middlewares/threadx/common/src/tx_byte_release.c ****         pool_ptr -> tx_byte_pool_available =
 205:../Middlewares/threadx/common/src/tx_byte_release.c ****             pool_ptr -> tx_byte_pool_available + TX_UCHAR_POINTER_DIF(next_block_ptr, work_ptr);
 176              		.loc 1 205 50 view .LVU65
 177 0030 55F8081C 		ldr	r1, [r5, #-8]
 199:../Middlewares/threadx/common/src/tx_byte_release.c **** 
 178              		.loc 1 199 19 view .LVU66
 179 0034 45F8042C 		str	r2, [r5, #-4]
 114:../Middlewares/threadx/common/src/tx_byte_release.c **** 
 180              		.loc 1 114 18 view .LVU67
 181 0038 A5F10803 		sub	r3, r5, #8
 197:../Middlewares/threadx/common/src/tx_byte_release.c ****         free_ptr =   TX_UCHAR_TO_ALIGN_TYPE_POINTER_CONVERT(temp_ptr);
 182              		.loc 1 197 9 is_stmt 1 view .LVU68
 198:../Middlewares/threadx/common/src/tx_byte_release.c ****         *free_ptr =  TX_BYTE_BLOCK_FREE;
 183              		.loc 1 198 9 view .LVU69
 199:../Middlewares/threadx/common/src/tx_byte_release.c **** 
 184              		.loc 1 199 9 view .LVU70
 202:../Middlewares/threadx/common/src/tx_byte_release.c ****         next_block_ptr =  *block_link_ptr;
 185              		.loc 1 202 9 view .LVU71
 186              	.LVL8:
 203:../Middlewares/threadx/common/src/tx_byte_release.c ****         pool_ptr -> tx_byte_pool_available =
 187              		.loc 1 203 9 view .LVU72
 204:../Middlewares/threadx/common/src/tx_byte_release.c ****             pool_ptr -> tx_byte_pool_available + TX_UCHAR_POINTER_DIF(next_block_ptr, work_ptr);
 188              		.loc 1 204 9 view .LVU73
 189              		.loc 1 205 48 is_stmt 0 view .LVU74
 190 003c A268     		ldr	r2, [r4, #8]
 191              		.loc 1 205 50 view .LVU75
 192 003e C91A     		subs	r1, r1, r3
 193              	.LVL9:
 194              		.loc 1 205 48 view .LVU76
 195 0040 0A44     		add	r2, r2, r1
 204:../Middlewares/threadx/common/src/tx_byte_release.c ****             pool_ptr -> tx_byte_pool_available + TX_UCHAR_POINTER_DIF(next_block_ptr, work_ptr);
 196              		.loc 1 204 44 view .LVU77
ARM GAS  /tmp/ccNroJea.s 			page 19


 197 0042 A260     		str	r2, [r4, #8]
 206:../Middlewares/threadx/common/src/tx_byte_release.c **** 
 207:../Middlewares/threadx/common/src/tx_byte_release.c ****         /* Determine if the free block is prior to current search pointer.  */
 208:../Middlewares/threadx/common/src/tx_byte_release.c ****         if (work_ptr < (pool_ptr -> tx_byte_pool_search))
 198              		.loc 1 208 9 is_stmt 1 view .LVU78
 199              		.loc 1 208 12 is_stmt 0 view .LVU79
 200 0044 6269     		ldr	r2, [r4, #20]
 201 0046 9A42     		cmp	r2, r3
 209:../Middlewares/threadx/common/src/tx_byte_release.c ****         {
 210:../Middlewares/threadx/common/src/tx_byte_release.c **** 
 211:../Middlewares/threadx/common/src/tx_byte_release.c ****             /* Yes, update the search pointer to the released block.  */
 212:../Middlewares/threadx/common/src/tx_byte_release.c ****             pool_ptr -> tx_byte_pool_search =  work_ptr;
 202              		.loc 1 212 13 is_stmt 1 view .LVU80
 203              		.loc 1 212 45 is_stmt 0 view .LVU81
 204 0048 88BF     		it	hi
 205 004a 6361     		strhi	r3, [r4, #20]
 206              	.LVL10:
 213:../Middlewares/threadx/common/src/tx_byte_release.c ****         }
 214:../Middlewares/threadx/common/src/tx_byte_release.c **** 
 215:../Middlewares/threadx/common/src/tx_byte_release.c ****         /* Determine if there are threads suspended on this byte pool.  */
 216:../Middlewares/threadx/common/src/tx_byte_release.c ****         if (pool_ptr -> tx_byte_pool_suspended_count != TX_NO_SUSPENSIONS)
 207              		.loc 1 216 9 is_stmt 1 view .LVU82
 208              		.loc 1 216 12 is_stmt 0 view .LVU83
 209 004c A36A     		ldr	r3, [r4, #40]
 210 004e 002B     		cmp	r3, #0
 211 0050 00F09080 		beq	.L38
 217:../Middlewares/threadx/common/src/tx_byte_release.c ****         {
 218:../Middlewares/threadx/common/src/tx_byte_release.c **** 
 219:../Middlewares/threadx/common/src/tx_byte_release.c ****             /* Now examine the suspension list to find threads waiting for
 220:../Middlewares/threadx/common/src/tx_byte_release.c ****                memory.  Maybe it is now available!  */
 221:../Middlewares/threadx/common/src/tx_byte_release.c ****             while (pool_ptr -> tx_byte_pool_suspended_count != TX_NO_SUSPENSIONS)
 222:../Middlewares/threadx/common/src/tx_byte_release.c ****             {
 223:../Middlewares/threadx/common/src/tx_byte_release.c **** 
 224:../Middlewares/threadx/common/src/tx_byte_release.c ****                 /* Pickup the first suspended thread pointer.  */
 225:../Middlewares/threadx/common/src/tx_byte_release.c ****                 susp_thread_ptr =  pool_ptr -> tx_byte_pool_suspension_list;
 226:../Middlewares/threadx/common/src/tx_byte_release.c **** 
 227:../Middlewares/threadx/common/src/tx_byte_release.c ****                 /* Pickup the size of the memory the thread is requesting.  */
 228:../Middlewares/threadx/common/src/tx_byte_release.c ****                 memory_size =  susp_thread_ptr -> tx_thread_suspend_info;
 229:../Middlewares/threadx/common/src/tx_byte_release.c **** 
 230:../Middlewares/threadx/common/src/tx_byte_release.c ****                 /* Restore interrupts.  */
 231:../Middlewares/threadx/common/src/tx_byte_release.c ****                 TX_RESTORE
 232:../Middlewares/threadx/common/src/tx_byte_release.c **** 
 233:../Middlewares/threadx/common/src/tx_byte_release.c ****                 /* See if the request can be satisfied.  */
 234:../Middlewares/threadx/common/src/tx_byte_release.c ****                 work_ptr =  _tx_byte_pool_search(pool_ptr, memory_size);
 235:../Middlewares/threadx/common/src/tx_byte_release.c **** 
 236:../Middlewares/threadx/common/src/tx_byte_release.c ****                 /* Optional processing extension.  */
 237:../Middlewares/threadx/common/src/tx_byte_release.c ****                 TX_BYTE_RELEASE_EXTENSION
 238:../Middlewares/threadx/common/src/tx_byte_release.c **** 
 239:../Middlewares/threadx/common/src/tx_byte_release.c ****                 /* Disable interrupts.  */
 240:../Middlewares/threadx/common/src/tx_byte_release.c ****                 TX_DISABLE
 241:../Middlewares/threadx/common/src/tx_byte_release.c **** 
 242:../Middlewares/threadx/common/src/tx_byte_release.c ****                 /* Indicate that this thread is the current owner.  */
 243:../Middlewares/threadx/common/src/tx_byte_release.c ****                 pool_ptr -> tx_byte_pool_owner =  thread_ptr;
 244:../Middlewares/threadx/common/src/tx_byte_release.c **** 
 245:../Middlewares/threadx/common/src/tx_byte_release.c ****                 /* If there is not enough memory, break this loop!  */
 246:../Middlewares/threadx/common/src/tx_byte_release.c ****                 if (work_ptr == TX_NULL)
 247:../Middlewares/threadx/common/src/tx_byte_release.c ****                 {
ARM GAS  /tmp/ccNroJea.s 			page 20


 248:../Middlewares/threadx/common/src/tx_byte_release.c **** 
 249:../Middlewares/threadx/common/src/tx_byte_release.c ****                   /* Break out of the loop.  */
 250:../Middlewares/threadx/common/src/tx_byte_release.c ****                     break;
 251:../Middlewares/threadx/common/src/tx_byte_release.c ****                 }
 252:../Middlewares/threadx/common/src/tx_byte_release.c **** 
 253:../Middlewares/threadx/common/src/tx_byte_release.c ****                 /* Check to make sure the thread is still suspended.  */
 254:../Middlewares/threadx/common/src/tx_byte_release.c ****                 if (susp_thread_ptr ==  pool_ptr -> tx_byte_pool_suspension_list)
 255:../Middlewares/threadx/common/src/tx_byte_release.c ****                 {
 256:../Middlewares/threadx/common/src/tx_byte_release.c **** 
 257:../Middlewares/threadx/common/src/tx_byte_release.c ****                     /* Also, makes sure the memory size is the same.  */
 258:../Middlewares/threadx/common/src/tx_byte_release.c ****                     if (susp_thread_ptr -> tx_thread_suspend_info == memory_size)
 259:../Middlewares/threadx/common/src/tx_byte_release.c ****                     {
 260:../Middlewares/threadx/common/src/tx_byte_release.c **** 
 261:../Middlewares/threadx/common/src/tx_byte_release.c ****                         /* Remove the suspended thread from the list.  */
 262:../Middlewares/threadx/common/src/tx_byte_release.c **** 
 263:../Middlewares/threadx/common/src/tx_byte_release.c ****                         /* Decrement the number of threads suspended.  */
 264:../Middlewares/threadx/common/src/tx_byte_release.c ****                         pool_ptr -> tx_byte_pool_suspended_count--;
 265:../Middlewares/threadx/common/src/tx_byte_release.c **** 
 266:../Middlewares/threadx/common/src/tx_byte_release.c ****                         /* Pickup the suspended count.  */
 267:../Middlewares/threadx/common/src/tx_byte_release.c ****                         suspended_count =  pool_ptr -> tx_byte_pool_suspended_count;
 268:../Middlewares/threadx/common/src/tx_byte_release.c **** 
 269:../Middlewares/threadx/common/src/tx_byte_release.c ****                         /* See if this is the only suspended thread on the list.  */
 270:../Middlewares/threadx/common/src/tx_byte_release.c ****                         if (suspended_count == TX_NO_SUSPENSIONS)
 271:../Middlewares/threadx/common/src/tx_byte_release.c ****                         {
 272:../Middlewares/threadx/common/src/tx_byte_release.c **** 
 273:../Middlewares/threadx/common/src/tx_byte_release.c ****                             /* Yes, the only suspended thread.  */
 274:../Middlewares/threadx/common/src/tx_byte_release.c **** 
 275:../Middlewares/threadx/common/src/tx_byte_release.c ****                             /* Update the head pointer.  */
 276:../Middlewares/threadx/common/src/tx_byte_release.c ****                             pool_ptr -> tx_byte_pool_suspension_list =  TX_NULL;
 277:../Middlewares/threadx/common/src/tx_byte_release.c ****                         }
 278:../Middlewares/threadx/common/src/tx_byte_release.c ****                         else
 279:../Middlewares/threadx/common/src/tx_byte_release.c ****                         {
 280:../Middlewares/threadx/common/src/tx_byte_release.c **** 
 281:../Middlewares/threadx/common/src/tx_byte_release.c ****                             /* At least one more thread is on the same expiration list.  */
 282:../Middlewares/threadx/common/src/tx_byte_release.c **** 
 283:../Middlewares/threadx/common/src/tx_byte_release.c ****                             /* Update the list head pointer.  */
 284:../Middlewares/threadx/common/src/tx_byte_release.c ****                             next_thread =                                susp_thread_ptr -> tx_thre
 285:../Middlewares/threadx/common/src/tx_byte_release.c ****                             pool_ptr -> tx_byte_pool_suspension_list =   next_thread;
 286:../Middlewares/threadx/common/src/tx_byte_release.c **** 
 287:../Middlewares/threadx/common/src/tx_byte_release.c ****                             /* Update the links of the adjacent threads.  */
 288:../Middlewares/threadx/common/src/tx_byte_release.c ****                             previous_thread =                              susp_thread_ptr -> tx_th
 289:../Middlewares/threadx/common/src/tx_byte_release.c ****                             next_thread -> tx_thread_suspended_previous =  previous_thread;
 290:../Middlewares/threadx/common/src/tx_byte_release.c ****                             previous_thread -> tx_thread_suspended_next =  next_thread;
 291:../Middlewares/threadx/common/src/tx_byte_release.c ****                         }
 292:../Middlewares/threadx/common/src/tx_byte_release.c **** 
 293:../Middlewares/threadx/common/src/tx_byte_release.c ****                         /* Prepare for resumption of the thread.  */
 294:../Middlewares/threadx/common/src/tx_byte_release.c **** 
 295:../Middlewares/threadx/common/src/tx_byte_release.c ****                         /* Clear cleanup routine to avoid timeout.  */
 296:../Middlewares/threadx/common/src/tx_byte_release.c ****                         susp_thread_ptr -> tx_thread_suspend_cleanup =  TX_NULL;
 297:../Middlewares/threadx/common/src/tx_byte_release.c **** 
 298:../Middlewares/threadx/common/src/tx_byte_release.c ****                         /* Return this block pointer to the suspended thread waiting for
 299:../Middlewares/threadx/common/src/tx_byte_release.c ****                            a block.  */
 300:../Middlewares/threadx/common/src/tx_byte_release.c ****                         suspend_info_ptr =   TX_VOID_TO_INDIRECT_UCHAR_POINTER_CONVERT(susp_thread_
 301:../Middlewares/threadx/common/src/tx_byte_release.c ****                         *suspend_info_ptr =  work_ptr;
 302:../Middlewares/threadx/common/src/tx_byte_release.c **** 
 303:../Middlewares/threadx/common/src/tx_byte_release.c ****                         /* Clear the memory pointer to indicate that it was given to the suspended 
 304:../Middlewares/threadx/common/src/tx_byte_release.c ****                         work_ptr =  TX_NULL;
ARM GAS  /tmp/ccNroJea.s 			page 21


 305:../Middlewares/threadx/common/src/tx_byte_release.c **** 
 306:../Middlewares/threadx/common/src/tx_byte_release.c ****                         /* Put return status into the thread control block.  */
 307:../Middlewares/threadx/common/src/tx_byte_release.c ****                         susp_thread_ptr -> tx_thread_suspend_status =  TX_SUCCESS;
 308:../Middlewares/threadx/common/src/tx_byte_release.c **** 
 309:../Middlewares/threadx/common/src/tx_byte_release.c **** #ifdef TX_NOT_INTERRUPTABLE
 310:../Middlewares/threadx/common/src/tx_byte_release.c **** 
 311:../Middlewares/threadx/common/src/tx_byte_release.c ****                         /* Resume the thread!  */
 312:../Middlewares/threadx/common/src/tx_byte_release.c ****                         _tx_thread_system_ni_resume(susp_thread_ptr);
 313:../Middlewares/threadx/common/src/tx_byte_release.c **** 
 314:../Middlewares/threadx/common/src/tx_byte_release.c ****                         /* Restore interrupts.  */
 315:../Middlewares/threadx/common/src/tx_byte_release.c ****                         TX_RESTORE
 316:../Middlewares/threadx/common/src/tx_byte_release.c **** #else
 317:../Middlewares/threadx/common/src/tx_byte_release.c ****                         /* Temporarily disable preemption.  */
 318:../Middlewares/threadx/common/src/tx_byte_release.c ****                         _tx_thread_preempt_disable++;
 319:../Middlewares/threadx/common/src/tx_byte_release.c **** 
 320:../Middlewares/threadx/common/src/tx_byte_release.c ****                         /* Restore interrupts.  */
 321:../Middlewares/threadx/common/src/tx_byte_release.c ****                         TX_RESTORE
 322:../Middlewares/threadx/common/src/tx_byte_release.c **** 
 323:../Middlewares/threadx/common/src/tx_byte_release.c ****                         /* Resume thread.  */
 324:../Middlewares/threadx/common/src/tx_byte_release.c ****                         _tx_thread_system_resume(susp_thread_ptr);
 325:../Middlewares/threadx/common/src/tx_byte_release.c **** #endif
 326:../Middlewares/threadx/common/src/tx_byte_release.c **** 
 327:../Middlewares/threadx/common/src/tx_byte_release.c ****                         /* Lockout interrupts.  */
 328:../Middlewares/threadx/common/src/tx_byte_release.c ****                         TX_DISABLE
 329:../Middlewares/threadx/common/src/tx_byte_release.c ****                     }
 330:../Middlewares/threadx/common/src/tx_byte_release.c ****                 }
 331:../Middlewares/threadx/common/src/tx_byte_release.c **** 
 332:../Middlewares/threadx/common/src/tx_byte_release.c ****                 /* Determine if the memory was given to the suspended thread.  */
 333:../Middlewares/threadx/common/src/tx_byte_release.c ****                 if (work_ptr != TX_NULL)
 334:../Middlewares/threadx/common/src/tx_byte_release.c ****                 {
 335:../Middlewares/threadx/common/src/tx_byte_release.c **** 
 336:../Middlewares/threadx/common/src/tx_byte_release.c ****                     /* No, it wasn't given to the suspended thread.  */
 337:../Middlewares/threadx/common/src/tx_byte_release.c **** 
 338:../Middlewares/threadx/common/src/tx_byte_release.c ****                     /* Put the memory back on the available list since this thread is no longer
 339:../Middlewares/threadx/common/src/tx_byte_release.c ****                        suspended.  */
 340:../Middlewares/threadx/common/src/tx_byte_release.c ****                     work_ptr =  TX_UCHAR_POINTER_SUB(work_ptr, (((sizeof(UCHAR *)) + (sizeof(ALIGN_
 341:../Middlewares/threadx/common/src/tx_byte_release.c ****                     temp_ptr =  TX_UCHAR_POINTER_ADD(work_ptr, (sizeof(UCHAR *)));
 342:../Middlewares/threadx/common/src/tx_byte_release.c ****                     free_ptr =  TX_UCHAR_TO_ALIGN_TYPE_POINTER_CONVERT(temp_ptr);
 343:../Middlewares/threadx/common/src/tx_byte_release.c ****                     *free_ptr =  TX_BYTE_BLOCK_FREE;
 212              		.loc 1 343 31 view .LVU84
 213 0054 DFF82481 		ldr	r8, .L39
 214              	.LVL11:
 215              	.L11:
 221:../Middlewares/threadx/common/src/tx_byte_release.c ****             {
 216              		.loc 1 221 61 is_stmt 1 view .LVU85
 217 0058 A36A     		ldr	r3, [r4, #40]
 218 005a 002B     		cmp	r3, #0
 219 005c 48D1     		bne	.L19
 220              	.L13:
 344:../Middlewares/threadx/common/src/tx_byte_release.c **** 
 345:../Middlewares/threadx/common/src/tx_byte_release.c ****                     /* Update the number of available bytes in the pool.  */
 346:../Middlewares/threadx/common/src/tx_byte_release.c ****                     block_link_ptr =  TX_UCHAR_TO_INDIRECT_UCHAR_POINTER_CONVERT(work_ptr);
 347:../Middlewares/threadx/common/src/tx_byte_release.c ****                     next_block_ptr =  *block_link_ptr;
 348:../Middlewares/threadx/common/src/tx_byte_release.c ****                     pool_ptr -> tx_byte_pool_available =
 349:../Middlewares/threadx/common/src/tx_byte_release.c ****                         pool_ptr -> tx_byte_pool_available + TX_UCHAR_POINTER_DIF(next_block_ptr, w
 350:../Middlewares/threadx/common/src/tx_byte_release.c **** 
 351:../Middlewares/threadx/common/src/tx_byte_release.c ****                     /* Determine if the current pointer is before the search pointer.  */
ARM GAS  /tmp/ccNroJea.s 			page 22


 352:../Middlewares/threadx/common/src/tx_byte_release.c ****                     if (work_ptr < (pool_ptr -> tx_byte_pool_search))
 353:../Middlewares/threadx/common/src/tx_byte_release.c ****                     {
 354:../Middlewares/threadx/common/src/tx_byte_release.c **** 
 355:../Middlewares/threadx/common/src/tx_byte_release.c ****                         /* Yes, update the search pointer.  */
 356:../Middlewares/threadx/common/src/tx_byte_release.c ****                         pool_ptr -> tx_byte_pool_search =  work_ptr;
 357:../Middlewares/threadx/common/src/tx_byte_release.c ****                     }
 358:../Middlewares/threadx/common/src/tx_byte_release.c ****                 }
 359:../Middlewares/threadx/common/src/tx_byte_release.c ****             }
 360:../Middlewares/threadx/common/src/tx_byte_release.c **** 
 361:../Middlewares/threadx/common/src/tx_byte_release.c ****             /* Restore interrupts.  */
 362:../Middlewares/threadx/common/src/tx_byte_release.c ****             TX_RESTORE
 221              		.loc 1 362 13 view .LVU86
 222              	.LVL12:
 223              	.LBB42:
 224              	.LBI42:
 586:../Middlewares/threadx/ports/cortex_m55/gnu/inc/tx_port.h **** {
 225              		.loc 2 586 55 view .LVU87
 226              	.LBB43:
 591:../Middlewares/threadx/ports/cortex_m55/gnu/inc/tx_port.h **** #endif
 227              		.loc 2 591 5 view .LVU88
 228              		.syntax unified
 229              	@ 591 "../Middlewares/threadx/ports/cortex_m55/gnu/inc/tx_port.h" 1
 230 005e 86F31088 		MSR  PRIMASK,r6
 231              	@ 0 "" 2
 232              	.LVL13:
 591:../Middlewares/threadx/ports/cortex_m55/gnu/inc/tx_port.h **** #endif
 233              		.loc 2 591 5 is_stmt 0 view .LVU89
 234              		.thumb
 235              		.syntax unified
 236              	.LBE43:
 237              	.LBE42:
 363:../Middlewares/threadx/common/src/tx_byte_release.c **** 
 364:../Middlewares/threadx/common/src/tx_byte_release.c ****             /* Check for preemption.  */
 365:../Middlewares/threadx/common/src/tx_byte_release.c ****             _tx_thread_system_preempt_check();
 238              		.loc 1 365 13 is_stmt 1 view .LVU90
 239 0062 FFF7FEFF 		bl	_tx_thread_system_preempt_check
 240              	.LVL14:
 241              	.L20:
 100:../Middlewares/threadx/common/src/tx_byte_release.c **** 
 242              		.loc 1 100 12 is_stmt 0 view .LVU91
 243 0066 0020     		movs	r0, #0
 366:../Middlewares/threadx/common/src/tx_byte_release.c ****         }
 367:../Middlewares/threadx/common/src/tx_byte_release.c ****         else
 368:../Middlewares/threadx/common/src/tx_byte_release.c ****         {
 369:../Middlewares/threadx/common/src/tx_byte_release.c **** 
 370:../Middlewares/threadx/common/src/tx_byte_release.c ****             /* No, threads suspended, restore interrupts.  */
 371:../Middlewares/threadx/common/src/tx_byte_release.c ****             TX_RESTORE
 372:../Middlewares/threadx/common/src/tx_byte_release.c ****         }
 373:../Middlewares/threadx/common/src/tx_byte_release.c ****     }
 374:../Middlewares/threadx/common/src/tx_byte_release.c **** 
 375:../Middlewares/threadx/common/src/tx_byte_release.c ****     /* Return completion status.  */
 376:../Middlewares/threadx/common/src/tx_byte_release.c ****     return(status);
 244              		.loc 1 376 5 is_stmt 1 view .LVU92
 245              		.loc 1 376 11 is_stmt 0 view .LVU93
 246 0068 02E0     		b	.L1
 247              	.LVL15:
 248              	.L2:
ARM GAS  /tmp/ccNroJea.s 			page 23


 168:../Middlewares/threadx/common/src/tx_byte_release.c ****     }
 249              		.loc 1 168 9 is_stmt 1 view .LVU94
 250              	.LBB44:
 251              	.LBI44:
 586:../Middlewares/threadx/ports/cortex_m55/gnu/inc/tx_port.h **** {
 252              		.loc 2 586 55 view .LVU95
 253              	.LBB45:
 591:../Middlewares/threadx/ports/cortex_m55/gnu/inc/tx_port.h **** #endif
 254              		.loc 2 591 5 view .LVU96
 255              		.syntax unified
 256              	@ 591 "../Middlewares/threadx/ports/cortex_m55/gnu/inc/tx_port.h" 1
 257 006a 86F31088 		MSR  PRIMASK,r6
 258              	@ 0 "" 2
 259              	.LVL16:
 593:../Middlewares/threadx/ports/cortex_m55/gnu/inc/tx_port.h **** 
 260              		.loc 2 593 1 is_stmt 0 view .LVU97
 261              		.thumb
 262              		.syntax unified
 263 006e 0320     		movs	r0, #3
 264              	.LVL17:
 265              	.L1:
 593:../Middlewares/threadx/ports/cortex_m55/gnu/inc/tx_port.h **** 
 266              		.loc 2 593 1 view .LVU98
 267              	.LBE45:
 268              	.LBE44:
 377:../Middlewares/threadx/common/src/tx_byte_release.c **** }
 269              		.loc 1 377 1 view .LVU99
 270 0070 BDE8F883 		pop	{r3, r4, r5, r6, r7, r8, r9, pc}
 271              	.LVL18:
 272              	.L3:
 273              	.LBB46:
 191:../Middlewares/threadx/common/src/tx_byte_release.c **** 
 274              		.loc 1 191 9 discriminator 1 view .LVU100
 275 0074 454A     		ldr	r2, .L39+16
 276 0076 1268     		ldr	r2, [r2]
 277 0078 5207     		lsls	r2, r2, #29
 278 007a D8D5     		bpl	.L4
 191:../Middlewares/threadx/common/src/tx_byte_release.c **** 
 279              		.loc 1 191 9 is_stmt 1 discriminator 2 view .LVU101
 280              	.LBB38:
 281              	.LBI38:
 507:../Middlewares/threadx/ports/cortex_m55/gnu/inc/tx_port.h **** {
 282              		.loc 2 507 55 view .LVU102
 283              	.LBB39:
 509:../Middlewares/threadx/ports/cortex_m55/gnu/inc/tx_port.h ****     __asm__ volatile (" MRS  %0,IPSR ": "=r" (ipsr_value) );
 284              		.loc 2 509 1 view .LVU103
 510:../Middlewares/threadx/ports/cortex_m55/gnu/inc/tx_port.h ****     return(ipsr_value);
 285              		.loc 2 510 5 view .LVU104
 286              		.syntax unified
 287              	@ 510 "../Middlewares/threadx/ports/cortex_m55/gnu/inc/tx_port.h" 1
 288 007c EFF30580 		 MRS  r0,IPSR 
 289              	@ 0 "" 2
 290              	.LVL19:
 511:../Middlewares/threadx/ports/cortex_m55/gnu/inc/tx_port.h **** }
 291              		.loc 2 511 5 view .LVU105
 511:../Middlewares/threadx/ports/cortex_m55/gnu/inc/tx_port.h **** }
 292              		.loc 2 511 5 is_stmt 0 view .LVU106
ARM GAS  /tmp/ccNroJea.s 			page 24


 293              		.thumb
 294              		.syntax unified
 295              	.LBE39:
 296              	.LBE38:
 191:../Middlewares/threadx/common/src/tx_byte_release.c **** 
 297              		.loc 1 191 9 discriminator 1 view .LVU107
 298 0080 434A     		ldr	r2, .L39+20
 299 0082 1268     		ldr	r2, [r2]
 300              	.LVL20:
 191:../Middlewares/threadx/common/src/tx_byte_release.c **** 
 301              		.loc 1 191 9 is_stmt 1 discriminator 1 view .LVU108
 191:../Middlewares/threadx/common/src/tx_byte_release.c **** 
 302              		.loc 1 191 9 discriminator 1 view .LVU109
 303 0084 0243     		orrs	r2, r2, r0
 304              	.LVL21:
 191:../Middlewares/threadx/common/src/tx_byte_release.c **** 
 305              		.loc 1 191 9 is_stmt 0 discriminator 1 view .LVU110
 306 0086 26D1     		bne	.L7
 191:../Middlewares/threadx/common/src/tx_byte_release.c **** 
 307              		.loc 1 191 9 is_stmt 1 discriminator 3 view .LVU111
 308              	.LVL22:
 191:../Middlewares/threadx/common/src/tx_byte_release.c **** 
 309              		.loc 1 191 9 view .LVU112
 191:../Middlewares/threadx/common/src/tx_byte_release.c **** 
 310              		.loc 1 191 9 is_stmt 0 discriminator 3 view .LVU113
 311 0088 F86B     		ldr	r0, [r7, #60]
 312 008a FA6A     		ldr	r2, [r7, #44]
 313              	.LVL23:
 191:../Middlewares/threadx/common/src/tx_byte_release.c **** 
 314              		.loc 1 191 9 discriminator 3 view .LVU114
 315 008c 42EA0042 		orr	r2, r2, r0, lsl #16
 191:../Middlewares/threadx/common/src/tx_byte_release.c **** 
 316              		.loc 1 191 9 discriminator 1 view .LVU115
 317 0090 3846     		mov	r0, r7
 191:../Middlewares/threadx/common/src/tx_byte_release.c **** 
 318              		.loc 1 191 9 discriminator 3 view .LVU116
 319 0092 42F00042 		orr	r2, r2, #-2147483648
 320              	.LVL24:
 321              	.L8:
 191:../Middlewares/threadx/common/src/tx_byte_release.c **** 
 322              		.loc 1 191 9 is_stmt 1 discriminator 9 view .LVU117
 323 0096 C3E90002 		strd	r0, r2, [r3]
 191:../Middlewares/threadx/common/src/tx_byte_release.c **** 
 324              		.loc 1 191 9 view .LVU118
 191:../Middlewares/threadx/common/src/tx_byte_release.c **** 
 325              		.loc 1 191 9 is_stmt 0 discriminator 9 view .LVU119
 326 009a 1B22     		movs	r2, #27
 327              	.LVL25:
 191:../Middlewares/threadx/common/src/tx_byte_release.c **** 
 328              		.loc 1 191 9 discriminator 9 view .LVU120
 329 009c 9A60     		str	r2, [r3, #8]
 191:../Middlewares/threadx/common/src/tx_byte_release.c **** 
 330              		.loc 1 191 9 is_stmt 1 view .LVU121
 191:../Middlewares/threadx/common/src/tx_byte_release.c **** 
 331              		.loc 1 191 9 is_stmt 0 discriminator 9 view .LVU122
 332 009e 3D4A     		ldr	r2, .L39+24
 333 00a0 5268     		ldr	r2, [r2, #4]
ARM GAS  /tmp/ccNroJea.s 			page 25


 334 00a2 5D61     		str	r5, [r3, #20]
 335 00a4 C3E90324 		strd	r2, r4, [r3, #12]
 191:../Middlewares/threadx/common/src/tx_byte_release.c **** 
 336              		.loc 1 191 9 is_stmt 1 view .LVU123
 191:../Middlewares/threadx/common/src/tx_byte_release.c **** 
 337              		.loc 1 191 9 view .LVU124
 191:../Middlewares/threadx/common/src/tx_byte_release.c **** 
 338              		.loc 1 191 9 is_stmt 0 discriminator 9 view .LVU125
 339 00a8 A26A     		ldr	r2, [r4, #40]
 340 00aa 2033     		adds	r3, r3, #32
 341              	.LVL26:
 191:../Middlewares/threadx/common/src/tx_byte_release.c **** 
 342              		.loc 1 191 9 discriminator 9 view .LVU126
 343 00ac 43F8082C 		str	r2, [r3, #-8]
 191:../Middlewares/threadx/common/src/tx_byte_release.c **** 
 344              		.loc 1 191 9 is_stmt 1 view .LVU127
 191:../Middlewares/threadx/common/src/tx_byte_release.c **** 
 345              		.loc 1 191 9 is_stmt 0 discriminator 9 view .LVU128
 346 00b0 A268     		ldr	r2, [r4, #8]
 347 00b2 43F8042C 		str	r2, [r3, #-4]
 191:../Middlewares/threadx/common/src/tx_byte_release.c **** 
 348              		.loc 1 191 9 is_stmt 1 view .LVU129
 349              	.LVL27:
 191:../Middlewares/threadx/common/src/tx_byte_release.c **** 
 350              		.loc 1 191 9 view .LVU130
 191:../Middlewares/threadx/common/src/tx_byte_release.c **** 
 351              		.loc 1 191 9 is_stmt 0 discriminator 10 view .LVU131
 352 00b6 384A     		ldr	r2, .L39+28
 353 00b8 1068     		ldr	r0, [r2]
 354              	.LVL28:
 191:../Middlewares/threadx/common/src/tx_byte_release.c **** 
 355              		.loc 1 191 9 discriminator 9 view .LVU132
 356 00ba 384A     		ldr	r2, .L39+32
 357 00bc 1268     		ldr	r2, [r2]
 358 00be 9A42     		cmp	r2, r3
 359 00c0 13D8     		bhi	.L9
 191:../Middlewares/threadx/common/src/tx_byte_release.c **** 
 360              		.loc 1 191 9 is_stmt 1 discriminator 10 view .LVU133
 361 00c2 374B     		ldr	r3, .L39+36
 362              	.LVL29:
 191:../Middlewares/threadx/common/src/tx_byte_release.c **** 
 363              		.loc 1 191 9 is_stmt 0 discriminator 10 view .LVU134
 364 00c4 1B68     		ldr	r3, [r3]
 365              	.LVL30:
 191:../Middlewares/threadx/common/src/tx_byte_release.c **** 
 366              		.loc 1 191 9 is_stmt 1 view .LVU135
 191:../Middlewares/threadx/common/src/tx_byte_release.c **** 
 367              		.loc 1 191 9 is_stmt 0 discriminator 10 view .LVU136
 368 00c6 0B60     		str	r3, [r1]
 369              	.LVL31:
 191:../Middlewares/threadx/common/src/tx_byte_release.c **** 
 370              		.loc 1 191 9 is_stmt 1 view .LVU137
 191:../Middlewares/threadx/common/src/tx_byte_release.c **** 
 371              		.loc 1 191 9 is_stmt 0 discriminator 10 view .LVU138
 372 00c8 0362     		str	r3, [r0, #32]
 191:../Middlewares/threadx/common/src/tx_byte_release.c **** 
 373              		.loc 1 191 9 is_stmt 1 view .LVU139
ARM GAS  /tmp/ccNroJea.s 			page 26


 191:../Middlewares/threadx/common/src/tx_byte_release.c **** 
 374              		.loc 1 191 9 is_stmt 0 discriminator 10 view .LVU140
 375 00ca 364B     		ldr	r3, .L39+40
 376              	.LVL32:
 191:../Middlewares/threadx/common/src/tx_byte_release.c **** 
 377              		.loc 1 191 9 discriminator 10 view .LVU141
 378 00cc 1B68     		ldr	r3, [r3]
 379 00ce 002B     		cmp	r3, #0
 380 00d0 ADD0     		beq	.L4
 191:../Middlewares/threadx/common/src/tx_byte_release.c **** 
 381              		.loc 1 191 9 is_stmt 1 discriminator 12 view .LVU142
 382 00d2 9847     		blx	r3
 383              	.LVL33:
 191:../Middlewares/threadx/common/src/tx_byte_release.c **** 
 384              		.loc 1 191 9 is_stmt 0 discriminator 12 view .LVU143
 385 00d4 ABE7     		b	.L4
 386              	.LVL34:
 387              	.L7:
 191:../Middlewares/threadx/common/src/tx_byte_release.c **** 
 388              		.loc 1 191 9 is_stmt 1 discriminator 4 view .LVU144
 389 00d6 B2F1F03F 		cmp	r2, #-252645136
 191:../Middlewares/threadx/common/src/tx_byte_release.c **** 
 390              		.loc 1 191 9 discriminator 6 view .LVU145
 391 00da 39BF     		ittee	cc
 392 00dc 3A46     		movcc	r2, r7
 393              	.LVL35:
 191:../Middlewares/threadx/common/src/tx_byte_release.c **** 
 394              		.loc 1 191 9 view .LVU146
 191:../Middlewares/threadx/common/src/tx_byte_release.c **** 
 395              		.loc 1 191 9 is_stmt 0 discriminator 6 view .LVU147
 396 00de 4FF0FF30 		movcc	r0, #-1
 191:../Middlewares/threadx/common/src/tx_byte_release.c **** 
 397              		.loc 1 191 9 discriminator 7 view .LVU148
 398 00e2 4FF0F030 		movcs	r0, #-252645136
 399 00e6 0022     		movcs	r2, #0
 400 00e8 D5E7     		b	.L8
 401              	.LVL36:
 402              	.L9:
 191:../Middlewares/threadx/common/src/tx_byte_release.c **** 
 403              		.loc 1 191 9 is_stmt 1 discriminator 11 view .LVU149
 404 00ea 0B60     		str	r3, [r1]
 405              	.LVL37:
 191:../Middlewares/threadx/common/src/tx_byte_release.c **** 
 406              		.loc 1 191 9 view .LVU150
 191:../Middlewares/threadx/common/src/tx_byte_release.c **** 
 407              		.loc 1 191 9 is_stmt 0 discriminator 11 view .LVU151
 408 00ec 0362     		str	r3, [r0, #32]
 409 00ee 9EE7     		b	.L4
 410              	.LVL38:
 411              	.L19:
 191:../Middlewares/threadx/common/src/tx_byte_release.c **** 
 412              		.loc 1 191 9 discriminator 11 view .LVU152
 413              	.LBE46:
 225:../Middlewares/threadx/common/src/tx_byte_release.c **** 
 414              		.loc 1 225 17 is_stmt 1 view .LVU153
 225:../Middlewares/threadx/common/src/tx_byte_release.c **** 
 415              		.loc 1 225 33 is_stmt 0 view .LVU154
ARM GAS  /tmp/ccNroJea.s 			page 27


 416 00f0 656A     		ldr	r5, [r4, #36]
 417              	.LVL39:
 228:../Middlewares/threadx/common/src/tx_byte_release.c **** 
 418              		.loc 1 228 17 is_stmt 1 view .LVU155
 228:../Middlewares/threadx/common/src/tx_byte_release.c **** 
 419              		.loc 1 228 29 is_stmt 0 view .LVU156
 420 00f2 D5F87890 		ldr	r9, [r5, #120]
 421              	.LVL40:
 231:../Middlewares/threadx/common/src/tx_byte_release.c **** 
 422              		.loc 1 231 17 is_stmt 1 view .LVU157
 423              	.LBB47:
 424              	.LBI47:
 586:../Middlewares/threadx/ports/cortex_m55/gnu/inc/tx_port.h **** {
 425              		.loc 2 586 55 view .LVU158
 426              	.LBB48:
 591:../Middlewares/threadx/ports/cortex_m55/gnu/inc/tx_port.h **** #endif
 427              		.loc 2 591 5 view .LVU159
 428              		.syntax unified
 429              	@ 591 "../Middlewares/threadx/ports/cortex_m55/gnu/inc/tx_port.h" 1
 430 00f6 86F31088 		MSR  PRIMASK,r6
 431              	@ 0 "" 2
 432              	.LVL41:
 591:../Middlewares/threadx/ports/cortex_m55/gnu/inc/tx_port.h **** #endif
 433              		.loc 2 591 5 is_stmt 0 view .LVU160
 434              		.thumb
 435              		.syntax unified
 436              	.LBE48:
 437              	.LBE47:
 234:../Middlewares/threadx/common/src/tx_byte_release.c **** 
 438              		.loc 1 234 17 is_stmt 1 view .LVU161
 234:../Middlewares/threadx/common/src/tx_byte_release.c **** 
 439              		.loc 1 234 29 is_stmt 0 view .LVU162
 440 00fa 4946     		mov	r1, r9
 441 00fc 2046     		mov	r0, r4
 442 00fe FFF7FEFF 		bl	_tx_byte_pool_search
 443              	.LVL42:
 240:../Middlewares/threadx/common/src/tx_byte_release.c **** 
 444              		.loc 1 240 17 is_stmt 1 view .LVU163
 445              	.LBB49:
 446              	.LBI49:
 595:../Middlewares/threadx/ports/cortex_m55/gnu/inc/tx_port.h **** {
 447              		.loc 2 595 55 view .LVU164
 448              	.LBB50:
 597:../Middlewares/threadx/ports/cortex_m55/gnu/inc/tx_port.h **** 
 449              		.loc 2 597 1 view .LVU165
 599:../Middlewares/threadx/ports/cortex_m55/gnu/inc/tx_port.h **** 
 450              		.loc 2 599 5 view .LVU166
 451              	.LBB51:
 452              	.LBI51:
 563:../Middlewares/threadx/ports/cortex_m55/gnu/inc/tx_port.h **** {
 453              		.loc 2 563 55 view .LVU167
 454              	.LBB52:
 565:../Middlewares/threadx/ports/cortex_m55/gnu/inc/tx_port.h **** #ifdef TX_PORT_USE_BASEPRI
 455              		.loc 2 565 1 view .LVU168
 569:../Middlewares/threadx/ports/cortex_m55/gnu/inc/tx_port.h **** #endif
 456              		.loc 2 569 5 view .LVU169
 457              		.syntax unified
ARM GAS  /tmp/ccNroJea.s 			page 28


 458              	@ 569 "../Middlewares/threadx/ports/cortex_m55/gnu/inc/tx_port.h" 1
 459 0102 EFF31086 		MRS  r6, PRIMASK 
 460              	@ 0 "" 2
 461              	.LVL43:
 571:../Middlewares/threadx/ports/cortex_m55/gnu/inc/tx_port.h **** }
 462              		.loc 2 571 5 view .LVU170
 571:../Middlewares/threadx/ports/cortex_m55/gnu/inc/tx_port.h **** }
 463              		.loc 2 571 5 is_stmt 0 view .LVU171
 464              		.thumb
 465              		.syntax unified
 466              	.LBE52:
 467              	.LBE51:
 604:../Middlewares/threadx/ports/cortex_m55/gnu/inc/tx_port.h **** #endif
 468              		.loc 2 604 5 is_stmt 1 view .LVU172
 469              		.syntax unified
 470              	@ 604 "../Middlewares/threadx/ports/cortex_m55/gnu/inc/tx_port.h" 1
 471 0106 72B6     		CPSID i
 472              	@ 0 "" 2
 473              		.loc 2 606 5 view .LVU173
 474              	.LVL44:
 475              		.loc 2 606 5 is_stmt 0 view .LVU174
 476              		.thumb
 477              		.syntax unified
 478              	.LBE50:
 479              	.LBE49:
 243:../Middlewares/threadx/common/src/tx_byte_release.c **** 
 480              		.loc 1 243 17 is_stmt 1 view .LVU175
 243:../Middlewares/threadx/common/src/tx_byte_release.c **** 
 481              		.loc 1 243 48 is_stmt 0 view .LVU176
 482 0108 2762     		str	r7, [r4, #32]
 246:../Middlewares/threadx/common/src/tx_byte_release.c ****                 {
 483              		.loc 1 246 17 is_stmt 1 view .LVU177
 246:../Middlewares/threadx/common/src/tx_byte_release.c ****                 {
 484              		.loc 1 246 20 is_stmt 0 view .LVU178
 485 010a 0028     		cmp	r0, #0
 486 010c A7D0     		beq	.L13
 254:../Middlewares/threadx/common/src/tx_byte_release.c ****                 {
 487              		.loc 1 254 17 is_stmt 1 view .LVU179
 254:../Middlewares/threadx/common/src/tx_byte_release.c ****                 {
 488              		.loc 1 254 20 is_stmt 0 view .LVU180
 489 010e 636A     		ldr	r3, [r4, #36]
 490 0110 AB42     		cmp	r3, r5
 491 0112 20D1     		bne	.L14
 258:../Middlewares/threadx/common/src/tx_byte_release.c ****                     {
 492              		.loc 1 258 21 is_stmt 1 view .LVU181
 258:../Middlewares/threadx/common/src/tx_byte_release.c ****                     {
 493              		.loc 1 258 24 is_stmt 0 view .LVU182
 494 0114 AB6F     		ldr	r3, [r5, #120]
 495 0116 4B45     		cmp	r3, r9
 496 0118 1DD1     		bne	.L14
 264:../Middlewares/threadx/common/src/tx_byte_release.c **** 
 497              		.loc 1 264 25 is_stmt 1 view .LVU183
 264:../Middlewares/threadx/common/src/tx_byte_release.c **** 
 498              		.loc 1 264 65 is_stmt 0 view .LVU184
 499 011a A36A     		ldr	r3, [r4, #40]
 500 011c 013B     		subs	r3, r3, #1
 501 011e A362     		str	r3, [r4, #40]
ARM GAS  /tmp/ccNroJea.s 			page 29


 267:../Middlewares/threadx/common/src/tx_byte_release.c **** 
 502              		.loc 1 267 25 is_stmt 1 view .LVU185
 503              	.LVL45:
 270:../Middlewares/threadx/common/src/tx_byte_release.c ****                         {
 504              		.loc 1 270 25 view .LVU186
 270:../Middlewares/threadx/common/src/tx_byte_release.c ****                         {
 505              		.loc 1 270 28 is_stmt 0 view .LVU187
 506 0120 9BB9     		cbnz	r3, .L15
 276:../Middlewares/threadx/common/src/tx_byte_release.c ****                         }
 507              		.loc 1 276 29 is_stmt 1 view .LVU188
 276:../Middlewares/threadx/common/src/tx_byte_release.c ****                         }
 508              		.loc 1 276 70 is_stmt 0 view .LVU189
 509 0122 6362     		str	r3, [r4, #36]
 510              	.LVL46:
 511              	.L16:
 296:../Middlewares/threadx/common/src/tx_byte_release.c **** 
 512              		.loc 1 296 25 is_stmt 1 view .LVU190
 296:../Middlewares/threadx/common/src/tx_byte_release.c **** 
 513              		.loc 1 296 70 is_stmt 0 view .LVU191
 514 0124 0023     		movs	r3, #0
 300:../Middlewares/threadx/common/src/tx_byte_release.c ****                         *suspend_info_ptr =  work_ptr;
 515              		.loc 1 300 42 view .LVU192
 516 0126 EA6F     		ldr	r2, [r5, #124]
 296:../Middlewares/threadx/common/src/tx_byte_release.c **** 
 517              		.loc 1 296 70 view .LVU193
 518 0128 AB66     		str	r3, [r5, #104]
 300:../Middlewares/threadx/common/src/tx_byte_release.c ****                         *suspend_info_ptr =  work_ptr;
 519              		.loc 1 300 25 is_stmt 1 view .LVU194
 520              	.LVL47:
 301:../Middlewares/threadx/common/src/tx_byte_release.c **** 
 521              		.loc 1 301 25 view .LVU195
 301:../Middlewares/threadx/common/src/tx_byte_release.c **** 
 522              		.loc 1 301 43 is_stmt 0 view .LVU196
 523 012a 1060     		str	r0, [r2]
 304:../Middlewares/threadx/common/src/tx_byte_release.c **** 
 524              		.loc 1 304 25 is_stmt 1 view .LVU197
 525              	.LVL48:
 307:../Middlewares/threadx/common/src/tx_byte_release.c **** 
 526              		.loc 1 307 25 view .LVU198
 318:../Middlewares/threadx/common/src/tx_byte_release.c **** 
 527              		.loc 1 318 51 is_stmt 0 view .LVU199
 528 012c 1E4A     		ldr	r2, .L39+44
 529              	.LVL49:
 307:../Middlewares/threadx/common/src/tx_byte_release.c **** 
 530              		.loc 1 307 69 view .LVU200
 531 012e C5F88430 		str	r3, [r5, #132]
 318:../Middlewares/threadx/common/src/tx_byte_release.c **** 
 532              		.loc 1 318 25 is_stmt 1 view .LVU201
 318:../Middlewares/threadx/common/src/tx_byte_release.c **** 
 533              		.loc 1 318 51 is_stmt 0 view .LVU202
 534 0132 1368     		ldr	r3, [r2]
 535 0134 0133     		adds	r3, r3, #1
 536 0136 1360     		str	r3, [r2]
 321:../Middlewares/threadx/common/src/tx_byte_release.c **** 
 537              		.loc 1 321 25 is_stmt 1 view .LVU203
 538              	.LVL50:
 539              	.LBB53:
ARM GAS  /tmp/ccNroJea.s 			page 30


 540              	.LBI53:
 586:../Middlewares/threadx/ports/cortex_m55/gnu/inc/tx_port.h **** {
 541              		.loc 2 586 55 view .LVU204
 542              	.LBB54:
 591:../Middlewares/threadx/ports/cortex_m55/gnu/inc/tx_port.h **** #endif
 543              		.loc 2 591 5 view .LVU205
 544              		.syntax unified
 545              	@ 591 "../Middlewares/threadx/ports/cortex_m55/gnu/inc/tx_port.h" 1
 546 0138 86F31088 		MSR  PRIMASK,r6
 547              	@ 0 "" 2
 548              	.LVL51:
 591:../Middlewares/threadx/ports/cortex_m55/gnu/inc/tx_port.h **** #endif
 549              		.loc 2 591 5 is_stmt 0 view .LVU206
 550              		.thumb
 551              		.syntax unified
 552              	.LBE54:
 553              	.LBE53:
 324:../Middlewares/threadx/common/src/tx_byte_release.c **** #endif
 554              		.loc 1 324 25 is_stmt 1 view .LVU207
 555 013c 2846     		mov	r0, r5
 556 013e FFF7FEFF 		bl	_tx_thread_system_resume
 557              	.LVL52:
 328:../Middlewares/threadx/common/src/tx_byte_release.c ****                     }
 558              		.loc 1 328 25 view .LVU208
 559              	.LBB55:
 560              	.LBI55:
 595:../Middlewares/threadx/ports/cortex_m55/gnu/inc/tx_port.h **** {
 561              		.loc 2 595 55 view .LVU209
 562              	.LBB56:
 597:../Middlewares/threadx/ports/cortex_m55/gnu/inc/tx_port.h **** 
 563              		.loc 2 597 1 view .LVU210
 599:../Middlewares/threadx/ports/cortex_m55/gnu/inc/tx_port.h **** 
 564              		.loc 2 599 5 view .LVU211
 565              	.LBB57:
 566              	.LBI57:
 563:../Middlewares/threadx/ports/cortex_m55/gnu/inc/tx_port.h **** {
 567              		.loc 2 563 55 view .LVU212
 568              	.LBB58:
 565:../Middlewares/threadx/ports/cortex_m55/gnu/inc/tx_port.h **** #ifdef TX_PORT_USE_BASEPRI
 569              		.loc 2 565 1 view .LVU213
 569:../Middlewares/threadx/ports/cortex_m55/gnu/inc/tx_port.h **** #endif
 570              		.loc 2 569 5 view .LVU214
 571              		.syntax unified
 572              	@ 569 "../Middlewares/threadx/ports/cortex_m55/gnu/inc/tx_port.h" 1
 573 0142 EFF31086 		MRS  r6, PRIMASK 
 574              	@ 0 "" 2
 575              	.LVL53:
 571:../Middlewares/threadx/ports/cortex_m55/gnu/inc/tx_port.h **** }
 576              		.loc 2 571 5 view .LVU215
 571:../Middlewares/threadx/ports/cortex_m55/gnu/inc/tx_port.h **** }
 577              		.loc 2 571 5 is_stmt 0 view .LVU216
 578              		.thumb
 579              		.syntax unified
 580              	.LBE58:
 581              	.LBE57:
 604:../Middlewares/threadx/ports/cortex_m55/gnu/inc/tx_port.h **** #endif
 582              		.loc 2 604 5 is_stmt 1 view .LVU217
ARM GAS  /tmp/ccNroJea.s 			page 31


 583              		.syntax unified
 584              	@ 604 "../Middlewares/threadx/ports/cortex_m55/gnu/inc/tx_port.h" 1
 585 0146 72B6     		CPSID i
 586              	@ 0 "" 2
 587              		.loc 2 606 5 view .LVU218
 588              	.LVL54:
 589              		.loc 2 606 5 is_stmt 0 view .LVU219
 590              		.thumb
 591              		.syntax unified
 592              	.LBE56:
 593              	.LBE55:
 333:../Middlewares/threadx/common/src/tx_byte_release.c ****                 {
 594              		.loc 1 333 17 is_stmt 1 view .LVU220
 595 0148 86E7     		b	.L11
 596              	.LVL55:
 597              	.L15:
 284:../Middlewares/threadx/common/src/tx_byte_release.c ****                             pool_ptr -> tx_byte_pool_suspension_list =   next_thread;
 598              		.loc 1 284 29 view .LVU221
 284:../Middlewares/threadx/common/src/tx_byte_release.c ****                             pool_ptr -> tx_byte_pool_suspension_list =   next_thread;
 599              		.loc 1 284 41 is_stmt 0 view .LVU222
 600 014a 2B6F     		ldr	r3, [r5, #112]
 601              	.LVL56:
 285:../Middlewares/threadx/common/src/tx_byte_release.c **** 
 602              		.loc 1 285 29 is_stmt 1 view .LVU223
 288:../Middlewares/threadx/common/src/tx_byte_release.c ****                             next_thread -> tx_thread_suspended_previous =  previous_thread;
 603              		.loc 1 288 45 is_stmt 0 view .LVU224
 604 014c 6A6F     		ldr	r2, [r5, #116]
 285:../Middlewares/threadx/common/src/tx_byte_release.c **** 
 605              		.loc 1 285 70 view .LVU225
 606 014e 6362     		str	r3, [r4, #36]
 288:../Middlewares/threadx/common/src/tx_byte_release.c ****                             next_thread -> tx_thread_suspended_previous =  previous_thread;
 607              		.loc 1 288 29 is_stmt 1 view .LVU226
 608              	.LVL57:
 289:../Middlewares/threadx/common/src/tx_byte_release.c ****                             previous_thread -> tx_thread_suspended_next =  next_thread;
 609              		.loc 1 289 29 view .LVU227
 289:../Middlewares/threadx/common/src/tx_byte_release.c ****                             previous_thread -> tx_thread_suspended_next =  next_thread;
 610              		.loc 1 289 73 is_stmt 0 view .LVU228
 611 0150 5A67     		str	r2, [r3, #116]
 290:../Middlewares/threadx/common/src/tx_byte_release.c ****                         }
 612              		.loc 1 290 29 is_stmt 1 view .LVU229
 290:../Middlewares/threadx/common/src/tx_byte_release.c ****                         }
 613              		.loc 1 290 73 is_stmt 0 view .LVU230
 614 0152 1367     		str	r3, [r2, #112]
 615 0154 E6E7     		b	.L16
 616              	.LVL58:
 617              	.L14:
 340:../Middlewares/threadx/common/src/tx_byte_release.c ****                     temp_ptr =  TX_UCHAR_POINTER_ADD(work_ptr, (sizeof(UCHAR *)));
 618              		.loc 1 340 21 is_stmt 1 view .LVU231
 349:../Middlewares/threadx/common/src/tx_byte_release.c **** 
 619              		.loc 1 349 62 is_stmt 0 view .LVU232
 620 0156 50F8081C 		ldr	r1, [r0, #-8]
 343:../Middlewares/threadx/common/src/tx_byte_release.c **** 
 621              		.loc 1 343 31 view .LVU233
 622 015a 40F8048C 		str	r8, [r0, #-4]
 340:../Middlewares/threadx/common/src/tx_byte_release.c ****                     temp_ptr =  TX_UCHAR_POINTER_ADD(work_ptr, (sizeof(UCHAR *)));
 623              		.loc 1 340 30 view .LVU234
 624 015e A0F10803 		sub	r3, r0, #8
ARM GAS  /tmp/ccNroJea.s 			page 32


 625              	.LVL59:
 341:../Middlewares/threadx/common/src/tx_byte_release.c ****                     free_ptr =  TX_UCHAR_TO_ALIGN_TYPE_POINTER_CONVERT(temp_ptr);
 626              		.loc 1 341 21 is_stmt 1 view .LVU235
 342:../Middlewares/threadx/common/src/tx_byte_release.c ****                     *free_ptr =  TX_BYTE_BLOCK_FREE;
 627              		.loc 1 342 21 view .LVU236
 343:../Middlewares/threadx/common/src/tx_byte_release.c **** 
 628              		.loc 1 343 21 view .LVU237
 346:../Middlewares/threadx/common/src/tx_byte_release.c ****                     next_block_ptr =  *block_link_ptr;
 629              		.loc 1 346 21 view .LVU238
 347:../Middlewares/threadx/common/src/tx_byte_release.c ****                     pool_ptr -> tx_byte_pool_available =
 630              		.loc 1 347 21 view .LVU239
 348:../Middlewares/threadx/common/src/tx_byte_release.c ****                         pool_ptr -> tx_byte_pool_available + TX_UCHAR_POINTER_DIF(next_block_ptr, w
 631              		.loc 1 348 21 view .LVU240
 349:../Middlewares/threadx/common/src/tx_byte_release.c **** 
 632              		.loc 1 349 60 is_stmt 0 view .LVU241
 633 0162 A268     		ldr	r2, [r4, #8]
 349:../Middlewares/threadx/common/src/tx_byte_release.c **** 
 634              		.loc 1 349 62 view .LVU242
 635 0164 C91A     		subs	r1, r1, r3
 636              	.LVL60:
 349:../Middlewares/threadx/common/src/tx_byte_release.c **** 
 637              		.loc 1 349 60 view .LVU243
 638 0166 0A44     		add	r2, r2, r1
 348:../Middlewares/threadx/common/src/tx_byte_release.c ****                         pool_ptr -> tx_byte_pool_available + TX_UCHAR_POINTER_DIF(next_block_ptr, w
 639              		.loc 1 348 56 view .LVU244
 640 0168 A260     		str	r2, [r4, #8]
 352:../Middlewares/threadx/common/src/tx_byte_release.c ****                     {
 641              		.loc 1 352 21 is_stmt 1 view .LVU245
 352:../Middlewares/threadx/common/src/tx_byte_release.c ****                     {
 642              		.loc 1 352 24 is_stmt 0 view .LVU246
 643 016a 6269     		ldr	r2, [r4, #20]
 644 016c 9A42     		cmp	r2, r3
 356:../Middlewares/threadx/common/src/tx_byte_release.c ****                     }
 645              		.loc 1 356 25 is_stmt 1 view .LVU247
 356:../Middlewares/threadx/common/src/tx_byte_release.c ****                     }
 646              		.loc 1 356 57 is_stmt 0 view .LVU248
 647 016e 88BF     		it	hi
 648 0170 6361     		strhi	r3, [r4, #20]
 649              	.LVL61:
 356:../Middlewares/threadx/common/src/tx_byte_release.c ****                     }
 650              		.loc 1 356 57 view .LVU249
 651 0172 71E7     		b	.L11
 652              	.LVL62:
 653              	.L38:
 371:../Middlewares/threadx/common/src/tx_byte_release.c ****         }
 654              		.loc 1 371 13 is_stmt 1 view .LVU250
 655              	.LBB59:
 656              	.LBI59:
 586:../Middlewares/threadx/ports/cortex_m55/gnu/inc/tx_port.h **** {
 657              		.loc 2 586 55 view .LVU251
 658              	.LBB60:
 591:../Middlewares/threadx/ports/cortex_m55/gnu/inc/tx_port.h **** #endif
 659              		.loc 2 591 5 view .LVU252
 660              		.syntax unified
 661              	@ 591 "../Middlewares/threadx/ports/cortex_m55/gnu/inc/tx_port.h" 1
 662 0174 86F31088 		MSR  PRIMASK,r6
 663              	@ 0 "" 2
ARM GAS  /tmp/ccNroJea.s 			page 33


 664              	.LVL63:
 593:../Middlewares/threadx/ports/cortex_m55/gnu/inc/tx_port.h **** 
 665              		.loc 2 593 1 is_stmt 0 view .LVU253
 666              		.thumb
 667              		.syntax unified
 668 0178 75E7     		b	.L20
 669              	.L40:
 670 017a 00BF     		.align	2
 671              	.L39:
 672 017c EEEEFFFF 		.word	-4370
 673 0180 45545942 		.word	1113150533
 674 0184 00000000 		.word	_tx_thread_current_ptr
 675 0188 00000000 		.word	_tx_trace_buffer_current_ptr
 676 018c 00000000 		.word	_tx_trace_event_enable_bits
 677 0190 00000000 		.word	_tx_thread_system_state
 678 0194 001000E0 		.word	-536866816
 679 0198 00000000 		.word	_tx_trace_header_ptr
 680 019c 00000000 		.word	_tx_trace_buffer_end_ptr
 681 01a0 00000000 		.word	_tx_trace_buffer_start_ptr
 682 01a4 00000000 		.word	_tx_trace_full_notify_function
 683 01a8 00000000 		.word	_tx_thread_preempt_disable
 684              	.LBE60:
 685              	.LBE59:
 686              		.cfi_endproc
 687              	.LFE8:
 689              		.text
 690              	.Letext0:
 691              		.file 3 "../Middlewares/threadx/common/inc/tx_api.h"
 692              		.file 4 "../Middlewares/threadx/common/inc/tx_thread.h"
 693              		.file 5 "../Middlewares/threadx/common/inc/tx_trace.h"
 694              		.file 6 "../Middlewares/threadx/common/inc/tx_byte_pool.h"
ARM GAS  /tmp/ccNroJea.s 			page 34

