ARM GAS  /tmp/cciJDKbP.s 			page 1


   1              		.arch armv8.1-m.main
   2              		.fpu fpv5-d16
   3              		.arch_extension dsp
   4              		.arch_extension fp
   5              		.arch_extension fp.dp
   6              		.arch_extension mve
   7              		.arch_extension mve.fp
   8              		.eabi_attribute 5, "cortex-m55"
   9              		.eabi_attribute 28, 1
  10              		.eabi_attribute 20, 1
  11              		.eabi_attribute 21, 1
  12              		.eabi_attribute 23, 3
  13              		.eabi_attribute 24, 1
  14              		.eabi_attribute 25, 1
  15              		.eabi_attribute 26, 1
  16              		.eabi_attribute 30, 4
  17              		.eabi_attribute 34, 1
  18              		.eabi_attribute 38, 1
  19              		.eabi_attribute 18, 4
  20              		.file	"tx_block_pool_create.c"
  21              		.text
  22              	.Ltext0:
  23              		.cfi_sections	.debug_frame
  24              		.file 1 "../Middlewares/threadx/common/src/tx_block_pool_create.c"
  25              		.section	.text._tx_block_pool_create,"ax",%progbits
  26              		.align	1
  27              		.global	_tx_block_pool_create
  28              		.syntax unified
  29              		.thumb
  30              		.thumb_func
  32              	_tx_block_pool_create:
  33              	.LVL0:
  34              	.LFB8:
   1:../Middlewares/threadx/common/src/tx_block_pool_create.c **** /**************************************************************************/
   2:../Middlewares/threadx/common/src/tx_block_pool_create.c **** /*                                                                        */
   3:../Middlewares/threadx/common/src/tx_block_pool_create.c **** /*       Copyright (c) Microsoft Corporation. All rights reserved.        */
   4:../Middlewares/threadx/common/src/tx_block_pool_create.c **** /*                                                                        */
   5:../Middlewares/threadx/common/src/tx_block_pool_create.c **** /*       This software is licensed under the Microsoft Software License   */
   6:../Middlewares/threadx/common/src/tx_block_pool_create.c **** /*       Terms for Microsoft Azure RTOS. Full text of the license can be  */
   7:../Middlewares/threadx/common/src/tx_block_pool_create.c **** /*       found in the LICENSE file at https://aka.ms/AzureRTOS_EULA       */
   8:../Middlewares/threadx/common/src/tx_block_pool_create.c **** /*       and in the root directory of this software.                      */
   9:../Middlewares/threadx/common/src/tx_block_pool_create.c **** /*                                                                        */
  10:../Middlewares/threadx/common/src/tx_block_pool_create.c **** /**************************************************************************/
  11:../Middlewares/threadx/common/src/tx_block_pool_create.c **** 
  12:../Middlewares/threadx/common/src/tx_block_pool_create.c **** 
  13:../Middlewares/threadx/common/src/tx_block_pool_create.c **** /**************************************************************************/
  14:../Middlewares/threadx/common/src/tx_block_pool_create.c **** /**************************************************************************/
  15:../Middlewares/threadx/common/src/tx_block_pool_create.c **** /**                                                                       */
  16:../Middlewares/threadx/common/src/tx_block_pool_create.c **** /** ThreadX Component                                                     */
  17:../Middlewares/threadx/common/src/tx_block_pool_create.c **** /**                                                                       */
  18:../Middlewares/threadx/common/src/tx_block_pool_create.c **** /**   Block Pool                                                          */
  19:../Middlewares/threadx/common/src/tx_block_pool_create.c **** /**                                                                       */
  20:../Middlewares/threadx/common/src/tx_block_pool_create.c **** /**************************************************************************/
  21:../Middlewares/threadx/common/src/tx_block_pool_create.c **** /**************************************************************************/
  22:../Middlewares/threadx/common/src/tx_block_pool_create.c **** 
  23:../Middlewares/threadx/common/src/tx_block_pool_create.c **** #define TX_SOURCE_CODE
  24:../Middlewares/threadx/common/src/tx_block_pool_create.c **** 
ARM GAS  /tmp/cciJDKbP.s 			page 2


  25:../Middlewares/threadx/common/src/tx_block_pool_create.c **** 
  26:../Middlewares/threadx/common/src/tx_block_pool_create.c **** /* Include necessary system files.  */
  27:../Middlewares/threadx/common/src/tx_block_pool_create.c **** 
  28:../Middlewares/threadx/common/src/tx_block_pool_create.c **** #include "tx_api.h"
  29:../Middlewares/threadx/common/src/tx_block_pool_create.c **** #include "tx_trace.h"
  30:../Middlewares/threadx/common/src/tx_block_pool_create.c **** #include "tx_block_pool.h"
  31:../Middlewares/threadx/common/src/tx_block_pool_create.c **** 
  32:../Middlewares/threadx/common/src/tx_block_pool_create.c **** 
  33:../Middlewares/threadx/common/src/tx_block_pool_create.c **** /**************************************************************************/
  34:../Middlewares/threadx/common/src/tx_block_pool_create.c **** /*                                                                        */
  35:../Middlewares/threadx/common/src/tx_block_pool_create.c **** /*  FUNCTION                                               RELEASE        */
  36:../Middlewares/threadx/common/src/tx_block_pool_create.c **** /*                                                                        */
  37:../Middlewares/threadx/common/src/tx_block_pool_create.c **** /*    _tx_block_pool_create                               PORTABLE C      */
  38:../Middlewares/threadx/common/src/tx_block_pool_create.c **** /*                                                           6.1          */
  39:../Middlewares/threadx/common/src/tx_block_pool_create.c **** /*  AUTHOR                                                                */
  40:../Middlewares/threadx/common/src/tx_block_pool_create.c **** /*                                                                        */
  41:../Middlewares/threadx/common/src/tx_block_pool_create.c **** /*    William E. Lamie, Microsoft Corporation                             */
  42:../Middlewares/threadx/common/src/tx_block_pool_create.c **** /*                                                                        */
  43:../Middlewares/threadx/common/src/tx_block_pool_create.c **** /*  DESCRIPTION                                                           */
  44:../Middlewares/threadx/common/src/tx_block_pool_create.c **** /*                                                                        */
  45:../Middlewares/threadx/common/src/tx_block_pool_create.c **** /*    This function creates a pool of fixed-size memory blocks in the     */
  46:../Middlewares/threadx/common/src/tx_block_pool_create.c **** /*    specified memory area.                                              */
  47:../Middlewares/threadx/common/src/tx_block_pool_create.c **** /*                                                                        */
  48:../Middlewares/threadx/common/src/tx_block_pool_create.c **** /*  INPUT                                                                 */
  49:../Middlewares/threadx/common/src/tx_block_pool_create.c **** /*                                                                        */
  50:../Middlewares/threadx/common/src/tx_block_pool_create.c **** /*    pool_ptr                          Pointer to pool control block     */
  51:../Middlewares/threadx/common/src/tx_block_pool_create.c **** /*    name_ptr                          Pointer to block pool name        */
  52:../Middlewares/threadx/common/src/tx_block_pool_create.c **** /*    block_size                        Number of bytes in each block     */
  53:../Middlewares/threadx/common/src/tx_block_pool_create.c **** /*    pool_start                        Address of beginning of pool area */
  54:../Middlewares/threadx/common/src/tx_block_pool_create.c **** /*    pool_size                         Number of bytes in the block pool */
  55:../Middlewares/threadx/common/src/tx_block_pool_create.c **** /*                                                                        */
  56:../Middlewares/threadx/common/src/tx_block_pool_create.c **** /*  OUTPUT                                                                */
  57:../Middlewares/threadx/common/src/tx_block_pool_create.c **** /*                                                                        */
  58:../Middlewares/threadx/common/src/tx_block_pool_create.c **** /*    TX_SUCCESS                        Successful completion status      */
  59:../Middlewares/threadx/common/src/tx_block_pool_create.c **** /*                                                                        */
  60:../Middlewares/threadx/common/src/tx_block_pool_create.c **** /*  CALLS                                                                 */
  61:../Middlewares/threadx/common/src/tx_block_pool_create.c **** /*                                                                        */
  62:../Middlewares/threadx/common/src/tx_block_pool_create.c **** /*    None                                                                */
  63:../Middlewares/threadx/common/src/tx_block_pool_create.c **** /*                                                                        */
  64:../Middlewares/threadx/common/src/tx_block_pool_create.c **** /*  CALLED BY                                                             */
  65:../Middlewares/threadx/common/src/tx_block_pool_create.c **** /*                                                                        */
  66:../Middlewares/threadx/common/src/tx_block_pool_create.c **** /*    Application Code                                                    */
  67:../Middlewares/threadx/common/src/tx_block_pool_create.c **** /*                                                                        */
  68:../Middlewares/threadx/common/src/tx_block_pool_create.c **** /*  RELEASE HISTORY                                                       */
  69:../Middlewares/threadx/common/src/tx_block_pool_create.c **** /*                                                                        */
  70:../Middlewares/threadx/common/src/tx_block_pool_create.c **** /*    DATE              NAME                      DESCRIPTION             */
  71:../Middlewares/threadx/common/src/tx_block_pool_create.c **** /*                                                                        */
  72:../Middlewares/threadx/common/src/tx_block_pool_create.c **** /*  05-19-2020     William E. Lamie         Initial Version 6.0           */
  73:../Middlewares/threadx/common/src/tx_block_pool_create.c **** /*  09-30-2020     Yuxin Zhou               Modified comment(s),          */
  74:../Middlewares/threadx/common/src/tx_block_pool_create.c **** /*                                            resulting in version 6.1    */
  75:../Middlewares/threadx/common/src/tx_block_pool_create.c **** /*                                                                        */
  76:../Middlewares/threadx/common/src/tx_block_pool_create.c **** /**************************************************************************/
  77:../Middlewares/threadx/common/src/tx_block_pool_create.c **** UINT  _tx_block_pool_create(TX_BLOCK_POOL *pool_ptr, CHAR *name_ptr, ULONG block_size,
  78:../Middlewares/threadx/common/src/tx_block_pool_create.c ****                     VOID *pool_start, ULONG pool_size)
  79:../Middlewares/threadx/common/src/tx_block_pool_create.c **** {
  35              		.loc 1 79 1 view -0
  36              		.cfi_startproc
ARM GAS  /tmp/cciJDKbP.s 			page 3


  37              		@ args = 4, pretend = 0, frame = 0
  38              		@ frame_needed = 0, uses_anonymous_args = 0
  80:../Middlewares/threadx/common/src/tx_block_pool_create.c **** 
  81:../Middlewares/threadx/common/src/tx_block_pool_create.c **** TX_INTERRUPT_SAVE_AREA
  39              		.loc 1 81 1 view .LVU1
  82:../Middlewares/threadx/common/src/tx_block_pool_create.c **** 
  83:../Middlewares/threadx/common/src/tx_block_pool_create.c **** UINT                blocks;
  40              		.loc 1 83 1 view .LVU2
  84:../Middlewares/threadx/common/src/tx_block_pool_create.c **** UINT                status;
  41              		.loc 1 84 1 view .LVU3
  85:../Middlewares/threadx/common/src/tx_block_pool_create.c **** ULONG               total_blocks;
  42              		.loc 1 85 1 view .LVU4
  86:../Middlewares/threadx/common/src/tx_block_pool_create.c **** UCHAR               *block_ptr;
  43              		.loc 1 86 1 view .LVU5
  87:../Middlewares/threadx/common/src/tx_block_pool_create.c **** UCHAR               **block_link_ptr;
  44              		.loc 1 87 1 view .LVU6
  88:../Middlewares/threadx/common/src/tx_block_pool_create.c **** UCHAR               *next_block_ptr;
  45              		.loc 1 88 1 view .LVU7
  89:../Middlewares/threadx/common/src/tx_block_pool_create.c **** TX_BLOCK_POOL       *next_pool;
  46              		.loc 1 89 1 view .LVU8
  90:../Middlewares/threadx/common/src/tx_block_pool_create.c **** TX_BLOCK_POOL       *previous_pool;
  47              		.loc 1 90 1 view .LVU9
  91:../Middlewares/threadx/common/src/tx_block_pool_create.c **** 
  92:../Middlewares/threadx/common/src/tx_block_pool_create.c **** 
  93:../Middlewares/threadx/common/src/tx_block_pool_create.c ****     /* Initialize block pool control block to all zeros.  */
  94:../Middlewares/threadx/common/src/tx_block_pool_create.c ****     TX_MEMSET(pool_ptr, 0, (sizeof(TX_BLOCK_POOL)));
  48              		.loc 1 94 5 view .LVU10
  79:../Middlewares/threadx/common/src/tx_block_pool_create.c **** 
  49              		.loc 1 79 1 is_stmt 0 view .LVU11
  50 0000 2DE9F743 		push	{r0, r1, r2, r4, r5, r6, r7, r8, r9, lr}
  51              		.cfi_def_cfa_offset 40
  52              		.cfi_offset 4, -28
  53              		.cfi_offset 5, -24
  54              		.cfi_offset 6, -20
  55              		.cfi_offset 7, -16
  56              		.cfi_offset 8, -12
  57              		.cfi_offset 9, -8
  58              		.cfi_offset 14, -4
  79:../Middlewares/threadx/common/src/tx_block_pool_create.c **** 
  59              		.loc 1 79 1 view .LVU12
  60 0004 1546     		mov	r5, r2
  61 0006 8946     		mov	r9, r1
  62              		.loc 1 94 5 view .LVU13
  63 0008 3022     		movs	r2, #48
  64              	.LVL1:
  65              		.loc 1 94 5 view .LVU14
  66 000a 0021     		movs	r1, #0
  67              	.LVL2:
  79:../Middlewares/threadx/common/src/tx_block_pool_create.c **** 
  68              		.loc 1 79 1 view .LVU15
  69 000c 0446     		mov	r4, r0
  70 000e 1E46     		mov	r6, r3
  95:../Middlewares/threadx/common/src/tx_block_pool_create.c **** 
  96:../Middlewares/threadx/common/src/tx_block_pool_create.c ****     /* Round the block size up to something that is evenly divisible by
  97:../Middlewares/threadx/common/src/tx_block_pool_create.c ****        an ALIGN_TYPE (typically this is a 32-bit ULONG). This helps guarantee proper alignment.  */
  98:../Middlewares/threadx/common/src/tx_block_pool_create.c ****     block_size =  (((block_size + (sizeof(ALIGN_TYPE))) - ((ALIGN_TYPE) 1))/(sizeof(ALIGN_TYPE))) *
  71              		.loc 1 98 57 view .LVU16
ARM GAS  /tmp/cciJDKbP.s 			page 4


  72 0010 0335     		adds	r5, r5, #3
  73              	.LVL3:
  94:../Middlewares/threadx/common/src/tx_block_pool_create.c **** 
  74              		.loc 1 94 5 view .LVU17
  75 0012 FFF7FEFF 		bl	memset
  76              	.LVL4:
  77              		.loc 1 98 5 is_stmt 1 view .LVU18
  99:../Middlewares/threadx/common/src/tx_block_pool_create.c **** 
 100:../Middlewares/threadx/common/src/tx_block_pool_create.c ****     /* Round the pool size down to something that is evenly divisible by
 101:../Middlewares/threadx/common/src/tx_block_pool_create.c ****        an ALIGN_TYPE (typically this is a 32-bit ULONG).  */
 102:../Middlewares/threadx/common/src/tx_block_pool_create.c ****     pool_size =   (pool_size/(sizeof(ALIGN_TYPE))) * (sizeof(ALIGN_TYPE));
  78              		.loc 1 102 15 is_stmt 0 view .LVU19
  79 0016 0A9B     		ldr	r3, [sp, #40]
  98:../Middlewares/threadx/common/src/tx_block_pool_create.c **** 
  80              		.loc 1 98 16 view .LVU20
  81 0018 25F00305 		bic	r5, r5, #3
  82              	.LVL5:
  83              		.loc 1 102 5 is_stmt 1 view .LVU21
  84              		.loc 1 102 15 is_stmt 0 view .LVU22
  85 001c 23F00303 		bic	r3, r3, #3
  86              	.LVL6:
 103:../Middlewares/threadx/common/src/tx_block_pool_create.c **** 
 104:../Middlewares/threadx/common/src/tx_block_pool_create.c ****     /* Setup the basic block pool fields.  */
 105:../Middlewares/threadx/common/src/tx_block_pool_create.c ****     pool_ptr -> tx_block_pool_name =             name_ptr;
  87              		.loc 1 105 5 is_stmt 1 view .LVU23
 106:../Middlewares/threadx/common/src/tx_block_pool_create.c ****     pool_ptr -> tx_block_pool_start =            TX_VOID_TO_UCHAR_POINTER_CONVERT(pool_start);
 107:../Middlewares/threadx/common/src/tx_block_pool_create.c ****     pool_ptr -> tx_block_pool_size =             pool_size;
 108:../Middlewares/threadx/common/src/tx_block_pool_create.c ****     pool_ptr -> tx_block_pool_block_size =       (UINT) block_size;
 109:../Middlewares/threadx/common/src/tx_block_pool_create.c **** 
 110:../Middlewares/threadx/common/src/tx_block_pool_create.c ****     /* Calculate the total number of blocks.  */
 111:../Middlewares/threadx/common/src/tx_block_pool_create.c ****     total_blocks =  pool_size/(block_size + (sizeof(UCHAR *)));
  88              		.loc 1 111 43 is_stmt 0 view .LVU24
  89 0020 281D     		adds	r0, r5, #4
  90              		.loc 1 111 18 view .LVU25
  91 0022 B3FBF0F8 		udiv	r8, r3, r0
 112:../Middlewares/threadx/common/src/tx_block_pool_create.c **** 
 113:../Middlewares/threadx/common/src/tx_block_pool_create.c ****     /* Walk through the pool area, setting up the available block list.  */
 114:../Middlewares/threadx/common/src/tx_block_pool_create.c ****     blocks =            ((UINT) 0);
  92              		.loc 1 114 12 view .LVU26
  93 0026 08F1010E 		add	lr, r8, #1
 115:../Middlewares/threadx/common/src/tx_block_pool_create.c ****     block_ptr =         TX_VOID_TO_UCHAR_POINTER_CONVERT(pool_start);
 116:../Middlewares/threadx/common/src/tx_block_pool_create.c ****     next_block_ptr =    TX_UCHAR_POINTER_ADD(block_ptr, (block_size + (sizeof(UCHAR *))));
 117:../Middlewares/threadx/common/src/tx_block_pool_create.c ****     while(blocks < (UINT) total_blocks)
  94              		.loc 1 117 10 view .LVU27
  95 002a 0022     		movs	r2, #0
 114:../Middlewares/threadx/common/src/tx_block_pool_create.c ****     block_ptr =         TX_VOID_TO_UCHAR_POINTER_CONVERT(pool_start);
  96              		.loc 1 114 12 view .LVU28
  97 002c 4EF001E0 		dls	lr, lr
 107:../Middlewares/threadx/common/src/tx_block_pool_create.c ****     pool_ptr -> tx_block_pool_block_size =       (UINT) block_size;
  98              		.loc 1 107 36 view .LVU29
  99 0030 C4E90563 		strd	r6, r3, [r4, #20]
 105:../Middlewares/threadx/common/src/tx_block_pool_create.c ****     pool_ptr -> tx_block_pool_start =            TX_VOID_TO_UCHAR_POINTER_CONVERT(pool_start);
 100              		.loc 1 105 36 view .LVU30
 101 0034 C4F80490 		str	r9, [r4, #4]
 106:../Middlewares/threadx/common/src/tx_block_pool_create.c ****     pool_ptr -> tx_block_pool_size =             pool_size;
 102              		.loc 1 106 5 is_stmt 1 view .LVU31
 108:../Middlewares/threadx/common/src/tx_block_pool_create.c **** 
ARM GAS  /tmp/cciJDKbP.s 			page 5


 103              		.loc 1 108 5 view .LVU32
 108:../Middlewares/threadx/common/src/tx_block_pool_create.c **** 
 104              		.loc 1 108 42 is_stmt 0 view .LVU33
 105 0038 E561     		str	r5, [r4, #28]
 111:../Middlewares/threadx/common/src/tx_block_pool_create.c **** 
 106              		.loc 1 111 5 is_stmt 1 view .LVU34
 107              	.LVL7:
 114:../Middlewares/threadx/common/src/tx_block_pool_create.c ****     block_ptr =         TX_VOID_TO_UCHAR_POINTER_CONVERT(pool_start);
 108              		.loc 1 114 5 view .LVU35
 115:../Middlewares/threadx/common/src/tx_block_pool_create.c ****     next_block_ptr =    TX_UCHAR_POINTER_ADD(block_ptr, (block_size + (sizeof(UCHAR *))));
 109              		.loc 1 115 5 view .LVU36
 116:../Middlewares/threadx/common/src/tx_block_pool_create.c ****     while(blocks < (UINT) total_blocks)
 110              		.loc 1 116 5 view .LVU37
 116:../Middlewares/threadx/common/src/tx_block_pool_create.c ****     while(blocks < (UINT) total_blocks)
 111              		.loc 1 116 20 is_stmt 0 view .LVU38
 112 003a 3718     		adds	r7, r6, r0
 113              	.LVL8:
 114              		.loc 1 117 5 is_stmt 1 view .LVU39
 115              	.L2:
 116              		.loc 1 117 5 is_stmt 0 view .LVU40
 117 003c B918     		adds	r1, r7, r2
 118              	.LVL9:
 119              		.loc 1 117 18 is_stmt 1 view .LVU41
 120 003e BEF1010E 		subs	lr, #1;bne	.L3
 120      59D1
 118:../Middlewares/threadx/common/src/tx_block_pool_create.c ****     {
 119:../Middlewares/threadx/common/src/tx_block_pool_create.c **** 
 120:../Middlewares/threadx/common/src/tx_block_pool_create.c ****         /* Yes, we have another block.  Increment the block count.  */
 121:../Middlewares/threadx/common/src/tx_block_pool_create.c ****         blocks++;
 122:../Middlewares/threadx/common/src/tx_block_pool_create.c **** 
 123:../Middlewares/threadx/common/src/tx_block_pool_create.c ****         /* Setup the link to the next block.  */
 124:../Middlewares/threadx/common/src/tx_block_pool_create.c ****         block_link_ptr =  TX_UCHAR_TO_INDIRECT_UCHAR_POINTER_CONVERT(block_ptr);
 125:../Middlewares/threadx/common/src/tx_block_pool_create.c ****         *block_link_ptr =  next_block_ptr;
 126:../Middlewares/threadx/common/src/tx_block_pool_create.c **** 
 127:../Middlewares/threadx/common/src/tx_block_pool_create.c ****         /* Advance to the next block.  */
 128:../Middlewares/threadx/common/src/tx_block_pool_create.c ****         block_ptr =   next_block_ptr;
 129:../Middlewares/threadx/common/src/tx_block_pool_create.c **** 
 130:../Middlewares/threadx/common/src/tx_block_pool_create.c ****         /* Update the next block pointer.  */
 131:../Middlewares/threadx/common/src/tx_block_pool_create.c ****         next_block_ptr =  TX_UCHAR_POINTER_ADD(block_ptr, (block_size + (sizeof(UCHAR *))));
 132:../Middlewares/threadx/common/src/tx_block_pool_create.c ****     }
 133:../Middlewares/threadx/common/src/tx_block_pool_create.c **** 
 134:../Middlewares/threadx/common/src/tx_block_pool_create.c ****     /* Save the remaining information in the pool control block.  */
 135:../Middlewares/threadx/common/src/tx_block_pool_create.c ****     pool_ptr -> tx_block_pool_available =  blocks;
 121              		.loc 1 135 5 view .LVU42
 136:../Middlewares/threadx/common/src/tx_block_pool_create.c ****     pool_ptr -> tx_block_pool_total =      blocks;
 137:../Middlewares/threadx/common/src/tx_block_pool_create.c **** 
 138:../Middlewares/threadx/common/src/tx_block_pool_create.c ****     /* Quickly check to make sure at least one block is in the pool.  */
 139:../Middlewares/threadx/common/src/tx_block_pool_create.c ****     if (blocks != ((UINT) 0))
 122              		.loc 1 139 8 is_stmt 0 view .LVU43
 123 0044 9842     		cmp	r0, r3
 136:../Middlewares/threadx/common/src/tx_block_pool_create.c ****     pool_ptr -> tx_block_pool_total =      blocks;
 124              		.loc 1 136 37 view .LVU44
 125 0046 C4E90288 		strd	r8, r8, [r4, #8]
 126              		.loc 1 139 5 is_stmt 1 view .LVU45
 127              		.loc 1 139 8 is_stmt 0 view .LVU46
 128 004a 6FD8     		bhi	.L13
 140:../Middlewares/threadx/common/src/tx_block_pool_create.c ****     {
ARM GAS  /tmp/cciJDKbP.s 			page 6


 141:../Middlewares/threadx/common/src/tx_block_pool_create.c **** 
 142:../Middlewares/threadx/common/src/tx_block_pool_create.c ****         /* Backup to the last block in the pool.  */
 143:../Middlewares/threadx/common/src/tx_block_pool_create.c ****         block_ptr =  TX_UCHAR_POINTER_SUB(block_ptr,(block_size + (sizeof(UCHAR *))));
 129              		.loc 1 143 9 is_stmt 1 view .LVU47
 144:../Middlewares/threadx/common/src/tx_block_pool_create.c **** 
 145:../Middlewares/threadx/common/src/tx_block_pool_create.c ****         /* Set the last block's forward pointer to NULL.  */
 146:../Middlewares/threadx/common/src/tx_block_pool_create.c ****         block_link_ptr =  TX_UCHAR_TO_INDIRECT_UCHAR_POINTER_CONVERT(block_ptr);
 147:../Middlewares/threadx/common/src/tx_block_pool_create.c ****         *block_link_ptr =  TX_NULL;
 130              		.loc 1 147 25 is_stmt 0 view .LVU48
 131 004c 6FF00302 		mvn	r2, #3
 132 0050 0021     		movs	r1, #0
 133              	.LVL10:
 134              		.loc 1 147 25 view .LVU49
 135 0052 08FB0060 		mla	r0, r8, r0, r6
 136              	.LVL11:
 146:../Middlewares/threadx/common/src/tx_block_pool_create.c ****         *block_link_ptr =  TX_NULL;
 137              		.loc 1 146 9 is_stmt 1 view .LVU50
 138              		.loc 1 147 9 view .LVU51
 139              		.loc 1 147 25 is_stmt 0 view .LVU52
 140 0056 521B     		subs	r2, r2, r5
 141 0058 8150     		str	r1, [r0, r2]
 148:../Middlewares/threadx/common/src/tx_block_pool_create.c **** 
 149:../Middlewares/threadx/common/src/tx_block_pool_create.c ****         /* Setup the starting pool address.  */
 150:../Middlewares/threadx/common/src/tx_block_pool_create.c ****         pool_ptr -> tx_block_pool_available_list =  TX_VOID_TO_UCHAR_POINTER_CONVERT(pool_start);
 142              		.loc 1 150 9 is_stmt 1 view .LVU53
 143              		.loc 1 150 50 is_stmt 0 view .LVU54
 144 005a 2661     		str	r6, [r4, #16]
 151:../Middlewares/threadx/common/src/tx_block_pool_create.c **** 
 152:../Middlewares/threadx/common/src/tx_block_pool_create.c ****         /* Disable interrupts to place the block pool on the created list.  */
 153:../Middlewares/threadx/common/src/tx_block_pool_create.c ****         TX_DISABLE
 145              		.loc 1 153 9 is_stmt 1 view .LVU55
 146              	.LBB13:
 147              	.LBI13:
 148              		.file 2 "../Middlewares/threadx/ports/cortex_m55/gnu/inc/tx_port.h"
   1:../Middlewares/threadx/ports/cortex_m55/gnu/inc/tx_port.h **** /**************************************************************************/
   2:../Middlewares/threadx/ports/cortex_m55/gnu/inc/tx_port.h **** /*                                                                        */
   3:../Middlewares/threadx/ports/cortex_m55/gnu/inc/tx_port.h **** /*       Copyright (c) Microsoft Corporation. All rights reserved.        */
   4:../Middlewares/threadx/ports/cortex_m55/gnu/inc/tx_port.h **** /*                                                                        */
   5:../Middlewares/threadx/ports/cortex_m55/gnu/inc/tx_port.h **** /*       This software is licensed under the Microsoft Software License   */
   6:../Middlewares/threadx/ports/cortex_m55/gnu/inc/tx_port.h **** /*       Terms for Microsoft Azure RTOS. Full text of the license can be  */
   7:../Middlewares/threadx/ports/cortex_m55/gnu/inc/tx_port.h **** /*       found in the LICENSE file at https://aka.ms/AzureRTOS_EULA       */
   8:../Middlewares/threadx/ports/cortex_m55/gnu/inc/tx_port.h **** /*       and in the root directory of this software.                      */
   9:../Middlewares/threadx/ports/cortex_m55/gnu/inc/tx_port.h **** /*                                                                        */
  10:../Middlewares/threadx/ports/cortex_m55/gnu/inc/tx_port.h **** /**************************************************************************/
  11:../Middlewares/threadx/ports/cortex_m55/gnu/inc/tx_port.h **** 
  12:../Middlewares/threadx/ports/cortex_m55/gnu/inc/tx_port.h **** 
  13:../Middlewares/threadx/ports/cortex_m55/gnu/inc/tx_port.h **** /**************************************************************************/
  14:../Middlewares/threadx/ports/cortex_m55/gnu/inc/tx_port.h **** /**************************************************************************/
  15:../Middlewares/threadx/ports/cortex_m55/gnu/inc/tx_port.h **** /**                                                                       */
  16:../Middlewares/threadx/ports/cortex_m55/gnu/inc/tx_port.h **** /** ThreadX Component                                                     */
  17:../Middlewares/threadx/ports/cortex_m55/gnu/inc/tx_port.h **** /**                                                                       */
  18:../Middlewares/threadx/ports/cortex_m55/gnu/inc/tx_port.h **** /**   Port Specific                                                       */
  19:../Middlewares/threadx/ports/cortex_m55/gnu/inc/tx_port.h **** /**                                                                       */
  20:../Middlewares/threadx/ports/cortex_m55/gnu/inc/tx_port.h **** /**************************************************************************/
  21:../Middlewares/threadx/ports/cortex_m55/gnu/inc/tx_port.h **** /**************************************************************************/
  22:../Middlewares/threadx/ports/cortex_m55/gnu/inc/tx_port.h **** 
  23:../Middlewares/threadx/ports/cortex_m55/gnu/inc/tx_port.h **** 
ARM GAS  /tmp/cciJDKbP.s 			page 7


  24:../Middlewares/threadx/ports/cortex_m55/gnu/inc/tx_port.h **** /**************************************************************************/
  25:../Middlewares/threadx/ports/cortex_m55/gnu/inc/tx_port.h **** /*                                                                        */
  26:../Middlewares/threadx/ports/cortex_m55/gnu/inc/tx_port.h **** /*  PORT SPECIFIC C INFORMATION                            RELEASE        */
  27:../Middlewares/threadx/ports/cortex_m55/gnu/inc/tx_port.h **** /*                                                                        */
  28:../Middlewares/threadx/ports/cortex_m55/gnu/inc/tx_port.h **** /*    tx_port.h                                         Cortex-M55/GNU    */
  29:../Middlewares/threadx/ports/cortex_m55/gnu/inc/tx_port.h **** /*                                                           6.2.1        */
  30:../Middlewares/threadx/ports/cortex_m55/gnu/inc/tx_port.h **** /*                                                                        */
  31:../Middlewares/threadx/ports/cortex_m55/gnu/inc/tx_port.h **** /*  AUTHOR                                                                */
  32:../Middlewares/threadx/ports/cortex_m55/gnu/inc/tx_port.h **** /*                                                                        */
  33:../Middlewares/threadx/ports/cortex_m55/gnu/inc/tx_port.h **** /*    Scott Larson, Microsoft Corporation                                 */
  34:../Middlewares/threadx/ports/cortex_m55/gnu/inc/tx_port.h **** /*                                                                        */
  35:../Middlewares/threadx/ports/cortex_m55/gnu/inc/tx_port.h **** /*  DESCRIPTION                                                           */
  36:../Middlewares/threadx/ports/cortex_m55/gnu/inc/tx_port.h **** /*                                                                        */
  37:../Middlewares/threadx/ports/cortex_m55/gnu/inc/tx_port.h **** /*    This file contains data type definitions that make the ThreadX      */
  38:../Middlewares/threadx/ports/cortex_m55/gnu/inc/tx_port.h **** /*    real-time kernel function identically on a variety of different     */
  39:../Middlewares/threadx/ports/cortex_m55/gnu/inc/tx_port.h **** /*    processor architectures.  For example, the size or number of bits   */
  40:../Middlewares/threadx/ports/cortex_m55/gnu/inc/tx_port.h **** /*    in an "int" data type vary between microprocessor architectures and */
  41:../Middlewares/threadx/ports/cortex_m55/gnu/inc/tx_port.h **** /*    even C compilers for the same microprocessor.  ThreadX does not     */
  42:../Middlewares/threadx/ports/cortex_m55/gnu/inc/tx_port.h **** /*    directly use native C data types.  Instead, ThreadX creates its     */
  43:../Middlewares/threadx/ports/cortex_m55/gnu/inc/tx_port.h **** /*    own special types that can be mapped to actual data types by this   */
  44:../Middlewares/threadx/ports/cortex_m55/gnu/inc/tx_port.h **** /*    file to guarantee consistency in the interface and functionality.   */
  45:../Middlewares/threadx/ports/cortex_m55/gnu/inc/tx_port.h **** /*                                                                        */
  46:../Middlewares/threadx/ports/cortex_m55/gnu/inc/tx_port.h **** /*    This file replaces the previous Cortex-M55 files. It unifies        */
  47:../Middlewares/threadx/ports/cortex_m55/gnu/inc/tx_port.h **** /*    the Cortex-M55 compilers into one common file.                      */
  48:../Middlewares/threadx/ports/cortex_m55/gnu/inc/tx_port.h **** /*                                                                        */
  49:../Middlewares/threadx/ports/cortex_m55/gnu/inc/tx_port.h **** /*  RELEASE HISTORY                                                       */
  50:../Middlewares/threadx/ports/cortex_m55/gnu/inc/tx_port.h **** /*                                                                        */
  51:../Middlewares/threadx/ports/cortex_m55/gnu/inc/tx_port.h **** /*    DATE              NAME                      DESCRIPTION             */
  52:../Middlewares/threadx/ports/cortex_m55/gnu/inc/tx_port.h **** /*                                                                        */
  53:../Middlewares/threadx/ports/cortex_m55/gnu/inc/tx_port.h **** /*  09-30-2020      Scott Larson            Initial Version 6.1           */
  54:../Middlewares/threadx/ports/cortex_m55/gnu/inc/tx_port.h **** /*  03-02-2021      Scott Larson            Modified comment(s), added    */
  55:../Middlewares/threadx/ports/cortex_m55/gnu/inc/tx_port.h **** /*                                            ULONG64_DEFINED,            */
  56:../Middlewares/threadx/ports/cortex_m55/gnu/inc/tx_port.h **** /*                                            resulting in version 6.1.5  */
  57:../Middlewares/threadx/ports/cortex_m55/gnu/inc/tx_port.h **** /*  06-02-2021      Scott Larson            Modified comment(s), removed  */
  58:../Middlewares/threadx/ports/cortex_m55/gnu/inc/tx_port.h **** /*                                            unneeded header file, funcs */
  59:../Middlewares/threadx/ports/cortex_m55/gnu/inc/tx_port.h **** /*                                            set_control and get_control */
  60:../Middlewares/threadx/ports/cortex_m55/gnu/inc/tx_port.h **** /*                                            changed to inline,          */
  61:../Middlewares/threadx/ports/cortex_m55/gnu/inc/tx_port.h **** /*                                            added symbol to enable      */
  62:../Middlewares/threadx/ports/cortex_m55/gnu/inc/tx_port.h **** /*                                            stack error handler,        */
  63:../Middlewares/threadx/ports/cortex_m55/gnu/inc/tx_port.h **** /*                                            resulting in version 6.1.7  */
  64:../Middlewares/threadx/ports/cortex_m55/gnu/inc/tx_port.h **** /*  10-15-2021      Scott Larson            Modified comment(s), improved */
  65:../Middlewares/threadx/ports/cortex_m55/gnu/inc/tx_port.h **** /*                                            stack check error handling, */
  66:../Middlewares/threadx/ports/cortex_m55/gnu/inc/tx_port.h **** /*                                            resulting in version 6.1.9  */
  67:../Middlewares/threadx/ports/cortex_m55/gnu/inc/tx_port.h **** /*  01-31-2022      Scott Larson            Modified comment(s), unified  */
  68:../Middlewares/threadx/ports/cortex_m55/gnu/inc/tx_port.h **** /*                                            this file across compilers, */
  69:../Middlewares/threadx/ports/cortex_m55/gnu/inc/tx_port.h **** /*                                            fixed predefined macro,     */
  70:../Middlewares/threadx/ports/cortex_m55/gnu/inc/tx_port.h **** /*                                            resulting in version 6.1.10 */
  71:../Middlewares/threadx/ports/cortex_m55/gnu/inc/tx_port.h **** /*  04-25-2022      Scott Larson            Modified comments and added   */
  72:../Middlewares/threadx/ports/cortex_m55/gnu/inc/tx_port.h **** /*                                            volatile to registers,      */
  73:../Middlewares/threadx/ports/cortex_m55/gnu/inc/tx_port.h **** /*                                            resulting in version 6.1.11 */
  74:../Middlewares/threadx/ports/cortex_m55/gnu/inc/tx_port.h **** /*  07-29-2022      Scott Larson            Modified comments and changed */
  75:../Middlewares/threadx/ports/cortex_m55/gnu/inc/tx_port.h **** /*                                            secure stack initialization */
  76:../Middlewares/threadx/ports/cortex_m55/gnu/inc/tx_port.h **** /*                                            macro to port-specific,     */
  77:../Middlewares/threadx/ports/cortex_m55/gnu/inc/tx_port.h **** /*                                            described BASEPRI usage,    */
  78:../Middlewares/threadx/ports/cortex_m55/gnu/inc/tx_port.h **** /*                                            resulting in version 6.1.12 */
  79:../Middlewares/threadx/ports/cortex_m55/gnu/inc/tx_port.h **** /*  03-08-2023      Scott Larson            Removed unneeded #include,    */
  80:../Middlewares/threadx/ports/cortex_m55/gnu/inc/tx_port.h **** /*                                            resulting in version 6.2.1  */
ARM GAS  /tmp/cciJDKbP.s 			page 8


  81:../Middlewares/threadx/ports/cortex_m55/gnu/inc/tx_port.h **** /*                                                                        */
  82:../Middlewares/threadx/ports/cortex_m55/gnu/inc/tx_port.h **** /**************************************************************************/
  83:../Middlewares/threadx/ports/cortex_m55/gnu/inc/tx_port.h **** 
  84:../Middlewares/threadx/ports/cortex_m55/gnu/inc/tx_port.h **** #ifndef TX_PORT_H
  85:../Middlewares/threadx/ports/cortex_m55/gnu/inc/tx_port.h **** #define TX_PORT_H
  86:../Middlewares/threadx/ports/cortex_m55/gnu/inc/tx_port.h **** 
  87:../Middlewares/threadx/ports/cortex_m55/gnu/inc/tx_port.h **** /* Determine if the optional ThreadX user define file should be used.  */
  88:../Middlewares/threadx/ports/cortex_m55/gnu/inc/tx_port.h **** #ifdef TX_INCLUDE_USER_DEFINE_FILE
  89:../Middlewares/threadx/ports/cortex_m55/gnu/inc/tx_port.h **** 
  90:../Middlewares/threadx/ports/cortex_m55/gnu/inc/tx_port.h **** /* Yes, include the user defines in tx_user.h. The defines in this file may
  91:../Middlewares/threadx/ports/cortex_m55/gnu/inc/tx_port.h ****    alternately be defined on the command line.  */
  92:../Middlewares/threadx/ports/cortex_m55/gnu/inc/tx_port.h **** 
  93:../Middlewares/threadx/ports/cortex_m55/gnu/inc/tx_port.h **** #include "tx_user.h"
  94:../Middlewares/threadx/ports/cortex_m55/gnu/inc/tx_port.h **** #endif /* TX_INCLUDE_USER_DEFINE_FILE */
  95:../Middlewares/threadx/ports/cortex_m55/gnu/inc/tx_port.h **** 
  96:../Middlewares/threadx/ports/cortex_m55/gnu/inc/tx_port.h **** /* Define compiler library include files.  */
  97:../Middlewares/threadx/ports/cortex_m55/gnu/inc/tx_port.h **** 
  98:../Middlewares/threadx/ports/cortex_m55/gnu/inc/tx_port.h **** #include <stdlib.h>
  99:../Middlewares/threadx/ports/cortex_m55/gnu/inc/tx_port.h **** #include <string.h>
 100:../Middlewares/threadx/ports/cortex_m55/gnu/inc/tx_port.h **** 
 101:../Middlewares/threadx/ports/cortex_m55/gnu/inc/tx_port.h **** #ifdef __ICCARM__
 102:../Middlewares/threadx/ports/cortex_m55/gnu/inc/tx_port.h **** #include <intrinsics.h>                         /* IAR Intrinsics */
 103:../Middlewares/threadx/ports/cortex_m55/gnu/inc/tx_port.h **** #define __asm__                 __asm           /* Define to make all inline asm from each compiler
 104:../Middlewares/threadx/ports/cortex_m55/gnu/inc/tx_port.h **** #define _tx_control_get         __get_CONTROL
 105:../Middlewares/threadx/ports/cortex_m55/gnu/inc/tx_port.h **** #define _tx_control_set         __set_CONTROL
 106:../Middlewares/threadx/ports/cortex_m55/gnu/inc/tx_port.h **** #define _tx_ipsr_get            __get_IPSR
 107:../Middlewares/threadx/ports/cortex_m55/gnu/inc/tx_port.h **** #ifdef  TX_ENABLE_IAR_LIBRARY_SUPPORT
 108:../Middlewares/threadx/ports/cortex_m55/gnu/inc/tx_port.h **** #include <yvals.h>
 109:../Middlewares/threadx/ports/cortex_m55/gnu/inc/tx_port.h **** #endif /* TX_ENABLE_IAR_LIBRARY_SUPPORT */
 110:../Middlewares/threadx/ports/cortex_m55/gnu/inc/tx_port.h **** #endif /* __ICCARM__ */
 111:../Middlewares/threadx/ports/cortex_m55/gnu/inc/tx_port.h **** 
 112:../Middlewares/threadx/ports/cortex_m55/gnu/inc/tx_port.h **** 
 113:../Middlewares/threadx/ports/cortex_m55/gnu/inc/tx_port.h **** /* Define ThreadX basic types for this port.  */
 114:../Middlewares/threadx/ports/cortex_m55/gnu/inc/tx_port.h **** 
 115:../Middlewares/threadx/ports/cortex_m55/gnu/inc/tx_port.h **** #define VOID                                    void
 116:../Middlewares/threadx/ports/cortex_m55/gnu/inc/tx_port.h **** typedef char                                    CHAR;
 117:../Middlewares/threadx/ports/cortex_m55/gnu/inc/tx_port.h **** typedef unsigned char                           UCHAR;
 118:../Middlewares/threadx/ports/cortex_m55/gnu/inc/tx_port.h **** typedef int                                     INT;
 119:../Middlewares/threadx/ports/cortex_m55/gnu/inc/tx_port.h **** typedef unsigned int                            UINT;
 120:../Middlewares/threadx/ports/cortex_m55/gnu/inc/tx_port.h **** typedef long                                    LONG;
 121:../Middlewares/threadx/ports/cortex_m55/gnu/inc/tx_port.h **** typedef unsigned long                           ULONG;
 122:../Middlewares/threadx/ports/cortex_m55/gnu/inc/tx_port.h **** typedef unsigned long long                      ULONG64;
 123:../Middlewares/threadx/ports/cortex_m55/gnu/inc/tx_port.h **** typedef short                                   SHORT;
 124:../Middlewares/threadx/ports/cortex_m55/gnu/inc/tx_port.h **** typedef unsigned short                          USHORT;
 125:../Middlewares/threadx/ports/cortex_m55/gnu/inc/tx_port.h **** #define ULONG64_DEFINED
 126:../Middlewares/threadx/ports/cortex_m55/gnu/inc/tx_port.h **** 
 127:../Middlewares/threadx/ports/cortex_m55/gnu/inc/tx_port.h **** /* Function prototypes for this port. */
 128:../Middlewares/threadx/ports/cortex_m55/gnu/inc/tx_port.h **** struct  TX_THREAD_STRUCT;
 129:../Middlewares/threadx/ports/cortex_m55/gnu/inc/tx_port.h **** UINT    _txe_thread_secure_stack_allocate(struct TX_THREAD_STRUCT *thread_ptr, ULONG stack_size);
 130:../Middlewares/threadx/ports/cortex_m55/gnu/inc/tx_port.h **** UINT    _txe_thread_secure_stack_free(struct TX_THREAD_STRUCT *thread_ptr);
 131:../Middlewares/threadx/ports/cortex_m55/gnu/inc/tx_port.h **** UINT    _tx_thread_secure_stack_allocate(struct TX_THREAD_STRUCT *tx_thread, ULONG stack_size);
 132:../Middlewares/threadx/ports/cortex_m55/gnu/inc/tx_port.h **** UINT    _tx_thread_secure_stack_free(struct TX_THREAD_STRUCT *tx_thread);
 133:../Middlewares/threadx/ports/cortex_m55/gnu/inc/tx_port.h **** 
 134:../Middlewares/threadx/ports/cortex_m55/gnu/inc/tx_port.h **** /* Define the system API mappings based on the error checking
 135:../Middlewares/threadx/ports/cortex_m55/gnu/inc/tx_port.h ****    selected by the user.  Note: this section is only applicable to
 136:../Middlewares/threadx/ports/cortex_m55/gnu/inc/tx_port.h ****    application source code, hence the conditional that turns off this
 137:../Middlewares/threadx/ports/cortex_m55/gnu/inc/tx_port.h ****    stuff when the include file is processed by the ThreadX source. */
ARM GAS  /tmp/cciJDKbP.s 			page 9


 138:../Middlewares/threadx/ports/cortex_m55/gnu/inc/tx_port.h **** 
 139:../Middlewares/threadx/ports/cortex_m55/gnu/inc/tx_port.h **** #ifndef TX_SOURCE_CODE
 140:../Middlewares/threadx/ports/cortex_m55/gnu/inc/tx_port.h **** 
 141:../Middlewares/threadx/ports/cortex_m55/gnu/inc/tx_port.h **** 
 142:../Middlewares/threadx/ports/cortex_m55/gnu/inc/tx_port.h **** /* Determine if error checking is desired.  If so, map API functions
 143:../Middlewares/threadx/ports/cortex_m55/gnu/inc/tx_port.h ****    to the appropriate error checking front-ends.  Otherwise, map API
 144:../Middlewares/threadx/ports/cortex_m55/gnu/inc/tx_port.h ****    functions to the core functions that actually perform the work.
 145:../Middlewares/threadx/ports/cortex_m55/gnu/inc/tx_port.h ****    Note: error checking is enabled by default.  */
 146:../Middlewares/threadx/ports/cortex_m55/gnu/inc/tx_port.h **** 
 147:../Middlewares/threadx/ports/cortex_m55/gnu/inc/tx_port.h **** #ifdef TX_DISABLE_ERROR_CHECKING
 148:../Middlewares/threadx/ports/cortex_m55/gnu/inc/tx_port.h **** 
 149:../Middlewares/threadx/ports/cortex_m55/gnu/inc/tx_port.h **** /* Services without error checking.  */
 150:../Middlewares/threadx/ports/cortex_m55/gnu/inc/tx_port.h **** 
 151:../Middlewares/threadx/ports/cortex_m55/gnu/inc/tx_port.h **** #define tx_thread_secure_stack_allocate   _tx_thread_secure_stack_allocate
 152:../Middlewares/threadx/ports/cortex_m55/gnu/inc/tx_port.h **** #define tx_thread_secure_stack_free       _tx_thread_secure_stack_free
 153:../Middlewares/threadx/ports/cortex_m55/gnu/inc/tx_port.h **** 
 154:../Middlewares/threadx/ports/cortex_m55/gnu/inc/tx_port.h **** #else
 155:../Middlewares/threadx/ports/cortex_m55/gnu/inc/tx_port.h **** 
 156:../Middlewares/threadx/ports/cortex_m55/gnu/inc/tx_port.h **** /* Services with error checking.  */
 157:../Middlewares/threadx/ports/cortex_m55/gnu/inc/tx_port.h **** 
 158:../Middlewares/threadx/ports/cortex_m55/gnu/inc/tx_port.h **** #define tx_thread_secure_stack_allocate   _txe_thread_secure_stack_allocate
 159:../Middlewares/threadx/ports/cortex_m55/gnu/inc/tx_port.h **** #define tx_thread_secure_stack_free       _txe_thread_secure_stack_free
 160:../Middlewares/threadx/ports/cortex_m55/gnu/inc/tx_port.h **** 
 161:../Middlewares/threadx/ports/cortex_m55/gnu/inc/tx_port.h **** #endif  /* TX_DISABLE_ERROR_CHECKING */
 162:../Middlewares/threadx/ports/cortex_m55/gnu/inc/tx_port.h **** #endif  /* TX_SOURCE_CODE */
 163:../Middlewares/threadx/ports/cortex_m55/gnu/inc/tx_port.h **** 
 164:../Middlewares/threadx/ports/cortex_m55/gnu/inc/tx_port.h **** /* This port has a usage fault handler in _tx_initialize_low_level for stack exceptions.  */
 165:../Middlewares/threadx/ports/cortex_m55/gnu/inc/tx_port.h **** #define TX_PORT_THREAD_STACK_ERROR_HANDLING
 166:../Middlewares/threadx/ports/cortex_m55/gnu/inc/tx_port.h **** 
 167:../Middlewares/threadx/ports/cortex_m55/gnu/inc/tx_port.h **** /* Define the priority levels for ThreadX.  Legal values range
 168:../Middlewares/threadx/ports/cortex_m55/gnu/inc/tx_port.h ****    from 32 to 1024 and MUST be evenly divisible by 32.  */
 169:../Middlewares/threadx/ports/cortex_m55/gnu/inc/tx_port.h **** 
 170:../Middlewares/threadx/ports/cortex_m55/gnu/inc/tx_port.h **** #ifndef TX_MAX_PRIORITIES
 171:../Middlewares/threadx/ports/cortex_m55/gnu/inc/tx_port.h **** #define TX_MAX_PRIORITIES                       32
 172:../Middlewares/threadx/ports/cortex_m55/gnu/inc/tx_port.h **** #endif
 173:../Middlewares/threadx/ports/cortex_m55/gnu/inc/tx_port.h **** 
 174:../Middlewares/threadx/ports/cortex_m55/gnu/inc/tx_port.h **** 
 175:../Middlewares/threadx/ports/cortex_m55/gnu/inc/tx_port.h **** /* Define the minimum stack for a ThreadX thread on this processor. If the size supplied during
 176:../Middlewares/threadx/ports/cortex_m55/gnu/inc/tx_port.h ****    thread creation is less than this value, the thread create call will return an error.  */
 177:../Middlewares/threadx/ports/cortex_m55/gnu/inc/tx_port.h **** 
 178:../Middlewares/threadx/ports/cortex_m55/gnu/inc/tx_port.h **** #ifndef TX_MINIMUM_STACK
 179:../Middlewares/threadx/ports/cortex_m55/gnu/inc/tx_port.h **** #define TX_MINIMUM_STACK                        200         /* Minimum stack size for this port  */
 180:../Middlewares/threadx/ports/cortex_m55/gnu/inc/tx_port.h **** #endif
 181:../Middlewares/threadx/ports/cortex_m55/gnu/inc/tx_port.h **** 
 182:../Middlewares/threadx/ports/cortex_m55/gnu/inc/tx_port.h **** 
 183:../Middlewares/threadx/ports/cortex_m55/gnu/inc/tx_port.h **** /* Define the system timer thread's default stack size and priority.  These are only applicable
 184:../Middlewares/threadx/ports/cortex_m55/gnu/inc/tx_port.h ****    if TX_TIMER_PROCESS_IN_ISR is not defined.  */
 185:../Middlewares/threadx/ports/cortex_m55/gnu/inc/tx_port.h **** 
 186:../Middlewares/threadx/ports/cortex_m55/gnu/inc/tx_port.h **** #ifndef TX_TIMER_THREAD_STACK_SIZE
 187:../Middlewares/threadx/ports/cortex_m55/gnu/inc/tx_port.h **** #define TX_TIMER_THREAD_STACK_SIZE              1024        /* Default timer thread stack size  */
 188:../Middlewares/threadx/ports/cortex_m55/gnu/inc/tx_port.h **** #endif
 189:../Middlewares/threadx/ports/cortex_m55/gnu/inc/tx_port.h **** 
 190:../Middlewares/threadx/ports/cortex_m55/gnu/inc/tx_port.h **** #ifndef TX_TIMER_THREAD_PRIORITY
 191:../Middlewares/threadx/ports/cortex_m55/gnu/inc/tx_port.h **** #define TX_TIMER_THREAD_PRIORITY                0           /* Default timer thread priority    */
 192:../Middlewares/threadx/ports/cortex_m55/gnu/inc/tx_port.h **** #endif
 193:../Middlewares/threadx/ports/cortex_m55/gnu/inc/tx_port.h **** 
 194:../Middlewares/threadx/ports/cortex_m55/gnu/inc/tx_port.h **** /* By default, ThreadX for Cortex-M uses the PRIMASK register to enable/disable interrupts.
ARM GAS  /tmp/cciJDKbP.s 			page 10


 195:../Middlewares/threadx/ports/cortex_m55/gnu/inc/tx_port.h **** If using BASEPRI is desired, define the following two symbols for both c and assembly files:
 196:../Middlewares/threadx/ports/cortex_m55/gnu/inc/tx_port.h **** TX_PORT_USE_BASEPRI - This tells ThreadX to use BASEPRI instead of PRIMASK.
 197:../Middlewares/threadx/ports/cortex_m55/gnu/inc/tx_port.h **** TX_PORT_BASEPRI = (priority_mask << (8 - number_priority_bits)) - this defines the maximum priority
 198:../Middlewares/threadx/ports/cortex_m55/gnu/inc/tx_port.h **** Any interrupt with a higher priority than priority_mask will not be masked, thus the interrupt will
 199:../Middlewares/threadx/ports/cortex_m55/gnu/inc/tx_port.h **** */
 200:../Middlewares/threadx/ports/cortex_m55/gnu/inc/tx_port.h **** 
 201:../Middlewares/threadx/ports/cortex_m55/gnu/inc/tx_port.h **** /* Define various constants for the ThreadX Cortex-M port.  */
 202:../Middlewares/threadx/ports/cortex_m55/gnu/inc/tx_port.h **** 
 203:../Middlewares/threadx/ports/cortex_m55/gnu/inc/tx_port.h **** #define TX_INT_DISABLE                          1           /* Disable interrupts               */
 204:../Middlewares/threadx/ports/cortex_m55/gnu/inc/tx_port.h **** #define TX_INT_ENABLE                           0           /* Enable interrupts                */
 205:../Middlewares/threadx/ports/cortex_m55/gnu/inc/tx_port.h **** 
 206:../Middlewares/threadx/ports/cortex_m55/gnu/inc/tx_port.h **** 
 207:../Middlewares/threadx/ports/cortex_m55/gnu/inc/tx_port.h **** /* Define the clock source for trace event entry time stamp. The following two item are port specif
 208:../Middlewares/threadx/ports/cortex_m55/gnu/inc/tx_port.h ****    For example, if the time source is at the address 0x0a800024 and is 16-bits in size, the clock
 209:../Middlewares/threadx/ports/cortex_m55/gnu/inc/tx_port.h ****    source constants would be:
 210:../Middlewares/threadx/ports/cortex_m55/gnu/inc/tx_port.h **** 
 211:../Middlewares/threadx/ports/cortex_m55/gnu/inc/tx_port.h **** #define TX_TRACE_TIME_SOURCE                    *((volatile ULONG *) 0x0a800024)
 212:../Middlewares/threadx/ports/cortex_m55/gnu/inc/tx_port.h **** #define TX_TRACE_TIME_MASK                      0x0000FFFFUL
 213:../Middlewares/threadx/ports/cortex_m55/gnu/inc/tx_port.h **** 
 214:../Middlewares/threadx/ports/cortex_m55/gnu/inc/tx_port.h **** */
 215:../Middlewares/threadx/ports/cortex_m55/gnu/inc/tx_port.h **** 
 216:../Middlewares/threadx/ports/cortex_m55/gnu/inc/tx_port.h **** #ifndef TX_MISRA_ENABLE
 217:../Middlewares/threadx/ports/cortex_m55/gnu/inc/tx_port.h **** #ifndef TX_TRACE_TIME_SOURCE
 218:../Middlewares/threadx/ports/cortex_m55/gnu/inc/tx_port.h **** #define TX_TRACE_TIME_SOURCE                    *((volatile ULONG *) 0xE0001004)
 219:../Middlewares/threadx/ports/cortex_m55/gnu/inc/tx_port.h **** #endif
 220:../Middlewares/threadx/ports/cortex_m55/gnu/inc/tx_port.h **** #else
 221:../Middlewares/threadx/ports/cortex_m55/gnu/inc/tx_port.h **** ULONG   _tx_misra_time_stamp_get(VOID);
 222:../Middlewares/threadx/ports/cortex_m55/gnu/inc/tx_port.h **** #define TX_TRACE_TIME_SOURCE                    _tx_misra_time_stamp_get()
 223:../Middlewares/threadx/ports/cortex_m55/gnu/inc/tx_port.h **** #endif
 224:../Middlewares/threadx/ports/cortex_m55/gnu/inc/tx_port.h **** 
 225:../Middlewares/threadx/ports/cortex_m55/gnu/inc/tx_port.h **** #ifndef TX_TRACE_TIME_MASK
 226:../Middlewares/threadx/ports/cortex_m55/gnu/inc/tx_port.h **** #define TX_TRACE_TIME_MASK                      0xFFFFFFFFUL
 227:../Middlewares/threadx/ports/cortex_m55/gnu/inc/tx_port.h **** #endif
 228:../Middlewares/threadx/ports/cortex_m55/gnu/inc/tx_port.h **** 
 229:../Middlewares/threadx/ports/cortex_m55/gnu/inc/tx_port.h **** 
 230:../Middlewares/threadx/ports/cortex_m55/gnu/inc/tx_port.h **** /* Define the port specific options for the _tx_build_options variable. This variable indicates
 231:../Middlewares/threadx/ports/cortex_m55/gnu/inc/tx_port.h ****    how the ThreadX library was built.  */
 232:../Middlewares/threadx/ports/cortex_m55/gnu/inc/tx_port.h **** 
 233:../Middlewares/threadx/ports/cortex_m55/gnu/inc/tx_port.h **** #define TX_PORT_SPECIFIC_BUILD_OPTIONS          (0)
 234:../Middlewares/threadx/ports/cortex_m55/gnu/inc/tx_port.h **** 
 235:../Middlewares/threadx/ports/cortex_m55/gnu/inc/tx_port.h **** 
 236:../Middlewares/threadx/ports/cortex_m55/gnu/inc/tx_port.h **** /* Define the in-line initialization constant so that modules with in-line
 237:../Middlewares/threadx/ports/cortex_m55/gnu/inc/tx_port.h ****    initialization capabilities can prevent their initialization from being
 238:../Middlewares/threadx/ports/cortex_m55/gnu/inc/tx_port.h ****    a function call.  */
 239:../Middlewares/threadx/ports/cortex_m55/gnu/inc/tx_port.h **** 
 240:../Middlewares/threadx/ports/cortex_m55/gnu/inc/tx_port.h **** #ifdef TX_MISRA_ENABLE
 241:../Middlewares/threadx/ports/cortex_m55/gnu/inc/tx_port.h **** #define TX_DISABLE_INLINE
 242:../Middlewares/threadx/ports/cortex_m55/gnu/inc/tx_port.h **** #else
 243:../Middlewares/threadx/ports/cortex_m55/gnu/inc/tx_port.h **** #define TX_INLINE_INITIALIZATION
 244:../Middlewares/threadx/ports/cortex_m55/gnu/inc/tx_port.h **** #endif
 245:../Middlewares/threadx/ports/cortex_m55/gnu/inc/tx_port.h **** 
 246:../Middlewares/threadx/ports/cortex_m55/gnu/inc/tx_port.h **** 
 247:../Middlewares/threadx/ports/cortex_m55/gnu/inc/tx_port.h **** /* Determine whether or not stack checking is enabled. By default, ThreadX stack checking is
 248:../Middlewares/threadx/ports/cortex_m55/gnu/inc/tx_port.h ****    disabled. When the following is defined, ThreadX thread stack checking is enabled.  If stack
 249:../Middlewares/threadx/ports/cortex_m55/gnu/inc/tx_port.h ****    checking is enabled (TX_ENABLE_STACK_CHECKING is defined), the TX_DISABLE_STACK_FILLING
 250:../Middlewares/threadx/ports/cortex_m55/gnu/inc/tx_port.h ****    define is negated, thereby forcing the stack fill which is necessary for the stack checking
 251:../Middlewares/threadx/ports/cortex_m55/gnu/inc/tx_port.h ****    logic.  */
ARM GAS  /tmp/cciJDKbP.s 			page 11


 252:../Middlewares/threadx/ports/cortex_m55/gnu/inc/tx_port.h **** 
 253:../Middlewares/threadx/ports/cortex_m55/gnu/inc/tx_port.h **** #ifndef TX_MISRA_ENABLE
 254:../Middlewares/threadx/ports/cortex_m55/gnu/inc/tx_port.h **** #ifdef TX_ENABLE_STACK_CHECKING
 255:../Middlewares/threadx/ports/cortex_m55/gnu/inc/tx_port.h **** #undef TX_DISABLE_STACK_FILLING
 256:../Middlewares/threadx/ports/cortex_m55/gnu/inc/tx_port.h **** #endif
 257:../Middlewares/threadx/ports/cortex_m55/gnu/inc/tx_port.h **** #endif
 258:../Middlewares/threadx/ports/cortex_m55/gnu/inc/tx_port.h **** 
 259:../Middlewares/threadx/ports/cortex_m55/gnu/inc/tx_port.h **** 
 260:../Middlewares/threadx/ports/cortex_m55/gnu/inc/tx_port.h **** /* Define the TX_THREAD control block extensions for this port. The main reason
 261:../Middlewares/threadx/ports/cortex_m55/gnu/inc/tx_port.h ****    for the multiple macros is so that backward compatibility can be maintained with
 262:../Middlewares/threadx/ports/cortex_m55/gnu/inc/tx_port.h ****    existing ThreadX kernel awareness modules.  */
 263:../Middlewares/threadx/ports/cortex_m55/gnu/inc/tx_port.h **** 
 264:../Middlewares/threadx/ports/cortex_m55/gnu/inc/tx_port.h **** #define TX_THREAD_EXTENSION_0
 265:../Middlewares/threadx/ports/cortex_m55/gnu/inc/tx_port.h **** #define TX_THREAD_EXTENSION_1
 266:../Middlewares/threadx/ports/cortex_m55/gnu/inc/tx_port.h **** 
 267:../Middlewares/threadx/ports/cortex_m55/gnu/inc/tx_port.h **** #ifdef  TX_ENABLE_IAR_LIBRARY_SUPPORT
 268:../Middlewares/threadx/ports/cortex_m55/gnu/inc/tx_port.h **** /* IAR library support */
 269:../Middlewares/threadx/ports/cortex_m55/gnu/inc/tx_port.h **** #if !defined(TX_SINGLE_MODE_SECURE) && !defined(TX_SINGLE_MODE_NON_SECURE)
 270:../Middlewares/threadx/ports/cortex_m55/gnu/inc/tx_port.h **** /* ThreadX in non-secure zone with calls to secure zone. */
 271:../Middlewares/threadx/ports/cortex_m55/gnu/inc/tx_port.h **** #define TX_THREAD_EXTENSION_2           VOID    *tx_thread_secure_stack_context;    \
 272:../Middlewares/threadx/ports/cortex_m55/gnu/inc/tx_port.h ****                                         VOID    *tx_thread_iar_tls_pointer;
 273:../Middlewares/threadx/ports/cortex_m55/gnu/inc/tx_port.h **** #else
 274:../Middlewares/threadx/ports/cortex_m55/gnu/inc/tx_port.h **** /* ThreadX in only one zone. */
 275:../Middlewares/threadx/ports/cortex_m55/gnu/inc/tx_port.h **** #define TX_THREAD_EXTENSION_2           VOID    *tx_thread_iar_tls_pointer;
 276:../Middlewares/threadx/ports/cortex_m55/gnu/inc/tx_port.h **** #endif
 277:../Middlewares/threadx/ports/cortex_m55/gnu/inc/tx_port.h **** 
 278:../Middlewares/threadx/ports/cortex_m55/gnu/inc/tx_port.h **** #else
 279:../Middlewares/threadx/ports/cortex_m55/gnu/inc/tx_port.h **** /* No IAR library support */
 280:../Middlewares/threadx/ports/cortex_m55/gnu/inc/tx_port.h **** #if !defined(TX_SINGLE_MODE_SECURE) && !defined(TX_SINGLE_MODE_NON_SECURE)
 281:../Middlewares/threadx/ports/cortex_m55/gnu/inc/tx_port.h **** /* ThreadX in non-secure zone with calls to secure zone. */
 282:../Middlewares/threadx/ports/cortex_m55/gnu/inc/tx_port.h **** #define TX_THREAD_EXTENSION_2           VOID    *tx_thread_secure_stack_context;
 283:../Middlewares/threadx/ports/cortex_m55/gnu/inc/tx_port.h **** #else
 284:../Middlewares/threadx/ports/cortex_m55/gnu/inc/tx_port.h **** /* ThreadX in only one zone. */
 285:../Middlewares/threadx/ports/cortex_m55/gnu/inc/tx_port.h **** #define TX_THREAD_EXTENSION_2
 286:../Middlewares/threadx/ports/cortex_m55/gnu/inc/tx_port.h **** #endif
 287:../Middlewares/threadx/ports/cortex_m55/gnu/inc/tx_port.h **** 
 288:../Middlewares/threadx/ports/cortex_m55/gnu/inc/tx_port.h **** #endif  /* TX_ENABLE_IAR_LIBRARY_SUPPORT */
 289:../Middlewares/threadx/ports/cortex_m55/gnu/inc/tx_port.h **** 
 290:../Middlewares/threadx/ports/cortex_m55/gnu/inc/tx_port.h **** #define TX_THREAD_EXTENSION_3
 291:../Middlewares/threadx/ports/cortex_m55/gnu/inc/tx_port.h **** 
 292:../Middlewares/threadx/ports/cortex_m55/gnu/inc/tx_port.h **** 
 293:../Middlewares/threadx/ports/cortex_m55/gnu/inc/tx_port.h **** /* Define the port extensions of the remaining ThreadX objects.  */
 294:../Middlewares/threadx/ports/cortex_m55/gnu/inc/tx_port.h **** 
 295:../Middlewares/threadx/ports/cortex_m55/gnu/inc/tx_port.h **** #define TX_BLOCK_POOL_EXTENSION
 296:../Middlewares/threadx/ports/cortex_m55/gnu/inc/tx_port.h **** #define TX_BYTE_POOL_EXTENSION
 297:../Middlewares/threadx/ports/cortex_m55/gnu/inc/tx_port.h **** #define TX_EVENT_FLAGS_GROUP_EXTENSION
 298:../Middlewares/threadx/ports/cortex_m55/gnu/inc/tx_port.h **** #define TX_MUTEX_EXTENSION
 299:../Middlewares/threadx/ports/cortex_m55/gnu/inc/tx_port.h **** #define TX_QUEUE_EXTENSION
 300:../Middlewares/threadx/ports/cortex_m55/gnu/inc/tx_port.h **** #define TX_SEMAPHORE_EXTENSION
 301:../Middlewares/threadx/ports/cortex_m55/gnu/inc/tx_port.h **** #define TX_TIMER_EXTENSION
 302:../Middlewares/threadx/ports/cortex_m55/gnu/inc/tx_port.h **** 
 303:../Middlewares/threadx/ports/cortex_m55/gnu/inc/tx_port.h **** 
 304:../Middlewares/threadx/ports/cortex_m55/gnu/inc/tx_port.h **** /* Define the user extension field of the thread control block.  Nothing
 305:../Middlewares/threadx/ports/cortex_m55/gnu/inc/tx_port.h ****    additional is needed for this port so it is defined as white space.  */
 306:../Middlewares/threadx/ports/cortex_m55/gnu/inc/tx_port.h **** 
 307:../Middlewares/threadx/ports/cortex_m55/gnu/inc/tx_port.h **** #ifndef TX_THREAD_USER_EXTENSION
 308:../Middlewares/threadx/ports/cortex_m55/gnu/inc/tx_port.h **** #define TX_THREAD_USER_EXTENSION
ARM GAS  /tmp/cciJDKbP.s 			page 12


 309:../Middlewares/threadx/ports/cortex_m55/gnu/inc/tx_port.h **** #endif
 310:../Middlewares/threadx/ports/cortex_m55/gnu/inc/tx_port.h **** 
 311:../Middlewares/threadx/ports/cortex_m55/gnu/inc/tx_port.h **** 
 312:../Middlewares/threadx/ports/cortex_m55/gnu/inc/tx_port.h **** /* Define the macros for processing extensions in tx_thread_create, tx_thread_delete,
 313:../Middlewares/threadx/ports/cortex_m55/gnu/inc/tx_port.h ****    tx_thread_shell_entry, and tx_thread_terminate.  */
 314:../Middlewares/threadx/ports/cortex_m55/gnu/inc/tx_port.h **** #ifdef  TX_ENABLE_IAR_LIBRARY_SUPPORT
 315:../Middlewares/threadx/ports/cortex_m55/gnu/inc/tx_port.h **** void    *_tx_iar_create_per_thread_tls_area(void);
 316:../Middlewares/threadx/ports/cortex_m55/gnu/inc/tx_port.h **** void    _tx_iar_destroy_per_thread_tls_area(void *tls_ptr);
 317:../Middlewares/threadx/ports/cortex_m55/gnu/inc/tx_port.h **** void    __iar_Initlocks(void);
 318:../Middlewares/threadx/ports/cortex_m55/gnu/inc/tx_port.h **** #define TX_THREAD_CREATE_EXTENSION(thread_ptr)                      thread_ptr -> tx_thread_iar_tls
 319:../Middlewares/threadx/ports/cortex_m55/gnu/inc/tx_port.h **** 
 320:../Middlewares/threadx/ports/cortex_m55/gnu/inc/tx_port.h **** #if !defined(TX_SINGLE_MODE_SECURE) && !defined(TX_SINGLE_MODE_NON_SECURE)
 321:../Middlewares/threadx/ports/cortex_m55/gnu/inc/tx_port.h **** #define TX_THREAD_DELETE_EXTENSION(thread_ptr)                      do {_tx_iar_destroy_per_thread_
 322:../Middlewares/threadx/ports/cortex_m55/gnu/inc/tx_port.h ****                                                                         thread_ptr -> tx_thread_iar
 323:../Middlewares/threadx/ports/cortex_m55/gnu/inc/tx_port.h ****                                                                     if(thread_ptr -> tx_thread_secu
 324:../Middlewares/threadx/ports/cortex_m55/gnu/inc/tx_port.h **** #else
 325:../Middlewares/threadx/ports/cortex_m55/gnu/inc/tx_port.h **** #define TX_THREAD_DELETE_EXTENSION(thread_ptr)                      do {_tx_iar_destroy_per_thread_
 326:../Middlewares/threadx/ports/cortex_m55/gnu/inc/tx_port.h ****                                                                         thread_ptr -> tx_thread_iar
 327:../Middlewares/threadx/ports/cortex_m55/gnu/inc/tx_port.h **** #endif
 328:../Middlewares/threadx/ports/cortex_m55/gnu/inc/tx_port.h **** #define TX_PORT_SPECIFIC_PRE_SCHEDULER_INITIALIZATION               do {__iar_Initlocks();} while(0
 329:../Middlewares/threadx/ports/cortex_m55/gnu/inc/tx_port.h **** 
 330:../Middlewares/threadx/ports/cortex_m55/gnu/inc/tx_port.h **** #else   /* No IAR library support. */
 331:../Middlewares/threadx/ports/cortex_m55/gnu/inc/tx_port.h **** #define TX_THREAD_CREATE_EXTENSION(thread_ptr)
 332:../Middlewares/threadx/ports/cortex_m55/gnu/inc/tx_port.h **** #if !defined(TX_SINGLE_MODE_SECURE) && !defined(TX_SINGLE_MODE_NON_SECURE)
 333:../Middlewares/threadx/ports/cortex_m55/gnu/inc/tx_port.h **** #define TX_THREAD_DELETE_EXTENSION(thread_ptr)                      if(thread_ptr -> tx_thread_secu
 334:../Middlewares/threadx/ports/cortex_m55/gnu/inc/tx_port.h **** #else
 335:../Middlewares/threadx/ports/cortex_m55/gnu/inc/tx_port.h **** #define TX_THREAD_DELETE_EXTENSION(thread_ptr)
 336:../Middlewares/threadx/ports/cortex_m55/gnu/inc/tx_port.h **** #endif
 337:../Middlewares/threadx/ports/cortex_m55/gnu/inc/tx_port.h **** #endif  /* TX_ENABLE_IAR_LIBRARY_SUPPORT */
 338:../Middlewares/threadx/ports/cortex_m55/gnu/inc/tx_port.h **** 
 339:../Middlewares/threadx/ports/cortex_m55/gnu/inc/tx_port.h **** #if !defined(TX_SINGLE_MODE_SECURE) && !defined(TX_SINGLE_MODE_NON_SECURE)
 340:../Middlewares/threadx/ports/cortex_m55/gnu/inc/tx_port.h **** /* Define the size of the secure stack for the timer thread and use the extension to allocate the s
 341:../Middlewares/threadx/ports/cortex_m55/gnu/inc/tx_port.h **** #define TX_TIMER_THREAD_SECURE_STACK_SIZE       256
 342:../Middlewares/threadx/ports/cortex_m55/gnu/inc/tx_port.h **** #define TX_TIMER_INITIALIZE_EXTENSION(status)   _tx_thread_secure_stack_allocate(&_tx_timer_thread,
 343:../Middlewares/threadx/ports/cortex_m55/gnu/inc/tx_port.h **** #endif
 344:../Middlewares/threadx/ports/cortex_m55/gnu/inc/tx_port.h **** 
 345:../Middlewares/threadx/ports/cortex_m55/gnu/inc/tx_port.h **** 
 346:../Middlewares/threadx/ports/cortex_m55/gnu/inc/tx_port.h **** #if defined(__ARMVFP__) || defined(__ARM_PCS_VFP) || defined(__ARM_FP) || defined(__TARGET_FPU_VFP)
 347:../Middlewares/threadx/ports/cortex_m55/gnu/inc/tx_port.h **** 
 348:../Middlewares/threadx/ports/cortex_m55/gnu/inc/tx_port.h **** #ifdef TX_MISRA_ENABLE
 349:../Middlewares/threadx/ports/cortex_m55/gnu/inc/tx_port.h **** 
 350:../Middlewares/threadx/ports/cortex_m55/gnu/inc/tx_port.h **** ULONG  _tx_misra_control_get(void);
 351:../Middlewares/threadx/ports/cortex_m55/gnu/inc/tx_port.h **** void   _tx_misra_control_set(ULONG value);
 352:../Middlewares/threadx/ports/cortex_m55/gnu/inc/tx_port.h **** ULONG  _tx_misra_fpccr_get(void);
 353:../Middlewares/threadx/ports/cortex_m55/gnu/inc/tx_port.h **** void   _tx_misra_vfp_touch(void);
 354:../Middlewares/threadx/ports/cortex_m55/gnu/inc/tx_port.h **** 
 355:../Middlewares/threadx/ports/cortex_m55/gnu/inc/tx_port.h **** #else   /* TX_MISRA_ENABLE not defined */
 356:../Middlewares/threadx/ports/cortex_m55/gnu/inc/tx_port.h **** 
 357:../Middlewares/threadx/ports/cortex_m55/gnu/inc/tx_port.h **** #ifdef __GNUC__ /* GCC and ARM Compiler 6 */
 358:../Middlewares/threadx/ports/cortex_m55/gnu/inc/tx_port.h **** 
 359:../Middlewares/threadx/ports/cortex_m55/gnu/inc/tx_port.h **** __attribute__( ( always_inline ) ) static inline ULONG _tx_control_get(void)
 360:../Middlewares/threadx/ports/cortex_m55/gnu/inc/tx_port.h **** {
 361:../Middlewares/threadx/ports/cortex_m55/gnu/inc/tx_port.h **** ULONG  control_value;
 362:../Middlewares/threadx/ports/cortex_m55/gnu/inc/tx_port.h **** 
 363:../Middlewares/threadx/ports/cortex_m55/gnu/inc/tx_port.h ****     __asm__ volatile (" MRS  %0,CONTROL ": "=r" (control_value) );
 364:../Middlewares/threadx/ports/cortex_m55/gnu/inc/tx_port.h ****     return(control_value);
 365:../Middlewares/threadx/ports/cortex_m55/gnu/inc/tx_port.h **** }
ARM GAS  /tmp/cciJDKbP.s 			page 13


 366:../Middlewares/threadx/ports/cortex_m55/gnu/inc/tx_port.h **** 
 367:../Middlewares/threadx/ports/cortex_m55/gnu/inc/tx_port.h **** __attribute__( ( always_inline ) ) static inline void _tx_control_set(ULONG control_value)
 368:../Middlewares/threadx/ports/cortex_m55/gnu/inc/tx_port.h **** {
 369:../Middlewares/threadx/ports/cortex_m55/gnu/inc/tx_port.h ****     __asm__ volatile (" MSR  CONTROL,%0": : "r" (control_value): "memory" );
 370:../Middlewares/threadx/ports/cortex_m55/gnu/inc/tx_port.h **** }
 371:../Middlewares/threadx/ports/cortex_m55/gnu/inc/tx_port.h **** 
 372:../Middlewares/threadx/ports/cortex_m55/gnu/inc/tx_port.h **** #endif  /* __GNUC__ */
 373:../Middlewares/threadx/ports/cortex_m55/gnu/inc/tx_port.h **** 
 374:../Middlewares/threadx/ports/cortex_m55/gnu/inc/tx_port.h **** /* Touch VFP register in order to flush. Works for AC6/GCC/IAR compilers. */
 375:../Middlewares/threadx/ports/cortex_m55/gnu/inc/tx_port.h **** #define TX_VFP_TOUCH()  __asm__ volatile ("VMOV.F32 s0, s0");
 376:../Middlewares/threadx/ports/cortex_m55/gnu/inc/tx_port.h **** 
 377:../Middlewares/threadx/ports/cortex_m55/gnu/inc/tx_port.h **** #endif  /* TX_MISRA_ENABLE */
 378:../Middlewares/threadx/ports/cortex_m55/gnu/inc/tx_port.h **** 
 379:../Middlewares/threadx/ports/cortex_m55/gnu/inc/tx_port.h **** /* A completed thread falls into _thread_shell_entry and we can simply deactivate the FPU via CONTR
 380:../Middlewares/threadx/ports/cortex_m55/gnu/inc/tx_port.h ****    in order to ensure no lazy stacking will occur. */
 381:../Middlewares/threadx/ports/cortex_m55/gnu/inc/tx_port.h **** 
 382:../Middlewares/threadx/ports/cortex_m55/gnu/inc/tx_port.h **** #ifndef TX_MISRA_ENABLE
 383:../Middlewares/threadx/ports/cortex_m55/gnu/inc/tx_port.h **** 
 384:../Middlewares/threadx/ports/cortex_m55/gnu/inc/tx_port.h **** #define TX_THREAD_COMPLETED_EXTENSION(thread_ptr)   {                                              
 385:../Middlewares/threadx/ports/cortex_m55/gnu/inc/tx_port.h ****                                                     ULONG  _tx_vfp_state;                          
 386:../Middlewares/threadx/ports/cortex_m55/gnu/inc/tx_port.h ****                                                         _tx_vfp_state = _tx_control_get();         
 387:../Middlewares/threadx/ports/cortex_m55/gnu/inc/tx_port.h ****                                                         _tx_vfp_state = _tx_vfp_state & ~((ULONG) 0
 388:../Middlewares/threadx/ports/cortex_m55/gnu/inc/tx_port.h ****                                                         _tx_control_set(_tx_vfp_state);            
 389:../Middlewares/threadx/ports/cortex_m55/gnu/inc/tx_port.h ****                                                     }
 390:../Middlewares/threadx/ports/cortex_m55/gnu/inc/tx_port.h **** #else
 391:../Middlewares/threadx/ports/cortex_m55/gnu/inc/tx_port.h **** 
 392:../Middlewares/threadx/ports/cortex_m55/gnu/inc/tx_port.h **** #define TX_THREAD_COMPLETED_EXTENSION(thread_ptr)   {                                              
 393:../Middlewares/threadx/ports/cortex_m55/gnu/inc/tx_port.h ****                                                     ULONG  _tx_vfp_state;                          
 394:../Middlewares/threadx/ports/cortex_m55/gnu/inc/tx_port.h ****                                                         _tx_vfp_state = _tx_misra_control_get();   
 395:../Middlewares/threadx/ports/cortex_m55/gnu/inc/tx_port.h ****                                                         _tx_vfp_state = _tx_vfp_state & ~((ULONG) 0
 396:../Middlewares/threadx/ports/cortex_m55/gnu/inc/tx_port.h ****                                                         _tx_misra_control_set(_tx_vfp_state);      
 397:../Middlewares/threadx/ports/cortex_m55/gnu/inc/tx_port.h ****                                                     }
 398:../Middlewares/threadx/ports/cortex_m55/gnu/inc/tx_port.h **** #endif
 399:../Middlewares/threadx/ports/cortex_m55/gnu/inc/tx_port.h **** 
 400:../Middlewares/threadx/ports/cortex_m55/gnu/inc/tx_port.h **** /* A thread can be terminated by another thread, so we first check if it's self-terminating and not
 401:../Middlewares/threadx/ports/cortex_m55/gnu/inc/tx_port.h ****    If so, deactivate the FPU via CONTROL.FPCA. Otherwise we are in an interrupt or another thread i
 402:../Middlewares/threadx/ports/cortex_m55/gnu/inc/tx_port.h ****    this one, so if the FPCCR.LSPACT bit is set, we need to save the CONTROL.FPCA state, touch the F
 403:../Middlewares/threadx/ports/cortex_m55/gnu/inc/tx_port.h ****    the lazy FPU save, then restore the CONTROL.FPCA state. */
 404:../Middlewares/threadx/ports/cortex_m55/gnu/inc/tx_port.h **** 
 405:../Middlewares/threadx/ports/cortex_m55/gnu/inc/tx_port.h **** #ifndef TX_MISRA_ENABLE
 406:../Middlewares/threadx/ports/cortex_m55/gnu/inc/tx_port.h **** 
 407:../Middlewares/threadx/ports/cortex_m55/gnu/inc/tx_port.h **** #define TX_THREAD_TERMINATED_EXTENSION(thread_ptr)  {                                              
 408:../Middlewares/threadx/ports/cortex_m55/gnu/inc/tx_port.h ****                                                     ULONG  _tx_system_state;                       
 409:../Middlewares/threadx/ports/cortex_m55/gnu/inc/tx_port.h ****                                                         _tx_system_state = TX_THREAD_GET_SYSTEM_STA
 410:../Middlewares/threadx/ports/cortex_m55/gnu/inc/tx_port.h ****                                                         if ((_tx_system_state == ((ULONG) 0)) && ((
 411:../Middlewares/threadx/ports/cortex_m55/gnu/inc/tx_port.h ****                                                         {                                          
 412:../Middlewares/threadx/ports/cortex_m55/gnu/inc/tx_port.h ****                                                         ULONG  _tx_vfp_state;                      
 413:../Middlewares/threadx/ports/cortex_m55/gnu/inc/tx_port.h ****                                                             _tx_vfp_state = _tx_control_get();     
 414:../Middlewares/threadx/ports/cortex_m55/gnu/inc/tx_port.h ****                                                             _tx_vfp_state = _tx_vfp_state & ~((ULON
 415:../Middlewares/threadx/ports/cortex_m55/gnu/inc/tx_port.h ****                                                             _tx_control_set(_tx_vfp_state);        
 416:../Middlewares/threadx/ports/cortex_m55/gnu/inc/tx_port.h ****                                                         }                                          
 417:../Middlewares/threadx/ports/cortex_m55/gnu/inc/tx_port.h ****                                                         else                                       
 418:../Middlewares/threadx/ports/cortex_m55/gnu/inc/tx_port.h ****                                                         {                                          
 419:../Middlewares/threadx/ports/cortex_m55/gnu/inc/tx_port.h ****                                                         ULONG  _tx_fpccr;                          
 420:../Middlewares/threadx/ports/cortex_m55/gnu/inc/tx_port.h ****                                                             _tx_fpccr = *((volatile ULONG *) 0xE000
 421:../Middlewares/threadx/ports/cortex_m55/gnu/inc/tx_port.h ****                                                             _tx_fpccr = _tx_fpccr & ((ULONG) 0x01);
 422:../Middlewares/threadx/ports/cortex_m55/gnu/inc/tx_port.h ****                                                             if (_tx_fpccr == ((ULONG) 0x01))       
ARM GAS  /tmp/cciJDKbP.s 			page 14


 423:../Middlewares/threadx/ports/cortex_m55/gnu/inc/tx_port.h ****                                                             {                                      
 424:../Middlewares/threadx/ports/cortex_m55/gnu/inc/tx_port.h ****                                                             ULONG _tx_vfp_state;                   
 425:../Middlewares/threadx/ports/cortex_m55/gnu/inc/tx_port.h ****                                                                 _tx_vfp_state = _tx_control_get(); 
 426:../Middlewares/threadx/ports/cortex_m55/gnu/inc/tx_port.h ****                                                                 _tx_vfp_state = _tx_vfp_state & ((U
 427:../Middlewares/threadx/ports/cortex_m55/gnu/inc/tx_port.h ****                                                                 TX_VFP_TOUCH();                    
 428:../Middlewares/threadx/ports/cortex_m55/gnu/inc/tx_port.h ****                                                                 if (_tx_vfp_state == ((ULONG) 0))  
 429:../Middlewares/threadx/ports/cortex_m55/gnu/inc/tx_port.h ****                                                                 {                                  
 430:../Middlewares/threadx/ports/cortex_m55/gnu/inc/tx_port.h ****                                                                     _tx_vfp_state = _tx_control_get
 431:../Middlewares/threadx/ports/cortex_m55/gnu/inc/tx_port.h ****                                                                     _tx_vfp_state = _tx_vfp_state &
 432:../Middlewares/threadx/ports/cortex_m55/gnu/inc/tx_port.h ****                                                                     _tx_control_set(_tx_vfp_state);
 433:../Middlewares/threadx/ports/cortex_m55/gnu/inc/tx_port.h ****                                                                 }                                  
 434:../Middlewares/threadx/ports/cortex_m55/gnu/inc/tx_port.h ****                                                             }                                      
 435:../Middlewares/threadx/ports/cortex_m55/gnu/inc/tx_port.h ****                                                         }                                          
 436:../Middlewares/threadx/ports/cortex_m55/gnu/inc/tx_port.h ****                                                     }
 437:../Middlewares/threadx/ports/cortex_m55/gnu/inc/tx_port.h **** #else
 438:../Middlewares/threadx/ports/cortex_m55/gnu/inc/tx_port.h **** 
 439:../Middlewares/threadx/ports/cortex_m55/gnu/inc/tx_port.h **** #define TX_THREAD_TERMINATED_EXTENSION(thread_ptr)  {                                              
 440:../Middlewares/threadx/ports/cortex_m55/gnu/inc/tx_port.h ****                                                     ULONG  _tx_system_state;                       
 441:../Middlewares/threadx/ports/cortex_m55/gnu/inc/tx_port.h ****                                                         _tx_system_state = TX_THREAD_GET_SYSTEM_STA
 442:../Middlewares/threadx/ports/cortex_m55/gnu/inc/tx_port.h ****                                                         if ((_tx_system_state == ((ULONG) 0)) && ((
 443:../Middlewares/threadx/ports/cortex_m55/gnu/inc/tx_port.h ****                                                         {                                          
 444:../Middlewares/threadx/ports/cortex_m55/gnu/inc/tx_port.h ****                                                         ULONG  _tx_vfp_state;                      
 445:../Middlewares/threadx/ports/cortex_m55/gnu/inc/tx_port.h ****                                                             _tx_vfp_state = _tx_misra_control_get()
 446:../Middlewares/threadx/ports/cortex_m55/gnu/inc/tx_port.h ****                                                             _tx_vfp_state = _tx_vfp_state & ~((ULON
 447:../Middlewares/threadx/ports/cortex_m55/gnu/inc/tx_port.h ****                                                             _tx_misra_control_set(_tx_vfp_state);  
 448:../Middlewares/threadx/ports/cortex_m55/gnu/inc/tx_port.h ****                                                         }                                          
 449:../Middlewares/threadx/ports/cortex_m55/gnu/inc/tx_port.h ****                                                         else                                       
 450:../Middlewares/threadx/ports/cortex_m55/gnu/inc/tx_port.h ****                                                         {                                          
 451:../Middlewares/threadx/ports/cortex_m55/gnu/inc/tx_port.h ****                                                         ULONG  _tx_fpccr;                          
 452:../Middlewares/threadx/ports/cortex_m55/gnu/inc/tx_port.h ****                                                             _tx_fpccr = _tx_misra_fpccr_get();     
 453:../Middlewares/threadx/ports/cortex_m55/gnu/inc/tx_port.h ****                                                             _tx_fpccr = _tx_fpccr & ((ULONG) 0x01);
 454:../Middlewares/threadx/ports/cortex_m55/gnu/inc/tx_port.h ****                                                             if (_tx_fpccr == ((ULONG) 0x01))       
 455:../Middlewares/threadx/ports/cortex_m55/gnu/inc/tx_port.h ****                                                             {                                      
 456:../Middlewares/threadx/ports/cortex_m55/gnu/inc/tx_port.h ****                                                             ULONG _tx_vfp_state;                   
 457:../Middlewares/threadx/ports/cortex_m55/gnu/inc/tx_port.h ****                                                                 _tx_vfp_state = _tx_misra_control_g
 458:../Middlewares/threadx/ports/cortex_m55/gnu/inc/tx_port.h ****                                                                 _tx_vfp_state = _tx_vfp_state & ((U
 459:../Middlewares/threadx/ports/cortex_m55/gnu/inc/tx_port.h ****                                                                 _tx_misra_vfp_touch();             
 460:../Middlewares/threadx/ports/cortex_m55/gnu/inc/tx_port.h ****                                                                 if (_tx_vfp_state == ((ULONG) 0))  
 461:../Middlewares/threadx/ports/cortex_m55/gnu/inc/tx_port.h ****                                                                 {                                  
 462:../Middlewares/threadx/ports/cortex_m55/gnu/inc/tx_port.h ****                                                                     _tx_vfp_state = _tx_misra_contr
 463:../Middlewares/threadx/ports/cortex_m55/gnu/inc/tx_port.h ****                                                                     _tx_vfp_state = _tx_vfp_state &
 464:../Middlewares/threadx/ports/cortex_m55/gnu/inc/tx_port.h ****                                                                     _tx_misra_control_set(_tx_vfp_s
 465:../Middlewares/threadx/ports/cortex_m55/gnu/inc/tx_port.h ****                                                                 }                                  
 466:../Middlewares/threadx/ports/cortex_m55/gnu/inc/tx_port.h ****                                                             }                                      
 467:../Middlewares/threadx/ports/cortex_m55/gnu/inc/tx_port.h ****                                                         }                                          
 468:../Middlewares/threadx/ports/cortex_m55/gnu/inc/tx_port.h ****                                                     }
 469:../Middlewares/threadx/ports/cortex_m55/gnu/inc/tx_port.h **** #endif
 470:../Middlewares/threadx/ports/cortex_m55/gnu/inc/tx_port.h **** 
 471:../Middlewares/threadx/ports/cortex_m55/gnu/inc/tx_port.h **** #else   /* No VFP in use */
 472:../Middlewares/threadx/ports/cortex_m55/gnu/inc/tx_port.h **** 
 473:../Middlewares/threadx/ports/cortex_m55/gnu/inc/tx_port.h **** #define TX_THREAD_COMPLETED_EXTENSION(thread_ptr)
 474:../Middlewares/threadx/ports/cortex_m55/gnu/inc/tx_port.h **** #define TX_THREAD_TERMINATED_EXTENSION(thread_ptr)
 475:../Middlewares/threadx/ports/cortex_m55/gnu/inc/tx_port.h **** 
 476:../Middlewares/threadx/ports/cortex_m55/gnu/inc/tx_port.h **** #endif  /* defined(__ARMVFP__) || defined(__ARM_PCS_VFP) || defined(__ARM_FP) || defined(__TARGET_F
 477:../Middlewares/threadx/ports/cortex_m55/gnu/inc/tx_port.h **** 
 478:../Middlewares/threadx/ports/cortex_m55/gnu/inc/tx_port.h **** 
 479:../Middlewares/threadx/ports/cortex_m55/gnu/inc/tx_port.h **** /* Define the ThreadX object creation extensions for the remaining objects.  */
ARM GAS  /tmp/cciJDKbP.s 			page 15


 480:../Middlewares/threadx/ports/cortex_m55/gnu/inc/tx_port.h **** 
 481:../Middlewares/threadx/ports/cortex_m55/gnu/inc/tx_port.h **** #define TX_BLOCK_POOL_CREATE_EXTENSION(pool_ptr)
 482:../Middlewares/threadx/ports/cortex_m55/gnu/inc/tx_port.h **** #define TX_BYTE_POOL_CREATE_EXTENSION(pool_ptr)
 483:../Middlewares/threadx/ports/cortex_m55/gnu/inc/tx_port.h **** #define TX_EVENT_FLAGS_GROUP_CREATE_EXTENSION(group_ptr)
 484:../Middlewares/threadx/ports/cortex_m55/gnu/inc/tx_port.h **** #define TX_MUTEX_CREATE_EXTENSION(mutex_ptr)
 485:../Middlewares/threadx/ports/cortex_m55/gnu/inc/tx_port.h **** #define TX_QUEUE_CREATE_EXTENSION(queue_ptr)
 486:../Middlewares/threadx/ports/cortex_m55/gnu/inc/tx_port.h **** #define TX_SEMAPHORE_CREATE_EXTENSION(semaphore_ptr)
 487:../Middlewares/threadx/ports/cortex_m55/gnu/inc/tx_port.h **** #define TX_TIMER_CREATE_EXTENSION(timer_ptr)
 488:../Middlewares/threadx/ports/cortex_m55/gnu/inc/tx_port.h **** 
 489:../Middlewares/threadx/ports/cortex_m55/gnu/inc/tx_port.h **** 
 490:../Middlewares/threadx/ports/cortex_m55/gnu/inc/tx_port.h **** /* Define the ThreadX object deletion extensions for the remaining objects.  */
 491:../Middlewares/threadx/ports/cortex_m55/gnu/inc/tx_port.h **** 
 492:../Middlewares/threadx/ports/cortex_m55/gnu/inc/tx_port.h **** #define TX_BLOCK_POOL_DELETE_EXTENSION(pool_ptr)
 493:../Middlewares/threadx/ports/cortex_m55/gnu/inc/tx_port.h **** #define TX_BYTE_POOL_DELETE_EXTENSION(pool_ptr)
 494:../Middlewares/threadx/ports/cortex_m55/gnu/inc/tx_port.h **** #define TX_EVENT_FLAGS_GROUP_DELETE_EXTENSION(group_ptr)
 495:../Middlewares/threadx/ports/cortex_m55/gnu/inc/tx_port.h **** #define TX_MUTEX_DELETE_EXTENSION(mutex_ptr)
 496:../Middlewares/threadx/ports/cortex_m55/gnu/inc/tx_port.h **** #define TX_QUEUE_DELETE_EXTENSION(queue_ptr)
 497:../Middlewares/threadx/ports/cortex_m55/gnu/inc/tx_port.h **** #define TX_SEMAPHORE_DELETE_EXTENSION(semaphore_ptr)
 498:../Middlewares/threadx/ports/cortex_m55/gnu/inc/tx_port.h **** #define TX_TIMER_DELETE_EXTENSION(timer_ptr)
 499:../Middlewares/threadx/ports/cortex_m55/gnu/inc/tx_port.h **** 
 500:../Middlewares/threadx/ports/cortex_m55/gnu/inc/tx_port.h **** 
 501:../Middlewares/threadx/ports/cortex_m55/gnu/inc/tx_port.h **** /* Define the get system state macro.  */
 502:../Middlewares/threadx/ports/cortex_m55/gnu/inc/tx_port.h **** 
 503:../Middlewares/threadx/ports/cortex_m55/gnu/inc/tx_port.h **** #ifndef TX_THREAD_GET_SYSTEM_STATE
 504:../Middlewares/threadx/ports/cortex_m55/gnu/inc/tx_port.h **** #ifndef TX_MISRA_ENABLE
 505:../Middlewares/threadx/ports/cortex_m55/gnu/inc/tx_port.h **** 
 506:../Middlewares/threadx/ports/cortex_m55/gnu/inc/tx_port.h **** #if defined(__GNUC__) /* GCC and AC6 */
 507:../Middlewares/threadx/ports/cortex_m55/gnu/inc/tx_port.h **** __attribute__( ( always_inline ) ) static inline UINT _tx_ipsr_get(void)
 508:../Middlewares/threadx/ports/cortex_m55/gnu/inc/tx_port.h **** {
 509:../Middlewares/threadx/ports/cortex_m55/gnu/inc/tx_port.h **** UINT ipsr_value;
 510:../Middlewares/threadx/ports/cortex_m55/gnu/inc/tx_port.h ****     __asm__ volatile (" MRS  %0,IPSR ": "=r" (ipsr_value) );
 511:../Middlewares/threadx/ports/cortex_m55/gnu/inc/tx_port.h ****     return(ipsr_value);
 512:../Middlewares/threadx/ports/cortex_m55/gnu/inc/tx_port.h **** }
 513:../Middlewares/threadx/ports/cortex_m55/gnu/inc/tx_port.h **** #endif  /* GCC and AC6 IPSR_get function. */
 514:../Middlewares/threadx/ports/cortex_m55/gnu/inc/tx_port.h **** 
 515:../Middlewares/threadx/ports/cortex_m55/gnu/inc/tx_port.h **** #define TX_THREAD_GET_SYSTEM_STATE()        (_tx_thread_system_state | _tx_ipsr_get())
 516:../Middlewares/threadx/ports/cortex_m55/gnu/inc/tx_port.h **** 
 517:../Middlewares/threadx/ports/cortex_m55/gnu/inc/tx_port.h **** #else   /* TX_MISRA_ENABLE is defined, use MISRA function. */
 518:../Middlewares/threadx/ports/cortex_m55/gnu/inc/tx_port.h **** ULONG   _tx_misra_ipsr_get(VOID);
 519:../Middlewares/threadx/ports/cortex_m55/gnu/inc/tx_port.h **** #define TX_THREAD_GET_SYSTEM_STATE()        (_tx_thread_system_state | _tx_misra_ipsr_get())
 520:../Middlewares/threadx/ports/cortex_m55/gnu/inc/tx_port.h **** #endif  /* TX_MISRA_ENABLE */
 521:../Middlewares/threadx/ports/cortex_m55/gnu/inc/tx_port.h **** #endif  /* TX_THREAD_GET_SYSTEM_STATE */
 522:../Middlewares/threadx/ports/cortex_m55/gnu/inc/tx_port.h **** 
 523:../Middlewares/threadx/ports/cortex_m55/gnu/inc/tx_port.h **** 
 524:../Middlewares/threadx/ports/cortex_m55/gnu/inc/tx_port.h **** /* Define the check for whether or not to call the _tx_thread_system_return function.  A non-zero v
 525:../Middlewares/threadx/ports/cortex_m55/gnu/inc/tx_port.h ****    indicates that _tx_thread_system_return should not be called. This overrides the definition in t
 526:../Middlewares/threadx/ports/cortex_m55/gnu/inc/tx_port.h ****    for Cortex-M since so we don't waste time checking the _tx_thread_system_state variable that is 
 527:../Middlewares/threadx/ports/cortex_m55/gnu/inc/tx_port.h ****    zero after initialization for Cortex-M ports. */
 528:../Middlewares/threadx/ports/cortex_m55/gnu/inc/tx_port.h **** 
 529:../Middlewares/threadx/ports/cortex_m55/gnu/inc/tx_port.h **** #ifndef TX_THREAD_SYSTEM_RETURN_CHECK
 530:../Middlewares/threadx/ports/cortex_m55/gnu/inc/tx_port.h **** #define TX_THREAD_SYSTEM_RETURN_CHECK(c)    (c) = ((ULONG) _tx_thread_preempt_disable);
 531:../Middlewares/threadx/ports/cortex_m55/gnu/inc/tx_port.h **** #endif
 532:../Middlewares/threadx/ports/cortex_m55/gnu/inc/tx_port.h **** 
 533:../Middlewares/threadx/ports/cortex_m55/gnu/inc/tx_port.h **** #if !defined(TX_SINGLE_MODE_SECURE) && !defined(TX_SINGLE_MODE_NON_SECURE)
 534:../Middlewares/threadx/ports/cortex_m55/gnu/inc/tx_port.h **** /* Initialize secure stacks for threads calling secure functions. */
 535:../Middlewares/threadx/ports/cortex_m55/gnu/inc/tx_port.h **** extern void    _tx_thread_secure_stack_initialize(void);
 536:../Middlewares/threadx/ports/cortex_m55/gnu/inc/tx_port.h **** #define TX_PORT_SPECIFIC_PRE_INITIALIZATION             _tx_thread_secure_stack_initialize();
ARM GAS  /tmp/cciJDKbP.s 			page 16


 537:../Middlewares/threadx/ports/cortex_m55/gnu/inc/tx_port.h **** #endif
 538:../Middlewares/threadx/ports/cortex_m55/gnu/inc/tx_port.h **** 
 539:../Middlewares/threadx/ports/cortex_m55/gnu/inc/tx_port.h **** /* Define the macro to ensure _tx_thread_preempt_disable is set early in initialization in order to
 540:../Middlewares/threadx/ports/cortex_m55/gnu/inc/tx_port.h ****    prevent early scheduling on Cortex-M parts.  */
 541:../Middlewares/threadx/ports/cortex_m55/gnu/inc/tx_port.h **** 
 542:../Middlewares/threadx/ports/cortex_m55/gnu/inc/tx_port.h **** #define TX_PORT_SPECIFIC_POST_INITIALIZATION    _tx_thread_preempt_disable++;
 543:../Middlewares/threadx/ports/cortex_m55/gnu/inc/tx_port.h **** 
 544:../Middlewares/threadx/ports/cortex_m55/gnu/inc/tx_port.h **** 
 545:../Middlewares/threadx/ports/cortex_m55/gnu/inc/tx_port.h **** 
 546:../Middlewares/threadx/ports/cortex_m55/gnu/inc/tx_port.h **** 
 547:../Middlewares/threadx/ports/cortex_m55/gnu/inc/tx_port.h **** #ifndef TX_DISABLE_INLINE
 548:../Middlewares/threadx/ports/cortex_m55/gnu/inc/tx_port.h **** 
 549:../Middlewares/threadx/ports/cortex_m55/gnu/inc/tx_port.h **** /* Define the TX_LOWEST_SET_BIT_CALCULATE macro for each compiler. */
 550:../Middlewares/threadx/ports/cortex_m55/gnu/inc/tx_port.h **** #ifdef __ICCARM__       /* IAR Compiler */
 551:../Middlewares/threadx/ports/cortex_m55/gnu/inc/tx_port.h **** #define TX_LOWEST_SET_BIT_CALCULATE(m, b)       (b) = (UINT) __CLZ(__RBIT((m)));
 552:../Middlewares/threadx/ports/cortex_m55/gnu/inc/tx_port.h **** #elif defined(__GNUC__) /* GCC and AC6 Compiler */
 553:../Middlewares/threadx/ports/cortex_m55/gnu/inc/tx_port.h **** #define TX_LOWEST_SET_BIT_CALCULATE(m, b)       __asm__ volatile (" RBIT %0,%1 ": "=r" (m) : "r" (m
 554:../Middlewares/threadx/ports/cortex_m55/gnu/inc/tx_port.h ****                                                 __asm__ volatile (" CLZ  %0,%1 ": "=r" (b) : "r" (m
 555:../Middlewares/threadx/ports/cortex_m55/gnu/inc/tx_port.h **** #else
 556:../Middlewares/threadx/ports/cortex_m55/gnu/inc/tx_port.h **** #error "Compiler not supported."
 557:../Middlewares/threadx/ports/cortex_m55/gnu/inc/tx_port.h **** #endif
 558:../Middlewares/threadx/ports/cortex_m55/gnu/inc/tx_port.h **** 
 559:../Middlewares/threadx/ports/cortex_m55/gnu/inc/tx_port.h **** 
 560:../Middlewares/threadx/ports/cortex_m55/gnu/inc/tx_port.h **** 
 561:../Middlewares/threadx/ports/cortex_m55/gnu/inc/tx_port.h **** /* Define the interrupt disable/restore macros. */
 562:../Middlewares/threadx/ports/cortex_m55/gnu/inc/tx_port.h **** 
 563:../Middlewares/threadx/ports/cortex_m55/gnu/inc/tx_port.h **** __attribute__( ( always_inline ) ) static inline UINT __get_interrupt_posture(void)
 564:../Middlewares/threadx/ports/cortex_m55/gnu/inc/tx_port.h **** {
 565:../Middlewares/threadx/ports/cortex_m55/gnu/inc/tx_port.h **** UINT posture;
 566:../Middlewares/threadx/ports/cortex_m55/gnu/inc/tx_port.h **** #ifdef TX_PORT_USE_BASEPRI
 567:../Middlewares/threadx/ports/cortex_m55/gnu/inc/tx_port.h ****     __asm__ volatile ("MRS  %0, BASEPRI ": "=r" (posture));
 568:../Middlewares/threadx/ports/cortex_m55/gnu/inc/tx_port.h **** #else
 569:../Middlewares/threadx/ports/cortex_m55/gnu/inc/tx_port.h ****     __asm__ volatile ("MRS  %0, PRIMASK ": "=r" (posture));
 570:../Middlewares/threadx/ports/cortex_m55/gnu/inc/tx_port.h **** #endif
 571:../Middlewares/threadx/ports/cortex_m55/gnu/inc/tx_port.h ****     return(posture);
 572:../Middlewares/threadx/ports/cortex_m55/gnu/inc/tx_port.h **** }
 573:../Middlewares/threadx/ports/cortex_m55/gnu/inc/tx_port.h **** 
 574:../Middlewares/threadx/ports/cortex_m55/gnu/inc/tx_port.h **** #ifdef TX_PORT_USE_BASEPRI
 575:../Middlewares/threadx/ports/cortex_m55/gnu/inc/tx_port.h **** __attribute__( ( always_inline ) ) static inline void __set_basepri_value(UINT basepri_value)
 576:../Middlewares/threadx/ports/cortex_m55/gnu/inc/tx_port.h **** {
 577:../Middlewares/threadx/ports/cortex_m55/gnu/inc/tx_port.h ****     __asm__ volatile ("MSR  BASEPRI,%0 ": : "r" (basepri_value));
 578:../Middlewares/threadx/ports/cortex_m55/gnu/inc/tx_port.h **** }
 579:../Middlewares/threadx/ports/cortex_m55/gnu/inc/tx_port.h **** #else
 580:../Middlewares/threadx/ports/cortex_m55/gnu/inc/tx_port.h **** __attribute__( ( always_inline ) ) static inline void __enable_interrupts(void)
 581:../Middlewares/threadx/ports/cortex_m55/gnu/inc/tx_port.h **** {
 582:../Middlewares/threadx/ports/cortex_m55/gnu/inc/tx_port.h ****     __asm__ volatile ("CPSIE  i": : : "memory");
 583:../Middlewares/threadx/ports/cortex_m55/gnu/inc/tx_port.h **** }
 584:../Middlewares/threadx/ports/cortex_m55/gnu/inc/tx_port.h **** #endif
 585:../Middlewares/threadx/ports/cortex_m55/gnu/inc/tx_port.h **** 
 586:../Middlewares/threadx/ports/cortex_m55/gnu/inc/tx_port.h **** __attribute__( ( always_inline ) ) static inline void __restore_interrupt(UINT int_posture)
 587:../Middlewares/threadx/ports/cortex_m55/gnu/inc/tx_port.h **** {
 588:../Middlewares/threadx/ports/cortex_m55/gnu/inc/tx_port.h **** #ifdef TX_PORT_USE_BASEPRI
 589:../Middlewares/threadx/ports/cortex_m55/gnu/inc/tx_port.h ****     __set_basepri_value(int_posture);
 590:../Middlewares/threadx/ports/cortex_m55/gnu/inc/tx_port.h **** #else
 591:../Middlewares/threadx/ports/cortex_m55/gnu/inc/tx_port.h ****     __asm__ volatile ("MSR  PRIMASK,%0": : "r" (int_posture): "memory");
 592:../Middlewares/threadx/ports/cortex_m55/gnu/inc/tx_port.h **** #endif
 593:../Middlewares/threadx/ports/cortex_m55/gnu/inc/tx_port.h **** }
ARM GAS  /tmp/cciJDKbP.s 			page 17


 594:../Middlewares/threadx/ports/cortex_m55/gnu/inc/tx_port.h **** 
 595:../Middlewares/threadx/ports/cortex_m55/gnu/inc/tx_port.h **** __attribute__( ( always_inline ) ) static inline UINT __disable_interrupts(void)
 149              		.loc 2 595 55 view .LVU56
 150              	.LBB14:
 596:../Middlewares/threadx/ports/cortex_m55/gnu/inc/tx_port.h **** {
 597:../Middlewares/threadx/ports/cortex_m55/gnu/inc/tx_port.h **** UINT int_posture;
 151              		.loc 2 597 1 view .LVU57
 598:../Middlewares/threadx/ports/cortex_m55/gnu/inc/tx_port.h **** 
 599:../Middlewares/threadx/ports/cortex_m55/gnu/inc/tx_port.h ****     int_posture = __get_interrupt_posture();
 152              		.loc 2 599 5 view .LVU58
 153              	.LBB15:
 154              	.LBI15:
 563:../Middlewares/threadx/ports/cortex_m55/gnu/inc/tx_port.h **** {
 155              		.loc 2 563 55 view .LVU59
 156              	.LBB16:
 565:../Middlewares/threadx/ports/cortex_m55/gnu/inc/tx_port.h **** #ifdef TX_PORT_USE_BASEPRI
 157              		.loc 2 565 1 view .LVU60
 569:../Middlewares/threadx/ports/cortex_m55/gnu/inc/tx_port.h **** #endif
 158              		.loc 2 569 5 view .LVU61
 159              		.syntax unified
 160              	@ 569 "../Middlewares/threadx/ports/cortex_m55/gnu/inc/tx_port.h" 1
 161 005c EFF31087 		MRS  r7, PRIMASK 
 162              	@ 0 "" 2
 163              	.LVL12:
 571:../Middlewares/threadx/ports/cortex_m55/gnu/inc/tx_port.h **** }
 164              		.loc 2 571 5 view .LVU62
 571:../Middlewares/threadx/ports/cortex_m55/gnu/inc/tx_port.h **** }
 165              		.loc 2 571 5 is_stmt 0 view .LVU63
 166              		.thumb
 167              		.syntax unified
 168              	.LBE16:
 169              	.LBE15:
 600:../Middlewares/threadx/ports/cortex_m55/gnu/inc/tx_port.h **** 
 601:../Middlewares/threadx/ports/cortex_m55/gnu/inc/tx_port.h **** #ifdef TX_PORT_USE_BASEPRI
 602:../Middlewares/threadx/ports/cortex_m55/gnu/inc/tx_port.h ****     __set_basepri_value(TX_PORT_BASEPRI);
 603:../Middlewares/threadx/ports/cortex_m55/gnu/inc/tx_port.h **** #else
 604:../Middlewares/threadx/ports/cortex_m55/gnu/inc/tx_port.h ****     __asm__ volatile ("CPSID i" : : : "memory");
 170              		.loc 2 604 5 is_stmt 1 view .LVU64
 171              		.syntax unified
 172              	@ 604 "../Middlewares/threadx/ports/cortex_m55/gnu/inc/tx_port.h" 1
 173 0060 72B6     		CPSID i
 174              	@ 0 "" 2
 605:../Middlewares/threadx/ports/cortex_m55/gnu/inc/tx_port.h **** #endif
 606:../Middlewares/threadx/ports/cortex_m55/gnu/inc/tx_port.h ****     return(int_posture);
 175              		.loc 2 606 5 view .LVU65
 176              	.LVL13:
 177              		.loc 2 606 5 is_stmt 0 view .LVU66
 178              		.thumb
 179              		.syntax unified
 180              	.LBE14:
 181              	.LBE13:
 154:../Middlewares/threadx/common/src/tx_block_pool_create.c **** 
 155:../Middlewares/threadx/common/src/tx_block_pool_create.c ****         /* Setup the block pool ID to make it valid.  */
 156:../Middlewares/threadx/common/src/tx_block_pool_create.c ****         pool_ptr -> tx_block_pool_id =  TX_BLOCK_POOL_ID;
 182              		.loc 1 156 9 is_stmt 1 view .LVU67
 183              		.loc 1 156 38 is_stmt 0 view .LVU68
 184 0062 334A     		ldr	r2, .L21
ARM GAS  /tmp/cciJDKbP.s 			page 18


 157:../Middlewares/threadx/common/src/tx_block_pool_create.c **** 
 158:../Middlewares/threadx/common/src/tx_block_pool_create.c ****         /* Place the block pool on the list of created block pools.  First,
 159:../Middlewares/threadx/common/src/tx_block_pool_create.c ****            check for an empty list.  */
 160:../Middlewares/threadx/common/src/tx_block_pool_create.c ****         if (_tx_block_pool_created_count == TX_EMPTY)
 185              		.loc 1 160 42 view .LVU69
 186 0064 3348     		ldr	r0, .L21+4
 187              	.LVL14:
 156:../Middlewares/threadx/common/src/tx_block_pool_create.c **** 
 188              		.loc 1 156 38 view .LVU70
 189 0066 2260     		str	r2, [r4]
 190              		.loc 1 160 9 is_stmt 1 view .LVU71
 191              		.loc 1 160 42 is_stmt 0 view .LVU72
 192 0068 0268     		ldr	r2, [r0]
 193 006a 3349     		ldr	r1, .L21+8
 194              		.loc 1 160 12 view .LVU73
 195 006c 002A     		cmp	r2, #0
 196 006e 46D1     		bne	.L5
 197              	.LVL15:
 161:../Middlewares/threadx/common/src/tx_block_pool_create.c ****         {
 162:../Middlewares/threadx/common/src/tx_block_pool_create.c **** 
 163:../Middlewares/threadx/common/src/tx_block_pool_create.c ****             /* The created block pool list is empty.  Add block pool to empty list.  */
 164:../Middlewares/threadx/common/src/tx_block_pool_create.c ****             _tx_block_pool_created_ptr =                  pool_ptr;
 198              		.loc 1 164 13 is_stmt 1 view .LVU74
 165:../Middlewares/threadx/common/src/tx_block_pool_create.c ****             pool_ptr -> tx_block_pool_created_next =      pool_ptr;
 166:../Middlewares/threadx/common/src/tx_block_pool_create.c ****             pool_ptr -> tx_block_pool_created_previous =  pool_ptr;
 199              		.loc 1 166 56 is_stmt 0 view .LVU75
 200 0070 C4E90A44 		strd	r4, r4, [r4, #40]
 164:../Middlewares/threadx/common/src/tx_block_pool_create.c ****             pool_ptr -> tx_block_pool_created_next =      pool_ptr;
 201              		.loc 1 164 40 view .LVU76
 202 0074 0C60     		str	r4, [r1]
 165:../Middlewares/threadx/common/src/tx_block_pool_create.c ****             pool_ptr -> tx_block_pool_created_next =      pool_ptr;
 203              		.loc 1 165 13 is_stmt 1 view .LVU77
 204              	.L6:
 167:../Middlewares/threadx/common/src/tx_block_pool_create.c ****         }
 168:../Middlewares/threadx/common/src/tx_block_pool_create.c ****         else
 169:../Middlewares/threadx/common/src/tx_block_pool_create.c ****         {
 170:../Middlewares/threadx/common/src/tx_block_pool_create.c **** 
 171:../Middlewares/threadx/common/src/tx_block_pool_create.c ****             /* This list is not NULL, add to the end of the list.  */
 172:../Middlewares/threadx/common/src/tx_block_pool_create.c ****             next_pool =      _tx_block_pool_created_ptr;
 173:../Middlewares/threadx/common/src/tx_block_pool_create.c ****             previous_pool =  next_pool -> tx_block_pool_created_previous;
 174:../Middlewares/threadx/common/src/tx_block_pool_create.c **** 
 175:../Middlewares/threadx/common/src/tx_block_pool_create.c ****             /* Place the new block pool in the list.  */
 176:../Middlewares/threadx/common/src/tx_block_pool_create.c ****             next_pool -> tx_block_pool_created_previous =  pool_ptr;
 177:../Middlewares/threadx/common/src/tx_block_pool_create.c ****             previous_pool -> tx_block_pool_created_next =  pool_ptr;
 178:../Middlewares/threadx/common/src/tx_block_pool_create.c **** 
 179:../Middlewares/threadx/common/src/tx_block_pool_create.c ****             /* Setup this block pool's created links.  */
 180:../Middlewares/threadx/common/src/tx_block_pool_create.c ****             pool_ptr -> tx_block_pool_created_previous =  previous_pool;
 181:../Middlewares/threadx/common/src/tx_block_pool_create.c ****             pool_ptr -> tx_block_pool_created_next =      next_pool;
 182:../Middlewares/threadx/common/src/tx_block_pool_create.c ****         }
 183:../Middlewares/threadx/common/src/tx_block_pool_create.c **** 
 184:../Middlewares/threadx/common/src/tx_block_pool_create.c ****         /* Increment the created count.  */
 185:../Middlewares/threadx/common/src/tx_block_pool_create.c ****         _tx_block_pool_created_count++;
 205              		.loc 1 185 9 view .LVU78
 206              		.loc 1 185 37 is_stmt 0 view .LVU79
 207 0076 0132     		adds	r2, r2, #1
 208 0078 0260     		str	r2, [r0]
 186:../Middlewares/threadx/common/src/tx_block_pool_create.c **** 
ARM GAS  /tmp/cciJDKbP.s 			page 19


 187:../Middlewares/threadx/common/src/tx_block_pool_create.c ****         /* Optional block pool create extended processing.  */
 188:../Middlewares/threadx/common/src/tx_block_pool_create.c ****         TX_BLOCK_POOL_CREATE_EXTENSION(pool_ptr)
 189:../Middlewares/threadx/common/src/tx_block_pool_create.c **** 
 190:../Middlewares/threadx/common/src/tx_block_pool_create.c ****         /* If trace is enabled, register this object.  */
 191:../Middlewares/threadx/common/src/tx_block_pool_create.c ****         TX_TRACE_OBJECT_REGISTER(TX_TRACE_OBJECT_TYPE_BLOCK_POOL, pool_ptr, name_ptr, pool_size, bl
 209              		.loc 1 191 9 is_stmt 1 view .LVU80
 210 007a 2146     		mov	r1, r4
 211 007c 4A46     		mov	r2, r9
 212 007e 0720     		movs	r0, #7
 213 0080 0095     		str	r5, [sp]
 214 0082 FFF7FEFF 		bl	_tx_trace_object_register
 215              	.LVL16:
 216              	.LBB17:
 192:../Middlewares/threadx/common/src/tx_block_pool_create.c **** 
 193:../Middlewares/threadx/common/src/tx_block_pool_create.c ****         /* If trace is enabled, insert this event into the trace buffer.  */
 194:../Middlewares/threadx/common/src/tx_block_pool_create.c ****         TX_TRACE_IN_LINE_INSERT(TX_TRACE_BLOCK_POOL_CREATE, pool_ptr, TX_POINTER_TO_ULONG_CONVERT(p
 217              		.loc 1 194 9 view .LVU81
 218              		.loc 1 194 9 view .LVU82
 219              		.loc 1 194 9 view .LVU83
 220              		.loc 1 194 9 view .LVU84
 221              		.loc 1 194 9 view .LVU85
 222 0086 DFF8D4C0 		ldr	ip, .L21+44
 223 008a DCF80020 		ldr	r2, [ip]
 224              	.LVL17:
 225              		.loc 1 194 9 view .LVU86
 226 008e 002A     		cmp	r2, #0
 227 0090 2CD0     		beq	.L8
 228              		.loc 1 194 9 is_stmt 0 discriminator 1 view .LVU87
 229 0092 2A4B     		ldr	r3, .L21+12
 230 0094 1B68     		ldr	r3, [r3]
 231 0096 9B07     		lsls	r3, r3, #30
 232 0098 28D5     		bpl	.L8
 233              		.loc 1 194 9 is_stmt 1 discriminator 2 view .LVU88
 234              	.LBB18:
 235              	.LBI18:
 507:../Middlewares/threadx/ports/cortex_m55/gnu/inc/tx_port.h **** {
 236              		.loc 2 507 55 view .LVU89
 237              	.LBB19:
 509:../Middlewares/threadx/ports/cortex_m55/gnu/inc/tx_port.h ****     __asm__ volatile (" MRS  %0,IPSR ": "=r" (ipsr_value) );
 238              		.loc 2 509 1 view .LVU90
 510:../Middlewares/threadx/ports/cortex_m55/gnu/inc/tx_port.h ****     return(ipsr_value);
 239              		.loc 2 510 5 view .LVU91
 240              		.syntax unified
 241              	@ 510 "../Middlewares/threadx/ports/cortex_m55/gnu/inc/tx_port.h" 1
 242 009a EFF30580 		 MRS  r0,IPSR 
 243              	@ 0 "" 2
 244              	.LVL18:
 511:../Middlewares/threadx/ports/cortex_m55/gnu/inc/tx_port.h **** }
 245              		.loc 2 511 5 view .LVU92
 511:../Middlewares/threadx/ports/cortex_m55/gnu/inc/tx_port.h **** }
 246              		.loc 2 511 5 is_stmt 0 view .LVU93
 247              		.thumb
 248              		.syntax unified
 249              	.LBE19:
 250              	.LBE18:
 251              		.loc 1 194 9 discriminator 1 view .LVU94
 252 009e 284B     		ldr	r3, .L21+16
ARM GAS  /tmp/cciJDKbP.s 			page 20


 253 00a0 2849     		ldr	r1, .L21+20
 254 00a2 1B68     		ldr	r3, [r3]
 255              	.LVL19:
 256              		.loc 1 194 9 is_stmt 1 discriminator 1 view .LVU95
 257 00a4 0968     		ldr	r1, [r1]
 258              	.LVL20:
 259              		.loc 1 194 9 discriminator 1 view .LVU96
 260 00a6 0343     		orrs	r3, r3, r0
 261              	.LVL21:
 262              		.loc 1 194 9 is_stmt 0 discriminator 1 view .LVU97
 263 00a8 32D1     		bne	.L10
 264              		.loc 1 194 9 is_stmt 1 discriminator 3 view .LVU98
 265              	.LVL22:
 266              		.loc 1 194 9 view .LVU99
 267              		.loc 1 194 9 is_stmt 0 discriminator 3 view .LVU100
 268 00aa C86B     		ldr	r0, [r1, #60]
 269 00ac CB6A     		ldr	r3, [r1, #44]
 270              	.LVL23:
 271              		.loc 1 194 9 discriminator 3 view .LVU101
 272 00ae 43EA0043 		orr	r3, r3, r0, lsl #16
 273 00b2 43F00043 		orr	r3, r3, #-2147483648
 274              	.LVL24:
 275              	.L11:
 276              		.loc 1 194 9 is_stmt 1 discriminator 9 view .LVU102
 277 00b6 C2E90013 		strd	r1, r3, [r2]
 278              		.loc 1 194 9 view .LVU103
 279              		.loc 1 194 9 is_stmt 0 discriminator 9 view .LVU104
 280 00ba 0B23     		movs	r3, #11
 281              	.LVL25:
 282              		.loc 1 194 9 discriminator 9 view .LVU105
 283 00bc 9360     		str	r3, [r2, #8]
 284              		.loc 1 194 9 is_stmt 1 view .LVU106
 285              		.loc 1 194 9 is_stmt 0 discriminator 9 view .LVU107
 286 00be 224B     		ldr	r3, .L21+24
 287 00c0 5B68     		ldr	r3, [r3, #4]
 288 00c2 D561     		str	r5, [r2, #28]
 289 00c4 C2E90334 		strd	r3, r4, [r2, #12]
 290              		.loc 1 194 9 is_stmt 1 view .LVU108
 291              		.loc 1 194 9 is_stmt 0 discriminator 10 view .LVU109
 292 00c8 204B     		ldr	r3, .L21+28
 293              		.loc 1 194 9 discriminator 9 view .LVU110
 294 00ca C2E90568 		strd	r6, r8, [r2, #20]
 295              		.loc 1 194 9 is_stmt 1 view .LVU111
 296              		.loc 1 194 9 view .LVU112
 297              		.loc 1 194 9 is_stmt 0 discriminator 10 view .LVU113
 298 00ce 1868     		ldr	r0, [r3]
 299              		.loc 1 194 9 discriminator 9 view .LVU114
 300 00d0 1F4B     		ldr	r3, .L21+32
 301 00d2 2032     		adds	r2, r2, #32
 302              	.LVL26:
 303              		.loc 1 194 9 is_stmt 1 view .LVU115
 304              		.loc 1 194 9 is_stmt 0 discriminator 9 view .LVU116
 305 00d4 1B68     		ldr	r3, [r3]
 306 00d6 9342     		cmp	r3, r2
 307 00d8 24D8     		bhi	.L12
 308              		.loc 1 194 9 is_stmt 1 discriminator 10 view .LVU117
 309 00da 1E4B     		ldr	r3, .L21+36
ARM GAS  /tmp/cciJDKbP.s 			page 21


 310 00dc 1B68     		ldr	r3, [r3]
 311              	.LVL27:
 312              		.loc 1 194 9 view .LVU118
 313              		.loc 1 194 9 is_stmt 0 discriminator 10 view .LVU119
 314 00de CCF80030 		str	r3, [ip]
 315              	.LVL28:
 316              		.loc 1 194 9 is_stmt 1 view .LVU120
 317              		.loc 1 194 9 is_stmt 0 discriminator 10 view .LVU121
 318 00e2 0362     		str	r3, [r0, #32]
 319              		.loc 1 194 9 is_stmt 1 view .LVU122
 320              		.loc 1 194 9 is_stmt 0 discriminator 10 view .LVU123
 321 00e4 1C4B     		ldr	r3, .L21+40
 322              	.LVL29:
 323              		.loc 1 194 9 discriminator 10 view .LVU124
 324 00e6 1B68     		ldr	r3, [r3]
 325 00e8 03B1     		cbz	r3, .L8
 326              		.loc 1 194 9 is_stmt 1 discriminator 12 view .LVU125
 327 00ea 9847     		blx	r3
 328              	.LVL30:
 329              	.L8:
 330              		.loc 1 194 9 is_stmt 0 discriminator 12 view .LVU126
 331              	.LBE17:
 195:../Middlewares/threadx/common/src/tx_block_pool_create.c **** 
 196:../Middlewares/threadx/common/src/tx_block_pool_create.c ****         /* Log this kernel call.  */
 197:../Middlewares/threadx/common/src/tx_block_pool_create.c ****         TX_EL_BLOCK_POOL_CREATE_INSERT
 198:../Middlewares/threadx/common/src/tx_block_pool_create.c **** 
 199:../Middlewares/threadx/common/src/tx_block_pool_create.c ****         /* Restore interrupts.  */
 200:../Middlewares/threadx/common/src/tx_block_pool_create.c ****         TX_RESTORE
 332              		.loc 1 200 9 is_stmt 1 view .LVU127
 333              	.LBB20:
 334              	.LBI20:
 586:../Middlewares/threadx/ports/cortex_m55/gnu/inc/tx_port.h **** {
 335              		.loc 2 586 55 view .LVU128
 336              	.LBB21:
 591:../Middlewares/threadx/ports/cortex_m55/gnu/inc/tx_port.h **** #endif
 337              		.loc 2 591 5 view .LVU129
 338              		.syntax unified
 339              	@ 591 "../Middlewares/threadx/ports/cortex_m55/gnu/inc/tx_port.h" 1
 340 00ec 87F31088 		MSR  PRIMASK,r7
 341              	@ 0 "" 2
 342              	.LVL31:
 591:../Middlewares/threadx/ports/cortex_m55/gnu/inc/tx_port.h **** #endif
 343              		.loc 2 591 5 is_stmt 0 view .LVU130
 344              		.thumb
 345              		.syntax unified
 346              	.LBE21:
 347              	.LBE20:
 201:../Middlewares/threadx/common/src/tx_block_pool_create.c **** 
 202:../Middlewares/threadx/common/src/tx_block_pool_create.c ****         /* Return successful status.  */
 203:../Middlewares/threadx/common/src/tx_block_pool_create.c ****         status =  TX_SUCCESS;
 348              		.loc 1 203 9 is_stmt 1 view .LVU131
 349              		.loc 1 203 16 is_stmt 0 view .LVU132
 350 00f0 0020     		movs	r0, #0
 351              	.LVL32:
 352              	.L1:
 204:../Middlewares/threadx/common/src/tx_block_pool_create.c ****     }
 205:../Middlewares/threadx/common/src/tx_block_pool_create.c ****     else
ARM GAS  /tmp/cciJDKbP.s 			page 22


 206:../Middlewares/threadx/common/src/tx_block_pool_create.c ****     {
 207:../Middlewares/threadx/common/src/tx_block_pool_create.c **** 
 208:../Middlewares/threadx/common/src/tx_block_pool_create.c ****         /* Not enough memory for one block, return appropriate error.  */
 209:../Middlewares/threadx/common/src/tx_block_pool_create.c ****         status =  TX_SIZE_ERROR;
 210:../Middlewares/threadx/common/src/tx_block_pool_create.c ****     }
 211:../Middlewares/threadx/common/src/tx_block_pool_create.c **** 
 212:../Middlewares/threadx/common/src/tx_block_pool_create.c ****     /* Return completion status.  */
 213:../Middlewares/threadx/common/src/tx_block_pool_create.c ****     return(status);
 214:../Middlewares/threadx/common/src/tx_block_pool_create.c **** }
 353              		.loc 1 214 1 view .LVU133
 354 00f2 03B0     		add	sp, sp, #12
 355              		.cfi_remember_state
 356              		.cfi_def_cfa_offset 28
 357              		@ sp needed
 358 00f4 BDE8F083 		pop	{r4, r5, r6, r7, r8, r9, pc}
 359              	.LVL33:
 360              	.L3:
 361              		.cfi_restore_state
 121:../Middlewares/threadx/common/src/tx_block_pool_create.c **** 
 362              		.loc 1 121 9 is_stmt 1 view .LVU134
 124:../Middlewares/threadx/common/src/tx_block_pool_create.c ****         *block_link_ptr =  next_block_ptr;
 363              		.loc 1 124 9 view .LVU135
 125:../Middlewares/threadx/common/src/tx_block_pool_create.c **** 
 364              		.loc 1 125 9 view .LVU136
 125:../Middlewares/threadx/common/src/tx_block_pool_create.c **** 
 365              		.loc 1 125 25 is_stmt 0 view .LVU137
 366 00f8 B150     		str	r1, [r6, r2]
 128:../Middlewares/threadx/common/src/tx_block_pool_create.c **** 
 367              		.loc 1 128 9 is_stmt 1 view .LVU138
 368              	.LVL34:
 131:../Middlewares/threadx/common/src/tx_block_pool_create.c ****     }
 369              		.loc 1 131 9 view .LVU139
 131:../Middlewares/threadx/common/src/tx_block_pool_create.c ****     }
 370              		.loc 1 131 9 is_stmt 0 view .LVU140
 371 00fa 0244     		add	r2, r2, r0
 372 00fc 9EE7     		b	.L2
 373              	.LVL35:
 374              	.L5:
 172:../Middlewares/threadx/common/src/tx_block_pool_create.c ****             previous_pool =  next_pool -> tx_block_pool_created_previous;
 375              		.loc 1 172 13 is_stmt 1 view .LVU141
 172:../Middlewares/threadx/common/src/tx_block_pool_create.c ****             previous_pool =  next_pool -> tx_block_pool_created_previous;
 376              		.loc 1 172 23 is_stmt 0 view .LVU142
 377 00fe 0968     		ldr	r1, [r1]
 378              	.LVL36:
 173:../Middlewares/threadx/common/src/tx_block_pool_create.c **** 
 379              		.loc 1 173 13 is_stmt 1 view .LVU143
 173:../Middlewares/threadx/common/src/tx_block_pool_create.c **** 
 380              		.loc 1 173 27 is_stmt 0 view .LVU144
 381 0100 D1F82CC0 		ldr	ip, [r1, #44]
 382              	.LVL37:
 176:../Middlewares/threadx/common/src/tx_block_pool_create.c ****             previous_pool -> tx_block_pool_created_next =  pool_ptr;
 383              		.loc 1 176 13 is_stmt 1 view .LVU145
 176:../Middlewares/threadx/common/src/tx_block_pool_create.c ****             previous_pool -> tx_block_pool_created_next =  pool_ptr;
 384              		.loc 1 176 57 is_stmt 0 view .LVU146
 385 0104 CC62     		str	r4, [r1, #44]
 177:../Middlewares/threadx/common/src/tx_block_pool_create.c **** 
 386              		.loc 1 177 13 is_stmt 1 view .LVU147
ARM GAS  /tmp/cciJDKbP.s 			page 23


 177:../Middlewares/threadx/common/src/tx_block_pool_create.c **** 
 387              		.loc 1 177 57 is_stmt 0 view .LVU148
 388 0106 CCF82840 		str	r4, [ip, #40]
 180:../Middlewares/threadx/common/src/tx_block_pool_create.c ****             pool_ptr -> tx_block_pool_created_next =      next_pool;
 389              		.loc 1 180 13 is_stmt 1 view .LVU149
 181:../Middlewares/threadx/common/src/tx_block_pool_create.c ****         }
 390              		.loc 1 181 52 is_stmt 0 view .LVU150
 391 010a C4E90A1C 		strd	r1, ip, [r4, #40]
 392 010e B2E7     		b	.L6
 393              	.LVL38:
 394              	.L10:
 395              	.LBB22:
 194:../Middlewares/threadx/common/src/tx_block_pool_create.c **** 
 396              		.loc 1 194 9 is_stmt 1 discriminator 4 view .LVU151
 397 0110 B3F1F03F 		cmp	r3, #-252645136
 194:../Middlewares/threadx/common/src/tx_block_pool_create.c **** 
 398              		.loc 1 194 9 discriminator 6 view .LVU152
 399 0114 35BF     		itete	cc
 400 0116 0B46     		movcc	r3, r1
 401              	.LVL39:
 194:../Middlewares/threadx/common/src/tx_block_pool_create.c **** 
 402              		.loc 1 194 9 view .LVU153
 194:../Middlewares/threadx/common/src/tx_block_pool_create.c **** 
 403              		.loc 1 194 9 is_stmt 0 discriminator 7 view .LVU154
 404 0118 4FF0F031 		movcs	r1, #-252645136
 194:../Middlewares/threadx/common/src/tx_block_pool_create.c **** 
 405              		.loc 1 194 9 discriminator 6 view .LVU155
 406 011c 4FF0FF31 		movcc	r1, #-1
 407              	.LVL40:
 194:../Middlewares/threadx/common/src/tx_block_pool_create.c **** 
 408              		.loc 1 194 9 discriminator 7 view .LVU156
 409 0120 0023     		movcs	r3, #0
 410 0122 C8E7     		b	.L11
 411              	.LVL41:
 412              	.L12:
 194:../Middlewares/threadx/common/src/tx_block_pool_create.c **** 
 413              		.loc 1 194 9 is_stmt 1 discriminator 11 view .LVU157
 414 0124 CCF80020 		str	r2, [ip]
 415              	.LVL42:
 194:../Middlewares/threadx/common/src/tx_block_pool_create.c **** 
 416              		.loc 1 194 9 view .LVU158
 194:../Middlewares/threadx/common/src/tx_block_pool_create.c **** 
 417              		.loc 1 194 9 is_stmt 0 discriminator 11 view .LVU159
 418 0128 0262     		str	r2, [r0, #32]
 419 012a DFE7     		b	.L8
 420              	.LVL43:
 421              	.L13:
 194:../Middlewares/threadx/common/src/tx_block_pool_create.c **** 
 422              		.loc 1 194 9 discriminator 11 view .LVU160
 423              	.LBE22:
 209:../Middlewares/threadx/common/src/tx_block_pool_create.c ****     }
 424              		.loc 1 209 16 view .LVU161
 425 012c 0520     		movs	r0, #5
 426              	.LVL44:
 213:../Middlewares/threadx/common/src/tx_block_pool_create.c **** }
 427              		.loc 1 213 5 is_stmt 1 view .LVU162
 213:../Middlewares/threadx/common/src/tx_block_pool_create.c **** }
ARM GAS  /tmp/cciJDKbP.s 			page 24


 428              		.loc 1 213 11 is_stmt 0 view .LVU163
 429 012e E0E7     		b	.L1
 430              	.L22:
 431              		.align	2
 432              	.L21:
 433 0130 434F4C42 		.word	1112297283
 434 0134 00000000 		.word	_tx_block_pool_created_count
 435 0138 00000000 		.word	_tx_block_pool_created_ptr
 436 013c 00000000 		.word	_tx_trace_event_enable_bits
 437 0140 00000000 		.word	_tx_thread_system_state
 438 0144 00000000 		.word	_tx_thread_current_ptr
 439 0148 001000E0 		.word	-536866816
 440 014c 00000000 		.word	_tx_trace_header_ptr
 441 0150 00000000 		.word	_tx_trace_buffer_end_ptr
 442 0154 00000000 		.word	_tx_trace_buffer_start_ptr
 443 0158 00000000 		.word	_tx_trace_full_notify_function
 444 015c 00000000 		.word	_tx_trace_buffer_current_ptr
 445              		.cfi_endproc
 446              	.LFE8:
 448              		.text
 449              	.Letext0:
 450              		.file 3 "../Middlewares/threadx/common/inc/tx_api.h"
 451              		.file 4 "../Middlewares/threadx/common/inc/tx_thread.h"
 452              		.file 5 "../Middlewares/threadx/common/inc/tx_trace.h"
 453              		.file 6 "../Middlewares/threadx/common/inc/tx_block_pool.h"
 454              		.file 7 "/opt/st/stm32cubeclt_1.21.0/GNU-tools-for-STM32/arm-none-eabi/include/string.h"
 455              		.file 8 "<built-in>"
ARM GAS  /tmp/cciJDKbP.s 			page 25

