ARM GAS  /tmp/ccposyzW.s 			page 1


   1              		.arch armv8.1-m.main
   2              		.fpu fpv5-d16
   3              		.arch_extension dsp
   4              		.arch_extension fp
   5              		.arch_extension fp.dp
   6              		.arch_extension mve
   7              		.arch_extension mve.fp
   8              		.eabi_attribute 5, "cortex-m55"
   9              		.eabi_attribute 28, 1
  10              		.eabi_attribute 20, 1
  11              		.eabi_attribute 21, 1
  12              		.eabi_attribute 23, 3
  13              		.eabi_attribute 24, 1
  14              		.eabi_attribute 25, 1
  15              		.eabi_attribute 26, 1
  16              		.eabi_attribute 30, 4
  17              		.eabi_attribute 34, 1
  18              		.eabi_attribute 38, 1
  19              		.eabi_attribute 18, 4
  20              		.file	"tx_block_pool_prioritize.c"
  21              		.text
  22              	.Ltext0:
  23              		.cfi_sections	.debug_frame
  24              		.file 1 "../Middlewares/threadx/common/src/tx_block_pool_prioritize.c"
  25              		.section	.text._tx_block_pool_prioritize,"ax",%progbits
  26              		.align	1
  27              		.global	_tx_block_pool_prioritize
  28              		.syntax unified
  29              		.thumb
  30              		.thumb_func
  32              	_tx_block_pool_prioritize:
  33              	.LVL0:
  34              	.LFB8:
   1:../Middlewares/threadx/common/src/tx_block_pool_prioritize.c **** /**************************************************************************/
   2:../Middlewares/threadx/common/src/tx_block_pool_prioritize.c **** /*                                                                        */
   3:../Middlewares/threadx/common/src/tx_block_pool_prioritize.c **** /*       Copyright (c) Microsoft Corporation. All rights reserved.        */
   4:../Middlewares/threadx/common/src/tx_block_pool_prioritize.c **** /*                                                                        */
   5:../Middlewares/threadx/common/src/tx_block_pool_prioritize.c **** /*       This software is licensed under the Microsoft Software License   */
   6:../Middlewares/threadx/common/src/tx_block_pool_prioritize.c **** /*       Terms for Microsoft Azure RTOS. Full text of the license can be  */
   7:../Middlewares/threadx/common/src/tx_block_pool_prioritize.c **** /*       found in the LICENSE file at https://aka.ms/AzureRTOS_EULA       */
   8:../Middlewares/threadx/common/src/tx_block_pool_prioritize.c **** /*       and in the root directory of this software.                      */
   9:../Middlewares/threadx/common/src/tx_block_pool_prioritize.c **** /*                                                                        */
  10:../Middlewares/threadx/common/src/tx_block_pool_prioritize.c **** /**************************************************************************/
  11:../Middlewares/threadx/common/src/tx_block_pool_prioritize.c **** 
  12:../Middlewares/threadx/common/src/tx_block_pool_prioritize.c **** 
  13:../Middlewares/threadx/common/src/tx_block_pool_prioritize.c **** /**************************************************************************/
  14:../Middlewares/threadx/common/src/tx_block_pool_prioritize.c **** /**************************************************************************/
  15:../Middlewares/threadx/common/src/tx_block_pool_prioritize.c **** /**                                                                       */
  16:../Middlewares/threadx/common/src/tx_block_pool_prioritize.c **** /** ThreadX Component                                                     */
  17:../Middlewares/threadx/common/src/tx_block_pool_prioritize.c **** /**                                                                       */
  18:../Middlewares/threadx/common/src/tx_block_pool_prioritize.c **** /**   Block Pool                                                          */
  19:../Middlewares/threadx/common/src/tx_block_pool_prioritize.c **** /**                                                                       */
  20:../Middlewares/threadx/common/src/tx_block_pool_prioritize.c **** /**************************************************************************/
  21:../Middlewares/threadx/common/src/tx_block_pool_prioritize.c **** /**************************************************************************/
  22:../Middlewares/threadx/common/src/tx_block_pool_prioritize.c **** 
  23:../Middlewares/threadx/common/src/tx_block_pool_prioritize.c **** #define TX_SOURCE_CODE
  24:../Middlewares/threadx/common/src/tx_block_pool_prioritize.c **** 
ARM GAS  /tmp/ccposyzW.s 			page 2


  25:../Middlewares/threadx/common/src/tx_block_pool_prioritize.c **** 
  26:../Middlewares/threadx/common/src/tx_block_pool_prioritize.c **** /* Include necessary system files.  */
  27:../Middlewares/threadx/common/src/tx_block_pool_prioritize.c **** 
  28:../Middlewares/threadx/common/src/tx_block_pool_prioritize.c **** #include "tx_api.h"
  29:../Middlewares/threadx/common/src/tx_block_pool_prioritize.c **** #include "tx_trace.h"
  30:../Middlewares/threadx/common/src/tx_block_pool_prioritize.c **** #include "tx_thread.h"
  31:../Middlewares/threadx/common/src/tx_block_pool_prioritize.c **** #include "tx_block_pool.h"
  32:../Middlewares/threadx/common/src/tx_block_pool_prioritize.c **** 
  33:../Middlewares/threadx/common/src/tx_block_pool_prioritize.c **** 
  34:../Middlewares/threadx/common/src/tx_block_pool_prioritize.c **** /**************************************************************************/
  35:../Middlewares/threadx/common/src/tx_block_pool_prioritize.c **** /*                                                                        */
  36:../Middlewares/threadx/common/src/tx_block_pool_prioritize.c **** /*  FUNCTION                                               RELEASE        */
  37:../Middlewares/threadx/common/src/tx_block_pool_prioritize.c **** /*                                                                        */
  38:../Middlewares/threadx/common/src/tx_block_pool_prioritize.c **** /*    _tx_block_pool_prioritize                           PORTABLE C      */
  39:../Middlewares/threadx/common/src/tx_block_pool_prioritize.c **** /*                                                           6.1          */
  40:../Middlewares/threadx/common/src/tx_block_pool_prioritize.c **** /*  AUTHOR                                                                */
  41:../Middlewares/threadx/common/src/tx_block_pool_prioritize.c **** /*                                                                        */
  42:../Middlewares/threadx/common/src/tx_block_pool_prioritize.c **** /*    William E. Lamie, Microsoft Corporation                             */
  43:../Middlewares/threadx/common/src/tx_block_pool_prioritize.c **** /*                                                                        */
  44:../Middlewares/threadx/common/src/tx_block_pool_prioritize.c **** /*  DESCRIPTION                                                           */
  45:../Middlewares/threadx/common/src/tx_block_pool_prioritize.c **** /*                                                                        */
  46:../Middlewares/threadx/common/src/tx_block_pool_prioritize.c **** /*    This function places the highest priority suspended thread at the   */
  47:../Middlewares/threadx/common/src/tx_block_pool_prioritize.c **** /*    front of the suspension list.  All other threads remain in the same */
  48:../Middlewares/threadx/common/src/tx_block_pool_prioritize.c **** /*    FIFO suspension order.                                              */
  49:../Middlewares/threadx/common/src/tx_block_pool_prioritize.c **** /*                                                                        */
  50:../Middlewares/threadx/common/src/tx_block_pool_prioritize.c **** /*  INPUT                                                                 */
  51:../Middlewares/threadx/common/src/tx_block_pool_prioritize.c **** /*                                                                        */
  52:../Middlewares/threadx/common/src/tx_block_pool_prioritize.c **** /*    pool_ptr                         Pointer to pool control block      */
  53:../Middlewares/threadx/common/src/tx_block_pool_prioritize.c **** /*                                                                        */
  54:../Middlewares/threadx/common/src/tx_block_pool_prioritize.c **** /*  OUTPUT                                                                */
  55:../Middlewares/threadx/common/src/tx_block_pool_prioritize.c **** /*                                                                        */
  56:../Middlewares/threadx/common/src/tx_block_pool_prioritize.c **** /*    status                            Completion status                 */
  57:../Middlewares/threadx/common/src/tx_block_pool_prioritize.c **** /*                                                                        */
  58:../Middlewares/threadx/common/src/tx_block_pool_prioritize.c **** /*  CALLS                                                                 */
  59:../Middlewares/threadx/common/src/tx_block_pool_prioritize.c **** /*                                                                        */
  60:../Middlewares/threadx/common/src/tx_block_pool_prioritize.c **** /*    _tx_thread_system_preempt_check   Check for preemption              */
  61:../Middlewares/threadx/common/src/tx_block_pool_prioritize.c **** /*                                                                        */
  62:../Middlewares/threadx/common/src/tx_block_pool_prioritize.c **** /*  CALLED BY                                                             */
  63:../Middlewares/threadx/common/src/tx_block_pool_prioritize.c **** /*                                                                        */
  64:../Middlewares/threadx/common/src/tx_block_pool_prioritize.c **** /*    Application Code                                                    */
  65:../Middlewares/threadx/common/src/tx_block_pool_prioritize.c **** /*                                                                        */
  66:../Middlewares/threadx/common/src/tx_block_pool_prioritize.c **** /*  RELEASE HISTORY                                                       */
  67:../Middlewares/threadx/common/src/tx_block_pool_prioritize.c **** /*                                                                        */
  68:../Middlewares/threadx/common/src/tx_block_pool_prioritize.c **** /*    DATE              NAME                      DESCRIPTION             */
  69:../Middlewares/threadx/common/src/tx_block_pool_prioritize.c **** /*                                                                        */
  70:../Middlewares/threadx/common/src/tx_block_pool_prioritize.c **** /*  05-19-2020     William E. Lamie         Initial Version 6.0           */
  71:../Middlewares/threadx/common/src/tx_block_pool_prioritize.c **** /*  09-30-2020     Yuxin Zhou               Modified comment(s),          */
  72:../Middlewares/threadx/common/src/tx_block_pool_prioritize.c **** /*                                            resulting in version 6.1    */
  73:../Middlewares/threadx/common/src/tx_block_pool_prioritize.c **** /*                                                                        */
  74:../Middlewares/threadx/common/src/tx_block_pool_prioritize.c **** /**************************************************************************/
  75:../Middlewares/threadx/common/src/tx_block_pool_prioritize.c **** UINT  _tx_block_pool_prioritize(TX_BLOCK_POOL *pool_ptr)
  76:../Middlewares/threadx/common/src/tx_block_pool_prioritize.c **** {
  35              		.loc 1 76 1 view -0
  36              		.cfi_startproc
  37              		@ args = 0, pretend = 0, frame = 8
  38              		@ frame_needed = 0, uses_anonymous_args = 0
  77:../Middlewares/threadx/common/src/tx_block_pool_prioritize.c **** 
ARM GAS  /tmp/ccposyzW.s 			page 3


  78:../Middlewares/threadx/common/src/tx_block_pool_prioritize.c **** TX_INTERRUPT_SAVE_AREA
  39              		.loc 1 78 1 view .LVU1
  79:../Middlewares/threadx/common/src/tx_block_pool_prioritize.c **** 
  80:../Middlewares/threadx/common/src/tx_block_pool_prioritize.c **** TX_THREAD       *thread_ptr;
  40              		.loc 1 80 1 view .LVU2
  81:../Middlewares/threadx/common/src/tx_block_pool_prioritize.c **** TX_THREAD       *priority_thread_ptr;
  41              		.loc 1 81 1 view .LVU3
  82:../Middlewares/threadx/common/src/tx_block_pool_prioritize.c **** TX_THREAD       *head_ptr;
  42              		.loc 1 82 1 view .LVU4
  83:../Middlewares/threadx/common/src/tx_block_pool_prioritize.c **** UINT            suspended_count;
  43              		.loc 1 83 1 view .LVU5
  84:../Middlewares/threadx/common/src/tx_block_pool_prioritize.c **** TX_THREAD       *next_thread;
  44              		.loc 1 84 1 view .LVU6
  85:../Middlewares/threadx/common/src/tx_block_pool_prioritize.c **** TX_THREAD       *previous_thread;
  45              		.loc 1 85 1 view .LVU7
  86:../Middlewares/threadx/common/src/tx_block_pool_prioritize.c **** UINT            list_changed;
  46              		.loc 1 86 1 view .LVU8
  87:../Middlewares/threadx/common/src/tx_block_pool_prioritize.c **** 
  88:../Middlewares/threadx/common/src/tx_block_pool_prioritize.c **** 
  89:../Middlewares/threadx/common/src/tx_block_pool_prioritize.c ****     /* Disable interrupts.  */
  90:../Middlewares/threadx/common/src/tx_block_pool_prioritize.c ****     TX_DISABLE
  47              		.loc 1 90 5 view .LVU9
  48              	.LBB23:
  49              	.LBI23:
  50              		.file 2 "../Middlewares/threadx/ports/cortex_m55/gnu/inc/tx_port.h"
   1:../Middlewares/threadx/ports/cortex_m55/gnu/inc/tx_port.h **** /**************************************************************************/
   2:../Middlewares/threadx/ports/cortex_m55/gnu/inc/tx_port.h **** /*                                                                        */
   3:../Middlewares/threadx/ports/cortex_m55/gnu/inc/tx_port.h **** /*       Copyright (c) Microsoft Corporation. All rights reserved.        */
   4:../Middlewares/threadx/ports/cortex_m55/gnu/inc/tx_port.h **** /*                                                                        */
   5:../Middlewares/threadx/ports/cortex_m55/gnu/inc/tx_port.h **** /*       This software is licensed under the Microsoft Software License   */
   6:../Middlewares/threadx/ports/cortex_m55/gnu/inc/tx_port.h **** /*       Terms for Microsoft Azure RTOS. Full text of the license can be  */
   7:../Middlewares/threadx/ports/cortex_m55/gnu/inc/tx_port.h **** /*       found in the LICENSE file at https://aka.ms/AzureRTOS_EULA       */
   8:../Middlewares/threadx/ports/cortex_m55/gnu/inc/tx_port.h **** /*       and in the root directory of this software.                      */
   9:../Middlewares/threadx/ports/cortex_m55/gnu/inc/tx_port.h **** /*                                                                        */
  10:../Middlewares/threadx/ports/cortex_m55/gnu/inc/tx_port.h **** /**************************************************************************/
  11:../Middlewares/threadx/ports/cortex_m55/gnu/inc/tx_port.h **** 
  12:../Middlewares/threadx/ports/cortex_m55/gnu/inc/tx_port.h **** 
  13:../Middlewares/threadx/ports/cortex_m55/gnu/inc/tx_port.h **** /**************************************************************************/
  14:../Middlewares/threadx/ports/cortex_m55/gnu/inc/tx_port.h **** /**************************************************************************/
  15:../Middlewares/threadx/ports/cortex_m55/gnu/inc/tx_port.h **** /**                                                                       */
  16:../Middlewares/threadx/ports/cortex_m55/gnu/inc/tx_port.h **** /** ThreadX Component                                                     */
  17:../Middlewares/threadx/ports/cortex_m55/gnu/inc/tx_port.h **** /**                                                                       */
  18:../Middlewares/threadx/ports/cortex_m55/gnu/inc/tx_port.h **** /**   Port Specific                                                       */
  19:../Middlewares/threadx/ports/cortex_m55/gnu/inc/tx_port.h **** /**                                                                       */
  20:../Middlewares/threadx/ports/cortex_m55/gnu/inc/tx_port.h **** /**************************************************************************/
  21:../Middlewares/threadx/ports/cortex_m55/gnu/inc/tx_port.h **** /**************************************************************************/
  22:../Middlewares/threadx/ports/cortex_m55/gnu/inc/tx_port.h **** 
  23:../Middlewares/threadx/ports/cortex_m55/gnu/inc/tx_port.h **** 
  24:../Middlewares/threadx/ports/cortex_m55/gnu/inc/tx_port.h **** /**************************************************************************/
  25:../Middlewares/threadx/ports/cortex_m55/gnu/inc/tx_port.h **** /*                                                                        */
  26:../Middlewares/threadx/ports/cortex_m55/gnu/inc/tx_port.h **** /*  PORT SPECIFIC C INFORMATION                            RELEASE        */
  27:../Middlewares/threadx/ports/cortex_m55/gnu/inc/tx_port.h **** /*                                                                        */
  28:../Middlewares/threadx/ports/cortex_m55/gnu/inc/tx_port.h **** /*    tx_port.h                                         Cortex-M55/GNU    */
  29:../Middlewares/threadx/ports/cortex_m55/gnu/inc/tx_port.h **** /*                                                           6.2.1        */
  30:../Middlewares/threadx/ports/cortex_m55/gnu/inc/tx_port.h **** /*                                                                        */
  31:../Middlewares/threadx/ports/cortex_m55/gnu/inc/tx_port.h **** /*  AUTHOR                                                                */
  32:../Middlewares/threadx/ports/cortex_m55/gnu/inc/tx_port.h **** /*                                                                        */
ARM GAS  /tmp/ccposyzW.s 			page 4


  33:../Middlewares/threadx/ports/cortex_m55/gnu/inc/tx_port.h **** /*    Scott Larson, Microsoft Corporation                                 */
  34:../Middlewares/threadx/ports/cortex_m55/gnu/inc/tx_port.h **** /*                                                                        */
  35:../Middlewares/threadx/ports/cortex_m55/gnu/inc/tx_port.h **** /*  DESCRIPTION                                                           */
  36:../Middlewares/threadx/ports/cortex_m55/gnu/inc/tx_port.h **** /*                                                                        */
  37:../Middlewares/threadx/ports/cortex_m55/gnu/inc/tx_port.h **** /*    This file contains data type definitions that make the ThreadX      */
  38:../Middlewares/threadx/ports/cortex_m55/gnu/inc/tx_port.h **** /*    real-time kernel function identically on a variety of different     */
  39:../Middlewares/threadx/ports/cortex_m55/gnu/inc/tx_port.h **** /*    processor architectures.  For example, the size or number of bits   */
  40:../Middlewares/threadx/ports/cortex_m55/gnu/inc/tx_port.h **** /*    in an "int" data type vary between microprocessor architectures and */
  41:../Middlewares/threadx/ports/cortex_m55/gnu/inc/tx_port.h **** /*    even C compilers for the same microprocessor.  ThreadX does not     */
  42:../Middlewares/threadx/ports/cortex_m55/gnu/inc/tx_port.h **** /*    directly use native C data types.  Instead, ThreadX creates its     */
  43:../Middlewares/threadx/ports/cortex_m55/gnu/inc/tx_port.h **** /*    own special types that can be mapped to actual data types by this   */
  44:../Middlewares/threadx/ports/cortex_m55/gnu/inc/tx_port.h **** /*    file to guarantee consistency in the interface and functionality.   */
  45:../Middlewares/threadx/ports/cortex_m55/gnu/inc/tx_port.h **** /*                                                                        */
  46:../Middlewares/threadx/ports/cortex_m55/gnu/inc/tx_port.h **** /*    This file replaces the previous Cortex-M55 files. It unifies        */
  47:../Middlewares/threadx/ports/cortex_m55/gnu/inc/tx_port.h **** /*    the Cortex-M55 compilers into one common file.                      */
  48:../Middlewares/threadx/ports/cortex_m55/gnu/inc/tx_port.h **** /*                                                                        */
  49:../Middlewares/threadx/ports/cortex_m55/gnu/inc/tx_port.h **** /*  RELEASE HISTORY                                                       */
  50:../Middlewares/threadx/ports/cortex_m55/gnu/inc/tx_port.h **** /*                                                                        */
  51:../Middlewares/threadx/ports/cortex_m55/gnu/inc/tx_port.h **** /*    DATE              NAME                      DESCRIPTION             */
  52:../Middlewares/threadx/ports/cortex_m55/gnu/inc/tx_port.h **** /*                                                                        */
  53:../Middlewares/threadx/ports/cortex_m55/gnu/inc/tx_port.h **** /*  09-30-2020      Scott Larson            Initial Version 6.1           */
  54:../Middlewares/threadx/ports/cortex_m55/gnu/inc/tx_port.h **** /*  03-02-2021      Scott Larson            Modified comment(s), added    */
  55:../Middlewares/threadx/ports/cortex_m55/gnu/inc/tx_port.h **** /*                                            ULONG64_DEFINED,            */
  56:../Middlewares/threadx/ports/cortex_m55/gnu/inc/tx_port.h **** /*                                            resulting in version 6.1.5  */
  57:../Middlewares/threadx/ports/cortex_m55/gnu/inc/tx_port.h **** /*  06-02-2021      Scott Larson            Modified comment(s), removed  */
  58:../Middlewares/threadx/ports/cortex_m55/gnu/inc/tx_port.h **** /*                                            unneeded header file, funcs */
  59:../Middlewares/threadx/ports/cortex_m55/gnu/inc/tx_port.h **** /*                                            set_control and get_control */
  60:../Middlewares/threadx/ports/cortex_m55/gnu/inc/tx_port.h **** /*                                            changed to inline,          */
  61:../Middlewares/threadx/ports/cortex_m55/gnu/inc/tx_port.h **** /*                                            added symbol to enable      */
  62:../Middlewares/threadx/ports/cortex_m55/gnu/inc/tx_port.h **** /*                                            stack error handler,        */
  63:../Middlewares/threadx/ports/cortex_m55/gnu/inc/tx_port.h **** /*                                            resulting in version 6.1.7  */
  64:../Middlewares/threadx/ports/cortex_m55/gnu/inc/tx_port.h **** /*  10-15-2021      Scott Larson            Modified comment(s), improved */
  65:../Middlewares/threadx/ports/cortex_m55/gnu/inc/tx_port.h **** /*                                            stack check error handling, */
  66:../Middlewares/threadx/ports/cortex_m55/gnu/inc/tx_port.h **** /*                                            resulting in version 6.1.9  */
  67:../Middlewares/threadx/ports/cortex_m55/gnu/inc/tx_port.h **** /*  01-31-2022      Scott Larson            Modified comment(s), unified  */
  68:../Middlewares/threadx/ports/cortex_m55/gnu/inc/tx_port.h **** /*                                            this file across compilers, */
  69:../Middlewares/threadx/ports/cortex_m55/gnu/inc/tx_port.h **** /*                                            fixed predefined macro,     */
  70:../Middlewares/threadx/ports/cortex_m55/gnu/inc/tx_port.h **** /*                                            resulting in version 6.1.10 */
  71:../Middlewares/threadx/ports/cortex_m55/gnu/inc/tx_port.h **** /*  04-25-2022      Scott Larson            Modified comments and added   */
  72:../Middlewares/threadx/ports/cortex_m55/gnu/inc/tx_port.h **** /*                                            volatile to registers,      */
  73:../Middlewares/threadx/ports/cortex_m55/gnu/inc/tx_port.h **** /*                                            resulting in version 6.1.11 */
  74:../Middlewares/threadx/ports/cortex_m55/gnu/inc/tx_port.h **** /*  07-29-2022      Scott Larson            Modified comments and changed */
  75:../Middlewares/threadx/ports/cortex_m55/gnu/inc/tx_port.h **** /*                                            secure stack initialization */
  76:../Middlewares/threadx/ports/cortex_m55/gnu/inc/tx_port.h **** /*                                            macro to port-specific,     */
  77:../Middlewares/threadx/ports/cortex_m55/gnu/inc/tx_port.h **** /*                                            described BASEPRI usage,    */
  78:../Middlewares/threadx/ports/cortex_m55/gnu/inc/tx_port.h **** /*                                            resulting in version 6.1.12 */
  79:../Middlewares/threadx/ports/cortex_m55/gnu/inc/tx_port.h **** /*  03-08-2023      Scott Larson            Removed unneeded #include,    */
  80:../Middlewares/threadx/ports/cortex_m55/gnu/inc/tx_port.h **** /*                                            resulting in version 6.2.1  */
  81:../Middlewares/threadx/ports/cortex_m55/gnu/inc/tx_port.h **** /*                                                                        */
  82:../Middlewares/threadx/ports/cortex_m55/gnu/inc/tx_port.h **** /**************************************************************************/
  83:../Middlewares/threadx/ports/cortex_m55/gnu/inc/tx_port.h **** 
  84:../Middlewares/threadx/ports/cortex_m55/gnu/inc/tx_port.h **** #ifndef TX_PORT_H
  85:../Middlewares/threadx/ports/cortex_m55/gnu/inc/tx_port.h **** #define TX_PORT_H
  86:../Middlewares/threadx/ports/cortex_m55/gnu/inc/tx_port.h **** 
  87:../Middlewares/threadx/ports/cortex_m55/gnu/inc/tx_port.h **** /* Determine if the optional ThreadX user define file should be used.  */
  88:../Middlewares/threadx/ports/cortex_m55/gnu/inc/tx_port.h **** #ifdef TX_INCLUDE_USER_DEFINE_FILE
  89:../Middlewares/threadx/ports/cortex_m55/gnu/inc/tx_port.h **** 
ARM GAS  /tmp/ccposyzW.s 			page 5


  90:../Middlewares/threadx/ports/cortex_m55/gnu/inc/tx_port.h **** /* Yes, include the user defines in tx_user.h. The defines in this file may
  91:../Middlewares/threadx/ports/cortex_m55/gnu/inc/tx_port.h ****    alternately be defined on the command line.  */
  92:../Middlewares/threadx/ports/cortex_m55/gnu/inc/tx_port.h **** 
  93:../Middlewares/threadx/ports/cortex_m55/gnu/inc/tx_port.h **** #include "tx_user.h"
  94:../Middlewares/threadx/ports/cortex_m55/gnu/inc/tx_port.h **** #endif /* TX_INCLUDE_USER_DEFINE_FILE */
  95:../Middlewares/threadx/ports/cortex_m55/gnu/inc/tx_port.h **** 
  96:../Middlewares/threadx/ports/cortex_m55/gnu/inc/tx_port.h **** /* Define compiler library include files.  */
  97:../Middlewares/threadx/ports/cortex_m55/gnu/inc/tx_port.h **** 
  98:../Middlewares/threadx/ports/cortex_m55/gnu/inc/tx_port.h **** #include <stdlib.h>
  99:../Middlewares/threadx/ports/cortex_m55/gnu/inc/tx_port.h **** #include <string.h>
 100:../Middlewares/threadx/ports/cortex_m55/gnu/inc/tx_port.h **** 
 101:../Middlewares/threadx/ports/cortex_m55/gnu/inc/tx_port.h **** #ifdef __ICCARM__
 102:../Middlewares/threadx/ports/cortex_m55/gnu/inc/tx_port.h **** #include <intrinsics.h>                         /* IAR Intrinsics */
 103:../Middlewares/threadx/ports/cortex_m55/gnu/inc/tx_port.h **** #define __asm__                 __asm           /* Define to make all inline asm from each compiler
 104:../Middlewares/threadx/ports/cortex_m55/gnu/inc/tx_port.h **** #define _tx_control_get         __get_CONTROL
 105:../Middlewares/threadx/ports/cortex_m55/gnu/inc/tx_port.h **** #define _tx_control_set         __set_CONTROL
 106:../Middlewares/threadx/ports/cortex_m55/gnu/inc/tx_port.h **** #define _tx_ipsr_get            __get_IPSR
 107:../Middlewares/threadx/ports/cortex_m55/gnu/inc/tx_port.h **** #ifdef  TX_ENABLE_IAR_LIBRARY_SUPPORT
 108:../Middlewares/threadx/ports/cortex_m55/gnu/inc/tx_port.h **** #include <yvals.h>
 109:../Middlewares/threadx/ports/cortex_m55/gnu/inc/tx_port.h **** #endif /* TX_ENABLE_IAR_LIBRARY_SUPPORT */
 110:../Middlewares/threadx/ports/cortex_m55/gnu/inc/tx_port.h **** #endif /* __ICCARM__ */
 111:../Middlewares/threadx/ports/cortex_m55/gnu/inc/tx_port.h **** 
 112:../Middlewares/threadx/ports/cortex_m55/gnu/inc/tx_port.h **** 
 113:../Middlewares/threadx/ports/cortex_m55/gnu/inc/tx_port.h **** /* Define ThreadX basic types for this port.  */
 114:../Middlewares/threadx/ports/cortex_m55/gnu/inc/tx_port.h **** 
 115:../Middlewares/threadx/ports/cortex_m55/gnu/inc/tx_port.h **** #define VOID                                    void
 116:../Middlewares/threadx/ports/cortex_m55/gnu/inc/tx_port.h **** typedef char                                    CHAR;
 117:../Middlewares/threadx/ports/cortex_m55/gnu/inc/tx_port.h **** typedef unsigned char                           UCHAR;
 118:../Middlewares/threadx/ports/cortex_m55/gnu/inc/tx_port.h **** typedef int                                     INT;
 119:../Middlewares/threadx/ports/cortex_m55/gnu/inc/tx_port.h **** typedef unsigned int                            UINT;
 120:../Middlewares/threadx/ports/cortex_m55/gnu/inc/tx_port.h **** typedef long                                    LONG;
 121:../Middlewares/threadx/ports/cortex_m55/gnu/inc/tx_port.h **** typedef unsigned long                           ULONG;
 122:../Middlewares/threadx/ports/cortex_m55/gnu/inc/tx_port.h **** typedef unsigned long long                      ULONG64;
 123:../Middlewares/threadx/ports/cortex_m55/gnu/inc/tx_port.h **** typedef short                                   SHORT;
 124:../Middlewares/threadx/ports/cortex_m55/gnu/inc/tx_port.h **** typedef unsigned short                          USHORT;
 125:../Middlewares/threadx/ports/cortex_m55/gnu/inc/tx_port.h **** #define ULONG64_DEFINED
 126:../Middlewares/threadx/ports/cortex_m55/gnu/inc/tx_port.h **** 
 127:../Middlewares/threadx/ports/cortex_m55/gnu/inc/tx_port.h **** /* Function prototypes for this port. */
 128:../Middlewares/threadx/ports/cortex_m55/gnu/inc/tx_port.h **** struct  TX_THREAD_STRUCT;
 129:../Middlewares/threadx/ports/cortex_m55/gnu/inc/tx_port.h **** UINT    _txe_thread_secure_stack_allocate(struct TX_THREAD_STRUCT *thread_ptr, ULONG stack_size);
 130:../Middlewares/threadx/ports/cortex_m55/gnu/inc/tx_port.h **** UINT    _txe_thread_secure_stack_free(struct TX_THREAD_STRUCT *thread_ptr);
 131:../Middlewares/threadx/ports/cortex_m55/gnu/inc/tx_port.h **** UINT    _tx_thread_secure_stack_allocate(struct TX_THREAD_STRUCT *tx_thread, ULONG stack_size);
 132:../Middlewares/threadx/ports/cortex_m55/gnu/inc/tx_port.h **** UINT    _tx_thread_secure_stack_free(struct TX_THREAD_STRUCT *tx_thread);
 133:../Middlewares/threadx/ports/cortex_m55/gnu/inc/tx_port.h **** 
 134:../Middlewares/threadx/ports/cortex_m55/gnu/inc/tx_port.h **** /* Define the system API mappings based on the error checking
 135:../Middlewares/threadx/ports/cortex_m55/gnu/inc/tx_port.h ****    selected by the user.  Note: this section is only applicable to
 136:../Middlewares/threadx/ports/cortex_m55/gnu/inc/tx_port.h ****    application source code, hence the conditional that turns off this
 137:../Middlewares/threadx/ports/cortex_m55/gnu/inc/tx_port.h ****    stuff when the include file is processed by the ThreadX source. */
 138:../Middlewares/threadx/ports/cortex_m55/gnu/inc/tx_port.h **** 
 139:../Middlewares/threadx/ports/cortex_m55/gnu/inc/tx_port.h **** #ifndef TX_SOURCE_CODE
 140:../Middlewares/threadx/ports/cortex_m55/gnu/inc/tx_port.h **** 
 141:../Middlewares/threadx/ports/cortex_m55/gnu/inc/tx_port.h **** 
 142:../Middlewares/threadx/ports/cortex_m55/gnu/inc/tx_port.h **** /* Determine if error checking is desired.  If so, map API functions
 143:../Middlewares/threadx/ports/cortex_m55/gnu/inc/tx_port.h ****    to the appropriate error checking front-ends.  Otherwise, map API
 144:../Middlewares/threadx/ports/cortex_m55/gnu/inc/tx_port.h ****    functions to the core functions that actually perform the work.
 145:../Middlewares/threadx/ports/cortex_m55/gnu/inc/tx_port.h ****    Note: error checking is enabled by default.  */
 146:../Middlewares/threadx/ports/cortex_m55/gnu/inc/tx_port.h **** 
ARM GAS  /tmp/ccposyzW.s 			page 6


 147:../Middlewares/threadx/ports/cortex_m55/gnu/inc/tx_port.h **** #ifdef TX_DISABLE_ERROR_CHECKING
 148:../Middlewares/threadx/ports/cortex_m55/gnu/inc/tx_port.h **** 
 149:../Middlewares/threadx/ports/cortex_m55/gnu/inc/tx_port.h **** /* Services without error checking.  */
 150:../Middlewares/threadx/ports/cortex_m55/gnu/inc/tx_port.h **** 
 151:../Middlewares/threadx/ports/cortex_m55/gnu/inc/tx_port.h **** #define tx_thread_secure_stack_allocate   _tx_thread_secure_stack_allocate
 152:../Middlewares/threadx/ports/cortex_m55/gnu/inc/tx_port.h **** #define tx_thread_secure_stack_free       _tx_thread_secure_stack_free
 153:../Middlewares/threadx/ports/cortex_m55/gnu/inc/tx_port.h **** 
 154:../Middlewares/threadx/ports/cortex_m55/gnu/inc/tx_port.h **** #else
 155:../Middlewares/threadx/ports/cortex_m55/gnu/inc/tx_port.h **** 
 156:../Middlewares/threadx/ports/cortex_m55/gnu/inc/tx_port.h **** /* Services with error checking.  */
 157:../Middlewares/threadx/ports/cortex_m55/gnu/inc/tx_port.h **** 
 158:../Middlewares/threadx/ports/cortex_m55/gnu/inc/tx_port.h **** #define tx_thread_secure_stack_allocate   _txe_thread_secure_stack_allocate
 159:../Middlewares/threadx/ports/cortex_m55/gnu/inc/tx_port.h **** #define tx_thread_secure_stack_free       _txe_thread_secure_stack_free
 160:../Middlewares/threadx/ports/cortex_m55/gnu/inc/tx_port.h **** 
 161:../Middlewares/threadx/ports/cortex_m55/gnu/inc/tx_port.h **** #endif  /* TX_DISABLE_ERROR_CHECKING */
 162:../Middlewares/threadx/ports/cortex_m55/gnu/inc/tx_port.h **** #endif  /* TX_SOURCE_CODE */
 163:../Middlewares/threadx/ports/cortex_m55/gnu/inc/tx_port.h **** 
 164:../Middlewares/threadx/ports/cortex_m55/gnu/inc/tx_port.h **** /* This port has a usage fault handler in _tx_initialize_low_level for stack exceptions.  */
 165:../Middlewares/threadx/ports/cortex_m55/gnu/inc/tx_port.h **** #define TX_PORT_THREAD_STACK_ERROR_HANDLING
 166:../Middlewares/threadx/ports/cortex_m55/gnu/inc/tx_port.h **** 
 167:../Middlewares/threadx/ports/cortex_m55/gnu/inc/tx_port.h **** /* Define the priority levels for ThreadX.  Legal values range
 168:../Middlewares/threadx/ports/cortex_m55/gnu/inc/tx_port.h ****    from 32 to 1024 and MUST be evenly divisible by 32.  */
 169:../Middlewares/threadx/ports/cortex_m55/gnu/inc/tx_port.h **** 
 170:../Middlewares/threadx/ports/cortex_m55/gnu/inc/tx_port.h **** #ifndef TX_MAX_PRIORITIES
 171:../Middlewares/threadx/ports/cortex_m55/gnu/inc/tx_port.h **** #define TX_MAX_PRIORITIES                       32
 172:../Middlewares/threadx/ports/cortex_m55/gnu/inc/tx_port.h **** #endif
 173:../Middlewares/threadx/ports/cortex_m55/gnu/inc/tx_port.h **** 
 174:../Middlewares/threadx/ports/cortex_m55/gnu/inc/tx_port.h **** 
 175:../Middlewares/threadx/ports/cortex_m55/gnu/inc/tx_port.h **** /* Define the minimum stack for a ThreadX thread on this processor. If the size supplied during
 176:../Middlewares/threadx/ports/cortex_m55/gnu/inc/tx_port.h ****    thread creation is less than this value, the thread create call will return an error.  */
 177:../Middlewares/threadx/ports/cortex_m55/gnu/inc/tx_port.h **** 
 178:../Middlewares/threadx/ports/cortex_m55/gnu/inc/tx_port.h **** #ifndef TX_MINIMUM_STACK
 179:../Middlewares/threadx/ports/cortex_m55/gnu/inc/tx_port.h **** #define TX_MINIMUM_STACK                        200         /* Minimum stack size for this port  */
 180:../Middlewares/threadx/ports/cortex_m55/gnu/inc/tx_port.h **** #endif
 181:../Middlewares/threadx/ports/cortex_m55/gnu/inc/tx_port.h **** 
 182:../Middlewares/threadx/ports/cortex_m55/gnu/inc/tx_port.h **** 
 183:../Middlewares/threadx/ports/cortex_m55/gnu/inc/tx_port.h **** /* Define the system timer thread's default stack size and priority.  These are only applicable
 184:../Middlewares/threadx/ports/cortex_m55/gnu/inc/tx_port.h ****    if TX_TIMER_PROCESS_IN_ISR is not defined.  */
 185:../Middlewares/threadx/ports/cortex_m55/gnu/inc/tx_port.h **** 
 186:../Middlewares/threadx/ports/cortex_m55/gnu/inc/tx_port.h **** #ifndef TX_TIMER_THREAD_STACK_SIZE
 187:../Middlewares/threadx/ports/cortex_m55/gnu/inc/tx_port.h **** #define TX_TIMER_THREAD_STACK_SIZE              1024        /* Default timer thread stack size  */
 188:../Middlewares/threadx/ports/cortex_m55/gnu/inc/tx_port.h **** #endif
 189:../Middlewares/threadx/ports/cortex_m55/gnu/inc/tx_port.h **** 
 190:../Middlewares/threadx/ports/cortex_m55/gnu/inc/tx_port.h **** #ifndef TX_TIMER_THREAD_PRIORITY
 191:../Middlewares/threadx/ports/cortex_m55/gnu/inc/tx_port.h **** #define TX_TIMER_THREAD_PRIORITY                0           /* Default timer thread priority    */
 192:../Middlewares/threadx/ports/cortex_m55/gnu/inc/tx_port.h **** #endif
 193:../Middlewares/threadx/ports/cortex_m55/gnu/inc/tx_port.h **** 
 194:../Middlewares/threadx/ports/cortex_m55/gnu/inc/tx_port.h **** /* By default, ThreadX for Cortex-M uses the PRIMASK register to enable/disable interrupts.
 195:../Middlewares/threadx/ports/cortex_m55/gnu/inc/tx_port.h **** If using BASEPRI is desired, define the following two symbols for both c and assembly files:
 196:../Middlewares/threadx/ports/cortex_m55/gnu/inc/tx_port.h **** TX_PORT_USE_BASEPRI - This tells ThreadX to use BASEPRI instead of PRIMASK.
 197:../Middlewares/threadx/ports/cortex_m55/gnu/inc/tx_port.h **** TX_PORT_BASEPRI = (priority_mask << (8 - number_priority_bits)) - this defines the maximum priority
 198:../Middlewares/threadx/ports/cortex_m55/gnu/inc/tx_port.h **** Any interrupt with a higher priority than priority_mask will not be masked, thus the interrupt will
 199:../Middlewares/threadx/ports/cortex_m55/gnu/inc/tx_port.h **** */
 200:../Middlewares/threadx/ports/cortex_m55/gnu/inc/tx_port.h **** 
 201:../Middlewares/threadx/ports/cortex_m55/gnu/inc/tx_port.h **** /* Define various constants for the ThreadX Cortex-M port.  */
 202:../Middlewares/threadx/ports/cortex_m55/gnu/inc/tx_port.h **** 
 203:../Middlewares/threadx/ports/cortex_m55/gnu/inc/tx_port.h **** #define TX_INT_DISABLE                          1           /* Disable interrupts               */
ARM GAS  /tmp/ccposyzW.s 			page 7


 204:../Middlewares/threadx/ports/cortex_m55/gnu/inc/tx_port.h **** #define TX_INT_ENABLE                           0           /* Enable interrupts                */
 205:../Middlewares/threadx/ports/cortex_m55/gnu/inc/tx_port.h **** 
 206:../Middlewares/threadx/ports/cortex_m55/gnu/inc/tx_port.h **** 
 207:../Middlewares/threadx/ports/cortex_m55/gnu/inc/tx_port.h **** /* Define the clock source for trace event entry time stamp. The following two item are port specif
 208:../Middlewares/threadx/ports/cortex_m55/gnu/inc/tx_port.h ****    For example, if the time source is at the address 0x0a800024 and is 16-bits in size, the clock
 209:../Middlewares/threadx/ports/cortex_m55/gnu/inc/tx_port.h ****    source constants would be:
 210:../Middlewares/threadx/ports/cortex_m55/gnu/inc/tx_port.h **** 
 211:../Middlewares/threadx/ports/cortex_m55/gnu/inc/tx_port.h **** #define TX_TRACE_TIME_SOURCE                    *((volatile ULONG *) 0x0a800024)
 212:../Middlewares/threadx/ports/cortex_m55/gnu/inc/tx_port.h **** #define TX_TRACE_TIME_MASK                      0x0000FFFFUL
 213:../Middlewares/threadx/ports/cortex_m55/gnu/inc/tx_port.h **** 
 214:../Middlewares/threadx/ports/cortex_m55/gnu/inc/tx_port.h **** */
 215:../Middlewares/threadx/ports/cortex_m55/gnu/inc/tx_port.h **** 
 216:../Middlewares/threadx/ports/cortex_m55/gnu/inc/tx_port.h **** #ifndef TX_MISRA_ENABLE
 217:../Middlewares/threadx/ports/cortex_m55/gnu/inc/tx_port.h **** #ifndef TX_TRACE_TIME_SOURCE
 218:../Middlewares/threadx/ports/cortex_m55/gnu/inc/tx_port.h **** #define TX_TRACE_TIME_SOURCE                    *((volatile ULONG *) 0xE0001004)
 219:../Middlewares/threadx/ports/cortex_m55/gnu/inc/tx_port.h **** #endif
 220:../Middlewares/threadx/ports/cortex_m55/gnu/inc/tx_port.h **** #else
 221:../Middlewares/threadx/ports/cortex_m55/gnu/inc/tx_port.h **** ULONG   _tx_misra_time_stamp_get(VOID);
 222:../Middlewares/threadx/ports/cortex_m55/gnu/inc/tx_port.h **** #define TX_TRACE_TIME_SOURCE                    _tx_misra_time_stamp_get()
 223:../Middlewares/threadx/ports/cortex_m55/gnu/inc/tx_port.h **** #endif
 224:../Middlewares/threadx/ports/cortex_m55/gnu/inc/tx_port.h **** 
 225:../Middlewares/threadx/ports/cortex_m55/gnu/inc/tx_port.h **** #ifndef TX_TRACE_TIME_MASK
 226:../Middlewares/threadx/ports/cortex_m55/gnu/inc/tx_port.h **** #define TX_TRACE_TIME_MASK                      0xFFFFFFFFUL
 227:../Middlewares/threadx/ports/cortex_m55/gnu/inc/tx_port.h **** #endif
 228:../Middlewares/threadx/ports/cortex_m55/gnu/inc/tx_port.h **** 
 229:../Middlewares/threadx/ports/cortex_m55/gnu/inc/tx_port.h **** 
 230:../Middlewares/threadx/ports/cortex_m55/gnu/inc/tx_port.h **** /* Define the port specific options for the _tx_build_options variable. This variable indicates
 231:../Middlewares/threadx/ports/cortex_m55/gnu/inc/tx_port.h ****    how the ThreadX library was built.  */
 232:../Middlewares/threadx/ports/cortex_m55/gnu/inc/tx_port.h **** 
 233:../Middlewares/threadx/ports/cortex_m55/gnu/inc/tx_port.h **** #define TX_PORT_SPECIFIC_BUILD_OPTIONS          (0)
 234:../Middlewares/threadx/ports/cortex_m55/gnu/inc/tx_port.h **** 
 235:../Middlewares/threadx/ports/cortex_m55/gnu/inc/tx_port.h **** 
 236:../Middlewares/threadx/ports/cortex_m55/gnu/inc/tx_port.h **** /* Define the in-line initialization constant so that modules with in-line
 237:../Middlewares/threadx/ports/cortex_m55/gnu/inc/tx_port.h ****    initialization capabilities can prevent their initialization from being
 238:../Middlewares/threadx/ports/cortex_m55/gnu/inc/tx_port.h ****    a function call.  */
 239:../Middlewares/threadx/ports/cortex_m55/gnu/inc/tx_port.h **** 
 240:../Middlewares/threadx/ports/cortex_m55/gnu/inc/tx_port.h **** #ifdef TX_MISRA_ENABLE
 241:../Middlewares/threadx/ports/cortex_m55/gnu/inc/tx_port.h **** #define TX_DISABLE_INLINE
 242:../Middlewares/threadx/ports/cortex_m55/gnu/inc/tx_port.h **** #else
 243:../Middlewares/threadx/ports/cortex_m55/gnu/inc/tx_port.h **** #define TX_INLINE_INITIALIZATION
 244:../Middlewares/threadx/ports/cortex_m55/gnu/inc/tx_port.h **** #endif
 245:../Middlewares/threadx/ports/cortex_m55/gnu/inc/tx_port.h **** 
 246:../Middlewares/threadx/ports/cortex_m55/gnu/inc/tx_port.h **** 
 247:../Middlewares/threadx/ports/cortex_m55/gnu/inc/tx_port.h **** /* Determine whether or not stack checking is enabled. By default, ThreadX stack checking is
 248:../Middlewares/threadx/ports/cortex_m55/gnu/inc/tx_port.h ****    disabled. When the following is defined, ThreadX thread stack checking is enabled.  If stack
 249:../Middlewares/threadx/ports/cortex_m55/gnu/inc/tx_port.h ****    checking is enabled (TX_ENABLE_STACK_CHECKING is defined), the TX_DISABLE_STACK_FILLING
 250:../Middlewares/threadx/ports/cortex_m55/gnu/inc/tx_port.h ****    define is negated, thereby forcing the stack fill which is necessary for the stack checking
 251:../Middlewares/threadx/ports/cortex_m55/gnu/inc/tx_port.h ****    logic.  */
 252:../Middlewares/threadx/ports/cortex_m55/gnu/inc/tx_port.h **** 
 253:../Middlewares/threadx/ports/cortex_m55/gnu/inc/tx_port.h **** #ifndef TX_MISRA_ENABLE
 254:../Middlewares/threadx/ports/cortex_m55/gnu/inc/tx_port.h **** #ifdef TX_ENABLE_STACK_CHECKING
 255:../Middlewares/threadx/ports/cortex_m55/gnu/inc/tx_port.h **** #undef TX_DISABLE_STACK_FILLING
 256:../Middlewares/threadx/ports/cortex_m55/gnu/inc/tx_port.h **** #endif
 257:../Middlewares/threadx/ports/cortex_m55/gnu/inc/tx_port.h **** #endif
 258:../Middlewares/threadx/ports/cortex_m55/gnu/inc/tx_port.h **** 
 259:../Middlewares/threadx/ports/cortex_m55/gnu/inc/tx_port.h **** 
 260:../Middlewares/threadx/ports/cortex_m55/gnu/inc/tx_port.h **** /* Define the TX_THREAD control block extensions for this port. The main reason
ARM GAS  /tmp/ccposyzW.s 			page 8


 261:../Middlewares/threadx/ports/cortex_m55/gnu/inc/tx_port.h ****    for the multiple macros is so that backward compatibility can be maintained with
 262:../Middlewares/threadx/ports/cortex_m55/gnu/inc/tx_port.h ****    existing ThreadX kernel awareness modules.  */
 263:../Middlewares/threadx/ports/cortex_m55/gnu/inc/tx_port.h **** 
 264:../Middlewares/threadx/ports/cortex_m55/gnu/inc/tx_port.h **** #define TX_THREAD_EXTENSION_0
 265:../Middlewares/threadx/ports/cortex_m55/gnu/inc/tx_port.h **** #define TX_THREAD_EXTENSION_1
 266:../Middlewares/threadx/ports/cortex_m55/gnu/inc/tx_port.h **** 
 267:../Middlewares/threadx/ports/cortex_m55/gnu/inc/tx_port.h **** #ifdef  TX_ENABLE_IAR_LIBRARY_SUPPORT
 268:../Middlewares/threadx/ports/cortex_m55/gnu/inc/tx_port.h **** /* IAR library support */
 269:../Middlewares/threadx/ports/cortex_m55/gnu/inc/tx_port.h **** #if !defined(TX_SINGLE_MODE_SECURE) && !defined(TX_SINGLE_MODE_NON_SECURE)
 270:../Middlewares/threadx/ports/cortex_m55/gnu/inc/tx_port.h **** /* ThreadX in non-secure zone with calls to secure zone. */
 271:../Middlewares/threadx/ports/cortex_m55/gnu/inc/tx_port.h **** #define TX_THREAD_EXTENSION_2           VOID    *tx_thread_secure_stack_context;    \
 272:../Middlewares/threadx/ports/cortex_m55/gnu/inc/tx_port.h ****                                         VOID    *tx_thread_iar_tls_pointer;
 273:../Middlewares/threadx/ports/cortex_m55/gnu/inc/tx_port.h **** #else
 274:../Middlewares/threadx/ports/cortex_m55/gnu/inc/tx_port.h **** /* ThreadX in only one zone. */
 275:../Middlewares/threadx/ports/cortex_m55/gnu/inc/tx_port.h **** #define TX_THREAD_EXTENSION_2           VOID    *tx_thread_iar_tls_pointer;
 276:../Middlewares/threadx/ports/cortex_m55/gnu/inc/tx_port.h **** #endif
 277:../Middlewares/threadx/ports/cortex_m55/gnu/inc/tx_port.h **** 
 278:../Middlewares/threadx/ports/cortex_m55/gnu/inc/tx_port.h **** #else
 279:../Middlewares/threadx/ports/cortex_m55/gnu/inc/tx_port.h **** /* No IAR library support */
 280:../Middlewares/threadx/ports/cortex_m55/gnu/inc/tx_port.h **** #if !defined(TX_SINGLE_MODE_SECURE) && !defined(TX_SINGLE_MODE_NON_SECURE)
 281:../Middlewares/threadx/ports/cortex_m55/gnu/inc/tx_port.h **** /* ThreadX in non-secure zone with calls to secure zone. */
 282:../Middlewares/threadx/ports/cortex_m55/gnu/inc/tx_port.h **** #define TX_THREAD_EXTENSION_2           VOID    *tx_thread_secure_stack_context;
 283:../Middlewares/threadx/ports/cortex_m55/gnu/inc/tx_port.h **** #else
 284:../Middlewares/threadx/ports/cortex_m55/gnu/inc/tx_port.h **** /* ThreadX in only one zone. */
 285:../Middlewares/threadx/ports/cortex_m55/gnu/inc/tx_port.h **** #define TX_THREAD_EXTENSION_2
 286:../Middlewares/threadx/ports/cortex_m55/gnu/inc/tx_port.h **** #endif
 287:../Middlewares/threadx/ports/cortex_m55/gnu/inc/tx_port.h **** 
 288:../Middlewares/threadx/ports/cortex_m55/gnu/inc/tx_port.h **** #endif  /* TX_ENABLE_IAR_LIBRARY_SUPPORT */
 289:../Middlewares/threadx/ports/cortex_m55/gnu/inc/tx_port.h **** 
 290:../Middlewares/threadx/ports/cortex_m55/gnu/inc/tx_port.h **** #define TX_THREAD_EXTENSION_3
 291:../Middlewares/threadx/ports/cortex_m55/gnu/inc/tx_port.h **** 
 292:../Middlewares/threadx/ports/cortex_m55/gnu/inc/tx_port.h **** 
 293:../Middlewares/threadx/ports/cortex_m55/gnu/inc/tx_port.h **** /* Define the port extensions of the remaining ThreadX objects.  */
 294:../Middlewares/threadx/ports/cortex_m55/gnu/inc/tx_port.h **** 
 295:../Middlewares/threadx/ports/cortex_m55/gnu/inc/tx_port.h **** #define TX_BLOCK_POOL_EXTENSION
 296:../Middlewares/threadx/ports/cortex_m55/gnu/inc/tx_port.h **** #define TX_BYTE_POOL_EXTENSION
 297:../Middlewares/threadx/ports/cortex_m55/gnu/inc/tx_port.h **** #define TX_EVENT_FLAGS_GROUP_EXTENSION
 298:../Middlewares/threadx/ports/cortex_m55/gnu/inc/tx_port.h **** #define TX_MUTEX_EXTENSION
 299:../Middlewares/threadx/ports/cortex_m55/gnu/inc/tx_port.h **** #define TX_QUEUE_EXTENSION
 300:../Middlewares/threadx/ports/cortex_m55/gnu/inc/tx_port.h **** #define TX_SEMAPHORE_EXTENSION
 301:../Middlewares/threadx/ports/cortex_m55/gnu/inc/tx_port.h **** #define TX_TIMER_EXTENSION
 302:../Middlewares/threadx/ports/cortex_m55/gnu/inc/tx_port.h **** 
 303:../Middlewares/threadx/ports/cortex_m55/gnu/inc/tx_port.h **** 
 304:../Middlewares/threadx/ports/cortex_m55/gnu/inc/tx_port.h **** /* Define the user extension field of the thread control block.  Nothing
 305:../Middlewares/threadx/ports/cortex_m55/gnu/inc/tx_port.h ****    additional is needed for this port so it is defined as white space.  */
 306:../Middlewares/threadx/ports/cortex_m55/gnu/inc/tx_port.h **** 
 307:../Middlewares/threadx/ports/cortex_m55/gnu/inc/tx_port.h **** #ifndef TX_THREAD_USER_EXTENSION
 308:../Middlewares/threadx/ports/cortex_m55/gnu/inc/tx_port.h **** #define TX_THREAD_USER_EXTENSION
 309:../Middlewares/threadx/ports/cortex_m55/gnu/inc/tx_port.h **** #endif
 310:../Middlewares/threadx/ports/cortex_m55/gnu/inc/tx_port.h **** 
 311:../Middlewares/threadx/ports/cortex_m55/gnu/inc/tx_port.h **** 
 312:../Middlewares/threadx/ports/cortex_m55/gnu/inc/tx_port.h **** /* Define the macros for processing extensions in tx_thread_create, tx_thread_delete,
 313:../Middlewares/threadx/ports/cortex_m55/gnu/inc/tx_port.h ****    tx_thread_shell_entry, and tx_thread_terminate.  */
 314:../Middlewares/threadx/ports/cortex_m55/gnu/inc/tx_port.h **** #ifdef  TX_ENABLE_IAR_LIBRARY_SUPPORT
 315:../Middlewares/threadx/ports/cortex_m55/gnu/inc/tx_port.h **** void    *_tx_iar_create_per_thread_tls_area(void);
 316:../Middlewares/threadx/ports/cortex_m55/gnu/inc/tx_port.h **** void    _tx_iar_destroy_per_thread_tls_area(void *tls_ptr);
 317:../Middlewares/threadx/ports/cortex_m55/gnu/inc/tx_port.h **** void    __iar_Initlocks(void);
ARM GAS  /tmp/ccposyzW.s 			page 9


 318:../Middlewares/threadx/ports/cortex_m55/gnu/inc/tx_port.h **** #define TX_THREAD_CREATE_EXTENSION(thread_ptr)                      thread_ptr -> tx_thread_iar_tls
 319:../Middlewares/threadx/ports/cortex_m55/gnu/inc/tx_port.h **** 
 320:../Middlewares/threadx/ports/cortex_m55/gnu/inc/tx_port.h **** #if !defined(TX_SINGLE_MODE_SECURE) && !defined(TX_SINGLE_MODE_NON_SECURE)
 321:../Middlewares/threadx/ports/cortex_m55/gnu/inc/tx_port.h **** #define TX_THREAD_DELETE_EXTENSION(thread_ptr)                      do {_tx_iar_destroy_per_thread_
 322:../Middlewares/threadx/ports/cortex_m55/gnu/inc/tx_port.h ****                                                                         thread_ptr -> tx_thread_iar
 323:../Middlewares/threadx/ports/cortex_m55/gnu/inc/tx_port.h ****                                                                     if(thread_ptr -> tx_thread_secu
 324:../Middlewares/threadx/ports/cortex_m55/gnu/inc/tx_port.h **** #else
 325:../Middlewares/threadx/ports/cortex_m55/gnu/inc/tx_port.h **** #define TX_THREAD_DELETE_EXTENSION(thread_ptr)                      do {_tx_iar_destroy_per_thread_
 326:../Middlewares/threadx/ports/cortex_m55/gnu/inc/tx_port.h ****                                                                         thread_ptr -> tx_thread_iar
 327:../Middlewares/threadx/ports/cortex_m55/gnu/inc/tx_port.h **** #endif
 328:../Middlewares/threadx/ports/cortex_m55/gnu/inc/tx_port.h **** #define TX_PORT_SPECIFIC_PRE_SCHEDULER_INITIALIZATION               do {__iar_Initlocks();} while(0
 329:../Middlewares/threadx/ports/cortex_m55/gnu/inc/tx_port.h **** 
 330:../Middlewares/threadx/ports/cortex_m55/gnu/inc/tx_port.h **** #else   /* No IAR library support. */
 331:../Middlewares/threadx/ports/cortex_m55/gnu/inc/tx_port.h **** #define TX_THREAD_CREATE_EXTENSION(thread_ptr)
 332:../Middlewares/threadx/ports/cortex_m55/gnu/inc/tx_port.h **** #if !defined(TX_SINGLE_MODE_SECURE) && !defined(TX_SINGLE_MODE_NON_SECURE)
 333:../Middlewares/threadx/ports/cortex_m55/gnu/inc/tx_port.h **** #define TX_THREAD_DELETE_EXTENSION(thread_ptr)                      if(thread_ptr -> tx_thread_secu
 334:../Middlewares/threadx/ports/cortex_m55/gnu/inc/tx_port.h **** #else
 335:../Middlewares/threadx/ports/cortex_m55/gnu/inc/tx_port.h **** #define TX_THREAD_DELETE_EXTENSION(thread_ptr)
 336:../Middlewares/threadx/ports/cortex_m55/gnu/inc/tx_port.h **** #endif
 337:../Middlewares/threadx/ports/cortex_m55/gnu/inc/tx_port.h **** #endif  /* TX_ENABLE_IAR_LIBRARY_SUPPORT */
 338:../Middlewares/threadx/ports/cortex_m55/gnu/inc/tx_port.h **** 
 339:../Middlewares/threadx/ports/cortex_m55/gnu/inc/tx_port.h **** #if !defined(TX_SINGLE_MODE_SECURE) && !defined(TX_SINGLE_MODE_NON_SECURE)
 340:../Middlewares/threadx/ports/cortex_m55/gnu/inc/tx_port.h **** /* Define the size of the secure stack for the timer thread and use the extension to allocate the s
 341:../Middlewares/threadx/ports/cortex_m55/gnu/inc/tx_port.h **** #define TX_TIMER_THREAD_SECURE_STACK_SIZE       256
 342:../Middlewares/threadx/ports/cortex_m55/gnu/inc/tx_port.h **** #define TX_TIMER_INITIALIZE_EXTENSION(status)   _tx_thread_secure_stack_allocate(&_tx_timer_thread,
 343:../Middlewares/threadx/ports/cortex_m55/gnu/inc/tx_port.h **** #endif
 344:../Middlewares/threadx/ports/cortex_m55/gnu/inc/tx_port.h **** 
 345:../Middlewares/threadx/ports/cortex_m55/gnu/inc/tx_port.h **** 
 346:../Middlewares/threadx/ports/cortex_m55/gnu/inc/tx_port.h **** #if defined(__ARMVFP__) || defined(__ARM_PCS_VFP) || defined(__ARM_FP) || defined(__TARGET_FPU_VFP)
 347:../Middlewares/threadx/ports/cortex_m55/gnu/inc/tx_port.h **** 
 348:../Middlewares/threadx/ports/cortex_m55/gnu/inc/tx_port.h **** #ifdef TX_MISRA_ENABLE
 349:../Middlewares/threadx/ports/cortex_m55/gnu/inc/tx_port.h **** 
 350:../Middlewares/threadx/ports/cortex_m55/gnu/inc/tx_port.h **** ULONG  _tx_misra_control_get(void);
 351:../Middlewares/threadx/ports/cortex_m55/gnu/inc/tx_port.h **** void   _tx_misra_control_set(ULONG value);
 352:../Middlewares/threadx/ports/cortex_m55/gnu/inc/tx_port.h **** ULONG  _tx_misra_fpccr_get(void);
 353:../Middlewares/threadx/ports/cortex_m55/gnu/inc/tx_port.h **** void   _tx_misra_vfp_touch(void);
 354:../Middlewares/threadx/ports/cortex_m55/gnu/inc/tx_port.h **** 
 355:../Middlewares/threadx/ports/cortex_m55/gnu/inc/tx_port.h **** #else   /* TX_MISRA_ENABLE not defined */
 356:../Middlewares/threadx/ports/cortex_m55/gnu/inc/tx_port.h **** 
 357:../Middlewares/threadx/ports/cortex_m55/gnu/inc/tx_port.h **** #ifdef __GNUC__ /* GCC and ARM Compiler 6 */
 358:../Middlewares/threadx/ports/cortex_m55/gnu/inc/tx_port.h **** 
 359:../Middlewares/threadx/ports/cortex_m55/gnu/inc/tx_port.h **** __attribute__( ( always_inline ) ) static inline ULONG _tx_control_get(void)
 360:../Middlewares/threadx/ports/cortex_m55/gnu/inc/tx_port.h **** {
 361:../Middlewares/threadx/ports/cortex_m55/gnu/inc/tx_port.h **** ULONG  control_value;
 362:../Middlewares/threadx/ports/cortex_m55/gnu/inc/tx_port.h **** 
 363:../Middlewares/threadx/ports/cortex_m55/gnu/inc/tx_port.h ****     __asm__ volatile (" MRS  %0,CONTROL ": "=r" (control_value) );
 364:../Middlewares/threadx/ports/cortex_m55/gnu/inc/tx_port.h ****     return(control_value);
 365:../Middlewares/threadx/ports/cortex_m55/gnu/inc/tx_port.h **** }
 366:../Middlewares/threadx/ports/cortex_m55/gnu/inc/tx_port.h **** 
 367:../Middlewares/threadx/ports/cortex_m55/gnu/inc/tx_port.h **** __attribute__( ( always_inline ) ) static inline void _tx_control_set(ULONG control_value)
 368:../Middlewares/threadx/ports/cortex_m55/gnu/inc/tx_port.h **** {
 369:../Middlewares/threadx/ports/cortex_m55/gnu/inc/tx_port.h ****     __asm__ volatile (" MSR  CONTROL,%0": : "r" (control_value): "memory" );
 370:../Middlewares/threadx/ports/cortex_m55/gnu/inc/tx_port.h **** }
 371:../Middlewares/threadx/ports/cortex_m55/gnu/inc/tx_port.h **** 
 372:../Middlewares/threadx/ports/cortex_m55/gnu/inc/tx_port.h **** #endif  /* __GNUC__ */
 373:../Middlewares/threadx/ports/cortex_m55/gnu/inc/tx_port.h **** 
 374:../Middlewares/threadx/ports/cortex_m55/gnu/inc/tx_port.h **** /* Touch VFP register in order to flush. Works for AC6/GCC/IAR compilers. */
ARM GAS  /tmp/ccposyzW.s 			page 10


 375:../Middlewares/threadx/ports/cortex_m55/gnu/inc/tx_port.h **** #define TX_VFP_TOUCH()  __asm__ volatile ("VMOV.F32 s0, s0");
 376:../Middlewares/threadx/ports/cortex_m55/gnu/inc/tx_port.h **** 
 377:../Middlewares/threadx/ports/cortex_m55/gnu/inc/tx_port.h **** #endif  /* TX_MISRA_ENABLE */
 378:../Middlewares/threadx/ports/cortex_m55/gnu/inc/tx_port.h **** 
 379:../Middlewares/threadx/ports/cortex_m55/gnu/inc/tx_port.h **** /* A completed thread falls into _thread_shell_entry and we can simply deactivate the FPU via CONTR
 380:../Middlewares/threadx/ports/cortex_m55/gnu/inc/tx_port.h ****    in order to ensure no lazy stacking will occur. */
 381:../Middlewares/threadx/ports/cortex_m55/gnu/inc/tx_port.h **** 
 382:../Middlewares/threadx/ports/cortex_m55/gnu/inc/tx_port.h **** #ifndef TX_MISRA_ENABLE
 383:../Middlewares/threadx/ports/cortex_m55/gnu/inc/tx_port.h **** 
 384:../Middlewares/threadx/ports/cortex_m55/gnu/inc/tx_port.h **** #define TX_THREAD_COMPLETED_EXTENSION(thread_ptr)   {                                              
 385:../Middlewares/threadx/ports/cortex_m55/gnu/inc/tx_port.h ****                                                     ULONG  _tx_vfp_state;                          
 386:../Middlewares/threadx/ports/cortex_m55/gnu/inc/tx_port.h ****                                                         _tx_vfp_state = _tx_control_get();         
 387:../Middlewares/threadx/ports/cortex_m55/gnu/inc/tx_port.h ****                                                         _tx_vfp_state = _tx_vfp_state & ~((ULONG) 0
 388:../Middlewares/threadx/ports/cortex_m55/gnu/inc/tx_port.h ****                                                         _tx_control_set(_tx_vfp_state);            
 389:../Middlewares/threadx/ports/cortex_m55/gnu/inc/tx_port.h ****                                                     }
 390:../Middlewares/threadx/ports/cortex_m55/gnu/inc/tx_port.h **** #else
 391:../Middlewares/threadx/ports/cortex_m55/gnu/inc/tx_port.h **** 
 392:../Middlewares/threadx/ports/cortex_m55/gnu/inc/tx_port.h **** #define TX_THREAD_COMPLETED_EXTENSION(thread_ptr)   {                                              
 393:../Middlewares/threadx/ports/cortex_m55/gnu/inc/tx_port.h ****                                                     ULONG  _tx_vfp_state;                          
 394:../Middlewares/threadx/ports/cortex_m55/gnu/inc/tx_port.h ****                                                         _tx_vfp_state = _tx_misra_control_get();   
 395:../Middlewares/threadx/ports/cortex_m55/gnu/inc/tx_port.h ****                                                         _tx_vfp_state = _tx_vfp_state & ~((ULONG) 0
 396:../Middlewares/threadx/ports/cortex_m55/gnu/inc/tx_port.h ****                                                         _tx_misra_control_set(_tx_vfp_state);      
 397:../Middlewares/threadx/ports/cortex_m55/gnu/inc/tx_port.h ****                                                     }
 398:../Middlewares/threadx/ports/cortex_m55/gnu/inc/tx_port.h **** #endif
 399:../Middlewares/threadx/ports/cortex_m55/gnu/inc/tx_port.h **** 
 400:../Middlewares/threadx/ports/cortex_m55/gnu/inc/tx_port.h **** /* A thread can be terminated by another thread, so we first check if it's self-terminating and not
 401:../Middlewares/threadx/ports/cortex_m55/gnu/inc/tx_port.h ****    If so, deactivate the FPU via CONTROL.FPCA. Otherwise we are in an interrupt or another thread i
 402:../Middlewares/threadx/ports/cortex_m55/gnu/inc/tx_port.h ****    this one, so if the FPCCR.LSPACT bit is set, we need to save the CONTROL.FPCA state, touch the F
 403:../Middlewares/threadx/ports/cortex_m55/gnu/inc/tx_port.h ****    the lazy FPU save, then restore the CONTROL.FPCA state. */
 404:../Middlewares/threadx/ports/cortex_m55/gnu/inc/tx_port.h **** 
 405:../Middlewares/threadx/ports/cortex_m55/gnu/inc/tx_port.h **** #ifndef TX_MISRA_ENABLE
 406:../Middlewares/threadx/ports/cortex_m55/gnu/inc/tx_port.h **** 
 407:../Middlewares/threadx/ports/cortex_m55/gnu/inc/tx_port.h **** #define TX_THREAD_TERMINATED_EXTENSION(thread_ptr)  {                                              
 408:../Middlewares/threadx/ports/cortex_m55/gnu/inc/tx_port.h ****                                                     ULONG  _tx_system_state;                       
 409:../Middlewares/threadx/ports/cortex_m55/gnu/inc/tx_port.h ****                                                         _tx_system_state = TX_THREAD_GET_SYSTEM_STA
 410:../Middlewares/threadx/ports/cortex_m55/gnu/inc/tx_port.h ****                                                         if ((_tx_system_state == ((ULONG) 0)) && ((
 411:../Middlewares/threadx/ports/cortex_m55/gnu/inc/tx_port.h ****                                                         {                                          
 412:../Middlewares/threadx/ports/cortex_m55/gnu/inc/tx_port.h ****                                                         ULONG  _tx_vfp_state;                      
 413:../Middlewares/threadx/ports/cortex_m55/gnu/inc/tx_port.h ****                                                             _tx_vfp_state = _tx_control_get();     
 414:../Middlewares/threadx/ports/cortex_m55/gnu/inc/tx_port.h ****                                                             _tx_vfp_state = _tx_vfp_state & ~((ULON
 415:../Middlewares/threadx/ports/cortex_m55/gnu/inc/tx_port.h ****                                                             _tx_control_set(_tx_vfp_state);        
 416:../Middlewares/threadx/ports/cortex_m55/gnu/inc/tx_port.h ****                                                         }                                          
 417:../Middlewares/threadx/ports/cortex_m55/gnu/inc/tx_port.h ****                                                         else                                       
 418:../Middlewares/threadx/ports/cortex_m55/gnu/inc/tx_port.h ****                                                         {                                          
 419:../Middlewares/threadx/ports/cortex_m55/gnu/inc/tx_port.h ****                                                         ULONG  _tx_fpccr;                          
 420:../Middlewares/threadx/ports/cortex_m55/gnu/inc/tx_port.h ****                                                             _tx_fpccr = *((volatile ULONG *) 0xE000
 421:../Middlewares/threadx/ports/cortex_m55/gnu/inc/tx_port.h ****                                                             _tx_fpccr = _tx_fpccr & ((ULONG) 0x01);
 422:../Middlewares/threadx/ports/cortex_m55/gnu/inc/tx_port.h ****                                                             if (_tx_fpccr == ((ULONG) 0x01))       
 423:../Middlewares/threadx/ports/cortex_m55/gnu/inc/tx_port.h ****                                                             {                                      
 424:../Middlewares/threadx/ports/cortex_m55/gnu/inc/tx_port.h ****                                                             ULONG _tx_vfp_state;                   
 425:../Middlewares/threadx/ports/cortex_m55/gnu/inc/tx_port.h ****                                                                 _tx_vfp_state = _tx_control_get(); 
 426:../Middlewares/threadx/ports/cortex_m55/gnu/inc/tx_port.h ****                                                                 _tx_vfp_state = _tx_vfp_state & ((U
 427:../Middlewares/threadx/ports/cortex_m55/gnu/inc/tx_port.h ****                                                                 TX_VFP_TOUCH();                    
 428:../Middlewares/threadx/ports/cortex_m55/gnu/inc/tx_port.h ****                                                                 if (_tx_vfp_state == ((ULONG) 0))  
 429:../Middlewares/threadx/ports/cortex_m55/gnu/inc/tx_port.h ****                                                                 {                                  
 430:../Middlewares/threadx/ports/cortex_m55/gnu/inc/tx_port.h ****                                                                     _tx_vfp_state = _tx_control_get
 431:../Middlewares/threadx/ports/cortex_m55/gnu/inc/tx_port.h ****                                                                     _tx_vfp_state = _tx_vfp_state &
ARM GAS  /tmp/ccposyzW.s 			page 11


 432:../Middlewares/threadx/ports/cortex_m55/gnu/inc/tx_port.h ****                                                                     _tx_control_set(_tx_vfp_state);
 433:../Middlewares/threadx/ports/cortex_m55/gnu/inc/tx_port.h ****                                                                 }                                  
 434:../Middlewares/threadx/ports/cortex_m55/gnu/inc/tx_port.h ****                                                             }                                      
 435:../Middlewares/threadx/ports/cortex_m55/gnu/inc/tx_port.h ****                                                         }                                          
 436:../Middlewares/threadx/ports/cortex_m55/gnu/inc/tx_port.h ****                                                     }
 437:../Middlewares/threadx/ports/cortex_m55/gnu/inc/tx_port.h **** #else
 438:../Middlewares/threadx/ports/cortex_m55/gnu/inc/tx_port.h **** 
 439:../Middlewares/threadx/ports/cortex_m55/gnu/inc/tx_port.h **** #define TX_THREAD_TERMINATED_EXTENSION(thread_ptr)  {                                              
 440:../Middlewares/threadx/ports/cortex_m55/gnu/inc/tx_port.h ****                                                     ULONG  _tx_system_state;                       
 441:../Middlewares/threadx/ports/cortex_m55/gnu/inc/tx_port.h ****                                                         _tx_system_state = TX_THREAD_GET_SYSTEM_STA
 442:../Middlewares/threadx/ports/cortex_m55/gnu/inc/tx_port.h ****                                                         if ((_tx_system_state == ((ULONG) 0)) && ((
 443:../Middlewares/threadx/ports/cortex_m55/gnu/inc/tx_port.h ****                                                         {                                          
 444:../Middlewares/threadx/ports/cortex_m55/gnu/inc/tx_port.h ****                                                         ULONG  _tx_vfp_state;                      
 445:../Middlewares/threadx/ports/cortex_m55/gnu/inc/tx_port.h ****                                                             _tx_vfp_state = _tx_misra_control_get()
 446:../Middlewares/threadx/ports/cortex_m55/gnu/inc/tx_port.h ****                                                             _tx_vfp_state = _tx_vfp_state & ~((ULON
 447:../Middlewares/threadx/ports/cortex_m55/gnu/inc/tx_port.h ****                                                             _tx_misra_control_set(_tx_vfp_state);  
 448:../Middlewares/threadx/ports/cortex_m55/gnu/inc/tx_port.h ****                                                         }                                          
 449:../Middlewares/threadx/ports/cortex_m55/gnu/inc/tx_port.h ****                                                         else                                       
 450:../Middlewares/threadx/ports/cortex_m55/gnu/inc/tx_port.h ****                                                         {                                          
 451:../Middlewares/threadx/ports/cortex_m55/gnu/inc/tx_port.h ****                                                         ULONG  _tx_fpccr;                          
 452:../Middlewares/threadx/ports/cortex_m55/gnu/inc/tx_port.h ****                                                             _tx_fpccr = _tx_misra_fpccr_get();     
 453:../Middlewares/threadx/ports/cortex_m55/gnu/inc/tx_port.h ****                                                             _tx_fpccr = _tx_fpccr & ((ULONG) 0x01);
 454:../Middlewares/threadx/ports/cortex_m55/gnu/inc/tx_port.h ****                                                             if (_tx_fpccr == ((ULONG) 0x01))       
 455:../Middlewares/threadx/ports/cortex_m55/gnu/inc/tx_port.h ****                                                             {                                      
 456:../Middlewares/threadx/ports/cortex_m55/gnu/inc/tx_port.h ****                                                             ULONG _tx_vfp_state;                   
 457:../Middlewares/threadx/ports/cortex_m55/gnu/inc/tx_port.h ****                                                                 _tx_vfp_state = _tx_misra_control_g
 458:../Middlewares/threadx/ports/cortex_m55/gnu/inc/tx_port.h ****                                                                 _tx_vfp_state = _tx_vfp_state & ((U
 459:../Middlewares/threadx/ports/cortex_m55/gnu/inc/tx_port.h ****                                                                 _tx_misra_vfp_touch();             
 460:../Middlewares/threadx/ports/cortex_m55/gnu/inc/tx_port.h ****                                                                 if (_tx_vfp_state == ((ULONG) 0))  
 461:../Middlewares/threadx/ports/cortex_m55/gnu/inc/tx_port.h ****                                                                 {                                  
 462:../Middlewares/threadx/ports/cortex_m55/gnu/inc/tx_port.h ****                                                                     _tx_vfp_state = _tx_misra_contr
 463:../Middlewares/threadx/ports/cortex_m55/gnu/inc/tx_port.h ****                                                                     _tx_vfp_state = _tx_vfp_state &
 464:../Middlewares/threadx/ports/cortex_m55/gnu/inc/tx_port.h ****                                                                     _tx_misra_control_set(_tx_vfp_s
 465:../Middlewares/threadx/ports/cortex_m55/gnu/inc/tx_port.h ****                                                                 }                                  
 466:../Middlewares/threadx/ports/cortex_m55/gnu/inc/tx_port.h ****                                                             }                                      
 467:../Middlewares/threadx/ports/cortex_m55/gnu/inc/tx_port.h ****                                                         }                                          
 468:../Middlewares/threadx/ports/cortex_m55/gnu/inc/tx_port.h ****                                                     }
 469:../Middlewares/threadx/ports/cortex_m55/gnu/inc/tx_port.h **** #endif
 470:../Middlewares/threadx/ports/cortex_m55/gnu/inc/tx_port.h **** 
 471:../Middlewares/threadx/ports/cortex_m55/gnu/inc/tx_port.h **** #else   /* No VFP in use */
 472:../Middlewares/threadx/ports/cortex_m55/gnu/inc/tx_port.h **** 
 473:../Middlewares/threadx/ports/cortex_m55/gnu/inc/tx_port.h **** #define TX_THREAD_COMPLETED_EXTENSION(thread_ptr)
 474:../Middlewares/threadx/ports/cortex_m55/gnu/inc/tx_port.h **** #define TX_THREAD_TERMINATED_EXTENSION(thread_ptr)
 475:../Middlewares/threadx/ports/cortex_m55/gnu/inc/tx_port.h **** 
 476:../Middlewares/threadx/ports/cortex_m55/gnu/inc/tx_port.h **** #endif  /* defined(__ARMVFP__) || defined(__ARM_PCS_VFP) || defined(__ARM_FP) || defined(__TARGET_F
 477:../Middlewares/threadx/ports/cortex_m55/gnu/inc/tx_port.h **** 
 478:../Middlewares/threadx/ports/cortex_m55/gnu/inc/tx_port.h **** 
 479:../Middlewares/threadx/ports/cortex_m55/gnu/inc/tx_port.h **** /* Define the ThreadX object creation extensions for the remaining objects.  */
 480:../Middlewares/threadx/ports/cortex_m55/gnu/inc/tx_port.h **** 
 481:../Middlewares/threadx/ports/cortex_m55/gnu/inc/tx_port.h **** #define TX_BLOCK_POOL_CREATE_EXTENSION(pool_ptr)
 482:../Middlewares/threadx/ports/cortex_m55/gnu/inc/tx_port.h **** #define TX_BYTE_POOL_CREATE_EXTENSION(pool_ptr)
 483:../Middlewares/threadx/ports/cortex_m55/gnu/inc/tx_port.h **** #define TX_EVENT_FLAGS_GROUP_CREATE_EXTENSION(group_ptr)
 484:../Middlewares/threadx/ports/cortex_m55/gnu/inc/tx_port.h **** #define TX_MUTEX_CREATE_EXTENSION(mutex_ptr)
 485:../Middlewares/threadx/ports/cortex_m55/gnu/inc/tx_port.h **** #define TX_QUEUE_CREATE_EXTENSION(queue_ptr)
 486:../Middlewares/threadx/ports/cortex_m55/gnu/inc/tx_port.h **** #define TX_SEMAPHORE_CREATE_EXTENSION(semaphore_ptr)
 487:../Middlewares/threadx/ports/cortex_m55/gnu/inc/tx_port.h **** #define TX_TIMER_CREATE_EXTENSION(timer_ptr)
 488:../Middlewares/threadx/ports/cortex_m55/gnu/inc/tx_port.h **** 
ARM GAS  /tmp/ccposyzW.s 			page 12


 489:../Middlewares/threadx/ports/cortex_m55/gnu/inc/tx_port.h **** 
 490:../Middlewares/threadx/ports/cortex_m55/gnu/inc/tx_port.h **** /* Define the ThreadX object deletion extensions for the remaining objects.  */
 491:../Middlewares/threadx/ports/cortex_m55/gnu/inc/tx_port.h **** 
 492:../Middlewares/threadx/ports/cortex_m55/gnu/inc/tx_port.h **** #define TX_BLOCK_POOL_DELETE_EXTENSION(pool_ptr)
 493:../Middlewares/threadx/ports/cortex_m55/gnu/inc/tx_port.h **** #define TX_BYTE_POOL_DELETE_EXTENSION(pool_ptr)
 494:../Middlewares/threadx/ports/cortex_m55/gnu/inc/tx_port.h **** #define TX_EVENT_FLAGS_GROUP_DELETE_EXTENSION(group_ptr)
 495:../Middlewares/threadx/ports/cortex_m55/gnu/inc/tx_port.h **** #define TX_MUTEX_DELETE_EXTENSION(mutex_ptr)
 496:../Middlewares/threadx/ports/cortex_m55/gnu/inc/tx_port.h **** #define TX_QUEUE_DELETE_EXTENSION(queue_ptr)
 497:../Middlewares/threadx/ports/cortex_m55/gnu/inc/tx_port.h **** #define TX_SEMAPHORE_DELETE_EXTENSION(semaphore_ptr)
 498:../Middlewares/threadx/ports/cortex_m55/gnu/inc/tx_port.h **** #define TX_TIMER_DELETE_EXTENSION(timer_ptr)
 499:../Middlewares/threadx/ports/cortex_m55/gnu/inc/tx_port.h **** 
 500:../Middlewares/threadx/ports/cortex_m55/gnu/inc/tx_port.h **** 
 501:../Middlewares/threadx/ports/cortex_m55/gnu/inc/tx_port.h **** /* Define the get system state macro.  */
 502:../Middlewares/threadx/ports/cortex_m55/gnu/inc/tx_port.h **** 
 503:../Middlewares/threadx/ports/cortex_m55/gnu/inc/tx_port.h **** #ifndef TX_THREAD_GET_SYSTEM_STATE
 504:../Middlewares/threadx/ports/cortex_m55/gnu/inc/tx_port.h **** #ifndef TX_MISRA_ENABLE
 505:../Middlewares/threadx/ports/cortex_m55/gnu/inc/tx_port.h **** 
 506:../Middlewares/threadx/ports/cortex_m55/gnu/inc/tx_port.h **** #if defined(__GNUC__) /* GCC and AC6 */
 507:../Middlewares/threadx/ports/cortex_m55/gnu/inc/tx_port.h **** __attribute__( ( always_inline ) ) static inline UINT _tx_ipsr_get(void)
 508:../Middlewares/threadx/ports/cortex_m55/gnu/inc/tx_port.h **** {
 509:../Middlewares/threadx/ports/cortex_m55/gnu/inc/tx_port.h **** UINT ipsr_value;
 510:../Middlewares/threadx/ports/cortex_m55/gnu/inc/tx_port.h ****     __asm__ volatile (" MRS  %0,IPSR ": "=r" (ipsr_value) );
 511:../Middlewares/threadx/ports/cortex_m55/gnu/inc/tx_port.h ****     return(ipsr_value);
 512:../Middlewares/threadx/ports/cortex_m55/gnu/inc/tx_port.h **** }
 513:../Middlewares/threadx/ports/cortex_m55/gnu/inc/tx_port.h **** #endif  /* GCC and AC6 IPSR_get function. */
 514:../Middlewares/threadx/ports/cortex_m55/gnu/inc/tx_port.h **** 
 515:../Middlewares/threadx/ports/cortex_m55/gnu/inc/tx_port.h **** #define TX_THREAD_GET_SYSTEM_STATE()        (_tx_thread_system_state | _tx_ipsr_get())
 516:../Middlewares/threadx/ports/cortex_m55/gnu/inc/tx_port.h **** 
 517:../Middlewares/threadx/ports/cortex_m55/gnu/inc/tx_port.h **** #else   /* TX_MISRA_ENABLE is defined, use MISRA function. */
 518:../Middlewares/threadx/ports/cortex_m55/gnu/inc/tx_port.h **** ULONG   _tx_misra_ipsr_get(VOID);
 519:../Middlewares/threadx/ports/cortex_m55/gnu/inc/tx_port.h **** #define TX_THREAD_GET_SYSTEM_STATE()        (_tx_thread_system_state | _tx_misra_ipsr_get())
 520:../Middlewares/threadx/ports/cortex_m55/gnu/inc/tx_port.h **** #endif  /* TX_MISRA_ENABLE */
 521:../Middlewares/threadx/ports/cortex_m55/gnu/inc/tx_port.h **** #endif  /* TX_THREAD_GET_SYSTEM_STATE */
 522:../Middlewares/threadx/ports/cortex_m55/gnu/inc/tx_port.h **** 
 523:../Middlewares/threadx/ports/cortex_m55/gnu/inc/tx_port.h **** 
 524:../Middlewares/threadx/ports/cortex_m55/gnu/inc/tx_port.h **** /* Define the check for whether or not to call the _tx_thread_system_return function.  A non-zero v
 525:../Middlewares/threadx/ports/cortex_m55/gnu/inc/tx_port.h ****    indicates that _tx_thread_system_return should not be called. This overrides the definition in t
 526:../Middlewares/threadx/ports/cortex_m55/gnu/inc/tx_port.h ****    for Cortex-M since so we don't waste time checking the _tx_thread_system_state variable that is 
 527:../Middlewares/threadx/ports/cortex_m55/gnu/inc/tx_port.h ****    zero after initialization for Cortex-M ports. */
 528:../Middlewares/threadx/ports/cortex_m55/gnu/inc/tx_port.h **** 
 529:../Middlewares/threadx/ports/cortex_m55/gnu/inc/tx_port.h **** #ifndef TX_THREAD_SYSTEM_RETURN_CHECK
 530:../Middlewares/threadx/ports/cortex_m55/gnu/inc/tx_port.h **** #define TX_THREAD_SYSTEM_RETURN_CHECK(c)    (c) = ((ULONG) _tx_thread_preempt_disable);
 531:../Middlewares/threadx/ports/cortex_m55/gnu/inc/tx_port.h **** #endif
 532:../Middlewares/threadx/ports/cortex_m55/gnu/inc/tx_port.h **** 
 533:../Middlewares/threadx/ports/cortex_m55/gnu/inc/tx_port.h **** #if !defined(TX_SINGLE_MODE_SECURE) && !defined(TX_SINGLE_MODE_NON_SECURE)
 534:../Middlewares/threadx/ports/cortex_m55/gnu/inc/tx_port.h **** /* Initialize secure stacks for threads calling secure functions. */
 535:../Middlewares/threadx/ports/cortex_m55/gnu/inc/tx_port.h **** extern void    _tx_thread_secure_stack_initialize(void);
 536:../Middlewares/threadx/ports/cortex_m55/gnu/inc/tx_port.h **** #define TX_PORT_SPECIFIC_PRE_INITIALIZATION             _tx_thread_secure_stack_initialize();
 537:../Middlewares/threadx/ports/cortex_m55/gnu/inc/tx_port.h **** #endif
 538:../Middlewares/threadx/ports/cortex_m55/gnu/inc/tx_port.h **** 
 539:../Middlewares/threadx/ports/cortex_m55/gnu/inc/tx_port.h **** /* Define the macro to ensure _tx_thread_preempt_disable is set early in initialization in order to
 540:../Middlewares/threadx/ports/cortex_m55/gnu/inc/tx_port.h ****    prevent early scheduling on Cortex-M parts.  */
 541:../Middlewares/threadx/ports/cortex_m55/gnu/inc/tx_port.h **** 
 542:../Middlewares/threadx/ports/cortex_m55/gnu/inc/tx_port.h **** #define TX_PORT_SPECIFIC_POST_INITIALIZATION    _tx_thread_preempt_disable++;
 543:../Middlewares/threadx/ports/cortex_m55/gnu/inc/tx_port.h **** 
 544:../Middlewares/threadx/ports/cortex_m55/gnu/inc/tx_port.h **** 
 545:../Middlewares/threadx/ports/cortex_m55/gnu/inc/tx_port.h **** 
ARM GAS  /tmp/ccposyzW.s 			page 13


 546:../Middlewares/threadx/ports/cortex_m55/gnu/inc/tx_port.h **** 
 547:../Middlewares/threadx/ports/cortex_m55/gnu/inc/tx_port.h **** #ifndef TX_DISABLE_INLINE
 548:../Middlewares/threadx/ports/cortex_m55/gnu/inc/tx_port.h **** 
 549:../Middlewares/threadx/ports/cortex_m55/gnu/inc/tx_port.h **** /* Define the TX_LOWEST_SET_BIT_CALCULATE macro for each compiler. */
 550:../Middlewares/threadx/ports/cortex_m55/gnu/inc/tx_port.h **** #ifdef __ICCARM__       /* IAR Compiler */
 551:../Middlewares/threadx/ports/cortex_m55/gnu/inc/tx_port.h **** #define TX_LOWEST_SET_BIT_CALCULATE(m, b)       (b) = (UINT) __CLZ(__RBIT((m)));
 552:../Middlewares/threadx/ports/cortex_m55/gnu/inc/tx_port.h **** #elif defined(__GNUC__) /* GCC and AC6 Compiler */
 553:../Middlewares/threadx/ports/cortex_m55/gnu/inc/tx_port.h **** #define TX_LOWEST_SET_BIT_CALCULATE(m, b)       __asm__ volatile (" RBIT %0,%1 ": "=r" (m) : "r" (m
 554:../Middlewares/threadx/ports/cortex_m55/gnu/inc/tx_port.h ****                                                 __asm__ volatile (" CLZ  %0,%1 ": "=r" (b) : "r" (m
 555:../Middlewares/threadx/ports/cortex_m55/gnu/inc/tx_port.h **** #else
 556:../Middlewares/threadx/ports/cortex_m55/gnu/inc/tx_port.h **** #error "Compiler not supported."
 557:../Middlewares/threadx/ports/cortex_m55/gnu/inc/tx_port.h **** #endif
 558:../Middlewares/threadx/ports/cortex_m55/gnu/inc/tx_port.h **** 
 559:../Middlewares/threadx/ports/cortex_m55/gnu/inc/tx_port.h **** 
 560:../Middlewares/threadx/ports/cortex_m55/gnu/inc/tx_port.h **** 
 561:../Middlewares/threadx/ports/cortex_m55/gnu/inc/tx_port.h **** /* Define the interrupt disable/restore macros. */
 562:../Middlewares/threadx/ports/cortex_m55/gnu/inc/tx_port.h **** 
 563:../Middlewares/threadx/ports/cortex_m55/gnu/inc/tx_port.h **** __attribute__( ( always_inline ) ) static inline UINT __get_interrupt_posture(void)
 564:../Middlewares/threadx/ports/cortex_m55/gnu/inc/tx_port.h **** {
 565:../Middlewares/threadx/ports/cortex_m55/gnu/inc/tx_port.h **** UINT posture;
 566:../Middlewares/threadx/ports/cortex_m55/gnu/inc/tx_port.h **** #ifdef TX_PORT_USE_BASEPRI
 567:../Middlewares/threadx/ports/cortex_m55/gnu/inc/tx_port.h ****     __asm__ volatile ("MRS  %0, BASEPRI ": "=r" (posture));
 568:../Middlewares/threadx/ports/cortex_m55/gnu/inc/tx_port.h **** #else
 569:../Middlewares/threadx/ports/cortex_m55/gnu/inc/tx_port.h ****     __asm__ volatile ("MRS  %0, PRIMASK ": "=r" (posture));
 570:../Middlewares/threadx/ports/cortex_m55/gnu/inc/tx_port.h **** #endif
 571:../Middlewares/threadx/ports/cortex_m55/gnu/inc/tx_port.h ****     return(posture);
 572:../Middlewares/threadx/ports/cortex_m55/gnu/inc/tx_port.h **** }
 573:../Middlewares/threadx/ports/cortex_m55/gnu/inc/tx_port.h **** 
 574:../Middlewares/threadx/ports/cortex_m55/gnu/inc/tx_port.h **** #ifdef TX_PORT_USE_BASEPRI
 575:../Middlewares/threadx/ports/cortex_m55/gnu/inc/tx_port.h **** __attribute__( ( always_inline ) ) static inline void __set_basepri_value(UINT basepri_value)
 576:../Middlewares/threadx/ports/cortex_m55/gnu/inc/tx_port.h **** {
 577:../Middlewares/threadx/ports/cortex_m55/gnu/inc/tx_port.h ****     __asm__ volatile ("MSR  BASEPRI,%0 ": : "r" (basepri_value));
 578:../Middlewares/threadx/ports/cortex_m55/gnu/inc/tx_port.h **** }
 579:../Middlewares/threadx/ports/cortex_m55/gnu/inc/tx_port.h **** #else
 580:../Middlewares/threadx/ports/cortex_m55/gnu/inc/tx_port.h **** __attribute__( ( always_inline ) ) static inline void __enable_interrupts(void)
 581:../Middlewares/threadx/ports/cortex_m55/gnu/inc/tx_port.h **** {
 582:../Middlewares/threadx/ports/cortex_m55/gnu/inc/tx_port.h ****     __asm__ volatile ("CPSIE  i": : : "memory");
 583:../Middlewares/threadx/ports/cortex_m55/gnu/inc/tx_port.h **** }
 584:../Middlewares/threadx/ports/cortex_m55/gnu/inc/tx_port.h **** #endif
 585:../Middlewares/threadx/ports/cortex_m55/gnu/inc/tx_port.h **** 
 586:../Middlewares/threadx/ports/cortex_m55/gnu/inc/tx_port.h **** __attribute__( ( always_inline ) ) static inline void __restore_interrupt(UINT int_posture)
 587:../Middlewares/threadx/ports/cortex_m55/gnu/inc/tx_port.h **** {
 588:../Middlewares/threadx/ports/cortex_m55/gnu/inc/tx_port.h **** #ifdef TX_PORT_USE_BASEPRI
 589:../Middlewares/threadx/ports/cortex_m55/gnu/inc/tx_port.h ****     __set_basepri_value(int_posture);
 590:../Middlewares/threadx/ports/cortex_m55/gnu/inc/tx_port.h **** #else
 591:../Middlewares/threadx/ports/cortex_m55/gnu/inc/tx_port.h ****     __asm__ volatile ("MSR  PRIMASK,%0": : "r" (int_posture): "memory");
 592:../Middlewares/threadx/ports/cortex_m55/gnu/inc/tx_port.h **** #endif
 593:../Middlewares/threadx/ports/cortex_m55/gnu/inc/tx_port.h **** }
 594:../Middlewares/threadx/ports/cortex_m55/gnu/inc/tx_port.h **** 
 595:../Middlewares/threadx/ports/cortex_m55/gnu/inc/tx_port.h **** __attribute__( ( always_inline ) ) static inline UINT __disable_interrupts(void)
  51              		.loc 2 595 55 view .LVU10
  52              	.LBB24:
 596:../Middlewares/threadx/ports/cortex_m55/gnu/inc/tx_port.h **** {
 597:../Middlewares/threadx/ports/cortex_m55/gnu/inc/tx_port.h **** UINT int_posture;
  53              		.loc 2 597 1 view .LVU11
 598:../Middlewares/threadx/ports/cortex_m55/gnu/inc/tx_port.h **** 
 599:../Middlewares/threadx/ports/cortex_m55/gnu/inc/tx_port.h ****     int_posture = __get_interrupt_posture();
ARM GAS  /tmp/ccposyzW.s 			page 14


  54              		.loc 2 599 5 view .LVU12
  55              	.LBB25:
  56              	.LBI25:
 563:../Middlewares/threadx/ports/cortex_m55/gnu/inc/tx_port.h **** {
  57              		.loc 2 563 55 view .LVU13
  58              	.LBB26:
 565:../Middlewares/threadx/ports/cortex_m55/gnu/inc/tx_port.h **** #ifdef TX_PORT_USE_BASEPRI
  59              		.loc 2 565 1 view .LVU14
 569:../Middlewares/threadx/ports/cortex_m55/gnu/inc/tx_port.h **** #endif
  60              		.loc 2 569 5 view .LVU15
  61              	.LBE26:
  62              	.LBE25:
  63              	.LBE24:
  64              	.LBE23:
  76:../Middlewares/threadx/common/src/tx_block_pool_prioritize.c **** 
  65              		.loc 1 76 1 is_stmt 0 view .LVU16
  66 0000 F7B5     		push	{r0, r1, r2, r4, r5, r6, r7, lr}
  67              		.cfi_def_cfa_offset 32
  68              		.cfi_offset 4, -20
  69              		.cfi_offset 5, -16
  70              		.cfi_offset 6, -12
  71              		.cfi_offset 7, -8
  72              		.cfi_offset 14, -4
  76:../Middlewares/threadx/common/src/tx_block_pool_prioritize.c **** 
  73              		.loc 1 76 1 view .LVU17
  74 0002 0446     		mov	r4, r0
  75              	.LBB30:
  76              	.LBB29:
  77              	.LBB28:
  78              	.LBB27:
 569:../Middlewares/threadx/ports/cortex_m55/gnu/inc/tx_port.h **** #endif
  79              		.loc 2 569 5 view .LVU18
  80              		.syntax unified
  81              	@ 569 "../Middlewares/threadx/ports/cortex_m55/gnu/inc/tx_port.h" 1
  82 0004 EFF31085 		MRS  r5, PRIMASK 
  83              	@ 0 "" 2
  84              	.LVL1:
 571:../Middlewares/threadx/ports/cortex_m55/gnu/inc/tx_port.h **** }
  85              		.loc 2 571 5 is_stmt 1 view .LVU19
 571:../Middlewares/threadx/ports/cortex_m55/gnu/inc/tx_port.h **** }
  86              		.loc 2 571 5 is_stmt 0 view .LVU20
  87              		.thumb
  88              		.syntax unified
  89              	.LBE27:
  90              	.LBE28:
 600:../Middlewares/threadx/ports/cortex_m55/gnu/inc/tx_port.h **** 
 601:../Middlewares/threadx/ports/cortex_m55/gnu/inc/tx_port.h **** #ifdef TX_PORT_USE_BASEPRI
 602:../Middlewares/threadx/ports/cortex_m55/gnu/inc/tx_port.h ****     __set_basepri_value(TX_PORT_BASEPRI);
 603:../Middlewares/threadx/ports/cortex_m55/gnu/inc/tx_port.h **** #else
 604:../Middlewares/threadx/ports/cortex_m55/gnu/inc/tx_port.h ****     __asm__ volatile ("CPSID i" : : : "memory");
  91              		.loc 2 604 5 is_stmt 1 view .LVU21
  92              		.syntax unified
  93              	@ 604 "../Middlewares/threadx/ports/cortex_m55/gnu/inc/tx_port.h" 1
  94 0008 72B6     		CPSID i
  95              	@ 0 "" 2
 605:../Middlewares/threadx/ports/cortex_m55/gnu/inc/tx_port.h **** #endif
 606:../Middlewares/threadx/ports/cortex_m55/gnu/inc/tx_port.h ****     return(int_posture);
ARM GAS  /tmp/ccposyzW.s 			page 15


  96              		.loc 2 606 5 view .LVU22
  97              	.LVL2:
  98              		.loc 2 606 5 is_stmt 0 view .LVU23
  99              		.thumb
 100              		.syntax unified
 101              	.LBE29:
 102              	.LBE30:
 103              	.LBB31:
  91:../Middlewares/threadx/common/src/tx_block_pool_prioritize.c **** 
  92:../Middlewares/threadx/common/src/tx_block_pool_prioritize.c ****     /* If trace is enabled, insert this event into the trace buffer.  */
  93:../Middlewares/threadx/common/src/tx_block_pool_prioritize.c ****     TX_TRACE_IN_LINE_INSERT(TX_TRACE_BLOCK_POOL_PRIORITIZE, pool_ptr, pool_ptr -> tx_block_pool_sus
 104              		.loc 1 93 5 is_stmt 1 view .LVU24
 105              		.loc 1 93 5 view .LVU25
 106              		.loc 1 93 5 view .LVU26
 107              		.loc 1 93 5 view .LVU27
 108              		.loc 1 93 5 view .LVU28
 109 000a 454E     		ldr	r6, .L26
 110 000c 3368     		ldr	r3, [r6]
 111              	.LVL3:
 112              		.loc 1 93 5 view .LVU29
 113 000e 002B     		cmp	r3, #0
 114 0010 31D0     		beq	.L3
 115              		.loc 1 93 5 is_stmt 0 discriminator 1 view .LVU30
 116 0012 444A     		ldr	r2, .L26+4
 117 0014 1268     		ldr	r2, [r2]
 118 0016 9207     		lsls	r2, r2, #30
 119 0018 2DD5     		bpl	.L3
 120              		.loc 1 93 5 is_stmt 1 discriminator 2 view .LVU31
 121              	.LBB32:
 122              	.LBI32:
 507:../Middlewares/threadx/ports/cortex_m55/gnu/inc/tx_port.h **** {
 123              		.loc 2 507 55 view .LVU32
 124              	.LBB33:
 509:../Middlewares/threadx/ports/cortex_m55/gnu/inc/tx_port.h ****     __asm__ volatile (" MRS  %0,IPSR ": "=r" (ipsr_value) );
 125              		.loc 2 509 1 view .LVU33
 510:../Middlewares/threadx/ports/cortex_m55/gnu/inc/tx_port.h ****     return(ipsr_value);
 126              		.loc 2 510 5 view .LVU34
 127              		.syntax unified
 128              	@ 510 "../Middlewares/threadx/ports/cortex_m55/gnu/inc/tx_port.h" 1
 129 001a EFF30580 		 MRS  r0,IPSR 
 130              	@ 0 "" 2
 131              	.LVL4:
 511:../Middlewares/threadx/ports/cortex_m55/gnu/inc/tx_port.h **** }
 132              		.loc 2 511 5 view .LVU35
 511:../Middlewares/threadx/ports/cortex_m55/gnu/inc/tx_port.h **** }
 133              		.loc 2 511 5 is_stmt 0 view .LVU36
 134              		.thumb
 135              		.syntax unified
 136              	.LBE33:
 137              	.LBE32:
 138              		.loc 1 93 5 discriminator 1 view .LVU37
 139 001e 424A     		ldr	r2, .L26+8
 140 0020 4249     		ldr	r1, .L26+12
 141 0022 1268     		ldr	r2, [r2]
 142              	.LVL5:
 143              		.loc 1 93 5 is_stmt 1 discriminator 1 view .LVU38
 144 0024 0968     		ldr	r1, [r1]
ARM GAS  /tmp/ccposyzW.s 			page 16


 145              	.LVL6:
 146              		.loc 1 93 5 discriminator 1 view .LVU39
 147 0026 0243     		orrs	r2, r2, r0
 148              	.LVL7:
 149              		.loc 1 93 5 is_stmt 0 discriminator 1 view .LVU40
 150 0028 2ED1     		bne	.L5
 151              		.loc 1 93 5 is_stmt 1 discriminator 3 view .LVU41
 152              	.LVL8:
 153              		.loc 1 93 5 view .LVU42
 154              		.loc 1 93 5 is_stmt 0 discriminator 3 view .LVU43
 155 002a C86B     		ldr	r0, [r1, #60]
 156 002c CA6A     		ldr	r2, [r1, #44]
 157              	.LVL9:
 158              		.loc 1 93 5 discriminator 3 view .LVU44
 159 002e 42EA0042 		orr	r2, r2, r0, lsl #16
 160 0032 42F00042 		orr	r2, r2, #-2147483648
 161              	.LVL10:
 162              	.L6:
 163              		.loc 1 93 5 is_stmt 1 discriminator 9 view .LVU45
 164 0036 C3E90012 		strd	r1, r2, [r3]
 165              		.loc 1 93 5 view .LVU46
 166              		.loc 1 93 5 is_stmt 0 discriminator 9 view .LVU47
 167 003a 1022     		movs	r2, #16
 168              	.LVL11:
 169              		.loc 1 93 5 discriminator 9 view .LVU48
 170 003c 9A60     		str	r2, [r3, #8]
 171              		.loc 1 93 5 is_stmt 1 view .LVU49
 172              		.loc 1 93 5 is_stmt 0 discriminator 9 view .LVU50
 173 003e 3C4A     		ldr	r2, .L26+16
 174 0040 5268     		ldr	r2, [r2, #4]
 175 0042 C3E90324 		strd	r2, r4, [r3, #12]
 176              		.loc 1 93 5 is_stmt 1 view .LVU51
 177              		.loc 1 93 5 is_stmt 0 discriminator 9 view .LVU52
 178 0046 626A     		ldr	r2, [r4, #36]
 179 0048 2033     		adds	r3, r3, #32
 180              	.LVL12:
 181              		.loc 1 93 5 discriminator 9 view .LVU53
 182 004a 43F80C2C 		str	r2, [r3, #-12]
 183              		.loc 1 93 5 is_stmt 1 view .LVU54
 184              		.loc 1 93 5 is_stmt 0 discriminator 9 view .LVU55
 185 004e 01AA     		add	r2, sp, #4
 186 0050 43F8082C 		str	r2, [r3, #-8]
 187              		.loc 1 93 5 is_stmt 1 view .LVU56
 188              		.loc 1 93 5 is_stmt 0 discriminator 9 view .LVU57
 189 0054 0022     		movs	r2, #0
 190 0056 43F8042C 		str	r2, [r3, #-4]
 191              		.loc 1 93 5 is_stmt 1 view .LVU58
 192              	.LVL13:
 193              		.loc 1 93 5 view .LVU59
 194              		.loc 1 93 5 is_stmt 0 discriminator 10 view .LVU60
 195 005a 364A     		ldr	r2, .L26+20
 196 005c 1068     		ldr	r0, [r2]
 197              		.loc 1 93 5 discriminator 9 view .LVU61
 198 005e 364A     		ldr	r2, .L26+24
 199 0060 1268     		ldr	r2, [r2]
 200 0062 9A42     		cmp	r2, r3
 201 0064 1AD8     		bhi	.L7
ARM GAS  /tmp/ccposyzW.s 			page 17


 202              		.loc 1 93 5 is_stmt 1 discriminator 10 view .LVU62
 203 0066 354B     		ldr	r3, .L26+28
 204              	.LVL14:
 205              		.loc 1 93 5 is_stmt 0 discriminator 10 view .LVU63
 206 0068 1B68     		ldr	r3, [r3]
 207              	.LVL15:
 208              		.loc 1 93 5 is_stmt 1 view .LVU64
 209              		.loc 1 93 5 is_stmt 0 discriminator 10 view .LVU65
 210 006a 3360     		str	r3, [r6]
 211              	.LVL16:
 212              		.loc 1 93 5 is_stmt 1 view .LVU66
 213              		.loc 1 93 5 is_stmt 0 discriminator 10 view .LVU67
 214 006c 0362     		str	r3, [r0, #32]
 215              		.loc 1 93 5 is_stmt 1 view .LVU68
 216              		.loc 1 93 5 is_stmt 0 discriminator 10 view .LVU69
 217 006e 344B     		ldr	r3, .L26+32
 218              	.LVL17:
 219              		.loc 1 93 5 discriminator 10 view .LVU70
 220 0070 1B68     		ldr	r3, [r3]
 221 0072 03B1     		cbz	r3, .L3
 222              		.loc 1 93 5 is_stmt 1 discriminator 12 view .LVU71
 223 0074 9847     		blx	r3
 224              	.LVL18:
 225              	.L3:
 226              		.loc 1 93 5 is_stmt 0 discriminator 12 view .LVU72
 227              	.LBE31:
  94:../Middlewares/threadx/common/src/tx_block_pool_prioritize.c **** 
  95:../Middlewares/threadx/common/src/tx_block_pool_prioritize.c ****     /* Log this kernel call.  */
  96:../Middlewares/threadx/common/src/tx_block_pool_prioritize.c ****     TX_EL_BLOCK_POOL_PRIORITIZE_INSERT
  97:../Middlewares/threadx/common/src/tx_block_pool_prioritize.c **** 
  98:../Middlewares/threadx/common/src/tx_block_pool_prioritize.c ****     /* Pickup the suspended count.  */
  99:../Middlewares/threadx/common/src/tx_block_pool_prioritize.c ****     suspended_count =  pool_ptr -> tx_block_pool_suspended_count;
 228              		.loc 1 99 5 is_stmt 1 view .LVU73
 229              		.loc 1 99 33 is_stmt 0 view .LVU74
 230 0076 626A     		ldr	r2, [r4, #36]
 100:../Middlewares/threadx/common/src/tx_block_pool_prioritize.c **** 
 101:../Middlewares/threadx/common/src/tx_block_pool_prioritize.c ****     /* Determine if there are fewer than 2 suspended threads.  */
 102:../Middlewares/threadx/common/src/tx_block_pool_prioritize.c ****     if (suspended_count < ((UINT) 2))
 231              		.loc 1 102 8 view .LVU75
 232 0078 012A     		cmp	r2, #1
  99:../Middlewares/threadx/common/src/tx_block_pool_prioritize.c **** 
 233              		.loc 1 99 21 view .LVU76
 234 007a 0192     		str	r2, [sp, #4]
 235              		.loc 1 102 5 is_stmt 1 view .LVU77
 236              		.loc 1 102 8 is_stmt 0 view .LVU78
 237 007c 11D8     		bhi	.L8
 238              	.L11:
 103:../Middlewares/threadx/common/src/tx_block_pool_prioritize.c ****     {
 104:../Middlewares/threadx/common/src/tx_block_pool_prioritize.c **** 
 105:../Middlewares/threadx/common/src/tx_block_pool_prioritize.c ****         /* Restore interrupts.  */
 106:../Middlewares/threadx/common/src/tx_block_pool_prioritize.c ****         TX_RESTORE
 107:../Middlewares/threadx/common/src/tx_block_pool_prioritize.c ****     }
 108:../Middlewares/threadx/common/src/tx_block_pool_prioritize.c **** 
 109:../Middlewares/threadx/common/src/tx_block_pool_prioritize.c ****     /* Determine if there how many threads are suspended on this block memory pool.  */
 110:../Middlewares/threadx/common/src/tx_block_pool_prioritize.c ****     else if (suspended_count == ((UINT) 2))
 111:../Middlewares/threadx/common/src/tx_block_pool_prioritize.c ****     {
 112:../Middlewares/threadx/common/src/tx_block_pool_prioritize.c **** 
ARM GAS  /tmp/ccposyzW.s 			page 18


 113:../Middlewares/threadx/common/src/tx_block_pool_prioritize.c ****         /* Pickup the head pointer and the next pointer.  */
 114:../Middlewares/threadx/common/src/tx_block_pool_prioritize.c ****         head_ptr =  pool_ptr -> tx_block_pool_suspension_list;
 115:../Middlewares/threadx/common/src/tx_block_pool_prioritize.c ****         next_thread =  head_ptr -> tx_thread_suspended_next;
 116:../Middlewares/threadx/common/src/tx_block_pool_prioritize.c **** 
 117:../Middlewares/threadx/common/src/tx_block_pool_prioritize.c ****         /* Determine if the next suspended thread has a higher priority.  */
 118:../Middlewares/threadx/common/src/tx_block_pool_prioritize.c ****         if ((next_thread -> tx_thread_priority) < (head_ptr -> tx_thread_priority))
 119:../Middlewares/threadx/common/src/tx_block_pool_prioritize.c ****         {
 120:../Middlewares/threadx/common/src/tx_block_pool_prioritize.c **** 
 121:../Middlewares/threadx/common/src/tx_block_pool_prioritize.c ****             /* Yes, move the list head to the next thread.  */
 122:../Middlewares/threadx/common/src/tx_block_pool_prioritize.c ****             pool_ptr -> tx_block_pool_suspension_list =  next_thread;
 123:../Middlewares/threadx/common/src/tx_block_pool_prioritize.c ****         }
 124:../Middlewares/threadx/common/src/tx_block_pool_prioritize.c **** 
 125:../Middlewares/threadx/common/src/tx_block_pool_prioritize.c ****         /* Restore interrupts.  */
 126:../Middlewares/threadx/common/src/tx_block_pool_prioritize.c ****         TX_RESTORE
 239              		.loc 1 126 9 is_stmt 1 view .LVU79
 240              	.LVL19:
 241              	.LBB34:
 242              	.LBI34:
 586:../Middlewares/threadx/ports/cortex_m55/gnu/inc/tx_port.h **** {
 243              		.loc 2 586 55 view .LVU80
 244              	.LBB35:
 591:../Middlewares/threadx/ports/cortex_m55/gnu/inc/tx_port.h **** #endif
 245              		.loc 2 591 5 view .LVU81
 246              		.syntax unified
 247              	@ 591 "../Middlewares/threadx/ports/cortex_m55/gnu/inc/tx_port.h" 1
 248 007e 85F31088 		MSR  PRIMASK,r5
 249              	@ 0 "" 2
 250              	.LVL20:
 251              		.thumb
 252              		.syntax unified
 253              	.L9:
 591:../Middlewares/threadx/ports/cortex_m55/gnu/inc/tx_port.h **** #endif
 254              		.loc 2 591 5 is_stmt 0 view .LVU82
 255              	.LBE35:
 256              	.LBE34:
 127:../Middlewares/threadx/common/src/tx_block_pool_prioritize.c ****     }
 128:../Middlewares/threadx/common/src/tx_block_pool_prioritize.c ****     else
 129:../Middlewares/threadx/common/src/tx_block_pool_prioritize.c ****     {
 130:../Middlewares/threadx/common/src/tx_block_pool_prioritize.c **** 
 131:../Middlewares/threadx/common/src/tx_block_pool_prioritize.c ****         /* Remember the suspension count and head pointer.  */
 132:../Middlewares/threadx/common/src/tx_block_pool_prioritize.c ****         head_ptr =   pool_ptr -> tx_block_pool_suspension_list;
 133:../Middlewares/threadx/common/src/tx_block_pool_prioritize.c **** 
 134:../Middlewares/threadx/common/src/tx_block_pool_prioritize.c ****         /* Default the highest priority thread to the thread at the front of the list.  */
 135:../Middlewares/threadx/common/src/tx_block_pool_prioritize.c ****         priority_thread_ptr =  head_ptr;
 136:../Middlewares/threadx/common/src/tx_block_pool_prioritize.c **** 
 137:../Middlewares/threadx/common/src/tx_block_pool_prioritize.c ****         /* Setup search pointer.  */
 138:../Middlewares/threadx/common/src/tx_block_pool_prioritize.c ****         thread_ptr =  priority_thread_ptr -> tx_thread_suspended_next;
 139:../Middlewares/threadx/common/src/tx_block_pool_prioritize.c **** 
 140:../Middlewares/threadx/common/src/tx_block_pool_prioritize.c ****         /* Disable preemption.  */
 141:../Middlewares/threadx/common/src/tx_block_pool_prioritize.c ****         _tx_thread_preempt_disable++;
 142:../Middlewares/threadx/common/src/tx_block_pool_prioritize.c **** 
 143:../Middlewares/threadx/common/src/tx_block_pool_prioritize.c ****         /* Set the list changed flag to false.  */
 144:../Middlewares/threadx/common/src/tx_block_pool_prioritize.c ****         list_changed =  TX_FALSE;
 145:../Middlewares/threadx/common/src/tx_block_pool_prioritize.c **** 
 146:../Middlewares/threadx/common/src/tx_block_pool_prioritize.c ****         /* Search through the list to find the highest priority thread.  */
 147:../Middlewares/threadx/common/src/tx_block_pool_prioritize.c ****         do
 148:../Middlewares/threadx/common/src/tx_block_pool_prioritize.c ****         {
ARM GAS  /tmp/ccposyzW.s 			page 19


 149:../Middlewares/threadx/common/src/tx_block_pool_prioritize.c **** 
 150:../Middlewares/threadx/common/src/tx_block_pool_prioritize.c ****             /* Is the current thread higher priority?  */
 151:../Middlewares/threadx/common/src/tx_block_pool_prioritize.c ****             if (thread_ptr -> tx_thread_priority < priority_thread_ptr -> tx_thread_priority)
 152:../Middlewares/threadx/common/src/tx_block_pool_prioritize.c ****             {
 153:../Middlewares/threadx/common/src/tx_block_pool_prioritize.c **** 
 154:../Middlewares/threadx/common/src/tx_block_pool_prioritize.c ****                 /* Yes, remember that this thread is the highest priority.  */
 155:../Middlewares/threadx/common/src/tx_block_pool_prioritize.c ****                 priority_thread_ptr =  thread_ptr;
 156:../Middlewares/threadx/common/src/tx_block_pool_prioritize.c ****             }
 157:../Middlewares/threadx/common/src/tx_block_pool_prioritize.c **** 
 158:../Middlewares/threadx/common/src/tx_block_pool_prioritize.c ****             /* Restore interrupts temporarily.  */
 159:../Middlewares/threadx/common/src/tx_block_pool_prioritize.c ****             TX_RESTORE
 160:../Middlewares/threadx/common/src/tx_block_pool_prioritize.c **** 
 161:../Middlewares/threadx/common/src/tx_block_pool_prioritize.c ****             /* Disable interrupts again.  */
 162:../Middlewares/threadx/common/src/tx_block_pool_prioritize.c ****             TX_DISABLE
 163:../Middlewares/threadx/common/src/tx_block_pool_prioritize.c **** 
 164:../Middlewares/threadx/common/src/tx_block_pool_prioritize.c ****             /* Determine if any changes to the list have occurred while
 165:../Middlewares/threadx/common/src/tx_block_pool_prioritize.c ****                interrupts were enabled.  */
 166:../Middlewares/threadx/common/src/tx_block_pool_prioritize.c **** 
 167:../Middlewares/threadx/common/src/tx_block_pool_prioritize.c ****             /* Is the list head the same?  */
 168:../Middlewares/threadx/common/src/tx_block_pool_prioritize.c ****             if (head_ptr != pool_ptr -> tx_block_pool_suspension_list)
 169:../Middlewares/threadx/common/src/tx_block_pool_prioritize.c ****             {
 170:../Middlewares/threadx/common/src/tx_block_pool_prioritize.c **** 
 171:../Middlewares/threadx/common/src/tx_block_pool_prioritize.c ****                 /* The list head has changed, set the list changed flag.  */
 172:../Middlewares/threadx/common/src/tx_block_pool_prioritize.c ****                 list_changed =  TX_TRUE;
 173:../Middlewares/threadx/common/src/tx_block_pool_prioritize.c ****             }
 174:../Middlewares/threadx/common/src/tx_block_pool_prioritize.c ****             else
 175:../Middlewares/threadx/common/src/tx_block_pool_prioritize.c ****             {
 176:../Middlewares/threadx/common/src/tx_block_pool_prioritize.c **** 
 177:../Middlewares/threadx/common/src/tx_block_pool_prioritize.c ****                 /* Is the suspended count the same?  */
 178:../Middlewares/threadx/common/src/tx_block_pool_prioritize.c ****                 if (suspended_count != pool_ptr -> tx_block_pool_suspended_count)
 179:../Middlewares/threadx/common/src/tx_block_pool_prioritize.c ****                 {
 180:../Middlewares/threadx/common/src/tx_block_pool_prioritize.c **** 
 181:../Middlewares/threadx/common/src/tx_block_pool_prioritize.c ****                     /* The list head has changed, set the list changed flag.  */
 182:../Middlewares/threadx/common/src/tx_block_pool_prioritize.c ****                     list_changed =  TX_TRUE;
 183:../Middlewares/threadx/common/src/tx_block_pool_prioritize.c ****                 }
 184:../Middlewares/threadx/common/src/tx_block_pool_prioritize.c ****             }
 185:../Middlewares/threadx/common/src/tx_block_pool_prioritize.c **** 
 186:../Middlewares/threadx/common/src/tx_block_pool_prioritize.c ****             /* Determine if the list has changed.  */
 187:../Middlewares/threadx/common/src/tx_block_pool_prioritize.c ****             if (list_changed == TX_FALSE)
 188:../Middlewares/threadx/common/src/tx_block_pool_prioritize.c ****             {
 189:../Middlewares/threadx/common/src/tx_block_pool_prioritize.c **** 
 190:../Middlewares/threadx/common/src/tx_block_pool_prioritize.c ****                 /* Move the thread pointer to the next thread.  */
 191:../Middlewares/threadx/common/src/tx_block_pool_prioritize.c ****                 thread_ptr =  thread_ptr -> tx_thread_suspended_next;
 192:../Middlewares/threadx/common/src/tx_block_pool_prioritize.c ****             }
 193:../Middlewares/threadx/common/src/tx_block_pool_prioritize.c ****             else
 194:../Middlewares/threadx/common/src/tx_block_pool_prioritize.c ****             {
 195:../Middlewares/threadx/common/src/tx_block_pool_prioritize.c **** 
 196:../Middlewares/threadx/common/src/tx_block_pool_prioritize.c ****                 /* Remember the suspension count and head pointer.  */
 197:../Middlewares/threadx/common/src/tx_block_pool_prioritize.c ****                 head_ptr =   pool_ptr -> tx_block_pool_suspension_list;
 198:../Middlewares/threadx/common/src/tx_block_pool_prioritize.c ****                 suspended_count =  pool_ptr -> tx_block_pool_suspended_count;
 199:../Middlewares/threadx/common/src/tx_block_pool_prioritize.c **** 
 200:../Middlewares/threadx/common/src/tx_block_pool_prioritize.c ****                 /* Default the highest priority thread to the thread at the front of the list.  */
 201:../Middlewares/threadx/common/src/tx_block_pool_prioritize.c ****                 priority_thread_ptr =  head_ptr;
 202:../Middlewares/threadx/common/src/tx_block_pool_prioritize.c **** 
 203:../Middlewares/threadx/common/src/tx_block_pool_prioritize.c ****                 /* Setup search pointer.  */
 204:../Middlewares/threadx/common/src/tx_block_pool_prioritize.c ****                 thread_ptr =  priority_thread_ptr -> tx_thread_suspended_next;
 205:../Middlewares/threadx/common/src/tx_block_pool_prioritize.c **** 
ARM GAS  /tmp/ccposyzW.s 			page 20


 206:../Middlewares/threadx/common/src/tx_block_pool_prioritize.c ****                 /* Reset the list changed flag.  */
 207:../Middlewares/threadx/common/src/tx_block_pool_prioritize.c ****                 list_changed =  TX_FALSE;
 208:../Middlewares/threadx/common/src/tx_block_pool_prioritize.c ****             }
 209:../Middlewares/threadx/common/src/tx_block_pool_prioritize.c **** 
 210:../Middlewares/threadx/common/src/tx_block_pool_prioritize.c ****         } while (thread_ptr != head_ptr);
 211:../Middlewares/threadx/common/src/tx_block_pool_prioritize.c **** 
 212:../Middlewares/threadx/common/src/tx_block_pool_prioritize.c ****         /* Release preemption.  */
 213:../Middlewares/threadx/common/src/tx_block_pool_prioritize.c ****         _tx_thread_preempt_disable--;
 214:../Middlewares/threadx/common/src/tx_block_pool_prioritize.c **** 
 215:../Middlewares/threadx/common/src/tx_block_pool_prioritize.c ****         /* Now determine if the highest priority thread is at the front
 216:../Middlewares/threadx/common/src/tx_block_pool_prioritize.c ****            of the list.  */
 217:../Middlewares/threadx/common/src/tx_block_pool_prioritize.c ****         if (priority_thread_ptr != head_ptr)
 218:../Middlewares/threadx/common/src/tx_block_pool_prioritize.c ****         {
 219:../Middlewares/threadx/common/src/tx_block_pool_prioritize.c **** 
 220:../Middlewares/threadx/common/src/tx_block_pool_prioritize.c ****             /* No, we need to move the highest priority suspended thread to the
 221:../Middlewares/threadx/common/src/tx_block_pool_prioritize.c ****                front of the list.  */
 222:../Middlewares/threadx/common/src/tx_block_pool_prioritize.c **** 
 223:../Middlewares/threadx/common/src/tx_block_pool_prioritize.c ****             /* First, remove the highest priority thread by updating the
 224:../Middlewares/threadx/common/src/tx_block_pool_prioritize.c ****                adjacent suspended threads.  */
 225:../Middlewares/threadx/common/src/tx_block_pool_prioritize.c ****             next_thread =                                  priority_thread_ptr -> tx_thread_suspend
 226:../Middlewares/threadx/common/src/tx_block_pool_prioritize.c ****             previous_thread =                              priority_thread_ptr -> tx_thread_suspend
 227:../Middlewares/threadx/common/src/tx_block_pool_prioritize.c ****             next_thread -> tx_thread_suspended_previous =  previous_thread;
 228:../Middlewares/threadx/common/src/tx_block_pool_prioritize.c ****             previous_thread -> tx_thread_suspended_next =  next_thread;
 229:../Middlewares/threadx/common/src/tx_block_pool_prioritize.c **** 
 230:../Middlewares/threadx/common/src/tx_block_pool_prioritize.c ****             /* Now, link the highest priority thread at the front of the list.  */
 231:../Middlewares/threadx/common/src/tx_block_pool_prioritize.c ****             previous_thread =                                      head_ptr -> tx_thread_suspended_
 232:../Middlewares/threadx/common/src/tx_block_pool_prioritize.c ****             priority_thread_ptr -> tx_thread_suspended_next =      head_ptr;
 233:../Middlewares/threadx/common/src/tx_block_pool_prioritize.c ****             priority_thread_ptr -> tx_thread_suspended_previous =  previous_thread;
 234:../Middlewares/threadx/common/src/tx_block_pool_prioritize.c ****             previous_thread -> tx_thread_suspended_next =          priority_thread_ptr;
 235:../Middlewares/threadx/common/src/tx_block_pool_prioritize.c ****             head_ptr -> tx_thread_suspended_previous =             priority_thread_ptr;
 236:../Middlewares/threadx/common/src/tx_block_pool_prioritize.c **** 
 237:../Middlewares/threadx/common/src/tx_block_pool_prioritize.c ****             /* Move the list head pointer to the highest priority suspended thread.  */
 238:../Middlewares/threadx/common/src/tx_block_pool_prioritize.c ****             pool_ptr -> tx_block_pool_suspension_list =  priority_thread_ptr;
 239:../Middlewares/threadx/common/src/tx_block_pool_prioritize.c ****         }
 240:../Middlewares/threadx/common/src/tx_block_pool_prioritize.c **** 
 241:../Middlewares/threadx/common/src/tx_block_pool_prioritize.c ****         /* Restore interrupts.  */
 242:../Middlewares/threadx/common/src/tx_block_pool_prioritize.c ****         TX_RESTORE
 243:../Middlewares/threadx/common/src/tx_block_pool_prioritize.c **** 
 244:../Middlewares/threadx/common/src/tx_block_pool_prioritize.c ****         /* Check for preemption.  */
 245:../Middlewares/threadx/common/src/tx_block_pool_prioritize.c ****         _tx_thread_system_preempt_check();
 246:../Middlewares/threadx/common/src/tx_block_pool_prioritize.c ****     }
 247:../Middlewares/threadx/common/src/tx_block_pool_prioritize.c **** 
 248:../Middlewares/threadx/common/src/tx_block_pool_prioritize.c ****     /* Return successful status.  */
 249:../Middlewares/threadx/common/src/tx_block_pool_prioritize.c ****     return(TX_SUCCESS);
 257              		.loc 1 249 5 is_stmt 1 view .LVU83
 250:../Middlewares/threadx/common/src/tx_block_pool_prioritize.c **** }
 258              		.loc 1 250 1 is_stmt 0 view .LVU84
 259 0082 0020     		movs	r0, #0
 260 0084 03B0     		add	sp, sp, #12
 261              		.cfi_remember_state
 262              		.cfi_def_cfa_offset 20
 263              		@ sp needed
 264 0086 F0BD     		pop	{r4, r5, r6, r7, pc}
 265              	.LVL21:
 266              	.L5:
 267              		.cfi_restore_state
 268              	.LBB36:
ARM GAS  /tmp/ccposyzW.s 			page 21


  93:../Middlewares/threadx/common/src/tx_block_pool_prioritize.c **** 
 269              		.loc 1 93 5 is_stmt 1 discriminator 4 view .LVU85
 270 0088 B2F1F03F 		cmp	r2, #-252645136
  93:../Middlewares/threadx/common/src/tx_block_pool_prioritize.c **** 
 271              		.loc 1 93 5 discriminator 6 view .LVU86
 272 008c 35BF     		itete	cc
 273 008e 0A46     		movcc	r2, r1
 274              	.LVL22:
  93:../Middlewares/threadx/common/src/tx_block_pool_prioritize.c **** 
 275              		.loc 1 93 5 view .LVU87
  93:../Middlewares/threadx/common/src/tx_block_pool_prioritize.c **** 
 276              		.loc 1 93 5 is_stmt 0 discriminator 7 view .LVU88
 277 0090 4FF0F031 		movcs	r1, #-252645136
  93:../Middlewares/threadx/common/src/tx_block_pool_prioritize.c **** 
 278              		.loc 1 93 5 discriminator 6 view .LVU89
 279 0094 4FF0FF31 		movcc	r1, #-1
 280              	.LVL23:
  93:../Middlewares/threadx/common/src/tx_block_pool_prioritize.c **** 
 281              		.loc 1 93 5 discriminator 7 view .LVU90
 282 0098 0022     		movcs	r2, #0
 283 009a CCE7     		b	.L6
 284              	.LVL24:
 285              	.L7:
  93:../Middlewares/threadx/common/src/tx_block_pool_prioritize.c **** 
 286              		.loc 1 93 5 is_stmt 1 discriminator 11 view .LVU91
 287 009c 3360     		str	r3, [r6]
 288              	.LVL25:
  93:../Middlewares/threadx/common/src/tx_block_pool_prioritize.c **** 
 289              		.loc 1 93 5 view .LVU92
  93:../Middlewares/threadx/common/src/tx_block_pool_prioritize.c **** 
 290              		.loc 1 93 5 is_stmt 0 discriminator 11 view .LVU93
 291 009e 0362     		str	r3, [r0, #32]
 292 00a0 E9E7     		b	.L3
 293              	.LVL26:
 294              	.L8:
  93:../Middlewares/threadx/common/src/tx_block_pool_prioritize.c **** 
 295              		.loc 1 93 5 discriminator 11 view .LVU94
 296              	.LBE36:
 110:../Middlewares/threadx/common/src/tx_block_pool_prioritize.c ****     {
 297              		.loc 1 110 10 is_stmt 1 view .LVU95
 114:../Middlewares/threadx/common/src/tx_block_pool_prioritize.c ****         next_thread =  head_ptr -> tx_thread_suspended_next;
 298              		.loc 1 114 18 is_stmt 0 view .LVU96
 299 00a2 236A     		ldr	r3, [r4, #32]
 110:../Middlewares/threadx/common/src/tx_block_pool_prioritize.c ****     {
 300              		.loc 1 110 13 view .LVU97
 301 00a4 022A     		cmp	r2, #2
 115:../Middlewares/threadx/common/src/tx_block_pool_prioritize.c **** 
 302              		.loc 1 115 21 view .LVU98
 303 00a6 196F     		ldr	r1, [r3, #112]
 110:../Middlewares/threadx/common/src/tx_block_pool_prioritize.c ****     {
 304              		.loc 1 110 13 view .LVU99
 305 00a8 05D1     		bne	.L10
 114:../Middlewares/threadx/common/src/tx_block_pool_prioritize.c ****         next_thread =  head_ptr -> tx_thread_suspended_next;
 306              		.loc 1 114 9 is_stmt 1 view .LVU100
 307              	.LVL27:
 115:../Middlewares/threadx/common/src/tx_block_pool_prioritize.c **** 
 308              		.loc 1 115 9 view .LVU101
ARM GAS  /tmp/ccposyzW.s 			page 22


 118:../Middlewares/threadx/common/src/tx_block_pool_prioritize.c ****         {
 309              		.loc 1 118 9 view .LVU102
 118:../Middlewares/threadx/common/src/tx_block_pool_prioritize.c ****         {
 310              		.loc 1 118 12 is_stmt 0 view .LVU103
 311 00aa CA6A     		ldr	r2, [r1, #44]
 312 00ac DB6A     		ldr	r3, [r3, #44]
 313              	.LVL28:
 118:../Middlewares/threadx/common/src/tx_block_pool_prioritize.c ****         {
 314              		.loc 1 118 12 view .LVU104
 315 00ae 9A42     		cmp	r2, r3
 122:../Middlewares/threadx/common/src/tx_block_pool_prioritize.c ****         }
 316              		.loc 1 122 13 is_stmt 1 view .LVU105
 122:../Middlewares/threadx/common/src/tx_block_pool_prioritize.c ****         }
 317              		.loc 1 122 55 is_stmt 0 view .LVU106
 318 00b0 38BF     		it	cc
 319 00b2 2162     		strcc	r1, [r4, #32]
 320              	.LVL29:
 122:../Middlewares/threadx/common/src/tx_block_pool_prioritize.c ****         }
 321              		.loc 1 122 55 view .LVU107
 322 00b4 E3E7     		b	.L11
 323              	.LVL30:
 324              	.L10:
 132:../Middlewares/threadx/common/src/tx_block_pool_prioritize.c **** 
 325              		.loc 1 132 9 is_stmt 1 view .LVU108
 135:../Middlewares/threadx/common/src/tx_block_pool_prioritize.c **** 
 326              		.loc 1 135 9 view .LVU109
 138:../Middlewares/threadx/common/src/tx_block_pool_prioritize.c **** 
 327              		.loc 1 138 9 view .LVU110
 141:../Middlewares/threadx/common/src/tx_block_pool_prioritize.c **** 
 328              		.loc 1 141 9 view .LVU111
 132:../Middlewares/threadx/common/src/tx_block_pool_prioritize.c **** 
 329              		.loc 1 132 18 is_stmt 0 view .LVU112
 330 00b6 1F46     		mov	r7, r3
 141:../Middlewares/threadx/common/src/tx_block_pool_prioritize.c **** 
 331              		.loc 1 141 35 view .LVU113
 332 00b8 2248     		ldr	r0, .L26+36
 333 00ba 0268     		ldr	r2, [r0]
 334 00bc 0132     		adds	r2, r2, #1
 335 00be 0260     		str	r2, [r0]
 144:../Middlewares/threadx/common/src/tx_block_pool_prioritize.c **** 
 336              		.loc 1 144 9 is_stmt 1 view .LVU114
 337              	.LVL31:
 338              	.L15:
 147:../Middlewares/threadx/common/src/tx_block_pool_prioritize.c ****         {
 339              		.loc 1 147 9 view .LVU115
 151:../Middlewares/threadx/common/src/tx_block_pool_prioritize.c ****             {
 340              		.loc 1 151 13 view .LVU116
 151:../Middlewares/threadx/common/src/tx_block_pool_prioritize.c ****             {
 341              		.loc 1 151 16 is_stmt 0 view .LVU117
 342 00c0 DA6A     		ldr	r2, [r3, #44]
 343 00c2 CE6A     		ldr	r6, [r1, #44]
 155:../Middlewares/threadx/common/src/tx_block_pool_prioritize.c ****             }
 344              		.loc 1 155 37 view .LVU118
 345 00c4 9642     		cmp	r6, r2
 346 00c6 38BF     		it	cc
 347 00c8 0B46     		movcc	r3, r1
 348              	.LVL32:
ARM GAS  /tmp/ccposyzW.s 			page 23


 159:../Middlewares/threadx/common/src/tx_block_pool_prioritize.c **** 
 349              		.loc 1 159 13 is_stmt 1 view .LVU119
 350              	.LBB37:
 351              	.LBI37:
 586:../Middlewares/threadx/ports/cortex_m55/gnu/inc/tx_port.h **** {
 352              		.loc 2 586 55 view .LVU120
 353              	.LBB38:
 591:../Middlewares/threadx/ports/cortex_m55/gnu/inc/tx_port.h **** #endif
 354              		.loc 2 591 5 view .LVU121
 355              		.syntax unified
 356              	@ 591 "../Middlewares/threadx/ports/cortex_m55/gnu/inc/tx_port.h" 1
 357 00ca 85F31088 		MSR  PRIMASK,r5
 358              	@ 0 "" 2
 359              	.LVL33:
 591:../Middlewares/threadx/ports/cortex_m55/gnu/inc/tx_port.h **** #endif
 360              		.loc 2 591 5 is_stmt 0 view .LVU122
 361              		.thumb
 362              		.syntax unified
 363              	.LBE38:
 364              	.LBE37:
 162:../Middlewares/threadx/common/src/tx_block_pool_prioritize.c **** 
 365              		.loc 1 162 13 is_stmt 1 view .LVU123
 366              	.LBB39:
 367              	.LBI39:
 595:../Middlewares/threadx/ports/cortex_m55/gnu/inc/tx_port.h **** {
 368              		.loc 2 595 55 view .LVU124
 369              	.LBB40:
 597:../Middlewares/threadx/ports/cortex_m55/gnu/inc/tx_port.h **** 
 370              		.loc 2 597 1 view .LVU125
 599:../Middlewares/threadx/ports/cortex_m55/gnu/inc/tx_port.h **** 
 371              		.loc 2 599 5 view .LVU126
 372              	.LBB41:
 373              	.LBI41:
 563:../Middlewares/threadx/ports/cortex_m55/gnu/inc/tx_port.h **** {
 374              		.loc 2 563 55 view .LVU127
 375              	.LBB42:
 565:../Middlewares/threadx/ports/cortex_m55/gnu/inc/tx_port.h **** #ifdef TX_PORT_USE_BASEPRI
 376              		.loc 2 565 1 view .LVU128
 569:../Middlewares/threadx/ports/cortex_m55/gnu/inc/tx_port.h **** #endif
 377              		.loc 2 569 5 view .LVU129
 378              		.syntax unified
 379              	@ 569 "../Middlewares/threadx/ports/cortex_m55/gnu/inc/tx_port.h" 1
 380 00ce EFF31085 		MRS  r5, PRIMASK 
 381              	@ 0 "" 2
 382              	.LVL34:
 571:../Middlewares/threadx/ports/cortex_m55/gnu/inc/tx_port.h **** }
 383              		.loc 2 571 5 view .LVU130
 571:../Middlewares/threadx/ports/cortex_m55/gnu/inc/tx_port.h **** }
 384              		.loc 2 571 5 is_stmt 0 view .LVU131
 385              		.thumb
 386              		.syntax unified
 387              	.LBE42:
 388              	.LBE41:
 604:../Middlewares/threadx/ports/cortex_m55/gnu/inc/tx_port.h **** #endif
 389              		.loc 2 604 5 is_stmt 1 view .LVU132
 390              		.syntax unified
 391              	@ 604 "../Middlewares/threadx/ports/cortex_m55/gnu/inc/tx_port.h" 1
ARM GAS  /tmp/ccposyzW.s 			page 24


 392 00d2 72B6     		CPSID i
 393              	@ 0 "" 2
 394              		.loc 2 606 5 view .LVU133
 395              	.LVL35:
 396              		.loc 2 606 5 is_stmt 0 view .LVU134
 397              		.thumb
 398              		.syntax unified
 399              	.LBE40:
 400              	.LBE39:
 168:../Middlewares/threadx/common/src/tx_block_pool_prioritize.c ****             {
 401              		.loc 1 168 13 is_stmt 1 view .LVU135
 178:../Middlewares/threadx/common/src/tx_block_pool_prioritize.c ****                 {
 402              		.loc 1 178 49 is_stmt 0 view .LVU136
 403 00d4 D4E90826 		ldrd	r2, r6, [r4, #32]
 168:../Middlewares/threadx/common/src/tx_block_pool_prioritize.c ****             {
 404              		.loc 1 168 16 view .LVU137
 405 00d8 BA42     		cmp	r2, r7
 406 00da 1CD1     		bne	.L13
 178:../Middlewares/threadx/common/src/tx_block_pool_prioritize.c ****                 {
 407              		.loc 1 178 17 is_stmt 1 view .LVU138
 178:../Middlewares/threadx/common/src/tx_block_pool_prioritize.c ****                 {
 408              		.loc 1 178 20 is_stmt 0 view .LVU139
 409 00dc 019F     		ldr	r7, [sp, #4]
 410              	.LVL36:
 178:../Middlewares/threadx/common/src/tx_block_pool_prioritize.c ****                 {
 411              		.loc 1 178 20 view .LVU140
 412 00de B742     		cmp	r7, r6
 413 00e0 19D1     		bne	.L13
 187:../Middlewares/threadx/common/src/tx_block_pool_prioritize.c ****             {
 414              		.loc 1 187 13 is_stmt 1 view .LVU141
 191:../Middlewares/threadx/common/src/tx_block_pool_prioritize.c ****             }
 415              		.loc 1 191 17 view .LVU142
 191:../Middlewares/threadx/common/src/tx_block_pool_prioritize.c ****             }
 416              		.loc 1 191 28 is_stmt 0 view .LVU143
 417 00e2 096F     		ldr	r1, [r1, #112]
 418              	.LVL37:
 419              	.L14:
 210:../Middlewares/threadx/common/src/tx_block_pool_prioritize.c **** 
 420              		.loc 1 210 29 is_stmt 1 view .LVU144
 421 00e4 8A42     		cmp	r2, r1
 422 00e6 14D1     		bne	.L19
 213:../Middlewares/threadx/common/src/tx_block_pool_prioritize.c **** 
 423              		.loc 1 213 9 view .LVU145
 213:../Middlewares/threadx/common/src/tx_block_pool_prioritize.c **** 
 424              		.loc 1 213 35 is_stmt 0 view .LVU146
 425 00e8 0168     		ldr	r1, [r0]
 426              	.LVL38:
 217:../Middlewares/threadx/common/src/tx_block_pool_prioritize.c ****         {
 427              		.loc 1 217 12 view .LVU147
 428 00ea 9A42     		cmp	r2, r3
 213:../Middlewares/threadx/common/src/tx_block_pool_prioritize.c **** 
 429              		.loc 1 213 35 view .LVU148
 430 00ec 01F1FF31 		add	r1, r1, #-1
 431 00f0 0160     		str	r1, [r0]
 217:../Middlewares/threadx/common/src/tx_block_pool_prioritize.c ****         {
 432              		.loc 1 217 9 is_stmt 1 view .LVU149
 217:../Middlewares/threadx/common/src/tx_block_pool_prioritize.c ****         {
ARM GAS  /tmp/ccposyzW.s 			page 25


 433              		.loc 1 217 12 is_stmt 0 view .LVU150
 434 00f2 09D0     		beq	.L16
 225:../Middlewares/threadx/common/src/tx_block_pool_prioritize.c ****             previous_thread =                              priority_thread_ptr -> tx_thread_suspend
 435              		.loc 1 225 13 is_stmt 1 view .LVU151
 226:../Middlewares/threadx/common/src/tx_block_pool_prioritize.c ****             next_thread -> tx_thread_suspended_previous =  previous_thread;
 436              		.loc 1 226 29 is_stmt 0 view .LVU152
 437 00f4 D3E91C01 		ldrd	r0, r1, [r3, #112]
 438              	.LVL39:
 227:../Middlewares/threadx/common/src/tx_block_pool_prioritize.c ****             previous_thread -> tx_thread_suspended_next =  next_thread;
 439              		.loc 1 227 13 is_stmt 1 view .LVU153
 227:../Middlewares/threadx/common/src/tx_block_pool_prioritize.c ****             previous_thread -> tx_thread_suspended_next =  next_thread;
 440              		.loc 1 227 57 is_stmt 0 view .LVU154
 441 00f8 4167     		str	r1, [r0, #116]
 228:../Middlewares/threadx/common/src/tx_block_pool_prioritize.c **** 
 442              		.loc 1 228 13 is_stmt 1 view .LVU155
 228:../Middlewares/threadx/common/src/tx_block_pool_prioritize.c **** 
 443              		.loc 1 228 57 is_stmt 0 view .LVU156
 444 00fa 0867     		str	r0, [r1, #112]
 231:../Middlewares/threadx/common/src/tx_block_pool_prioritize.c ****             priority_thread_ptr -> tx_thread_suspended_next =      head_ptr;
 445              		.loc 1 231 13 is_stmt 1 view .LVU157
 231:../Middlewares/threadx/common/src/tx_block_pool_prioritize.c ****             priority_thread_ptr -> tx_thread_suspended_next =      head_ptr;
 446              		.loc 1 231 29 is_stmt 0 view .LVU158
 447 00fc 516F     		ldr	r1, [r2, #116]
 448              	.LVL40:
 232:../Middlewares/threadx/common/src/tx_block_pool_prioritize.c ****             priority_thread_ptr -> tx_thread_suspended_previous =  previous_thread;
 449              		.loc 1 232 13 is_stmt 1 view .LVU159
 233:../Middlewares/threadx/common/src/tx_block_pool_prioritize.c ****             previous_thread -> tx_thread_suspended_next =          priority_thread_ptr;
 450              		.loc 1 233 65 is_stmt 0 view .LVU160
 451 00fe C3E91C21 		strd	r2, r1, [r3, #112]
 234:../Middlewares/threadx/common/src/tx_block_pool_prioritize.c ****             head_ptr -> tx_thread_suspended_previous =             priority_thread_ptr;
 452              		.loc 1 234 13 is_stmt 1 view .LVU161
 234:../Middlewares/threadx/common/src/tx_block_pool_prioritize.c ****             head_ptr -> tx_thread_suspended_previous =             priority_thread_ptr;
 453              		.loc 1 234 57 is_stmt 0 view .LVU162
 454 0102 0B67     		str	r3, [r1, #112]
 235:../Middlewares/threadx/common/src/tx_block_pool_prioritize.c **** 
 455              		.loc 1 235 13 is_stmt 1 view .LVU163
 235:../Middlewares/threadx/common/src/tx_block_pool_prioritize.c **** 
 456              		.loc 1 235 54 is_stmt 0 view .LVU164
 457 0104 5367     		str	r3, [r2, #116]
 238:../Middlewares/threadx/common/src/tx_block_pool_prioritize.c ****         }
 458              		.loc 1 238 13 is_stmt 1 view .LVU165
 238:../Middlewares/threadx/common/src/tx_block_pool_prioritize.c ****         }
 459              		.loc 1 238 55 is_stmt 0 view .LVU166
 460 0106 2362     		str	r3, [r4, #32]
 461              	.LVL41:
 462              	.L16:
 242:../Middlewares/threadx/common/src/tx_block_pool_prioritize.c **** 
 463              		.loc 1 242 9 is_stmt 1 view .LVU167
 464              	.LBB43:
 465              	.LBI43:
 586:../Middlewares/threadx/ports/cortex_m55/gnu/inc/tx_port.h **** {
 466              		.loc 2 586 55 view .LVU168
 467              	.LBB44:
 591:../Middlewares/threadx/ports/cortex_m55/gnu/inc/tx_port.h **** #endif
 468              		.loc 2 591 5 view .LVU169
 469              		.syntax unified
 470              	@ 591 "../Middlewares/threadx/ports/cortex_m55/gnu/inc/tx_port.h" 1
ARM GAS  /tmp/ccposyzW.s 			page 26


 471 0108 85F31088 		MSR  PRIMASK,r5
 472              	@ 0 "" 2
 473              	.LVL42:
 591:../Middlewares/threadx/ports/cortex_m55/gnu/inc/tx_port.h **** #endif
 474              		.loc 2 591 5 is_stmt 0 view .LVU170
 475              		.thumb
 476              		.syntax unified
 477              	.LBE44:
 478              	.LBE43:
 245:../Middlewares/threadx/common/src/tx_block_pool_prioritize.c ****     }
 479              		.loc 1 245 9 is_stmt 1 view .LVU171
 480 010c FFF7FEFF 		bl	_tx_thread_system_preempt_check
 481              	.LVL43:
 245:../Middlewares/threadx/common/src/tx_block_pool_prioritize.c ****     }
 482              		.loc 1 245 9 is_stmt 0 view .LVU172
 483 0110 B7E7     		b	.L9
 484              	.LVL44:
 485              	.L19:
 245:../Middlewares/threadx/common/src/tx_block_pool_prioritize.c ****     }
 486              		.loc 1 245 9 view .LVU173
 487 0112 1746     		mov	r7, r2
 488 0114 D4E7     		b	.L15
 489              	.LVL45:
 490              	.L13:
 197:../Middlewares/threadx/common/src/tx_block_pool_prioritize.c ****                 suspended_count =  pool_ptr -> tx_block_pool_suspended_count;
 491              		.loc 1 197 17 is_stmt 1 view .LVU174
 198:../Middlewares/threadx/common/src/tx_block_pool_prioritize.c **** 
 492              		.loc 1 198 17 view .LVU175
 201:../Middlewares/threadx/common/src/tx_block_pool_prioritize.c **** 
 493              		.loc 1 201 37 is_stmt 0 view .LVU176
 494 0116 1346     		mov	r3, r2
 495              	.LVL46:
 204:../Middlewares/threadx/common/src/tx_block_pool_prioritize.c **** 
 496              		.loc 1 204 28 view .LVU177
 497 0118 116F     		ldr	r1, [r2, #112]
 498              	.LVL47:
 198:../Middlewares/threadx/common/src/tx_block_pool_prioritize.c **** 
 499              		.loc 1 198 33 view .LVU178
 500 011a 0196     		str	r6, [sp, #4]
 201:../Middlewares/threadx/common/src/tx_block_pool_prioritize.c **** 
 501              		.loc 1 201 17 is_stmt 1 view .LVU179
 502              	.LVL48:
 204:../Middlewares/threadx/common/src/tx_block_pool_prioritize.c **** 
 503              		.loc 1 204 17 view .LVU180
 207:../Middlewares/threadx/common/src/tx_block_pool_prioritize.c ****             }
 504              		.loc 1 207 17 view .LVU181
 207:../Middlewares/threadx/common/src/tx_block_pool_prioritize.c ****             }
 505              		.loc 1 207 17 is_stmt 0 view .LVU182
 506 011c E2E7     		b	.L14
 507              	.L27:
 508 011e 00BF     		.align	2
 509              	.L26:
 510 0120 00000000 		.word	_tx_trace_buffer_current_ptr
 511 0124 00000000 		.word	_tx_trace_event_enable_bits
 512 0128 00000000 		.word	_tx_thread_system_state
 513 012c 00000000 		.word	_tx_thread_current_ptr
 514 0130 001000E0 		.word	-536866816
ARM GAS  /tmp/ccposyzW.s 			page 27


 515 0134 00000000 		.word	_tx_trace_header_ptr
 516 0138 00000000 		.word	_tx_trace_buffer_end_ptr
 517 013c 00000000 		.word	_tx_trace_buffer_start_ptr
 518 0140 00000000 		.word	_tx_trace_full_notify_function
 519 0144 00000000 		.word	_tx_thread_preempt_disable
 520              		.cfi_endproc
 521              	.LFE8:
 523              		.text
 524              	.Letext0:
 525              		.file 3 "../Middlewares/threadx/common/inc/tx_api.h"
 526              		.file 4 "../Middlewares/threadx/common/inc/tx_thread.h"
 527              		.file 5 "../Middlewares/threadx/common/inc/tx_trace.h"
ARM GAS  /tmp/ccposyzW.s 			page 28

