ARM GAS  /tmp/ccM0YDds.s 			page 1


   1              		.arch armv8.1-m.main
   2              		.fpu fpv5-d16
   3              		.arch_extension dsp
   4              		.arch_extension fp
   5              		.arch_extension fp.dp
   6              		.arch_extension mve
   7              		.arch_extension mve.fp
   8              		.eabi_attribute 5, "cortex-m55"
   9              		.eabi_attribute 28, 1
  10              		.eabi_attribute 20, 1
  11              		.eabi_attribute 21, 1
  12              		.eabi_attribute 23, 3
  13              		.eabi_attribute 24, 1
  14              		.eabi_attribute 25, 1
  15              		.eabi_attribute 26, 1
  16              		.eabi_attribute 30, 4
  17              		.eabi_attribute 34, 1
  18              		.eabi_attribute 38, 1
  19              		.eabi_attribute 18, 4
  20              		.file	"tx_event_flags_set.c"
  21              		.text
  22              	.Ltext0:
  23              		.cfi_sections	.debug_frame
  24              		.file 1 "../Middlewares/threadx/common/src/tx_event_flags_set.c"
  25              		.section	.text._tx_event_flags_set,"ax",%progbits
  26              		.align	1
  27              		.global	_tx_event_flags_set
  28              		.syntax unified
  29              		.thumb
  30              		.thumb_func
  32              	_tx_event_flags_set:
  33              	.LVL0:
  34              	.LFB8:
   1:../Middlewares/threadx/common/src/tx_event_flags_set.c **** /**************************************************************************/
   2:../Middlewares/threadx/common/src/tx_event_flags_set.c **** /*                                                                        */
   3:../Middlewares/threadx/common/src/tx_event_flags_set.c **** /*       Copyright (c) Microsoft Corporation. All rights reserved.        */
   4:../Middlewares/threadx/common/src/tx_event_flags_set.c **** /*                                                                        */
   5:../Middlewares/threadx/common/src/tx_event_flags_set.c **** /*       This software is licensed under the Microsoft Software License   */
   6:../Middlewares/threadx/common/src/tx_event_flags_set.c **** /*       Terms for Microsoft Azure RTOS. Full text of the license can be  */
   7:../Middlewares/threadx/common/src/tx_event_flags_set.c **** /*       found in the LICENSE file at https://aka.ms/AzureRTOS_EULA       */
   8:../Middlewares/threadx/common/src/tx_event_flags_set.c **** /*       and in the root directory of this software.                      */
   9:../Middlewares/threadx/common/src/tx_event_flags_set.c **** /*                                                                        */
  10:../Middlewares/threadx/common/src/tx_event_flags_set.c **** /**************************************************************************/
  11:../Middlewares/threadx/common/src/tx_event_flags_set.c **** 
  12:../Middlewares/threadx/common/src/tx_event_flags_set.c **** 
  13:../Middlewares/threadx/common/src/tx_event_flags_set.c **** /**************************************************************************/
  14:../Middlewares/threadx/common/src/tx_event_flags_set.c **** /**************************************************************************/
  15:../Middlewares/threadx/common/src/tx_event_flags_set.c **** /**                                                                       */
  16:../Middlewares/threadx/common/src/tx_event_flags_set.c **** /** ThreadX Component                                                     */
  17:../Middlewares/threadx/common/src/tx_event_flags_set.c **** /**                                                                       */
  18:../Middlewares/threadx/common/src/tx_event_flags_set.c **** /**   Event Flags                                                         */
  19:../Middlewares/threadx/common/src/tx_event_flags_set.c **** /**                                                                       */
  20:../Middlewares/threadx/common/src/tx_event_flags_set.c **** /**************************************************************************/
  21:../Middlewares/threadx/common/src/tx_event_flags_set.c **** /**************************************************************************/
  22:../Middlewares/threadx/common/src/tx_event_flags_set.c **** 
  23:../Middlewares/threadx/common/src/tx_event_flags_set.c **** #define TX_SOURCE_CODE
  24:../Middlewares/threadx/common/src/tx_event_flags_set.c **** 
ARM GAS  /tmp/ccM0YDds.s 			page 2


  25:../Middlewares/threadx/common/src/tx_event_flags_set.c **** 
  26:../Middlewares/threadx/common/src/tx_event_flags_set.c **** /* Include necessary system files.  */
  27:../Middlewares/threadx/common/src/tx_event_flags_set.c **** 
  28:../Middlewares/threadx/common/src/tx_event_flags_set.c **** #include "tx_api.h"
  29:../Middlewares/threadx/common/src/tx_event_flags_set.c **** #include "tx_trace.h"
  30:../Middlewares/threadx/common/src/tx_event_flags_set.c **** #include "tx_thread.h"
  31:../Middlewares/threadx/common/src/tx_event_flags_set.c **** #include "tx_event_flags.h"
  32:../Middlewares/threadx/common/src/tx_event_flags_set.c **** 
  33:../Middlewares/threadx/common/src/tx_event_flags_set.c **** 
  34:../Middlewares/threadx/common/src/tx_event_flags_set.c **** /**************************************************************************/
  35:../Middlewares/threadx/common/src/tx_event_flags_set.c **** /*                                                                        */
  36:../Middlewares/threadx/common/src/tx_event_flags_set.c **** /*  FUNCTION                                               RELEASE        */
  37:../Middlewares/threadx/common/src/tx_event_flags_set.c **** /*                                                                        */
  38:../Middlewares/threadx/common/src/tx_event_flags_set.c **** /*    _tx_event_flags_set                                 PORTABLE C      */
  39:../Middlewares/threadx/common/src/tx_event_flags_set.c **** /*                                                           6.1.11       */
  40:../Middlewares/threadx/common/src/tx_event_flags_set.c **** /*  AUTHOR                                                                */
  41:../Middlewares/threadx/common/src/tx_event_flags_set.c **** /*                                                                        */
  42:../Middlewares/threadx/common/src/tx_event_flags_set.c **** /*    William E. Lamie, Microsoft Corporation                             */
  43:../Middlewares/threadx/common/src/tx_event_flags_set.c **** /*                                                                        */
  44:../Middlewares/threadx/common/src/tx_event_flags_set.c **** /*  DESCRIPTION                                                           */
  45:../Middlewares/threadx/common/src/tx_event_flags_set.c **** /*                                                                        */
  46:../Middlewares/threadx/common/src/tx_event_flags_set.c **** /*    This function sets the specified flags in the event group based on  */
  47:../Middlewares/threadx/common/src/tx_event_flags_set.c **** /*    the set option specified.  All threads suspended on the group whose */
  48:../Middlewares/threadx/common/src/tx_event_flags_set.c **** /*    get request can now be satisfied are resumed.                       */
  49:../Middlewares/threadx/common/src/tx_event_flags_set.c **** /*                                                                        */
  50:../Middlewares/threadx/common/src/tx_event_flags_set.c **** /*  INPUT                                                                 */
  51:../Middlewares/threadx/common/src/tx_event_flags_set.c **** /*                                                                        */
  52:../Middlewares/threadx/common/src/tx_event_flags_set.c **** /*    group_ptr                         Pointer to group control block    */
  53:../Middlewares/threadx/common/src/tx_event_flags_set.c **** /*    flags_to_set                      Event flags to set                */
  54:../Middlewares/threadx/common/src/tx_event_flags_set.c **** /*    set_option                        Specified either AND or OR        */
  55:../Middlewares/threadx/common/src/tx_event_flags_set.c **** /*                                        operation on the event flags    */
  56:../Middlewares/threadx/common/src/tx_event_flags_set.c **** /*                                                                        */
  57:../Middlewares/threadx/common/src/tx_event_flags_set.c **** /*  OUTPUT                                                                */
  58:../Middlewares/threadx/common/src/tx_event_flags_set.c **** /*                                                                        */
  59:../Middlewares/threadx/common/src/tx_event_flags_set.c **** /*    TX_SUCCESS                        Always returns success            */
  60:../Middlewares/threadx/common/src/tx_event_flags_set.c **** /*                                                                        */
  61:../Middlewares/threadx/common/src/tx_event_flags_set.c **** /*  CALLS                                                                 */
  62:../Middlewares/threadx/common/src/tx_event_flags_set.c **** /*                                                                        */
  63:../Middlewares/threadx/common/src/tx_event_flags_set.c **** /*    _tx_thread_system_preempt_check   Check for preemption              */
  64:../Middlewares/threadx/common/src/tx_event_flags_set.c **** /*    _tx_thread_system_resume          Resume thread service             */
  65:../Middlewares/threadx/common/src/tx_event_flags_set.c **** /*    _tx_thread_system_ni_resume       Non-interruptable resume thread   */
  66:../Middlewares/threadx/common/src/tx_event_flags_set.c **** /*                                                                        */
  67:../Middlewares/threadx/common/src/tx_event_flags_set.c **** /*  CALLED BY                                                             */
  68:../Middlewares/threadx/common/src/tx_event_flags_set.c **** /*                                                                        */
  69:../Middlewares/threadx/common/src/tx_event_flags_set.c **** /*    Application Code                                                    */
  70:../Middlewares/threadx/common/src/tx_event_flags_set.c **** /*                                                                        */
  71:../Middlewares/threadx/common/src/tx_event_flags_set.c **** /*  RELEASE HISTORY                                                       */
  72:../Middlewares/threadx/common/src/tx_event_flags_set.c **** /*                                                                        */
  73:../Middlewares/threadx/common/src/tx_event_flags_set.c **** /*    DATE              NAME                      DESCRIPTION             */
  74:../Middlewares/threadx/common/src/tx_event_flags_set.c **** /*                                                                        */
  75:../Middlewares/threadx/common/src/tx_event_flags_set.c **** /*  05-19-2020      William E. Lamie        Initial Version 6.0           */
  76:../Middlewares/threadx/common/src/tx_event_flags_set.c **** /*  09-30-2020      Yuxin Zhou              Modified comment(s),          */
  77:../Middlewares/threadx/common/src/tx_event_flags_set.c **** /*                                            resulting in version 6.1    */
  78:../Middlewares/threadx/common/src/tx_event_flags_set.c **** /*  04-25-2022      William E. Lamie        Modified comment(s), and      */
  79:../Middlewares/threadx/common/src/tx_event_flags_set.c **** /*                                            added corrected preemption  */
  80:../Middlewares/threadx/common/src/tx_event_flags_set.c **** /*                                            check logic, resulting in   */
  81:../Middlewares/threadx/common/src/tx_event_flags_set.c **** /*                                            version 6.1.11              */
ARM GAS  /tmp/ccM0YDds.s 			page 3


  82:../Middlewares/threadx/common/src/tx_event_flags_set.c **** /*                                                                        */
  83:../Middlewares/threadx/common/src/tx_event_flags_set.c **** /**************************************************************************/
  84:../Middlewares/threadx/common/src/tx_event_flags_set.c **** UINT  _tx_event_flags_set(TX_EVENT_FLAGS_GROUP *group_ptr, ULONG flags_to_set, UINT set_option)
  85:../Middlewares/threadx/common/src/tx_event_flags_set.c **** {
  35              		.loc 1 85 1 view -0
  36              		.cfi_startproc
  37              		@ args = 0, pretend = 0, frame = 8
  38              		@ frame_needed = 0, uses_anonymous_args = 0
  86:../Middlewares/threadx/common/src/tx_event_flags_set.c **** 
  87:../Middlewares/threadx/common/src/tx_event_flags_set.c **** TX_INTERRUPT_SAVE_AREA
  39              		.loc 1 87 1 view .LVU1
  88:../Middlewares/threadx/common/src/tx_event_flags_set.c **** 
  89:../Middlewares/threadx/common/src/tx_event_flags_set.c **** TX_THREAD       *thread_ptr;
  40              		.loc 1 89 1 view .LVU2
  90:../Middlewares/threadx/common/src/tx_event_flags_set.c **** TX_THREAD       *next_thread_ptr;
  41              		.loc 1 90 1 view .LVU3
  91:../Middlewares/threadx/common/src/tx_event_flags_set.c **** TX_THREAD       *next_thread;
  42              		.loc 1 91 1 view .LVU4
  92:../Middlewares/threadx/common/src/tx_event_flags_set.c **** TX_THREAD       *previous_thread;
  43              		.loc 1 92 1 view .LVU5
  93:../Middlewares/threadx/common/src/tx_event_flags_set.c **** TX_THREAD       *satisfied_list;
  44              		.loc 1 93 1 view .LVU6
  94:../Middlewares/threadx/common/src/tx_event_flags_set.c **** TX_THREAD       *last_satisfied;
  45              		.loc 1 94 1 view .LVU7
  95:../Middlewares/threadx/common/src/tx_event_flags_set.c **** TX_THREAD       *suspended_list;
  46              		.loc 1 95 1 view .LVU8
  96:../Middlewares/threadx/common/src/tx_event_flags_set.c **** UINT            suspended_count;
  47              		.loc 1 96 1 view .LVU9
  97:../Middlewares/threadx/common/src/tx_event_flags_set.c **** ULONG           current_event_flags;
  48              		.loc 1 97 1 view .LVU10
  98:../Middlewares/threadx/common/src/tx_event_flags_set.c **** ULONG           requested_flags;
  49              		.loc 1 98 1 view .LVU11
  99:../Middlewares/threadx/common/src/tx_event_flags_set.c **** ULONG           flags_satisfied;
  50              		.loc 1 99 1 view .LVU12
 100:../Middlewares/threadx/common/src/tx_event_flags_set.c **** ULONG           *suspend_info_ptr;
  51              		.loc 1 100 1 view .LVU13
 101:../Middlewares/threadx/common/src/tx_event_flags_set.c **** UINT            and_request;
  52              		.loc 1 101 1 view .LVU14
 102:../Middlewares/threadx/common/src/tx_event_flags_set.c **** UINT            get_option;
  53              		.loc 1 102 1 view .LVU15
 103:../Middlewares/threadx/common/src/tx_event_flags_set.c **** UINT            clear_request;
  54              		.loc 1 103 1 view .LVU16
 104:../Middlewares/threadx/common/src/tx_event_flags_set.c **** UINT            preempt_check;
  55              		.loc 1 104 1 view .LVU17
 105:../Middlewares/threadx/common/src/tx_event_flags_set.c **** #ifndef TX_NOT_INTERRUPTABLE
 106:../Middlewares/threadx/common/src/tx_event_flags_set.c **** UINT            interrupted_set_request;
  56              		.loc 1 106 1 view .LVU18
 107:../Middlewares/threadx/common/src/tx_event_flags_set.c **** #endif
 108:../Middlewares/threadx/common/src/tx_event_flags_set.c **** #ifndef TX_DISABLE_NOTIFY_CALLBACKS
 109:../Middlewares/threadx/common/src/tx_event_flags_set.c **** VOID            (*events_set_notify)(struct TX_EVENT_FLAGS_GROUP_STRUCT *notify_group_ptr);
  57              		.loc 1 109 1 view .LVU19
 110:../Middlewares/threadx/common/src/tx_event_flags_set.c **** #endif
 111:../Middlewares/threadx/common/src/tx_event_flags_set.c **** 
 112:../Middlewares/threadx/common/src/tx_event_flags_set.c **** 
 113:../Middlewares/threadx/common/src/tx_event_flags_set.c ****     /* Disable interrupts to remove the semaphore from the created list.  */
 114:../Middlewares/threadx/common/src/tx_event_flags_set.c ****     TX_DISABLE
  58              		.loc 1 114 5 view .LVU20
ARM GAS  /tmp/ccM0YDds.s 			page 4


  59              	.LBB39:
  60              	.LBI39:
  61              		.file 2 "../Middlewares/threadx/ports/cortex_m55/gnu/inc/tx_port.h"
   1:../Middlewares/threadx/ports/cortex_m55/gnu/inc/tx_port.h **** /**************************************************************************/
   2:../Middlewares/threadx/ports/cortex_m55/gnu/inc/tx_port.h **** /*                                                                        */
   3:../Middlewares/threadx/ports/cortex_m55/gnu/inc/tx_port.h **** /*       Copyright (c) Microsoft Corporation. All rights reserved.        */
   4:../Middlewares/threadx/ports/cortex_m55/gnu/inc/tx_port.h **** /*                                                                        */
   5:../Middlewares/threadx/ports/cortex_m55/gnu/inc/tx_port.h **** /*       This software is licensed under the Microsoft Software License   */
   6:../Middlewares/threadx/ports/cortex_m55/gnu/inc/tx_port.h **** /*       Terms for Microsoft Azure RTOS. Full text of the license can be  */
   7:../Middlewares/threadx/ports/cortex_m55/gnu/inc/tx_port.h **** /*       found in the LICENSE file at https://aka.ms/AzureRTOS_EULA       */
   8:../Middlewares/threadx/ports/cortex_m55/gnu/inc/tx_port.h **** /*       and in the root directory of this software.                      */
   9:../Middlewares/threadx/ports/cortex_m55/gnu/inc/tx_port.h **** /*                                                                        */
  10:../Middlewares/threadx/ports/cortex_m55/gnu/inc/tx_port.h **** /**************************************************************************/
  11:../Middlewares/threadx/ports/cortex_m55/gnu/inc/tx_port.h **** 
  12:../Middlewares/threadx/ports/cortex_m55/gnu/inc/tx_port.h **** 
  13:../Middlewares/threadx/ports/cortex_m55/gnu/inc/tx_port.h **** /**************************************************************************/
  14:../Middlewares/threadx/ports/cortex_m55/gnu/inc/tx_port.h **** /**************************************************************************/
  15:../Middlewares/threadx/ports/cortex_m55/gnu/inc/tx_port.h **** /**                                                                       */
  16:../Middlewares/threadx/ports/cortex_m55/gnu/inc/tx_port.h **** /** ThreadX Component                                                     */
  17:../Middlewares/threadx/ports/cortex_m55/gnu/inc/tx_port.h **** /**                                                                       */
  18:../Middlewares/threadx/ports/cortex_m55/gnu/inc/tx_port.h **** /**   Port Specific                                                       */
  19:../Middlewares/threadx/ports/cortex_m55/gnu/inc/tx_port.h **** /**                                                                       */
  20:../Middlewares/threadx/ports/cortex_m55/gnu/inc/tx_port.h **** /**************************************************************************/
  21:../Middlewares/threadx/ports/cortex_m55/gnu/inc/tx_port.h **** /**************************************************************************/
  22:../Middlewares/threadx/ports/cortex_m55/gnu/inc/tx_port.h **** 
  23:../Middlewares/threadx/ports/cortex_m55/gnu/inc/tx_port.h **** 
  24:../Middlewares/threadx/ports/cortex_m55/gnu/inc/tx_port.h **** /**************************************************************************/
  25:../Middlewares/threadx/ports/cortex_m55/gnu/inc/tx_port.h **** /*                                                                        */
  26:../Middlewares/threadx/ports/cortex_m55/gnu/inc/tx_port.h **** /*  PORT SPECIFIC C INFORMATION                            RELEASE        */
  27:../Middlewares/threadx/ports/cortex_m55/gnu/inc/tx_port.h **** /*                                                                        */
  28:../Middlewares/threadx/ports/cortex_m55/gnu/inc/tx_port.h **** /*    tx_port.h                                         Cortex-M55/GNU    */
  29:../Middlewares/threadx/ports/cortex_m55/gnu/inc/tx_port.h **** /*                                                           6.2.1        */
  30:../Middlewares/threadx/ports/cortex_m55/gnu/inc/tx_port.h **** /*                                                                        */
  31:../Middlewares/threadx/ports/cortex_m55/gnu/inc/tx_port.h **** /*  AUTHOR                                                                */
  32:../Middlewares/threadx/ports/cortex_m55/gnu/inc/tx_port.h **** /*                                                                        */
  33:../Middlewares/threadx/ports/cortex_m55/gnu/inc/tx_port.h **** /*    Scott Larson, Microsoft Corporation                                 */
  34:../Middlewares/threadx/ports/cortex_m55/gnu/inc/tx_port.h **** /*                                                                        */
  35:../Middlewares/threadx/ports/cortex_m55/gnu/inc/tx_port.h **** /*  DESCRIPTION                                                           */
  36:../Middlewares/threadx/ports/cortex_m55/gnu/inc/tx_port.h **** /*                                                                        */
  37:../Middlewares/threadx/ports/cortex_m55/gnu/inc/tx_port.h **** /*    This file contains data type definitions that make the ThreadX      */
  38:../Middlewares/threadx/ports/cortex_m55/gnu/inc/tx_port.h **** /*    real-time kernel function identically on a variety of different     */
  39:../Middlewares/threadx/ports/cortex_m55/gnu/inc/tx_port.h **** /*    processor architectures.  For example, the size or number of bits   */
  40:../Middlewares/threadx/ports/cortex_m55/gnu/inc/tx_port.h **** /*    in an "int" data type vary between microprocessor architectures and */
  41:../Middlewares/threadx/ports/cortex_m55/gnu/inc/tx_port.h **** /*    even C compilers for the same microprocessor.  ThreadX does not     */
  42:../Middlewares/threadx/ports/cortex_m55/gnu/inc/tx_port.h **** /*    directly use native C data types.  Instead, ThreadX creates its     */
  43:../Middlewares/threadx/ports/cortex_m55/gnu/inc/tx_port.h **** /*    own special types that can be mapped to actual data types by this   */
  44:../Middlewares/threadx/ports/cortex_m55/gnu/inc/tx_port.h **** /*    file to guarantee consistency in the interface and functionality.   */
  45:../Middlewares/threadx/ports/cortex_m55/gnu/inc/tx_port.h **** /*                                                                        */
  46:../Middlewares/threadx/ports/cortex_m55/gnu/inc/tx_port.h **** /*    This file replaces the previous Cortex-M55 files. It unifies        */
  47:../Middlewares/threadx/ports/cortex_m55/gnu/inc/tx_port.h **** /*    the Cortex-M55 compilers into one common file.                      */
  48:../Middlewares/threadx/ports/cortex_m55/gnu/inc/tx_port.h **** /*                                                                        */
  49:../Middlewares/threadx/ports/cortex_m55/gnu/inc/tx_port.h **** /*  RELEASE HISTORY                                                       */
  50:../Middlewares/threadx/ports/cortex_m55/gnu/inc/tx_port.h **** /*                                                                        */
  51:../Middlewares/threadx/ports/cortex_m55/gnu/inc/tx_port.h **** /*    DATE              NAME                      DESCRIPTION             */
  52:../Middlewares/threadx/ports/cortex_m55/gnu/inc/tx_port.h **** /*                                                                        */
  53:../Middlewares/threadx/ports/cortex_m55/gnu/inc/tx_port.h **** /*  09-30-2020      Scott Larson            Initial Version 6.1           */
  54:../Middlewares/threadx/ports/cortex_m55/gnu/inc/tx_port.h **** /*  03-02-2021      Scott Larson            Modified comment(s), added    */
ARM GAS  /tmp/ccM0YDds.s 			page 5


  55:../Middlewares/threadx/ports/cortex_m55/gnu/inc/tx_port.h **** /*                                            ULONG64_DEFINED,            */
  56:../Middlewares/threadx/ports/cortex_m55/gnu/inc/tx_port.h **** /*                                            resulting in version 6.1.5  */
  57:../Middlewares/threadx/ports/cortex_m55/gnu/inc/tx_port.h **** /*  06-02-2021      Scott Larson            Modified comment(s), removed  */
  58:../Middlewares/threadx/ports/cortex_m55/gnu/inc/tx_port.h **** /*                                            unneeded header file, funcs */
  59:../Middlewares/threadx/ports/cortex_m55/gnu/inc/tx_port.h **** /*                                            set_control and get_control */
  60:../Middlewares/threadx/ports/cortex_m55/gnu/inc/tx_port.h **** /*                                            changed to inline,          */
  61:../Middlewares/threadx/ports/cortex_m55/gnu/inc/tx_port.h **** /*                                            added symbol to enable      */
  62:../Middlewares/threadx/ports/cortex_m55/gnu/inc/tx_port.h **** /*                                            stack error handler,        */
  63:../Middlewares/threadx/ports/cortex_m55/gnu/inc/tx_port.h **** /*                                            resulting in version 6.1.7  */
  64:../Middlewares/threadx/ports/cortex_m55/gnu/inc/tx_port.h **** /*  10-15-2021      Scott Larson            Modified comment(s), improved */
  65:../Middlewares/threadx/ports/cortex_m55/gnu/inc/tx_port.h **** /*                                            stack check error handling, */
  66:../Middlewares/threadx/ports/cortex_m55/gnu/inc/tx_port.h **** /*                                            resulting in version 6.1.9  */
  67:../Middlewares/threadx/ports/cortex_m55/gnu/inc/tx_port.h **** /*  01-31-2022      Scott Larson            Modified comment(s), unified  */
  68:../Middlewares/threadx/ports/cortex_m55/gnu/inc/tx_port.h **** /*                                            this file across compilers, */
  69:../Middlewares/threadx/ports/cortex_m55/gnu/inc/tx_port.h **** /*                                            fixed predefined macro,     */
  70:../Middlewares/threadx/ports/cortex_m55/gnu/inc/tx_port.h **** /*                                            resulting in version 6.1.10 */
  71:../Middlewares/threadx/ports/cortex_m55/gnu/inc/tx_port.h **** /*  04-25-2022      Scott Larson            Modified comments and added   */
  72:../Middlewares/threadx/ports/cortex_m55/gnu/inc/tx_port.h **** /*                                            volatile to registers,      */
  73:../Middlewares/threadx/ports/cortex_m55/gnu/inc/tx_port.h **** /*                                            resulting in version 6.1.11 */
  74:../Middlewares/threadx/ports/cortex_m55/gnu/inc/tx_port.h **** /*  07-29-2022      Scott Larson            Modified comments and changed */
  75:../Middlewares/threadx/ports/cortex_m55/gnu/inc/tx_port.h **** /*                                            secure stack initialization */
  76:../Middlewares/threadx/ports/cortex_m55/gnu/inc/tx_port.h **** /*                                            macro to port-specific,     */
  77:../Middlewares/threadx/ports/cortex_m55/gnu/inc/tx_port.h **** /*                                            described BASEPRI usage,    */
  78:../Middlewares/threadx/ports/cortex_m55/gnu/inc/tx_port.h **** /*                                            resulting in version 6.1.12 */
  79:../Middlewares/threadx/ports/cortex_m55/gnu/inc/tx_port.h **** /*  03-08-2023      Scott Larson            Removed unneeded #include,    */
  80:../Middlewares/threadx/ports/cortex_m55/gnu/inc/tx_port.h **** /*                                            resulting in version 6.2.1  */
  81:../Middlewares/threadx/ports/cortex_m55/gnu/inc/tx_port.h **** /*                                                                        */
  82:../Middlewares/threadx/ports/cortex_m55/gnu/inc/tx_port.h **** /**************************************************************************/
  83:../Middlewares/threadx/ports/cortex_m55/gnu/inc/tx_port.h **** 
  84:../Middlewares/threadx/ports/cortex_m55/gnu/inc/tx_port.h **** #ifndef TX_PORT_H
  85:../Middlewares/threadx/ports/cortex_m55/gnu/inc/tx_port.h **** #define TX_PORT_H
  86:../Middlewares/threadx/ports/cortex_m55/gnu/inc/tx_port.h **** 
  87:../Middlewares/threadx/ports/cortex_m55/gnu/inc/tx_port.h **** /* Determine if the optional ThreadX user define file should be used.  */
  88:../Middlewares/threadx/ports/cortex_m55/gnu/inc/tx_port.h **** #ifdef TX_INCLUDE_USER_DEFINE_FILE
  89:../Middlewares/threadx/ports/cortex_m55/gnu/inc/tx_port.h **** 
  90:../Middlewares/threadx/ports/cortex_m55/gnu/inc/tx_port.h **** /* Yes, include the user defines in tx_user.h. The defines in this file may
  91:../Middlewares/threadx/ports/cortex_m55/gnu/inc/tx_port.h ****    alternately be defined on the command line.  */
  92:../Middlewares/threadx/ports/cortex_m55/gnu/inc/tx_port.h **** 
  93:../Middlewares/threadx/ports/cortex_m55/gnu/inc/tx_port.h **** #include "tx_user.h"
  94:../Middlewares/threadx/ports/cortex_m55/gnu/inc/tx_port.h **** #endif /* TX_INCLUDE_USER_DEFINE_FILE */
  95:../Middlewares/threadx/ports/cortex_m55/gnu/inc/tx_port.h **** 
  96:../Middlewares/threadx/ports/cortex_m55/gnu/inc/tx_port.h **** /* Define compiler library include files.  */
  97:../Middlewares/threadx/ports/cortex_m55/gnu/inc/tx_port.h **** 
  98:../Middlewares/threadx/ports/cortex_m55/gnu/inc/tx_port.h **** #include <stdlib.h>
  99:../Middlewares/threadx/ports/cortex_m55/gnu/inc/tx_port.h **** #include <string.h>
 100:../Middlewares/threadx/ports/cortex_m55/gnu/inc/tx_port.h **** 
 101:../Middlewares/threadx/ports/cortex_m55/gnu/inc/tx_port.h **** #ifdef __ICCARM__
 102:../Middlewares/threadx/ports/cortex_m55/gnu/inc/tx_port.h **** #include <intrinsics.h>                         /* IAR Intrinsics */
 103:../Middlewares/threadx/ports/cortex_m55/gnu/inc/tx_port.h **** #define __asm__                 __asm           /* Define to make all inline asm from each compiler
 104:../Middlewares/threadx/ports/cortex_m55/gnu/inc/tx_port.h **** #define _tx_control_get         __get_CONTROL
 105:../Middlewares/threadx/ports/cortex_m55/gnu/inc/tx_port.h **** #define _tx_control_set         __set_CONTROL
 106:../Middlewares/threadx/ports/cortex_m55/gnu/inc/tx_port.h **** #define _tx_ipsr_get            __get_IPSR
 107:../Middlewares/threadx/ports/cortex_m55/gnu/inc/tx_port.h **** #ifdef  TX_ENABLE_IAR_LIBRARY_SUPPORT
 108:../Middlewares/threadx/ports/cortex_m55/gnu/inc/tx_port.h **** #include <yvals.h>
 109:../Middlewares/threadx/ports/cortex_m55/gnu/inc/tx_port.h **** #endif /* TX_ENABLE_IAR_LIBRARY_SUPPORT */
 110:../Middlewares/threadx/ports/cortex_m55/gnu/inc/tx_port.h **** #endif /* __ICCARM__ */
 111:../Middlewares/threadx/ports/cortex_m55/gnu/inc/tx_port.h **** 
ARM GAS  /tmp/ccM0YDds.s 			page 6


 112:../Middlewares/threadx/ports/cortex_m55/gnu/inc/tx_port.h **** 
 113:../Middlewares/threadx/ports/cortex_m55/gnu/inc/tx_port.h **** /* Define ThreadX basic types for this port.  */
 114:../Middlewares/threadx/ports/cortex_m55/gnu/inc/tx_port.h **** 
 115:../Middlewares/threadx/ports/cortex_m55/gnu/inc/tx_port.h **** #define VOID                                    void
 116:../Middlewares/threadx/ports/cortex_m55/gnu/inc/tx_port.h **** typedef char                                    CHAR;
 117:../Middlewares/threadx/ports/cortex_m55/gnu/inc/tx_port.h **** typedef unsigned char                           UCHAR;
 118:../Middlewares/threadx/ports/cortex_m55/gnu/inc/tx_port.h **** typedef int                                     INT;
 119:../Middlewares/threadx/ports/cortex_m55/gnu/inc/tx_port.h **** typedef unsigned int                            UINT;
 120:../Middlewares/threadx/ports/cortex_m55/gnu/inc/tx_port.h **** typedef long                                    LONG;
 121:../Middlewares/threadx/ports/cortex_m55/gnu/inc/tx_port.h **** typedef unsigned long                           ULONG;
 122:../Middlewares/threadx/ports/cortex_m55/gnu/inc/tx_port.h **** typedef unsigned long long                      ULONG64;
 123:../Middlewares/threadx/ports/cortex_m55/gnu/inc/tx_port.h **** typedef short                                   SHORT;
 124:../Middlewares/threadx/ports/cortex_m55/gnu/inc/tx_port.h **** typedef unsigned short                          USHORT;
 125:../Middlewares/threadx/ports/cortex_m55/gnu/inc/tx_port.h **** #define ULONG64_DEFINED
 126:../Middlewares/threadx/ports/cortex_m55/gnu/inc/tx_port.h **** 
 127:../Middlewares/threadx/ports/cortex_m55/gnu/inc/tx_port.h **** /* Function prototypes for this port. */
 128:../Middlewares/threadx/ports/cortex_m55/gnu/inc/tx_port.h **** struct  TX_THREAD_STRUCT;
 129:../Middlewares/threadx/ports/cortex_m55/gnu/inc/tx_port.h **** UINT    _txe_thread_secure_stack_allocate(struct TX_THREAD_STRUCT *thread_ptr, ULONG stack_size);
 130:../Middlewares/threadx/ports/cortex_m55/gnu/inc/tx_port.h **** UINT    _txe_thread_secure_stack_free(struct TX_THREAD_STRUCT *thread_ptr);
 131:../Middlewares/threadx/ports/cortex_m55/gnu/inc/tx_port.h **** UINT    _tx_thread_secure_stack_allocate(struct TX_THREAD_STRUCT *tx_thread, ULONG stack_size);
 132:../Middlewares/threadx/ports/cortex_m55/gnu/inc/tx_port.h **** UINT    _tx_thread_secure_stack_free(struct TX_THREAD_STRUCT *tx_thread);
 133:../Middlewares/threadx/ports/cortex_m55/gnu/inc/tx_port.h **** 
 134:../Middlewares/threadx/ports/cortex_m55/gnu/inc/tx_port.h **** /* Define the system API mappings based on the error checking
 135:../Middlewares/threadx/ports/cortex_m55/gnu/inc/tx_port.h ****    selected by the user.  Note: this section is only applicable to
 136:../Middlewares/threadx/ports/cortex_m55/gnu/inc/tx_port.h ****    application source code, hence the conditional that turns off this
 137:../Middlewares/threadx/ports/cortex_m55/gnu/inc/tx_port.h ****    stuff when the include file is processed by the ThreadX source. */
 138:../Middlewares/threadx/ports/cortex_m55/gnu/inc/tx_port.h **** 
 139:../Middlewares/threadx/ports/cortex_m55/gnu/inc/tx_port.h **** #ifndef TX_SOURCE_CODE
 140:../Middlewares/threadx/ports/cortex_m55/gnu/inc/tx_port.h **** 
 141:../Middlewares/threadx/ports/cortex_m55/gnu/inc/tx_port.h **** 
 142:../Middlewares/threadx/ports/cortex_m55/gnu/inc/tx_port.h **** /* Determine if error checking is desired.  If so, map API functions
 143:../Middlewares/threadx/ports/cortex_m55/gnu/inc/tx_port.h ****    to the appropriate error checking front-ends.  Otherwise, map API
 144:../Middlewares/threadx/ports/cortex_m55/gnu/inc/tx_port.h ****    functions to the core functions that actually perform the work.
 145:../Middlewares/threadx/ports/cortex_m55/gnu/inc/tx_port.h ****    Note: error checking is enabled by default.  */
 146:../Middlewares/threadx/ports/cortex_m55/gnu/inc/tx_port.h **** 
 147:../Middlewares/threadx/ports/cortex_m55/gnu/inc/tx_port.h **** #ifdef TX_DISABLE_ERROR_CHECKING
 148:../Middlewares/threadx/ports/cortex_m55/gnu/inc/tx_port.h **** 
 149:../Middlewares/threadx/ports/cortex_m55/gnu/inc/tx_port.h **** /* Services without error checking.  */
 150:../Middlewares/threadx/ports/cortex_m55/gnu/inc/tx_port.h **** 
 151:../Middlewares/threadx/ports/cortex_m55/gnu/inc/tx_port.h **** #define tx_thread_secure_stack_allocate   _tx_thread_secure_stack_allocate
 152:../Middlewares/threadx/ports/cortex_m55/gnu/inc/tx_port.h **** #define tx_thread_secure_stack_free       _tx_thread_secure_stack_free
 153:../Middlewares/threadx/ports/cortex_m55/gnu/inc/tx_port.h **** 
 154:../Middlewares/threadx/ports/cortex_m55/gnu/inc/tx_port.h **** #else
 155:../Middlewares/threadx/ports/cortex_m55/gnu/inc/tx_port.h **** 
 156:../Middlewares/threadx/ports/cortex_m55/gnu/inc/tx_port.h **** /* Services with error checking.  */
 157:../Middlewares/threadx/ports/cortex_m55/gnu/inc/tx_port.h **** 
 158:../Middlewares/threadx/ports/cortex_m55/gnu/inc/tx_port.h **** #define tx_thread_secure_stack_allocate   _txe_thread_secure_stack_allocate
 159:../Middlewares/threadx/ports/cortex_m55/gnu/inc/tx_port.h **** #define tx_thread_secure_stack_free       _txe_thread_secure_stack_free
 160:../Middlewares/threadx/ports/cortex_m55/gnu/inc/tx_port.h **** 
 161:../Middlewares/threadx/ports/cortex_m55/gnu/inc/tx_port.h **** #endif  /* TX_DISABLE_ERROR_CHECKING */
 162:../Middlewares/threadx/ports/cortex_m55/gnu/inc/tx_port.h **** #endif  /* TX_SOURCE_CODE */
 163:../Middlewares/threadx/ports/cortex_m55/gnu/inc/tx_port.h **** 
 164:../Middlewares/threadx/ports/cortex_m55/gnu/inc/tx_port.h **** /* This port has a usage fault handler in _tx_initialize_low_level for stack exceptions.  */
 165:../Middlewares/threadx/ports/cortex_m55/gnu/inc/tx_port.h **** #define TX_PORT_THREAD_STACK_ERROR_HANDLING
 166:../Middlewares/threadx/ports/cortex_m55/gnu/inc/tx_port.h **** 
 167:../Middlewares/threadx/ports/cortex_m55/gnu/inc/tx_port.h **** /* Define the priority levels for ThreadX.  Legal values range
 168:../Middlewares/threadx/ports/cortex_m55/gnu/inc/tx_port.h ****    from 32 to 1024 and MUST be evenly divisible by 32.  */
ARM GAS  /tmp/ccM0YDds.s 			page 7


 169:../Middlewares/threadx/ports/cortex_m55/gnu/inc/tx_port.h **** 
 170:../Middlewares/threadx/ports/cortex_m55/gnu/inc/tx_port.h **** #ifndef TX_MAX_PRIORITIES
 171:../Middlewares/threadx/ports/cortex_m55/gnu/inc/tx_port.h **** #define TX_MAX_PRIORITIES                       32
 172:../Middlewares/threadx/ports/cortex_m55/gnu/inc/tx_port.h **** #endif
 173:../Middlewares/threadx/ports/cortex_m55/gnu/inc/tx_port.h **** 
 174:../Middlewares/threadx/ports/cortex_m55/gnu/inc/tx_port.h **** 
 175:../Middlewares/threadx/ports/cortex_m55/gnu/inc/tx_port.h **** /* Define the minimum stack for a ThreadX thread on this processor. If the size supplied during
 176:../Middlewares/threadx/ports/cortex_m55/gnu/inc/tx_port.h ****    thread creation is less than this value, the thread create call will return an error.  */
 177:../Middlewares/threadx/ports/cortex_m55/gnu/inc/tx_port.h **** 
 178:../Middlewares/threadx/ports/cortex_m55/gnu/inc/tx_port.h **** #ifndef TX_MINIMUM_STACK
 179:../Middlewares/threadx/ports/cortex_m55/gnu/inc/tx_port.h **** #define TX_MINIMUM_STACK                        200         /* Minimum stack size for this port  */
 180:../Middlewares/threadx/ports/cortex_m55/gnu/inc/tx_port.h **** #endif
 181:../Middlewares/threadx/ports/cortex_m55/gnu/inc/tx_port.h **** 
 182:../Middlewares/threadx/ports/cortex_m55/gnu/inc/tx_port.h **** 
 183:../Middlewares/threadx/ports/cortex_m55/gnu/inc/tx_port.h **** /* Define the system timer thread's default stack size and priority.  These are only applicable
 184:../Middlewares/threadx/ports/cortex_m55/gnu/inc/tx_port.h ****    if TX_TIMER_PROCESS_IN_ISR is not defined.  */
 185:../Middlewares/threadx/ports/cortex_m55/gnu/inc/tx_port.h **** 
 186:../Middlewares/threadx/ports/cortex_m55/gnu/inc/tx_port.h **** #ifndef TX_TIMER_THREAD_STACK_SIZE
 187:../Middlewares/threadx/ports/cortex_m55/gnu/inc/tx_port.h **** #define TX_TIMER_THREAD_STACK_SIZE              1024        /* Default timer thread stack size  */
 188:../Middlewares/threadx/ports/cortex_m55/gnu/inc/tx_port.h **** #endif
 189:../Middlewares/threadx/ports/cortex_m55/gnu/inc/tx_port.h **** 
 190:../Middlewares/threadx/ports/cortex_m55/gnu/inc/tx_port.h **** #ifndef TX_TIMER_THREAD_PRIORITY
 191:../Middlewares/threadx/ports/cortex_m55/gnu/inc/tx_port.h **** #define TX_TIMER_THREAD_PRIORITY                0           /* Default timer thread priority    */
 192:../Middlewares/threadx/ports/cortex_m55/gnu/inc/tx_port.h **** #endif
 193:../Middlewares/threadx/ports/cortex_m55/gnu/inc/tx_port.h **** 
 194:../Middlewares/threadx/ports/cortex_m55/gnu/inc/tx_port.h **** /* By default, ThreadX for Cortex-M uses the PRIMASK register to enable/disable interrupts.
 195:../Middlewares/threadx/ports/cortex_m55/gnu/inc/tx_port.h **** If using BASEPRI is desired, define the following two symbols for both c and assembly files:
 196:../Middlewares/threadx/ports/cortex_m55/gnu/inc/tx_port.h **** TX_PORT_USE_BASEPRI - This tells ThreadX to use BASEPRI instead of PRIMASK.
 197:../Middlewares/threadx/ports/cortex_m55/gnu/inc/tx_port.h **** TX_PORT_BASEPRI = (priority_mask << (8 - number_priority_bits)) - this defines the maximum priority
 198:../Middlewares/threadx/ports/cortex_m55/gnu/inc/tx_port.h **** Any interrupt with a higher priority than priority_mask will not be masked, thus the interrupt will
 199:../Middlewares/threadx/ports/cortex_m55/gnu/inc/tx_port.h **** */
 200:../Middlewares/threadx/ports/cortex_m55/gnu/inc/tx_port.h **** 
 201:../Middlewares/threadx/ports/cortex_m55/gnu/inc/tx_port.h **** /* Define various constants for the ThreadX Cortex-M port.  */
 202:../Middlewares/threadx/ports/cortex_m55/gnu/inc/tx_port.h **** 
 203:../Middlewares/threadx/ports/cortex_m55/gnu/inc/tx_port.h **** #define TX_INT_DISABLE                          1           /* Disable interrupts               */
 204:../Middlewares/threadx/ports/cortex_m55/gnu/inc/tx_port.h **** #define TX_INT_ENABLE                           0           /* Enable interrupts                */
 205:../Middlewares/threadx/ports/cortex_m55/gnu/inc/tx_port.h **** 
 206:../Middlewares/threadx/ports/cortex_m55/gnu/inc/tx_port.h **** 
 207:../Middlewares/threadx/ports/cortex_m55/gnu/inc/tx_port.h **** /* Define the clock source for trace event entry time stamp. The following two item are port specif
 208:../Middlewares/threadx/ports/cortex_m55/gnu/inc/tx_port.h ****    For example, if the time source is at the address 0x0a800024 and is 16-bits in size, the clock
 209:../Middlewares/threadx/ports/cortex_m55/gnu/inc/tx_port.h ****    source constants would be:
 210:../Middlewares/threadx/ports/cortex_m55/gnu/inc/tx_port.h **** 
 211:../Middlewares/threadx/ports/cortex_m55/gnu/inc/tx_port.h **** #define TX_TRACE_TIME_SOURCE                    *((volatile ULONG *) 0x0a800024)
 212:../Middlewares/threadx/ports/cortex_m55/gnu/inc/tx_port.h **** #define TX_TRACE_TIME_MASK                      0x0000FFFFUL
 213:../Middlewares/threadx/ports/cortex_m55/gnu/inc/tx_port.h **** 
 214:../Middlewares/threadx/ports/cortex_m55/gnu/inc/tx_port.h **** */
 215:../Middlewares/threadx/ports/cortex_m55/gnu/inc/tx_port.h **** 
 216:../Middlewares/threadx/ports/cortex_m55/gnu/inc/tx_port.h **** #ifndef TX_MISRA_ENABLE
 217:../Middlewares/threadx/ports/cortex_m55/gnu/inc/tx_port.h **** #ifndef TX_TRACE_TIME_SOURCE
 218:../Middlewares/threadx/ports/cortex_m55/gnu/inc/tx_port.h **** #define TX_TRACE_TIME_SOURCE                    *((volatile ULONG *) 0xE0001004)
 219:../Middlewares/threadx/ports/cortex_m55/gnu/inc/tx_port.h **** #endif
 220:../Middlewares/threadx/ports/cortex_m55/gnu/inc/tx_port.h **** #else
 221:../Middlewares/threadx/ports/cortex_m55/gnu/inc/tx_port.h **** ULONG   _tx_misra_time_stamp_get(VOID);
 222:../Middlewares/threadx/ports/cortex_m55/gnu/inc/tx_port.h **** #define TX_TRACE_TIME_SOURCE                    _tx_misra_time_stamp_get()
 223:../Middlewares/threadx/ports/cortex_m55/gnu/inc/tx_port.h **** #endif
 224:../Middlewares/threadx/ports/cortex_m55/gnu/inc/tx_port.h **** 
 225:../Middlewares/threadx/ports/cortex_m55/gnu/inc/tx_port.h **** #ifndef TX_TRACE_TIME_MASK
ARM GAS  /tmp/ccM0YDds.s 			page 8


 226:../Middlewares/threadx/ports/cortex_m55/gnu/inc/tx_port.h **** #define TX_TRACE_TIME_MASK                      0xFFFFFFFFUL
 227:../Middlewares/threadx/ports/cortex_m55/gnu/inc/tx_port.h **** #endif
 228:../Middlewares/threadx/ports/cortex_m55/gnu/inc/tx_port.h **** 
 229:../Middlewares/threadx/ports/cortex_m55/gnu/inc/tx_port.h **** 
 230:../Middlewares/threadx/ports/cortex_m55/gnu/inc/tx_port.h **** /* Define the port specific options for the _tx_build_options variable. This variable indicates
 231:../Middlewares/threadx/ports/cortex_m55/gnu/inc/tx_port.h ****    how the ThreadX library was built.  */
 232:../Middlewares/threadx/ports/cortex_m55/gnu/inc/tx_port.h **** 
 233:../Middlewares/threadx/ports/cortex_m55/gnu/inc/tx_port.h **** #define TX_PORT_SPECIFIC_BUILD_OPTIONS          (0)
 234:../Middlewares/threadx/ports/cortex_m55/gnu/inc/tx_port.h **** 
 235:../Middlewares/threadx/ports/cortex_m55/gnu/inc/tx_port.h **** 
 236:../Middlewares/threadx/ports/cortex_m55/gnu/inc/tx_port.h **** /* Define the in-line initialization constant so that modules with in-line
 237:../Middlewares/threadx/ports/cortex_m55/gnu/inc/tx_port.h ****    initialization capabilities can prevent their initialization from being
 238:../Middlewares/threadx/ports/cortex_m55/gnu/inc/tx_port.h ****    a function call.  */
 239:../Middlewares/threadx/ports/cortex_m55/gnu/inc/tx_port.h **** 
 240:../Middlewares/threadx/ports/cortex_m55/gnu/inc/tx_port.h **** #ifdef TX_MISRA_ENABLE
 241:../Middlewares/threadx/ports/cortex_m55/gnu/inc/tx_port.h **** #define TX_DISABLE_INLINE
 242:../Middlewares/threadx/ports/cortex_m55/gnu/inc/tx_port.h **** #else
 243:../Middlewares/threadx/ports/cortex_m55/gnu/inc/tx_port.h **** #define TX_INLINE_INITIALIZATION
 244:../Middlewares/threadx/ports/cortex_m55/gnu/inc/tx_port.h **** #endif
 245:../Middlewares/threadx/ports/cortex_m55/gnu/inc/tx_port.h **** 
 246:../Middlewares/threadx/ports/cortex_m55/gnu/inc/tx_port.h **** 
 247:../Middlewares/threadx/ports/cortex_m55/gnu/inc/tx_port.h **** /* Determine whether or not stack checking is enabled. By default, ThreadX stack checking is
 248:../Middlewares/threadx/ports/cortex_m55/gnu/inc/tx_port.h ****    disabled. When the following is defined, ThreadX thread stack checking is enabled.  If stack
 249:../Middlewares/threadx/ports/cortex_m55/gnu/inc/tx_port.h ****    checking is enabled (TX_ENABLE_STACK_CHECKING is defined), the TX_DISABLE_STACK_FILLING
 250:../Middlewares/threadx/ports/cortex_m55/gnu/inc/tx_port.h ****    define is negated, thereby forcing the stack fill which is necessary for the stack checking
 251:../Middlewares/threadx/ports/cortex_m55/gnu/inc/tx_port.h ****    logic.  */
 252:../Middlewares/threadx/ports/cortex_m55/gnu/inc/tx_port.h **** 
 253:../Middlewares/threadx/ports/cortex_m55/gnu/inc/tx_port.h **** #ifndef TX_MISRA_ENABLE
 254:../Middlewares/threadx/ports/cortex_m55/gnu/inc/tx_port.h **** #ifdef TX_ENABLE_STACK_CHECKING
 255:../Middlewares/threadx/ports/cortex_m55/gnu/inc/tx_port.h **** #undef TX_DISABLE_STACK_FILLING
 256:../Middlewares/threadx/ports/cortex_m55/gnu/inc/tx_port.h **** #endif
 257:../Middlewares/threadx/ports/cortex_m55/gnu/inc/tx_port.h **** #endif
 258:../Middlewares/threadx/ports/cortex_m55/gnu/inc/tx_port.h **** 
 259:../Middlewares/threadx/ports/cortex_m55/gnu/inc/tx_port.h **** 
 260:../Middlewares/threadx/ports/cortex_m55/gnu/inc/tx_port.h **** /* Define the TX_THREAD control block extensions for this port. The main reason
 261:../Middlewares/threadx/ports/cortex_m55/gnu/inc/tx_port.h ****    for the multiple macros is so that backward compatibility can be maintained with
 262:../Middlewares/threadx/ports/cortex_m55/gnu/inc/tx_port.h ****    existing ThreadX kernel awareness modules.  */
 263:../Middlewares/threadx/ports/cortex_m55/gnu/inc/tx_port.h **** 
 264:../Middlewares/threadx/ports/cortex_m55/gnu/inc/tx_port.h **** #define TX_THREAD_EXTENSION_0
 265:../Middlewares/threadx/ports/cortex_m55/gnu/inc/tx_port.h **** #define TX_THREAD_EXTENSION_1
 266:../Middlewares/threadx/ports/cortex_m55/gnu/inc/tx_port.h **** 
 267:../Middlewares/threadx/ports/cortex_m55/gnu/inc/tx_port.h **** #ifdef  TX_ENABLE_IAR_LIBRARY_SUPPORT
 268:../Middlewares/threadx/ports/cortex_m55/gnu/inc/tx_port.h **** /* IAR library support */
 269:../Middlewares/threadx/ports/cortex_m55/gnu/inc/tx_port.h **** #if !defined(TX_SINGLE_MODE_SECURE) && !defined(TX_SINGLE_MODE_NON_SECURE)
 270:../Middlewares/threadx/ports/cortex_m55/gnu/inc/tx_port.h **** /* ThreadX in non-secure zone with calls to secure zone. */
 271:../Middlewares/threadx/ports/cortex_m55/gnu/inc/tx_port.h **** #define TX_THREAD_EXTENSION_2           VOID    *tx_thread_secure_stack_context;    \
 272:../Middlewares/threadx/ports/cortex_m55/gnu/inc/tx_port.h ****                                         VOID    *tx_thread_iar_tls_pointer;
 273:../Middlewares/threadx/ports/cortex_m55/gnu/inc/tx_port.h **** #else
 274:../Middlewares/threadx/ports/cortex_m55/gnu/inc/tx_port.h **** /* ThreadX in only one zone. */
 275:../Middlewares/threadx/ports/cortex_m55/gnu/inc/tx_port.h **** #define TX_THREAD_EXTENSION_2           VOID    *tx_thread_iar_tls_pointer;
 276:../Middlewares/threadx/ports/cortex_m55/gnu/inc/tx_port.h **** #endif
 277:../Middlewares/threadx/ports/cortex_m55/gnu/inc/tx_port.h **** 
 278:../Middlewares/threadx/ports/cortex_m55/gnu/inc/tx_port.h **** #else
 279:../Middlewares/threadx/ports/cortex_m55/gnu/inc/tx_port.h **** /* No IAR library support */
 280:../Middlewares/threadx/ports/cortex_m55/gnu/inc/tx_port.h **** #if !defined(TX_SINGLE_MODE_SECURE) && !defined(TX_SINGLE_MODE_NON_SECURE)
 281:../Middlewares/threadx/ports/cortex_m55/gnu/inc/tx_port.h **** /* ThreadX in non-secure zone with calls to secure zone. */
 282:../Middlewares/threadx/ports/cortex_m55/gnu/inc/tx_port.h **** #define TX_THREAD_EXTENSION_2           VOID    *tx_thread_secure_stack_context;
ARM GAS  /tmp/ccM0YDds.s 			page 9


 283:../Middlewares/threadx/ports/cortex_m55/gnu/inc/tx_port.h **** #else
 284:../Middlewares/threadx/ports/cortex_m55/gnu/inc/tx_port.h **** /* ThreadX in only one zone. */
 285:../Middlewares/threadx/ports/cortex_m55/gnu/inc/tx_port.h **** #define TX_THREAD_EXTENSION_2
 286:../Middlewares/threadx/ports/cortex_m55/gnu/inc/tx_port.h **** #endif
 287:../Middlewares/threadx/ports/cortex_m55/gnu/inc/tx_port.h **** 
 288:../Middlewares/threadx/ports/cortex_m55/gnu/inc/tx_port.h **** #endif  /* TX_ENABLE_IAR_LIBRARY_SUPPORT */
 289:../Middlewares/threadx/ports/cortex_m55/gnu/inc/tx_port.h **** 
 290:../Middlewares/threadx/ports/cortex_m55/gnu/inc/tx_port.h **** #define TX_THREAD_EXTENSION_3
 291:../Middlewares/threadx/ports/cortex_m55/gnu/inc/tx_port.h **** 
 292:../Middlewares/threadx/ports/cortex_m55/gnu/inc/tx_port.h **** 
 293:../Middlewares/threadx/ports/cortex_m55/gnu/inc/tx_port.h **** /* Define the port extensions of the remaining ThreadX objects.  */
 294:../Middlewares/threadx/ports/cortex_m55/gnu/inc/tx_port.h **** 
 295:../Middlewares/threadx/ports/cortex_m55/gnu/inc/tx_port.h **** #define TX_BLOCK_POOL_EXTENSION
 296:../Middlewares/threadx/ports/cortex_m55/gnu/inc/tx_port.h **** #define TX_BYTE_POOL_EXTENSION
 297:../Middlewares/threadx/ports/cortex_m55/gnu/inc/tx_port.h **** #define TX_EVENT_FLAGS_GROUP_EXTENSION
 298:../Middlewares/threadx/ports/cortex_m55/gnu/inc/tx_port.h **** #define TX_MUTEX_EXTENSION
 299:../Middlewares/threadx/ports/cortex_m55/gnu/inc/tx_port.h **** #define TX_QUEUE_EXTENSION
 300:../Middlewares/threadx/ports/cortex_m55/gnu/inc/tx_port.h **** #define TX_SEMAPHORE_EXTENSION
 301:../Middlewares/threadx/ports/cortex_m55/gnu/inc/tx_port.h **** #define TX_TIMER_EXTENSION
 302:../Middlewares/threadx/ports/cortex_m55/gnu/inc/tx_port.h **** 
 303:../Middlewares/threadx/ports/cortex_m55/gnu/inc/tx_port.h **** 
 304:../Middlewares/threadx/ports/cortex_m55/gnu/inc/tx_port.h **** /* Define the user extension field of the thread control block.  Nothing
 305:../Middlewares/threadx/ports/cortex_m55/gnu/inc/tx_port.h ****    additional is needed for this port so it is defined as white space.  */
 306:../Middlewares/threadx/ports/cortex_m55/gnu/inc/tx_port.h **** 
 307:../Middlewares/threadx/ports/cortex_m55/gnu/inc/tx_port.h **** #ifndef TX_THREAD_USER_EXTENSION
 308:../Middlewares/threadx/ports/cortex_m55/gnu/inc/tx_port.h **** #define TX_THREAD_USER_EXTENSION
 309:../Middlewares/threadx/ports/cortex_m55/gnu/inc/tx_port.h **** #endif
 310:../Middlewares/threadx/ports/cortex_m55/gnu/inc/tx_port.h **** 
 311:../Middlewares/threadx/ports/cortex_m55/gnu/inc/tx_port.h **** 
 312:../Middlewares/threadx/ports/cortex_m55/gnu/inc/tx_port.h **** /* Define the macros for processing extensions in tx_thread_create, tx_thread_delete,
 313:../Middlewares/threadx/ports/cortex_m55/gnu/inc/tx_port.h ****    tx_thread_shell_entry, and tx_thread_terminate.  */
 314:../Middlewares/threadx/ports/cortex_m55/gnu/inc/tx_port.h **** #ifdef  TX_ENABLE_IAR_LIBRARY_SUPPORT
 315:../Middlewares/threadx/ports/cortex_m55/gnu/inc/tx_port.h **** void    *_tx_iar_create_per_thread_tls_area(void);
 316:../Middlewares/threadx/ports/cortex_m55/gnu/inc/tx_port.h **** void    _tx_iar_destroy_per_thread_tls_area(void *tls_ptr);
 317:../Middlewares/threadx/ports/cortex_m55/gnu/inc/tx_port.h **** void    __iar_Initlocks(void);
 318:../Middlewares/threadx/ports/cortex_m55/gnu/inc/tx_port.h **** #define TX_THREAD_CREATE_EXTENSION(thread_ptr)                      thread_ptr -> tx_thread_iar_tls
 319:../Middlewares/threadx/ports/cortex_m55/gnu/inc/tx_port.h **** 
 320:../Middlewares/threadx/ports/cortex_m55/gnu/inc/tx_port.h **** #if !defined(TX_SINGLE_MODE_SECURE) && !defined(TX_SINGLE_MODE_NON_SECURE)
 321:../Middlewares/threadx/ports/cortex_m55/gnu/inc/tx_port.h **** #define TX_THREAD_DELETE_EXTENSION(thread_ptr)                      do {_tx_iar_destroy_per_thread_
 322:../Middlewares/threadx/ports/cortex_m55/gnu/inc/tx_port.h ****                                                                         thread_ptr -> tx_thread_iar
 323:../Middlewares/threadx/ports/cortex_m55/gnu/inc/tx_port.h ****                                                                     if(thread_ptr -> tx_thread_secu
 324:../Middlewares/threadx/ports/cortex_m55/gnu/inc/tx_port.h **** #else
 325:../Middlewares/threadx/ports/cortex_m55/gnu/inc/tx_port.h **** #define TX_THREAD_DELETE_EXTENSION(thread_ptr)                      do {_tx_iar_destroy_per_thread_
 326:../Middlewares/threadx/ports/cortex_m55/gnu/inc/tx_port.h ****                                                                         thread_ptr -> tx_thread_iar
 327:../Middlewares/threadx/ports/cortex_m55/gnu/inc/tx_port.h **** #endif
 328:../Middlewares/threadx/ports/cortex_m55/gnu/inc/tx_port.h **** #define TX_PORT_SPECIFIC_PRE_SCHEDULER_INITIALIZATION               do {__iar_Initlocks();} while(0
 329:../Middlewares/threadx/ports/cortex_m55/gnu/inc/tx_port.h **** 
 330:../Middlewares/threadx/ports/cortex_m55/gnu/inc/tx_port.h **** #else   /* No IAR library support. */
 331:../Middlewares/threadx/ports/cortex_m55/gnu/inc/tx_port.h **** #define TX_THREAD_CREATE_EXTENSION(thread_ptr)
 332:../Middlewares/threadx/ports/cortex_m55/gnu/inc/tx_port.h **** #if !defined(TX_SINGLE_MODE_SECURE) && !defined(TX_SINGLE_MODE_NON_SECURE)
 333:../Middlewares/threadx/ports/cortex_m55/gnu/inc/tx_port.h **** #define TX_THREAD_DELETE_EXTENSION(thread_ptr)                      if(thread_ptr -> tx_thread_secu
 334:../Middlewares/threadx/ports/cortex_m55/gnu/inc/tx_port.h **** #else
 335:../Middlewares/threadx/ports/cortex_m55/gnu/inc/tx_port.h **** #define TX_THREAD_DELETE_EXTENSION(thread_ptr)
 336:../Middlewares/threadx/ports/cortex_m55/gnu/inc/tx_port.h **** #endif
 337:../Middlewares/threadx/ports/cortex_m55/gnu/inc/tx_port.h **** #endif  /* TX_ENABLE_IAR_LIBRARY_SUPPORT */
 338:../Middlewares/threadx/ports/cortex_m55/gnu/inc/tx_port.h **** 
 339:../Middlewares/threadx/ports/cortex_m55/gnu/inc/tx_port.h **** #if !defined(TX_SINGLE_MODE_SECURE) && !defined(TX_SINGLE_MODE_NON_SECURE)
ARM GAS  /tmp/ccM0YDds.s 			page 10


 340:../Middlewares/threadx/ports/cortex_m55/gnu/inc/tx_port.h **** /* Define the size of the secure stack for the timer thread and use the extension to allocate the s
 341:../Middlewares/threadx/ports/cortex_m55/gnu/inc/tx_port.h **** #define TX_TIMER_THREAD_SECURE_STACK_SIZE       256
 342:../Middlewares/threadx/ports/cortex_m55/gnu/inc/tx_port.h **** #define TX_TIMER_INITIALIZE_EXTENSION(status)   _tx_thread_secure_stack_allocate(&_tx_timer_thread,
 343:../Middlewares/threadx/ports/cortex_m55/gnu/inc/tx_port.h **** #endif
 344:../Middlewares/threadx/ports/cortex_m55/gnu/inc/tx_port.h **** 
 345:../Middlewares/threadx/ports/cortex_m55/gnu/inc/tx_port.h **** 
 346:../Middlewares/threadx/ports/cortex_m55/gnu/inc/tx_port.h **** #if defined(__ARMVFP__) || defined(__ARM_PCS_VFP) || defined(__ARM_FP) || defined(__TARGET_FPU_VFP)
 347:../Middlewares/threadx/ports/cortex_m55/gnu/inc/tx_port.h **** 
 348:../Middlewares/threadx/ports/cortex_m55/gnu/inc/tx_port.h **** #ifdef TX_MISRA_ENABLE
 349:../Middlewares/threadx/ports/cortex_m55/gnu/inc/tx_port.h **** 
 350:../Middlewares/threadx/ports/cortex_m55/gnu/inc/tx_port.h **** ULONG  _tx_misra_control_get(void);
 351:../Middlewares/threadx/ports/cortex_m55/gnu/inc/tx_port.h **** void   _tx_misra_control_set(ULONG value);
 352:../Middlewares/threadx/ports/cortex_m55/gnu/inc/tx_port.h **** ULONG  _tx_misra_fpccr_get(void);
 353:../Middlewares/threadx/ports/cortex_m55/gnu/inc/tx_port.h **** void   _tx_misra_vfp_touch(void);
 354:../Middlewares/threadx/ports/cortex_m55/gnu/inc/tx_port.h **** 
 355:../Middlewares/threadx/ports/cortex_m55/gnu/inc/tx_port.h **** #else   /* TX_MISRA_ENABLE not defined */
 356:../Middlewares/threadx/ports/cortex_m55/gnu/inc/tx_port.h **** 
 357:../Middlewares/threadx/ports/cortex_m55/gnu/inc/tx_port.h **** #ifdef __GNUC__ /* GCC and ARM Compiler 6 */
 358:../Middlewares/threadx/ports/cortex_m55/gnu/inc/tx_port.h **** 
 359:../Middlewares/threadx/ports/cortex_m55/gnu/inc/tx_port.h **** __attribute__( ( always_inline ) ) static inline ULONG _tx_control_get(void)
 360:../Middlewares/threadx/ports/cortex_m55/gnu/inc/tx_port.h **** {
 361:../Middlewares/threadx/ports/cortex_m55/gnu/inc/tx_port.h **** ULONG  control_value;
 362:../Middlewares/threadx/ports/cortex_m55/gnu/inc/tx_port.h **** 
 363:../Middlewares/threadx/ports/cortex_m55/gnu/inc/tx_port.h ****     __asm__ volatile (" MRS  %0,CONTROL ": "=r" (control_value) );
 364:../Middlewares/threadx/ports/cortex_m55/gnu/inc/tx_port.h ****     return(control_value);
 365:../Middlewares/threadx/ports/cortex_m55/gnu/inc/tx_port.h **** }
 366:../Middlewares/threadx/ports/cortex_m55/gnu/inc/tx_port.h **** 
 367:../Middlewares/threadx/ports/cortex_m55/gnu/inc/tx_port.h **** __attribute__( ( always_inline ) ) static inline void _tx_control_set(ULONG control_value)
 368:../Middlewares/threadx/ports/cortex_m55/gnu/inc/tx_port.h **** {
 369:../Middlewares/threadx/ports/cortex_m55/gnu/inc/tx_port.h ****     __asm__ volatile (" MSR  CONTROL,%0": : "r" (control_value): "memory" );
 370:../Middlewares/threadx/ports/cortex_m55/gnu/inc/tx_port.h **** }
 371:../Middlewares/threadx/ports/cortex_m55/gnu/inc/tx_port.h **** 
 372:../Middlewares/threadx/ports/cortex_m55/gnu/inc/tx_port.h **** #endif  /* __GNUC__ */
 373:../Middlewares/threadx/ports/cortex_m55/gnu/inc/tx_port.h **** 
 374:../Middlewares/threadx/ports/cortex_m55/gnu/inc/tx_port.h **** /* Touch VFP register in order to flush. Works for AC6/GCC/IAR compilers. */
 375:../Middlewares/threadx/ports/cortex_m55/gnu/inc/tx_port.h **** #define TX_VFP_TOUCH()  __asm__ volatile ("VMOV.F32 s0, s0");
 376:../Middlewares/threadx/ports/cortex_m55/gnu/inc/tx_port.h **** 
 377:../Middlewares/threadx/ports/cortex_m55/gnu/inc/tx_port.h **** #endif  /* TX_MISRA_ENABLE */
 378:../Middlewares/threadx/ports/cortex_m55/gnu/inc/tx_port.h **** 
 379:../Middlewares/threadx/ports/cortex_m55/gnu/inc/tx_port.h **** /* A completed thread falls into _thread_shell_entry and we can simply deactivate the FPU via CONTR
 380:../Middlewares/threadx/ports/cortex_m55/gnu/inc/tx_port.h ****    in order to ensure no lazy stacking will occur. */
 381:../Middlewares/threadx/ports/cortex_m55/gnu/inc/tx_port.h **** 
 382:../Middlewares/threadx/ports/cortex_m55/gnu/inc/tx_port.h **** #ifndef TX_MISRA_ENABLE
 383:../Middlewares/threadx/ports/cortex_m55/gnu/inc/tx_port.h **** 
 384:../Middlewares/threadx/ports/cortex_m55/gnu/inc/tx_port.h **** #define TX_THREAD_COMPLETED_EXTENSION(thread_ptr)   {                                              
 385:../Middlewares/threadx/ports/cortex_m55/gnu/inc/tx_port.h ****                                                     ULONG  _tx_vfp_state;                          
 386:../Middlewares/threadx/ports/cortex_m55/gnu/inc/tx_port.h ****                                                         _tx_vfp_state = _tx_control_get();         
 387:../Middlewares/threadx/ports/cortex_m55/gnu/inc/tx_port.h ****                                                         _tx_vfp_state = _tx_vfp_state & ~((ULONG) 0
 388:../Middlewares/threadx/ports/cortex_m55/gnu/inc/tx_port.h ****                                                         _tx_control_set(_tx_vfp_state);            
 389:../Middlewares/threadx/ports/cortex_m55/gnu/inc/tx_port.h ****                                                     }
 390:../Middlewares/threadx/ports/cortex_m55/gnu/inc/tx_port.h **** #else
 391:../Middlewares/threadx/ports/cortex_m55/gnu/inc/tx_port.h **** 
 392:../Middlewares/threadx/ports/cortex_m55/gnu/inc/tx_port.h **** #define TX_THREAD_COMPLETED_EXTENSION(thread_ptr)   {                                              
 393:../Middlewares/threadx/ports/cortex_m55/gnu/inc/tx_port.h ****                                                     ULONG  _tx_vfp_state;                          
 394:../Middlewares/threadx/ports/cortex_m55/gnu/inc/tx_port.h ****                                                         _tx_vfp_state = _tx_misra_control_get();   
 395:../Middlewares/threadx/ports/cortex_m55/gnu/inc/tx_port.h ****                                                         _tx_vfp_state = _tx_vfp_state & ~((ULONG) 0
 396:../Middlewares/threadx/ports/cortex_m55/gnu/inc/tx_port.h ****                                                         _tx_misra_control_set(_tx_vfp_state);      
ARM GAS  /tmp/ccM0YDds.s 			page 11


 397:../Middlewares/threadx/ports/cortex_m55/gnu/inc/tx_port.h ****                                                     }
 398:../Middlewares/threadx/ports/cortex_m55/gnu/inc/tx_port.h **** #endif
 399:../Middlewares/threadx/ports/cortex_m55/gnu/inc/tx_port.h **** 
 400:../Middlewares/threadx/ports/cortex_m55/gnu/inc/tx_port.h **** /* A thread can be terminated by another thread, so we first check if it's self-terminating and not
 401:../Middlewares/threadx/ports/cortex_m55/gnu/inc/tx_port.h ****    If so, deactivate the FPU via CONTROL.FPCA. Otherwise we are in an interrupt or another thread i
 402:../Middlewares/threadx/ports/cortex_m55/gnu/inc/tx_port.h ****    this one, so if the FPCCR.LSPACT bit is set, we need to save the CONTROL.FPCA state, touch the F
 403:../Middlewares/threadx/ports/cortex_m55/gnu/inc/tx_port.h ****    the lazy FPU save, then restore the CONTROL.FPCA state. */
 404:../Middlewares/threadx/ports/cortex_m55/gnu/inc/tx_port.h **** 
 405:../Middlewares/threadx/ports/cortex_m55/gnu/inc/tx_port.h **** #ifndef TX_MISRA_ENABLE
 406:../Middlewares/threadx/ports/cortex_m55/gnu/inc/tx_port.h **** 
 407:../Middlewares/threadx/ports/cortex_m55/gnu/inc/tx_port.h **** #define TX_THREAD_TERMINATED_EXTENSION(thread_ptr)  {                                              
 408:../Middlewares/threadx/ports/cortex_m55/gnu/inc/tx_port.h ****                                                     ULONG  _tx_system_state;                       
 409:../Middlewares/threadx/ports/cortex_m55/gnu/inc/tx_port.h ****                                                         _tx_system_state = TX_THREAD_GET_SYSTEM_STA
 410:../Middlewares/threadx/ports/cortex_m55/gnu/inc/tx_port.h ****                                                         if ((_tx_system_state == ((ULONG) 0)) && ((
 411:../Middlewares/threadx/ports/cortex_m55/gnu/inc/tx_port.h ****                                                         {                                          
 412:../Middlewares/threadx/ports/cortex_m55/gnu/inc/tx_port.h ****                                                         ULONG  _tx_vfp_state;                      
 413:../Middlewares/threadx/ports/cortex_m55/gnu/inc/tx_port.h ****                                                             _tx_vfp_state = _tx_control_get();     
 414:../Middlewares/threadx/ports/cortex_m55/gnu/inc/tx_port.h ****                                                             _tx_vfp_state = _tx_vfp_state & ~((ULON
 415:../Middlewares/threadx/ports/cortex_m55/gnu/inc/tx_port.h ****                                                             _tx_control_set(_tx_vfp_state);        
 416:../Middlewares/threadx/ports/cortex_m55/gnu/inc/tx_port.h ****                                                         }                                          
 417:../Middlewares/threadx/ports/cortex_m55/gnu/inc/tx_port.h ****                                                         else                                       
 418:../Middlewares/threadx/ports/cortex_m55/gnu/inc/tx_port.h ****                                                         {                                          
 419:../Middlewares/threadx/ports/cortex_m55/gnu/inc/tx_port.h ****                                                         ULONG  _tx_fpccr;                          
 420:../Middlewares/threadx/ports/cortex_m55/gnu/inc/tx_port.h ****                                                             _tx_fpccr = *((volatile ULONG *) 0xE000
 421:../Middlewares/threadx/ports/cortex_m55/gnu/inc/tx_port.h ****                                                             _tx_fpccr = _tx_fpccr & ((ULONG) 0x01);
 422:../Middlewares/threadx/ports/cortex_m55/gnu/inc/tx_port.h ****                                                             if (_tx_fpccr == ((ULONG) 0x01))       
 423:../Middlewares/threadx/ports/cortex_m55/gnu/inc/tx_port.h ****                                                             {                                      
 424:../Middlewares/threadx/ports/cortex_m55/gnu/inc/tx_port.h ****                                                             ULONG _tx_vfp_state;                   
 425:../Middlewares/threadx/ports/cortex_m55/gnu/inc/tx_port.h ****                                                                 _tx_vfp_state = _tx_control_get(); 
 426:../Middlewares/threadx/ports/cortex_m55/gnu/inc/tx_port.h ****                                                                 _tx_vfp_state = _tx_vfp_state & ((U
 427:../Middlewares/threadx/ports/cortex_m55/gnu/inc/tx_port.h ****                                                                 TX_VFP_TOUCH();                    
 428:../Middlewares/threadx/ports/cortex_m55/gnu/inc/tx_port.h ****                                                                 if (_tx_vfp_state == ((ULONG) 0))  
 429:../Middlewares/threadx/ports/cortex_m55/gnu/inc/tx_port.h ****                                                                 {                                  
 430:../Middlewares/threadx/ports/cortex_m55/gnu/inc/tx_port.h ****                                                                     _tx_vfp_state = _tx_control_get
 431:../Middlewares/threadx/ports/cortex_m55/gnu/inc/tx_port.h ****                                                                     _tx_vfp_state = _tx_vfp_state &
 432:../Middlewares/threadx/ports/cortex_m55/gnu/inc/tx_port.h ****                                                                     _tx_control_set(_tx_vfp_state);
 433:../Middlewares/threadx/ports/cortex_m55/gnu/inc/tx_port.h ****                                                                 }                                  
 434:../Middlewares/threadx/ports/cortex_m55/gnu/inc/tx_port.h ****                                                             }                                      
 435:../Middlewares/threadx/ports/cortex_m55/gnu/inc/tx_port.h ****                                                         }                                          
 436:../Middlewares/threadx/ports/cortex_m55/gnu/inc/tx_port.h ****                                                     }
 437:../Middlewares/threadx/ports/cortex_m55/gnu/inc/tx_port.h **** #else
 438:../Middlewares/threadx/ports/cortex_m55/gnu/inc/tx_port.h **** 
 439:../Middlewares/threadx/ports/cortex_m55/gnu/inc/tx_port.h **** #define TX_THREAD_TERMINATED_EXTENSION(thread_ptr)  {                                              
 440:../Middlewares/threadx/ports/cortex_m55/gnu/inc/tx_port.h ****                                                     ULONG  _tx_system_state;                       
 441:../Middlewares/threadx/ports/cortex_m55/gnu/inc/tx_port.h ****                                                         _tx_system_state = TX_THREAD_GET_SYSTEM_STA
 442:../Middlewares/threadx/ports/cortex_m55/gnu/inc/tx_port.h ****                                                         if ((_tx_system_state == ((ULONG) 0)) && ((
 443:../Middlewares/threadx/ports/cortex_m55/gnu/inc/tx_port.h ****                                                         {                                          
 444:../Middlewares/threadx/ports/cortex_m55/gnu/inc/tx_port.h ****                                                         ULONG  _tx_vfp_state;                      
 445:../Middlewares/threadx/ports/cortex_m55/gnu/inc/tx_port.h ****                                                             _tx_vfp_state = _tx_misra_control_get()
 446:../Middlewares/threadx/ports/cortex_m55/gnu/inc/tx_port.h ****                                                             _tx_vfp_state = _tx_vfp_state & ~((ULON
 447:../Middlewares/threadx/ports/cortex_m55/gnu/inc/tx_port.h ****                                                             _tx_misra_control_set(_tx_vfp_state);  
 448:../Middlewares/threadx/ports/cortex_m55/gnu/inc/tx_port.h ****                                                         }                                          
 449:../Middlewares/threadx/ports/cortex_m55/gnu/inc/tx_port.h ****                                                         else                                       
 450:../Middlewares/threadx/ports/cortex_m55/gnu/inc/tx_port.h ****                                                         {                                          
 451:../Middlewares/threadx/ports/cortex_m55/gnu/inc/tx_port.h ****                                                         ULONG  _tx_fpccr;                          
 452:../Middlewares/threadx/ports/cortex_m55/gnu/inc/tx_port.h ****                                                             _tx_fpccr = _tx_misra_fpccr_get();     
 453:../Middlewares/threadx/ports/cortex_m55/gnu/inc/tx_port.h ****                                                             _tx_fpccr = _tx_fpccr & ((ULONG) 0x01);
ARM GAS  /tmp/ccM0YDds.s 			page 12


 454:../Middlewares/threadx/ports/cortex_m55/gnu/inc/tx_port.h ****                                                             if (_tx_fpccr == ((ULONG) 0x01))       
 455:../Middlewares/threadx/ports/cortex_m55/gnu/inc/tx_port.h ****                                                             {                                      
 456:../Middlewares/threadx/ports/cortex_m55/gnu/inc/tx_port.h ****                                                             ULONG _tx_vfp_state;                   
 457:../Middlewares/threadx/ports/cortex_m55/gnu/inc/tx_port.h ****                                                                 _tx_vfp_state = _tx_misra_control_g
 458:../Middlewares/threadx/ports/cortex_m55/gnu/inc/tx_port.h ****                                                                 _tx_vfp_state = _tx_vfp_state & ((U
 459:../Middlewares/threadx/ports/cortex_m55/gnu/inc/tx_port.h ****                                                                 _tx_misra_vfp_touch();             
 460:../Middlewares/threadx/ports/cortex_m55/gnu/inc/tx_port.h ****                                                                 if (_tx_vfp_state == ((ULONG) 0))  
 461:../Middlewares/threadx/ports/cortex_m55/gnu/inc/tx_port.h ****                                                                 {                                  
 462:../Middlewares/threadx/ports/cortex_m55/gnu/inc/tx_port.h ****                                                                     _tx_vfp_state = _tx_misra_contr
 463:../Middlewares/threadx/ports/cortex_m55/gnu/inc/tx_port.h ****                                                                     _tx_vfp_state = _tx_vfp_state &
 464:../Middlewares/threadx/ports/cortex_m55/gnu/inc/tx_port.h ****                                                                     _tx_misra_control_set(_tx_vfp_s
 465:../Middlewares/threadx/ports/cortex_m55/gnu/inc/tx_port.h ****                                                                 }                                  
 466:../Middlewares/threadx/ports/cortex_m55/gnu/inc/tx_port.h ****                                                             }                                      
 467:../Middlewares/threadx/ports/cortex_m55/gnu/inc/tx_port.h ****                                                         }                                          
 468:../Middlewares/threadx/ports/cortex_m55/gnu/inc/tx_port.h ****                                                     }
 469:../Middlewares/threadx/ports/cortex_m55/gnu/inc/tx_port.h **** #endif
 470:../Middlewares/threadx/ports/cortex_m55/gnu/inc/tx_port.h **** 
 471:../Middlewares/threadx/ports/cortex_m55/gnu/inc/tx_port.h **** #else   /* No VFP in use */
 472:../Middlewares/threadx/ports/cortex_m55/gnu/inc/tx_port.h **** 
 473:../Middlewares/threadx/ports/cortex_m55/gnu/inc/tx_port.h **** #define TX_THREAD_COMPLETED_EXTENSION(thread_ptr)
 474:../Middlewares/threadx/ports/cortex_m55/gnu/inc/tx_port.h **** #define TX_THREAD_TERMINATED_EXTENSION(thread_ptr)
 475:../Middlewares/threadx/ports/cortex_m55/gnu/inc/tx_port.h **** 
 476:../Middlewares/threadx/ports/cortex_m55/gnu/inc/tx_port.h **** #endif  /* defined(__ARMVFP__) || defined(__ARM_PCS_VFP) || defined(__ARM_FP) || defined(__TARGET_F
 477:../Middlewares/threadx/ports/cortex_m55/gnu/inc/tx_port.h **** 
 478:../Middlewares/threadx/ports/cortex_m55/gnu/inc/tx_port.h **** 
 479:../Middlewares/threadx/ports/cortex_m55/gnu/inc/tx_port.h **** /* Define the ThreadX object creation extensions for the remaining objects.  */
 480:../Middlewares/threadx/ports/cortex_m55/gnu/inc/tx_port.h **** 
 481:../Middlewares/threadx/ports/cortex_m55/gnu/inc/tx_port.h **** #define TX_BLOCK_POOL_CREATE_EXTENSION(pool_ptr)
 482:../Middlewares/threadx/ports/cortex_m55/gnu/inc/tx_port.h **** #define TX_BYTE_POOL_CREATE_EXTENSION(pool_ptr)
 483:../Middlewares/threadx/ports/cortex_m55/gnu/inc/tx_port.h **** #define TX_EVENT_FLAGS_GROUP_CREATE_EXTENSION(group_ptr)
 484:../Middlewares/threadx/ports/cortex_m55/gnu/inc/tx_port.h **** #define TX_MUTEX_CREATE_EXTENSION(mutex_ptr)
 485:../Middlewares/threadx/ports/cortex_m55/gnu/inc/tx_port.h **** #define TX_QUEUE_CREATE_EXTENSION(queue_ptr)
 486:../Middlewares/threadx/ports/cortex_m55/gnu/inc/tx_port.h **** #define TX_SEMAPHORE_CREATE_EXTENSION(semaphore_ptr)
 487:../Middlewares/threadx/ports/cortex_m55/gnu/inc/tx_port.h **** #define TX_TIMER_CREATE_EXTENSION(timer_ptr)
 488:../Middlewares/threadx/ports/cortex_m55/gnu/inc/tx_port.h **** 
 489:../Middlewares/threadx/ports/cortex_m55/gnu/inc/tx_port.h **** 
 490:../Middlewares/threadx/ports/cortex_m55/gnu/inc/tx_port.h **** /* Define the ThreadX object deletion extensions for the remaining objects.  */
 491:../Middlewares/threadx/ports/cortex_m55/gnu/inc/tx_port.h **** 
 492:../Middlewares/threadx/ports/cortex_m55/gnu/inc/tx_port.h **** #define TX_BLOCK_POOL_DELETE_EXTENSION(pool_ptr)
 493:../Middlewares/threadx/ports/cortex_m55/gnu/inc/tx_port.h **** #define TX_BYTE_POOL_DELETE_EXTENSION(pool_ptr)
 494:../Middlewares/threadx/ports/cortex_m55/gnu/inc/tx_port.h **** #define TX_EVENT_FLAGS_GROUP_DELETE_EXTENSION(group_ptr)
 495:../Middlewares/threadx/ports/cortex_m55/gnu/inc/tx_port.h **** #define TX_MUTEX_DELETE_EXTENSION(mutex_ptr)
 496:../Middlewares/threadx/ports/cortex_m55/gnu/inc/tx_port.h **** #define TX_QUEUE_DELETE_EXTENSION(queue_ptr)
 497:../Middlewares/threadx/ports/cortex_m55/gnu/inc/tx_port.h **** #define TX_SEMAPHORE_DELETE_EXTENSION(semaphore_ptr)
 498:../Middlewares/threadx/ports/cortex_m55/gnu/inc/tx_port.h **** #define TX_TIMER_DELETE_EXTENSION(timer_ptr)
 499:../Middlewares/threadx/ports/cortex_m55/gnu/inc/tx_port.h **** 
 500:../Middlewares/threadx/ports/cortex_m55/gnu/inc/tx_port.h **** 
 501:../Middlewares/threadx/ports/cortex_m55/gnu/inc/tx_port.h **** /* Define the get system state macro.  */
 502:../Middlewares/threadx/ports/cortex_m55/gnu/inc/tx_port.h **** 
 503:../Middlewares/threadx/ports/cortex_m55/gnu/inc/tx_port.h **** #ifndef TX_THREAD_GET_SYSTEM_STATE
 504:../Middlewares/threadx/ports/cortex_m55/gnu/inc/tx_port.h **** #ifndef TX_MISRA_ENABLE
 505:../Middlewares/threadx/ports/cortex_m55/gnu/inc/tx_port.h **** 
 506:../Middlewares/threadx/ports/cortex_m55/gnu/inc/tx_port.h **** #if defined(__GNUC__) /* GCC and AC6 */
 507:../Middlewares/threadx/ports/cortex_m55/gnu/inc/tx_port.h **** __attribute__( ( always_inline ) ) static inline UINT _tx_ipsr_get(void)
 508:../Middlewares/threadx/ports/cortex_m55/gnu/inc/tx_port.h **** {
 509:../Middlewares/threadx/ports/cortex_m55/gnu/inc/tx_port.h **** UINT ipsr_value;
 510:../Middlewares/threadx/ports/cortex_m55/gnu/inc/tx_port.h ****     __asm__ volatile (" MRS  %0,IPSR ": "=r" (ipsr_value) );
ARM GAS  /tmp/ccM0YDds.s 			page 13


 511:../Middlewares/threadx/ports/cortex_m55/gnu/inc/tx_port.h ****     return(ipsr_value);
 512:../Middlewares/threadx/ports/cortex_m55/gnu/inc/tx_port.h **** }
 513:../Middlewares/threadx/ports/cortex_m55/gnu/inc/tx_port.h **** #endif  /* GCC and AC6 IPSR_get function. */
 514:../Middlewares/threadx/ports/cortex_m55/gnu/inc/tx_port.h **** 
 515:../Middlewares/threadx/ports/cortex_m55/gnu/inc/tx_port.h **** #define TX_THREAD_GET_SYSTEM_STATE()        (_tx_thread_system_state | _tx_ipsr_get())
 516:../Middlewares/threadx/ports/cortex_m55/gnu/inc/tx_port.h **** 
 517:../Middlewares/threadx/ports/cortex_m55/gnu/inc/tx_port.h **** #else   /* TX_MISRA_ENABLE is defined, use MISRA function. */
 518:../Middlewares/threadx/ports/cortex_m55/gnu/inc/tx_port.h **** ULONG   _tx_misra_ipsr_get(VOID);
 519:../Middlewares/threadx/ports/cortex_m55/gnu/inc/tx_port.h **** #define TX_THREAD_GET_SYSTEM_STATE()        (_tx_thread_system_state | _tx_misra_ipsr_get())
 520:../Middlewares/threadx/ports/cortex_m55/gnu/inc/tx_port.h **** #endif  /* TX_MISRA_ENABLE */
 521:../Middlewares/threadx/ports/cortex_m55/gnu/inc/tx_port.h **** #endif  /* TX_THREAD_GET_SYSTEM_STATE */
 522:../Middlewares/threadx/ports/cortex_m55/gnu/inc/tx_port.h **** 
 523:../Middlewares/threadx/ports/cortex_m55/gnu/inc/tx_port.h **** 
 524:../Middlewares/threadx/ports/cortex_m55/gnu/inc/tx_port.h **** /* Define the check for whether or not to call the _tx_thread_system_return function.  A non-zero v
 525:../Middlewares/threadx/ports/cortex_m55/gnu/inc/tx_port.h ****    indicates that _tx_thread_system_return should not be called. This overrides the definition in t
 526:../Middlewares/threadx/ports/cortex_m55/gnu/inc/tx_port.h ****    for Cortex-M since so we don't waste time checking the _tx_thread_system_state variable that is 
 527:../Middlewares/threadx/ports/cortex_m55/gnu/inc/tx_port.h ****    zero after initialization for Cortex-M ports. */
 528:../Middlewares/threadx/ports/cortex_m55/gnu/inc/tx_port.h **** 
 529:../Middlewares/threadx/ports/cortex_m55/gnu/inc/tx_port.h **** #ifndef TX_THREAD_SYSTEM_RETURN_CHECK
 530:../Middlewares/threadx/ports/cortex_m55/gnu/inc/tx_port.h **** #define TX_THREAD_SYSTEM_RETURN_CHECK(c)    (c) = ((ULONG) _tx_thread_preempt_disable);
 531:../Middlewares/threadx/ports/cortex_m55/gnu/inc/tx_port.h **** #endif
 532:../Middlewares/threadx/ports/cortex_m55/gnu/inc/tx_port.h **** 
 533:../Middlewares/threadx/ports/cortex_m55/gnu/inc/tx_port.h **** #if !defined(TX_SINGLE_MODE_SECURE) && !defined(TX_SINGLE_MODE_NON_SECURE)
 534:../Middlewares/threadx/ports/cortex_m55/gnu/inc/tx_port.h **** /* Initialize secure stacks for threads calling secure functions. */
 535:../Middlewares/threadx/ports/cortex_m55/gnu/inc/tx_port.h **** extern void    _tx_thread_secure_stack_initialize(void);
 536:../Middlewares/threadx/ports/cortex_m55/gnu/inc/tx_port.h **** #define TX_PORT_SPECIFIC_PRE_INITIALIZATION             _tx_thread_secure_stack_initialize();
 537:../Middlewares/threadx/ports/cortex_m55/gnu/inc/tx_port.h **** #endif
 538:../Middlewares/threadx/ports/cortex_m55/gnu/inc/tx_port.h **** 
 539:../Middlewares/threadx/ports/cortex_m55/gnu/inc/tx_port.h **** /* Define the macro to ensure _tx_thread_preempt_disable is set early in initialization in order to
 540:../Middlewares/threadx/ports/cortex_m55/gnu/inc/tx_port.h ****    prevent early scheduling on Cortex-M parts.  */
 541:../Middlewares/threadx/ports/cortex_m55/gnu/inc/tx_port.h **** 
 542:../Middlewares/threadx/ports/cortex_m55/gnu/inc/tx_port.h **** #define TX_PORT_SPECIFIC_POST_INITIALIZATION    _tx_thread_preempt_disable++;
 543:../Middlewares/threadx/ports/cortex_m55/gnu/inc/tx_port.h **** 
 544:../Middlewares/threadx/ports/cortex_m55/gnu/inc/tx_port.h **** 
 545:../Middlewares/threadx/ports/cortex_m55/gnu/inc/tx_port.h **** 
 546:../Middlewares/threadx/ports/cortex_m55/gnu/inc/tx_port.h **** 
 547:../Middlewares/threadx/ports/cortex_m55/gnu/inc/tx_port.h **** #ifndef TX_DISABLE_INLINE
 548:../Middlewares/threadx/ports/cortex_m55/gnu/inc/tx_port.h **** 
 549:../Middlewares/threadx/ports/cortex_m55/gnu/inc/tx_port.h **** /* Define the TX_LOWEST_SET_BIT_CALCULATE macro for each compiler. */
 550:../Middlewares/threadx/ports/cortex_m55/gnu/inc/tx_port.h **** #ifdef __ICCARM__       /* IAR Compiler */
 551:../Middlewares/threadx/ports/cortex_m55/gnu/inc/tx_port.h **** #define TX_LOWEST_SET_BIT_CALCULATE(m, b)       (b) = (UINT) __CLZ(__RBIT((m)));
 552:../Middlewares/threadx/ports/cortex_m55/gnu/inc/tx_port.h **** #elif defined(__GNUC__) /* GCC and AC6 Compiler */
 553:../Middlewares/threadx/ports/cortex_m55/gnu/inc/tx_port.h **** #define TX_LOWEST_SET_BIT_CALCULATE(m, b)       __asm__ volatile (" RBIT %0,%1 ": "=r" (m) : "r" (m
 554:../Middlewares/threadx/ports/cortex_m55/gnu/inc/tx_port.h ****                                                 __asm__ volatile (" CLZ  %0,%1 ": "=r" (b) : "r" (m
 555:../Middlewares/threadx/ports/cortex_m55/gnu/inc/tx_port.h **** #else
 556:../Middlewares/threadx/ports/cortex_m55/gnu/inc/tx_port.h **** #error "Compiler not supported."
 557:../Middlewares/threadx/ports/cortex_m55/gnu/inc/tx_port.h **** #endif
 558:../Middlewares/threadx/ports/cortex_m55/gnu/inc/tx_port.h **** 
 559:../Middlewares/threadx/ports/cortex_m55/gnu/inc/tx_port.h **** 
 560:../Middlewares/threadx/ports/cortex_m55/gnu/inc/tx_port.h **** 
 561:../Middlewares/threadx/ports/cortex_m55/gnu/inc/tx_port.h **** /* Define the interrupt disable/restore macros. */
 562:../Middlewares/threadx/ports/cortex_m55/gnu/inc/tx_port.h **** 
 563:../Middlewares/threadx/ports/cortex_m55/gnu/inc/tx_port.h **** __attribute__( ( always_inline ) ) static inline UINT __get_interrupt_posture(void)
 564:../Middlewares/threadx/ports/cortex_m55/gnu/inc/tx_port.h **** {
 565:../Middlewares/threadx/ports/cortex_m55/gnu/inc/tx_port.h **** UINT posture;
 566:../Middlewares/threadx/ports/cortex_m55/gnu/inc/tx_port.h **** #ifdef TX_PORT_USE_BASEPRI
 567:../Middlewares/threadx/ports/cortex_m55/gnu/inc/tx_port.h ****     __asm__ volatile ("MRS  %0, BASEPRI ": "=r" (posture));
ARM GAS  /tmp/ccM0YDds.s 			page 14


 568:../Middlewares/threadx/ports/cortex_m55/gnu/inc/tx_port.h **** #else
 569:../Middlewares/threadx/ports/cortex_m55/gnu/inc/tx_port.h ****     __asm__ volatile ("MRS  %0, PRIMASK ": "=r" (posture));
 570:../Middlewares/threadx/ports/cortex_m55/gnu/inc/tx_port.h **** #endif
 571:../Middlewares/threadx/ports/cortex_m55/gnu/inc/tx_port.h ****     return(posture);
 572:../Middlewares/threadx/ports/cortex_m55/gnu/inc/tx_port.h **** }
 573:../Middlewares/threadx/ports/cortex_m55/gnu/inc/tx_port.h **** 
 574:../Middlewares/threadx/ports/cortex_m55/gnu/inc/tx_port.h **** #ifdef TX_PORT_USE_BASEPRI
 575:../Middlewares/threadx/ports/cortex_m55/gnu/inc/tx_port.h **** __attribute__( ( always_inline ) ) static inline void __set_basepri_value(UINT basepri_value)
 576:../Middlewares/threadx/ports/cortex_m55/gnu/inc/tx_port.h **** {
 577:../Middlewares/threadx/ports/cortex_m55/gnu/inc/tx_port.h ****     __asm__ volatile ("MSR  BASEPRI,%0 ": : "r" (basepri_value));
 578:../Middlewares/threadx/ports/cortex_m55/gnu/inc/tx_port.h **** }
 579:../Middlewares/threadx/ports/cortex_m55/gnu/inc/tx_port.h **** #else
 580:../Middlewares/threadx/ports/cortex_m55/gnu/inc/tx_port.h **** __attribute__( ( always_inline ) ) static inline void __enable_interrupts(void)
 581:../Middlewares/threadx/ports/cortex_m55/gnu/inc/tx_port.h **** {
 582:../Middlewares/threadx/ports/cortex_m55/gnu/inc/tx_port.h ****     __asm__ volatile ("CPSIE  i": : : "memory");
 583:../Middlewares/threadx/ports/cortex_m55/gnu/inc/tx_port.h **** }
 584:../Middlewares/threadx/ports/cortex_m55/gnu/inc/tx_port.h **** #endif
 585:../Middlewares/threadx/ports/cortex_m55/gnu/inc/tx_port.h **** 
 586:../Middlewares/threadx/ports/cortex_m55/gnu/inc/tx_port.h **** __attribute__( ( always_inline ) ) static inline void __restore_interrupt(UINT int_posture)
 587:../Middlewares/threadx/ports/cortex_m55/gnu/inc/tx_port.h **** {
 588:../Middlewares/threadx/ports/cortex_m55/gnu/inc/tx_port.h **** #ifdef TX_PORT_USE_BASEPRI
 589:../Middlewares/threadx/ports/cortex_m55/gnu/inc/tx_port.h ****     __set_basepri_value(int_posture);
 590:../Middlewares/threadx/ports/cortex_m55/gnu/inc/tx_port.h **** #else
 591:../Middlewares/threadx/ports/cortex_m55/gnu/inc/tx_port.h ****     __asm__ volatile ("MSR  PRIMASK,%0": : "r" (int_posture): "memory");
 592:../Middlewares/threadx/ports/cortex_m55/gnu/inc/tx_port.h **** #endif
 593:../Middlewares/threadx/ports/cortex_m55/gnu/inc/tx_port.h **** }
 594:../Middlewares/threadx/ports/cortex_m55/gnu/inc/tx_port.h **** 
 595:../Middlewares/threadx/ports/cortex_m55/gnu/inc/tx_port.h **** __attribute__( ( always_inline ) ) static inline UINT __disable_interrupts(void)
  62              		.loc 2 595 55 view .LVU21
  63              	.LBB40:
 596:../Middlewares/threadx/ports/cortex_m55/gnu/inc/tx_port.h **** {
 597:../Middlewares/threadx/ports/cortex_m55/gnu/inc/tx_port.h **** UINT int_posture;
  64              		.loc 2 597 1 view .LVU22
 598:../Middlewares/threadx/ports/cortex_m55/gnu/inc/tx_port.h **** 
 599:../Middlewares/threadx/ports/cortex_m55/gnu/inc/tx_port.h ****     int_posture = __get_interrupt_posture();
  65              		.loc 2 599 5 view .LVU23
  66              	.LBB41:
  67              	.LBI41:
 563:../Middlewares/threadx/ports/cortex_m55/gnu/inc/tx_port.h **** {
  68              		.loc 2 563 55 view .LVU24
  69              	.LBB42:
 565:../Middlewares/threadx/ports/cortex_m55/gnu/inc/tx_port.h **** #ifdef TX_PORT_USE_BASEPRI
  70              		.loc 2 565 1 view .LVU25
 569:../Middlewares/threadx/ports/cortex_m55/gnu/inc/tx_port.h **** #endif
  71              		.loc 2 569 5 view .LVU26
  72              	.LBE42:
  73              	.LBE41:
  74              	.LBE40:
  75              	.LBE39:
  85:../Middlewares/threadx/common/src/tx_event_flags_set.c **** 
  76              		.loc 1 85 1 is_stmt 0 view .LVU27
  77 0000 2DE9F74F 		push	{r0, r1, r2, r4, r5, r6, r7, r8, r9, r10, fp, lr}
  78              		.cfi_def_cfa_offset 48
  79              		.cfi_offset 4, -36
  80              		.cfi_offset 5, -32
  81              		.cfi_offset 6, -28
  82              		.cfi_offset 7, -24
ARM GAS  /tmp/ccM0YDds.s 			page 15


  83              		.cfi_offset 8, -20
  84              		.cfi_offset 9, -16
  85              		.cfi_offset 10, -12
  86              		.cfi_offset 11, -8
  87              		.cfi_offset 14, -4
  85:../Middlewares/threadx/common/src/tx_event_flags_set.c **** 
  88              		.loc 1 85 1 view .LVU28
  89 0004 0446     		mov	r4, r0
  90 0006 0F46     		mov	r7, r1
  91 0008 9046     		mov	r8, r2
  92              	.LBB46:
  93              	.LBB45:
  94              	.LBB44:
  95              	.LBB43:
 569:../Middlewares/threadx/ports/cortex_m55/gnu/inc/tx_port.h **** #endif
  96              		.loc 2 569 5 view .LVU29
  97              		.syntax unified
  98              	@ 569 "../Middlewares/threadx/ports/cortex_m55/gnu/inc/tx_port.h" 1
  99 000a EFF31085 		MRS  r5, PRIMASK 
 100              	@ 0 "" 2
 101              	.LVL1:
 571:../Middlewares/threadx/ports/cortex_m55/gnu/inc/tx_port.h **** }
 102              		.loc 2 571 5 is_stmt 1 view .LVU30
 571:../Middlewares/threadx/ports/cortex_m55/gnu/inc/tx_port.h **** }
 103              		.loc 2 571 5 is_stmt 0 view .LVU31
 104              		.thumb
 105              		.syntax unified
 106              	.LBE43:
 107              	.LBE44:
 600:../Middlewares/threadx/ports/cortex_m55/gnu/inc/tx_port.h **** 
 601:../Middlewares/threadx/ports/cortex_m55/gnu/inc/tx_port.h **** #ifdef TX_PORT_USE_BASEPRI
 602:../Middlewares/threadx/ports/cortex_m55/gnu/inc/tx_port.h ****     __set_basepri_value(TX_PORT_BASEPRI);
 603:../Middlewares/threadx/ports/cortex_m55/gnu/inc/tx_port.h **** #else
 604:../Middlewares/threadx/ports/cortex_m55/gnu/inc/tx_port.h ****     __asm__ volatile ("CPSID i" : : : "memory");
 108              		.loc 2 604 5 is_stmt 1 view .LVU32
 109              		.syntax unified
 110              	@ 604 "../Middlewares/threadx/ports/cortex_m55/gnu/inc/tx_port.h" 1
 111 000e 72B6     		CPSID i
 112              	@ 0 "" 2
 605:../Middlewares/threadx/ports/cortex_m55/gnu/inc/tx_port.h **** #endif
 606:../Middlewares/threadx/ports/cortex_m55/gnu/inc/tx_port.h ****     return(int_posture);
 113              		.loc 2 606 5 view .LVU33
 114              	.LVL2:
 115              		.loc 2 606 5 is_stmt 0 view .LVU34
 116              		.thumb
 117              		.syntax unified
 118              	.LBE45:
 119              	.LBE46:
 120              	.LBB47:
 115:../Middlewares/threadx/common/src/tx_event_flags_set.c **** 
 116:../Middlewares/threadx/common/src/tx_event_flags_set.c **** #ifdef TX_EVENT_FLAGS_ENABLE_PERFORMANCE_INFO
 117:../Middlewares/threadx/common/src/tx_event_flags_set.c **** 
 118:../Middlewares/threadx/common/src/tx_event_flags_set.c ****     /* Increment the total event flags set counter.  */
 119:../Middlewares/threadx/common/src/tx_event_flags_set.c ****     _tx_event_flags_performance_set_count++;
 120:../Middlewares/threadx/common/src/tx_event_flags_set.c **** 
 121:../Middlewares/threadx/common/src/tx_event_flags_set.c ****     /* Increment the number of event flags sets on this semaphore.  */
 122:../Middlewares/threadx/common/src/tx_event_flags_set.c ****     group_ptr -> tx_event_flags_group_performance_set_count++;
ARM GAS  /tmp/ccM0YDds.s 			page 16


 123:../Middlewares/threadx/common/src/tx_event_flags_set.c **** #endif
 124:../Middlewares/threadx/common/src/tx_event_flags_set.c **** 
 125:../Middlewares/threadx/common/src/tx_event_flags_set.c ****     /* If trace is enabled, insert this event into the trace buffer.  */
 126:../Middlewares/threadx/common/src/tx_event_flags_set.c ****     TX_TRACE_IN_LINE_INSERT(TX_TRACE_EVENT_FLAGS_SET, group_ptr, flags_to_set, set_option, group_pt
 121              		.loc 1 126 5 is_stmt 1 view .LVU35
 122              		.loc 1 126 5 view .LVU36
 123              		.loc 1 126 5 view .LVU37
 124              		.loc 1 126 5 view .LVU38
 125              		.loc 1 126 5 view .LVU39
 126 0010 8B4E     		ldr	r6, .L77
 127 0012 3368     		ldr	r3, [r6]
 128              	.LVL3:
 129              		.loc 1 126 5 view .LVU40
 130 0014 002B     		cmp	r3, #0
 131 0016 2DD0     		beq	.L3
 132              		.loc 1 126 5 is_stmt 0 discriminator 1 view .LVU41
 133 0018 8A4A     		ldr	r2, .L77+4
 134              	.LVL4:
 135              		.loc 1 126 5 discriminator 1 view .LVU42
 136 001a 1268     		ldr	r2, [r2]
 137 001c 1207     		lsls	r2, r2, #28
 138 001e 29D5     		bpl	.L3
 139              		.loc 1 126 5 is_stmt 1 discriminator 2 view .LVU43
 140              	.LBB48:
 141              	.LBI48:
 507:../Middlewares/threadx/ports/cortex_m55/gnu/inc/tx_port.h **** {
 142              		.loc 2 507 55 view .LVU44
 143              	.LBB49:
 509:../Middlewares/threadx/ports/cortex_m55/gnu/inc/tx_port.h ****     __asm__ volatile (" MRS  %0,IPSR ": "=r" (ipsr_value) );
 144              		.loc 2 509 1 view .LVU45
 510:../Middlewares/threadx/ports/cortex_m55/gnu/inc/tx_port.h ****     return(ipsr_value);
 145              		.loc 2 510 5 view .LVU46
 146              		.syntax unified
 147              	@ 510 "../Middlewares/threadx/ports/cortex_m55/gnu/inc/tx_port.h" 1
 148 0020 EFF30581 		 MRS  r1,IPSR 
 149              	@ 0 "" 2
 150              	.LVL5:
 511:../Middlewares/threadx/ports/cortex_m55/gnu/inc/tx_port.h **** }
 151              		.loc 2 511 5 view .LVU47
 511:../Middlewares/threadx/ports/cortex_m55/gnu/inc/tx_port.h **** }
 152              		.loc 2 511 5 is_stmt 0 view .LVU48
 153              		.thumb
 154              		.syntax unified
 155              	.LBE49:
 156              	.LBE48:
 157              		.loc 1 126 5 discriminator 1 view .LVU49
 158 0024 884A     		ldr	r2, .L77+8
 159 0026 8948     		ldr	r0, .L77+12
 160              	.LVL6:
 161              		.loc 1 126 5 discriminator 1 view .LVU50
 162 0028 1268     		ldr	r2, [r2]
 163              	.LVL7:
 164              		.loc 1 126 5 is_stmt 1 discriminator 1 view .LVU51
 165 002a 0068     		ldr	r0, [r0]
 166              	.LVL8:
 167              		.loc 1 126 5 discriminator 1 view .LVU52
 168 002c 0A43     		orrs	r2, r2, r1
ARM GAS  /tmp/ccM0YDds.s 			page 17


 169              	.LVL9:
 170              		.loc 1 126 5 is_stmt 0 discriminator 1 view .LVU53
 171 002e 32D1     		bne	.L5
 172              		.loc 1 126 5 is_stmt 1 discriminator 3 view .LVU54
 173              	.LVL10:
 174              		.loc 1 126 5 view .LVU55
 175              		.loc 1 126 5 is_stmt 0 discriminator 3 view .LVU56
 176 0030 C26B     		ldr	r2, [r0, #60]
 177              	.LVL11:
 178              		.loc 1 126 5 discriminator 3 view .LVU57
 179 0032 C16A     		ldr	r1, [r0, #44]
 180 0034 41EA0241 		orr	r1, r1, r2, lsl #16
 181 0038 41F00041 		orr	r1, r1, #-2147483648
 182              	.LVL12:
 183              	.L6:
 184              		.loc 1 126 5 is_stmt 1 discriminator 9 view .LVU58
 185 003c 2422     		movs	r2, #36
 186 003e C3E90001 		strd	r0, r1, [r3]
 187              		.loc 1 126 5 view .LVU59
 188              		.loc 1 126 5 is_stmt 0 discriminator 9 view .LVU60
 189 0042 9A60     		str	r2, [r3, #8]
 190              		.loc 1 126 5 is_stmt 1 view .LVU61
 191              		.loc 1 126 5 is_stmt 0 discriminator 9 view .LVU62
 192 0044 824A     		ldr	r2, .L77+16
 193 0046 5268     		ldr	r2, [r2, #4]
 194 0048 C3E90578 		strd	r7, r8, [r3, #20]
 195 004c C3E90324 		strd	r2, r4, [r3, #12]
 196              		.loc 1 126 5 is_stmt 1 view .LVU63
 197              		.loc 1 126 5 view .LVU64
 198              		.loc 1 126 5 is_stmt 0 discriminator 9 view .LVU65
 199 0050 6269     		ldr	r2, [r4, #20]
 200 0052 2033     		adds	r3, r3, #32
 201              	.LVL13:
 202              		.loc 1 126 5 discriminator 9 view .LVU66
 203 0054 43F8042C 		str	r2, [r3, #-4]
 204              		.loc 1 126 5 is_stmt 1 view .LVU67
 205              	.LVL14:
 206              		.loc 1 126 5 view .LVU68
 207              		.loc 1 126 5 is_stmt 0 discriminator 10 view .LVU69
 208 0058 7E4A     		ldr	r2, .L77+20
 209 005a 1068     		ldr	r0, [r2]
 210              		.loc 1 126 5 discriminator 9 view .LVU70
 211 005c 7E4A     		ldr	r2, .L77+24
 212 005e 1268     		ldr	r2, [r2]
 213 0060 9A42     		cmp	r2, r3
 214 0062 22D8     		bhi	.L7
 215              		.loc 1 126 5 is_stmt 1 discriminator 10 view .LVU71
 216 0064 7D4B     		ldr	r3, .L77+28
 217              	.LVL15:
 218              		.loc 1 126 5 is_stmt 0 discriminator 10 view .LVU72
 219 0066 1B68     		ldr	r3, [r3]
 220              	.LVL16:
 221              		.loc 1 126 5 is_stmt 1 view .LVU73
 222              		.loc 1 126 5 is_stmt 0 discriminator 10 view .LVU74
 223 0068 3360     		str	r3, [r6]
 224              		.loc 1 126 5 is_stmt 1 view .LVU75
 225              		.loc 1 126 5 is_stmt 0 discriminator 10 view .LVU76
ARM GAS  /tmp/ccM0YDds.s 			page 18


 226 006a 0362     		str	r3, [r0, #32]
 227              		.loc 1 126 5 is_stmt 1 view .LVU77
 228              		.loc 1 126 5 is_stmt 0 discriminator 10 view .LVU78
 229 006c 7C4B     		ldr	r3, .L77+32
 230              	.LVL17:
 231              		.loc 1 126 5 discriminator 10 view .LVU79
 232 006e 1B68     		ldr	r3, [r3]
 233 0070 03B1     		cbz	r3, .L3
 234              		.loc 1 126 5 is_stmt 1 discriminator 12 view .LVU80
 235 0072 9847     		blx	r3
 236              	.LVL18:
 237              	.L3:
 238              		.loc 1 126 5 is_stmt 0 discriminator 12 view .LVU81
 239              	.LBE47:
 127:../Middlewares/threadx/common/src/tx_event_flags_set.c **** 
 128:../Middlewares/threadx/common/src/tx_event_flags_set.c ****     /* Log this kernel call.  */
 129:../Middlewares/threadx/common/src/tx_event_flags_set.c ****     TX_EL_EVENT_FLAGS_SET_INSERT
 130:../Middlewares/threadx/common/src/tx_event_flags_set.c **** 
 131:../Middlewares/threadx/common/src/tx_event_flags_set.c ****     /* Determine how to set this group's event flags.  */
 132:../Middlewares/threadx/common/src/tx_event_flags_set.c ****     if ((set_option & TX_EVENT_FLAGS_AND_MASK) == TX_AND)
 240              		.loc 1 132 5 is_stmt 1 view .LVU82
 241              		.loc 1 132 8 is_stmt 0 view .LVU83
 242 0074 18F00208 		ands	r8, r8, #2
 243              	.LVL19:
 133:../Middlewares/threadx/common/src/tx_event_flags_set.c ****     {
 134:../Middlewares/threadx/common/src/tx_event_flags_set.c **** 
 135:../Middlewares/threadx/common/src/tx_event_flags_set.c **** #ifndef TX_NOT_INTERRUPTABLE
 136:../Middlewares/threadx/common/src/tx_event_flags_set.c **** 
 137:../Middlewares/threadx/common/src/tx_event_flags_set.c ****         /* Set interrupted set request flag to false.  */
 138:../Middlewares/threadx/common/src/tx_event_flags_set.c ****         interrupted_set_request =  TX_FALSE;
 139:../Middlewares/threadx/common/src/tx_event_flags_set.c **** 
 140:../Middlewares/threadx/common/src/tx_event_flags_set.c ****         /* Determine if the suspension list is being processed by an interrupted
 141:../Middlewares/threadx/common/src/tx_event_flags_set.c ****            set request.  */
 142:../Middlewares/threadx/common/src/tx_event_flags_set.c ****         if (group_ptr -> tx_event_flags_group_suspended_count != TX_NO_SUSPENSIONS)
 244              		.loc 1 142 23 view .LVU84
 245 0078 6669     		ldr	r6, [r4, #20]
 132:../Middlewares/threadx/common/src/tx_event_flags_set.c ****     {
 246              		.loc 1 132 8 view .LVU85
 247 007a 1DD0     		beq	.L8
 138:../Middlewares/threadx/common/src/tx_event_flags_set.c **** 
 248              		.loc 1 138 9 is_stmt 1 view .LVU86
 249              	.LVL20:
 250              		.loc 1 142 9 view .LVU87
 251              		.loc 1 142 12 is_stmt 0 view .LVU88
 252 007c C6B1     		cbz	r6, .L9
 143:../Middlewares/threadx/common/src/tx_event_flags_set.c ****         {
 144:../Middlewares/threadx/common/src/tx_event_flags_set.c **** 
 145:../Middlewares/threadx/common/src/tx_event_flags_set.c ****             if (group_ptr -> tx_event_flags_group_suspension_list == TX_NULL)
 253              		.loc 1 145 13 is_stmt 1 view .LVU89
 254              		.loc 1 145 16 is_stmt 0 view .LVU90
 255 007e 2369     		ldr	r3, [r4, #16]
 256 0080 B3B9     		cbnz	r3, .L9
 146:../Middlewares/threadx/common/src/tx_event_flags_set.c ****             {
 147:../Middlewares/threadx/common/src/tx_event_flags_set.c **** 
 148:../Middlewares/threadx/common/src/tx_event_flags_set.c ****                 /* Set the interrupted set request flag.  */
 149:../Middlewares/threadx/common/src/tx_event_flags_set.c ****                 interrupted_set_request =  TX_TRUE;
 257              		.loc 1 149 17 is_stmt 1 view .LVU91
ARM GAS  /tmp/ccM0YDds.s 			page 19


 258              	.LVL21:
 150:../Middlewares/threadx/common/src/tx_event_flags_set.c ****             }
 151:../Middlewares/threadx/common/src/tx_event_flags_set.c ****         }
 152:../Middlewares/threadx/common/src/tx_event_flags_set.c **** 
 153:../Middlewares/threadx/common/src/tx_event_flags_set.c ****         /* Was a set request interrupted?  */
 154:../Middlewares/threadx/common/src/tx_event_flags_set.c ****         if (interrupted_set_request == TX_TRUE)
 259              		.loc 1 154 9 view .LVU92
 155:../Middlewares/threadx/common/src/tx_event_flags_set.c ****         {
 156:../Middlewares/threadx/common/src/tx_event_flags_set.c **** 
 157:../Middlewares/threadx/common/src/tx_event_flags_set.c ****             /* A previous set operation was interrupted, we need to defer the
 158:../Middlewares/threadx/common/src/tx_event_flags_set.c ****                event clearing until the set operation is complete.  */
 159:../Middlewares/threadx/common/src/tx_event_flags_set.c **** 
 160:../Middlewares/threadx/common/src/tx_event_flags_set.c ****             /* Remember the events to clear.  */
 161:../Middlewares/threadx/common/src/tx_event_flags_set.c ****             group_ptr -> tx_event_flags_group_delayed_clear =
 260              		.loc 1 161 13 view .LVU93
 162:../Middlewares/threadx/common/src/tx_event_flags_set.c ****                                         group_ptr -> tx_event_flags_group_delayed_clear | ~flags_to
 261              		.loc 1 162 89 is_stmt 0 view .LVU94
 262 0082 236A     		ldr	r3, [r4, #32]
 263 0084 63EA0703 		orn	r3, r3, r7
 161:../Middlewares/threadx/common/src/tx_event_flags_set.c ****                                         group_ptr -> tx_event_flags_group_delayed_clear | ~flags_to
 264              		.loc 1 161 61 view .LVU95
 265 0088 2362     		str	r3, [r4, #32]
 266              	.LVL22:
 267              	.L10:
 163:../Middlewares/threadx/common/src/tx_event_flags_set.c ****         }
 164:../Middlewares/threadx/common/src/tx_event_flags_set.c ****         else
 165:../Middlewares/threadx/common/src/tx_event_flags_set.c ****         {
 166:../Middlewares/threadx/common/src/tx_event_flags_set.c **** #endif
 167:../Middlewares/threadx/common/src/tx_event_flags_set.c **** 
 168:../Middlewares/threadx/common/src/tx_event_flags_set.c ****             /* Previous set operation was not interrupted, simply clear the
 169:../Middlewares/threadx/common/src/tx_event_flags_set.c ****                specified flags by "ANDing" the flags into the current events
 170:../Middlewares/threadx/common/src/tx_event_flags_set.c ****                of the group.  */
 171:../Middlewares/threadx/common/src/tx_event_flags_set.c ****             group_ptr -> tx_event_flags_group_current =
 172:../Middlewares/threadx/common/src/tx_event_flags_set.c ****                 group_ptr -> tx_event_flags_group_current & flags_to_set;
 173:../Middlewares/threadx/common/src/tx_event_flags_set.c **** 
 174:../Middlewares/threadx/common/src/tx_event_flags_set.c **** #ifndef TX_NOT_INTERRUPTABLE
 175:../Middlewares/threadx/common/src/tx_event_flags_set.c **** 
 176:../Middlewares/threadx/common/src/tx_event_flags_set.c ****         }
 177:../Middlewares/threadx/common/src/tx_event_flags_set.c **** #endif
 178:../Middlewares/threadx/common/src/tx_event_flags_set.c **** 
 179:../Middlewares/threadx/common/src/tx_event_flags_set.c ****         /* Restore interrupts.  */
 180:../Middlewares/threadx/common/src/tx_event_flags_set.c ****         TX_RESTORE
 268              		.loc 1 180 9 is_stmt 1 view .LVU96
 269              	.LBB50:
 270              	.LBI50:
 586:../Middlewares/threadx/ports/cortex_m55/gnu/inc/tx_port.h **** {
 271              		.loc 2 586 55 view .LVU97
 272              	.LBB51:
 591:../Middlewares/threadx/ports/cortex_m55/gnu/inc/tx_port.h **** #endif
 273              		.loc 2 591 5 view .LVU98
 274              		.syntax unified
 275              	@ 591 "../Middlewares/threadx/ports/cortex_m55/gnu/inc/tx_port.h" 1
 276 008a 85F31088 		MSR  PRIMASK,r5
 277              	@ 0 "" 2
 278              	.LVL23:
 279              		.thumb
 280              		.syntax unified
ARM GAS  /tmp/ccM0YDds.s 			page 20


 281              	.L11:
 591:../Middlewares/threadx/ports/cortex_m55/gnu/inc/tx_port.h **** #endif
 282              		.loc 2 591 5 is_stmt 0 view .LVU99
 283              	.LBE51:
 284              	.LBE50:
 181:../Middlewares/threadx/common/src/tx_event_flags_set.c ****     }
 182:../Middlewares/threadx/common/src/tx_event_flags_set.c ****     else
 183:../Middlewares/threadx/common/src/tx_event_flags_set.c ****     {
 184:../Middlewares/threadx/common/src/tx_event_flags_set.c **** 
 185:../Middlewares/threadx/common/src/tx_event_flags_set.c **** #ifndef TX_DISABLE_NOTIFY_CALLBACKS
 186:../Middlewares/threadx/common/src/tx_event_flags_set.c **** 
 187:../Middlewares/threadx/common/src/tx_event_flags_set.c ****         /* Pickup the notify callback routine for this event flag group.  */
 188:../Middlewares/threadx/common/src/tx_event_flags_set.c ****         events_set_notify =  group_ptr -> tx_event_flags_group_set_notify;
 189:../Middlewares/threadx/common/src/tx_event_flags_set.c **** #endif
 190:../Middlewares/threadx/common/src/tx_event_flags_set.c **** 
 191:../Middlewares/threadx/common/src/tx_event_flags_set.c ****         /* "OR" the flags into the current events of the group.  */
 192:../Middlewares/threadx/common/src/tx_event_flags_set.c ****         group_ptr -> tx_event_flags_group_current =
 193:../Middlewares/threadx/common/src/tx_event_flags_set.c ****             group_ptr -> tx_event_flags_group_current | flags_to_set;
 194:../Middlewares/threadx/common/src/tx_event_flags_set.c **** 
 195:../Middlewares/threadx/common/src/tx_event_flags_set.c **** #ifndef TX_NOT_INTERRUPTABLE
 196:../Middlewares/threadx/common/src/tx_event_flags_set.c **** 
 197:../Middlewares/threadx/common/src/tx_event_flags_set.c ****         /* Determine if there are any delayed flags to clear.  */
 198:../Middlewares/threadx/common/src/tx_event_flags_set.c ****         if (group_ptr -> tx_event_flags_group_delayed_clear != ((ULONG) 0))
 199:../Middlewares/threadx/common/src/tx_event_flags_set.c ****         {
 200:../Middlewares/threadx/common/src/tx_event_flags_set.c **** 
 201:../Middlewares/threadx/common/src/tx_event_flags_set.c ****             /* Yes, we need to neutralize the delayed clearing as well.  */
 202:../Middlewares/threadx/common/src/tx_event_flags_set.c ****             group_ptr -> tx_event_flags_group_delayed_clear =
 203:../Middlewares/threadx/common/src/tx_event_flags_set.c ****                                         group_ptr -> tx_event_flags_group_delayed_clear & ~flags_to
 204:../Middlewares/threadx/common/src/tx_event_flags_set.c ****         }
 205:../Middlewares/threadx/common/src/tx_event_flags_set.c **** #endif
 206:../Middlewares/threadx/common/src/tx_event_flags_set.c **** 
 207:../Middlewares/threadx/common/src/tx_event_flags_set.c ****         /* Clear the preempt check flag.  */
 208:../Middlewares/threadx/common/src/tx_event_flags_set.c ****         preempt_check =  TX_FALSE;
 209:../Middlewares/threadx/common/src/tx_event_flags_set.c **** 
 210:../Middlewares/threadx/common/src/tx_event_flags_set.c ****         /* Pickup the thread suspended count.  */
 211:../Middlewares/threadx/common/src/tx_event_flags_set.c ****         suspended_count =  group_ptr -> tx_event_flags_group_suspended_count;
 212:../Middlewares/threadx/common/src/tx_event_flags_set.c **** 
 213:../Middlewares/threadx/common/src/tx_event_flags_set.c ****         /* Determine if there are any threads suspended on the event flag group.  */
 214:../Middlewares/threadx/common/src/tx_event_flags_set.c ****         if (group_ptr -> tx_event_flags_group_suspension_list != TX_NULL)
 215:../Middlewares/threadx/common/src/tx_event_flags_set.c ****         {
 216:../Middlewares/threadx/common/src/tx_event_flags_set.c **** 
 217:../Middlewares/threadx/common/src/tx_event_flags_set.c ****             /* Determine if there is just a single thread waiting on the event
 218:../Middlewares/threadx/common/src/tx_event_flags_set.c ****                flag group.  */
 219:../Middlewares/threadx/common/src/tx_event_flags_set.c ****             if (suspended_count == ((UINT) 1))
 220:../Middlewares/threadx/common/src/tx_event_flags_set.c ****             {
 221:../Middlewares/threadx/common/src/tx_event_flags_set.c **** 
 222:../Middlewares/threadx/common/src/tx_event_flags_set.c ****                 /* Single thread waiting for event flags.  Bypass the multiple thread
 223:../Middlewares/threadx/common/src/tx_event_flags_set.c ****                    logic.  */
 224:../Middlewares/threadx/common/src/tx_event_flags_set.c **** 
 225:../Middlewares/threadx/common/src/tx_event_flags_set.c ****                 /* Setup thread pointer.  */
 226:../Middlewares/threadx/common/src/tx_event_flags_set.c ****                 thread_ptr =  group_ptr -> tx_event_flags_group_suspension_list;
 227:../Middlewares/threadx/common/src/tx_event_flags_set.c **** 
 228:../Middlewares/threadx/common/src/tx_event_flags_set.c ****                 /* Pickup the current event flags.  */
 229:../Middlewares/threadx/common/src/tx_event_flags_set.c ****                 current_event_flags =  group_ptr -> tx_event_flags_group_current;
 230:../Middlewares/threadx/common/src/tx_event_flags_set.c **** 
 231:../Middlewares/threadx/common/src/tx_event_flags_set.c ****                 /* Pickup the suspend information.  */
 232:../Middlewares/threadx/common/src/tx_event_flags_set.c ****                 requested_flags =  thread_ptr -> tx_thread_suspend_info;
ARM GAS  /tmp/ccM0YDds.s 			page 21


 233:../Middlewares/threadx/common/src/tx_event_flags_set.c **** 
 234:../Middlewares/threadx/common/src/tx_event_flags_set.c ****                 /* Pickup the suspend option.  */
 235:../Middlewares/threadx/common/src/tx_event_flags_set.c ****                 get_option =  thread_ptr -> tx_thread_suspend_option;
 236:../Middlewares/threadx/common/src/tx_event_flags_set.c **** 
 237:../Middlewares/threadx/common/src/tx_event_flags_set.c ****                 /* Isolate the AND selection.  */
 238:../Middlewares/threadx/common/src/tx_event_flags_set.c ****                 and_request =  (get_option & TX_AND);
 239:../Middlewares/threadx/common/src/tx_event_flags_set.c **** 
 240:../Middlewares/threadx/common/src/tx_event_flags_set.c ****                 /* Check for AND condition. All flags must be present to satisfy request.  */
 241:../Middlewares/threadx/common/src/tx_event_flags_set.c ****                 if (and_request == TX_AND)
 242:../Middlewares/threadx/common/src/tx_event_flags_set.c ****                 {
 243:../Middlewares/threadx/common/src/tx_event_flags_set.c **** 
 244:../Middlewares/threadx/common/src/tx_event_flags_set.c ****                     /* AND request is present.  */
 245:../Middlewares/threadx/common/src/tx_event_flags_set.c **** 
 246:../Middlewares/threadx/common/src/tx_event_flags_set.c ****                     /* Calculate the flags present.  */
 247:../Middlewares/threadx/common/src/tx_event_flags_set.c ****                     flags_satisfied =  (current_event_flags & requested_flags);
 248:../Middlewares/threadx/common/src/tx_event_flags_set.c **** 
 249:../Middlewares/threadx/common/src/tx_event_flags_set.c ****                     /* Determine if they satisfy the AND request.  */
 250:../Middlewares/threadx/common/src/tx_event_flags_set.c ****                     if (flags_satisfied != requested_flags)
 251:../Middlewares/threadx/common/src/tx_event_flags_set.c ****                     {
 252:../Middlewares/threadx/common/src/tx_event_flags_set.c **** 
 253:../Middlewares/threadx/common/src/tx_event_flags_set.c ****                         /* No, not all the requested flags are present. Clear the flags present var
 254:../Middlewares/threadx/common/src/tx_event_flags_set.c ****                         flags_satisfied =  ((ULONG) 0);
 255:../Middlewares/threadx/common/src/tx_event_flags_set.c ****                     }
 256:../Middlewares/threadx/common/src/tx_event_flags_set.c ****                 }
 257:../Middlewares/threadx/common/src/tx_event_flags_set.c ****                 else
 258:../Middlewares/threadx/common/src/tx_event_flags_set.c ****                 {
 259:../Middlewares/threadx/common/src/tx_event_flags_set.c **** 
 260:../Middlewares/threadx/common/src/tx_event_flags_set.c ****                     /* OR request is present. Simply or the requested flags and the current flags. 
 261:../Middlewares/threadx/common/src/tx_event_flags_set.c ****                     flags_satisfied =  (current_event_flags & requested_flags);
 262:../Middlewares/threadx/common/src/tx_event_flags_set.c ****                 }
 263:../Middlewares/threadx/common/src/tx_event_flags_set.c **** 
 264:../Middlewares/threadx/common/src/tx_event_flags_set.c ****                 /* Determine if the request is satisfied.  */
 265:../Middlewares/threadx/common/src/tx_event_flags_set.c ****                 if (flags_satisfied != ((ULONG) 0))
 266:../Middlewares/threadx/common/src/tx_event_flags_set.c ****                 {
 267:../Middlewares/threadx/common/src/tx_event_flags_set.c **** 
 268:../Middlewares/threadx/common/src/tx_event_flags_set.c ****                     /* Yes, resume the thread and apply any event flag
 269:../Middlewares/threadx/common/src/tx_event_flags_set.c ****                        clearing.  */
 270:../Middlewares/threadx/common/src/tx_event_flags_set.c **** 
 271:../Middlewares/threadx/common/src/tx_event_flags_set.c ****                     /* Return the actual event flags that satisfied the request.  */
 272:../Middlewares/threadx/common/src/tx_event_flags_set.c ****                     suspend_info_ptr =   TX_VOID_TO_ULONG_POINTER_CONVERT(thread_ptr -> tx_thread_a
 273:../Middlewares/threadx/common/src/tx_event_flags_set.c ****                     *suspend_info_ptr =  current_event_flags;
 274:../Middlewares/threadx/common/src/tx_event_flags_set.c **** 
 275:../Middlewares/threadx/common/src/tx_event_flags_set.c ****                     /* Pickup the clear bit.  */
 276:../Middlewares/threadx/common/src/tx_event_flags_set.c ****                     clear_request =  (get_option & TX_EVENT_FLAGS_CLEAR_MASK);
 277:../Middlewares/threadx/common/src/tx_event_flags_set.c **** 
 278:../Middlewares/threadx/common/src/tx_event_flags_set.c ****                     /* Determine whether or not clearing needs to take place.  */
 279:../Middlewares/threadx/common/src/tx_event_flags_set.c ****                     if (clear_request == TX_TRUE)
 280:../Middlewares/threadx/common/src/tx_event_flags_set.c ****                     {
 281:../Middlewares/threadx/common/src/tx_event_flags_set.c **** 
 282:../Middlewares/threadx/common/src/tx_event_flags_set.c ****                         /* Yes, clear the flags that satisfied this request.  */
 283:../Middlewares/threadx/common/src/tx_event_flags_set.c ****                         group_ptr -> tx_event_flags_group_current =  group_ptr -> tx_event_flags_gr
 284:../Middlewares/threadx/common/src/tx_event_flags_set.c ****                     }
 285:../Middlewares/threadx/common/src/tx_event_flags_set.c **** 
 286:../Middlewares/threadx/common/src/tx_event_flags_set.c ****                     /* Clear the suspension information in the event flag group.  */
 287:../Middlewares/threadx/common/src/tx_event_flags_set.c ****                     group_ptr -> tx_event_flags_group_suspension_list =  TX_NULL;
 288:../Middlewares/threadx/common/src/tx_event_flags_set.c ****                     group_ptr -> tx_event_flags_group_suspended_count =  TX_NO_SUSPENSIONS;
 289:../Middlewares/threadx/common/src/tx_event_flags_set.c **** 
ARM GAS  /tmp/ccM0YDds.s 			page 22


 290:../Middlewares/threadx/common/src/tx_event_flags_set.c ****                     /* Clear cleanup routine to avoid timeout.  */
 291:../Middlewares/threadx/common/src/tx_event_flags_set.c ****                     thread_ptr -> tx_thread_suspend_cleanup =  TX_NULL;
 292:../Middlewares/threadx/common/src/tx_event_flags_set.c **** 
 293:../Middlewares/threadx/common/src/tx_event_flags_set.c ****                     /* Put return status into the thread control block.  */
 294:../Middlewares/threadx/common/src/tx_event_flags_set.c ****                     thread_ptr -> tx_thread_suspend_status =  TX_SUCCESS;
 295:../Middlewares/threadx/common/src/tx_event_flags_set.c **** 
 296:../Middlewares/threadx/common/src/tx_event_flags_set.c **** #ifdef TX_NOT_INTERRUPTABLE
 297:../Middlewares/threadx/common/src/tx_event_flags_set.c **** 
 298:../Middlewares/threadx/common/src/tx_event_flags_set.c ****                     /* Resume the thread!  */
 299:../Middlewares/threadx/common/src/tx_event_flags_set.c ****                     _tx_thread_system_ni_resume(thread_ptr);
 300:../Middlewares/threadx/common/src/tx_event_flags_set.c **** #else
 301:../Middlewares/threadx/common/src/tx_event_flags_set.c **** 
 302:../Middlewares/threadx/common/src/tx_event_flags_set.c ****                     /* Temporarily disable preemption.  */
 303:../Middlewares/threadx/common/src/tx_event_flags_set.c ****                     _tx_thread_preempt_disable++;
 304:../Middlewares/threadx/common/src/tx_event_flags_set.c **** 
 305:../Middlewares/threadx/common/src/tx_event_flags_set.c ****                     /* Restore interrupts.  */
 306:../Middlewares/threadx/common/src/tx_event_flags_set.c ****                     TX_RESTORE
 307:../Middlewares/threadx/common/src/tx_event_flags_set.c **** 
 308:../Middlewares/threadx/common/src/tx_event_flags_set.c ****                     /* Resume thread.  */
 309:../Middlewares/threadx/common/src/tx_event_flags_set.c ****                     _tx_thread_system_resume(thread_ptr);
 310:../Middlewares/threadx/common/src/tx_event_flags_set.c **** 
 311:../Middlewares/threadx/common/src/tx_event_flags_set.c ****                     /* Disable interrupts to remove the semaphore from the created list.  */
 312:../Middlewares/threadx/common/src/tx_event_flags_set.c ****                     TX_DISABLE
 313:../Middlewares/threadx/common/src/tx_event_flags_set.c **** #endif
 314:../Middlewares/threadx/common/src/tx_event_flags_set.c ****                 }
 315:../Middlewares/threadx/common/src/tx_event_flags_set.c ****             }
 316:../Middlewares/threadx/common/src/tx_event_flags_set.c ****             else
 317:../Middlewares/threadx/common/src/tx_event_flags_set.c ****             {
 318:../Middlewares/threadx/common/src/tx_event_flags_set.c **** 
 319:../Middlewares/threadx/common/src/tx_event_flags_set.c ****                 /* Otherwise, the event flag requests of multiple threads must be
 320:../Middlewares/threadx/common/src/tx_event_flags_set.c ****                    examined.  */
 321:../Middlewares/threadx/common/src/tx_event_flags_set.c **** 
 322:../Middlewares/threadx/common/src/tx_event_flags_set.c ****                 /* Setup thread pointer, keep a local copy of the head pointer.  */
 323:../Middlewares/threadx/common/src/tx_event_flags_set.c ****                 suspended_list =  group_ptr -> tx_event_flags_group_suspension_list;
 324:../Middlewares/threadx/common/src/tx_event_flags_set.c ****                 thread_ptr =      suspended_list;
 325:../Middlewares/threadx/common/src/tx_event_flags_set.c **** 
 326:../Middlewares/threadx/common/src/tx_event_flags_set.c ****                 /* Clear the suspended list head pointer to thwart manipulation of
 327:../Middlewares/threadx/common/src/tx_event_flags_set.c ****                    the list in ISR's while we are processing here.  */
 328:../Middlewares/threadx/common/src/tx_event_flags_set.c ****                 group_ptr -> tx_event_flags_group_suspension_list =  TX_NULL;
 329:../Middlewares/threadx/common/src/tx_event_flags_set.c **** 
 330:../Middlewares/threadx/common/src/tx_event_flags_set.c ****                 /* Setup the satisfied thread pointers.  */
 331:../Middlewares/threadx/common/src/tx_event_flags_set.c ****                 satisfied_list =  TX_NULL;
 332:../Middlewares/threadx/common/src/tx_event_flags_set.c ****                 last_satisfied =  TX_NULL;
 333:../Middlewares/threadx/common/src/tx_event_flags_set.c **** 
 334:../Middlewares/threadx/common/src/tx_event_flags_set.c ****                 /* Pickup the current event flags.  */
 335:../Middlewares/threadx/common/src/tx_event_flags_set.c ****                 current_event_flags =  group_ptr -> tx_event_flags_group_current;
 336:../Middlewares/threadx/common/src/tx_event_flags_set.c **** 
 337:../Middlewares/threadx/common/src/tx_event_flags_set.c ****                 /* Disable preemption while we process the suspended list.  */
 338:../Middlewares/threadx/common/src/tx_event_flags_set.c ****                 _tx_thread_preempt_disable++;
 339:../Middlewares/threadx/common/src/tx_event_flags_set.c **** 
 340:../Middlewares/threadx/common/src/tx_event_flags_set.c ****                 /* Since we have temporarily disabled preemption globally, set the preempt 
 341:../Middlewares/threadx/common/src/tx_event_flags_set.c ****                    check flag to check for any preemption condition - including from 
 342:../Middlewares/threadx/common/src/tx_event_flags_set.c ****                    unrelated ISR processing.  */
 343:../Middlewares/threadx/common/src/tx_event_flags_set.c ****                 preempt_check =  TX_TRUE;
 344:../Middlewares/threadx/common/src/tx_event_flags_set.c **** 
 345:../Middlewares/threadx/common/src/tx_event_flags_set.c ****                 /* Loop to examine all of the suspended threads. */
 346:../Middlewares/threadx/common/src/tx_event_flags_set.c ****                 do
ARM GAS  /tmp/ccM0YDds.s 			page 23


 347:../Middlewares/threadx/common/src/tx_event_flags_set.c ****                 {
 348:../Middlewares/threadx/common/src/tx_event_flags_set.c **** 
 349:../Middlewares/threadx/common/src/tx_event_flags_set.c **** #ifndef TX_NOT_INTERRUPTABLE
 350:../Middlewares/threadx/common/src/tx_event_flags_set.c **** 
 351:../Middlewares/threadx/common/src/tx_event_flags_set.c ****                     /* Restore interrupts temporarily.  */
 352:../Middlewares/threadx/common/src/tx_event_flags_set.c ****                     TX_RESTORE
 353:../Middlewares/threadx/common/src/tx_event_flags_set.c **** 
 354:../Middlewares/threadx/common/src/tx_event_flags_set.c ****                     /* Disable interrupts again.  */
 355:../Middlewares/threadx/common/src/tx_event_flags_set.c ****                     TX_DISABLE
 356:../Middlewares/threadx/common/src/tx_event_flags_set.c **** #endif
 357:../Middlewares/threadx/common/src/tx_event_flags_set.c **** 
 358:../Middlewares/threadx/common/src/tx_event_flags_set.c ****                     /* Determine if we need to reset the search.  */
 359:../Middlewares/threadx/common/src/tx_event_flags_set.c ****                     if (group_ptr -> tx_event_flags_group_reset_search != TX_FALSE)
 360:../Middlewares/threadx/common/src/tx_event_flags_set.c ****                     {
 361:../Middlewares/threadx/common/src/tx_event_flags_set.c **** 
 362:../Middlewares/threadx/common/src/tx_event_flags_set.c ****                         /* Clear the reset search flag.  */
 363:../Middlewares/threadx/common/src/tx_event_flags_set.c ****                         group_ptr -> tx_event_flags_group_reset_search =  TX_FALSE;
 364:../Middlewares/threadx/common/src/tx_event_flags_set.c **** 
 365:../Middlewares/threadx/common/src/tx_event_flags_set.c ****                         /* Move the thread pointer to the beginning of the search list.  */
 366:../Middlewares/threadx/common/src/tx_event_flags_set.c ****                         thread_ptr =  suspended_list;
 367:../Middlewares/threadx/common/src/tx_event_flags_set.c **** 
 368:../Middlewares/threadx/common/src/tx_event_flags_set.c ****                         /* Reset the suspended count.  */
 369:../Middlewares/threadx/common/src/tx_event_flags_set.c ****                         suspended_count =  group_ptr -> tx_event_flags_group_suspended_count;
 370:../Middlewares/threadx/common/src/tx_event_flags_set.c **** 
 371:../Middlewares/threadx/common/src/tx_event_flags_set.c ****                         /* Update the current events with any new ones that might
 372:../Middlewares/threadx/common/src/tx_event_flags_set.c ****                            have been set in a nested set events call from an ISR.  */
 373:../Middlewares/threadx/common/src/tx_event_flags_set.c ****                         current_event_flags =  current_event_flags | group_ptr -> tx_event_flags_gr
 374:../Middlewares/threadx/common/src/tx_event_flags_set.c ****                     }
 375:../Middlewares/threadx/common/src/tx_event_flags_set.c **** 
 376:../Middlewares/threadx/common/src/tx_event_flags_set.c ****                     /* Save next thread pointer.  */
 377:../Middlewares/threadx/common/src/tx_event_flags_set.c ****                     next_thread_ptr =  thread_ptr -> tx_thread_suspended_next;
 378:../Middlewares/threadx/common/src/tx_event_flags_set.c **** 
 379:../Middlewares/threadx/common/src/tx_event_flags_set.c ****                     /* Pickup the suspend information.  */
 380:../Middlewares/threadx/common/src/tx_event_flags_set.c ****                     requested_flags =  thread_ptr -> tx_thread_suspend_info;
 381:../Middlewares/threadx/common/src/tx_event_flags_set.c **** 
 382:../Middlewares/threadx/common/src/tx_event_flags_set.c ****                     /* Pickup this thread's suspension get option.  */
 383:../Middlewares/threadx/common/src/tx_event_flags_set.c ****                     get_option =  thread_ptr -> tx_thread_suspend_option;
 384:../Middlewares/threadx/common/src/tx_event_flags_set.c **** 
 385:../Middlewares/threadx/common/src/tx_event_flags_set.c ****                     /* Isolate the AND selection.  */
 386:../Middlewares/threadx/common/src/tx_event_flags_set.c ****                     and_request =  (get_option & TX_AND);
 387:../Middlewares/threadx/common/src/tx_event_flags_set.c **** 
 388:../Middlewares/threadx/common/src/tx_event_flags_set.c ****                     /* Check for AND condition. All flags must be present to satisfy request.  */
 389:../Middlewares/threadx/common/src/tx_event_flags_set.c ****                     if (and_request == TX_AND)
 390:../Middlewares/threadx/common/src/tx_event_flags_set.c ****                     {
 391:../Middlewares/threadx/common/src/tx_event_flags_set.c **** 
 392:../Middlewares/threadx/common/src/tx_event_flags_set.c ****                         /* AND request is present.  */
 393:../Middlewares/threadx/common/src/tx_event_flags_set.c **** 
 394:../Middlewares/threadx/common/src/tx_event_flags_set.c ****                         /* Calculate the flags present.  */
 395:../Middlewares/threadx/common/src/tx_event_flags_set.c ****                         flags_satisfied =  (current_event_flags & requested_flags);
 396:../Middlewares/threadx/common/src/tx_event_flags_set.c **** 
 397:../Middlewares/threadx/common/src/tx_event_flags_set.c ****                         /* Determine if they satisfy the AND request.  */
 398:../Middlewares/threadx/common/src/tx_event_flags_set.c ****                         if (flags_satisfied != requested_flags)
 399:../Middlewares/threadx/common/src/tx_event_flags_set.c ****                         {
 400:../Middlewares/threadx/common/src/tx_event_flags_set.c **** 
 401:../Middlewares/threadx/common/src/tx_event_flags_set.c ****                             /* No, not all the requested flags are present. Clear the flags present
 402:../Middlewares/threadx/common/src/tx_event_flags_set.c ****                             flags_satisfied =  ((ULONG) 0);
 403:../Middlewares/threadx/common/src/tx_event_flags_set.c ****                         }
ARM GAS  /tmp/ccM0YDds.s 			page 24


 404:../Middlewares/threadx/common/src/tx_event_flags_set.c ****                     }
 405:../Middlewares/threadx/common/src/tx_event_flags_set.c ****                     else
 406:../Middlewares/threadx/common/src/tx_event_flags_set.c ****                     {
 407:../Middlewares/threadx/common/src/tx_event_flags_set.c **** 
 408:../Middlewares/threadx/common/src/tx_event_flags_set.c ****                         /* OR request is present. Simply or the requested flags and the current fla
 409:../Middlewares/threadx/common/src/tx_event_flags_set.c ****                         flags_satisfied =  (current_event_flags & requested_flags);
 410:../Middlewares/threadx/common/src/tx_event_flags_set.c ****                     }
 411:../Middlewares/threadx/common/src/tx_event_flags_set.c **** 
 412:../Middlewares/threadx/common/src/tx_event_flags_set.c ****                     /* Check to see if the thread had a timeout or wait abort during the event sear
 413:../Middlewares/threadx/common/src/tx_event_flags_set.c ****                        If so, just set the flags satisfied to ensure the processing here removes th
 414:../Middlewares/threadx/common/src/tx_event_flags_set.c ****                        the suspension list.  */
 415:../Middlewares/threadx/common/src/tx_event_flags_set.c ****                     if (thread_ptr -> tx_thread_state != TX_EVENT_FLAG)
 416:../Middlewares/threadx/common/src/tx_event_flags_set.c ****                     {
 417:../Middlewares/threadx/common/src/tx_event_flags_set.c **** 
 418:../Middlewares/threadx/common/src/tx_event_flags_set.c ****                        /* Simply set the satisfied flags to 1 in order to remove the thread from th
 419:../Middlewares/threadx/common/src/tx_event_flags_set.c ****                         flags_satisfied =  ((ULONG) 1);
 420:../Middlewares/threadx/common/src/tx_event_flags_set.c ****                     }
 421:../Middlewares/threadx/common/src/tx_event_flags_set.c **** 
 422:../Middlewares/threadx/common/src/tx_event_flags_set.c ****                     /* Determine if the request is satisfied.  */
 423:../Middlewares/threadx/common/src/tx_event_flags_set.c ****                     if (flags_satisfied != ((ULONG) 0))
 424:../Middlewares/threadx/common/src/tx_event_flags_set.c ****                     {
 425:../Middlewares/threadx/common/src/tx_event_flags_set.c **** 
 426:../Middlewares/threadx/common/src/tx_event_flags_set.c ****                         /* Yes, this request can be handled now.  */
 427:../Middlewares/threadx/common/src/tx_event_flags_set.c **** 
 428:../Middlewares/threadx/common/src/tx_event_flags_set.c ****                         /* Determine if the thread is still suspended on the event flag group. If n
 429:../Middlewares/threadx/common/src/tx_event_flags_set.c ****                            abort must have been done from an ISR.  */
 430:../Middlewares/threadx/common/src/tx_event_flags_set.c ****                         if (thread_ptr -> tx_thread_state == TX_EVENT_FLAG)
 431:../Middlewares/threadx/common/src/tx_event_flags_set.c ****                         {
 432:../Middlewares/threadx/common/src/tx_event_flags_set.c **** 
 433:../Middlewares/threadx/common/src/tx_event_flags_set.c ****                             /* Return the actual event flags that satisfied the request.  */
 434:../Middlewares/threadx/common/src/tx_event_flags_set.c ****                             suspend_info_ptr =   TX_VOID_TO_ULONG_POINTER_CONVERT(thread_ptr -> tx_
 435:../Middlewares/threadx/common/src/tx_event_flags_set.c ****                             *suspend_info_ptr =  current_event_flags;
 436:../Middlewares/threadx/common/src/tx_event_flags_set.c **** 
 437:../Middlewares/threadx/common/src/tx_event_flags_set.c ****                             /* Pickup the clear bit.  */
 438:../Middlewares/threadx/common/src/tx_event_flags_set.c ****                             clear_request =  (get_option & TX_EVENT_FLAGS_CLEAR_MASK);
 439:../Middlewares/threadx/common/src/tx_event_flags_set.c **** 
 440:../Middlewares/threadx/common/src/tx_event_flags_set.c ****                             /* Determine whether or not clearing needs to take place.  */
 441:../Middlewares/threadx/common/src/tx_event_flags_set.c ****                             if (clear_request == TX_TRUE)
 442:../Middlewares/threadx/common/src/tx_event_flags_set.c ****                             {
 443:../Middlewares/threadx/common/src/tx_event_flags_set.c **** 
 444:../Middlewares/threadx/common/src/tx_event_flags_set.c ****                                 /* Yes, clear the flags that satisfied this request.  */
 445:../Middlewares/threadx/common/src/tx_event_flags_set.c ****                                 group_ptr -> tx_event_flags_group_current =  group_ptr -> tx_event_
 446:../Middlewares/threadx/common/src/tx_event_flags_set.c ****                             }
 447:../Middlewares/threadx/common/src/tx_event_flags_set.c **** 
 448:../Middlewares/threadx/common/src/tx_event_flags_set.c ****                             /* Prepare for resumption of the first thread.  */
 449:../Middlewares/threadx/common/src/tx_event_flags_set.c **** 
 450:../Middlewares/threadx/common/src/tx_event_flags_set.c ****                             /* Clear cleanup routine to avoid timeout.  */
 451:../Middlewares/threadx/common/src/tx_event_flags_set.c ****                             thread_ptr -> tx_thread_suspend_cleanup =  TX_NULL;
 452:../Middlewares/threadx/common/src/tx_event_flags_set.c **** 
 453:../Middlewares/threadx/common/src/tx_event_flags_set.c ****                             /* Put return status into the thread control block.  */
 454:../Middlewares/threadx/common/src/tx_event_flags_set.c ****                             thread_ptr -> tx_thread_suspend_status =  TX_SUCCESS;
 455:../Middlewares/threadx/common/src/tx_event_flags_set.c ****                         }
 456:../Middlewares/threadx/common/src/tx_event_flags_set.c **** 
 457:../Middlewares/threadx/common/src/tx_event_flags_set.c ****                         /* We need to remove the thread from the suspension list and place it in th
 458:../Middlewares/threadx/common/src/tx_event_flags_set.c ****                            expired list.  */
 459:../Middlewares/threadx/common/src/tx_event_flags_set.c **** 
 460:../Middlewares/threadx/common/src/tx_event_flags_set.c ****                         /* See if this is the only suspended thread on the list.  */
ARM GAS  /tmp/ccM0YDds.s 			page 25


 461:../Middlewares/threadx/common/src/tx_event_flags_set.c ****                         if (thread_ptr == thread_ptr -> tx_thread_suspended_next)
 462:../Middlewares/threadx/common/src/tx_event_flags_set.c ****                         {
 463:../Middlewares/threadx/common/src/tx_event_flags_set.c **** 
 464:../Middlewares/threadx/common/src/tx_event_flags_set.c ****                             /* Yes, the only suspended thread.  */
 465:../Middlewares/threadx/common/src/tx_event_flags_set.c **** 
 466:../Middlewares/threadx/common/src/tx_event_flags_set.c ****                             /* Update the head pointer.  */
 467:../Middlewares/threadx/common/src/tx_event_flags_set.c ****                             suspended_list =  TX_NULL;
 468:../Middlewares/threadx/common/src/tx_event_flags_set.c ****                         }
 469:../Middlewares/threadx/common/src/tx_event_flags_set.c ****                         else
 470:../Middlewares/threadx/common/src/tx_event_flags_set.c ****                         {
 471:../Middlewares/threadx/common/src/tx_event_flags_set.c **** 
 472:../Middlewares/threadx/common/src/tx_event_flags_set.c ****                             /* At least one more thread is on the same expiration list.  */
 473:../Middlewares/threadx/common/src/tx_event_flags_set.c **** 
 474:../Middlewares/threadx/common/src/tx_event_flags_set.c ****                             /* Update the links of the adjacent threads.  */
 475:../Middlewares/threadx/common/src/tx_event_flags_set.c ****                             next_thread =                                  thread_ptr -> tx_thread_
 476:../Middlewares/threadx/common/src/tx_event_flags_set.c ****                             previous_thread =                              thread_ptr -> tx_thread_
 477:../Middlewares/threadx/common/src/tx_event_flags_set.c ****                             next_thread -> tx_thread_suspended_previous =  previous_thread;
 478:../Middlewares/threadx/common/src/tx_event_flags_set.c ****                             previous_thread -> tx_thread_suspended_next =  next_thread;
 479:../Middlewares/threadx/common/src/tx_event_flags_set.c **** 
 480:../Middlewares/threadx/common/src/tx_event_flags_set.c ****                             /* Update the list head pointer, if removing the head of the
 481:../Middlewares/threadx/common/src/tx_event_flags_set.c ****                                list.  */
 482:../Middlewares/threadx/common/src/tx_event_flags_set.c ****                             if (suspended_list == thread_ptr)
 483:../Middlewares/threadx/common/src/tx_event_flags_set.c ****                             {
 484:../Middlewares/threadx/common/src/tx_event_flags_set.c **** 
 485:../Middlewares/threadx/common/src/tx_event_flags_set.c ****                                 /* Yes, head pointer needs to be updated.  */
 486:../Middlewares/threadx/common/src/tx_event_flags_set.c ****                                 suspended_list =  thread_ptr -> tx_thread_suspended_next;
 487:../Middlewares/threadx/common/src/tx_event_flags_set.c ****                             }
 488:../Middlewares/threadx/common/src/tx_event_flags_set.c ****                         }
 489:../Middlewares/threadx/common/src/tx_event_flags_set.c **** 
 490:../Middlewares/threadx/common/src/tx_event_flags_set.c ****                         /* Decrement the suspension count.  */
 491:../Middlewares/threadx/common/src/tx_event_flags_set.c ****                         group_ptr -> tx_event_flags_group_suspended_count--;
 492:../Middlewares/threadx/common/src/tx_event_flags_set.c **** 
 493:../Middlewares/threadx/common/src/tx_event_flags_set.c ****                         /* Place this thread on the expired list.  */
 494:../Middlewares/threadx/common/src/tx_event_flags_set.c ****                         if (satisfied_list == TX_NULL)
 495:../Middlewares/threadx/common/src/tx_event_flags_set.c ****                         {
 496:../Middlewares/threadx/common/src/tx_event_flags_set.c **** 
 497:../Middlewares/threadx/common/src/tx_event_flags_set.c ****                             /* First thread on the satisfied list.  */
 498:../Middlewares/threadx/common/src/tx_event_flags_set.c ****                             satisfied_list =  thread_ptr;
 499:../Middlewares/threadx/common/src/tx_event_flags_set.c ****                             last_satisfied =  thread_ptr;
 500:../Middlewares/threadx/common/src/tx_event_flags_set.c **** 
 501:../Middlewares/threadx/common/src/tx_event_flags_set.c ****                             /* Setup initial next pointer.  */
 502:../Middlewares/threadx/common/src/tx_event_flags_set.c ****                             thread_ptr -> tx_thread_suspended_next =  TX_NULL;
 503:../Middlewares/threadx/common/src/tx_event_flags_set.c ****                         }
 504:../Middlewares/threadx/common/src/tx_event_flags_set.c ****                         else
 505:../Middlewares/threadx/common/src/tx_event_flags_set.c ****                         {
 506:../Middlewares/threadx/common/src/tx_event_flags_set.c **** 
 507:../Middlewares/threadx/common/src/tx_event_flags_set.c ****                             /* Not the first thread on the satisfied list.  */
 508:../Middlewares/threadx/common/src/tx_event_flags_set.c **** 
 509:../Middlewares/threadx/common/src/tx_event_flags_set.c ****                             /* Link it up at the end.  */
 510:../Middlewares/threadx/common/src/tx_event_flags_set.c ****                             last_satisfied -> tx_thread_suspended_next =  thread_ptr;
 511:../Middlewares/threadx/common/src/tx_event_flags_set.c ****                             thread_ptr -> tx_thread_suspended_next =      TX_NULL;
 512:../Middlewares/threadx/common/src/tx_event_flags_set.c ****                             last_satisfied =                              thread_ptr;
 513:../Middlewares/threadx/common/src/tx_event_flags_set.c ****                         }
 514:../Middlewares/threadx/common/src/tx_event_flags_set.c ****                     }
 515:../Middlewares/threadx/common/src/tx_event_flags_set.c **** 
 516:../Middlewares/threadx/common/src/tx_event_flags_set.c ****                     /* Copy next thread pointer to working thread ptr.  */
 517:../Middlewares/threadx/common/src/tx_event_flags_set.c ****                     thread_ptr =  next_thread_ptr;
ARM GAS  /tmp/ccM0YDds.s 			page 26


 518:../Middlewares/threadx/common/src/tx_event_flags_set.c **** 
 519:../Middlewares/threadx/common/src/tx_event_flags_set.c ****                     /* Decrement the suspension count.  */
 520:../Middlewares/threadx/common/src/tx_event_flags_set.c ****                     suspended_count--;
 521:../Middlewares/threadx/common/src/tx_event_flags_set.c **** 
 522:../Middlewares/threadx/common/src/tx_event_flags_set.c ****                 } while (suspended_count != TX_NO_SUSPENSIONS);
 523:../Middlewares/threadx/common/src/tx_event_flags_set.c **** 
 524:../Middlewares/threadx/common/src/tx_event_flags_set.c ****                 /* Setup the group's suspension list head again.  */
 525:../Middlewares/threadx/common/src/tx_event_flags_set.c ****                 group_ptr -> tx_event_flags_group_suspension_list =  suspended_list;
 526:../Middlewares/threadx/common/src/tx_event_flags_set.c **** 
 527:../Middlewares/threadx/common/src/tx_event_flags_set.c **** #ifndef TX_NOT_INTERRUPTABLE
 528:../Middlewares/threadx/common/src/tx_event_flags_set.c **** 
 529:../Middlewares/threadx/common/src/tx_event_flags_set.c ****                 /* Determine if there is any delayed event clearing to perform.  */
 530:../Middlewares/threadx/common/src/tx_event_flags_set.c ****                 if (group_ptr -> tx_event_flags_group_delayed_clear != ((ULONG) 0))
 531:../Middlewares/threadx/common/src/tx_event_flags_set.c ****                 {
 532:../Middlewares/threadx/common/src/tx_event_flags_set.c **** 
 533:../Middlewares/threadx/common/src/tx_event_flags_set.c ****                     /* Perform the delayed event clearing.  */
 534:../Middlewares/threadx/common/src/tx_event_flags_set.c ****                     group_ptr -> tx_event_flags_group_current =
 535:../Middlewares/threadx/common/src/tx_event_flags_set.c ****                         group_ptr -> tx_event_flags_group_current & ~(group_ptr -> tx_event_flags_g
 536:../Middlewares/threadx/common/src/tx_event_flags_set.c **** 
 537:../Middlewares/threadx/common/src/tx_event_flags_set.c ****                     /* Clear the delayed event flag clear value.  */
 538:../Middlewares/threadx/common/src/tx_event_flags_set.c ****                     group_ptr -> tx_event_flags_group_delayed_clear =  ((ULONG) 0);
 539:../Middlewares/threadx/common/src/tx_event_flags_set.c ****                 }
 540:../Middlewares/threadx/common/src/tx_event_flags_set.c **** #endif
 541:../Middlewares/threadx/common/src/tx_event_flags_set.c **** 
 542:../Middlewares/threadx/common/src/tx_event_flags_set.c ****                 /* Restore interrupts.  */
 543:../Middlewares/threadx/common/src/tx_event_flags_set.c ****                 TX_RESTORE
 544:../Middlewares/threadx/common/src/tx_event_flags_set.c **** 
 545:../Middlewares/threadx/common/src/tx_event_flags_set.c ****                 /* Walk through the satisfied list, setup initial thread pointer. */
 546:../Middlewares/threadx/common/src/tx_event_flags_set.c ****                 thread_ptr =  satisfied_list;
 547:../Middlewares/threadx/common/src/tx_event_flags_set.c ****                 while(thread_ptr != TX_NULL)
 548:../Middlewares/threadx/common/src/tx_event_flags_set.c ****                 {
 549:../Middlewares/threadx/common/src/tx_event_flags_set.c **** 
 550:../Middlewares/threadx/common/src/tx_event_flags_set.c ****                     /* Get next pointer first.  */
 551:../Middlewares/threadx/common/src/tx_event_flags_set.c ****                     next_thread_ptr =  thread_ptr -> tx_thread_suspended_next;
 552:../Middlewares/threadx/common/src/tx_event_flags_set.c **** 
 553:../Middlewares/threadx/common/src/tx_event_flags_set.c ****                     /* Disable interrupts.  */
 554:../Middlewares/threadx/common/src/tx_event_flags_set.c ****                     TX_DISABLE
 555:../Middlewares/threadx/common/src/tx_event_flags_set.c **** 
 556:../Middlewares/threadx/common/src/tx_event_flags_set.c **** #ifdef TX_NOT_INTERRUPTABLE
 557:../Middlewares/threadx/common/src/tx_event_flags_set.c **** 
 558:../Middlewares/threadx/common/src/tx_event_flags_set.c ****                     /* Resume the thread!  */
 559:../Middlewares/threadx/common/src/tx_event_flags_set.c ****                     _tx_thread_system_ni_resume(thread_ptr);
 560:../Middlewares/threadx/common/src/tx_event_flags_set.c **** 
 561:../Middlewares/threadx/common/src/tx_event_flags_set.c ****                     /* Restore interrupts.  */
 562:../Middlewares/threadx/common/src/tx_event_flags_set.c ****                     TX_RESTORE
 563:../Middlewares/threadx/common/src/tx_event_flags_set.c **** #else
 564:../Middlewares/threadx/common/src/tx_event_flags_set.c **** 
 565:../Middlewares/threadx/common/src/tx_event_flags_set.c ****                     /* Disable preemption again.  */
 566:../Middlewares/threadx/common/src/tx_event_flags_set.c ****                     _tx_thread_preempt_disable++;
 567:../Middlewares/threadx/common/src/tx_event_flags_set.c **** 
 568:../Middlewares/threadx/common/src/tx_event_flags_set.c ****                     /* Restore interrupt posture.  */
 569:../Middlewares/threadx/common/src/tx_event_flags_set.c ****                     TX_RESTORE
 570:../Middlewares/threadx/common/src/tx_event_flags_set.c **** 
 571:../Middlewares/threadx/common/src/tx_event_flags_set.c ****                     /* Resume the thread.  */
 572:../Middlewares/threadx/common/src/tx_event_flags_set.c ****                     _tx_thread_system_resume(thread_ptr);
 573:../Middlewares/threadx/common/src/tx_event_flags_set.c **** #endif
 574:../Middlewares/threadx/common/src/tx_event_flags_set.c **** 
ARM GAS  /tmp/ccM0YDds.s 			page 27


 575:../Middlewares/threadx/common/src/tx_event_flags_set.c ****                     /* Move next thread to current.  */
 576:../Middlewares/threadx/common/src/tx_event_flags_set.c ****                     thread_ptr =  next_thread_ptr;
 577:../Middlewares/threadx/common/src/tx_event_flags_set.c ****                 }
 578:../Middlewares/threadx/common/src/tx_event_flags_set.c **** 
 579:../Middlewares/threadx/common/src/tx_event_flags_set.c ****                 /* Disable interrupts.  */
 580:../Middlewares/threadx/common/src/tx_event_flags_set.c ****                 TX_DISABLE
 581:../Middlewares/threadx/common/src/tx_event_flags_set.c **** 
 582:../Middlewares/threadx/common/src/tx_event_flags_set.c ****                 /* Release thread preemption disable.  */
 583:../Middlewares/threadx/common/src/tx_event_flags_set.c ****                 _tx_thread_preempt_disable--;
 584:../Middlewares/threadx/common/src/tx_event_flags_set.c ****             }
 585:../Middlewares/threadx/common/src/tx_event_flags_set.c ****         }
 586:../Middlewares/threadx/common/src/tx_event_flags_set.c ****         else
 587:../Middlewares/threadx/common/src/tx_event_flags_set.c ****         {
 588:../Middlewares/threadx/common/src/tx_event_flags_set.c **** 
 589:../Middlewares/threadx/common/src/tx_event_flags_set.c ****             /* Determine if we need to set the reset search field.  */
 590:../Middlewares/threadx/common/src/tx_event_flags_set.c ****             if (group_ptr -> tx_event_flags_group_suspended_count != TX_NO_SUSPENSIONS)
 591:../Middlewares/threadx/common/src/tx_event_flags_set.c ****             {
 592:../Middlewares/threadx/common/src/tx_event_flags_set.c **** 
 593:../Middlewares/threadx/common/src/tx_event_flags_set.c ****                 /* We interrupted a search of an event flag group suspension
 594:../Middlewares/threadx/common/src/tx_event_flags_set.c ****                    list.  Make sure we reset the search.  */
 595:../Middlewares/threadx/common/src/tx_event_flags_set.c ****                 group_ptr -> tx_event_flags_group_reset_search =  TX_TRUE;
 596:../Middlewares/threadx/common/src/tx_event_flags_set.c ****             }
 597:../Middlewares/threadx/common/src/tx_event_flags_set.c ****         }
 598:../Middlewares/threadx/common/src/tx_event_flags_set.c **** 
 599:../Middlewares/threadx/common/src/tx_event_flags_set.c ****         /* Restore interrupts.  */
 600:../Middlewares/threadx/common/src/tx_event_flags_set.c ****         TX_RESTORE
 601:../Middlewares/threadx/common/src/tx_event_flags_set.c **** 
 602:../Middlewares/threadx/common/src/tx_event_flags_set.c **** #ifndef TX_DISABLE_NOTIFY_CALLBACKS
 603:../Middlewares/threadx/common/src/tx_event_flags_set.c **** 
 604:../Middlewares/threadx/common/src/tx_event_flags_set.c ****         /* Determine if a notify callback is required.  */
 605:../Middlewares/threadx/common/src/tx_event_flags_set.c ****         if (events_set_notify != TX_NULL)
 606:../Middlewares/threadx/common/src/tx_event_flags_set.c ****         {
 607:../Middlewares/threadx/common/src/tx_event_flags_set.c **** 
 608:../Middlewares/threadx/common/src/tx_event_flags_set.c ****             /* Call application event flags set notification.  */
 609:../Middlewares/threadx/common/src/tx_event_flags_set.c ****             (events_set_notify)(group_ptr);
 610:../Middlewares/threadx/common/src/tx_event_flags_set.c ****         }
 611:../Middlewares/threadx/common/src/tx_event_flags_set.c **** #endif
 612:../Middlewares/threadx/common/src/tx_event_flags_set.c **** 
 613:../Middlewares/threadx/common/src/tx_event_flags_set.c ****         /* Determine if a check for preemption is necessary.  */
 614:../Middlewares/threadx/common/src/tx_event_flags_set.c ****         if (preempt_check == TX_TRUE)
 615:../Middlewares/threadx/common/src/tx_event_flags_set.c ****         {
 616:../Middlewares/threadx/common/src/tx_event_flags_set.c **** 
 617:../Middlewares/threadx/common/src/tx_event_flags_set.c ****             /* Yes, one or more threads were resumed, check for preemption.  */
 618:../Middlewares/threadx/common/src/tx_event_flags_set.c ****             _tx_thread_system_preempt_check();
 619:../Middlewares/threadx/common/src/tx_event_flags_set.c ****         }
 620:../Middlewares/threadx/common/src/tx_event_flags_set.c ****     }
 621:../Middlewares/threadx/common/src/tx_event_flags_set.c **** 
 622:../Middlewares/threadx/common/src/tx_event_flags_set.c ****     /* Return completion status.  */
 623:../Middlewares/threadx/common/src/tx_event_flags_set.c ****     return(TX_SUCCESS);
 285              		.loc 1 623 5 is_stmt 1 view .LVU100
 624:../Middlewares/threadx/common/src/tx_event_flags_set.c **** }
 286              		.loc 1 624 1 is_stmt 0 view .LVU101
 287 008e 0020     		movs	r0, #0
 288 0090 03B0     		add	sp, sp, #12
 289              		.cfi_remember_state
 290              		.cfi_def_cfa_offset 36
 291              		@ sp needed
ARM GAS  /tmp/ccM0YDds.s 			page 28


 292 0092 BDE8F08F 		pop	{r4, r5, r6, r7, r8, r9, r10, fp, pc}
 293              	.LVL24:
 294              	.L5:
 295              		.cfi_restore_state
 296              	.LBB52:
 126:../Middlewares/threadx/common/src/tx_event_flags_set.c **** 
 297              		.loc 1 126 5 is_stmt 1 discriminator 4 view .LVU102
 298 0096 B2F1F03F 		cmp	r2, #-252645136
 126:../Middlewares/threadx/common/src/tx_event_flags_set.c **** 
 299              		.loc 1 126 5 discriminator 6 view .LVU103
 300 009a 35BF     		itete	cc
 301 009c 0146     		movcc	r1, r0
 302              	.LVL25:
 126:../Middlewares/threadx/common/src/tx_event_flags_set.c **** 
 303              		.loc 1 126 5 view .LVU104
 126:../Middlewares/threadx/common/src/tx_event_flags_set.c **** 
 304              		.loc 1 126 5 is_stmt 0 discriminator 7 view .LVU105
 305 009e 4FF0F030 		movcs	r0, #-252645136
 126:../Middlewares/threadx/common/src/tx_event_flags_set.c **** 
 306              		.loc 1 126 5 discriminator 6 view .LVU106
 307 00a2 4FF0FF30 		movcc	r0, #-1
 308              	.LVL26:
 126:../Middlewares/threadx/common/src/tx_event_flags_set.c **** 
 309              		.loc 1 126 5 discriminator 7 view .LVU107
 310 00a6 0021     		movcs	r1, #0
 311 00a8 C8E7     		b	.L6
 312              	.LVL27:
 313              	.L7:
 126:../Middlewares/threadx/common/src/tx_event_flags_set.c **** 
 314              		.loc 1 126 5 is_stmt 1 discriminator 11 view .LVU108
 315 00aa 3360     		str	r3, [r6]
 126:../Middlewares/threadx/common/src/tx_event_flags_set.c **** 
 316              		.loc 1 126 5 view .LVU109
 126:../Middlewares/threadx/common/src/tx_event_flags_set.c **** 
 317              		.loc 1 126 5 is_stmt 0 discriminator 11 view .LVU110
 318 00ac 0362     		str	r3, [r0, #32]
 319 00ae E1E7     		b	.L3
 320              	.LVL28:
 321              	.L9:
 126:../Middlewares/threadx/common/src/tx_event_flags_set.c **** 
 322              		.loc 1 126 5 discriminator 11 view .LVU111
 323              	.LBE52:
 171:../Middlewares/threadx/common/src/tx_event_flags_set.c ****                 group_ptr -> tx_event_flags_group_current & flags_to_set;
 324              		.loc 1 171 13 is_stmt 1 view .LVU112
 172:../Middlewares/threadx/common/src/tx_event_flags_set.c **** 
 325              		.loc 1 172 59 is_stmt 0 view .LVU113
 326 00b0 A368     		ldr	r3, [r4, #8]
 327 00b2 3B40     		ands	r3, r3, r7
 171:../Middlewares/threadx/common/src/tx_event_flags_set.c ****                 group_ptr -> tx_event_flags_group_current & flags_to_set;
 328              		.loc 1 171 55 view .LVU114
 329 00b4 A360     		str	r3, [r4, #8]
 330 00b6 E8E7     		b	.L10
 331              	.L8:
 188:../Middlewares/threadx/common/src/tx_event_flags_set.c **** #endif
 332              		.loc 1 188 9 is_stmt 1 view .LVU115
 188:../Middlewares/threadx/common/src/tx_event_flags_set.c **** #endif
 333              		.loc 1 188 27 is_stmt 0 view .LVU116
ARM GAS  /tmp/ccM0YDds.s 			page 29


 334 00b8 636A     		ldr	r3, [r4, #36]
 198:../Middlewares/threadx/common/src/tx_event_flags_set.c ****         {
 335              		.loc 1 198 23 view .LVU117
 336 00ba 226A     		ldr	r2, [r4, #32]
 188:../Middlewares/threadx/common/src/tx_event_flags_set.c **** #endif
 337              		.loc 1 188 27 view .LVU118
 338 00bc 0193     		str	r3, [sp, #4]
 339              	.LVL29:
 192:../Middlewares/threadx/common/src/tx_event_flags_set.c ****             group_ptr -> tx_event_flags_group_current | flags_to_set;
 340              		.loc 1 192 9 is_stmt 1 view .LVU119
 193:../Middlewares/threadx/common/src/tx_event_flags_set.c **** 
 341              		.loc 1 193 55 is_stmt 0 view .LVU120
 342 00be A368     		ldr	r3, [r4, #8]
 343              	.LVL30:
 193:../Middlewares/threadx/common/src/tx_event_flags_set.c **** 
 344              		.loc 1 193 55 view .LVU121
 345 00c0 3B43     		orrs	r3, r3, r7
 192:../Middlewares/threadx/common/src/tx_event_flags_set.c ****             group_ptr -> tx_event_flags_group_current | flags_to_set;
 346              		.loc 1 192 51 view .LVU122
 347 00c2 A360     		str	r3, [r4, #8]
 198:../Middlewares/threadx/common/src/tx_event_flags_set.c ****         {
 348              		.loc 1 198 9 is_stmt 1 view .LVU123
 198:../Middlewares/threadx/common/src/tx_event_flags_set.c ****         {
 349              		.loc 1 198 12 is_stmt 0 view .LVU124
 350 00c4 12B1     		cbz	r2, .L12
 202:../Middlewares/threadx/common/src/tx_event_flags_set.c ****                                         group_ptr -> tx_event_flags_group_delayed_clear & ~flags_to
 351              		.loc 1 202 13 is_stmt 1 view .LVU125
 203:../Middlewares/threadx/common/src/tx_event_flags_set.c ****         }
 352              		.loc 1 203 89 is_stmt 0 view .LVU126
 353 00c6 22EA0702 		bic	r2, r2, r7
 202:../Middlewares/threadx/common/src/tx_event_flags_set.c ****                                         group_ptr -> tx_event_flags_group_delayed_clear & ~flags_to
 354              		.loc 1 202 61 view .LVU127
 355 00ca 2262     		str	r2, [r4, #32]
 356              	.L12:
 208:../Middlewares/threadx/common/src/tx_event_flags_set.c **** 
 357              		.loc 1 208 9 is_stmt 1 view .LVU128
 358              	.LVL31:
 211:../Middlewares/threadx/common/src/tx_event_flags_set.c **** 
 359              		.loc 1 211 9 view .LVU129
 214:../Middlewares/threadx/common/src/tx_event_flags_set.c ****         {
 360              		.loc 1 214 9 view .LVU130
 214:../Middlewares/threadx/common/src/tx_event_flags_set.c ****         {
 361              		.loc 1 214 23 is_stmt 0 view .LVU131
 362 00cc 2069     		ldr	r0, [r4, #16]
 214:../Middlewares/threadx/common/src/tx_event_flags_set.c ****         {
 363              		.loc 1 214 12 view .LVU132
 364 00ce 0028     		cmp	r0, #0
 365 00d0 00F0AF80 		beq	.L13
 219:../Middlewares/threadx/common/src/tx_event_flags_set.c ****             {
 366              		.loc 1 219 13 is_stmt 1 view .LVU133
 219:../Middlewares/threadx/common/src/tx_event_flags_set.c ****             {
 367              		.loc 1 219 16 is_stmt 0 view .LVU134
 368 00d4 012E     		cmp	r6, #1
 369 00d6 2DD1     		bne	.L14
 226:../Middlewares/threadx/common/src/tx_event_flags_set.c **** 
 370              		.loc 1 226 17 is_stmt 1 view .LVU135
 371              	.LVL32:
ARM GAS  /tmp/ccM0YDds.s 			page 30


 229:../Middlewares/threadx/common/src/tx_event_flags_set.c **** 
 372              		.loc 1 229 17 view .LVU136
 232:../Middlewares/threadx/common/src/tx_event_flags_set.c **** 
 373              		.loc 1 232 17 view .LVU137
 235:../Middlewares/threadx/common/src/tx_event_flags_set.c **** 
 374              		.loc 1 235 28 is_stmt 0 view .LVU138
 375 00d8 D0F88060 		ldr	r6, [r0, #128]
 232:../Middlewares/threadx/common/src/tx_event_flags_set.c **** 
 376              		.loc 1 232 33 view .LVU139
 377 00dc 826F     		ldr	r2, [r0, #120]
 378              	.LVL33:
 235:../Middlewares/threadx/common/src/tx_event_flags_set.c **** 
 379              		.loc 1 235 17 is_stmt 1 view .LVU140
 238:../Middlewares/threadx/common/src/tx_event_flags_set.c **** 
 380              		.loc 1 238 17 view .LVU141
 241:../Middlewares/threadx/common/src/tx_event_flags_set.c ****                 {
 381              		.loc 1 241 17 view .LVU142
 241:../Middlewares/threadx/common/src/tx_event_flags_set.c ****                 {
 382              		.loc 1 241 20 is_stmt 0 view .LVU143
 383 00de B707     		lsls	r7, r6, #30
 384              	.LVL34:
 247:../Middlewares/threadx/common/src/tx_event_flags_set.c **** 
 385              		.loc 1 247 37 view .LVU144
 386 00e0 03EA0201 		and	r1, r3, r2
 241:../Middlewares/threadx/common/src/tx_event_flags_set.c ****                 {
 387              		.loc 1 241 20 view .LVU145
 388 00e4 01D5     		bpl	.L15
 247:../Middlewares/threadx/common/src/tx_event_flags_set.c **** 
 389              		.loc 1 247 21 is_stmt 1 view .LVU146
 390              	.LVL35:
 250:../Middlewares/threadx/common/src/tx_event_flags_set.c ****                     {
 391              		.loc 1 250 21 view .LVU147
 250:../Middlewares/threadx/common/src/tx_event_flags_set.c ****                     {
 392              		.loc 1 250 24 is_stmt 0 view .LVU148
 393 00e6 8A42     		cmp	r2, r1
 394 00e8 18D1     		bne	.L18
 395              	.LVL36:
 396              	.L15:
 265:../Middlewares/threadx/common/src/tx_event_flags_set.c ****                 {
 397              		.loc 1 265 17 is_stmt 1 view .LVU149
 265:../Middlewares/threadx/common/src/tx_event_flags_set.c ****                 {
 398              		.loc 1 265 20 is_stmt 0 view .LVU150
 399 00ea B9B1     		cbz	r1, .L18
 272:../Middlewares/threadx/common/src/tx_event_flags_set.c ****                     *suspend_info_ptr =  current_event_flags;
 400              		.loc 1 272 21 is_stmt 1 view .LVU151
 401              	.LVL37:
 273:../Middlewares/threadx/common/src/tx_event_flags_set.c **** 
 402              		.loc 1 273 21 view .LVU152
 273:../Middlewares/threadx/common/src/tx_event_flags_set.c **** 
 403              		.loc 1 273 39 is_stmt 0 view .LVU153
 404 00ec C16F     		ldr	r1, [r0, #124]
 405              	.LVL38:
 273:../Middlewares/threadx/common/src/tx_event_flags_set.c **** 
 406              		.loc 1 273 39 view .LVU154
 407 00ee 0B60     		str	r3, [r1]
 276:../Middlewares/threadx/common/src/tx_event_flags_set.c **** 
 408              		.loc 1 276 21 is_stmt 1 view .LVU155
ARM GAS  /tmp/ccM0YDds.s 			page 31


 409              	.LVL39:
 279:../Middlewares/threadx/common/src/tx_event_flags_set.c ****                     {
 410              		.loc 1 279 21 view .LVU156
 279:../Middlewares/threadx/common/src/tx_event_flags_set.c ****                     {
 411              		.loc 1 279 24 is_stmt 0 view .LVU157
 412 00f0 F307     		lsls	r3, r6, #31
 413              	.LVL40:
 283:../Middlewares/threadx/common/src/tx_event_flags_set.c ****                     }
 414              		.loc 1 283 25 is_stmt 1 view .LVU158
 283:../Middlewares/threadx/common/src/tx_event_flags_set.c ****                     }
 415              		.loc 1 283 112 is_stmt 0 view .LVU159
 416 00f2 42BF     		ittt	mi
 417 00f4 A368     		ldrmi	r3, [r4, #8]
 418 00f6 9343     		bicmi	r3, r3, r2
 283:../Middlewares/threadx/common/src/tx_event_flags_set.c ****                     }
 419              		.loc 1 283 67 view .LVU160
 420 00f8 A360     		strmi	r3, [r4, #8]
 421              	.LVL41:
 287:../Middlewares/threadx/common/src/tx_event_flags_set.c ****                     group_ptr -> tx_event_flags_group_suspended_count =  TX_NO_SUSPENSIONS;
 422              		.loc 1 287 21 is_stmt 1 view .LVU161
 287:../Middlewares/threadx/common/src/tx_event_flags_set.c ****                     group_ptr -> tx_event_flags_group_suspended_count =  TX_NO_SUSPENSIONS;
 423              		.loc 1 287 71 is_stmt 0 view .LVU162
 424 00fa 0023     		movs	r3, #0
 303:../Middlewares/threadx/common/src/tx_event_flags_set.c **** 
 425              		.loc 1 303 47 view .LVU163
 426 00fc 594A     		ldr	r2, .L77+36
 427              	.LVL42:
 288:../Middlewares/threadx/common/src/tx_event_flags_set.c **** 
 428              		.loc 1 288 71 view .LVU164
 429 00fe C4E90433 		strd	r3, r3, [r4, #16]
 430              	.LVL43:
 291:../Middlewares/threadx/common/src/tx_event_flags_set.c **** 
 431              		.loc 1 291 21 is_stmt 1 view .LVU165
 291:../Middlewares/threadx/common/src/tx_event_flags_set.c **** 
 432              		.loc 1 291 61 is_stmt 0 view .LVU166
 433 0102 8366     		str	r3, [r0, #104]
 294:../Middlewares/threadx/common/src/tx_event_flags_set.c **** 
 434              		.loc 1 294 21 is_stmt 1 view .LVU167
 294:../Middlewares/threadx/common/src/tx_event_flags_set.c **** 
 435              		.loc 1 294 60 is_stmt 0 view .LVU168
 436 0104 C0F88430 		str	r3, [r0, #132]
 303:../Middlewares/threadx/common/src/tx_event_flags_set.c **** 
 437              		.loc 1 303 21 is_stmt 1 view .LVU169
 303:../Middlewares/threadx/common/src/tx_event_flags_set.c **** 
 438              		.loc 1 303 47 is_stmt 0 view .LVU170
 439 0108 1368     		ldr	r3, [r2]
 440 010a 0133     		adds	r3, r3, #1
 441 010c 1360     		str	r3, [r2]
 306:../Middlewares/threadx/common/src/tx_event_flags_set.c **** 
 442              		.loc 1 306 21 is_stmt 1 view .LVU171
 443              	.LVL44:
 444              	.LBB53:
 445              	.LBI53:
 586:../Middlewares/threadx/ports/cortex_m55/gnu/inc/tx_port.h **** {
 446              		.loc 2 586 55 view .LVU172
 447              	.LBB54:
 591:../Middlewares/threadx/ports/cortex_m55/gnu/inc/tx_port.h **** #endif
ARM GAS  /tmp/ccM0YDds.s 			page 32


 448              		.loc 2 591 5 view .LVU173
 449              		.syntax unified
 450              	@ 591 "../Middlewares/threadx/ports/cortex_m55/gnu/inc/tx_port.h" 1
 451 010e 85F31088 		MSR  PRIMASK,r5
 452              	@ 0 "" 2
 453              	.LVL45:
 591:../Middlewares/threadx/ports/cortex_m55/gnu/inc/tx_port.h **** #endif
 454              		.loc 2 591 5 is_stmt 0 view .LVU174
 455              		.thumb
 456              		.syntax unified
 457              	.LBE54:
 458              	.LBE53:
 309:../Middlewares/threadx/common/src/tx_event_flags_set.c **** 
 459              		.loc 1 309 21 is_stmt 1 view .LVU175
 460 0112 FFF7FEFF 		bl	_tx_thread_system_resume
 461              	.LVL46:
 312:../Middlewares/threadx/common/src/tx_event_flags_set.c **** #endif
 462              		.loc 1 312 21 view .LVU176
 463              	.LBB55:
 464              	.LBI55:
 595:../Middlewares/threadx/ports/cortex_m55/gnu/inc/tx_port.h **** {
 465              		.loc 2 595 55 view .LVU177
 466              	.LBB56:
 597:../Middlewares/threadx/ports/cortex_m55/gnu/inc/tx_port.h **** 
 467              		.loc 2 597 1 view .LVU178
 599:../Middlewares/threadx/ports/cortex_m55/gnu/inc/tx_port.h **** 
 468              		.loc 2 599 5 view .LVU179
 469              	.LBB57:
 470              	.LBI57:
 563:../Middlewares/threadx/ports/cortex_m55/gnu/inc/tx_port.h **** {
 471              		.loc 2 563 55 view .LVU180
 472              	.LBB58:
 565:../Middlewares/threadx/ports/cortex_m55/gnu/inc/tx_port.h **** #ifdef TX_PORT_USE_BASEPRI
 473              		.loc 2 565 1 view .LVU181
 569:../Middlewares/threadx/ports/cortex_m55/gnu/inc/tx_port.h **** #endif
 474              		.loc 2 569 5 view .LVU182
 475              		.syntax unified
 476              	@ 569 "../Middlewares/threadx/ports/cortex_m55/gnu/inc/tx_port.h" 1
 477 0116 EFF31085 		MRS  r5, PRIMASK 
 478              	@ 0 "" 2
 479              	.LVL47:
 571:../Middlewares/threadx/ports/cortex_m55/gnu/inc/tx_port.h **** }
 480              		.loc 2 571 5 view .LVU183
 571:../Middlewares/threadx/ports/cortex_m55/gnu/inc/tx_port.h **** }
 481              		.loc 2 571 5 is_stmt 0 view .LVU184
 482              		.thumb
 483              		.syntax unified
 484              	.LBE58:
 485              	.LBE57:
 604:../Middlewares/threadx/ports/cortex_m55/gnu/inc/tx_port.h **** #endif
 486              		.loc 2 604 5 is_stmt 1 view .LVU185
 487              		.syntax unified
 488              	@ 604 "../Middlewares/threadx/ports/cortex_m55/gnu/inc/tx_port.h" 1
 489 011a 72B6     		CPSID i
 490              	@ 0 "" 2
 491              		.loc 2 606 5 view .LVU186
 492              	.LVL48:
ARM GAS  /tmp/ccM0YDds.s 			page 33


 493              		.thumb
 494              		.syntax unified
 495              	.L18:
 496              		.loc 2 606 5 is_stmt 0 view .LVU187
 497              	.LBE56:
 498              	.LBE55:
 600:../Middlewares/threadx/common/src/tx_event_flags_set.c **** 
 499              		.loc 1 600 9 is_stmt 1 view .LVU188
 500              	.LBB59:
 501              	.LBI59:
 586:../Middlewares/threadx/ports/cortex_m55/gnu/inc/tx_port.h **** {
 502              		.loc 2 586 55 view .LVU189
 503              	.LBB60:
 591:../Middlewares/threadx/ports/cortex_m55/gnu/inc/tx_port.h **** #endif
 504              		.loc 2 591 5 view .LVU190
 505              		.syntax unified
 506              	@ 591 "../Middlewares/threadx/ports/cortex_m55/gnu/inc/tx_port.h" 1
 507 011c 85F31088 		MSR  PRIMASK,r5
 508              	@ 0 "" 2
 509              	.LVL49:
 591:../Middlewares/threadx/ports/cortex_m55/gnu/inc/tx_port.h **** #endif
 510              		.loc 2 591 5 is_stmt 0 view .LVU191
 511              		.thumb
 512              		.syntax unified
 513              	.LBE60:
 514              	.LBE59:
 605:../Middlewares/threadx/common/src/tx_event_flags_set.c ****         {
 515              		.loc 1 605 9 is_stmt 1 view .LVU192
 605:../Middlewares/threadx/common/src/tx_event_flags_set.c ****         {
 516              		.loc 1 605 12 is_stmt 0 view .LVU193
 517 0120 019B     		ldr	r3, [sp, #4]
 518 0122 0BB1     		cbz	r3, .L30
 609:../Middlewares/threadx/common/src/tx_event_flags_set.c ****         }
 519              		.loc 1 609 13 is_stmt 1 view .LVU194
 520 0124 2046     		mov	r0, r4
 521 0126 9847     		blx	r3
 522              	.LVL50:
 523              	.L30:
 614:../Middlewares/threadx/common/src/tx_event_flags_set.c ****         {
 524              		.loc 1 614 9 view .LVU195
 614:../Middlewares/threadx/common/src/tx_event_flags_set.c ****         {
 525              		.loc 1 614 12 is_stmt 0 view .LVU196
 526 0128 B8F1010F 		cmp	r8, #1
 527 012c AFD1     		bne	.L11
 618:../Middlewares/threadx/common/src/tx_event_flags_set.c ****         }
 528              		.loc 1 618 13 is_stmt 1 view .LVU197
 529 012e FFF7FEFF 		bl	_tx_thread_system_preempt_check
 530              	.LVL51:
 531 0132 ACE7     		b	.L11
 532              	.LVL52:
 533              	.L14:
 323:../Middlewares/threadx/common/src/tx_event_flags_set.c ****                 thread_ptr =      suspended_list;
 534              		.loc 1 323 17 view .LVU198
 324:../Middlewares/threadx/common/src/tx_event_flags_set.c **** 
 535              		.loc 1 324 17 view .LVU199
 328:../Middlewares/threadx/common/src/tx_event_flags_set.c **** 
 536              		.loc 1 328 17 view .LVU200
ARM GAS  /tmp/ccM0YDds.s 			page 34


 328:../Middlewares/threadx/common/src/tx_event_flags_set.c **** 
 537              		.loc 1 328 67 is_stmt 0 view .LVU201
 538 0134 0021     		movs	r1, #0
 338:../Middlewares/threadx/common/src/tx_event_flags_set.c **** 
 539              		.loc 1 338 43 view .LVU202
 540 0136 4B4F     		ldr	r7, .L77+36
 541              	.LVL53:
 323:../Middlewares/threadx/common/src/tx_event_flags_set.c ****                 thread_ptr =      suspended_list;
 542              		.loc 1 323 32 view .LVU203
 543 0138 8446     		mov	ip, r0
 338:../Middlewares/threadx/common/src/tx_event_flags_set.c **** 
 544              		.loc 1 338 43 view .LVU204
 545 013a 3A68     		ldr	r2, [r7]
 363:../Middlewares/threadx/common/src/tx_event_flags_set.c **** 
 546              		.loc 1 363 72 view .LVU205
 547 013c 8E46     		mov	lr, r1
 338:../Middlewares/threadx/common/src/tx_event_flags_set.c **** 
 548              		.loc 1 338 43 view .LVU206
 549 013e 0132     		adds	r2, r2, #1
 550 0140 3A60     		str	r2, [r7]
 331:../Middlewares/threadx/common/src/tx_event_flags_set.c ****                 last_satisfied =  TX_NULL;
 551              		.loc 1 331 32 view .LVU207
 552 0142 0A46     		mov	r2, r1
 328:../Middlewares/threadx/common/src/tx_event_flags_set.c **** 
 553              		.loc 1 328 67 view .LVU208
 554 0144 2161     		str	r1, [r4, #16]
 331:../Middlewares/threadx/common/src/tx_event_flags_set.c ****                 last_satisfied =  TX_NULL;
 555              		.loc 1 331 17 is_stmt 1 view .LVU209
 556              	.LVL54:
 332:../Middlewares/threadx/common/src/tx_event_flags_set.c **** 
 557              		.loc 1 332 17 view .LVU210
 335:../Middlewares/threadx/common/src/tx_event_flags_set.c **** 
 558              		.loc 1 335 17 view .LVU211
 338:../Middlewares/threadx/common/src/tx_event_flags_set.c **** 
 559              		.loc 1 338 17 view .LVU212
 343:../Middlewares/threadx/common/src/tx_event_flags_set.c **** 
 560              		.loc 1 343 17 view .LVU213
 332:../Middlewares/threadx/common/src/tx_event_flags_set.c **** 
 561              		.loc 1 332 32 is_stmt 0 view .LVU214
 562 0146 0091     		str	r1, [sp]
 563              	.LVL55:
 564              	.L26:
 346:../Middlewares/threadx/common/src/tx_event_flags_set.c ****                 {
 565              		.loc 1 346 17 is_stmt 1 view .LVU215
 352:../Middlewares/threadx/common/src/tx_event_flags_set.c **** 
 566              		.loc 1 352 21 view .LVU216
 567              	.LBB61:
 568              	.LBI61:
 586:../Middlewares/threadx/ports/cortex_m55/gnu/inc/tx_port.h **** {
 569              		.loc 2 586 55 view .LVU217
 570              	.LBB62:
 591:../Middlewares/threadx/ports/cortex_m55/gnu/inc/tx_port.h **** #endif
 571              		.loc 2 591 5 view .LVU218
 572              		.syntax unified
 573              	@ 591 "../Middlewares/threadx/ports/cortex_m55/gnu/inc/tx_port.h" 1
 574 0148 85F31088 		MSR  PRIMASK,r5
 575              	@ 0 "" 2
ARM GAS  /tmp/ccM0YDds.s 			page 35


 576              	.LVL56:
 591:../Middlewares/threadx/ports/cortex_m55/gnu/inc/tx_port.h **** #endif
 577              		.loc 2 591 5 is_stmt 0 view .LVU219
 578              		.thumb
 579              		.syntax unified
 580              	.LBE62:
 581              	.LBE61:
 355:../Middlewares/threadx/common/src/tx_event_flags_set.c **** #endif
 582              		.loc 1 355 21 is_stmt 1 view .LVU220
 583              	.LBB63:
 584              	.LBI63:
 595:../Middlewares/threadx/ports/cortex_m55/gnu/inc/tx_port.h **** {
 585              		.loc 2 595 55 view .LVU221
 586              	.LBB64:
 597:../Middlewares/threadx/ports/cortex_m55/gnu/inc/tx_port.h **** 
 587              		.loc 2 597 1 view .LVU222
 599:../Middlewares/threadx/ports/cortex_m55/gnu/inc/tx_port.h **** 
 588              		.loc 2 599 5 view .LVU223
 589              	.LBB65:
 590              	.LBI65:
 563:../Middlewares/threadx/ports/cortex_m55/gnu/inc/tx_port.h **** {
 591              		.loc 2 563 55 view .LVU224
 592              	.LBB66:
 565:../Middlewares/threadx/ports/cortex_m55/gnu/inc/tx_port.h **** #ifdef TX_PORT_USE_BASEPRI
 593              		.loc 2 565 1 view .LVU225
 569:../Middlewares/threadx/ports/cortex_m55/gnu/inc/tx_port.h **** #endif
 594              		.loc 2 569 5 view .LVU226
 595              		.syntax unified
 596              	@ 569 "../Middlewares/threadx/ports/cortex_m55/gnu/inc/tx_port.h" 1
 597 014c EFF31085 		MRS  r5, PRIMASK 
 598              	@ 0 "" 2
 599              	.LVL57:
 571:../Middlewares/threadx/ports/cortex_m55/gnu/inc/tx_port.h **** }
 600              		.loc 2 571 5 view .LVU227
 571:../Middlewares/threadx/ports/cortex_m55/gnu/inc/tx_port.h **** }
 601              		.loc 2 571 5 is_stmt 0 view .LVU228
 602              		.thumb
 603              		.syntax unified
 604              	.LBE66:
 605              	.LBE65:
 604:../Middlewares/threadx/ports/cortex_m55/gnu/inc/tx_port.h **** #endif
 606              		.loc 2 604 5 is_stmt 1 view .LVU229
 607              		.syntax unified
 608              	@ 604 "../Middlewares/threadx/ports/cortex_m55/gnu/inc/tx_port.h" 1
 609 0150 72B6     		CPSID i
 610              	@ 0 "" 2
 611              		.loc 2 606 5 view .LVU230
 612              	.LVL58:
 613              		.loc 2 606 5 is_stmt 0 view .LVU231
 614              		.thumb
 615              		.syntax unified
 616              	.LBE64:
 617              	.LBE63:
 359:../Middlewares/threadx/common/src/tx_event_flags_set.c ****                     {
 618              		.loc 1 359 21 is_stmt 1 view .LVU232
 359:../Middlewares/threadx/common/src/tx_event_flags_set.c ****                     {
 619              		.loc 1 359 24 is_stmt 0 view .LVU233
ARM GAS  /tmp/ccM0YDds.s 			page 36


 620 0152 E168     		ldr	r1, [r4, #12]
 621 0154 29B1     		cbz	r1, .L19
 363:../Middlewares/threadx/common/src/tx_event_flags_set.c **** 
 622              		.loc 1 363 25 is_stmt 1 view .LVU234
 373:../Middlewares/threadx/common/src/tx_event_flags_set.c ****                     }
 623              		.loc 1 373 45 is_stmt 0 view .LVU235
 624 0156 A068     		ldr	r0, [r4, #8]
 625              	.LVL59:
 369:../Middlewares/threadx/common/src/tx_event_flags_set.c **** 
 626              		.loc 1 369 41 view .LVU236
 627 0158 6669     		ldr	r6, [r4, #20]
 628              	.LVL60:
 373:../Middlewares/threadx/common/src/tx_event_flags_set.c ****                     }
 629              		.loc 1 373 45 view .LVU237
 630 015a 0343     		orrs	r3, r3, r0
 631              	.LVL61:
 366:../Middlewares/threadx/common/src/tx_event_flags_set.c **** 
 632              		.loc 1 366 36 view .LVU238
 633 015c 6046     		mov	r0, ip
 363:../Middlewares/threadx/common/src/tx_event_flags_set.c **** 
 634              		.loc 1 363 72 view .LVU239
 635 015e C4F80CE0 		str	lr, [r4, #12]
 366:../Middlewares/threadx/common/src/tx_event_flags_set.c **** 
 636              		.loc 1 366 25 is_stmt 1 view .LVU240
 637              	.LVL62:
 369:../Middlewares/threadx/common/src/tx_event_flags_set.c **** 
 638              		.loc 1 369 25 view .LVU241
 373:../Middlewares/threadx/common/src/tx_event_flags_set.c ****                     }
 639              		.loc 1 373 25 view .LVU242
 640              	.L19:
 377:../Middlewares/threadx/common/src/tx_event_flags_set.c **** 
 641              		.loc 1 377 21 view .LVU243
 383:../Middlewares/threadx/common/src/tx_event_flags_set.c **** 
 642              		.loc 1 383 32 is_stmt 0 view .LVU244
 643 0162 D0F880B0 		ldr	fp, [r0, #128]
 380:../Middlewares/threadx/common/src/tx_event_flags_set.c **** 
 644              		.loc 1 380 37 view .LVU245
 645 0166 D0F87890 		ldr	r9, [r0, #120]
 389:../Middlewares/threadx/common/src/tx_event_flags_set.c ****                     {
 646              		.loc 1 389 24 view .LVU246
 647 016a 1BF0020F 		tst	fp, #2
 377:../Middlewares/threadx/common/src/tx_event_flags_set.c **** 
 648              		.loc 1 377 37 view .LVU247
 649 016e D0F87080 		ldr	r8, [r0, #112]
 650              	.LVL63:
 380:../Middlewares/threadx/common/src/tx_event_flags_set.c **** 
 651              		.loc 1 380 21 is_stmt 1 view .LVU248
 383:../Middlewares/threadx/common/src/tx_event_flags_set.c **** 
 652              		.loc 1 383 21 view .LVU249
 386:../Middlewares/threadx/common/src/tx_event_flags_set.c **** 
 653              		.loc 1 386 21 view .LVU250
 389:../Middlewares/threadx/common/src/tx_event_flags_set.c ****                     {
 654              		.loc 1 389 21 view .LVU251
 395:../Middlewares/threadx/common/src/tx_event_flags_set.c **** 
 655              		.loc 1 395 41 is_stmt 0 view .LVU252
 656 0172 03EA090A 		and	r10, r3, r9
 389:../Middlewares/threadx/common/src/tx_event_flags_set.c ****                     {
ARM GAS  /tmp/ccM0YDds.s 			page 37


 657              		.loc 1 389 24 view .LVU253
 658 0176 03D0     		beq	.L20
 395:../Middlewares/threadx/common/src/tx_event_flags_set.c **** 
 659              		.loc 1 395 25 is_stmt 1 view .LVU254
 660              	.LVL64:
 398:../Middlewares/threadx/common/src/tx_event_flags_set.c ****                         {
 661              		.loc 1 398 25 view .LVU255
 402:../Middlewares/threadx/common/src/tx_event_flags_set.c ****                         }
 662              		.loc 1 402 45 is_stmt 0 view .LVU256
 663 0178 D145     		cmp	r9, r10
 664 017a 18BF     		it	ne
 665 017c 4FF0000A 		movne	r10, #0
 666              	.LVL65:
 667              	.L20:
 415:../Middlewares/threadx/common/src/tx_event_flags_set.c ****                     {
 668              		.loc 1 415 21 is_stmt 1 view .LVU257
 415:../Middlewares/threadx/common/src/tx_event_flags_set.c ****                     {
 669              		.loc 1 415 24 is_stmt 0 view .LVU258
 670 0180 016B     		ldr	r1, [r0, #48]
 671 0182 0729     		cmp	r1, #7
 672 0184 10D1     		bne	.L21
 423:../Middlewares/threadx/common/src/tx_event_flags_set.c ****                     {
 673              		.loc 1 423 21 is_stmt 1 view .LVU259
 423:../Middlewares/threadx/common/src/tx_event_flags_set.c ****                     {
 674              		.loc 1 423 24 is_stmt 0 view .LVU260
 675 0186 BAF1000F 		cmp	r10, #0
 676 018a 22D0     		beq	.L22
 677              	.LVL66:
 430:../Middlewares/threadx/common/src/tx_event_flags_set.c ****                         {
 678              		.loc 1 430 25 is_stmt 1 view .LVU261
 434:../Middlewares/threadx/common/src/tx_event_flags_set.c ****                             *suspend_info_ptr =  current_event_flags;
 679              		.loc 1 434 29 view .LVU262
 435:../Middlewares/threadx/common/src/tx_event_flags_set.c **** 
 680              		.loc 1 435 29 view .LVU263
 435:../Middlewares/threadx/common/src/tx_event_flags_set.c **** 
 681              		.loc 1 435 47 is_stmt 0 view .LVU264
 682 018c C16F     		ldr	r1, [r0, #124]
 441:../Middlewares/threadx/common/src/tx_event_flags_set.c ****                             {
 683              		.loc 1 441 32 view .LVU265
 684 018e 1BF0010F 		tst	fp, #1
 435:../Middlewares/threadx/common/src/tx_event_flags_set.c **** 
 685              		.loc 1 435 47 view .LVU266
 686 0192 0B60     		str	r3, [r1]
 438:../Middlewares/threadx/common/src/tx_event_flags_set.c **** 
 687              		.loc 1 438 29 is_stmt 1 view .LVU267
 688              	.LVL67:
 441:../Middlewares/threadx/common/src/tx_event_flags_set.c ****                             {
 689              		.loc 1 441 29 view .LVU268
 445:../Middlewares/threadx/common/src/tx_event_flags_set.c ****                             }
 690              		.loc 1 445 33 view .LVU269
 445:../Middlewares/threadx/common/src/tx_event_flags_set.c ****                             }
 691              		.loc 1 445 120 is_stmt 0 view .LVU270
 692 0194 1EBF     		ittt	ne
 693 0196 A168     		ldrne	r1, [r4, #8]
 694 0198 21EA0909 		bicne	r9, r1, r9
 695              	.LVL68:
 445:../Middlewares/threadx/common/src/tx_event_flags_set.c ****                             }
ARM GAS  /tmp/ccM0YDds.s 			page 38


 696              		.loc 1 445 75 view .LVU271
 697 019c C4F80890 		strne	r9, [r4, #8]
 451:../Middlewares/threadx/common/src/tx_event_flags_set.c **** 
 698              		.loc 1 451 29 is_stmt 1 view .LVU272
 451:../Middlewares/threadx/common/src/tx_event_flags_set.c **** 
 699              		.loc 1 451 69 is_stmt 0 view .LVU273
 700 01a0 C0F868E0 		str	lr, [r0, #104]
 454:../Middlewares/threadx/common/src/tx_event_flags_set.c ****                         }
 701              		.loc 1 454 29 is_stmt 1 view .LVU274
 454:../Middlewares/threadx/common/src/tx_event_flags_set.c ****                         }
 702              		.loc 1 454 68 is_stmt 0 view .LVU275
 703 01a4 C0F884E0 		str	lr, [r0, #132]
 704              	.LVL69:
 705              	.L21:
 461:../Middlewares/threadx/common/src/tx_event_flags_set.c ****                         {
 706              		.loc 1 461 25 is_stmt 1 view .LVU276
 461:../Middlewares/threadx/common/src/tx_event_flags_set.c ****                         {
 707              		.loc 1 461 28 is_stmt 0 view .LVU277
 708 01a8 4045     		cmp	r0, r8
 709 01aa 2BD0     		beq	.L33
 475:../Middlewares/threadx/common/src/tx_event_flags_set.c ****                             previous_thread =                              thread_ptr -> tx_thread_
 710              		.loc 1 475 29 is_stmt 1 view .LVU278
 711              	.LVL70:
 476:../Middlewares/threadx/common/src/tx_event_flags_set.c ****                             next_thread -> tx_thread_suspended_previous =  previous_thread;
 712              		.loc 1 476 29 view .LVU279
 476:../Middlewares/threadx/common/src/tx_event_flags_set.c ****                             next_thread -> tx_thread_suspended_previous =  previous_thread;
 713              		.loc 1 476 45 is_stmt 0 view .LVU280
 714 01ac D0F87490 		ldr	r9, [r0, #116]
 715              	.LVL71:
 477:../Middlewares/threadx/common/src/tx_event_flags_set.c ****                             previous_thread -> tx_thread_suspended_next =  next_thread;
 716              		.loc 1 477 29 is_stmt 1 view .LVU281
 482:../Middlewares/threadx/common/src/tx_event_flags_set.c ****                             {
 717              		.loc 1 482 32 is_stmt 0 view .LVU282
 718 01b0 6045     		cmp	r0, ip
 477:../Middlewares/threadx/common/src/tx_event_flags_set.c ****                             previous_thread -> tx_thread_suspended_next =  next_thread;
 719              		.loc 1 477 73 view .LVU283
 720 01b2 C8F87490 		str	r9, [r8, #116]
 478:../Middlewares/threadx/common/src/tx_event_flags_set.c **** 
 721              		.loc 1 478 29 is_stmt 1 view .LVU284
 478:../Middlewares/threadx/common/src/tx_event_flags_set.c **** 
 722              		.loc 1 478 73 is_stmt 0 view .LVU285
 723 01b6 C9F87080 		str	r8, [r9, #112]
 482:../Middlewares/threadx/common/src/tx_event_flags_set.c ****                             {
 724              		.loc 1 482 29 is_stmt 1 view .LVU286
 482:../Middlewares/threadx/common/src/tx_event_flags_set.c ****                             {
 725              		.loc 1 482 32 is_stmt 0 view .LVU287
 726 01ba 01D1     		bne	.L24
 486:../Middlewares/threadx/common/src/tx_event_flags_set.c ****                             }
 727              		.loc 1 486 33 is_stmt 1 view .LVU288
 486:../Middlewares/threadx/common/src/tx_event_flags_set.c ****                             }
 728              		.loc 1 486 48 is_stmt 0 view .LVU289
 729 01bc D0F870C0 		ldr	ip, [r0, #112]
 730              	.LVL72:
 731              	.L24:
 491:../Middlewares/threadx/common/src/tx_event_flags_set.c **** 
 732              		.loc 1 491 25 is_stmt 1 view .LVU290
 491:../Middlewares/threadx/common/src/tx_event_flags_set.c **** 
ARM GAS  /tmp/ccM0YDds.s 			page 39


 733              		.loc 1 491 74 is_stmt 0 view .LVU291
 734 01c0 6169     		ldr	r1, [r4, #20]
 735 01c2 01F1FF39 		add	r9, r1, #-1
 736 01c6 C4F81490 		str	r9, [r4, #20]
 494:../Middlewares/threadx/common/src/tx_event_flags_set.c ****                         {
 737              		.loc 1 494 25 is_stmt 1 view .LVU292
 494:../Middlewares/threadx/common/src/tx_event_flags_set.c ****                         {
 738              		.loc 1 494 28 is_stmt 0 view .LVU293
 739 01ca F2B9     		cbnz	r2, .L25
 498:../Middlewares/threadx/common/src/tx_event_flags_set.c ****                             last_satisfied =  thread_ptr;
 740              		.loc 1 498 29 is_stmt 1 view .LVU294
 741              	.LVL73:
 499:../Middlewares/threadx/common/src/tx_event_flags_set.c **** 
 742              		.loc 1 499 29 view .LVU295
 502:../Middlewares/threadx/common/src/tx_event_flags_set.c ****                         }
 743              		.loc 1 502 29 view .LVU296
 502:../Middlewares/threadx/common/src/tx_event_flags_set.c ****                         }
 744              		.loc 1 502 68 is_stmt 0 view .LVU297
 745 01cc 0267     		str	r2, [r0, #112]
 499:../Middlewares/threadx/common/src/tx_event_flags_set.c **** 
 746              		.loc 1 499 44 view .LVU298
 747 01ce 0246     		mov	r2, r0
 498:../Middlewares/threadx/common/src/tx_event_flags_set.c ****                             last_satisfied =  thread_ptr;
 748              		.loc 1 498 44 view .LVU299
 749 01d0 0090     		str	r0, [sp]
 750              	.LVL74:
 751              	.L22:
 517:../Middlewares/threadx/common/src/tx_event_flags_set.c **** 
 752              		.loc 1 517 21 is_stmt 1 view .LVU300
 520:../Middlewares/threadx/common/src/tx_event_flags_set.c **** 
 753              		.loc 1 520 21 view .LVU301
 522:../Middlewares/threadx/common/src/tx_event_flags_set.c **** 
 754              		.loc 1 522 42 view .LVU302
 755 01d2 013E     		subs	r6, r6, #1
 756              	.LVL75:
 522:../Middlewares/threadx/common/src/tx_event_flags_set.c **** 
 757              		.loc 1 522 42 is_stmt 0 view .LVU303
 758 01d4 14D1     		bne	.L34
 525:../Middlewares/threadx/common/src/tx_event_flags_set.c **** 
 759              		.loc 1 525 17 is_stmt 1 view .LVU304
 530:../Middlewares/threadx/common/src/tx_event_flags_set.c ****                 {
 760              		.loc 1 530 31 is_stmt 0 view .LVU305
 761 01d6 216A     		ldr	r1, [r4, #32]
 525:../Middlewares/threadx/common/src/tx_event_flags_set.c **** 
 762              		.loc 1 525 67 view .LVU306
 763 01d8 C4F810C0 		str	ip, [r4, #16]
 530:../Middlewares/threadx/common/src/tx_event_flags_set.c ****                 {
 764              		.loc 1 530 17 is_stmt 1 view .LVU307
 530:../Middlewares/threadx/common/src/tx_event_flags_set.c ****                 {
 765              		.loc 1 530 20 is_stmt 0 view .LVU308
 766 01dc 21B1     		cbz	r1, .L27
 534:../Middlewares/threadx/common/src/tx_event_flags_set.c ****                         group_ptr -> tx_event_flags_group_current & ~(group_ptr -> tx_event_flags_g
 767              		.loc 1 534 21 is_stmt 1 view .LVU309
 535:../Middlewares/threadx/common/src/tx_event_flags_set.c **** 
 768              		.loc 1 535 67 is_stmt 0 view .LVU310
 769 01de A368     		ldr	r3, [r4, #8]
 770              	.LVL76:
ARM GAS  /tmp/ccM0YDds.s 			page 40


 538:../Middlewares/threadx/common/src/tx_event_flags_set.c ****                 }
 771              		.loc 1 538 69 view .LVU311
 772 01e0 2662     		str	r6, [r4, #32]
 535:../Middlewares/threadx/common/src/tx_event_flags_set.c **** 
 773              		.loc 1 535 67 view .LVU312
 774 01e2 23EA0103 		bic	r3, r3, r1
 534:../Middlewares/threadx/common/src/tx_event_flags_set.c ****                         group_ptr -> tx_event_flags_group_current & ~(group_ptr -> tx_event_flags_g
 775              		.loc 1 534 63 view .LVU313
 776 01e6 A360     		str	r3, [r4, #8]
 538:../Middlewares/threadx/common/src/tx_event_flags_set.c ****                 }
 777              		.loc 1 538 21 is_stmt 1 view .LVU314
 778              	.L27:
 543:../Middlewares/threadx/common/src/tx_event_flags_set.c **** 
 779              		.loc 1 543 17 view .LVU315
 780              	.LVL77:
 781              	.LBB67:
 782              	.LBI67:
 586:../Middlewares/threadx/ports/cortex_m55/gnu/inc/tx_port.h **** {
 783              		.loc 2 586 55 view .LVU316
 784              	.LBB68:
 591:../Middlewares/threadx/ports/cortex_m55/gnu/inc/tx_port.h **** #endif
 785              		.loc 2 591 5 view .LVU317
 786              		.syntax unified
 787              	@ 591 "../Middlewares/threadx/ports/cortex_m55/gnu/inc/tx_port.h" 1
 788 01e8 85F31088 		MSR  PRIMASK,r5
 789              	@ 0 "" 2
 790              	.LVL78:
 591:../Middlewares/threadx/ports/cortex_m55/gnu/inc/tx_port.h **** #endif
 791              		.loc 2 591 5 is_stmt 0 view .LVU318
 792              		.thumb
 793              		.syntax unified
 794              	.LBE68:
 795              	.LBE67:
 546:../Middlewares/threadx/common/src/tx_event_flags_set.c ****                 while(thread_ptr != TX_NULL)
 796              		.loc 1 546 17 is_stmt 1 view .LVU319
 547:../Middlewares/threadx/common/src/tx_event_flags_set.c ****                 {
 797              		.loc 1 547 17 view .LVU320
 798              	.L28:
 547:../Middlewares/threadx/common/src/tx_event_flags_set.c ****                 {
 799              		.loc 1 547 34 view .LVU321
 800 01ec 9AB9     		cbnz	r2, .L29
 580:../Middlewares/threadx/common/src/tx_event_flags_set.c **** 
 801              		.loc 1 580 17 view .LVU322
 802              	.LBB69:
 803              	.LBI69:
 595:../Middlewares/threadx/ports/cortex_m55/gnu/inc/tx_port.h **** {
 804              		.loc 2 595 55 view .LVU323
 805              	.LBB70:
 597:../Middlewares/threadx/ports/cortex_m55/gnu/inc/tx_port.h **** 
 806              		.loc 2 597 1 view .LVU324
 599:../Middlewares/threadx/ports/cortex_m55/gnu/inc/tx_port.h **** 
 807              		.loc 2 599 5 view .LVU325
 808              	.LBB71:
 809              	.LBI71:
 563:../Middlewares/threadx/ports/cortex_m55/gnu/inc/tx_port.h **** {
 810              		.loc 2 563 55 view .LVU326
 811              	.LBB72:
ARM GAS  /tmp/ccM0YDds.s 			page 41


 565:../Middlewares/threadx/ports/cortex_m55/gnu/inc/tx_port.h **** #ifdef TX_PORT_USE_BASEPRI
 812              		.loc 2 565 1 view .LVU327
 569:../Middlewares/threadx/ports/cortex_m55/gnu/inc/tx_port.h **** #endif
 813              		.loc 2 569 5 view .LVU328
 814              		.syntax unified
 815              	@ 569 "../Middlewares/threadx/ports/cortex_m55/gnu/inc/tx_port.h" 1
 816 01ee EFF31085 		MRS  r5, PRIMASK 
 817              	@ 0 "" 2
 818              	.LVL79:
 571:../Middlewares/threadx/ports/cortex_m55/gnu/inc/tx_port.h **** }
 819              		.loc 2 571 5 view .LVU329
 571:../Middlewares/threadx/ports/cortex_m55/gnu/inc/tx_port.h **** }
 820              		.loc 2 571 5 is_stmt 0 view .LVU330
 821              		.thumb
 822              		.syntax unified
 823              	.LBE72:
 824              	.LBE71:
 604:../Middlewares/threadx/ports/cortex_m55/gnu/inc/tx_port.h **** #endif
 825              		.loc 2 604 5 is_stmt 1 view .LVU331
 826              		.syntax unified
 827              	@ 604 "../Middlewares/threadx/ports/cortex_m55/gnu/inc/tx_port.h" 1
 828 01f2 72B6     		CPSID i
 829              	@ 0 "" 2
 830              		.loc 2 606 5 view .LVU332
 831              	.LVL80:
 832              		.loc 2 606 5 is_stmt 0 view .LVU333
 833              		.thumb
 834              		.syntax unified
 835              	.LBE70:
 836              	.LBE69:
 583:../Middlewares/threadx/common/src/tx_event_flags_set.c ****             }
 837              		.loc 1 583 17 is_stmt 1 view .LVU334
 583:../Middlewares/threadx/common/src/tx_event_flags_set.c ****             }
 838              		.loc 1 583 43 is_stmt 0 view .LVU335
 839 01f4 3B68     		ldr	r3, [r7]
 343:../Middlewares/threadx/common/src/tx_event_flags_set.c **** 
 840              		.loc 1 343 31 view .LVU336
 841 01f6 4FF00108 		mov	r8, #1
 583:../Middlewares/threadx/common/src/tx_event_flags_set.c ****             }
 842              		.loc 1 583 43 view .LVU337
 843 01fa 013B     		subs	r3, r3, #1
 844 01fc 3B60     		str	r3, [r7]
 845 01fe 8DE7     		b	.L18
 846              	.LVL81:
 847              	.L34:
 517:../Middlewares/threadx/common/src/tx_event_flags_set.c **** 
 848              		.loc 1 517 32 view .LVU338
 849 0200 4046     		mov	r0, r8
 850 0202 A1E7     		b	.L26
 851              	.LVL82:
 852              	.L33:
 467:../Middlewares/threadx/common/src/tx_event_flags_set.c ****                         }
 853              		.loc 1 467 44 view .LVU339
 854 0204 4FF0000C 		mov	ip, #0
 855              	.LVL83:
 467:../Middlewares/threadx/common/src/tx_event_flags_set.c ****                         }
 856              		.loc 1 467 44 view .LVU340
ARM GAS  /tmp/ccM0YDds.s 			page 42


 857 0208 DAE7     		b	.L24
 858              	.LVL84:
 859              	.L25:
 510:../Middlewares/threadx/common/src/tx_event_flags_set.c ****                             thread_ptr -> tx_thread_suspended_next =      TX_NULL;
 860              		.loc 1 510 29 is_stmt 1 view .LVU341
 510:../Middlewares/threadx/common/src/tx_event_flags_set.c ****                             thread_ptr -> tx_thread_suspended_next =      TX_NULL;
 861              		.loc 1 510 72 is_stmt 0 view .LVU342
 862 020a 0099     		ldr	r1, [sp]
 512:../Middlewares/threadx/common/src/tx_event_flags_set.c ****                         }
 863              		.loc 1 512 44 view .LVU343
 864 020c 0090     		str	r0, [sp]
 865              	.LVL85:
 510:../Middlewares/threadx/common/src/tx_event_flags_set.c ****                             thread_ptr -> tx_thread_suspended_next =      TX_NULL;
 866              		.loc 1 510 72 view .LVU344
 867 020e 0867     		str	r0, [r1, #112]
 511:../Middlewares/threadx/common/src/tx_event_flags_set.c ****                             last_satisfied =                              thread_ptr;
 868              		.loc 1 511 29 is_stmt 1 view .LVU345
 511:../Middlewares/threadx/common/src/tx_event_flags_set.c ****                             last_satisfied =                              thread_ptr;
 869              		.loc 1 511 68 is_stmt 0 view .LVU346
 870 0210 C0F870E0 		str	lr, [r0, #112]
 512:../Middlewares/threadx/common/src/tx_event_flags_set.c ****                         }
 871              		.loc 1 512 29 is_stmt 1 view .LVU347
 872              	.LVL86:
 512:../Middlewares/threadx/common/src/tx_event_flags_set.c ****                         }
 873              		.loc 1 512 29 is_stmt 0 view .LVU348
 874 0214 DDE7     		b	.L22
 875              	.LVL87:
 876              	.L29:
 551:../Middlewares/threadx/common/src/tx_event_flags_set.c **** 
 877              		.loc 1 551 21 is_stmt 1 view .LVU349
 551:../Middlewares/threadx/common/src/tx_event_flags_set.c **** 
 878              		.loc 1 551 37 is_stmt 0 view .LVU350
 879 0216 156F     		ldr	r5, [r2, #112]
 880              	.LVL88:
 554:../Middlewares/threadx/common/src/tx_event_flags_set.c **** 
 881              		.loc 1 554 21 is_stmt 1 view .LVU351
 882              	.LBB73:
 883              	.LBI73:
 595:../Middlewares/threadx/ports/cortex_m55/gnu/inc/tx_port.h **** {
 884              		.loc 2 595 55 view .LVU352
 885              	.LBB74:
 597:../Middlewares/threadx/ports/cortex_m55/gnu/inc/tx_port.h **** 
 886              		.loc 2 597 1 view .LVU353
 599:../Middlewares/threadx/ports/cortex_m55/gnu/inc/tx_port.h **** 
 887              		.loc 2 599 5 view .LVU354
 888              	.LBB75:
 889              	.LBI75:
 563:../Middlewares/threadx/ports/cortex_m55/gnu/inc/tx_port.h **** {
 890              		.loc 2 563 55 view .LVU355
 891              	.LBB76:
 565:../Middlewares/threadx/ports/cortex_m55/gnu/inc/tx_port.h **** #ifdef TX_PORT_USE_BASEPRI
 892              		.loc 2 565 1 view .LVU356
 569:../Middlewares/threadx/ports/cortex_m55/gnu/inc/tx_port.h **** #endif
 893              		.loc 2 569 5 view .LVU357
 894              		.syntax unified
 895              	@ 569 "../Middlewares/threadx/ports/cortex_m55/gnu/inc/tx_port.h" 1
 896 0218 EFF31081 		MRS  r1, PRIMASK 
ARM GAS  /tmp/ccM0YDds.s 			page 43


 897              	@ 0 "" 2
 898              	.LVL89:
 571:../Middlewares/threadx/ports/cortex_m55/gnu/inc/tx_port.h **** }
 899              		.loc 2 571 5 view .LVU358
 571:../Middlewares/threadx/ports/cortex_m55/gnu/inc/tx_port.h **** }
 900              		.loc 2 571 5 is_stmt 0 view .LVU359
 901              		.thumb
 902              		.syntax unified
 903              	.LBE76:
 904              	.LBE75:
 604:../Middlewares/threadx/ports/cortex_m55/gnu/inc/tx_port.h **** #endif
 905              		.loc 2 604 5 is_stmt 1 view .LVU360
 906              		.syntax unified
 907              	@ 604 "../Middlewares/threadx/ports/cortex_m55/gnu/inc/tx_port.h" 1
 908 021c 72B6     		CPSID i
 909              	@ 0 "" 2
 910              		.loc 2 606 5 view .LVU361
 911              	.LVL90:
 912              		.loc 2 606 5 is_stmt 0 view .LVU362
 913              		.thumb
 914              		.syntax unified
 915              	.LBE74:
 916              	.LBE73:
 566:../Middlewares/threadx/common/src/tx_event_flags_set.c **** 
 917              		.loc 1 566 21 is_stmt 1 view .LVU363
 566:../Middlewares/threadx/common/src/tx_event_flags_set.c **** 
 918              		.loc 1 566 47 is_stmt 0 view .LVU364
 919 021e 3B68     		ldr	r3, [r7]
 920 0220 0133     		adds	r3, r3, #1
 921 0222 3B60     		str	r3, [r7]
 569:../Middlewares/threadx/common/src/tx_event_flags_set.c **** 
 922              		.loc 1 569 21 is_stmt 1 view .LVU365
 923              	.LVL91:
 924              	.LBB77:
 925              	.LBI77:
 586:../Middlewares/threadx/ports/cortex_m55/gnu/inc/tx_port.h **** {
 926              		.loc 2 586 55 view .LVU366
 927              	.LBB78:
 591:../Middlewares/threadx/ports/cortex_m55/gnu/inc/tx_port.h **** #endif
 928              		.loc 2 591 5 view .LVU367
 929              		.syntax unified
 930              	@ 591 "../Middlewares/threadx/ports/cortex_m55/gnu/inc/tx_port.h" 1
 931 0224 81F31088 		MSR  PRIMASK,r1
 932              	@ 0 "" 2
 933              	.LVL92:
 591:../Middlewares/threadx/ports/cortex_m55/gnu/inc/tx_port.h **** #endif
 934              		.loc 2 591 5 is_stmt 0 view .LVU368
 935              		.thumb
 936              		.syntax unified
 937              	.LBE78:
 938              	.LBE77:
 572:../Middlewares/threadx/common/src/tx_event_flags_set.c **** #endif
 939              		.loc 1 572 21 is_stmt 1 view .LVU369
 940 0228 1046     		mov	r0, r2
 941 022a FFF7FEFF 		bl	_tx_thread_system_resume
 942              	.LVL93:
 576:../Middlewares/threadx/common/src/tx_event_flags_set.c ****                 }
ARM GAS  /tmp/ccM0YDds.s 			page 44


 943              		.loc 1 576 21 view .LVU370
 576:../Middlewares/threadx/common/src/tx_event_flags_set.c ****                 }
 944              		.loc 1 576 32 is_stmt 0 view .LVU371
 945 022e 2A46     		mov	r2, r5
 946 0230 DCE7     		b	.L28
 947              	.LVL94:
 948              	.L13:
 590:../Middlewares/threadx/common/src/tx_event_flags_set.c ****             {
 949              		.loc 1 590 13 is_stmt 1 view .LVU372
 590:../Middlewares/threadx/common/src/tx_event_flags_set.c ****             {
 950              		.loc 1 590 16 is_stmt 0 view .LVU373
 951 0232 002E     		cmp	r6, #0
 952 0234 3FF472AF 		beq	.L18
 595:../Middlewares/threadx/common/src/tx_event_flags_set.c ****             }
 953              		.loc 1 595 17 is_stmt 1 view .LVU374
 595:../Middlewares/threadx/common/src/tx_event_flags_set.c ****             }
 954              		.loc 1 595 64 is_stmt 0 view .LVU375
 955 0238 0123     		movs	r3, #1
 956 023a E360     		str	r3, [r4, #12]
 957 023c 6EE7     		b	.L18
 958              	.L78:
 959 023e 00BF     		.align	2
 960              	.L77:
 961 0240 00000000 		.word	_tx_trace_buffer_current_ptr
 962 0244 00000000 		.word	_tx_trace_event_enable_bits
 963 0248 00000000 		.word	_tx_thread_system_state
 964 024c 00000000 		.word	_tx_thread_current_ptr
 965 0250 001000E0 		.word	-536866816
 966 0254 00000000 		.word	_tx_trace_header_ptr
 967 0258 00000000 		.word	_tx_trace_buffer_end_ptr
 968 025c 00000000 		.word	_tx_trace_buffer_start_ptr
 969 0260 00000000 		.word	_tx_trace_full_notify_function
 970 0264 00000000 		.word	_tx_thread_preempt_disable
 971              		.cfi_endproc
 972              	.LFE8:
 974              		.text
 975              	.Letext0:
 976              		.file 3 "../Middlewares/threadx/common/inc/tx_api.h"
 977              		.file 4 "../Middlewares/threadx/common/inc/tx_thread.h"
 978              		.file 5 "../Middlewares/threadx/common/inc/tx_trace.h"
ARM GAS  /tmp/ccM0YDds.s 			page 45

