ARM GAS  /tmp/ccNYVJA8.s 			page 1


   1              		.arch armv8.1-m.main
   2              		.fpu fpv5-d16
   3              		.arch_extension dsp
   4              		.arch_extension fp
   5              		.arch_extension fp.dp
   6              		.arch_extension mve
   7              		.arch_extension mve.fp
   8              		.eabi_attribute 5, "cortex-m55"
   9              		.eabi_attribute 28, 1
  10              		.eabi_attribute 20, 1
  11              		.eabi_attribute 21, 1
  12              		.eabi_attribute 23, 3
  13              		.eabi_attribute 24, 1
  14              		.eabi_attribute 25, 1
  15              		.eabi_attribute 26, 1
  16              		.eabi_attribute 30, 4
  17              		.eabi_attribute 34, 1
  18              		.eabi_attribute 38, 1
  19              		.eabi_attribute 18, 4
  20              		.file	"tx_initialize_high_level.c"
  21              		.text
  22              	.Ltext0:
  23              		.cfi_sections	.debug_frame
  24              		.file 1 "../Middlewares/threadx/common/src/tx_initialize_high_level.c"
  25              		.section	.text._tx_initialize_high_level,"ax",%progbits
  26              		.align	1
  27              		.global	_tx_initialize_high_level
  28              		.syntax unified
  29              		.thumb
  30              		.thumb_func
  32              	_tx_initialize_high_level:
  33              	.LFB8:
   1:../Middlewares/threadx/common/src/tx_initialize_high_level.c **** /**************************************************************************/
   2:../Middlewares/threadx/common/src/tx_initialize_high_level.c **** /*                                                                        */
   3:../Middlewares/threadx/common/src/tx_initialize_high_level.c **** /*       Copyright (c) Microsoft Corporation. All rights reserved.        */
   4:../Middlewares/threadx/common/src/tx_initialize_high_level.c **** /*                                                                        */
   5:../Middlewares/threadx/common/src/tx_initialize_high_level.c **** /*       This software is licensed under the Microsoft Software License   */
   6:../Middlewares/threadx/common/src/tx_initialize_high_level.c **** /*       Terms for Microsoft Azure RTOS. Full text of the license can be  */
   7:../Middlewares/threadx/common/src/tx_initialize_high_level.c **** /*       found in the LICENSE file at https://aka.ms/AzureRTOS_EULA       */
   8:../Middlewares/threadx/common/src/tx_initialize_high_level.c **** /*       and in the root directory of this software.                      */
   9:../Middlewares/threadx/common/src/tx_initialize_high_level.c **** /*                                                                        */
  10:../Middlewares/threadx/common/src/tx_initialize_high_level.c **** /**************************************************************************/
  11:../Middlewares/threadx/common/src/tx_initialize_high_level.c **** 
  12:../Middlewares/threadx/common/src/tx_initialize_high_level.c **** 
  13:../Middlewares/threadx/common/src/tx_initialize_high_level.c **** /**************************************************************************/
  14:../Middlewares/threadx/common/src/tx_initialize_high_level.c **** /**************************************************************************/
  15:../Middlewares/threadx/common/src/tx_initialize_high_level.c **** /**                                                                       */
  16:../Middlewares/threadx/common/src/tx_initialize_high_level.c **** /** ThreadX Component                                                     */
  17:../Middlewares/threadx/common/src/tx_initialize_high_level.c **** /**                                                                       */
  18:../Middlewares/threadx/common/src/tx_initialize_high_level.c **** /**   Initialize                                                          */
  19:../Middlewares/threadx/common/src/tx_initialize_high_level.c **** /**                                                                       */
  20:../Middlewares/threadx/common/src/tx_initialize_high_level.c **** /**************************************************************************/
  21:../Middlewares/threadx/common/src/tx_initialize_high_level.c **** /**************************************************************************/
  22:../Middlewares/threadx/common/src/tx_initialize_high_level.c **** 
  23:../Middlewares/threadx/common/src/tx_initialize_high_level.c **** #define TX_SOURCE_CODE
  24:../Middlewares/threadx/common/src/tx_initialize_high_level.c **** 
  25:../Middlewares/threadx/common/src/tx_initialize_high_level.c **** 
ARM GAS  /tmp/ccNYVJA8.s 			page 2


  26:../Middlewares/threadx/common/src/tx_initialize_high_level.c **** /* Include necessary system files.  */
  27:../Middlewares/threadx/common/src/tx_initialize_high_level.c **** 
  28:../Middlewares/threadx/common/src/tx_initialize_high_level.c **** #include "tx_api.h"
  29:../Middlewares/threadx/common/src/tx_initialize_high_level.c **** #include "tx_trace.h"
  30:../Middlewares/threadx/common/src/tx_initialize_high_level.c **** 
  31:../Middlewares/threadx/common/src/tx_initialize_high_level.c **** /* Determine if in-line initialization is required.  */
  32:../Middlewares/threadx/common/src/tx_initialize_high_level.c **** #ifdef TX_INLINE_INITIALIZATION
  33:../Middlewares/threadx/common/src/tx_initialize_high_level.c **** #define TX_INVOKE_INLINE_INITIALIZATION
  34:../Middlewares/threadx/common/src/tx_initialize_high_level.c **** #endif
  35:../Middlewares/threadx/common/src/tx_initialize_high_level.c **** 
  36:../Middlewares/threadx/common/src/tx_initialize_high_level.c **** #include "tx_initialize.h"
  37:../Middlewares/threadx/common/src/tx_initialize_high_level.c **** #include "tx_thread.h"
  38:../Middlewares/threadx/common/src/tx_initialize_high_level.c **** #include "tx_timer.h"
  39:../Middlewares/threadx/common/src/tx_initialize_high_level.c **** #include "tx_semaphore.h"
  40:../Middlewares/threadx/common/src/tx_initialize_high_level.c **** #include "tx_queue.h"
  41:../Middlewares/threadx/common/src/tx_initialize_high_level.c **** #include "tx_event_flags.h"
  42:../Middlewares/threadx/common/src/tx_initialize_high_level.c **** #include "tx_mutex.h"
  43:../Middlewares/threadx/common/src/tx_initialize_high_level.c **** #include "tx_block_pool.h"
  44:../Middlewares/threadx/common/src/tx_initialize_high_level.c **** #include "tx_byte_pool.h"
  45:../Middlewares/threadx/common/src/tx_initialize_high_level.c **** 
  46:../Middlewares/threadx/common/src/tx_initialize_high_level.c **** 
  47:../Middlewares/threadx/common/src/tx_initialize_high_level.c **** /* Define the unused memory pointer.  The value of the first available
  48:../Middlewares/threadx/common/src/tx_initialize_high_level.c ****    memory address is placed in this variable in the low-level
  49:../Middlewares/threadx/common/src/tx_initialize_high_level.c ****    initialization function.  The content of this variable is passed
  50:../Middlewares/threadx/common/src/tx_initialize_high_level.c ****    to the application's system definition function.  */
  51:../Middlewares/threadx/common/src/tx_initialize_high_level.c **** 
  52:../Middlewares/threadx/common/src/tx_initialize_high_level.c **** VOID     *_tx_initialize_unused_memory;
  53:../Middlewares/threadx/common/src/tx_initialize_high_level.c **** 
  54:../Middlewares/threadx/common/src/tx_initialize_high_level.c **** 
  55:../Middlewares/threadx/common/src/tx_initialize_high_level.c **** /**************************************************************************/
  56:../Middlewares/threadx/common/src/tx_initialize_high_level.c **** /*                                                                        */
  57:../Middlewares/threadx/common/src/tx_initialize_high_level.c **** /*  FUNCTION                                               RELEASE        */
  58:../Middlewares/threadx/common/src/tx_initialize_high_level.c **** /*                                                                        */
  59:../Middlewares/threadx/common/src/tx_initialize_high_level.c **** /*    _tx_initialize_high_level                           PORTABLE C      */
  60:../Middlewares/threadx/common/src/tx_initialize_high_level.c **** /*                                                           6.1          */
  61:../Middlewares/threadx/common/src/tx_initialize_high_level.c **** /*  AUTHOR                                                                */
  62:../Middlewares/threadx/common/src/tx_initialize_high_level.c **** /*                                                                        */
  63:../Middlewares/threadx/common/src/tx_initialize_high_level.c **** /*    William E. Lamie, Microsoft Corporation                             */
  64:../Middlewares/threadx/common/src/tx_initialize_high_level.c **** /*                                                                        */
  65:../Middlewares/threadx/common/src/tx_initialize_high_level.c **** /*  DESCRIPTION                                                           */
  66:../Middlewares/threadx/common/src/tx_initialize_high_level.c **** /*                                                                        */
  67:../Middlewares/threadx/common/src/tx_initialize_high_level.c **** /*    This function is responsible for initializing all of the other      */
  68:../Middlewares/threadx/common/src/tx_initialize_high_level.c **** /*    components in the ThreadX real-time kernel.                         */
  69:../Middlewares/threadx/common/src/tx_initialize_high_level.c **** /*                                                                        */
  70:../Middlewares/threadx/common/src/tx_initialize_high_level.c **** /*  INPUT                                                                 */
  71:../Middlewares/threadx/common/src/tx_initialize_high_level.c **** /*                                                                        */
  72:../Middlewares/threadx/common/src/tx_initialize_high_level.c **** /*    None                                                                */
  73:../Middlewares/threadx/common/src/tx_initialize_high_level.c **** /*                                                                        */
  74:../Middlewares/threadx/common/src/tx_initialize_high_level.c **** /*  OUTPUT                                                                */
  75:../Middlewares/threadx/common/src/tx_initialize_high_level.c **** /*                                                                        */
  76:../Middlewares/threadx/common/src/tx_initialize_high_level.c **** /*    None                                                                */
  77:../Middlewares/threadx/common/src/tx_initialize_high_level.c **** /*                                                                        */
  78:../Middlewares/threadx/common/src/tx_initialize_high_level.c **** /*  CALLS                                                                 */
  79:../Middlewares/threadx/common/src/tx_initialize_high_level.c **** /*                                                                        */
  80:../Middlewares/threadx/common/src/tx_initialize_high_level.c **** /*    _tx_thread_initialize             Initialize the thread control     */
  81:../Middlewares/threadx/common/src/tx_initialize_high_level.c **** /*                                        component                       */
  82:../Middlewares/threadx/common/src/tx_initialize_high_level.c **** /*    _tx_timer_initialize              Initialize the timer control      */
ARM GAS  /tmp/ccNYVJA8.s 			page 3


  83:../Middlewares/threadx/common/src/tx_initialize_high_level.c **** /*                                        component                       */
  84:../Middlewares/threadx/common/src/tx_initialize_high_level.c **** /*    _tx_semaphore_initialize          Initialize the semaphore control  */
  85:../Middlewares/threadx/common/src/tx_initialize_high_level.c **** /*                                        component                       */
  86:../Middlewares/threadx/common/src/tx_initialize_high_level.c **** /*    _tx_queue_initialize              Initialize the queue control      */
  87:../Middlewares/threadx/common/src/tx_initialize_high_level.c **** /*                                        component                       */
  88:../Middlewares/threadx/common/src/tx_initialize_high_level.c **** /*    _tx_event_flags_initialize        Initialize the event flags control*/
  89:../Middlewares/threadx/common/src/tx_initialize_high_level.c **** /*                                        component                       */
  90:../Middlewares/threadx/common/src/tx_initialize_high_level.c **** /*    _tx_block_pool_initialize         Initialize the block pool control */
  91:../Middlewares/threadx/common/src/tx_initialize_high_level.c **** /*                                        component                       */
  92:../Middlewares/threadx/common/src/tx_initialize_high_level.c **** /*    _tx_byte_pool_initialize          Initialize the byte pool control  */
  93:../Middlewares/threadx/common/src/tx_initialize_high_level.c **** /*                                        component                       */
  94:../Middlewares/threadx/common/src/tx_initialize_high_level.c **** /*    _tx_mutex_initialize              Initialize the mutex control      */
  95:../Middlewares/threadx/common/src/tx_initialize_high_level.c **** /*                                        component                       */
  96:../Middlewares/threadx/common/src/tx_initialize_high_level.c **** /*                                                                        */
  97:../Middlewares/threadx/common/src/tx_initialize_high_level.c **** /*  CALLED BY                                                             */
  98:../Middlewares/threadx/common/src/tx_initialize_high_level.c **** /*                                                                        */
  99:../Middlewares/threadx/common/src/tx_initialize_high_level.c **** /*    _tx_initialize_kernel_enter       Kernel entry function             */
 100:../Middlewares/threadx/common/src/tx_initialize_high_level.c **** /*    _tx_initialize_kernel_setup       Early kernel setup function that  */
 101:../Middlewares/threadx/common/src/tx_initialize_high_level.c **** /*                                        is optionally called by         */
 102:../Middlewares/threadx/common/src/tx_initialize_high_level.c **** /*                                        compiler's startup code.        */
 103:../Middlewares/threadx/common/src/tx_initialize_high_level.c **** /*                                                                        */
 104:../Middlewares/threadx/common/src/tx_initialize_high_level.c **** /*  RELEASE HISTORY                                                       */
 105:../Middlewares/threadx/common/src/tx_initialize_high_level.c **** /*                                                                        */
 106:../Middlewares/threadx/common/src/tx_initialize_high_level.c **** /*    DATE              NAME                      DESCRIPTION             */
 107:../Middlewares/threadx/common/src/tx_initialize_high_level.c **** /*                                                                        */
 108:../Middlewares/threadx/common/src/tx_initialize_high_level.c **** /*  05-19-2020     William E. Lamie         Initial Version 6.0           */
 109:../Middlewares/threadx/common/src/tx_initialize_high_level.c **** /*  09-30-2020     Yuxin Zhou               Modified comment(s),          */
 110:../Middlewares/threadx/common/src/tx_initialize_high_level.c **** /*                                            resulting in version 6.1    */
 111:../Middlewares/threadx/common/src/tx_initialize_high_level.c **** /*                                                                        */
 112:../Middlewares/threadx/common/src/tx_initialize_high_level.c **** /**************************************************************************/
 113:../Middlewares/threadx/common/src/tx_initialize_high_level.c **** VOID    _tx_initialize_high_level(VOID)
 114:../Middlewares/threadx/common/src/tx_initialize_high_level.c **** {
  34              		.loc 1 114 1 view -0
  35              		.cfi_startproc
  36              		@ args = 0, pretend = 0, frame = 0
  37              		@ frame_needed = 0, uses_anonymous_args = 0
 115:../Middlewares/threadx/common/src/tx_initialize_high_level.c **** 
 116:../Middlewares/threadx/common/src/tx_initialize_high_level.c ****     /* Initialize event tracing, if enabled.  */
 117:../Middlewares/threadx/common/src/tx_initialize_high_level.c ****     TX_TRACE_INITIALIZE
  38              		.loc 1 117 5 view .LVU1
 114:../Middlewares/threadx/common/src/tx_initialize_high_level.c **** 
  39              		.loc 1 114 1 is_stmt 0 view .LVU2
  40 0000 08B5     		push	{r3, lr}
  41              		.cfi_def_cfa_offset 8
  42              		.cfi_offset 3, -8
  43              		.cfi_offset 14, -4
  44              		.loc 1 117 5 view .LVU3
  45 0002 FFF7FEFF 		bl	_tx_trace_initialize
  46              	.LVL0:
 118:../Middlewares/threadx/common/src/tx_initialize_high_level.c **** 
 119:../Middlewares/threadx/common/src/tx_initialize_high_level.c ****     /* Initialize the event log, if enabled.  */
 120:../Middlewares/threadx/common/src/tx_initialize_high_level.c ****     TX_EL_INITIALIZE
 121:../Middlewares/threadx/common/src/tx_initialize_high_level.c **** 
 122:../Middlewares/threadx/common/src/tx_initialize_high_level.c ****     /* Call the thread control initialization function.  */
 123:../Middlewares/threadx/common/src/tx_initialize_high_level.c ****     _tx_thread_initialize();
  47              		.loc 1 123 5 is_stmt 1 view .LVU4
  48 0006 FFF7FEFF 		bl	_tx_thread_initialize
ARM GAS  /tmp/ccNYVJA8.s 			page 4


  49              	.LVL1:
 124:../Middlewares/threadx/common/src/tx_initialize_high_level.c **** 
 125:../Middlewares/threadx/common/src/tx_initialize_high_level.c **** #ifndef TX_NO_TIMER
 126:../Middlewares/threadx/common/src/tx_initialize_high_level.c **** 
 127:../Middlewares/threadx/common/src/tx_initialize_high_level.c ****     /* Call the timer control initialization function.  */
 128:../Middlewares/threadx/common/src/tx_initialize_high_level.c ****     _tx_timer_initialize();
  50              		.loc 1 128 5 view .LVU5
  51 000a FFF7FEFF 		bl	_tx_timer_initialize
  52              	.LVL2:
 129:../Middlewares/threadx/common/src/tx_initialize_high_level.c **** #endif
 130:../Middlewares/threadx/common/src/tx_initialize_high_level.c **** 
 131:../Middlewares/threadx/common/src/tx_initialize_high_level.c **** #ifndef TX_DISABLE_REDUNDANT_CLEARING
 132:../Middlewares/threadx/common/src/tx_initialize_high_level.c **** 
 133:../Middlewares/threadx/common/src/tx_initialize_high_level.c ****     /* Call the semaphore initialization function.  */
 134:../Middlewares/threadx/common/src/tx_initialize_high_level.c ****     _tx_semaphore_initialize();
  53              		.loc 1 134 5 view .LVU6
  54 000e 0023     		movs	r3, #0
  55 0010 0C4A     		ldr	r2, .L2
  56 0012 1360     		str	r3, [r2]
  57              		.loc 1 134 5 view .LVU7
  58 0014 0C4A     		ldr	r2, .L2+4
  59 0016 1360     		str	r3, [r2]
 135:../Middlewares/threadx/common/src/tx_initialize_high_level.c **** 
 136:../Middlewares/threadx/common/src/tx_initialize_high_level.c ****     /* Call the queue initialization function.  */
 137:../Middlewares/threadx/common/src/tx_initialize_high_level.c ****     _tx_queue_initialize();
  60              		.loc 1 137 5 view .LVU8
  61 0018 0C4A     		ldr	r2, .L2+8
  62 001a 1360     		str	r3, [r2]
  63              		.loc 1 137 5 view .LVU9
  64 001c 0C4A     		ldr	r2, .L2+12
  65 001e 1360     		str	r3, [r2]
 138:../Middlewares/threadx/common/src/tx_initialize_high_level.c **** 
 139:../Middlewares/threadx/common/src/tx_initialize_high_level.c ****     /* Call the event flag initialization function.  */
 140:../Middlewares/threadx/common/src/tx_initialize_high_level.c ****     _tx_event_flags_initialize();
  66              		.loc 1 140 5 view .LVU10
  67 0020 0C4A     		ldr	r2, .L2+16
  68 0022 1360     		str	r3, [r2]
  69              		.loc 1 140 5 view .LVU11
  70 0024 0C4A     		ldr	r2, .L2+20
  71 0026 1360     		str	r3, [r2]
 141:../Middlewares/threadx/common/src/tx_initialize_high_level.c **** 
 142:../Middlewares/threadx/common/src/tx_initialize_high_level.c ****     /* Call the block pool initialization function.  */
 143:../Middlewares/threadx/common/src/tx_initialize_high_level.c ****     _tx_block_pool_initialize();
  72              		.loc 1 143 5 view .LVU12
  73 0028 0C4A     		ldr	r2, .L2+24
  74 002a 1360     		str	r3, [r2]
  75              		.loc 1 143 5 view .LVU13
  76 002c 0C4A     		ldr	r2, .L2+28
  77 002e 1360     		str	r3, [r2]
 144:../Middlewares/threadx/common/src/tx_initialize_high_level.c **** 
 145:../Middlewares/threadx/common/src/tx_initialize_high_level.c ****     /* Call the byte pool initialization function.  */
 146:../Middlewares/threadx/common/src/tx_initialize_high_level.c ****     _tx_byte_pool_initialize();
  78              		.loc 1 146 5 view .LVU14
  79 0030 0C4A     		ldr	r2, .L2+32
  80 0032 1360     		str	r3, [r2]
  81              		.loc 1 146 5 view .LVU15
  82 0034 0C4A     		ldr	r2, .L2+36
ARM GAS  /tmp/ccNYVJA8.s 			page 5


  83 0036 1360     		str	r3, [r2]
 147:../Middlewares/threadx/common/src/tx_initialize_high_level.c **** 
 148:../Middlewares/threadx/common/src/tx_initialize_high_level.c ****     /* Call the mutex initialization function.  */
 149:../Middlewares/threadx/common/src/tx_initialize_high_level.c ****     _tx_mutex_initialize();
  84              		.loc 1 149 5 view .LVU16
  85 0038 0C4A     		ldr	r2, .L2+40
  86 003a 1360     		str	r3, [r2]
  87              		.loc 1 149 5 view .LVU17
  88 003c 0C4A     		ldr	r2, .L2+44
  89 003e 1360     		str	r3, [r2]
 150:../Middlewares/threadx/common/src/tx_initialize_high_level.c **** #endif
 151:../Middlewares/threadx/common/src/tx_initialize_high_level.c **** }
  90              		.loc 1 151 1 is_stmt 0 view .LVU18
  91 0040 08BD     		pop	{r3, pc}
  92              	.L3:
  93 0042 00BF     		.align	2
  94              	.L2:
  95 0044 00000000 		.word	_tx_semaphore_created_ptr
  96 0048 00000000 		.word	_tx_semaphore_created_count
  97 004c 00000000 		.word	_tx_queue_created_ptr
  98 0050 00000000 		.word	_tx_queue_created_count
  99 0054 00000000 		.word	_tx_event_flags_created_ptr
 100 0058 00000000 		.word	_tx_event_flags_created_count
 101 005c 00000000 		.word	_tx_block_pool_created_ptr
 102 0060 00000000 		.word	_tx_block_pool_created_count
 103 0064 00000000 		.word	_tx_byte_pool_created_ptr
 104 0068 00000000 		.word	_tx_byte_pool_created_count
 105 006c 00000000 		.word	_tx_mutex_created_ptr
 106 0070 00000000 		.word	_tx_mutex_created_count
 107              		.cfi_endproc
 108              	.LFE8:
 110              		.global	_tx_initialize_unused_memory
 111              		.section	.bss._tx_initialize_unused_memory,"aw",%nobits
 112              		.align	2
 115              	_tx_initialize_unused_memory:
 116 0000 00000000 		.space	4
 117              		.global	_tx_byte_pool_created_count
 118              		.section	.bss._tx_byte_pool_created_count,"aw",%nobits
 119              		.align	2
 122              	_tx_byte_pool_created_count:
 123 0000 00000000 		.space	4
 124              		.global	_tx_byte_pool_created_ptr
 125              		.section	.bss._tx_byte_pool_created_ptr,"aw",%nobits
 126              		.align	2
 129              	_tx_byte_pool_created_ptr:
 130 0000 00000000 		.space	4
 131              		.global	_tx_block_pool_created_count
 132              		.section	.bss._tx_block_pool_created_count,"aw",%nobits
 133              		.align	2
 136              	_tx_block_pool_created_count:
 137 0000 00000000 		.space	4
 138              		.global	_tx_block_pool_created_ptr
 139              		.section	.bss._tx_block_pool_created_ptr,"aw",%nobits
 140              		.align	2
 143              	_tx_block_pool_created_ptr:
 144 0000 00000000 		.space	4
 145              		.global	_tx_mutex_created_count
ARM GAS  /tmp/ccNYVJA8.s 			page 6


 146              		.section	.bss._tx_mutex_created_count,"aw",%nobits
 147              		.align	2
 150              	_tx_mutex_created_count:
 151 0000 00000000 		.space	4
 152              		.global	_tx_mutex_created_ptr
 153              		.section	.bss._tx_mutex_created_ptr,"aw",%nobits
 154              		.align	2
 157              	_tx_mutex_created_ptr:
 158 0000 00000000 		.space	4
 159              		.global	_tx_event_flags_created_count
 160              		.section	.bss._tx_event_flags_created_count,"aw",%nobits
 161              		.align	2
 164              	_tx_event_flags_created_count:
 165 0000 00000000 		.space	4
 166              		.global	_tx_event_flags_created_ptr
 167              		.section	.bss._tx_event_flags_created_ptr,"aw",%nobits
 168              		.align	2
 171              	_tx_event_flags_created_ptr:
 172 0000 00000000 		.space	4
 173              		.global	_tx_queue_created_count
 174              		.section	.bss._tx_queue_created_count,"aw",%nobits
 175              		.align	2
 178              	_tx_queue_created_count:
 179 0000 00000000 		.space	4
 180              		.global	_tx_queue_created_ptr
 181              		.section	.bss._tx_queue_created_ptr,"aw",%nobits
 182              		.align	2
 185              	_tx_queue_created_ptr:
 186 0000 00000000 		.space	4
 187              		.global	_tx_semaphore_created_count
 188              		.section	.bss._tx_semaphore_created_count,"aw",%nobits
 189              		.align	2
 192              	_tx_semaphore_created_count:
 193 0000 00000000 		.space	4
 194              		.global	_tx_semaphore_created_ptr
 195              		.section	.bss._tx_semaphore_created_ptr,"aw",%nobits
 196              		.align	2
 199              	_tx_semaphore_created_ptr:
 200 0000 00000000 		.space	4
 201              		.text
 202              	.Letext0:
 203              		.file 2 "../Middlewares/threadx/ports/cortex_m55/gnu/inc/tx_port.h"
 204              		.file 3 "../Middlewares/threadx/common/inc/tx_api.h"
 205              		.file 4 "../Middlewares/threadx/common/inc/tx_initialize.h"
 206              		.file 5 "../Middlewares/threadx/common/inc/tx_semaphore.h"
 207              		.file 6 "../Middlewares/threadx/common/inc/tx_queue.h"
 208              		.file 7 "../Middlewares/threadx/common/inc/tx_event_flags.h"
 209              		.file 8 "../Middlewares/threadx/common/inc/tx_mutex.h"
 210              		.file 9 "../Middlewares/threadx/common/inc/tx_block_pool.h"
 211              		.file 10 "../Middlewares/threadx/common/inc/tx_byte_pool.h"
 212              		.file 11 "../Middlewares/threadx/common/inc/tx_timer.h"
 213              		.file 12 "../Middlewares/threadx/common/inc/tx_thread.h"
 214              		.file 13 "../Middlewares/threadx/common/inc/tx_trace.h"
ARM GAS  /tmp/ccNYVJA8.s 			page 7


DEFINED SYMBOLS
                            *ABS*:00000000 tx_initialize_high_level.c
     /tmp/ccNYVJA8.s:26     .text._tx_initialize_high_level:00000000 $t
     /tmp/ccNYVJA8.s:32     .text._tx_initialize_high_level:00000000 _tx_initialize_high_level
     /tmp/ccNYVJA8.s:95     .text._tx_initialize_high_level:00000044 $d
     /tmp/ccNYVJA8.s:199    .bss._tx_semaphore_created_ptr:00000000 _tx_semaphore_created_ptr
     /tmp/ccNYVJA8.s:192    .bss._tx_semaphore_created_count:00000000 _tx_semaphore_created_count
     /tmp/ccNYVJA8.s:185    .bss._tx_queue_created_ptr:00000000 _tx_queue_created_ptr
     /tmp/ccNYVJA8.s:178    .bss._tx_queue_created_count:00000000 _tx_queue_created_count
     /tmp/ccNYVJA8.s:171    .bss._tx_event_flags_created_ptr:00000000 _tx_event_flags_created_ptr
     /tmp/ccNYVJA8.s:164    .bss._tx_event_flags_created_count:00000000 _tx_event_flags_created_count
     /tmp/ccNYVJA8.s:143    .bss._tx_block_pool_created_ptr:00000000 _tx_block_pool_created_ptr
     /tmp/ccNYVJA8.s:136    .bss._tx_block_pool_created_count:00000000 _tx_block_pool_created_count
     /tmp/ccNYVJA8.s:129    .bss._tx_byte_pool_created_ptr:00000000 _tx_byte_pool_created_ptr
     /tmp/ccNYVJA8.s:122    .bss._tx_byte_pool_created_count:00000000 _tx_byte_pool_created_count
     /tmp/ccNYVJA8.s:157    .bss._tx_mutex_created_ptr:00000000 _tx_mutex_created_ptr
     /tmp/ccNYVJA8.s:150    .bss._tx_mutex_created_count:00000000 _tx_mutex_created_count
     /tmp/ccNYVJA8.s:115    .bss._tx_initialize_unused_memory:00000000 _tx_initialize_unused_memory
     /tmp/ccNYVJA8.s:112    .bss._tx_initialize_unused_memory:00000000 $d
     /tmp/ccNYVJA8.s:119    .bss._tx_byte_pool_created_count:00000000 $d
     /tmp/ccNYVJA8.s:126    .bss._tx_byte_pool_created_ptr:00000000 $d
     /tmp/ccNYVJA8.s:133    .bss._tx_block_pool_created_count:00000000 $d
     /tmp/ccNYVJA8.s:140    .bss._tx_block_pool_created_ptr:00000000 $d
     /tmp/ccNYVJA8.s:147    .bss._tx_mutex_created_count:00000000 $d
     /tmp/ccNYVJA8.s:154    .bss._tx_mutex_created_ptr:00000000 $d
     /tmp/ccNYVJA8.s:161    .bss._tx_event_flags_created_count:00000000 $d
     /tmp/ccNYVJA8.s:168    .bss._tx_event_flags_created_ptr:00000000 $d
     /tmp/ccNYVJA8.s:175    .bss._tx_queue_created_count:00000000 $d
     /tmp/ccNYVJA8.s:182    .bss._tx_queue_created_ptr:00000000 $d
     /tmp/ccNYVJA8.s:189    .bss._tx_semaphore_created_count:00000000 $d
     /tmp/ccNYVJA8.s:196    .bss._tx_semaphore_created_ptr:00000000 $d
                           .group:00000000 wm4.0.43608cab4da50df6ba2dfee95636a2b5
                           .group:00000000 wm4.tx_api.h.111.1e40bacadb0edb5b6b36282830ee23a5
                           .group:00000000 wm4.ieeefp.h.77.99029d7b8220a2cd73dd257e2bbe825d
                           .group:00000000 wm4._newlib_version.h.4.0eb654b64686e2bd29646258853f6c22
                           .group:00000000 wm4.newlib.h.27.b904f6f8971bd921b436e5701877de32
                           .group:00000000 wm4.features.h.22.4b93ad64e0d80833c46a20ecae380bb0
                           .group:00000000 wm4.config.h.224.10ee1ad185d877c6e334e6581faab44d
                           .group:00000000 wm4._ansi.h.31.de524f58584151836e90d8620a16f8e8
                           .group:00000000 wm4.stdlib.h.13.4ed386f5c1a80d71e72172885d946ef2
                           .group:00000000 wm4.stddef.h.200.7df09ddbfbefc5947db7aca5a0fd7644
                           .group:00000000 wm4.stddef.h.39.613e674cf2e6f142dfe584123421de07
                           .group:00000000 wm4._default_types.h.6.959254cf5f09734ea7516c89e8bb21bd
                           .group:00000000 wm4.cdefs.h.49.56fd742369e655e7e8a7e365e706e208
                           .group:00000000 wm4._types.h.20.dd0d04dca3800a0d2a6129b87f3adbb2
                           .group:00000000 wm4.stddef.h.173.4903093a50a8482cb062b176ea61fac3
                           .group:00000000 wm4._types.h.127.3bdfe3ff8ea2d0985b03d9cbe93480e3
                           .group:00000000 wm4.reent.h.18.25503cdc8b7e55dd0d6ea7b3e5af7a03
                           .group:00000000 wm4.lock.h.2.1461d1fff82dffe8bfddc23307f6484f
                           .group:00000000 wm4.reent.h.78.6d702f69a6d6435d2dbe915b10150b1a
                           .group:00000000 wm4.alloca.h.8.dfc0c703c47ec3e69746825b17d9e66d
                           .group:00000000 wm4.stdlib.h.56.f4862cfbf4363a1db01842d5bdf72c18
                           .group:00000000 wm4.string.h.8.c4b8571ce60dff2817f43fec8b86aecd
                           .group:00000000 wm4.stddef.h.173.1cea4f16a943c8e875db6791959c3141
                           .group:00000000 wm4.string.h.177.59a005921fa78485abc80a0267de5752
                           .group:00000000 wm4.tx_port.h.115.294deb9dc65e442684b838abd8efd62b
                           .group:00000000 wm4.tx_api.h.143.a8f6e7c0fde9aa86e8b6e86681771d37
ARM GAS  /tmp/ccNYVJA8.s 			page 8


                           .group:00000000 wm4.tx_thread.h.58.aca505065ec84c0c978a4a3ba538ff60
                           .group:00000000 wm4.tx_trace.h.77.bb51149367e9195b9dec1539d7828ce8
                           .group:00000000 wm4.tx_initialize.h.51.e1963fa1b2d5f240125caf44b0e61d2d
                           .group:00000000 wm4.tx_timer.h.51.b883a0ddd0951b922baa8ab45496c096
                           .group:00000000 wm4.tx_semaphore.h.51.52abf06c6464ab3c0f4f76673ef42db9
                           .group:00000000 wm4.tx_queue.h.51.bb4f4ae14e9c7209d93e0bdb35f18bf3
                           .group:00000000 wm4.tx_event_flags.h.51.2ae2b093f3dff7b615424a56e3e9cca4
                           .group:00000000 wm4.tx_mutex.h.51.f758c1ec3be6da73668fb746d1a8cf97
                           .group:00000000 wm4.tx_block_pool.h.51.fc97be61fe34e8cbdce8eb624ba41e60
                           .group:00000000 wm4.tx_byte_pool.h.51.777f3c2d44145e62eee9355d1cbbedae

UNDEFINED SYMBOLS
_tx_trace_initialize
_tx_thread_initialize
_tx_timer_initialize
