ARM GAS  /tmp/ccBuKv1E.s 			page 1


   1              		.arch armv8.1-m.main
   2              		.fpu fpv5-d16
   3              		.arch_extension dsp
   4              		.arch_extension fp
   5              		.arch_extension fp.dp
   6              		.arch_extension mve
   7              		.arch_extension mve.fp
   8              		.eabi_attribute 5, "cortex-m55"
   9              		.eabi_attribute 28, 1
  10              		.eabi_attribute 20, 1
  11              		.eabi_attribute 21, 1
  12              		.eabi_attribute 23, 3
  13              		.eabi_attribute 24, 1
  14              		.eabi_attribute 25, 1
  15              		.eabi_attribute 26, 1
  16              		.eabi_attribute 30, 4
  17              		.eabi_attribute 34, 1
  18              		.eabi_attribute 38, 1
  19              		.eabi_attribute 18, 4
  20              		.file	"tx_mutex_put.c"
  21              		.text
  22              	.Ltext0:
  23              		.cfi_sections	.debug_frame
  24              		.file 1 "../Middlewares/threadx/common/src/tx_mutex_put.c"
  25              		.section	.text._tx_mutex_put,"ax",%progbits
  26              		.align	1
  27              		.global	_tx_mutex_put
  28              		.syntax unified
  29              		.thumb
  30              		.thumb_func
  32              	_tx_mutex_put:
  33              	.LVL0:
  34              	.LFB8:
   1:../Middlewares/threadx/common/src/tx_mutex_put.c **** /**************************************************************************/
   2:../Middlewares/threadx/common/src/tx_mutex_put.c **** /*                                                                        */
   3:../Middlewares/threadx/common/src/tx_mutex_put.c **** /*       Copyright (c) Microsoft Corporation. All rights reserved.        */
   4:../Middlewares/threadx/common/src/tx_mutex_put.c **** /*                                                                        */
   5:../Middlewares/threadx/common/src/tx_mutex_put.c **** /*       This software is licensed under the Microsoft Software License   */
   6:../Middlewares/threadx/common/src/tx_mutex_put.c **** /*       Terms for Microsoft Azure RTOS. Full text of the license can be  */
   7:../Middlewares/threadx/common/src/tx_mutex_put.c **** /*       found in the LICENSE file at https://aka.ms/AzureRTOS_EULA       */
   8:../Middlewares/threadx/common/src/tx_mutex_put.c **** /*       and in the root directory of this software.                      */
   9:../Middlewares/threadx/common/src/tx_mutex_put.c **** /*                                                                        */
  10:../Middlewares/threadx/common/src/tx_mutex_put.c **** /**************************************************************************/
  11:../Middlewares/threadx/common/src/tx_mutex_put.c **** 
  12:../Middlewares/threadx/common/src/tx_mutex_put.c **** 
  13:../Middlewares/threadx/common/src/tx_mutex_put.c **** /**************************************************************************/
  14:../Middlewares/threadx/common/src/tx_mutex_put.c **** /**************************************************************************/
  15:../Middlewares/threadx/common/src/tx_mutex_put.c **** /**                                                                       */
  16:../Middlewares/threadx/common/src/tx_mutex_put.c **** /** ThreadX Component                                                     */
  17:../Middlewares/threadx/common/src/tx_mutex_put.c **** /**                                                                       */
  18:../Middlewares/threadx/common/src/tx_mutex_put.c **** /**   Mutex                                                               */
  19:../Middlewares/threadx/common/src/tx_mutex_put.c **** /**                                                                       */
  20:../Middlewares/threadx/common/src/tx_mutex_put.c **** /**************************************************************************/
  21:../Middlewares/threadx/common/src/tx_mutex_put.c **** /**************************************************************************/
  22:../Middlewares/threadx/common/src/tx_mutex_put.c **** 
  23:../Middlewares/threadx/common/src/tx_mutex_put.c **** #define TX_SOURCE_CODE
  24:../Middlewares/threadx/common/src/tx_mutex_put.c **** 
ARM GAS  /tmp/ccBuKv1E.s 			page 2


  25:../Middlewares/threadx/common/src/tx_mutex_put.c **** 
  26:../Middlewares/threadx/common/src/tx_mutex_put.c **** /* Include necessary system files.  */
  27:../Middlewares/threadx/common/src/tx_mutex_put.c **** 
  28:../Middlewares/threadx/common/src/tx_mutex_put.c **** #include "tx_api.h"
  29:../Middlewares/threadx/common/src/tx_mutex_put.c **** #include "tx_trace.h"
  30:../Middlewares/threadx/common/src/tx_mutex_put.c **** #include "tx_thread.h"
  31:../Middlewares/threadx/common/src/tx_mutex_put.c **** #include "tx_mutex.h"
  32:../Middlewares/threadx/common/src/tx_mutex_put.c **** 
  33:../Middlewares/threadx/common/src/tx_mutex_put.c **** 
  34:../Middlewares/threadx/common/src/tx_mutex_put.c **** /**************************************************************************/
  35:../Middlewares/threadx/common/src/tx_mutex_put.c **** /*                                                                        */
  36:../Middlewares/threadx/common/src/tx_mutex_put.c **** /*  FUNCTION                                               RELEASE        */
  37:../Middlewares/threadx/common/src/tx_mutex_put.c **** /*                                                                        */
  38:../Middlewares/threadx/common/src/tx_mutex_put.c **** /*    _tx_mutex_put                                       PORTABLE C      */
  39:../Middlewares/threadx/common/src/tx_mutex_put.c **** /*                                                           6.1          */
  40:../Middlewares/threadx/common/src/tx_mutex_put.c **** /*  AUTHOR                                                                */
  41:../Middlewares/threadx/common/src/tx_mutex_put.c **** /*                                                                        */
  42:../Middlewares/threadx/common/src/tx_mutex_put.c **** /*    William E. Lamie, Microsoft Corporation                             */
  43:../Middlewares/threadx/common/src/tx_mutex_put.c **** /*                                                                        */
  44:../Middlewares/threadx/common/src/tx_mutex_put.c **** /*  DESCRIPTION                                                           */
  45:../Middlewares/threadx/common/src/tx_mutex_put.c **** /*                                                                        */
  46:../Middlewares/threadx/common/src/tx_mutex_put.c **** /*    This function puts back an instance of the specified mutex.         */
  47:../Middlewares/threadx/common/src/tx_mutex_put.c **** /*                                                                        */
  48:../Middlewares/threadx/common/src/tx_mutex_put.c **** /*  INPUT                                                                 */
  49:../Middlewares/threadx/common/src/tx_mutex_put.c **** /*                                                                        */
  50:../Middlewares/threadx/common/src/tx_mutex_put.c **** /*    mutex_ptr                         Pointer to mutex control block    */
  51:../Middlewares/threadx/common/src/tx_mutex_put.c **** /*                                                                        */
  52:../Middlewares/threadx/common/src/tx_mutex_put.c **** /*  OUTPUT                                                                */
  53:../Middlewares/threadx/common/src/tx_mutex_put.c **** /*                                                                        */
  54:../Middlewares/threadx/common/src/tx_mutex_put.c **** /*    TX_SUCCESS                        Success completion status         */
  55:../Middlewares/threadx/common/src/tx_mutex_put.c **** /*                                                                        */
  56:../Middlewares/threadx/common/src/tx_mutex_put.c **** /*  CALLS                                                                 */
  57:../Middlewares/threadx/common/src/tx_mutex_put.c **** /*                                                                        */
  58:../Middlewares/threadx/common/src/tx_mutex_put.c **** /*    _tx_thread_system_preempt_check   Check for preemption              */
  59:../Middlewares/threadx/common/src/tx_mutex_put.c **** /*    _tx_thread_system_resume          Resume thread service             */
  60:../Middlewares/threadx/common/src/tx_mutex_put.c **** /*    _tx_thread_system_ni_resume       Non-interruptable resume thread   */
  61:../Middlewares/threadx/common/src/tx_mutex_put.c **** /*    _tx_mutex_priority_change         Restore previous thread priority  */
  62:../Middlewares/threadx/common/src/tx_mutex_put.c **** /*    _tx_mutex_prioritize              Prioritize the mutex suspension   */
  63:../Middlewares/threadx/common/src/tx_mutex_put.c **** /*    _tx_mutex_thread_release          Release all thread's mutexes      */
  64:../Middlewares/threadx/common/src/tx_mutex_put.c **** /*    _tx_mutex_delete                  Release ownership upon mutex      */
  65:../Middlewares/threadx/common/src/tx_mutex_put.c **** /*                                        deletion                        */
  66:../Middlewares/threadx/common/src/tx_mutex_put.c **** /*                                                                        */
  67:../Middlewares/threadx/common/src/tx_mutex_put.c **** /*  CALLED BY                                                             */
  68:../Middlewares/threadx/common/src/tx_mutex_put.c **** /*                                                                        */
  69:../Middlewares/threadx/common/src/tx_mutex_put.c **** /*    Application Code                                                    */
  70:../Middlewares/threadx/common/src/tx_mutex_put.c **** /*                                                                        */
  71:../Middlewares/threadx/common/src/tx_mutex_put.c **** /*  RELEASE HISTORY                                                       */
  72:../Middlewares/threadx/common/src/tx_mutex_put.c **** /*                                                                        */
  73:../Middlewares/threadx/common/src/tx_mutex_put.c **** /*    DATE              NAME                      DESCRIPTION             */
  74:../Middlewares/threadx/common/src/tx_mutex_put.c **** /*                                                                        */
  75:../Middlewares/threadx/common/src/tx_mutex_put.c **** /*  05-19-2020     William E. Lamie         Initial Version 6.0           */
  76:../Middlewares/threadx/common/src/tx_mutex_put.c **** /*  09-30-2020     Yuxin Zhou               Modified comment(s),          */
  77:../Middlewares/threadx/common/src/tx_mutex_put.c **** /*                                            resulting in version 6.1    */
  78:../Middlewares/threadx/common/src/tx_mutex_put.c **** /*                                                                        */
  79:../Middlewares/threadx/common/src/tx_mutex_put.c **** /**************************************************************************/
  80:../Middlewares/threadx/common/src/tx_mutex_put.c **** UINT  _tx_mutex_put(TX_MUTEX *mutex_ptr)
  81:../Middlewares/threadx/common/src/tx_mutex_put.c **** {
ARM GAS  /tmp/ccBuKv1E.s 			page 3


  35              		.loc 1 81 1 view -0
  36              		.cfi_startproc
  37              		@ args = 0, pretend = 0, frame = 8
  38              		@ frame_needed = 0, uses_anonymous_args = 0
  82:../Middlewares/threadx/common/src/tx_mutex_put.c **** 
  83:../Middlewares/threadx/common/src/tx_mutex_put.c **** TX_INTERRUPT_SAVE_AREA
  39              		.loc 1 83 1 view .LVU1
  84:../Middlewares/threadx/common/src/tx_mutex_put.c **** 
  85:../Middlewares/threadx/common/src/tx_mutex_put.c **** TX_THREAD       *thread_ptr;
  40              		.loc 1 85 1 view .LVU2
  86:../Middlewares/threadx/common/src/tx_mutex_put.c **** TX_THREAD       *old_owner;
  41              		.loc 1 86 1 view .LVU3
  87:../Middlewares/threadx/common/src/tx_mutex_put.c **** UINT            old_priority;
  42              		.loc 1 87 1 view .LVU4
  88:../Middlewares/threadx/common/src/tx_mutex_put.c **** UINT            status;
  43              		.loc 1 88 1 view .LVU5
  89:../Middlewares/threadx/common/src/tx_mutex_put.c **** TX_MUTEX        *next_mutex;
  44              		.loc 1 89 1 view .LVU6
  90:../Middlewares/threadx/common/src/tx_mutex_put.c **** TX_MUTEX        *previous_mutex;
  45              		.loc 1 90 1 view .LVU7
  91:../Middlewares/threadx/common/src/tx_mutex_put.c **** UINT            owned_count;
  46              		.loc 1 91 1 view .LVU8
  92:../Middlewares/threadx/common/src/tx_mutex_put.c **** UINT            suspended_count;
  47              		.loc 1 92 1 view .LVU9
  93:../Middlewares/threadx/common/src/tx_mutex_put.c **** TX_THREAD       *current_thread;
  48              		.loc 1 93 1 view .LVU10
  94:../Middlewares/threadx/common/src/tx_mutex_put.c **** TX_THREAD       *next_thread;
  49              		.loc 1 94 1 view .LVU11
  95:../Middlewares/threadx/common/src/tx_mutex_put.c **** TX_THREAD       *previous_thread;
  50              		.loc 1 95 1 view .LVU12
  96:../Middlewares/threadx/common/src/tx_mutex_put.c **** TX_THREAD       *suspended_thread;
  51              		.loc 1 96 1 view .LVU13
  97:../Middlewares/threadx/common/src/tx_mutex_put.c **** UINT            inheritance_priority;
  52              		.loc 1 97 1 view .LVU14
  98:../Middlewares/threadx/common/src/tx_mutex_put.c **** 
  99:../Middlewares/threadx/common/src/tx_mutex_put.c **** 
 100:../Middlewares/threadx/common/src/tx_mutex_put.c ****     /* Setup status to indicate the processing is not complete.  */
 101:../Middlewares/threadx/common/src/tx_mutex_put.c ****     status =  TX_NOT_DONE;
  53              		.loc 1 101 5 view .LVU15
 102:../Middlewares/threadx/common/src/tx_mutex_put.c **** 
 103:../Middlewares/threadx/common/src/tx_mutex_put.c ****     /* Disable interrupts to put an instance back to the mutex.  */
 104:../Middlewares/threadx/common/src/tx_mutex_put.c ****     TX_DISABLE
  54              		.loc 1 104 5 view .LVU16
  55              	.LBB49:
  56              	.LBI49:
  57              		.file 2 "../Middlewares/threadx/ports/cortex_m55/gnu/inc/tx_port.h"
   1:../Middlewares/threadx/ports/cortex_m55/gnu/inc/tx_port.h **** /**************************************************************************/
   2:../Middlewares/threadx/ports/cortex_m55/gnu/inc/tx_port.h **** /*                                                                        */
   3:../Middlewares/threadx/ports/cortex_m55/gnu/inc/tx_port.h **** /*       Copyright (c) Microsoft Corporation. All rights reserved.        */
   4:../Middlewares/threadx/ports/cortex_m55/gnu/inc/tx_port.h **** /*                                                                        */
   5:../Middlewares/threadx/ports/cortex_m55/gnu/inc/tx_port.h **** /*       This software is licensed under the Microsoft Software License   */
   6:../Middlewares/threadx/ports/cortex_m55/gnu/inc/tx_port.h **** /*       Terms for Microsoft Azure RTOS. Full text of the license can be  */
   7:../Middlewares/threadx/ports/cortex_m55/gnu/inc/tx_port.h **** /*       found in the LICENSE file at https://aka.ms/AzureRTOS_EULA       */
   8:../Middlewares/threadx/ports/cortex_m55/gnu/inc/tx_port.h **** /*       and in the root directory of this software.                      */
   9:../Middlewares/threadx/ports/cortex_m55/gnu/inc/tx_port.h **** /*                                                                        */
  10:../Middlewares/threadx/ports/cortex_m55/gnu/inc/tx_port.h **** /**************************************************************************/
  11:../Middlewares/threadx/ports/cortex_m55/gnu/inc/tx_port.h **** 
ARM GAS  /tmp/ccBuKv1E.s 			page 4


  12:../Middlewares/threadx/ports/cortex_m55/gnu/inc/tx_port.h **** 
  13:../Middlewares/threadx/ports/cortex_m55/gnu/inc/tx_port.h **** /**************************************************************************/
  14:../Middlewares/threadx/ports/cortex_m55/gnu/inc/tx_port.h **** /**************************************************************************/
  15:../Middlewares/threadx/ports/cortex_m55/gnu/inc/tx_port.h **** /**                                                                       */
  16:../Middlewares/threadx/ports/cortex_m55/gnu/inc/tx_port.h **** /** ThreadX Component                                                     */
  17:../Middlewares/threadx/ports/cortex_m55/gnu/inc/tx_port.h **** /**                                                                       */
  18:../Middlewares/threadx/ports/cortex_m55/gnu/inc/tx_port.h **** /**   Port Specific                                                       */
  19:../Middlewares/threadx/ports/cortex_m55/gnu/inc/tx_port.h **** /**                                                                       */
  20:../Middlewares/threadx/ports/cortex_m55/gnu/inc/tx_port.h **** /**************************************************************************/
  21:../Middlewares/threadx/ports/cortex_m55/gnu/inc/tx_port.h **** /**************************************************************************/
  22:../Middlewares/threadx/ports/cortex_m55/gnu/inc/tx_port.h **** 
  23:../Middlewares/threadx/ports/cortex_m55/gnu/inc/tx_port.h **** 
  24:../Middlewares/threadx/ports/cortex_m55/gnu/inc/tx_port.h **** /**************************************************************************/
  25:../Middlewares/threadx/ports/cortex_m55/gnu/inc/tx_port.h **** /*                                                                        */
  26:../Middlewares/threadx/ports/cortex_m55/gnu/inc/tx_port.h **** /*  PORT SPECIFIC C INFORMATION                            RELEASE        */
  27:../Middlewares/threadx/ports/cortex_m55/gnu/inc/tx_port.h **** /*                                                                        */
  28:../Middlewares/threadx/ports/cortex_m55/gnu/inc/tx_port.h **** /*    tx_port.h                                         Cortex-M55/GNU    */
  29:../Middlewares/threadx/ports/cortex_m55/gnu/inc/tx_port.h **** /*                                                           6.2.1        */
  30:../Middlewares/threadx/ports/cortex_m55/gnu/inc/tx_port.h **** /*                                                                        */
  31:../Middlewares/threadx/ports/cortex_m55/gnu/inc/tx_port.h **** /*  AUTHOR                                                                */
  32:../Middlewares/threadx/ports/cortex_m55/gnu/inc/tx_port.h **** /*                                                                        */
  33:../Middlewares/threadx/ports/cortex_m55/gnu/inc/tx_port.h **** /*    Scott Larson, Microsoft Corporation                                 */
  34:../Middlewares/threadx/ports/cortex_m55/gnu/inc/tx_port.h **** /*                                                                        */
  35:../Middlewares/threadx/ports/cortex_m55/gnu/inc/tx_port.h **** /*  DESCRIPTION                                                           */
  36:../Middlewares/threadx/ports/cortex_m55/gnu/inc/tx_port.h **** /*                                                                        */
  37:../Middlewares/threadx/ports/cortex_m55/gnu/inc/tx_port.h **** /*    This file contains data type definitions that make the ThreadX      */
  38:../Middlewares/threadx/ports/cortex_m55/gnu/inc/tx_port.h **** /*    real-time kernel function identically on a variety of different     */
  39:../Middlewares/threadx/ports/cortex_m55/gnu/inc/tx_port.h **** /*    processor architectures.  For example, the size or number of bits   */
  40:../Middlewares/threadx/ports/cortex_m55/gnu/inc/tx_port.h **** /*    in an "int" data type vary between microprocessor architectures and */
  41:../Middlewares/threadx/ports/cortex_m55/gnu/inc/tx_port.h **** /*    even C compilers for the same microprocessor.  ThreadX does not     */
  42:../Middlewares/threadx/ports/cortex_m55/gnu/inc/tx_port.h **** /*    directly use native C data types.  Instead, ThreadX creates its     */
  43:../Middlewares/threadx/ports/cortex_m55/gnu/inc/tx_port.h **** /*    own special types that can be mapped to actual data types by this   */
  44:../Middlewares/threadx/ports/cortex_m55/gnu/inc/tx_port.h **** /*    file to guarantee consistency in the interface and functionality.   */
  45:../Middlewares/threadx/ports/cortex_m55/gnu/inc/tx_port.h **** /*                                                                        */
  46:../Middlewares/threadx/ports/cortex_m55/gnu/inc/tx_port.h **** /*    This file replaces the previous Cortex-M55 files. It unifies        */
  47:../Middlewares/threadx/ports/cortex_m55/gnu/inc/tx_port.h **** /*    the Cortex-M55 compilers into one common file.                      */
  48:../Middlewares/threadx/ports/cortex_m55/gnu/inc/tx_port.h **** /*                                                                        */
  49:../Middlewares/threadx/ports/cortex_m55/gnu/inc/tx_port.h **** /*  RELEASE HISTORY                                                       */
  50:../Middlewares/threadx/ports/cortex_m55/gnu/inc/tx_port.h **** /*                                                                        */
  51:../Middlewares/threadx/ports/cortex_m55/gnu/inc/tx_port.h **** /*    DATE              NAME                      DESCRIPTION             */
  52:../Middlewares/threadx/ports/cortex_m55/gnu/inc/tx_port.h **** /*                                                                        */
  53:../Middlewares/threadx/ports/cortex_m55/gnu/inc/tx_port.h **** /*  09-30-2020      Scott Larson            Initial Version 6.1           */
  54:../Middlewares/threadx/ports/cortex_m55/gnu/inc/tx_port.h **** /*  03-02-2021      Scott Larson            Modified comment(s), added    */
  55:../Middlewares/threadx/ports/cortex_m55/gnu/inc/tx_port.h **** /*                                            ULONG64_DEFINED,            */
  56:../Middlewares/threadx/ports/cortex_m55/gnu/inc/tx_port.h **** /*                                            resulting in version 6.1.5  */
  57:../Middlewares/threadx/ports/cortex_m55/gnu/inc/tx_port.h **** /*  06-02-2021      Scott Larson            Modified comment(s), removed  */
  58:../Middlewares/threadx/ports/cortex_m55/gnu/inc/tx_port.h **** /*                                            unneeded header file, funcs */
  59:../Middlewares/threadx/ports/cortex_m55/gnu/inc/tx_port.h **** /*                                            set_control and get_control */
  60:../Middlewares/threadx/ports/cortex_m55/gnu/inc/tx_port.h **** /*                                            changed to inline,          */
  61:../Middlewares/threadx/ports/cortex_m55/gnu/inc/tx_port.h **** /*                                            added symbol to enable      */
  62:../Middlewares/threadx/ports/cortex_m55/gnu/inc/tx_port.h **** /*                                            stack error handler,        */
  63:../Middlewares/threadx/ports/cortex_m55/gnu/inc/tx_port.h **** /*                                            resulting in version 6.1.7  */
  64:../Middlewares/threadx/ports/cortex_m55/gnu/inc/tx_port.h **** /*  10-15-2021      Scott Larson            Modified comment(s), improved */
  65:../Middlewares/threadx/ports/cortex_m55/gnu/inc/tx_port.h **** /*                                            stack check error handling, */
  66:../Middlewares/threadx/ports/cortex_m55/gnu/inc/tx_port.h **** /*                                            resulting in version 6.1.9  */
  67:../Middlewares/threadx/ports/cortex_m55/gnu/inc/tx_port.h **** /*  01-31-2022      Scott Larson            Modified comment(s), unified  */
  68:../Middlewares/threadx/ports/cortex_m55/gnu/inc/tx_port.h **** /*                                            this file across compilers, */
ARM GAS  /tmp/ccBuKv1E.s 			page 5


  69:../Middlewares/threadx/ports/cortex_m55/gnu/inc/tx_port.h **** /*                                            fixed predefined macro,     */
  70:../Middlewares/threadx/ports/cortex_m55/gnu/inc/tx_port.h **** /*                                            resulting in version 6.1.10 */
  71:../Middlewares/threadx/ports/cortex_m55/gnu/inc/tx_port.h **** /*  04-25-2022      Scott Larson            Modified comments and added   */
  72:../Middlewares/threadx/ports/cortex_m55/gnu/inc/tx_port.h **** /*                                            volatile to registers,      */
  73:../Middlewares/threadx/ports/cortex_m55/gnu/inc/tx_port.h **** /*                                            resulting in version 6.1.11 */
  74:../Middlewares/threadx/ports/cortex_m55/gnu/inc/tx_port.h **** /*  07-29-2022      Scott Larson            Modified comments and changed */
  75:../Middlewares/threadx/ports/cortex_m55/gnu/inc/tx_port.h **** /*                                            secure stack initialization */
  76:../Middlewares/threadx/ports/cortex_m55/gnu/inc/tx_port.h **** /*                                            macro to port-specific,     */
  77:../Middlewares/threadx/ports/cortex_m55/gnu/inc/tx_port.h **** /*                                            described BASEPRI usage,    */
  78:../Middlewares/threadx/ports/cortex_m55/gnu/inc/tx_port.h **** /*                                            resulting in version 6.1.12 */
  79:../Middlewares/threadx/ports/cortex_m55/gnu/inc/tx_port.h **** /*  03-08-2023      Scott Larson            Removed unneeded #include,    */
  80:../Middlewares/threadx/ports/cortex_m55/gnu/inc/tx_port.h **** /*                                            resulting in version 6.2.1  */
  81:../Middlewares/threadx/ports/cortex_m55/gnu/inc/tx_port.h **** /*                                                                        */
  82:../Middlewares/threadx/ports/cortex_m55/gnu/inc/tx_port.h **** /**************************************************************************/
  83:../Middlewares/threadx/ports/cortex_m55/gnu/inc/tx_port.h **** 
  84:../Middlewares/threadx/ports/cortex_m55/gnu/inc/tx_port.h **** #ifndef TX_PORT_H
  85:../Middlewares/threadx/ports/cortex_m55/gnu/inc/tx_port.h **** #define TX_PORT_H
  86:../Middlewares/threadx/ports/cortex_m55/gnu/inc/tx_port.h **** 
  87:../Middlewares/threadx/ports/cortex_m55/gnu/inc/tx_port.h **** /* Determine if the optional ThreadX user define file should be used.  */
  88:../Middlewares/threadx/ports/cortex_m55/gnu/inc/tx_port.h **** #ifdef TX_INCLUDE_USER_DEFINE_FILE
  89:../Middlewares/threadx/ports/cortex_m55/gnu/inc/tx_port.h **** 
  90:../Middlewares/threadx/ports/cortex_m55/gnu/inc/tx_port.h **** /* Yes, include the user defines in tx_user.h. The defines in this file may
  91:../Middlewares/threadx/ports/cortex_m55/gnu/inc/tx_port.h ****    alternately be defined on the command line.  */
  92:../Middlewares/threadx/ports/cortex_m55/gnu/inc/tx_port.h **** 
  93:../Middlewares/threadx/ports/cortex_m55/gnu/inc/tx_port.h **** #include "tx_user.h"
  94:../Middlewares/threadx/ports/cortex_m55/gnu/inc/tx_port.h **** #endif /* TX_INCLUDE_USER_DEFINE_FILE */
  95:../Middlewares/threadx/ports/cortex_m55/gnu/inc/tx_port.h **** 
  96:../Middlewares/threadx/ports/cortex_m55/gnu/inc/tx_port.h **** /* Define compiler library include files.  */
  97:../Middlewares/threadx/ports/cortex_m55/gnu/inc/tx_port.h **** 
  98:../Middlewares/threadx/ports/cortex_m55/gnu/inc/tx_port.h **** #include <stdlib.h>
  99:../Middlewares/threadx/ports/cortex_m55/gnu/inc/tx_port.h **** #include <string.h>
 100:../Middlewares/threadx/ports/cortex_m55/gnu/inc/tx_port.h **** 
 101:../Middlewares/threadx/ports/cortex_m55/gnu/inc/tx_port.h **** #ifdef __ICCARM__
 102:../Middlewares/threadx/ports/cortex_m55/gnu/inc/tx_port.h **** #include <intrinsics.h>                         /* IAR Intrinsics */
 103:../Middlewares/threadx/ports/cortex_m55/gnu/inc/tx_port.h **** #define __asm__                 __asm           /* Define to make all inline asm from each compiler
 104:../Middlewares/threadx/ports/cortex_m55/gnu/inc/tx_port.h **** #define _tx_control_get         __get_CONTROL
 105:../Middlewares/threadx/ports/cortex_m55/gnu/inc/tx_port.h **** #define _tx_control_set         __set_CONTROL
 106:../Middlewares/threadx/ports/cortex_m55/gnu/inc/tx_port.h **** #define _tx_ipsr_get            __get_IPSR
 107:../Middlewares/threadx/ports/cortex_m55/gnu/inc/tx_port.h **** #ifdef  TX_ENABLE_IAR_LIBRARY_SUPPORT
 108:../Middlewares/threadx/ports/cortex_m55/gnu/inc/tx_port.h **** #include <yvals.h>
 109:../Middlewares/threadx/ports/cortex_m55/gnu/inc/tx_port.h **** #endif /* TX_ENABLE_IAR_LIBRARY_SUPPORT */
 110:../Middlewares/threadx/ports/cortex_m55/gnu/inc/tx_port.h **** #endif /* __ICCARM__ */
 111:../Middlewares/threadx/ports/cortex_m55/gnu/inc/tx_port.h **** 
 112:../Middlewares/threadx/ports/cortex_m55/gnu/inc/tx_port.h **** 
 113:../Middlewares/threadx/ports/cortex_m55/gnu/inc/tx_port.h **** /* Define ThreadX basic types for this port.  */
 114:../Middlewares/threadx/ports/cortex_m55/gnu/inc/tx_port.h **** 
 115:../Middlewares/threadx/ports/cortex_m55/gnu/inc/tx_port.h **** #define VOID                                    void
 116:../Middlewares/threadx/ports/cortex_m55/gnu/inc/tx_port.h **** typedef char                                    CHAR;
 117:../Middlewares/threadx/ports/cortex_m55/gnu/inc/tx_port.h **** typedef unsigned char                           UCHAR;
 118:../Middlewares/threadx/ports/cortex_m55/gnu/inc/tx_port.h **** typedef int                                     INT;
 119:../Middlewares/threadx/ports/cortex_m55/gnu/inc/tx_port.h **** typedef unsigned int                            UINT;
 120:../Middlewares/threadx/ports/cortex_m55/gnu/inc/tx_port.h **** typedef long                                    LONG;
 121:../Middlewares/threadx/ports/cortex_m55/gnu/inc/tx_port.h **** typedef unsigned long                           ULONG;
 122:../Middlewares/threadx/ports/cortex_m55/gnu/inc/tx_port.h **** typedef unsigned long long                      ULONG64;
 123:../Middlewares/threadx/ports/cortex_m55/gnu/inc/tx_port.h **** typedef short                                   SHORT;
 124:../Middlewares/threadx/ports/cortex_m55/gnu/inc/tx_port.h **** typedef unsigned short                          USHORT;
 125:../Middlewares/threadx/ports/cortex_m55/gnu/inc/tx_port.h **** #define ULONG64_DEFINED
ARM GAS  /tmp/ccBuKv1E.s 			page 6


 126:../Middlewares/threadx/ports/cortex_m55/gnu/inc/tx_port.h **** 
 127:../Middlewares/threadx/ports/cortex_m55/gnu/inc/tx_port.h **** /* Function prototypes for this port. */
 128:../Middlewares/threadx/ports/cortex_m55/gnu/inc/tx_port.h **** struct  TX_THREAD_STRUCT;
 129:../Middlewares/threadx/ports/cortex_m55/gnu/inc/tx_port.h **** UINT    _txe_thread_secure_stack_allocate(struct TX_THREAD_STRUCT *thread_ptr, ULONG stack_size);
 130:../Middlewares/threadx/ports/cortex_m55/gnu/inc/tx_port.h **** UINT    _txe_thread_secure_stack_free(struct TX_THREAD_STRUCT *thread_ptr);
 131:../Middlewares/threadx/ports/cortex_m55/gnu/inc/tx_port.h **** UINT    _tx_thread_secure_stack_allocate(struct TX_THREAD_STRUCT *tx_thread, ULONG stack_size);
 132:../Middlewares/threadx/ports/cortex_m55/gnu/inc/tx_port.h **** UINT    _tx_thread_secure_stack_free(struct TX_THREAD_STRUCT *tx_thread);
 133:../Middlewares/threadx/ports/cortex_m55/gnu/inc/tx_port.h **** 
 134:../Middlewares/threadx/ports/cortex_m55/gnu/inc/tx_port.h **** /* Define the system API mappings based on the error checking
 135:../Middlewares/threadx/ports/cortex_m55/gnu/inc/tx_port.h ****    selected by the user.  Note: this section is only applicable to
 136:../Middlewares/threadx/ports/cortex_m55/gnu/inc/tx_port.h ****    application source code, hence the conditional that turns off this
 137:../Middlewares/threadx/ports/cortex_m55/gnu/inc/tx_port.h ****    stuff when the include file is processed by the ThreadX source. */
 138:../Middlewares/threadx/ports/cortex_m55/gnu/inc/tx_port.h **** 
 139:../Middlewares/threadx/ports/cortex_m55/gnu/inc/tx_port.h **** #ifndef TX_SOURCE_CODE
 140:../Middlewares/threadx/ports/cortex_m55/gnu/inc/tx_port.h **** 
 141:../Middlewares/threadx/ports/cortex_m55/gnu/inc/tx_port.h **** 
 142:../Middlewares/threadx/ports/cortex_m55/gnu/inc/tx_port.h **** /* Determine if error checking is desired.  If so, map API functions
 143:../Middlewares/threadx/ports/cortex_m55/gnu/inc/tx_port.h ****    to the appropriate error checking front-ends.  Otherwise, map API
 144:../Middlewares/threadx/ports/cortex_m55/gnu/inc/tx_port.h ****    functions to the core functions that actually perform the work.
 145:../Middlewares/threadx/ports/cortex_m55/gnu/inc/tx_port.h ****    Note: error checking is enabled by default.  */
 146:../Middlewares/threadx/ports/cortex_m55/gnu/inc/tx_port.h **** 
 147:../Middlewares/threadx/ports/cortex_m55/gnu/inc/tx_port.h **** #ifdef TX_DISABLE_ERROR_CHECKING
 148:../Middlewares/threadx/ports/cortex_m55/gnu/inc/tx_port.h **** 
 149:../Middlewares/threadx/ports/cortex_m55/gnu/inc/tx_port.h **** /* Services without error checking.  */
 150:../Middlewares/threadx/ports/cortex_m55/gnu/inc/tx_port.h **** 
 151:../Middlewares/threadx/ports/cortex_m55/gnu/inc/tx_port.h **** #define tx_thread_secure_stack_allocate   _tx_thread_secure_stack_allocate
 152:../Middlewares/threadx/ports/cortex_m55/gnu/inc/tx_port.h **** #define tx_thread_secure_stack_free       _tx_thread_secure_stack_free
 153:../Middlewares/threadx/ports/cortex_m55/gnu/inc/tx_port.h **** 
 154:../Middlewares/threadx/ports/cortex_m55/gnu/inc/tx_port.h **** #else
 155:../Middlewares/threadx/ports/cortex_m55/gnu/inc/tx_port.h **** 
 156:../Middlewares/threadx/ports/cortex_m55/gnu/inc/tx_port.h **** /* Services with error checking.  */
 157:../Middlewares/threadx/ports/cortex_m55/gnu/inc/tx_port.h **** 
 158:../Middlewares/threadx/ports/cortex_m55/gnu/inc/tx_port.h **** #define tx_thread_secure_stack_allocate   _txe_thread_secure_stack_allocate
 159:../Middlewares/threadx/ports/cortex_m55/gnu/inc/tx_port.h **** #define tx_thread_secure_stack_free       _txe_thread_secure_stack_free
 160:../Middlewares/threadx/ports/cortex_m55/gnu/inc/tx_port.h **** 
 161:../Middlewares/threadx/ports/cortex_m55/gnu/inc/tx_port.h **** #endif  /* TX_DISABLE_ERROR_CHECKING */
 162:../Middlewares/threadx/ports/cortex_m55/gnu/inc/tx_port.h **** #endif  /* TX_SOURCE_CODE */
 163:../Middlewares/threadx/ports/cortex_m55/gnu/inc/tx_port.h **** 
 164:../Middlewares/threadx/ports/cortex_m55/gnu/inc/tx_port.h **** /* This port has a usage fault handler in _tx_initialize_low_level for stack exceptions.  */
 165:../Middlewares/threadx/ports/cortex_m55/gnu/inc/tx_port.h **** #define TX_PORT_THREAD_STACK_ERROR_HANDLING
 166:../Middlewares/threadx/ports/cortex_m55/gnu/inc/tx_port.h **** 
 167:../Middlewares/threadx/ports/cortex_m55/gnu/inc/tx_port.h **** /* Define the priority levels for ThreadX.  Legal values range
 168:../Middlewares/threadx/ports/cortex_m55/gnu/inc/tx_port.h ****    from 32 to 1024 and MUST be evenly divisible by 32.  */
 169:../Middlewares/threadx/ports/cortex_m55/gnu/inc/tx_port.h **** 
 170:../Middlewares/threadx/ports/cortex_m55/gnu/inc/tx_port.h **** #ifndef TX_MAX_PRIORITIES
 171:../Middlewares/threadx/ports/cortex_m55/gnu/inc/tx_port.h **** #define TX_MAX_PRIORITIES                       32
 172:../Middlewares/threadx/ports/cortex_m55/gnu/inc/tx_port.h **** #endif
 173:../Middlewares/threadx/ports/cortex_m55/gnu/inc/tx_port.h **** 
 174:../Middlewares/threadx/ports/cortex_m55/gnu/inc/tx_port.h **** 
 175:../Middlewares/threadx/ports/cortex_m55/gnu/inc/tx_port.h **** /* Define the minimum stack for a ThreadX thread on this processor. If the size supplied during
 176:../Middlewares/threadx/ports/cortex_m55/gnu/inc/tx_port.h ****    thread creation is less than this value, the thread create call will return an error.  */
 177:../Middlewares/threadx/ports/cortex_m55/gnu/inc/tx_port.h **** 
 178:../Middlewares/threadx/ports/cortex_m55/gnu/inc/tx_port.h **** #ifndef TX_MINIMUM_STACK
 179:../Middlewares/threadx/ports/cortex_m55/gnu/inc/tx_port.h **** #define TX_MINIMUM_STACK                        200         /* Minimum stack size for this port  */
 180:../Middlewares/threadx/ports/cortex_m55/gnu/inc/tx_port.h **** #endif
 181:../Middlewares/threadx/ports/cortex_m55/gnu/inc/tx_port.h **** 
 182:../Middlewares/threadx/ports/cortex_m55/gnu/inc/tx_port.h **** 
ARM GAS  /tmp/ccBuKv1E.s 			page 7


 183:../Middlewares/threadx/ports/cortex_m55/gnu/inc/tx_port.h **** /* Define the system timer thread's default stack size and priority.  These are only applicable
 184:../Middlewares/threadx/ports/cortex_m55/gnu/inc/tx_port.h ****    if TX_TIMER_PROCESS_IN_ISR is not defined.  */
 185:../Middlewares/threadx/ports/cortex_m55/gnu/inc/tx_port.h **** 
 186:../Middlewares/threadx/ports/cortex_m55/gnu/inc/tx_port.h **** #ifndef TX_TIMER_THREAD_STACK_SIZE
 187:../Middlewares/threadx/ports/cortex_m55/gnu/inc/tx_port.h **** #define TX_TIMER_THREAD_STACK_SIZE              1024        /* Default timer thread stack size  */
 188:../Middlewares/threadx/ports/cortex_m55/gnu/inc/tx_port.h **** #endif
 189:../Middlewares/threadx/ports/cortex_m55/gnu/inc/tx_port.h **** 
 190:../Middlewares/threadx/ports/cortex_m55/gnu/inc/tx_port.h **** #ifndef TX_TIMER_THREAD_PRIORITY
 191:../Middlewares/threadx/ports/cortex_m55/gnu/inc/tx_port.h **** #define TX_TIMER_THREAD_PRIORITY                0           /* Default timer thread priority    */
 192:../Middlewares/threadx/ports/cortex_m55/gnu/inc/tx_port.h **** #endif
 193:../Middlewares/threadx/ports/cortex_m55/gnu/inc/tx_port.h **** 
 194:../Middlewares/threadx/ports/cortex_m55/gnu/inc/tx_port.h **** /* By default, ThreadX for Cortex-M uses the PRIMASK register to enable/disable interrupts.
 195:../Middlewares/threadx/ports/cortex_m55/gnu/inc/tx_port.h **** If using BASEPRI is desired, define the following two symbols for both c and assembly files:
 196:../Middlewares/threadx/ports/cortex_m55/gnu/inc/tx_port.h **** TX_PORT_USE_BASEPRI - This tells ThreadX to use BASEPRI instead of PRIMASK.
 197:../Middlewares/threadx/ports/cortex_m55/gnu/inc/tx_port.h **** TX_PORT_BASEPRI = (priority_mask << (8 - number_priority_bits)) - this defines the maximum priority
 198:../Middlewares/threadx/ports/cortex_m55/gnu/inc/tx_port.h **** Any interrupt with a higher priority than priority_mask will not be masked, thus the interrupt will
 199:../Middlewares/threadx/ports/cortex_m55/gnu/inc/tx_port.h **** */
 200:../Middlewares/threadx/ports/cortex_m55/gnu/inc/tx_port.h **** 
 201:../Middlewares/threadx/ports/cortex_m55/gnu/inc/tx_port.h **** /* Define various constants for the ThreadX Cortex-M port.  */
 202:../Middlewares/threadx/ports/cortex_m55/gnu/inc/tx_port.h **** 
 203:../Middlewares/threadx/ports/cortex_m55/gnu/inc/tx_port.h **** #define TX_INT_DISABLE                          1           /* Disable interrupts               */
 204:../Middlewares/threadx/ports/cortex_m55/gnu/inc/tx_port.h **** #define TX_INT_ENABLE                           0           /* Enable interrupts                */
 205:../Middlewares/threadx/ports/cortex_m55/gnu/inc/tx_port.h **** 
 206:../Middlewares/threadx/ports/cortex_m55/gnu/inc/tx_port.h **** 
 207:../Middlewares/threadx/ports/cortex_m55/gnu/inc/tx_port.h **** /* Define the clock source for trace event entry time stamp. The following two item are port specif
 208:../Middlewares/threadx/ports/cortex_m55/gnu/inc/tx_port.h ****    For example, if the time source is at the address 0x0a800024 and is 16-bits in size, the clock
 209:../Middlewares/threadx/ports/cortex_m55/gnu/inc/tx_port.h ****    source constants would be:
 210:../Middlewares/threadx/ports/cortex_m55/gnu/inc/tx_port.h **** 
 211:../Middlewares/threadx/ports/cortex_m55/gnu/inc/tx_port.h **** #define TX_TRACE_TIME_SOURCE                    *((volatile ULONG *) 0x0a800024)
 212:../Middlewares/threadx/ports/cortex_m55/gnu/inc/tx_port.h **** #define TX_TRACE_TIME_MASK                      0x0000FFFFUL
 213:../Middlewares/threadx/ports/cortex_m55/gnu/inc/tx_port.h **** 
 214:../Middlewares/threadx/ports/cortex_m55/gnu/inc/tx_port.h **** */
 215:../Middlewares/threadx/ports/cortex_m55/gnu/inc/tx_port.h **** 
 216:../Middlewares/threadx/ports/cortex_m55/gnu/inc/tx_port.h **** #ifndef TX_MISRA_ENABLE
 217:../Middlewares/threadx/ports/cortex_m55/gnu/inc/tx_port.h **** #ifndef TX_TRACE_TIME_SOURCE
 218:../Middlewares/threadx/ports/cortex_m55/gnu/inc/tx_port.h **** #define TX_TRACE_TIME_SOURCE                    *((volatile ULONG *) 0xE0001004)
 219:../Middlewares/threadx/ports/cortex_m55/gnu/inc/tx_port.h **** #endif
 220:../Middlewares/threadx/ports/cortex_m55/gnu/inc/tx_port.h **** #else
 221:../Middlewares/threadx/ports/cortex_m55/gnu/inc/tx_port.h **** ULONG   _tx_misra_time_stamp_get(VOID);
 222:../Middlewares/threadx/ports/cortex_m55/gnu/inc/tx_port.h **** #define TX_TRACE_TIME_SOURCE                    _tx_misra_time_stamp_get()
 223:../Middlewares/threadx/ports/cortex_m55/gnu/inc/tx_port.h **** #endif
 224:../Middlewares/threadx/ports/cortex_m55/gnu/inc/tx_port.h **** 
 225:../Middlewares/threadx/ports/cortex_m55/gnu/inc/tx_port.h **** #ifndef TX_TRACE_TIME_MASK
 226:../Middlewares/threadx/ports/cortex_m55/gnu/inc/tx_port.h **** #define TX_TRACE_TIME_MASK                      0xFFFFFFFFUL
 227:../Middlewares/threadx/ports/cortex_m55/gnu/inc/tx_port.h **** #endif
 228:../Middlewares/threadx/ports/cortex_m55/gnu/inc/tx_port.h **** 
 229:../Middlewares/threadx/ports/cortex_m55/gnu/inc/tx_port.h **** 
 230:../Middlewares/threadx/ports/cortex_m55/gnu/inc/tx_port.h **** /* Define the port specific options for the _tx_build_options variable. This variable indicates
 231:../Middlewares/threadx/ports/cortex_m55/gnu/inc/tx_port.h ****    how the ThreadX library was built.  */
 232:../Middlewares/threadx/ports/cortex_m55/gnu/inc/tx_port.h **** 
 233:../Middlewares/threadx/ports/cortex_m55/gnu/inc/tx_port.h **** #define TX_PORT_SPECIFIC_BUILD_OPTIONS          (0)
 234:../Middlewares/threadx/ports/cortex_m55/gnu/inc/tx_port.h **** 
 235:../Middlewares/threadx/ports/cortex_m55/gnu/inc/tx_port.h **** 
 236:../Middlewares/threadx/ports/cortex_m55/gnu/inc/tx_port.h **** /* Define the in-line initialization constant so that modules with in-line
 237:../Middlewares/threadx/ports/cortex_m55/gnu/inc/tx_port.h ****    initialization capabilities can prevent their initialization from being
 238:../Middlewares/threadx/ports/cortex_m55/gnu/inc/tx_port.h ****    a function call.  */
 239:../Middlewares/threadx/ports/cortex_m55/gnu/inc/tx_port.h **** 
ARM GAS  /tmp/ccBuKv1E.s 			page 8


 240:../Middlewares/threadx/ports/cortex_m55/gnu/inc/tx_port.h **** #ifdef TX_MISRA_ENABLE
 241:../Middlewares/threadx/ports/cortex_m55/gnu/inc/tx_port.h **** #define TX_DISABLE_INLINE
 242:../Middlewares/threadx/ports/cortex_m55/gnu/inc/tx_port.h **** #else
 243:../Middlewares/threadx/ports/cortex_m55/gnu/inc/tx_port.h **** #define TX_INLINE_INITIALIZATION
 244:../Middlewares/threadx/ports/cortex_m55/gnu/inc/tx_port.h **** #endif
 245:../Middlewares/threadx/ports/cortex_m55/gnu/inc/tx_port.h **** 
 246:../Middlewares/threadx/ports/cortex_m55/gnu/inc/tx_port.h **** 
 247:../Middlewares/threadx/ports/cortex_m55/gnu/inc/tx_port.h **** /* Determine whether or not stack checking is enabled. By default, ThreadX stack checking is
 248:../Middlewares/threadx/ports/cortex_m55/gnu/inc/tx_port.h ****    disabled. When the following is defined, ThreadX thread stack checking is enabled.  If stack
 249:../Middlewares/threadx/ports/cortex_m55/gnu/inc/tx_port.h ****    checking is enabled (TX_ENABLE_STACK_CHECKING is defined), the TX_DISABLE_STACK_FILLING
 250:../Middlewares/threadx/ports/cortex_m55/gnu/inc/tx_port.h ****    define is negated, thereby forcing the stack fill which is necessary for the stack checking
 251:../Middlewares/threadx/ports/cortex_m55/gnu/inc/tx_port.h ****    logic.  */
 252:../Middlewares/threadx/ports/cortex_m55/gnu/inc/tx_port.h **** 
 253:../Middlewares/threadx/ports/cortex_m55/gnu/inc/tx_port.h **** #ifndef TX_MISRA_ENABLE
 254:../Middlewares/threadx/ports/cortex_m55/gnu/inc/tx_port.h **** #ifdef TX_ENABLE_STACK_CHECKING
 255:../Middlewares/threadx/ports/cortex_m55/gnu/inc/tx_port.h **** #undef TX_DISABLE_STACK_FILLING
 256:../Middlewares/threadx/ports/cortex_m55/gnu/inc/tx_port.h **** #endif
 257:../Middlewares/threadx/ports/cortex_m55/gnu/inc/tx_port.h **** #endif
 258:../Middlewares/threadx/ports/cortex_m55/gnu/inc/tx_port.h **** 
 259:../Middlewares/threadx/ports/cortex_m55/gnu/inc/tx_port.h **** 
 260:../Middlewares/threadx/ports/cortex_m55/gnu/inc/tx_port.h **** /* Define the TX_THREAD control block extensions for this port. The main reason
 261:../Middlewares/threadx/ports/cortex_m55/gnu/inc/tx_port.h ****    for the multiple macros is so that backward compatibility can be maintained with
 262:../Middlewares/threadx/ports/cortex_m55/gnu/inc/tx_port.h ****    existing ThreadX kernel awareness modules.  */
 263:../Middlewares/threadx/ports/cortex_m55/gnu/inc/tx_port.h **** 
 264:../Middlewares/threadx/ports/cortex_m55/gnu/inc/tx_port.h **** #define TX_THREAD_EXTENSION_0
 265:../Middlewares/threadx/ports/cortex_m55/gnu/inc/tx_port.h **** #define TX_THREAD_EXTENSION_1
 266:../Middlewares/threadx/ports/cortex_m55/gnu/inc/tx_port.h **** 
 267:../Middlewares/threadx/ports/cortex_m55/gnu/inc/tx_port.h **** #ifdef  TX_ENABLE_IAR_LIBRARY_SUPPORT
 268:../Middlewares/threadx/ports/cortex_m55/gnu/inc/tx_port.h **** /* IAR library support */
 269:../Middlewares/threadx/ports/cortex_m55/gnu/inc/tx_port.h **** #if !defined(TX_SINGLE_MODE_SECURE) && !defined(TX_SINGLE_MODE_NON_SECURE)
 270:../Middlewares/threadx/ports/cortex_m55/gnu/inc/tx_port.h **** /* ThreadX in non-secure zone with calls to secure zone. */
 271:../Middlewares/threadx/ports/cortex_m55/gnu/inc/tx_port.h **** #define TX_THREAD_EXTENSION_2           VOID    *tx_thread_secure_stack_context;    \
 272:../Middlewares/threadx/ports/cortex_m55/gnu/inc/tx_port.h ****                                         VOID    *tx_thread_iar_tls_pointer;
 273:../Middlewares/threadx/ports/cortex_m55/gnu/inc/tx_port.h **** #else
 274:../Middlewares/threadx/ports/cortex_m55/gnu/inc/tx_port.h **** /* ThreadX in only one zone. */
 275:../Middlewares/threadx/ports/cortex_m55/gnu/inc/tx_port.h **** #define TX_THREAD_EXTENSION_2           VOID    *tx_thread_iar_tls_pointer;
 276:../Middlewares/threadx/ports/cortex_m55/gnu/inc/tx_port.h **** #endif
 277:../Middlewares/threadx/ports/cortex_m55/gnu/inc/tx_port.h **** 
 278:../Middlewares/threadx/ports/cortex_m55/gnu/inc/tx_port.h **** #else
 279:../Middlewares/threadx/ports/cortex_m55/gnu/inc/tx_port.h **** /* No IAR library support */
 280:../Middlewares/threadx/ports/cortex_m55/gnu/inc/tx_port.h **** #if !defined(TX_SINGLE_MODE_SECURE) && !defined(TX_SINGLE_MODE_NON_SECURE)
 281:../Middlewares/threadx/ports/cortex_m55/gnu/inc/tx_port.h **** /* ThreadX in non-secure zone with calls to secure zone. */
 282:../Middlewares/threadx/ports/cortex_m55/gnu/inc/tx_port.h **** #define TX_THREAD_EXTENSION_2           VOID    *tx_thread_secure_stack_context;
 283:../Middlewares/threadx/ports/cortex_m55/gnu/inc/tx_port.h **** #else
 284:../Middlewares/threadx/ports/cortex_m55/gnu/inc/tx_port.h **** /* ThreadX in only one zone. */
 285:../Middlewares/threadx/ports/cortex_m55/gnu/inc/tx_port.h **** #define TX_THREAD_EXTENSION_2
 286:../Middlewares/threadx/ports/cortex_m55/gnu/inc/tx_port.h **** #endif
 287:../Middlewares/threadx/ports/cortex_m55/gnu/inc/tx_port.h **** 
 288:../Middlewares/threadx/ports/cortex_m55/gnu/inc/tx_port.h **** #endif  /* TX_ENABLE_IAR_LIBRARY_SUPPORT */
 289:../Middlewares/threadx/ports/cortex_m55/gnu/inc/tx_port.h **** 
 290:../Middlewares/threadx/ports/cortex_m55/gnu/inc/tx_port.h **** #define TX_THREAD_EXTENSION_3
 291:../Middlewares/threadx/ports/cortex_m55/gnu/inc/tx_port.h **** 
 292:../Middlewares/threadx/ports/cortex_m55/gnu/inc/tx_port.h **** 
 293:../Middlewares/threadx/ports/cortex_m55/gnu/inc/tx_port.h **** /* Define the port extensions of the remaining ThreadX objects.  */
 294:../Middlewares/threadx/ports/cortex_m55/gnu/inc/tx_port.h **** 
 295:../Middlewares/threadx/ports/cortex_m55/gnu/inc/tx_port.h **** #define TX_BLOCK_POOL_EXTENSION
 296:../Middlewares/threadx/ports/cortex_m55/gnu/inc/tx_port.h **** #define TX_BYTE_POOL_EXTENSION
ARM GAS  /tmp/ccBuKv1E.s 			page 9


 297:../Middlewares/threadx/ports/cortex_m55/gnu/inc/tx_port.h **** #define TX_EVENT_FLAGS_GROUP_EXTENSION
 298:../Middlewares/threadx/ports/cortex_m55/gnu/inc/tx_port.h **** #define TX_MUTEX_EXTENSION
 299:../Middlewares/threadx/ports/cortex_m55/gnu/inc/tx_port.h **** #define TX_QUEUE_EXTENSION
 300:../Middlewares/threadx/ports/cortex_m55/gnu/inc/tx_port.h **** #define TX_SEMAPHORE_EXTENSION
 301:../Middlewares/threadx/ports/cortex_m55/gnu/inc/tx_port.h **** #define TX_TIMER_EXTENSION
 302:../Middlewares/threadx/ports/cortex_m55/gnu/inc/tx_port.h **** 
 303:../Middlewares/threadx/ports/cortex_m55/gnu/inc/tx_port.h **** 
 304:../Middlewares/threadx/ports/cortex_m55/gnu/inc/tx_port.h **** /* Define the user extension field of the thread control block.  Nothing
 305:../Middlewares/threadx/ports/cortex_m55/gnu/inc/tx_port.h ****    additional is needed for this port so it is defined as white space.  */
 306:../Middlewares/threadx/ports/cortex_m55/gnu/inc/tx_port.h **** 
 307:../Middlewares/threadx/ports/cortex_m55/gnu/inc/tx_port.h **** #ifndef TX_THREAD_USER_EXTENSION
 308:../Middlewares/threadx/ports/cortex_m55/gnu/inc/tx_port.h **** #define TX_THREAD_USER_EXTENSION
 309:../Middlewares/threadx/ports/cortex_m55/gnu/inc/tx_port.h **** #endif
 310:../Middlewares/threadx/ports/cortex_m55/gnu/inc/tx_port.h **** 
 311:../Middlewares/threadx/ports/cortex_m55/gnu/inc/tx_port.h **** 
 312:../Middlewares/threadx/ports/cortex_m55/gnu/inc/tx_port.h **** /* Define the macros for processing extensions in tx_thread_create, tx_thread_delete,
 313:../Middlewares/threadx/ports/cortex_m55/gnu/inc/tx_port.h ****    tx_thread_shell_entry, and tx_thread_terminate.  */
 314:../Middlewares/threadx/ports/cortex_m55/gnu/inc/tx_port.h **** #ifdef  TX_ENABLE_IAR_LIBRARY_SUPPORT
 315:../Middlewares/threadx/ports/cortex_m55/gnu/inc/tx_port.h **** void    *_tx_iar_create_per_thread_tls_area(void);
 316:../Middlewares/threadx/ports/cortex_m55/gnu/inc/tx_port.h **** void    _tx_iar_destroy_per_thread_tls_area(void *tls_ptr);
 317:../Middlewares/threadx/ports/cortex_m55/gnu/inc/tx_port.h **** void    __iar_Initlocks(void);
 318:../Middlewares/threadx/ports/cortex_m55/gnu/inc/tx_port.h **** #define TX_THREAD_CREATE_EXTENSION(thread_ptr)                      thread_ptr -> tx_thread_iar_tls
 319:../Middlewares/threadx/ports/cortex_m55/gnu/inc/tx_port.h **** 
 320:../Middlewares/threadx/ports/cortex_m55/gnu/inc/tx_port.h **** #if !defined(TX_SINGLE_MODE_SECURE) && !defined(TX_SINGLE_MODE_NON_SECURE)
 321:../Middlewares/threadx/ports/cortex_m55/gnu/inc/tx_port.h **** #define TX_THREAD_DELETE_EXTENSION(thread_ptr)                      do {_tx_iar_destroy_per_thread_
 322:../Middlewares/threadx/ports/cortex_m55/gnu/inc/tx_port.h ****                                                                         thread_ptr -> tx_thread_iar
 323:../Middlewares/threadx/ports/cortex_m55/gnu/inc/tx_port.h ****                                                                     if(thread_ptr -> tx_thread_secu
 324:../Middlewares/threadx/ports/cortex_m55/gnu/inc/tx_port.h **** #else
 325:../Middlewares/threadx/ports/cortex_m55/gnu/inc/tx_port.h **** #define TX_THREAD_DELETE_EXTENSION(thread_ptr)                      do {_tx_iar_destroy_per_thread_
 326:../Middlewares/threadx/ports/cortex_m55/gnu/inc/tx_port.h ****                                                                         thread_ptr -> tx_thread_iar
 327:../Middlewares/threadx/ports/cortex_m55/gnu/inc/tx_port.h **** #endif
 328:../Middlewares/threadx/ports/cortex_m55/gnu/inc/tx_port.h **** #define TX_PORT_SPECIFIC_PRE_SCHEDULER_INITIALIZATION               do {__iar_Initlocks();} while(0
 329:../Middlewares/threadx/ports/cortex_m55/gnu/inc/tx_port.h **** 
 330:../Middlewares/threadx/ports/cortex_m55/gnu/inc/tx_port.h **** #else   /* No IAR library support. */
 331:../Middlewares/threadx/ports/cortex_m55/gnu/inc/tx_port.h **** #define TX_THREAD_CREATE_EXTENSION(thread_ptr)
 332:../Middlewares/threadx/ports/cortex_m55/gnu/inc/tx_port.h **** #if !defined(TX_SINGLE_MODE_SECURE) && !defined(TX_SINGLE_MODE_NON_SECURE)
 333:../Middlewares/threadx/ports/cortex_m55/gnu/inc/tx_port.h **** #define TX_THREAD_DELETE_EXTENSION(thread_ptr)                      if(thread_ptr -> tx_thread_secu
 334:../Middlewares/threadx/ports/cortex_m55/gnu/inc/tx_port.h **** #else
 335:../Middlewares/threadx/ports/cortex_m55/gnu/inc/tx_port.h **** #define TX_THREAD_DELETE_EXTENSION(thread_ptr)
 336:../Middlewares/threadx/ports/cortex_m55/gnu/inc/tx_port.h **** #endif
 337:../Middlewares/threadx/ports/cortex_m55/gnu/inc/tx_port.h **** #endif  /* TX_ENABLE_IAR_LIBRARY_SUPPORT */
 338:../Middlewares/threadx/ports/cortex_m55/gnu/inc/tx_port.h **** 
 339:../Middlewares/threadx/ports/cortex_m55/gnu/inc/tx_port.h **** #if !defined(TX_SINGLE_MODE_SECURE) && !defined(TX_SINGLE_MODE_NON_SECURE)
 340:../Middlewares/threadx/ports/cortex_m55/gnu/inc/tx_port.h **** /* Define the size of the secure stack for the timer thread and use the extension to allocate the s
 341:../Middlewares/threadx/ports/cortex_m55/gnu/inc/tx_port.h **** #define TX_TIMER_THREAD_SECURE_STACK_SIZE       256
 342:../Middlewares/threadx/ports/cortex_m55/gnu/inc/tx_port.h **** #define TX_TIMER_INITIALIZE_EXTENSION(status)   _tx_thread_secure_stack_allocate(&_tx_timer_thread,
 343:../Middlewares/threadx/ports/cortex_m55/gnu/inc/tx_port.h **** #endif
 344:../Middlewares/threadx/ports/cortex_m55/gnu/inc/tx_port.h **** 
 345:../Middlewares/threadx/ports/cortex_m55/gnu/inc/tx_port.h **** 
 346:../Middlewares/threadx/ports/cortex_m55/gnu/inc/tx_port.h **** #if defined(__ARMVFP__) || defined(__ARM_PCS_VFP) || defined(__ARM_FP) || defined(__TARGET_FPU_VFP)
 347:../Middlewares/threadx/ports/cortex_m55/gnu/inc/tx_port.h **** 
 348:../Middlewares/threadx/ports/cortex_m55/gnu/inc/tx_port.h **** #ifdef TX_MISRA_ENABLE
 349:../Middlewares/threadx/ports/cortex_m55/gnu/inc/tx_port.h **** 
 350:../Middlewares/threadx/ports/cortex_m55/gnu/inc/tx_port.h **** ULONG  _tx_misra_control_get(void);
 351:../Middlewares/threadx/ports/cortex_m55/gnu/inc/tx_port.h **** void   _tx_misra_control_set(ULONG value);
 352:../Middlewares/threadx/ports/cortex_m55/gnu/inc/tx_port.h **** ULONG  _tx_misra_fpccr_get(void);
 353:../Middlewares/threadx/ports/cortex_m55/gnu/inc/tx_port.h **** void   _tx_misra_vfp_touch(void);
ARM GAS  /tmp/ccBuKv1E.s 			page 10


 354:../Middlewares/threadx/ports/cortex_m55/gnu/inc/tx_port.h **** 
 355:../Middlewares/threadx/ports/cortex_m55/gnu/inc/tx_port.h **** #else   /* TX_MISRA_ENABLE not defined */
 356:../Middlewares/threadx/ports/cortex_m55/gnu/inc/tx_port.h **** 
 357:../Middlewares/threadx/ports/cortex_m55/gnu/inc/tx_port.h **** #ifdef __GNUC__ /* GCC and ARM Compiler 6 */
 358:../Middlewares/threadx/ports/cortex_m55/gnu/inc/tx_port.h **** 
 359:../Middlewares/threadx/ports/cortex_m55/gnu/inc/tx_port.h **** __attribute__( ( always_inline ) ) static inline ULONG _tx_control_get(void)
 360:../Middlewares/threadx/ports/cortex_m55/gnu/inc/tx_port.h **** {
 361:../Middlewares/threadx/ports/cortex_m55/gnu/inc/tx_port.h **** ULONG  control_value;
 362:../Middlewares/threadx/ports/cortex_m55/gnu/inc/tx_port.h **** 
 363:../Middlewares/threadx/ports/cortex_m55/gnu/inc/tx_port.h ****     __asm__ volatile (" MRS  %0,CONTROL ": "=r" (control_value) );
 364:../Middlewares/threadx/ports/cortex_m55/gnu/inc/tx_port.h ****     return(control_value);
 365:../Middlewares/threadx/ports/cortex_m55/gnu/inc/tx_port.h **** }
 366:../Middlewares/threadx/ports/cortex_m55/gnu/inc/tx_port.h **** 
 367:../Middlewares/threadx/ports/cortex_m55/gnu/inc/tx_port.h **** __attribute__( ( always_inline ) ) static inline void _tx_control_set(ULONG control_value)
 368:../Middlewares/threadx/ports/cortex_m55/gnu/inc/tx_port.h **** {
 369:../Middlewares/threadx/ports/cortex_m55/gnu/inc/tx_port.h ****     __asm__ volatile (" MSR  CONTROL,%0": : "r" (control_value): "memory" );
 370:../Middlewares/threadx/ports/cortex_m55/gnu/inc/tx_port.h **** }
 371:../Middlewares/threadx/ports/cortex_m55/gnu/inc/tx_port.h **** 
 372:../Middlewares/threadx/ports/cortex_m55/gnu/inc/tx_port.h **** #endif  /* __GNUC__ */
 373:../Middlewares/threadx/ports/cortex_m55/gnu/inc/tx_port.h **** 
 374:../Middlewares/threadx/ports/cortex_m55/gnu/inc/tx_port.h **** /* Touch VFP register in order to flush. Works for AC6/GCC/IAR compilers. */
 375:../Middlewares/threadx/ports/cortex_m55/gnu/inc/tx_port.h **** #define TX_VFP_TOUCH()  __asm__ volatile ("VMOV.F32 s0, s0");
 376:../Middlewares/threadx/ports/cortex_m55/gnu/inc/tx_port.h **** 
 377:../Middlewares/threadx/ports/cortex_m55/gnu/inc/tx_port.h **** #endif  /* TX_MISRA_ENABLE */
 378:../Middlewares/threadx/ports/cortex_m55/gnu/inc/tx_port.h **** 
 379:../Middlewares/threadx/ports/cortex_m55/gnu/inc/tx_port.h **** /* A completed thread falls into _thread_shell_entry and we can simply deactivate the FPU via CONTR
 380:../Middlewares/threadx/ports/cortex_m55/gnu/inc/tx_port.h ****    in order to ensure no lazy stacking will occur. */
 381:../Middlewares/threadx/ports/cortex_m55/gnu/inc/tx_port.h **** 
 382:../Middlewares/threadx/ports/cortex_m55/gnu/inc/tx_port.h **** #ifndef TX_MISRA_ENABLE
 383:../Middlewares/threadx/ports/cortex_m55/gnu/inc/tx_port.h **** 
 384:../Middlewares/threadx/ports/cortex_m55/gnu/inc/tx_port.h **** #define TX_THREAD_COMPLETED_EXTENSION(thread_ptr)   {                                              
 385:../Middlewares/threadx/ports/cortex_m55/gnu/inc/tx_port.h ****                                                     ULONG  _tx_vfp_state;                          
 386:../Middlewares/threadx/ports/cortex_m55/gnu/inc/tx_port.h ****                                                         _tx_vfp_state = _tx_control_get();         
 387:../Middlewares/threadx/ports/cortex_m55/gnu/inc/tx_port.h ****                                                         _tx_vfp_state = _tx_vfp_state & ~((ULONG) 0
 388:../Middlewares/threadx/ports/cortex_m55/gnu/inc/tx_port.h ****                                                         _tx_control_set(_tx_vfp_state);            
 389:../Middlewares/threadx/ports/cortex_m55/gnu/inc/tx_port.h ****                                                     }
 390:../Middlewares/threadx/ports/cortex_m55/gnu/inc/tx_port.h **** #else
 391:../Middlewares/threadx/ports/cortex_m55/gnu/inc/tx_port.h **** 
 392:../Middlewares/threadx/ports/cortex_m55/gnu/inc/tx_port.h **** #define TX_THREAD_COMPLETED_EXTENSION(thread_ptr)   {                                              
 393:../Middlewares/threadx/ports/cortex_m55/gnu/inc/tx_port.h ****                                                     ULONG  _tx_vfp_state;                          
 394:../Middlewares/threadx/ports/cortex_m55/gnu/inc/tx_port.h ****                                                         _tx_vfp_state = _tx_misra_control_get();   
 395:../Middlewares/threadx/ports/cortex_m55/gnu/inc/tx_port.h ****                                                         _tx_vfp_state = _tx_vfp_state & ~((ULONG) 0
 396:../Middlewares/threadx/ports/cortex_m55/gnu/inc/tx_port.h ****                                                         _tx_misra_control_set(_tx_vfp_state);      
 397:../Middlewares/threadx/ports/cortex_m55/gnu/inc/tx_port.h ****                                                     }
 398:../Middlewares/threadx/ports/cortex_m55/gnu/inc/tx_port.h **** #endif
 399:../Middlewares/threadx/ports/cortex_m55/gnu/inc/tx_port.h **** 
 400:../Middlewares/threadx/ports/cortex_m55/gnu/inc/tx_port.h **** /* A thread can be terminated by another thread, so we first check if it's self-terminating and not
 401:../Middlewares/threadx/ports/cortex_m55/gnu/inc/tx_port.h ****    If so, deactivate the FPU via CONTROL.FPCA. Otherwise we are in an interrupt or another thread i
 402:../Middlewares/threadx/ports/cortex_m55/gnu/inc/tx_port.h ****    this one, so if the FPCCR.LSPACT bit is set, we need to save the CONTROL.FPCA state, touch the F
 403:../Middlewares/threadx/ports/cortex_m55/gnu/inc/tx_port.h ****    the lazy FPU save, then restore the CONTROL.FPCA state. */
 404:../Middlewares/threadx/ports/cortex_m55/gnu/inc/tx_port.h **** 
 405:../Middlewares/threadx/ports/cortex_m55/gnu/inc/tx_port.h **** #ifndef TX_MISRA_ENABLE
 406:../Middlewares/threadx/ports/cortex_m55/gnu/inc/tx_port.h **** 
 407:../Middlewares/threadx/ports/cortex_m55/gnu/inc/tx_port.h **** #define TX_THREAD_TERMINATED_EXTENSION(thread_ptr)  {                                              
 408:../Middlewares/threadx/ports/cortex_m55/gnu/inc/tx_port.h ****                                                     ULONG  _tx_system_state;                       
 409:../Middlewares/threadx/ports/cortex_m55/gnu/inc/tx_port.h ****                                                         _tx_system_state = TX_THREAD_GET_SYSTEM_STA
 410:../Middlewares/threadx/ports/cortex_m55/gnu/inc/tx_port.h ****                                                         if ((_tx_system_state == ((ULONG) 0)) && ((
ARM GAS  /tmp/ccBuKv1E.s 			page 11


 411:../Middlewares/threadx/ports/cortex_m55/gnu/inc/tx_port.h ****                                                         {                                          
 412:../Middlewares/threadx/ports/cortex_m55/gnu/inc/tx_port.h ****                                                         ULONG  _tx_vfp_state;                      
 413:../Middlewares/threadx/ports/cortex_m55/gnu/inc/tx_port.h ****                                                             _tx_vfp_state = _tx_control_get();     
 414:../Middlewares/threadx/ports/cortex_m55/gnu/inc/tx_port.h ****                                                             _tx_vfp_state = _tx_vfp_state & ~((ULON
 415:../Middlewares/threadx/ports/cortex_m55/gnu/inc/tx_port.h ****                                                             _tx_control_set(_tx_vfp_state);        
 416:../Middlewares/threadx/ports/cortex_m55/gnu/inc/tx_port.h ****                                                         }                                          
 417:../Middlewares/threadx/ports/cortex_m55/gnu/inc/tx_port.h ****                                                         else                                       
 418:../Middlewares/threadx/ports/cortex_m55/gnu/inc/tx_port.h ****                                                         {                                          
 419:../Middlewares/threadx/ports/cortex_m55/gnu/inc/tx_port.h ****                                                         ULONG  _tx_fpccr;                          
 420:../Middlewares/threadx/ports/cortex_m55/gnu/inc/tx_port.h ****                                                             _tx_fpccr = *((volatile ULONG *) 0xE000
 421:../Middlewares/threadx/ports/cortex_m55/gnu/inc/tx_port.h ****                                                             _tx_fpccr = _tx_fpccr & ((ULONG) 0x01);
 422:../Middlewares/threadx/ports/cortex_m55/gnu/inc/tx_port.h ****                                                             if (_tx_fpccr == ((ULONG) 0x01))       
 423:../Middlewares/threadx/ports/cortex_m55/gnu/inc/tx_port.h ****                                                             {                                      
 424:../Middlewares/threadx/ports/cortex_m55/gnu/inc/tx_port.h ****                                                             ULONG _tx_vfp_state;                   
 425:../Middlewares/threadx/ports/cortex_m55/gnu/inc/tx_port.h ****                                                                 _tx_vfp_state = _tx_control_get(); 
 426:../Middlewares/threadx/ports/cortex_m55/gnu/inc/tx_port.h ****                                                                 _tx_vfp_state = _tx_vfp_state & ((U
 427:../Middlewares/threadx/ports/cortex_m55/gnu/inc/tx_port.h ****                                                                 TX_VFP_TOUCH();                    
 428:../Middlewares/threadx/ports/cortex_m55/gnu/inc/tx_port.h ****                                                                 if (_tx_vfp_state == ((ULONG) 0))  
 429:../Middlewares/threadx/ports/cortex_m55/gnu/inc/tx_port.h ****                                                                 {                                  
 430:../Middlewares/threadx/ports/cortex_m55/gnu/inc/tx_port.h ****                                                                     _tx_vfp_state = _tx_control_get
 431:../Middlewares/threadx/ports/cortex_m55/gnu/inc/tx_port.h ****                                                                     _tx_vfp_state = _tx_vfp_state &
 432:../Middlewares/threadx/ports/cortex_m55/gnu/inc/tx_port.h ****                                                                     _tx_control_set(_tx_vfp_state);
 433:../Middlewares/threadx/ports/cortex_m55/gnu/inc/tx_port.h ****                                                                 }                                  
 434:../Middlewares/threadx/ports/cortex_m55/gnu/inc/tx_port.h ****                                                             }                                      
 435:../Middlewares/threadx/ports/cortex_m55/gnu/inc/tx_port.h ****                                                         }                                          
 436:../Middlewares/threadx/ports/cortex_m55/gnu/inc/tx_port.h ****                                                     }
 437:../Middlewares/threadx/ports/cortex_m55/gnu/inc/tx_port.h **** #else
 438:../Middlewares/threadx/ports/cortex_m55/gnu/inc/tx_port.h **** 
 439:../Middlewares/threadx/ports/cortex_m55/gnu/inc/tx_port.h **** #define TX_THREAD_TERMINATED_EXTENSION(thread_ptr)  {                                              
 440:../Middlewares/threadx/ports/cortex_m55/gnu/inc/tx_port.h ****                                                     ULONG  _tx_system_state;                       
 441:../Middlewares/threadx/ports/cortex_m55/gnu/inc/tx_port.h ****                                                         _tx_system_state = TX_THREAD_GET_SYSTEM_STA
 442:../Middlewares/threadx/ports/cortex_m55/gnu/inc/tx_port.h ****                                                         if ((_tx_system_state == ((ULONG) 0)) && ((
 443:../Middlewares/threadx/ports/cortex_m55/gnu/inc/tx_port.h ****                                                         {                                          
 444:../Middlewares/threadx/ports/cortex_m55/gnu/inc/tx_port.h ****                                                         ULONG  _tx_vfp_state;                      
 445:../Middlewares/threadx/ports/cortex_m55/gnu/inc/tx_port.h ****                                                             _tx_vfp_state = _tx_misra_control_get()
 446:../Middlewares/threadx/ports/cortex_m55/gnu/inc/tx_port.h ****                                                             _tx_vfp_state = _tx_vfp_state & ~((ULON
 447:../Middlewares/threadx/ports/cortex_m55/gnu/inc/tx_port.h ****                                                             _tx_misra_control_set(_tx_vfp_state);  
 448:../Middlewares/threadx/ports/cortex_m55/gnu/inc/tx_port.h ****                                                         }                                          
 449:../Middlewares/threadx/ports/cortex_m55/gnu/inc/tx_port.h ****                                                         else                                       
 450:../Middlewares/threadx/ports/cortex_m55/gnu/inc/tx_port.h ****                                                         {                                          
 451:../Middlewares/threadx/ports/cortex_m55/gnu/inc/tx_port.h ****                                                         ULONG  _tx_fpccr;                          
 452:../Middlewares/threadx/ports/cortex_m55/gnu/inc/tx_port.h ****                                                             _tx_fpccr = _tx_misra_fpccr_get();     
 453:../Middlewares/threadx/ports/cortex_m55/gnu/inc/tx_port.h ****                                                             _tx_fpccr = _tx_fpccr & ((ULONG) 0x01);
 454:../Middlewares/threadx/ports/cortex_m55/gnu/inc/tx_port.h ****                                                             if (_tx_fpccr == ((ULONG) 0x01))       
 455:../Middlewares/threadx/ports/cortex_m55/gnu/inc/tx_port.h ****                                                             {                                      
 456:../Middlewares/threadx/ports/cortex_m55/gnu/inc/tx_port.h ****                                                             ULONG _tx_vfp_state;                   
 457:../Middlewares/threadx/ports/cortex_m55/gnu/inc/tx_port.h ****                                                                 _tx_vfp_state = _tx_misra_control_g
 458:../Middlewares/threadx/ports/cortex_m55/gnu/inc/tx_port.h ****                                                                 _tx_vfp_state = _tx_vfp_state & ((U
 459:../Middlewares/threadx/ports/cortex_m55/gnu/inc/tx_port.h ****                                                                 _tx_misra_vfp_touch();             
 460:../Middlewares/threadx/ports/cortex_m55/gnu/inc/tx_port.h ****                                                                 if (_tx_vfp_state == ((ULONG) 0))  
 461:../Middlewares/threadx/ports/cortex_m55/gnu/inc/tx_port.h ****                                                                 {                                  
 462:../Middlewares/threadx/ports/cortex_m55/gnu/inc/tx_port.h ****                                                                     _tx_vfp_state = _tx_misra_contr
 463:../Middlewares/threadx/ports/cortex_m55/gnu/inc/tx_port.h ****                                                                     _tx_vfp_state = _tx_vfp_state &
 464:../Middlewares/threadx/ports/cortex_m55/gnu/inc/tx_port.h ****                                                                     _tx_misra_control_set(_tx_vfp_s
 465:../Middlewares/threadx/ports/cortex_m55/gnu/inc/tx_port.h ****                                                                 }                                  
 466:../Middlewares/threadx/ports/cortex_m55/gnu/inc/tx_port.h ****                                                             }                                      
 467:../Middlewares/threadx/ports/cortex_m55/gnu/inc/tx_port.h ****                                                         }                                          
ARM GAS  /tmp/ccBuKv1E.s 			page 12


 468:../Middlewares/threadx/ports/cortex_m55/gnu/inc/tx_port.h ****                                                     }
 469:../Middlewares/threadx/ports/cortex_m55/gnu/inc/tx_port.h **** #endif
 470:../Middlewares/threadx/ports/cortex_m55/gnu/inc/tx_port.h **** 
 471:../Middlewares/threadx/ports/cortex_m55/gnu/inc/tx_port.h **** #else   /* No VFP in use */
 472:../Middlewares/threadx/ports/cortex_m55/gnu/inc/tx_port.h **** 
 473:../Middlewares/threadx/ports/cortex_m55/gnu/inc/tx_port.h **** #define TX_THREAD_COMPLETED_EXTENSION(thread_ptr)
 474:../Middlewares/threadx/ports/cortex_m55/gnu/inc/tx_port.h **** #define TX_THREAD_TERMINATED_EXTENSION(thread_ptr)
 475:../Middlewares/threadx/ports/cortex_m55/gnu/inc/tx_port.h **** 
 476:../Middlewares/threadx/ports/cortex_m55/gnu/inc/tx_port.h **** #endif  /* defined(__ARMVFP__) || defined(__ARM_PCS_VFP) || defined(__ARM_FP) || defined(__TARGET_F
 477:../Middlewares/threadx/ports/cortex_m55/gnu/inc/tx_port.h **** 
 478:../Middlewares/threadx/ports/cortex_m55/gnu/inc/tx_port.h **** 
 479:../Middlewares/threadx/ports/cortex_m55/gnu/inc/tx_port.h **** /* Define the ThreadX object creation extensions for the remaining objects.  */
 480:../Middlewares/threadx/ports/cortex_m55/gnu/inc/tx_port.h **** 
 481:../Middlewares/threadx/ports/cortex_m55/gnu/inc/tx_port.h **** #define TX_BLOCK_POOL_CREATE_EXTENSION(pool_ptr)
 482:../Middlewares/threadx/ports/cortex_m55/gnu/inc/tx_port.h **** #define TX_BYTE_POOL_CREATE_EXTENSION(pool_ptr)
 483:../Middlewares/threadx/ports/cortex_m55/gnu/inc/tx_port.h **** #define TX_EVENT_FLAGS_GROUP_CREATE_EXTENSION(group_ptr)
 484:../Middlewares/threadx/ports/cortex_m55/gnu/inc/tx_port.h **** #define TX_MUTEX_CREATE_EXTENSION(mutex_ptr)
 485:../Middlewares/threadx/ports/cortex_m55/gnu/inc/tx_port.h **** #define TX_QUEUE_CREATE_EXTENSION(queue_ptr)
 486:../Middlewares/threadx/ports/cortex_m55/gnu/inc/tx_port.h **** #define TX_SEMAPHORE_CREATE_EXTENSION(semaphore_ptr)
 487:../Middlewares/threadx/ports/cortex_m55/gnu/inc/tx_port.h **** #define TX_TIMER_CREATE_EXTENSION(timer_ptr)
 488:../Middlewares/threadx/ports/cortex_m55/gnu/inc/tx_port.h **** 
 489:../Middlewares/threadx/ports/cortex_m55/gnu/inc/tx_port.h **** 
 490:../Middlewares/threadx/ports/cortex_m55/gnu/inc/tx_port.h **** /* Define the ThreadX object deletion extensions for the remaining objects.  */
 491:../Middlewares/threadx/ports/cortex_m55/gnu/inc/tx_port.h **** 
 492:../Middlewares/threadx/ports/cortex_m55/gnu/inc/tx_port.h **** #define TX_BLOCK_POOL_DELETE_EXTENSION(pool_ptr)
 493:../Middlewares/threadx/ports/cortex_m55/gnu/inc/tx_port.h **** #define TX_BYTE_POOL_DELETE_EXTENSION(pool_ptr)
 494:../Middlewares/threadx/ports/cortex_m55/gnu/inc/tx_port.h **** #define TX_EVENT_FLAGS_GROUP_DELETE_EXTENSION(group_ptr)
 495:../Middlewares/threadx/ports/cortex_m55/gnu/inc/tx_port.h **** #define TX_MUTEX_DELETE_EXTENSION(mutex_ptr)
 496:../Middlewares/threadx/ports/cortex_m55/gnu/inc/tx_port.h **** #define TX_QUEUE_DELETE_EXTENSION(queue_ptr)
 497:../Middlewares/threadx/ports/cortex_m55/gnu/inc/tx_port.h **** #define TX_SEMAPHORE_DELETE_EXTENSION(semaphore_ptr)
 498:../Middlewares/threadx/ports/cortex_m55/gnu/inc/tx_port.h **** #define TX_TIMER_DELETE_EXTENSION(timer_ptr)
 499:../Middlewares/threadx/ports/cortex_m55/gnu/inc/tx_port.h **** 
 500:../Middlewares/threadx/ports/cortex_m55/gnu/inc/tx_port.h **** 
 501:../Middlewares/threadx/ports/cortex_m55/gnu/inc/tx_port.h **** /* Define the get system state macro.  */
 502:../Middlewares/threadx/ports/cortex_m55/gnu/inc/tx_port.h **** 
 503:../Middlewares/threadx/ports/cortex_m55/gnu/inc/tx_port.h **** #ifndef TX_THREAD_GET_SYSTEM_STATE
 504:../Middlewares/threadx/ports/cortex_m55/gnu/inc/tx_port.h **** #ifndef TX_MISRA_ENABLE
 505:../Middlewares/threadx/ports/cortex_m55/gnu/inc/tx_port.h **** 
 506:../Middlewares/threadx/ports/cortex_m55/gnu/inc/tx_port.h **** #if defined(__GNUC__) /* GCC and AC6 */
 507:../Middlewares/threadx/ports/cortex_m55/gnu/inc/tx_port.h **** __attribute__( ( always_inline ) ) static inline UINT _tx_ipsr_get(void)
 508:../Middlewares/threadx/ports/cortex_m55/gnu/inc/tx_port.h **** {
 509:../Middlewares/threadx/ports/cortex_m55/gnu/inc/tx_port.h **** UINT ipsr_value;
 510:../Middlewares/threadx/ports/cortex_m55/gnu/inc/tx_port.h ****     __asm__ volatile (" MRS  %0,IPSR ": "=r" (ipsr_value) );
 511:../Middlewares/threadx/ports/cortex_m55/gnu/inc/tx_port.h ****     return(ipsr_value);
 512:../Middlewares/threadx/ports/cortex_m55/gnu/inc/tx_port.h **** }
 513:../Middlewares/threadx/ports/cortex_m55/gnu/inc/tx_port.h **** #endif  /* GCC and AC6 IPSR_get function. */
 514:../Middlewares/threadx/ports/cortex_m55/gnu/inc/tx_port.h **** 
 515:../Middlewares/threadx/ports/cortex_m55/gnu/inc/tx_port.h **** #define TX_THREAD_GET_SYSTEM_STATE()        (_tx_thread_system_state | _tx_ipsr_get())
 516:../Middlewares/threadx/ports/cortex_m55/gnu/inc/tx_port.h **** 
 517:../Middlewares/threadx/ports/cortex_m55/gnu/inc/tx_port.h **** #else   /* TX_MISRA_ENABLE is defined, use MISRA function. */
 518:../Middlewares/threadx/ports/cortex_m55/gnu/inc/tx_port.h **** ULONG   _tx_misra_ipsr_get(VOID);
 519:../Middlewares/threadx/ports/cortex_m55/gnu/inc/tx_port.h **** #define TX_THREAD_GET_SYSTEM_STATE()        (_tx_thread_system_state | _tx_misra_ipsr_get())
 520:../Middlewares/threadx/ports/cortex_m55/gnu/inc/tx_port.h **** #endif  /* TX_MISRA_ENABLE */
 521:../Middlewares/threadx/ports/cortex_m55/gnu/inc/tx_port.h **** #endif  /* TX_THREAD_GET_SYSTEM_STATE */
 522:../Middlewares/threadx/ports/cortex_m55/gnu/inc/tx_port.h **** 
 523:../Middlewares/threadx/ports/cortex_m55/gnu/inc/tx_port.h **** 
 524:../Middlewares/threadx/ports/cortex_m55/gnu/inc/tx_port.h **** /* Define the check for whether or not to call the _tx_thread_system_return function.  A non-zero v
ARM GAS  /tmp/ccBuKv1E.s 			page 13


 525:../Middlewares/threadx/ports/cortex_m55/gnu/inc/tx_port.h ****    indicates that _tx_thread_system_return should not be called. This overrides the definition in t
 526:../Middlewares/threadx/ports/cortex_m55/gnu/inc/tx_port.h ****    for Cortex-M since so we don't waste time checking the _tx_thread_system_state variable that is 
 527:../Middlewares/threadx/ports/cortex_m55/gnu/inc/tx_port.h ****    zero after initialization for Cortex-M ports. */
 528:../Middlewares/threadx/ports/cortex_m55/gnu/inc/tx_port.h **** 
 529:../Middlewares/threadx/ports/cortex_m55/gnu/inc/tx_port.h **** #ifndef TX_THREAD_SYSTEM_RETURN_CHECK
 530:../Middlewares/threadx/ports/cortex_m55/gnu/inc/tx_port.h **** #define TX_THREAD_SYSTEM_RETURN_CHECK(c)    (c) = ((ULONG) _tx_thread_preempt_disable);
 531:../Middlewares/threadx/ports/cortex_m55/gnu/inc/tx_port.h **** #endif
 532:../Middlewares/threadx/ports/cortex_m55/gnu/inc/tx_port.h **** 
 533:../Middlewares/threadx/ports/cortex_m55/gnu/inc/tx_port.h **** #if !defined(TX_SINGLE_MODE_SECURE) && !defined(TX_SINGLE_MODE_NON_SECURE)
 534:../Middlewares/threadx/ports/cortex_m55/gnu/inc/tx_port.h **** /* Initialize secure stacks for threads calling secure functions. */
 535:../Middlewares/threadx/ports/cortex_m55/gnu/inc/tx_port.h **** extern void    _tx_thread_secure_stack_initialize(void);
 536:../Middlewares/threadx/ports/cortex_m55/gnu/inc/tx_port.h **** #define TX_PORT_SPECIFIC_PRE_INITIALIZATION             _tx_thread_secure_stack_initialize();
 537:../Middlewares/threadx/ports/cortex_m55/gnu/inc/tx_port.h **** #endif
 538:../Middlewares/threadx/ports/cortex_m55/gnu/inc/tx_port.h **** 
 539:../Middlewares/threadx/ports/cortex_m55/gnu/inc/tx_port.h **** /* Define the macro to ensure _tx_thread_preempt_disable is set early in initialization in order to
 540:../Middlewares/threadx/ports/cortex_m55/gnu/inc/tx_port.h ****    prevent early scheduling on Cortex-M parts.  */
 541:../Middlewares/threadx/ports/cortex_m55/gnu/inc/tx_port.h **** 
 542:../Middlewares/threadx/ports/cortex_m55/gnu/inc/tx_port.h **** #define TX_PORT_SPECIFIC_POST_INITIALIZATION    _tx_thread_preempt_disable++;
 543:../Middlewares/threadx/ports/cortex_m55/gnu/inc/tx_port.h **** 
 544:../Middlewares/threadx/ports/cortex_m55/gnu/inc/tx_port.h **** 
 545:../Middlewares/threadx/ports/cortex_m55/gnu/inc/tx_port.h **** 
 546:../Middlewares/threadx/ports/cortex_m55/gnu/inc/tx_port.h **** 
 547:../Middlewares/threadx/ports/cortex_m55/gnu/inc/tx_port.h **** #ifndef TX_DISABLE_INLINE
 548:../Middlewares/threadx/ports/cortex_m55/gnu/inc/tx_port.h **** 
 549:../Middlewares/threadx/ports/cortex_m55/gnu/inc/tx_port.h **** /* Define the TX_LOWEST_SET_BIT_CALCULATE macro for each compiler. */
 550:../Middlewares/threadx/ports/cortex_m55/gnu/inc/tx_port.h **** #ifdef __ICCARM__       /* IAR Compiler */
 551:../Middlewares/threadx/ports/cortex_m55/gnu/inc/tx_port.h **** #define TX_LOWEST_SET_BIT_CALCULATE(m, b)       (b) = (UINT) __CLZ(__RBIT((m)));
 552:../Middlewares/threadx/ports/cortex_m55/gnu/inc/tx_port.h **** #elif defined(__GNUC__) /* GCC and AC6 Compiler */
 553:../Middlewares/threadx/ports/cortex_m55/gnu/inc/tx_port.h **** #define TX_LOWEST_SET_BIT_CALCULATE(m, b)       __asm__ volatile (" RBIT %0,%1 ": "=r" (m) : "r" (m
 554:../Middlewares/threadx/ports/cortex_m55/gnu/inc/tx_port.h ****                                                 __asm__ volatile (" CLZ  %0,%1 ": "=r" (b) : "r" (m
 555:../Middlewares/threadx/ports/cortex_m55/gnu/inc/tx_port.h **** #else
 556:../Middlewares/threadx/ports/cortex_m55/gnu/inc/tx_port.h **** #error "Compiler not supported."
 557:../Middlewares/threadx/ports/cortex_m55/gnu/inc/tx_port.h **** #endif
 558:../Middlewares/threadx/ports/cortex_m55/gnu/inc/tx_port.h **** 
 559:../Middlewares/threadx/ports/cortex_m55/gnu/inc/tx_port.h **** 
 560:../Middlewares/threadx/ports/cortex_m55/gnu/inc/tx_port.h **** 
 561:../Middlewares/threadx/ports/cortex_m55/gnu/inc/tx_port.h **** /* Define the interrupt disable/restore macros. */
 562:../Middlewares/threadx/ports/cortex_m55/gnu/inc/tx_port.h **** 
 563:../Middlewares/threadx/ports/cortex_m55/gnu/inc/tx_port.h **** __attribute__( ( always_inline ) ) static inline UINT __get_interrupt_posture(void)
 564:../Middlewares/threadx/ports/cortex_m55/gnu/inc/tx_port.h **** {
 565:../Middlewares/threadx/ports/cortex_m55/gnu/inc/tx_port.h **** UINT posture;
 566:../Middlewares/threadx/ports/cortex_m55/gnu/inc/tx_port.h **** #ifdef TX_PORT_USE_BASEPRI
 567:../Middlewares/threadx/ports/cortex_m55/gnu/inc/tx_port.h ****     __asm__ volatile ("MRS  %0, BASEPRI ": "=r" (posture));
 568:../Middlewares/threadx/ports/cortex_m55/gnu/inc/tx_port.h **** #else
 569:../Middlewares/threadx/ports/cortex_m55/gnu/inc/tx_port.h ****     __asm__ volatile ("MRS  %0, PRIMASK ": "=r" (posture));
 570:../Middlewares/threadx/ports/cortex_m55/gnu/inc/tx_port.h **** #endif
 571:../Middlewares/threadx/ports/cortex_m55/gnu/inc/tx_port.h ****     return(posture);
 572:../Middlewares/threadx/ports/cortex_m55/gnu/inc/tx_port.h **** }
 573:../Middlewares/threadx/ports/cortex_m55/gnu/inc/tx_port.h **** 
 574:../Middlewares/threadx/ports/cortex_m55/gnu/inc/tx_port.h **** #ifdef TX_PORT_USE_BASEPRI
 575:../Middlewares/threadx/ports/cortex_m55/gnu/inc/tx_port.h **** __attribute__( ( always_inline ) ) static inline void __set_basepri_value(UINT basepri_value)
 576:../Middlewares/threadx/ports/cortex_m55/gnu/inc/tx_port.h **** {
 577:../Middlewares/threadx/ports/cortex_m55/gnu/inc/tx_port.h ****     __asm__ volatile ("MSR  BASEPRI,%0 ": : "r" (basepri_value));
 578:../Middlewares/threadx/ports/cortex_m55/gnu/inc/tx_port.h **** }
 579:../Middlewares/threadx/ports/cortex_m55/gnu/inc/tx_port.h **** #else
 580:../Middlewares/threadx/ports/cortex_m55/gnu/inc/tx_port.h **** __attribute__( ( always_inline ) ) static inline void __enable_interrupts(void)
 581:../Middlewares/threadx/ports/cortex_m55/gnu/inc/tx_port.h **** {
ARM GAS  /tmp/ccBuKv1E.s 			page 14


 582:../Middlewares/threadx/ports/cortex_m55/gnu/inc/tx_port.h ****     __asm__ volatile ("CPSIE  i": : : "memory");
 583:../Middlewares/threadx/ports/cortex_m55/gnu/inc/tx_port.h **** }
 584:../Middlewares/threadx/ports/cortex_m55/gnu/inc/tx_port.h **** #endif
 585:../Middlewares/threadx/ports/cortex_m55/gnu/inc/tx_port.h **** 
 586:../Middlewares/threadx/ports/cortex_m55/gnu/inc/tx_port.h **** __attribute__( ( always_inline ) ) static inline void __restore_interrupt(UINT int_posture)
 587:../Middlewares/threadx/ports/cortex_m55/gnu/inc/tx_port.h **** {
 588:../Middlewares/threadx/ports/cortex_m55/gnu/inc/tx_port.h **** #ifdef TX_PORT_USE_BASEPRI
 589:../Middlewares/threadx/ports/cortex_m55/gnu/inc/tx_port.h ****     __set_basepri_value(int_posture);
 590:../Middlewares/threadx/ports/cortex_m55/gnu/inc/tx_port.h **** #else
 591:../Middlewares/threadx/ports/cortex_m55/gnu/inc/tx_port.h ****     __asm__ volatile ("MSR  PRIMASK,%0": : "r" (int_posture): "memory");
 592:../Middlewares/threadx/ports/cortex_m55/gnu/inc/tx_port.h **** #endif
 593:../Middlewares/threadx/ports/cortex_m55/gnu/inc/tx_port.h **** }
 594:../Middlewares/threadx/ports/cortex_m55/gnu/inc/tx_port.h **** 
 595:../Middlewares/threadx/ports/cortex_m55/gnu/inc/tx_port.h **** __attribute__( ( always_inline ) ) static inline UINT __disable_interrupts(void)
  58              		.loc 2 595 55 view .LVU17
  59              	.LBB50:
 596:../Middlewares/threadx/ports/cortex_m55/gnu/inc/tx_port.h **** {
 597:../Middlewares/threadx/ports/cortex_m55/gnu/inc/tx_port.h **** UINT int_posture;
  60              		.loc 2 597 1 view .LVU18
 598:../Middlewares/threadx/ports/cortex_m55/gnu/inc/tx_port.h **** 
 599:../Middlewares/threadx/ports/cortex_m55/gnu/inc/tx_port.h ****     int_posture = __get_interrupt_posture();
  61              		.loc 2 599 5 view .LVU19
  62              	.LBB51:
  63              	.LBI51:
 563:../Middlewares/threadx/ports/cortex_m55/gnu/inc/tx_port.h **** {
  64              		.loc 2 563 55 view .LVU20
  65              	.LBB52:
 565:../Middlewares/threadx/ports/cortex_m55/gnu/inc/tx_port.h **** #ifdef TX_PORT_USE_BASEPRI
  66              		.loc 2 565 1 view .LVU21
 569:../Middlewares/threadx/ports/cortex_m55/gnu/inc/tx_port.h **** #endif
  67              		.loc 2 569 5 view .LVU22
  68              	.LBE52:
  69              	.LBE51:
  70              	.LBE50:
  71              	.LBE49:
  81:../Middlewares/threadx/common/src/tx_mutex_put.c **** 
  72              		.loc 1 81 1 is_stmt 0 view .LVU23
  73 0000 2DE9F341 		push	{r0, r1, r4, r5, r6, r7, r8, lr}
  74              		.cfi_def_cfa_offset 32
  75              		.cfi_offset 4, -24
  76              		.cfi_offset 5, -20
  77              		.cfi_offset 6, -16
  78              		.cfi_offset 7, -12
  79              		.cfi_offset 8, -8
  80              		.cfi_offset 14, -4
  81:../Middlewares/threadx/common/src/tx_mutex_put.c **** 
  81              		.loc 1 81 1 view .LVU24
  82 0004 0446     		mov	r4, r0
  83              	.LBB56:
  84              	.LBB55:
  85              	.LBB54:
  86              	.LBB53:
 569:../Middlewares/threadx/ports/cortex_m55/gnu/inc/tx_port.h **** #endif
  87              		.loc 2 569 5 view .LVU25
  88              		.syntax unified
  89              	@ 569 "../Middlewares/threadx/ports/cortex_m55/gnu/inc/tx_port.h" 1
  90 0006 EFF31087 		MRS  r7, PRIMASK 
ARM GAS  /tmp/ccBuKv1E.s 			page 15


  91              	@ 0 "" 2
  92              	.LVL1:
 571:../Middlewares/threadx/ports/cortex_m55/gnu/inc/tx_port.h **** }
  93              		.loc 2 571 5 is_stmt 1 view .LVU26
 571:../Middlewares/threadx/ports/cortex_m55/gnu/inc/tx_port.h **** }
  94              		.loc 2 571 5 is_stmt 0 view .LVU27
  95              		.thumb
  96              		.syntax unified
  97              	.LBE53:
  98              	.LBE54:
 600:../Middlewares/threadx/ports/cortex_m55/gnu/inc/tx_port.h **** 
 601:../Middlewares/threadx/ports/cortex_m55/gnu/inc/tx_port.h **** #ifdef TX_PORT_USE_BASEPRI
 602:../Middlewares/threadx/ports/cortex_m55/gnu/inc/tx_port.h ****     __set_basepri_value(TX_PORT_BASEPRI);
 603:../Middlewares/threadx/ports/cortex_m55/gnu/inc/tx_port.h **** #else
 604:../Middlewares/threadx/ports/cortex_m55/gnu/inc/tx_port.h ****     __asm__ volatile ("CPSID i" : : : "memory");
  99              		.loc 2 604 5 is_stmt 1 view .LVU28
 100              		.syntax unified
 101              	@ 604 "../Middlewares/threadx/ports/cortex_m55/gnu/inc/tx_port.h" 1
 102 000a 72B6     		CPSID i
 103              	@ 0 "" 2
 605:../Middlewares/threadx/ports/cortex_m55/gnu/inc/tx_port.h **** #endif
 606:../Middlewares/threadx/ports/cortex_m55/gnu/inc/tx_port.h ****     return(int_posture);
 104              		.loc 2 606 5 view .LVU29
 105              	.LVL2:
 106              		.loc 2 606 5 is_stmt 0 view .LVU30
 107              		.thumb
 108              		.syntax unified
 109              	.LBE55:
 110              	.LBE56:
 111              	.LBB57:
 105:../Middlewares/threadx/common/src/tx_mutex_put.c **** 
 106:../Middlewares/threadx/common/src/tx_mutex_put.c **** #ifdef TX_MUTEX_ENABLE_PERFORMANCE_INFO
 107:../Middlewares/threadx/common/src/tx_mutex_put.c **** 
 108:../Middlewares/threadx/common/src/tx_mutex_put.c ****     /* Increment the total mutex put counter.  */
 109:../Middlewares/threadx/common/src/tx_mutex_put.c ****     _tx_mutex_performance_put_count++;
 110:../Middlewares/threadx/common/src/tx_mutex_put.c **** 
 111:../Middlewares/threadx/common/src/tx_mutex_put.c ****     /* Increment the number of attempts to put this mutex.  */
 112:../Middlewares/threadx/common/src/tx_mutex_put.c ****     mutex_ptr -> tx_mutex_performance_put_count++;
 113:../Middlewares/threadx/common/src/tx_mutex_put.c **** #endif
 114:../Middlewares/threadx/common/src/tx_mutex_put.c **** 
 115:../Middlewares/threadx/common/src/tx_mutex_put.c ****     /* If trace is enabled, insert this event into the trace buffer.  */
 116:../Middlewares/threadx/common/src/tx_mutex_put.c ****     TX_TRACE_IN_LINE_INSERT(TX_TRACE_MUTEX_PUT, mutex_ptr, TX_POINTER_TO_ULONG_CONVERT(mutex_ptr ->
 112              		.loc 1 116 5 is_stmt 1 view .LVU31
 113              		.loc 1 116 5 view .LVU32
 114              		.loc 1 116 5 view .LVU33
 115              		.loc 1 116 5 view .LVU34
 116              		.loc 1 116 5 view .LVU35
 117 000c 8E4D     		ldr	r5, .L54
 118 000e 2B68     		ldr	r3, [r5]
 119              	.LVL3:
 120              		.loc 1 116 5 view .LVU36
 121 0010 002B     		cmp	r3, #0
 122 0012 31D0     		beq	.L3
 123              		.loc 1 116 5 is_stmt 0 discriminator 1 view .LVU37
 124 0014 8D4A     		ldr	r2, .L54+4
 125 0016 1268     		ldr	r2, [r2]
 126 0018 9206     		lsls	r2, r2, #26
ARM GAS  /tmp/ccBuKv1E.s 			page 16


 127 001a 2DD5     		bpl	.L3
 128              		.loc 1 116 5 is_stmt 1 discriminator 2 view .LVU38
 129              	.LBB58:
 130              	.LBI58:
 507:../Middlewares/threadx/ports/cortex_m55/gnu/inc/tx_port.h **** {
 131              		.loc 2 507 55 view .LVU39
 132              	.LBB59:
 509:../Middlewares/threadx/ports/cortex_m55/gnu/inc/tx_port.h ****     __asm__ volatile (" MRS  %0,IPSR ": "=r" (ipsr_value) );
 133              		.loc 2 509 1 view .LVU40
 510:../Middlewares/threadx/ports/cortex_m55/gnu/inc/tx_port.h ****     return(ipsr_value);
 134              		.loc 2 510 5 view .LVU41
 135              		.syntax unified
 136              	@ 510 "../Middlewares/threadx/ports/cortex_m55/gnu/inc/tx_port.h" 1
 137 001c EFF30580 		 MRS  r0,IPSR 
 138              	@ 0 "" 2
 139              	.LVL4:
 511:../Middlewares/threadx/ports/cortex_m55/gnu/inc/tx_port.h **** }
 140              		.loc 2 511 5 view .LVU42
 511:../Middlewares/threadx/ports/cortex_m55/gnu/inc/tx_port.h **** }
 141              		.loc 2 511 5 is_stmt 0 view .LVU43
 142              		.thumb
 143              		.syntax unified
 144              	.LBE59:
 145              	.LBE58:
 146              		.loc 1 116 5 discriminator 1 view .LVU44
 147 0020 8B4A     		ldr	r2, .L54+8
 148 0022 8C49     		ldr	r1, .L54+12
 149 0024 1268     		ldr	r2, [r2]
 150              	.LVL5:
 151              		.loc 1 116 5 is_stmt 1 discriminator 1 view .LVU45
 152 0026 0968     		ldr	r1, [r1]
 153              	.LVL6:
 154              		.loc 1 116 5 discriminator 1 view .LVU46
 155 0028 0243     		orrs	r2, r2, r0
 156              	.LVL7:
 157              		.loc 1 116 5 is_stmt 0 discriminator 1 view .LVU47
 158 002a 35D1     		bne	.L5
 159              		.loc 1 116 5 is_stmt 1 discriminator 3 view .LVU48
 160              	.LVL8:
 161              		.loc 1 116 5 view .LVU49
 162              		.loc 1 116 5 is_stmt 0 discriminator 3 view .LVU50
 163 002c C86B     		ldr	r0, [r1, #60]
 164 002e CA6A     		ldr	r2, [r1, #44]
 165              	.LVL9:
 166              		.loc 1 116 5 discriminator 3 view .LVU51
 167 0030 42EA0042 		orr	r2, r2, r0, lsl #16
 168 0034 42F00042 		orr	r2, r2, #-2147483648
 169              	.LVL10:
 170              	.L6:
 171              		.loc 1 116 5 is_stmt 1 discriminator 9 view .LVU52
 172 0038 C3E90012 		strd	r1, r2, [r3]
 173              		.loc 1 116 5 view .LVU53
 174              		.loc 1 116 5 is_stmt 0 discriminator 9 view .LVU54
 175 003c 3922     		movs	r2, #57
 176              	.LVL11:
 177              		.loc 1 116 5 discriminator 9 view .LVU55
 178 003e 9A60     		str	r2, [r3, #8]
ARM GAS  /tmp/ccBuKv1E.s 			page 17


 179              		.loc 1 116 5 is_stmt 1 view .LVU56
 180              		.loc 1 116 5 is_stmt 0 discriminator 9 view .LVU57
 181 0040 854A     		ldr	r2, .L54+16
 182 0042 5268     		ldr	r2, [r2, #4]
 183 0044 C3E90324 		strd	r2, r4, [r3, #12]
 184              		.loc 1 116 5 is_stmt 1 view .LVU58
 185              		.loc 1 116 5 is_stmt 0 discriminator 9 view .LVU59
 186 0048 E268     		ldr	r2, [r4, #12]
 187 004a 2033     		adds	r3, r3, #32
 188              	.LVL12:
 189              		.loc 1 116 5 discriminator 9 view .LVU60
 190 004c 43F80C2C 		str	r2, [r3, #-12]
 191              		.loc 1 116 5 is_stmt 1 view .LVU61
 192              		.loc 1 116 5 is_stmt 0 discriminator 9 view .LVU62
 193 0050 A268     		ldr	r2, [r4, #8]
 194 0052 43F8082C 		str	r2, [r3, #-8]
 195              		.loc 1 116 5 is_stmt 1 view .LVU63
 196              		.loc 1 116 5 is_stmt 0 discriminator 9 view .LVU64
 197 0056 01AA     		add	r2, sp, #4
 198 0058 43F8042C 		str	r2, [r3, #-4]
 199              		.loc 1 116 5 is_stmt 1 view .LVU65
 200              	.LVL13:
 201              		.loc 1 116 5 view .LVU66
 202              		.loc 1 116 5 is_stmt 0 discriminator 10 view .LVU67
 203 005c 7F4A     		ldr	r2, .L54+20
 204 005e 1068     		ldr	r0, [r2]
 205              		.loc 1 116 5 discriminator 9 view .LVU68
 206 0060 7F4A     		ldr	r2, .L54+24
 207 0062 1268     		ldr	r2, [r2]
 208 0064 9A42     		cmp	r2, r3
 209 0066 21D8     		bhi	.L7
 210              		.loc 1 116 5 is_stmt 1 discriminator 10 view .LVU69
 211 0068 7E4B     		ldr	r3, .L54+28
 212              	.LVL14:
 213              		.loc 1 116 5 is_stmt 0 discriminator 10 view .LVU70
 214 006a 1B68     		ldr	r3, [r3]
 215              	.LVL15:
 216              		.loc 1 116 5 is_stmt 1 view .LVU71
 217              		.loc 1 116 5 is_stmt 0 discriminator 10 view .LVU72
 218 006c 2B60     		str	r3, [r5]
 219              	.LVL16:
 220              		.loc 1 116 5 is_stmt 1 view .LVU73
 221              		.loc 1 116 5 is_stmt 0 discriminator 10 view .LVU74
 222 006e 0362     		str	r3, [r0, #32]
 223              		.loc 1 116 5 is_stmt 1 view .LVU75
 224              		.loc 1 116 5 is_stmt 0 discriminator 10 view .LVU76
 225 0070 7D4B     		ldr	r3, .L54+32
 226              	.LVL17:
 227              		.loc 1 116 5 discriminator 10 view .LVU77
 228 0072 1B68     		ldr	r3, [r3]
 229 0074 03B1     		cbz	r3, .L3
 230              		.loc 1 116 5 is_stmt 1 discriminator 12 view .LVU78
 231 0076 9847     		blx	r3
 232              	.LVL18:
 233              	.L3:
 234              		.loc 1 116 5 is_stmt 0 discriminator 12 view .LVU79
 235              	.LBE57:
ARM GAS  /tmp/ccBuKv1E.s 			page 18


 117:../Middlewares/threadx/common/src/tx_mutex_put.c **** 
 118:../Middlewares/threadx/common/src/tx_mutex_put.c ****     /* Log this kernel call.  */
 119:../Middlewares/threadx/common/src/tx_mutex_put.c ****     TX_EL_MUTEX_PUT_INSERT
 120:../Middlewares/threadx/common/src/tx_mutex_put.c **** 
 121:../Middlewares/threadx/common/src/tx_mutex_put.c ****     /* Determine if this mutex is owned.  */
 122:../Middlewares/threadx/common/src/tx_mutex_put.c ****     if (mutex_ptr -> tx_mutex_ownership_count != ((UINT) 0))
 236              		.loc 1 122 5 is_stmt 1 view .LVU80
 237              		.loc 1 122 19 is_stmt 0 view .LVU81
 238 0078 A268     		ldr	r2, [r4, #8]
 239              		.loc 1 122 8 view .LVU82
 240 007a 3AB1     		cbz	r2, .L51
 123:../Middlewares/threadx/common/src/tx_mutex_put.c ****     {
 124:../Middlewares/threadx/common/src/tx_mutex_put.c **** 
 125:../Middlewares/threadx/common/src/tx_mutex_put.c ****         /* Pickup the owning thread pointer.  */
 126:../Middlewares/threadx/common/src/tx_mutex_put.c ****         thread_ptr =  mutex_ptr -> tx_mutex_owner;
 241              		.loc 1 126 9 is_stmt 1 view .LVU83
 127:../Middlewares/threadx/common/src/tx_mutex_put.c **** 
 128:../Middlewares/threadx/common/src/tx_mutex_put.c ****         /* Pickup thread pointer.  */
 129:../Middlewares/threadx/common/src/tx_mutex_put.c ****         TX_THREAD_GET_CURRENT(current_thread)
 242              		.loc 1 129 9 is_stmt 0 view .LVU84
 243 007c 7549     		ldr	r1, .L54+12
 126:../Middlewares/threadx/common/src/tx_mutex_put.c **** 
 244              		.loc 1 126 20 view .LVU85
 245 007e E368     		ldr	r3, [r4, #12]
 246              	.LVL19:
 247              		.loc 1 129 9 is_stmt 1 view .LVU86
 130:../Middlewares/threadx/common/src/tx_mutex_put.c **** 
 131:../Middlewares/threadx/common/src/tx_mutex_put.c ****         /* Check to see if the mutex is owned by the calling thread.  */
 132:../Middlewares/threadx/common/src/tx_mutex_put.c ****         if (mutex_ptr -> tx_mutex_owner != current_thread)
 248              		.loc 1 132 9 view .LVU87
 249              		.loc 1 132 12 is_stmt 0 view .LVU88
 250 0080 0968     		ldr	r1, [r1]
 251              	.LVL20:
 252              		.loc 1 132 12 view .LVU89
 253 0082 8B42     		cmp	r3, r1
 254 0084 15D0     		beq	.L9
 133:../Middlewares/threadx/common/src/tx_mutex_put.c ****         {
 134:../Middlewares/threadx/common/src/tx_mutex_put.c **** 
 135:../Middlewares/threadx/common/src/tx_mutex_put.c ****             /* Determine if the preempt disable flag is set, indicating that
 136:../Middlewares/threadx/common/src/tx_mutex_put.c ****                the caller is not the application but from ThreadX. In such
 137:../Middlewares/threadx/common/src/tx_mutex_put.c ****                cases, the thread mutex owner does not need to match.  */
 138:../Middlewares/threadx/common/src/tx_mutex_put.c ****             if (_tx_thread_preempt_disable == ((UINT) 0))
 255              		.loc 1 138 13 is_stmt 1 view .LVU90
 256              		.loc 1 138 44 is_stmt 0 view .LVU91
 257 0086 7949     		ldr	r1, .L54+36
 258              	.LVL21:
 259              		.loc 1 138 44 view .LVU92
 260 0088 0968     		ldr	r1, [r1]
 261              		.loc 1 138 16 view .LVU93
 262 008a 91B9     		cbnz	r1, .L9
 263              	.LVL22:
 264              	.L51:
 139:../Middlewares/threadx/common/src/tx_mutex_put.c ****             {
 140:../Middlewares/threadx/common/src/tx_mutex_put.c **** 
 141:../Middlewares/threadx/common/src/tx_mutex_put.c ****                 /* Invalid mutex release.  */
 142:../Middlewares/threadx/common/src/tx_mutex_put.c **** 
 143:../Middlewares/threadx/common/src/tx_mutex_put.c ****                 /* Restore interrupts.  */
ARM GAS  /tmp/ccBuKv1E.s 			page 19


 144:../Middlewares/threadx/common/src/tx_mutex_put.c ****                 TX_RESTORE
 265              		.loc 1 144 17 is_stmt 1 view .LVU94
 266              	.LBB60:
 267              	.LBI60:
 586:../Middlewares/threadx/ports/cortex_m55/gnu/inc/tx_port.h **** {
 268              		.loc 2 586 55 view .LVU95
 269              	.LBB61:
 591:../Middlewares/threadx/ports/cortex_m55/gnu/inc/tx_port.h **** #endif
 270              		.loc 2 591 5 view .LVU96
 271              		.syntax unified
 272              	@ 591 "../Middlewares/threadx/ports/cortex_m55/gnu/inc/tx_port.h" 1
 273 008c 87F31088 		MSR  PRIMASK,r7
 274              	@ 0 "" 2
 275              	.LVL23:
 591:../Middlewares/threadx/ports/cortex_m55/gnu/inc/tx_port.h **** #endif
 276              		.loc 2 591 5 is_stmt 0 view .LVU97
 277              		.thumb
 278              		.syntax unified
 279              	.LBE61:
 280              	.LBE60:
 145:../Middlewares/threadx/common/src/tx_mutex_put.c **** 
 146:../Middlewares/threadx/common/src/tx_mutex_put.c ****                 /* Caller does not own the mutex.  */
 147:../Middlewares/threadx/common/src/tx_mutex_put.c ****                 status =  TX_NOT_OWNED;
 281              		.loc 1 147 17 is_stmt 1 view .LVU98
 148:../Middlewares/threadx/common/src/tx_mutex_put.c ****             }
 149:../Middlewares/threadx/common/src/tx_mutex_put.c ****         }
 150:../Middlewares/threadx/common/src/tx_mutex_put.c **** 
 151:../Middlewares/threadx/common/src/tx_mutex_put.c ****         /* Determine if we should continue.  */
 152:../Middlewares/threadx/common/src/tx_mutex_put.c ****         if (status == TX_NOT_DONE)
 282              		.loc 1 152 9 view .LVU99
 153:../Middlewares/threadx/common/src/tx_mutex_put.c ****         {
 154:../Middlewares/threadx/common/src/tx_mutex_put.c **** 
 155:../Middlewares/threadx/common/src/tx_mutex_put.c ****             /* Decrement the mutex ownership count.  */
 156:../Middlewares/threadx/common/src/tx_mutex_put.c ****             mutex_ptr -> tx_mutex_ownership_count--;
 157:../Middlewares/threadx/common/src/tx_mutex_put.c **** 
 158:../Middlewares/threadx/common/src/tx_mutex_put.c ****             /* Determine if the mutex is still owned by the current thread.  */
 159:../Middlewares/threadx/common/src/tx_mutex_put.c ****             if (mutex_ptr -> tx_mutex_ownership_count != ((UINT) 0))
 160:../Middlewares/threadx/common/src/tx_mutex_put.c ****             {
 161:../Middlewares/threadx/common/src/tx_mutex_put.c **** 
 162:../Middlewares/threadx/common/src/tx_mutex_put.c ****                 /* Restore interrupts.  */
 163:../Middlewares/threadx/common/src/tx_mutex_put.c ****                 TX_RESTORE
 164:../Middlewares/threadx/common/src/tx_mutex_put.c **** 
 165:../Middlewares/threadx/common/src/tx_mutex_put.c ****                 /* Mutex is still owned, just return successful status.  */
 166:../Middlewares/threadx/common/src/tx_mutex_put.c ****                 status =  TX_SUCCESS;
 167:../Middlewares/threadx/common/src/tx_mutex_put.c ****             }
 168:../Middlewares/threadx/common/src/tx_mutex_put.c ****             else
 169:../Middlewares/threadx/common/src/tx_mutex_put.c ****             {
 170:../Middlewares/threadx/common/src/tx_mutex_put.c **** 
 171:../Middlewares/threadx/common/src/tx_mutex_put.c ****                 /* Check for a NULL thread pointer, which can only happen during initialization.   
 172:../Middlewares/threadx/common/src/tx_mutex_put.c ****                 if (thread_ptr == TX_NULL)
 173:../Middlewares/threadx/common/src/tx_mutex_put.c ****                 {
 174:../Middlewares/threadx/common/src/tx_mutex_put.c **** 
 175:../Middlewares/threadx/common/src/tx_mutex_put.c ****                     /* Restore interrupts.  */
 176:../Middlewares/threadx/common/src/tx_mutex_put.c ****                     TX_RESTORE
 177:../Middlewares/threadx/common/src/tx_mutex_put.c **** 
 178:../Middlewares/threadx/common/src/tx_mutex_put.c ****                     /* Mutex is now available, return successful status.  */
 179:../Middlewares/threadx/common/src/tx_mutex_put.c ****                     status =  TX_SUCCESS;
ARM GAS  /tmp/ccBuKv1E.s 			page 20


 180:../Middlewares/threadx/common/src/tx_mutex_put.c ****                 }
 181:../Middlewares/threadx/common/src/tx_mutex_put.c ****                 else
 182:../Middlewares/threadx/common/src/tx_mutex_put.c ****                 {
 183:../Middlewares/threadx/common/src/tx_mutex_put.c **** 
 184:../Middlewares/threadx/common/src/tx_mutex_put.c ****                     /* The mutex is now available.   */
 185:../Middlewares/threadx/common/src/tx_mutex_put.c **** 
 186:../Middlewares/threadx/common/src/tx_mutex_put.c ****                     /* Remove this mutex from the owned mutex list.  */
 187:../Middlewares/threadx/common/src/tx_mutex_put.c **** 
 188:../Middlewares/threadx/common/src/tx_mutex_put.c ****                     /* Decrement the ownership count.  */
 189:../Middlewares/threadx/common/src/tx_mutex_put.c ****                     thread_ptr -> tx_thread_owned_mutex_count--;
 190:../Middlewares/threadx/common/src/tx_mutex_put.c **** 
 191:../Middlewares/threadx/common/src/tx_mutex_put.c ****                     /* Determine if this mutex was the only one on the list.  */
 192:../Middlewares/threadx/common/src/tx_mutex_put.c ****                     if (thread_ptr -> tx_thread_owned_mutex_count == ((UINT) 0))
 193:../Middlewares/threadx/common/src/tx_mutex_put.c ****                     {
 194:../Middlewares/threadx/common/src/tx_mutex_put.c **** 
 195:../Middlewares/threadx/common/src/tx_mutex_put.c ****                         /* Yes, the list is empty.  Simply set the head pointer to NULL.  */
 196:../Middlewares/threadx/common/src/tx_mutex_put.c ****                         thread_ptr -> tx_thread_owned_mutex_list =  TX_NULL;
 197:../Middlewares/threadx/common/src/tx_mutex_put.c ****                     }
 198:../Middlewares/threadx/common/src/tx_mutex_put.c ****                     else
 199:../Middlewares/threadx/common/src/tx_mutex_put.c ****                     {
 200:../Middlewares/threadx/common/src/tx_mutex_put.c **** 
 201:../Middlewares/threadx/common/src/tx_mutex_put.c ****                         /* No, there are more mutexes on the list.  */
 202:../Middlewares/threadx/common/src/tx_mutex_put.c **** 
 203:../Middlewares/threadx/common/src/tx_mutex_put.c ****                         /* Link-up the neighbors.  */
 204:../Middlewares/threadx/common/src/tx_mutex_put.c ****                         next_mutex =                             mutex_ptr -> tx_mutex_owned_next;
 205:../Middlewares/threadx/common/src/tx_mutex_put.c ****                         previous_mutex =                         mutex_ptr -> tx_mutex_owned_previo
 206:../Middlewares/threadx/common/src/tx_mutex_put.c ****                         next_mutex -> tx_mutex_owned_previous =  previous_mutex;
 207:../Middlewares/threadx/common/src/tx_mutex_put.c ****                         previous_mutex -> tx_mutex_owned_next =  next_mutex;
 208:../Middlewares/threadx/common/src/tx_mutex_put.c **** 
 209:../Middlewares/threadx/common/src/tx_mutex_put.c ****                         /* See if we have to update the created list head pointer.  */
 210:../Middlewares/threadx/common/src/tx_mutex_put.c ****                         if (thread_ptr -> tx_thread_owned_mutex_list == mutex_ptr)
 211:../Middlewares/threadx/common/src/tx_mutex_put.c ****                         {
 212:../Middlewares/threadx/common/src/tx_mutex_put.c **** 
 213:../Middlewares/threadx/common/src/tx_mutex_put.c ****                             /* Yes, move the head pointer to the next link. */
 214:../Middlewares/threadx/common/src/tx_mutex_put.c ****                             thread_ptr -> tx_thread_owned_mutex_list =  next_mutex;
 215:../Middlewares/threadx/common/src/tx_mutex_put.c ****                         }
 216:../Middlewares/threadx/common/src/tx_mutex_put.c ****                     }
 217:../Middlewares/threadx/common/src/tx_mutex_put.c **** 
 218:../Middlewares/threadx/common/src/tx_mutex_put.c ****                     /* Determine if the simple, non-suspension, non-priority inheritance case is pr
 219:../Middlewares/threadx/common/src/tx_mutex_put.c ****                     if (mutex_ptr -> tx_mutex_suspension_list == TX_NULL)
 220:../Middlewares/threadx/common/src/tx_mutex_put.c ****                     {
 221:../Middlewares/threadx/common/src/tx_mutex_put.c **** 
 222:../Middlewares/threadx/common/src/tx_mutex_put.c ****                         /* Is this a priority inheritance mutex?  */
 223:../Middlewares/threadx/common/src/tx_mutex_put.c ****                         if (mutex_ptr -> tx_mutex_inherit == TX_FALSE)
 224:../Middlewares/threadx/common/src/tx_mutex_put.c ****                         {
 225:../Middlewares/threadx/common/src/tx_mutex_put.c **** 
 226:../Middlewares/threadx/common/src/tx_mutex_put.c ****                             /* Yes, we are done - set the mutex owner to NULL.   */
 227:../Middlewares/threadx/common/src/tx_mutex_put.c ****                             mutex_ptr -> tx_mutex_owner =  TX_NULL;
 228:../Middlewares/threadx/common/src/tx_mutex_put.c **** 
 229:../Middlewares/threadx/common/src/tx_mutex_put.c ****                             /* Restore interrupts.  */
 230:../Middlewares/threadx/common/src/tx_mutex_put.c ****                             TX_RESTORE
 231:../Middlewares/threadx/common/src/tx_mutex_put.c **** 
 232:../Middlewares/threadx/common/src/tx_mutex_put.c ****                             /* Mutex is now available, return successful status.  */
 233:../Middlewares/threadx/common/src/tx_mutex_put.c ****                             status =  TX_SUCCESS;
 234:../Middlewares/threadx/common/src/tx_mutex_put.c ****                         }
 235:../Middlewares/threadx/common/src/tx_mutex_put.c ****                     }
 236:../Middlewares/threadx/common/src/tx_mutex_put.c **** 
ARM GAS  /tmp/ccBuKv1E.s 			page 21


 237:../Middlewares/threadx/common/src/tx_mutex_put.c ****                     /* Determine if the processing is complete.  */
 238:../Middlewares/threadx/common/src/tx_mutex_put.c ****                     if (status == TX_NOT_DONE)
 239:../Middlewares/threadx/common/src/tx_mutex_put.c ****                     {
 240:../Middlewares/threadx/common/src/tx_mutex_put.c **** 
 241:../Middlewares/threadx/common/src/tx_mutex_put.c ****                         /* Initialize original owner and thread priority.  */
 242:../Middlewares/threadx/common/src/tx_mutex_put.c ****                         old_owner =      TX_NULL;
 243:../Middlewares/threadx/common/src/tx_mutex_put.c ****                         old_priority =   thread_ptr -> tx_thread_user_priority;
 244:../Middlewares/threadx/common/src/tx_mutex_put.c **** 
 245:../Middlewares/threadx/common/src/tx_mutex_put.c ****                         /* Does this mutex support priority inheritance?  */
 246:../Middlewares/threadx/common/src/tx_mutex_put.c ****                         if (mutex_ptr -> tx_mutex_inherit == TX_TRUE)
 247:../Middlewares/threadx/common/src/tx_mutex_put.c ****                         {
 248:../Middlewares/threadx/common/src/tx_mutex_put.c **** 
 249:../Middlewares/threadx/common/src/tx_mutex_put.c **** #ifndef TX_NOT_INTERRUPTABLE
 250:../Middlewares/threadx/common/src/tx_mutex_put.c **** 
 251:../Middlewares/threadx/common/src/tx_mutex_put.c ****                             /* Temporarily disable preemption.  */
 252:../Middlewares/threadx/common/src/tx_mutex_put.c ****                             _tx_thread_preempt_disable++;
 253:../Middlewares/threadx/common/src/tx_mutex_put.c **** 
 254:../Middlewares/threadx/common/src/tx_mutex_put.c ****                             /* Restore interrupts.  */
 255:../Middlewares/threadx/common/src/tx_mutex_put.c ****                             TX_RESTORE
 256:../Middlewares/threadx/common/src/tx_mutex_put.c **** #endif
 257:../Middlewares/threadx/common/src/tx_mutex_put.c **** 
 258:../Middlewares/threadx/common/src/tx_mutex_put.c ****                             /* Default the inheritance priority to disabled.  */
 259:../Middlewares/threadx/common/src/tx_mutex_put.c ****                             inheritance_priority =  ((UINT) TX_MAX_PRIORITIES);
 260:../Middlewares/threadx/common/src/tx_mutex_put.c **** 
 261:../Middlewares/threadx/common/src/tx_mutex_put.c ****                             /* Search the owned mutexes for this thread to determine the highest pr
 262:../Middlewares/threadx/common/src/tx_mutex_put.c ****                                former mutex owner to return to.  */
 263:../Middlewares/threadx/common/src/tx_mutex_put.c ****                             next_mutex =  thread_ptr -> tx_thread_owned_mutex_list;
 264:../Middlewares/threadx/common/src/tx_mutex_put.c ****                             while (next_mutex != TX_NULL)
 265:../Middlewares/threadx/common/src/tx_mutex_put.c ****                             {
 266:../Middlewares/threadx/common/src/tx_mutex_put.c **** 
 267:../Middlewares/threadx/common/src/tx_mutex_put.c ****                                 /* Does this mutex support priority inheritance?  */
 268:../Middlewares/threadx/common/src/tx_mutex_put.c ****                                 if (next_mutex -> tx_mutex_inherit == TX_TRUE)
 269:../Middlewares/threadx/common/src/tx_mutex_put.c ****                                 {
 270:../Middlewares/threadx/common/src/tx_mutex_put.c **** 
 271:../Middlewares/threadx/common/src/tx_mutex_put.c ****                                     /* Determine if highest priority field of the mutex is higher t
 272:../Middlewares/threadx/common/src/tx_mutex_put.c ****                                        restore.  */
 273:../Middlewares/threadx/common/src/tx_mutex_put.c ****                                     if (next_mutex -> tx_mutex_highest_priority_waiting < inheritan
 274:../Middlewares/threadx/common/src/tx_mutex_put.c ****                                     {
 275:../Middlewares/threadx/common/src/tx_mutex_put.c **** 
 276:../Middlewares/threadx/common/src/tx_mutex_put.c ****                                         /* Use this priority to return releasing thread to.  */
 277:../Middlewares/threadx/common/src/tx_mutex_put.c ****                                         inheritance_priority =   next_mutex -> tx_mutex_highest_pri
 278:../Middlewares/threadx/common/src/tx_mutex_put.c ****                                     }
 279:../Middlewares/threadx/common/src/tx_mutex_put.c ****                                 }
 280:../Middlewares/threadx/common/src/tx_mutex_put.c **** 
 281:../Middlewares/threadx/common/src/tx_mutex_put.c ****                                 /* Move mutex pointer to the next mutex in the list.  */
 282:../Middlewares/threadx/common/src/tx_mutex_put.c ****                                 next_mutex =  next_mutex -> tx_mutex_owned_next;
 283:../Middlewares/threadx/common/src/tx_mutex_put.c **** 
 284:../Middlewares/threadx/common/src/tx_mutex_put.c ****                                 /* Are we at the end of the list?  */
 285:../Middlewares/threadx/common/src/tx_mutex_put.c ****                                 if (next_mutex == thread_ptr -> tx_thread_owned_mutex_list)
 286:../Middlewares/threadx/common/src/tx_mutex_put.c ****                                 {
 287:../Middlewares/threadx/common/src/tx_mutex_put.c **** 
 288:../Middlewares/threadx/common/src/tx_mutex_put.c ****                                     /* Yes, set the next mutex to NULL.  */
 289:../Middlewares/threadx/common/src/tx_mutex_put.c ****                                     next_mutex =  TX_NULL;
 290:../Middlewares/threadx/common/src/tx_mutex_put.c ****                                 }
 291:../Middlewares/threadx/common/src/tx_mutex_put.c ****                             }
 292:../Middlewares/threadx/common/src/tx_mutex_put.c **** 
 293:../Middlewares/threadx/common/src/tx_mutex_put.c **** #ifndef TX_NOT_INTERRUPTABLE
ARM GAS  /tmp/ccBuKv1E.s 			page 22


 294:../Middlewares/threadx/common/src/tx_mutex_put.c **** 
 295:../Middlewares/threadx/common/src/tx_mutex_put.c ****                             /* Disable interrupts.  */
 296:../Middlewares/threadx/common/src/tx_mutex_put.c ****                             TX_DISABLE
 297:../Middlewares/threadx/common/src/tx_mutex_put.c **** 
 298:../Middlewares/threadx/common/src/tx_mutex_put.c ****                             /* Undo the temporarily preemption disable.  */
 299:../Middlewares/threadx/common/src/tx_mutex_put.c ****                             _tx_thread_preempt_disable--;
 300:../Middlewares/threadx/common/src/tx_mutex_put.c **** #endif
 301:../Middlewares/threadx/common/src/tx_mutex_put.c **** 
 302:../Middlewares/threadx/common/src/tx_mutex_put.c ****                             /* Set the inherit priority to that of the highest priority thread wait
 303:../Middlewares/threadx/common/src/tx_mutex_put.c ****                             thread_ptr -> tx_thread_inherit_priority =  inheritance_priority;
 304:../Middlewares/threadx/common/src/tx_mutex_put.c **** 
 305:../Middlewares/threadx/common/src/tx_mutex_put.c ****                             /* Determine if the inheritance priority is less than the default old p
 306:../Middlewares/threadx/common/src/tx_mutex_put.c ****                             if (inheritance_priority < old_priority)
 307:../Middlewares/threadx/common/src/tx_mutex_put.c ****                             {
 308:../Middlewares/threadx/common/src/tx_mutex_put.c **** 
 309:../Middlewares/threadx/common/src/tx_mutex_put.c ****                                 /* Yes, update the old priority.  */
 310:../Middlewares/threadx/common/src/tx_mutex_put.c ****                                 old_priority =  inheritance_priority;
 311:../Middlewares/threadx/common/src/tx_mutex_put.c ****                             }
 312:../Middlewares/threadx/common/src/tx_mutex_put.c ****                         }
 313:../Middlewares/threadx/common/src/tx_mutex_put.c **** 
 314:../Middlewares/threadx/common/src/tx_mutex_put.c ****                         /* Determine if priority inheritance is in effect and there are one or more
 315:../Middlewares/threadx/common/src/tx_mutex_put.c ****                            threads suspended on the mutex.  */
 316:../Middlewares/threadx/common/src/tx_mutex_put.c ****                         if (mutex_ptr -> tx_mutex_suspended_count > ((UINT) 1))
 317:../Middlewares/threadx/common/src/tx_mutex_put.c ****                         {
 318:../Middlewares/threadx/common/src/tx_mutex_put.c **** 
 319:../Middlewares/threadx/common/src/tx_mutex_put.c ****                             /* Is priority inheritance in effect?  */
 320:../Middlewares/threadx/common/src/tx_mutex_put.c ****                             if (mutex_ptr -> tx_mutex_inherit == TX_TRUE)
 321:../Middlewares/threadx/common/src/tx_mutex_put.c ****                             {
 322:../Middlewares/threadx/common/src/tx_mutex_put.c **** 
 323:../Middlewares/threadx/common/src/tx_mutex_put.c ****                                 /* Yes, this code is simply to ensure the highest priority thread i
 324:../Middlewares/threadx/common/src/tx_mutex_put.c ****                                    at the front of the suspension list.  */
 325:../Middlewares/threadx/common/src/tx_mutex_put.c **** 
 326:../Middlewares/threadx/common/src/tx_mutex_put.c **** #ifndef TX_NOT_INTERRUPTABLE
 327:../Middlewares/threadx/common/src/tx_mutex_put.c **** 
 328:../Middlewares/threadx/common/src/tx_mutex_put.c ****                                 /* Temporarily disable preemption.  */
 329:../Middlewares/threadx/common/src/tx_mutex_put.c ****                                 _tx_thread_preempt_disable++;
 330:../Middlewares/threadx/common/src/tx_mutex_put.c **** 
 331:../Middlewares/threadx/common/src/tx_mutex_put.c ****                                 /* Restore interrupts.  */
 332:../Middlewares/threadx/common/src/tx_mutex_put.c ****                                 TX_RESTORE
 333:../Middlewares/threadx/common/src/tx_mutex_put.c **** #endif
 334:../Middlewares/threadx/common/src/tx_mutex_put.c **** 
 335:../Middlewares/threadx/common/src/tx_mutex_put.c ****                                 /* Call the mutex prioritize processing to ensure the
 336:../Middlewares/threadx/common/src/tx_mutex_put.c ****                                    highest priority thread is resumed.  */
 337:../Middlewares/threadx/common/src/tx_mutex_put.c **** #ifdef TX_MISRA_ENABLE
 338:../Middlewares/threadx/common/src/tx_mutex_put.c ****                                 do
 339:../Middlewares/threadx/common/src/tx_mutex_put.c ****                                 {
 340:../Middlewares/threadx/common/src/tx_mutex_put.c ****                                     status =  _tx_mutex_prioritize(mutex_ptr);
 341:../Middlewares/threadx/common/src/tx_mutex_put.c ****                                 } while (status != TX_SUCCESS);
 342:../Middlewares/threadx/common/src/tx_mutex_put.c **** #else
 343:../Middlewares/threadx/common/src/tx_mutex_put.c ****                                 _tx_mutex_prioritize(mutex_ptr);
 344:../Middlewares/threadx/common/src/tx_mutex_put.c **** #endif
 345:../Middlewares/threadx/common/src/tx_mutex_put.c **** 
 346:../Middlewares/threadx/common/src/tx_mutex_put.c ****                                 /* At this point, the highest priority thread is at the
 347:../Middlewares/threadx/common/src/tx_mutex_put.c ****                                    front of the suspension list.  */
 348:../Middlewares/threadx/common/src/tx_mutex_put.c **** 
 349:../Middlewares/threadx/common/src/tx_mutex_put.c ****                                 /* Optional processing extension.  */
 350:../Middlewares/threadx/common/src/tx_mutex_put.c ****                                 TX_MUTEX_PUT_EXTENSION_1
ARM GAS  /tmp/ccBuKv1E.s 			page 23


 351:../Middlewares/threadx/common/src/tx_mutex_put.c **** 
 352:../Middlewares/threadx/common/src/tx_mutex_put.c **** #ifndef TX_NOT_INTERRUPTABLE
 353:../Middlewares/threadx/common/src/tx_mutex_put.c **** 
 354:../Middlewares/threadx/common/src/tx_mutex_put.c ****                                 /* Disable interrupts.  */
 355:../Middlewares/threadx/common/src/tx_mutex_put.c ****                                 TX_DISABLE
 356:../Middlewares/threadx/common/src/tx_mutex_put.c **** 
 357:../Middlewares/threadx/common/src/tx_mutex_put.c ****                                 /* Back off the preemption disable.  */
 358:../Middlewares/threadx/common/src/tx_mutex_put.c ****                                 _tx_thread_preempt_disable--;
 359:../Middlewares/threadx/common/src/tx_mutex_put.c **** #endif
 360:../Middlewares/threadx/common/src/tx_mutex_put.c ****                             }
 361:../Middlewares/threadx/common/src/tx_mutex_put.c ****                         }
 362:../Middlewares/threadx/common/src/tx_mutex_put.c **** 
 363:../Middlewares/threadx/common/src/tx_mutex_put.c ****                         /* Now determine if there are any threads still waiting on the mutex.  */
 364:../Middlewares/threadx/common/src/tx_mutex_put.c ****                         if (mutex_ptr -> tx_mutex_suspension_list == TX_NULL)
 365:../Middlewares/threadx/common/src/tx_mutex_put.c ****                         {
 366:../Middlewares/threadx/common/src/tx_mutex_put.c **** 
 367:../Middlewares/threadx/common/src/tx_mutex_put.c ****                             /* No, there are no longer any threads waiting on the mutex.  */
 368:../Middlewares/threadx/common/src/tx_mutex_put.c **** 
 369:../Middlewares/threadx/common/src/tx_mutex_put.c **** #ifndef TX_NOT_INTERRUPTABLE
 370:../Middlewares/threadx/common/src/tx_mutex_put.c **** 
 371:../Middlewares/threadx/common/src/tx_mutex_put.c ****                             /* Temporarily disable preemption.  */
 372:../Middlewares/threadx/common/src/tx_mutex_put.c ****                             _tx_thread_preempt_disable++;
 373:../Middlewares/threadx/common/src/tx_mutex_put.c **** 
 374:../Middlewares/threadx/common/src/tx_mutex_put.c ****                             /* Restore interrupts.  */
 375:../Middlewares/threadx/common/src/tx_mutex_put.c ****                             TX_RESTORE
 376:../Middlewares/threadx/common/src/tx_mutex_put.c **** #endif
 377:../Middlewares/threadx/common/src/tx_mutex_put.c **** 
 378:../Middlewares/threadx/common/src/tx_mutex_put.c ****                             /* Mutex is not owned, but it is possible that a thread that
 379:../Middlewares/threadx/common/src/tx_mutex_put.c ****                                caused a priority inheritance to occur is no longer waiting
 380:../Middlewares/threadx/common/src/tx_mutex_put.c ****                                on the mutex.  */
 381:../Middlewares/threadx/common/src/tx_mutex_put.c **** 
 382:../Middlewares/threadx/common/src/tx_mutex_put.c ****                             /* Setup the highest priority waiting thread.  */
 383:../Middlewares/threadx/common/src/tx_mutex_put.c ****                             mutex_ptr -> tx_mutex_highest_priority_waiting =  (UINT) TX_MAX_PRIORIT
 384:../Middlewares/threadx/common/src/tx_mutex_put.c **** 
 385:../Middlewares/threadx/common/src/tx_mutex_put.c ****                             /* Determine if we need to restore priority.  */
 386:../Middlewares/threadx/common/src/tx_mutex_put.c ****                             if ((mutex_ptr -> tx_mutex_owner) -> tx_thread_priority != old_priority
 387:../Middlewares/threadx/common/src/tx_mutex_put.c ****                             {
 388:../Middlewares/threadx/common/src/tx_mutex_put.c **** 
 389:../Middlewares/threadx/common/src/tx_mutex_put.c ****                                 /* Yes, restore the priority of thread.  */
 390:../Middlewares/threadx/common/src/tx_mutex_put.c ****                                 _tx_mutex_priority_change(mutex_ptr -> tx_mutex_owner, old_priority
 391:../Middlewares/threadx/common/src/tx_mutex_put.c ****                             }
 392:../Middlewares/threadx/common/src/tx_mutex_put.c **** 
 393:../Middlewares/threadx/common/src/tx_mutex_put.c **** #ifndef TX_NOT_INTERRUPTABLE
 394:../Middlewares/threadx/common/src/tx_mutex_put.c **** 
 395:../Middlewares/threadx/common/src/tx_mutex_put.c ****                             /* Disable interrupts again.  */
 396:../Middlewares/threadx/common/src/tx_mutex_put.c ****                             TX_DISABLE
 397:../Middlewares/threadx/common/src/tx_mutex_put.c **** 
 398:../Middlewares/threadx/common/src/tx_mutex_put.c ****                             /* Back off the preemption disable.  */
 399:../Middlewares/threadx/common/src/tx_mutex_put.c ****                             _tx_thread_preempt_disable--;
 400:../Middlewares/threadx/common/src/tx_mutex_put.c **** #endif
 401:../Middlewares/threadx/common/src/tx_mutex_put.c **** 
 402:../Middlewares/threadx/common/src/tx_mutex_put.c ****                             /* Set the mutex owner to NULL.  */
 403:../Middlewares/threadx/common/src/tx_mutex_put.c ****                             mutex_ptr -> tx_mutex_owner =  TX_NULL;
 404:../Middlewares/threadx/common/src/tx_mutex_put.c **** 
 405:../Middlewares/threadx/common/src/tx_mutex_put.c ****                             /* Restore interrupts.  */
 406:../Middlewares/threadx/common/src/tx_mutex_put.c ****                             TX_RESTORE
 407:../Middlewares/threadx/common/src/tx_mutex_put.c **** 
ARM GAS  /tmp/ccBuKv1E.s 			page 24


 408:../Middlewares/threadx/common/src/tx_mutex_put.c ****                             /* Check for preemption.  */
 409:../Middlewares/threadx/common/src/tx_mutex_put.c ****                             _tx_thread_system_preempt_check();
 410:../Middlewares/threadx/common/src/tx_mutex_put.c **** 
 411:../Middlewares/threadx/common/src/tx_mutex_put.c ****                             /* Set status to success.  */
 412:../Middlewares/threadx/common/src/tx_mutex_put.c ****                             status =  TX_SUCCESS;
 413:../Middlewares/threadx/common/src/tx_mutex_put.c ****                         }
 414:../Middlewares/threadx/common/src/tx_mutex_put.c ****                         else
 415:../Middlewares/threadx/common/src/tx_mutex_put.c ****                         {
 416:../Middlewares/threadx/common/src/tx_mutex_put.c **** 
 417:../Middlewares/threadx/common/src/tx_mutex_put.c ****                             /* Pickup the thread at the front of the suspension list.  */
 418:../Middlewares/threadx/common/src/tx_mutex_put.c ****                             thread_ptr =  mutex_ptr -> tx_mutex_suspension_list;
 419:../Middlewares/threadx/common/src/tx_mutex_put.c **** 
 420:../Middlewares/threadx/common/src/tx_mutex_put.c ****                             /* Save the previous ownership information, if inheritance is
 421:../Middlewares/threadx/common/src/tx_mutex_put.c ****                                in effect.  */
 422:../Middlewares/threadx/common/src/tx_mutex_put.c ****                             if (mutex_ptr -> tx_mutex_inherit == TX_TRUE)
 423:../Middlewares/threadx/common/src/tx_mutex_put.c ****                             {
 424:../Middlewares/threadx/common/src/tx_mutex_put.c **** 
 425:../Middlewares/threadx/common/src/tx_mutex_put.c ****                                 /* Remember the old mutex owner.  */
 426:../Middlewares/threadx/common/src/tx_mutex_put.c ****                                 old_owner =  mutex_ptr -> tx_mutex_owner;
 427:../Middlewares/threadx/common/src/tx_mutex_put.c **** 
 428:../Middlewares/threadx/common/src/tx_mutex_put.c ****                                 /* Setup owner thread priority information.  */
 429:../Middlewares/threadx/common/src/tx_mutex_put.c ****                                 mutex_ptr -> tx_mutex_original_priority =   thread_ptr -> tx_thread
 430:../Middlewares/threadx/common/src/tx_mutex_put.c **** 
 431:../Middlewares/threadx/common/src/tx_mutex_put.c ****                                 /* Setup the highest priority waiting thread.  */
 432:../Middlewares/threadx/common/src/tx_mutex_put.c ****                                 mutex_ptr -> tx_mutex_highest_priority_waiting =  (UINT) TX_MAX_PRI
 433:../Middlewares/threadx/common/src/tx_mutex_put.c ****                             }
 434:../Middlewares/threadx/common/src/tx_mutex_put.c **** 
 435:../Middlewares/threadx/common/src/tx_mutex_put.c ****                             /* Determine how many mutexes are owned by this thread.  */
 436:../Middlewares/threadx/common/src/tx_mutex_put.c ****                             owned_count =  thread_ptr -> tx_thread_owned_mutex_count;
 437:../Middlewares/threadx/common/src/tx_mutex_put.c **** 
 438:../Middlewares/threadx/common/src/tx_mutex_put.c ****                             /* Determine if this thread owns any other mutexes that have priority i
 439:../Middlewares/threadx/common/src/tx_mutex_put.c ****                             if (owned_count == ((UINT) 0))
 440:../Middlewares/threadx/common/src/tx_mutex_put.c ****                             {
 441:../Middlewares/threadx/common/src/tx_mutex_put.c **** 
 442:../Middlewares/threadx/common/src/tx_mutex_put.c ****                                 /* The owned mutex list is empty.  Add mutex to empty list.  */
 443:../Middlewares/threadx/common/src/tx_mutex_put.c ****                                 thread_ptr -> tx_thread_owned_mutex_list =     mutex_ptr;
 444:../Middlewares/threadx/common/src/tx_mutex_put.c ****                                 mutex_ptr -> tx_mutex_owned_next =             mutex_ptr;
 445:../Middlewares/threadx/common/src/tx_mutex_put.c ****                                 mutex_ptr -> tx_mutex_owned_previous =         mutex_ptr;
 446:../Middlewares/threadx/common/src/tx_mutex_put.c ****                             }
 447:../Middlewares/threadx/common/src/tx_mutex_put.c ****                             else
 448:../Middlewares/threadx/common/src/tx_mutex_put.c ****                             {
 449:../Middlewares/threadx/common/src/tx_mutex_put.c **** 
 450:../Middlewares/threadx/common/src/tx_mutex_put.c ****                                 /* Non-empty list. Link up the mutex.  */
 451:../Middlewares/threadx/common/src/tx_mutex_put.c **** 
 452:../Middlewares/threadx/common/src/tx_mutex_put.c ****                                 /* Pickup tail pointer.  */
 453:../Middlewares/threadx/common/src/tx_mutex_put.c ****                                 next_mutex =                            thread_ptr -> tx_thread_own
 454:../Middlewares/threadx/common/src/tx_mutex_put.c ****                                 previous_mutex =                        next_mutex -> tx_mutex_owne
 455:../Middlewares/threadx/common/src/tx_mutex_put.c **** 
 456:../Middlewares/threadx/common/src/tx_mutex_put.c ****                                 /* Place the owned mutex in the list.  */
 457:../Middlewares/threadx/common/src/tx_mutex_put.c ****                                 next_mutex -> tx_mutex_owned_previous =  mutex_ptr;
 458:../Middlewares/threadx/common/src/tx_mutex_put.c ****                                 previous_mutex -> tx_mutex_owned_next =  mutex_ptr;
 459:../Middlewares/threadx/common/src/tx_mutex_put.c **** 
 460:../Middlewares/threadx/common/src/tx_mutex_put.c ****                                 /* Setup this mutex's next and previous created links.  */
 461:../Middlewares/threadx/common/src/tx_mutex_put.c ****                                 mutex_ptr -> tx_mutex_owned_previous =   previous_mutex;
 462:../Middlewares/threadx/common/src/tx_mutex_put.c ****                                 mutex_ptr -> tx_mutex_owned_next =       next_mutex;
 463:../Middlewares/threadx/common/src/tx_mutex_put.c ****                             }
 464:../Middlewares/threadx/common/src/tx_mutex_put.c **** 
ARM GAS  /tmp/ccBuKv1E.s 			page 25


 465:../Middlewares/threadx/common/src/tx_mutex_put.c ****                             /* Increment the number of mutexes owned counter.  */
 466:../Middlewares/threadx/common/src/tx_mutex_put.c ****                             thread_ptr -> tx_thread_owned_mutex_count =  owned_count + ((UINT) 1);
 467:../Middlewares/threadx/common/src/tx_mutex_put.c **** 
 468:../Middlewares/threadx/common/src/tx_mutex_put.c ****                             /* Mark the Mutex as owned and fill in the corresponding information.  
 469:../Middlewares/threadx/common/src/tx_mutex_put.c ****                             mutex_ptr -> tx_mutex_ownership_count =  (UINT) 1;
 470:../Middlewares/threadx/common/src/tx_mutex_put.c ****                             mutex_ptr -> tx_mutex_owner =            thread_ptr;
 471:../Middlewares/threadx/common/src/tx_mutex_put.c **** 
 472:../Middlewares/threadx/common/src/tx_mutex_put.c ****                             /* Remove the suspended thread from the list.  */
 473:../Middlewares/threadx/common/src/tx_mutex_put.c **** 
 474:../Middlewares/threadx/common/src/tx_mutex_put.c ****                             /* Decrement the suspension count.  */
 475:../Middlewares/threadx/common/src/tx_mutex_put.c ****                             mutex_ptr -> tx_mutex_suspended_count--;
 476:../Middlewares/threadx/common/src/tx_mutex_put.c **** 
 477:../Middlewares/threadx/common/src/tx_mutex_put.c ****                             /* Pickup the suspended count.  */
 478:../Middlewares/threadx/common/src/tx_mutex_put.c ****                             suspended_count =  mutex_ptr -> tx_mutex_suspended_count;
 479:../Middlewares/threadx/common/src/tx_mutex_put.c **** 
 480:../Middlewares/threadx/common/src/tx_mutex_put.c ****                             /* See if this is the only suspended thread on the list.  */
 481:../Middlewares/threadx/common/src/tx_mutex_put.c ****                             if (suspended_count == TX_NO_SUSPENSIONS)
 482:../Middlewares/threadx/common/src/tx_mutex_put.c ****                             {
 483:../Middlewares/threadx/common/src/tx_mutex_put.c **** 
 484:../Middlewares/threadx/common/src/tx_mutex_put.c ****                                 /* Yes, the only suspended thread.  */
 485:../Middlewares/threadx/common/src/tx_mutex_put.c **** 
 486:../Middlewares/threadx/common/src/tx_mutex_put.c ****                                 /* Update the head pointer.  */
 487:../Middlewares/threadx/common/src/tx_mutex_put.c ****                                 mutex_ptr -> tx_mutex_suspension_list =  TX_NULL;
 488:../Middlewares/threadx/common/src/tx_mutex_put.c ****                             }
 489:../Middlewares/threadx/common/src/tx_mutex_put.c ****                             else
 490:../Middlewares/threadx/common/src/tx_mutex_put.c ****                             {
 491:../Middlewares/threadx/common/src/tx_mutex_put.c **** 
 492:../Middlewares/threadx/common/src/tx_mutex_put.c ****                                 /* At least one more thread is on the same expiration list.  */
 493:../Middlewares/threadx/common/src/tx_mutex_put.c **** 
 494:../Middlewares/threadx/common/src/tx_mutex_put.c ****                                 /* Update the list head pointer.  */
 495:../Middlewares/threadx/common/src/tx_mutex_put.c ****                                 next_thread =                                  thread_ptr -> tx_thr
 496:../Middlewares/threadx/common/src/tx_mutex_put.c ****                                 mutex_ptr -> tx_mutex_suspension_list =        next_thread;
 497:../Middlewares/threadx/common/src/tx_mutex_put.c **** 
 498:../Middlewares/threadx/common/src/tx_mutex_put.c ****                                 /* Update the links of the adjacent threads.  */
 499:../Middlewares/threadx/common/src/tx_mutex_put.c ****                                 previous_thread =                              thread_ptr -> tx_thr
 500:../Middlewares/threadx/common/src/tx_mutex_put.c ****                                 next_thread -> tx_thread_suspended_previous =  previous_thread;
 501:../Middlewares/threadx/common/src/tx_mutex_put.c ****                                 previous_thread -> tx_thread_suspended_next =  next_thread;
 502:../Middlewares/threadx/common/src/tx_mutex_put.c ****                             }
 503:../Middlewares/threadx/common/src/tx_mutex_put.c **** 
 504:../Middlewares/threadx/common/src/tx_mutex_put.c ****                             /* Prepare for resumption of the first thread.  */
 505:../Middlewares/threadx/common/src/tx_mutex_put.c **** 
 506:../Middlewares/threadx/common/src/tx_mutex_put.c ****                             /* Clear cleanup routine to avoid timeout.  */
 507:../Middlewares/threadx/common/src/tx_mutex_put.c ****                             thread_ptr -> tx_thread_suspend_cleanup =  TX_NULL;
 508:../Middlewares/threadx/common/src/tx_mutex_put.c **** 
 509:../Middlewares/threadx/common/src/tx_mutex_put.c ****                             /* Put return status into the thread control block.  */
 510:../Middlewares/threadx/common/src/tx_mutex_put.c ****                             thread_ptr -> tx_thread_suspend_status =  TX_SUCCESS;
 511:../Middlewares/threadx/common/src/tx_mutex_put.c **** 
 512:../Middlewares/threadx/common/src/tx_mutex_put.c **** #ifdef TX_NOT_INTERRUPTABLE
 513:../Middlewares/threadx/common/src/tx_mutex_put.c **** 
 514:../Middlewares/threadx/common/src/tx_mutex_put.c ****                             /* Determine if priority inheritance is enabled for this mutex.  */
 515:../Middlewares/threadx/common/src/tx_mutex_put.c ****                             if (mutex_ptr -> tx_mutex_inherit == TX_TRUE)
 516:../Middlewares/threadx/common/src/tx_mutex_put.c ****                             {
 517:../Middlewares/threadx/common/src/tx_mutex_put.c **** 
 518:../Middlewares/threadx/common/src/tx_mutex_put.c ****                                 /* Yes, priority inheritance is requested.  */
 519:../Middlewares/threadx/common/src/tx_mutex_put.c **** 
 520:../Middlewares/threadx/common/src/tx_mutex_put.c ****                                 /* Determine if there are any more threads still suspended on the m
 521:../Middlewares/threadx/common/src/tx_mutex_put.c ****                                 if (mutex_ptr -> tx_mutex_suspended_count != ((ULONG) 0))
ARM GAS  /tmp/ccBuKv1E.s 			page 26


 522:../Middlewares/threadx/common/src/tx_mutex_put.c ****                                 {
 523:../Middlewares/threadx/common/src/tx_mutex_put.c **** 
 524:../Middlewares/threadx/common/src/tx_mutex_put.c ****                                     /* Determine if there are more than one thread suspended on the
 525:../Middlewares/threadx/common/src/tx_mutex_put.c ****                                     if (mutex_ptr -> tx_mutex_suspended_count > ((ULONG) 1))
 526:../Middlewares/threadx/common/src/tx_mutex_put.c ****                                     {
 527:../Middlewares/threadx/common/src/tx_mutex_put.c **** 
 528:../Middlewares/threadx/common/src/tx_mutex_put.c ****                                         /* If so, prioritize the list so the highest priority threa
 529:../Middlewares/threadx/common/src/tx_mutex_put.c ****                                            front of the suspension list.  */
 530:../Middlewares/threadx/common/src/tx_mutex_put.c **** #ifdef TX_MISRA_ENABLE
 531:../Middlewares/threadx/common/src/tx_mutex_put.c ****                                         do
 532:../Middlewares/threadx/common/src/tx_mutex_put.c ****                                         {
 533:../Middlewares/threadx/common/src/tx_mutex_put.c ****                                             status =  _tx_mutex_prioritize(mutex_ptr);
 534:../Middlewares/threadx/common/src/tx_mutex_put.c ****                                         } while (status != TX_SUCCESS);
 535:../Middlewares/threadx/common/src/tx_mutex_put.c **** #else
 536:../Middlewares/threadx/common/src/tx_mutex_put.c ****                                         _tx_mutex_prioritize(mutex_ptr);
 537:../Middlewares/threadx/common/src/tx_mutex_put.c **** #endif
 538:../Middlewares/threadx/common/src/tx_mutex_put.c ****                                     }
 539:../Middlewares/threadx/common/src/tx_mutex_put.c **** 
 540:../Middlewares/threadx/common/src/tx_mutex_put.c ****                                     /* Now, pickup the list head and set the priority.  */
 541:../Middlewares/threadx/common/src/tx_mutex_put.c **** 
 542:../Middlewares/threadx/common/src/tx_mutex_put.c ****                                     /* Determine if there still are threads suspended for this mute
 543:../Middlewares/threadx/common/src/tx_mutex_put.c ****                                     suspended_thread =  mutex_ptr -> tx_mutex_suspension_list;
 544:../Middlewares/threadx/common/src/tx_mutex_put.c ****                                     if (suspended_thread != TX_NULL)
 545:../Middlewares/threadx/common/src/tx_mutex_put.c ****                                     {
 546:../Middlewares/threadx/common/src/tx_mutex_put.c **** 
 547:../Middlewares/threadx/common/src/tx_mutex_put.c ****                                         /* Setup the highest priority thread waiting on this mutex.
 548:../Middlewares/threadx/common/src/tx_mutex_put.c ****                                         mutex_ptr -> tx_mutex_highest_priority_waiting =  suspended
 549:../Middlewares/threadx/common/src/tx_mutex_put.c ****                                     }
 550:../Middlewares/threadx/common/src/tx_mutex_put.c ****                                 }
 551:../Middlewares/threadx/common/src/tx_mutex_put.c **** 
 552:../Middlewares/threadx/common/src/tx_mutex_put.c ****                                 /* Restore previous priority needs to be restored after priority
 553:../Middlewares/threadx/common/src/tx_mutex_put.c ****                                    inheritance.  */
 554:../Middlewares/threadx/common/src/tx_mutex_put.c **** 
 555:../Middlewares/threadx/common/src/tx_mutex_put.c ****                                 /* Determine if we need to restore priority.  */
 556:../Middlewares/threadx/common/src/tx_mutex_put.c ****                                 if (old_owner -> tx_thread_priority != old_priority)
 557:../Middlewares/threadx/common/src/tx_mutex_put.c ****                                 {
 558:../Middlewares/threadx/common/src/tx_mutex_put.c **** 
 559:../Middlewares/threadx/common/src/tx_mutex_put.c ****                                     /* Restore priority of thread.  */
 560:../Middlewares/threadx/common/src/tx_mutex_put.c ****                                     _tx_mutex_priority_change(old_owner, old_priority);
 561:../Middlewares/threadx/common/src/tx_mutex_put.c ****                                 }
 562:../Middlewares/threadx/common/src/tx_mutex_put.c ****                             }
 563:../Middlewares/threadx/common/src/tx_mutex_put.c **** 
 564:../Middlewares/threadx/common/src/tx_mutex_put.c ****                             /* Resume the thread!  */
 565:../Middlewares/threadx/common/src/tx_mutex_put.c ****                             _tx_thread_system_ni_resume(thread_ptr);
 566:../Middlewares/threadx/common/src/tx_mutex_put.c **** 
 567:../Middlewares/threadx/common/src/tx_mutex_put.c ****                             /* Restore interrupts.  */
 568:../Middlewares/threadx/common/src/tx_mutex_put.c ****                             TX_RESTORE
 569:../Middlewares/threadx/common/src/tx_mutex_put.c **** #else
 570:../Middlewares/threadx/common/src/tx_mutex_put.c **** 
 571:../Middlewares/threadx/common/src/tx_mutex_put.c ****                             /* Temporarily disable preemption.  */
 572:../Middlewares/threadx/common/src/tx_mutex_put.c ****                             _tx_thread_preempt_disable++;
 573:../Middlewares/threadx/common/src/tx_mutex_put.c **** 
 574:../Middlewares/threadx/common/src/tx_mutex_put.c ****                             /* Restore interrupts.  */
 575:../Middlewares/threadx/common/src/tx_mutex_put.c ****                             TX_RESTORE
 576:../Middlewares/threadx/common/src/tx_mutex_put.c **** 
 577:../Middlewares/threadx/common/src/tx_mutex_put.c ****                             /* Determine if priority inheritance is enabled for this mutex.  */
 578:../Middlewares/threadx/common/src/tx_mutex_put.c ****                             if (mutex_ptr -> tx_mutex_inherit == TX_TRUE)
ARM GAS  /tmp/ccBuKv1E.s 			page 27


 579:../Middlewares/threadx/common/src/tx_mutex_put.c ****                             {
 580:../Middlewares/threadx/common/src/tx_mutex_put.c **** 
 581:../Middlewares/threadx/common/src/tx_mutex_put.c ****                                 /* Yes, priority inheritance is requested.  */
 582:../Middlewares/threadx/common/src/tx_mutex_put.c **** 
 583:../Middlewares/threadx/common/src/tx_mutex_put.c ****                                 /* Determine if there are any more threads still suspended on the m
 584:../Middlewares/threadx/common/src/tx_mutex_put.c ****                                 if (mutex_ptr -> tx_mutex_suspended_count != TX_NO_SUSPENSIONS)
 585:../Middlewares/threadx/common/src/tx_mutex_put.c ****                                 {
 586:../Middlewares/threadx/common/src/tx_mutex_put.c **** 
 587:../Middlewares/threadx/common/src/tx_mutex_put.c ****                                     /* Prioritize the list so the highest priority thread is placed
 588:../Middlewares/threadx/common/src/tx_mutex_put.c ****                                        front of the suspension list.  */
 589:../Middlewares/threadx/common/src/tx_mutex_put.c **** #ifdef TX_MISRA_ENABLE
 590:../Middlewares/threadx/common/src/tx_mutex_put.c ****                                     do
 591:../Middlewares/threadx/common/src/tx_mutex_put.c ****                                     {
 592:../Middlewares/threadx/common/src/tx_mutex_put.c ****                                         status =  _tx_mutex_prioritize(mutex_ptr);
 593:../Middlewares/threadx/common/src/tx_mutex_put.c ****                                     } while (status != TX_SUCCESS);
 594:../Middlewares/threadx/common/src/tx_mutex_put.c **** #else
 595:../Middlewares/threadx/common/src/tx_mutex_put.c ****                                     _tx_mutex_prioritize(mutex_ptr);
 596:../Middlewares/threadx/common/src/tx_mutex_put.c **** #endif
 597:../Middlewares/threadx/common/src/tx_mutex_put.c **** 
 598:../Middlewares/threadx/common/src/tx_mutex_put.c ****                                     /* Now, pickup the list head and set the priority.  */
 599:../Middlewares/threadx/common/src/tx_mutex_put.c **** 
 600:../Middlewares/threadx/common/src/tx_mutex_put.c ****                                     /* Optional processing extension.  */
 601:../Middlewares/threadx/common/src/tx_mutex_put.c ****                                     TX_MUTEX_PUT_EXTENSION_2
 602:../Middlewares/threadx/common/src/tx_mutex_put.c **** 
 603:../Middlewares/threadx/common/src/tx_mutex_put.c ****                                     /* Disable interrupts.  */
 604:../Middlewares/threadx/common/src/tx_mutex_put.c ****                                     TX_DISABLE
 605:../Middlewares/threadx/common/src/tx_mutex_put.c **** 
 606:../Middlewares/threadx/common/src/tx_mutex_put.c ****                                     /* Determine if there still are threads suspended for this mute
 607:../Middlewares/threadx/common/src/tx_mutex_put.c ****                                     suspended_thread =  mutex_ptr -> tx_mutex_suspension_list;
 608:../Middlewares/threadx/common/src/tx_mutex_put.c ****                                     if (suspended_thread != TX_NULL)
 609:../Middlewares/threadx/common/src/tx_mutex_put.c ****                                     {
 610:../Middlewares/threadx/common/src/tx_mutex_put.c **** 
 611:../Middlewares/threadx/common/src/tx_mutex_put.c ****                                         /* Setup the highest priority thread waiting on this mutex.
 612:../Middlewares/threadx/common/src/tx_mutex_put.c ****                                         mutex_ptr -> tx_mutex_highest_priority_waiting =  suspended
 613:../Middlewares/threadx/common/src/tx_mutex_put.c ****                                     }
 614:../Middlewares/threadx/common/src/tx_mutex_put.c **** 
 615:../Middlewares/threadx/common/src/tx_mutex_put.c ****                                     /* Restore interrupts.  */
 616:../Middlewares/threadx/common/src/tx_mutex_put.c ****                                     TX_RESTORE
 617:../Middlewares/threadx/common/src/tx_mutex_put.c ****                                 }
 618:../Middlewares/threadx/common/src/tx_mutex_put.c **** 
 619:../Middlewares/threadx/common/src/tx_mutex_put.c ****                                 /* Restore previous priority needs to be restored after priority
 620:../Middlewares/threadx/common/src/tx_mutex_put.c ****                                    inheritance.  */
 621:../Middlewares/threadx/common/src/tx_mutex_put.c **** 
 622:../Middlewares/threadx/common/src/tx_mutex_put.c ****                                 /* Is the priority different?  */
 623:../Middlewares/threadx/common/src/tx_mutex_put.c ****                                 if (old_owner -> tx_thread_priority != old_priority)
 624:../Middlewares/threadx/common/src/tx_mutex_put.c ****                                 {
 625:../Middlewares/threadx/common/src/tx_mutex_put.c **** 
 626:../Middlewares/threadx/common/src/tx_mutex_put.c ****                                     /* Restore the priority of thread.  */
 627:../Middlewares/threadx/common/src/tx_mutex_put.c ****                                     _tx_mutex_priority_change(old_owner, old_priority);
 628:../Middlewares/threadx/common/src/tx_mutex_put.c ****                                 }
 629:../Middlewares/threadx/common/src/tx_mutex_put.c ****                             }
 630:../Middlewares/threadx/common/src/tx_mutex_put.c **** 
 631:../Middlewares/threadx/common/src/tx_mutex_put.c ****                             /* Resume thread.  */
 632:../Middlewares/threadx/common/src/tx_mutex_put.c ****                             _tx_thread_system_resume(thread_ptr);
 633:../Middlewares/threadx/common/src/tx_mutex_put.c **** #endif
 634:../Middlewares/threadx/common/src/tx_mutex_put.c **** 
 635:../Middlewares/threadx/common/src/tx_mutex_put.c ****                             /* Return a successful status.  */
ARM GAS  /tmp/ccBuKv1E.s 			page 28


 636:../Middlewares/threadx/common/src/tx_mutex_put.c ****                             status =  TX_SUCCESS;
 637:../Middlewares/threadx/common/src/tx_mutex_put.c ****                         }
 638:../Middlewares/threadx/common/src/tx_mutex_put.c ****                     }
 639:../Middlewares/threadx/common/src/tx_mutex_put.c ****                 }
 640:../Middlewares/threadx/common/src/tx_mutex_put.c ****             }
 641:../Middlewares/threadx/common/src/tx_mutex_put.c ****         }
 642:../Middlewares/threadx/common/src/tx_mutex_put.c ****     }
 643:../Middlewares/threadx/common/src/tx_mutex_put.c ****     else
 644:../Middlewares/threadx/common/src/tx_mutex_put.c ****     {
 645:../Middlewares/threadx/common/src/tx_mutex_put.c **** 
 646:../Middlewares/threadx/common/src/tx_mutex_put.c ****         /* Restore interrupts.  */
 647:../Middlewares/threadx/common/src/tx_mutex_put.c ****         TX_RESTORE
 648:../Middlewares/threadx/common/src/tx_mutex_put.c **** 
 649:../Middlewares/threadx/common/src/tx_mutex_put.c ****         /* Caller does not own the mutex.  */
 650:../Middlewares/threadx/common/src/tx_mutex_put.c ****         status =  TX_NOT_OWNED;
 283              		.loc 1 650 16 is_stmt 0 view .LVU100
 284 0090 1E20     		movs	r0, #30
 285              	.LVL24:
 286              	.L1:
 651:../Middlewares/threadx/common/src/tx_mutex_put.c ****     }
 652:../Middlewares/threadx/common/src/tx_mutex_put.c **** 
 653:../Middlewares/threadx/common/src/tx_mutex_put.c ****     /* Return the completion status.  */
 654:../Middlewares/threadx/common/src/tx_mutex_put.c ****     return(status);
 655:../Middlewares/threadx/common/src/tx_mutex_put.c **** }
 287              		.loc 1 655 1 view .LVU101
 288 0092 02B0     		add	sp, sp, #8
 289              		.cfi_remember_state
 290              		.cfi_def_cfa_offset 24
 291              		@ sp needed
 292 0094 BDE8F081 		pop	{r4, r5, r6, r7, r8, pc}
 293              	.LVL25:
 294              	.L5:
 295              		.cfi_restore_state
 296              	.LBB62:
 116:../Middlewares/threadx/common/src/tx_mutex_put.c **** 
 297              		.loc 1 116 5 is_stmt 1 discriminator 4 view .LVU102
 298 0098 B2F1F03F 		cmp	r2, #-252645136
 116:../Middlewares/threadx/common/src/tx_mutex_put.c **** 
 299              		.loc 1 116 5 discriminator 6 view .LVU103
 300 009c 35BF     		itete	cc
 301 009e 0A46     		movcc	r2, r1
 302              	.LVL26:
 116:../Middlewares/threadx/common/src/tx_mutex_put.c **** 
 303              		.loc 1 116 5 view .LVU104
 116:../Middlewares/threadx/common/src/tx_mutex_put.c **** 
 304              		.loc 1 116 5 is_stmt 0 discriminator 7 view .LVU105
 305 00a0 4FF0F031 		movcs	r1, #-252645136
 116:../Middlewares/threadx/common/src/tx_mutex_put.c **** 
 306              		.loc 1 116 5 discriminator 6 view .LVU106
 307 00a4 4FF0FF31 		movcc	r1, #-1
 308              	.LVL27:
 116:../Middlewares/threadx/common/src/tx_mutex_put.c **** 
 309              		.loc 1 116 5 discriminator 7 view .LVU107
 310 00a8 0022     		movcs	r2, #0
 311 00aa C5E7     		b	.L6
 312              	.LVL28:
 313              	.L7:
ARM GAS  /tmp/ccBuKv1E.s 			page 29


 116:../Middlewares/threadx/common/src/tx_mutex_put.c **** 
 314              		.loc 1 116 5 is_stmt 1 discriminator 11 view .LVU108
 315 00ac 2B60     		str	r3, [r5]
 316              	.LVL29:
 116:../Middlewares/threadx/common/src/tx_mutex_put.c **** 
 317              		.loc 1 116 5 view .LVU109
 116:../Middlewares/threadx/common/src/tx_mutex_put.c **** 
 318              		.loc 1 116 5 is_stmt 0 discriminator 11 view .LVU110
 319 00ae 0362     		str	r3, [r0, #32]
 320 00b0 E2E7     		b	.L3
 321              	.LVL30:
 322              	.L9:
 116:../Middlewares/threadx/common/src/tx_mutex_put.c **** 
 323              		.loc 1 116 5 discriminator 11 view .LVU111
 324              	.LBE62:
 156:../Middlewares/threadx/common/src/tx_mutex_put.c **** 
 325              		.loc 1 156 13 is_stmt 1 view .LVU112
 156:../Middlewares/threadx/common/src/tx_mutex_put.c **** 
 326              		.loc 1 156 50 is_stmt 0 view .LVU113
 327 00b2 013A     		subs	r2, r2, #1
 328 00b4 A260     		str	r2, [r4, #8]
 159:../Middlewares/threadx/common/src/tx_mutex_put.c ****             {
 329              		.loc 1 159 13 is_stmt 1 view .LVU114
 159:../Middlewares/threadx/common/src/tx_mutex_put.c ****             {
 330              		.loc 1 159 16 is_stmt 0 view .LVU115
 331 00b6 1AB1     		cbz	r2, .L11
 332              	.L53:
 230:../Middlewares/threadx/common/src/tx_mutex_put.c **** 
 333              		.loc 1 230 29 is_stmt 1 view .LVU116
 334              	.LVL31:
 335              	.LBB63:
 336              	.LBI63:
 586:../Middlewares/threadx/ports/cortex_m55/gnu/inc/tx_port.h **** {
 337              		.loc 2 586 55 view .LVU117
 338              	.LBB64:
 591:../Middlewares/threadx/ports/cortex_m55/gnu/inc/tx_port.h **** #endif
 339              		.loc 2 591 5 view .LVU118
 340              		.syntax unified
 341              	@ 591 "../Middlewares/threadx/ports/cortex_m55/gnu/inc/tx_port.h" 1
 342 00b8 87F31088 		MSR  PRIMASK,r7
 343              	@ 0 "" 2
 344              	.LVL32:
 591:../Middlewares/threadx/ports/cortex_m55/gnu/inc/tx_port.h **** #endif
 345              		.loc 2 591 5 is_stmt 0 view .LVU119
 346              		.thumb
 347              		.syntax unified
 348              	.LBE64:
 349              	.LBE63:
 233:../Middlewares/threadx/common/src/tx_mutex_put.c ****                         }
 350              		.loc 1 233 29 is_stmt 1 view .LVU120
 238:../Middlewares/threadx/common/src/tx_mutex_put.c ****                     {
 351              		.loc 1 238 21 view .LVU121
 352              	.L12:
 166:../Middlewares/threadx/common/src/tx_mutex_put.c ****             }
 353              		.loc 1 166 24 is_stmt 0 view .LVU122
 354 00bc 0020     		movs	r0, #0
 355 00be E8E7     		b	.L1
ARM GAS  /tmp/ccBuKv1E.s 			page 30


 356              	.LVL33:
 357              	.L11:
 172:../Middlewares/threadx/common/src/tx_mutex_put.c ****                 {
 358              		.loc 1 172 17 is_stmt 1 view .LVU123
 172:../Middlewares/threadx/common/src/tx_mutex_put.c ****                 {
 359              		.loc 1 172 20 is_stmt 0 view .LVU124
 360 00c0 002B     		cmp	r3, #0
 361 00c2 F9D0     		beq	.L53
 189:../Middlewares/threadx/common/src/tx_mutex_put.c **** 
 362              		.loc 1 189 21 is_stmt 1 view .LVU125
 189:../Middlewares/threadx/common/src/tx_mutex_put.c **** 
 363              		.loc 1 189 62 is_stmt 0 view .LVU126
 364 00c4 D3F8A020 		ldr	r2, [r3, #160]
 365 00c8 013A     		subs	r2, r2, #1
 366 00ca C3F8A020 		str	r2, [r3, #160]
 192:../Middlewares/threadx/common/src/tx_mutex_put.c ****                     {
 367              		.loc 1 192 21 is_stmt 1 view .LVU127
 192:../Middlewares/threadx/common/src/tx_mutex_put.c ****                     {
 368              		.loc 1 192 24 is_stmt 0 view .LVU128
 369 00ce 12B9     		cbnz	r2, .L14
 370              	.L52:
 214:../Middlewares/threadx/common/src/tx_mutex_put.c ****                         }
 371              		.loc 1 214 29 is_stmt 1 view .LVU129
 214:../Middlewares/threadx/common/src/tx_mutex_put.c ****                         }
 372              		.loc 1 214 70 is_stmt 0 view .LVU130
 373 00d0 C3F8A420 		str	r2, [r3, #164]
 374 00d4 07E0     		b	.L15
 375              	.L14:
 204:../Middlewares/threadx/common/src/tx_mutex_put.c ****                         previous_mutex =                         mutex_ptr -> tx_mutex_owned_previo
 376              		.loc 1 204 25 is_stmt 1 view .LVU131
 205:../Middlewares/threadx/common/src/tx_mutex_put.c ****                         next_mutex -> tx_mutex_owned_previous =  previous_mutex;
 377              		.loc 1 205 40 is_stmt 0 view .LVU132
 378 00d6 D4E90B21 		ldrd	r2, r1, [r4, #44]
 379              	.LVL34:
 206:../Middlewares/threadx/common/src/tx_mutex_put.c ****                         previous_mutex -> tx_mutex_owned_next =  next_mutex;
 380              		.loc 1 206 25 is_stmt 1 view .LVU133
 206:../Middlewares/threadx/common/src/tx_mutex_put.c ****                         previous_mutex -> tx_mutex_owned_next =  next_mutex;
 381              		.loc 1 206 63 is_stmt 0 view .LVU134
 382 00da 1163     		str	r1, [r2, #48]
 207:../Middlewares/threadx/common/src/tx_mutex_put.c **** 
 383              		.loc 1 207 25 is_stmt 1 view .LVU135
 207:../Middlewares/threadx/common/src/tx_mutex_put.c **** 
 384              		.loc 1 207 63 is_stmt 0 view .LVU136
 385 00dc CA62     		str	r2, [r1, #44]
 210:../Middlewares/threadx/common/src/tx_mutex_put.c ****                         {
 386              		.loc 1 210 25 is_stmt 1 view .LVU137
 210:../Middlewares/threadx/common/src/tx_mutex_put.c ****                         {
 387              		.loc 1 210 28 is_stmt 0 view .LVU138
 388 00de D3F8A410 		ldr	r1, [r3, #164]
 389              	.LVL35:
 210:../Middlewares/threadx/common/src/tx_mutex_put.c ****                         {
 390              		.loc 1 210 28 view .LVU139
 391 00e2 A142     		cmp	r1, r4
 392 00e4 F4D0     		beq	.L52
 393              	.LVL36:
 394              	.L15:
 219:../Middlewares/threadx/common/src/tx_mutex_put.c ****                     {
ARM GAS  /tmp/ccBuKv1E.s 			page 31


 395              		.loc 1 219 21 is_stmt 1 view .LVU140
 219:../Middlewares/threadx/common/src/tx_mutex_put.c ****                     {
 396              		.loc 1 219 24 is_stmt 0 view .LVU141
 397 00e6 A169     		ldr	r1, [r4, #24]
 223:../Middlewares/threadx/common/src/tx_mutex_put.c ****                         {
 398              		.loc 1 223 39 view .LVU142
 399 00e8 2269     		ldr	r2, [r4, #16]
 219:../Middlewares/threadx/common/src/tx_mutex_put.c ****                     {
 400              		.loc 1 219 24 view .LVU143
 401 00ea 11B9     		cbnz	r1, .L16
 223:../Middlewares/threadx/common/src/tx_mutex_put.c ****                         {
 402              		.loc 1 223 25 is_stmt 1 view .LVU144
 223:../Middlewares/threadx/common/src/tx_mutex_put.c ****                         {
 403              		.loc 1 223 28 is_stmt 0 view .LVU145
 404 00ec 0AB9     		cbnz	r2, .L16
 227:../Middlewares/threadx/common/src/tx_mutex_put.c **** 
 405              		.loc 1 227 29 is_stmt 1 view .LVU146
 227:../Middlewares/threadx/common/src/tx_mutex_put.c **** 
 406              		.loc 1 227 57 is_stmt 0 view .LVU147
 407 00ee E260     		str	r2, [r4, #12]
 408 00f0 E2E7     		b	.L53
 409              	.L16:
 410              	.LVL37:
 238:../Middlewares/threadx/common/src/tx_mutex_put.c ****                     {
 411              		.loc 1 238 21 is_stmt 1 view .LVU148
 242:../Middlewares/threadx/common/src/tx_mutex_put.c ****                         old_priority =   thread_ptr -> tx_thread_user_priority;
 412              		.loc 1 242 25 view .LVU149
 243:../Middlewares/threadx/common/src/tx_mutex_put.c **** 
 413              		.loc 1 243 25 view .LVU150
 243:../Middlewares/threadx/common/src/tx_mutex_put.c **** 
 414              		.loc 1 243 38 is_stmt 0 view .LVU151
 415 00f2 D3F89410 		ldr	r1, [r3, #148]
 246:../Middlewares/threadx/common/src/tx_mutex_put.c ****                         {
 416              		.loc 1 246 28 view .LVU152
 417 00f6 012A     		cmp	r2, #1
 418 00f8 5C4D     		ldr	r5, .L54+36
 243:../Middlewares/threadx/common/src/tx_mutex_put.c **** 
 419              		.loc 1 243 38 view .LVU153
 420 00fa 0191     		str	r1, [sp, #4]
 246:../Middlewares/threadx/common/src/tx_mutex_put.c ****                         {
 421              		.loc 1 246 25 is_stmt 1 view .LVU154
 246:../Middlewares/threadx/common/src/tx_mutex_put.c ****                         {
 422              		.loc 1 246 28 is_stmt 0 view .LVU155
 423 00fc 1FD1     		bne	.L17
 252:../Middlewares/threadx/common/src/tx_mutex_put.c **** 
 424              		.loc 1 252 29 is_stmt 1 view .LVU156
 252:../Middlewares/threadx/common/src/tx_mutex_put.c **** 
 425              		.loc 1 252 55 is_stmt 0 view .LVU157
 426 00fe 2A68     		ldr	r2, [r5]
 427 0100 0132     		adds	r2, r2, #1
 428 0102 2A60     		str	r2, [r5]
 255:../Middlewares/threadx/common/src/tx_mutex_put.c **** #endif
 429              		.loc 1 255 29 is_stmt 1 view .LVU158
 430              	.LVL38:
 431              	.LBB65:
 432              	.LBI65:
 586:../Middlewares/threadx/ports/cortex_m55/gnu/inc/tx_port.h **** {
ARM GAS  /tmp/ccBuKv1E.s 			page 32


 433              		.loc 2 586 55 view .LVU159
 434              	.LBB66:
 591:../Middlewares/threadx/ports/cortex_m55/gnu/inc/tx_port.h **** #endif
 435              		.loc 2 591 5 view .LVU160
 436              		.syntax unified
 437              	@ 591 "../Middlewares/threadx/ports/cortex_m55/gnu/inc/tx_port.h" 1
 438 0104 87F31088 		MSR  PRIMASK,r7
 439              	@ 0 "" 2
 440              	.LVL39:
 591:../Middlewares/threadx/ports/cortex_m55/gnu/inc/tx_port.h **** #endif
 441              		.loc 2 591 5 is_stmt 0 view .LVU161
 442              		.thumb
 443              		.syntax unified
 444              	.LBE66:
 445              	.LBE65:
 259:../Middlewares/threadx/common/src/tx_mutex_put.c **** 
 446              		.loc 1 259 29 is_stmt 1 view .LVU162
 263:../Middlewares/threadx/common/src/tx_mutex_put.c ****                             while (next_mutex != TX_NULL)
 447              		.loc 1 263 29 view .LVU163
 263:../Middlewares/threadx/common/src/tx_mutex_put.c ****                             while (next_mutex != TX_NULL)
 448              		.loc 1 263 40 is_stmt 0 view .LVU164
 449 0108 D3F8A400 		ldr	r0, [r3, #164]
 450              	.LVL40:
 264:../Middlewares/threadx/common/src/tx_mutex_put.c ****                             {
 451              		.loc 1 264 29 is_stmt 1 view .LVU165
 259:../Middlewares/threadx/common/src/tx_mutex_put.c **** 
 452              		.loc 1 259 50 is_stmt 0 view .LVU166
 453 010c 2021     		movs	r1, #32
 263:../Middlewares/threadx/common/src/tx_mutex_put.c ****                             while (next_mutex != TX_NULL)
 454              		.loc 1 263 40 view .LVU167
 455 010e 0246     		mov	r2, r0
 456              	.LVL41:
 457              	.L18:
 264:../Middlewares/threadx/common/src/tx_mutex_put.c ****                             {
 458              		.loc 1 264 47 is_stmt 1 view .LVU168
 459 0110 4AB1     		cbz	r2, .L20
 268:../Middlewares/threadx/common/src/tx_mutex_put.c ****                                 {
 460              		.loc 1 268 33 view .LVU169
 268:../Middlewares/threadx/common/src/tx_mutex_put.c ****                                 {
 461              		.loc 1 268 36 is_stmt 0 view .LVU170
 462 0112 1669     		ldr	r6, [r2, #16]
 463 0114 012E     		cmp	r6, #1
 464 0116 03D1     		bne	.L19
 273:../Middlewares/threadx/common/src/tx_mutex_put.c ****                                     {
 465              		.loc 1 273 37 is_stmt 1 view .LVU171
 273:../Middlewares/threadx/common/src/tx_mutex_put.c ****                                     {
 466              		.loc 1 273 40 is_stmt 0 view .LVU172
 467 0118 966A     		ldr	r6, [r2, #40]
 468 011a B142     		cmp	r1, r6
 469 011c 28BF     		it	cs
 470 011e 3146     		movcs	r1, r6
 471              	.LVL42:
 472              	.L19:
 282:../Middlewares/threadx/common/src/tx_mutex_put.c **** 
 473              		.loc 1 282 33 is_stmt 1 view .LVU173
 282:../Middlewares/threadx/common/src/tx_mutex_put.c **** 
 474              		.loc 1 282 44 is_stmt 0 view .LVU174
ARM GAS  /tmp/ccBuKv1E.s 			page 33


 475 0120 D26A     		ldr	r2, [r2, #44]
 476              	.LVL43:
 285:../Middlewares/threadx/common/src/tx_mutex_put.c ****                                 {
 477              		.loc 1 285 33 is_stmt 1 view .LVU175
 285:../Middlewares/threadx/common/src/tx_mutex_put.c ****                                 {
 478              		.loc 1 285 36 is_stmt 0 view .LVU176
 479 0122 9042     		cmp	r0, r2
 480 0124 F4D1     		bne	.L18
 481              	.L20:
 482              	.LVL44:
 296:../Middlewares/threadx/common/src/tx_mutex_put.c **** 
 483              		.loc 1 296 29 is_stmt 1 view .LVU177
 484              	.LBB67:
 485              	.LBI67:
 595:../Middlewares/threadx/ports/cortex_m55/gnu/inc/tx_port.h **** {
 486              		.loc 2 595 55 view .LVU178
 487              	.LBB68:
 597:../Middlewares/threadx/ports/cortex_m55/gnu/inc/tx_port.h **** 
 488              		.loc 2 597 1 view .LVU179
 599:../Middlewares/threadx/ports/cortex_m55/gnu/inc/tx_port.h **** 
 489              		.loc 2 599 5 view .LVU180
 490              	.LBB69:
 491              	.LBI69:
 563:../Middlewares/threadx/ports/cortex_m55/gnu/inc/tx_port.h **** {
 492              		.loc 2 563 55 view .LVU181
 493              	.LBB70:
 565:../Middlewares/threadx/ports/cortex_m55/gnu/inc/tx_port.h **** #ifdef TX_PORT_USE_BASEPRI
 494              		.loc 2 565 1 view .LVU182
 569:../Middlewares/threadx/ports/cortex_m55/gnu/inc/tx_port.h **** #endif
 495              		.loc 2 569 5 view .LVU183
 496              		.syntax unified
 497              	@ 569 "../Middlewares/threadx/ports/cortex_m55/gnu/inc/tx_port.h" 1
 498 0126 EFF31087 		MRS  r7, PRIMASK 
 499              	@ 0 "" 2
 500              	.LVL45:
 571:../Middlewares/threadx/ports/cortex_m55/gnu/inc/tx_port.h **** }
 501              		.loc 2 571 5 view .LVU184
 571:../Middlewares/threadx/ports/cortex_m55/gnu/inc/tx_port.h **** }
 502              		.loc 2 571 5 is_stmt 0 view .LVU185
 503              		.thumb
 504              		.syntax unified
 505              	.LBE70:
 506              	.LBE69:
 604:../Middlewares/threadx/ports/cortex_m55/gnu/inc/tx_port.h **** #endif
 507              		.loc 2 604 5 is_stmt 1 view .LVU186
 508              		.syntax unified
 509              	@ 604 "../Middlewares/threadx/ports/cortex_m55/gnu/inc/tx_port.h" 1
 510 012a 72B6     		CPSID i
 511              	@ 0 "" 2
 512              		.loc 2 606 5 view .LVU187
 513              	.LVL46:
 514              		.loc 2 606 5 is_stmt 0 view .LVU188
 515              		.thumb
 516              		.syntax unified
 517              	.LBE68:
 518              	.LBE67:
 299:../Middlewares/threadx/common/src/tx_mutex_put.c **** #endif
ARM GAS  /tmp/ccBuKv1E.s 			page 34


 519              		.loc 1 299 29 is_stmt 1 view .LVU189
 299:../Middlewares/threadx/common/src/tx_mutex_put.c **** #endif
 520              		.loc 1 299 55 is_stmt 0 view .LVU190
 521 012c 2A68     		ldr	r2, [r5]
 303:../Middlewares/threadx/common/src/tx_mutex_put.c **** 
 522              		.loc 1 303 70 view .LVU191
 523 012e C3F89C10 		str	r1, [r3, #156]
 306:../Middlewares/threadx/common/src/tx_mutex_put.c ****                             {
 524              		.loc 1 306 32 view .LVU192
 525 0132 019B     		ldr	r3, [sp, #4]
 526              	.LVL47:
 299:../Middlewares/threadx/common/src/tx_mutex_put.c **** #endif
 527              		.loc 1 299 55 view .LVU193
 528 0134 013A     		subs	r2, r2, #1
 306:../Middlewares/threadx/common/src/tx_mutex_put.c ****                             {
 529              		.loc 1 306 32 view .LVU194
 530 0136 8B42     		cmp	r3, r1
 299:../Middlewares/threadx/common/src/tx_mutex_put.c **** #endif
 531              		.loc 1 299 55 view .LVU195
 532 0138 2A60     		str	r2, [r5]
 303:../Middlewares/threadx/common/src/tx_mutex_put.c **** 
 533              		.loc 1 303 29 is_stmt 1 view .LVU196
 306:../Middlewares/threadx/common/src/tx_mutex_put.c ****                             {
 534              		.loc 1 306 29 view .LVU197
 310:../Middlewares/threadx/common/src/tx_mutex_put.c ****                             }
 535              		.loc 1 310 33 view .LVU198
 310:../Middlewares/threadx/common/src/tx_mutex_put.c ****                             }
 536              		.loc 1 310 46 is_stmt 0 view .LVU199
 537 013a 88BF     		it	hi
 538 013c 0191     		strhi	r1, [sp, #4]
 539              	.LVL48:
 540              	.L17:
 316:../Middlewares/threadx/common/src/tx_mutex_put.c ****                         {
 541              		.loc 1 316 25 is_stmt 1 view .LVU200
 316:../Middlewares/threadx/common/src/tx_mutex_put.c ****                         {
 542              		.loc 1 316 28 is_stmt 0 view .LVU201
 543 013e E369     		ldr	r3, [r4, #28]
 544 0140 012B     		cmp	r3, #1
 545 0142 10D9     		bls	.L23
 320:../Middlewares/threadx/common/src/tx_mutex_put.c ****                             {
 546              		.loc 1 320 29 is_stmt 1 view .LVU202
 320:../Middlewares/threadx/common/src/tx_mutex_put.c ****                             {
 547              		.loc 1 320 32 is_stmt 0 view .LVU203
 548 0144 2369     		ldr	r3, [r4, #16]
 549 0146 012B     		cmp	r3, #1
 550 0148 0DD1     		bne	.L23
 329:../Middlewares/threadx/common/src/tx_mutex_put.c **** 
 551              		.loc 1 329 33 is_stmt 1 view .LVU204
 329:../Middlewares/threadx/common/src/tx_mutex_put.c **** 
 552              		.loc 1 329 59 is_stmt 0 view .LVU205
 553 014a 2B68     		ldr	r3, [r5]
 554 014c 0133     		adds	r3, r3, #1
 555 014e 2B60     		str	r3, [r5]
 332:../Middlewares/threadx/common/src/tx_mutex_put.c **** #endif
 556              		.loc 1 332 33 is_stmt 1 view .LVU206
 557              	.LVL49:
 558              	.LBB71:
ARM GAS  /tmp/ccBuKv1E.s 			page 35


 559              	.LBI71:
 586:../Middlewares/threadx/ports/cortex_m55/gnu/inc/tx_port.h **** {
 560              		.loc 2 586 55 view .LVU207
 561              	.LBB72:
 591:../Middlewares/threadx/ports/cortex_m55/gnu/inc/tx_port.h **** #endif
 562              		.loc 2 591 5 view .LVU208
 563              		.syntax unified
 564              	@ 591 "../Middlewares/threadx/ports/cortex_m55/gnu/inc/tx_port.h" 1
 565 0150 87F31088 		MSR  PRIMASK,r7
 566              	@ 0 "" 2
 567              	.LVL50:
 591:../Middlewares/threadx/ports/cortex_m55/gnu/inc/tx_port.h **** #endif
 568              		.loc 2 591 5 is_stmt 0 view .LVU209
 569              		.thumb
 570              		.syntax unified
 571              	.LBE72:
 572              	.LBE71:
 343:../Middlewares/threadx/common/src/tx_mutex_put.c **** #endif
 573              		.loc 1 343 33 is_stmt 1 view .LVU210
 574 0154 2046     		mov	r0, r4
 575 0156 FFF7FEFF 		bl	_tx_mutex_prioritize
 576              	.LVL51:
 355:../Middlewares/threadx/common/src/tx_mutex_put.c **** 
 577              		.loc 1 355 33 view .LVU211
 578              	.LBB73:
 579              	.LBI73:
 595:../Middlewares/threadx/ports/cortex_m55/gnu/inc/tx_port.h **** {
 580              		.loc 2 595 55 view .LVU212
 581              	.LBB74:
 597:../Middlewares/threadx/ports/cortex_m55/gnu/inc/tx_port.h **** 
 582              		.loc 2 597 1 view .LVU213
 599:../Middlewares/threadx/ports/cortex_m55/gnu/inc/tx_port.h **** 
 583              		.loc 2 599 5 view .LVU214
 584              	.LBB75:
 585              	.LBI75:
 563:../Middlewares/threadx/ports/cortex_m55/gnu/inc/tx_port.h **** {
 586              		.loc 2 563 55 view .LVU215
 587              	.LBB76:
 565:../Middlewares/threadx/ports/cortex_m55/gnu/inc/tx_port.h **** #ifdef TX_PORT_USE_BASEPRI
 588              		.loc 2 565 1 view .LVU216
 569:../Middlewares/threadx/ports/cortex_m55/gnu/inc/tx_port.h **** #endif
 589              		.loc 2 569 5 view .LVU217
 590              		.syntax unified
 591              	@ 569 "../Middlewares/threadx/ports/cortex_m55/gnu/inc/tx_port.h" 1
 592 015a EFF31087 		MRS  r7, PRIMASK 
 593              	@ 0 "" 2
 594              	.LVL52:
 571:../Middlewares/threadx/ports/cortex_m55/gnu/inc/tx_port.h **** }
 595              		.loc 2 571 5 view .LVU218
 571:../Middlewares/threadx/ports/cortex_m55/gnu/inc/tx_port.h **** }
 596              		.loc 2 571 5 is_stmt 0 view .LVU219
 597              		.thumb
 598              		.syntax unified
 599              	.LBE76:
 600              	.LBE75:
 604:../Middlewares/threadx/ports/cortex_m55/gnu/inc/tx_port.h **** #endif
 601              		.loc 2 604 5 is_stmt 1 view .LVU220
ARM GAS  /tmp/ccBuKv1E.s 			page 36


 602              		.syntax unified
 603              	@ 604 "../Middlewares/threadx/ports/cortex_m55/gnu/inc/tx_port.h" 1
 604 015e 72B6     		CPSID i
 605              	@ 0 "" 2
 606              		.loc 2 606 5 view .LVU221
 607              	.LVL53:
 608              		.loc 2 606 5 is_stmt 0 view .LVU222
 609              		.thumb
 610              		.syntax unified
 611              	.LBE74:
 612              	.LBE73:
 358:../Middlewares/threadx/common/src/tx_mutex_put.c **** #endif
 613              		.loc 1 358 33 is_stmt 1 view .LVU223
 358:../Middlewares/threadx/common/src/tx_mutex_put.c **** #endif
 614              		.loc 1 358 59 is_stmt 0 view .LVU224
 615 0160 2B68     		ldr	r3, [r5]
 616 0162 013B     		subs	r3, r3, #1
 617 0164 2B60     		str	r3, [r5]
 618              	.LVL54:
 619              	.L23:
 364:../Middlewares/threadx/common/src/tx_mutex_put.c ****                         {
 620              		.loc 1 364 25 is_stmt 1 view .LVU225
 364:../Middlewares/threadx/common/src/tx_mutex_put.c ****                         {
 621              		.loc 1 364 39 is_stmt 0 view .LVU226
 622 0166 A669     		ldr	r6, [r4, #24]
 364:../Middlewares/threadx/common/src/tx_mutex_put.c ****                         {
 623              		.loc 1 364 28 view .LVU227
 624 0168 D6B9     		cbnz	r6, .L24
 372:../Middlewares/threadx/common/src/tx_mutex_put.c **** 
 625              		.loc 1 372 29 is_stmt 1 view .LVU228
 372:../Middlewares/threadx/common/src/tx_mutex_put.c **** 
 626              		.loc 1 372 55 is_stmt 0 view .LVU229
 627 016a 2B68     		ldr	r3, [r5]
 628 016c 0133     		adds	r3, r3, #1
 629 016e 2B60     		str	r3, [r5]
 375:../Middlewares/threadx/common/src/tx_mutex_put.c **** #endif
 630              		.loc 1 375 29 is_stmt 1 view .LVU230
 631              	.LVL55:
 632              	.LBB77:
 633              	.LBI77:
 586:../Middlewares/threadx/ports/cortex_m55/gnu/inc/tx_port.h **** {
 634              		.loc 2 586 55 view .LVU231
 635              	.LBB78:
 591:../Middlewares/threadx/ports/cortex_m55/gnu/inc/tx_port.h **** #endif
 636              		.loc 2 591 5 view .LVU232
 637              		.syntax unified
 638              	@ 591 "../Middlewares/threadx/ports/cortex_m55/gnu/inc/tx_port.h" 1
 639 0170 87F31088 		MSR  PRIMASK,r7
 640              	@ 0 "" 2
 641              	.LVL56:
 591:../Middlewares/threadx/ports/cortex_m55/gnu/inc/tx_port.h **** #endif
 642              		.loc 2 591 5 is_stmt 0 view .LVU233
 643              		.thumb
 644              		.syntax unified
 645              	.LBE78:
 646              	.LBE77:
 383:../Middlewares/threadx/common/src/tx_mutex_put.c **** 
ARM GAS  /tmp/ccBuKv1E.s 			page 37


 647              		.loc 1 383 29 is_stmt 1 view .LVU234
 383:../Middlewares/threadx/common/src/tx_mutex_put.c **** 
 648              		.loc 1 383 76 is_stmt 0 view .LVU235
 649 0174 2023     		movs	r3, #32
 386:../Middlewares/threadx/common/src/tx_mutex_put.c ****                             {
 650              		.loc 1 386 44 view .LVU236
 651 0176 E068     		ldr	r0, [r4, #12]
 386:../Middlewares/threadx/common/src/tx_mutex_put.c ****                             {
 652              		.loc 1 386 85 view .LVU237
 653 0178 0199     		ldr	r1, [sp, #4]
 383:../Middlewares/threadx/common/src/tx_mutex_put.c **** 
 654              		.loc 1 383 76 view .LVU238
 655 017a A362     		str	r3, [r4, #40]
 386:../Middlewares/threadx/common/src/tx_mutex_put.c ****                             {
 656              		.loc 1 386 29 is_stmt 1 view .LVU239
 386:../Middlewares/threadx/common/src/tx_mutex_put.c ****                             {
 657              		.loc 1 386 32 is_stmt 0 view .LVU240
 658 017c C36A     		ldr	r3, [r0, #44]
 659 017e 8B42     		cmp	r3, r1
 660 0180 01D0     		beq	.L25
 390:../Middlewares/threadx/common/src/tx_mutex_put.c ****                             }
 661              		.loc 1 390 33 is_stmt 1 view .LVU241
 662 0182 FFF7FEFF 		bl	_tx_mutex_priority_change
 663              	.LVL57:
 664              	.L25:
 396:../Middlewares/threadx/common/src/tx_mutex_put.c **** 
 665              		.loc 1 396 29 view .LVU242
 666              	.LBB79:
 667              	.LBI79:
 595:../Middlewares/threadx/ports/cortex_m55/gnu/inc/tx_port.h **** {
 668              		.loc 2 595 55 view .LVU243
 669              	.LBB80:
 597:../Middlewares/threadx/ports/cortex_m55/gnu/inc/tx_port.h **** 
 670              		.loc 2 597 1 view .LVU244
 599:../Middlewares/threadx/ports/cortex_m55/gnu/inc/tx_port.h **** 
 671              		.loc 2 599 5 view .LVU245
 672              	.LBB81:
 673              	.LBI81:
 563:../Middlewares/threadx/ports/cortex_m55/gnu/inc/tx_port.h **** {
 674              		.loc 2 563 55 view .LVU246
 675              	.LBB82:
 565:../Middlewares/threadx/ports/cortex_m55/gnu/inc/tx_port.h **** #ifdef TX_PORT_USE_BASEPRI
 676              		.loc 2 565 1 view .LVU247
 569:../Middlewares/threadx/ports/cortex_m55/gnu/inc/tx_port.h **** #endif
 677              		.loc 2 569 5 view .LVU248
 678              		.syntax unified
 679              	@ 569 "../Middlewares/threadx/ports/cortex_m55/gnu/inc/tx_port.h" 1
 680 0186 EFF31082 		MRS  r2, PRIMASK 
 681              	@ 0 "" 2
 682              	.LVL58:
 571:../Middlewares/threadx/ports/cortex_m55/gnu/inc/tx_port.h **** }
 683              		.loc 2 571 5 view .LVU249
 571:../Middlewares/threadx/ports/cortex_m55/gnu/inc/tx_port.h **** }
 684              		.loc 2 571 5 is_stmt 0 view .LVU250
 685              		.thumb
 686              		.syntax unified
 687              	.LBE82:
ARM GAS  /tmp/ccBuKv1E.s 			page 38


 688              	.LBE81:
 604:../Middlewares/threadx/ports/cortex_m55/gnu/inc/tx_port.h **** #endif
 689              		.loc 2 604 5 is_stmt 1 view .LVU251
 690              		.syntax unified
 691              	@ 604 "../Middlewares/threadx/ports/cortex_m55/gnu/inc/tx_port.h" 1
 692 018a 72B6     		CPSID i
 693              	@ 0 "" 2
 694              		.loc 2 606 5 view .LVU252
 695              	.LVL59:
 696              		.loc 2 606 5 is_stmt 0 view .LVU253
 697              		.thumb
 698              		.syntax unified
 699              	.LBE80:
 700              	.LBE79:
 399:../Middlewares/threadx/common/src/tx_mutex_put.c **** #endif
 701              		.loc 1 399 29 is_stmt 1 view .LVU254
 399:../Middlewares/threadx/common/src/tx_mutex_put.c **** #endif
 702              		.loc 1 399 55 is_stmt 0 view .LVU255
 703 018c 2B68     		ldr	r3, [r5]
 704 018e 013B     		subs	r3, r3, #1
 705 0190 2B60     		str	r3, [r5]
 403:../Middlewares/threadx/common/src/tx_mutex_put.c **** 
 706              		.loc 1 403 29 is_stmt 1 view .LVU256
 403:../Middlewares/threadx/common/src/tx_mutex_put.c **** 
 707              		.loc 1 403 57 is_stmt 0 view .LVU257
 708 0192 0023     		movs	r3, #0
 709 0194 E360     		str	r3, [r4, #12]
 406:../Middlewares/threadx/common/src/tx_mutex_put.c **** 
 710              		.loc 1 406 29 is_stmt 1 view .LVU258
 711              	.LVL60:
 712              	.LBB83:
 713              	.LBI83:
 586:../Middlewares/threadx/ports/cortex_m55/gnu/inc/tx_port.h **** {
 714              		.loc 2 586 55 view .LVU259
 715              	.LBB84:
 591:../Middlewares/threadx/ports/cortex_m55/gnu/inc/tx_port.h **** #endif
 716              		.loc 2 591 5 view .LVU260
 717              		.syntax unified
 718              	@ 591 "../Middlewares/threadx/ports/cortex_m55/gnu/inc/tx_port.h" 1
 719 0196 82F31088 		MSR  PRIMASK,r2
 720              	@ 0 "" 2
 721              	.LVL61:
 591:../Middlewares/threadx/ports/cortex_m55/gnu/inc/tx_port.h **** #endif
 722              		.loc 2 591 5 is_stmt 0 view .LVU261
 723              		.thumb
 724              		.syntax unified
 725              	.LBE84:
 726              	.LBE83:
 409:../Middlewares/threadx/common/src/tx_mutex_put.c **** 
 727              		.loc 1 409 29 is_stmt 1 view .LVU262
 728 019a FFF7FEFF 		bl	_tx_thread_system_preempt_check
 729              	.LVL62:
 412:../Middlewares/threadx/common/src/tx_mutex_put.c ****                         }
 730              		.loc 1 412 29 view .LVU263
 412:../Middlewares/threadx/common/src/tx_mutex_put.c ****                         }
 731              		.loc 1 412 29 is_stmt 0 view .LVU264
 732 019e 8DE7     		b	.L12
ARM GAS  /tmp/ccBuKv1E.s 			page 39


 733              	.LVL63:
 734              	.L24:
 418:../Middlewares/threadx/common/src/tx_mutex_put.c **** 
 735              		.loc 1 418 29 is_stmt 1 view .LVU265
 422:../Middlewares/threadx/common/src/tx_mutex_put.c ****                             {
 736              		.loc 1 422 29 view .LVU266
 422:../Middlewares/threadx/common/src/tx_mutex_put.c ****                             {
 737              		.loc 1 422 32 is_stmt 0 view .LVU267
 738 01a0 2369     		ldr	r3, [r4, #16]
 739 01a2 012B     		cmp	r3, #1
 426:../Middlewares/threadx/common/src/tx_mutex_put.c **** 
 740              		.loc 1 426 33 is_stmt 1 view .LVU268
 429:../Middlewares/threadx/common/src/tx_mutex_put.c **** 
 741              		.loc 1 429 73 is_stmt 0 view .LVU269
 742 01a4 09BF     		itett	eq
 743 01a6 F36A     		ldreq	r3, [r6, #44]
 242:../Middlewares/threadx/common/src/tx_mutex_put.c ****                         old_priority =   thread_ptr -> tx_thread_user_priority;
 744              		.loc 1 242 35 view .LVU270
 745 01a8 4FF00008 		movne	r8, #0
 429:../Middlewares/threadx/common/src/tx_mutex_put.c **** 
 746              		.loc 1 429 73 view .LVU271
 747 01ac 6361     		streq	r3, [r4, #20]
 432:../Middlewares/threadx/common/src/tx_mutex_put.c ****                             }
 748              		.loc 1 432 80 view .LVU272
 749 01ae 2023     		moveq	r3, #32
 750 01b0 08BF     		it	eq
 751 01b2 A362     		streq	r3, [r4, #40]
 436:../Middlewares/threadx/common/src/tx_mutex_put.c **** 
 752              		.loc 1 436 41 view .LVU273
 753 01b4 D6F8A030 		ldr	r3, [r6, #160]
 426:../Middlewares/threadx/common/src/tx_mutex_put.c **** 
 754              		.loc 1 426 43 view .LVU274
 755 01b8 08BF     		it	eq
 756 01ba D4F80C80 		ldreq	r8, [r4, #12]
 757              	.LVL64:
 429:../Middlewares/threadx/common/src/tx_mutex_put.c **** 
 758              		.loc 1 429 33 is_stmt 1 view .LVU275
 432:../Middlewares/threadx/common/src/tx_mutex_put.c ****                             }
 759              		.loc 1 432 33 view .LVU276
 436:../Middlewares/threadx/common/src/tx_mutex_put.c **** 
 760              		.loc 1 436 29 view .LVU277
 439:../Middlewares/threadx/common/src/tx_mutex_put.c ****                             {
 761              		.loc 1 439 29 view .LVU278
 439:../Middlewares/threadx/common/src/tx_mutex_put.c ****                             {
 762              		.loc 1 439 32 is_stmt 0 view .LVU279
 763 01be 002B     		cmp	r3, #0
 764 01c0 34D1     		bne	.L27
 443:../Middlewares/threadx/common/src/tx_mutex_put.c ****                                 mutex_ptr -> tx_mutex_owned_next =             mutex_ptr;
 765              		.loc 1 443 33 is_stmt 1 view .LVU280
 443:../Middlewares/threadx/common/src/tx_mutex_put.c ****                                 mutex_ptr -> tx_mutex_owned_next =             mutex_ptr;
 766              		.loc 1 443 74 is_stmt 0 view .LVU281
 767 01c2 C6F8A440 		str	r4, [r6, #164]
 444:../Middlewares/threadx/common/src/tx_mutex_put.c ****                                 mutex_ptr -> tx_mutex_owned_previous =         mutex_ptr;
 768              		.loc 1 444 33 is_stmt 1 view .LVU282
 445:../Middlewares/threadx/common/src/tx_mutex_put.c ****                             }
 769              		.loc 1 445 70 is_stmt 0 view .LVU283
 770 01c6 C4E90B44 		strd	r4, r4, [r4, #44]
ARM GAS  /tmp/ccBuKv1E.s 			page 40


 771              	.L28:
 466:../Middlewares/threadx/common/src/tx_mutex_put.c **** 
 772              		.loc 1 466 29 is_stmt 1 view .LVU284
 466:../Middlewares/threadx/common/src/tx_mutex_put.c **** 
 773              		.loc 1 466 86 is_stmt 0 view .LVU285
 774 01ca 0133     		adds	r3, r3, #1
 775              	.LVL65:
 466:../Middlewares/threadx/common/src/tx_mutex_put.c **** 
 776              		.loc 1 466 71 view .LVU286
 777 01cc C6F8A030 		str	r3, [r6, #160]
 778              	.LVL66:
 469:../Middlewares/threadx/common/src/tx_mutex_put.c ****                             mutex_ptr -> tx_mutex_owner =            thread_ptr;
 779              		.loc 1 469 29 is_stmt 1 view .LVU287
 469:../Middlewares/threadx/common/src/tx_mutex_put.c ****                             mutex_ptr -> tx_mutex_owner =            thread_ptr;
 780              		.loc 1 469 67 is_stmt 0 view .LVU288
 781 01d0 0123     		movs	r3, #1
 782              	.LVL67:
 470:../Middlewares/threadx/common/src/tx_mutex_put.c **** 
 783              		.loc 1 470 57 view .LVU289
 784 01d2 C4E90236 		strd	r3, r6, [r4, #8]
 475:../Middlewares/threadx/common/src/tx_mutex_put.c **** 
 785              		.loc 1 475 29 is_stmt 1 view .LVU290
 475:../Middlewares/threadx/common/src/tx_mutex_put.c **** 
 786              		.loc 1 475 66 is_stmt 0 view .LVU291
 787 01d6 E369     		ldr	r3, [r4, #28]
 788 01d8 013B     		subs	r3, r3, #1
 789 01da E361     		str	r3, [r4, #28]
 478:../Middlewares/threadx/common/src/tx_mutex_put.c **** 
 790              		.loc 1 478 29 is_stmt 1 view .LVU292
 791              	.LVL68:
 481:../Middlewares/threadx/common/src/tx_mutex_put.c ****                             {
 792              		.loc 1 481 29 view .LVU293
 481:../Middlewares/threadx/common/src/tx_mutex_put.c ****                             {
 793              		.loc 1 481 32 is_stmt 0 view .LVU294
 794 01dc 73BB     		cbnz	r3, .L29
 487:../Middlewares/threadx/common/src/tx_mutex_put.c ****                             }
 795              		.loc 1 487 33 is_stmt 1 view .LVU295
 487:../Middlewares/threadx/common/src/tx_mutex_put.c ****                             }
 796              		.loc 1 487 71 is_stmt 0 view .LVU296
 797 01de A361     		str	r3, [r4, #24]
 798              	.LVL69:
 799              	.L30:
 507:../Middlewares/threadx/common/src/tx_mutex_put.c **** 
 800              		.loc 1 507 29 is_stmt 1 view .LVU297
 507:../Middlewares/threadx/common/src/tx_mutex_put.c **** 
 801              		.loc 1 507 69 is_stmt 0 view .LVU298
 802 01e0 0023     		movs	r3, #0
 803 01e2 B366     		str	r3, [r6, #104]
 510:../Middlewares/threadx/common/src/tx_mutex_put.c **** 
 804              		.loc 1 510 29 is_stmt 1 view .LVU299
 510:../Middlewares/threadx/common/src/tx_mutex_put.c **** 
 805              		.loc 1 510 68 is_stmt 0 view .LVU300
 806 01e4 C6F88430 		str	r3, [r6, #132]
 572:../Middlewares/threadx/common/src/tx_mutex_put.c **** 
 807              		.loc 1 572 29 is_stmt 1 view .LVU301
 572:../Middlewares/threadx/common/src/tx_mutex_put.c **** 
 808              		.loc 1 572 55 is_stmt 0 view .LVU302
ARM GAS  /tmp/ccBuKv1E.s 			page 41


 809 01e8 2B68     		ldr	r3, [r5]
 810 01ea 0133     		adds	r3, r3, #1
 811 01ec 2B60     		str	r3, [r5]
 575:../Middlewares/threadx/common/src/tx_mutex_put.c **** 
 812              		.loc 1 575 29 is_stmt 1 view .LVU303
 813              	.LVL70:
 814              	.LBB85:
 815              	.LBI85:
 586:../Middlewares/threadx/ports/cortex_m55/gnu/inc/tx_port.h **** {
 816              		.loc 2 586 55 view .LVU304
 817              	.LBB86:
 591:../Middlewares/threadx/ports/cortex_m55/gnu/inc/tx_port.h **** #endif
 818              		.loc 2 591 5 view .LVU305
 819              		.syntax unified
 820              	@ 591 "../Middlewares/threadx/ports/cortex_m55/gnu/inc/tx_port.h" 1
 821 01ee 87F31088 		MSR  PRIMASK,r7
 822              	@ 0 "" 2
 823              	.LVL71:
 591:../Middlewares/threadx/ports/cortex_m55/gnu/inc/tx_port.h **** #endif
 824              		.loc 2 591 5 is_stmt 0 view .LVU306
 825              		.thumb
 826              		.syntax unified
 827              	.LBE86:
 828              	.LBE85:
 578:../Middlewares/threadx/common/src/tx_mutex_put.c ****                             {
 829              		.loc 1 578 29 is_stmt 1 view .LVU307
 578:../Middlewares/threadx/common/src/tx_mutex_put.c ****                             {
 830              		.loc 1 578 32 is_stmt 0 view .LVU308
 831 01f2 2369     		ldr	r3, [r4, #16]
 832 01f4 012B     		cmp	r3, #1
 833 01f6 15D1     		bne	.L32
 584:../Middlewares/threadx/common/src/tx_mutex_put.c ****                                 {
 834              		.loc 1 584 33 is_stmt 1 view .LVU309
 584:../Middlewares/threadx/common/src/tx_mutex_put.c ****                                 {
 835              		.loc 1 584 36 is_stmt 0 view .LVU310
 836 01f8 E369     		ldr	r3, [r4, #28]
 837 01fa 5BB1     		cbz	r3, .L33
 595:../Middlewares/threadx/common/src/tx_mutex_put.c **** #endif
 838              		.loc 1 595 37 is_stmt 1 view .LVU311
 839 01fc 2046     		mov	r0, r4
 840 01fe FFF7FEFF 		bl	_tx_mutex_prioritize
 841              	.LVL72:
 604:../Middlewares/threadx/common/src/tx_mutex_put.c **** 
 842              		.loc 1 604 37 view .LVU312
 843              	.LBB87:
 844              	.LBI87:
 595:../Middlewares/threadx/ports/cortex_m55/gnu/inc/tx_port.h **** {
 845              		.loc 2 595 55 view .LVU313
 846              	.LBB88:
 597:../Middlewares/threadx/ports/cortex_m55/gnu/inc/tx_port.h **** 
 847              		.loc 2 597 1 view .LVU314
 599:../Middlewares/threadx/ports/cortex_m55/gnu/inc/tx_port.h **** 
 848              		.loc 2 599 5 view .LVU315
 849              	.LBB89:
 850              	.LBI89:
 563:../Middlewares/threadx/ports/cortex_m55/gnu/inc/tx_port.h **** {
 851              		.loc 2 563 55 view .LVU316
ARM GAS  /tmp/ccBuKv1E.s 			page 42


 852              	.LBB90:
 565:../Middlewares/threadx/ports/cortex_m55/gnu/inc/tx_port.h **** #ifdef TX_PORT_USE_BASEPRI
 853              		.loc 2 565 1 view .LVU317
 569:../Middlewares/threadx/ports/cortex_m55/gnu/inc/tx_port.h **** #endif
 854              		.loc 2 569 5 view .LVU318
 855              		.syntax unified
 856              	@ 569 "../Middlewares/threadx/ports/cortex_m55/gnu/inc/tx_port.h" 1
 857 0202 EFF31082 		MRS  r2, PRIMASK 
 858              	@ 0 "" 2
 859              	.LVL73:
 571:../Middlewares/threadx/ports/cortex_m55/gnu/inc/tx_port.h **** }
 860              		.loc 2 571 5 view .LVU319
 571:../Middlewares/threadx/ports/cortex_m55/gnu/inc/tx_port.h **** }
 861              		.loc 2 571 5 is_stmt 0 view .LVU320
 862              		.thumb
 863              		.syntax unified
 864              	.LBE90:
 865              	.LBE89:
 604:../Middlewares/threadx/ports/cortex_m55/gnu/inc/tx_port.h **** #endif
 866              		.loc 2 604 5 is_stmt 1 view .LVU321
 867              		.syntax unified
 868              	@ 604 "../Middlewares/threadx/ports/cortex_m55/gnu/inc/tx_port.h" 1
 869 0206 72B6     		CPSID i
 870              	@ 0 "" 2
 871              		.loc 2 606 5 view .LVU322
 872              	.LVL74:
 873              		.loc 2 606 5 is_stmt 0 view .LVU323
 874              		.thumb
 875              		.syntax unified
 876              	.LBE88:
 877              	.LBE87:
 607:../Middlewares/threadx/common/src/tx_mutex_put.c ****                                     if (suspended_thread != TX_NULL)
 878              		.loc 1 607 37 is_stmt 1 view .LVU324
 607:../Middlewares/threadx/common/src/tx_mutex_put.c ****                                     if (suspended_thread != TX_NULL)
 879              		.loc 1 607 54 is_stmt 0 view .LVU325
 880 0208 A369     		ldr	r3, [r4, #24]
 881              	.LVL75:
 608:../Middlewares/threadx/common/src/tx_mutex_put.c ****                                     {
 882              		.loc 1 608 37 is_stmt 1 view .LVU326
 608:../Middlewares/threadx/common/src/tx_mutex_put.c ****                                     {
 883              		.loc 1 608 40 is_stmt 0 view .LVU327
 884 020a 0BB1     		cbz	r3, .L34
 612:../Middlewares/threadx/common/src/tx_mutex_put.c ****                                     }
 885              		.loc 1 612 41 is_stmt 1 view .LVU328
 612:../Middlewares/threadx/common/src/tx_mutex_put.c ****                                     }
 886              		.loc 1 612 88 is_stmt 0 view .LVU329
 887 020c DB6A     		ldr	r3, [r3, #44]
 888              	.LVL76:
 612:../Middlewares/threadx/common/src/tx_mutex_put.c ****                                     }
 889              		.loc 1 612 88 view .LVU330
 890 020e A362     		str	r3, [r4, #40]
 891              	.L34:
 616:../Middlewares/threadx/common/src/tx_mutex_put.c ****                                 }
 892              		.loc 1 616 37 is_stmt 1 view .LVU331
 893              	.LVL77:
 894              	.LBB91:
 895              	.LBI91:
ARM GAS  /tmp/ccBuKv1E.s 			page 43


 586:../Middlewares/threadx/ports/cortex_m55/gnu/inc/tx_port.h **** {
 896              		.loc 2 586 55 view .LVU332
 897              	.LBB92:
 591:../Middlewares/threadx/ports/cortex_m55/gnu/inc/tx_port.h **** #endif
 898              		.loc 2 591 5 view .LVU333
 899              		.syntax unified
 900              	@ 591 "../Middlewares/threadx/ports/cortex_m55/gnu/inc/tx_port.h" 1
 901 0210 82F31088 		MSR  PRIMASK,r2
 902              	@ 0 "" 2
 903              	.LVL78:
 904              		.thumb
 905              		.syntax unified
 906              	.L33:
 591:../Middlewares/threadx/ports/cortex_m55/gnu/inc/tx_port.h **** #endif
 907              		.loc 2 591 5 is_stmt 0 view .LVU334
 908              	.LBE92:
 909              	.LBE91:
 623:../Middlewares/threadx/common/src/tx_mutex_put.c ****                                 {
 910              		.loc 1 623 33 is_stmt 1 view .LVU335
 623:../Middlewares/threadx/common/src/tx_mutex_put.c ****                                 {
 911              		.loc 1 623 69 is_stmt 0 view .LVU336
 912 0214 0199     		ldr	r1, [sp, #4]
 623:../Middlewares/threadx/common/src/tx_mutex_put.c ****                                 {
 913              		.loc 1 623 36 view .LVU337
 914 0216 D8F82C30 		ldr	r3, [r8, #44]
 915 021a 8B42     		cmp	r3, r1
 916 021c 02D0     		beq	.L32
 627:../Middlewares/threadx/common/src/tx_mutex_put.c ****                                 }
 917              		.loc 1 627 37 is_stmt 1 view .LVU338
 918 021e 4046     		mov	r0, r8
 919 0220 FFF7FEFF 		bl	_tx_mutex_priority_change
 920              	.LVL79:
 921              	.L32:
 632:../Middlewares/threadx/common/src/tx_mutex_put.c **** #endif
 922              		.loc 1 632 29 view .LVU339
 923 0224 3046     		mov	r0, r6
 924 0226 FFF7FEFF 		bl	_tx_thread_system_resume
 925              	.LVL80:
 636:../Middlewares/threadx/common/src/tx_mutex_put.c ****                         }
 926              		.loc 1 636 29 view .LVU340
 636:../Middlewares/threadx/common/src/tx_mutex_put.c ****                         }
 927              		.loc 1 636 29 is_stmt 0 view .LVU341
 928 022a 47E7     		b	.L12
 929              	.LVL81:
 930              	.L27:
 453:../Middlewares/threadx/common/src/tx_mutex_put.c ****                                 previous_mutex =                        next_mutex -> tx_mutex_owne
 931              		.loc 1 453 33 is_stmt 1 view .LVU342
 453:../Middlewares/threadx/common/src/tx_mutex_put.c ****                                 previous_mutex =                        next_mutex -> tx_mutex_owne
 932              		.loc 1 453 44 is_stmt 0 view .LVU343
 933 022c D6F8A420 		ldr	r2, [r6, #164]
 934              	.LVL82:
 454:../Middlewares/threadx/common/src/tx_mutex_put.c **** 
 935              		.loc 1 454 33 is_stmt 1 view .LVU344
 454:../Middlewares/threadx/common/src/tx_mutex_put.c **** 
 936              		.loc 1 454 48 is_stmt 0 view .LVU345
 937 0230 116B     		ldr	r1, [r2, #48]
 938              	.LVL83:
ARM GAS  /tmp/ccBuKv1E.s 			page 44


 457:../Middlewares/threadx/common/src/tx_mutex_put.c ****                                 previous_mutex -> tx_mutex_owned_next =  mutex_ptr;
 939              		.loc 1 457 33 is_stmt 1 view .LVU346
 457:../Middlewares/threadx/common/src/tx_mutex_put.c ****                                 previous_mutex -> tx_mutex_owned_next =  mutex_ptr;
 940              		.loc 1 457 71 is_stmt 0 view .LVU347
 941 0232 1463     		str	r4, [r2, #48]
 458:../Middlewares/threadx/common/src/tx_mutex_put.c **** 
 942              		.loc 1 458 33 is_stmt 1 view .LVU348
 458:../Middlewares/threadx/common/src/tx_mutex_put.c **** 
 943              		.loc 1 458 71 is_stmt 0 view .LVU349
 944 0234 CC62     		str	r4, [r1, #44]
 461:../Middlewares/threadx/common/src/tx_mutex_put.c ****                                 mutex_ptr -> tx_mutex_owned_next =       next_mutex;
 945              		.loc 1 461 33 is_stmt 1 view .LVU350
 462:../Middlewares/threadx/common/src/tx_mutex_put.c ****                             }
 946              		.loc 1 462 66 is_stmt 0 view .LVU351
 947 0236 C4E90B21 		strd	r2, r1, [r4, #44]
 948 023a C6E7     		b	.L28
 949              	.LVL84:
 950              	.L29:
 495:../Middlewares/threadx/common/src/tx_mutex_put.c ****                                 mutex_ptr -> tx_mutex_suspension_list =        next_thread;
 951              		.loc 1 495 33 is_stmt 1 view .LVU352
 495:../Middlewares/threadx/common/src/tx_mutex_put.c ****                                 mutex_ptr -> tx_mutex_suspension_list =        next_thread;
 952              		.loc 1 495 45 is_stmt 0 view .LVU353
 953 023c 336F     		ldr	r3, [r6, #112]
 954              	.LVL85:
 496:../Middlewares/threadx/common/src/tx_mutex_put.c **** 
 955              		.loc 1 496 33 is_stmt 1 view .LVU354
 499:../Middlewares/threadx/common/src/tx_mutex_put.c ****                                 next_thread -> tx_thread_suspended_previous =  previous_thread;
 956              		.loc 1 499 49 is_stmt 0 view .LVU355
 957 023e 726F     		ldr	r2, [r6, #116]
 496:../Middlewares/threadx/common/src/tx_mutex_put.c **** 
 958              		.loc 1 496 71 view .LVU356
 959 0240 A361     		str	r3, [r4, #24]
 499:../Middlewares/threadx/common/src/tx_mutex_put.c ****                                 next_thread -> tx_thread_suspended_previous =  previous_thread;
 960              		.loc 1 499 33 is_stmt 1 view .LVU357
 961              	.LVL86:
 500:../Middlewares/threadx/common/src/tx_mutex_put.c ****                                 previous_thread -> tx_thread_suspended_next =  next_thread;
 962              		.loc 1 500 33 view .LVU358
 500:../Middlewares/threadx/common/src/tx_mutex_put.c ****                                 previous_thread -> tx_thread_suspended_next =  next_thread;
 963              		.loc 1 500 77 is_stmt 0 view .LVU359
 964 0242 5A67     		str	r2, [r3, #116]
 501:../Middlewares/threadx/common/src/tx_mutex_put.c ****                             }
 965              		.loc 1 501 33 is_stmt 1 view .LVU360
 501:../Middlewares/threadx/common/src/tx_mutex_put.c ****                             }
 966              		.loc 1 501 77 is_stmt 0 view .LVU361
 967 0244 1367     		str	r3, [r2, #112]
 968 0246 CBE7     		b	.L30
 969              	.L55:
 970              		.align	2
 971              	.L54:
 972 0248 00000000 		.word	_tx_trace_buffer_current_ptr
 973 024c 00000000 		.word	_tx_trace_event_enable_bits
 974 0250 00000000 		.word	_tx_thread_system_state
 975 0254 00000000 		.word	_tx_thread_current_ptr
 976 0258 001000E0 		.word	-536866816
 977 025c 00000000 		.word	_tx_trace_header_ptr
 978 0260 00000000 		.word	_tx_trace_buffer_end_ptr
 979 0264 00000000 		.word	_tx_trace_buffer_start_ptr
ARM GAS  /tmp/ccBuKv1E.s 			page 45


 980 0268 00000000 		.word	_tx_trace_full_notify_function
 981 026c 00000000 		.word	_tx_thread_preempt_disable
 982              		.cfi_endproc
 983              	.LFE8:
 985              		.text
 986              	.Letext0:
 987              		.file 3 "../Middlewares/threadx/common/inc/tx_api.h"
 988              		.file 4 "../Middlewares/threadx/common/inc/tx_thread.h"
 989              		.file 5 "../Middlewares/threadx/common/inc/tx_trace.h"
 990              		.file 6 "../Middlewares/threadx/common/inc/tx_mutex.h"
ARM GAS  /tmp/ccBuKv1E.s 			page 46

