ARM GAS  /tmp/cco7GNYv.s 			page 1


   1              		.arch armv8.1-m.main
   2              		.fpu fpv5-d16
   3              		.arch_extension dsp
   4              		.arch_extension fp
   5              		.arch_extension fp.dp
   6              		.arch_extension mve
   7              		.arch_extension mve.fp
   8              		.eabi_attribute 5, "cortex-m55"
   9              		.eabi_attribute 28, 1
  10              		.eabi_attribute 20, 1
  11              		.eabi_attribute 21, 1
  12              		.eabi_attribute 23, 3
  13              		.eabi_attribute 24, 1
  14              		.eabi_attribute 25, 1
  15              		.eabi_attribute 26, 1
  16              		.eabi_attribute 30, 4
  17              		.eabi_attribute 34, 1
  18              		.eabi_attribute 38, 1
  19              		.eabi_attribute 18, 4
  20              		.file	"tx_mutex_delete.c"
  21              		.text
  22              	.Ltext0:
  23              		.cfi_sections	.debug_frame
  24              		.file 1 "../Middlewares/threadx/common/src/tx_mutex_delete.c"
  25              		.section	.text._tx_mutex_delete,"ax",%progbits
  26              		.align	1
  27              		.global	_tx_mutex_delete
  28              		.syntax unified
  29              		.thumb
  30              		.thumb_func
  32              	_tx_mutex_delete:
  33              	.LVL0:
  34              	.LFB8:
   1:../Middlewares/threadx/common/src/tx_mutex_delete.c **** /**************************************************************************/
   2:../Middlewares/threadx/common/src/tx_mutex_delete.c **** /*                                                                        */
   3:../Middlewares/threadx/common/src/tx_mutex_delete.c **** /*       Copyright (c) Microsoft Corporation. All rights reserved.        */
   4:../Middlewares/threadx/common/src/tx_mutex_delete.c **** /*                                                                        */
   5:../Middlewares/threadx/common/src/tx_mutex_delete.c **** /*       This software is licensed under the Microsoft Software License   */
   6:../Middlewares/threadx/common/src/tx_mutex_delete.c **** /*       Terms for Microsoft Azure RTOS. Full text of the license can be  */
   7:../Middlewares/threadx/common/src/tx_mutex_delete.c **** /*       found in the LICENSE file at https://aka.ms/AzureRTOS_EULA       */
   8:../Middlewares/threadx/common/src/tx_mutex_delete.c **** /*       and in the root directory of this software.                      */
   9:../Middlewares/threadx/common/src/tx_mutex_delete.c **** /*                                                                        */
  10:../Middlewares/threadx/common/src/tx_mutex_delete.c **** /**************************************************************************/
  11:../Middlewares/threadx/common/src/tx_mutex_delete.c **** 
  12:../Middlewares/threadx/common/src/tx_mutex_delete.c **** 
  13:../Middlewares/threadx/common/src/tx_mutex_delete.c **** /**************************************************************************/
  14:../Middlewares/threadx/common/src/tx_mutex_delete.c **** /**************************************************************************/
  15:../Middlewares/threadx/common/src/tx_mutex_delete.c **** /**                                                                       */
  16:../Middlewares/threadx/common/src/tx_mutex_delete.c **** /** ThreadX Component                                                     */
  17:../Middlewares/threadx/common/src/tx_mutex_delete.c **** /**                                                                       */
  18:../Middlewares/threadx/common/src/tx_mutex_delete.c **** /**   Mutex                                                               */
  19:../Middlewares/threadx/common/src/tx_mutex_delete.c **** /**                                                                       */
  20:../Middlewares/threadx/common/src/tx_mutex_delete.c **** /**************************************************************************/
  21:../Middlewares/threadx/common/src/tx_mutex_delete.c **** /**************************************************************************/
  22:../Middlewares/threadx/common/src/tx_mutex_delete.c **** 
  23:../Middlewares/threadx/common/src/tx_mutex_delete.c **** #define TX_SOURCE_CODE
  24:../Middlewares/threadx/common/src/tx_mutex_delete.c **** 
ARM GAS  /tmp/cco7GNYv.s 			page 2


  25:../Middlewares/threadx/common/src/tx_mutex_delete.c **** 
  26:../Middlewares/threadx/common/src/tx_mutex_delete.c **** /* Include necessary system files.  */
  27:../Middlewares/threadx/common/src/tx_mutex_delete.c **** 
  28:../Middlewares/threadx/common/src/tx_mutex_delete.c **** #include "tx_api.h"
  29:../Middlewares/threadx/common/src/tx_mutex_delete.c **** #include "tx_trace.h"
  30:../Middlewares/threadx/common/src/tx_mutex_delete.c **** #include "tx_thread.h"
  31:../Middlewares/threadx/common/src/tx_mutex_delete.c **** #include "tx_mutex.h"
  32:../Middlewares/threadx/common/src/tx_mutex_delete.c **** 
  33:../Middlewares/threadx/common/src/tx_mutex_delete.c **** 
  34:../Middlewares/threadx/common/src/tx_mutex_delete.c **** /**************************************************************************/
  35:../Middlewares/threadx/common/src/tx_mutex_delete.c **** /*                                                                        */
  36:../Middlewares/threadx/common/src/tx_mutex_delete.c **** /*  FUNCTION                                               RELEASE        */
  37:../Middlewares/threadx/common/src/tx_mutex_delete.c **** /*                                                                        */
  38:../Middlewares/threadx/common/src/tx_mutex_delete.c **** /*    _tx_mutex_delete                                    PORTABLE C      */
  39:../Middlewares/threadx/common/src/tx_mutex_delete.c **** /*                                                           6.1          */
  40:../Middlewares/threadx/common/src/tx_mutex_delete.c **** /*  AUTHOR                                                                */
  41:../Middlewares/threadx/common/src/tx_mutex_delete.c **** /*                                                                        */
  42:../Middlewares/threadx/common/src/tx_mutex_delete.c **** /*    William E. Lamie, Microsoft Corporation                             */
  43:../Middlewares/threadx/common/src/tx_mutex_delete.c **** /*                                                                        */
  44:../Middlewares/threadx/common/src/tx_mutex_delete.c **** /*  DESCRIPTION                                                           */
  45:../Middlewares/threadx/common/src/tx_mutex_delete.c **** /*                                                                        */
  46:../Middlewares/threadx/common/src/tx_mutex_delete.c **** /*    This function deletes the specified mutex.  All threads             */
  47:../Middlewares/threadx/common/src/tx_mutex_delete.c **** /*    suspended on the mutex are resumed with the TX_DELETED status       */
  48:../Middlewares/threadx/common/src/tx_mutex_delete.c **** /*    code.                                                               */
  49:../Middlewares/threadx/common/src/tx_mutex_delete.c **** /*                                                                        */
  50:../Middlewares/threadx/common/src/tx_mutex_delete.c **** /*  INPUT                                                                 */
  51:../Middlewares/threadx/common/src/tx_mutex_delete.c **** /*                                                                        */
  52:../Middlewares/threadx/common/src/tx_mutex_delete.c **** /*    mutex_ptr                         Pointer to mutex control block    */
  53:../Middlewares/threadx/common/src/tx_mutex_delete.c **** /*                                                                        */
  54:../Middlewares/threadx/common/src/tx_mutex_delete.c **** /*  OUTPUT                                                                */
  55:../Middlewares/threadx/common/src/tx_mutex_delete.c **** /*                                                                        */
  56:../Middlewares/threadx/common/src/tx_mutex_delete.c **** /*    TX_SUCCESS                        Successful completion status      */
  57:../Middlewares/threadx/common/src/tx_mutex_delete.c **** /*                                                                        */
  58:../Middlewares/threadx/common/src/tx_mutex_delete.c **** /*  CALLS                                                                 */
  59:../Middlewares/threadx/common/src/tx_mutex_delete.c **** /*                                                                        */
  60:../Middlewares/threadx/common/src/tx_mutex_delete.c **** /*    _tx_mutex_put                     Release an owned mutex            */
  61:../Middlewares/threadx/common/src/tx_mutex_delete.c **** /*    _tx_thread_system_preempt_check   Check for preemption              */
  62:../Middlewares/threadx/common/src/tx_mutex_delete.c **** /*    _tx_thread_system_resume          Resume thread service             */
  63:../Middlewares/threadx/common/src/tx_mutex_delete.c **** /*    _tx_thread_system_ni_resume       Non-interruptable resume thread   */
  64:../Middlewares/threadx/common/src/tx_mutex_delete.c **** /*                                                                        */
  65:../Middlewares/threadx/common/src/tx_mutex_delete.c **** /*  CALLED BY                                                             */
  66:../Middlewares/threadx/common/src/tx_mutex_delete.c **** /*                                                                        */
  67:../Middlewares/threadx/common/src/tx_mutex_delete.c **** /*    Application Code                                                    */
  68:../Middlewares/threadx/common/src/tx_mutex_delete.c **** /*                                                                        */
  69:../Middlewares/threadx/common/src/tx_mutex_delete.c **** /*  RELEASE HISTORY                                                       */
  70:../Middlewares/threadx/common/src/tx_mutex_delete.c **** /*                                                                        */
  71:../Middlewares/threadx/common/src/tx_mutex_delete.c **** /*    DATE              NAME                      DESCRIPTION             */
  72:../Middlewares/threadx/common/src/tx_mutex_delete.c **** /*                                                                        */
  73:../Middlewares/threadx/common/src/tx_mutex_delete.c **** /*  05-19-2020     William E. Lamie         Initial Version 6.0           */
  74:../Middlewares/threadx/common/src/tx_mutex_delete.c **** /*  09-30-2020     Yuxin Zhou               Modified comment(s),          */
  75:../Middlewares/threadx/common/src/tx_mutex_delete.c **** /*                                            resulting in version 6.1    */
  76:../Middlewares/threadx/common/src/tx_mutex_delete.c **** /*                                                                        */
  77:../Middlewares/threadx/common/src/tx_mutex_delete.c **** /**************************************************************************/
  78:../Middlewares/threadx/common/src/tx_mutex_delete.c **** UINT  _tx_mutex_delete(TX_MUTEX *mutex_ptr)
  79:../Middlewares/threadx/common/src/tx_mutex_delete.c **** {
  35              		.loc 1 79 1 view -0
  36              		.cfi_startproc
ARM GAS  /tmp/cco7GNYv.s 			page 3


  37              		@ args = 0, pretend = 0, frame = 8
  38              		@ frame_needed = 0, uses_anonymous_args = 0
  80:../Middlewares/threadx/common/src/tx_mutex_delete.c **** 
  81:../Middlewares/threadx/common/src/tx_mutex_delete.c **** TX_INTERRUPT_SAVE_AREA
  39              		.loc 1 81 1 view .LVU1
  82:../Middlewares/threadx/common/src/tx_mutex_delete.c **** 
  83:../Middlewares/threadx/common/src/tx_mutex_delete.c **** TX_THREAD       *thread_ptr;
  40              		.loc 1 83 1 view .LVU2
  84:../Middlewares/threadx/common/src/tx_mutex_delete.c **** TX_THREAD       *next_thread;
  41              		.loc 1 84 1 view .LVU3
  85:../Middlewares/threadx/common/src/tx_mutex_delete.c **** TX_THREAD       *owner_thread;
  42              		.loc 1 85 1 view .LVU4
  86:../Middlewares/threadx/common/src/tx_mutex_delete.c **** UINT            suspended_count;
  43              		.loc 1 86 1 view .LVU5
  87:../Middlewares/threadx/common/src/tx_mutex_delete.c **** TX_MUTEX        *next_mutex;
  44              		.loc 1 87 1 view .LVU6
  88:../Middlewares/threadx/common/src/tx_mutex_delete.c **** TX_MUTEX        *previous_mutex;
  45              		.loc 1 88 1 view .LVU7
  89:../Middlewares/threadx/common/src/tx_mutex_delete.c **** #ifdef TX_MISRA_ENABLE
  90:../Middlewares/threadx/common/src/tx_mutex_delete.c **** UINT            status;
  91:../Middlewares/threadx/common/src/tx_mutex_delete.c **** #endif
  92:../Middlewares/threadx/common/src/tx_mutex_delete.c **** 
  93:../Middlewares/threadx/common/src/tx_mutex_delete.c ****     /* Disable interrupts to remove the mutex from the created list.  */
  94:../Middlewares/threadx/common/src/tx_mutex_delete.c ****     TX_DISABLE
  46              		.loc 1 94 5 view .LVU8
  47              	.LBB31:
  48              	.LBI31:
  49              		.file 2 "../Middlewares/threadx/ports/cortex_m55/gnu/inc/tx_port.h"
   1:../Middlewares/threadx/ports/cortex_m55/gnu/inc/tx_port.h **** /**************************************************************************/
   2:../Middlewares/threadx/ports/cortex_m55/gnu/inc/tx_port.h **** /*                                                                        */
   3:../Middlewares/threadx/ports/cortex_m55/gnu/inc/tx_port.h **** /*       Copyright (c) Microsoft Corporation. All rights reserved.        */
   4:../Middlewares/threadx/ports/cortex_m55/gnu/inc/tx_port.h **** /*                                                                        */
   5:../Middlewares/threadx/ports/cortex_m55/gnu/inc/tx_port.h **** /*       This software is licensed under the Microsoft Software License   */
   6:../Middlewares/threadx/ports/cortex_m55/gnu/inc/tx_port.h **** /*       Terms for Microsoft Azure RTOS. Full text of the license can be  */
   7:../Middlewares/threadx/ports/cortex_m55/gnu/inc/tx_port.h **** /*       found in the LICENSE file at https://aka.ms/AzureRTOS_EULA       */
   8:../Middlewares/threadx/ports/cortex_m55/gnu/inc/tx_port.h **** /*       and in the root directory of this software.                      */
   9:../Middlewares/threadx/ports/cortex_m55/gnu/inc/tx_port.h **** /*                                                                        */
  10:../Middlewares/threadx/ports/cortex_m55/gnu/inc/tx_port.h **** /**************************************************************************/
  11:../Middlewares/threadx/ports/cortex_m55/gnu/inc/tx_port.h **** 
  12:../Middlewares/threadx/ports/cortex_m55/gnu/inc/tx_port.h **** 
  13:../Middlewares/threadx/ports/cortex_m55/gnu/inc/tx_port.h **** /**************************************************************************/
  14:../Middlewares/threadx/ports/cortex_m55/gnu/inc/tx_port.h **** /**************************************************************************/
  15:../Middlewares/threadx/ports/cortex_m55/gnu/inc/tx_port.h **** /**                                                                       */
  16:../Middlewares/threadx/ports/cortex_m55/gnu/inc/tx_port.h **** /** ThreadX Component                                                     */
  17:../Middlewares/threadx/ports/cortex_m55/gnu/inc/tx_port.h **** /**                                                                       */
  18:../Middlewares/threadx/ports/cortex_m55/gnu/inc/tx_port.h **** /**   Port Specific                                                       */
  19:../Middlewares/threadx/ports/cortex_m55/gnu/inc/tx_port.h **** /**                                                                       */
  20:../Middlewares/threadx/ports/cortex_m55/gnu/inc/tx_port.h **** /**************************************************************************/
  21:../Middlewares/threadx/ports/cortex_m55/gnu/inc/tx_port.h **** /**************************************************************************/
  22:../Middlewares/threadx/ports/cortex_m55/gnu/inc/tx_port.h **** 
  23:../Middlewares/threadx/ports/cortex_m55/gnu/inc/tx_port.h **** 
  24:../Middlewares/threadx/ports/cortex_m55/gnu/inc/tx_port.h **** /**************************************************************************/
  25:../Middlewares/threadx/ports/cortex_m55/gnu/inc/tx_port.h **** /*                                                                        */
  26:../Middlewares/threadx/ports/cortex_m55/gnu/inc/tx_port.h **** /*  PORT SPECIFIC C INFORMATION                            RELEASE        */
  27:../Middlewares/threadx/ports/cortex_m55/gnu/inc/tx_port.h **** /*                                                                        */
  28:../Middlewares/threadx/ports/cortex_m55/gnu/inc/tx_port.h **** /*    tx_port.h                                         Cortex-M55/GNU    */
  29:../Middlewares/threadx/ports/cortex_m55/gnu/inc/tx_port.h **** /*                                                           6.2.1        */
ARM GAS  /tmp/cco7GNYv.s 			page 4


  30:../Middlewares/threadx/ports/cortex_m55/gnu/inc/tx_port.h **** /*                                                                        */
  31:../Middlewares/threadx/ports/cortex_m55/gnu/inc/tx_port.h **** /*  AUTHOR                                                                */
  32:../Middlewares/threadx/ports/cortex_m55/gnu/inc/tx_port.h **** /*                                                                        */
  33:../Middlewares/threadx/ports/cortex_m55/gnu/inc/tx_port.h **** /*    Scott Larson, Microsoft Corporation                                 */
  34:../Middlewares/threadx/ports/cortex_m55/gnu/inc/tx_port.h **** /*                                                                        */
  35:../Middlewares/threadx/ports/cortex_m55/gnu/inc/tx_port.h **** /*  DESCRIPTION                                                           */
  36:../Middlewares/threadx/ports/cortex_m55/gnu/inc/tx_port.h **** /*                                                                        */
  37:../Middlewares/threadx/ports/cortex_m55/gnu/inc/tx_port.h **** /*    This file contains data type definitions that make the ThreadX      */
  38:../Middlewares/threadx/ports/cortex_m55/gnu/inc/tx_port.h **** /*    real-time kernel function identically on a variety of different     */
  39:../Middlewares/threadx/ports/cortex_m55/gnu/inc/tx_port.h **** /*    processor architectures.  For example, the size or number of bits   */
  40:../Middlewares/threadx/ports/cortex_m55/gnu/inc/tx_port.h **** /*    in an "int" data type vary between microprocessor architectures and */
  41:../Middlewares/threadx/ports/cortex_m55/gnu/inc/tx_port.h **** /*    even C compilers for the same microprocessor.  ThreadX does not     */
  42:../Middlewares/threadx/ports/cortex_m55/gnu/inc/tx_port.h **** /*    directly use native C data types.  Instead, ThreadX creates its     */
  43:../Middlewares/threadx/ports/cortex_m55/gnu/inc/tx_port.h **** /*    own special types that can be mapped to actual data types by this   */
  44:../Middlewares/threadx/ports/cortex_m55/gnu/inc/tx_port.h **** /*    file to guarantee consistency in the interface and functionality.   */
  45:../Middlewares/threadx/ports/cortex_m55/gnu/inc/tx_port.h **** /*                                                                        */
  46:../Middlewares/threadx/ports/cortex_m55/gnu/inc/tx_port.h **** /*    This file replaces the previous Cortex-M55 files. It unifies        */
  47:../Middlewares/threadx/ports/cortex_m55/gnu/inc/tx_port.h **** /*    the Cortex-M55 compilers into one common file.                      */
  48:../Middlewares/threadx/ports/cortex_m55/gnu/inc/tx_port.h **** /*                                                                        */
  49:../Middlewares/threadx/ports/cortex_m55/gnu/inc/tx_port.h **** /*  RELEASE HISTORY                                                       */
  50:../Middlewares/threadx/ports/cortex_m55/gnu/inc/tx_port.h **** /*                                                                        */
  51:../Middlewares/threadx/ports/cortex_m55/gnu/inc/tx_port.h **** /*    DATE              NAME                      DESCRIPTION             */
  52:../Middlewares/threadx/ports/cortex_m55/gnu/inc/tx_port.h **** /*                                                                        */
  53:../Middlewares/threadx/ports/cortex_m55/gnu/inc/tx_port.h **** /*  09-30-2020      Scott Larson            Initial Version 6.1           */
  54:../Middlewares/threadx/ports/cortex_m55/gnu/inc/tx_port.h **** /*  03-02-2021      Scott Larson            Modified comment(s), added    */
  55:../Middlewares/threadx/ports/cortex_m55/gnu/inc/tx_port.h **** /*                                            ULONG64_DEFINED,            */
  56:../Middlewares/threadx/ports/cortex_m55/gnu/inc/tx_port.h **** /*                                            resulting in version 6.1.5  */
  57:../Middlewares/threadx/ports/cortex_m55/gnu/inc/tx_port.h **** /*  06-02-2021      Scott Larson            Modified comment(s), removed  */
  58:../Middlewares/threadx/ports/cortex_m55/gnu/inc/tx_port.h **** /*                                            unneeded header file, funcs */
  59:../Middlewares/threadx/ports/cortex_m55/gnu/inc/tx_port.h **** /*                                            set_control and get_control */
  60:../Middlewares/threadx/ports/cortex_m55/gnu/inc/tx_port.h **** /*                                            changed to inline,          */
  61:../Middlewares/threadx/ports/cortex_m55/gnu/inc/tx_port.h **** /*                                            added symbol to enable      */
  62:../Middlewares/threadx/ports/cortex_m55/gnu/inc/tx_port.h **** /*                                            stack error handler,        */
  63:../Middlewares/threadx/ports/cortex_m55/gnu/inc/tx_port.h **** /*                                            resulting in version 6.1.7  */
  64:../Middlewares/threadx/ports/cortex_m55/gnu/inc/tx_port.h **** /*  10-15-2021      Scott Larson            Modified comment(s), improved */
  65:../Middlewares/threadx/ports/cortex_m55/gnu/inc/tx_port.h **** /*                                            stack check error handling, */
  66:../Middlewares/threadx/ports/cortex_m55/gnu/inc/tx_port.h **** /*                                            resulting in version 6.1.9  */
  67:../Middlewares/threadx/ports/cortex_m55/gnu/inc/tx_port.h **** /*  01-31-2022      Scott Larson            Modified comment(s), unified  */
  68:../Middlewares/threadx/ports/cortex_m55/gnu/inc/tx_port.h **** /*                                            this file across compilers, */
  69:../Middlewares/threadx/ports/cortex_m55/gnu/inc/tx_port.h **** /*                                            fixed predefined macro,     */
  70:../Middlewares/threadx/ports/cortex_m55/gnu/inc/tx_port.h **** /*                                            resulting in version 6.1.10 */
  71:../Middlewares/threadx/ports/cortex_m55/gnu/inc/tx_port.h **** /*  04-25-2022      Scott Larson            Modified comments and added   */
  72:../Middlewares/threadx/ports/cortex_m55/gnu/inc/tx_port.h **** /*                                            volatile to registers,      */
  73:../Middlewares/threadx/ports/cortex_m55/gnu/inc/tx_port.h **** /*                                            resulting in version 6.1.11 */
  74:../Middlewares/threadx/ports/cortex_m55/gnu/inc/tx_port.h **** /*  07-29-2022      Scott Larson            Modified comments and changed */
  75:../Middlewares/threadx/ports/cortex_m55/gnu/inc/tx_port.h **** /*                                            secure stack initialization */
  76:../Middlewares/threadx/ports/cortex_m55/gnu/inc/tx_port.h **** /*                                            macro to port-specific,     */
  77:../Middlewares/threadx/ports/cortex_m55/gnu/inc/tx_port.h **** /*                                            described BASEPRI usage,    */
  78:../Middlewares/threadx/ports/cortex_m55/gnu/inc/tx_port.h **** /*                                            resulting in version 6.1.12 */
  79:../Middlewares/threadx/ports/cortex_m55/gnu/inc/tx_port.h **** /*  03-08-2023      Scott Larson            Removed unneeded #include,    */
  80:../Middlewares/threadx/ports/cortex_m55/gnu/inc/tx_port.h **** /*                                            resulting in version 6.2.1  */
  81:../Middlewares/threadx/ports/cortex_m55/gnu/inc/tx_port.h **** /*                                                                        */
  82:../Middlewares/threadx/ports/cortex_m55/gnu/inc/tx_port.h **** /**************************************************************************/
  83:../Middlewares/threadx/ports/cortex_m55/gnu/inc/tx_port.h **** 
  84:../Middlewares/threadx/ports/cortex_m55/gnu/inc/tx_port.h **** #ifndef TX_PORT_H
  85:../Middlewares/threadx/ports/cortex_m55/gnu/inc/tx_port.h **** #define TX_PORT_H
  86:../Middlewares/threadx/ports/cortex_m55/gnu/inc/tx_port.h **** 
ARM GAS  /tmp/cco7GNYv.s 			page 5


  87:../Middlewares/threadx/ports/cortex_m55/gnu/inc/tx_port.h **** /* Determine if the optional ThreadX user define file should be used.  */
  88:../Middlewares/threadx/ports/cortex_m55/gnu/inc/tx_port.h **** #ifdef TX_INCLUDE_USER_DEFINE_FILE
  89:../Middlewares/threadx/ports/cortex_m55/gnu/inc/tx_port.h **** 
  90:../Middlewares/threadx/ports/cortex_m55/gnu/inc/tx_port.h **** /* Yes, include the user defines in tx_user.h. The defines in this file may
  91:../Middlewares/threadx/ports/cortex_m55/gnu/inc/tx_port.h ****    alternately be defined on the command line.  */
  92:../Middlewares/threadx/ports/cortex_m55/gnu/inc/tx_port.h **** 
  93:../Middlewares/threadx/ports/cortex_m55/gnu/inc/tx_port.h **** #include "tx_user.h"
  94:../Middlewares/threadx/ports/cortex_m55/gnu/inc/tx_port.h **** #endif /* TX_INCLUDE_USER_DEFINE_FILE */
  95:../Middlewares/threadx/ports/cortex_m55/gnu/inc/tx_port.h **** 
  96:../Middlewares/threadx/ports/cortex_m55/gnu/inc/tx_port.h **** /* Define compiler library include files.  */
  97:../Middlewares/threadx/ports/cortex_m55/gnu/inc/tx_port.h **** 
  98:../Middlewares/threadx/ports/cortex_m55/gnu/inc/tx_port.h **** #include <stdlib.h>
  99:../Middlewares/threadx/ports/cortex_m55/gnu/inc/tx_port.h **** #include <string.h>
 100:../Middlewares/threadx/ports/cortex_m55/gnu/inc/tx_port.h **** 
 101:../Middlewares/threadx/ports/cortex_m55/gnu/inc/tx_port.h **** #ifdef __ICCARM__
 102:../Middlewares/threadx/ports/cortex_m55/gnu/inc/tx_port.h **** #include <intrinsics.h>                         /* IAR Intrinsics */
 103:../Middlewares/threadx/ports/cortex_m55/gnu/inc/tx_port.h **** #define __asm__                 __asm           /* Define to make all inline asm from each compiler
 104:../Middlewares/threadx/ports/cortex_m55/gnu/inc/tx_port.h **** #define _tx_control_get         __get_CONTROL
 105:../Middlewares/threadx/ports/cortex_m55/gnu/inc/tx_port.h **** #define _tx_control_set         __set_CONTROL
 106:../Middlewares/threadx/ports/cortex_m55/gnu/inc/tx_port.h **** #define _tx_ipsr_get            __get_IPSR
 107:../Middlewares/threadx/ports/cortex_m55/gnu/inc/tx_port.h **** #ifdef  TX_ENABLE_IAR_LIBRARY_SUPPORT
 108:../Middlewares/threadx/ports/cortex_m55/gnu/inc/tx_port.h **** #include <yvals.h>
 109:../Middlewares/threadx/ports/cortex_m55/gnu/inc/tx_port.h **** #endif /* TX_ENABLE_IAR_LIBRARY_SUPPORT */
 110:../Middlewares/threadx/ports/cortex_m55/gnu/inc/tx_port.h **** #endif /* __ICCARM__ */
 111:../Middlewares/threadx/ports/cortex_m55/gnu/inc/tx_port.h **** 
 112:../Middlewares/threadx/ports/cortex_m55/gnu/inc/tx_port.h **** 
 113:../Middlewares/threadx/ports/cortex_m55/gnu/inc/tx_port.h **** /* Define ThreadX basic types for this port.  */
 114:../Middlewares/threadx/ports/cortex_m55/gnu/inc/tx_port.h **** 
 115:../Middlewares/threadx/ports/cortex_m55/gnu/inc/tx_port.h **** #define VOID                                    void
 116:../Middlewares/threadx/ports/cortex_m55/gnu/inc/tx_port.h **** typedef char                                    CHAR;
 117:../Middlewares/threadx/ports/cortex_m55/gnu/inc/tx_port.h **** typedef unsigned char                           UCHAR;
 118:../Middlewares/threadx/ports/cortex_m55/gnu/inc/tx_port.h **** typedef int                                     INT;
 119:../Middlewares/threadx/ports/cortex_m55/gnu/inc/tx_port.h **** typedef unsigned int                            UINT;
 120:../Middlewares/threadx/ports/cortex_m55/gnu/inc/tx_port.h **** typedef long                                    LONG;
 121:../Middlewares/threadx/ports/cortex_m55/gnu/inc/tx_port.h **** typedef unsigned long                           ULONG;
 122:../Middlewares/threadx/ports/cortex_m55/gnu/inc/tx_port.h **** typedef unsigned long long                      ULONG64;
 123:../Middlewares/threadx/ports/cortex_m55/gnu/inc/tx_port.h **** typedef short                                   SHORT;
 124:../Middlewares/threadx/ports/cortex_m55/gnu/inc/tx_port.h **** typedef unsigned short                          USHORT;
 125:../Middlewares/threadx/ports/cortex_m55/gnu/inc/tx_port.h **** #define ULONG64_DEFINED
 126:../Middlewares/threadx/ports/cortex_m55/gnu/inc/tx_port.h **** 
 127:../Middlewares/threadx/ports/cortex_m55/gnu/inc/tx_port.h **** /* Function prototypes for this port. */
 128:../Middlewares/threadx/ports/cortex_m55/gnu/inc/tx_port.h **** struct  TX_THREAD_STRUCT;
 129:../Middlewares/threadx/ports/cortex_m55/gnu/inc/tx_port.h **** UINT    _txe_thread_secure_stack_allocate(struct TX_THREAD_STRUCT *thread_ptr, ULONG stack_size);
 130:../Middlewares/threadx/ports/cortex_m55/gnu/inc/tx_port.h **** UINT    _txe_thread_secure_stack_free(struct TX_THREAD_STRUCT *thread_ptr);
 131:../Middlewares/threadx/ports/cortex_m55/gnu/inc/tx_port.h **** UINT    _tx_thread_secure_stack_allocate(struct TX_THREAD_STRUCT *tx_thread, ULONG stack_size);
 132:../Middlewares/threadx/ports/cortex_m55/gnu/inc/tx_port.h **** UINT    _tx_thread_secure_stack_free(struct TX_THREAD_STRUCT *tx_thread);
 133:../Middlewares/threadx/ports/cortex_m55/gnu/inc/tx_port.h **** 
 134:../Middlewares/threadx/ports/cortex_m55/gnu/inc/tx_port.h **** /* Define the system API mappings based on the error checking
 135:../Middlewares/threadx/ports/cortex_m55/gnu/inc/tx_port.h ****    selected by the user.  Note: this section is only applicable to
 136:../Middlewares/threadx/ports/cortex_m55/gnu/inc/tx_port.h ****    application source code, hence the conditional that turns off this
 137:../Middlewares/threadx/ports/cortex_m55/gnu/inc/tx_port.h ****    stuff when the include file is processed by the ThreadX source. */
 138:../Middlewares/threadx/ports/cortex_m55/gnu/inc/tx_port.h **** 
 139:../Middlewares/threadx/ports/cortex_m55/gnu/inc/tx_port.h **** #ifndef TX_SOURCE_CODE
 140:../Middlewares/threadx/ports/cortex_m55/gnu/inc/tx_port.h **** 
 141:../Middlewares/threadx/ports/cortex_m55/gnu/inc/tx_port.h **** 
 142:../Middlewares/threadx/ports/cortex_m55/gnu/inc/tx_port.h **** /* Determine if error checking is desired.  If so, map API functions
 143:../Middlewares/threadx/ports/cortex_m55/gnu/inc/tx_port.h ****    to the appropriate error checking front-ends.  Otherwise, map API
ARM GAS  /tmp/cco7GNYv.s 			page 6


 144:../Middlewares/threadx/ports/cortex_m55/gnu/inc/tx_port.h ****    functions to the core functions that actually perform the work.
 145:../Middlewares/threadx/ports/cortex_m55/gnu/inc/tx_port.h ****    Note: error checking is enabled by default.  */
 146:../Middlewares/threadx/ports/cortex_m55/gnu/inc/tx_port.h **** 
 147:../Middlewares/threadx/ports/cortex_m55/gnu/inc/tx_port.h **** #ifdef TX_DISABLE_ERROR_CHECKING
 148:../Middlewares/threadx/ports/cortex_m55/gnu/inc/tx_port.h **** 
 149:../Middlewares/threadx/ports/cortex_m55/gnu/inc/tx_port.h **** /* Services without error checking.  */
 150:../Middlewares/threadx/ports/cortex_m55/gnu/inc/tx_port.h **** 
 151:../Middlewares/threadx/ports/cortex_m55/gnu/inc/tx_port.h **** #define tx_thread_secure_stack_allocate   _tx_thread_secure_stack_allocate
 152:../Middlewares/threadx/ports/cortex_m55/gnu/inc/tx_port.h **** #define tx_thread_secure_stack_free       _tx_thread_secure_stack_free
 153:../Middlewares/threadx/ports/cortex_m55/gnu/inc/tx_port.h **** 
 154:../Middlewares/threadx/ports/cortex_m55/gnu/inc/tx_port.h **** #else
 155:../Middlewares/threadx/ports/cortex_m55/gnu/inc/tx_port.h **** 
 156:../Middlewares/threadx/ports/cortex_m55/gnu/inc/tx_port.h **** /* Services with error checking.  */
 157:../Middlewares/threadx/ports/cortex_m55/gnu/inc/tx_port.h **** 
 158:../Middlewares/threadx/ports/cortex_m55/gnu/inc/tx_port.h **** #define tx_thread_secure_stack_allocate   _txe_thread_secure_stack_allocate
 159:../Middlewares/threadx/ports/cortex_m55/gnu/inc/tx_port.h **** #define tx_thread_secure_stack_free       _txe_thread_secure_stack_free
 160:../Middlewares/threadx/ports/cortex_m55/gnu/inc/tx_port.h **** 
 161:../Middlewares/threadx/ports/cortex_m55/gnu/inc/tx_port.h **** #endif  /* TX_DISABLE_ERROR_CHECKING */
 162:../Middlewares/threadx/ports/cortex_m55/gnu/inc/tx_port.h **** #endif  /* TX_SOURCE_CODE */
 163:../Middlewares/threadx/ports/cortex_m55/gnu/inc/tx_port.h **** 
 164:../Middlewares/threadx/ports/cortex_m55/gnu/inc/tx_port.h **** /* This port has a usage fault handler in _tx_initialize_low_level for stack exceptions.  */
 165:../Middlewares/threadx/ports/cortex_m55/gnu/inc/tx_port.h **** #define TX_PORT_THREAD_STACK_ERROR_HANDLING
 166:../Middlewares/threadx/ports/cortex_m55/gnu/inc/tx_port.h **** 
 167:../Middlewares/threadx/ports/cortex_m55/gnu/inc/tx_port.h **** /* Define the priority levels for ThreadX.  Legal values range
 168:../Middlewares/threadx/ports/cortex_m55/gnu/inc/tx_port.h ****    from 32 to 1024 and MUST be evenly divisible by 32.  */
 169:../Middlewares/threadx/ports/cortex_m55/gnu/inc/tx_port.h **** 
 170:../Middlewares/threadx/ports/cortex_m55/gnu/inc/tx_port.h **** #ifndef TX_MAX_PRIORITIES
 171:../Middlewares/threadx/ports/cortex_m55/gnu/inc/tx_port.h **** #define TX_MAX_PRIORITIES                       32
 172:../Middlewares/threadx/ports/cortex_m55/gnu/inc/tx_port.h **** #endif
 173:../Middlewares/threadx/ports/cortex_m55/gnu/inc/tx_port.h **** 
 174:../Middlewares/threadx/ports/cortex_m55/gnu/inc/tx_port.h **** 
 175:../Middlewares/threadx/ports/cortex_m55/gnu/inc/tx_port.h **** /* Define the minimum stack for a ThreadX thread on this processor. If the size supplied during
 176:../Middlewares/threadx/ports/cortex_m55/gnu/inc/tx_port.h ****    thread creation is less than this value, the thread create call will return an error.  */
 177:../Middlewares/threadx/ports/cortex_m55/gnu/inc/tx_port.h **** 
 178:../Middlewares/threadx/ports/cortex_m55/gnu/inc/tx_port.h **** #ifndef TX_MINIMUM_STACK
 179:../Middlewares/threadx/ports/cortex_m55/gnu/inc/tx_port.h **** #define TX_MINIMUM_STACK                        200         /* Minimum stack size for this port  */
 180:../Middlewares/threadx/ports/cortex_m55/gnu/inc/tx_port.h **** #endif
 181:../Middlewares/threadx/ports/cortex_m55/gnu/inc/tx_port.h **** 
 182:../Middlewares/threadx/ports/cortex_m55/gnu/inc/tx_port.h **** 
 183:../Middlewares/threadx/ports/cortex_m55/gnu/inc/tx_port.h **** /* Define the system timer thread's default stack size and priority.  These are only applicable
 184:../Middlewares/threadx/ports/cortex_m55/gnu/inc/tx_port.h ****    if TX_TIMER_PROCESS_IN_ISR is not defined.  */
 185:../Middlewares/threadx/ports/cortex_m55/gnu/inc/tx_port.h **** 
 186:../Middlewares/threadx/ports/cortex_m55/gnu/inc/tx_port.h **** #ifndef TX_TIMER_THREAD_STACK_SIZE
 187:../Middlewares/threadx/ports/cortex_m55/gnu/inc/tx_port.h **** #define TX_TIMER_THREAD_STACK_SIZE              1024        /* Default timer thread stack size  */
 188:../Middlewares/threadx/ports/cortex_m55/gnu/inc/tx_port.h **** #endif
 189:../Middlewares/threadx/ports/cortex_m55/gnu/inc/tx_port.h **** 
 190:../Middlewares/threadx/ports/cortex_m55/gnu/inc/tx_port.h **** #ifndef TX_TIMER_THREAD_PRIORITY
 191:../Middlewares/threadx/ports/cortex_m55/gnu/inc/tx_port.h **** #define TX_TIMER_THREAD_PRIORITY                0           /* Default timer thread priority    */
 192:../Middlewares/threadx/ports/cortex_m55/gnu/inc/tx_port.h **** #endif
 193:../Middlewares/threadx/ports/cortex_m55/gnu/inc/tx_port.h **** 
 194:../Middlewares/threadx/ports/cortex_m55/gnu/inc/tx_port.h **** /* By default, ThreadX for Cortex-M uses the PRIMASK register to enable/disable interrupts.
 195:../Middlewares/threadx/ports/cortex_m55/gnu/inc/tx_port.h **** If using BASEPRI is desired, define the following two symbols for both c and assembly files:
 196:../Middlewares/threadx/ports/cortex_m55/gnu/inc/tx_port.h **** TX_PORT_USE_BASEPRI - This tells ThreadX to use BASEPRI instead of PRIMASK.
 197:../Middlewares/threadx/ports/cortex_m55/gnu/inc/tx_port.h **** TX_PORT_BASEPRI = (priority_mask << (8 - number_priority_bits)) - this defines the maximum priority
 198:../Middlewares/threadx/ports/cortex_m55/gnu/inc/tx_port.h **** Any interrupt with a higher priority than priority_mask will not be masked, thus the interrupt will
 199:../Middlewares/threadx/ports/cortex_m55/gnu/inc/tx_port.h **** */
 200:../Middlewares/threadx/ports/cortex_m55/gnu/inc/tx_port.h **** 
ARM GAS  /tmp/cco7GNYv.s 			page 7


 201:../Middlewares/threadx/ports/cortex_m55/gnu/inc/tx_port.h **** /* Define various constants for the ThreadX Cortex-M port.  */
 202:../Middlewares/threadx/ports/cortex_m55/gnu/inc/tx_port.h **** 
 203:../Middlewares/threadx/ports/cortex_m55/gnu/inc/tx_port.h **** #define TX_INT_DISABLE                          1           /* Disable interrupts               */
 204:../Middlewares/threadx/ports/cortex_m55/gnu/inc/tx_port.h **** #define TX_INT_ENABLE                           0           /* Enable interrupts                */
 205:../Middlewares/threadx/ports/cortex_m55/gnu/inc/tx_port.h **** 
 206:../Middlewares/threadx/ports/cortex_m55/gnu/inc/tx_port.h **** 
 207:../Middlewares/threadx/ports/cortex_m55/gnu/inc/tx_port.h **** /* Define the clock source for trace event entry time stamp. The following two item are port specif
 208:../Middlewares/threadx/ports/cortex_m55/gnu/inc/tx_port.h ****    For example, if the time source is at the address 0x0a800024 and is 16-bits in size, the clock
 209:../Middlewares/threadx/ports/cortex_m55/gnu/inc/tx_port.h ****    source constants would be:
 210:../Middlewares/threadx/ports/cortex_m55/gnu/inc/tx_port.h **** 
 211:../Middlewares/threadx/ports/cortex_m55/gnu/inc/tx_port.h **** #define TX_TRACE_TIME_SOURCE                    *((volatile ULONG *) 0x0a800024)
 212:../Middlewares/threadx/ports/cortex_m55/gnu/inc/tx_port.h **** #define TX_TRACE_TIME_MASK                      0x0000FFFFUL
 213:../Middlewares/threadx/ports/cortex_m55/gnu/inc/tx_port.h **** 
 214:../Middlewares/threadx/ports/cortex_m55/gnu/inc/tx_port.h **** */
 215:../Middlewares/threadx/ports/cortex_m55/gnu/inc/tx_port.h **** 
 216:../Middlewares/threadx/ports/cortex_m55/gnu/inc/tx_port.h **** #ifndef TX_MISRA_ENABLE
 217:../Middlewares/threadx/ports/cortex_m55/gnu/inc/tx_port.h **** #ifndef TX_TRACE_TIME_SOURCE
 218:../Middlewares/threadx/ports/cortex_m55/gnu/inc/tx_port.h **** #define TX_TRACE_TIME_SOURCE                    *((volatile ULONG *) 0xE0001004)
 219:../Middlewares/threadx/ports/cortex_m55/gnu/inc/tx_port.h **** #endif
 220:../Middlewares/threadx/ports/cortex_m55/gnu/inc/tx_port.h **** #else
 221:../Middlewares/threadx/ports/cortex_m55/gnu/inc/tx_port.h **** ULONG   _tx_misra_time_stamp_get(VOID);
 222:../Middlewares/threadx/ports/cortex_m55/gnu/inc/tx_port.h **** #define TX_TRACE_TIME_SOURCE                    _tx_misra_time_stamp_get()
 223:../Middlewares/threadx/ports/cortex_m55/gnu/inc/tx_port.h **** #endif
 224:../Middlewares/threadx/ports/cortex_m55/gnu/inc/tx_port.h **** 
 225:../Middlewares/threadx/ports/cortex_m55/gnu/inc/tx_port.h **** #ifndef TX_TRACE_TIME_MASK
 226:../Middlewares/threadx/ports/cortex_m55/gnu/inc/tx_port.h **** #define TX_TRACE_TIME_MASK                      0xFFFFFFFFUL
 227:../Middlewares/threadx/ports/cortex_m55/gnu/inc/tx_port.h **** #endif
 228:../Middlewares/threadx/ports/cortex_m55/gnu/inc/tx_port.h **** 
 229:../Middlewares/threadx/ports/cortex_m55/gnu/inc/tx_port.h **** 
 230:../Middlewares/threadx/ports/cortex_m55/gnu/inc/tx_port.h **** /* Define the port specific options for the _tx_build_options variable. This variable indicates
 231:../Middlewares/threadx/ports/cortex_m55/gnu/inc/tx_port.h ****    how the ThreadX library was built.  */
 232:../Middlewares/threadx/ports/cortex_m55/gnu/inc/tx_port.h **** 
 233:../Middlewares/threadx/ports/cortex_m55/gnu/inc/tx_port.h **** #define TX_PORT_SPECIFIC_BUILD_OPTIONS          (0)
 234:../Middlewares/threadx/ports/cortex_m55/gnu/inc/tx_port.h **** 
 235:../Middlewares/threadx/ports/cortex_m55/gnu/inc/tx_port.h **** 
 236:../Middlewares/threadx/ports/cortex_m55/gnu/inc/tx_port.h **** /* Define the in-line initialization constant so that modules with in-line
 237:../Middlewares/threadx/ports/cortex_m55/gnu/inc/tx_port.h ****    initialization capabilities can prevent their initialization from being
 238:../Middlewares/threadx/ports/cortex_m55/gnu/inc/tx_port.h ****    a function call.  */
 239:../Middlewares/threadx/ports/cortex_m55/gnu/inc/tx_port.h **** 
 240:../Middlewares/threadx/ports/cortex_m55/gnu/inc/tx_port.h **** #ifdef TX_MISRA_ENABLE
 241:../Middlewares/threadx/ports/cortex_m55/gnu/inc/tx_port.h **** #define TX_DISABLE_INLINE
 242:../Middlewares/threadx/ports/cortex_m55/gnu/inc/tx_port.h **** #else
 243:../Middlewares/threadx/ports/cortex_m55/gnu/inc/tx_port.h **** #define TX_INLINE_INITIALIZATION
 244:../Middlewares/threadx/ports/cortex_m55/gnu/inc/tx_port.h **** #endif
 245:../Middlewares/threadx/ports/cortex_m55/gnu/inc/tx_port.h **** 
 246:../Middlewares/threadx/ports/cortex_m55/gnu/inc/tx_port.h **** 
 247:../Middlewares/threadx/ports/cortex_m55/gnu/inc/tx_port.h **** /* Determine whether or not stack checking is enabled. By default, ThreadX stack checking is
 248:../Middlewares/threadx/ports/cortex_m55/gnu/inc/tx_port.h ****    disabled. When the following is defined, ThreadX thread stack checking is enabled.  If stack
 249:../Middlewares/threadx/ports/cortex_m55/gnu/inc/tx_port.h ****    checking is enabled (TX_ENABLE_STACK_CHECKING is defined), the TX_DISABLE_STACK_FILLING
 250:../Middlewares/threadx/ports/cortex_m55/gnu/inc/tx_port.h ****    define is negated, thereby forcing the stack fill which is necessary for the stack checking
 251:../Middlewares/threadx/ports/cortex_m55/gnu/inc/tx_port.h ****    logic.  */
 252:../Middlewares/threadx/ports/cortex_m55/gnu/inc/tx_port.h **** 
 253:../Middlewares/threadx/ports/cortex_m55/gnu/inc/tx_port.h **** #ifndef TX_MISRA_ENABLE
 254:../Middlewares/threadx/ports/cortex_m55/gnu/inc/tx_port.h **** #ifdef TX_ENABLE_STACK_CHECKING
 255:../Middlewares/threadx/ports/cortex_m55/gnu/inc/tx_port.h **** #undef TX_DISABLE_STACK_FILLING
 256:../Middlewares/threadx/ports/cortex_m55/gnu/inc/tx_port.h **** #endif
 257:../Middlewares/threadx/ports/cortex_m55/gnu/inc/tx_port.h **** #endif
ARM GAS  /tmp/cco7GNYv.s 			page 8


 258:../Middlewares/threadx/ports/cortex_m55/gnu/inc/tx_port.h **** 
 259:../Middlewares/threadx/ports/cortex_m55/gnu/inc/tx_port.h **** 
 260:../Middlewares/threadx/ports/cortex_m55/gnu/inc/tx_port.h **** /* Define the TX_THREAD control block extensions for this port. The main reason
 261:../Middlewares/threadx/ports/cortex_m55/gnu/inc/tx_port.h ****    for the multiple macros is so that backward compatibility can be maintained with
 262:../Middlewares/threadx/ports/cortex_m55/gnu/inc/tx_port.h ****    existing ThreadX kernel awareness modules.  */
 263:../Middlewares/threadx/ports/cortex_m55/gnu/inc/tx_port.h **** 
 264:../Middlewares/threadx/ports/cortex_m55/gnu/inc/tx_port.h **** #define TX_THREAD_EXTENSION_0
 265:../Middlewares/threadx/ports/cortex_m55/gnu/inc/tx_port.h **** #define TX_THREAD_EXTENSION_1
 266:../Middlewares/threadx/ports/cortex_m55/gnu/inc/tx_port.h **** 
 267:../Middlewares/threadx/ports/cortex_m55/gnu/inc/tx_port.h **** #ifdef  TX_ENABLE_IAR_LIBRARY_SUPPORT
 268:../Middlewares/threadx/ports/cortex_m55/gnu/inc/tx_port.h **** /* IAR library support */
 269:../Middlewares/threadx/ports/cortex_m55/gnu/inc/tx_port.h **** #if !defined(TX_SINGLE_MODE_SECURE) && !defined(TX_SINGLE_MODE_NON_SECURE)
 270:../Middlewares/threadx/ports/cortex_m55/gnu/inc/tx_port.h **** /* ThreadX in non-secure zone with calls to secure zone. */
 271:../Middlewares/threadx/ports/cortex_m55/gnu/inc/tx_port.h **** #define TX_THREAD_EXTENSION_2           VOID    *tx_thread_secure_stack_context;    \
 272:../Middlewares/threadx/ports/cortex_m55/gnu/inc/tx_port.h ****                                         VOID    *tx_thread_iar_tls_pointer;
 273:../Middlewares/threadx/ports/cortex_m55/gnu/inc/tx_port.h **** #else
 274:../Middlewares/threadx/ports/cortex_m55/gnu/inc/tx_port.h **** /* ThreadX in only one zone. */
 275:../Middlewares/threadx/ports/cortex_m55/gnu/inc/tx_port.h **** #define TX_THREAD_EXTENSION_2           VOID    *tx_thread_iar_tls_pointer;
 276:../Middlewares/threadx/ports/cortex_m55/gnu/inc/tx_port.h **** #endif
 277:../Middlewares/threadx/ports/cortex_m55/gnu/inc/tx_port.h **** 
 278:../Middlewares/threadx/ports/cortex_m55/gnu/inc/tx_port.h **** #else
 279:../Middlewares/threadx/ports/cortex_m55/gnu/inc/tx_port.h **** /* No IAR library support */
 280:../Middlewares/threadx/ports/cortex_m55/gnu/inc/tx_port.h **** #if !defined(TX_SINGLE_MODE_SECURE) && !defined(TX_SINGLE_MODE_NON_SECURE)
 281:../Middlewares/threadx/ports/cortex_m55/gnu/inc/tx_port.h **** /* ThreadX in non-secure zone with calls to secure zone. */
 282:../Middlewares/threadx/ports/cortex_m55/gnu/inc/tx_port.h **** #define TX_THREAD_EXTENSION_2           VOID    *tx_thread_secure_stack_context;
 283:../Middlewares/threadx/ports/cortex_m55/gnu/inc/tx_port.h **** #else
 284:../Middlewares/threadx/ports/cortex_m55/gnu/inc/tx_port.h **** /* ThreadX in only one zone. */
 285:../Middlewares/threadx/ports/cortex_m55/gnu/inc/tx_port.h **** #define TX_THREAD_EXTENSION_2
 286:../Middlewares/threadx/ports/cortex_m55/gnu/inc/tx_port.h **** #endif
 287:../Middlewares/threadx/ports/cortex_m55/gnu/inc/tx_port.h **** 
 288:../Middlewares/threadx/ports/cortex_m55/gnu/inc/tx_port.h **** #endif  /* TX_ENABLE_IAR_LIBRARY_SUPPORT */
 289:../Middlewares/threadx/ports/cortex_m55/gnu/inc/tx_port.h **** 
 290:../Middlewares/threadx/ports/cortex_m55/gnu/inc/tx_port.h **** #define TX_THREAD_EXTENSION_3
 291:../Middlewares/threadx/ports/cortex_m55/gnu/inc/tx_port.h **** 
 292:../Middlewares/threadx/ports/cortex_m55/gnu/inc/tx_port.h **** 
 293:../Middlewares/threadx/ports/cortex_m55/gnu/inc/tx_port.h **** /* Define the port extensions of the remaining ThreadX objects.  */
 294:../Middlewares/threadx/ports/cortex_m55/gnu/inc/tx_port.h **** 
 295:../Middlewares/threadx/ports/cortex_m55/gnu/inc/tx_port.h **** #define TX_BLOCK_POOL_EXTENSION
 296:../Middlewares/threadx/ports/cortex_m55/gnu/inc/tx_port.h **** #define TX_BYTE_POOL_EXTENSION
 297:../Middlewares/threadx/ports/cortex_m55/gnu/inc/tx_port.h **** #define TX_EVENT_FLAGS_GROUP_EXTENSION
 298:../Middlewares/threadx/ports/cortex_m55/gnu/inc/tx_port.h **** #define TX_MUTEX_EXTENSION
 299:../Middlewares/threadx/ports/cortex_m55/gnu/inc/tx_port.h **** #define TX_QUEUE_EXTENSION
 300:../Middlewares/threadx/ports/cortex_m55/gnu/inc/tx_port.h **** #define TX_SEMAPHORE_EXTENSION
 301:../Middlewares/threadx/ports/cortex_m55/gnu/inc/tx_port.h **** #define TX_TIMER_EXTENSION
 302:../Middlewares/threadx/ports/cortex_m55/gnu/inc/tx_port.h **** 
 303:../Middlewares/threadx/ports/cortex_m55/gnu/inc/tx_port.h **** 
 304:../Middlewares/threadx/ports/cortex_m55/gnu/inc/tx_port.h **** /* Define the user extension field of the thread control block.  Nothing
 305:../Middlewares/threadx/ports/cortex_m55/gnu/inc/tx_port.h ****    additional is needed for this port so it is defined as white space.  */
 306:../Middlewares/threadx/ports/cortex_m55/gnu/inc/tx_port.h **** 
 307:../Middlewares/threadx/ports/cortex_m55/gnu/inc/tx_port.h **** #ifndef TX_THREAD_USER_EXTENSION
 308:../Middlewares/threadx/ports/cortex_m55/gnu/inc/tx_port.h **** #define TX_THREAD_USER_EXTENSION
 309:../Middlewares/threadx/ports/cortex_m55/gnu/inc/tx_port.h **** #endif
 310:../Middlewares/threadx/ports/cortex_m55/gnu/inc/tx_port.h **** 
 311:../Middlewares/threadx/ports/cortex_m55/gnu/inc/tx_port.h **** 
 312:../Middlewares/threadx/ports/cortex_m55/gnu/inc/tx_port.h **** /* Define the macros for processing extensions in tx_thread_create, tx_thread_delete,
 313:../Middlewares/threadx/ports/cortex_m55/gnu/inc/tx_port.h ****    tx_thread_shell_entry, and tx_thread_terminate.  */
 314:../Middlewares/threadx/ports/cortex_m55/gnu/inc/tx_port.h **** #ifdef  TX_ENABLE_IAR_LIBRARY_SUPPORT
ARM GAS  /tmp/cco7GNYv.s 			page 9


 315:../Middlewares/threadx/ports/cortex_m55/gnu/inc/tx_port.h **** void    *_tx_iar_create_per_thread_tls_area(void);
 316:../Middlewares/threadx/ports/cortex_m55/gnu/inc/tx_port.h **** void    _tx_iar_destroy_per_thread_tls_area(void *tls_ptr);
 317:../Middlewares/threadx/ports/cortex_m55/gnu/inc/tx_port.h **** void    __iar_Initlocks(void);
 318:../Middlewares/threadx/ports/cortex_m55/gnu/inc/tx_port.h **** #define TX_THREAD_CREATE_EXTENSION(thread_ptr)                      thread_ptr -> tx_thread_iar_tls
 319:../Middlewares/threadx/ports/cortex_m55/gnu/inc/tx_port.h **** 
 320:../Middlewares/threadx/ports/cortex_m55/gnu/inc/tx_port.h **** #if !defined(TX_SINGLE_MODE_SECURE) && !defined(TX_SINGLE_MODE_NON_SECURE)
 321:../Middlewares/threadx/ports/cortex_m55/gnu/inc/tx_port.h **** #define TX_THREAD_DELETE_EXTENSION(thread_ptr)                      do {_tx_iar_destroy_per_thread_
 322:../Middlewares/threadx/ports/cortex_m55/gnu/inc/tx_port.h ****                                                                         thread_ptr -> tx_thread_iar
 323:../Middlewares/threadx/ports/cortex_m55/gnu/inc/tx_port.h ****                                                                     if(thread_ptr -> tx_thread_secu
 324:../Middlewares/threadx/ports/cortex_m55/gnu/inc/tx_port.h **** #else
 325:../Middlewares/threadx/ports/cortex_m55/gnu/inc/tx_port.h **** #define TX_THREAD_DELETE_EXTENSION(thread_ptr)                      do {_tx_iar_destroy_per_thread_
 326:../Middlewares/threadx/ports/cortex_m55/gnu/inc/tx_port.h ****                                                                         thread_ptr -> tx_thread_iar
 327:../Middlewares/threadx/ports/cortex_m55/gnu/inc/tx_port.h **** #endif
 328:../Middlewares/threadx/ports/cortex_m55/gnu/inc/tx_port.h **** #define TX_PORT_SPECIFIC_PRE_SCHEDULER_INITIALIZATION               do {__iar_Initlocks();} while(0
 329:../Middlewares/threadx/ports/cortex_m55/gnu/inc/tx_port.h **** 
 330:../Middlewares/threadx/ports/cortex_m55/gnu/inc/tx_port.h **** #else   /* No IAR library support. */
 331:../Middlewares/threadx/ports/cortex_m55/gnu/inc/tx_port.h **** #define TX_THREAD_CREATE_EXTENSION(thread_ptr)
 332:../Middlewares/threadx/ports/cortex_m55/gnu/inc/tx_port.h **** #if !defined(TX_SINGLE_MODE_SECURE) && !defined(TX_SINGLE_MODE_NON_SECURE)
 333:../Middlewares/threadx/ports/cortex_m55/gnu/inc/tx_port.h **** #define TX_THREAD_DELETE_EXTENSION(thread_ptr)                      if(thread_ptr -> tx_thread_secu
 334:../Middlewares/threadx/ports/cortex_m55/gnu/inc/tx_port.h **** #else
 335:../Middlewares/threadx/ports/cortex_m55/gnu/inc/tx_port.h **** #define TX_THREAD_DELETE_EXTENSION(thread_ptr)
 336:../Middlewares/threadx/ports/cortex_m55/gnu/inc/tx_port.h **** #endif
 337:../Middlewares/threadx/ports/cortex_m55/gnu/inc/tx_port.h **** #endif  /* TX_ENABLE_IAR_LIBRARY_SUPPORT */
 338:../Middlewares/threadx/ports/cortex_m55/gnu/inc/tx_port.h **** 
 339:../Middlewares/threadx/ports/cortex_m55/gnu/inc/tx_port.h **** #if !defined(TX_SINGLE_MODE_SECURE) && !defined(TX_SINGLE_MODE_NON_SECURE)
 340:../Middlewares/threadx/ports/cortex_m55/gnu/inc/tx_port.h **** /* Define the size of the secure stack for the timer thread and use the extension to allocate the s
 341:../Middlewares/threadx/ports/cortex_m55/gnu/inc/tx_port.h **** #define TX_TIMER_THREAD_SECURE_STACK_SIZE       256
 342:../Middlewares/threadx/ports/cortex_m55/gnu/inc/tx_port.h **** #define TX_TIMER_INITIALIZE_EXTENSION(status)   _tx_thread_secure_stack_allocate(&_tx_timer_thread,
 343:../Middlewares/threadx/ports/cortex_m55/gnu/inc/tx_port.h **** #endif
 344:../Middlewares/threadx/ports/cortex_m55/gnu/inc/tx_port.h **** 
 345:../Middlewares/threadx/ports/cortex_m55/gnu/inc/tx_port.h **** 
 346:../Middlewares/threadx/ports/cortex_m55/gnu/inc/tx_port.h **** #if defined(__ARMVFP__) || defined(__ARM_PCS_VFP) || defined(__ARM_FP) || defined(__TARGET_FPU_VFP)
 347:../Middlewares/threadx/ports/cortex_m55/gnu/inc/tx_port.h **** 
 348:../Middlewares/threadx/ports/cortex_m55/gnu/inc/tx_port.h **** #ifdef TX_MISRA_ENABLE
 349:../Middlewares/threadx/ports/cortex_m55/gnu/inc/tx_port.h **** 
 350:../Middlewares/threadx/ports/cortex_m55/gnu/inc/tx_port.h **** ULONG  _tx_misra_control_get(void);
 351:../Middlewares/threadx/ports/cortex_m55/gnu/inc/tx_port.h **** void   _tx_misra_control_set(ULONG value);
 352:../Middlewares/threadx/ports/cortex_m55/gnu/inc/tx_port.h **** ULONG  _tx_misra_fpccr_get(void);
 353:../Middlewares/threadx/ports/cortex_m55/gnu/inc/tx_port.h **** void   _tx_misra_vfp_touch(void);
 354:../Middlewares/threadx/ports/cortex_m55/gnu/inc/tx_port.h **** 
 355:../Middlewares/threadx/ports/cortex_m55/gnu/inc/tx_port.h **** #else   /* TX_MISRA_ENABLE not defined */
 356:../Middlewares/threadx/ports/cortex_m55/gnu/inc/tx_port.h **** 
 357:../Middlewares/threadx/ports/cortex_m55/gnu/inc/tx_port.h **** #ifdef __GNUC__ /* GCC and ARM Compiler 6 */
 358:../Middlewares/threadx/ports/cortex_m55/gnu/inc/tx_port.h **** 
 359:../Middlewares/threadx/ports/cortex_m55/gnu/inc/tx_port.h **** __attribute__( ( always_inline ) ) static inline ULONG _tx_control_get(void)
 360:../Middlewares/threadx/ports/cortex_m55/gnu/inc/tx_port.h **** {
 361:../Middlewares/threadx/ports/cortex_m55/gnu/inc/tx_port.h **** ULONG  control_value;
 362:../Middlewares/threadx/ports/cortex_m55/gnu/inc/tx_port.h **** 
 363:../Middlewares/threadx/ports/cortex_m55/gnu/inc/tx_port.h ****     __asm__ volatile (" MRS  %0,CONTROL ": "=r" (control_value) );
 364:../Middlewares/threadx/ports/cortex_m55/gnu/inc/tx_port.h ****     return(control_value);
 365:../Middlewares/threadx/ports/cortex_m55/gnu/inc/tx_port.h **** }
 366:../Middlewares/threadx/ports/cortex_m55/gnu/inc/tx_port.h **** 
 367:../Middlewares/threadx/ports/cortex_m55/gnu/inc/tx_port.h **** __attribute__( ( always_inline ) ) static inline void _tx_control_set(ULONG control_value)
 368:../Middlewares/threadx/ports/cortex_m55/gnu/inc/tx_port.h **** {
 369:../Middlewares/threadx/ports/cortex_m55/gnu/inc/tx_port.h ****     __asm__ volatile (" MSR  CONTROL,%0": : "r" (control_value): "memory" );
 370:../Middlewares/threadx/ports/cortex_m55/gnu/inc/tx_port.h **** }
 371:../Middlewares/threadx/ports/cortex_m55/gnu/inc/tx_port.h **** 
ARM GAS  /tmp/cco7GNYv.s 			page 10


 372:../Middlewares/threadx/ports/cortex_m55/gnu/inc/tx_port.h **** #endif  /* __GNUC__ */
 373:../Middlewares/threadx/ports/cortex_m55/gnu/inc/tx_port.h **** 
 374:../Middlewares/threadx/ports/cortex_m55/gnu/inc/tx_port.h **** /* Touch VFP register in order to flush. Works for AC6/GCC/IAR compilers. */
 375:../Middlewares/threadx/ports/cortex_m55/gnu/inc/tx_port.h **** #define TX_VFP_TOUCH()  __asm__ volatile ("VMOV.F32 s0, s0");
 376:../Middlewares/threadx/ports/cortex_m55/gnu/inc/tx_port.h **** 
 377:../Middlewares/threadx/ports/cortex_m55/gnu/inc/tx_port.h **** #endif  /* TX_MISRA_ENABLE */
 378:../Middlewares/threadx/ports/cortex_m55/gnu/inc/tx_port.h **** 
 379:../Middlewares/threadx/ports/cortex_m55/gnu/inc/tx_port.h **** /* A completed thread falls into _thread_shell_entry and we can simply deactivate the FPU via CONTR
 380:../Middlewares/threadx/ports/cortex_m55/gnu/inc/tx_port.h ****    in order to ensure no lazy stacking will occur. */
 381:../Middlewares/threadx/ports/cortex_m55/gnu/inc/tx_port.h **** 
 382:../Middlewares/threadx/ports/cortex_m55/gnu/inc/tx_port.h **** #ifndef TX_MISRA_ENABLE
 383:../Middlewares/threadx/ports/cortex_m55/gnu/inc/tx_port.h **** 
 384:../Middlewares/threadx/ports/cortex_m55/gnu/inc/tx_port.h **** #define TX_THREAD_COMPLETED_EXTENSION(thread_ptr)   {                                              
 385:../Middlewares/threadx/ports/cortex_m55/gnu/inc/tx_port.h ****                                                     ULONG  _tx_vfp_state;                          
 386:../Middlewares/threadx/ports/cortex_m55/gnu/inc/tx_port.h ****                                                         _tx_vfp_state = _tx_control_get();         
 387:../Middlewares/threadx/ports/cortex_m55/gnu/inc/tx_port.h ****                                                         _tx_vfp_state = _tx_vfp_state & ~((ULONG) 0
 388:../Middlewares/threadx/ports/cortex_m55/gnu/inc/tx_port.h ****                                                         _tx_control_set(_tx_vfp_state);            
 389:../Middlewares/threadx/ports/cortex_m55/gnu/inc/tx_port.h ****                                                     }
 390:../Middlewares/threadx/ports/cortex_m55/gnu/inc/tx_port.h **** #else
 391:../Middlewares/threadx/ports/cortex_m55/gnu/inc/tx_port.h **** 
 392:../Middlewares/threadx/ports/cortex_m55/gnu/inc/tx_port.h **** #define TX_THREAD_COMPLETED_EXTENSION(thread_ptr)   {                                              
 393:../Middlewares/threadx/ports/cortex_m55/gnu/inc/tx_port.h ****                                                     ULONG  _tx_vfp_state;                          
 394:../Middlewares/threadx/ports/cortex_m55/gnu/inc/tx_port.h ****                                                         _tx_vfp_state = _tx_misra_control_get();   
 395:../Middlewares/threadx/ports/cortex_m55/gnu/inc/tx_port.h ****                                                         _tx_vfp_state = _tx_vfp_state & ~((ULONG) 0
 396:../Middlewares/threadx/ports/cortex_m55/gnu/inc/tx_port.h ****                                                         _tx_misra_control_set(_tx_vfp_state);      
 397:../Middlewares/threadx/ports/cortex_m55/gnu/inc/tx_port.h ****                                                     }
 398:../Middlewares/threadx/ports/cortex_m55/gnu/inc/tx_port.h **** #endif
 399:../Middlewares/threadx/ports/cortex_m55/gnu/inc/tx_port.h **** 
 400:../Middlewares/threadx/ports/cortex_m55/gnu/inc/tx_port.h **** /* A thread can be terminated by another thread, so we first check if it's self-terminating and not
 401:../Middlewares/threadx/ports/cortex_m55/gnu/inc/tx_port.h ****    If so, deactivate the FPU via CONTROL.FPCA. Otherwise we are in an interrupt or another thread i
 402:../Middlewares/threadx/ports/cortex_m55/gnu/inc/tx_port.h ****    this one, so if the FPCCR.LSPACT bit is set, we need to save the CONTROL.FPCA state, touch the F
 403:../Middlewares/threadx/ports/cortex_m55/gnu/inc/tx_port.h ****    the lazy FPU save, then restore the CONTROL.FPCA state. */
 404:../Middlewares/threadx/ports/cortex_m55/gnu/inc/tx_port.h **** 
 405:../Middlewares/threadx/ports/cortex_m55/gnu/inc/tx_port.h **** #ifndef TX_MISRA_ENABLE
 406:../Middlewares/threadx/ports/cortex_m55/gnu/inc/tx_port.h **** 
 407:../Middlewares/threadx/ports/cortex_m55/gnu/inc/tx_port.h **** #define TX_THREAD_TERMINATED_EXTENSION(thread_ptr)  {                                              
 408:../Middlewares/threadx/ports/cortex_m55/gnu/inc/tx_port.h ****                                                     ULONG  _tx_system_state;                       
 409:../Middlewares/threadx/ports/cortex_m55/gnu/inc/tx_port.h ****                                                         _tx_system_state = TX_THREAD_GET_SYSTEM_STA
 410:../Middlewares/threadx/ports/cortex_m55/gnu/inc/tx_port.h ****                                                         if ((_tx_system_state == ((ULONG) 0)) && ((
 411:../Middlewares/threadx/ports/cortex_m55/gnu/inc/tx_port.h ****                                                         {                                          
 412:../Middlewares/threadx/ports/cortex_m55/gnu/inc/tx_port.h ****                                                         ULONG  _tx_vfp_state;                      
 413:../Middlewares/threadx/ports/cortex_m55/gnu/inc/tx_port.h ****                                                             _tx_vfp_state = _tx_control_get();     
 414:../Middlewares/threadx/ports/cortex_m55/gnu/inc/tx_port.h ****                                                             _tx_vfp_state = _tx_vfp_state & ~((ULON
 415:../Middlewares/threadx/ports/cortex_m55/gnu/inc/tx_port.h ****                                                             _tx_control_set(_tx_vfp_state);        
 416:../Middlewares/threadx/ports/cortex_m55/gnu/inc/tx_port.h ****                                                         }                                          
 417:../Middlewares/threadx/ports/cortex_m55/gnu/inc/tx_port.h ****                                                         else                                       
 418:../Middlewares/threadx/ports/cortex_m55/gnu/inc/tx_port.h ****                                                         {                                          
 419:../Middlewares/threadx/ports/cortex_m55/gnu/inc/tx_port.h ****                                                         ULONG  _tx_fpccr;                          
 420:../Middlewares/threadx/ports/cortex_m55/gnu/inc/tx_port.h ****                                                             _tx_fpccr = *((volatile ULONG *) 0xE000
 421:../Middlewares/threadx/ports/cortex_m55/gnu/inc/tx_port.h ****                                                             _tx_fpccr = _tx_fpccr & ((ULONG) 0x01);
 422:../Middlewares/threadx/ports/cortex_m55/gnu/inc/tx_port.h ****                                                             if (_tx_fpccr == ((ULONG) 0x01))       
 423:../Middlewares/threadx/ports/cortex_m55/gnu/inc/tx_port.h ****                                                             {                                      
 424:../Middlewares/threadx/ports/cortex_m55/gnu/inc/tx_port.h ****                                                             ULONG _tx_vfp_state;                   
 425:../Middlewares/threadx/ports/cortex_m55/gnu/inc/tx_port.h ****                                                                 _tx_vfp_state = _tx_control_get(); 
 426:../Middlewares/threadx/ports/cortex_m55/gnu/inc/tx_port.h ****                                                                 _tx_vfp_state = _tx_vfp_state & ((U
 427:../Middlewares/threadx/ports/cortex_m55/gnu/inc/tx_port.h ****                                                                 TX_VFP_TOUCH();                    
 428:../Middlewares/threadx/ports/cortex_m55/gnu/inc/tx_port.h ****                                                                 if (_tx_vfp_state == ((ULONG) 0))  
ARM GAS  /tmp/cco7GNYv.s 			page 11


 429:../Middlewares/threadx/ports/cortex_m55/gnu/inc/tx_port.h ****                                                                 {                                  
 430:../Middlewares/threadx/ports/cortex_m55/gnu/inc/tx_port.h ****                                                                     _tx_vfp_state = _tx_control_get
 431:../Middlewares/threadx/ports/cortex_m55/gnu/inc/tx_port.h ****                                                                     _tx_vfp_state = _tx_vfp_state &
 432:../Middlewares/threadx/ports/cortex_m55/gnu/inc/tx_port.h ****                                                                     _tx_control_set(_tx_vfp_state);
 433:../Middlewares/threadx/ports/cortex_m55/gnu/inc/tx_port.h ****                                                                 }                                  
 434:../Middlewares/threadx/ports/cortex_m55/gnu/inc/tx_port.h ****                                                             }                                      
 435:../Middlewares/threadx/ports/cortex_m55/gnu/inc/tx_port.h ****                                                         }                                          
 436:../Middlewares/threadx/ports/cortex_m55/gnu/inc/tx_port.h ****                                                     }
 437:../Middlewares/threadx/ports/cortex_m55/gnu/inc/tx_port.h **** #else
 438:../Middlewares/threadx/ports/cortex_m55/gnu/inc/tx_port.h **** 
 439:../Middlewares/threadx/ports/cortex_m55/gnu/inc/tx_port.h **** #define TX_THREAD_TERMINATED_EXTENSION(thread_ptr)  {                                              
 440:../Middlewares/threadx/ports/cortex_m55/gnu/inc/tx_port.h ****                                                     ULONG  _tx_system_state;                       
 441:../Middlewares/threadx/ports/cortex_m55/gnu/inc/tx_port.h ****                                                         _tx_system_state = TX_THREAD_GET_SYSTEM_STA
 442:../Middlewares/threadx/ports/cortex_m55/gnu/inc/tx_port.h ****                                                         if ((_tx_system_state == ((ULONG) 0)) && ((
 443:../Middlewares/threadx/ports/cortex_m55/gnu/inc/tx_port.h ****                                                         {                                          
 444:../Middlewares/threadx/ports/cortex_m55/gnu/inc/tx_port.h ****                                                         ULONG  _tx_vfp_state;                      
 445:../Middlewares/threadx/ports/cortex_m55/gnu/inc/tx_port.h ****                                                             _tx_vfp_state = _tx_misra_control_get()
 446:../Middlewares/threadx/ports/cortex_m55/gnu/inc/tx_port.h ****                                                             _tx_vfp_state = _tx_vfp_state & ~((ULON
 447:../Middlewares/threadx/ports/cortex_m55/gnu/inc/tx_port.h ****                                                             _tx_misra_control_set(_tx_vfp_state);  
 448:../Middlewares/threadx/ports/cortex_m55/gnu/inc/tx_port.h ****                                                         }                                          
 449:../Middlewares/threadx/ports/cortex_m55/gnu/inc/tx_port.h ****                                                         else                                       
 450:../Middlewares/threadx/ports/cortex_m55/gnu/inc/tx_port.h ****                                                         {                                          
 451:../Middlewares/threadx/ports/cortex_m55/gnu/inc/tx_port.h ****                                                         ULONG  _tx_fpccr;                          
 452:../Middlewares/threadx/ports/cortex_m55/gnu/inc/tx_port.h ****                                                             _tx_fpccr = _tx_misra_fpccr_get();     
 453:../Middlewares/threadx/ports/cortex_m55/gnu/inc/tx_port.h ****                                                             _tx_fpccr = _tx_fpccr & ((ULONG) 0x01);
 454:../Middlewares/threadx/ports/cortex_m55/gnu/inc/tx_port.h ****                                                             if (_tx_fpccr == ((ULONG) 0x01))       
 455:../Middlewares/threadx/ports/cortex_m55/gnu/inc/tx_port.h ****                                                             {                                      
 456:../Middlewares/threadx/ports/cortex_m55/gnu/inc/tx_port.h ****                                                             ULONG _tx_vfp_state;                   
 457:../Middlewares/threadx/ports/cortex_m55/gnu/inc/tx_port.h ****                                                                 _tx_vfp_state = _tx_misra_control_g
 458:../Middlewares/threadx/ports/cortex_m55/gnu/inc/tx_port.h ****                                                                 _tx_vfp_state = _tx_vfp_state & ((U
 459:../Middlewares/threadx/ports/cortex_m55/gnu/inc/tx_port.h ****                                                                 _tx_misra_vfp_touch();             
 460:../Middlewares/threadx/ports/cortex_m55/gnu/inc/tx_port.h ****                                                                 if (_tx_vfp_state == ((ULONG) 0))  
 461:../Middlewares/threadx/ports/cortex_m55/gnu/inc/tx_port.h ****                                                                 {                                  
 462:../Middlewares/threadx/ports/cortex_m55/gnu/inc/tx_port.h ****                                                                     _tx_vfp_state = _tx_misra_contr
 463:../Middlewares/threadx/ports/cortex_m55/gnu/inc/tx_port.h ****                                                                     _tx_vfp_state = _tx_vfp_state &
 464:../Middlewares/threadx/ports/cortex_m55/gnu/inc/tx_port.h ****                                                                     _tx_misra_control_set(_tx_vfp_s
 465:../Middlewares/threadx/ports/cortex_m55/gnu/inc/tx_port.h ****                                                                 }                                  
 466:../Middlewares/threadx/ports/cortex_m55/gnu/inc/tx_port.h ****                                                             }                                      
 467:../Middlewares/threadx/ports/cortex_m55/gnu/inc/tx_port.h ****                                                         }                                          
 468:../Middlewares/threadx/ports/cortex_m55/gnu/inc/tx_port.h ****                                                     }
 469:../Middlewares/threadx/ports/cortex_m55/gnu/inc/tx_port.h **** #endif
 470:../Middlewares/threadx/ports/cortex_m55/gnu/inc/tx_port.h **** 
 471:../Middlewares/threadx/ports/cortex_m55/gnu/inc/tx_port.h **** #else   /* No VFP in use */
 472:../Middlewares/threadx/ports/cortex_m55/gnu/inc/tx_port.h **** 
 473:../Middlewares/threadx/ports/cortex_m55/gnu/inc/tx_port.h **** #define TX_THREAD_COMPLETED_EXTENSION(thread_ptr)
 474:../Middlewares/threadx/ports/cortex_m55/gnu/inc/tx_port.h **** #define TX_THREAD_TERMINATED_EXTENSION(thread_ptr)
 475:../Middlewares/threadx/ports/cortex_m55/gnu/inc/tx_port.h **** 
 476:../Middlewares/threadx/ports/cortex_m55/gnu/inc/tx_port.h **** #endif  /* defined(__ARMVFP__) || defined(__ARM_PCS_VFP) || defined(__ARM_FP) || defined(__TARGET_F
 477:../Middlewares/threadx/ports/cortex_m55/gnu/inc/tx_port.h **** 
 478:../Middlewares/threadx/ports/cortex_m55/gnu/inc/tx_port.h **** 
 479:../Middlewares/threadx/ports/cortex_m55/gnu/inc/tx_port.h **** /* Define the ThreadX object creation extensions for the remaining objects.  */
 480:../Middlewares/threadx/ports/cortex_m55/gnu/inc/tx_port.h **** 
 481:../Middlewares/threadx/ports/cortex_m55/gnu/inc/tx_port.h **** #define TX_BLOCK_POOL_CREATE_EXTENSION(pool_ptr)
 482:../Middlewares/threadx/ports/cortex_m55/gnu/inc/tx_port.h **** #define TX_BYTE_POOL_CREATE_EXTENSION(pool_ptr)
 483:../Middlewares/threadx/ports/cortex_m55/gnu/inc/tx_port.h **** #define TX_EVENT_FLAGS_GROUP_CREATE_EXTENSION(group_ptr)
 484:../Middlewares/threadx/ports/cortex_m55/gnu/inc/tx_port.h **** #define TX_MUTEX_CREATE_EXTENSION(mutex_ptr)
 485:../Middlewares/threadx/ports/cortex_m55/gnu/inc/tx_port.h **** #define TX_QUEUE_CREATE_EXTENSION(queue_ptr)
ARM GAS  /tmp/cco7GNYv.s 			page 12


 486:../Middlewares/threadx/ports/cortex_m55/gnu/inc/tx_port.h **** #define TX_SEMAPHORE_CREATE_EXTENSION(semaphore_ptr)
 487:../Middlewares/threadx/ports/cortex_m55/gnu/inc/tx_port.h **** #define TX_TIMER_CREATE_EXTENSION(timer_ptr)
 488:../Middlewares/threadx/ports/cortex_m55/gnu/inc/tx_port.h **** 
 489:../Middlewares/threadx/ports/cortex_m55/gnu/inc/tx_port.h **** 
 490:../Middlewares/threadx/ports/cortex_m55/gnu/inc/tx_port.h **** /* Define the ThreadX object deletion extensions for the remaining objects.  */
 491:../Middlewares/threadx/ports/cortex_m55/gnu/inc/tx_port.h **** 
 492:../Middlewares/threadx/ports/cortex_m55/gnu/inc/tx_port.h **** #define TX_BLOCK_POOL_DELETE_EXTENSION(pool_ptr)
 493:../Middlewares/threadx/ports/cortex_m55/gnu/inc/tx_port.h **** #define TX_BYTE_POOL_DELETE_EXTENSION(pool_ptr)
 494:../Middlewares/threadx/ports/cortex_m55/gnu/inc/tx_port.h **** #define TX_EVENT_FLAGS_GROUP_DELETE_EXTENSION(group_ptr)
 495:../Middlewares/threadx/ports/cortex_m55/gnu/inc/tx_port.h **** #define TX_MUTEX_DELETE_EXTENSION(mutex_ptr)
 496:../Middlewares/threadx/ports/cortex_m55/gnu/inc/tx_port.h **** #define TX_QUEUE_DELETE_EXTENSION(queue_ptr)
 497:../Middlewares/threadx/ports/cortex_m55/gnu/inc/tx_port.h **** #define TX_SEMAPHORE_DELETE_EXTENSION(semaphore_ptr)
 498:../Middlewares/threadx/ports/cortex_m55/gnu/inc/tx_port.h **** #define TX_TIMER_DELETE_EXTENSION(timer_ptr)
 499:../Middlewares/threadx/ports/cortex_m55/gnu/inc/tx_port.h **** 
 500:../Middlewares/threadx/ports/cortex_m55/gnu/inc/tx_port.h **** 
 501:../Middlewares/threadx/ports/cortex_m55/gnu/inc/tx_port.h **** /* Define the get system state macro.  */
 502:../Middlewares/threadx/ports/cortex_m55/gnu/inc/tx_port.h **** 
 503:../Middlewares/threadx/ports/cortex_m55/gnu/inc/tx_port.h **** #ifndef TX_THREAD_GET_SYSTEM_STATE
 504:../Middlewares/threadx/ports/cortex_m55/gnu/inc/tx_port.h **** #ifndef TX_MISRA_ENABLE
 505:../Middlewares/threadx/ports/cortex_m55/gnu/inc/tx_port.h **** 
 506:../Middlewares/threadx/ports/cortex_m55/gnu/inc/tx_port.h **** #if defined(__GNUC__) /* GCC and AC6 */
 507:../Middlewares/threadx/ports/cortex_m55/gnu/inc/tx_port.h **** __attribute__( ( always_inline ) ) static inline UINT _tx_ipsr_get(void)
 508:../Middlewares/threadx/ports/cortex_m55/gnu/inc/tx_port.h **** {
 509:../Middlewares/threadx/ports/cortex_m55/gnu/inc/tx_port.h **** UINT ipsr_value;
 510:../Middlewares/threadx/ports/cortex_m55/gnu/inc/tx_port.h ****     __asm__ volatile (" MRS  %0,IPSR ": "=r" (ipsr_value) );
 511:../Middlewares/threadx/ports/cortex_m55/gnu/inc/tx_port.h ****     return(ipsr_value);
 512:../Middlewares/threadx/ports/cortex_m55/gnu/inc/tx_port.h **** }
 513:../Middlewares/threadx/ports/cortex_m55/gnu/inc/tx_port.h **** #endif  /* GCC and AC6 IPSR_get function. */
 514:../Middlewares/threadx/ports/cortex_m55/gnu/inc/tx_port.h **** 
 515:../Middlewares/threadx/ports/cortex_m55/gnu/inc/tx_port.h **** #define TX_THREAD_GET_SYSTEM_STATE()        (_tx_thread_system_state | _tx_ipsr_get())
 516:../Middlewares/threadx/ports/cortex_m55/gnu/inc/tx_port.h **** 
 517:../Middlewares/threadx/ports/cortex_m55/gnu/inc/tx_port.h **** #else   /* TX_MISRA_ENABLE is defined, use MISRA function. */
 518:../Middlewares/threadx/ports/cortex_m55/gnu/inc/tx_port.h **** ULONG   _tx_misra_ipsr_get(VOID);
 519:../Middlewares/threadx/ports/cortex_m55/gnu/inc/tx_port.h **** #define TX_THREAD_GET_SYSTEM_STATE()        (_tx_thread_system_state | _tx_misra_ipsr_get())
 520:../Middlewares/threadx/ports/cortex_m55/gnu/inc/tx_port.h **** #endif  /* TX_MISRA_ENABLE */
 521:../Middlewares/threadx/ports/cortex_m55/gnu/inc/tx_port.h **** #endif  /* TX_THREAD_GET_SYSTEM_STATE */
 522:../Middlewares/threadx/ports/cortex_m55/gnu/inc/tx_port.h **** 
 523:../Middlewares/threadx/ports/cortex_m55/gnu/inc/tx_port.h **** 
 524:../Middlewares/threadx/ports/cortex_m55/gnu/inc/tx_port.h **** /* Define the check for whether or not to call the _tx_thread_system_return function.  A non-zero v
 525:../Middlewares/threadx/ports/cortex_m55/gnu/inc/tx_port.h ****    indicates that _tx_thread_system_return should not be called. This overrides the definition in t
 526:../Middlewares/threadx/ports/cortex_m55/gnu/inc/tx_port.h ****    for Cortex-M since so we don't waste time checking the _tx_thread_system_state variable that is 
 527:../Middlewares/threadx/ports/cortex_m55/gnu/inc/tx_port.h ****    zero after initialization for Cortex-M ports. */
 528:../Middlewares/threadx/ports/cortex_m55/gnu/inc/tx_port.h **** 
 529:../Middlewares/threadx/ports/cortex_m55/gnu/inc/tx_port.h **** #ifndef TX_THREAD_SYSTEM_RETURN_CHECK
 530:../Middlewares/threadx/ports/cortex_m55/gnu/inc/tx_port.h **** #define TX_THREAD_SYSTEM_RETURN_CHECK(c)    (c) = ((ULONG) _tx_thread_preempt_disable);
 531:../Middlewares/threadx/ports/cortex_m55/gnu/inc/tx_port.h **** #endif
 532:../Middlewares/threadx/ports/cortex_m55/gnu/inc/tx_port.h **** 
 533:../Middlewares/threadx/ports/cortex_m55/gnu/inc/tx_port.h **** #if !defined(TX_SINGLE_MODE_SECURE) && !defined(TX_SINGLE_MODE_NON_SECURE)
 534:../Middlewares/threadx/ports/cortex_m55/gnu/inc/tx_port.h **** /* Initialize secure stacks for threads calling secure functions. */
 535:../Middlewares/threadx/ports/cortex_m55/gnu/inc/tx_port.h **** extern void    _tx_thread_secure_stack_initialize(void);
 536:../Middlewares/threadx/ports/cortex_m55/gnu/inc/tx_port.h **** #define TX_PORT_SPECIFIC_PRE_INITIALIZATION             _tx_thread_secure_stack_initialize();
 537:../Middlewares/threadx/ports/cortex_m55/gnu/inc/tx_port.h **** #endif
 538:../Middlewares/threadx/ports/cortex_m55/gnu/inc/tx_port.h **** 
 539:../Middlewares/threadx/ports/cortex_m55/gnu/inc/tx_port.h **** /* Define the macro to ensure _tx_thread_preempt_disable is set early in initialization in order to
 540:../Middlewares/threadx/ports/cortex_m55/gnu/inc/tx_port.h ****    prevent early scheduling on Cortex-M parts.  */
 541:../Middlewares/threadx/ports/cortex_m55/gnu/inc/tx_port.h **** 
 542:../Middlewares/threadx/ports/cortex_m55/gnu/inc/tx_port.h **** #define TX_PORT_SPECIFIC_POST_INITIALIZATION    _tx_thread_preempt_disable++;
ARM GAS  /tmp/cco7GNYv.s 			page 13


 543:../Middlewares/threadx/ports/cortex_m55/gnu/inc/tx_port.h **** 
 544:../Middlewares/threadx/ports/cortex_m55/gnu/inc/tx_port.h **** 
 545:../Middlewares/threadx/ports/cortex_m55/gnu/inc/tx_port.h **** 
 546:../Middlewares/threadx/ports/cortex_m55/gnu/inc/tx_port.h **** 
 547:../Middlewares/threadx/ports/cortex_m55/gnu/inc/tx_port.h **** #ifndef TX_DISABLE_INLINE
 548:../Middlewares/threadx/ports/cortex_m55/gnu/inc/tx_port.h **** 
 549:../Middlewares/threadx/ports/cortex_m55/gnu/inc/tx_port.h **** /* Define the TX_LOWEST_SET_BIT_CALCULATE macro for each compiler. */
 550:../Middlewares/threadx/ports/cortex_m55/gnu/inc/tx_port.h **** #ifdef __ICCARM__       /* IAR Compiler */
 551:../Middlewares/threadx/ports/cortex_m55/gnu/inc/tx_port.h **** #define TX_LOWEST_SET_BIT_CALCULATE(m, b)       (b) = (UINT) __CLZ(__RBIT((m)));
 552:../Middlewares/threadx/ports/cortex_m55/gnu/inc/tx_port.h **** #elif defined(__GNUC__) /* GCC and AC6 Compiler */
 553:../Middlewares/threadx/ports/cortex_m55/gnu/inc/tx_port.h **** #define TX_LOWEST_SET_BIT_CALCULATE(m, b)       __asm__ volatile (" RBIT %0,%1 ": "=r" (m) : "r" (m
 554:../Middlewares/threadx/ports/cortex_m55/gnu/inc/tx_port.h ****                                                 __asm__ volatile (" CLZ  %0,%1 ": "=r" (b) : "r" (m
 555:../Middlewares/threadx/ports/cortex_m55/gnu/inc/tx_port.h **** #else
 556:../Middlewares/threadx/ports/cortex_m55/gnu/inc/tx_port.h **** #error "Compiler not supported."
 557:../Middlewares/threadx/ports/cortex_m55/gnu/inc/tx_port.h **** #endif
 558:../Middlewares/threadx/ports/cortex_m55/gnu/inc/tx_port.h **** 
 559:../Middlewares/threadx/ports/cortex_m55/gnu/inc/tx_port.h **** 
 560:../Middlewares/threadx/ports/cortex_m55/gnu/inc/tx_port.h **** 
 561:../Middlewares/threadx/ports/cortex_m55/gnu/inc/tx_port.h **** /* Define the interrupt disable/restore macros. */
 562:../Middlewares/threadx/ports/cortex_m55/gnu/inc/tx_port.h **** 
 563:../Middlewares/threadx/ports/cortex_m55/gnu/inc/tx_port.h **** __attribute__( ( always_inline ) ) static inline UINT __get_interrupt_posture(void)
 564:../Middlewares/threadx/ports/cortex_m55/gnu/inc/tx_port.h **** {
 565:../Middlewares/threadx/ports/cortex_m55/gnu/inc/tx_port.h **** UINT posture;
 566:../Middlewares/threadx/ports/cortex_m55/gnu/inc/tx_port.h **** #ifdef TX_PORT_USE_BASEPRI
 567:../Middlewares/threadx/ports/cortex_m55/gnu/inc/tx_port.h ****     __asm__ volatile ("MRS  %0, BASEPRI ": "=r" (posture));
 568:../Middlewares/threadx/ports/cortex_m55/gnu/inc/tx_port.h **** #else
 569:../Middlewares/threadx/ports/cortex_m55/gnu/inc/tx_port.h ****     __asm__ volatile ("MRS  %0, PRIMASK ": "=r" (posture));
 570:../Middlewares/threadx/ports/cortex_m55/gnu/inc/tx_port.h **** #endif
 571:../Middlewares/threadx/ports/cortex_m55/gnu/inc/tx_port.h ****     return(posture);
 572:../Middlewares/threadx/ports/cortex_m55/gnu/inc/tx_port.h **** }
 573:../Middlewares/threadx/ports/cortex_m55/gnu/inc/tx_port.h **** 
 574:../Middlewares/threadx/ports/cortex_m55/gnu/inc/tx_port.h **** #ifdef TX_PORT_USE_BASEPRI
 575:../Middlewares/threadx/ports/cortex_m55/gnu/inc/tx_port.h **** __attribute__( ( always_inline ) ) static inline void __set_basepri_value(UINT basepri_value)
 576:../Middlewares/threadx/ports/cortex_m55/gnu/inc/tx_port.h **** {
 577:../Middlewares/threadx/ports/cortex_m55/gnu/inc/tx_port.h ****     __asm__ volatile ("MSR  BASEPRI,%0 ": : "r" (basepri_value));
 578:../Middlewares/threadx/ports/cortex_m55/gnu/inc/tx_port.h **** }
 579:../Middlewares/threadx/ports/cortex_m55/gnu/inc/tx_port.h **** #else
 580:../Middlewares/threadx/ports/cortex_m55/gnu/inc/tx_port.h **** __attribute__( ( always_inline ) ) static inline void __enable_interrupts(void)
 581:../Middlewares/threadx/ports/cortex_m55/gnu/inc/tx_port.h **** {
 582:../Middlewares/threadx/ports/cortex_m55/gnu/inc/tx_port.h ****     __asm__ volatile ("CPSIE  i": : : "memory");
 583:../Middlewares/threadx/ports/cortex_m55/gnu/inc/tx_port.h **** }
 584:../Middlewares/threadx/ports/cortex_m55/gnu/inc/tx_port.h **** #endif
 585:../Middlewares/threadx/ports/cortex_m55/gnu/inc/tx_port.h **** 
 586:../Middlewares/threadx/ports/cortex_m55/gnu/inc/tx_port.h **** __attribute__( ( always_inline ) ) static inline void __restore_interrupt(UINT int_posture)
 587:../Middlewares/threadx/ports/cortex_m55/gnu/inc/tx_port.h **** {
 588:../Middlewares/threadx/ports/cortex_m55/gnu/inc/tx_port.h **** #ifdef TX_PORT_USE_BASEPRI
 589:../Middlewares/threadx/ports/cortex_m55/gnu/inc/tx_port.h ****     __set_basepri_value(int_posture);
 590:../Middlewares/threadx/ports/cortex_m55/gnu/inc/tx_port.h **** #else
 591:../Middlewares/threadx/ports/cortex_m55/gnu/inc/tx_port.h ****     __asm__ volatile ("MSR  PRIMASK,%0": : "r" (int_posture): "memory");
 592:../Middlewares/threadx/ports/cortex_m55/gnu/inc/tx_port.h **** #endif
 593:../Middlewares/threadx/ports/cortex_m55/gnu/inc/tx_port.h **** }
 594:../Middlewares/threadx/ports/cortex_m55/gnu/inc/tx_port.h **** 
 595:../Middlewares/threadx/ports/cortex_m55/gnu/inc/tx_port.h **** __attribute__( ( always_inline ) ) static inline UINT __disable_interrupts(void)
  50              		.loc 2 595 55 view .LVU9
  51              	.LBB32:
 596:../Middlewares/threadx/ports/cortex_m55/gnu/inc/tx_port.h **** {
 597:../Middlewares/threadx/ports/cortex_m55/gnu/inc/tx_port.h **** UINT int_posture;
ARM GAS  /tmp/cco7GNYv.s 			page 14


  52              		.loc 2 597 1 view .LVU10
 598:../Middlewares/threadx/ports/cortex_m55/gnu/inc/tx_port.h **** 
 599:../Middlewares/threadx/ports/cortex_m55/gnu/inc/tx_port.h ****     int_posture = __get_interrupt_posture();
  53              		.loc 2 599 5 view .LVU11
  54              	.LBB33:
  55              	.LBI33:
 563:../Middlewares/threadx/ports/cortex_m55/gnu/inc/tx_port.h **** {
  56              		.loc 2 563 55 view .LVU12
  57              	.LBB34:
 565:../Middlewares/threadx/ports/cortex_m55/gnu/inc/tx_port.h **** #ifdef TX_PORT_USE_BASEPRI
  58              		.loc 2 565 1 view .LVU13
 569:../Middlewares/threadx/ports/cortex_m55/gnu/inc/tx_port.h **** #endif
  59              		.loc 2 569 5 view .LVU14
  60              	.LBE34:
  61              	.LBE33:
  62              	.LBE32:
  63              	.LBE31:
  79:../Middlewares/threadx/common/src/tx_mutex_delete.c **** 
  64              		.loc 1 79 1 is_stmt 0 view .LVU15
  65 0000 2DE9F341 		push	{r0, r1, r4, r5, r6, r7, r8, lr}
  66              		.cfi_def_cfa_offset 32
  67              		.cfi_offset 4, -24
  68              		.cfi_offset 5, -20
  69              		.cfi_offset 6, -16
  70              		.cfi_offset 7, -12
  71              		.cfi_offset 8, -8
  72              		.cfi_offset 14, -4
  79:../Middlewares/threadx/common/src/tx_mutex_delete.c **** 
  73              		.loc 1 79 1 view .LVU16
  74 0004 0446     		mov	r4, r0
  75              	.LBB38:
  76              	.LBB37:
  77              	.LBB36:
  78              	.LBB35:
 569:../Middlewares/threadx/ports/cortex_m55/gnu/inc/tx_port.h **** #endif
  79              		.loc 2 569 5 view .LVU17
  80              		.syntax unified
  81              	@ 569 "../Middlewares/threadx/ports/cortex_m55/gnu/inc/tx_port.h" 1
  82 0006 EFF31086 		MRS  r6, PRIMASK 
  83              	@ 0 "" 2
  84              	.LVL1:
 571:../Middlewares/threadx/ports/cortex_m55/gnu/inc/tx_port.h **** }
  85              		.loc 2 571 5 is_stmt 1 view .LVU18
 571:../Middlewares/threadx/ports/cortex_m55/gnu/inc/tx_port.h **** }
  86              		.loc 2 571 5 is_stmt 0 view .LVU19
  87              		.thumb
  88              		.syntax unified
  89              	.LBE35:
  90              	.LBE36:
 600:../Middlewares/threadx/ports/cortex_m55/gnu/inc/tx_port.h **** 
 601:../Middlewares/threadx/ports/cortex_m55/gnu/inc/tx_port.h **** #ifdef TX_PORT_USE_BASEPRI
 602:../Middlewares/threadx/ports/cortex_m55/gnu/inc/tx_port.h ****     __set_basepri_value(TX_PORT_BASEPRI);
 603:../Middlewares/threadx/ports/cortex_m55/gnu/inc/tx_port.h **** #else
 604:../Middlewares/threadx/ports/cortex_m55/gnu/inc/tx_port.h ****     __asm__ volatile ("CPSID i" : : : "memory");
  91              		.loc 2 604 5 is_stmt 1 view .LVU20
  92              		.syntax unified
  93              	@ 604 "../Middlewares/threadx/ports/cortex_m55/gnu/inc/tx_port.h" 1
ARM GAS  /tmp/cco7GNYv.s 			page 15


  94 000a 72B6     		CPSID i
  95              	@ 0 "" 2
 605:../Middlewares/threadx/ports/cortex_m55/gnu/inc/tx_port.h **** #endif
 606:../Middlewares/threadx/ports/cortex_m55/gnu/inc/tx_port.h ****     return(int_posture);
  96              		.loc 2 606 5 view .LVU21
  97              	.LVL2:
  98              		.loc 2 606 5 is_stmt 0 view .LVU22
  99              		.thumb
 100              		.syntax unified
 101              	.LBE37:
 102              	.LBE38:
 103              	.LBB39:
  95:../Middlewares/threadx/common/src/tx_mutex_delete.c **** 
  96:../Middlewares/threadx/common/src/tx_mutex_delete.c ****     /* If trace is enabled, insert this event into the trace buffer.  */
  97:../Middlewares/threadx/common/src/tx_mutex_delete.c ****     TX_TRACE_IN_LINE_INSERT(TX_TRACE_MUTEX_DELETE, mutex_ptr, TX_POINTER_TO_ULONG_CONVERT(&thread_p
 104              		.loc 1 97 5 is_stmt 1 view .LVU23
 105              		.loc 1 97 5 view .LVU24
 106              		.loc 1 97 5 view .LVU25
 107              		.loc 1 97 5 view .LVU26
 108              		.loc 1 97 5 view .LVU27
 109 000c 484D     		ldr	r5, .L24
 110 000e 2B68     		ldr	r3, [r5]
 111              	.LVL3:
 112              		.loc 1 97 5 view .LVU28
 113 0010 002B     		cmp	r3, #0
 114 0012 2DD0     		beq	.L3
 115              		.loc 1 97 5 is_stmt 0 discriminator 1 view .LVU29
 116 0014 474A     		ldr	r2, .L24+4
 117 0016 1268     		ldr	r2, [r2]
 118 0018 9206     		lsls	r2, r2, #26
 119 001a 29D5     		bpl	.L3
 120              		.loc 1 97 5 is_stmt 1 discriminator 2 view .LVU30
 121              	.LBB40:
 122              	.LBI40:
 507:../Middlewares/threadx/ports/cortex_m55/gnu/inc/tx_port.h **** {
 123              		.loc 2 507 55 view .LVU31
 124              	.LBB41:
 509:../Middlewares/threadx/ports/cortex_m55/gnu/inc/tx_port.h ****     __asm__ volatile (" MRS  %0,IPSR ": "=r" (ipsr_value) );
 125              		.loc 2 509 1 view .LVU32
 510:../Middlewares/threadx/ports/cortex_m55/gnu/inc/tx_port.h ****     return(ipsr_value);
 126              		.loc 2 510 5 view .LVU33
 127              		.syntax unified
 128              	@ 510 "../Middlewares/threadx/ports/cortex_m55/gnu/inc/tx_port.h" 1
 129 001c EFF30580 		 MRS  r0,IPSR 
 130              	@ 0 "" 2
 131              	.LVL4:
 511:../Middlewares/threadx/ports/cortex_m55/gnu/inc/tx_port.h **** }
 132              		.loc 2 511 5 view .LVU34
 511:../Middlewares/threadx/ports/cortex_m55/gnu/inc/tx_port.h **** }
 133              		.loc 2 511 5 is_stmt 0 view .LVU35
 134              		.thumb
 135              		.syntax unified
 136              	.LBE41:
 137              	.LBE40:
 138              		.loc 1 97 5 discriminator 1 view .LVU36
 139 0020 454A     		ldr	r2, .L24+8
 140 0022 4649     		ldr	r1, .L24+12
ARM GAS  /tmp/cco7GNYv.s 			page 16


 141 0024 1268     		ldr	r2, [r2]
 142              	.LVL5:
 143              		.loc 1 97 5 is_stmt 1 discriminator 1 view .LVU37
 144 0026 0968     		ldr	r1, [r1]
 145              	.LVL6:
 146              		.loc 1 97 5 discriminator 1 view .LVU38
 147 0028 0243     		orrs	r2, r2, r0
 148              	.LVL7:
 149              		.loc 1 97 5 is_stmt 0 discriminator 1 view .LVU39
 150 002a 2ED1     		bne	.L5
 151              		.loc 1 97 5 is_stmt 1 discriminator 3 view .LVU40
 152              	.LVL8:
 153              		.loc 1 97 5 view .LVU41
 154              		.loc 1 97 5 is_stmt 0 discriminator 3 view .LVU42
 155 002c C86B     		ldr	r0, [r1, #60]
 156 002e CA6A     		ldr	r2, [r1, #44]
 157              	.LVL9:
 158              		.loc 1 97 5 discriminator 3 view .LVU43
 159 0030 42EA0042 		orr	r2, r2, r0, lsl #16
 160 0034 42F00042 		orr	r2, r2, #-2147483648
 161              	.LVL10:
 162              	.L6:
 163              		.loc 1 97 5 is_stmt 1 discriminator 9 view .LVU44
 164 0038 C3E90012 		strd	r1, r2, [r3]
 165              		.loc 1 97 5 view .LVU45
 166              		.loc 1 97 5 is_stmt 0 discriminator 9 view .LVU46
 167 003c 3322     		movs	r2, #51
 168              	.LVL11:
 169              		.loc 1 97 5 discriminator 9 view .LVU47
 170 003e 9A60     		str	r2, [r3, #8]
 171              		.loc 1 97 5 is_stmt 1 view .LVU48
 172              		.loc 1 97 5 is_stmt 0 discriminator 9 view .LVU49
 173 0040 3F4A     		ldr	r2, .L24+16
 174 0042 5268     		ldr	r2, [r2, #4]
 175 0044 C3E90324 		strd	r2, r4, [r3, #12]
 176              		.loc 1 97 5 is_stmt 1 view .LVU50
 177              		.loc 1 97 5 is_stmt 0 discriminator 9 view .LVU51
 178 0048 01AA     		add	r2, sp, #4
 179 004a 5A61     		str	r2, [r3, #20]
 180              		.loc 1 97 5 is_stmt 1 view .LVU52
 181              		.loc 1 97 5 is_stmt 0 discriminator 9 view .LVU53
 182 004c 0022     		movs	r2, #0
 183 004e C3E90622 		strd	r2, r2, [r3, #24]
 184              		.loc 1 97 5 is_stmt 1 view .LVU54
 185              		.loc 1 97 5 is_stmt 0 discriminator 10 view .LVU55
 186 0052 3C4A     		ldr	r2, .L24+20
 187              		.loc 1 97 5 discriminator 9 view .LVU56
 188 0054 2033     		adds	r3, r3, #32
 189              	.LVL12:
 190              		.loc 1 97 5 is_stmt 1 view .LVU57
 191              		.loc 1 97 5 is_stmt 0 discriminator 10 view .LVU58
 192 0056 1068     		ldr	r0, [r2]
 193              		.loc 1 97 5 discriminator 9 view .LVU59
 194 0058 3B4A     		ldr	r2, .L24+24
 195 005a 1268     		ldr	r2, [r2]
 196 005c 9A42     		cmp	r2, r3
 197 005e 1ED8     		bhi	.L7
ARM GAS  /tmp/cco7GNYv.s 			page 17


 198              		.loc 1 97 5 is_stmt 1 discriminator 10 view .LVU60
 199 0060 3A4B     		ldr	r3, .L24+28
 200              	.LVL13:
 201              		.loc 1 97 5 is_stmt 0 discriminator 10 view .LVU61
 202 0062 1B68     		ldr	r3, [r3]
 203              	.LVL14:
 204              		.loc 1 97 5 is_stmt 1 view .LVU62
 205              		.loc 1 97 5 is_stmt 0 discriminator 10 view .LVU63
 206 0064 2B60     		str	r3, [r5]
 207              	.LVL15:
 208              		.loc 1 97 5 is_stmt 1 view .LVU64
 209              		.loc 1 97 5 is_stmt 0 discriminator 10 view .LVU65
 210 0066 0362     		str	r3, [r0, #32]
 211              		.loc 1 97 5 is_stmt 1 view .LVU66
 212              		.loc 1 97 5 is_stmt 0 discriminator 10 view .LVU67
 213 0068 394B     		ldr	r3, .L24+32
 214              	.LVL16:
 215              		.loc 1 97 5 discriminator 10 view .LVU68
 216 006a 1B68     		ldr	r3, [r3]
 217 006c 03B1     		cbz	r3, .L3
 218              		.loc 1 97 5 is_stmt 1 discriminator 12 view .LVU69
 219 006e 9847     		blx	r3
 220              	.LVL17:
 221              	.L3:
 222              		.loc 1 97 5 is_stmt 0 discriminator 12 view .LVU70
 223              	.LBE39:
  98:../Middlewares/threadx/common/src/tx_mutex_delete.c **** 
  99:../Middlewares/threadx/common/src/tx_mutex_delete.c ****     /* Optional mutex delete extended processing.  */
 100:../Middlewares/threadx/common/src/tx_mutex_delete.c ****     TX_MUTEX_DELETE_EXTENSION(mutex_ptr)
 101:../Middlewares/threadx/common/src/tx_mutex_delete.c **** 
 102:../Middlewares/threadx/common/src/tx_mutex_delete.c ****     /* If trace is enabled, unregister this object.  */
 103:../Middlewares/threadx/common/src/tx_mutex_delete.c ****     TX_TRACE_OBJECT_UNREGISTER(mutex_ptr)
 224              		.loc 1 103 5 is_stmt 1 view .LVU71
 225 0070 2046     		mov	r0, r4
 226 0072 FFF7FEFF 		bl	_tx_trace_object_unregister
 227              	.LVL18:
 104:../Middlewares/threadx/common/src/tx_mutex_delete.c **** 
 105:../Middlewares/threadx/common/src/tx_mutex_delete.c ****     /* Log this kernel call.  */
 106:../Middlewares/threadx/common/src/tx_mutex_delete.c ****     TX_EL_MUTEX_DELETE_INSERT
 107:../Middlewares/threadx/common/src/tx_mutex_delete.c **** 
 108:../Middlewares/threadx/common/src/tx_mutex_delete.c ****     /* Clear the mutex ID to make it invalid.  */
 109:../Middlewares/threadx/common/src/tx_mutex_delete.c ****     mutex_ptr -> tx_mutex_id =  TX_CLEAR_ID;
 228              		.loc 1 109 5 view .LVU72
 229              		.loc 1 109 30 is_stmt 0 view .LVU73
 230 0076 0023     		movs	r3, #0
 110:../Middlewares/threadx/common/src/tx_mutex_delete.c **** 
 111:../Middlewares/threadx/common/src/tx_mutex_delete.c ****     /* Decrement the created count.  */
 112:../Middlewares/threadx/common/src/tx_mutex_delete.c ****     _tx_mutex_created_count--;
 231              		.loc 1 112 28 view .LVU74
 232 0078 364A     		ldr	r2, .L24+36
 109:../Middlewares/threadx/common/src/tx_mutex_delete.c **** 
 233              		.loc 1 109 30 view .LVU75
 234 007a 2360     		str	r3, [r4]
 235              		.loc 1 112 5 is_stmt 1 view .LVU76
 236              		.loc 1 112 28 is_stmt 0 view .LVU77
 237 007c 1368     		ldr	r3, [r2]
 238 007e 013B     		subs	r3, r3, #1
ARM GAS  /tmp/cco7GNYv.s 			page 18


 239 0080 1360     		str	r3, [r2]
 113:../Middlewares/threadx/common/src/tx_mutex_delete.c **** 
 114:../Middlewares/threadx/common/src/tx_mutex_delete.c ****     /* See if the mutex is the only one on the list.  */
 115:../Middlewares/threadx/common/src/tx_mutex_delete.c ****     if (_tx_mutex_created_count == TX_EMPTY)
 240              		.loc 1 115 5 is_stmt 1 view .LVU78
 241 0082 354A     		ldr	r2, .L24+40
 242              		.loc 1 115 8 is_stmt 0 view .LVU79
 243 0084 73B9     		cbnz	r3, .L8
 244              	.L23:
 116:../Middlewares/threadx/common/src/tx_mutex_delete.c ****     {
 117:../Middlewares/threadx/common/src/tx_mutex_delete.c **** 
 118:../Middlewares/threadx/common/src/tx_mutex_delete.c ****         /* Only created mutex, just set the created list to NULL.  */
 119:../Middlewares/threadx/common/src/tx_mutex_delete.c ****         _tx_mutex_created_ptr =  TX_NULL;
 120:../Middlewares/threadx/common/src/tx_mutex_delete.c ****     }
 121:../Middlewares/threadx/common/src/tx_mutex_delete.c ****     else
 122:../Middlewares/threadx/common/src/tx_mutex_delete.c ****     {
 123:../Middlewares/threadx/common/src/tx_mutex_delete.c **** 
 124:../Middlewares/threadx/common/src/tx_mutex_delete.c ****         /* Link-up the neighbors.  */
 125:../Middlewares/threadx/common/src/tx_mutex_delete.c ****         next_mutex =                               mutex_ptr -> tx_mutex_created_next;
 126:../Middlewares/threadx/common/src/tx_mutex_delete.c ****         previous_mutex =                           mutex_ptr -> tx_mutex_created_previous;
 127:../Middlewares/threadx/common/src/tx_mutex_delete.c ****         next_mutex -> tx_mutex_created_previous =  previous_mutex;
 128:../Middlewares/threadx/common/src/tx_mutex_delete.c ****         previous_mutex -> tx_mutex_created_next =  next_mutex;
 129:../Middlewares/threadx/common/src/tx_mutex_delete.c **** 
 130:../Middlewares/threadx/common/src/tx_mutex_delete.c ****         /* See if we have to update the created list head pointer.  */
 131:../Middlewares/threadx/common/src/tx_mutex_delete.c ****         if (_tx_mutex_created_ptr == mutex_ptr)
 132:../Middlewares/threadx/common/src/tx_mutex_delete.c ****         {
 133:../Middlewares/threadx/common/src/tx_mutex_delete.c **** 
 134:../Middlewares/threadx/common/src/tx_mutex_delete.c ****             /* Yes, move the head pointer to the next link. */
 135:../Middlewares/threadx/common/src/tx_mutex_delete.c ****             _tx_mutex_created_ptr =  next_mutex;
 245              		.loc 1 135 13 is_stmt 1 view .LVU80
 246              		.loc 1 135 35 is_stmt 0 view .LVU81
 247 0086 1360     		str	r3, [r2]
 248 0088 13E0     		b	.L9
 249              	.LVL19:
 250              	.L5:
 251              	.LBB42:
  97:../Middlewares/threadx/common/src/tx_mutex_delete.c **** 
 252              		.loc 1 97 5 is_stmt 1 discriminator 4 view .LVU82
 253 008a B2F1F03F 		cmp	r2, #-252645136
  97:../Middlewares/threadx/common/src/tx_mutex_delete.c **** 
 254              		.loc 1 97 5 discriminator 6 view .LVU83
 255 008e 35BF     		itete	cc
 256 0090 0A46     		movcc	r2, r1
 257              	.LVL20:
  97:../Middlewares/threadx/common/src/tx_mutex_delete.c **** 
 258              		.loc 1 97 5 view .LVU84
  97:../Middlewares/threadx/common/src/tx_mutex_delete.c **** 
 259              		.loc 1 97 5 is_stmt 0 discriminator 7 view .LVU85
 260 0092 4FF0F031 		movcs	r1, #-252645136
  97:../Middlewares/threadx/common/src/tx_mutex_delete.c **** 
 261              		.loc 1 97 5 discriminator 6 view .LVU86
 262 0096 4FF0FF31 		movcc	r1, #-1
 263              	.LVL21:
  97:../Middlewares/threadx/common/src/tx_mutex_delete.c **** 
 264              		.loc 1 97 5 discriminator 7 view .LVU87
 265 009a 0022     		movcs	r2, #0
 266 009c CCE7     		b	.L6
ARM GAS  /tmp/cco7GNYv.s 			page 19


 267              	.LVL22:
 268              	.L7:
  97:../Middlewares/threadx/common/src/tx_mutex_delete.c **** 
 269              		.loc 1 97 5 is_stmt 1 discriminator 11 view .LVU88
 270 009e 2B60     		str	r3, [r5]
 271              	.LVL23:
  97:../Middlewares/threadx/common/src/tx_mutex_delete.c **** 
 272              		.loc 1 97 5 view .LVU89
  97:../Middlewares/threadx/common/src/tx_mutex_delete.c **** 
 273              		.loc 1 97 5 is_stmt 0 discriminator 11 view .LVU90
 274 00a0 0362     		str	r3, [r0, #32]
 275 00a2 E5E7     		b	.L3
 276              	.LVL24:
 277              	.L8:
  97:../Middlewares/threadx/common/src/tx_mutex_delete.c **** 
 278              		.loc 1 97 5 discriminator 11 view .LVU91
 279              	.LBE42:
 125:../Middlewares/threadx/common/src/tx_mutex_delete.c ****         previous_mutex =                           mutex_ptr -> tx_mutex_created_previous;
 280              		.loc 1 125 9 is_stmt 1 view .LVU92
 126:../Middlewares/threadx/common/src/tx_mutex_delete.c ****         next_mutex -> tx_mutex_created_previous =  previous_mutex;
 281              		.loc 1 126 24 is_stmt 0 view .LVU93
 282 00a4 D4E90831 		ldrd	r3, r1, [r4, #32]
 283              	.LVL25:
 127:../Middlewares/threadx/common/src/tx_mutex_delete.c ****         previous_mutex -> tx_mutex_created_next =  next_mutex;
 284              		.loc 1 127 9 is_stmt 1 view .LVU94
 127:../Middlewares/threadx/common/src/tx_mutex_delete.c ****         previous_mutex -> tx_mutex_created_next =  next_mutex;
 285              		.loc 1 127 49 is_stmt 0 view .LVU95
 286 00a8 5962     		str	r1, [r3, #36]
 128:../Middlewares/threadx/common/src/tx_mutex_delete.c **** 
 287              		.loc 1 128 9 is_stmt 1 view .LVU96
 128:../Middlewares/threadx/common/src/tx_mutex_delete.c **** 
 288              		.loc 1 128 49 is_stmt 0 view .LVU97
 289 00aa 0B62     		str	r3, [r1, #32]
 131:../Middlewares/threadx/common/src/tx_mutex_delete.c ****         {
 290              		.loc 1 131 9 is_stmt 1 view .LVU98
 131:../Middlewares/threadx/common/src/tx_mutex_delete.c ****         {
 291              		.loc 1 131 12 is_stmt 0 view .LVU99
 292 00ac 1168     		ldr	r1, [r2]
 293              	.LVL26:
 131:../Middlewares/threadx/common/src/tx_mutex_delete.c ****         {
 294              		.loc 1 131 12 view .LVU100
 295 00ae A142     		cmp	r1, r4
 296 00b0 E9D0     		beq	.L23
 297              	.LVL27:
 298              	.L9:
 136:../Middlewares/threadx/common/src/tx_mutex_delete.c ****         }
 137:../Middlewares/threadx/common/src/tx_mutex_delete.c ****     }
 138:../Middlewares/threadx/common/src/tx_mutex_delete.c **** 
 139:../Middlewares/threadx/common/src/tx_mutex_delete.c ****     /* Temporarily disable preemption.  */
 140:../Middlewares/threadx/common/src/tx_mutex_delete.c ****     _tx_thread_preempt_disable++;
 299              		.loc 1 140 5 is_stmt 1 view .LVU101
 300              		.loc 1 140 31 is_stmt 0 view .LVU102
 301 00b2 2A4D     		ldr	r5, .L24+44
 141:../Middlewares/threadx/common/src/tx_mutex_delete.c **** 
 142:../Middlewares/threadx/common/src/tx_mutex_delete.c ****     /* Pickup the suspension information.  */
 143:../Middlewares/threadx/common/src/tx_mutex_delete.c ****     thread_ptr =                             mutex_ptr -> tx_mutex_suspension_list;
 144:../Middlewares/threadx/common/src/tx_mutex_delete.c ****     mutex_ptr -> tx_mutex_suspension_list =  TX_NULL;
ARM GAS  /tmp/cco7GNYv.s 			page 20


 145:../Middlewares/threadx/common/src/tx_mutex_delete.c ****     suspended_count =                        mutex_ptr -> tx_mutex_suspended_count;
 302              		.loc 1 145 21 view .LVU103
 303 00b4 E769     		ldr	r7, [r4, #28]
 140:../Middlewares/threadx/common/src/tx_mutex_delete.c **** 
 304              		.loc 1 140 31 view .LVU104
 305 00b6 2B68     		ldr	r3, [r5]
 306 00b8 0133     		adds	r3, r3, #1
 307 00ba 2B60     		str	r3, [r5]
 143:../Middlewares/threadx/common/src/tx_mutex_delete.c ****     mutex_ptr -> tx_mutex_suspension_list =  TX_NULL;
 308              		.loc 1 143 5 is_stmt 1 view .LVU105
 143:../Middlewares/threadx/common/src/tx_mutex_delete.c ****     mutex_ptr -> tx_mutex_suspension_list =  TX_NULL;
 309              		.loc 1 143 16 is_stmt 0 view .LVU106
 310 00bc A369     		ldr	r3, [r4, #24]
 311 00be 0193     		str	r3, [sp, #4]
 144:../Middlewares/threadx/common/src/tx_mutex_delete.c ****     suspended_count =                        mutex_ptr -> tx_mutex_suspended_count;
 312              		.loc 1 144 5 is_stmt 1 view .LVU107
 144:../Middlewares/threadx/common/src/tx_mutex_delete.c ****     suspended_count =                        mutex_ptr -> tx_mutex_suspended_count;
 313              		.loc 1 144 43 is_stmt 0 view .LVU108
 314 00c0 0023     		movs	r3, #0
 315 00c2 A361     		str	r3, [r4, #24]
 316              		.loc 1 145 5 is_stmt 1 view .LVU109
 317              	.LVL28:
 146:../Middlewares/threadx/common/src/tx_mutex_delete.c ****     mutex_ptr -> tx_mutex_suspended_count =  TX_NO_SUSPENSIONS;
 318              		.loc 1 146 5 view .LVU110
 319              		.loc 1 146 43 is_stmt 0 view .LVU111
 320 00c4 E361     		str	r3, [r4, #28]
 147:../Middlewares/threadx/common/src/tx_mutex_delete.c **** 
 148:../Middlewares/threadx/common/src/tx_mutex_delete.c **** 
 149:../Middlewares/threadx/common/src/tx_mutex_delete.c ****     /* Determine if the mutex is currently on a thread's ownership list.  */
 150:../Middlewares/threadx/common/src/tx_mutex_delete.c **** 
 151:../Middlewares/threadx/common/src/tx_mutex_delete.c ****     /* Setup pointer to owner of mutex.  */
 152:../Middlewares/threadx/common/src/tx_mutex_delete.c ****     owner_thread =  mutex_ptr -> tx_mutex_owner;
 321              		.loc 1 152 5 is_stmt 1 view .LVU112
 322              	.LVL29:
 153:../Middlewares/threadx/common/src/tx_mutex_delete.c **** 
 154:../Middlewares/threadx/common/src/tx_mutex_delete.c ****     /* Determine if there is a valid thread pointer.  */
 155:../Middlewares/threadx/common/src/tx_mutex_delete.c ****     if (owner_thread != TX_NULL)
 323              		.loc 1 155 5 view .LVU113
 324              		.loc 1 155 8 is_stmt 0 view .LVU114
 325 00c6 E368     		ldr	r3, [r4, #12]
 326 00c8 4BB1     		cbz	r3, .L10
 156:../Middlewares/threadx/common/src/tx_mutex_delete.c ****     {
 157:../Middlewares/threadx/common/src/tx_mutex_delete.c **** 
 158:../Middlewares/threadx/common/src/tx_mutex_delete.c ****         /* Yes, remove this mutex from the owned list.  */
 159:../Middlewares/threadx/common/src/tx_mutex_delete.c **** 
 160:../Middlewares/threadx/common/src/tx_mutex_delete.c ****         /* Set the ownership count to 1.  */
 161:../Middlewares/threadx/common/src/tx_mutex_delete.c ****         mutex_ptr -> tx_mutex_ownership_count =  ((UINT) 1);
 327              		.loc 1 161 9 is_stmt 1 view .LVU115
 328              		.loc 1 161 47 is_stmt 0 view .LVU116
 329 00ca 0123     		movs	r3, #1
 330 00cc A360     		str	r3, [r4, #8]
 162:../Middlewares/threadx/common/src/tx_mutex_delete.c **** 
 163:../Middlewares/threadx/common/src/tx_mutex_delete.c ****         /* Restore interrupts.   */
 164:../Middlewares/threadx/common/src/tx_mutex_delete.c ****         TX_RESTORE
 331              		.loc 1 164 9 is_stmt 1 view .LVU117
 332              	.LVL30:
 333              	.LBB43:
ARM GAS  /tmp/cco7GNYv.s 			page 21


 334              	.LBI43:
 586:../Middlewares/threadx/ports/cortex_m55/gnu/inc/tx_port.h **** {
 335              		.loc 2 586 55 view .LVU118
 336              	.LBB44:
 591:../Middlewares/threadx/ports/cortex_m55/gnu/inc/tx_port.h **** #endif
 337              		.loc 2 591 5 view .LVU119
 338              		.syntax unified
 339              	@ 591 "../Middlewares/threadx/ports/cortex_m55/gnu/inc/tx_port.h" 1
 340 00ce 86F31088 		MSR  PRIMASK,r6
 341              	@ 0 "" 2
 342              	.LVL31:
 591:../Middlewares/threadx/ports/cortex_m55/gnu/inc/tx_port.h **** #endif
 343              		.loc 2 591 5 is_stmt 0 view .LVU120
 344              		.thumb
 345              		.syntax unified
 346              	.LBE44:
 347              	.LBE43:
 165:../Middlewares/threadx/common/src/tx_mutex_delete.c **** 
 166:../Middlewares/threadx/common/src/tx_mutex_delete.c **** #ifdef TX_MISRA_ENABLE
 167:../Middlewares/threadx/common/src/tx_mutex_delete.c ****         /* Release the mutex.  */
 168:../Middlewares/threadx/common/src/tx_mutex_delete.c ****         do
 169:../Middlewares/threadx/common/src/tx_mutex_delete.c ****         {
 170:../Middlewares/threadx/common/src/tx_mutex_delete.c ****             status =  _tx_mutex_put(mutex_ptr);
 171:../Middlewares/threadx/common/src/tx_mutex_delete.c ****         } while (status != TX_SUCCESS);
 172:../Middlewares/threadx/common/src/tx_mutex_delete.c **** #else
 173:../Middlewares/threadx/common/src/tx_mutex_delete.c ****         _tx_mutex_put(mutex_ptr);
 348              		.loc 1 173 9 is_stmt 1 view .LVU121
 349 00d2 2046     		mov	r0, r4
 350 00d4 FFF7FEFF 		bl	_tx_mutex_put
 351              	.LVL32:
 174:../Middlewares/threadx/common/src/tx_mutex_delete.c **** #endif
 175:../Middlewares/threadx/common/src/tx_mutex_delete.c **** 
 176:../Middlewares/threadx/common/src/tx_mutex_delete.c ****         /* Disable interrupts.  */
 177:../Middlewares/threadx/common/src/tx_mutex_delete.c ****         TX_DISABLE
 352              		.loc 1 177 9 view .LVU122
 353              	.LBB45:
 354              	.LBI45:
 595:../Middlewares/threadx/ports/cortex_m55/gnu/inc/tx_port.h **** {
 355              		.loc 2 595 55 view .LVU123
 356              	.LBB46:
 597:../Middlewares/threadx/ports/cortex_m55/gnu/inc/tx_port.h **** 
 357              		.loc 2 597 1 view .LVU124
 599:../Middlewares/threadx/ports/cortex_m55/gnu/inc/tx_port.h **** 
 358              		.loc 2 599 5 view .LVU125
 359              	.LBB47:
 360              	.LBI47:
 563:../Middlewares/threadx/ports/cortex_m55/gnu/inc/tx_port.h **** {
 361              		.loc 2 563 55 view .LVU126
 362              	.LBB48:
 565:../Middlewares/threadx/ports/cortex_m55/gnu/inc/tx_port.h **** #ifdef TX_PORT_USE_BASEPRI
 363              		.loc 2 565 1 view .LVU127
 569:../Middlewares/threadx/ports/cortex_m55/gnu/inc/tx_port.h **** #endif
 364              		.loc 2 569 5 view .LVU128
 365              		.syntax unified
 366              	@ 569 "../Middlewares/threadx/ports/cortex_m55/gnu/inc/tx_port.h" 1
 367 00d8 EFF31086 		MRS  r6, PRIMASK 
 368              	@ 0 "" 2
ARM GAS  /tmp/cco7GNYv.s 			page 22


 369              	.LVL33:
 571:../Middlewares/threadx/ports/cortex_m55/gnu/inc/tx_port.h **** }
 370              		.loc 2 571 5 view .LVU129
 571:../Middlewares/threadx/ports/cortex_m55/gnu/inc/tx_port.h **** }
 371              		.loc 2 571 5 is_stmt 0 view .LVU130
 372              		.thumb
 373              		.syntax unified
 374              	.LBE48:
 375              	.LBE47:
 604:../Middlewares/threadx/ports/cortex_m55/gnu/inc/tx_port.h **** #endif
 376              		.loc 2 604 5 is_stmt 1 view .LVU131
 377              		.syntax unified
 378              	@ 604 "../Middlewares/threadx/ports/cortex_m55/gnu/inc/tx_port.h" 1
 379 00dc 72B6     		CPSID i
 380              	@ 0 "" 2
 381              		.loc 2 606 5 view .LVU132
 382              	.LVL34:
 383              		.thumb
 384              		.syntax unified
 385              	.L10:
 386              		.loc 2 606 5 is_stmt 0 view .LVU133
 387              	.LBE46:
 388              	.LBE45:
 178:../Middlewares/threadx/common/src/tx_mutex_delete.c ****     }
 179:../Middlewares/threadx/common/src/tx_mutex_delete.c **** 
 180:../Middlewares/threadx/common/src/tx_mutex_delete.c ****     /* Restore interrupts.  */
 181:../Middlewares/threadx/common/src/tx_mutex_delete.c ****     TX_RESTORE
 389              		.loc 1 181 5 is_stmt 1 view .LVU134
 390              	.LBB49:
 391              	.LBI49:
 586:../Middlewares/threadx/ports/cortex_m55/gnu/inc/tx_port.h **** {
 392              		.loc 2 586 55 view .LVU135
 393              	.LBB50:
 591:../Middlewares/threadx/ports/cortex_m55/gnu/inc/tx_port.h **** #endif
 394              		.loc 2 591 5 view .LVU136
 395              		.syntax unified
 396              	@ 591 "../Middlewares/threadx/ports/cortex_m55/gnu/inc/tx_port.h" 1
 397 00de 86F31088 		MSR  PRIMASK,r6
 398              	@ 0 "" 2
 399              	.LVL35:
 591:../Middlewares/threadx/ports/cortex_m55/gnu/inc/tx_port.h **** #endif
 400              		.loc 2 591 5 is_stmt 0 view .LVU137
 401              		.thumb
 402              		.syntax unified
 403              	.LBE50:
 404              	.LBE49:
 182:../Middlewares/threadx/common/src/tx_mutex_delete.c **** 
 183:../Middlewares/threadx/common/src/tx_mutex_delete.c ****     /* Walk through the mutex list to resume any and all threads suspended
 184:../Middlewares/threadx/common/src/tx_mutex_delete.c ****        on this mutex.  */
 185:../Middlewares/threadx/common/src/tx_mutex_delete.c ****     while (suspended_count != ((ULONG) 0))
 405              		.loc 1 185 5 is_stmt 1 view .LVU138
 186:../Middlewares/threadx/common/src/tx_mutex_delete.c ****     {
 187:../Middlewares/threadx/common/src/tx_mutex_delete.c **** 
 188:../Middlewares/threadx/common/src/tx_mutex_delete.c ****         /* Decrement the suspension count.  */
 189:../Middlewares/threadx/common/src/tx_mutex_delete.c ****         suspended_count--;
 190:../Middlewares/threadx/common/src/tx_mutex_delete.c **** 
 191:../Middlewares/threadx/common/src/tx_mutex_delete.c ****         /* Lockout interrupts.  */
ARM GAS  /tmp/cco7GNYv.s 			page 23


 192:../Middlewares/threadx/common/src/tx_mutex_delete.c ****         TX_DISABLE
 193:../Middlewares/threadx/common/src/tx_mutex_delete.c **** 
 194:../Middlewares/threadx/common/src/tx_mutex_delete.c ****         /* Clear the cleanup pointer, this prevents the timeout from doing
 195:../Middlewares/threadx/common/src/tx_mutex_delete.c ****            anything.  */
 196:../Middlewares/threadx/common/src/tx_mutex_delete.c ****         thread_ptr -> tx_thread_suspend_cleanup =  TX_NULL;
 406              		.loc 1 196 49 is_stmt 0 view .LVU139
 407 00e2 0024     		movs	r4, #0
 408              	.LVL36:
 197:../Middlewares/threadx/common/src/tx_mutex_delete.c **** 
 198:../Middlewares/threadx/common/src/tx_mutex_delete.c ****         /* Set the return status in the thread to TX_DELETED.  */
 199:../Middlewares/threadx/common/src/tx_mutex_delete.c ****         thread_ptr -> tx_thread_suspend_status =  TX_DELETED;
 409              		.loc 1 199 48 view .LVU140
 410 00e4 0126     		movs	r6, #1
 411              	.LVL37:
 412              	.L11:
 185:../Middlewares/threadx/common/src/tx_mutex_delete.c ****     {
 413              		.loc 1 185 28 is_stmt 1 view .LVU141
 414 00e6 6FB9     		cbnz	r7, .L12
 200:../Middlewares/threadx/common/src/tx_mutex_delete.c **** 
 201:../Middlewares/threadx/common/src/tx_mutex_delete.c ****         /* Move the thread pointer ahead.  */
 202:../Middlewares/threadx/common/src/tx_mutex_delete.c ****         next_thread =  thread_ptr -> tx_thread_suspended_next;
 203:../Middlewares/threadx/common/src/tx_mutex_delete.c **** 
 204:../Middlewares/threadx/common/src/tx_mutex_delete.c **** #ifdef TX_NOT_INTERRUPTABLE
 205:../Middlewares/threadx/common/src/tx_mutex_delete.c **** 
 206:../Middlewares/threadx/common/src/tx_mutex_delete.c ****         /* Resume the thread!  */
 207:../Middlewares/threadx/common/src/tx_mutex_delete.c ****         _tx_thread_system_ni_resume(thread_ptr);
 208:../Middlewares/threadx/common/src/tx_mutex_delete.c **** 
 209:../Middlewares/threadx/common/src/tx_mutex_delete.c ****         /* Restore interrupts.  */
 210:../Middlewares/threadx/common/src/tx_mutex_delete.c ****         TX_RESTORE
 211:../Middlewares/threadx/common/src/tx_mutex_delete.c **** #else
 212:../Middlewares/threadx/common/src/tx_mutex_delete.c **** 
 213:../Middlewares/threadx/common/src/tx_mutex_delete.c ****         /* Temporarily disable preemption again.  */
 214:../Middlewares/threadx/common/src/tx_mutex_delete.c ****         _tx_thread_preempt_disable++;
 215:../Middlewares/threadx/common/src/tx_mutex_delete.c **** 
 216:../Middlewares/threadx/common/src/tx_mutex_delete.c ****         /* Restore interrupts.  */
 217:../Middlewares/threadx/common/src/tx_mutex_delete.c ****         TX_RESTORE
 218:../Middlewares/threadx/common/src/tx_mutex_delete.c **** 
 219:../Middlewares/threadx/common/src/tx_mutex_delete.c ****         /* Resume the thread.  */
 220:../Middlewares/threadx/common/src/tx_mutex_delete.c ****         _tx_thread_system_resume(thread_ptr);
 221:../Middlewares/threadx/common/src/tx_mutex_delete.c **** #endif
 222:../Middlewares/threadx/common/src/tx_mutex_delete.c **** 
 223:../Middlewares/threadx/common/src/tx_mutex_delete.c ****         /* Move to next thread.  */
 224:../Middlewares/threadx/common/src/tx_mutex_delete.c ****         thread_ptr =  next_thread;
 225:../Middlewares/threadx/common/src/tx_mutex_delete.c ****     }
 226:../Middlewares/threadx/common/src/tx_mutex_delete.c **** 
 227:../Middlewares/threadx/common/src/tx_mutex_delete.c ****     /* Execute Port-Specific completion processing. If needed, it is typically defined in tx_port.h
 228:../Middlewares/threadx/common/src/tx_mutex_delete.c ****     TX_MUTEX_DELETE_PORT_COMPLETION(mutex_ptr)
 229:../Middlewares/threadx/common/src/tx_mutex_delete.c **** 
 230:../Middlewares/threadx/common/src/tx_mutex_delete.c ****     /* Disable interrupts.  */
 231:../Middlewares/threadx/common/src/tx_mutex_delete.c ****     TX_DISABLE
 415              		.loc 1 231 5 view .LVU142
 416              	.LBB51:
 417              	.LBI51:
 595:../Middlewares/threadx/ports/cortex_m55/gnu/inc/tx_port.h **** {
 418              		.loc 2 595 55 view .LVU143
 419              	.LBB52:
 597:../Middlewares/threadx/ports/cortex_m55/gnu/inc/tx_port.h **** 
ARM GAS  /tmp/cco7GNYv.s 			page 24


 420              		.loc 2 597 1 view .LVU144
 599:../Middlewares/threadx/ports/cortex_m55/gnu/inc/tx_port.h **** 
 421              		.loc 2 599 5 view .LVU145
 422              	.LBB53:
 423              	.LBI53:
 563:../Middlewares/threadx/ports/cortex_m55/gnu/inc/tx_port.h **** {
 424              		.loc 2 563 55 view .LVU146
 425              	.LBB54:
 565:../Middlewares/threadx/ports/cortex_m55/gnu/inc/tx_port.h **** #ifdef TX_PORT_USE_BASEPRI
 426              		.loc 2 565 1 view .LVU147
 569:../Middlewares/threadx/ports/cortex_m55/gnu/inc/tx_port.h **** #endif
 427              		.loc 2 569 5 view .LVU148
 428              		.syntax unified
 429              	@ 569 "../Middlewares/threadx/ports/cortex_m55/gnu/inc/tx_port.h" 1
 430 00e8 EFF31082 		MRS  r2, PRIMASK 
 431              	@ 0 "" 2
 432              	.LVL38:
 571:../Middlewares/threadx/ports/cortex_m55/gnu/inc/tx_port.h **** }
 433              		.loc 2 571 5 view .LVU149
 571:../Middlewares/threadx/ports/cortex_m55/gnu/inc/tx_port.h **** }
 434              		.loc 2 571 5 is_stmt 0 view .LVU150
 435              		.thumb
 436              		.syntax unified
 437              	.LBE54:
 438              	.LBE53:
 604:../Middlewares/threadx/ports/cortex_m55/gnu/inc/tx_port.h **** #endif
 439              		.loc 2 604 5 is_stmt 1 view .LVU151
 440              		.syntax unified
 441              	@ 604 "../Middlewares/threadx/ports/cortex_m55/gnu/inc/tx_port.h" 1
 442 00ec 72B6     		CPSID i
 443              	@ 0 "" 2
 444              		.loc 2 606 5 view .LVU152
 445              	.LVL39:
 446              		.loc 2 606 5 is_stmt 0 view .LVU153
 447              		.thumb
 448              		.syntax unified
 449              	.LBE52:
 450              	.LBE51:
 232:../Middlewares/threadx/common/src/tx_mutex_delete.c **** 
 233:../Middlewares/threadx/common/src/tx_mutex_delete.c ****     /* Release previous preempt disable.  */
 234:../Middlewares/threadx/common/src/tx_mutex_delete.c ****     _tx_thread_preempt_disable--;
 451              		.loc 1 234 5 is_stmt 1 view .LVU154
 452              		.loc 1 234 31 is_stmt 0 view .LVU155
 453 00ee 2B68     		ldr	r3, [r5]
 454 00f0 013B     		subs	r3, r3, #1
 455 00f2 2B60     		str	r3, [r5]
 235:../Middlewares/threadx/common/src/tx_mutex_delete.c **** 
 236:../Middlewares/threadx/common/src/tx_mutex_delete.c ****     /* Restore interrupts.  */
 237:../Middlewares/threadx/common/src/tx_mutex_delete.c ****     TX_RESTORE
 456              		.loc 1 237 5 is_stmt 1 view .LVU156
 457              	.LVL40:
 458              	.LBB55:
 459              	.LBI55:
 586:../Middlewares/threadx/ports/cortex_m55/gnu/inc/tx_port.h **** {
 460              		.loc 2 586 55 view .LVU157
 461              	.LBB56:
 591:../Middlewares/threadx/ports/cortex_m55/gnu/inc/tx_port.h **** #endif
ARM GAS  /tmp/cco7GNYv.s 			page 25


 462              		.loc 2 591 5 view .LVU158
 463              		.syntax unified
 464              	@ 591 "../Middlewares/threadx/ports/cortex_m55/gnu/inc/tx_port.h" 1
 465 00f4 82F31088 		MSR  PRIMASK,r2
 466              	@ 0 "" 2
 467              	.LVL41:
 591:../Middlewares/threadx/ports/cortex_m55/gnu/inc/tx_port.h **** #endif
 468              		.loc 2 591 5 is_stmt 0 view .LVU159
 469              		.thumb
 470              		.syntax unified
 471              	.LBE56:
 472              	.LBE55:
 238:../Middlewares/threadx/common/src/tx_mutex_delete.c **** 
 239:../Middlewares/threadx/common/src/tx_mutex_delete.c ****     /* Check for preemption.  */
 240:../Middlewares/threadx/common/src/tx_mutex_delete.c ****     _tx_thread_system_preempt_check();
 473              		.loc 1 240 5 is_stmt 1 view .LVU160
 474 00f8 FFF7FEFF 		bl	_tx_thread_system_preempt_check
 475              	.LVL42:
 241:../Middlewares/threadx/common/src/tx_mutex_delete.c **** 
 242:../Middlewares/threadx/common/src/tx_mutex_delete.c ****     /* Return TX_SUCCESS.  */
 243:../Middlewares/threadx/common/src/tx_mutex_delete.c ****     return(TX_SUCCESS);
 476              		.loc 1 243 5 view .LVU161
 244:../Middlewares/threadx/common/src/tx_mutex_delete.c **** }
 477              		.loc 1 244 1 is_stmt 0 view .LVU162
 478 00fc 3846     		mov	r0, r7
 479 00fe 02B0     		add	sp, sp, #8
 480              		.cfi_remember_state
 481              		.cfi_def_cfa_offset 24
 482              		@ sp needed
 483 0100 BDE8F081 		pop	{r4, r5, r6, r7, r8, pc}
 484              	.LVL43:
 485              	.L12:
 486              		.cfi_restore_state
 189:../Middlewares/threadx/common/src/tx_mutex_delete.c **** 
 487              		.loc 1 189 9 is_stmt 1 view .LVU163
 189:../Middlewares/threadx/common/src/tx_mutex_delete.c **** 
 488              		.loc 1 189 24 is_stmt 0 view .LVU164
 489 0104 013F     		subs	r7, r7, #1
 490              	.LVL44:
 192:../Middlewares/threadx/common/src/tx_mutex_delete.c **** 
 491              		.loc 1 192 9 is_stmt 1 view .LVU165
 492              	.LBB57:
 493              	.LBI57:
 595:../Middlewares/threadx/ports/cortex_m55/gnu/inc/tx_port.h **** {
 494              		.loc 2 595 55 view .LVU166
 495              	.LBB58:
 597:../Middlewares/threadx/ports/cortex_m55/gnu/inc/tx_port.h **** 
 496              		.loc 2 597 1 view .LVU167
 599:../Middlewares/threadx/ports/cortex_m55/gnu/inc/tx_port.h **** 
 497              		.loc 2 599 5 view .LVU168
 498              	.LBB59:
 499              	.LBI59:
 563:../Middlewares/threadx/ports/cortex_m55/gnu/inc/tx_port.h **** {
 500              		.loc 2 563 55 view .LVU169
 501              	.LBB60:
 565:../Middlewares/threadx/ports/cortex_m55/gnu/inc/tx_port.h **** #ifdef TX_PORT_USE_BASEPRI
 502              		.loc 2 565 1 view .LVU170
ARM GAS  /tmp/cco7GNYv.s 			page 26


 569:../Middlewares/threadx/ports/cortex_m55/gnu/inc/tx_port.h **** #endif
 503              		.loc 2 569 5 view .LVU171
 504              		.syntax unified
 505              	@ 569 "../Middlewares/threadx/ports/cortex_m55/gnu/inc/tx_port.h" 1
 506 0106 EFF31082 		MRS  r2, PRIMASK 
 507              	@ 0 "" 2
 508              	.LVL45:
 571:../Middlewares/threadx/ports/cortex_m55/gnu/inc/tx_port.h **** }
 509              		.loc 2 571 5 view .LVU172
 571:../Middlewares/threadx/ports/cortex_m55/gnu/inc/tx_port.h **** }
 510              		.loc 2 571 5 is_stmt 0 view .LVU173
 511              		.thumb
 512              		.syntax unified
 513              	.LBE60:
 514              	.LBE59:
 604:../Middlewares/threadx/ports/cortex_m55/gnu/inc/tx_port.h **** #endif
 515              		.loc 2 604 5 is_stmt 1 view .LVU174
 516              		.syntax unified
 517              	@ 604 "../Middlewares/threadx/ports/cortex_m55/gnu/inc/tx_port.h" 1
 518 010a 72B6     		CPSID i
 519              	@ 0 "" 2
 520              		.loc 2 606 5 view .LVU175
 521              	.LVL46:
 522              		.loc 2 606 5 is_stmt 0 view .LVU176
 523              		.thumb
 524              		.syntax unified
 525              	.LBE58:
 526              	.LBE57:
 196:../Middlewares/threadx/common/src/tx_mutex_delete.c **** 
 527              		.loc 1 196 9 is_stmt 1 view .LVU177
 196:../Middlewares/threadx/common/src/tx_mutex_delete.c **** 
 528              		.loc 1 196 20 is_stmt 0 view .LVU178
 529 010c 019B     		ldr	r3, [sp, #4]
 202:../Middlewares/threadx/common/src/tx_mutex_delete.c **** 
 530              		.loc 1 202 21 view .LVU179
 531 010e D3F87080 		ldr	r8, [r3, #112]
 196:../Middlewares/threadx/common/src/tx_mutex_delete.c **** 
 532              		.loc 1 196 49 view .LVU180
 533 0112 9C66     		str	r4, [r3, #104]
 199:../Middlewares/threadx/common/src/tx_mutex_delete.c **** 
 534              		.loc 1 199 9 is_stmt 1 view .LVU181
 199:../Middlewares/threadx/common/src/tx_mutex_delete.c **** 
 535              		.loc 1 199 48 is_stmt 0 view .LVU182
 536 0114 C3F88460 		str	r6, [r3, #132]
 202:../Middlewares/threadx/common/src/tx_mutex_delete.c **** 
 537              		.loc 1 202 9 is_stmt 1 view .LVU183
 538              	.LVL47:
 214:../Middlewares/threadx/common/src/tx_mutex_delete.c **** 
 539              		.loc 1 214 9 view .LVU184
 214:../Middlewares/threadx/common/src/tx_mutex_delete.c **** 
 540              		.loc 1 214 35 is_stmt 0 view .LVU185
 541 0118 2B68     		ldr	r3, [r5]
 542 011a 0133     		adds	r3, r3, #1
 543 011c 2B60     		str	r3, [r5]
 217:../Middlewares/threadx/common/src/tx_mutex_delete.c **** 
 544              		.loc 1 217 9 is_stmt 1 view .LVU186
 545              	.LVL48:
ARM GAS  /tmp/cco7GNYv.s 			page 27


 546              	.LBB61:
 547              	.LBI61:
 586:../Middlewares/threadx/ports/cortex_m55/gnu/inc/tx_port.h **** {
 548              		.loc 2 586 55 view .LVU187
 549              	.LBB62:
 591:../Middlewares/threadx/ports/cortex_m55/gnu/inc/tx_port.h **** #endif
 550              		.loc 2 591 5 view .LVU188
 551              		.syntax unified
 552              	@ 591 "../Middlewares/threadx/ports/cortex_m55/gnu/inc/tx_port.h" 1
 553 011e 82F31088 		MSR  PRIMASK,r2
 554              	@ 0 "" 2
 555              	.LVL49:
 591:../Middlewares/threadx/ports/cortex_m55/gnu/inc/tx_port.h **** #endif
 556              		.loc 2 591 5 is_stmt 0 view .LVU189
 557              		.thumb
 558              		.syntax unified
 559              	.LBE62:
 560              	.LBE61:
 220:../Middlewares/threadx/common/src/tx_mutex_delete.c **** #endif
 561              		.loc 1 220 9 is_stmt 1 view .LVU190
 562 0122 0198     		ldr	r0, [sp, #4]
 563 0124 FFF7FEFF 		bl	_tx_thread_system_resume
 564              	.LVL50:
 224:../Middlewares/threadx/common/src/tx_mutex_delete.c ****     }
 565              		.loc 1 224 9 view .LVU191
 224:../Middlewares/threadx/common/src/tx_mutex_delete.c ****     }
 566              		.loc 1 224 20 is_stmt 0 view .LVU192
 567 0128 CDF80480 		str	r8, [sp, #4]
 568 012c DBE7     		b	.L11
 569              	.L25:
 570 012e 00BF     		.align	2
 571              	.L24:
 572 0130 00000000 		.word	_tx_trace_buffer_current_ptr
 573 0134 00000000 		.word	_tx_trace_event_enable_bits
 574 0138 00000000 		.word	_tx_thread_system_state
 575 013c 00000000 		.word	_tx_thread_current_ptr
 576 0140 001000E0 		.word	-536866816
 577 0144 00000000 		.word	_tx_trace_header_ptr
 578 0148 00000000 		.word	_tx_trace_buffer_end_ptr
 579 014c 00000000 		.word	_tx_trace_buffer_start_ptr
 580 0150 00000000 		.word	_tx_trace_full_notify_function
 581 0154 00000000 		.word	_tx_mutex_created_count
 582 0158 00000000 		.word	_tx_mutex_created_ptr
 583 015c 00000000 		.word	_tx_thread_preempt_disable
 584              		.cfi_endproc
 585              	.LFE8:
 587              		.text
 588              	.Letext0:
 589              		.file 3 "../Middlewares/threadx/common/inc/tx_api.h"
 590              		.file 4 "../Middlewares/threadx/common/inc/tx_thread.h"
 591              		.file 5 "../Middlewares/threadx/common/inc/tx_trace.h"
 592              		.file 6 "../Middlewares/threadx/common/inc/tx_mutex.h"
ARM GAS  /tmp/cco7GNYv.s 			page 28

