ARM GAS  /tmp/cclAbPUN.s 			page 1


   1              		.arch armv8.1-m.main
   2              		.fpu fpv5-d16
   3              		.arch_extension dsp
   4              		.arch_extension fp
   5              		.arch_extension fp.dp
   6              		.arch_extension mve
   7              		.arch_extension mve.fp
   8              		.eabi_attribute 5, "cortex-m55"
   9              		.eabi_attribute 28, 1
  10              		.eabi_attribute 20, 1
  11              		.eabi_attribute 21, 1
  12              		.eabi_attribute 23, 3
  13              		.eabi_attribute 24, 1
  14              		.eabi_attribute 25, 1
  15              		.eabi_attribute 26, 1
  16              		.eabi_attribute 30, 4
  17              		.eabi_attribute 34, 1
  18              		.eabi_attribute 38, 1
  19              		.eabi_attribute 18, 4
  20              		.file	"tx_semaphore_get.c"
  21              		.text
  22              	.Ltext0:
  23              		.cfi_sections	.debug_frame
  24              		.file 1 "../Middlewares/threadx/common/src/tx_semaphore_get.c"
  25              		.section	.text._tx_semaphore_get,"ax",%progbits
  26              		.align	1
  27              		.global	_tx_semaphore_get
  28              		.syntax unified
  29              		.thumb
  30              		.thumb_func
  32              	_tx_semaphore_get:
  33              	.LVL0:
  34              	.LFB8:
   1:../Middlewares/threadx/common/src/tx_semaphore_get.c **** /**************************************************************************/
   2:../Middlewares/threadx/common/src/tx_semaphore_get.c **** /*                                                                        */
   3:../Middlewares/threadx/common/src/tx_semaphore_get.c **** /*       Copyright (c) Microsoft Corporation. All rights reserved.        */
   4:../Middlewares/threadx/common/src/tx_semaphore_get.c **** /*                                                                        */
   5:../Middlewares/threadx/common/src/tx_semaphore_get.c **** /*       This software is licensed under the Microsoft Software License   */
   6:../Middlewares/threadx/common/src/tx_semaphore_get.c **** /*       Terms for Microsoft Azure RTOS. Full text of the license can be  */
   7:../Middlewares/threadx/common/src/tx_semaphore_get.c **** /*       found in the LICENSE file at https://aka.ms/AzureRTOS_EULA       */
   8:../Middlewares/threadx/common/src/tx_semaphore_get.c **** /*       and in the root directory of this software.                      */
   9:../Middlewares/threadx/common/src/tx_semaphore_get.c **** /*                                                                        */
  10:../Middlewares/threadx/common/src/tx_semaphore_get.c **** /**************************************************************************/
  11:../Middlewares/threadx/common/src/tx_semaphore_get.c **** 
  12:../Middlewares/threadx/common/src/tx_semaphore_get.c **** 
  13:../Middlewares/threadx/common/src/tx_semaphore_get.c **** /**************************************************************************/
  14:../Middlewares/threadx/common/src/tx_semaphore_get.c **** /**************************************************************************/
  15:../Middlewares/threadx/common/src/tx_semaphore_get.c **** /**                                                                       */
  16:../Middlewares/threadx/common/src/tx_semaphore_get.c **** /** ThreadX Component                                                     */
  17:../Middlewares/threadx/common/src/tx_semaphore_get.c **** /**                                                                       */
  18:../Middlewares/threadx/common/src/tx_semaphore_get.c **** /**   Semaphore                                                           */
  19:../Middlewares/threadx/common/src/tx_semaphore_get.c **** /**                                                                       */
  20:../Middlewares/threadx/common/src/tx_semaphore_get.c **** /**************************************************************************/
  21:../Middlewares/threadx/common/src/tx_semaphore_get.c **** /**************************************************************************/
  22:../Middlewares/threadx/common/src/tx_semaphore_get.c **** 
  23:../Middlewares/threadx/common/src/tx_semaphore_get.c **** #define TX_SOURCE_CODE
  24:../Middlewares/threadx/common/src/tx_semaphore_get.c **** 
ARM GAS  /tmp/cclAbPUN.s 			page 2


  25:../Middlewares/threadx/common/src/tx_semaphore_get.c **** 
  26:../Middlewares/threadx/common/src/tx_semaphore_get.c **** /* Include necessary system files.  */
  27:../Middlewares/threadx/common/src/tx_semaphore_get.c **** 
  28:../Middlewares/threadx/common/src/tx_semaphore_get.c **** #include "tx_api.h"
  29:../Middlewares/threadx/common/src/tx_semaphore_get.c **** #include "tx_trace.h"
  30:../Middlewares/threadx/common/src/tx_semaphore_get.c **** #include "tx_thread.h"
  31:../Middlewares/threadx/common/src/tx_semaphore_get.c **** #include "tx_semaphore.h"
  32:../Middlewares/threadx/common/src/tx_semaphore_get.c **** 
  33:../Middlewares/threadx/common/src/tx_semaphore_get.c **** 
  34:../Middlewares/threadx/common/src/tx_semaphore_get.c **** /**************************************************************************/
  35:../Middlewares/threadx/common/src/tx_semaphore_get.c **** /*                                                                        */
  36:../Middlewares/threadx/common/src/tx_semaphore_get.c **** /*  FUNCTION                                               RELEASE        */
  37:../Middlewares/threadx/common/src/tx_semaphore_get.c **** /*                                                                        */
  38:../Middlewares/threadx/common/src/tx_semaphore_get.c **** /*    _tx_semaphore_get                                   PORTABLE C      */
  39:../Middlewares/threadx/common/src/tx_semaphore_get.c **** /*                                                           6.1          */
  40:../Middlewares/threadx/common/src/tx_semaphore_get.c **** /*  AUTHOR                                                                */
  41:../Middlewares/threadx/common/src/tx_semaphore_get.c **** /*                                                                        */
  42:../Middlewares/threadx/common/src/tx_semaphore_get.c **** /*    William E. Lamie, Microsoft Corporation                             */
  43:../Middlewares/threadx/common/src/tx_semaphore_get.c **** /*                                                                        */
  44:../Middlewares/threadx/common/src/tx_semaphore_get.c **** /*  DESCRIPTION                                                           */
  45:../Middlewares/threadx/common/src/tx_semaphore_get.c **** /*                                                                        */
  46:../Middlewares/threadx/common/src/tx_semaphore_get.c **** /*    This function gets an instance from the specified counting          */
  47:../Middlewares/threadx/common/src/tx_semaphore_get.c **** /*    semaphore.                                                          */
  48:../Middlewares/threadx/common/src/tx_semaphore_get.c **** /*                                                                        */
  49:../Middlewares/threadx/common/src/tx_semaphore_get.c **** /*  INPUT                                                                 */
  50:../Middlewares/threadx/common/src/tx_semaphore_get.c **** /*                                                                        */
  51:../Middlewares/threadx/common/src/tx_semaphore_get.c **** /*    semaphore_ptr                     Pointer to semaphore control block*/
  52:../Middlewares/threadx/common/src/tx_semaphore_get.c **** /*    wait_option                       Suspension option                 */
  53:../Middlewares/threadx/common/src/tx_semaphore_get.c **** /*                                                                        */
  54:../Middlewares/threadx/common/src/tx_semaphore_get.c **** /*  OUTPUT                                                                */
  55:../Middlewares/threadx/common/src/tx_semaphore_get.c **** /*                                                                        */
  56:../Middlewares/threadx/common/src/tx_semaphore_get.c **** /*    status                            Completion status                 */
  57:../Middlewares/threadx/common/src/tx_semaphore_get.c **** /*                                                                        */
  58:../Middlewares/threadx/common/src/tx_semaphore_get.c **** /*  CALLS                                                                 */
  59:../Middlewares/threadx/common/src/tx_semaphore_get.c **** /*                                                                        */
  60:../Middlewares/threadx/common/src/tx_semaphore_get.c **** /*    _tx_thread_system_suspend         Suspend thread service            */
  61:../Middlewares/threadx/common/src/tx_semaphore_get.c **** /*    _tx_thread_system_ni_suspend      Non-interruptable suspend thread  */
  62:../Middlewares/threadx/common/src/tx_semaphore_get.c **** /*                                                                        */
  63:../Middlewares/threadx/common/src/tx_semaphore_get.c **** /*  CALLED BY                                                             */
  64:../Middlewares/threadx/common/src/tx_semaphore_get.c **** /*                                                                        */
  65:../Middlewares/threadx/common/src/tx_semaphore_get.c **** /*    Application Code                                                    */
  66:../Middlewares/threadx/common/src/tx_semaphore_get.c **** /*                                                                        */
  67:../Middlewares/threadx/common/src/tx_semaphore_get.c **** /*  RELEASE HISTORY                                                       */
  68:../Middlewares/threadx/common/src/tx_semaphore_get.c **** /*                                                                        */
  69:../Middlewares/threadx/common/src/tx_semaphore_get.c **** /*    DATE              NAME                      DESCRIPTION             */
  70:../Middlewares/threadx/common/src/tx_semaphore_get.c **** /*                                                                        */
  71:../Middlewares/threadx/common/src/tx_semaphore_get.c **** /*  05-19-2020     William E. Lamie         Initial Version 6.0           */
  72:../Middlewares/threadx/common/src/tx_semaphore_get.c **** /*  09-30-2020     Yuxin Zhou               Modified comment(s),          */
  73:../Middlewares/threadx/common/src/tx_semaphore_get.c **** /*                                            resulting in version 6.1    */
  74:../Middlewares/threadx/common/src/tx_semaphore_get.c **** /*                                                                        */
  75:../Middlewares/threadx/common/src/tx_semaphore_get.c **** /**************************************************************************/
  76:../Middlewares/threadx/common/src/tx_semaphore_get.c **** UINT  _tx_semaphore_get(TX_SEMAPHORE *semaphore_ptr, ULONG wait_option)
  77:../Middlewares/threadx/common/src/tx_semaphore_get.c **** {
  35              		.loc 1 77 1 view -0
  36              		.cfi_startproc
  37              		@ args = 0, pretend = 0, frame = 8
  38              		@ frame_needed = 0, uses_anonymous_args = 0
ARM GAS  /tmp/cclAbPUN.s 			page 3


  78:../Middlewares/threadx/common/src/tx_semaphore_get.c **** 
  79:../Middlewares/threadx/common/src/tx_semaphore_get.c **** TX_INTERRUPT_SAVE_AREA
  39              		.loc 1 79 1 view .LVU1
  80:../Middlewares/threadx/common/src/tx_semaphore_get.c **** 
  81:../Middlewares/threadx/common/src/tx_semaphore_get.c **** TX_THREAD       *thread_ptr;
  40              		.loc 1 81 1 view .LVU2
  82:../Middlewares/threadx/common/src/tx_semaphore_get.c **** TX_THREAD       *next_thread;
  41              		.loc 1 82 1 view .LVU3
  83:../Middlewares/threadx/common/src/tx_semaphore_get.c **** TX_THREAD       *previous_thread;
  42              		.loc 1 83 1 view .LVU4
  84:../Middlewares/threadx/common/src/tx_semaphore_get.c **** UINT            status;
  43              		.loc 1 84 1 view .LVU5
  85:../Middlewares/threadx/common/src/tx_semaphore_get.c **** 
  86:../Middlewares/threadx/common/src/tx_semaphore_get.c **** 
  87:../Middlewares/threadx/common/src/tx_semaphore_get.c ****     /* Default the status to TX_SUCCESS.  */
  88:../Middlewares/threadx/common/src/tx_semaphore_get.c ****     status =  TX_SUCCESS;
  44              		.loc 1 88 5 view .LVU6
  89:../Middlewares/threadx/common/src/tx_semaphore_get.c **** 
  90:../Middlewares/threadx/common/src/tx_semaphore_get.c ****     /* Disable interrupts to get an instance from the semaphore.  */
  91:../Middlewares/threadx/common/src/tx_semaphore_get.c ****     TX_DISABLE
  45              		.loc 1 91 5 view .LVU7
  46              	.LBB19:
  47              	.LBI19:
  48              		.file 2 "../Middlewares/threadx/ports/cortex_m55/gnu/inc/tx_port.h"
   1:../Middlewares/threadx/ports/cortex_m55/gnu/inc/tx_port.h **** /**************************************************************************/
   2:../Middlewares/threadx/ports/cortex_m55/gnu/inc/tx_port.h **** /*                                                                        */
   3:../Middlewares/threadx/ports/cortex_m55/gnu/inc/tx_port.h **** /*       Copyright (c) Microsoft Corporation. All rights reserved.        */
   4:../Middlewares/threadx/ports/cortex_m55/gnu/inc/tx_port.h **** /*                                                                        */
   5:../Middlewares/threadx/ports/cortex_m55/gnu/inc/tx_port.h **** /*       This software is licensed under the Microsoft Software License   */
   6:../Middlewares/threadx/ports/cortex_m55/gnu/inc/tx_port.h **** /*       Terms for Microsoft Azure RTOS. Full text of the license can be  */
   7:../Middlewares/threadx/ports/cortex_m55/gnu/inc/tx_port.h **** /*       found in the LICENSE file at https://aka.ms/AzureRTOS_EULA       */
   8:../Middlewares/threadx/ports/cortex_m55/gnu/inc/tx_port.h **** /*       and in the root directory of this software.                      */
   9:../Middlewares/threadx/ports/cortex_m55/gnu/inc/tx_port.h **** /*                                                                        */
  10:../Middlewares/threadx/ports/cortex_m55/gnu/inc/tx_port.h **** /**************************************************************************/
  11:../Middlewares/threadx/ports/cortex_m55/gnu/inc/tx_port.h **** 
  12:../Middlewares/threadx/ports/cortex_m55/gnu/inc/tx_port.h **** 
  13:../Middlewares/threadx/ports/cortex_m55/gnu/inc/tx_port.h **** /**************************************************************************/
  14:../Middlewares/threadx/ports/cortex_m55/gnu/inc/tx_port.h **** /**************************************************************************/
  15:../Middlewares/threadx/ports/cortex_m55/gnu/inc/tx_port.h **** /**                                                                       */
  16:../Middlewares/threadx/ports/cortex_m55/gnu/inc/tx_port.h **** /** ThreadX Component                                                     */
  17:../Middlewares/threadx/ports/cortex_m55/gnu/inc/tx_port.h **** /**                                                                       */
  18:../Middlewares/threadx/ports/cortex_m55/gnu/inc/tx_port.h **** /**   Port Specific                                                       */
  19:../Middlewares/threadx/ports/cortex_m55/gnu/inc/tx_port.h **** /**                                                                       */
  20:../Middlewares/threadx/ports/cortex_m55/gnu/inc/tx_port.h **** /**************************************************************************/
  21:../Middlewares/threadx/ports/cortex_m55/gnu/inc/tx_port.h **** /**************************************************************************/
  22:../Middlewares/threadx/ports/cortex_m55/gnu/inc/tx_port.h **** 
  23:../Middlewares/threadx/ports/cortex_m55/gnu/inc/tx_port.h **** 
  24:../Middlewares/threadx/ports/cortex_m55/gnu/inc/tx_port.h **** /**************************************************************************/
  25:../Middlewares/threadx/ports/cortex_m55/gnu/inc/tx_port.h **** /*                                                                        */
  26:../Middlewares/threadx/ports/cortex_m55/gnu/inc/tx_port.h **** /*  PORT SPECIFIC C INFORMATION                            RELEASE        */
  27:../Middlewares/threadx/ports/cortex_m55/gnu/inc/tx_port.h **** /*                                                                        */
  28:../Middlewares/threadx/ports/cortex_m55/gnu/inc/tx_port.h **** /*    tx_port.h                                         Cortex-M55/GNU    */
  29:../Middlewares/threadx/ports/cortex_m55/gnu/inc/tx_port.h **** /*                                                           6.2.1        */
  30:../Middlewares/threadx/ports/cortex_m55/gnu/inc/tx_port.h **** /*                                                                        */
  31:../Middlewares/threadx/ports/cortex_m55/gnu/inc/tx_port.h **** /*  AUTHOR                                                                */
  32:../Middlewares/threadx/ports/cortex_m55/gnu/inc/tx_port.h **** /*                                                                        */
  33:../Middlewares/threadx/ports/cortex_m55/gnu/inc/tx_port.h **** /*    Scott Larson, Microsoft Corporation                                 */
ARM GAS  /tmp/cclAbPUN.s 			page 4


  34:../Middlewares/threadx/ports/cortex_m55/gnu/inc/tx_port.h **** /*                                                                        */
  35:../Middlewares/threadx/ports/cortex_m55/gnu/inc/tx_port.h **** /*  DESCRIPTION                                                           */
  36:../Middlewares/threadx/ports/cortex_m55/gnu/inc/tx_port.h **** /*                                                                        */
  37:../Middlewares/threadx/ports/cortex_m55/gnu/inc/tx_port.h **** /*    This file contains data type definitions that make the ThreadX      */
  38:../Middlewares/threadx/ports/cortex_m55/gnu/inc/tx_port.h **** /*    real-time kernel function identically on a variety of different     */
  39:../Middlewares/threadx/ports/cortex_m55/gnu/inc/tx_port.h **** /*    processor architectures.  For example, the size or number of bits   */
  40:../Middlewares/threadx/ports/cortex_m55/gnu/inc/tx_port.h **** /*    in an "int" data type vary between microprocessor architectures and */
  41:../Middlewares/threadx/ports/cortex_m55/gnu/inc/tx_port.h **** /*    even C compilers for the same microprocessor.  ThreadX does not     */
  42:../Middlewares/threadx/ports/cortex_m55/gnu/inc/tx_port.h **** /*    directly use native C data types.  Instead, ThreadX creates its     */
  43:../Middlewares/threadx/ports/cortex_m55/gnu/inc/tx_port.h **** /*    own special types that can be mapped to actual data types by this   */
  44:../Middlewares/threadx/ports/cortex_m55/gnu/inc/tx_port.h **** /*    file to guarantee consistency in the interface and functionality.   */
  45:../Middlewares/threadx/ports/cortex_m55/gnu/inc/tx_port.h **** /*                                                                        */
  46:../Middlewares/threadx/ports/cortex_m55/gnu/inc/tx_port.h **** /*    This file replaces the previous Cortex-M55 files. It unifies        */
  47:../Middlewares/threadx/ports/cortex_m55/gnu/inc/tx_port.h **** /*    the Cortex-M55 compilers into one common file.                      */
  48:../Middlewares/threadx/ports/cortex_m55/gnu/inc/tx_port.h **** /*                                                                        */
  49:../Middlewares/threadx/ports/cortex_m55/gnu/inc/tx_port.h **** /*  RELEASE HISTORY                                                       */
  50:../Middlewares/threadx/ports/cortex_m55/gnu/inc/tx_port.h **** /*                                                                        */
  51:../Middlewares/threadx/ports/cortex_m55/gnu/inc/tx_port.h **** /*    DATE              NAME                      DESCRIPTION             */
  52:../Middlewares/threadx/ports/cortex_m55/gnu/inc/tx_port.h **** /*                                                                        */
  53:../Middlewares/threadx/ports/cortex_m55/gnu/inc/tx_port.h **** /*  09-30-2020      Scott Larson            Initial Version 6.1           */
  54:../Middlewares/threadx/ports/cortex_m55/gnu/inc/tx_port.h **** /*  03-02-2021      Scott Larson            Modified comment(s), added    */
  55:../Middlewares/threadx/ports/cortex_m55/gnu/inc/tx_port.h **** /*                                            ULONG64_DEFINED,            */
  56:../Middlewares/threadx/ports/cortex_m55/gnu/inc/tx_port.h **** /*                                            resulting in version 6.1.5  */
  57:../Middlewares/threadx/ports/cortex_m55/gnu/inc/tx_port.h **** /*  06-02-2021      Scott Larson            Modified comment(s), removed  */
  58:../Middlewares/threadx/ports/cortex_m55/gnu/inc/tx_port.h **** /*                                            unneeded header file, funcs */
  59:../Middlewares/threadx/ports/cortex_m55/gnu/inc/tx_port.h **** /*                                            set_control and get_control */
  60:../Middlewares/threadx/ports/cortex_m55/gnu/inc/tx_port.h **** /*                                            changed to inline,          */
  61:../Middlewares/threadx/ports/cortex_m55/gnu/inc/tx_port.h **** /*                                            added symbol to enable      */
  62:../Middlewares/threadx/ports/cortex_m55/gnu/inc/tx_port.h **** /*                                            stack error handler,        */
  63:../Middlewares/threadx/ports/cortex_m55/gnu/inc/tx_port.h **** /*                                            resulting in version 6.1.7  */
  64:../Middlewares/threadx/ports/cortex_m55/gnu/inc/tx_port.h **** /*  10-15-2021      Scott Larson            Modified comment(s), improved */
  65:../Middlewares/threadx/ports/cortex_m55/gnu/inc/tx_port.h **** /*                                            stack check error handling, */
  66:../Middlewares/threadx/ports/cortex_m55/gnu/inc/tx_port.h **** /*                                            resulting in version 6.1.9  */
  67:../Middlewares/threadx/ports/cortex_m55/gnu/inc/tx_port.h **** /*  01-31-2022      Scott Larson            Modified comment(s), unified  */
  68:../Middlewares/threadx/ports/cortex_m55/gnu/inc/tx_port.h **** /*                                            this file across compilers, */
  69:../Middlewares/threadx/ports/cortex_m55/gnu/inc/tx_port.h **** /*                                            fixed predefined macro,     */
  70:../Middlewares/threadx/ports/cortex_m55/gnu/inc/tx_port.h **** /*                                            resulting in version 6.1.10 */
  71:../Middlewares/threadx/ports/cortex_m55/gnu/inc/tx_port.h **** /*  04-25-2022      Scott Larson            Modified comments and added   */
  72:../Middlewares/threadx/ports/cortex_m55/gnu/inc/tx_port.h **** /*                                            volatile to registers,      */
  73:../Middlewares/threadx/ports/cortex_m55/gnu/inc/tx_port.h **** /*                                            resulting in version 6.1.11 */
  74:../Middlewares/threadx/ports/cortex_m55/gnu/inc/tx_port.h **** /*  07-29-2022      Scott Larson            Modified comments and changed */
  75:../Middlewares/threadx/ports/cortex_m55/gnu/inc/tx_port.h **** /*                                            secure stack initialization */
  76:../Middlewares/threadx/ports/cortex_m55/gnu/inc/tx_port.h **** /*                                            macro to port-specific,     */
  77:../Middlewares/threadx/ports/cortex_m55/gnu/inc/tx_port.h **** /*                                            described BASEPRI usage,    */
  78:../Middlewares/threadx/ports/cortex_m55/gnu/inc/tx_port.h **** /*                                            resulting in version 6.1.12 */
  79:../Middlewares/threadx/ports/cortex_m55/gnu/inc/tx_port.h **** /*  03-08-2023      Scott Larson            Removed unneeded #include,    */
  80:../Middlewares/threadx/ports/cortex_m55/gnu/inc/tx_port.h **** /*                                            resulting in version 6.2.1  */
  81:../Middlewares/threadx/ports/cortex_m55/gnu/inc/tx_port.h **** /*                                                                        */
  82:../Middlewares/threadx/ports/cortex_m55/gnu/inc/tx_port.h **** /**************************************************************************/
  83:../Middlewares/threadx/ports/cortex_m55/gnu/inc/tx_port.h **** 
  84:../Middlewares/threadx/ports/cortex_m55/gnu/inc/tx_port.h **** #ifndef TX_PORT_H
  85:../Middlewares/threadx/ports/cortex_m55/gnu/inc/tx_port.h **** #define TX_PORT_H
  86:../Middlewares/threadx/ports/cortex_m55/gnu/inc/tx_port.h **** 
  87:../Middlewares/threadx/ports/cortex_m55/gnu/inc/tx_port.h **** /* Determine if the optional ThreadX user define file should be used.  */
  88:../Middlewares/threadx/ports/cortex_m55/gnu/inc/tx_port.h **** #ifdef TX_INCLUDE_USER_DEFINE_FILE
  89:../Middlewares/threadx/ports/cortex_m55/gnu/inc/tx_port.h **** 
  90:../Middlewares/threadx/ports/cortex_m55/gnu/inc/tx_port.h **** /* Yes, include the user defines in tx_user.h. The defines in this file may
ARM GAS  /tmp/cclAbPUN.s 			page 5


  91:../Middlewares/threadx/ports/cortex_m55/gnu/inc/tx_port.h ****    alternately be defined on the command line.  */
  92:../Middlewares/threadx/ports/cortex_m55/gnu/inc/tx_port.h **** 
  93:../Middlewares/threadx/ports/cortex_m55/gnu/inc/tx_port.h **** #include "tx_user.h"
  94:../Middlewares/threadx/ports/cortex_m55/gnu/inc/tx_port.h **** #endif /* TX_INCLUDE_USER_DEFINE_FILE */
  95:../Middlewares/threadx/ports/cortex_m55/gnu/inc/tx_port.h **** 
  96:../Middlewares/threadx/ports/cortex_m55/gnu/inc/tx_port.h **** /* Define compiler library include files.  */
  97:../Middlewares/threadx/ports/cortex_m55/gnu/inc/tx_port.h **** 
  98:../Middlewares/threadx/ports/cortex_m55/gnu/inc/tx_port.h **** #include <stdlib.h>
  99:../Middlewares/threadx/ports/cortex_m55/gnu/inc/tx_port.h **** #include <string.h>
 100:../Middlewares/threadx/ports/cortex_m55/gnu/inc/tx_port.h **** 
 101:../Middlewares/threadx/ports/cortex_m55/gnu/inc/tx_port.h **** #ifdef __ICCARM__
 102:../Middlewares/threadx/ports/cortex_m55/gnu/inc/tx_port.h **** #include <intrinsics.h>                         /* IAR Intrinsics */
 103:../Middlewares/threadx/ports/cortex_m55/gnu/inc/tx_port.h **** #define __asm__                 __asm           /* Define to make all inline asm from each compiler
 104:../Middlewares/threadx/ports/cortex_m55/gnu/inc/tx_port.h **** #define _tx_control_get         __get_CONTROL
 105:../Middlewares/threadx/ports/cortex_m55/gnu/inc/tx_port.h **** #define _tx_control_set         __set_CONTROL
 106:../Middlewares/threadx/ports/cortex_m55/gnu/inc/tx_port.h **** #define _tx_ipsr_get            __get_IPSR
 107:../Middlewares/threadx/ports/cortex_m55/gnu/inc/tx_port.h **** #ifdef  TX_ENABLE_IAR_LIBRARY_SUPPORT
 108:../Middlewares/threadx/ports/cortex_m55/gnu/inc/tx_port.h **** #include <yvals.h>
 109:../Middlewares/threadx/ports/cortex_m55/gnu/inc/tx_port.h **** #endif /* TX_ENABLE_IAR_LIBRARY_SUPPORT */
 110:../Middlewares/threadx/ports/cortex_m55/gnu/inc/tx_port.h **** #endif /* __ICCARM__ */
 111:../Middlewares/threadx/ports/cortex_m55/gnu/inc/tx_port.h **** 
 112:../Middlewares/threadx/ports/cortex_m55/gnu/inc/tx_port.h **** 
 113:../Middlewares/threadx/ports/cortex_m55/gnu/inc/tx_port.h **** /* Define ThreadX basic types for this port.  */
 114:../Middlewares/threadx/ports/cortex_m55/gnu/inc/tx_port.h **** 
 115:../Middlewares/threadx/ports/cortex_m55/gnu/inc/tx_port.h **** #define VOID                                    void
 116:../Middlewares/threadx/ports/cortex_m55/gnu/inc/tx_port.h **** typedef char                                    CHAR;
 117:../Middlewares/threadx/ports/cortex_m55/gnu/inc/tx_port.h **** typedef unsigned char                           UCHAR;
 118:../Middlewares/threadx/ports/cortex_m55/gnu/inc/tx_port.h **** typedef int                                     INT;
 119:../Middlewares/threadx/ports/cortex_m55/gnu/inc/tx_port.h **** typedef unsigned int                            UINT;
 120:../Middlewares/threadx/ports/cortex_m55/gnu/inc/tx_port.h **** typedef long                                    LONG;
 121:../Middlewares/threadx/ports/cortex_m55/gnu/inc/tx_port.h **** typedef unsigned long                           ULONG;
 122:../Middlewares/threadx/ports/cortex_m55/gnu/inc/tx_port.h **** typedef unsigned long long                      ULONG64;
 123:../Middlewares/threadx/ports/cortex_m55/gnu/inc/tx_port.h **** typedef short                                   SHORT;
 124:../Middlewares/threadx/ports/cortex_m55/gnu/inc/tx_port.h **** typedef unsigned short                          USHORT;
 125:../Middlewares/threadx/ports/cortex_m55/gnu/inc/tx_port.h **** #define ULONG64_DEFINED
 126:../Middlewares/threadx/ports/cortex_m55/gnu/inc/tx_port.h **** 
 127:../Middlewares/threadx/ports/cortex_m55/gnu/inc/tx_port.h **** /* Function prototypes for this port. */
 128:../Middlewares/threadx/ports/cortex_m55/gnu/inc/tx_port.h **** struct  TX_THREAD_STRUCT;
 129:../Middlewares/threadx/ports/cortex_m55/gnu/inc/tx_port.h **** UINT    _txe_thread_secure_stack_allocate(struct TX_THREAD_STRUCT *thread_ptr, ULONG stack_size);
 130:../Middlewares/threadx/ports/cortex_m55/gnu/inc/tx_port.h **** UINT    _txe_thread_secure_stack_free(struct TX_THREAD_STRUCT *thread_ptr);
 131:../Middlewares/threadx/ports/cortex_m55/gnu/inc/tx_port.h **** UINT    _tx_thread_secure_stack_allocate(struct TX_THREAD_STRUCT *tx_thread, ULONG stack_size);
 132:../Middlewares/threadx/ports/cortex_m55/gnu/inc/tx_port.h **** UINT    _tx_thread_secure_stack_free(struct TX_THREAD_STRUCT *tx_thread);
 133:../Middlewares/threadx/ports/cortex_m55/gnu/inc/tx_port.h **** 
 134:../Middlewares/threadx/ports/cortex_m55/gnu/inc/tx_port.h **** /* Define the system API mappings based on the error checking
 135:../Middlewares/threadx/ports/cortex_m55/gnu/inc/tx_port.h ****    selected by the user.  Note: this section is only applicable to
 136:../Middlewares/threadx/ports/cortex_m55/gnu/inc/tx_port.h ****    application source code, hence the conditional that turns off this
 137:../Middlewares/threadx/ports/cortex_m55/gnu/inc/tx_port.h ****    stuff when the include file is processed by the ThreadX source. */
 138:../Middlewares/threadx/ports/cortex_m55/gnu/inc/tx_port.h **** 
 139:../Middlewares/threadx/ports/cortex_m55/gnu/inc/tx_port.h **** #ifndef TX_SOURCE_CODE
 140:../Middlewares/threadx/ports/cortex_m55/gnu/inc/tx_port.h **** 
 141:../Middlewares/threadx/ports/cortex_m55/gnu/inc/tx_port.h **** 
 142:../Middlewares/threadx/ports/cortex_m55/gnu/inc/tx_port.h **** /* Determine if error checking is desired.  If so, map API functions
 143:../Middlewares/threadx/ports/cortex_m55/gnu/inc/tx_port.h ****    to the appropriate error checking front-ends.  Otherwise, map API
 144:../Middlewares/threadx/ports/cortex_m55/gnu/inc/tx_port.h ****    functions to the core functions that actually perform the work.
 145:../Middlewares/threadx/ports/cortex_m55/gnu/inc/tx_port.h ****    Note: error checking is enabled by default.  */
 146:../Middlewares/threadx/ports/cortex_m55/gnu/inc/tx_port.h **** 
 147:../Middlewares/threadx/ports/cortex_m55/gnu/inc/tx_port.h **** #ifdef TX_DISABLE_ERROR_CHECKING
ARM GAS  /tmp/cclAbPUN.s 			page 6


 148:../Middlewares/threadx/ports/cortex_m55/gnu/inc/tx_port.h **** 
 149:../Middlewares/threadx/ports/cortex_m55/gnu/inc/tx_port.h **** /* Services without error checking.  */
 150:../Middlewares/threadx/ports/cortex_m55/gnu/inc/tx_port.h **** 
 151:../Middlewares/threadx/ports/cortex_m55/gnu/inc/tx_port.h **** #define tx_thread_secure_stack_allocate   _tx_thread_secure_stack_allocate
 152:../Middlewares/threadx/ports/cortex_m55/gnu/inc/tx_port.h **** #define tx_thread_secure_stack_free       _tx_thread_secure_stack_free
 153:../Middlewares/threadx/ports/cortex_m55/gnu/inc/tx_port.h **** 
 154:../Middlewares/threadx/ports/cortex_m55/gnu/inc/tx_port.h **** #else
 155:../Middlewares/threadx/ports/cortex_m55/gnu/inc/tx_port.h **** 
 156:../Middlewares/threadx/ports/cortex_m55/gnu/inc/tx_port.h **** /* Services with error checking.  */
 157:../Middlewares/threadx/ports/cortex_m55/gnu/inc/tx_port.h **** 
 158:../Middlewares/threadx/ports/cortex_m55/gnu/inc/tx_port.h **** #define tx_thread_secure_stack_allocate   _txe_thread_secure_stack_allocate
 159:../Middlewares/threadx/ports/cortex_m55/gnu/inc/tx_port.h **** #define tx_thread_secure_stack_free       _txe_thread_secure_stack_free
 160:../Middlewares/threadx/ports/cortex_m55/gnu/inc/tx_port.h **** 
 161:../Middlewares/threadx/ports/cortex_m55/gnu/inc/tx_port.h **** #endif  /* TX_DISABLE_ERROR_CHECKING */
 162:../Middlewares/threadx/ports/cortex_m55/gnu/inc/tx_port.h **** #endif  /* TX_SOURCE_CODE */
 163:../Middlewares/threadx/ports/cortex_m55/gnu/inc/tx_port.h **** 
 164:../Middlewares/threadx/ports/cortex_m55/gnu/inc/tx_port.h **** /* This port has a usage fault handler in _tx_initialize_low_level for stack exceptions.  */
 165:../Middlewares/threadx/ports/cortex_m55/gnu/inc/tx_port.h **** #define TX_PORT_THREAD_STACK_ERROR_HANDLING
 166:../Middlewares/threadx/ports/cortex_m55/gnu/inc/tx_port.h **** 
 167:../Middlewares/threadx/ports/cortex_m55/gnu/inc/tx_port.h **** /* Define the priority levels for ThreadX.  Legal values range
 168:../Middlewares/threadx/ports/cortex_m55/gnu/inc/tx_port.h ****    from 32 to 1024 and MUST be evenly divisible by 32.  */
 169:../Middlewares/threadx/ports/cortex_m55/gnu/inc/tx_port.h **** 
 170:../Middlewares/threadx/ports/cortex_m55/gnu/inc/tx_port.h **** #ifndef TX_MAX_PRIORITIES
 171:../Middlewares/threadx/ports/cortex_m55/gnu/inc/tx_port.h **** #define TX_MAX_PRIORITIES                       32
 172:../Middlewares/threadx/ports/cortex_m55/gnu/inc/tx_port.h **** #endif
 173:../Middlewares/threadx/ports/cortex_m55/gnu/inc/tx_port.h **** 
 174:../Middlewares/threadx/ports/cortex_m55/gnu/inc/tx_port.h **** 
 175:../Middlewares/threadx/ports/cortex_m55/gnu/inc/tx_port.h **** /* Define the minimum stack for a ThreadX thread on this processor. If the size supplied during
 176:../Middlewares/threadx/ports/cortex_m55/gnu/inc/tx_port.h ****    thread creation is less than this value, the thread create call will return an error.  */
 177:../Middlewares/threadx/ports/cortex_m55/gnu/inc/tx_port.h **** 
 178:../Middlewares/threadx/ports/cortex_m55/gnu/inc/tx_port.h **** #ifndef TX_MINIMUM_STACK
 179:../Middlewares/threadx/ports/cortex_m55/gnu/inc/tx_port.h **** #define TX_MINIMUM_STACK                        200         /* Minimum stack size for this port  */
 180:../Middlewares/threadx/ports/cortex_m55/gnu/inc/tx_port.h **** #endif
 181:../Middlewares/threadx/ports/cortex_m55/gnu/inc/tx_port.h **** 
 182:../Middlewares/threadx/ports/cortex_m55/gnu/inc/tx_port.h **** 
 183:../Middlewares/threadx/ports/cortex_m55/gnu/inc/tx_port.h **** /* Define the system timer thread's default stack size and priority.  These are only applicable
 184:../Middlewares/threadx/ports/cortex_m55/gnu/inc/tx_port.h ****    if TX_TIMER_PROCESS_IN_ISR is not defined.  */
 185:../Middlewares/threadx/ports/cortex_m55/gnu/inc/tx_port.h **** 
 186:../Middlewares/threadx/ports/cortex_m55/gnu/inc/tx_port.h **** #ifndef TX_TIMER_THREAD_STACK_SIZE
 187:../Middlewares/threadx/ports/cortex_m55/gnu/inc/tx_port.h **** #define TX_TIMER_THREAD_STACK_SIZE              1024        /* Default timer thread stack size  */
 188:../Middlewares/threadx/ports/cortex_m55/gnu/inc/tx_port.h **** #endif
 189:../Middlewares/threadx/ports/cortex_m55/gnu/inc/tx_port.h **** 
 190:../Middlewares/threadx/ports/cortex_m55/gnu/inc/tx_port.h **** #ifndef TX_TIMER_THREAD_PRIORITY
 191:../Middlewares/threadx/ports/cortex_m55/gnu/inc/tx_port.h **** #define TX_TIMER_THREAD_PRIORITY                0           /* Default timer thread priority    */
 192:../Middlewares/threadx/ports/cortex_m55/gnu/inc/tx_port.h **** #endif
 193:../Middlewares/threadx/ports/cortex_m55/gnu/inc/tx_port.h **** 
 194:../Middlewares/threadx/ports/cortex_m55/gnu/inc/tx_port.h **** /* By default, ThreadX for Cortex-M uses the PRIMASK register to enable/disable interrupts.
 195:../Middlewares/threadx/ports/cortex_m55/gnu/inc/tx_port.h **** If using BASEPRI is desired, define the following two symbols for both c and assembly files:
 196:../Middlewares/threadx/ports/cortex_m55/gnu/inc/tx_port.h **** TX_PORT_USE_BASEPRI - This tells ThreadX to use BASEPRI instead of PRIMASK.
 197:../Middlewares/threadx/ports/cortex_m55/gnu/inc/tx_port.h **** TX_PORT_BASEPRI = (priority_mask << (8 - number_priority_bits)) - this defines the maximum priority
 198:../Middlewares/threadx/ports/cortex_m55/gnu/inc/tx_port.h **** Any interrupt with a higher priority than priority_mask will not be masked, thus the interrupt will
 199:../Middlewares/threadx/ports/cortex_m55/gnu/inc/tx_port.h **** */
 200:../Middlewares/threadx/ports/cortex_m55/gnu/inc/tx_port.h **** 
 201:../Middlewares/threadx/ports/cortex_m55/gnu/inc/tx_port.h **** /* Define various constants for the ThreadX Cortex-M port.  */
 202:../Middlewares/threadx/ports/cortex_m55/gnu/inc/tx_port.h **** 
 203:../Middlewares/threadx/ports/cortex_m55/gnu/inc/tx_port.h **** #define TX_INT_DISABLE                          1           /* Disable interrupts               */
 204:../Middlewares/threadx/ports/cortex_m55/gnu/inc/tx_port.h **** #define TX_INT_ENABLE                           0           /* Enable interrupts                */
ARM GAS  /tmp/cclAbPUN.s 			page 7


 205:../Middlewares/threadx/ports/cortex_m55/gnu/inc/tx_port.h **** 
 206:../Middlewares/threadx/ports/cortex_m55/gnu/inc/tx_port.h **** 
 207:../Middlewares/threadx/ports/cortex_m55/gnu/inc/tx_port.h **** /* Define the clock source for trace event entry time stamp. The following two item are port specif
 208:../Middlewares/threadx/ports/cortex_m55/gnu/inc/tx_port.h ****    For example, if the time source is at the address 0x0a800024 and is 16-bits in size, the clock
 209:../Middlewares/threadx/ports/cortex_m55/gnu/inc/tx_port.h ****    source constants would be:
 210:../Middlewares/threadx/ports/cortex_m55/gnu/inc/tx_port.h **** 
 211:../Middlewares/threadx/ports/cortex_m55/gnu/inc/tx_port.h **** #define TX_TRACE_TIME_SOURCE                    *((volatile ULONG *) 0x0a800024)
 212:../Middlewares/threadx/ports/cortex_m55/gnu/inc/tx_port.h **** #define TX_TRACE_TIME_MASK                      0x0000FFFFUL
 213:../Middlewares/threadx/ports/cortex_m55/gnu/inc/tx_port.h **** 
 214:../Middlewares/threadx/ports/cortex_m55/gnu/inc/tx_port.h **** */
 215:../Middlewares/threadx/ports/cortex_m55/gnu/inc/tx_port.h **** 
 216:../Middlewares/threadx/ports/cortex_m55/gnu/inc/tx_port.h **** #ifndef TX_MISRA_ENABLE
 217:../Middlewares/threadx/ports/cortex_m55/gnu/inc/tx_port.h **** #ifndef TX_TRACE_TIME_SOURCE
 218:../Middlewares/threadx/ports/cortex_m55/gnu/inc/tx_port.h **** #define TX_TRACE_TIME_SOURCE                    *((volatile ULONG *) 0xE0001004)
 219:../Middlewares/threadx/ports/cortex_m55/gnu/inc/tx_port.h **** #endif
 220:../Middlewares/threadx/ports/cortex_m55/gnu/inc/tx_port.h **** #else
 221:../Middlewares/threadx/ports/cortex_m55/gnu/inc/tx_port.h **** ULONG   _tx_misra_time_stamp_get(VOID);
 222:../Middlewares/threadx/ports/cortex_m55/gnu/inc/tx_port.h **** #define TX_TRACE_TIME_SOURCE                    _tx_misra_time_stamp_get()
 223:../Middlewares/threadx/ports/cortex_m55/gnu/inc/tx_port.h **** #endif
 224:../Middlewares/threadx/ports/cortex_m55/gnu/inc/tx_port.h **** 
 225:../Middlewares/threadx/ports/cortex_m55/gnu/inc/tx_port.h **** #ifndef TX_TRACE_TIME_MASK
 226:../Middlewares/threadx/ports/cortex_m55/gnu/inc/tx_port.h **** #define TX_TRACE_TIME_MASK                      0xFFFFFFFFUL
 227:../Middlewares/threadx/ports/cortex_m55/gnu/inc/tx_port.h **** #endif
 228:../Middlewares/threadx/ports/cortex_m55/gnu/inc/tx_port.h **** 
 229:../Middlewares/threadx/ports/cortex_m55/gnu/inc/tx_port.h **** 
 230:../Middlewares/threadx/ports/cortex_m55/gnu/inc/tx_port.h **** /* Define the port specific options for the _tx_build_options variable. This variable indicates
 231:../Middlewares/threadx/ports/cortex_m55/gnu/inc/tx_port.h ****    how the ThreadX library was built.  */
 232:../Middlewares/threadx/ports/cortex_m55/gnu/inc/tx_port.h **** 
 233:../Middlewares/threadx/ports/cortex_m55/gnu/inc/tx_port.h **** #define TX_PORT_SPECIFIC_BUILD_OPTIONS          (0)
 234:../Middlewares/threadx/ports/cortex_m55/gnu/inc/tx_port.h **** 
 235:../Middlewares/threadx/ports/cortex_m55/gnu/inc/tx_port.h **** 
 236:../Middlewares/threadx/ports/cortex_m55/gnu/inc/tx_port.h **** /* Define the in-line initialization constant so that modules with in-line
 237:../Middlewares/threadx/ports/cortex_m55/gnu/inc/tx_port.h ****    initialization capabilities can prevent their initialization from being
 238:../Middlewares/threadx/ports/cortex_m55/gnu/inc/tx_port.h ****    a function call.  */
 239:../Middlewares/threadx/ports/cortex_m55/gnu/inc/tx_port.h **** 
 240:../Middlewares/threadx/ports/cortex_m55/gnu/inc/tx_port.h **** #ifdef TX_MISRA_ENABLE
 241:../Middlewares/threadx/ports/cortex_m55/gnu/inc/tx_port.h **** #define TX_DISABLE_INLINE
 242:../Middlewares/threadx/ports/cortex_m55/gnu/inc/tx_port.h **** #else
 243:../Middlewares/threadx/ports/cortex_m55/gnu/inc/tx_port.h **** #define TX_INLINE_INITIALIZATION
 244:../Middlewares/threadx/ports/cortex_m55/gnu/inc/tx_port.h **** #endif
 245:../Middlewares/threadx/ports/cortex_m55/gnu/inc/tx_port.h **** 
 246:../Middlewares/threadx/ports/cortex_m55/gnu/inc/tx_port.h **** 
 247:../Middlewares/threadx/ports/cortex_m55/gnu/inc/tx_port.h **** /* Determine whether or not stack checking is enabled. By default, ThreadX stack checking is
 248:../Middlewares/threadx/ports/cortex_m55/gnu/inc/tx_port.h ****    disabled. When the following is defined, ThreadX thread stack checking is enabled.  If stack
 249:../Middlewares/threadx/ports/cortex_m55/gnu/inc/tx_port.h ****    checking is enabled (TX_ENABLE_STACK_CHECKING is defined), the TX_DISABLE_STACK_FILLING
 250:../Middlewares/threadx/ports/cortex_m55/gnu/inc/tx_port.h ****    define is negated, thereby forcing the stack fill which is necessary for the stack checking
 251:../Middlewares/threadx/ports/cortex_m55/gnu/inc/tx_port.h ****    logic.  */
 252:../Middlewares/threadx/ports/cortex_m55/gnu/inc/tx_port.h **** 
 253:../Middlewares/threadx/ports/cortex_m55/gnu/inc/tx_port.h **** #ifndef TX_MISRA_ENABLE
 254:../Middlewares/threadx/ports/cortex_m55/gnu/inc/tx_port.h **** #ifdef TX_ENABLE_STACK_CHECKING
 255:../Middlewares/threadx/ports/cortex_m55/gnu/inc/tx_port.h **** #undef TX_DISABLE_STACK_FILLING
 256:../Middlewares/threadx/ports/cortex_m55/gnu/inc/tx_port.h **** #endif
 257:../Middlewares/threadx/ports/cortex_m55/gnu/inc/tx_port.h **** #endif
 258:../Middlewares/threadx/ports/cortex_m55/gnu/inc/tx_port.h **** 
 259:../Middlewares/threadx/ports/cortex_m55/gnu/inc/tx_port.h **** 
 260:../Middlewares/threadx/ports/cortex_m55/gnu/inc/tx_port.h **** /* Define the TX_THREAD control block extensions for this port. The main reason
 261:../Middlewares/threadx/ports/cortex_m55/gnu/inc/tx_port.h ****    for the multiple macros is so that backward compatibility can be maintained with
ARM GAS  /tmp/cclAbPUN.s 			page 8


 262:../Middlewares/threadx/ports/cortex_m55/gnu/inc/tx_port.h ****    existing ThreadX kernel awareness modules.  */
 263:../Middlewares/threadx/ports/cortex_m55/gnu/inc/tx_port.h **** 
 264:../Middlewares/threadx/ports/cortex_m55/gnu/inc/tx_port.h **** #define TX_THREAD_EXTENSION_0
 265:../Middlewares/threadx/ports/cortex_m55/gnu/inc/tx_port.h **** #define TX_THREAD_EXTENSION_1
 266:../Middlewares/threadx/ports/cortex_m55/gnu/inc/tx_port.h **** 
 267:../Middlewares/threadx/ports/cortex_m55/gnu/inc/tx_port.h **** #ifdef  TX_ENABLE_IAR_LIBRARY_SUPPORT
 268:../Middlewares/threadx/ports/cortex_m55/gnu/inc/tx_port.h **** /* IAR library support */
 269:../Middlewares/threadx/ports/cortex_m55/gnu/inc/tx_port.h **** #if !defined(TX_SINGLE_MODE_SECURE) && !defined(TX_SINGLE_MODE_NON_SECURE)
 270:../Middlewares/threadx/ports/cortex_m55/gnu/inc/tx_port.h **** /* ThreadX in non-secure zone with calls to secure zone. */
 271:../Middlewares/threadx/ports/cortex_m55/gnu/inc/tx_port.h **** #define TX_THREAD_EXTENSION_2           VOID    *tx_thread_secure_stack_context;    \
 272:../Middlewares/threadx/ports/cortex_m55/gnu/inc/tx_port.h ****                                         VOID    *tx_thread_iar_tls_pointer;
 273:../Middlewares/threadx/ports/cortex_m55/gnu/inc/tx_port.h **** #else
 274:../Middlewares/threadx/ports/cortex_m55/gnu/inc/tx_port.h **** /* ThreadX in only one zone. */
 275:../Middlewares/threadx/ports/cortex_m55/gnu/inc/tx_port.h **** #define TX_THREAD_EXTENSION_2           VOID    *tx_thread_iar_tls_pointer;
 276:../Middlewares/threadx/ports/cortex_m55/gnu/inc/tx_port.h **** #endif
 277:../Middlewares/threadx/ports/cortex_m55/gnu/inc/tx_port.h **** 
 278:../Middlewares/threadx/ports/cortex_m55/gnu/inc/tx_port.h **** #else
 279:../Middlewares/threadx/ports/cortex_m55/gnu/inc/tx_port.h **** /* No IAR library support */
 280:../Middlewares/threadx/ports/cortex_m55/gnu/inc/tx_port.h **** #if !defined(TX_SINGLE_MODE_SECURE) && !defined(TX_SINGLE_MODE_NON_SECURE)
 281:../Middlewares/threadx/ports/cortex_m55/gnu/inc/tx_port.h **** /* ThreadX in non-secure zone with calls to secure zone. */
 282:../Middlewares/threadx/ports/cortex_m55/gnu/inc/tx_port.h **** #define TX_THREAD_EXTENSION_2           VOID    *tx_thread_secure_stack_context;
 283:../Middlewares/threadx/ports/cortex_m55/gnu/inc/tx_port.h **** #else
 284:../Middlewares/threadx/ports/cortex_m55/gnu/inc/tx_port.h **** /* ThreadX in only one zone. */
 285:../Middlewares/threadx/ports/cortex_m55/gnu/inc/tx_port.h **** #define TX_THREAD_EXTENSION_2
 286:../Middlewares/threadx/ports/cortex_m55/gnu/inc/tx_port.h **** #endif
 287:../Middlewares/threadx/ports/cortex_m55/gnu/inc/tx_port.h **** 
 288:../Middlewares/threadx/ports/cortex_m55/gnu/inc/tx_port.h **** #endif  /* TX_ENABLE_IAR_LIBRARY_SUPPORT */
 289:../Middlewares/threadx/ports/cortex_m55/gnu/inc/tx_port.h **** 
 290:../Middlewares/threadx/ports/cortex_m55/gnu/inc/tx_port.h **** #define TX_THREAD_EXTENSION_3
 291:../Middlewares/threadx/ports/cortex_m55/gnu/inc/tx_port.h **** 
 292:../Middlewares/threadx/ports/cortex_m55/gnu/inc/tx_port.h **** 
 293:../Middlewares/threadx/ports/cortex_m55/gnu/inc/tx_port.h **** /* Define the port extensions of the remaining ThreadX objects.  */
 294:../Middlewares/threadx/ports/cortex_m55/gnu/inc/tx_port.h **** 
 295:../Middlewares/threadx/ports/cortex_m55/gnu/inc/tx_port.h **** #define TX_BLOCK_POOL_EXTENSION
 296:../Middlewares/threadx/ports/cortex_m55/gnu/inc/tx_port.h **** #define TX_BYTE_POOL_EXTENSION
 297:../Middlewares/threadx/ports/cortex_m55/gnu/inc/tx_port.h **** #define TX_EVENT_FLAGS_GROUP_EXTENSION
 298:../Middlewares/threadx/ports/cortex_m55/gnu/inc/tx_port.h **** #define TX_MUTEX_EXTENSION
 299:../Middlewares/threadx/ports/cortex_m55/gnu/inc/tx_port.h **** #define TX_QUEUE_EXTENSION
 300:../Middlewares/threadx/ports/cortex_m55/gnu/inc/tx_port.h **** #define TX_SEMAPHORE_EXTENSION
 301:../Middlewares/threadx/ports/cortex_m55/gnu/inc/tx_port.h **** #define TX_TIMER_EXTENSION
 302:../Middlewares/threadx/ports/cortex_m55/gnu/inc/tx_port.h **** 
 303:../Middlewares/threadx/ports/cortex_m55/gnu/inc/tx_port.h **** 
 304:../Middlewares/threadx/ports/cortex_m55/gnu/inc/tx_port.h **** /* Define the user extension field of the thread control block.  Nothing
 305:../Middlewares/threadx/ports/cortex_m55/gnu/inc/tx_port.h ****    additional is needed for this port so it is defined as white space.  */
 306:../Middlewares/threadx/ports/cortex_m55/gnu/inc/tx_port.h **** 
 307:../Middlewares/threadx/ports/cortex_m55/gnu/inc/tx_port.h **** #ifndef TX_THREAD_USER_EXTENSION
 308:../Middlewares/threadx/ports/cortex_m55/gnu/inc/tx_port.h **** #define TX_THREAD_USER_EXTENSION
 309:../Middlewares/threadx/ports/cortex_m55/gnu/inc/tx_port.h **** #endif
 310:../Middlewares/threadx/ports/cortex_m55/gnu/inc/tx_port.h **** 
 311:../Middlewares/threadx/ports/cortex_m55/gnu/inc/tx_port.h **** 
 312:../Middlewares/threadx/ports/cortex_m55/gnu/inc/tx_port.h **** /* Define the macros for processing extensions in tx_thread_create, tx_thread_delete,
 313:../Middlewares/threadx/ports/cortex_m55/gnu/inc/tx_port.h ****    tx_thread_shell_entry, and tx_thread_terminate.  */
 314:../Middlewares/threadx/ports/cortex_m55/gnu/inc/tx_port.h **** #ifdef  TX_ENABLE_IAR_LIBRARY_SUPPORT
 315:../Middlewares/threadx/ports/cortex_m55/gnu/inc/tx_port.h **** void    *_tx_iar_create_per_thread_tls_area(void);
 316:../Middlewares/threadx/ports/cortex_m55/gnu/inc/tx_port.h **** void    _tx_iar_destroy_per_thread_tls_area(void *tls_ptr);
 317:../Middlewares/threadx/ports/cortex_m55/gnu/inc/tx_port.h **** void    __iar_Initlocks(void);
 318:../Middlewares/threadx/ports/cortex_m55/gnu/inc/tx_port.h **** #define TX_THREAD_CREATE_EXTENSION(thread_ptr)                      thread_ptr -> tx_thread_iar_tls
ARM GAS  /tmp/cclAbPUN.s 			page 9


 319:../Middlewares/threadx/ports/cortex_m55/gnu/inc/tx_port.h **** 
 320:../Middlewares/threadx/ports/cortex_m55/gnu/inc/tx_port.h **** #if !defined(TX_SINGLE_MODE_SECURE) && !defined(TX_SINGLE_MODE_NON_SECURE)
 321:../Middlewares/threadx/ports/cortex_m55/gnu/inc/tx_port.h **** #define TX_THREAD_DELETE_EXTENSION(thread_ptr)                      do {_tx_iar_destroy_per_thread_
 322:../Middlewares/threadx/ports/cortex_m55/gnu/inc/tx_port.h ****                                                                         thread_ptr -> tx_thread_iar
 323:../Middlewares/threadx/ports/cortex_m55/gnu/inc/tx_port.h ****                                                                     if(thread_ptr -> tx_thread_secu
 324:../Middlewares/threadx/ports/cortex_m55/gnu/inc/tx_port.h **** #else
 325:../Middlewares/threadx/ports/cortex_m55/gnu/inc/tx_port.h **** #define TX_THREAD_DELETE_EXTENSION(thread_ptr)                      do {_tx_iar_destroy_per_thread_
 326:../Middlewares/threadx/ports/cortex_m55/gnu/inc/tx_port.h ****                                                                         thread_ptr -> tx_thread_iar
 327:../Middlewares/threadx/ports/cortex_m55/gnu/inc/tx_port.h **** #endif
 328:../Middlewares/threadx/ports/cortex_m55/gnu/inc/tx_port.h **** #define TX_PORT_SPECIFIC_PRE_SCHEDULER_INITIALIZATION               do {__iar_Initlocks();} while(0
 329:../Middlewares/threadx/ports/cortex_m55/gnu/inc/tx_port.h **** 
 330:../Middlewares/threadx/ports/cortex_m55/gnu/inc/tx_port.h **** #else   /* No IAR library support. */
 331:../Middlewares/threadx/ports/cortex_m55/gnu/inc/tx_port.h **** #define TX_THREAD_CREATE_EXTENSION(thread_ptr)
 332:../Middlewares/threadx/ports/cortex_m55/gnu/inc/tx_port.h **** #if !defined(TX_SINGLE_MODE_SECURE) && !defined(TX_SINGLE_MODE_NON_SECURE)
 333:../Middlewares/threadx/ports/cortex_m55/gnu/inc/tx_port.h **** #define TX_THREAD_DELETE_EXTENSION(thread_ptr)                      if(thread_ptr -> tx_thread_secu
 334:../Middlewares/threadx/ports/cortex_m55/gnu/inc/tx_port.h **** #else
 335:../Middlewares/threadx/ports/cortex_m55/gnu/inc/tx_port.h **** #define TX_THREAD_DELETE_EXTENSION(thread_ptr)
 336:../Middlewares/threadx/ports/cortex_m55/gnu/inc/tx_port.h **** #endif
 337:../Middlewares/threadx/ports/cortex_m55/gnu/inc/tx_port.h **** #endif  /* TX_ENABLE_IAR_LIBRARY_SUPPORT */
 338:../Middlewares/threadx/ports/cortex_m55/gnu/inc/tx_port.h **** 
 339:../Middlewares/threadx/ports/cortex_m55/gnu/inc/tx_port.h **** #if !defined(TX_SINGLE_MODE_SECURE) && !defined(TX_SINGLE_MODE_NON_SECURE)
 340:../Middlewares/threadx/ports/cortex_m55/gnu/inc/tx_port.h **** /* Define the size of the secure stack for the timer thread and use the extension to allocate the s
 341:../Middlewares/threadx/ports/cortex_m55/gnu/inc/tx_port.h **** #define TX_TIMER_THREAD_SECURE_STACK_SIZE       256
 342:../Middlewares/threadx/ports/cortex_m55/gnu/inc/tx_port.h **** #define TX_TIMER_INITIALIZE_EXTENSION(status)   _tx_thread_secure_stack_allocate(&_tx_timer_thread,
 343:../Middlewares/threadx/ports/cortex_m55/gnu/inc/tx_port.h **** #endif
 344:../Middlewares/threadx/ports/cortex_m55/gnu/inc/tx_port.h **** 
 345:../Middlewares/threadx/ports/cortex_m55/gnu/inc/tx_port.h **** 
 346:../Middlewares/threadx/ports/cortex_m55/gnu/inc/tx_port.h **** #if defined(__ARMVFP__) || defined(__ARM_PCS_VFP) || defined(__ARM_FP) || defined(__TARGET_FPU_VFP)
 347:../Middlewares/threadx/ports/cortex_m55/gnu/inc/tx_port.h **** 
 348:../Middlewares/threadx/ports/cortex_m55/gnu/inc/tx_port.h **** #ifdef TX_MISRA_ENABLE
 349:../Middlewares/threadx/ports/cortex_m55/gnu/inc/tx_port.h **** 
 350:../Middlewares/threadx/ports/cortex_m55/gnu/inc/tx_port.h **** ULONG  _tx_misra_control_get(void);
 351:../Middlewares/threadx/ports/cortex_m55/gnu/inc/tx_port.h **** void   _tx_misra_control_set(ULONG value);
 352:../Middlewares/threadx/ports/cortex_m55/gnu/inc/tx_port.h **** ULONG  _tx_misra_fpccr_get(void);
 353:../Middlewares/threadx/ports/cortex_m55/gnu/inc/tx_port.h **** void   _tx_misra_vfp_touch(void);
 354:../Middlewares/threadx/ports/cortex_m55/gnu/inc/tx_port.h **** 
 355:../Middlewares/threadx/ports/cortex_m55/gnu/inc/tx_port.h **** #else   /* TX_MISRA_ENABLE not defined */
 356:../Middlewares/threadx/ports/cortex_m55/gnu/inc/tx_port.h **** 
 357:../Middlewares/threadx/ports/cortex_m55/gnu/inc/tx_port.h **** #ifdef __GNUC__ /* GCC and ARM Compiler 6 */
 358:../Middlewares/threadx/ports/cortex_m55/gnu/inc/tx_port.h **** 
 359:../Middlewares/threadx/ports/cortex_m55/gnu/inc/tx_port.h **** __attribute__( ( always_inline ) ) static inline ULONG _tx_control_get(void)
 360:../Middlewares/threadx/ports/cortex_m55/gnu/inc/tx_port.h **** {
 361:../Middlewares/threadx/ports/cortex_m55/gnu/inc/tx_port.h **** ULONG  control_value;
 362:../Middlewares/threadx/ports/cortex_m55/gnu/inc/tx_port.h **** 
 363:../Middlewares/threadx/ports/cortex_m55/gnu/inc/tx_port.h ****     __asm__ volatile (" MRS  %0,CONTROL ": "=r" (control_value) );
 364:../Middlewares/threadx/ports/cortex_m55/gnu/inc/tx_port.h ****     return(control_value);
 365:../Middlewares/threadx/ports/cortex_m55/gnu/inc/tx_port.h **** }
 366:../Middlewares/threadx/ports/cortex_m55/gnu/inc/tx_port.h **** 
 367:../Middlewares/threadx/ports/cortex_m55/gnu/inc/tx_port.h **** __attribute__( ( always_inline ) ) static inline void _tx_control_set(ULONG control_value)
 368:../Middlewares/threadx/ports/cortex_m55/gnu/inc/tx_port.h **** {
 369:../Middlewares/threadx/ports/cortex_m55/gnu/inc/tx_port.h ****     __asm__ volatile (" MSR  CONTROL,%0": : "r" (control_value): "memory" );
 370:../Middlewares/threadx/ports/cortex_m55/gnu/inc/tx_port.h **** }
 371:../Middlewares/threadx/ports/cortex_m55/gnu/inc/tx_port.h **** 
 372:../Middlewares/threadx/ports/cortex_m55/gnu/inc/tx_port.h **** #endif  /* __GNUC__ */
 373:../Middlewares/threadx/ports/cortex_m55/gnu/inc/tx_port.h **** 
 374:../Middlewares/threadx/ports/cortex_m55/gnu/inc/tx_port.h **** /* Touch VFP register in order to flush. Works for AC6/GCC/IAR compilers. */
 375:../Middlewares/threadx/ports/cortex_m55/gnu/inc/tx_port.h **** #define TX_VFP_TOUCH()  __asm__ volatile ("VMOV.F32 s0, s0");
ARM GAS  /tmp/cclAbPUN.s 			page 10


 376:../Middlewares/threadx/ports/cortex_m55/gnu/inc/tx_port.h **** 
 377:../Middlewares/threadx/ports/cortex_m55/gnu/inc/tx_port.h **** #endif  /* TX_MISRA_ENABLE */
 378:../Middlewares/threadx/ports/cortex_m55/gnu/inc/tx_port.h **** 
 379:../Middlewares/threadx/ports/cortex_m55/gnu/inc/tx_port.h **** /* A completed thread falls into _thread_shell_entry and we can simply deactivate the FPU via CONTR
 380:../Middlewares/threadx/ports/cortex_m55/gnu/inc/tx_port.h ****    in order to ensure no lazy stacking will occur. */
 381:../Middlewares/threadx/ports/cortex_m55/gnu/inc/tx_port.h **** 
 382:../Middlewares/threadx/ports/cortex_m55/gnu/inc/tx_port.h **** #ifndef TX_MISRA_ENABLE
 383:../Middlewares/threadx/ports/cortex_m55/gnu/inc/tx_port.h **** 
 384:../Middlewares/threadx/ports/cortex_m55/gnu/inc/tx_port.h **** #define TX_THREAD_COMPLETED_EXTENSION(thread_ptr)   {                                              
 385:../Middlewares/threadx/ports/cortex_m55/gnu/inc/tx_port.h ****                                                     ULONG  _tx_vfp_state;                          
 386:../Middlewares/threadx/ports/cortex_m55/gnu/inc/tx_port.h ****                                                         _tx_vfp_state = _tx_control_get();         
 387:../Middlewares/threadx/ports/cortex_m55/gnu/inc/tx_port.h ****                                                         _tx_vfp_state = _tx_vfp_state & ~((ULONG) 0
 388:../Middlewares/threadx/ports/cortex_m55/gnu/inc/tx_port.h ****                                                         _tx_control_set(_tx_vfp_state);            
 389:../Middlewares/threadx/ports/cortex_m55/gnu/inc/tx_port.h ****                                                     }
 390:../Middlewares/threadx/ports/cortex_m55/gnu/inc/tx_port.h **** #else
 391:../Middlewares/threadx/ports/cortex_m55/gnu/inc/tx_port.h **** 
 392:../Middlewares/threadx/ports/cortex_m55/gnu/inc/tx_port.h **** #define TX_THREAD_COMPLETED_EXTENSION(thread_ptr)   {                                              
 393:../Middlewares/threadx/ports/cortex_m55/gnu/inc/tx_port.h ****                                                     ULONG  _tx_vfp_state;                          
 394:../Middlewares/threadx/ports/cortex_m55/gnu/inc/tx_port.h ****                                                         _tx_vfp_state = _tx_misra_control_get();   
 395:../Middlewares/threadx/ports/cortex_m55/gnu/inc/tx_port.h ****                                                         _tx_vfp_state = _tx_vfp_state & ~((ULONG) 0
 396:../Middlewares/threadx/ports/cortex_m55/gnu/inc/tx_port.h ****                                                         _tx_misra_control_set(_tx_vfp_state);      
 397:../Middlewares/threadx/ports/cortex_m55/gnu/inc/tx_port.h ****                                                     }
 398:../Middlewares/threadx/ports/cortex_m55/gnu/inc/tx_port.h **** #endif
 399:../Middlewares/threadx/ports/cortex_m55/gnu/inc/tx_port.h **** 
 400:../Middlewares/threadx/ports/cortex_m55/gnu/inc/tx_port.h **** /* A thread can be terminated by another thread, so we first check if it's self-terminating and not
 401:../Middlewares/threadx/ports/cortex_m55/gnu/inc/tx_port.h ****    If so, deactivate the FPU via CONTROL.FPCA. Otherwise we are in an interrupt or another thread i
 402:../Middlewares/threadx/ports/cortex_m55/gnu/inc/tx_port.h ****    this one, so if the FPCCR.LSPACT bit is set, we need to save the CONTROL.FPCA state, touch the F
 403:../Middlewares/threadx/ports/cortex_m55/gnu/inc/tx_port.h ****    the lazy FPU save, then restore the CONTROL.FPCA state. */
 404:../Middlewares/threadx/ports/cortex_m55/gnu/inc/tx_port.h **** 
 405:../Middlewares/threadx/ports/cortex_m55/gnu/inc/tx_port.h **** #ifndef TX_MISRA_ENABLE
 406:../Middlewares/threadx/ports/cortex_m55/gnu/inc/tx_port.h **** 
 407:../Middlewares/threadx/ports/cortex_m55/gnu/inc/tx_port.h **** #define TX_THREAD_TERMINATED_EXTENSION(thread_ptr)  {                                              
 408:../Middlewares/threadx/ports/cortex_m55/gnu/inc/tx_port.h ****                                                     ULONG  _tx_system_state;                       
 409:../Middlewares/threadx/ports/cortex_m55/gnu/inc/tx_port.h ****                                                         _tx_system_state = TX_THREAD_GET_SYSTEM_STA
 410:../Middlewares/threadx/ports/cortex_m55/gnu/inc/tx_port.h ****                                                         if ((_tx_system_state == ((ULONG) 0)) && ((
 411:../Middlewares/threadx/ports/cortex_m55/gnu/inc/tx_port.h ****                                                         {                                          
 412:../Middlewares/threadx/ports/cortex_m55/gnu/inc/tx_port.h ****                                                         ULONG  _tx_vfp_state;                      
 413:../Middlewares/threadx/ports/cortex_m55/gnu/inc/tx_port.h ****                                                             _tx_vfp_state = _tx_control_get();     
 414:../Middlewares/threadx/ports/cortex_m55/gnu/inc/tx_port.h ****                                                             _tx_vfp_state = _tx_vfp_state & ~((ULON
 415:../Middlewares/threadx/ports/cortex_m55/gnu/inc/tx_port.h ****                                                             _tx_control_set(_tx_vfp_state);        
 416:../Middlewares/threadx/ports/cortex_m55/gnu/inc/tx_port.h ****                                                         }                                          
 417:../Middlewares/threadx/ports/cortex_m55/gnu/inc/tx_port.h ****                                                         else                                       
 418:../Middlewares/threadx/ports/cortex_m55/gnu/inc/tx_port.h ****                                                         {                                          
 419:../Middlewares/threadx/ports/cortex_m55/gnu/inc/tx_port.h ****                                                         ULONG  _tx_fpccr;                          
 420:../Middlewares/threadx/ports/cortex_m55/gnu/inc/tx_port.h ****                                                             _tx_fpccr = *((volatile ULONG *) 0xE000
 421:../Middlewares/threadx/ports/cortex_m55/gnu/inc/tx_port.h ****                                                             _tx_fpccr = _tx_fpccr & ((ULONG) 0x01);
 422:../Middlewares/threadx/ports/cortex_m55/gnu/inc/tx_port.h ****                                                             if (_tx_fpccr == ((ULONG) 0x01))       
 423:../Middlewares/threadx/ports/cortex_m55/gnu/inc/tx_port.h ****                                                             {                                      
 424:../Middlewares/threadx/ports/cortex_m55/gnu/inc/tx_port.h ****                                                             ULONG _tx_vfp_state;                   
 425:../Middlewares/threadx/ports/cortex_m55/gnu/inc/tx_port.h ****                                                                 _tx_vfp_state = _tx_control_get(); 
 426:../Middlewares/threadx/ports/cortex_m55/gnu/inc/tx_port.h ****                                                                 _tx_vfp_state = _tx_vfp_state & ((U
 427:../Middlewares/threadx/ports/cortex_m55/gnu/inc/tx_port.h ****                                                                 TX_VFP_TOUCH();                    
 428:../Middlewares/threadx/ports/cortex_m55/gnu/inc/tx_port.h ****                                                                 if (_tx_vfp_state == ((ULONG) 0))  
 429:../Middlewares/threadx/ports/cortex_m55/gnu/inc/tx_port.h ****                                                                 {                                  
 430:../Middlewares/threadx/ports/cortex_m55/gnu/inc/tx_port.h ****                                                                     _tx_vfp_state = _tx_control_get
 431:../Middlewares/threadx/ports/cortex_m55/gnu/inc/tx_port.h ****                                                                     _tx_vfp_state = _tx_vfp_state &
 432:../Middlewares/threadx/ports/cortex_m55/gnu/inc/tx_port.h ****                                                                     _tx_control_set(_tx_vfp_state);
ARM GAS  /tmp/cclAbPUN.s 			page 11


 433:../Middlewares/threadx/ports/cortex_m55/gnu/inc/tx_port.h ****                                                                 }                                  
 434:../Middlewares/threadx/ports/cortex_m55/gnu/inc/tx_port.h ****                                                             }                                      
 435:../Middlewares/threadx/ports/cortex_m55/gnu/inc/tx_port.h ****                                                         }                                          
 436:../Middlewares/threadx/ports/cortex_m55/gnu/inc/tx_port.h ****                                                     }
 437:../Middlewares/threadx/ports/cortex_m55/gnu/inc/tx_port.h **** #else
 438:../Middlewares/threadx/ports/cortex_m55/gnu/inc/tx_port.h **** 
 439:../Middlewares/threadx/ports/cortex_m55/gnu/inc/tx_port.h **** #define TX_THREAD_TERMINATED_EXTENSION(thread_ptr)  {                                              
 440:../Middlewares/threadx/ports/cortex_m55/gnu/inc/tx_port.h ****                                                     ULONG  _tx_system_state;                       
 441:../Middlewares/threadx/ports/cortex_m55/gnu/inc/tx_port.h ****                                                         _tx_system_state = TX_THREAD_GET_SYSTEM_STA
 442:../Middlewares/threadx/ports/cortex_m55/gnu/inc/tx_port.h ****                                                         if ((_tx_system_state == ((ULONG) 0)) && ((
 443:../Middlewares/threadx/ports/cortex_m55/gnu/inc/tx_port.h ****                                                         {                                          
 444:../Middlewares/threadx/ports/cortex_m55/gnu/inc/tx_port.h ****                                                         ULONG  _tx_vfp_state;                      
 445:../Middlewares/threadx/ports/cortex_m55/gnu/inc/tx_port.h ****                                                             _tx_vfp_state = _tx_misra_control_get()
 446:../Middlewares/threadx/ports/cortex_m55/gnu/inc/tx_port.h ****                                                             _tx_vfp_state = _tx_vfp_state & ~((ULON
 447:../Middlewares/threadx/ports/cortex_m55/gnu/inc/tx_port.h ****                                                             _tx_misra_control_set(_tx_vfp_state);  
 448:../Middlewares/threadx/ports/cortex_m55/gnu/inc/tx_port.h ****                                                         }                                          
 449:../Middlewares/threadx/ports/cortex_m55/gnu/inc/tx_port.h ****                                                         else                                       
 450:../Middlewares/threadx/ports/cortex_m55/gnu/inc/tx_port.h ****                                                         {                                          
 451:../Middlewares/threadx/ports/cortex_m55/gnu/inc/tx_port.h ****                                                         ULONG  _tx_fpccr;                          
 452:../Middlewares/threadx/ports/cortex_m55/gnu/inc/tx_port.h ****                                                             _tx_fpccr = _tx_misra_fpccr_get();     
 453:../Middlewares/threadx/ports/cortex_m55/gnu/inc/tx_port.h ****                                                             _tx_fpccr = _tx_fpccr & ((ULONG) 0x01);
 454:../Middlewares/threadx/ports/cortex_m55/gnu/inc/tx_port.h ****                                                             if (_tx_fpccr == ((ULONG) 0x01))       
 455:../Middlewares/threadx/ports/cortex_m55/gnu/inc/tx_port.h ****                                                             {                                      
 456:../Middlewares/threadx/ports/cortex_m55/gnu/inc/tx_port.h ****                                                             ULONG _tx_vfp_state;                   
 457:../Middlewares/threadx/ports/cortex_m55/gnu/inc/tx_port.h ****                                                                 _tx_vfp_state = _tx_misra_control_g
 458:../Middlewares/threadx/ports/cortex_m55/gnu/inc/tx_port.h ****                                                                 _tx_vfp_state = _tx_vfp_state & ((U
 459:../Middlewares/threadx/ports/cortex_m55/gnu/inc/tx_port.h ****                                                                 _tx_misra_vfp_touch();             
 460:../Middlewares/threadx/ports/cortex_m55/gnu/inc/tx_port.h ****                                                                 if (_tx_vfp_state == ((ULONG) 0))  
 461:../Middlewares/threadx/ports/cortex_m55/gnu/inc/tx_port.h ****                                                                 {                                  
 462:../Middlewares/threadx/ports/cortex_m55/gnu/inc/tx_port.h ****                                                                     _tx_vfp_state = _tx_misra_contr
 463:../Middlewares/threadx/ports/cortex_m55/gnu/inc/tx_port.h ****                                                                     _tx_vfp_state = _tx_vfp_state &
 464:../Middlewares/threadx/ports/cortex_m55/gnu/inc/tx_port.h ****                                                                     _tx_misra_control_set(_tx_vfp_s
 465:../Middlewares/threadx/ports/cortex_m55/gnu/inc/tx_port.h ****                                                                 }                                  
 466:../Middlewares/threadx/ports/cortex_m55/gnu/inc/tx_port.h ****                                                             }                                      
 467:../Middlewares/threadx/ports/cortex_m55/gnu/inc/tx_port.h ****                                                         }                                          
 468:../Middlewares/threadx/ports/cortex_m55/gnu/inc/tx_port.h ****                                                     }
 469:../Middlewares/threadx/ports/cortex_m55/gnu/inc/tx_port.h **** #endif
 470:../Middlewares/threadx/ports/cortex_m55/gnu/inc/tx_port.h **** 
 471:../Middlewares/threadx/ports/cortex_m55/gnu/inc/tx_port.h **** #else   /* No VFP in use */
 472:../Middlewares/threadx/ports/cortex_m55/gnu/inc/tx_port.h **** 
 473:../Middlewares/threadx/ports/cortex_m55/gnu/inc/tx_port.h **** #define TX_THREAD_COMPLETED_EXTENSION(thread_ptr)
 474:../Middlewares/threadx/ports/cortex_m55/gnu/inc/tx_port.h **** #define TX_THREAD_TERMINATED_EXTENSION(thread_ptr)
 475:../Middlewares/threadx/ports/cortex_m55/gnu/inc/tx_port.h **** 
 476:../Middlewares/threadx/ports/cortex_m55/gnu/inc/tx_port.h **** #endif  /* defined(__ARMVFP__) || defined(__ARM_PCS_VFP) || defined(__ARM_FP) || defined(__TARGET_F
 477:../Middlewares/threadx/ports/cortex_m55/gnu/inc/tx_port.h **** 
 478:../Middlewares/threadx/ports/cortex_m55/gnu/inc/tx_port.h **** 
 479:../Middlewares/threadx/ports/cortex_m55/gnu/inc/tx_port.h **** /* Define the ThreadX object creation extensions for the remaining objects.  */
 480:../Middlewares/threadx/ports/cortex_m55/gnu/inc/tx_port.h **** 
 481:../Middlewares/threadx/ports/cortex_m55/gnu/inc/tx_port.h **** #define TX_BLOCK_POOL_CREATE_EXTENSION(pool_ptr)
 482:../Middlewares/threadx/ports/cortex_m55/gnu/inc/tx_port.h **** #define TX_BYTE_POOL_CREATE_EXTENSION(pool_ptr)
 483:../Middlewares/threadx/ports/cortex_m55/gnu/inc/tx_port.h **** #define TX_EVENT_FLAGS_GROUP_CREATE_EXTENSION(group_ptr)
 484:../Middlewares/threadx/ports/cortex_m55/gnu/inc/tx_port.h **** #define TX_MUTEX_CREATE_EXTENSION(mutex_ptr)
 485:../Middlewares/threadx/ports/cortex_m55/gnu/inc/tx_port.h **** #define TX_QUEUE_CREATE_EXTENSION(queue_ptr)
 486:../Middlewares/threadx/ports/cortex_m55/gnu/inc/tx_port.h **** #define TX_SEMAPHORE_CREATE_EXTENSION(semaphore_ptr)
 487:../Middlewares/threadx/ports/cortex_m55/gnu/inc/tx_port.h **** #define TX_TIMER_CREATE_EXTENSION(timer_ptr)
 488:../Middlewares/threadx/ports/cortex_m55/gnu/inc/tx_port.h **** 
 489:../Middlewares/threadx/ports/cortex_m55/gnu/inc/tx_port.h **** 
ARM GAS  /tmp/cclAbPUN.s 			page 12


 490:../Middlewares/threadx/ports/cortex_m55/gnu/inc/tx_port.h **** /* Define the ThreadX object deletion extensions for the remaining objects.  */
 491:../Middlewares/threadx/ports/cortex_m55/gnu/inc/tx_port.h **** 
 492:../Middlewares/threadx/ports/cortex_m55/gnu/inc/tx_port.h **** #define TX_BLOCK_POOL_DELETE_EXTENSION(pool_ptr)
 493:../Middlewares/threadx/ports/cortex_m55/gnu/inc/tx_port.h **** #define TX_BYTE_POOL_DELETE_EXTENSION(pool_ptr)
 494:../Middlewares/threadx/ports/cortex_m55/gnu/inc/tx_port.h **** #define TX_EVENT_FLAGS_GROUP_DELETE_EXTENSION(group_ptr)
 495:../Middlewares/threadx/ports/cortex_m55/gnu/inc/tx_port.h **** #define TX_MUTEX_DELETE_EXTENSION(mutex_ptr)
 496:../Middlewares/threadx/ports/cortex_m55/gnu/inc/tx_port.h **** #define TX_QUEUE_DELETE_EXTENSION(queue_ptr)
 497:../Middlewares/threadx/ports/cortex_m55/gnu/inc/tx_port.h **** #define TX_SEMAPHORE_DELETE_EXTENSION(semaphore_ptr)
 498:../Middlewares/threadx/ports/cortex_m55/gnu/inc/tx_port.h **** #define TX_TIMER_DELETE_EXTENSION(timer_ptr)
 499:../Middlewares/threadx/ports/cortex_m55/gnu/inc/tx_port.h **** 
 500:../Middlewares/threadx/ports/cortex_m55/gnu/inc/tx_port.h **** 
 501:../Middlewares/threadx/ports/cortex_m55/gnu/inc/tx_port.h **** /* Define the get system state macro.  */
 502:../Middlewares/threadx/ports/cortex_m55/gnu/inc/tx_port.h **** 
 503:../Middlewares/threadx/ports/cortex_m55/gnu/inc/tx_port.h **** #ifndef TX_THREAD_GET_SYSTEM_STATE
 504:../Middlewares/threadx/ports/cortex_m55/gnu/inc/tx_port.h **** #ifndef TX_MISRA_ENABLE
 505:../Middlewares/threadx/ports/cortex_m55/gnu/inc/tx_port.h **** 
 506:../Middlewares/threadx/ports/cortex_m55/gnu/inc/tx_port.h **** #if defined(__GNUC__) /* GCC and AC6 */
 507:../Middlewares/threadx/ports/cortex_m55/gnu/inc/tx_port.h **** __attribute__( ( always_inline ) ) static inline UINT _tx_ipsr_get(void)
 508:../Middlewares/threadx/ports/cortex_m55/gnu/inc/tx_port.h **** {
 509:../Middlewares/threadx/ports/cortex_m55/gnu/inc/tx_port.h **** UINT ipsr_value;
 510:../Middlewares/threadx/ports/cortex_m55/gnu/inc/tx_port.h ****     __asm__ volatile (" MRS  %0,IPSR ": "=r" (ipsr_value) );
 511:../Middlewares/threadx/ports/cortex_m55/gnu/inc/tx_port.h ****     return(ipsr_value);
 512:../Middlewares/threadx/ports/cortex_m55/gnu/inc/tx_port.h **** }
 513:../Middlewares/threadx/ports/cortex_m55/gnu/inc/tx_port.h **** #endif  /* GCC and AC6 IPSR_get function. */
 514:../Middlewares/threadx/ports/cortex_m55/gnu/inc/tx_port.h **** 
 515:../Middlewares/threadx/ports/cortex_m55/gnu/inc/tx_port.h **** #define TX_THREAD_GET_SYSTEM_STATE()        (_tx_thread_system_state | _tx_ipsr_get())
 516:../Middlewares/threadx/ports/cortex_m55/gnu/inc/tx_port.h **** 
 517:../Middlewares/threadx/ports/cortex_m55/gnu/inc/tx_port.h **** #else   /* TX_MISRA_ENABLE is defined, use MISRA function. */
 518:../Middlewares/threadx/ports/cortex_m55/gnu/inc/tx_port.h **** ULONG   _tx_misra_ipsr_get(VOID);
 519:../Middlewares/threadx/ports/cortex_m55/gnu/inc/tx_port.h **** #define TX_THREAD_GET_SYSTEM_STATE()        (_tx_thread_system_state | _tx_misra_ipsr_get())
 520:../Middlewares/threadx/ports/cortex_m55/gnu/inc/tx_port.h **** #endif  /* TX_MISRA_ENABLE */
 521:../Middlewares/threadx/ports/cortex_m55/gnu/inc/tx_port.h **** #endif  /* TX_THREAD_GET_SYSTEM_STATE */
 522:../Middlewares/threadx/ports/cortex_m55/gnu/inc/tx_port.h **** 
 523:../Middlewares/threadx/ports/cortex_m55/gnu/inc/tx_port.h **** 
 524:../Middlewares/threadx/ports/cortex_m55/gnu/inc/tx_port.h **** /* Define the check for whether or not to call the _tx_thread_system_return function.  A non-zero v
 525:../Middlewares/threadx/ports/cortex_m55/gnu/inc/tx_port.h ****    indicates that _tx_thread_system_return should not be called. This overrides the definition in t
 526:../Middlewares/threadx/ports/cortex_m55/gnu/inc/tx_port.h ****    for Cortex-M since so we don't waste time checking the _tx_thread_system_state variable that is 
 527:../Middlewares/threadx/ports/cortex_m55/gnu/inc/tx_port.h ****    zero after initialization for Cortex-M ports. */
 528:../Middlewares/threadx/ports/cortex_m55/gnu/inc/tx_port.h **** 
 529:../Middlewares/threadx/ports/cortex_m55/gnu/inc/tx_port.h **** #ifndef TX_THREAD_SYSTEM_RETURN_CHECK
 530:../Middlewares/threadx/ports/cortex_m55/gnu/inc/tx_port.h **** #define TX_THREAD_SYSTEM_RETURN_CHECK(c)    (c) = ((ULONG) _tx_thread_preempt_disable);
 531:../Middlewares/threadx/ports/cortex_m55/gnu/inc/tx_port.h **** #endif
 532:../Middlewares/threadx/ports/cortex_m55/gnu/inc/tx_port.h **** 
 533:../Middlewares/threadx/ports/cortex_m55/gnu/inc/tx_port.h **** #if !defined(TX_SINGLE_MODE_SECURE) && !defined(TX_SINGLE_MODE_NON_SECURE)
 534:../Middlewares/threadx/ports/cortex_m55/gnu/inc/tx_port.h **** /* Initialize secure stacks for threads calling secure functions. */
 535:../Middlewares/threadx/ports/cortex_m55/gnu/inc/tx_port.h **** extern void    _tx_thread_secure_stack_initialize(void);
 536:../Middlewares/threadx/ports/cortex_m55/gnu/inc/tx_port.h **** #define TX_PORT_SPECIFIC_PRE_INITIALIZATION             _tx_thread_secure_stack_initialize();
 537:../Middlewares/threadx/ports/cortex_m55/gnu/inc/tx_port.h **** #endif
 538:../Middlewares/threadx/ports/cortex_m55/gnu/inc/tx_port.h **** 
 539:../Middlewares/threadx/ports/cortex_m55/gnu/inc/tx_port.h **** /* Define the macro to ensure _tx_thread_preempt_disable is set early in initialization in order to
 540:../Middlewares/threadx/ports/cortex_m55/gnu/inc/tx_port.h ****    prevent early scheduling on Cortex-M parts.  */
 541:../Middlewares/threadx/ports/cortex_m55/gnu/inc/tx_port.h **** 
 542:../Middlewares/threadx/ports/cortex_m55/gnu/inc/tx_port.h **** #define TX_PORT_SPECIFIC_POST_INITIALIZATION    _tx_thread_preempt_disable++;
 543:../Middlewares/threadx/ports/cortex_m55/gnu/inc/tx_port.h **** 
 544:../Middlewares/threadx/ports/cortex_m55/gnu/inc/tx_port.h **** 
 545:../Middlewares/threadx/ports/cortex_m55/gnu/inc/tx_port.h **** 
 546:../Middlewares/threadx/ports/cortex_m55/gnu/inc/tx_port.h **** 
ARM GAS  /tmp/cclAbPUN.s 			page 13


 547:../Middlewares/threadx/ports/cortex_m55/gnu/inc/tx_port.h **** #ifndef TX_DISABLE_INLINE
 548:../Middlewares/threadx/ports/cortex_m55/gnu/inc/tx_port.h **** 
 549:../Middlewares/threadx/ports/cortex_m55/gnu/inc/tx_port.h **** /* Define the TX_LOWEST_SET_BIT_CALCULATE macro for each compiler. */
 550:../Middlewares/threadx/ports/cortex_m55/gnu/inc/tx_port.h **** #ifdef __ICCARM__       /* IAR Compiler */
 551:../Middlewares/threadx/ports/cortex_m55/gnu/inc/tx_port.h **** #define TX_LOWEST_SET_BIT_CALCULATE(m, b)       (b) = (UINT) __CLZ(__RBIT((m)));
 552:../Middlewares/threadx/ports/cortex_m55/gnu/inc/tx_port.h **** #elif defined(__GNUC__) /* GCC and AC6 Compiler */
 553:../Middlewares/threadx/ports/cortex_m55/gnu/inc/tx_port.h **** #define TX_LOWEST_SET_BIT_CALCULATE(m, b)       __asm__ volatile (" RBIT %0,%1 ": "=r" (m) : "r" (m
 554:../Middlewares/threadx/ports/cortex_m55/gnu/inc/tx_port.h ****                                                 __asm__ volatile (" CLZ  %0,%1 ": "=r" (b) : "r" (m
 555:../Middlewares/threadx/ports/cortex_m55/gnu/inc/tx_port.h **** #else
 556:../Middlewares/threadx/ports/cortex_m55/gnu/inc/tx_port.h **** #error "Compiler not supported."
 557:../Middlewares/threadx/ports/cortex_m55/gnu/inc/tx_port.h **** #endif
 558:../Middlewares/threadx/ports/cortex_m55/gnu/inc/tx_port.h **** 
 559:../Middlewares/threadx/ports/cortex_m55/gnu/inc/tx_port.h **** 
 560:../Middlewares/threadx/ports/cortex_m55/gnu/inc/tx_port.h **** 
 561:../Middlewares/threadx/ports/cortex_m55/gnu/inc/tx_port.h **** /* Define the interrupt disable/restore macros. */
 562:../Middlewares/threadx/ports/cortex_m55/gnu/inc/tx_port.h **** 
 563:../Middlewares/threadx/ports/cortex_m55/gnu/inc/tx_port.h **** __attribute__( ( always_inline ) ) static inline UINT __get_interrupt_posture(void)
 564:../Middlewares/threadx/ports/cortex_m55/gnu/inc/tx_port.h **** {
 565:../Middlewares/threadx/ports/cortex_m55/gnu/inc/tx_port.h **** UINT posture;
 566:../Middlewares/threadx/ports/cortex_m55/gnu/inc/tx_port.h **** #ifdef TX_PORT_USE_BASEPRI
 567:../Middlewares/threadx/ports/cortex_m55/gnu/inc/tx_port.h ****     __asm__ volatile ("MRS  %0, BASEPRI ": "=r" (posture));
 568:../Middlewares/threadx/ports/cortex_m55/gnu/inc/tx_port.h **** #else
 569:../Middlewares/threadx/ports/cortex_m55/gnu/inc/tx_port.h ****     __asm__ volatile ("MRS  %0, PRIMASK ": "=r" (posture));
 570:../Middlewares/threadx/ports/cortex_m55/gnu/inc/tx_port.h **** #endif
 571:../Middlewares/threadx/ports/cortex_m55/gnu/inc/tx_port.h ****     return(posture);
 572:../Middlewares/threadx/ports/cortex_m55/gnu/inc/tx_port.h **** }
 573:../Middlewares/threadx/ports/cortex_m55/gnu/inc/tx_port.h **** 
 574:../Middlewares/threadx/ports/cortex_m55/gnu/inc/tx_port.h **** #ifdef TX_PORT_USE_BASEPRI
 575:../Middlewares/threadx/ports/cortex_m55/gnu/inc/tx_port.h **** __attribute__( ( always_inline ) ) static inline void __set_basepri_value(UINT basepri_value)
 576:../Middlewares/threadx/ports/cortex_m55/gnu/inc/tx_port.h **** {
 577:../Middlewares/threadx/ports/cortex_m55/gnu/inc/tx_port.h ****     __asm__ volatile ("MSR  BASEPRI,%0 ": : "r" (basepri_value));
 578:../Middlewares/threadx/ports/cortex_m55/gnu/inc/tx_port.h **** }
 579:../Middlewares/threadx/ports/cortex_m55/gnu/inc/tx_port.h **** #else
 580:../Middlewares/threadx/ports/cortex_m55/gnu/inc/tx_port.h **** __attribute__( ( always_inline ) ) static inline void __enable_interrupts(void)
 581:../Middlewares/threadx/ports/cortex_m55/gnu/inc/tx_port.h **** {
 582:../Middlewares/threadx/ports/cortex_m55/gnu/inc/tx_port.h ****     __asm__ volatile ("CPSIE  i": : : "memory");
 583:../Middlewares/threadx/ports/cortex_m55/gnu/inc/tx_port.h **** }
 584:../Middlewares/threadx/ports/cortex_m55/gnu/inc/tx_port.h **** #endif
 585:../Middlewares/threadx/ports/cortex_m55/gnu/inc/tx_port.h **** 
 586:../Middlewares/threadx/ports/cortex_m55/gnu/inc/tx_port.h **** __attribute__( ( always_inline ) ) static inline void __restore_interrupt(UINT int_posture)
 587:../Middlewares/threadx/ports/cortex_m55/gnu/inc/tx_port.h **** {
 588:../Middlewares/threadx/ports/cortex_m55/gnu/inc/tx_port.h **** #ifdef TX_PORT_USE_BASEPRI
 589:../Middlewares/threadx/ports/cortex_m55/gnu/inc/tx_port.h ****     __set_basepri_value(int_posture);
 590:../Middlewares/threadx/ports/cortex_m55/gnu/inc/tx_port.h **** #else
 591:../Middlewares/threadx/ports/cortex_m55/gnu/inc/tx_port.h ****     __asm__ volatile ("MSR  PRIMASK,%0": : "r" (int_posture): "memory");
 592:../Middlewares/threadx/ports/cortex_m55/gnu/inc/tx_port.h **** #endif
 593:../Middlewares/threadx/ports/cortex_m55/gnu/inc/tx_port.h **** }
 594:../Middlewares/threadx/ports/cortex_m55/gnu/inc/tx_port.h **** 
 595:../Middlewares/threadx/ports/cortex_m55/gnu/inc/tx_port.h **** __attribute__( ( always_inline ) ) static inline UINT __disable_interrupts(void)
  49              		.loc 2 595 55 view .LVU8
  50              	.LBB20:
 596:../Middlewares/threadx/ports/cortex_m55/gnu/inc/tx_port.h **** {
 597:../Middlewares/threadx/ports/cortex_m55/gnu/inc/tx_port.h **** UINT int_posture;
  51              		.loc 2 597 1 view .LVU9
 598:../Middlewares/threadx/ports/cortex_m55/gnu/inc/tx_port.h **** 
 599:../Middlewares/threadx/ports/cortex_m55/gnu/inc/tx_port.h ****     int_posture = __get_interrupt_posture();
  52              		.loc 2 599 5 view .LVU10
ARM GAS  /tmp/cclAbPUN.s 			page 14


  53              	.LBB21:
  54              	.LBI21:
 563:../Middlewares/threadx/ports/cortex_m55/gnu/inc/tx_port.h **** {
  55              		.loc 2 563 55 view .LVU11
  56              	.LBB22:
 565:../Middlewares/threadx/ports/cortex_m55/gnu/inc/tx_port.h **** #ifdef TX_PORT_USE_BASEPRI
  57              		.loc 2 565 1 view .LVU12
 569:../Middlewares/threadx/ports/cortex_m55/gnu/inc/tx_port.h **** #endif
  58              		.loc 2 569 5 view .LVU13
  59              	.LBE22:
  60              	.LBE21:
  61              	.LBE20:
  62              	.LBE19:
  77:../Middlewares/threadx/common/src/tx_semaphore_get.c **** 
  63              		.loc 1 77 1 is_stmt 0 view .LVU14
  64 0000 F7B5     		push	{r0, r1, r2, r4, r5, r6, r7, lr}
  65              		.cfi_def_cfa_offset 32
  66              		.cfi_offset 4, -20
  67              		.cfi_offset 5, -16
  68              		.cfi_offset 6, -12
  69              		.cfi_offset 7, -8
  70              		.cfi_offset 14, -4
  77:../Middlewares/threadx/common/src/tx_semaphore_get.c **** 
  71              		.loc 1 77 1 view .LVU15
  72 0002 0446     		mov	r4, r0
  73 0004 0D46     		mov	r5, r1
  74              	.LBB26:
  75              	.LBB25:
  76              	.LBB24:
  77              	.LBB23:
 569:../Middlewares/threadx/ports/cortex_m55/gnu/inc/tx_port.h **** #endif
  78              		.loc 2 569 5 view .LVU16
  79              		.syntax unified
  80              	@ 569 "../Middlewares/threadx/ports/cortex_m55/gnu/inc/tx_port.h" 1
  81 0006 EFF31086 		MRS  r6, PRIMASK 
  82              	@ 0 "" 2
  83              	.LVL1:
 571:../Middlewares/threadx/ports/cortex_m55/gnu/inc/tx_port.h **** }
  84              		.loc 2 571 5 is_stmt 1 view .LVU17
 571:../Middlewares/threadx/ports/cortex_m55/gnu/inc/tx_port.h **** }
  85              		.loc 2 571 5 is_stmt 0 view .LVU18
  86              		.thumb
  87              		.syntax unified
  88              	.LBE23:
  89              	.LBE24:
 600:../Middlewares/threadx/ports/cortex_m55/gnu/inc/tx_port.h **** 
 601:../Middlewares/threadx/ports/cortex_m55/gnu/inc/tx_port.h **** #ifdef TX_PORT_USE_BASEPRI
 602:../Middlewares/threadx/ports/cortex_m55/gnu/inc/tx_port.h ****     __set_basepri_value(TX_PORT_BASEPRI);
 603:../Middlewares/threadx/ports/cortex_m55/gnu/inc/tx_port.h **** #else
 604:../Middlewares/threadx/ports/cortex_m55/gnu/inc/tx_port.h ****     __asm__ volatile ("CPSID i" : : : "memory");
  90              		.loc 2 604 5 is_stmt 1 view .LVU19
  91              		.syntax unified
  92              	@ 604 "../Middlewares/threadx/ports/cortex_m55/gnu/inc/tx_port.h" 1
  93 000a 72B6     		CPSID i
  94              	@ 0 "" 2
 605:../Middlewares/threadx/ports/cortex_m55/gnu/inc/tx_port.h **** #endif
 606:../Middlewares/threadx/ports/cortex_m55/gnu/inc/tx_port.h ****     return(int_posture);
ARM GAS  /tmp/cclAbPUN.s 			page 15


  95              		.loc 2 606 5 view .LVU20
  96              	.LVL2:
  97              		.loc 2 606 5 is_stmt 0 view .LVU21
  98              		.thumb
  99              		.syntax unified
 100              	.LBE25:
 101              	.LBE26:
 102              	.LBB27:
  92:../Middlewares/threadx/common/src/tx_semaphore_get.c **** 
  93:../Middlewares/threadx/common/src/tx_semaphore_get.c **** #ifdef TX_SEMAPHORE_ENABLE_PERFORMANCE_INFO
  94:../Middlewares/threadx/common/src/tx_semaphore_get.c **** 
  95:../Middlewares/threadx/common/src/tx_semaphore_get.c ****     /* Increment the total semaphore get counter.  */
  96:../Middlewares/threadx/common/src/tx_semaphore_get.c ****     _tx_semaphore_performance_get_count++;
  97:../Middlewares/threadx/common/src/tx_semaphore_get.c **** 
  98:../Middlewares/threadx/common/src/tx_semaphore_get.c ****     /* Increment the number of attempts to get this semaphore.  */
  99:../Middlewares/threadx/common/src/tx_semaphore_get.c ****     semaphore_ptr -> tx_semaphore_performance_get_count++;
 100:../Middlewares/threadx/common/src/tx_semaphore_get.c **** #endif
 101:../Middlewares/threadx/common/src/tx_semaphore_get.c **** 
 102:../Middlewares/threadx/common/src/tx_semaphore_get.c ****     /* If trace is enabled, insert this event into the trace buffer.  */
 103:../Middlewares/threadx/common/src/tx_semaphore_get.c ****     TX_TRACE_IN_LINE_INSERT(TX_TRACE_SEMAPHORE_GET, semaphore_ptr, wait_option, semaphore_ptr -> tx
 103              		.loc 1 103 5 is_stmt 1 view .LVU22
 104              		.loc 1 103 5 view .LVU23
 105              		.loc 1 103 5 view .LVU24
 106              		.loc 1 103 5 view .LVU25
 107              		.loc 1 103 5 view .LVU26
 108 000c 3D49     		ldr	r1, .L23
 109              	.LVL3:
 110              		.loc 1 103 5 is_stmt 0 view .LVU27
 111 000e 0B68     		ldr	r3, [r1]
 112              	.LVL4:
 113              		.loc 1 103 5 is_stmt 1 view .LVU28
 114 0010 002B     		cmp	r3, #0
 115 0012 2FD0     		beq	.L3
 116              		.loc 1 103 5 is_stmt 0 discriminator 1 view .LVU29
 117 0014 3C4A     		ldr	r2, .L23+4
 118 0016 1268     		ldr	r2, [r2]
 119 0018 1706     		lsls	r7, r2, #24
 120 001a 2BD5     		bpl	.L3
 121              		.loc 1 103 5 is_stmt 1 discriminator 2 view .LVU30
 122              	.LBB28:
 123              	.LBI28:
 507:../Middlewares/threadx/ports/cortex_m55/gnu/inc/tx_port.h **** {
 124              		.loc 2 507 55 view .LVU31
 125              	.LBB29:
 509:../Middlewares/threadx/ports/cortex_m55/gnu/inc/tx_port.h ****     __asm__ volatile (" MRS  %0,IPSR ": "=r" (ipsr_value) );
 126              		.loc 2 509 1 view .LVU32
 510:../Middlewares/threadx/ports/cortex_m55/gnu/inc/tx_port.h ****     return(ipsr_value);
 127              		.loc 2 510 5 view .LVU33
 128              		.syntax unified
 129              	@ 510 "../Middlewares/threadx/ports/cortex_m55/gnu/inc/tx_port.h" 1
 130 001c EFF30587 		 MRS  r7,IPSR 
 131              	@ 0 "" 2
 132              	.LVL5:
 511:../Middlewares/threadx/ports/cortex_m55/gnu/inc/tx_port.h **** }
 133              		.loc 2 511 5 view .LVU34
 511:../Middlewares/threadx/ports/cortex_m55/gnu/inc/tx_port.h **** }
 134              		.loc 2 511 5 is_stmt 0 view .LVU35
ARM GAS  /tmp/cclAbPUN.s 			page 16


 135              		.thumb
 136              		.syntax unified
 137              	.LBE29:
 138              	.LBE28:
 139              		.loc 1 103 5 discriminator 1 view .LVU36
 140 0020 3A4A     		ldr	r2, .L23+8
 141 0022 3B48     		ldr	r0, .L23+12
 142              	.LVL6:
 143              		.loc 1 103 5 discriminator 1 view .LVU37
 144 0024 1268     		ldr	r2, [r2]
 145              	.LVL7:
 146              		.loc 1 103 5 is_stmt 1 discriminator 1 view .LVU38
 147 0026 0068     		ldr	r0, [r0]
 148              	.LVL8:
 149              		.loc 1 103 5 discriminator 1 view .LVU39
 150 0028 3A43     		orrs	r2, r2, r7
 151              	.LVL9:
 152              		.loc 1 103 5 is_stmt 0 discriminator 1 view .LVU40
 153 002a 2CD1     		bne	.L5
 154              		.loc 1 103 5 is_stmt 1 discriminator 3 view .LVU41
 155              	.LVL10:
 156              		.loc 1 103 5 view .LVU42
 157              		.loc 1 103 5 is_stmt 0 discriminator 3 view .LVU43
 158 002c C76B     		ldr	r7, [r0, #60]
 159 002e C26A     		ldr	r2, [r0, #44]
 160              	.LVL11:
 161              		.loc 1 103 5 discriminator 3 view .LVU44
 162 0030 42EA0742 		orr	r2, r2, r7, lsl #16
 163 0034 42F00042 		orr	r2, r2, #-2147483648
 164              	.LVL12:
 165              	.L6:
 166              		.loc 1 103 5 is_stmt 1 discriminator 9 view .LVU45
 167 0038 C3E90002 		strd	r0, r2, [r3]
 168              		.loc 1 103 5 view .LVU46
 169              		.loc 1 103 5 is_stmt 0 discriminator 9 view .LVU47
 170 003c 5322     		movs	r2, #83
 171              	.LVL13:
 172              		.loc 1 103 5 discriminator 9 view .LVU48
 173 003e 9A60     		str	r2, [r3, #8]
 174              		.loc 1 103 5 is_stmt 1 view .LVU49
 175              		.loc 1 103 5 is_stmt 0 discriminator 9 view .LVU50
 176 0040 344A     		ldr	r2, .L23+16
 177 0042 5268     		ldr	r2, [r2, #4]
 178 0044 5D61     		str	r5, [r3, #20]
 179 0046 C3E90324 		strd	r2, r4, [r3, #12]
 180              		.loc 1 103 5 is_stmt 1 view .LVU51
 181              		.loc 1 103 5 view .LVU52
 182              		.loc 1 103 5 is_stmt 0 discriminator 9 view .LVU53
 183 004a A268     		ldr	r2, [r4, #8]
 184 004c 2033     		adds	r3, r3, #32
 185              	.LVL14:
 186              		.loc 1 103 5 discriminator 9 view .LVU54
 187 004e 43F8082C 		str	r2, [r3, #-8]
 188              		.loc 1 103 5 is_stmt 1 view .LVU55
 189              		.loc 1 103 5 is_stmt 0 discriminator 9 view .LVU56
 190 0052 01AA     		add	r2, sp, #4
 191 0054 43F8042C 		str	r2, [r3, #-4]
ARM GAS  /tmp/cclAbPUN.s 			page 17


 192              		.loc 1 103 5 is_stmt 1 view .LVU57
 193              	.LVL15:
 194              		.loc 1 103 5 view .LVU58
 195              		.loc 1 103 5 is_stmt 0 discriminator 10 view .LVU59
 196 0058 2F4A     		ldr	r2, .L23+20
 197 005a 1068     		ldr	r0, [r2]
 198              		.loc 1 103 5 discriminator 9 view .LVU60
 199 005c 2F4A     		ldr	r2, .L23+24
 200 005e 1268     		ldr	r2, [r2]
 201 0060 9A42     		cmp	r2, r3
 202 0062 1AD8     		bhi	.L7
 203              		.loc 1 103 5 is_stmt 1 discriminator 10 view .LVU61
 204 0064 2E4B     		ldr	r3, .L23+28
 205              	.LVL16:
 206              		.loc 1 103 5 is_stmt 0 discriminator 10 view .LVU62
 207 0066 1B68     		ldr	r3, [r3]
 208              	.LVL17:
 209              		.loc 1 103 5 is_stmt 1 view .LVU63
 210              		.loc 1 103 5 is_stmt 0 discriminator 10 view .LVU64
 211 0068 0B60     		str	r3, [r1]
 212              	.LVL18:
 213              		.loc 1 103 5 is_stmt 1 view .LVU65
 214              		.loc 1 103 5 is_stmt 0 discriminator 10 view .LVU66
 215 006a 0362     		str	r3, [r0, #32]
 216              		.loc 1 103 5 is_stmt 1 view .LVU67
 217              		.loc 1 103 5 is_stmt 0 discriminator 10 view .LVU68
 218 006c 2D4B     		ldr	r3, .L23+32
 219              	.LVL19:
 220              		.loc 1 103 5 discriminator 10 view .LVU69
 221 006e 1B68     		ldr	r3, [r3]
 222 0070 03B1     		cbz	r3, .L3
 223              		.loc 1 103 5 is_stmt 1 discriminator 12 view .LVU70
 224 0072 9847     		blx	r3
 225              	.LVL20:
 226              	.L3:
 227              		.loc 1 103 5 is_stmt 0 discriminator 12 view .LVU71
 228              	.LBE27:
 104:../Middlewares/threadx/common/src/tx_semaphore_get.c **** 
 105:../Middlewares/threadx/common/src/tx_semaphore_get.c ****     /* Log this kernel call.  */
 106:../Middlewares/threadx/common/src/tx_semaphore_get.c ****     TX_EL_SEMAPHORE_GET_INSERT
 107:../Middlewares/threadx/common/src/tx_semaphore_get.c **** 
 108:../Middlewares/threadx/common/src/tx_semaphore_get.c ****     /* Determine if there is an instance of the semaphore.  */
 109:../Middlewares/threadx/common/src/tx_semaphore_get.c ****     if (semaphore_ptr -> tx_semaphore_count != ((ULONG) 0))
 229              		.loc 1 109 5 is_stmt 1 view .LVU72
 230              		.loc 1 109 23 is_stmt 0 view .LVU73
 231 0074 A368     		ldr	r3, [r4, #8]
 232              		.loc 1 109 8 view .LVU74
 233 0076 9BB1     		cbz	r3, .L8
 110:../Middlewares/threadx/common/src/tx_semaphore_get.c ****     {
 111:../Middlewares/threadx/common/src/tx_semaphore_get.c **** 
 112:../Middlewares/threadx/common/src/tx_semaphore_get.c ****         /* Decrement the semaphore count.  */
 113:../Middlewares/threadx/common/src/tx_semaphore_get.c ****         semaphore_ptr -> tx_semaphore_count--;
 234              		.loc 1 113 9 is_stmt 1 view .LVU75
 235              		.loc 1 113 44 is_stmt 0 view .LVU76
 236 0078 013B     		subs	r3, r3, #1
 237 007a A360     		str	r3, [r4, #8]
 114:../Middlewares/threadx/common/src/tx_semaphore_get.c **** 
ARM GAS  /tmp/cclAbPUN.s 			page 18


 115:../Middlewares/threadx/common/src/tx_semaphore_get.c ****         /* Restore interrupts.  */
 116:../Middlewares/threadx/common/src/tx_semaphore_get.c ****         TX_RESTORE
 238              		.loc 1 116 9 is_stmt 1 view .LVU77
 239              	.LVL21:
 240              	.LBB30:
 241              	.LBI30:
 586:../Middlewares/threadx/ports/cortex_m55/gnu/inc/tx_port.h **** {
 242              		.loc 2 586 55 view .LVU78
 243              	.LBB31:
 591:../Middlewares/threadx/ports/cortex_m55/gnu/inc/tx_port.h **** #endif
 244              		.loc 2 591 5 view .LVU79
 245              		.syntax unified
 246              	@ 591 "../Middlewares/threadx/ports/cortex_m55/gnu/inc/tx_port.h" 1
 247 007c 86F31088 		MSR  PRIMASK,r6
 248              	@ 0 "" 2
 249              	.LVL22:
 591:../Middlewares/threadx/ports/cortex_m55/gnu/inc/tx_port.h **** #endif
 250              		.loc 2 591 5 is_stmt 0 view .LVU80
 251              		.thumb
 252              		.syntax unified
 253              	.LBE31:
 254              	.LBE30:
  88:../Middlewares/threadx/common/src/tx_semaphore_get.c **** 
 255              		.loc 1 88 12 view .LVU81
 256 0080 0020     		movs	r0, #0
 257              	.LVL23:
 258              	.L1:
 117:../Middlewares/threadx/common/src/tx_semaphore_get.c ****     }
 118:../Middlewares/threadx/common/src/tx_semaphore_get.c **** 
 119:../Middlewares/threadx/common/src/tx_semaphore_get.c ****     /* Determine if the request specifies suspension.  */
 120:../Middlewares/threadx/common/src/tx_semaphore_get.c ****     else if (wait_option != TX_NO_WAIT)
 121:../Middlewares/threadx/common/src/tx_semaphore_get.c ****     {
 122:../Middlewares/threadx/common/src/tx_semaphore_get.c **** 
 123:../Middlewares/threadx/common/src/tx_semaphore_get.c ****         /* Determine if the preempt disable flag is non-zero.  */
 124:../Middlewares/threadx/common/src/tx_semaphore_get.c ****         if (_tx_thread_preempt_disable != ((UINT) 0))
 125:../Middlewares/threadx/common/src/tx_semaphore_get.c ****         {
 126:../Middlewares/threadx/common/src/tx_semaphore_get.c **** 
 127:../Middlewares/threadx/common/src/tx_semaphore_get.c ****             /* Restore interrupts.  */
 128:../Middlewares/threadx/common/src/tx_semaphore_get.c ****             TX_RESTORE
 129:../Middlewares/threadx/common/src/tx_semaphore_get.c **** 
 130:../Middlewares/threadx/common/src/tx_semaphore_get.c ****             /* Suspension is not allowed if the preempt disable flag is non-zero at this point - re
 131:../Middlewares/threadx/common/src/tx_semaphore_get.c ****             status =  TX_NO_INSTANCE;
 132:../Middlewares/threadx/common/src/tx_semaphore_get.c ****         }
 133:../Middlewares/threadx/common/src/tx_semaphore_get.c ****         else
 134:../Middlewares/threadx/common/src/tx_semaphore_get.c ****         {
 135:../Middlewares/threadx/common/src/tx_semaphore_get.c **** 
 136:../Middlewares/threadx/common/src/tx_semaphore_get.c ****             /* Prepare for suspension of this thread.  */
 137:../Middlewares/threadx/common/src/tx_semaphore_get.c **** 
 138:../Middlewares/threadx/common/src/tx_semaphore_get.c **** #ifdef TX_SEMAPHORE_ENABLE_PERFORMANCE_INFO
 139:../Middlewares/threadx/common/src/tx_semaphore_get.c **** 
 140:../Middlewares/threadx/common/src/tx_semaphore_get.c ****             /* Increment the total semaphore suspensions counter.  */
 141:../Middlewares/threadx/common/src/tx_semaphore_get.c ****             _tx_semaphore_performance_suspension_count++;
 142:../Middlewares/threadx/common/src/tx_semaphore_get.c **** 
 143:../Middlewares/threadx/common/src/tx_semaphore_get.c ****             /* Increment the number of suspensions on this semaphore.  */
 144:../Middlewares/threadx/common/src/tx_semaphore_get.c ****             semaphore_ptr -> tx_semaphore_performance_suspension_count++;
 145:../Middlewares/threadx/common/src/tx_semaphore_get.c **** #endif
 146:../Middlewares/threadx/common/src/tx_semaphore_get.c **** 
ARM GAS  /tmp/cclAbPUN.s 			page 19


 147:../Middlewares/threadx/common/src/tx_semaphore_get.c ****             /* Pickup thread pointer.  */
 148:../Middlewares/threadx/common/src/tx_semaphore_get.c ****             TX_THREAD_GET_CURRENT(thread_ptr)
 149:../Middlewares/threadx/common/src/tx_semaphore_get.c **** 
 150:../Middlewares/threadx/common/src/tx_semaphore_get.c ****             /* Setup cleanup routine pointer.  */
 151:../Middlewares/threadx/common/src/tx_semaphore_get.c ****             thread_ptr -> tx_thread_suspend_cleanup =  &(_tx_semaphore_cleanup);
 152:../Middlewares/threadx/common/src/tx_semaphore_get.c **** 
 153:../Middlewares/threadx/common/src/tx_semaphore_get.c ****             /* Setup cleanup information, i.e. this semaphore control
 154:../Middlewares/threadx/common/src/tx_semaphore_get.c ****                block.  */
 155:../Middlewares/threadx/common/src/tx_semaphore_get.c ****             thread_ptr -> tx_thread_suspend_control_block =  (VOID *) semaphore_ptr;
 156:../Middlewares/threadx/common/src/tx_semaphore_get.c **** 
 157:../Middlewares/threadx/common/src/tx_semaphore_get.c **** #ifndef TX_NOT_INTERRUPTABLE
 158:../Middlewares/threadx/common/src/tx_semaphore_get.c **** 
 159:../Middlewares/threadx/common/src/tx_semaphore_get.c ****             /* Increment the suspension sequence number, which is used to identify
 160:../Middlewares/threadx/common/src/tx_semaphore_get.c ****                this suspension event.  */
 161:../Middlewares/threadx/common/src/tx_semaphore_get.c ****             thread_ptr -> tx_thread_suspension_sequence++;
 162:../Middlewares/threadx/common/src/tx_semaphore_get.c **** #endif
 163:../Middlewares/threadx/common/src/tx_semaphore_get.c **** 
 164:../Middlewares/threadx/common/src/tx_semaphore_get.c ****             /* Setup suspension list.  */
 165:../Middlewares/threadx/common/src/tx_semaphore_get.c ****             if (semaphore_ptr -> tx_semaphore_suspended_count == TX_NO_SUSPENSIONS)
 166:../Middlewares/threadx/common/src/tx_semaphore_get.c ****             {
 167:../Middlewares/threadx/common/src/tx_semaphore_get.c **** 
 168:../Middlewares/threadx/common/src/tx_semaphore_get.c ****                 /* No other threads are suspended.  Setup the head pointer and
 169:../Middlewares/threadx/common/src/tx_semaphore_get.c ****                    just setup this threads pointers to itself.  */
 170:../Middlewares/threadx/common/src/tx_semaphore_get.c ****                 semaphore_ptr -> tx_semaphore_suspension_list =         thread_ptr;
 171:../Middlewares/threadx/common/src/tx_semaphore_get.c ****                 thread_ptr -> tx_thread_suspended_next =                thread_ptr;
 172:../Middlewares/threadx/common/src/tx_semaphore_get.c ****                 thread_ptr -> tx_thread_suspended_previous =            thread_ptr;
 173:../Middlewares/threadx/common/src/tx_semaphore_get.c ****             }
 174:../Middlewares/threadx/common/src/tx_semaphore_get.c ****             else
 175:../Middlewares/threadx/common/src/tx_semaphore_get.c ****             {
 176:../Middlewares/threadx/common/src/tx_semaphore_get.c **** 
 177:../Middlewares/threadx/common/src/tx_semaphore_get.c ****                 /* This list is not NULL, add current thread to the end. */
 178:../Middlewares/threadx/common/src/tx_semaphore_get.c ****                 next_thread =                                   semaphore_ptr -> tx_semaphore_suspe
 179:../Middlewares/threadx/common/src/tx_semaphore_get.c ****                 thread_ptr -> tx_thread_suspended_next =        next_thread;
 180:../Middlewares/threadx/common/src/tx_semaphore_get.c ****                 previous_thread =                               next_thread -> tx_thread_suspended_
 181:../Middlewares/threadx/common/src/tx_semaphore_get.c ****                 thread_ptr -> tx_thread_suspended_previous =    previous_thread;
 182:../Middlewares/threadx/common/src/tx_semaphore_get.c ****                 previous_thread -> tx_thread_suspended_next =   thread_ptr;
 183:../Middlewares/threadx/common/src/tx_semaphore_get.c ****                 next_thread -> tx_thread_suspended_previous =   thread_ptr;
 184:../Middlewares/threadx/common/src/tx_semaphore_get.c ****             }
 185:../Middlewares/threadx/common/src/tx_semaphore_get.c **** 
 186:../Middlewares/threadx/common/src/tx_semaphore_get.c ****             /* Increment the number of suspensions.  */
 187:../Middlewares/threadx/common/src/tx_semaphore_get.c ****             semaphore_ptr -> tx_semaphore_suspended_count++;
 188:../Middlewares/threadx/common/src/tx_semaphore_get.c **** 
 189:../Middlewares/threadx/common/src/tx_semaphore_get.c ****             /* Set the state to suspended.  */
 190:../Middlewares/threadx/common/src/tx_semaphore_get.c ****             thread_ptr -> tx_thread_state =    TX_SEMAPHORE_SUSP;
 191:../Middlewares/threadx/common/src/tx_semaphore_get.c **** 
 192:../Middlewares/threadx/common/src/tx_semaphore_get.c **** #ifdef TX_NOT_INTERRUPTABLE
 193:../Middlewares/threadx/common/src/tx_semaphore_get.c **** 
 194:../Middlewares/threadx/common/src/tx_semaphore_get.c ****             /* Call actual non-interruptable thread suspension routine.  */
 195:../Middlewares/threadx/common/src/tx_semaphore_get.c ****             _tx_thread_system_ni_suspend(thread_ptr, wait_option);
 196:../Middlewares/threadx/common/src/tx_semaphore_get.c **** 
 197:../Middlewares/threadx/common/src/tx_semaphore_get.c ****             /* Restore interrupts.  */
 198:../Middlewares/threadx/common/src/tx_semaphore_get.c ****             TX_RESTORE
 199:../Middlewares/threadx/common/src/tx_semaphore_get.c **** #else
 200:../Middlewares/threadx/common/src/tx_semaphore_get.c **** 
 201:../Middlewares/threadx/common/src/tx_semaphore_get.c ****             /* Set the suspending flag.  */
 202:../Middlewares/threadx/common/src/tx_semaphore_get.c ****             thread_ptr -> tx_thread_suspending =  TX_TRUE;
 203:../Middlewares/threadx/common/src/tx_semaphore_get.c **** 
ARM GAS  /tmp/cclAbPUN.s 			page 20


 204:../Middlewares/threadx/common/src/tx_semaphore_get.c ****             /* Setup the timeout period.  */
 205:../Middlewares/threadx/common/src/tx_semaphore_get.c ****             thread_ptr -> tx_thread_timer.tx_timer_internal_remaining_ticks =  wait_option;
 206:../Middlewares/threadx/common/src/tx_semaphore_get.c **** 
 207:../Middlewares/threadx/common/src/tx_semaphore_get.c ****             /* Temporarily disable preemption.  */
 208:../Middlewares/threadx/common/src/tx_semaphore_get.c ****             _tx_thread_preempt_disable++;
 209:../Middlewares/threadx/common/src/tx_semaphore_get.c **** 
 210:../Middlewares/threadx/common/src/tx_semaphore_get.c ****             /* Restore interrupts.  */
 211:../Middlewares/threadx/common/src/tx_semaphore_get.c ****             TX_RESTORE
 212:../Middlewares/threadx/common/src/tx_semaphore_get.c **** 
 213:../Middlewares/threadx/common/src/tx_semaphore_get.c ****             /* Call actual thread suspension routine.  */
 214:../Middlewares/threadx/common/src/tx_semaphore_get.c ****             _tx_thread_system_suspend(thread_ptr);
 215:../Middlewares/threadx/common/src/tx_semaphore_get.c **** #endif
 216:../Middlewares/threadx/common/src/tx_semaphore_get.c **** 
 217:../Middlewares/threadx/common/src/tx_semaphore_get.c ****             /* Return the completion status.  */
 218:../Middlewares/threadx/common/src/tx_semaphore_get.c ****             status =  thread_ptr -> tx_thread_suspend_status;
 219:../Middlewares/threadx/common/src/tx_semaphore_get.c ****         }
 220:../Middlewares/threadx/common/src/tx_semaphore_get.c ****     }
 221:../Middlewares/threadx/common/src/tx_semaphore_get.c ****     else
 222:../Middlewares/threadx/common/src/tx_semaphore_get.c ****     {
 223:../Middlewares/threadx/common/src/tx_semaphore_get.c **** 
 224:../Middlewares/threadx/common/src/tx_semaphore_get.c ****         /* Restore interrupts.  */
 225:../Middlewares/threadx/common/src/tx_semaphore_get.c ****         TX_RESTORE
 226:../Middlewares/threadx/common/src/tx_semaphore_get.c **** 
 227:../Middlewares/threadx/common/src/tx_semaphore_get.c ****         /* Immediate return, return error completion.  */
 228:../Middlewares/threadx/common/src/tx_semaphore_get.c ****         status =  TX_NO_INSTANCE;
 229:../Middlewares/threadx/common/src/tx_semaphore_get.c ****     }
 230:../Middlewares/threadx/common/src/tx_semaphore_get.c **** 
 231:../Middlewares/threadx/common/src/tx_semaphore_get.c ****     /* Return completion status.  */
 232:../Middlewares/threadx/common/src/tx_semaphore_get.c ****     return(status);
 233:../Middlewares/threadx/common/src/tx_semaphore_get.c **** }
 259              		.loc 1 233 1 view .LVU82
 260 0082 03B0     		add	sp, sp, #12
 261              		.cfi_remember_state
 262              		.cfi_def_cfa_offset 20
 263              		@ sp needed
 264 0084 F0BD     		pop	{r4, r5, r6, r7, pc}
 265              	.LVL24:
 266              	.L5:
 267              		.cfi_restore_state
 268              	.LBB32:
 103:../Middlewares/threadx/common/src/tx_semaphore_get.c **** 
 269              		.loc 1 103 5 is_stmt 1 discriminator 4 view .LVU83
 270 0086 B2F1F03F 		cmp	r2, #-252645136
 103:../Middlewares/threadx/common/src/tx_semaphore_get.c **** 
 271              		.loc 1 103 5 discriminator 6 view .LVU84
 272 008a 35BF     		itete	cc
 273 008c 0246     		movcc	r2, r0
 274              	.LVL25:
 103:../Middlewares/threadx/common/src/tx_semaphore_get.c **** 
 275              		.loc 1 103 5 view .LVU85
 103:../Middlewares/threadx/common/src/tx_semaphore_get.c **** 
 276              		.loc 1 103 5 is_stmt 0 discriminator 7 view .LVU86
 277 008e 4FF0F030 		movcs	r0, #-252645136
 103:../Middlewares/threadx/common/src/tx_semaphore_get.c **** 
 278              		.loc 1 103 5 discriminator 6 view .LVU87
 279 0092 4FF0FF30 		movcc	r0, #-1
 280              	.LVL26:
ARM GAS  /tmp/cclAbPUN.s 			page 21


 103:../Middlewares/threadx/common/src/tx_semaphore_get.c **** 
 281              		.loc 1 103 5 discriminator 7 view .LVU88
 282 0096 0022     		movcs	r2, #0
 283 0098 CEE7     		b	.L6
 284              	.LVL27:
 285              	.L7:
 103:../Middlewares/threadx/common/src/tx_semaphore_get.c **** 
 286              		.loc 1 103 5 is_stmt 1 discriminator 11 view .LVU89
 287 009a 0B60     		str	r3, [r1]
 288              	.LVL28:
 103:../Middlewares/threadx/common/src/tx_semaphore_get.c **** 
 289              		.loc 1 103 5 view .LVU90
 103:../Middlewares/threadx/common/src/tx_semaphore_get.c **** 
 290              		.loc 1 103 5 is_stmt 0 discriminator 11 view .LVU91
 291 009c 0362     		str	r3, [r0, #32]
 292 009e E9E7     		b	.L3
 293              	.LVL29:
 294              	.L8:
 103:../Middlewares/threadx/common/src/tx_semaphore_get.c **** 
 295              		.loc 1 103 5 discriminator 11 view .LVU92
 296              	.LBE32:
 120:../Middlewares/threadx/common/src/tx_semaphore_get.c ****     {
 297              		.loc 1 120 10 is_stmt 1 view .LVU93
 120:../Middlewares/threadx/common/src/tx_semaphore_get.c ****     {
 298              		.loc 1 120 13 is_stmt 0 view .LVU94
 299 00a0 15B1     		cbz	r5, .L22
 124:../Middlewares/threadx/common/src/tx_semaphore_get.c ****         {
 300              		.loc 1 124 9 is_stmt 1 view .LVU95
 124:../Middlewares/threadx/common/src/tx_semaphore_get.c ****         {
 301              		.loc 1 124 40 is_stmt 0 view .LVU96
 302 00a2 2149     		ldr	r1, .L23+36
 303 00a4 0B68     		ldr	r3, [r1]
 124:../Middlewares/threadx/common/src/tx_semaphore_get.c ****         {
 304              		.loc 1 124 12 view .LVU97
 305 00a6 1BB1     		cbz	r3, .L11
 306              	.L22:
 128:../Middlewares/threadx/common/src/tx_semaphore_get.c **** 
 307              		.loc 1 128 13 is_stmt 1 view .LVU98
 308              	.LVL30:
 309              	.LBB33:
 310              	.LBI33:
 586:../Middlewares/threadx/ports/cortex_m55/gnu/inc/tx_port.h **** {
 311              		.loc 2 586 55 view .LVU99
 312              	.LBB34:
 591:../Middlewares/threadx/ports/cortex_m55/gnu/inc/tx_port.h **** #endif
 313              		.loc 2 591 5 view .LVU100
 314              		.syntax unified
 315              	@ 591 "../Middlewares/threadx/ports/cortex_m55/gnu/inc/tx_port.h" 1
 316 00a8 86F31088 		MSR  PRIMASK,r6
 317              	@ 0 "" 2
 318              	.LVL31:
 591:../Middlewares/threadx/ports/cortex_m55/gnu/inc/tx_port.h **** #endif
 319              		.loc 2 591 5 is_stmt 0 view .LVU101
 320              		.thumb
 321              		.syntax unified
 322              	.LBE34:
 323              	.LBE33:
ARM GAS  /tmp/cclAbPUN.s 			page 22


 131:../Middlewares/threadx/common/src/tx_semaphore_get.c ****         }
 324              		.loc 1 131 13 is_stmt 1 view .LVU102
 228:../Middlewares/threadx/common/src/tx_semaphore_get.c ****     }
 325              		.loc 1 228 16 is_stmt 0 view .LVU103
 326 00ac 0D20     		movs	r0, #13
 327 00ae E8E7     		b	.L1
 328              	.LVL32:
 329              	.L11:
 148:../Middlewares/threadx/common/src/tx_semaphore_get.c **** 
 330              		.loc 1 148 13 is_stmt 1 view .LVU104
 331 00b0 174B     		ldr	r3, .L23+12
 151:../Middlewares/threadx/common/src/tx_semaphore_get.c **** 
 332              		.loc 1 151 53 is_stmt 0 view .LVU105
 333 00b2 1E4A     		ldr	r2, .L23+40
 148:../Middlewares/threadx/common/src/tx_semaphore_get.c **** 
 334              		.loc 1 148 13 view .LVU106
 335 00b4 1B68     		ldr	r3, [r3]
 155:../Middlewares/threadx/common/src/tx_semaphore_get.c **** 
 336              		.loc 1 155 59 view .LVU107
 337 00b6 C3E91A24 		strd	r2, r4, [r3, #104]
 161:../Middlewares/threadx/common/src/tx_semaphore_get.c **** #endif
 338              		.loc 1 161 56 view .LVU108
 339 00ba D3F8B020 		ldr	r2, [r3, #176]
 148:../Middlewares/threadx/common/src/tx_semaphore_get.c **** 
 340              		.loc 1 148 13 view .LVU109
 341 00be 0193     		str	r3, [sp, #4]
 151:../Middlewares/threadx/common/src/tx_semaphore_get.c **** 
 342              		.loc 1 151 13 is_stmt 1 view .LVU110
 161:../Middlewares/threadx/common/src/tx_semaphore_get.c **** #endif
 343              		.loc 1 161 13 view .LVU111
 161:../Middlewares/threadx/common/src/tx_semaphore_get.c **** #endif
 344              		.loc 1 161 56 is_stmt 0 view .LVU112
 345 00c0 0132     		adds	r2, r2, #1
 346 00c2 C3F8B020 		str	r2, [r3, #176]
 165:../Middlewares/threadx/common/src/tx_semaphore_get.c ****             {
 347              		.loc 1 165 13 is_stmt 1 view .LVU113
 165:../Middlewares/threadx/common/src/tx_semaphore_get.c ****             {
 348              		.loc 1 165 31 is_stmt 0 view .LVU114
 349 00c6 2269     		ldr	r2, [r4, #16]
 165:../Middlewares/threadx/common/src/tx_semaphore_get.c ****             {
 350              		.loc 1 165 16 view .LVU115
 351 00c8 AAB9     		cbnz	r2, .L12
 170:../Middlewares/threadx/common/src/tx_semaphore_get.c ****                 thread_ptr -> tx_thread_suspended_next =                thread_ptr;
 352              		.loc 1 170 17 is_stmt 1 view .LVU116
 170:../Middlewares/threadx/common/src/tx_semaphore_get.c ****                 thread_ptr -> tx_thread_suspended_next =                thread_ptr;
 353              		.loc 1 170 63 is_stmt 0 view .LVU117
 354 00ca E360     		str	r3, [r4, #12]
 171:../Middlewares/threadx/common/src/tx_semaphore_get.c ****                 thread_ptr -> tx_thread_suspended_previous =            thread_ptr;
 355              		.loc 1 171 17 is_stmt 1 view .LVU118
 172:../Middlewares/threadx/common/src/tx_semaphore_get.c ****             }
 356              		.loc 1 172 60 is_stmt 0 view .LVU119
 357 00cc C3E91C33 		strd	r3, r3, [r3, #112]
 358              	.L13:
 187:../Middlewares/threadx/common/src/tx_semaphore_get.c **** 
 359              		.loc 1 187 13 is_stmt 1 view .LVU120
 187:../Middlewares/threadx/common/src/tx_semaphore_get.c **** 
 360              		.loc 1 187 58 is_stmt 0 view .LVU121
ARM GAS  /tmp/cclAbPUN.s 			page 23


 361 00d0 0132     		adds	r2, r2, #1
 362 00d2 2261     		str	r2, [r4, #16]
 190:../Middlewares/threadx/common/src/tx_semaphore_get.c **** 
 363              		.loc 1 190 13 is_stmt 1 view .LVU122
 190:../Middlewares/threadx/common/src/tx_semaphore_get.c **** 
 364              		.loc 1 190 43 is_stmt 0 view .LVU123
 365 00d4 0622     		movs	r2, #6
 366 00d6 1A63     		str	r2, [r3, #48]
 202:../Middlewares/threadx/common/src/tx_semaphore_get.c **** 
 367              		.loc 1 202 13 is_stmt 1 view .LVU124
 202:../Middlewares/threadx/common/src/tx_semaphore_get.c **** 
 368              		.loc 1 202 48 is_stmt 0 view .LVU125
 369 00d8 0122     		movs	r2, #1
 205:../Middlewares/threadx/common/src/tx_semaphore_get.c **** 
 370              		.loc 1 205 77 view .LVU126
 371 00da DD64     		str	r5, [r3, #76]
 202:../Middlewares/threadx/common/src/tx_semaphore_get.c **** 
 372              		.loc 1 202 48 view .LVU127
 373 00dc 9A63     		str	r2, [r3, #56]
 205:../Middlewares/threadx/common/src/tx_semaphore_get.c **** 
 374              		.loc 1 205 13 is_stmt 1 view .LVU128
 208:../Middlewares/threadx/common/src/tx_semaphore_get.c **** 
 375              		.loc 1 208 13 view .LVU129
 208:../Middlewares/threadx/common/src/tx_semaphore_get.c **** 
 376              		.loc 1 208 39 is_stmt 0 view .LVU130
 377 00de 0B68     		ldr	r3, [r1]
 378 00e0 1344     		add	r3, r3, r2
 379 00e2 0B60     		str	r3, [r1]
 211:../Middlewares/threadx/common/src/tx_semaphore_get.c **** 
 380              		.loc 1 211 13 is_stmt 1 view .LVU131
 381              	.LVL33:
 382              	.LBB35:
 383              	.LBI35:
 586:../Middlewares/threadx/ports/cortex_m55/gnu/inc/tx_port.h **** {
 384              		.loc 2 586 55 view .LVU132
 385              	.LBB36:
 591:../Middlewares/threadx/ports/cortex_m55/gnu/inc/tx_port.h **** #endif
 386              		.loc 2 591 5 view .LVU133
 387              		.syntax unified
 388              	@ 591 "../Middlewares/threadx/ports/cortex_m55/gnu/inc/tx_port.h" 1
 389 00e4 86F31088 		MSR  PRIMASK,r6
 390              	@ 0 "" 2
 391              	.LVL34:
 591:../Middlewares/threadx/ports/cortex_m55/gnu/inc/tx_port.h **** #endif
 392              		.loc 2 591 5 is_stmt 0 view .LVU134
 393              		.thumb
 394              		.syntax unified
 395              	.LBE36:
 396              	.LBE35:
 214:../Middlewares/threadx/common/src/tx_semaphore_get.c **** #endif
 397              		.loc 1 214 13 is_stmt 1 view .LVU135
 398 00e8 0198     		ldr	r0, [sp, #4]
 399 00ea FFF7FEFF 		bl	_tx_thread_system_suspend
 400              	.LVL35:
 218:../Middlewares/threadx/common/src/tx_semaphore_get.c ****         }
 401              		.loc 1 218 13 view .LVU136
 218:../Middlewares/threadx/common/src/tx_semaphore_get.c ****         }
ARM GAS  /tmp/cclAbPUN.s 			page 24


 402              		.loc 1 218 20 is_stmt 0 view .LVU137
 403 00ee 019B     		ldr	r3, [sp, #4]
 404 00f0 D3F88400 		ldr	r0, [r3, #132]
 405              	.LVL36:
 218:../Middlewares/threadx/common/src/tx_semaphore_get.c ****         }
 406              		.loc 1 218 20 view .LVU138
 407 00f4 C5E7     		b	.L1
 408              	.LVL37:
 409              	.L12:
 178:../Middlewares/threadx/common/src/tx_semaphore_get.c ****                 thread_ptr -> tx_thread_suspended_next =        next_thread;
 410              		.loc 1 178 17 is_stmt 1 view .LVU139
 178:../Middlewares/threadx/common/src/tx_semaphore_get.c ****                 thread_ptr -> tx_thread_suspended_next =        next_thread;
 411              		.loc 1 178 29 is_stmt 0 view .LVU140
 412 00f6 E068     		ldr	r0, [r4, #12]
 413              	.LVL38:
 179:../Middlewares/threadx/common/src/tx_semaphore_get.c ****                 previous_thread =                               next_thread -> tx_thread_suspended_
 414              		.loc 1 179 17 is_stmt 1 view .LVU141
 180:../Middlewares/threadx/common/src/tx_semaphore_get.c ****                 thread_ptr -> tx_thread_suspended_previous =    previous_thread;
 415              		.loc 1 180 33 is_stmt 0 view .LVU142
 416 00f8 476F     		ldr	r7, [r0, #116]
 179:../Middlewares/threadx/common/src/tx_semaphore_get.c ****                 previous_thread =                               next_thread -> tx_thread_suspended_
 417              		.loc 1 179 56 view .LVU143
 418 00fa 1867     		str	r0, [r3, #112]
 180:../Middlewares/threadx/common/src/tx_semaphore_get.c ****                 thread_ptr -> tx_thread_suspended_previous =    previous_thread;
 419              		.loc 1 180 17 is_stmt 1 view .LVU144
 420              	.LVL39:
 181:../Middlewares/threadx/common/src/tx_semaphore_get.c ****                 previous_thread -> tx_thread_suspended_next =   thread_ptr;
 421              		.loc 1 181 17 view .LVU145
 181:../Middlewares/threadx/common/src/tx_semaphore_get.c ****                 previous_thread -> tx_thread_suspended_next =   thread_ptr;
 422              		.loc 1 181 60 is_stmt 0 view .LVU146
 423 00fc 5F67     		str	r7, [r3, #116]
 182:../Middlewares/threadx/common/src/tx_semaphore_get.c ****                 next_thread -> tx_thread_suspended_previous =   thread_ptr;
 424              		.loc 1 182 17 is_stmt 1 view .LVU147
 182:../Middlewares/threadx/common/src/tx_semaphore_get.c ****                 next_thread -> tx_thread_suspended_previous =   thread_ptr;
 425              		.loc 1 182 61 is_stmt 0 view .LVU148
 426 00fe 3B67     		str	r3, [r7, #112]
 183:../Middlewares/threadx/common/src/tx_semaphore_get.c ****             }
 427              		.loc 1 183 17 is_stmt 1 view .LVU149
 183:../Middlewares/threadx/common/src/tx_semaphore_get.c ****             }
 428              		.loc 1 183 61 is_stmt 0 view .LVU150
 429 0100 4367     		str	r3, [r0, #116]
 430 0102 E5E7     		b	.L13
 431              	.L24:
 432              		.align	2
 433              	.L23:
 434 0104 00000000 		.word	_tx_trace_buffer_current_ptr
 435 0108 00000000 		.word	_tx_trace_event_enable_bits
 436 010c 00000000 		.word	_tx_thread_system_state
 437 0110 00000000 		.word	_tx_thread_current_ptr
 438 0114 001000E0 		.word	-536866816
 439 0118 00000000 		.word	_tx_trace_header_ptr
 440 011c 00000000 		.word	_tx_trace_buffer_end_ptr
 441 0120 00000000 		.word	_tx_trace_buffer_start_ptr
 442 0124 00000000 		.word	_tx_trace_full_notify_function
 443 0128 00000000 		.word	_tx_thread_preempt_disable
 444 012c 00000000 		.word	_tx_semaphore_cleanup
 445              		.cfi_endproc
ARM GAS  /tmp/cclAbPUN.s 			page 25


 446              	.LFE8:
 448              		.text
 449              	.Letext0:
 450              		.file 3 "../Middlewares/threadx/common/inc/tx_api.h"
 451              		.file 4 "../Middlewares/threadx/common/inc/tx_thread.h"
 452              		.file 5 "../Middlewares/threadx/common/inc/tx_trace.h"
 453              		.file 6 "../Middlewares/threadx/common/inc/tx_semaphore.h"
ARM GAS  /tmp/cclAbPUN.s 			page 26

