ARM GAS  /tmp/ccx8xURx.s 			page 1


   1              		.arch armv8.1-m.main
   2              		.fpu fpv5-d16
   3              		.arch_extension dsp
   4              		.arch_extension fp
   5              		.arch_extension fp.dp
   6              		.arch_extension mve
   7              		.arch_extension mve.fp
   8              		.eabi_attribute 5, "cortex-m55"
   9              		.eabi_attribute 28, 1
  10              		.eabi_attribute 20, 1
  11              		.eabi_attribute 21, 1
  12              		.eabi_attribute 23, 3
  13              		.eabi_attribute 24, 1
  14              		.eabi_attribute 25, 1
  15              		.eabi_attribute 26, 1
  16              		.eabi_attribute 30, 4
  17              		.eabi_attribute 34, 1
  18              		.eabi_attribute 38, 1
  19              		.eabi_attribute 18, 4
  20              		.file	"tx_thread_preemption_change.c"
  21              		.text
  22              	.Ltext0:
  23              		.cfi_sections	.debug_frame
  24              		.file 1 "../Middlewares/threadx/common/src/tx_thread_preemption_change.c"
  25              		.section	.text._tx_thread_preemption_change,"ax",%progbits
  26              		.align	1
  27              		.global	_tx_thread_preemption_change
  28              		.syntax unified
  29              		.thumb
  30              		.thumb_func
  32              	_tx_thread_preemption_change:
  33              	.LVL0:
  34              	.LFB8:
   1:../Middlewares/threadx/common/src/tx_thread_preemption_change.c **** /**************************************************************************/
   2:../Middlewares/threadx/common/src/tx_thread_preemption_change.c **** /*                                                                        */
   3:../Middlewares/threadx/common/src/tx_thread_preemption_change.c **** /*       Copyright (c) Microsoft Corporation. All rights reserved.        */
   4:../Middlewares/threadx/common/src/tx_thread_preemption_change.c **** /*                                                                        */
   5:../Middlewares/threadx/common/src/tx_thread_preemption_change.c **** /*       This software is licensed under the Microsoft Software License   */
   6:../Middlewares/threadx/common/src/tx_thread_preemption_change.c **** /*       Terms for Microsoft Azure RTOS. Full text of the license can be  */
   7:../Middlewares/threadx/common/src/tx_thread_preemption_change.c **** /*       found in the LICENSE file at https://aka.ms/AzureRTOS_EULA       */
   8:../Middlewares/threadx/common/src/tx_thread_preemption_change.c **** /*       and in the root directory of this software.                      */
   9:../Middlewares/threadx/common/src/tx_thread_preemption_change.c **** /*                                                                        */
  10:../Middlewares/threadx/common/src/tx_thread_preemption_change.c **** /**************************************************************************/
  11:../Middlewares/threadx/common/src/tx_thread_preemption_change.c **** 
  12:../Middlewares/threadx/common/src/tx_thread_preemption_change.c **** 
  13:../Middlewares/threadx/common/src/tx_thread_preemption_change.c **** /**************************************************************************/
  14:../Middlewares/threadx/common/src/tx_thread_preemption_change.c **** /**************************************************************************/
  15:../Middlewares/threadx/common/src/tx_thread_preemption_change.c **** /**                                                                       */
  16:../Middlewares/threadx/common/src/tx_thread_preemption_change.c **** /** ThreadX Component                                                     */
  17:../Middlewares/threadx/common/src/tx_thread_preemption_change.c **** /**                                                                       */
  18:../Middlewares/threadx/common/src/tx_thread_preemption_change.c **** /**   Thread                                                              */
  19:../Middlewares/threadx/common/src/tx_thread_preemption_change.c **** /**                                                                       */
  20:../Middlewares/threadx/common/src/tx_thread_preemption_change.c **** /**************************************************************************/
  21:../Middlewares/threadx/common/src/tx_thread_preemption_change.c **** /**************************************************************************/
  22:../Middlewares/threadx/common/src/tx_thread_preemption_change.c **** 
  23:../Middlewares/threadx/common/src/tx_thread_preemption_change.c **** #define TX_SOURCE_CODE
  24:../Middlewares/threadx/common/src/tx_thread_preemption_change.c **** 
ARM GAS  /tmp/ccx8xURx.s 			page 2


  25:../Middlewares/threadx/common/src/tx_thread_preemption_change.c **** 
  26:../Middlewares/threadx/common/src/tx_thread_preemption_change.c **** /* Include necessary system files.  */
  27:../Middlewares/threadx/common/src/tx_thread_preemption_change.c **** 
  28:../Middlewares/threadx/common/src/tx_thread_preemption_change.c **** #include "tx_api.h"
  29:../Middlewares/threadx/common/src/tx_thread_preemption_change.c **** #include "tx_trace.h"
  30:../Middlewares/threadx/common/src/tx_thread_preemption_change.c **** #include "tx_thread.h"
  31:../Middlewares/threadx/common/src/tx_thread_preemption_change.c **** 
  32:../Middlewares/threadx/common/src/tx_thread_preemption_change.c **** 
  33:../Middlewares/threadx/common/src/tx_thread_preemption_change.c **** /**************************************************************************/
  34:../Middlewares/threadx/common/src/tx_thread_preemption_change.c **** /*                                                                        */
  35:../Middlewares/threadx/common/src/tx_thread_preemption_change.c **** /*  FUNCTION                                               RELEASE        */
  36:../Middlewares/threadx/common/src/tx_thread_preemption_change.c **** /*                                                                        */
  37:../Middlewares/threadx/common/src/tx_thread_preemption_change.c **** /*    _tx_thread_preemption_change                        PORTABLE C      */
  38:../Middlewares/threadx/common/src/tx_thread_preemption_change.c **** /*                                                           6.1          */
  39:../Middlewares/threadx/common/src/tx_thread_preemption_change.c **** /*  AUTHOR                                                                */
  40:../Middlewares/threadx/common/src/tx_thread_preemption_change.c **** /*                                                                        */
  41:../Middlewares/threadx/common/src/tx_thread_preemption_change.c **** /*    William E. Lamie, Microsoft Corporation                             */
  42:../Middlewares/threadx/common/src/tx_thread_preemption_change.c **** /*                                                                        */
  43:../Middlewares/threadx/common/src/tx_thread_preemption_change.c **** /*  DESCRIPTION                                                           */
  44:../Middlewares/threadx/common/src/tx_thread_preemption_change.c **** /*                                                                        */
  45:../Middlewares/threadx/common/src/tx_thread_preemption_change.c **** /*    This function processes preemption-threshold change requests.  The  */
  46:../Middlewares/threadx/common/src/tx_thread_preemption_change.c **** /*    previous preemption is returned to the caller.  If the new request  */
  47:../Middlewares/threadx/common/src/tx_thread_preemption_change.c **** /*    allows a higher priority thread to execute, preemption takes place  */
  48:../Middlewares/threadx/common/src/tx_thread_preemption_change.c **** /*    inside of this function.                                            */
  49:../Middlewares/threadx/common/src/tx_thread_preemption_change.c **** /*                                                                        */
  50:../Middlewares/threadx/common/src/tx_thread_preemption_change.c **** /*  INPUT                                                                 */
  51:../Middlewares/threadx/common/src/tx_thread_preemption_change.c **** /*                                                                        */
  52:../Middlewares/threadx/common/src/tx_thread_preemption_change.c **** /*    thread_ptr                            Pointer to thread             */
  53:../Middlewares/threadx/common/src/tx_thread_preemption_change.c **** /*    new_threshold                         New preemption threshold      */
  54:../Middlewares/threadx/common/src/tx_thread_preemption_change.c **** /*    old_threshold                         Old preemption threshold      */
  55:../Middlewares/threadx/common/src/tx_thread_preemption_change.c **** /*                                                                        */
  56:../Middlewares/threadx/common/src/tx_thread_preemption_change.c **** /*  OUTPUT                                                                */
  57:../Middlewares/threadx/common/src/tx_thread_preemption_change.c **** /*                                                                        */
  58:../Middlewares/threadx/common/src/tx_thread_preemption_change.c **** /*    status                                Service return status         */
  59:../Middlewares/threadx/common/src/tx_thread_preemption_change.c **** /*                                                                        */
  60:../Middlewares/threadx/common/src/tx_thread_preemption_change.c **** /*  CALLS                                                                 */
  61:../Middlewares/threadx/common/src/tx_thread_preemption_change.c **** /*                                                                        */
  62:../Middlewares/threadx/common/src/tx_thread_preemption_change.c **** /*    _tx_thread_system_preempt_check       Check for preemption          */
  63:../Middlewares/threadx/common/src/tx_thread_preemption_change.c **** /*                                                                        */
  64:../Middlewares/threadx/common/src/tx_thread_preemption_change.c **** /*  CALLED BY                                                             */
  65:../Middlewares/threadx/common/src/tx_thread_preemption_change.c **** /*                                                                        */
  66:../Middlewares/threadx/common/src/tx_thread_preemption_change.c **** /*    Application Code                                                    */
  67:../Middlewares/threadx/common/src/tx_thread_preemption_change.c **** /*                                                                        */
  68:../Middlewares/threadx/common/src/tx_thread_preemption_change.c **** /*  RELEASE HISTORY                                                       */
  69:../Middlewares/threadx/common/src/tx_thread_preemption_change.c **** /*                                                                        */
  70:../Middlewares/threadx/common/src/tx_thread_preemption_change.c **** /*    DATE              NAME                      DESCRIPTION             */
  71:../Middlewares/threadx/common/src/tx_thread_preemption_change.c **** /*                                                                        */
  72:../Middlewares/threadx/common/src/tx_thread_preemption_change.c **** /*  05-19-2020     William E. Lamie         Initial Version 6.0           */
  73:../Middlewares/threadx/common/src/tx_thread_preemption_change.c **** /*  09-30-2020     Yuxin Zhou               Modified comment(s),          */
  74:../Middlewares/threadx/common/src/tx_thread_preemption_change.c **** /*                                            resulting in version 6.1    */
  75:../Middlewares/threadx/common/src/tx_thread_preemption_change.c **** /*                                                                        */
  76:../Middlewares/threadx/common/src/tx_thread_preemption_change.c **** /**************************************************************************/
  77:../Middlewares/threadx/common/src/tx_thread_preemption_change.c **** UINT  _tx_thread_preemption_change(TX_THREAD *thread_ptr, UINT new_threshold, UINT *old_threshold)
  78:../Middlewares/threadx/common/src/tx_thread_preemption_change.c **** {
  35              		.loc 1 78 1 view -0
  36              		.cfi_startproc
  37              		@ args = 0, pretend = 0, frame = 0
ARM GAS  /tmp/ccx8xURx.s 			page 3


  38              		@ frame_needed = 0, uses_anonymous_args = 0
  79:../Middlewares/threadx/common/src/tx_thread_preemption_change.c **** 
  80:../Middlewares/threadx/common/src/tx_thread_preemption_change.c **** TX_INTERRUPT_SAVE_AREA
  39              		.loc 1 80 1 view .LVU1
  81:../Middlewares/threadx/common/src/tx_thread_preemption_change.c **** 
  82:../Middlewares/threadx/common/src/tx_thread_preemption_change.c **** #ifndef TX_DISABLE_PREEMPTION_THRESHOLD
  83:../Middlewares/threadx/common/src/tx_thread_preemption_change.c **** ULONG       priority_bit;
  40              		.loc 1 83 1 view .LVU2
  84:../Middlewares/threadx/common/src/tx_thread_preemption_change.c **** #if TX_MAX_PRIORITIES > 32
  85:../Middlewares/threadx/common/src/tx_thread_preemption_change.c **** UINT        map_index;
  86:../Middlewares/threadx/common/src/tx_thread_preemption_change.c **** #endif
  87:../Middlewares/threadx/common/src/tx_thread_preemption_change.c **** #endif
  88:../Middlewares/threadx/common/src/tx_thread_preemption_change.c **** UINT        status;
  41              		.loc 1 88 1 view .LVU3
  89:../Middlewares/threadx/common/src/tx_thread_preemption_change.c **** 
  90:../Middlewares/threadx/common/src/tx_thread_preemption_change.c **** 
  91:../Middlewares/threadx/common/src/tx_thread_preemption_change.c ****     /* Default status to success.  */
  92:../Middlewares/threadx/common/src/tx_thread_preemption_change.c ****     status =  TX_SUCCESS;
  42              		.loc 1 92 5 view .LVU4
  93:../Middlewares/threadx/common/src/tx_thread_preemption_change.c **** 
  94:../Middlewares/threadx/common/src/tx_thread_preemption_change.c **** #ifdef TX_DISABLE_PREEMPTION_THRESHOLD
  95:../Middlewares/threadx/common/src/tx_thread_preemption_change.c **** 
  96:../Middlewares/threadx/common/src/tx_thread_preemption_change.c ****     /* Only allow 0 (disable all preemption) and returning preemption-threshold to the
  97:../Middlewares/threadx/common/src/tx_thread_preemption_change.c ****        current thread priority if preemption-threshold is disabled. All other threshold
  98:../Middlewares/threadx/common/src/tx_thread_preemption_change.c ****        values are converted to 0.  */
  99:../Middlewares/threadx/common/src/tx_thread_preemption_change.c ****     if (thread_ptr -> tx_thread_user_priority != new_threshold)
 100:../Middlewares/threadx/common/src/tx_thread_preemption_change.c ****     {
 101:../Middlewares/threadx/common/src/tx_thread_preemption_change.c **** 
 102:../Middlewares/threadx/common/src/tx_thread_preemption_change.c ****         /* Is the new threshold zero?  */
 103:../Middlewares/threadx/common/src/tx_thread_preemption_change.c ****         if (new_threshold != ((UINT) 0))
 104:../Middlewares/threadx/common/src/tx_thread_preemption_change.c ****         {
 105:../Middlewares/threadx/common/src/tx_thread_preemption_change.c **** 
 106:../Middlewares/threadx/common/src/tx_thread_preemption_change.c ****             /* Convert the new threshold to disable all preemption, since preemption-threshold is
 107:../Middlewares/threadx/common/src/tx_thread_preemption_change.c ****                not supported.  */
 108:../Middlewares/threadx/common/src/tx_thread_preemption_change.c ****             new_threshold =  ((UINT) 0);
 109:../Middlewares/threadx/common/src/tx_thread_preemption_change.c ****         }
 110:../Middlewares/threadx/common/src/tx_thread_preemption_change.c ****     }
 111:../Middlewares/threadx/common/src/tx_thread_preemption_change.c **** #endif
 112:../Middlewares/threadx/common/src/tx_thread_preemption_change.c **** 
 113:../Middlewares/threadx/common/src/tx_thread_preemption_change.c ****     /* Lockout interrupts while the thread is being resumed.  */
 114:../Middlewares/threadx/common/src/tx_thread_preemption_change.c ****     TX_DISABLE
  43              		.loc 1 114 5 view .LVU5
  44              	.LBB19:
  45              	.LBI19:
  46              		.file 2 "../Middlewares/threadx/ports/cortex_m55/gnu/inc/tx_port.h"
   1:../Middlewares/threadx/ports/cortex_m55/gnu/inc/tx_port.h **** /**************************************************************************/
   2:../Middlewares/threadx/ports/cortex_m55/gnu/inc/tx_port.h **** /*                                                                        */
   3:../Middlewares/threadx/ports/cortex_m55/gnu/inc/tx_port.h **** /*       Copyright (c) Microsoft Corporation. All rights reserved.        */
   4:../Middlewares/threadx/ports/cortex_m55/gnu/inc/tx_port.h **** /*                                                                        */
   5:../Middlewares/threadx/ports/cortex_m55/gnu/inc/tx_port.h **** /*       This software is licensed under the Microsoft Software License   */
   6:../Middlewares/threadx/ports/cortex_m55/gnu/inc/tx_port.h **** /*       Terms for Microsoft Azure RTOS. Full text of the license can be  */
   7:../Middlewares/threadx/ports/cortex_m55/gnu/inc/tx_port.h **** /*       found in the LICENSE file at https://aka.ms/AzureRTOS_EULA       */
   8:../Middlewares/threadx/ports/cortex_m55/gnu/inc/tx_port.h **** /*       and in the root directory of this software.                      */
   9:../Middlewares/threadx/ports/cortex_m55/gnu/inc/tx_port.h **** /*                                                                        */
  10:../Middlewares/threadx/ports/cortex_m55/gnu/inc/tx_port.h **** /**************************************************************************/
  11:../Middlewares/threadx/ports/cortex_m55/gnu/inc/tx_port.h **** 
  12:../Middlewares/threadx/ports/cortex_m55/gnu/inc/tx_port.h **** 
ARM GAS  /tmp/ccx8xURx.s 			page 4


  13:../Middlewares/threadx/ports/cortex_m55/gnu/inc/tx_port.h **** /**************************************************************************/
  14:../Middlewares/threadx/ports/cortex_m55/gnu/inc/tx_port.h **** /**************************************************************************/
  15:../Middlewares/threadx/ports/cortex_m55/gnu/inc/tx_port.h **** /**                                                                       */
  16:../Middlewares/threadx/ports/cortex_m55/gnu/inc/tx_port.h **** /** ThreadX Component                                                     */
  17:../Middlewares/threadx/ports/cortex_m55/gnu/inc/tx_port.h **** /**                                                                       */
  18:../Middlewares/threadx/ports/cortex_m55/gnu/inc/tx_port.h **** /**   Port Specific                                                       */
  19:../Middlewares/threadx/ports/cortex_m55/gnu/inc/tx_port.h **** /**                                                                       */
  20:../Middlewares/threadx/ports/cortex_m55/gnu/inc/tx_port.h **** /**************************************************************************/
  21:../Middlewares/threadx/ports/cortex_m55/gnu/inc/tx_port.h **** /**************************************************************************/
  22:../Middlewares/threadx/ports/cortex_m55/gnu/inc/tx_port.h **** 
  23:../Middlewares/threadx/ports/cortex_m55/gnu/inc/tx_port.h **** 
  24:../Middlewares/threadx/ports/cortex_m55/gnu/inc/tx_port.h **** /**************************************************************************/
  25:../Middlewares/threadx/ports/cortex_m55/gnu/inc/tx_port.h **** /*                                                                        */
  26:../Middlewares/threadx/ports/cortex_m55/gnu/inc/tx_port.h **** /*  PORT SPECIFIC C INFORMATION                            RELEASE        */
  27:../Middlewares/threadx/ports/cortex_m55/gnu/inc/tx_port.h **** /*                                                                        */
  28:../Middlewares/threadx/ports/cortex_m55/gnu/inc/tx_port.h **** /*    tx_port.h                                         Cortex-M55/GNU    */
  29:../Middlewares/threadx/ports/cortex_m55/gnu/inc/tx_port.h **** /*                                                           6.2.1        */
  30:../Middlewares/threadx/ports/cortex_m55/gnu/inc/tx_port.h **** /*                                                                        */
  31:../Middlewares/threadx/ports/cortex_m55/gnu/inc/tx_port.h **** /*  AUTHOR                                                                */
  32:../Middlewares/threadx/ports/cortex_m55/gnu/inc/tx_port.h **** /*                                                                        */
  33:../Middlewares/threadx/ports/cortex_m55/gnu/inc/tx_port.h **** /*    Scott Larson, Microsoft Corporation                                 */
  34:../Middlewares/threadx/ports/cortex_m55/gnu/inc/tx_port.h **** /*                                                                        */
  35:../Middlewares/threadx/ports/cortex_m55/gnu/inc/tx_port.h **** /*  DESCRIPTION                                                           */
  36:../Middlewares/threadx/ports/cortex_m55/gnu/inc/tx_port.h **** /*                                                                        */
  37:../Middlewares/threadx/ports/cortex_m55/gnu/inc/tx_port.h **** /*    This file contains data type definitions that make the ThreadX      */
  38:../Middlewares/threadx/ports/cortex_m55/gnu/inc/tx_port.h **** /*    real-time kernel function identically on a variety of different     */
  39:../Middlewares/threadx/ports/cortex_m55/gnu/inc/tx_port.h **** /*    processor architectures.  For example, the size or number of bits   */
  40:../Middlewares/threadx/ports/cortex_m55/gnu/inc/tx_port.h **** /*    in an "int" data type vary between microprocessor architectures and */
  41:../Middlewares/threadx/ports/cortex_m55/gnu/inc/tx_port.h **** /*    even C compilers for the same microprocessor.  ThreadX does not     */
  42:../Middlewares/threadx/ports/cortex_m55/gnu/inc/tx_port.h **** /*    directly use native C data types.  Instead, ThreadX creates its     */
  43:../Middlewares/threadx/ports/cortex_m55/gnu/inc/tx_port.h **** /*    own special types that can be mapped to actual data types by this   */
  44:../Middlewares/threadx/ports/cortex_m55/gnu/inc/tx_port.h **** /*    file to guarantee consistency in the interface and functionality.   */
  45:../Middlewares/threadx/ports/cortex_m55/gnu/inc/tx_port.h **** /*                                                                        */
  46:../Middlewares/threadx/ports/cortex_m55/gnu/inc/tx_port.h **** /*    This file replaces the previous Cortex-M55 files. It unifies        */
  47:../Middlewares/threadx/ports/cortex_m55/gnu/inc/tx_port.h **** /*    the Cortex-M55 compilers into one common file.                      */
  48:../Middlewares/threadx/ports/cortex_m55/gnu/inc/tx_port.h **** /*                                                                        */
  49:../Middlewares/threadx/ports/cortex_m55/gnu/inc/tx_port.h **** /*  RELEASE HISTORY                                                       */
  50:../Middlewares/threadx/ports/cortex_m55/gnu/inc/tx_port.h **** /*                                                                        */
  51:../Middlewares/threadx/ports/cortex_m55/gnu/inc/tx_port.h **** /*    DATE              NAME                      DESCRIPTION             */
  52:../Middlewares/threadx/ports/cortex_m55/gnu/inc/tx_port.h **** /*                                                                        */
  53:../Middlewares/threadx/ports/cortex_m55/gnu/inc/tx_port.h **** /*  09-30-2020      Scott Larson            Initial Version 6.1           */
  54:../Middlewares/threadx/ports/cortex_m55/gnu/inc/tx_port.h **** /*  03-02-2021      Scott Larson            Modified comment(s), added    */
  55:../Middlewares/threadx/ports/cortex_m55/gnu/inc/tx_port.h **** /*                                            ULONG64_DEFINED,            */
  56:../Middlewares/threadx/ports/cortex_m55/gnu/inc/tx_port.h **** /*                                            resulting in version 6.1.5  */
  57:../Middlewares/threadx/ports/cortex_m55/gnu/inc/tx_port.h **** /*  06-02-2021      Scott Larson            Modified comment(s), removed  */
  58:../Middlewares/threadx/ports/cortex_m55/gnu/inc/tx_port.h **** /*                                            unneeded header file, funcs */
  59:../Middlewares/threadx/ports/cortex_m55/gnu/inc/tx_port.h **** /*                                            set_control and get_control */
  60:../Middlewares/threadx/ports/cortex_m55/gnu/inc/tx_port.h **** /*                                            changed to inline,          */
  61:../Middlewares/threadx/ports/cortex_m55/gnu/inc/tx_port.h **** /*                                            added symbol to enable      */
  62:../Middlewares/threadx/ports/cortex_m55/gnu/inc/tx_port.h **** /*                                            stack error handler,        */
  63:../Middlewares/threadx/ports/cortex_m55/gnu/inc/tx_port.h **** /*                                            resulting in version 6.1.7  */
  64:../Middlewares/threadx/ports/cortex_m55/gnu/inc/tx_port.h **** /*  10-15-2021      Scott Larson            Modified comment(s), improved */
  65:../Middlewares/threadx/ports/cortex_m55/gnu/inc/tx_port.h **** /*                                            stack check error handling, */
  66:../Middlewares/threadx/ports/cortex_m55/gnu/inc/tx_port.h **** /*                                            resulting in version 6.1.9  */
  67:../Middlewares/threadx/ports/cortex_m55/gnu/inc/tx_port.h **** /*  01-31-2022      Scott Larson            Modified comment(s), unified  */
  68:../Middlewares/threadx/ports/cortex_m55/gnu/inc/tx_port.h **** /*                                            this file across compilers, */
  69:../Middlewares/threadx/ports/cortex_m55/gnu/inc/tx_port.h **** /*                                            fixed predefined macro,     */
ARM GAS  /tmp/ccx8xURx.s 			page 5


  70:../Middlewares/threadx/ports/cortex_m55/gnu/inc/tx_port.h **** /*                                            resulting in version 6.1.10 */
  71:../Middlewares/threadx/ports/cortex_m55/gnu/inc/tx_port.h **** /*  04-25-2022      Scott Larson            Modified comments and added   */
  72:../Middlewares/threadx/ports/cortex_m55/gnu/inc/tx_port.h **** /*                                            volatile to registers,      */
  73:../Middlewares/threadx/ports/cortex_m55/gnu/inc/tx_port.h **** /*                                            resulting in version 6.1.11 */
  74:../Middlewares/threadx/ports/cortex_m55/gnu/inc/tx_port.h **** /*  07-29-2022      Scott Larson            Modified comments and changed */
  75:../Middlewares/threadx/ports/cortex_m55/gnu/inc/tx_port.h **** /*                                            secure stack initialization */
  76:../Middlewares/threadx/ports/cortex_m55/gnu/inc/tx_port.h **** /*                                            macro to port-specific,     */
  77:../Middlewares/threadx/ports/cortex_m55/gnu/inc/tx_port.h **** /*                                            described BASEPRI usage,    */
  78:../Middlewares/threadx/ports/cortex_m55/gnu/inc/tx_port.h **** /*                                            resulting in version 6.1.12 */
  79:../Middlewares/threadx/ports/cortex_m55/gnu/inc/tx_port.h **** /*  03-08-2023      Scott Larson            Removed unneeded #include,    */
  80:../Middlewares/threadx/ports/cortex_m55/gnu/inc/tx_port.h **** /*                                            resulting in version 6.2.1  */
  81:../Middlewares/threadx/ports/cortex_m55/gnu/inc/tx_port.h **** /*                                                                        */
  82:../Middlewares/threadx/ports/cortex_m55/gnu/inc/tx_port.h **** /**************************************************************************/
  83:../Middlewares/threadx/ports/cortex_m55/gnu/inc/tx_port.h **** 
  84:../Middlewares/threadx/ports/cortex_m55/gnu/inc/tx_port.h **** #ifndef TX_PORT_H
  85:../Middlewares/threadx/ports/cortex_m55/gnu/inc/tx_port.h **** #define TX_PORT_H
  86:../Middlewares/threadx/ports/cortex_m55/gnu/inc/tx_port.h **** 
  87:../Middlewares/threadx/ports/cortex_m55/gnu/inc/tx_port.h **** /* Determine if the optional ThreadX user define file should be used.  */
  88:../Middlewares/threadx/ports/cortex_m55/gnu/inc/tx_port.h **** #ifdef TX_INCLUDE_USER_DEFINE_FILE
  89:../Middlewares/threadx/ports/cortex_m55/gnu/inc/tx_port.h **** 
  90:../Middlewares/threadx/ports/cortex_m55/gnu/inc/tx_port.h **** /* Yes, include the user defines in tx_user.h. The defines in this file may
  91:../Middlewares/threadx/ports/cortex_m55/gnu/inc/tx_port.h ****    alternately be defined on the command line.  */
  92:../Middlewares/threadx/ports/cortex_m55/gnu/inc/tx_port.h **** 
  93:../Middlewares/threadx/ports/cortex_m55/gnu/inc/tx_port.h **** #include "tx_user.h"
  94:../Middlewares/threadx/ports/cortex_m55/gnu/inc/tx_port.h **** #endif /* TX_INCLUDE_USER_DEFINE_FILE */
  95:../Middlewares/threadx/ports/cortex_m55/gnu/inc/tx_port.h **** 
  96:../Middlewares/threadx/ports/cortex_m55/gnu/inc/tx_port.h **** /* Define compiler library include files.  */
  97:../Middlewares/threadx/ports/cortex_m55/gnu/inc/tx_port.h **** 
  98:../Middlewares/threadx/ports/cortex_m55/gnu/inc/tx_port.h **** #include <stdlib.h>
  99:../Middlewares/threadx/ports/cortex_m55/gnu/inc/tx_port.h **** #include <string.h>
 100:../Middlewares/threadx/ports/cortex_m55/gnu/inc/tx_port.h **** 
 101:../Middlewares/threadx/ports/cortex_m55/gnu/inc/tx_port.h **** #ifdef __ICCARM__
 102:../Middlewares/threadx/ports/cortex_m55/gnu/inc/tx_port.h **** #include <intrinsics.h>                         /* IAR Intrinsics */
 103:../Middlewares/threadx/ports/cortex_m55/gnu/inc/tx_port.h **** #define __asm__                 __asm           /* Define to make all inline asm from each compiler
 104:../Middlewares/threadx/ports/cortex_m55/gnu/inc/tx_port.h **** #define _tx_control_get         __get_CONTROL
 105:../Middlewares/threadx/ports/cortex_m55/gnu/inc/tx_port.h **** #define _tx_control_set         __set_CONTROL
 106:../Middlewares/threadx/ports/cortex_m55/gnu/inc/tx_port.h **** #define _tx_ipsr_get            __get_IPSR
 107:../Middlewares/threadx/ports/cortex_m55/gnu/inc/tx_port.h **** #ifdef  TX_ENABLE_IAR_LIBRARY_SUPPORT
 108:../Middlewares/threadx/ports/cortex_m55/gnu/inc/tx_port.h **** #include <yvals.h>
 109:../Middlewares/threadx/ports/cortex_m55/gnu/inc/tx_port.h **** #endif /* TX_ENABLE_IAR_LIBRARY_SUPPORT */
 110:../Middlewares/threadx/ports/cortex_m55/gnu/inc/tx_port.h **** #endif /* __ICCARM__ */
 111:../Middlewares/threadx/ports/cortex_m55/gnu/inc/tx_port.h **** 
 112:../Middlewares/threadx/ports/cortex_m55/gnu/inc/tx_port.h **** 
 113:../Middlewares/threadx/ports/cortex_m55/gnu/inc/tx_port.h **** /* Define ThreadX basic types for this port.  */
 114:../Middlewares/threadx/ports/cortex_m55/gnu/inc/tx_port.h **** 
 115:../Middlewares/threadx/ports/cortex_m55/gnu/inc/tx_port.h **** #define VOID                                    void
 116:../Middlewares/threadx/ports/cortex_m55/gnu/inc/tx_port.h **** typedef char                                    CHAR;
 117:../Middlewares/threadx/ports/cortex_m55/gnu/inc/tx_port.h **** typedef unsigned char                           UCHAR;
 118:../Middlewares/threadx/ports/cortex_m55/gnu/inc/tx_port.h **** typedef int                                     INT;
 119:../Middlewares/threadx/ports/cortex_m55/gnu/inc/tx_port.h **** typedef unsigned int                            UINT;
 120:../Middlewares/threadx/ports/cortex_m55/gnu/inc/tx_port.h **** typedef long                                    LONG;
 121:../Middlewares/threadx/ports/cortex_m55/gnu/inc/tx_port.h **** typedef unsigned long                           ULONG;
 122:../Middlewares/threadx/ports/cortex_m55/gnu/inc/tx_port.h **** typedef unsigned long long                      ULONG64;
 123:../Middlewares/threadx/ports/cortex_m55/gnu/inc/tx_port.h **** typedef short                                   SHORT;
 124:../Middlewares/threadx/ports/cortex_m55/gnu/inc/tx_port.h **** typedef unsigned short                          USHORT;
 125:../Middlewares/threadx/ports/cortex_m55/gnu/inc/tx_port.h **** #define ULONG64_DEFINED
 126:../Middlewares/threadx/ports/cortex_m55/gnu/inc/tx_port.h **** 
ARM GAS  /tmp/ccx8xURx.s 			page 6


 127:../Middlewares/threadx/ports/cortex_m55/gnu/inc/tx_port.h **** /* Function prototypes for this port. */
 128:../Middlewares/threadx/ports/cortex_m55/gnu/inc/tx_port.h **** struct  TX_THREAD_STRUCT;
 129:../Middlewares/threadx/ports/cortex_m55/gnu/inc/tx_port.h **** UINT    _txe_thread_secure_stack_allocate(struct TX_THREAD_STRUCT *thread_ptr, ULONG stack_size);
 130:../Middlewares/threadx/ports/cortex_m55/gnu/inc/tx_port.h **** UINT    _txe_thread_secure_stack_free(struct TX_THREAD_STRUCT *thread_ptr);
 131:../Middlewares/threadx/ports/cortex_m55/gnu/inc/tx_port.h **** UINT    _tx_thread_secure_stack_allocate(struct TX_THREAD_STRUCT *tx_thread, ULONG stack_size);
 132:../Middlewares/threadx/ports/cortex_m55/gnu/inc/tx_port.h **** UINT    _tx_thread_secure_stack_free(struct TX_THREAD_STRUCT *tx_thread);
 133:../Middlewares/threadx/ports/cortex_m55/gnu/inc/tx_port.h **** 
 134:../Middlewares/threadx/ports/cortex_m55/gnu/inc/tx_port.h **** /* Define the system API mappings based on the error checking
 135:../Middlewares/threadx/ports/cortex_m55/gnu/inc/tx_port.h ****    selected by the user.  Note: this section is only applicable to
 136:../Middlewares/threadx/ports/cortex_m55/gnu/inc/tx_port.h ****    application source code, hence the conditional that turns off this
 137:../Middlewares/threadx/ports/cortex_m55/gnu/inc/tx_port.h ****    stuff when the include file is processed by the ThreadX source. */
 138:../Middlewares/threadx/ports/cortex_m55/gnu/inc/tx_port.h **** 
 139:../Middlewares/threadx/ports/cortex_m55/gnu/inc/tx_port.h **** #ifndef TX_SOURCE_CODE
 140:../Middlewares/threadx/ports/cortex_m55/gnu/inc/tx_port.h **** 
 141:../Middlewares/threadx/ports/cortex_m55/gnu/inc/tx_port.h **** 
 142:../Middlewares/threadx/ports/cortex_m55/gnu/inc/tx_port.h **** /* Determine if error checking is desired.  If so, map API functions
 143:../Middlewares/threadx/ports/cortex_m55/gnu/inc/tx_port.h ****    to the appropriate error checking front-ends.  Otherwise, map API
 144:../Middlewares/threadx/ports/cortex_m55/gnu/inc/tx_port.h ****    functions to the core functions that actually perform the work.
 145:../Middlewares/threadx/ports/cortex_m55/gnu/inc/tx_port.h ****    Note: error checking is enabled by default.  */
 146:../Middlewares/threadx/ports/cortex_m55/gnu/inc/tx_port.h **** 
 147:../Middlewares/threadx/ports/cortex_m55/gnu/inc/tx_port.h **** #ifdef TX_DISABLE_ERROR_CHECKING
 148:../Middlewares/threadx/ports/cortex_m55/gnu/inc/tx_port.h **** 
 149:../Middlewares/threadx/ports/cortex_m55/gnu/inc/tx_port.h **** /* Services without error checking.  */
 150:../Middlewares/threadx/ports/cortex_m55/gnu/inc/tx_port.h **** 
 151:../Middlewares/threadx/ports/cortex_m55/gnu/inc/tx_port.h **** #define tx_thread_secure_stack_allocate   _tx_thread_secure_stack_allocate
 152:../Middlewares/threadx/ports/cortex_m55/gnu/inc/tx_port.h **** #define tx_thread_secure_stack_free       _tx_thread_secure_stack_free
 153:../Middlewares/threadx/ports/cortex_m55/gnu/inc/tx_port.h **** 
 154:../Middlewares/threadx/ports/cortex_m55/gnu/inc/tx_port.h **** #else
 155:../Middlewares/threadx/ports/cortex_m55/gnu/inc/tx_port.h **** 
 156:../Middlewares/threadx/ports/cortex_m55/gnu/inc/tx_port.h **** /* Services with error checking.  */
 157:../Middlewares/threadx/ports/cortex_m55/gnu/inc/tx_port.h **** 
 158:../Middlewares/threadx/ports/cortex_m55/gnu/inc/tx_port.h **** #define tx_thread_secure_stack_allocate   _txe_thread_secure_stack_allocate
 159:../Middlewares/threadx/ports/cortex_m55/gnu/inc/tx_port.h **** #define tx_thread_secure_stack_free       _txe_thread_secure_stack_free
 160:../Middlewares/threadx/ports/cortex_m55/gnu/inc/tx_port.h **** 
 161:../Middlewares/threadx/ports/cortex_m55/gnu/inc/tx_port.h **** #endif  /* TX_DISABLE_ERROR_CHECKING */
 162:../Middlewares/threadx/ports/cortex_m55/gnu/inc/tx_port.h **** #endif  /* TX_SOURCE_CODE */
 163:../Middlewares/threadx/ports/cortex_m55/gnu/inc/tx_port.h **** 
 164:../Middlewares/threadx/ports/cortex_m55/gnu/inc/tx_port.h **** /* This port has a usage fault handler in _tx_initialize_low_level for stack exceptions.  */
 165:../Middlewares/threadx/ports/cortex_m55/gnu/inc/tx_port.h **** #define TX_PORT_THREAD_STACK_ERROR_HANDLING
 166:../Middlewares/threadx/ports/cortex_m55/gnu/inc/tx_port.h **** 
 167:../Middlewares/threadx/ports/cortex_m55/gnu/inc/tx_port.h **** /* Define the priority levels for ThreadX.  Legal values range
 168:../Middlewares/threadx/ports/cortex_m55/gnu/inc/tx_port.h ****    from 32 to 1024 and MUST be evenly divisible by 32.  */
 169:../Middlewares/threadx/ports/cortex_m55/gnu/inc/tx_port.h **** 
 170:../Middlewares/threadx/ports/cortex_m55/gnu/inc/tx_port.h **** #ifndef TX_MAX_PRIORITIES
 171:../Middlewares/threadx/ports/cortex_m55/gnu/inc/tx_port.h **** #define TX_MAX_PRIORITIES                       32
 172:../Middlewares/threadx/ports/cortex_m55/gnu/inc/tx_port.h **** #endif
 173:../Middlewares/threadx/ports/cortex_m55/gnu/inc/tx_port.h **** 
 174:../Middlewares/threadx/ports/cortex_m55/gnu/inc/tx_port.h **** 
 175:../Middlewares/threadx/ports/cortex_m55/gnu/inc/tx_port.h **** /* Define the minimum stack for a ThreadX thread on this processor. If the size supplied during
 176:../Middlewares/threadx/ports/cortex_m55/gnu/inc/tx_port.h ****    thread creation is less than this value, the thread create call will return an error.  */
 177:../Middlewares/threadx/ports/cortex_m55/gnu/inc/tx_port.h **** 
 178:../Middlewares/threadx/ports/cortex_m55/gnu/inc/tx_port.h **** #ifndef TX_MINIMUM_STACK
 179:../Middlewares/threadx/ports/cortex_m55/gnu/inc/tx_port.h **** #define TX_MINIMUM_STACK                        200         /* Minimum stack size for this port  */
 180:../Middlewares/threadx/ports/cortex_m55/gnu/inc/tx_port.h **** #endif
 181:../Middlewares/threadx/ports/cortex_m55/gnu/inc/tx_port.h **** 
 182:../Middlewares/threadx/ports/cortex_m55/gnu/inc/tx_port.h **** 
 183:../Middlewares/threadx/ports/cortex_m55/gnu/inc/tx_port.h **** /* Define the system timer thread's default stack size and priority.  These are only applicable
ARM GAS  /tmp/ccx8xURx.s 			page 7


 184:../Middlewares/threadx/ports/cortex_m55/gnu/inc/tx_port.h ****    if TX_TIMER_PROCESS_IN_ISR is not defined.  */
 185:../Middlewares/threadx/ports/cortex_m55/gnu/inc/tx_port.h **** 
 186:../Middlewares/threadx/ports/cortex_m55/gnu/inc/tx_port.h **** #ifndef TX_TIMER_THREAD_STACK_SIZE
 187:../Middlewares/threadx/ports/cortex_m55/gnu/inc/tx_port.h **** #define TX_TIMER_THREAD_STACK_SIZE              1024        /* Default timer thread stack size  */
 188:../Middlewares/threadx/ports/cortex_m55/gnu/inc/tx_port.h **** #endif
 189:../Middlewares/threadx/ports/cortex_m55/gnu/inc/tx_port.h **** 
 190:../Middlewares/threadx/ports/cortex_m55/gnu/inc/tx_port.h **** #ifndef TX_TIMER_THREAD_PRIORITY
 191:../Middlewares/threadx/ports/cortex_m55/gnu/inc/tx_port.h **** #define TX_TIMER_THREAD_PRIORITY                0           /* Default timer thread priority    */
 192:../Middlewares/threadx/ports/cortex_m55/gnu/inc/tx_port.h **** #endif
 193:../Middlewares/threadx/ports/cortex_m55/gnu/inc/tx_port.h **** 
 194:../Middlewares/threadx/ports/cortex_m55/gnu/inc/tx_port.h **** /* By default, ThreadX for Cortex-M uses the PRIMASK register to enable/disable interrupts.
 195:../Middlewares/threadx/ports/cortex_m55/gnu/inc/tx_port.h **** If using BASEPRI is desired, define the following two symbols for both c and assembly files:
 196:../Middlewares/threadx/ports/cortex_m55/gnu/inc/tx_port.h **** TX_PORT_USE_BASEPRI - This tells ThreadX to use BASEPRI instead of PRIMASK.
 197:../Middlewares/threadx/ports/cortex_m55/gnu/inc/tx_port.h **** TX_PORT_BASEPRI = (priority_mask << (8 - number_priority_bits)) - this defines the maximum priority
 198:../Middlewares/threadx/ports/cortex_m55/gnu/inc/tx_port.h **** Any interrupt with a higher priority than priority_mask will not be masked, thus the interrupt will
 199:../Middlewares/threadx/ports/cortex_m55/gnu/inc/tx_port.h **** */
 200:../Middlewares/threadx/ports/cortex_m55/gnu/inc/tx_port.h **** 
 201:../Middlewares/threadx/ports/cortex_m55/gnu/inc/tx_port.h **** /* Define various constants for the ThreadX Cortex-M port.  */
 202:../Middlewares/threadx/ports/cortex_m55/gnu/inc/tx_port.h **** 
 203:../Middlewares/threadx/ports/cortex_m55/gnu/inc/tx_port.h **** #define TX_INT_DISABLE                          1           /* Disable interrupts               */
 204:../Middlewares/threadx/ports/cortex_m55/gnu/inc/tx_port.h **** #define TX_INT_ENABLE                           0           /* Enable interrupts                */
 205:../Middlewares/threadx/ports/cortex_m55/gnu/inc/tx_port.h **** 
 206:../Middlewares/threadx/ports/cortex_m55/gnu/inc/tx_port.h **** 
 207:../Middlewares/threadx/ports/cortex_m55/gnu/inc/tx_port.h **** /* Define the clock source for trace event entry time stamp. The following two item are port specif
 208:../Middlewares/threadx/ports/cortex_m55/gnu/inc/tx_port.h ****    For example, if the time source is at the address 0x0a800024 and is 16-bits in size, the clock
 209:../Middlewares/threadx/ports/cortex_m55/gnu/inc/tx_port.h ****    source constants would be:
 210:../Middlewares/threadx/ports/cortex_m55/gnu/inc/tx_port.h **** 
 211:../Middlewares/threadx/ports/cortex_m55/gnu/inc/tx_port.h **** #define TX_TRACE_TIME_SOURCE                    *((volatile ULONG *) 0x0a800024)
 212:../Middlewares/threadx/ports/cortex_m55/gnu/inc/tx_port.h **** #define TX_TRACE_TIME_MASK                      0x0000FFFFUL
 213:../Middlewares/threadx/ports/cortex_m55/gnu/inc/tx_port.h **** 
 214:../Middlewares/threadx/ports/cortex_m55/gnu/inc/tx_port.h **** */
 215:../Middlewares/threadx/ports/cortex_m55/gnu/inc/tx_port.h **** 
 216:../Middlewares/threadx/ports/cortex_m55/gnu/inc/tx_port.h **** #ifndef TX_MISRA_ENABLE
 217:../Middlewares/threadx/ports/cortex_m55/gnu/inc/tx_port.h **** #ifndef TX_TRACE_TIME_SOURCE
 218:../Middlewares/threadx/ports/cortex_m55/gnu/inc/tx_port.h **** #define TX_TRACE_TIME_SOURCE                    *((volatile ULONG *) 0xE0001004)
 219:../Middlewares/threadx/ports/cortex_m55/gnu/inc/tx_port.h **** #endif
 220:../Middlewares/threadx/ports/cortex_m55/gnu/inc/tx_port.h **** #else
 221:../Middlewares/threadx/ports/cortex_m55/gnu/inc/tx_port.h **** ULONG   _tx_misra_time_stamp_get(VOID);
 222:../Middlewares/threadx/ports/cortex_m55/gnu/inc/tx_port.h **** #define TX_TRACE_TIME_SOURCE                    _tx_misra_time_stamp_get()
 223:../Middlewares/threadx/ports/cortex_m55/gnu/inc/tx_port.h **** #endif
 224:../Middlewares/threadx/ports/cortex_m55/gnu/inc/tx_port.h **** 
 225:../Middlewares/threadx/ports/cortex_m55/gnu/inc/tx_port.h **** #ifndef TX_TRACE_TIME_MASK
 226:../Middlewares/threadx/ports/cortex_m55/gnu/inc/tx_port.h **** #define TX_TRACE_TIME_MASK                      0xFFFFFFFFUL
 227:../Middlewares/threadx/ports/cortex_m55/gnu/inc/tx_port.h **** #endif
 228:../Middlewares/threadx/ports/cortex_m55/gnu/inc/tx_port.h **** 
 229:../Middlewares/threadx/ports/cortex_m55/gnu/inc/tx_port.h **** 
 230:../Middlewares/threadx/ports/cortex_m55/gnu/inc/tx_port.h **** /* Define the port specific options for the _tx_build_options variable. This variable indicates
 231:../Middlewares/threadx/ports/cortex_m55/gnu/inc/tx_port.h ****    how the ThreadX library was built.  */
 232:../Middlewares/threadx/ports/cortex_m55/gnu/inc/tx_port.h **** 
 233:../Middlewares/threadx/ports/cortex_m55/gnu/inc/tx_port.h **** #define TX_PORT_SPECIFIC_BUILD_OPTIONS          (0)
 234:../Middlewares/threadx/ports/cortex_m55/gnu/inc/tx_port.h **** 
 235:../Middlewares/threadx/ports/cortex_m55/gnu/inc/tx_port.h **** 
 236:../Middlewares/threadx/ports/cortex_m55/gnu/inc/tx_port.h **** /* Define the in-line initialization constant so that modules with in-line
 237:../Middlewares/threadx/ports/cortex_m55/gnu/inc/tx_port.h ****    initialization capabilities can prevent their initialization from being
 238:../Middlewares/threadx/ports/cortex_m55/gnu/inc/tx_port.h ****    a function call.  */
 239:../Middlewares/threadx/ports/cortex_m55/gnu/inc/tx_port.h **** 
 240:../Middlewares/threadx/ports/cortex_m55/gnu/inc/tx_port.h **** #ifdef TX_MISRA_ENABLE
ARM GAS  /tmp/ccx8xURx.s 			page 8


 241:../Middlewares/threadx/ports/cortex_m55/gnu/inc/tx_port.h **** #define TX_DISABLE_INLINE
 242:../Middlewares/threadx/ports/cortex_m55/gnu/inc/tx_port.h **** #else
 243:../Middlewares/threadx/ports/cortex_m55/gnu/inc/tx_port.h **** #define TX_INLINE_INITIALIZATION
 244:../Middlewares/threadx/ports/cortex_m55/gnu/inc/tx_port.h **** #endif
 245:../Middlewares/threadx/ports/cortex_m55/gnu/inc/tx_port.h **** 
 246:../Middlewares/threadx/ports/cortex_m55/gnu/inc/tx_port.h **** 
 247:../Middlewares/threadx/ports/cortex_m55/gnu/inc/tx_port.h **** /* Determine whether or not stack checking is enabled. By default, ThreadX stack checking is
 248:../Middlewares/threadx/ports/cortex_m55/gnu/inc/tx_port.h ****    disabled. When the following is defined, ThreadX thread stack checking is enabled.  If stack
 249:../Middlewares/threadx/ports/cortex_m55/gnu/inc/tx_port.h ****    checking is enabled (TX_ENABLE_STACK_CHECKING is defined), the TX_DISABLE_STACK_FILLING
 250:../Middlewares/threadx/ports/cortex_m55/gnu/inc/tx_port.h ****    define is negated, thereby forcing the stack fill which is necessary for the stack checking
 251:../Middlewares/threadx/ports/cortex_m55/gnu/inc/tx_port.h ****    logic.  */
 252:../Middlewares/threadx/ports/cortex_m55/gnu/inc/tx_port.h **** 
 253:../Middlewares/threadx/ports/cortex_m55/gnu/inc/tx_port.h **** #ifndef TX_MISRA_ENABLE
 254:../Middlewares/threadx/ports/cortex_m55/gnu/inc/tx_port.h **** #ifdef TX_ENABLE_STACK_CHECKING
 255:../Middlewares/threadx/ports/cortex_m55/gnu/inc/tx_port.h **** #undef TX_DISABLE_STACK_FILLING
 256:../Middlewares/threadx/ports/cortex_m55/gnu/inc/tx_port.h **** #endif
 257:../Middlewares/threadx/ports/cortex_m55/gnu/inc/tx_port.h **** #endif
 258:../Middlewares/threadx/ports/cortex_m55/gnu/inc/tx_port.h **** 
 259:../Middlewares/threadx/ports/cortex_m55/gnu/inc/tx_port.h **** 
 260:../Middlewares/threadx/ports/cortex_m55/gnu/inc/tx_port.h **** /* Define the TX_THREAD control block extensions for this port. The main reason
 261:../Middlewares/threadx/ports/cortex_m55/gnu/inc/tx_port.h ****    for the multiple macros is so that backward compatibility can be maintained with
 262:../Middlewares/threadx/ports/cortex_m55/gnu/inc/tx_port.h ****    existing ThreadX kernel awareness modules.  */
 263:../Middlewares/threadx/ports/cortex_m55/gnu/inc/tx_port.h **** 
 264:../Middlewares/threadx/ports/cortex_m55/gnu/inc/tx_port.h **** #define TX_THREAD_EXTENSION_0
 265:../Middlewares/threadx/ports/cortex_m55/gnu/inc/tx_port.h **** #define TX_THREAD_EXTENSION_1
 266:../Middlewares/threadx/ports/cortex_m55/gnu/inc/tx_port.h **** 
 267:../Middlewares/threadx/ports/cortex_m55/gnu/inc/tx_port.h **** #ifdef  TX_ENABLE_IAR_LIBRARY_SUPPORT
 268:../Middlewares/threadx/ports/cortex_m55/gnu/inc/tx_port.h **** /* IAR library support */
 269:../Middlewares/threadx/ports/cortex_m55/gnu/inc/tx_port.h **** #if !defined(TX_SINGLE_MODE_SECURE) && !defined(TX_SINGLE_MODE_NON_SECURE)
 270:../Middlewares/threadx/ports/cortex_m55/gnu/inc/tx_port.h **** /* ThreadX in non-secure zone with calls to secure zone. */
 271:../Middlewares/threadx/ports/cortex_m55/gnu/inc/tx_port.h **** #define TX_THREAD_EXTENSION_2           VOID    *tx_thread_secure_stack_context;    \
 272:../Middlewares/threadx/ports/cortex_m55/gnu/inc/tx_port.h ****                                         VOID    *tx_thread_iar_tls_pointer;
 273:../Middlewares/threadx/ports/cortex_m55/gnu/inc/tx_port.h **** #else
 274:../Middlewares/threadx/ports/cortex_m55/gnu/inc/tx_port.h **** /* ThreadX in only one zone. */
 275:../Middlewares/threadx/ports/cortex_m55/gnu/inc/tx_port.h **** #define TX_THREAD_EXTENSION_2           VOID    *tx_thread_iar_tls_pointer;
 276:../Middlewares/threadx/ports/cortex_m55/gnu/inc/tx_port.h **** #endif
 277:../Middlewares/threadx/ports/cortex_m55/gnu/inc/tx_port.h **** 
 278:../Middlewares/threadx/ports/cortex_m55/gnu/inc/tx_port.h **** #else
 279:../Middlewares/threadx/ports/cortex_m55/gnu/inc/tx_port.h **** /* No IAR library support */
 280:../Middlewares/threadx/ports/cortex_m55/gnu/inc/tx_port.h **** #if !defined(TX_SINGLE_MODE_SECURE) && !defined(TX_SINGLE_MODE_NON_SECURE)
 281:../Middlewares/threadx/ports/cortex_m55/gnu/inc/tx_port.h **** /* ThreadX in non-secure zone with calls to secure zone. */
 282:../Middlewares/threadx/ports/cortex_m55/gnu/inc/tx_port.h **** #define TX_THREAD_EXTENSION_2           VOID    *tx_thread_secure_stack_context;
 283:../Middlewares/threadx/ports/cortex_m55/gnu/inc/tx_port.h **** #else
 284:../Middlewares/threadx/ports/cortex_m55/gnu/inc/tx_port.h **** /* ThreadX in only one zone. */
 285:../Middlewares/threadx/ports/cortex_m55/gnu/inc/tx_port.h **** #define TX_THREAD_EXTENSION_2
 286:../Middlewares/threadx/ports/cortex_m55/gnu/inc/tx_port.h **** #endif
 287:../Middlewares/threadx/ports/cortex_m55/gnu/inc/tx_port.h **** 
 288:../Middlewares/threadx/ports/cortex_m55/gnu/inc/tx_port.h **** #endif  /* TX_ENABLE_IAR_LIBRARY_SUPPORT */
 289:../Middlewares/threadx/ports/cortex_m55/gnu/inc/tx_port.h **** 
 290:../Middlewares/threadx/ports/cortex_m55/gnu/inc/tx_port.h **** #define TX_THREAD_EXTENSION_3
 291:../Middlewares/threadx/ports/cortex_m55/gnu/inc/tx_port.h **** 
 292:../Middlewares/threadx/ports/cortex_m55/gnu/inc/tx_port.h **** 
 293:../Middlewares/threadx/ports/cortex_m55/gnu/inc/tx_port.h **** /* Define the port extensions of the remaining ThreadX objects.  */
 294:../Middlewares/threadx/ports/cortex_m55/gnu/inc/tx_port.h **** 
 295:../Middlewares/threadx/ports/cortex_m55/gnu/inc/tx_port.h **** #define TX_BLOCK_POOL_EXTENSION
 296:../Middlewares/threadx/ports/cortex_m55/gnu/inc/tx_port.h **** #define TX_BYTE_POOL_EXTENSION
 297:../Middlewares/threadx/ports/cortex_m55/gnu/inc/tx_port.h **** #define TX_EVENT_FLAGS_GROUP_EXTENSION
ARM GAS  /tmp/ccx8xURx.s 			page 9


 298:../Middlewares/threadx/ports/cortex_m55/gnu/inc/tx_port.h **** #define TX_MUTEX_EXTENSION
 299:../Middlewares/threadx/ports/cortex_m55/gnu/inc/tx_port.h **** #define TX_QUEUE_EXTENSION
 300:../Middlewares/threadx/ports/cortex_m55/gnu/inc/tx_port.h **** #define TX_SEMAPHORE_EXTENSION
 301:../Middlewares/threadx/ports/cortex_m55/gnu/inc/tx_port.h **** #define TX_TIMER_EXTENSION
 302:../Middlewares/threadx/ports/cortex_m55/gnu/inc/tx_port.h **** 
 303:../Middlewares/threadx/ports/cortex_m55/gnu/inc/tx_port.h **** 
 304:../Middlewares/threadx/ports/cortex_m55/gnu/inc/tx_port.h **** /* Define the user extension field of the thread control block.  Nothing
 305:../Middlewares/threadx/ports/cortex_m55/gnu/inc/tx_port.h ****    additional is needed for this port so it is defined as white space.  */
 306:../Middlewares/threadx/ports/cortex_m55/gnu/inc/tx_port.h **** 
 307:../Middlewares/threadx/ports/cortex_m55/gnu/inc/tx_port.h **** #ifndef TX_THREAD_USER_EXTENSION
 308:../Middlewares/threadx/ports/cortex_m55/gnu/inc/tx_port.h **** #define TX_THREAD_USER_EXTENSION
 309:../Middlewares/threadx/ports/cortex_m55/gnu/inc/tx_port.h **** #endif
 310:../Middlewares/threadx/ports/cortex_m55/gnu/inc/tx_port.h **** 
 311:../Middlewares/threadx/ports/cortex_m55/gnu/inc/tx_port.h **** 
 312:../Middlewares/threadx/ports/cortex_m55/gnu/inc/tx_port.h **** /* Define the macros for processing extensions in tx_thread_create, tx_thread_delete,
 313:../Middlewares/threadx/ports/cortex_m55/gnu/inc/tx_port.h ****    tx_thread_shell_entry, and tx_thread_terminate.  */
 314:../Middlewares/threadx/ports/cortex_m55/gnu/inc/tx_port.h **** #ifdef  TX_ENABLE_IAR_LIBRARY_SUPPORT
 315:../Middlewares/threadx/ports/cortex_m55/gnu/inc/tx_port.h **** void    *_tx_iar_create_per_thread_tls_area(void);
 316:../Middlewares/threadx/ports/cortex_m55/gnu/inc/tx_port.h **** void    _tx_iar_destroy_per_thread_tls_area(void *tls_ptr);
 317:../Middlewares/threadx/ports/cortex_m55/gnu/inc/tx_port.h **** void    __iar_Initlocks(void);
 318:../Middlewares/threadx/ports/cortex_m55/gnu/inc/tx_port.h **** #define TX_THREAD_CREATE_EXTENSION(thread_ptr)                      thread_ptr -> tx_thread_iar_tls
 319:../Middlewares/threadx/ports/cortex_m55/gnu/inc/tx_port.h **** 
 320:../Middlewares/threadx/ports/cortex_m55/gnu/inc/tx_port.h **** #if !defined(TX_SINGLE_MODE_SECURE) && !defined(TX_SINGLE_MODE_NON_SECURE)
 321:../Middlewares/threadx/ports/cortex_m55/gnu/inc/tx_port.h **** #define TX_THREAD_DELETE_EXTENSION(thread_ptr)                      do {_tx_iar_destroy_per_thread_
 322:../Middlewares/threadx/ports/cortex_m55/gnu/inc/tx_port.h ****                                                                         thread_ptr -> tx_thread_iar
 323:../Middlewares/threadx/ports/cortex_m55/gnu/inc/tx_port.h ****                                                                     if(thread_ptr -> tx_thread_secu
 324:../Middlewares/threadx/ports/cortex_m55/gnu/inc/tx_port.h **** #else
 325:../Middlewares/threadx/ports/cortex_m55/gnu/inc/tx_port.h **** #define TX_THREAD_DELETE_EXTENSION(thread_ptr)                      do {_tx_iar_destroy_per_thread_
 326:../Middlewares/threadx/ports/cortex_m55/gnu/inc/tx_port.h ****                                                                         thread_ptr -> tx_thread_iar
 327:../Middlewares/threadx/ports/cortex_m55/gnu/inc/tx_port.h **** #endif
 328:../Middlewares/threadx/ports/cortex_m55/gnu/inc/tx_port.h **** #define TX_PORT_SPECIFIC_PRE_SCHEDULER_INITIALIZATION               do {__iar_Initlocks();} while(0
 329:../Middlewares/threadx/ports/cortex_m55/gnu/inc/tx_port.h **** 
 330:../Middlewares/threadx/ports/cortex_m55/gnu/inc/tx_port.h **** #else   /* No IAR library support. */
 331:../Middlewares/threadx/ports/cortex_m55/gnu/inc/tx_port.h **** #define TX_THREAD_CREATE_EXTENSION(thread_ptr)
 332:../Middlewares/threadx/ports/cortex_m55/gnu/inc/tx_port.h **** #if !defined(TX_SINGLE_MODE_SECURE) && !defined(TX_SINGLE_MODE_NON_SECURE)
 333:../Middlewares/threadx/ports/cortex_m55/gnu/inc/tx_port.h **** #define TX_THREAD_DELETE_EXTENSION(thread_ptr)                      if(thread_ptr -> tx_thread_secu
 334:../Middlewares/threadx/ports/cortex_m55/gnu/inc/tx_port.h **** #else
 335:../Middlewares/threadx/ports/cortex_m55/gnu/inc/tx_port.h **** #define TX_THREAD_DELETE_EXTENSION(thread_ptr)
 336:../Middlewares/threadx/ports/cortex_m55/gnu/inc/tx_port.h **** #endif
 337:../Middlewares/threadx/ports/cortex_m55/gnu/inc/tx_port.h **** #endif  /* TX_ENABLE_IAR_LIBRARY_SUPPORT */
 338:../Middlewares/threadx/ports/cortex_m55/gnu/inc/tx_port.h **** 
 339:../Middlewares/threadx/ports/cortex_m55/gnu/inc/tx_port.h **** #if !defined(TX_SINGLE_MODE_SECURE) && !defined(TX_SINGLE_MODE_NON_SECURE)
 340:../Middlewares/threadx/ports/cortex_m55/gnu/inc/tx_port.h **** /* Define the size of the secure stack for the timer thread and use the extension to allocate the s
 341:../Middlewares/threadx/ports/cortex_m55/gnu/inc/tx_port.h **** #define TX_TIMER_THREAD_SECURE_STACK_SIZE       256
 342:../Middlewares/threadx/ports/cortex_m55/gnu/inc/tx_port.h **** #define TX_TIMER_INITIALIZE_EXTENSION(status)   _tx_thread_secure_stack_allocate(&_tx_timer_thread,
 343:../Middlewares/threadx/ports/cortex_m55/gnu/inc/tx_port.h **** #endif
 344:../Middlewares/threadx/ports/cortex_m55/gnu/inc/tx_port.h **** 
 345:../Middlewares/threadx/ports/cortex_m55/gnu/inc/tx_port.h **** 
 346:../Middlewares/threadx/ports/cortex_m55/gnu/inc/tx_port.h **** #if defined(__ARMVFP__) || defined(__ARM_PCS_VFP) || defined(__ARM_FP) || defined(__TARGET_FPU_VFP)
 347:../Middlewares/threadx/ports/cortex_m55/gnu/inc/tx_port.h **** 
 348:../Middlewares/threadx/ports/cortex_m55/gnu/inc/tx_port.h **** #ifdef TX_MISRA_ENABLE
 349:../Middlewares/threadx/ports/cortex_m55/gnu/inc/tx_port.h **** 
 350:../Middlewares/threadx/ports/cortex_m55/gnu/inc/tx_port.h **** ULONG  _tx_misra_control_get(void);
 351:../Middlewares/threadx/ports/cortex_m55/gnu/inc/tx_port.h **** void   _tx_misra_control_set(ULONG value);
 352:../Middlewares/threadx/ports/cortex_m55/gnu/inc/tx_port.h **** ULONG  _tx_misra_fpccr_get(void);
 353:../Middlewares/threadx/ports/cortex_m55/gnu/inc/tx_port.h **** void   _tx_misra_vfp_touch(void);
 354:../Middlewares/threadx/ports/cortex_m55/gnu/inc/tx_port.h **** 
ARM GAS  /tmp/ccx8xURx.s 			page 10


 355:../Middlewares/threadx/ports/cortex_m55/gnu/inc/tx_port.h **** #else   /* TX_MISRA_ENABLE not defined */
 356:../Middlewares/threadx/ports/cortex_m55/gnu/inc/tx_port.h **** 
 357:../Middlewares/threadx/ports/cortex_m55/gnu/inc/tx_port.h **** #ifdef __GNUC__ /* GCC and ARM Compiler 6 */
 358:../Middlewares/threadx/ports/cortex_m55/gnu/inc/tx_port.h **** 
 359:../Middlewares/threadx/ports/cortex_m55/gnu/inc/tx_port.h **** __attribute__( ( always_inline ) ) static inline ULONG _tx_control_get(void)
 360:../Middlewares/threadx/ports/cortex_m55/gnu/inc/tx_port.h **** {
 361:../Middlewares/threadx/ports/cortex_m55/gnu/inc/tx_port.h **** ULONG  control_value;
 362:../Middlewares/threadx/ports/cortex_m55/gnu/inc/tx_port.h **** 
 363:../Middlewares/threadx/ports/cortex_m55/gnu/inc/tx_port.h ****     __asm__ volatile (" MRS  %0,CONTROL ": "=r" (control_value) );
 364:../Middlewares/threadx/ports/cortex_m55/gnu/inc/tx_port.h ****     return(control_value);
 365:../Middlewares/threadx/ports/cortex_m55/gnu/inc/tx_port.h **** }
 366:../Middlewares/threadx/ports/cortex_m55/gnu/inc/tx_port.h **** 
 367:../Middlewares/threadx/ports/cortex_m55/gnu/inc/tx_port.h **** __attribute__( ( always_inline ) ) static inline void _tx_control_set(ULONG control_value)
 368:../Middlewares/threadx/ports/cortex_m55/gnu/inc/tx_port.h **** {
 369:../Middlewares/threadx/ports/cortex_m55/gnu/inc/tx_port.h ****     __asm__ volatile (" MSR  CONTROL,%0": : "r" (control_value): "memory" );
 370:../Middlewares/threadx/ports/cortex_m55/gnu/inc/tx_port.h **** }
 371:../Middlewares/threadx/ports/cortex_m55/gnu/inc/tx_port.h **** 
 372:../Middlewares/threadx/ports/cortex_m55/gnu/inc/tx_port.h **** #endif  /* __GNUC__ */
 373:../Middlewares/threadx/ports/cortex_m55/gnu/inc/tx_port.h **** 
 374:../Middlewares/threadx/ports/cortex_m55/gnu/inc/tx_port.h **** /* Touch VFP register in order to flush. Works for AC6/GCC/IAR compilers. */
 375:../Middlewares/threadx/ports/cortex_m55/gnu/inc/tx_port.h **** #define TX_VFP_TOUCH()  __asm__ volatile ("VMOV.F32 s0, s0");
 376:../Middlewares/threadx/ports/cortex_m55/gnu/inc/tx_port.h **** 
 377:../Middlewares/threadx/ports/cortex_m55/gnu/inc/tx_port.h **** #endif  /* TX_MISRA_ENABLE */
 378:../Middlewares/threadx/ports/cortex_m55/gnu/inc/tx_port.h **** 
 379:../Middlewares/threadx/ports/cortex_m55/gnu/inc/tx_port.h **** /* A completed thread falls into _thread_shell_entry and we can simply deactivate the FPU via CONTR
 380:../Middlewares/threadx/ports/cortex_m55/gnu/inc/tx_port.h ****    in order to ensure no lazy stacking will occur. */
 381:../Middlewares/threadx/ports/cortex_m55/gnu/inc/tx_port.h **** 
 382:../Middlewares/threadx/ports/cortex_m55/gnu/inc/tx_port.h **** #ifndef TX_MISRA_ENABLE
 383:../Middlewares/threadx/ports/cortex_m55/gnu/inc/tx_port.h **** 
 384:../Middlewares/threadx/ports/cortex_m55/gnu/inc/tx_port.h **** #define TX_THREAD_COMPLETED_EXTENSION(thread_ptr)   {                                              
 385:../Middlewares/threadx/ports/cortex_m55/gnu/inc/tx_port.h ****                                                     ULONG  _tx_vfp_state;                          
 386:../Middlewares/threadx/ports/cortex_m55/gnu/inc/tx_port.h ****                                                         _tx_vfp_state = _tx_control_get();         
 387:../Middlewares/threadx/ports/cortex_m55/gnu/inc/tx_port.h ****                                                         _tx_vfp_state = _tx_vfp_state & ~((ULONG) 0
 388:../Middlewares/threadx/ports/cortex_m55/gnu/inc/tx_port.h ****                                                         _tx_control_set(_tx_vfp_state);            
 389:../Middlewares/threadx/ports/cortex_m55/gnu/inc/tx_port.h ****                                                     }
 390:../Middlewares/threadx/ports/cortex_m55/gnu/inc/tx_port.h **** #else
 391:../Middlewares/threadx/ports/cortex_m55/gnu/inc/tx_port.h **** 
 392:../Middlewares/threadx/ports/cortex_m55/gnu/inc/tx_port.h **** #define TX_THREAD_COMPLETED_EXTENSION(thread_ptr)   {                                              
 393:../Middlewares/threadx/ports/cortex_m55/gnu/inc/tx_port.h ****                                                     ULONG  _tx_vfp_state;                          
 394:../Middlewares/threadx/ports/cortex_m55/gnu/inc/tx_port.h ****                                                         _tx_vfp_state = _tx_misra_control_get();   
 395:../Middlewares/threadx/ports/cortex_m55/gnu/inc/tx_port.h ****                                                         _tx_vfp_state = _tx_vfp_state & ~((ULONG) 0
 396:../Middlewares/threadx/ports/cortex_m55/gnu/inc/tx_port.h ****                                                         _tx_misra_control_set(_tx_vfp_state);      
 397:../Middlewares/threadx/ports/cortex_m55/gnu/inc/tx_port.h ****                                                     }
 398:../Middlewares/threadx/ports/cortex_m55/gnu/inc/tx_port.h **** #endif
 399:../Middlewares/threadx/ports/cortex_m55/gnu/inc/tx_port.h **** 
 400:../Middlewares/threadx/ports/cortex_m55/gnu/inc/tx_port.h **** /* A thread can be terminated by another thread, so we first check if it's self-terminating and not
 401:../Middlewares/threadx/ports/cortex_m55/gnu/inc/tx_port.h ****    If so, deactivate the FPU via CONTROL.FPCA. Otherwise we are in an interrupt or another thread i
 402:../Middlewares/threadx/ports/cortex_m55/gnu/inc/tx_port.h ****    this one, so if the FPCCR.LSPACT bit is set, we need to save the CONTROL.FPCA state, touch the F
 403:../Middlewares/threadx/ports/cortex_m55/gnu/inc/tx_port.h ****    the lazy FPU save, then restore the CONTROL.FPCA state. */
 404:../Middlewares/threadx/ports/cortex_m55/gnu/inc/tx_port.h **** 
 405:../Middlewares/threadx/ports/cortex_m55/gnu/inc/tx_port.h **** #ifndef TX_MISRA_ENABLE
 406:../Middlewares/threadx/ports/cortex_m55/gnu/inc/tx_port.h **** 
 407:../Middlewares/threadx/ports/cortex_m55/gnu/inc/tx_port.h **** #define TX_THREAD_TERMINATED_EXTENSION(thread_ptr)  {                                              
 408:../Middlewares/threadx/ports/cortex_m55/gnu/inc/tx_port.h ****                                                     ULONG  _tx_system_state;                       
 409:../Middlewares/threadx/ports/cortex_m55/gnu/inc/tx_port.h ****                                                         _tx_system_state = TX_THREAD_GET_SYSTEM_STA
 410:../Middlewares/threadx/ports/cortex_m55/gnu/inc/tx_port.h ****                                                         if ((_tx_system_state == ((ULONG) 0)) && ((
 411:../Middlewares/threadx/ports/cortex_m55/gnu/inc/tx_port.h ****                                                         {                                          
ARM GAS  /tmp/ccx8xURx.s 			page 11


 412:../Middlewares/threadx/ports/cortex_m55/gnu/inc/tx_port.h ****                                                         ULONG  _tx_vfp_state;                      
 413:../Middlewares/threadx/ports/cortex_m55/gnu/inc/tx_port.h ****                                                             _tx_vfp_state = _tx_control_get();     
 414:../Middlewares/threadx/ports/cortex_m55/gnu/inc/tx_port.h ****                                                             _tx_vfp_state = _tx_vfp_state & ~((ULON
 415:../Middlewares/threadx/ports/cortex_m55/gnu/inc/tx_port.h ****                                                             _tx_control_set(_tx_vfp_state);        
 416:../Middlewares/threadx/ports/cortex_m55/gnu/inc/tx_port.h ****                                                         }                                          
 417:../Middlewares/threadx/ports/cortex_m55/gnu/inc/tx_port.h ****                                                         else                                       
 418:../Middlewares/threadx/ports/cortex_m55/gnu/inc/tx_port.h ****                                                         {                                          
 419:../Middlewares/threadx/ports/cortex_m55/gnu/inc/tx_port.h ****                                                         ULONG  _tx_fpccr;                          
 420:../Middlewares/threadx/ports/cortex_m55/gnu/inc/tx_port.h ****                                                             _tx_fpccr = *((volatile ULONG *) 0xE000
 421:../Middlewares/threadx/ports/cortex_m55/gnu/inc/tx_port.h ****                                                             _tx_fpccr = _tx_fpccr & ((ULONG) 0x01);
 422:../Middlewares/threadx/ports/cortex_m55/gnu/inc/tx_port.h ****                                                             if (_tx_fpccr == ((ULONG) 0x01))       
 423:../Middlewares/threadx/ports/cortex_m55/gnu/inc/tx_port.h ****                                                             {                                      
 424:../Middlewares/threadx/ports/cortex_m55/gnu/inc/tx_port.h ****                                                             ULONG _tx_vfp_state;                   
 425:../Middlewares/threadx/ports/cortex_m55/gnu/inc/tx_port.h ****                                                                 _tx_vfp_state = _tx_control_get(); 
 426:../Middlewares/threadx/ports/cortex_m55/gnu/inc/tx_port.h ****                                                                 _tx_vfp_state = _tx_vfp_state & ((U
 427:../Middlewares/threadx/ports/cortex_m55/gnu/inc/tx_port.h ****                                                                 TX_VFP_TOUCH();                    
 428:../Middlewares/threadx/ports/cortex_m55/gnu/inc/tx_port.h ****                                                                 if (_tx_vfp_state == ((ULONG) 0))  
 429:../Middlewares/threadx/ports/cortex_m55/gnu/inc/tx_port.h ****                                                                 {                                  
 430:../Middlewares/threadx/ports/cortex_m55/gnu/inc/tx_port.h ****                                                                     _tx_vfp_state = _tx_control_get
 431:../Middlewares/threadx/ports/cortex_m55/gnu/inc/tx_port.h ****                                                                     _tx_vfp_state = _tx_vfp_state &
 432:../Middlewares/threadx/ports/cortex_m55/gnu/inc/tx_port.h ****                                                                     _tx_control_set(_tx_vfp_state);
 433:../Middlewares/threadx/ports/cortex_m55/gnu/inc/tx_port.h ****                                                                 }                                  
 434:../Middlewares/threadx/ports/cortex_m55/gnu/inc/tx_port.h ****                                                             }                                      
 435:../Middlewares/threadx/ports/cortex_m55/gnu/inc/tx_port.h ****                                                         }                                          
 436:../Middlewares/threadx/ports/cortex_m55/gnu/inc/tx_port.h ****                                                     }
 437:../Middlewares/threadx/ports/cortex_m55/gnu/inc/tx_port.h **** #else
 438:../Middlewares/threadx/ports/cortex_m55/gnu/inc/tx_port.h **** 
 439:../Middlewares/threadx/ports/cortex_m55/gnu/inc/tx_port.h **** #define TX_THREAD_TERMINATED_EXTENSION(thread_ptr)  {                                              
 440:../Middlewares/threadx/ports/cortex_m55/gnu/inc/tx_port.h ****                                                     ULONG  _tx_system_state;                       
 441:../Middlewares/threadx/ports/cortex_m55/gnu/inc/tx_port.h ****                                                         _tx_system_state = TX_THREAD_GET_SYSTEM_STA
 442:../Middlewares/threadx/ports/cortex_m55/gnu/inc/tx_port.h ****                                                         if ((_tx_system_state == ((ULONG) 0)) && ((
 443:../Middlewares/threadx/ports/cortex_m55/gnu/inc/tx_port.h ****                                                         {                                          
 444:../Middlewares/threadx/ports/cortex_m55/gnu/inc/tx_port.h ****                                                         ULONG  _tx_vfp_state;                      
 445:../Middlewares/threadx/ports/cortex_m55/gnu/inc/tx_port.h ****                                                             _tx_vfp_state = _tx_misra_control_get()
 446:../Middlewares/threadx/ports/cortex_m55/gnu/inc/tx_port.h ****                                                             _tx_vfp_state = _tx_vfp_state & ~((ULON
 447:../Middlewares/threadx/ports/cortex_m55/gnu/inc/tx_port.h ****                                                             _tx_misra_control_set(_tx_vfp_state);  
 448:../Middlewares/threadx/ports/cortex_m55/gnu/inc/tx_port.h ****                                                         }                                          
 449:../Middlewares/threadx/ports/cortex_m55/gnu/inc/tx_port.h ****                                                         else                                       
 450:../Middlewares/threadx/ports/cortex_m55/gnu/inc/tx_port.h ****                                                         {                                          
 451:../Middlewares/threadx/ports/cortex_m55/gnu/inc/tx_port.h ****                                                         ULONG  _tx_fpccr;                          
 452:../Middlewares/threadx/ports/cortex_m55/gnu/inc/tx_port.h ****                                                             _tx_fpccr = _tx_misra_fpccr_get();     
 453:../Middlewares/threadx/ports/cortex_m55/gnu/inc/tx_port.h ****                                                             _tx_fpccr = _tx_fpccr & ((ULONG) 0x01);
 454:../Middlewares/threadx/ports/cortex_m55/gnu/inc/tx_port.h ****                                                             if (_tx_fpccr == ((ULONG) 0x01))       
 455:../Middlewares/threadx/ports/cortex_m55/gnu/inc/tx_port.h ****                                                             {                                      
 456:../Middlewares/threadx/ports/cortex_m55/gnu/inc/tx_port.h ****                                                             ULONG _tx_vfp_state;                   
 457:../Middlewares/threadx/ports/cortex_m55/gnu/inc/tx_port.h ****                                                                 _tx_vfp_state = _tx_misra_control_g
 458:../Middlewares/threadx/ports/cortex_m55/gnu/inc/tx_port.h ****                                                                 _tx_vfp_state = _tx_vfp_state & ((U
 459:../Middlewares/threadx/ports/cortex_m55/gnu/inc/tx_port.h ****                                                                 _tx_misra_vfp_touch();             
 460:../Middlewares/threadx/ports/cortex_m55/gnu/inc/tx_port.h ****                                                                 if (_tx_vfp_state == ((ULONG) 0))  
 461:../Middlewares/threadx/ports/cortex_m55/gnu/inc/tx_port.h ****                                                                 {                                  
 462:../Middlewares/threadx/ports/cortex_m55/gnu/inc/tx_port.h ****                                                                     _tx_vfp_state = _tx_misra_contr
 463:../Middlewares/threadx/ports/cortex_m55/gnu/inc/tx_port.h ****                                                                     _tx_vfp_state = _tx_vfp_state &
 464:../Middlewares/threadx/ports/cortex_m55/gnu/inc/tx_port.h ****                                                                     _tx_misra_control_set(_tx_vfp_s
 465:../Middlewares/threadx/ports/cortex_m55/gnu/inc/tx_port.h ****                                                                 }                                  
 466:../Middlewares/threadx/ports/cortex_m55/gnu/inc/tx_port.h ****                                                             }                                      
 467:../Middlewares/threadx/ports/cortex_m55/gnu/inc/tx_port.h ****                                                         }                                          
 468:../Middlewares/threadx/ports/cortex_m55/gnu/inc/tx_port.h ****                                                     }
ARM GAS  /tmp/ccx8xURx.s 			page 12


 469:../Middlewares/threadx/ports/cortex_m55/gnu/inc/tx_port.h **** #endif
 470:../Middlewares/threadx/ports/cortex_m55/gnu/inc/tx_port.h **** 
 471:../Middlewares/threadx/ports/cortex_m55/gnu/inc/tx_port.h **** #else   /* No VFP in use */
 472:../Middlewares/threadx/ports/cortex_m55/gnu/inc/tx_port.h **** 
 473:../Middlewares/threadx/ports/cortex_m55/gnu/inc/tx_port.h **** #define TX_THREAD_COMPLETED_EXTENSION(thread_ptr)
 474:../Middlewares/threadx/ports/cortex_m55/gnu/inc/tx_port.h **** #define TX_THREAD_TERMINATED_EXTENSION(thread_ptr)
 475:../Middlewares/threadx/ports/cortex_m55/gnu/inc/tx_port.h **** 
 476:../Middlewares/threadx/ports/cortex_m55/gnu/inc/tx_port.h **** #endif  /* defined(__ARMVFP__) || defined(__ARM_PCS_VFP) || defined(__ARM_FP) || defined(__TARGET_F
 477:../Middlewares/threadx/ports/cortex_m55/gnu/inc/tx_port.h **** 
 478:../Middlewares/threadx/ports/cortex_m55/gnu/inc/tx_port.h **** 
 479:../Middlewares/threadx/ports/cortex_m55/gnu/inc/tx_port.h **** /* Define the ThreadX object creation extensions for the remaining objects.  */
 480:../Middlewares/threadx/ports/cortex_m55/gnu/inc/tx_port.h **** 
 481:../Middlewares/threadx/ports/cortex_m55/gnu/inc/tx_port.h **** #define TX_BLOCK_POOL_CREATE_EXTENSION(pool_ptr)
 482:../Middlewares/threadx/ports/cortex_m55/gnu/inc/tx_port.h **** #define TX_BYTE_POOL_CREATE_EXTENSION(pool_ptr)
 483:../Middlewares/threadx/ports/cortex_m55/gnu/inc/tx_port.h **** #define TX_EVENT_FLAGS_GROUP_CREATE_EXTENSION(group_ptr)
 484:../Middlewares/threadx/ports/cortex_m55/gnu/inc/tx_port.h **** #define TX_MUTEX_CREATE_EXTENSION(mutex_ptr)
 485:../Middlewares/threadx/ports/cortex_m55/gnu/inc/tx_port.h **** #define TX_QUEUE_CREATE_EXTENSION(queue_ptr)
 486:../Middlewares/threadx/ports/cortex_m55/gnu/inc/tx_port.h **** #define TX_SEMAPHORE_CREATE_EXTENSION(semaphore_ptr)
 487:../Middlewares/threadx/ports/cortex_m55/gnu/inc/tx_port.h **** #define TX_TIMER_CREATE_EXTENSION(timer_ptr)
 488:../Middlewares/threadx/ports/cortex_m55/gnu/inc/tx_port.h **** 
 489:../Middlewares/threadx/ports/cortex_m55/gnu/inc/tx_port.h **** 
 490:../Middlewares/threadx/ports/cortex_m55/gnu/inc/tx_port.h **** /* Define the ThreadX object deletion extensions for the remaining objects.  */
 491:../Middlewares/threadx/ports/cortex_m55/gnu/inc/tx_port.h **** 
 492:../Middlewares/threadx/ports/cortex_m55/gnu/inc/tx_port.h **** #define TX_BLOCK_POOL_DELETE_EXTENSION(pool_ptr)
 493:../Middlewares/threadx/ports/cortex_m55/gnu/inc/tx_port.h **** #define TX_BYTE_POOL_DELETE_EXTENSION(pool_ptr)
 494:../Middlewares/threadx/ports/cortex_m55/gnu/inc/tx_port.h **** #define TX_EVENT_FLAGS_GROUP_DELETE_EXTENSION(group_ptr)
 495:../Middlewares/threadx/ports/cortex_m55/gnu/inc/tx_port.h **** #define TX_MUTEX_DELETE_EXTENSION(mutex_ptr)
 496:../Middlewares/threadx/ports/cortex_m55/gnu/inc/tx_port.h **** #define TX_QUEUE_DELETE_EXTENSION(queue_ptr)
 497:../Middlewares/threadx/ports/cortex_m55/gnu/inc/tx_port.h **** #define TX_SEMAPHORE_DELETE_EXTENSION(semaphore_ptr)
 498:../Middlewares/threadx/ports/cortex_m55/gnu/inc/tx_port.h **** #define TX_TIMER_DELETE_EXTENSION(timer_ptr)
 499:../Middlewares/threadx/ports/cortex_m55/gnu/inc/tx_port.h **** 
 500:../Middlewares/threadx/ports/cortex_m55/gnu/inc/tx_port.h **** 
 501:../Middlewares/threadx/ports/cortex_m55/gnu/inc/tx_port.h **** /* Define the get system state macro.  */
 502:../Middlewares/threadx/ports/cortex_m55/gnu/inc/tx_port.h **** 
 503:../Middlewares/threadx/ports/cortex_m55/gnu/inc/tx_port.h **** #ifndef TX_THREAD_GET_SYSTEM_STATE
 504:../Middlewares/threadx/ports/cortex_m55/gnu/inc/tx_port.h **** #ifndef TX_MISRA_ENABLE
 505:../Middlewares/threadx/ports/cortex_m55/gnu/inc/tx_port.h **** 
 506:../Middlewares/threadx/ports/cortex_m55/gnu/inc/tx_port.h **** #if defined(__GNUC__) /* GCC and AC6 */
 507:../Middlewares/threadx/ports/cortex_m55/gnu/inc/tx_port.h **** __attribute__( ( always_inline ) ) static inline UINT _tx_ipsr_get(void)
 508:../Middlewares/threadx/ports/cortex_m55/gnu/inc/tx_port.h **** {
 509:../Middlewares/threadx/ports/cortex_m55/gnu/inc/tx_port.h **** UINT ipsr_value;
 510:../Middlewares/threadx/ports/cortex_m55/gnu/inc/tx_port.h ****     __asm__ volatile (" MRS  %0,IPSR ": "=r" (ipsr_value) );
 511:../Middlewares/threadx/ports/cortex_m55/gnu/inc/tx_port.h ****     return(ipsr_value);
 512:../Middlewares/threadx/ports/cortex_m55/gnu/inc/tx_port.h **** }
 513:../Middlewares/threadx/ports/cortex_m55/gnu/inc/tx_port.h **** #endif  /* GCC and AC6 IPSR_get function. */
 514:../Middlewares/threadx/ports/cortex_m55/gnu/inc/tx_port.h **** 
 515:../Middlewares/threadx/ports/cortex_m55/gnu/inc/tx_port.h **** #define TX_THREAD_GET_SYSTEM_STATE()        (_tx_thread_system_state | _tx_ipsr_get())
 516:../Middlewares/threadx/ports/cortex_m55/gnu/inc/tx_port.h **** 
 517:../Middlewares/threadx/ports/cortex_m55/gnu/inc/tx_port.h **** #else   /* TX_MISRA_ENABLE is defined, use MISRA function. */
 518:../Middlewares/threadx/ports/cortex_m55/gnu/inc/tx_port.h **** ULONG   _tx_misra_ipsr_get(VOID);
 519:../Middlewares/threadx/ports/cortex_m55/gnu/inc/tx_port.h **** #define TX_THREAD_GET_SYSTEM_STATE()        (_tx_thread_system_state | _tx_misra_ipsr_get())
 520:../Middlewares/threadx/ports/cortex_m55/gnu/inc/tx_port.h **** #endif  /* TX_MISRA_ENABLE */
 521:../Middlewares/threadx/ports/cortex_m55/gnu/inc/tx_port.h **** #endif  /* TX_THREAD_GET_SYSTEM_STATE */
 522:../Middlewares/threadx/ports/cortex_m55/gnu/inc/tx_port.h **** 
 523:../Middlewares/threadx/ports/cortex_m55/gnu/inc/tx_port.h **** 
 524:../Middlewares/threadx/ports/cortex_m55/gnu/inc/tx_port.h **** /* Define the check for whether or not to call the _tx_thread_system_return function.  A non-zero v
 525:../Middlewares/threadx/ports/cortex_m55/gnu/inc/tx_port.h ****    indicates that _tx_thread_system_return should not be called. This overrides the definition in t
ARM GAS  /tmp/ccx8xURx.s 			page 13


 526:../Middlewares/threadx/ports/cortex_m55/gnu/inc/tx_port.h ****    for Cortex-M since so we don't waste time checking the _tx_thread_system_state variable that is 
 527:../Middlewares/threadx/ports/cortex_m55/gnu/inc/tx_port.h ****    zero after initialization for Cortex-M ports. */
 528:../Middlewares/threadx/ports/cortex_m55/gnu/inc/tx_port.h **** 
 529:../Middlewares/threadx/ports/cortex_m55/gnu/inc/tx_port.h **** #ifndef TX_THREAD_SYSTEM_RETURN_CHECK
 530:../Middlewares/threadx/ports/cortex_m55/gnu/inc/tx_port.h **** #define TX_THREAD_SYSTEM_RETURN_CHECK(c)    (c) = ((ULONG) _tx_thread_preempt_disable);
 531:../Middlewares/threadx/ports/cortex_m55/gnu/inc/tx_port.h **** #endif
 532:../Middlewares/threadx/ports/cortex_m55/gnu/inc/tx_port.h **** 
 533:../Middlewares/threadx/ports/cortex_m55/gnu/inc/tx_port.h **** #if !defined(TX_SINGLE_MODE_SECURE) && !defined(TX_SINGLE_MODE_NON_SECURE)
 534:../Middlewares/threadx/ports/cortex_m55/gnu/inc/tx_port.h **** /* Initialize secure stacks for threads calling secure functions. */
 535:../Middlewares/threadx/ports/cortex_m55/gnu/inc/tx_port.h **** extern void    _tx_thread_secure_stack_initialize(void);
 536:../Middlewares/threadx/ports/cortex_m55/gnu/inc/tx_port.h **** #define TX_PORT_SPECIFIC_PRE_INITIALIZATION             _tx_thread_secure_stack_initialize();
 537:../Middlewares/threadx/ports/cortex_m55/gnu/inc/tx_port.h **** #endif
 538:../Middlewares/threadx/ports/cortex_m55/gnu/inc/tx_port.h **** 
 539:../Middlewares/threadx/ports/cortex_m55/gnu/inc/tx_port.h **** /* Define the macro to ensure _tx_thread_preempt_disable is set early in initialization in order to
 540:../Middlewares/threadx/ports/cortex_m55/gnu/inc/tx_port.h ****    prevent early scheduling on Cortex-M parts.  */
 541:../Middlewares/threadx/ports/cortex_m55/gnu/inc/tx_port.h **** 
 542:../Middlewares/threadx/ports/cortex_m55/gnu/inc/tx_port.h **** #define TX_PORT_SPECIFIC_POST_INITIALIZATION    _tx_thread_preempt_disable++;
 543:../Middlewares/threadx/ports/cortex_m55/gnu/inc/tx_port.h **** 
 544:../Middlewares/threadx/ports/cortex_m55/gnu/inc/tx_port.h **** 
 545:../Middlewares/threadx/ports/cortex_m55/gnu/inc/tx_port.h **** 
 546:../Middlewares/threadx/ports/cortex_m55/gnu/inc/tx_port.h **** 
 547:../Middlewares/threadx/ports/cortex_m55/gnu/inc/tx_port.h **** #ifndef TX_DISABLE_INLINE
 548:../Middlewares/threadx/ports/cortex_m55/gnu/inc/tx_port.h **** 
 549:../Middlewares/threadx/ports/cortex_m55/gnu/inc/tx_port.h **** /* Define the TX_LOWEST_SET_BIT_CALCULATE macro for each compiler. */
 550:../Middlewares/threadx/ports/cortex_m55/gnu/inc/tx_port.h **** #ifdef __ICCARM__       /* IAR Compiler */
 551:../Middlewares/threadx/ports/cortex_m55/gnu/inc/tx_port.h **** #define TX_LOWEST_SET_BIT_CALCULATE(m, b)       (b) = (UINT) __CLZ(__RBIT((m)));
 552:../Middlewares/threadx/ports/cortex_m55/gnu/inc/tx_port.h **** #elif defined(__GNUC__) /* GCC and AC6 Compiler */
 553:../Middlewares/threadx/ports/cortex_m55/gnu/inc/tx_port.h **** #define TX_LOWEST_SET_BIT_CALCULATE(m, b)       __asm__ volatile (" RBIT %0,%1 ": "=r" (m) : "r" (m
 554:../Middlewares/threadx/ports/cortex_m55/gnu/inc/tx_port.h ****                                                 __asm__ volatile (" CLZ  %0,%1 ": "=r" (b) : "r" (m
 555:../Middlewares/threadx/ports/cortex_m55/gnu/inc/tx_port.h **** #else
 556:../Middlewares/threadx/ports/cortex_m55/gnu/inc/tx_port.h **** #error "Compiler not supported."
 557:../Middlewares/threadx/ports/cortex_m55/gnu/inc/tx_port.h **** #endif
 558:../Middlewares/threadx/ports/cortex_m55/gnu/inc/tx_port.h **** 
 559:../Middlewares/threadx/ports/cortex_m55/gnu/inc/tx_port.h **** 
 560:../Middlewares/threadx/ports/cortex_m55/gnu/inc/tx_port.h **** 
 561:../Middlewares/threadx/ports/cortex_m55/gnu/inc/tx_port.h **** /* Define the interrupt disable/restore macros. */
 562:../Middlewares/threadx/ports/cortex_m55/gnu/inc/tx_port.h **** 
 563:../Middlewares/threadx/ports/cortex_m55/gnu/inc/tx_port.h **** __attribute__( ( always_inline ) ) static inline UINT __get_interrupt_posture(void)
 564:../Middlewares/threadx/ports/cortex_m55/gnu/inc/tx_port.h **** {
 565:../Middlewares/threadx/ports/cortex_m55/gnu/inc/tx_port.h **** UINT posture;
 566:../Middlewares/threadx/ports/cortex_m55/gnu/inc/tx_port.h **** #ifdef TX_PORT_USE_BASEPRI
 567:../Middlewares/threadx/ports/cortex_m55/gnu/inc/tx_port.h ****     __asm__ volatile ("MRS  %0, BASEPRI ": "=r" (posture));
 568:../Middlewares/threadx/ports/cortex_m55/gnu/inc/tx_port.h **** #else
 569:../Middlewares/threadx/ports/cortex_m55/gnu/inc/tx_port.h ****     __asm__ volatile ("MRS  %0, PRIMASK ": "=r" (posture));
 570:../Middlewares/threadx/ports/cortex_m55/gnu/inc/tx_port.h **** #endif
 571:../Middlewares/threadx/ports/cortex_m55/gnu/inc/tx_port.h ****     return(posture);
 572:../Middlewares/threadx/ports/cortex_m55/gnu/inc/tx_port.h **** }
 573:../Middlewares/threadx/ports/cortex_m55/gnu/inc/tx_port.h **** 
 574:../Middlewares/threadx/ports/cortex_m55/gnu/inc/tx_port.h **** #ifdef TX_PORT_USE_BASEPRI
 575:../Middlewares/threadx/ports/cortex_m55/gnu/inc/tx_port.h **** __attribute__( ( always_inline ) ) static inline void __set_basepri_value(UINT basepri_value)
 576:../Middlewares/threadx/ports/cortex_m55/gnu/inc/tx_port.h **** {
 577:../Middlewares/threadx/ports/cortex_m55/gnu/inc/tx_port.h ****     __asm__ volatile ("MSR  BASEPRI,%0 ": : "r" (basepri_value));
 578:../Middlewares/threadx/ports/cortex_m55/gnu/inc/tx_port.h **** }
 579:../Middlewares/threadx/ports/cortex_m55/gnu/inc/tx_port.h **** #else
 580:../Middlewares/threadx/ports/cortex_m55/gnu/inc/tx_port.h **** __attribute__( ( always_inline ) ) static inline void __enable_interrupts(void)
 581:../Middlewares/threadx/ports/cortex_m55/gnu/inc/tx_port.h **** {
 582:../Middlewares/threadx/ports/cortex_m55/gnu/inc/tx_port.h ****     __asm__ volatile ("CPSIE  i": : : "memory");
ARM GAS  /tmp/ccx8xURx.s 			page 14


 583:../Middlewares/threadx/ports/cortex_m55/gnu/inc/tx_port.h **** }
 584:../Middlewares/threadx/ports/cortex_m55/gnu/inc/tx_port.h **** #endif
 585:../Middlewares/threadx/ports/cortex_m55/gnu/inc/tx_port.h **** 
 586:../Middlewares/threadx/ports/cortex_m55/gnu/inc/tx_port.h **** __attribute__( ( always_inline ) ) static inline void __restore_interrupt(UINT int_posture)
 587:../Middlewares/threadx/ports/cortex_m55/gnu/inc/tx_port.h **** {
 588:../Middlewares/threadx/ports/cortex_m55/gnu/inc/tx_port.h **** #ifdef TX_PORT_USE_BASEPRI
 589:../Middlewares/threadx/ports/cortex_m55/gnu/inc/tx_port.h ****     __set_basepri_value(int_posture);
 590:../Middlewares/threadx/ports/cortex_m55/gnu/inc/tx_port.h **** #else
 591:../Middlewares/threadx/ports/cortex_m55/gnu/inc/tx_port.h ****     __asm__ volatile ("MSR  PRIMASK,%0": : "r" (int_posture): "memory");
 592:../Middlewares/threadx/ports/cortex_m55/gnu/inc/tx_port.h **** #endif
 593:../Middlewares/threadx/ports/cortex_m55/gnu/inc/tx_port.h **** }
 594:../Middlewares/threadx/ports/cortex_m55/gnu/inc/tx_port.h **** 
 595:../Middlewares/threadx/ports/cortex_m55/gnu/inc/tx_port.h **** __attribute__( ( always_inline ) ) static inline UINT __disable_interrupts(void)
  47              		.loc 2 595 55 view .LVU6
  48              	.LBB20:
 596:../Middlewares/threadx/ports/cortex_m55/gnu/inc/tx_port.h **** {
 597:../Middlewares/threadx/ports/cortex_m55/gnu/inc/tx_port.h **** UINT int_posture;
  49              		.loc 2 597 1 view .LVU7
 598:../Middlewares/threadx/ports/cortex_m55/gnu/inc/tx_port.h **** 
 599:../Middlewares/threadx/ports/cortex_m55/gnu/inc/tx_port.h ****     int_posture = __get_interrupt_posture();
  50              		.loc 2 599 5 view .LVU8
  51              	.LBB21:
  52              	.LBI21:
 563:../Middlewares/threadx/ports/cortex_m55/gnu/inc/tx_port.h **** {
  53              		.loc 2 563 55 view .LVU9
  54              	.LBB22:
 565:../Middlewares/threadx/ports/cortex_m55/gnu/inc/tx_port.h **** #ifdef TX_PORT_USE_BASEPRI
  55              		.loc 2 565 1 view .LVU10
 569:../Middlewares/threadx/ports/cortex_m55/gnu/inc/tx_port.h **** #endif
  56              		.loc 2 569 5 view .LVU11
  57              	.LBE22:
  58              	.LBE21:
  59              	.LBE20:
  60              	.LBE19:
  78:../Middlewares/threadx/common/src/tx_thread_preemption_change.c **** 
  61              		.loc 1 78 1 is_stmt 0 view .LVU12
  62 0000 F8B5     		push	{r3, r4, r5, r6, r7, lr}
  63              		.cfi_def_cfa_offset 24
  64              		.cfi_offset 3, -24
  65              		.cfi_offset 4, -20
  66              		.cfi_offset 5, -16
  67              		.cfi_offset 6, -12
  68              		.cfi_offset 7, -8
  69              		.cfi_offset 14, -4
  78:../Middlewares/threadx/common/src/tx_thread_preemption_change.c **** 
  70              		.loc 1 78 1 view .LVU13
  71 0002 0446     		mov	r4, r0
  72 0004 0D46     		mov	r5, r1
  73 0006 1746     		mov	r7, r2
  74              	.LBB26:
  75              	.LBB25:
  76              	.LBB24:
  77              	.LBB23:
 569:../Middlewares/threadx/ports/cortex_m55/gnu/inc/tx_port.h **** #endif
  78              		.loc 2 569 5 view .LVU14
  79              		.syntax unified
  80              	@ 569 "../Middlewares/threadx/ports/cortex_m55/gnu/inc/tx_port.h" 1
ARM GAS  /tmp/ccx8xURx.s 			page 15


  81 0008 EFF31086 		MRS  r6, PRIMASK 
  82              	@ 0 "" 2
  83              	.LVL1:
 571:../Middlewares/threadx/ports/cortex_m55/gnu/inc/tx_port.h **** }
  84              		.loc 2 571 5 is_stmt 1 view .LVU15
 571:../Middlewares/threadx/ports/cortex_m55/gnu/inc/tx_port.h **** }
  85              		.loc 2 571 5 is_stmt 0 view .LVU16
  86              		.thumb
  87              		.syntax unified
  88              	.LBE23:
  89              	.LBE24:
 600:../Middlewares/threadx/ports/cortex_m55/gnu/inc/tx_port.h **** 
 601:../Middlewares/threadx/ports/cortex_m55/gnu/inc/tx_port.h **** #ifdef TX_PORT_USE_BASEPRI
 602:../Middlewares/threadx/ports/cortex_m55/gnu/inc/tx_port.h ****     __set_basepri_value(TX_PORT_BASEPRI);
 603:../Middlewares/threadx/ports/cortex_m55/gnu/inc/tx_port.h **** #else
 604:../Middlewares/threadx/ports/cortex_m55/gnu/inc/tx_port.h ****     __asm__ volatile ("CPSID i" : : : "memory");
  90              		.loc 2 604 5 is_stmt 1 view .LVU17
  91              		.syntax unified
  92              	@ 604 "../Middlewares/threadx/ports/cortex_m55/gnu/inc/tx_port.h" 1
  93 000c 72B6     		CPSID i
  94              	@ 0 "" 2
 605:../Middlewares/threadx/ports/cortex_m55/gnu/inc/tx_port.h **** #endif
 606:../Middlewares/threadx/ports/cortex_m55/gnu/inc/tx_port.h ****     return(int_posture);
  95              		.loc 2 606 5 view .LVU18
  96              	.LVL2:
  97              		.loc 2 606 5 is_stmt 0 view .LVU19
  98              		.thumb
  99              		.syntax unified
 100              	.LBE25:
 101              	.LBE26:
 102              	.LBB27:
 115:../Middlewares/threadx/common/src/tx_thread_preemption_change.c **** 
 116:../Middlewares/threadx/common/src/tx_thread_preemption_change.c ****     /* If trace is enabled, insert this event into the trace buffer.  */
 117:../Middlewares/threadx/common/src/tx_thread_preemption_change.c ****     TX_TRACE_IN_LINE_INSERT(TX_TRACE_THREAD_PREEMPTION_CHANGE, thread_ptr, new_threshold, thread_pt
 103              		.loc 1 117 5 is_stmt 1 view .LVU20
 104              		.loc 1 117 5 view .LVU21
 105              		.loc 1 117 5 view .LVU22
 106              		.loc 1 117 5 view .LVU23
 107              		.loc 1 117 5 view .LVU24
 108 000e DFF83CC1 		ldr	ip, .L22+48
 109 0012 DCF80030 		ldr	r3, [ip]
 110              	.LVL3:
 111              		.loc 1 117 5 view .LVU25
 112 0016 002B     		cmp	r3, #0
 113 0018 30D0     		beq	.L3
 114              		.loc 1 117 5 is_stmt 0 discriminator 1 view .LVU26
 115 001a 404A     		ldr	r2, .L22
 116              	.LVL4:
 117              		.loc 1 117 5 discriminator 1 view .LVU27
 118 001c 1268     		ldr	r2, [r2]
 119 001e D205     		lsls	r2, r2, #23
 120 0020 2CD5     		bpl	.L3
 121              		.loc 1 117 5 is_stmt 1 discriminator 2 view .LVU28
 122              	.LBB28:
 123              	.LBI28:
 507:../Middlewares/threadx/ports/cortex_m55/gnu/inc/tx_port.h **** {
 124              		.loc 2 507 55 view .LVU29
ARM GAS  /tmp/ccx8xURx.s 			page 16


 125              	.LBB29:
 509:../Middlewares/threadx/ports/cortex_m55/gnu/inc/tx_port.h ****     __asm__ volatile (" MRS  %0,IPSR ": "=r" (ipsr_value) );
 126              		.loc 2 509 1 view .LVU30
 510:../Middlewares/threadx/ports/cortex_m55/gnu/inc/tx_port.h ****     return(ipsr_value);
 127              		.loc 2 510 5 view .LVU31
 128              		.syntax unified
 129              	@ 510 "../Middlewares/threadx/ports/cortex_m55/gnu/inc/tx_port.h" 1
 130 0022 EFF30582 		 MRS  r2,IPSR 
 131              	@ 0 "" 2
 132              	.LVL5:
 511:../Middlewares/threadx/ports/cortex_m55/gnu/inc/tx_port.h **** }
 133              		.loc 2 511 5 view .LVU32
 511:../Middlewares/threadx/ports/cortex_m55/gnu/inc/tx_port.h **** }
 134              		.loc 2 511 5 is_stmt 0 view .LVU33
 135              		.thumb
 136              		.syntax unified
 137              	.LBE29:
 138              	.LBE28:
 139              		.loc 1 117 5 discriminator 1 view .LVU34
 140 0026 3E49     		ldr	r1, .L22+4
 141              	.LVL6:
 142              		.loc 1 117 5 discriminator 1 view .LVU35
 143 0028 3E48     		ldr	r0, .L22+8
 144              	.LVL7:
 145              		.loc 1 117 5 discriminator 1 view .LVU36
 146 002a 0968     		ldr	r1, [r1]
 147              	.LVL8:
 148              		.loc 1 117 5 is_stmt 1 discriminator 1 view .LVU37
 149 002c 0068     		ldr	r0, [r0]
 150              	.LVL9:
 151              		.loc 1 117 5 discriminator 1 view .LVU38
 152 002e 1143     		orrs	r1, r1, r2
 153              	.LVL10:
 154              		.loc 1 117 5 is_stmt 0 discriminator 1 view .LVU39
 155 0030 61D1     		bne	.L5
 156              		.loc 1 117 5 is_stmt 1 discriminator 3 view .LVU40
 157              	.LVL11:
 158              		.loc 1 117 5 view .LVU41
 159              		.loc 1 117 5 is_stmt 0 discriminator 3 view .LVU42
 160 0032 C26B     		ldr	r2, [r0, #60]
 161 0034 C16A     		ldr	r1, [r0, #44]
 162              	.LVL12:
 163              		.loc 1 117 5 discriminator 3 view .LVU43
 164 0036 41EA0241 		orr	r1, r1, r2, lsl #16
 165 003a 41F00041 		orr	r1, r1, #-2147483648
 166              	.LVL13:
 167              	.L6:
 168              		.loc 1 117 5 is_stmt 1 discriminator 9 view .LVU44
 169 003e 6B22     		movs	r2, #107
 170 0040 C3E90001 		strd	r0, r1, [r3]
 171              		.loc 1 117 5 view .LVU45
 172              		.loc 1 117 5 is_stmt 0 discriminator 9 view .LVU46
 173 0044 9A60     		str	r2, [r3, #8]
 174              		.loc 1 117 5 is_stmt 1 view .LVU47
 175              		.loc 1 117 5 is_stmt 0 discriminator 9 view .LVU48
 176 0046 384A     		ldr	r2, .L22+12
 177 0048 5268     		ldr	r2, [r2, #4]
ARM GAS  /tmp/ccx8xURx.s 			page 17


 178 004a 5D61     		str	r5, [r3, #20]
 179 004c C3E90324 		strd	r2, r4, [r3, #12]
 180              		.loc 1 117 5 is_stmt 1 view .LVU49
 181              		.loc 1 117 5 view .LVU50
 182              		.loc 1 117 5 is_stmt 0 discriminator 9 view .LVU51
 183 0050 E26B     		ldr	r2, [r4, #60]
 184 0052 2033     		adds	r3, r3, #32
 185              	.LVL14:
 186              		.loc 1 117 5 discriminator 9 view .LVU52
 187 0054 43F8082C 		str	r2, [r3, #-8]
 188              		.loc 1 117 5 is_stmt 1 view .LVU53
 189              		.loc 1 117 5 is_stmt 0 discriminator 9 view .LVU54
 190 0058 226B     		ldr	r2, [r4, #48]
 191 005a 43F8042C 		str	r2, [r3, #-4]
 192              		.loc 1 117 5 is_stmt 1 view .LVU55
 193              	.LVL15:
 194              		.loc 1 117 5 view .LVU56
 195              		.loc 1 117 5 is_stmt 0 discriminator 10 view .LVU57
 196 005e 334A     		ldr	r2, .L22+16
 197 0060 1068     		ldr	r0, [r2]
 198              		.loc 1 117 5 discriminator 9 view .LVU58
 199 0062 334A     		ldr	r2, .L22+20
 200 0064 1268     		ldr	r2, [r2]
 201 0066 9A42     		cmp	r2, r3
 202 0068 4FD8     		bhi	.L7
 203              		.loc 1 117 5 is_stmt 1 discriminator 10 view .LVU59
 204 006a 324B     		ldr	r3, .L22+24
 205              	.LVL16:
 206              		.loc 1 117 5 is_stmt 0 discriminator 10 view .LVU60
 207 006c 1B68     		ldr	r3, [r3]
 208              	.LVL17:
 209              		.loc 1 117 5 is_stmt 1 view .LVU61
 210              		.loc 1 117 5 is_stmt 0 discriminator 10 view .LVU62
 211 006e CCF80030 		str	r3, [ip]
 212              		.loc 1 117 5 is_stmt 1 view .LVU63
 213              		.loc 1 117 5 is_stmt 0 discriminator 10 view .LVU64
 214 0072 0362     		str	r3, [r0, #32]
 215              		.loc 1 117 5 is_stmt 1 view .LVU65
 216              		.loc 1 117 5 is_stmt 0 discriminator 10 view .LVU66
 217 0074 304B     		ldr	r3, .L22+28
 218              	.LVL18:
 219              		.loc 1 117 5 discriminator 10 view .LVU67
 220 0076 1B68     		ldr	r3, [r3]
 221 0078 03B1     		cbz	r3, .L3
 222              		.loc 1 117 5 is_stmt 1 discriminator 12 view .LVU68
 223 007a 9847     		blx	r3
 224              	.LVL19:
 225              	.L3:
 226              		.loc 1 117 5 is_stmt 0 discriminator 12 view .LVU69
 227              	.LBE27:
 118:../Middlewares/threadx/common/src/tx_thread_preemption_change.c **** 
 119:../Middlewares/threadx/common/src/tx_thread_preemption_change.c ****     /* Log this kernel call.  */
 120:../Middlewares/threadx/common/src/tx_thread_preemption_change.c ****     TX_EL_THREAD_PREEMPTION_CHANGE_INSERT
 121:../Middlewares/threadx/common/src/tx_thread_preemption_change.c **** 
 122:../Middlewares/threadx/common/src/tx_thread_preemption_change.c ****     /* Determine if the new threshold is greater than the current user priority.  */
 123:../Middlewares/threadx/common/src/tx_thread_preemption_change.c ****     if (new_threshold > thread_ptr -> tx_thread_user_priority)
 228              		.loc 1 123 5 is_stmt 1 view .LVU70
ARM GAS  /tmp/ccx8xURx.s 			page 18


 229              		.loc 1 123 36 is_stmt 0 view .LVU71
 230 007c D4F89430 		ldr	r3, [r4, #148]
 231              		.loc 1 123 8 view .LVU72
 232 0080 AB42     		cmp	r3, r5
 233 0082 46D3     		bcc	.L12
 124:../Middlewares/threadx/common/src/tx_thread_preemption_change.c ****     {
 125:../Middlewares/threadx/common/src/tx_thread_preemption_change.c **** 
 126:../Middlewares/threadx/common/src/tx_thread_preemption_change.c ****         /* Return error.  */
 127:../Middlewares/threadx/common/src/tx_thread_preemption_change.c ****         status =  TX_THRESH_ERROR;
 128:../Middlewares/threadx/common/src/tx_thread_preemption_change.c ****     }
 129:../Middlewares/threadx/common/src/tx_thread_preemption_change.c ****     else
 130:../Middlewares/threadx/common/src/tx_thread_preemption_change.c ****     {
 131:../Middlewares/threadx/common/src/tx_thread_preemption_change.c **** 
 132:../Middlewares/threadx/common/src/tx_thread_preemption_change.c **** #ifndef TX_DISABLE_PREEMPTION_THRESHOLD
 133:../Middlewares/threadx/common/src/tx_thread_preemption_change.c **** 
 134:../Middlewares/threadx/common/src/tx_thread_preemption_change.c ****         /* Determine if the new threshold is the same as the priority.  */
 135:../Middlewares/threadx/common/src/tx_thread_preemption_change.c ****         if (thread_ptr -> tx_thread_user_priority == new_threshold)
 234              		.loc 1 135 9 is_stmt 1 view .LVU73
 235              		.loc 1 135 12 is_stmt 0 view .LVU74
 236 0084 0CD1     		bne	.L9
 136:../Middlewares/threadx/common/src/tx_thread_preemption_change.c ****         {
 137:../Middlewares/threadx/common/src/tx_thread_preemption_change.c **** 
 138:../Middlewares/threadx/common/src/tx_thread_preemption_change.c ****             /* Determine if this thread is at the head of the list.  */
 139:../Middlewares/threadx/common/src/tx_thread_preemption_change.c ****             if (_tx_thread_priority_list[thread_ptr -> tx_thread_priority] == thread_ptr)
 237              		.loc 1 139 13 is_stmt 1 view .LVU75
 238              		.loc 1 139 53 is_stmt 0 view .LVU76
 239 0086 E36A     		ldr	r3, [r4, #44]
 240              		.loc 1 139 41 view .LVU77
 241 0088 2C4A     		ldr	r2, .L22+32
 242              		.loc 1 139 16 view .LVU78
 243 008a 52F82320 		ldr	r2, [r2, r3, lsl #2]
 244 008e A242     		cmp	r2, r4
 245 0090 06D1     		bne	.L9
 140:../Middlewares/threadx/common/src/tx_thread_preemption_change.c ****             {
 141:../Middlewares/threadx/common/src/tx_thread_preemption_change.c **** 
 142:../Middlewares/threadx/common/src/tx_thread_preemption_change.c **** #if TX_MAX_PRIORITIES > 32
 143:../Middlewares/threadx/common/src/tx_thread_preemption_change.c **** 
 144:../Middlewares/threadx/common/src/tx_thread_preemption_change.c ****                 /* Calculate the index into the bit map array.  */
 145:../Middlewares/threadx/common/src/tx_thread_preemption_change.c ****                 map_index =  (thread_ptr -> tx_thread_priority)/((UINT) 32);
 146:../Middlewares/threadx/common/src/tx_thread_preemption_change.c **** #endif
 147:../Middlewares/threadx/common/src/tx_thread_preemption_change.c **** 
 148:../Middlewares/threadx/common/src/tx_thread_preemption_change.c ****                 /* Yes, this thread is at the front of the list.  Make sure
 149:../Middlewares/threadx/common/src/tx_thread_preemption_change.c ****                    the preempted bit is cleared for this thread.  */
 150:../Middlewares/threadx/common/src/tx_thread_preemption_change.c ****                 TX_MOD32_BIT_SET(thread_ptr -> tx_thread_priority, priority_bit)
 246              		.loc 1 150 17 is_stmt 1 view .LVU79
 247              	.LVL20:
 151:../Middlewares/threadx/common/src/tx_thread_preemption_change.c ****                 _tx_thread_preempted_maps[MAP_INDEX] =  _tx_thread_preempted_maps[MAP_INDEX] & (~(p
 248              		.loc 1 151 17 view .LVU80
 150:../Middlewares/threadx/common/src/tx_thread_preemption_change.c ****                 _tx_thread_preempted_maps[MAP_INDEX] =  _tx_thread_preempted_maps[MAP_INDEX] & (~(p
 249              		.loc 1 150 17 is_stmt 0 view .LVU81
 250 0092 0122     		movs	r2, #1
 251              		.loc 1 151 54 view .LVU82
 252 0094 2A49     		ldr	r1, .L22+36
 150:../Middlewares/threadx/common/src/tx_thread_preemption_change.c ****                 _tx_thread_preempted_maps[MAP_INDEX] =  _tx_thread_preempted_maps[MAP_INDEX] & (~(p
 253              		.loc 1 150 17 view .LVU83
 254 0096 9A40     		lsls	r2, r2, r3
 255              	.LVL21:
ARM GAS  /tmp/ccx8xURx.s 			page 19


 256              		.loc 1 151 94 view .LVU84
 257 0098 0B68     		ldr	r3, [r1]
 258 009a 23EA0203 		bic	r3, r3, r2
 259              		.loc 1 151 54 view .LVU85
 260 009e 0B60     		str	r3, [r1]
 261              	.LVL22:
 262              	.L9:
 152:../Middlewares/threadx/common/src/tx_thread_preemption_change.c **** 
 153:../Middlewares/threadx/common/src/tx_thread_preemption_change.c **** #if TX_MAX_PRIORITIES > 32
 154:../Middlewares/threadx/common/src/tx_thread_preemption_change.c **** 
 155:../Middlewares/threadx/common/src/tx_thread_preemption_change.c ****                 /* Determine if there are any other bits set in this preempt map.  */
 156:../Middlewares/threadx/common/src/tx_thread_preemption_change.c ****                 if (_tx_thread_preempted_maps[MAP_INDEX] == ((ULONG) 0))
 157:../Middlewares/threadx/common/src/tx_thread_preemption_change.c ****                 {
 158:../Middlewares/threadx/common/src/tx_thread_preemption_change.c **** 
 159:../Middlewares/threadx/common/src/tx_thread_preemption_change.c ****                     /* No, clear the active bit to signify this preempt map has nothing set.  */
 160:../Middlewares/threadx/common/src/tx_thread_preemption_change.c ****                     TX_DIV32_BIT_SET(thread_ptr -> tx_thread_priority, priority_bit)
 161:../Middlewares/threadx/common/src/tx_thread_preemption_change.c ****                     _tx_thread_preempted_map_active =  _tx_thread_preempted_map_active & (~(priorit
 162:../Middlewares/threadx/common/src/tx_thread_preemption_change.c ****                 }
 163:../Middlewares/threadx/common/src/tx_thread_preemption_change.c **** #endif
 164:../Middlewares/threadx/common/src/tx_thread_preemption_change.c ****             }
 165:../Middlewares/threadx/common/src/tx_thread_preemption_change.c ****         }
 166:../Middlewares/threadx/common/src/tx_thread_preemption_change.c **** #endif
 167:../Middlewares/threadx/common/src/tx_thread_preemption_change.c **** 
 168:../Middlewares/threadx/common/src/tx_thread_preemption_change.c ****         /* Return the user's preemption-threshold.   */
 169:../Middlewares/threadx/common/src/tx_thread_preemption_change.c ****         *old_threshold =  thread_ptr -> tx_thread_user_preempt_threshold;
 263              		.loc 1 169 9 is_stmt 1 view .LVU86
 264              		.loc 1 169 38 is_stmt 0 view .LVU87
 265 00a0 D4F89830 		ldr	r3, [r4, #152]
 170:../Middlewares/threadx/common/src/tx_thread_preemption_change.c **** 
 171:../Middlewares/threadx/common/src/tx_thread_preemption_change.c ****         /* Setup the new threshold.  */
 172:../Middlewares/threadx/common/src/tx_thread_preemption_change.c ****         thread_ptr -> tx_thread_user_preempt_threshold =  new_threshold;
 173:../Middlewares/threadx/common/src/tx_thread_preemption_change.c **** 
 174:../Middlewares/threadx/common/src/tx_thread_preemption_change.c ****         /* Determine if the new threshold represents a higher priority than the priority inheritanc
 175:../Middlewares/threadx/common/src/tx_thread_preemption_change.c ****         if (new_threshold < thread_ptr -> tx_thread_inherit_priority)
 176:../Middlewares/threadx/common/src/tx_thread_preemption_change.c ****         {
 177:../Middlewares/threadx/common/src/tx_thread_preemption_change.c **** 
 178:../Middlewares/threadx/common/src/tx_thread_preemption_change.c ****             /* Update the actual preemption-threshold with the new threshold.  */
 179:../Middlewares/threadx/common/src/tx_thread_preemption_change.c ****             thread_ptr -> tx_thread_preempt_threshold =  new_threshold;
 180:../Middlewares/threadx/common/src/tx_thread_preemption_change.c ****         }
 181:../Middlewares/threadx/common/src/tx_thread_preemption_change.c ****         else
 182:../Middlewares/threadx/common/src/tx_thread_preemption_change.c ****         {
 183:../Middlewares/threadx/common/src/tx_thread_preemption_change.c **** 
 184:../Middlewares/threadx/common/src/tx_thread_preemption_change.c ****             /* Update the actual preemption-threshold with the priority inheritance.  */
 185:../Middlewares/threadx/common/src/tx_thread_preemption_change.c ****             thread_ptr -> tx_thread_preempt_threshold =  thread_ptr -> tx_thread_inherit_priority;
 186:../Middlewares/threadx/common/src/tx_thread_preemption_change.c ****         }
 187:../Middlewares/threadx/common/src/tx_thread_preemption_change.c **** 
 188:../Middlewares/threadx/common/src/tx_thread_preemption_change.c ****         /* Is the thread priority less than the current highest priority?  If not, no preemption is
 189:../Middlewares/threadx/common/src/tx_thread_preemption_change.c ****         if (_tx_thread_highest_priority < thread_ptr -> tx_thread_priority)
 266              		.loc 1 189 41 view .LVU88
 267 00a4 274A     		ldr	r2, .L22+40
 169:../Middlewares/threadx/common/src/tx_thread_preemption_change.c **** 
 268              		.loc 1 169 24 view .LVU89
 269 00a6 3B60     		str	r3, [r7]
 172:../Middlewares/threadx/common/src/tx_thread_preemption_change.c **** 
 270              		.loc 1 172 9 is_stmt 1 view .LVU90
 175:../Middlewares/threadx/common/src/tx_thread_preemption_change.c ****         {
 271              		.loc 1 175 12 is_stmt 0 view .LVU91
ARM GAS  /tmp/ccx8xURx.s 			page 20


 272 00a8 D4F89C30 		ldr	r3, [r4, #156]
 273              		.loc 1 189 54 view .LVU92
 274 00ac E06A     		ldr	r0, [r4, #44]
 175:../Middlewares/threadx/common/src/tx_thread_preemption_change.c ****         {
 275              		.loc 1 175 12 view .LVU93
 276 00ae AB42     		cmp	r3, r5
 277 00b0 28BF     		it	cs
 278 00b2 2B46     		movcs	r3, r5
 279              		.loc 1 189 41 view .LVU94
 280 00b4 1268     		ldr	r2, [r2]
 172:../Middlewares/threadx/common/src/tx_thread_preemption_change.c **** 
 281              		.loc 1 172 56 view .LVU95
 282 00b6 C4F89850 		str	r5, [r4, #152]
 175:../Middlewares/threadx/common/src/tx_thread_preemption_change.c ****         {
 283              		.loc 1 175 9 is_stmt 1 view .LVU96
 284              		.loc 1 189 12 is_stmt 0 view .LVU97
 285 00ba 9042     		cmp	r0, r2
 286 00bc E363     		str	r3, [r4, #60]
 287              		.loc 1 189 9 is_stmt 1 view .LVU98
 288              		.loc 1 189 12 is_stmt 0 view .LVU99
 289 00be 18D9     		bls	.L15
 190:../Middlewares/threadx/common/src/tx_thread_preemption_change.c ****         {
 191:../Middlewares/threadx/common/src/tx_thread_preemption_change.c **** 
 192:../Middlewares/threadx/common/src/tx_thread_preemption_change.c ****             /* Is the new thread preemption-threshold less than the current highest priority?  If n
 193:../Middlewares/threadx/common/src/tx_thread_preemption_change.c ****             if (_tx_thread_highest_priority < new_threshold)
 290              		.loc 1 193 13 is_stmt 1 view .LVU100
 291              		.loc 1 193 16 is_stmt 0 view .LVU101
 292 00c0 AA42     		cmp	r2, r5
 293 00c2 16D2     		bcs	.L15
 194:../Middlewares/threadx/common/src/tx_thread_preemption_change.c ****             {
 195:../Middlewares/threadx/common/src/tx_thread_preemption_change.c **** 
 196:../Middlewares/threadx/common/src/tx_thread_preemption_change.c ****                 /* If the current execute pointer is the same at this thread, preemption needs to t
 197:../Middlewares/threadx/common/src/tx_thread_preemption_change.c ****                 if (_tx_thread_execute_ptr == thread_ptr)
 294              		.loc 1 197 17 is_stmt 1 view .LVU102
 295              		.loc 1 197 44 is_stmt 0 view .LVU103
 296 00c4 204D     		ldr	r5, .L22+44
 297              	.LVL23:
 298              		.loc 1 197 20 view .LVU104
 299 00c6 2968     		ldr	r1, [r5]
 300 00c8 A142     		cmp	r1, r4
 301 00ca 12D1     		bne	.L15
 198:../Middlewares/threadx/common/src/tx_thread_preemption_change.c ****                 {
 199:../Middlewares/threadx/common/src/tx_thread_preemption_change.c **** 
 200:../Middlewares/threadx/common/src/tx_thread_preemption_change.c ****                     /* Preemption needs to take place.  */
 201:../Middlewares/threadx/common/src/tx_thread_preemption_change.c **** 
 202:../Middlewares/threadx/common/src/tx_thread_preemption_change.c **** #ifndef TX_DISABLE_PREEMPTION_THRESHOLD
 203:../Middlewares/threadx/common/src/tx_thread_preemption_change.c **** 
 204:../Middlewares/threadx/common/src/tx_thread_preemption_change.c ****                     /* Determine if this thread has preemption threshold set.  */
 205:../Middlewares/threadx/common/src/tx_thread_preemption_change.c ****                     if (thread_ptr -> tx_thread_preempt_threshold != thread_ptr -> tx_thread_priori
 302              		.loc 1 205 21 is_stmt 1 view .LVU105
 303              		.loc 1 205 24 is_stmt 0 view .LVU106
 304 00cc 9842     		cmp	r0, r3
 305 00ce 05D0     		beq	.L10
 206:../Middlewares/threadx/common/src/tx_thread_preemption_change.c ****                     {
 207:../Middlewares/threadx/common/src/tx_thread_preemption_change.c **** 
 208:../Middlewares/threadx/common/src/tx_thread_preemption_change.c **** #if TX_MAX_PRIORITIES > 32
 209:../Middlewares/threadx/common/src/tx_thread_preemption_change.c **** 
ARM GAS  /tmp/ccx8xURx.s 			page 21


 210:../Middlewares/threadx/common/src/tx_thread_preemption_change.c ****                         /* Calculate the index into the bit map array.  */
 211:../Middlewares/threadx/common/src/tx_thread_preemption_change.c ****                         map_index =  (thread_ptr -> tx_thread_priority)/((UINT) 32);
 212:../Middlewares/threadx/common/src/tx_thread_preemption_change.c **** 
 213:../Middlewares/threadx/common/src/tx_thread_preemption_change.c ****                         /* Set the active bit to remember that the preempt map has something set.  
 214:../Middlewares/threadx/common/src/tx_thread_preemption_change.c ****                         TX_DIV32_BIT_SET(thread_ptr -> tx_thread_priority, priority_bit)
 215:../Middlewares/threadx/common/src/tx_thread_preemption_change.c ****                         _tx_thread_preempted_map_active =  _tx_thread_preempted_map_active | priori
 216:../Middlewares/threadx/common/src/tx_thread_preemption_change.c **** #endif
 217:../Middlewares/threadx/common/src/tx_thread_preemption_change.c **** 
 218:../Middlewares/threadx/common/src/tx_thread_preemption_change.c ****                         /* Remember that this thread was preempted by a thread above the thread's t
 219:../Middlewares/threadx/common/src/tx_thread_preemption_change.c ****                         TX_MOD32_BIT_SET(thread_ptr -> tx_thread_priority, priority_bit)
 306              		.loc 1 219 25 is_stmt 1 view .LVU107
 307              	.LVL24:
 220:../Middlewares/threadx/common/src/tx_thread_preemption_change.c ****                         _tx_thread_preempted_maps[MAP_INDEX] =  _tx_thread_preempted_maps[MAP_INDEX
 308              		.loc 1 220 25 view .LVU108
 219:../Middlewares/threadx/common/src/tx_thread_preemption_change.c ****                         _tx_thread_preempted_maps[MAP_INDEX] =  _tx_thread_preempted_maps[MAP_INDEX
 309              		.loc 1 219 25 is_stmt 0 view .LVU109
 310 00d0 0121     		movs	r1, #1
 311              		.loc 1 220 62 view .LVU110
 312 00d2 1B4C     		ldr	r4, .L22+36
 313              	.LVL25:
 219:../Middlewares/threadx/common/src/tx_thread_preemption_change.c ****                         _tx_thread_preempted_maps[MAP_INDEX] =  _tx_thread_preempted_maps[MAP_INDEX
 314              		.loc 1 219 25 view .LVU111
 315 00d4 8140     		lsls	r1, r1, r0
 316              	.LVL26:
 317              		.loc 1 220 102 view .LVU112
 318 00d6 2368     		ldr	r3, [r4]
 319 00d8 0B43     		orrs	r3, r3, r1
 320              		.loc 1 220 62 view .LVU113
 321 00da 2360     		str	r3, [r4]
 322              	.LVL27:
 323              	.L10:
 221:../Middlewares/threadx/common/src/tx_thread_preemption_change.c ****                     }
 222:../Middlewares/threadx/common/src/tx_thread_preemption_change.c **** #endif
 223:../Middlewares/threadx/common/src/tx_thread_preemption_change.c **** 
 224:../Middlewares/threadx/common/src/tx_thread_preemption_change.c **** #ifdef TX_THREAD_ENABLE_PERFORMANCE_INFO
 225:../Middlewares/threadx/common/src/tx_thread_preemption_change.c **** 
 226:../Middlewares/threadx/common/src/tx_thread_preemption_change.c ****                     /* Determine if the caller is an interrupt or from a thread.  */
 227:../Middlewares/threadx/common/src/tx_thread_preemption_change.c ****                     if (TX_THREAD_GET_SYSTEM_STATE() == ((ULONG) 0))
 228:../Middlewares/threadx/common/src/tx_thread_preemption_change.c ****                     {
 229:../Middlewares/threadx/common/src/tx_thread_preemption_change.c **** 
 230:../Middlewares/threadx/common/src/tx_thread_preemption_change.c ****                         /* Caller is a thread, so this is a solicited preemption.  */
 231:../Middlewares/threadx/common/src/tx_thread_preemption_change.c ****                         _tx_thread_performance_solicited_preemption_count++;
 232:../Middlewares/threadx/common/src/tx_thread_preemption_change.c **** 
 233:../Middlewares/threadx/common/src/tx_thread_preemption_change.c ****                         /* Increment the thread's solicited preemption counter.  */
 234:../Middlewares/threadx/common/src/tx_thread_preemption_change.c ****                         thread_ptr -> tx_thread_performance_solicited_preemption_count++;
 235:../Middlewares/threadx/common/src/tx_thread_preemption_change.c ****                     }
 236:../Middlewares/threadx/common/src/tx_thread_preemption_change.c **** 
 237:../Middlewares/threadx/common/src/tx_thread_preemption_change.c ****                     /* Remember the thread that preempted this thread.  */
 238:../Middlewares/threadx/common/src/tx_thread_preemption_change.c ****                     thread_ptr -> tx_thread_performance_last_preempting_thread =  _tx_thread_priori
 239:../Middlewares/threadx/common/src/tx_thread_preemption_change.c **** 
 240:../Middlewares/threadx/common/src/tx_thread_preemption_change.c ****                     /* Is the execute pointer different?  */
 241:../Middlewares/threadx/common/src/tx_thread_preemption_change.c ****                     if (_tx_thread_performance_execute_log[_tx_thread_performance__execute_log_inde
 242:../Middlewares/threadx/common/src/tx_thread_preemption_change.c ****                     {
 243:../Middlewares/threadx/common/src/tx_thread_preemption_change.c **** 
 244:../Middlewares/threadx/common/src/tx_thread_preemption_change.c ****                         /* Move to next entry.  */
 245:../Middlewares/threadx/common/src/tx_thread_preemption_change.c ****                         _tx_thread_performance__execute_log_index++;
 246:../Middlewares/threadx/common/src/tx_thread_preemption_change.c **** 
ARM GAS  /tmp/ccx8xURx.s 			page 22


 247:../Middlewares/threadx/common/src/tx_thread_preemption_change.c ****                         /* Check for wrap condition.  */
 248:../Middlewares/threadx/common/src/tx_thread_preemption_change.c ****                         if (_tx_thread_performance__execute_log_index >= TX_THREAD_EXECUTE_LOG_SIZE
 249:../Middlewares/threadx/common/src/tx_thread_preemption_change.c ****                         {
 250:../Middlewares/threadx/common/src/tx_thread_preemption_change.c **** 
 251:../Middlewares/threadx/common/src/tx_thread_preemption_change.c ****                             /* Set the index to the beginning.  */
 252:../Middlewares/threadx/common/src/tx_thread_preemption_change.c ****                             _tx_thread_performance__execute_log_index =  ((UINT) 0);
 253:../Middlewares/threadx/common/src/tx_thread_preemption_change.c ****                         }
 254:../Middlewares/threadx/common/src/tx_thread_preemption_change.c **** 
 255:../Middlewares/threadx/common/src/tx_thread_preemption_change.c ****                         /* Log the new execute pointer.  */
 256:../Middlewares/threadx/common/src/tx_thread_preemption_change.c ****                         _tx_thread_performance_execute_log[_tx_thread_performance__execute_log_inde
 257:../Middlewares/threadx/common/src/tx_thread_preemption_change.c ****                     }
 258:../Middlewares/threadx/common/src/tx_thread_preemption_change.c **** #endif
 259:../Middlewares/threadx/common/src/tx_thread_preemption_change.c **** 
 260:../Middlewares/threadx/common/src/tx_thread_preemption_change.c ****                     /* Setup the highest priority thread to execute.  */
 261:../Middlewares/threadx/common/src/tx_thread_preemption_change.c ****                     _tx_thread_execute_ptr =  _tx_thread_priority_list[_tx_thread_highest_priority]
 324              		.loc 1 261 21 is_stmt 1 view .LVU114
 325              		.loc 1 261 71 is_stmt 0 view .LVU115
 326 00dc 174B     		ldr	r3, .L22+32
 327              		.loc 1 261 44 view .LVU116
 328 00de 53F82230 		ldr	r3, [r3, r2, lsl #2]
 329 00e2 2B60     		str	r3, [r5]
 262:../Middlewares/threadx/common/src/tx_thread_preemption_change.c **** 
 263:../Middlewares/threadx/common/src/tx_thread_preemption_change.c ****                     /* Restore interrupts.  */
 264:../Middlewares/threadx/common/src/tx_thread_preemption_change.c ****                     TX_RESTORE
 330              		.loc 1 264 21 is_stmt 1 view .LVU117
 331              	.LVL28:
 332              	.LBB30:
 333              	.LBI30:
 586:../Middlewares/threadx/ports/cortex_m55/gnu/inc/tx_port.h **** {
 334              		.loc 2 586 55 view .LVU118
 335              	.LBB31:
 591:../Middlewares/threadx/ports/cortex_m55/gnu/inc/tx_port.h **** #endif
 336              		.loc 2 591 5 view .LVU119
 337              		.syntax unified
 338              	@ 591 "../Middlewares/threadx/ports/cortex_m55/gnu/inc/tx_port.h" 1
 339 00e4 86F31088 		MSR  PRIMASK,r6
 340              	@ 0 "" 2
 341              	.LVL29:
 591:../Middlewares/threadx/ports/cortex_m55/gnu/inc/tx_port.h **** #endif
 342              		.loc 2 591 5 is_stmt 0 view .LVU120
 343              		.thumb
 344              		.syntax unified
 345              	.LBE31:
 346              	.LBE30:
 265:../Middlewares/threadx/common/src/tx_thread_preemption_change.c **** 
 266:../Middlewares/threadx/common/src/tx_thread_preemption_change.c ****                     /* Check for preemption.  */
 267:../Middlewares/threadx/common/src/tx_thread_preemption_change.c ****                     _tx_thread_system_preempt_check();
 347              		.loc 1 267 21 is_stmt 1 view .LVU121
 348 00e8 FFF7FEFF 		bl	_tx_thread_system_preempt_check
 349              	.LVL30:
 268:../Middlewares/threadx/common/src/tx_thread_preemption_change.c **** 
 269:../Middlewares/threadx/common/src/tx_thread_preemption_change.c ****                     /* Disable interrupts.  */
 270:../Middlewares/threadx/common/src/tx_thread_preemption_change.c ****                     TX_DISABLE
 350              		.loc 1 270 21 view .LVU122
 351              	.LBB32:
 352              	.LBI32:
 595:../Middlewares/threadx/ports/cortex_m55/gnu/inc/tx_port.h **** {
ARM GAS  /tmp/ccx8xURx.s 			page 23


 353              		.loc 2 595 55 view .LVU123
 354              	.LBB33:
 597:../Middlewares/threadx/ports/cortex_m55/gnu/inc/tx_port.h **** 
 355              		.loc 2 597 1 view .LVU124
 599:../Middlewares/threadx/ports/cortex_m55/gnu/inc/tx_port.h **** 
 356              		.loc 2 599 5 view .LVU125
 357              	.LBB34:
 358              	.LBI34:
 563:../Middlewares/threadx/ports/cortex_m55/gnu/inc/tx_port.h **** {
 359              		.loc 2 563 55 view .LVU126
 360              	.LBB35:
 565:../Middlewares/threadx/ports/cortex_m55/gnu/inc/tx_port.h **** #ifdef TX_PORT_USE_BASEPRI
 361              		.loc 2 565 1 view .LVU127
 569:../Middlewares/threadx/ports/cortex_m55/gnu/inc/tx_port.h **** #endif
 362              		.loc 2 569 5 view .LVU128
 363              		.syntax unified
 364              	@ 569 "../Middlewares/threadx/ports/cortex_m55/gnu/inc/tx_port.h" 1
 365 00ec EFF31086 		MRS  r6, PRIMASK 
 366              	@ 0 "" 2
 367              	.LVL31:
 571:../Middlewares/threadx/ports/cortex_m55/gnu/inc/tx_port.h **** }
 368              		.loc 2 571 5 view .LVU129
 571:../Middlewares/threadx/ports/cortex_m55/gnu/inc/tx_port.h **** }
 369              		.loc 2 571 5 is_stmt 0 view .LVU130
 370              		.thumb
 371              		.syntax unified
 372              	.LBE35:
 373              	.LBE34:
 604:../Middlewares/threadx/ports/cortex_m55/gnu/inc/tx_port.h **** #endif
 374              		.loc 2 604 5 is_stmt 1 view .LVU131
 375              		.syntax unified
 376              	@ 604 "../Middlewares/threadx/ports/cortex_m55/gnu/inc/tx_port.h" 1
 377 00f0 72B6     		CPSID i
 378              	@ 0 "" 2
 379              		.loc 2 606 5 view .LVU132
 380              	.LVL32:
 381              		.thumb
 382              		.syntax unified
 383              	.L15:
 384              		.loc 2 606 5 is_stmt 0 view .LVU133
 385              	.LBE33:
 386              	.LBE32:
  92:../Middlewares/threadx/common/src/tx_thread_preemption_change.c **** 
 387              		.loc 1 92 12 view .LVU134
 388 00f2 0020     		movs	r0, #0
 389 00f4 0EE0     		b	.L8
 390              	.LVL33:
 391              	.L5:
 392              	.LBB36:
 117:../Middlewares/threadx/common/src/tx_thread_preemption_change.c **** 
 393              		.loc 1 117 5 is_stmt 1 discriminator 4 view .LVU135
 394 00f6 B1F1F03F 		cmp	r1, #-252645136
 117:../Middlewares/threadx/common/src/tx_thread_preemption_change.c **** 
 395              		.loc 1 117 5 discriminator 6 view .LVU136
 396 00fa 35BF     		itete	cc
 397 00fc 0146     		movcc	r1, r0
 398              	.LVL34:
ARM GAS  /tmp/ccx8xURx.s 			page 24


 117:../Middlewares/threadx/common/src/tx_thread_preemption_change.c **** 
 399              		.loc 1 117 5 view .LVU137
 117:../Middlewares/threadx/common/src/tx_thread_preemption_change.c **** 
 400              		.loc 1 117 5 is_stmt 0 discriminator 7 view .LVU138
 401 00fe 4FF0F030 		movcs	r0, #-252645136
 117:../Middlewares/threadx/common/src/tx_thread_preemption_change.c **** 
 402              		.loc 1 117 5 discriminator 6 view .LVU139
 403 0102 4FF0FF30 		movcc	r0, #-1
 404              	.LVL35:
 117:../Middlewares/threadx/common/src/tx_thread_preemption_change.c **** 
 405              		.loc 1 117 5 discriminator 7 view .LVU140
 406 0106 0021     		movcs	r1, #0
 407 0108 99E7     		b	.L6
 408              	.LVL36:
 409              	.L7:
 117:../Middlewares/threadx/common/src/tx_thread_preemption_change.c **** 
 410              		.loc 1 117 5 is_stmt 1 discriminator 11 view .LVU141
 411 010a CCF80030 		str	r3, [ip]
 117:../Middlewares/threadx/common/src/tx_thread_preemption_change.c **** 
 412              		.loc 1 117 5 view .LVU142
 117:../Middlewares/threadx/common/src/tx_thread_preemption_change.c **** 
 413              		.loc 1 117 5 is_stmt 0 discriminator 11 view .LVU143
 414 010e 0362     		str	r3, [r0, #32]
 415 0110 B4E7     		b	.L3
 416              	.LVL37:
 417              	.L12:
 117:../Middlewares/threadx/common/src/tx_thread_preemption_change.c **** 
 418              		.loc 1 117 5 discriminator 11 view .LVU144
 419              	.LBE36:
 127:../Middlewares/threadx/common/src/tx_thread_preemption_change.c ****     }
 420              		.loc 1 127 16 view .LVU145
 421 0112 1820     		movs	r0, #24
 422              	.LVL38:
 423              	.L8:
 271:../Middlewares/threadx/common/src/tx_thread_preemption_change.c ****                 }
 272:../Middlewares/threadx/common/src/tx_thread_preemption_change.c ****             }
 273:../Middlewares/threadx/common/src/tx_thread_preemption_change.c ****         }
 274:../Middlewares/threadx/common/src/tx_thread_preemption_change.c ****     }
 275:../Middlewares/threadx/common/src/tx_thread_preemption_change.c **** 
 276:../Middlewares/threadx/common/src/tx_thread_preemption_change.c ****     /* Restore interrupts.  */
 277:../Middlewares/threadx/common/src/tx_thread_preemption_change.c ****     TX_RESTORE
 424              		.loc 1 277 5 is_stmt 1 view .LVU146
 425              	.LBB37:
 426              	.LBI37:
 586:../Middlewares/threadx/ports/cortex_m55/gnu/inc/tx_port.h **** {
 427              		.loc 2 586 55 view .LVU147
 428              	.LBB38:
 591:../Middlewares/threadx/ports/cortex_m55/gnu/inc/tx_port.h **** #endif
 429              		.loc 2 591 5 view .LVU148
 430              		.syntax unified
 431              	@ 591 "../Middlewares/threadx/ports/cortex_m55/gnu/inc/tx_port.h" 1
 432 0114 86F31088 		MSR  PRIMASK,r6
 433              	@ 0 "" 2
 434              	.LVL39:
 591:../Middlewares/threadx/ports/cortex_m55/gnu/inc/tx_port.h **** #endif
 435              		.loc 2 591 5 is_stmt 0 view .LVU149
 436              		.thumb
ARM GAS  /tmp/ccx8xURx.s 			page 25


 437              		.syntax unified
 438              	.LBE38:
 439              	.LBE37:
 278:../Middlewares/threadx/common/src/tx_thread_preemption_change.c **** 
 279:../Middlewares/threadx/common/src/tx_thread_preemption_change.c ****     /* Return completion status.  */
 280:../Middlewares/threadx/common/src/tx_thread_preemption_change.c ****     return(status);
 440              		.loc 1 280 5 is_stmt 1 view .LVU150
 281:../Middlewares/threadx/common/src/tx_thread_preemption_change.c **** }
 441              		.loc 1 281 1 is_stmt 0 view .LVU151
 442 0118 F8BD     		pop	{r3, r4, r5, r6, r7, pc}
 443              	.LVL40:
 444              	.L23:
 445              		.loc 1 281 1 view .LVU152
 446 011a 00BF     		.align	2
 447              	.L22:
 448 011c 00000000 		.word	_tx_trace_event_enable_bits
 449 0120 00000000 		.word	_tx_thread_system_state
 450 0124 00000000 		.word	_tx_thread_current_ptr
 451 0128 001000E0 		.word	-536866816
 452 012c 00000000 		.word	_tx_trace_header_ptr
 453 0130 00000000 		.word	_tx_trace_buffer_end_ptr
 454 0134 00000000 		.word	_tx_trace_buffer_start_ptr
 455 0138 00000000 		.word	_tx_trace_full_notify_function
 456 013c 00000000 		.word	_tx_thread_priority_list
 457 0140 00000000 		.word	_tx_thread_preempted_maps
 458 0144 00000000 		.word	_tx_thread_highest_priority
 459 0148 00000000 		.word	_tx_thread_execute_ptr
 460 014c 00000000 		.word	_tx_trace_buffer_current_ptr
 461              		.cfi_endproc
 462              	.LFE8:
 464              		.text
 465              	.Letext0:
 466              		.file 3 "../Middlewares/threadx/common/inc/tx_api.h"
 467              		.file 4 "../Middlewares/threadx/common/inc/tx_thread.h"
 468              		.file 5 "../Middlewares/threadx/common/inc/tx_trace.h"
ARM GAS  /tmp/ccx8xURx.s 			page 26

