ARM GAS  /tmp/ccsStdKY.s 			page 1


   1              		.arch armv8.1-m.main
   2              		.fpu fpv5-d16
   3              		.arch_extension dsp
   4              		.arch_extension fp
   5              		.arch_extension fp.dp
   6              		.arch_extension mve
   7              		.arch_extension mve.fp
   8              		.eabi_attribute 5, "cortex-m55"
   9              		.eabi_attribute 28, 1
  10              		.eabi_attribute 20, 1
  11              		.eabi_attribute 21, 1
  12              		.eabi_attribute 23, 3
  13              		.eabi_attribute 24, 1
  14              		.eabi_attribute 25, 1
  15              		.eabi_attribute 26, 1
  16              		.eabi_attribute 30, 4
  17              		.eabi_attribute 34, 1
  18              		.eabi_attribute 38, 1
  19              		.eabi_attribute 18, 4
  20              		.file	"tx_thread_system_suspend.c"
  21              		.text
  22              	.Ltext0:
  23              		.cfi_sections	.debug_frame
  24              		.file 1 "../Middlewares/threadx/common/src/tx_thread_system_suspend.c"
  25              		.section	.text._tx_thread_system_suspend,"ax",%progbits
  26              		.align	1
  27              		.global	_tx_thread_system_suspend
  28              		.syntax unified
  29              		.thumb
  30              		.thumb_func
  32              	_tx_thread_system_suspend:
  33              	.LVL0:
  34              	.LFB8:
   1:../Middlewares/threadx/common/src/tx_thread_system_suspend.c **** /**************************************************************************/
   2:../Middlewares/threadx/common/src/tx_thread_system_suspend.c **** /*                                                                        */
   3:../Middlewares/threadx/common/src/tx_thread_system_suspend.c **** /*       Copyright (c) Microsoft Corporation. All rights reserved.        */
   4:../Middlewares/threadx/common/src/tx_thread_system_suspend.c **** /*                                                                        */
   5:../Middlewares/threadx/common/src/tx_thread_system_suspend.c **** /*       This software is licensed under the Microsoft Software License   */
   6:../Middlewares/threadx/common/src/tx_thread_system_suspend.c **** /*       Terms for Microsoft Azure RTOS. Full text of the license can be  */
   7:../Middlewares/threadx/common/src/tx_thread_system_suspend.c **** /*       found in the LICENSE file at https://aka.ms/AzureRTOS_EULA       */
   8:../Middlewares/threadx/common/src/tx_thread_system_suspend.c **** /*       and in the root directory of this software.                      */
   9:../Middlewares/threadx/common/src/tx_thread_system_suspend.c **** /*                                                                        */
  10:../Middlewares/threadx/common/src/tx_thread_system_suspend.c **** /**************************************************************************/
  11:../Middlewares/threadx/common/src/tx_thread_system_suspend.c **** 
  12:../Middlewares/threadx/common/src/tx_thread_system_suspend.c **** 
  13:../Middlewares/threadx/common/src/tx_thread_system_suspend.c **** /**************************************************************************/
  14:../Middlewares/threadx/common/src/tx_thread_system_suspend.c **** /**************************************************************************/
  15:../Middlewares/threadx/common/src/tx_thread_system_suspend.c **** /**                                                                       */
  16:../Middlewares/threadx/common/src/tx_thread_system_suspend.c **** /** ThreadX Component                                                     */
  17:../Middlewares/threadx/common/src/tx_thread_system_suspend.c **** /**                                                                       */
  18:../Middlewares/threadx/common/src/tx_thread_system_suspend.c **** /**   Thread                                                              */
  19:../Middlewares/threadx/common/src/tx_thread_system_suspend.c **** /**                                                                       */
  20:../Middlewares/threadx/common/src/tx_thread_system_suspend.c **** /**************************************************************************/
  21:../Middlewares/threadx/common/src/tx_thread_system_suspend.c **** /**************************************************************************/
  22:../Middlewares/threadx/common/src/tx_thread_system_suspend.c **** 
  23:../Middlewares/threadx/common/src/tx_thread_system_suspend.c **** #define TX_SOURCE_CODE
  24:../Middlewares/threadx/common/src/tx_thread_system_suspend.c **** 
ARM GAS  /tmp/ccsStdKY.s 			page 2


  25:../Middlewares/threadx/common/src/tx_thread_system_suspend.c **** 
  26:../Middlewares/threadx/common/src/tx_thread_system_suspend.c **** /* Include necessary system files.  */
  27:../Middlewares/threadx/common/src/tx_thread_system_suspend.c **** 
  28:../Middlewares/threadx/common/src/tx_thread_system_suspend.c **** #include "tx_api.h"
  29:../Middlewares/threadx/common/src/tx_thread_system_suspend.c **** #include "tx_trace.h"
  30:../Middlewares/threadx/common/src/tx_thread_system_suspend.c **** #include "tx_timer.h"
  31:../Middlewares/threadx/common/src/tx_thread_system_suspend.c **** #include "tx_thread.h"
  32:../Middlewares/threadx/common/src/tx_thread_system_suspend.c **** 
  33:../Middlewares/threadx/common/src/tx_thread_system_suspend.c **** 
  34:../Middlewares/threadx/common/src/tx_thread_system_suspend.c **** /**************************************************************************/
  35:../Middlewares/threadx/common/src/tx_thread_system_suspend.c **** /*                                                                        */
  36:../Middlewares/threadx/common/src/tx_thread_system_suspend.c **** /*  FUNCTION                                               RELEASE        */
  37:../Middlewares/threadx/common/src/tx_thread_system_suspend.c **** /*                                                                        */
  38:../Middlewares/threadx/common/src/tx_thread_system_suspend.c **** /*    _tx_thread_system_suspend                           PORTABLE C      */
  39:../Middlewares/threadx/common/src/tx_thread_system_suspend.c **** /*                                                           6.1          */
  40:../Middlewares/threadx/common/src/tx_thread_system_suspend.c **** /*                                                                        */
  41:../Middlewares/threadx/common/src/tx_thread_system_suspend.c **** /*  AUTHOR                                                                */
  42:../Middlewares/threadx/common/src/tx_thread_system_suspend.c **** /*                                                                        */
  43:../Middlewares/threadx/common/src/tx_thread_system_suspend.c **** /*    William E. Lamie, Microsoft Corporation                             */
  44:../Middlewares/threadx/common/src/tx_thread_system_suspend.c **** /*                                                                        */
  45:../Middlewares/threadx/common/src/tx_thread_system_suspend.c **** /*  DESCRIPTION                                                           */
  46:../Middlewares/threadx/common/src/tx_thread_system_suspend.c **** /*                                                                        */
  47:../Middlewares/threadx/common/src/tx_thread_system_suspend.c **** /*    This function suspends the specified thread and changes the thread  */
  48:../Middlewares/threadx/common/src/tx_thread_system_suspend.c **** /*    state to the value specified.  Note: delayed suspension processing  */
  49:../Middlewares/threadx/common/src/tx_thread_system_suspend.c **** /*    is handled outside of this routine.                                 */
  50:../Middlewares/threadx/common/src/tx_thread_system_suspend.c **** /*                                                                        */
  51:../Middlewares/threadx/common/src/tx_thread_system_suspend.c **** /*  INPUT                                                                 */
  52:../Middlewares/threadx/common/src/tx_thread_system_suspend.c **** /*                                                                        */
  53:../Middlewares/threadx/common/src/tx_thread_system_suspend.c **** /*    thread_ptr                            Pointer to thread to suspend  */
  54:../Middlewares/threadx/common/src/tx_thread_system_suspend.c **** /*                                                                        */
  55:../Middlewares/threadx/common/src/tx_thread_system_suspend.c **** /*  OUTPUT                                                                */
  56:../Middlewares/threadx/common/src/tx_thread_system_suspend.c **** /*                                                                        */
  57:../Middlewares/threadx/common/src/tx_thread_system_suspend.c **** /*    None                                                                */
  58:../Middlewares/threadx/common/src/tx_thread_system_suspend.c **** /*                                                                        */
  59:../Middlewares/threadx/common/src/tx_thread_system_suspend.c **** /*  CALLS                                                                 */
  60:../Middlewares/threadx/common/src/tx_thread_system_suspend.c **** /*                                                                        */
  61:../Middlewares/threadx/common/src/tx_thread_system_suspend.c **** /*    _tx_thread_system_return              Return to system              */
  62:../Middlewares/threadx/common/src/tx_thread_system_suspend.c **** /*    _tx_thread_system_preempt_check       System preemption check       */
  63:../Middlewares/threadx/common/src/tx_thread_system_suspend.c **** /*    _tx_timer_system_activate             Activate timer for timeout    */
  64:../Middlewares/threadx/common/src/tx_thread_system_suspend.c **** /*                                                                        */
  65:../Middlewares/threadx/common/src/tx_thread_system_suspend.c **** /*  CALLED BY                                                             */
  66:../Middlewares/threadx/common/src/tx_thread_system_suspend.c **** /*                                                                        */
  67:../Middlewares/threadx/common/src/tx_thread_system_suspend.c **** /*    _tx_thread_priority_change            Thread priority change        */
  68:../Middlewares/threadx/common/src/tx_thread_system_suspend.c **** /*    _tx_thread_shell_entry                Thread shell function         */
  69:../Middlewares/threadx/common/src/tx_thread_system_suspend.c **** /*    _tx_thread_sleep                      Thread sleep                  */
  70:../Middlewares/threadx/common/src/tx_thread_system_suspend.c **** /*    _tx_thread_suspend                    Application thread suspend    */
  71:../Middlewares/threadx/common/src/tx_thread_system_suspend.c **** /*    _tx_thread_terminate                  Thread terminate              */
  72:../Middlewares/threadx/common/src/tx_thread_system_suspend.c **** /*    Other ThreadX Components                                            */
  73:../Middlewares/threadx/common/src/tx_thread_system_suspend.c **** /*                                                                        */
  74:../Middlewares/threadx/common/src/tx_thread_system_suspend.c **** /*  RELEASE HISTORY                                                       */
  75:../Middlewares/threadx/common/src/tx_thread_system_suspend.c **** /*                                                                        */
  76:../Middlewares/threadx/common/src/tx_thread_system_suspend.c **** /*    DATE              NAME                      DESCRIPTION             */
  77:../Middlewares/threadx/common/src/tx_thread_system_suspend.c **** /*                                                                        */
  78:../Middlewares/threadx/common/src/tx_thread_system_suspend.c **** /*  05-19-2020     William E. Lamie         Initial Version 6.0           */
  79:../Middlewares/threadx/common/src/tx_thread_system_suspend.c **** /*  09-30-2020     Yuxin Zhou               Modified comment(s),          */
  80:../Middlewares/threadx/common/src/tx_thread_system_suspend.c **** /*                                            resulting in version 6.1    */
  81:../Middlewares/threadx/common/src/tx_thread_system_suspend.c **** /*                                                                        */
ARM GAS  /tmp/ccsStdKY.s 			page 3


  82:../Middlewares/threadx/common/src/tx_thread_system_suspend.c **** /**************************************************************************/
  83:../Middlewares/threadx/common/src/tx_thread_system_suspend.c **** VOID  _tx_thread_system_suspend(TX_THREAD *thread_ptr)
  84:../Middlewares/threadx/common/src/tx_thread_system_suspend.c **** #ifndef TX_NOT_INTERRUPTABLE
  85:../Middlewares/threadx/common/src/tx_thread_system_suspend.c **** {
  35              		.loc 1 85 1 view -0
  36              		.cfi_startproc
  37              		@ args = 0, pretend = 0, frame = 8
  38              		@ frame_needed = 0, uses_anonymous_args = 0
  86:../Middlewares/threadx/common/src/tx_thread_system_suspend.c **** 
  87:../Middlewares/threadx/common/src/tx_thread_system_suspend.c **** TX_INTERRUPT_SAVE_AREA
  39              		.loc 1 87 1 view .LVU1
  88:../Middlewares/threadx/common/src/tx_thread_system_suspend.c **** 
  89:../Middlewares/threadx/common/src/tx_thread_system_suspend.c **** UINT            priority;
  40              		.loc 1 89 1 view .LVU2
  90:../Middlewares/threadx/common/src/tx_thread_system_suspend.c **** UINT            base_priority;
  41              		.loc 1 90 1 view .LVU3
  91:../Middlewares/threadx/common/src/tx_thread_system_suspend.c **** ULONG           priority_map;
  42              		.loc 1 91 1 view .LVU4
  92:../Middlewares/threadx/common/src/tx_thread_system_suspend.c **** ULONG           priority_bit;
  43              		.loc 1 92 1 view .LVU5
  93:../Middlewares/threadx/common/src/tx_thread_system_suspend.c **** ULONG           combined_flags;
  44              		.loc 1 93 1 view .LVU6
  94:../Middlewares/threadx/common/src/tx_thread_system_suspend.c **** TX_THREAD       *ready_next;
  45              		.loc 1 94 1 view .LVU7
  95:../Middlewares/threadx/common/src/tx_thread_system_suspend.c **** TX_THREAD       *ready_previous;
  46              		.loc 1 95 1 view .LVU8
  96:../Middlewares/threadx/common/src/tx_thread_system_suspend.c **** TX_THREAD       *current_thread;
  47              		.loc 1 96 1 view .LVU9
  97:../Middlewares/threadx/common/src/tx_thread_system_suspend.c **** 
  98:../Middlewares/threadx/common/src/tx_thread_system_suspend.c **** #if TX_MAX_PRIORITIES > 32
  99:../Middlewares/threadx/common/src/tx_thread_system_suspend.c **** UINT            map_index;
 100:../Middlewares/threadx/common/src/tx_thread_system_suspend.c **** #endif
 101:../Middlewares/threadx/common/src/tx_thread_system_suspend.c **** 
 102:../Middlewares/threadx/common/src/tx_thread_system_suspend.c **** #ifndef TX_NO_TIMER
 103:../Middlewares/threadx/common/src/tx_thread_system_suspend.c **** ULONG           timeout;
  48              		.loc 1 103 1 view .LVU10
 104:../Middlewares/threadx/common/src/tx_thread_system_suspend.c **** #endif
 105:../Middlewares/threadx/common/src/tx_thread_system_suspend.c **** 
 106:../Middlewares/threadx/common/src/tx_thread_system_suspend.c **** #ifdef TX_ENABLE_EVENT_TRACE
 107:../Middlewares/threadx/common/src/tx_thread_system_suspend.c **** TX_TRACE_BUFFER_ENTRY       *entry_ptr;
  49              		.loc 1 107 1 view .LVU11
 108:../Middlewares/threadx/common/src/tx_thread_system_suspend.c **** ULONG                       time_stamp =  ((ULONG) 0);
  50              		.loc 1 108 1 view .LVU12
 109:../Middlewares/threadx/common/src/tx_thread_system_suspend.c **** #endif
 110:../Middlewares/threadx/common/src/tx_thread_system_suspend.c **** 
 111:../Middlewares/threadx/common/src/tx_thread_system_suspend.c ****     /* Pickup thread pointer.  */
 112:../Middlewares/threadx/common/src/tx_thread_system_suspend.c ****     TX_THREAD_GET_CURRENT(current_thread)
  51              		.loc 1 112 5 view .LVU13
  85:../Middlewares/threadx/common/src/tx_thread_system_suspend.c **** 
  52              		.loc 1 85 1 is_stmt 0 view .LVU14
  53 0000 2DE9F74F 		push	{r0, r1, r2, r4, r5, r6, r7, r8, r9, r10, fp, lr}
  54              		.cfi_def_cfa_offset 48
  55              		.cfi_offset 4, -36
  56              		.cfi_offset 5, -32
  57              		.cfi_offset 6, -28
  58              		.cfi_offset 7, -24
  59              		.cfi_offset 8, -20
ARM GAS  /tmp/ccsStdKY.s 			page 4


  60              		.cfi_offset 9, -16
  61              		.cfi_offset 10, -12
  62              		.cfi_offset 11, -8
  63              		.cfi_offset 14, -4
  64              		.loc 1 112 5 view .LVU15
  65 0004 DFF890A2 		ldr	r10, .L79+56
  85:../Middlewares/threadx/common/src/tx_thread_system_suspend.c **** 
  66              		.loc 1 85 1 view .LVU16
  67 0008 0446     		mov	r4, r0
  68              		.loc 1 112 5 view .LVU17
  69 000a DAF80070 		ldr	r7, [r10]
  70              	.LVL1:
  71              	.LBB99:
 113:../Middlewares/threadx/common/src/tx_thread_system_suspend.c **** 
 114:../Middlewares/threadx/common/src/tx_thread_system_suspend.c **** #ifdef TX_ENABLE_STACK_CHECKING
 115:../Middlewares/threadx/common/src/tx_thread_system_suspend.c **** 
 116:../Middlewares/threadx/common/src/tx_thread_system_suspend.c ****     /* Check this thread's stack.  */
 117:../Middlewares/threadx/common/src/tx_thread_system_suspend.c ****     TX_THREAD_STACK_CHECK(thread_ptr)
  72              		.loc 1 117 5 is_stmt 1 view .LVU18
  73              		.loc 1 117 5 view .LVU19
  74              	.LBB100:
  75              	.LBI100:
  76              		.file 2 "../Middlewares/threadx/ports/cortex_m55/gnu/inc/tx_port.h"
   1:../Middlewares/threadx/ports/cortex_m55/gnu/inc/tx_port.h **** /**************************************************************************/
   2:../Middlewares/threadx/ports/cortex_m55/gnu/inc/tx_port.h **** /*                                                                        */
   3:../Middlewares/threadx/ports/cortex_m55/gnu/inc/tx_port.h **** /*       Copyright (c) Microsoft Corporation. All rights reserved.        */
   4:../Middlewares/threadx/ports/cortex_m55/gnu/inc/tx_port.h **** /*                                                                        */
   5:../Middlewares/threadx/ports/cortex_m55/gnu/inc/tx_port.h **** /*       This software is licensed under the Microsoft Software License   */
   6:../Middlewares/threadx/ports/cortex_m55/gnu/inc/tx_port.h **** /*       Terms for Microsoft Azure RTOS. Full text of the license can be  */
   7:../Middlewares/threadx/ports/cortex_m55/gnu/inc/tx_port.h **** /*       found in the LICENSE file at https://aka.ms/AzureRTOS_EULA       */
   8:../Middlewares/threadx/ports/cortex_m55/gnu/inc/tx_port.h **** /*       and in the root directory of this software.                      */
   9:../Middlewares/threadx/ports/cortex_m55/gnu/inc/tx_port.h **** /*                                                                        */
  10:../Middlewares/threadx/ports/cortex_m55/gnu/inc/tx_port.h **** /**************************************************************************/
  11:../Middlewares/threadx/ports/cortex_m55/gnu/inc/tx_port.h **** 
  12:../Middlewares/threadx/ports/cortex_m55/gnu/inc/tx_port.h **** 
  13:../Middlewares/threadx/ports/cortex_m55/gnu/inc/tx_port.h **** /**************************************************************************/
  14:../Middlewares/threadx/ports/cortex_m55/gnu/inc/tx_port.h **** /**************************************************************************/
  15:../Middlewares/threadx/ports/cortex_m55/gnu/inc/tx_port.h **** /**                                                                       */
  16:../Middlewares/threadx/ports/cortex_m55/gnu/inc/tx_port.h **** /** ThreadX Component                                                     */
  17:../Middlewares/threadx/ports/cortex_m55/gnu/inc/tx_port.h **** /**                                                                       */
  18:../Middlewares/threadx/ports/cortex_m55/gnu/inc/tx_port.h **** /**   Port Specific                                                       */
  19:../Middlewares/threadx/ports/cortex_m55/gnu/inc/tx_port.h **** /**                                                                       */
  20:../Middlewares/threadx/ports/cortex_m55/gnu/inc/tx_port.h **** /**************************************************************************/
  21:../Middlewares/threadx/ports/cortex_m55/gnu/inc/tx_port.h **** /**************************************************************************/
  22:../Middlewares/threadx/ports/cortex_m55/gnu/inc/tx_port.h **** 
  23:../Middlewares/threadx/ports/cortex_m55/gnu/inc/tx_port.h **** 
  24:../Middlewares/threadx/ports/cortex_m55/gnu/inc/tx_port.h **** /**************************************************************************/
  25:../Middlewares/threadx/ports/cortex_m55/gnu/inc/tx_port.h **** /*                                                                        */
  26:../Middlewares/threadx/ports/cortex_m55/gnu/inc/tx_port.h **** /*  PORT SPECIFIC C INFORMATION                            RELEASE        */
  27:../Middlewares/threadx/ports/cortex_m55/gnu/inc/tx_port.h **** /*                                                                        */
  28:../Middlewares/threadx/ports/cortex_m55/gnu/inc/tx_port.h **** /*    tx_port.h                                         Cortex-M55/GNU    */
  29:../Middlewares/threadx/ports/cortex_m55/gnu/inc/tx_port.h **** /*                                                           6.2.1        */
  30:../Middlewares/threadx/ports/cortex_m55/gnu/inc/tx_port.h **** /*                                                                        */
  31:../Middlewares/threadx/ports/cortex_m55/gnu/inc/tx_port.h **** /*  AUTHOR                                                                */
  32:../Middlewares/threadx/ports/cortex_m55/gnu/inc/tx_port.h **** /*                                                                        */
  33:../Middlewares/threadx/ports/cortex_m55/gnu/inc/tx_port.h **** /*    Scott Larson, Microsoft Corporation                                 */
  34:../Middlewares/threadx/ports/cortex_m55/gnu/inc/tx_port.h **** /*                                                                        */
ARM GAS  /tmp/ccsStdKY.s 			page 5


  35:../Middlewares/threadx/ports/cortex_m55/gnu/inc/tx_port.h **** /*  DESCRIPTION                                                           */
  36:../Middlewares/threadx/ports/cortex_m55/gnu/inc/tx_port.h **** /*                                                                        */
  37:../Middlewares/threadx/ports/cortex_m55/gnu/inc/tx_port.h **** /*    This file contains data type definitions that make the ThreadX      */
  38:../Middlewares/threadx/ports/cortex_m55/gnu/inc/tx_port.h **** /*    real-time kernel function identically on a variety of different     */
  39:../Middlewares/threadx/ports/cortex_m55/gnu/inc/tx_port.h **** /*    processor architectures.  For example, the size or number of bits   */
  40:../Middlewares/threadx/ports/cortex_m55/gnu/inc/tx_port.h **** /*    in an "int" data type vary between microprocessor architectures and */
  41:../Middlewares/threadx/ports/cortex_m55/gnu/inc/tx_port.h **** /*    even C compilers for the same microprocessor.  ThreadX does not     */
  42:../Middlewares/threadx/ports/cortex_m55/gnu/inc/tx_port.h **** /*    directly use native C data types.  Instead, ThreadX creates its     */
  43:../Middlewares/threadx/ports/cortex_m55/gnu/inc/tx_port.h **** /*    own special types that can be mapped to actual data types by this   */
  44:../Middlewares/threadx/ports/cortex_m55/gnu/inc/tx_port.h **** /*    file to guarantee consistency in the interface and functionality.   */
  45:../Middlewares/threadx/ports/cortex_m55/gnu/inc/tx_port.h **** /*                                                                        */
  46:../Middlewares/threadx/ports/cortex_m55/gnu/inc/tx_port.h **** /*    This file replaces the previous Cortex-M55 files. It unifies        */
  47:../Middlewares/threadx/ports/cortex_m55/gnu/inc/tx_port.h **** /*    the Cortex-M55 compilers into one common file.                      */
  48:../Middlewares/threadx/ports/cortex_m55/gnu/inc/tx_port.h **** /*                                                                        */
  49:../Middlewares/threadx/ports/cortex_m55/gnu/inc/tx_port.h **** /*  RELEASE HISTORY                                                       */
  50:../Middlewares/threadx/ports/cortex_m55/gnu/inc/tx_port.h **** /*                                                                        */
  51:../Middlewares/threadx/ports/cortex_m55/gnu/inc/tx_port.h **** /*    DATE              NAME                      DESCRIPTION             */
  52:../Middlewares/threadx/ports/cortex_m55/gnu/inc/tx_port.h **** /*                                                                        */
  53:../Middlewares/threadx/ports/cortex_m55/gnu/inc/tx_port.h **** /*  09-30-2020      Scott Larson            Initial Version 6.1           */
  54:../Middlewares/threadx/ports/cortex_m55/gnu/inc/tx_port.h **** /*  03-02-2021      Scott Larson            Modified comment(s), added    */
  55:../Middlewares/threadx/ports/cortex_m55/gnu/inc/tx_port.h **** /*                                            ULONG64_DEFINED,            */
  56:../Middlewares/threadx/ports/cortex_m55/gnu/inc/tx_port.h **** /*                                            resulting in version 6.1.5  */
  57:../Middlewares/threadx/ports/cortex_m55/gnu/inc/tx_port.h **** /*  06-02-2021      Scott Larson            Modified comment(s), removed  */
  58:../Middlewares/threadx/ports/cortex_m55/gnu/inc/tx_port.h **** /*                                            unneeded header file, funcs */
  59:../Middlewares/threadx/ports/cortex_m55/gnu/inc/tx_port.h **** /*                                            set_control and get_control */
  60:../Middlewares/threadx/ports/cortex_m55/gnu/inc/tx_port.h **** /*                                            changed to inline,          */
  61:../Middlewares/threadx/ports/cortex_m55/gnu/inc/tx_port.h **** /*                                            added symbol to enable      */
  62:../Middlewares/threadx/ports/cortex_m55/gnu/inc/tx_port.h **** /*                                            stack error handler,        */
  63:../Middlewares/threadx/ports/cortex_m55/gnu/inc/tx_port.h **** /*                                            resulting in version 6.1.7  */
  64:../Middlewares/threadx/ports/cortex_m55/gnu/inc/tx_port.h **** /*  10-15-2021      Scott Larson            Modified comment(s), improved */
  65:../Middlewares/threadx/ports/cortex_m55/gnu/inc/tx_port.h **** /*                                            stack check error handling, */
  66:../Middlewares/threadx/ports/cortex_m55/gnu/inc/tx_port.h **** /*                                            resulting in version 6.1.9  */
  67:../Middlewares/threadx/ports/cortex_m55/gnu/inc/tx_port.h **** /*  01-31-2022      Scott Larson            Modified comment(s), unified  */
  68:../Middlewares/threadx/ports/cortex_m55/gnu/inc/tx_port.h **** /*                                            this file across compilers, */
  69:../Middlewares/threadx/ports/cortex_m55/gnu/inc/tx_port.h **** /*                                            fixed predefined macro,     */
  70:../Middlewares/threadx/ports/cortex_m55/gnu/inc/tx_port.h **** /*                                            resulting in version 6.1.10 */
  71:../Middlewares/threadx/ports/cortex_m55/gnu/inc/tx_port.h **** /*  04-25-2022      Scott Larson            Modified comments and added   */
  72:../Middlewares/threadx/ports/cortex_m55/gnu/inc/tx_port.h **** /*                                            volatile to registers,      */
  73:../Middlewares/threadx/ports/cortex_m55/gnu/inc/tx_port.h **** /*                                            resulting in version 6.1.11 */
  74:../Middlewares/threadx/ports/cortex_m55/gnu/inc/tx_port.h **** /*  07-29-2022      Scott Larson            Modified comments and changed */
  75:../Middlewares/threadx/ports/cortex_m55/gnu/inc/tx_port.h **** /*                                            secure stack initialization */
  76:../Middlewares/threadx/ports/cortex_m55/gnu/inc/tx_port.h **** /*                                            macro to port-specific,     */
  77:../Middlewares/threadx/ports/cortex_m55/gnu/inc/tx_port.h **** /*                                            described BASEPRI usage,    */
  78:../Middlewares/threadx/ports/cortex_m55/gnu/inc/tx_port.h **** /*                                            resulting in version 6.1.12 */
  79:../Middlewares/threadx/ports/cortex_m55/gnu/inc/tx_port.h **** /*  03-08-2023      Scott Larson            Removed unneeded #include,    */
  80:../Middlewares/threadx/ports/cortex_m55/gnu/inc/tx_port.h **** /*                                            resulting in version 6.2.1  */
  81:../Middlewares/threadx/ports/cortex_m55/gnu/inc/tx_port.h **** /*                                                                        */
  82:../Middlewares/threadx/ports/cortex_m55/gnu/inc/tx_port.h **** /**************************************************************************/
  83:../Middlewares/threadx/ports/cortex_m55/gnu/inc/tx_port.h **** 
  84:../Middlewares/threadx/ports/cortex_m55/gnu/inc/tx_port.h **** #ifndef TX_PORT_H
  85:../Middlewares/threadx/ports/cortex_m55/gnu/inc/tx_port.h **** #define TX_PORT_H
  86:../Middlewares/threadx/ports/cortex_m55/gnu/inc/tx_port.h **** 
  87:../Middlewares/threadx/ports/cortex_m55/gnu/inc/tx_port.h **** /* Determine if the optional ThreadX user define file should be used.  */
  88:../Middlewares/threadx/ports/cortex_m55/gnu/inc/tx_port.h **** #ifdef TX_INCLUDE_USER_DEFINE_FILE
  89:../Middlewares/threadx/ports/cortex_m55/gnu/inc/tx_port.h **** 
  90:../Middlewares/threadx/ports/cortex_m55/gnu/inc/tx_port.h **** /* Yes, include the user defines in tx_user.h. The defines in this file may
  91:../Middlewares/threadx/ports/cortex_m55/gnu/inc/tx_port.h ****    alternately be defined on the command line.  */
ARM GAS  /tmp/ccsStdKY.s 			page 6


  92:../Middlewares/threadx/ports/cortex_m55/gnu/inc/tx_port.h **** 
  93:../Middlewares/threadx/ports/cortex_m55/gnu/inc/tx_port.h **** #include "tx_user.h"
  94:../Middlewares/threadx/ports/cortex_m55/gnu/inc/tx_port.h **** #endif /* TX_INCLUDE_USER_DEFINE_FILE */
  95:../Middlewares/threadx/ports/cortex_m55/gnu/inc/tx_port.h **** 
  96:../Middlewares/threadx/ports/cortex_m55/gnu/inc/tx_port.h **** /* Define compiler library include files.  */
  97:../Middlewares/threadx/ports/cortex_m55/gnu/inc/tx_port.h **** 
  98:../Middlewares/threadx/ports/cortex_m55/gnu/inc/tx_port.h **** #include <stdlib.h>
  99:../Middlewares/threadx/ports/cortex_m55/gnu/inc/tx_port.h **** #include <string.h>
 100:../Middlewares/threadx/ports/cortex_m55/gnu/inc/tx_port.h **** 
 101:../Middlewares/threadx/ports/cortex_m55/gnu/inc/tx_port.h **** #ifdef __ICCARM__
 102:../Middlewares/threadx/ports/cortex_m55/gnu/inc/tx_port.h **** #include <intrinsics.h>                         /* IAR Intrinsics */
 103:../Middlewares/threadx/ports/cortex_m55/gnu/inc/tx_port.h **** #define __asm__                 __asm           /* Define to make all inline asm from each compiler
 104:../Middlewares/threadx/ports/cortex_m55/gnu/inc/tx_port.h **** #define _tx_control_get         __get_CONTROL
 105:../Middlewares/threadx/ports/cortex_m55/gnu/inc/tx_port.h **** #define _tx_control_set         __set_CONTROL
 106:../Middlewares/threadx/ports/cortex_m55/gnu/inc/tx_port.h **** #define _tx_ipsr_get            __get_IPSR
 107:../Middlewares/threadx/ports/cortex_m55/gnu/inc/tx_port.h **** #ifdef  TX_ENABLE_IAR_LIBRARY_SUPPORT
 108:../Middlewares/threadx/ports/cortex_m55/gnu/inc/tx_port.h **** #include <yvals.h>
 109:../Middlewares/threadx/ports/cortex_m55/gnu/inc/tx_port.h **** #endif /* TX_ENABLE_IAR_LIBRARY_SUPPORT */
 110:../Middlewares/threadx/ports/cortex_m55/gnu/inc/tx_port.h **** #endif /* __ICCARM__ */
 111:../Middlewares/threadx/ports/cortex_m55/gnu/inc/tx_port.h **** 
 112:../Middlewares/threadx/ports/cortex_m55/gnu/inc/tx_port.h **** 
 113:../Middlewares/threadx/ports/cortex_m55/gnu/inc/tx_port.h **** /* Define ThreadX basic types for this port.  */
 114:../Middlewares/threadx/ports/cortex_m55/gnu/inc/tx_port.h **** 
 115:../Middlewares/threadx/ports/cortex_m55/gnu/inc/tx_port.h **** #define VOID                                    void
 116:../Middlewares/threadx/ports/cortex_m55/gnu/inc/tx_port.h **** typedef char                                    CHAR;
 117:../Middlewares/threadx/ports/cortex_m55/gnu/inc/tx_port.h **** typedef unsigned char                           UCHAR;
 118:../Middlewares/threadx/ports/cortex_m55/gnu/inc/tx_port.h **** typedef int                                     INT;
 119:../Middlewares/threadx/ports/cortex_m55/gnu/inc/tx_port.h **** typedef unsigned int                            UINT;
 120:../Middlewares/threadx/ports/cortex_m55/gnu/inc/tx_port.h **** typedef long                                    LONG;
 121:../Middlewares/threadx/ports/cortex_m55/gnu/inc/tx_port.h **** typedef unsigned long                           ULONG;
 122:../Middlewares/threadx/ports/cortex_m55/gnu/inc/tx_port.h **** typedef unsigned long long                      ULONG64;
 123:../Middlewares/threadx/ports/cortex_m55/gnu/inc/tx_port.h **** typedef short                                   SHORT;
 124:../Middlewares/threadx/ports/cortex_m55/gnu/inc/tx_port.h **** typedef unsigned short                          USHORT;
 125:../Middlewares/threadx/ports/cortex_m55/gnu/inc/tx_port.h **** #define ULONG64_DEFINED
 126:../Middlewares/threadx/ports/cortex_m55/gnu/inc/tx_port.h **** 
 127:../Middlewares/threadx/ports/cortex_m55/gnu/inc/tx_port.h **** /* Function prototypes for this port. */
 128:../Middlewares/threadx/ports/cortex_m55/gnu/inc/tx_port.h **** struct  TX_THREAD_STRUCT;
 129:../Middlewares/threadx/ports/cortex_m55/gnu/inc/tx_port.h **** UINT    _txe_thread_secure_stack_allocate(struct TX_THREAD_STRUCT *thread_ptr, ULONG stack_size);
 130:../Middlewares/threadx/ports/cortex_m55/gnu/inc/tx_port.h **** UINT    _txe_thread_secure_stack_free(struct TX_THREAD_STRUCT *thread_ptr);
 131:../Middlewares/threadx/ports/cortex_m55/gnu/inc/tx_port.h **** UINT    _tx_thread_secure_stack_allocate(struct TX_THREAD_STRUCT *tx_thread, ULONG stack_size);
 132:../Middlewares/threadx/ports/cortex_m55/gnu/inc/tx_port.h **** UINT    _tx_thread_secure_stack_free(struct TX_THREAD_STRUCT *tx_thread);
 133:../Middlewares/threadx/ports/cortex_m55/gnu/inc/tx_port.h **** 
 134:../Middlewares/threadx/ports/cortex_m55/gnu/inc/tx_port.h **** /* Define the system API mappings based on the error checking
 135:../Middlewares/threadx/ports/cortex_m55/gnu/inc/tx_port.h ****    selected by the user.  Note: this section is only applicable to
 136:../Middlewares/threadx/ports/cortex_m55/gnu/inc/tx_port.h ****    application source code, hence the conditional that turns off this
 137:../Middlewares/threadx/ports/cortex_m55/gnu/inc/tx_port.h ****    stuff when the include file is processed by the ThreadX source. */
 138:../Middlewares/threadx/ports/cortex_m55/gnu/inc/tx_port.h **** 
 139:../Middlewares/threadx/ports/cortex_m55/gnu/inc/tx_port.h **** #ifndef TX_SOURCE_CODE
 140:../Middlewares/threadx/ports/cortex_m55/gnu/inc/tx_port.h **** 
 141:../Middlewares/threadx/ports/cortex_m55/gnu/inc/tx_port.h **** 
 142:../Middlewares/threadx/ports/cortex_m55/gnu/inc/tx_port.h **** /* Determine if error checking is desired.  If so, map API functions
 143:../Middlewares/threadx/ports/cortex_m55/gnu/inc/tx_port.h ****    to the appropriate error checking front-ends.  Otherwise, map API
 144:../Middlewares/threadx/ports/cortex_m55/gnu/inc/tx_port.h ****    functions to the core functions that actually perform the work.
 145:../Middlewares/threadx/ports/cortex_m55/gnu/inc/tx_port.h ****    Note: error checking is enabled by default.  */
 146:../Middlewares/threadx/ports/cortex_m55/gnu/inc/tx_port.h **** 
 147:../Middlewares/threadx/ports/cortex_m55/gnu/inc/tx_port.h **** #ifdef TX_DISABLE_ERROR_CHECKING
 148:../Middlewares/threadx/ports/cortex_m55/gnu/inc/tx_port.h **** 
ARM GAS  /tmp/ccsStdKY.s 			page 7


 149:../Middlewares/threadx/ports/cortex_m55/gnu/inc/tx_port.h **** /* Services without error checking.  */
 150:../Middlewares/threadx/ports/cortex_m55/gnu/inc/tx_port.h **** 
 151:../Middlewares/threadx/ports/cortex_m55/gnu/inc/tx_port.h **** #define tx_thread_secure_stack_allocate   _tx_thread_secure_stack_allocate
 152:../Middlewares/threadx/ports/cortex_m55/gnu/inc/tx_port.h **** #define tx_thread_secure_stack_free       _tx_thread_secure_stack_free
 153:../Middlewares/threadx/ports/cortex_m55/gnu/inc/tx_port.h **** 
 154:../Middlewares/threadx/ports/cortex_m55/gnu/inc/tx_port.h **** #else
 155:../Middlewares/threadx/ports/cortex_m55/gnu/inc/tx_port.h **** 
 156:../Middlewares/threadx/ports/cortex_m55/gnu/inc/tx_port.h **** /* Services with error checking.  */
 157:../Middlewares/threadx/ports/cortex_m55/gnu/inc/tx_port.h **** 
 158:../Middlewares/threadx/ports/cortex_m55/gnu/inc/tx_port.h **** #define tx_thread_secure_stack_allocate   _txe_thread_secure_stack_allocate
 159:../Middlewares/threadx/ports/cortex_m55/gnu/inc/tx_port.h **** #define tx_thread_secure_stack_free       _txe_thread_secure_stack_free
 160:../Middlewares/threadx/ports/cortex_m55/gnu/inc/tx_port.h **** 
 161:../Middlewares/threadx/ports/cortex_m55/gnu/inc/tx_port.h **** #endif  /* TX_DISABLE_ERROR_CHECKING */
 162:../Middlewares/threadx/ports/cortex_m55/gnu/inc/tx_port.h **** #endif  /* TX_SOURCE_CODE */
 163:../Middlewares/threadx/ports/cortex_m55/gnu/inc/tx_port.h **** 
 164:../Middlewares/threadx/ports/cortex_m55/gnu/inc/tx_port.h **** /* This port has a usage fault handler in _tx_initialize_low_level for stack exceptions.  */
 165:../Middlewares/threadx/ports/cortex_m55/gnu/inc/tx_port.h **** #define TX_PORT_THREAD_STACK_ERROR_HANDLING
 166:../Middlewares/threadx/ports/cortex_m55/gnu/inc/tx_port.h **** 
 167:../Middlewares/threadx/ports/cortex_m55/gnu/inc/tx_port.h **** /* Define the priority levels for ThreadX.  Legal values range
 168:../Middlewares/threadx/ports/cortex_m55/gnu/inc/tx_port.h ****    from 32 to 1024 and MUST be evenly divisible by 32.  */
 169:../Middlewares/threadx/ports/cortex_m55/gnu/inc/tx_port.h **** 
 170:../Middlewares/threadx/ports/cortex_m55/gnu/inc/tx_port.h **** #ifndef TX_MAX_PRIORITIES
 171:../Middlewares/threadx/ports/cortex_m55/gnu/inc/tx_port.h **** #define TX_MAX_PRIORITIES                       32
 172:../Middlewares/threadx/ports/cortex_m55/gnu/inc/tx_port.h **** #endif
 173:../Middlewares/threadx/ports/cortex_m55/gnu/inc/tx_port.h **** 
 174:../Middlewares/threadx/ports/cortex_m55/gnu/inc/tx_port.h **** 
 175:../Middlewares/threadx/ports/cortex_m55/gnu/inc/tx_port.h **** /* Define the minimum stack for a ThreadX thread on this processor. If the size supplied during
 176:../Middlewares/threadx/ports/cortex_m55/gnu/inc/tx_port.h ****    thread creation is less than this value, the thread create call will return an error.  */
 177:../Middlewares/threadx/ports/cortex_m55/gnu/inc/tx_port.h **** 
 178:../Middlewares/threadx/ports/cortex_m55/gnu/inc/tx_port.h **** #ifndef TX_MINIMUM_STACK
 179:../Middlewares/threadx/ports/cortex_m55/gnu/inc/tx_port.h **** #define TX_MINIMUM_STACK                        200         /* Minimum stack size for this port  */
 180:../Middlewares/threadx/ports/cortex_m55/gnu/inc/tx_port.h **** #endif
 181:../Middlewares/threadx/ports/cortex_m55/gnu/inc/tx_port.h **** 
 182:../Middlewares/threadx/ports/cortex_m55/gnu/inc/tx_port.h **** 
 183:../Middlewares/threadx/ports/cortex_m55/gnu/inc/tx_port.h **** /* Define the system timer thread's default stack size and priority.  These are only applicable
 184:../Middlewares/threadx/ports/cortex_m55/gnu/inc/tx_port.h ****    if TX_TIMER_PROCESS_IN_ISR is not defined.  */
 185:../Middlewares/threadx/ports/cortex_m55/gnu/inc/tx_port.h **** 
 186:../Middlewares/threadx/ports/cortex_m55/gnu/inc/tx_port.h **** #ifndef TX_TIMER_THREAD_STACK_SIZE
 187:../Middlewares/threadx/ports/cortex_m55/gnu/inc/tx_port.h **** #define TX_TIMER_THREAD_STACK_SIZE              1024        /* Default timer thread stack size  */
 188:../Middlewares/threadx/ports/cortex_m55/gnu/inc/tx_port.h **** #endif
 189:../Middlewares/threadx/ports/cortex_m55/gnu/inc/tx_port.h **** 
 190:../Middlewares/threadx/ports/cortex_m55/gnu/inc/tx_port.h **** #ifndef TX_TIMER_THREAD_PRIORITY
 191:../Middlewares/threadx/ports/cortex_m55/gnu/inc/tx_port.h **** #define TX_TIMER_THREAD_PRIORITY                0           /* Default timer thread priority    */
 192:../Middlewares/threadx/ports/cortex_m55/gnu/inc/tx_port.h **** #endif
 193:../Middlewares/threadx/ports/cortex_m55/gnu/inc/tx_port.h **** 
 194:../Middlewares/threadx/ports/cortex_m55/gnu/inc/tx_port.h **** /* By default, ThreadX for Cortex-M uses the PRIMASK register to enable/disable interrupts.
 195:../Middlewares/threadx/ports/cortex_m55/gnu/inc/tx_port.h **** If using BASEPRI is desired, define the following two symbols for both c and assembly files:
 196:../Middlewares/threadx/ports/cortex_m55/gnu/inc/tx_port.h **** TX_PORT_USE_BASEPRI - This tells ThreadX to use BASEPRI instead of PRIMASK.
 197:../Middlewares/threadx/ports/cortex_m55/gnu/inc/tx_port.h **** TX_PORT_BASEPRI = (priority_mask << (8 - number_priority_bits)) - this defines the maximum priority
 198:../Middlewares/threadx/ports/cortex_m55/gnu/inc/tx_port.h **** Any interrupt with a higher priority than priority_mask will not be masked, thus the interrupt will
 199:../Middlewares/threadx/ports/cortex_m55/gnu/inc/tx_port.h **** */
 200:../Middlewares/threadx/ports/cortex_m55/gnu/inc/tx_port.h **** 
 201:../Middlewares/threadx/ports/cortex_m55/gnu/inc/tx_port.h **** /* Define various constants for the ThreadX Cortex-M port.  */
 202:../Middlewares/threadx/ports/cortex_m55/gnu/inc/tx_port.h **** 
 203:../Middlewares/threadx/ports/cortex_m55/gnu/inc/tx_port.h **** #define TX_INT_DISABLE                          1           /* Disable interrupts               */
 204:../Middlewares/threadx/ports/cortex_m55/gnu/inc/tx_port.h **** #define TX_INT_ENABLE                           0           /* Enable interrupts                */
 205:../Middlewares/threadx/ports/cortex_m55/gnu/inc/tx_port.h **** 
ARM GAS  /tmp/ccsStdKY.s 			page 8


 206:../Middlewares/threadx/ports/cortex_m55/gnu/inc/tx_port.h **** 
 207:../Middlewares/threadx/ports/cortex_m55/gnu/inc/tx_port.h **** /* Define the clock source for trace event entry time stamp. The following two item are port specif
 208:../Middlewares/threadx/ports/cortex_m55/gnu/inc/tx_port.h ****    For example, if the time source is at the address 0x0a800024 and is 16-bits in size, the clock
 209:../Middlewares/threadx/ports/cortex_m55/gnu/inc/tx_port.h ****    source constants would be:
 210:../Middlewares/threadx/ports/cortex_m55/gnu/inc/tx_port.h **** 
 211:../Middlewares/threadx/ports/cortex_m55/gnu/inc/tx_port.h **** #define TX_TRACE_TIME_SOURCE                    *((volatile ULONG *) 0x0a800024)
 212:../Middlewares/threadx/ports/cortex_m55/gnu/inc/tx_port.h **** #define TX_TRACE_TIME_MASK                      0x0000FFFFUL
 213:../Middlewares/threadx/ports/cortex_m55/gnu/inc/tx_port.h **** 
 214:../Middlewares/threadx/ports/cortex_m55/gnu/inc/tx_port.h **** */
 215:../Middlewares/threadx/ports/cortex_m55/gnu/inc/tx_port.h **** 
 216:../Middlewares/threadx/ports/cortex_m55/gnu/inc/tx_port.h **** #ifndef TX_MISRA_ENABLE
 217:../Middlewares/threadx/ports/cortex_m55/gnu/inc/tx_port.h **** #ifndef TX_TRACE_TIME_SOURCE
 218:../Middlewares/threadx/ports/cortex_m55/gnu/inc/tx_port.h **** #define TX_TRACE_TIME_SOURCE                    *((volatile ULONG *) 0xE0001004)
 219:../Middlewares/threadx/ports/cortex_m55/gnu/inc/tx_port.h **** #endif
 220:../Middlewares/threadx/ports/cortex_m55/gnu/inc/tx_port.h **** #else
 221:../Middlewares/threadx/ports/cortex_m55/gnu/inc/tx_port.h **** ULONG   _tx_misra_time_stamp_get(VOID);
 222:../Middlewares/threadx/ports/cortex_m55/gnu/inc/tx_port.h **** #define TX_TRACE_TIME_SOURCE                    _tx_misra_time_stamp_get()
 223:../Middlewares/threadx/ports/cortex_m55/gnu/inc/tx_port.h **** #endif
 224:../Middlewares/threadx/ports/cortex_m55/gnu/inc/tx_port.h **** 
 225:../Middlewares/threadx/ports/cortex_m55/gnu/inc/tx_port.h **** #ifndef TX_TRACE_TIME_MASK
 226:../Middlewares/threadx/ports/cortex_m55/gnu/inc/tx_port.h **** #define TX_TRACE_TIME_MASK                      0xFFFFFFFFUL
 227:../Middlewares/threadx/ports/cortex_m55/gnu/inc/tx_port.h **** #endif
 228:../Middlewares/threadx/ports/cortex_m55/gnu/inc/tx_port.h **** 
 229:../Middlewares/threadx/ports/cortex_m55/gnu/inc/tx_port.h **** 
 230:../Middlewares/threadx/ports/cortex_m55/gnu/inc/tx_port.h **** /* Define the port specific options for the _tx_build_options variable. This variable indicates
 231:../Middlewares/threadx/ports/cortex_m55/gnu/inc/tx_port.h ****    how the ThreadX library was built.  */
 232:../Middlewares/threadx/ports/cortex_m55/gnu/inc/tx_port.h **** 
 233:../Middlewares/threadx/ports/cortex_m55/gnu/inc/tx_port.h **** #define TX_PORT_SPECIFIC_BUILD_OPTIONS          (0)
 234:../Middlewares/threadx/ports/cortex_m55/gnu/inc/tx_port.h **** 
 235:../Middlewares/threadx/ports/cortex_m55/gnu/inc/tx_port.h **** 
 236:../Middlewares/threadx/ports/cortex_m55/gnu/inc/tx_port.h **** /* Define the in-line initialization constant so that modules with in-line
 237:../Middlewares/threadx/ports/cortex_m55/gnu/inc/tx_port.h ****    initialization capabilities can prevent their initialization from being
 238:../Middlewares/threadx/ports/cortex_m55/gnu/inc/tx_port.h ****    a function call.  */
 239:../Middlewares/threadx/ports/cortex_m55/gnu/inc/tx_port.h **** 
 240:../Middlewares/threadx/ports/cortex_m55/gnu/inc/tx_port.h **** #ifdef TX_MISRA_ENABLE
 241:../Middlewares/threadx/ports/cortex_m55/gnu/inc/tx_port.h **** #define TX_DISABLE_INLINE
 242:../Middlewares/threadx/ports/cortex_m55/gnu/inc/tx_port.h **** #else
 243:../Middlewares/threadx/ports/cortex_m55/gnu/inc/tx_port.h **** #define TX_INLINE_INITIALIZATION
 244:../Middlewares/threadx/ports/cortex_m55/gnu/inc/tx_port.h **** #endif
 245:../Middlewares/threadx/ports/cortex_m55/gnu/inc/tx_port.h **** 
 246:../Middlewares/threadx/ports/cortex_m55/gnu/inc/tx_port.h **** 
 247:../Middlewares/threadx/ports/cortex_m55/gnu/inc/tx_port.h **** /* Determine whether or not stack checking is enabled. By default, ThreadX stack checking is
 248:../Middlewares/threadx/ports/cortex_m55/gnu/inc/tx_port.h ****    disabled. When the following is defined, ThreadX thread stack checking is enabled.  If stack
 249:../Middlewares/threadx/ports/cortex_m55/gnu/inc/tx_port.h ****    checking is enabled (TX_ENABLE_STACK_CHECKING is defined), the TX_DISABLE_STACK_FILLING
 250:../Middlewares/threadx/ports/cortex_m55/gnu/inc/tx_port.h ****    define is negated, thereby forcing the stack fill which is necessary for the stack checking
 251:../Middlewares/threadx/ports/cortex_m55/gnu/inc/tx_port.h ****    logic.  */
 252:../Middlewares/threadx/ports/cortex_m55/gnu/inc/tx_port.h **** 
 253:../Middlewares/threadx/ports/cortex_m55/gnu/inc/tx_port.h **** #ifndef TX_MISRA_ENABLE
 254:../Middlewares/threadx/ports/cortex_m55/gnu/inc/tx_port.h **** #ifdef TX_ENABLE_STACK_CHECKING
 255:../Middlewares/threadx/ports/cortex_m55/gnu/inc/tx_port.h **** #undef TX_DISABLE_STACK_FILLING
 256:../Middlewares/threadx/ports/cortex_m55/gnu/inc/tx_port.h **** #endif
 257:../Middlewares/threadx/ports/cortex_m55/gnu/inc/tx_port.h **** #endif
 258:../Middlewares/threadx/ports/cortex_m55/gnu/inc/tx_port.h **** 
 259:../Middlewares/threadx/ports/cortex_m55/gnu/inc/tx_port.h **** 
 260:../Middlewares/threadx/ports/cortex_m55/gnu/inc/tx_port.h **** /* Define the TX_THREAD control block extensions for this port. The main reason
 261:../Middlewares/threadx/ports/cortex_m55/gnu/inc/tx_port.h ****    for the multiple macros is so that backward compatibility can be maintained with
 262:../Middlewares/threadx/ports/cortex_m55/gnu/inc/tx_port.h ****    existing ThreadX kernel awareness modules.  */
ARM GAS  /tmp/ccsStdKY.s 			page 9


 263:../Middlewares/threadx/ports/cortex_m55/gnu/inc/tx_port.h **** 
 264:../Middlewares/threadx/ports/cortex_m55/gnu/inc/tx_port.h **** #define TX_THREAD_EXTENSION_0
 265:../Middlewares/threadx/ports/cortex_m55/gnu/inc/tx_port.h **** #define TX_THREAD_EXTENSION_1
 266:../Middlewares/threadx/ports/cortex_m55/gnu/inc/tx_port.h **** 
 267:../Middlewares/threadx/ports/cortex_m55/gnu/inc/tx_port.h **** #ifdef  TX_ENABLE_IAR_LIBRARY_SUPPORT
 268:../Middlewares/threadx/ports/cortex_m55/gnu/inc/tx_port.h **** /* IAR library support */
 269:../Middlewares/threadx/ports/cortex_m55/gnu/inc/tx_port.h **** #if !defined(TX_SINGLE_MODE_SECURE) && !defined(TX_SINGLE_MODE_NON_SECURE)
 270:../Middlewares/threadx/ports/cortex_m55/gnu/inc/tx_port.h **** /* ThreadX in non-secure zone with calls to secure zone. */
 271:../Middlewares/threadx/ports/cortex_m55/gnu/inc/tx_port.h **** #define TX_THREAD_EXTENSION_2           VOID    *tx_thread_secure_stack_context;    \
 272:../Middlewares/threadx/ports/cortex_m55/gnu/inc/tx_port.h ****                                         VOID    *tx_thread_iar_tls_pointer;
 273:../Middlewares/threadx/ports/cortex_m55/gnu/inc/tx_port.h **** #else
 274:../Middlewares/threadx/ports/cortex_m55/gnu/inc/tx_port.h **** /* ThreadX in only one zone. */
 275:../Middlewares/threadx/ports/cortex_m55/gnu/inc/tx_port.h **** #define TX_THREAD_EXTENSION_2           VOID    *tx_thread_iar_tls_pointer;
 276:../Middlewares/threadx/ports/cortex_m55/gnu/inc/tx_port.h **** #endif
 277:../Middlewares/threadx/ports/cortex_m55/gnu/inc/tx_port.h **** 
 278:../Middlewares/threadx/ports/cortex_m55/gnu/inc/tx_port.h **** #else
 279:../Middlewares/threadx/ports/cortex_m55/gnu/inc/tx_port.h **** /* No IAR library support */
 280:../Middlewares/threadx/ports/cortex_m55/gnu/inc/tx_port.h **** #if !defined(TX_SINGLE_MODE_SECURE) && !defined(TX_SINGLE_MODE_NON_SECURE)
 281:../Middlewares/threadx/ports/cortex_m55/gnu/inc/tx_port.h **** /* ThreadX in non-secure zone with calls to secure zone. */
 282:../Middlewares/threadx/ports/cortex_m55/gnu/inc/tx_port.h **** #define TX_THREAD_EXTENSION_2           VOID    *tx_thread_secure_stack_context;
 283:../Middlewares/threadx/ports/cortex_m55/gnu/inc/tx_port.h **** #else
 284:../Middlewares/threadx/ports/cortex_m55/gnu/inc/tx_port.h **** /* ThreadX in only one zone. */
 285:../Middlewares/threadx/ports/cortex_m55/gnu/inc/tx_port.h **** #define TX_THREAD_EXTENSION_2
 286:../Middlewares/threadx/ports/cortex_m55/gnu/inc/tx_port.h **** #endif
 287:../Middlewares/threadx/ports/cortex_m55/gnu/inc/tx_port.h **** 
 288:../Middlewares/threadx/ports/cortex_m55/gnu/inc/tx_port.h **** #endif  /* TX_ENABLE_IAR_LIBRARY_SUPPORT */
 289:../Middlewares/threadx/ports/cortex_m55/gnu/inc/tx_port.h **** 
 290:../Middlewares/threadx/ports/cortex_m55/gnu/inc/tx_port.h **** #define TX_THREAD_EXTENSION_3
 291:../Middlewares/threadx/ports/cortex_m55/gnu/inc/tx_port.h **** 
 292:../Middlewares/threadx/ports/cortex_m55/gnu/inc/tx_port.h **** 
 293:../Middlewares/threadx/ports/cortex_m55/gnu/inc/tx_port.h **** /* Define the port extensions of the remaining ThreadX objects.  */
 294:../Middlewares/threadx/ports/cortex_m55/gnu/inc/tx_port.h **** 
 295:../Middlewares/threadx/ports/cortex_m55/gnu/inc/tx_port.h **** #define TX_BLOCK_POOL_EXTENSION
 296:../Middlewares/threadx/ports/cortex_m55/gnu/inc/tx_port.h **** #define TX_BYTE_POOL_EXTENSION
 297:../Middlewares/threadx/ports/cortex_m55/gnu/inc/tx_port.h **** #define TX_EVENT_FLAGS_GROUP_EXTENSION
 298:../Middlewares/threadx/ports/cortex_m55/gnu/inc/tx_port.h **** #define TX_MUTEX_EXTENSION
 299:../Middlewares/threadx/ports/cortex_m55/gnu/inc/tx_port.h **** #define TX_QUEUE_EXTENSION
 300:../Middlewares/threadx/ports/cortex_m55/gnu/inc/tx_port.h **** #define TX_SEMAPHORE_EXTENSION
 301:../Middlewares/threadx/ports/cortex_m55/gnu/inc/tx_port.h **** #define TX_TIMER_EXTENSION
 302:../Middlewares/threadx/ports/cortex_m55/gnu/inc/tx_port.h **** 
 303:../Middlewares/threadx/ports/cortex_m55/gnu/inc/tx_port.h **** 
 304:../Middlewares/threadx/ports/cortex_m55/gnu/inc/tx_port.h **** /* Define the user extension field of the thread control block.  Nothing
 305:../Middlewares/threadx/ports/cortex_m55/gnu/inc/tx_port.h ****    additional is needed for this port so it is defined as white space.  */
 306:../Middlewares/threadx/ports/cortex_m55/gnu/inc/tx_port.h **** 
 307:../Middlewares/threadx/ports/cortex_m55/gnu/inc/tx_port.h **** #ifndef TX_THREAD_USER_EXTENSION
 308:../Middlewares/threadx/ports/cortex_m55/gnu/inc/tx_port.h **** #define TX_THREAD_USER_EXTENSION
 309:../Middlewares/threadx/ports/cortex_m55/gnu/inc/tx_port.h **** #endif
 310:../Middlewares/threadx/ports/cortex_m55/gnu/inc/tx_port.h **** 
 311:../Middlewares/threadx/ports/cortex_m55/gnu/inc/tx_port.h **** 
 312:../Middlewares/threadx/ports/cortex_m55/gnu/inc/tx_port.h **** /* Define the macros for processing extensions in tx_thread_create, tx_thread_delete,
 313:../Middlewares/threadx/ports/cortex_m55/gnu/inc/tx_port.h ****    tx_thread_shell_entry, and tx_thread_terminate.  */
 314:../Middlewares/threadx/ports/cortex_m55/gnu/inc/tx_port.h **** #ifdef  TX_ENABLE_IAR_LIBRARY_SUPPORT
 315:../Middlewares/threadx/ports/cortex_m55/gnu/inc/tx_port.h **** void    *_tx_iar_create_per_thread_tls_area(void);
 316:../Middlewares/threadx/ports/cortex_m55/gnu/inc/tx_port.h **** void    _tx_iar_destroy_per_thread_tls_area(void *tls_ptr);
 317:../Middlewares/threadx/ports/cortex_m55/gnu/inc/tx_port.h **** void    __iar_Initlocks(void);
 318:../Middlewares/threadx/ports/cortex_m55/gnu/inc/tx_port.h **** #define TX_THREAD_CREATE_EXTENSION(thread_ptr)                      thread_ptr -> tx_thread_iar_tls
 319:../Middlewares/threadx/ports/cortex_m55/gnu/inc/tx_port.h **** 
ARM GAS  /tmp/ccsStdKY.s 			page 10


 320:../Middlewares/threadx/ports/cortex_m55/gnu/inc/tx_port.h **** #if !defined(TX_SINGLE_MODE_SECURE) && !defined(TX_SINGLE_MODE_NON_SECURE)
 321:../Middlewares/threadx/ports/cortex_m55/gnu/inc/tx_port.h **** #define TX_THREAD_DELETE_EXTENSION(thread_ptr)                      do {_tx_iar_destroy_per_thread_
 322:../Middlewares/threadx/ports/cortex_m55/gnu/inc/tx_port.h ****                                                                         thread_ptr -> tx_thread_iar
 323:../Middlewares/threadx/ports/cortex_m55/gnu/inc/tx_port.h ****                                                                     if(thread_ptr -> tx_thread_secu
 324:../Middlewares/threadx/ports/cortex_m55/gnu/inc/tx_port.h **** #else
 325:../Middlewares/threadx/ports/cortex_m55/gnu/inc/tx_port.h **** #define TX_THREAD_DELETE_EXTENSION(thread_ptr)                      do {_tx_iar_destroy_per_thread_
 326:../Middlewares/threadx/ports/cortex_m55/gnu/inc/tx_port.h ****                                                                         thread_ptr -> tx_thread_iar
 327:../Middlewares/threadx/ports/cortex_m55/gnu/inc/tx_port.h **** #endif
 328:../Middlewares/threadx/ports/cortex_m55/gnu/inc/tx_port.h **** #define TX_PORT_SPECIFIC_PRE_SCHEDULER_INITIALIZATION               do {__iar_Initlocks();} while(0
 329:../Middlewares/threadx/ports/cortex_m55/gnu/inc/tx_port.h **** 
 330:../Middlewares/threadx/ports/cortex_m55/gnu/inc/tx_port.h **** #else   /* No IAR library support. */
 331:../Middlewares/threadx/ports/cortex_m55/gnu/inc/tx_port.h **** #define TX_THREAD_CREATE_EXTENSION(thread_ptr)
 332:../Middlewares/threadx/ports/cortex_m55/gnu/inc/tx_port.h **** #if !defined(TX_SINGLE_MODE_SECURE) && !defined(TX_SINGLE_MODE_NON_SECURE)
 333:../Middlewares/threadx/ports/cortex_m55/gnu/inc/tx_port.h **** #define TX_THREAD_DELETE_EXTENSION(thread_ptr)                      if(thread_ptr -> tx_thread_secu
 334:../Middlewares/threadx/ports/cortex_m55/gnu/inc/tx_port.h **** #else
 335:../Middlewares/threadx/ports/cortex_m55/gnu/inc/tx_port.h **** #define TX_THREAD_DELETE_EXTENSION(thread_ptr)
 336:../Middlewares/threadx/ports/cortex_m55/gnu/inc/tx_port.h **** #endif
 337:../Middlewares/threadx/ports/cortex_m55/gnu/inc/tx_port.h **** #endif  /* TX_ENABLE_IAR_LIBRARY_SUPPORT */
 338:../Middlewares/threadx/ports/cortex_m55/gnu/inc/tx_port.h **** 
 339:../Middlewares/threadx/ports/cortex_m55/gnu/inc/tx_port.h **** #if !defined(TX_SINGLE_MODE_SECURE) && !defined(TX_SINGLE_MODE_NON_SECURE)
 340:../Middlewares/threadx/ports/cortex_m55/gnu/inc/tx_port.h **** /* Define the size of the secure stack for the timer thread and use the extension to allocate the s
 341:../Middlewares/threadx/ports/cortex_m55/gnu/inc/tx_port.h **** #define TX_TIMER_THREAD_SECURE_STACK_SIZE       256
 342:../Middlewares/threadx/ports/cortex_m55/gnu/inc/tx_port.h **** #define TX_TIMER_INITIALIZE_EXTENSION(status)   _tx_thread_secure_stack_allocate(&_tx_timer_thread,
 343:../Middlewares/threadx/ports/cortex_m55/gnu/inc/tx_port.h **** #endif
 344:../Middlewares/threadx/ports/cortex_m55/gnu/inc/tx_port.h **** 
 345:../Middlewares/threadx/ports/cortex_m55/gnu/inc/tx_port.h **** 
 346:../Middlewares/threadx/ports/cortex_m55/gnu/inc/tx_port.h **** #if defined(__ARMVFP__) || defined(__ARM_PCS_VFP) || defined(__ARM_FP) || defined(__TARGET_FPU_VFP)
 347:../Middlewares/threadx/ports/cortex_m55/gnu/inc/tx_port.h **** 
 348:../Middlewares/threadx/ports/cortex_m55/gnu/inc/tx_port.h **** #ifdef TX_MISRA_ENABLE
 349:../Middlewares/threadx/ports/cortex_m55/gnu/inc/tx_port.h **** 
 350:../Middlewares/threadx/ports/cortex_m55/gnu/inc/tx_port.h **** ULONG  _tx_misra_control_get(void);
 351:../Middlewares/threadx/ports/cortex_m55/gnu/inc/tx_port.h **** void   _tx_misra_control_set(ULONG value);
 352:../Middlewares/threadx/ports/cortex_m55/gnu/inc/tx_port.h **** ULONG  _tx_misra_fpccr_get(void);
 353:../Middlewares/threadx/ports/cortex_m55/gnu/inc/tx_port.h **** void   _tx_misra_vfp_touch(void);
 354:../Middlewares/threadx/ports/cortex_m55/gnu/inc/tx_port.h **** 
 355:../Middlewares/threadx/ports/cortex_m55/gnu/inc/tx_port.h **** #else   /* TX_MISRA_ENABLE not defined */
 356:../Middlewares/threadx/ports/cortex_m55/gnu/inc/tx_port.h **** 
 357:../Middlewares/threadx/ports/cortex_m55/gnu/inc/tx_port.h **** #ifdef __GNUC__ /* GCC and ARM Compiler 6 */
 358:../Middlewares/threadx/ports/cortex_m55/gnu/inc/tx_port.h **** 
 359:../Middlewares/threadx/ports/cortex_m55/gnu/inc/tx_port.h **** __attribute__( ( always_inline ) ) static inline ULONG _tx_control_get(void)
 360:../Middlewares/threadx/ports/cortex_m55/gnu/inc/tx_port.h **** {
 361:../Middlewares/threadx/ports/cortex_m55/gnu/inc/tx_port.h **** ULONG  control_value;
 362:../Middlewares/threadx/ports/cortex_m55/gnu/inc/tx_port.h **** 
 363:../Middlewares/threadx/ports/cortex_m55/gnu/inc/tx_port.h ****     __asm__ volatile (" MRS  %0,CONTROL ": "=r" (control_value) );
 364:../Middlewares/threadx/ports/cortex_m55/gnu/inc/tx_port.h ****     return(control_value);
 365:../Middlewares/threadx/ports/cortex_m55/gnu/inc/tx_port.h **** }
 366:../Middlewares/threadx/ports/cortex_m55/gnu/inc/tx_port.h **** 
 367:../Middlewares/threadx/ports/cortex_m55/gnu/inc/tx_port.h **** __attribute__( ( always_inline ) ) static inline void _tx_control_set(ULONG control_value)
 368:../Middlewares/threadx/ports/cortex_m55/gnu/inc/tx_port.h **** {
 369:../Middlewares/threadx/ports/cortex_m55/gnu/inc/tx_port.h ****     __asm__ volatile (" MSR  CONTROL,%0": : "r" (control_value): "memory" );
 370:../Middlewares/threadx/ports/cortex_m55/gnu/inc/tx_port.h **** }
 371:../Middlewares/threadx/ports/cortex_m55/gnu/inc/tx_port.h **** 
 372:../Middlewares/threadx/ports/cortex_m55/gnu/inc/tx_port.h **** #endif  /* __GNUC__ */
 373:../Middlewares/threadx/ports/cortex_m55/gnu/inc/tx_port.h **** 
 374:../Middlewares/threadx/ports/cortex_m55/gnu/inc/tx_port.h **** /* Touch VFP register in order to flush. Works for AC6/GCC/IAR compilers. */
 375:../Middlewares/threadx/ports/cortex_m55/gnu/inc/tx_port.h **** #define TX_VFP_TOUCH()  __asm__ volatile ("VMOV.F32 s0, s0");
 376:../Middlewares/threadx/ports/cortex_m55/gnu/inc/tx_port.h **** 
ARM GAS  /tmp/ccsStdKY.s 			page 11


 377:../Middlewares/threadx/ports/cortex_m55/gnu/inc/tx_port.h **** #endif  /* TX_MISRA_ENABLE */
 378:../Middlewares/threadx/ports/cortex_m55/gnu/inc/tx_port.h **** 
 379:../Middlewares/threadx/ports/cortex_m55/gnu/inc/tx_port.h **** /* A completed thread falls into _thread_shell_entry and we can simply deactivate the FPU via CONTR
 380:../Middlewares/threadx/ports/cortex_m55/gnu/inc/tx_port.h ****    in order to ensure no lazy stacking will occur. */
 381:../Middlewares/threadx/ports/cortex_m55/gnu/inc/tx_port.h **** 
 382:../Middlewares/threadx/ports/cortex_m55/gnu/inc/tx_port.h **** #ifndef TX_MISRA_ENABLE
 383:../Middlewares/threadx/ports/cortex_m55/gnu/inc/tx_port.h **** 
 384:../Middlewares/threadx/ports/cortex_m55/gnu/inc/tx_port.h **** #define TX_THREAD_COMPLETED_EXTENSION(thread_ptr)   {                                              
 385:../Middlewares/threadx/ports/cortex_m55/gnu/inc/tx_port.h ****                                                     ULONG  _tx_vfp_state;                          
 386:../Middlewares/threadx/ports/cortex_m55/gnu/inc/tx_port.h ****                                                         _tx_vfp_state = _tx_control_get();         
 387:../Middlewares/threadx/ports/cortex_m55/gnu/inc/tx_port.h ****                                                         _tx_vfp_state = _tx_vfp_state & ~((ULONG) 0
 388:../Middlewares/threadx/ports/cortex_m55/gnu/inc/tx_port.h ****                                                         _tx_control_set(_tx_vfp_state);            
 389:../Middlewares/threadx/ports/cortex_m55/gnu/inc/tx_port.h ****                                                     }
 390:../Middlewares/threadx/ports/cortex_m55/gnu/inc/tx_port.h **** #else
 391:../Middlewares/threadx/ports/cortex_m55/gnu/inc/tx_port.h **** 
 392:../Middlewares/threadx/ports/cortex_m55/gnu/inc/tx_port.h **** #define TX_THREAD_COMPLETED_EXTENSION(thread_ptr)   {                                              
 393:../Middlewares/threadx/ports/cortex_m55/gnu/inc/tx_port.h ****                                                     ULONG  _tx_vfp_state;                          
 394:../Middlewares/threadx/ports/cortex_m55/gnu/inc/tx_port.h ****                                                         _tx_vfp_state = _tx_misra_control_get();   
 395:../Middlewares/threadx/ports/cortex_m55/gnu/inc/tx_port.h ****                                                         _tx_vfp_state = _tx_vfp_state & ~((ULONG) 0
 396:../Middlewares/threadx/ports/cortex_m55/gnu/inc/tx_port.h ****                                                         _tx_misra_control_set(_tx_vfp_state);      
 397:../Middlewares/threadx/ports/cortex_m55/gnu/inc/tx_port.h ****                                                     }
 398:../Middlewares/threadx/ports/cortex_m55/gnu/inc/tx_port.h **** #endif
 399:../Middlewares/threadx/ports/cortex_m55/gnu/inc/tx_port.h **** 
 400:../Middlewares/threadx/ports/cortex_m55/gnu/inc/tx_port.h **** /* A thread can be terminated by another thread, so we first check if it's self-terminating and not
 401:../Middlewares/threadx/ports/cortex_m55/gnu/inc/tx_port.h ****    If so, deactivate the FPU via CONTROL.FPCA. Otherwise we are in an interrupt or another thread i
 402:../Middlewares/threadx/ports/cortex_m55/gnu/inc/tx_port.h ****    this one, so if the FPCCR.LSPACT bit is set, we need to save the CONTROL.FPCA state, touch the F
 403:../Middlewares/threadx/ports/cortex_m55/gnu/inc/tx_port.h ****    the lazy FPU save, then restore the CONTROL.FPCA state. */
 404:../Middlewares/threadx/ports/cortex_m55/gnu/inc/tx_port.h **** 
 405:../Middlewares/threadx/ports/cortex_m55/gnu/inc/tx_port.h **** #ifndef TX_MISRA_ENABLE
 406:../Middlewares/threadx/ports/cortex_m55/gnu/inc/tx_port.h **** 
 407:../Middlewares/threadx/ports/cortex_m55/gnu/inc/tx_port.h **** #define TX_THREAD_TERMINATED_EXTENSION(thread_ptr)  {                                              
 408:../Middlewares/threadx/ports/cortex_m55/gnu/inc/tx_port.h ****                                                     ULONG  _tx_system_state;                       
 409:../Middlewares/threadx/ports/cortex_m55/gnu/inc/tx_port.h ****                                                         _tx_system_state = TX_THREAD_GET_SYSTEM_STA
 410:../Middlewares/threadx/ports/cortex_m55/gnu/inc/tx_port.h ****                                                         if ((_tx_system_state == ((ULONG) 0)) && ((
 411:../Middlewares/threadx/ports/cortex_m55/gnu/inc/tx_port.h ****                                                         {                                          
 412:../Middlewares/threadx/ports/cortex_m55/gnu/inc/tx_port.h ****                                                         ULONG  _tx_vfp_state;                      
 413:../Middlewares/threadx/ports/cortex_m55/gnu/inc/tx_port.h ****                                                             _tx_vfp_state = _tx_control_get();     
 414:../Middlewares/threadx/ports/cortex_m55/gnu/inc/tx_port.h ****                                                             _tx_vfp_state = _tx_vfp_state & ~((ULON
 415:../Middlewares/threadx/ports/cortex_m55/gnu/inc/tx_port.h ****                                                             _tx_control_set(_tx_vfp_state);        
 416:../Middlewares/threadx/ports/cortex_m55/gnu/inc/tx_port.h ****                                                         }                                          
 417:../Middlewares/threadx/ports/cortex_m55/gnu/inc/tx_port.h ****                                                         else                                       
 418:../Middlewares/threadx/ports/cortex_m55/gnu/inc/tx_port.h ****                                                         {                                          
 419:../Middlewares/threadx/ports/cortex_m55/gnu/inc/tx_port.h ****                                                         ULONG  _tx_fpccr;                          
 420:../Middlewares/threadx/ports/cortex_m55/gnu/inc/tx_port.h ****                                                             _tx_fpccr = *((volatile ULONG *) 0xE000
 421:../Middlewares/threadx/ports/cortex_m55/gnu/inc/tx_port.h ****                                                             _tx_fpccr = _tx_fpccr & ((ULONG) 0x01);
 422:../Middlewares/threadx/ports/cortex_m55/gnu/inc/tx_port.h ****                                                             if (_tx_fpccr == ((ULONG) 0x01))       
 423:../Middlewares/threadx/ports/cortex_m55/gnu/inc/tx_port.h ****                                                             {                                      
 424:../Middlewares/threadx/ports/cortex_m55/gnu/inc/tx_port.h ****                                                             ULONG _tx_vfp_state;                   
 425:../Middlewares/threadx/ports/cortex_m55/gnu/inc/tx_port.h ****                                                                 _tx_vfp_state = _tx_control_get(); 
 426:../Middlewares/threadx/ports/cortex_m55/gnu/inc/tx_port.h ****                                                                 _tx_vfp_state = _tx_vfp_state & ((U
 427:../Middlewares/threadx/ports/cortex_m55/gnu/inc/tx_port.h ****                                                                 TX_VFP_TOUCH();                    
 428:../Middlewares/threadx/ports/cortex_m55/gnu/inc/tx_port.h ****                                                                 if (_tx_vfp_state == ((ULONG) 0))  
 429:../Middlewares/threadx/ports/cortex_m55/gnu/inc/tx_port.h ****                                                                 {                                  
 430:../Middlewares/threadx/ports/cortex_m55/gnu/inc/tx_port.h ****                                                                     _tx_vfp_state = _tx_control_get
 431:../Middlewares/threadx/ports/cortex_m55/gnu/inc/tx_port.h ****                                                                     _tx_vfp_state = _tx_vfp_state &
 432:../Middlewares/threadx/ports/cortex_m55/gnu/inc/tx_port.h ****                                                                     _tx_control_set(_tx_vfp_state);
 433:../Middlewares/threadx/ports/cortex_m55/gnu/inc/tx_port.h ****                                                                 }                                  
ARM GAS  /tmp/ccsStdKY.s 			page 12


 434:../Middlewares/threadx/ports/cortex_m55/gnu/inc/tx_port.h ****                                                             }                                      
 435:../Middlewares/threadx/ports/cortex_m55/gnu/inc/tx_port.h ****                                                         }                                          
 436:../Middlewares/threadx/ports/cortex_m55/gnu/inc/tx_port.h ****                                                     }
 437:../Middlewares/threadx/ports/cortex_m55/gnu/inc/tx_port.h **** #else
 438:../Middlewares/threadx/ports/cortex_m55/gnu/inc/tx_port.h **** 
 439:../Middlewares/threadx/ports/cortex_m55/gnu/inc/tx_port.h **** #define TX_THREAD_TERMINATED_EXTENSION(thread_ptr)  {                                              
 440:../Middlewares/threadx/ports/cortex_m55/gnu/inc/tx_port.h ****                                                     ULONG  _tx_system_state;                       
 441:../Middlewares/threadx/ports/cortex_m55/gnu/inc/tx_port.h ****                                                         _tx_system_state = TX_THREAD_GET_SYSTEM_STA
 442:../Middlewares/threadx/ports/cortex_m55/gnu/inc/tx_port.h ****                                                         if ((_tx_system_state == ((ULONG) 0)) && ((
 443:../Middlewares/threadx/ports/cortex_m55/gnu/inc/tx_port.h ****                                                         {                                          
 444:../Middlewares/threadx/ports/cortex_m55/gnu/inc/tx_port.h ****                                                         ULONG  _tx_vfp_state;                      
 445:../Middlewares/threadx/ports/cortex_m55/gnu/inc/tx_port.h ****                                                             _tx_vfp_state = _tx_misra_control_get()
 446:../Middlewares/threadx/ports/cortex_m55/gnu/inc/tx_port.h ****                                                             _tx_vfp_state = _tx_vfp_state & ~((ULON
 447:../Middlewares/threadx/ports/cortex_m55/gnu/inc/tx_port.h ****                                                             _tx_misra_control_set(_tx_vfp_state);  
 448:../Middlewares/threadx/ports/cortex_m55/gnu/inc/tx_port.h ****                                                         }                                          
 449:../Middlewares/threadx/ports/cortex_m55/gnu/inc/tx_port.h ****                                                         else                                       
 450:../Middlewares/threadx/ports/cortex_m55/gnu/inc/tx_port.h ****                                                         {                                          
 451:../Middlewares/threadx/ports/cortex_m55/gnu/inc/tx_port.h ****                                                         ULONG  _tx_fpccr;                          
 452:../Middlewares/threadx/ports/cortex_m55/gnu/inc/tx_port.h ****                                                             _tx_fpccr = _tx_misra_fpccr_get();     
 453:../Middlewares/threadx/ports/cortex_m55/gnu/inc/tx_port.h ****                                                             _tx_fpccr = _tx_fpccr & ((ULONG) 0x01);
 454:../Middlewares/threadx/ports/cortex_m55/gnu/inc/tx_port.h ****                                                             if (_tx_fpccr == ((ULONG) 0x01))       
 455:../Middlewares/threadx/ports/cortex_m55/gnu/inc/tx_port.h ****                                                             {                                      
 456:../Middlewares/threadx/ports/cortex_m55/gnu/inc/tx_port.h ****                                                             ULONG _tx_vfp_state;                   
 457:../Middlewares/threadx/ports/cortex_m55/gnu/inc/tx_port.h ****                                                                 _tx_vfp_state = _tx_misra_control_g
 458:../Middlewares/threadx/ports/cortex_m55/gnu/inc/tx_port.h ****                                                                 _tx_vfp_state = _tx_vfp_state & ((U
 459:../Middlewares/threadx/ports/cortex_m55/gnu/inc/tx_port.h ****                                                                 _tx_misra_vfp_touch();             
 460:../Middlewares/threadx/ports/cortex_m55/gnu/inc/tx_port.h ****                                                                 if (_tx_vfp_state == ((ULONG) 0))  
 461:../Middlewares/threadx/ports/cortex_m55/gnu/inc/tx_port.h ****                                                                 {                                  
 462:../Middlewares/threadx/ports/cortex_m55/gnu/inc/tx_port.h ****                                                                     _tx_vfp_state = _tx_misra_contr
 463:../Middlewares/threadx/ports/cortex_m55/gnu/inc/tx_port.h ****                                                                     _tx_vfp_state = _tx_vfp_state &
 464:../Middlewares/threadx/ports/cortex_m55/gnu/inc/tx_port.h ****                                                                     _tx_misra_control_set(_tx_vfp_s
 465:../Middlewares/threadx/ports/cortex_m55/gnu/inc/tx_port.h ****                                                                 }                                  
 466:../Middlewares/threadx/ports/cortex_m55/gnu/inc/tx_port.h ****                                                             }                                      
 467:../Middlewares/threadx/ports/cortex_m55/gnu/inc/tx_port.h ****                                                         }                                          
 468:../Middlewares/threadx/ports/cortex_m55/gnu/inc/tx_port.h ****                                                     }
 469:../Middlewares/threadx/ports/cortex_m55/gnu/inc/tx_port.h **** #endif
 470:../Middlewares/threadx/ports/cortex_m55/gnu/inc/tx_port.h **** 
 471:../Middlewares/threadx/ports/cortex_m55/gnu/inc/tx_port.h **** #else   /* No VFP in use */
 472:../Middlewares/threadx/ports/cortex_m55/gnu/inc/tx_port.h **** 
 473:../Middlewares/threadx/ports/cortex_m55/gnu/inc/tx_port.h **** #define TX_THREAD_COMPLETED_EXTENSION(thread_ptr)
 474:../Middlewares/threadx/ports/cortex_m55/gnu/inc/tx_port.h **** #define TX_THREAD_TERMINATED_EXTENSION(thread_ptr)
 475:../Middlewares/threadx/ports/cortex_m55/gnu/inc/tx_port.h **** 
 476:../Middlewares/threadx/ports/cortex_m55/gnu/inc/tx_port.h **** #endif  /* defined(__ARMVFP__) || defined(__ARM_PCS_VFP) || defined(__ARM_FP) || defined(__TARGET_F
 477:../Middlewares/threadx/ports/cortex_m55/gnu/inc/tx_port.h **** 
 478:../Middlewares/threadx/ports/cortex_m55/gnu/inc/tx_port.h **** 
 479:../Middlewares/threadx/ports/cortex_m55/gnu/inc/tx_port.h **** /* Define the ThreadX object creation extensions for the remaining objects.  */
 480:../Middlewares/threadx/ports/cortex_m55/gnu/inc/tx_port.h **** 
 481:../Middlewares/threadx/ports/cortex_m55/gnu/inc/tx_port.h **** #define TX_BLOCK_POOL_CREATE_EXTENSION(pool_ptr)
 482:../Middlewares/threadx/ports/cortex_m55/gnu/inc/tx_port.h **** #define TX_BYTE_POOL_CREATE_EXTENSION(pool_ptr)
 483:../Middlewares/threadx/ports/cortex_m55/gnu/inc/tx_port.h **** #define TX_EVENT_FLAGS_GROUP_CREATE_EXTENSION(group_ptr)
 484:../Middlewares/threadx/ports/cortex_m55/gnu/inc/tx_port.h **** #define TX_MUTEX_CREATE_EXTENSION(mutex_ptr)
 485:../Middlewares/threadx/ports/cortex_m55/gnu/inc/tx_port.h **** #define TX_QUEUE_CREATE_EXTENSION(queue_ptr)
 486:../Middlewares/threadx/ports/cortex_m55/gnu/inc/tx_port.h **** #define TX_SEMAPHORE_CREATE_EXTENSION(semaphore_ptr)
 487:../Middlewares/threadx/ports/cortex_m55/gnu/inc/tx_port.h **** #define TX_TIMER_CREATE_EXTENSION(timer_ptr)
 488:../Middlewares/threadx/ports/cortex_m55/gnu/inc/tx_port.h **** 
 489:../Middlewares/threadx/ports/cortex_m55/gnu/inc/tx_port.h **** 
 490:../Middlewares/threadx/ports/cortex_m55/gnu/inc/tx_port.h **** /* Define the ThreadX object deletion extensions for the remaining objects.  */
ARM GAS  /tmp/ccsStdKY.s 			page 13


 491:../Middlewares/threadx/ports/cortex_m55/gnu/inc/tx_port.h **** 
 492:../Middlewares/threadx/ports/cortex_m55/gnu/inc/tx_port.h **** #define TX_BLOCK_POOL_DELETE_EXTENSION(pool_ptr)
 493:../Middlewares/threadx/ports/cortex_m55/gnu/inc/tx_port.h **** #define TX_BYTE_POOL_DELETE_EXTENSION(pool_ptr)
 494:../Middlewares/threadx/ports/cortex_m55/gnu/inc/tx_port.h **** #define TX_EVENT_FLAGS_GROUP_DELETE_EXTENSION(group_ptr)
 495:../Middlewares/threadx/ports/cortex_m55/gnu/inc/tx_port.h **** #define TX_MUTEX_DELETE_EXTENSION(mutex_ptr)
 496:../Middlewares/threadx/ports/cortex_m55/gnu/inc/tx_port.h **** #define TX_QUEUE_DELETE_EXTENSION(queue_ptr)
 497:../Middlewares/threadx/ports/cortex_m55/gnu/inc/tx_port.h **** #define TX_SEMAPHORE_DELETE_EXTENSION(semaphore_ptr)
 498:../Middlewares/threadx/ports/cortex_m55/gnu/inc/tx_port.h **** #define TX_TIMER_DELETE_EXTENSION(timer_ptr)
 499:../Middlewares/threadx/ports/cortex_m55/gnu/inc/tx_port.h **** 
 500:../Middlewares/threadx/ports/cortex_m55/gnu/inc/tx_port.h **** 
 501:../Middlewares/threadx/ports/cortex_m55/gnu/inc/tx_port.h **** /* Define the get system state macro.  */
 502:../Middlewares/threadx/ports/cortex_m55/gnu/inc/tx_port.h **** 
 503:../Middlewares/threadx/ports/cortex_m55/gnu/inc/tx_port.h **** #ifndef TX_THREAD_GET_SYSTEM_STATE
 504:../Middlewares/threadx/ports/cortex_m55/gnu/inc/tx_port.h **** #ifndef TX_MISRA_ENABLE
 505:../Middlewares/threadx/ports/cortex_m55/gnu/inc/tx_port.h **** 
 506:../Middlewares/threadx/ports/cortex_m55/gnu/inc/tx_port.h **** #if defined(__GNUC__) /* GCC and AC6 */
 507:../Middlewares/threadx/ports/cortex_m55/gnu/inc/tx_port.h **** __attribute__( ( always_inline ) ) static inline UINT _tx_ipsr_get(void)
 508:../Middlewares/threadx/ports/cortex_m55/gnu/inc/tx_port.h **** {
 509:../Middlewares/threadx/ports/cortex_m55/gnu/inc/tx_port.h **** UINT ipsr_value;
 510:../Middlewares/threadx/ports/cortex_m55/gnu/inc/tx_port.h ****     __asm__ volatile (" MRS  %0,IPSR ": "=r" (ipsr_value) );
 511:../Middlewares/threadx/ports/cortex_m55/gnu/inc/tx_port.h ****     return(ipsr_value);
 512:../Middlewares/threadx/ports/cortex_m55/gnu/inc/tx_port.h **** }
 513:../Middlewares/threadx/ports/cortex_m55/gnu/inc/tx_port.h **** #endif  /* GCC and AC6 IPSR_get function. */
 514:../Middlewares/threadx/ports/cortex_m55/gnu/inc/tx_port.h **** 
 515:../Middlewares/threadx/ports/cortex_m55/gnu/inc/tx_port.h **** #define TX_THREAD_GET_SYSTEM_STATE()        (_tx_thread_system_state | _tx_ipsr_get())
 516:../Middlewares/threadx/ports/cortex_m55/gnu/inc/tx_port.h **** 
 517:../Middlewares/threadx/ports/cortex_m55/gnu/inc/tx_port.h **** #else   /* TX_MISRA_ENABLE is defined, use MISRA function. */
 518:../Middlewares/threadx/ports/cortex_m55/gnu/inc/tx_port.h **** ULONG   _tx_misra_ipsr_get(VOID);
 519:../Middlewares/threadx/ports/cortex_m55/gnu/inc/tx_port.h **** #define TX_THREAD_GET_SYSTEM_STATE()        (_tx_thread_system_state | _tx_misra_ipsr_get())
 520:../Middlewares/threadx/ports/cortex_m55/gnu/inc/tx_port.h **** #endif  /* TX_MISRA_ENABLE */
 521:../Middlewares/threadx/ports/cortex_m55/gnu/inc/tx_port.h **** #endif  /* TX_THREAD_GET_SYSTEM_STATE */
 522:../Middlewares/threadx/ports/cortex_m55/gnu/inc/tx_port.h **** 
 523:../Middlewares/threadx/ports/cortex_m55/gnu/inc/tx_port.h **** 
 524:../Middlewares/threadx/ports/cortex_m55/gnu/inc/tx_port.h **** /* Define the check for whether or not to call the _tx_thread_system_return function.  A non-zero v
 525:../Middlewares/threadx/ports/cortex_m55/gnu/inc/tx_port.h ****    indicates that _tx_thread_system_return should not be called. This overrides the definition in t
 526:../Middlewares/threadx/ports/cortex_m55/gnu/inc/tx_port.h ****    for Cortex-M since so we don't waste time checking the _tx_thread_system_state variable that is 
 527:../Middlewares/threadx/ports/cortex_m55/gnu/inc/tx_port.h ****    zero after initialization for Cortex-M ports. */
 528:../Middlewares/threadx/ports/cortex_m55/gnu/inc/tx_port.h **** 
 529:../Middlewares/threadx/ports/cortex_m55/gnu/inc/tx_port.h **** #ifndef TX_THREAD_SYSTEM_RETURN_CHECK
 530:../Middlewares/threadx/ports/cortex_m55/gnu/inc/tx_port.h **** #define TX_THREAD_SYSTEM_RETURN_CHECK(c)    (c) = ((ULONG) _tx_thread_preempt_disable);
 531:../Middlewares/threadx/ports/cortex_m55/gnu/inc/tx_port.h **** #endif
 532:../Middlewares/threadx/ports/cortex_m55/gnu/inc/tx_port.h **** 
 533:../Middlewares/threadx/ports/cortex_m55/gnu/inc/tx_port.h **** #if !defined(TX_SINGLE_MODE_SECURE) && !defined(TX_SINGLE_MODE_NON_SECURE)
 534:../Middlewares/threadx/ports/cortex_m55/gnu/inc/tx_port.h **** /* Initialize secure stacks for threads calling secure functions. */
 535:../Middlewares/threadx/ports/cortex_m55/gnu/inc/tx_port.h **** extern void    _tx_thread_secure_stack_initialize(void);
 536:../Middlewares/threadx/ports/cortex_m55/gnu/inc/tx_port.h **** #define TX_PORT_SPECIFIC_PRE_INITIALIZATION             _tx_thread_secure_stack_initialize();
 537:../Middlewares/threadx/ports/cortex_m55/gnu/inc/tx_port.h **** #endif
 538:../Middlewares/threadx/ports/cortex_m55/gnu/inc/tx_port.h **** 
 539:../Middlewares/threadx/ports/cortex_m55/gnu/inc/tx_port.h **** /* Define the macro to ensure _tx_thread_preempt_disable is set early in initialization in order to
 540:../Middlewares/threadx/ports/cortex_m55/gnu/inc/tx_port.h ****    prevent early scheduling on Cortex-M parts.  */
 541:../Middlewares/threadx/ports/cortex_m55/gnu/inc/tx_port.h **** 
 542:../Middlewares/threadx/ports/cortex_m55/gnu/inc/tx_port.h **** #define TX_PORT_SPECIFIC_POST_INITIALIZATION    _tx_thread_preempt_disable++;
 543:../Middlewares/threadx/ports/cortex_m55/gnu/inc/tx_port.h **** 
 544:../Middlewares/threadx/ports/cortex_m55/gnu/inc/tx_port.h **** 
 545:../Middlewares/threadx/ports/cortex_m55/gnu/inc/tx_port.h **** 
 546:../Middlewares/threadx/ports/cortex_m55/gnu/inc/tx_port.h **** 
 547:../Middlewares/threadx/ports/cortex_m55/gnu/inc/tx_port.h **** #ifndef TX_DISABLE_INLINE
ARM GAS  /tmp/ccsStdKY.s 			page 14


 548:../Middlewares/threadx/ports/cortex_m55/gnu/inc/tx_port.h **** 
 549:../Middlewares/threadx/ports/cortex_m55/gnu/inc/tx_port.h **** /* Define the TX_LOWEST_SET_BIT_CALCULATE macro for each compiler. */
 550:../Middlewares/threadx/ports/cortex_m55/gnu/inc/tx_port.h **** #ifdef __ICCARM__       /* IAR Compiler */
 551:../Middlewares/threadx/ports/cortex_m55/gnu/inc/tx_port.h **** #define TX_LOWEST_SET_BIT_CALCULATE(m, b)       (b) = (UINT) __CLZ(__RBIT((m)));
 552:../Middlewares/threadx/ports/cortex_m55/gnu/inc/tx_port.h **** #elif defined(__GNUC__) /* GCC and AC6 Compiler */
 553:../Middlewares/threadx/ports/cortex_m55/gnu/inc/tx_port.h **** #define TX_LOWEST_SET_BIT_CALCULATE(m, b)       __asm__ volatile (" RBIT %0,%1 ": "=r" (m) : "r" (m
 554:../Middlewares/threadx/ports/cortex_m55/gnu/inc/tx_port.h ****                                                 __asm__ volatile (" CLZ  %0,%1 ": "=r" (b) : "r" (m
 555:../Middlewares/threadx/ports/cortex_m55/gnu/inc/tx_port.h **** #else
 556:../Middlewares/threadx/ports/cortex_m55/gnu/inc/tx_port.h **** #error "Compiler not supported."
 557:../Middlewares/threadx/ports/cortex_m55/gnu/inc/tx_port.h **** #endif
 558:../Middlewares/threadx/ports/cortex_m55/gnu/inc/tx_port.h **** 
 559:../Middlewares/threadx/ports/cortex_m55/gnu/inc/tx_port.h **** 
 560:../Middlewares/threadx/ports/cortex_m55/gnu/inc/tx_port.h **** 
 561:../Middlewares/threadx/ports/cortex_m55/gnu/inc/tx_port.h **** /* Define the interrupt disable/restore macros. */
 562:../Middlewares/threadx/ports/cortex_m55/gnu/inc/tx_port.h **** 
 563:../Middlewares/threadx/ports/cortex_m55/gnu/inc/tx_port.h **** __attribute__( ( always_inline ) ) static inline UINT __get_interrupt_posture(void)
 564:../Middlewares/threadx/ports/cortex_m55/gnu/inc/tx_port.h **** {
 565:../Middlewares/threadx/ports/cortex_m55/gnu/inc/tx_port.h **** UINT posture;
 566:../Middlewares/threadx/ports/cortex_m55/gnu/inc/tx_port.h **** #ifdef TX_PORT_USE_BASEPRI
 567:../Middlewares/threadx/ports/cortex_m55/gnu/inc/tx_port.h ****     __asm__ volatile ("MRS  %0, BASEPRI ": "=r" (posture));
 568:../Middlewares/threadx/ports/cortex_m55/gnu/inc/tx_port.h **** #else
 569:../Middlewares/threadx/ports/cortex_m55/gnu/inc/tx_port.h ****     __asm__ volatile ("MRS  %0, PRIMASK ": "=r" (posture));
 570:../Middlewares/threadx/ports/cortex_m55/gnu/inc/tx_port.h **** #endif
 571:../Middlewares/threadx/ports/cortex_m55/gnu/inc/tx_port.h ****     return(posture);
 572:../Middlewares/threadx/ports/cortex_m55/gnu/inc/tx_port.h **** }
 573:../Middlewares/threadx/ports/cortex_m55/gnu/inc/tx_port.h **** 
 574:../Middlewares/threadx/ports/cortex_m55/gnu/inc/tx_port.h **** #ifdef TX_PORT_USE_BASEPRI
 575:../Middlewares/threadx/ports/cortex_m55/gnu/inc/tx_port.h **** __attribute__( ( always_inline ) ) static inline void __set_basepri_value(UINT basepri_value)
 576:../Middlewares/threadx/ports/cortex_m55/gnu/inc/tx_port.h **** {
 577:../Middlewares/threadx/ports/cortex_m55/gnu/inc/tx_port.h ****     __asm__ volatile ("MSR  BASEPRI,%0 ": : "r" (basepri_value));
 578:../Middlewares/threadx/ports/cortex_m55/gnu/inc/tx_port.h **** }
 579:../Middlewares/threadx/ports/cortex_m55/gnu/inc/tx_port.h **** #else
 580:../Middlewares/threadx/ports/cortex_m55/gnu/inc/tx_port.h **** __attribute__( ( always_inline ) ) static inline void __enable_interrupts(void)
 581:../Middlewares/threadx/ports/cortex_m55/gnu/inc/tx_port.h **** {
 582:../Middlewares/threadx/ports/cortex_m55/gnu/inc/tx_port.h ****     __asm__ volatile ("CPSIE  i": : : "memory");
 583:../Middlewares/threadx/ports/cortex_m55/gnu/inc/tx_port.h **** }
 584:../Middlewares/threadx/ports/cortex_m55/gnu/inc/tx_port.h **** #endif
 585:../Middlewares/threadx/ports/cortex_m55/gnu/inc/tx_port.h **** 
 586:../Middlewares/threadx/ports/cortex_m55/gnu/inc/tx_port.h **** __attribute__( ( always_inline ) ) static inline void __restore_interrupt(UINT int_posture)
 587:../Middlewares/threadx/ports/cortex_m55/gnu/inc/tx_port.h **** {
 588:../Middlewares/threadx/ports/cortex_m55/gnu/inc/tx_port.h **** #ifdef TX_PORT_USE_BASEPRI
 589:../Middlewares/threadx/ports/cortex_m55/gnu/inc/tx_port.h ****     __set_basepri_value(int_posture);
 590:../Middlewares/threadx/ports/cortex_m55/gnu/inc/tx_port.h **** #else
 591:../Middlewares/threadx/ports/cortex_m55/gnu/inc/tx_port.h ****     __asm__ volatile ("MSR  PRIMASK,%0": : "r" (int_posture): "memory");
 592:../Middlewares/threadx/ports/cortex_m55/gnu/inc/tx_port.h **** #endif
 593:../Middlewares/threadx/ports/cortex_m55/gnu/inc/tx_port.h **** }
 594:../Middlewares/threadx/ports/cortex_m55/gnu/inc/tx_port.h **** 
 595:../Middlewares/threadx/ports/cortex_m55/gnu/inc/tx_port.h **** __attribute__( ( always_inline ) ) static inline UINT __disable_interrupts(void)
  77              		.loc 2 595 55 view .LVU20
  78              	.LBB101:
 596:../Middlewares/threadx/ports/cortex_m55/gnu/inc/tx_port.h **** {
 597:../Middlewares/threadx/ports/cortex_m55/gnu/inc/tx_port.h **** UINT int_posture;
  79              		.loc 2 597 1 view .LVU21
 598:../Middlewares/threadx/ports/cortex_m55/gnu/inc/tx_port.h **** 
 599:../Middlewares/threadx/ports/cortex_m55/gnu/inc/tx_port.h ****     int_posture = __get_interrupt_posture();
  80              		.loc 2 599 5 view .LVU22
  81              	.LBB102:
ARM GAS  /tmp/ccsStdKY.s 			page 15


  82              	.LBI102:
 563:../Middlewares/threadx/ports/cortex_m55/gnu/inc/tx_port.h **** {
  83              		.loc 2 563 55 view .LVU23
  84              	.LBB103:
 565:../Middlewares/threadx/ports/cortex_m55/gnu/inc/tx_port.h **** #ifdef TX_PORT_USE_BASEPRI
  85              		.loc 2 565 1 view .LVU24
 569:../Middlewares/threadx/ports/cortex_m55/gnu/inc/tx_port.h **** #endif
  86              		.loc 2 569 5 view .LVU25
  87              		.syntax unified
  88              	@ 569 "../Middlewares/threadx/ports/cortex_m55/gnu/inc/tx_port.h" 1
  89 000e EFF31083 		MRS  r3, PRIMASK 
  90              	@ 0 "" 2
  91              	.LVL2:
 571:../Middlewares/threadx/ports/cortex_m55/gnu/inc/tx_port.h **** }
  92              		.loc 2 571 5 view .LVU26
 571:../Middlewares/threadx/ports/cortex_m55/gnu/inc/tx_port.h **** }
  93              		.loc 2 571 5 is_stmt 0 view .LVU27
  94              		.thumb
  95              		.syntax unified
  96              	.LBE103:
  97              	.LBE102:
 600:../Middlewares/threadx/ports/cortex_m55/gnu/inc/tx_port.h **** 
 601:../Middlewares/threadx/ports/cortex_m55/gnu/inc/tx_port.h **** #ifdef TX_PORT_USE_BASEPRI
 602:../Middlewares/threadx/ports/cortex_m55/gnu/inc/tx_port.h ****     __set_basepri_value(TX_PORT_BASEPRI);
 603:../Middlewares/threadx/ports/cortex_m55/gnu/inc/tx_port.h **** #else
 604:../Middlewares/threadx/ports/cortex_m55/gnu/inc/tx_port.h ****     __asm__ volatile ("CPSID i" : : : "memory");
  98              		.loc 2 604 5 is_stmt 1 view .LVU28
  99              		.syntax unified
 100              	@ 604 "../Middlewares/threadx/ports/cortex_m55/gnu/inc/tx_port.h" 1
 101 0012 72B6     		CPSID i
 102              	@ 0 "" 2
 605:../Middlewares/threadx/ports/cortex_m55/gnu/inc/tx_port.h **** #endif
 606:../Middlewares/threadx/ports/cortex_m55/gnu/inc/tx_port.h ****     return(int_posture);
 103              		.loc 2 606 5 view .LVU29
 104              	.LVL3:
 105              		.loc 2 606 5 is_stmt 0 view .LVU30
 106              		.thumb
 107              		.syntax unified
 108              	.LBE101:
 109              	.LBE100:
 110              		.loc 1 117 5 is_stmt 1 discriminator 1 view .LVU31
 111 0014 80B3     		cbz	r0, .L2
 112 0016 0168     		ldr	r1, [r0]
 113 0018 914A     		ldr	r2, .L79
 114 001a 9142     		cmp	r1, r2
 115 001c 2CD1     		bne	.L2
 116              		.loc 1 117 5 discriminator 3 view .LVU32
 117 001e 8268     		ldr	r2, [r0, #8]
 118 0020 D0F8A810 		ldr	r1, [r0, #168]
 119 0024 8A42     		cmp	r2, r1
 120              		.loc 1 117 5 discriminator 5 view .LVU33
 121 0026 38BF     		it	cc
 122 0028 C0F8A820 		strcc	r2, [r0, #168]
 123              		.loc 1 117 5 discriminator 7 view .LVU34
 124 002c C268     		ldr	r2, [r0, #12]
 125 002e 1168     		ldr	r1, [r2]
 126 0030 B1F1EF3F 		cmp	r1, #-269488145
ARM GAS  /tmp/ccsStdKY.s 			page 16


 127 0034 09D1     		bne	.L4
 128              		.loc 1 117 5 is_stmt 0 discriminator 9 view .LVU35
 129 0036 0169     		ldr	r1, [r0, #16]
 130 0038 D1F80110 		ldr	r1, [r1, #1]
 131 003c B1F1EF3F 		cmp	r1, #-269488145
 132 0040 03D1     		bne	.L4
 133              		.loc 1 117 5 discriminator 11 view .LVU36
 134 0042 D0F8A810 		ldr	r1, [r0, #168]
 135 0046 8A42     		cmp	r2, r1
 136 0048 07D9     		bls	.L5
 137              	.L4:
 138              		.loc 1 117 5 is_stmt 1 discriminator 12 view .LVU37
 139              	.LVL4:
 140              	.LBB104:
 141              	.LBI104:
 586:../Middlewares/threadx/ports/cortex_m55/gnu/inc/tx_port.h **** {
 142              		.loc 2 586 55 view .LVU38
 143              	.LBB105:
 591:../Middlewares/threadx/ports/cortex_m55/gnu/inc/tx_port.h **** #endif
 144              		.loc 2 591 5 view .LVU39
 145              		.syntax unified
 146              	@ 591 "../Middlewares/threadx/ports/cortex_m55/gnu/inc/tx_port.h" 1
 147 004a 83F31088 		MSR  PRIMASK,r3
 148              	@ 0 "" 2
 149              	.LVL5:
 591:../Middlewares/threadx/ports/cortex_m55/gnu/inc/tx_port.h **** #endif
 150              		.loc 2 591 5 is_stmt 0 view .LVU40
 151              		.thumb
 152              		.syntax unified
 153              	.LBE105:
 154              	.LBE104:
 155              		.loc 1 117 5 is_stmt 1 discriminator 1 view .LVU41
 156 004e 2046     		mov	r0, r4
 157              	.LVL6:
 158              		.loc 1 117 5 is_stmt 0 discriminator 1 view .LVU42
 159 0050 FFF7FEFF 		bl	_tx_thread_stack_error_handler
 160              	.LVL7:
 161              		.loc 1 117 5 is_stmt 1 discriminator 2 view .LVU43
 162              	.LBB106:
 163              	.LBI106:
 595:../Middlewares/threadx/ports/cortex_m55/gnu/inc/tx_port.h **** {
 164              		.loc 2 595 55 view .LVU44
 165              	.LBB107:
 597:../Middlewares/threadx/ports/cortex_m55/gnu/inc/tx_port.h **** 
 166              		.loc 2 597 1 view .LVU45
 599:../Middlewares/threadx/ports/cortex_m55/gnu/inc/tx_port.h **** 
 167              		.loc 2 599 5 view .LVU46
 168              	.LBB108:
 169              	.LBI108:
 563:../Middlewares/threadx/ports/cortex_m55/gnu/inc/tx_port.h **** {
 170              		.loc 2 563 55 view .LVU47
 171              	.LBB109:
 565:../Middlewares/threadx/ports/cortex_m55/gnu/inc/tx_port.h **** #ifdef TX_PORT_USE_BASEPRI
 172              		.loc 2 565 1 view .LVU48
 569:../Middlewares/threadx/ports/cortex_m55/gnu/inc/tx_port.h **** #endif
 173              		.loc 2 569 5 view .LVU49
 174              		.syntax unified
ARM GAS  /tmp/ccsStdKY.s 			page 17


 175              	@ 569 "../Middlewares/threadx/ports/cortex_m55/gnu/inc/tx_port.h" 1
 176 0054 EFF31083 		MRS  r3, PRIMASK 
 177              	@ 0 "" 2
 178              	.LVL8:
 571:../Middlewares/threadx/ports/cortex_m55/gnu/inc/tx_port.h **** }
 179              		.loc 2 571 5 view .LVU50
 571:../Middlewares/threadx/ports/cortex_m55/gnu/inc/tx_port.h **** }
 180              		.loc 2 571 5 is_stmt 0 view .LVU51
 181              		.thumb
 182              		.syntax unified
 183              	.LBE109:
 184              	.LBE108:
 604:../Middlewares/threadx/ports/cortex_m55/gnu/inc/tx_port.h **** #endif
 185              		.loc 2 604 5 is_stmt 1 view .LVU52
 186              		.syntax unified
 187              	@ 604 "../Middlewares/threadx/ports/cortex_m55/gnu/inc/tx_port.h" 1
 188 0058 72B6     		CPSID i
 189              	@ 0 "" 2
 190              		.loc 2 606 5 view .LVU53
 191              	.LVL9:
 192              		.thumb
 193              		.syntax unified
 194              	.L5:
 195              		.loc 2 606 5 is_stmt 0 view .LVU54
 196              	.LBE107:
 197              	.LBE106:
 198              		.loc 1 117 5 is_stmt 1 discriminator 14 view .LVU55
 199 005a D4F8A820 		ldr	r2, [r4, #168]
 200 005e 52F8042C 		ldr	r2, [r2, #-4]
 201 0062 B2F1EF3F 		cmp	r2, #-269488145
 202 0066 07D0     		beq	.L2
 203              		.loc 1 117 5 discriminator 15 view .LVU56
 204              	.LVL10:
 205              	.LBB110:
 206              	.LBI110:
 586:../Middlewares/threadx/ports/cortex_m55/gnu/inc/tx_port.h **** {
 207              		.loc 2 586 55 view .LVU57
 208              	.LBB111:
 591:../Middlewares/threadx/ports/cortex_m55/gnu/inc/tx_port.h **** #endif
 209              		.loc 2 591 5 view .LVU58
 210              		.syntax unified
 211              	@ 591 "../Middlewares/threadx/ports/cortex_m55/gnu/inc/tx_port.h" 1
 212 0068 83F31088 		MSR  PRIMASK,r3
 213              	@ 0 "" 2
 214              	.LVL11:
 591:../Middlewares/threadx/ports/cortex_m55/gnu/inc/tx_port.h **** #endif
 215              		.loc 2 591 5 is_stmt 0 view .LVU59
 216              		.thumb
 217              		.syntax unified
 218              	.LBE111:
 219              	.LBE110:
 220              		.loc 1 117 5 is_stmt 1 discriminator 1 view .LVU60
 221 006c 2046     		mov	r0, r4
 222 006e FFF7FEFF 		bl	_tx_thread_stack_analyze
 223              	.LVL12:
 224              		.loc 1 117 5 discriminator 2 view .LVU61
 225              	.LBB112:
ARM GAS  /tmp/ccsStdKY.s 			page 18


 226              	.LBI112:
 595:../Middlewares/threadx/ports/cortex_m55/gnu/inc/tx_port.h **** {
 227              		.loc 2 595 55 view .LVU62
 228              	.LBB113:
 597:../Middlewares/threadx/ports/cortex_m55/gnu/inc/tx_port.h **** 
 229              		.loc 2 597 1 view .LVU63
 599:../Middlewares/threadx/ports/cortex_m55/gnu/inc/tx_port.h **** 
 230              		.loc 2 599 5 view .LVU64
 231              	.LBB114:
 232              	.LBI114:
 563:../Middlewares/threadx/ports/cortex_m55/gnu/inc/tx_port.h **** {
 233              		.loc 2 563 55 view .LVU65
 234              	.LBB115:
 565:../Middlewares/threadx/ports/cortex_m55/gnu/inc/tx_port.h **** #ifdef TX_PORT_USE_BASEPRI
 235              		.loc 2 565 1 view .LVU66
 569:../Middlewares/threadx/ports/cortex_m55/gnu/inc/tx_port.h **** #endif
 236              		.loc 2 569 5 view .LVU67
 237              		.syntax unified
 238              	@ 569 "../Middlewares/threadx/ports/cortex_m55/gnu/inc/tx_port.h" 1
 239 0072 EFF31083 		MRS  r3, PRIMASK 
 240              	@ 0 "" 2
 241              	.LVL13:
 571:../Middlewares/threadx/ports/cortex_m55/gnu/inc/tx_port.h **** }
 242              		.loc 2 571 5 view .LVU68
 571:../Middlewares/threadx/ports/cortex_m55/gnu/inc/tx_port.h **** }
 243              		.loc 2 571 5 is_stmt 0 view .LVU69
 244              		.thumb
 245              		.syntax unified
 246              	.LBE115:
 247              	.LBE114:
 604:../Middlewares/threadx/ports/cortex_m55/gnu/inc/tx_port.h **** #endif
 248              		.loc 2 604 5 is_stmt 1 view .LVU70
 249              		.syntax unified
 250              	@ 604 "../Middlewares/threadx/ports/cortex_m55/gnu/inc/tx_port.h" 1
 251 0076 72B6     		CPSID i
 252              	@ 0 "" 2
 253              		.loc 2 606 5 view .LVU71
 254              	.LVL14:
 255              		.thumb
 256              		.syntax unified
 257              	.L2:
 258              		.loc 2 606 5 is_stmt 0 view .LVU72
 259              	.LBE113:
 260              	.LBE112:
 261              		.loc 1 117 5 is_stmt 1 discriminator 17 view .LVU73
 262              	.LBB116:
 263              	.LBI116:
 586:../Middlewares/threadx/ports/cortex_m55/gnu/inc/tx_port.h **** {
 264              		.loc 2 586 55 view .LVU74
 265              	.LBB117:
 591:../Middlewares/threadx/ports/cortex_m55/gnu/inc/tx_port.h **** #endif
 266              		.loc 2 591 5 view .LVU75
 267              		.syntax unified
 268              	@ 591 "../Middlewares/threadx/ports/cortex_m55/gnu/inc/tx_port.h" 1
 269 0078 83F31088 		MSR  PRIMASK,r3
 270              	@ 0 "" 2
 271              	.LVL15:
ARM GAS  /tmp/ccsStdKY.s 			page 19


 591:../Middlewares/threadx/ports/cortex_m55/gnu/inc/tx_port.h **** #endif
 272              		.loc 2 591 5 is_stmt 0 view .LVU76
 273              		.thumb
 274              		.syntax unified
 275              	.LBE117:
 276              	.LBE116:
 277              	.LBE99:
 118:../Middlewares/threadx/common/src/tx_thread_system_suspend.c **** #endif
 119:../Middlewares/threadx/common/src/tx_thread_system_suspend.c **** 
 120:../Middlewares/threadx/common/src/tx_thread_system_suspend.c ****     /* Lockout interrupts while the thread is being suspended.  */
 121:../Middlewares/threadx/common/src/tx_thread_system_suspend.c ****     TX_DISABLE
 278              		.loc 1 121 5 is_stmt 1 view .LVU77
 279              	.LBB118:
 280              	.LBI118:
 595:../Middlewares/threadx/ports/cortex_m55/gnu/inc/tx_port.h **** {
 281              		.loc 2 595 55 view .LVU78
 282              	.LBB119:
 597:../Middlewares/threadx/ports/cortex_m55/gnu/inc/tx_port.h **** 
 283              		.loc 2 597 1 view .LVU79
 599:../Middlewares/threadx/ports/cortex_m55/gnu/inc/tx_port.h **** 
 284              		.loc 2 599 5 view .LVU80
 285              	.LBB120:
 286              	.LBI120:
 563:../Middlewares/threadx/ports/cortex_m55/gnu/inc/tx_port.h **** {
 287              		.loc 2 563 55 view .LVU81
 288              	.LBB121:
 565:../Middlewares/threadx/ports/cortex_m55/gnu/inc/tx_port.h **** #ifdef TX_PORT_USE_BASEPRI
 289              		.loc 2 565 1 view .LVU82
 569:../Middlewares/threadx/ports/cortex_m55/gnu/inc/tx_port.h **** #endif
 290              		.loc 2 569 5 view .LVU83
 291              		.syntax unified
 292              	@ 569 "../Middlewares/threadx/ports/cortex_m55/gnu/inc/tx_port.h" 1
 293 007c EFF31089 		MRS  r9, PRIMASK 
 294              	@ 0 "" 2
 295              	.LVL16:
 571:../Middlewares/threadx/ports/cortex_m55/gnu/inc/tx_port.h **** }
 296              		.loc 2 571 5 view .LVU84
 571:../Middlewares/threadx/ports/cortex_m55/gnu/inc/tx_port.h **** }
 297              		.loc 2 571 5 is_stmt 0 view .LVU85
 298              		.thumb
 299              		.syntax unified
 300              	.LBE121:
 301              	.LBE120:
 604:../Middlewares/threadx/ports/cortex_m55/gnu/inc/tx_port.h **** #endif
 302              		.loc 2 604 5 is_stmt 1 view .LVU86
 303              		.syntax unified
 304              	@ 604 "../Middlewares/threadx/ports/cortex_m55/gnu/inc/tx_port.h" 1
 305 0080 72B6     		CPSID i
 306              	@ 0 "" 2
 307              		.loc 2 606 5 view .LVU87
 308              	.LVL17:
 309              		.loc 2 606 5 is_stmt 0 view .LVU88
 310              		.thumb
 311              		.syntax unified
 312              	.LBE119:
 313              	.LBE118:
 122:../Middlewares/threadx/common/src/tx_thread_system_suspend.c **** 
ARM GAS  /tmp/ccsStdKY.s 			page 20


 123:../Middlewares/threadx/common/src/tx_thread_system_suspend.c **** #ifndef TX_NO_TIMER
 124:../Middlewares/threadx/common/src/tx_thread_system_suspend.c **** 
 125:../Middlewares/threadx/common/src/tx_thread_system_suspend.c ****     /* Is the current thread suspending?  */
 126:../Middlewares/threadx/common/src/tx_thread_system_suspend.c ****     if (thread_ptr == current_thread)
 314              		.loc 1 126 5 is_stmt 1 view .LVU89
 315              		.loc 1 126 8 is_stmt 0 view .LVU90
 316 0082 A742     		cmp	r7, r4
 317 0084 0AD1     		bne	.L6
 127:../Middlewares/threadx/common/src/tx_thread_system_suspend.c ****     {
 128:../Middlewares/threadx/common/src/tx_thread_system_suspend.c **** 
 129:../Middlewares/threadx/common/src/tx_thread_system_suspend.c ****         /* Pickup the wait option.  */
 130:../Middlewares/threadx/common/src/tx_thread_system_suspend.c ****         timeout =  thread_ptr -> tx_thread_timer.tx_timer_internal_remaining_ticks;
 318              		.loc 1 130 9 is_stmt 1 view .LVU91
 319              	.LVL18:
 131:../Middlewares/threadx/common/src/tx_thread_system_suspend.c **** 
 132:../Middlewares/threadx/common/src/tx_thread_system_suspend.c ****         /* Determine if an activation is needed.  */
 133:../Middlewares/threadx/common/src/tx_thread_system_suspend.c ****         if (timeout != TX_NO_WAIT)
 320              		.loc 1 133 9 view .LVU92
 321              		.loc 1 133 12 is_stmt 0 view .LVU93
 322 0086 FB6C     		ldr	r3, [r7, #76]
 323              	.LVL19:
 324              		.loc 1 133 12 view .LVU94
 325 0088 013B     		subs	r3, r3, #1
 326 008a 0333     		adds	r3, r3, #3
 327 008c 03D8     		bhi	.L7
 134:../Middlewares/threadx/common/src/tx_thread_system_suspend.c ****         {
 135:../Middlewares/threadx/common/src/tx_thread_system_suspend.c **** 
 136:../Middlewares/threadx/common/src/tx_thread_system_suspend.c ****             /* Make sure the suspension is not a wait-forever.  */
 137:../Middlewares/threadx/common/src/tx_thread_system_suspend.c ****             if (timeout != TX_WAIT_FOREVER)
 328              		.loc 1 137 13 is_stmt 1 view .LVU95
 138:../Middlewares/threadx/common/src/tx_thread_system_suspend.c ****             {
 139:../Middlewares/threadx/common/src/tx_thread_system_suspend.c **** 
 140:../Middlewares/threadx/common/src/tx_thread_system_suspend.c ****                 /* Activate the thread timer with the timeout value setup in the caller.  */
 141:../Middlewares/threadx/common/src/tx_thread_system_suspend.c ****                 _tx_timer_system_activate(&(thread_ptr -> tx_thread_timer));
 329              		.loc 1 141 17 view .LVU96
 330 008e 07F14C00 		add	r0, r7, #76
 331              	.LVL20:
 332              		.loc 1 141 17 is_stmt 0 view .LVU97
 333 0092 FFF7FEFF 		bl	_tx_timer_system_activate
 334              	.LVL21:
 335              	.L7:
 142:../Middlewares/threadx/common/src/tx_thread_system_suspend.c ****             }
 143:../Middlewares/threadx/common/src/tx_thread_system_suspend.c ****         }
 144:../Middlewares/threadx/common/src/tx_thread_system_suspend.c **** 
 145:../Middlewares/threadx/common/src/tx_thread_system_suspend.c ****         /* Yes, reset time slice for current thread.  */
 146:../Middlewares/threadx/common/src/tx_thread_system_suspend.c ****         _tx_timer_time_slice =  thread_ptr -> tx_thread_new_time_slice;
 336              		.loc 1 146 9 is_stmt 1 view .LVU98
 337              		.loc 1 146 30 is_stmt 0 view .LVU99
 338 0096 E269     		ldr	r2, [r4, #28]
 339 0098 724B     		ldr	r3, .L79+4
 340 009a 1A60     		str	r2, [r3]
 341              	.LVL22:
 342              	.L6:
 147:../Middlewares/threadx/common/src/tx_thread_system_suspend.c ****     }
 148:../Middlewares/threadx/common/src/tx_thread_system_suspend.c **** #endif
 149:../Middlewares/threadx/common/src/tx_thread_system_suspend.c **** 
 150:../Middlewares/threadx/common/src/tx_thread_system_suspend.c ****     /* Decrease the preempt disabled count.  */
ARM GAS  /tmp/ccsStdKY.s 			page 21


 151:../Middlewares/threadx/common/src/tx_thread_system_suspend.c ****     _tx_thread_preempt_disable--;
 343              		.loc 1 151 5 is_stmt 1 view .LVU100
 344              		.loc 1 151 31 is_stmt 0 view .LVU101
 345 009c 724E     		ldr	r6, .L79+8
 346 009e DFF8FC81 		ldr	r8, .L79+60
 347 00a2 3368     		ldr	r3, [r6]
 348 00a4 013B     		subs	r3, r3, #1
 349 00a6 3360     		str	r3, [r6]
 152:../Middlewares/threadx/common/src/tx_thread_system_suspend.c **** 
 153:../Middlewares/threadx/common/src/tx_thread_system_suspend.c **** #ifdef TX_THREAD_ENABLE_PERFORMANCE_INFO
 154:../Middlewares/threadx/common/src/tx_thread_system_suspend.c **** 
 155:../Middlewares/threadx/common/src/tx_thread_system_suspend.c ****     /* Increment the thread's suspend count.  */
 156:../Middlewares/threadx/common/src/tx_thread_system_suspend.c ****     thread_ptr -> tx_thread_performance_suspend_count++;
 157:../Middlewares/threadx/common/src/tx_thread_system_suspend.c **** 
 158:../Middlewares/threadx/common/src/tx_thread_system_suspend.c ****     /* Increment the total number of thread suspensions.  */
 159:../Middlewares/threadx/common/src/tx_thread_system_suspend.c ****     _tx_thread_performance_suspend_count++;
 160:../Middlewares/threadx/common/src/tx_thread_system_suspend.c **** #endif
 161:../Middlewares/threadx/common/src/tx_thread_system_suspend.c **** 
 162:../Middlewares/threadx/common/src/tx_thread_system_suspend.c ****     /* Check to make sure the thread suspending flag is still set.  If not, it
 163:../Middlewares/threadx/common/src/tx_thread_system_suspend.c ****        has already been resumed.  */
 164:../Middlewares/threadx/common/src/tx_thread_system_suspend.c ****     if (thread_ptr -> tx_thread_suspending == TX_TRUE)
 350              		.loc 1 164 5 is_stmt 1 view .LVU102
 351              		.loc 1 164 8 is_stmt 0 view .LVU103
 352 00a8 A36B     		ldr	r3, [r4, #56]
 353 00aa 012B     		cmp	r3, #1
 354 00ac 40F0FF80 		bne	.L9
 165:../Middlewares/threadx/common/src/tx_thread_system_suspend.c ****     {
 166:../Middlewares/threadx/common/src/tx_thread_system_suspend.c **** 
 167:../Middlewares/threadx/common/src/tx_thread_system_suspend.c ****         /* Thread state change.  */
 168:../Middlewares/threadx/common/src/tx_thread_system_suspend.c ****         TX_THREAD_STATE_CHANGE(thread_ptr, thread_ptr -> tx_thread_state)
 169:../Middlewares/threadx/common/src/tx_thread_system_suspend.c **** 
 170:../Middlewares/threadx/common/src/tx_thread_system_suspend.c ****         /* Log the thread status change.  */
 171:../Middlewares/threadx/common/src/tx_thread_system_suspend.c ****         TX_EL_THREAD_STATUS_CHANGE_INSERT(thread_ptr, thread_ptr -> tx_thread_state)
 172:../Middlewares/threadx/common/src/tx_thread_system_suspend.c **** 
 173:../Middlewares/threadx/common/src/tx_thread_system_suspend.c **** #ifdef TX_ENABLE_EVENT_TRACE
 174:../Middlewares/threadx/common/src/tx_thread_system_suspend.c **** 
 175:../Middlewares/threadx/common/src/tx_thread_system_suspend.c ****         /* If trace is enabled, save the current event pointer.  */
 176:../Middlewares/threadx/common/src/tx_thread_system_suspend.c ****         entry_ptr =  _tx_trace_buffer_current_ptr;
 355              		.loc 1 176 9 is_stmt 1 view .LVU104
 356              		.loc 1 176 19 is_stmt 0 view .LVU105
 357 00b0 DFF8ECC1 		ldr	ip, .L79+64
 358 00b4 DCF80050 		ldr	r5, [ip]
 359              	.LVL23:
 360              	.LBB122:
 177:../Middlewares/threadx/common/src/tx_thread_system_suspend.c **** #endif
 178:../Middlewares/threadx/common/src/tx_thread_system_suspend.c **** 
 179:../Middlewares/threadx/common/src/tx_thread_system_suspend.c ****         /* Log the thread status change.  */
 180:../Middlewares/threadx/common/src/tx_thread_system_suspend.c ****         TX_TRACE_IN_LINE_INSERT(TX_TRACE_THREAD_SUSPEND, thread_ptr, thread_ptr -> tx_thread_state,
 361              		.loc 1 180 9 is_stmt 1 view .LVU106
 362              		.loc 1 180 9 view .LVU107
 363              		.loc 1 180 9 view .LVU108
 364              		.loc 1 180 9 view .LVU109
 365              		.loc 1 180 9 view .LVU110
 366              		.loc 1 180 9 view .LVU111
 367              	.LBE122:
 108:../Middlewares/threadx/common/src/tx_thread_system_suspend.c **** #endif
 368              		.loc 1 108 29 is_stmt 0 view .LVU112
ARM GAS  /tmp/ccsStdKY.s 			page 22


 369 00b8 AB46     		mov	fp, r5
 370              	.LBB125:
 371              		.loc 1 180 9 view .LVU113
 372 00ba 002D     		cmp	r5, #0
 373 00bc 33D0     		beq	.L10
 374              		.loc 1 180 9 discriminator 1 view .LVU114
 375 00be 6B4B     		ldr	r3, .L79+12
 376 00c0 1B68     		ldr	r3, [r3]
 377 00c2 DB07     		lsls	r3, r3, #31
 378 00c4 2DD5     		bpl	.L12
 379              		.loc 1 180 9 is_stmt 1 discriminator 2 view .LVU115
 380              	.LBB123:
 381              	.LBI123:
 507:../Middlewares/threadx/ports/cortex_m55/gnu/inc/tx_port.h **** {
 382              		.loc 2 507 55 view .LVU116
 383              	.LBB124:
 509:../Middlewares/threadx/ports/cortex_m55/gnu/inc/tx_port.h ****     __asm__ volatile (" MRS  %0,IPSR ": "=r" (ipsr_value) );
 384              		.loc 2 509 1 view .LVU117
 510:../Middlewares/threadx/ports/cortex_m55/gnu/inc/tx_port.h ****     return(ipsr_value);
 385              		.loc 2 510 5 view .LVU118
 386              		.syntax unified
 387              	@ 510 "../Middlewares/threadx/ports/cortex_m55/gnu/inc/tx_port.h" 1
 388 00c6 EFF30582 		 MRS  r2,IPSR 
 389              	@ 0 "" 2
 390              	.LVL24:
 511:../Middlewares/threadx/ports/cortex_m55/gnu/inc/tx_port.h **** }
 391              		.loc 2 511 5 view .LVU119
 511:../Middlewares/threadx/ports/cortex_m55/gnu/inc/tx_port.h **** }
 392              		.loc 2 511 5 is_stmt 0 view .LVU120
 393              		.thumb
 394              		.syntax unified
 395              	.LBE124:
 396              	.LBE123:
 397              		.loc 1 180 9 discriminator 1 view .LVU121
 398 00ca 694B     		ldr	r3, .L79+16
 399 00cc DAF80010 		ldr	r1, [r10]
 400 00d0 1B68     		ldr	r3, [r3]
 401              	.LVL25:
 402              		.loc 1 180 9 is_stmt 1 discriminator 1 view .LVU122
 403              		.loc 1 180 9 discriminator 1 view .LVU123
 404 00d2 1343     		orrs	r3, r3, r2
 405              	.LVL26:
 406              		.loc 1 180 9 is_stmt 0 discriminator 1 view .LVU124
 407 00d4 7CD1     		bne	.L13
 408              		.loc 1 180 9 is_stmt 1 discriminator 3 view .LVU125
 409              	.LVL27:
 410              		.loc 1 180 9 view .LVU126
 411              		.loc 1 180 9 is_stmt 0 discriminator 3 view .LVU127
 412 00d6 CA6B     		ldr	r2, [r1, #60]
 413 00d8 CB6A     		ldr	r3, [r1, #44]
 414              	.LVL28:
 415              		.loc 1 180 9 discriminator 3 view .LVU128
 416 00da 43EA0243 		orr	r3, r3, r2, lsl #16
 417 00de 43F00043 		orr	r3, r3, #-2147483648
 418              	.LVL29:
 419              	.L14:
 420              		.loc 1 180 9 is_stmt 1 discriminator 9 view .LVU129
ARM GAS  /tmp/ccsStdKY.s 			page 23


 421 00e2 C5E90013 		strd	r1, r3, [r5]
 422              		.loc 1 180 9 view .LVU130
 423              		.loc 1 180 9 is_stmt 0 discriminator 9 view .LVU131
 424 00e6 0223     		movs	r3, #2
 425              	.LVL30:
 426              		.loc 1 180 9 discriminator 9 view .LVU132
 427 00e8 AB60     		str	r3, [r5, #8]
 428              		.loc 1 180 9 is_stmt 1 view .LVU133
 429              		.loc 1 180 9 is_stmt 0 discriminator 9 view .LVU134
 430 00ea 624B     		ldr	r3, .L79+20
 431              		.loc 1 180 9 discriminator 10 view .LVU135
 432 00ec 624A     		ldr	r2, .L79+24
 433              		.loc 1 180 9 discriminator 9 view .LVU136
 434 00ee 5B68     		ldr	r3, [r3, #4]
 435              		.loc 1 180 9 discriminator 10 view .LVU137
 436 00f0 1068     		ldr	r0, [r2]
 437              		.loc 1 180 9 discriminator 9 view .LVU138
 438 00f2 C5E90334 		strd	r3, r4, [r5, #12]
 439              		.loc 1 180 9 is_stmt 1 view .LVU139
 440              		.loc 1 180 9 is_stmt 0 discriminator 9 view .LVU140
 441 00f6 236B     		ldr	r3, [r4, #48]
 442 00f8 604A     		ldr	r2, .L79+28
 443 00fa 6B61     		str	r3, [r5, #20]
 444              		.loc 1 180 9 is_stmt 1 view .LVU141
 445              		.loc 1 180 9 is_stmt 0 discriminator 9 view .LVU142
 446 00fc 01AB     		add	r3, sp, #4
 447 00fe AB61     		str	r3, [r5, #24]
 448              		.loc 1 180 9 is_stmt 1 view .LVU143
 449              		.loc 1 180 9 is_stmt 0 discriminator 9 view .LVU144
 450 0100 D8F80030 		ldr	r3, [r8]
 451 0104 1268     		ldr	r2, [r2]
 452 0106 EB61     		str	r3, [r5, #28]
 453              		.loc 1 180 9 is_stmt 1 view .LVU145
 454              		.loc 1 180 9 is_stmt 0 discriminator 9 view .LVU146
 455 0108 05F12003 		add	r3, r5, #32
 456              	.LVL31:
 457              		.loc 1 180 9 is_stmt 1 view .LVU147
 458              		.loc 1 180 9 is_stmt 0 discriminator 9 view .LVU148
 459 010c 9A42     		cmp	r2, r3
 460 010e 69D8     		bhi	.L15
 461              		.loc 1 180 9 is_stmt 1 discriminator 10 view .LVU149
 462 0110 5B4B     		ldr	r3, .L79+32
 463              	.LVL32:
 464              		.loc 1 180 9 is_stmt 0 discriminator 10 view .LVU150
 465 0112 1B68     		ldr	r3, [r3]
 466              	.LVL33:
 467              		.loc 1 180 9 is_stmt 1 view .LVU151
 468              		.loc 1 180 9 is_stmt 0 discriminator 10 view .LVU152
 469 0114 CCF80030 		str	r3, [ip]
 470              		.loc 1 180 9 is_stmt 1 view .LVU153
 471              		.loc 1 180 9 is_stmt 0 discriminator 10 view .LVU154
 472 0118 0362     		str	r3, [r0, #32]
 473              		.loc 1 180 9 is_stmt 1 view .LVU155
 474              		.loc 1 180 9 is_stmt 0 discriminator 10 view .LVU156
 475 011a 5A4B     		ldr	r3, .L79+36
 476              	.LVL34:
 477              		.loc 1 180 9 discriminator 10 view .LVU157
ARM GAS  /tmp/ccsStdKY.s 			page 24


 478 011c 1B68     		ldr	r3, [r3]
 479 011e 03B1     		cbz	r3, .L12
 480              		.loc 1 180 9 is_stmt 1 discriminator 12 view .LVU158
 481 0120 9847     		blx	r3
 482              	.LVL35:
 483              		.loc 1 180 9 is_stmt 0 discriminator 12 view .LVU159
 484              	.LBE125:
 181:../Middlewares/threadx/common/src/tx_thread_system_suspend.c **** 
 182:../Middlewares/threadx/common/src/tx_thread_system_suspend.c **** #ifdef TX_ENABLE_EVENT_TRACE
 183:../Middlewares/threadx/common/src/tx_thread_system_suspend.c **** 
 184:../Middlewares/threadx/common/src/tx_thread_system_suspend.c ****         /* Save the time stamp for later comparison to verify that
 185:../Middlewares/threadx/common/src/tx_thread_system_suspend.c ****            the event hasn't been overwritten by the time we have
 186:../Middlewares/threadx/common/src/tx_thread_system_suspend.c ****            computed the next thread to execute.  */
 187:../Middlewares/threadx/common/src/tx_thread_system_suspend.c ****         if (entry_ptr != TX_NULL)
 485              		.loc 1 187 9 is_stmt 1 view .LVU160
 486              	.L12:
 188:../Middlewares/threadx/common/src/tx_thread_system_suspend.c ****         {
 189:../Middlewares/threadx/common/src/tx_thread_system_suspend.c **** 
 190:../Middlewares/threadx/common/src/tx_thread_system_suspend.c ****             /* Save time stamp.  */
 191:../Middlewares/threadx/common/src/tx_thread_system_suspend.c ****             time_stamp =  entry_ptr -> tx_trace_buffer_entry_time_stamp;
 487              		.loc 1 191 13 view .LVU161
 488              		.loc 1 191 24 is_stmt 0 view .LVU162
 489 0122 D5F80CB0 		ldr	fp, [r5, #12]
 490              	.L10:
 491              	.LVL36:
 192:../Middlewares/threadx/common/src/tx_thread_system_suspend.c ****         }
 193:../Middlewares/threadx/common/src/tx_thread_system_suspend.c **** #endif
 194:../Middlewares/threadx/common/src/tx_thread_system_suspend.c **** 
 195:../Middlewares/threadx/common/src/tx_thread_system_suspend.c ****         /* Actually suspend this thread.  But first, clear the suspending flag.  */
 196:../Middlewares/threadx/common/src/tx_thread_system_suspend.c ****         thread_ptr -> tx_thread_suspending =  TX_FALSE;
 492              		.loc 1 196 9 is_stmt 1 view .LVU163
 493              		.loc 1 196 44 is_stmt 0 view .LVU164
 494 0126 0023     		movs	r3, #0
 197:../Middlewares/threadx/common/src/tx_thread_system_suspend.c **** 
 198:../Middlewares/threadx/common/src/tx_thread_system_suspend.c ****         /* Pickup priority of thread.  */
 199:../Middlewares/threadx/common/src/tx_thread_system_suspend.c ****         priority =  thread_ptr -> tx_thread_priority;
 200:../Middlewares/threadx/common/src/tx_thread_system_suspend.c **** 
 201:../Middlewares/threadx/common/src/tx_thread_system_suspend.c ****         /* Pickup the next ready thread pointer.  */
 202:../Middlewares/threadx/common/src/tx_thread_system_suspend.c ****         ready_next =      thread_ptr -> tx_thread_ready_next;
 495              		.loc 1 202 20 view .LVU165
 496 0128 D4F820C0 		ldr	ip, [r4, #32]
 199:../Middlewares/threadx/common/src/tx_thread_system_suspend.c **** 
 497              		.loc 1 199 32 view .LVU166
 498 012c E26A     		ldr	r2, [r4, #44]
 203:../Middlewares/threadx/common/src/tx_thread_system_suspend.c **** 
 204:../Middlewares/threadx/common/src/tx_thread_system_suspend.c ****         /* Determine if there are other threads at this priority that are
 205:../Middlewares/threadx/common/src/tx_thread_system_suspend.c ****            ready.  */
 206:../Middlewares/threadx/common/src/tx_thread_system_suspend.c ****         if (ready_next != thread_ptr)
 499              		.loc 1 206 12 view .LVU167
 500 012e 6445     		cmp	r4, ip
 501 0130 5549     		ldr	r1, .L79+40
 196:../Middlewares/threadx/common/src/tx_thread_system_suspend.c **** 
 502              		.loc 1 196 44 view .LVU168
 503 0132 A363     		str	r3, [r4, #56]
 199:../Middlewares/threadx/common/src/tx_thread_system_suspend.c **** 
 504              		.loc 1 199 9 is_stmt 1 view .LVU169
 199:../Middlewares/threadx/common/src/tx_thread_system_suspend.c **** 
ARM GAS  /tmp/ccsStdKY.s 			page 25


 505              		.loc 1 199 18 is_stmt 0 view .LVU170
 506 0134 0192     		str	r2, [sp, #4]
 202:../Middlewares/threadx/common/src/tx_thread_system_suspend.c **** 
 507              		.loc 1 202 9 is_stmt 1 view .LVU171
 508              	.LVL37:
 509              		.loc 1 206 9 view .LVU172
 510              		.loc 1 206 12 is_stmt 0 view .LVU173
 511 0136 59D0     		beq	.L17
 207:../Middlewares/threadx/common/src/tx_thread_system_suspend.c ****         {
 208:../Middlewares/threadx/common/src/tx_thread_system_suspend.c **** 
 209:../Middlewares/threadx/common/src/tx_thread_system_suspend.c ****             /* Yes, there are other threads at this priority ready.  */
 210:../Middlewares/threadx/common/src/tx_thread_system_suspend.c **** 
 211:../Middlewares/threadx/common/src/tx_thread_system_suspend.c ****             /* Pickup the previous ready thread pointer.  */
 212:../Middlewares/threadx/common/src/tx_thread_system_suspend.c ****             ready_previous =  thread_ptr -> tx_thread_ready_previous;
 512              		.loc 1 212 13 is_stmt 1 view .LVU174
 513              		.loc 1 212 28 is_stmt 0 view .LVU175
 514 0138 636A     		ldr	r3, [r4, #36]
 515              	.LVL38:
 213:../Middlewares/threadx/common/src/tx_thread_system_suspend.c **** 
 214:../Middlewares/threadx/common/src/tx_thread_system_suspend.c ****             /* Just remove this thread from the priority list.  */
 215:../Middlewares/threadx/common/src/tx_thread_system_suspend.c ****             ready_next -> tx_thread_ready_previous =    ready_previous;
 516              		.loc 1 215 13 is_stmt 1 view .LVU176
 517              		.loc 1 215 52 is_stmt 0 view .LVU177
 518 013a CCF82430 		str	r3, [ip, #36]
 216:../Middlewares/threadx/common/src/tx_thread_system_suspend.c ****             ready_previous -> tx_thread_ready_next =    ready_next;
 519              		.loc 1 216 13 is_stmt 1 view .LVU178
 520              		.loc 1 216 52 is_stmt 0 view .LVU179
 521 013e C3F820C0 		str	ip, [r3, #32]
 217:../Middlewares/threadx/common/src/tx_thread_system_suspend.c **** 
 218:../Middlewares/threadx/common/src/tx_thread_system_suspend.c ****             /* Determine if this is the head of the priority list.  */
 219:../Middlewares/threadx/common/src/tx_thread_system_suspend.c ****             if (_tx_thread_priority_list[priority] == thread_ptr)
 522              		.loc 1 219 13 is_stmt 1 view .LVU180
 523              		.loc 1 219 16 is_stmt 0 view .LVU181
 524 0142 51F82230 		ldr	r3, [r1, r2, lsl #2]
 525              	.LVL39:
 526              		.loc 1 219 16 view .LVU182
 527 0146 A342     		cmp	r3, r4
 528 0148 0ED1     		bne	.L19
 220:../Middlewares/threadx/common/src/tx_thread_system_suspend.c ****             {
 221:../Middlewares/threadx/common/src/tx_thread_system_suspend.c **** 
 222:../Middlewares/threadx/common/src/tx_thread_system_suspend.c ****                 /* Update the head pointer of this priority list.  */
 223:../Middlewares/threadx/common/src/tx_thread_system_suspend.c ****                 _tx_thread_priority_list[priority] =  ready_next;
 529              		.loc 1 223 17 is_stmt 1 view .LVU183
 224:../Middlewares/threadx/common/src/tx_thread_system_suspend.c **** 
 225:../Middlewares/threadx/common/src/tx_thread_system_suspend.c **** #ifndef TX_DISABLE_PREEMPTION_THRESHOLD
 226:../Middlewares/threadx/common/src/tx_thread_system_suspend.c **** 
 227:../Middlewares/threadx/common/src/tx_thread_system_suspend.c **** #if TX_MAX_PRIORITIES > 32
 228:../Middlewares/threadx/common/src/tx_thread_system_suspend.c **** 
 229:../Middlewares/threadx/common/src/tx_thread_system_suspend.c ****                 /* Calculate the index into the bit map array.  */
 230:../Middlewares/threadx/common/src/tx_thread_system_suspend.c ****                 map_index =  priority/((UINT) 32);
 231:../Middlewares/threadx/common/src/tx_thread_system_suspend.c **** #endif
 232:../Middlewares/threadx/common/src/tx_thread_system_suspend.c **** 
 233:../Middlewares/threadx/common/src/tx_thread_system_suspend.c ****                 /* Check for a thread preempted that had preemption threshold set.  */
 234:../Middlewares/threadx/common/src/tx_thread_system_suspend.c ****                 if (_tx_thread_preempted_maps[MAP_INDEX] != ((ULONG) 0))
 530              		.loc 1 234 46 is_stmt 0 view .LVU184
 531 014a DFF844E1 		ldr	lr, .L79+48
 223:../Middlewares/threadx/common/src/tx_thread_system_suspend.c **** 
ARM GAS  /tmp/ccsStdKY.s 			page 26


 532              		.loc 1 223 52 view .LVU185
 533 014e 41F822C0 		str	ip, [r1, r2, lsl #2]
 534              		.loc 1 234 17 is_stmt 1 view .LVU186
 535              		.loc 1 234 46 is_stmt 0 view .LVU187
 536 0152 DEF80030 		ldr	r3, [lr]
 537              		.loc 1 234 20 view .LVU188
 538 0156 3BB1     		cbz	r3, .L19
 235:../Middlewares/threadx/common/src/tx_thread_system_suspend.c ****                 {
 236:../Middlewares/threadx/common/src/tx_thread_system_suspend.c **** 
 237:../Middlewares/threadx/common/src/tx_thread_system_suspend.c ****                     /* Ensure that this thread's priority is clear in the preempt map.  */
 238:../Middlewares/threadx/common/src/tx_thread_system_suspend.c ****                     TX_MOD32_BIT_SET(priority, priority_bit)
 539              		.loc 1 238 21 is_stmt 1 view .LVU189
 540              	.LVL40:
 239:../Middlewares/threadx/common/src/tx_thread_system_suspend.c ****                     _tx_thread_preempted_maps[MAP_INDEX] =  _tx_thread_preempted_maps[MAP_INDEX] & 
 541              		.loc 1 239 21 view .LVU190
 238:../Middlewares/threadx/common/src/tx_thread_system_suspend.c ****                     _tx_thread_preempted_maps[MAP_INDEX] =  _tx_thread_preempted_maps[MAP_INDEX] & 
 542              		.loc 1 238 21 is_stmt 0 view .LVU191
 543 0158 4FF0010C 		mov	ip, #1
 544              	.LVL41:
 238:../Middlewares/threadx/common/src/tx_thread_system_suspend.c ****                     _tx_thread_preempted_maps[MAP_INDEX] =  _tx_thread_preempted_maps[MAP_INDEX] & 
 545              		.loc 1 238 21 view .LVU192
 546 015c 0CFA02F2 		lsl	r2, ip, r2
 547              	.LVL42:
 548              		.loc 1 239 98 view .LVU193
 549 0160 23EA0203 		bic	r3, r3, r2
 550              		.loc 1 239 58 view .LVU194
 551 0164 CEF80030 		str	r3, [lr]
 552              	.LVL43:
 553              	.L19:
 240:../Middlewares/threadx/common/src/tx_thread_system_suspend.c **** 
 241:../Middlewares/threadx/common/src/tx_thread_system_suspend.c **** #if TX_MAX_PRIORITIES > 32
 242:../Middlewares/threadx/common/src/tx_thread_system_suspend.c **** 
 243:../Middlewares/threadx/common/src/tx_thread_system_suspend.c ****                     /* Determine if there are any other bits set in this preempt map.  */
 244:../Middlewares/threadx/common/src/tx_thread_system_suspend.c ****                     if (_tx_thread_preempted_maps[MAP_INDEX] == ((ULONG) 0))
 245:../Middlewares/threadx/common/src/tx_thread_system_suspend.c ****                     {
 246:../Middlewares/threadx/common/src/tx_thread_system_suspend.c **** 
 247:../Middlewares/threadx/common/src/tx_thread_system_suspend.c ****                         /* No, clear the active bit to signify this preempt map has nothing set.  *
 248:../Middlewares/threadx/common/src/tx_thread_system_suspend.c ****                         TX_DIV32_BIT_SET(priority, priority_bit)
 249:../Middlewares/threadx/common/src/tx_thread_system_suspend.c ****                         _tx_thread_preempted_map_active =  _tx_thread_preempted_map_active & (~(pri
 250:../Middlewares/threadx/common/src/tx_thread_system_suspend.c ****                     }
 251:../Middlewares/threadx/common/src/tx_thread_system_suspend.c **** #endif
 252:../Middlewares/threadx/common/src/tx_thread_system_suspend.c ****                 }
 253:../Middlewares/threadx/common/src/tx_thread_system_suspend.c **** #endif
 254:../Middlewares/threadx/common/src/tx_thread_system_suspend.c ****             }
 255:../Middlewares/threadx/common/src/tx_thread_system_suspend.c ****         }
 256:../Middlewares/threadx/common/src/tx_thread_system_suspend.c ****         else
 257:../Middlewares/threadx/common/src/tx_thread_system_suspend.c ****         {
 258:../Middlewares/threadx/common/src/tx_thread_system_suspend.c **** 
 259:../Middlewares/threadx/common/src/tx_thread_system_suspend.c ****             /* This is the only thread at this priority ready to run.  Set the head
 260:../Middlewares/threadx/common/src/tx_thread_system_suspend.c ****                pointer to NULL.  */
 261:../Middlewares/threadx/common/src/tx_thread_system_suspend.c ****             _tx_thread_priority_list[priority] =    TX_NULL;
 262:../Middlewares/threadx/common/src/tx_thread_system_suspend.c **** 
 263:../Middlewares/threadx/common/src/tx_thread_system_suspend.c **** #if TX_MAX_PRIORITIES > 32
 264:../Middlewares/threadx/common/src/tx_thread_system_suspend.c **** 
 265:../Middlewares/threadx/common/src/tx_thread_system_suspend.c ****             /* Calculate the index into the bit map array.  */
 266:../Middlewares/threadx/common/src/tx_thread_system_suspend.c ****             map_index =  priority/((UINT) 32);
 267:../Middlewares/threadx/common/src/tx_thread_system_suspend.c **** #endif
ARM GAS  /tmp/ccsStdKY.s 			page 27


 268:../Middlewares/threadx/common/src/tx_thread_system_suspend.c **** 
 269:../Middlewares/threadx/common/src/tx_thread_system_suspend.c ****             /* Clear this priority bit in the ready priority bit map.  */
 270:../Middlewares/threadx/common/src/tx_thread_system_suspend.c ****             TX_MOD32_BIT_SET(priority, priority_bit)
 271:../Middlewares/threadx/common/src/tx_thread_system_suspend.c ****             _tx_thread_priority_maps[MAP_INDEX] =  _tx_thread_priority_maps[MAP_INDEX] & (~(priorit
 272:../Middlewares/threadx/common/src/tx_thread_system_suspend.c **** 
 273:../Middlewares/threadx/common/src/tx_thread_system_suspend.c **** #if TX_MAX_PRIORITIES > 32
 274:../Middlewares/threadx/common/src/tx_thread_system_suspend.c **** 
 275:../Middlewares/threadx/common/src/tx_thread_system_suspend.c ****             /* Determine if there are any other bits set in this priority map.  */
 276:../Middlewares/threadx/common/src/tx_thread_system_suspend.c ****             if (_tx_thread_priority_maps[MAP_INDEX] == ((ULONG) 0))
 277:../Middlewares/threadx/common/src/tx_thread_system_suspend.c ****             {
 278:../Middlewares/threadx/common/src/tx_thread_system_suspend.c **** 
 279:../Middlewares/threadx/common/src/tx_thread_system_suspend.c ****                 /* No, clear the active bit to signify this priority map has nothing set.  */
 280:../Middlewares/threadx/common/src/tx_thread_system_suspend.c ****                 TX_DIV32_BIT_SET(priority, priority_bit)
 281:../Middlewares/threadx/common/src/tx_thread_system_suspend.c ****                 _tx_thread_priority_map_active =  _tx_thread_priority_map_active & (~(priority_bit)
 282:../Middlewares/threadx/common/src/tx_thread_system_suspend.c ****             }
 283:../Middlewares/threadx/common/src/tx_thread_system_suspend.c **** #endif
 284:../Middlewares/threadx/common/src/tx_thread_system_suspend.c **** 
 285:../Middlewares/threadx/common/src/tx_thread_system_suspend.c **** #ifndef TX_DISABLE_PREEMPTION_THRESHOLD
 286:../Middlewares/threadx/common/src/tx_thread_system_suspend.c **** 
 287:../Middlewares/threadx/common/src/tx_thread_system_suspend.c ****             /* Check for a thread preempted that had preemption-threshold set.  */
 288:../Middlewares/threadx/common/src/tx_thread_system_suspend.c ****             if (_tx_thread_preempted_maps[MAP_INDEX] != ((ULONG) 0))
 289:../Middlewares/threadx/common/src/tx_thread_system_suspend.c ****             {
 290:../Middlewares/threadx/common/src/tx_thread_system_suspend.c **** 
 291:../Middlewares/threadx/common/src/tx_thread_system_suspend.c ****                 /* Ensure that this thread's priority is clear in the preempt map.  */
 292:../Middlewares/threadx/common/src/tx_thread_system_suspend.c ****                 TX_MOD32_BIT_SET(priority, priority_bit)
 293:../Middlewares/threadx/common/src/tx_thread_system_suspend.c ****                 _tx_thread_preempted_maps[MAP_INDEX] =  _tx_thread_preempted_maps[MAP_INDEX] & (~(p
 294:../Middlewares/threadx/common/src/tx_thread_system_suspend.c **** 
 295:../Middlewares/threadx/common/src/tx_thread_system_suspend.c **** #if TX_MAX_PRIORITIES > 32
 296:../Middlewares/threadx/common/src/tx_thread_system_suspend.c **** 
 297:../Middlewares/threadx/common/src/tx_thread_system_suspend.c ****                 /* Determine if there are any other bits set in this preempt map.  */
 298:../Middlewares/threadx/common/src/tx_thread_system_suspend.c ****                 if (_tx_thread_preempted_maps[MAP_INDEX] == ((ULONG) 0))
 299:../Middlewares/threadx/common/src/tx_thread_system_suspend.c ****                 {
 300:../Middlewares/threadx/common/src/tx_thread_system_suspend.c **** 
 301:../Middlewares/threadx/common/src/tx_thread_system_suspend.c ****                     /* No, clear the active bit to signify this preempted map has nothing set.  */
 302:../Middlewares/threadx/common/src/tx_thread_system_suspend.c ****                     TX_DIV32_BIT_SET(priority, priority_bit)
 303:../Middlewares/threadx/common/src/tx_thread_system_suspend.c ****                     _tx_thread_preempted_map_active =  _tx_thread_preempted_map_active & (~(priorit
 304:../Middlewares/threadx/common/src/tx_thread_system_suspend.c ****                 }
 305:../Middlewares/threadx/common/src/tx_thread_system_suspend.c **** #endif
 306:../Middlewares/threadx/common/src/tx_thread_system_suspend.c ****             }
 307:../Middlewares/threadx/common/src/tx_thread_system_suspend.c **** #endif
 308:../Middlewares/threadx/common/src/tx_thread_system_suspend.c **** 
 309:../Middlewares/threadx/common/src/tx_thread_system_suspend.c **** #if TX_MAX_PRIORITIES > 32
 310:../Middlewares/threadx/common/src/tx_thread_system_suspend.c **** 
 311:../Middlewares/threadx/common/src/tx_thread_system_suspend.c ****             /* Calculate the index to find the next highest priority thread ready for execution.  *
 312:../Middlewares/threadx/common/src/tx_thread_system_suspend.c ****             priority_map =    _tx_thread_priority_map_active;
 313:../Middlewares/threadx/common/src/tx_thread_system_suspend.c **** 
 314:../Middlewares/threadx/common/src/tx_thread_system_suspend.c ****             /* Determine if there is anything.   */
 315:../Middlewares/threadx/common/src/tx_thread_system_suspend.c ****             if (priority_map != ((ULONG) 0))
 316:../Middlewares/threadx/common/src/tx_thread_system_suspend.c ****             {
 317:../Middlewares/threadx/common/src/tx_thread_system_suspend.c **** 
 318:../Middlewares/threadx/common/src/tx_thread_system_suspend.c ****                 /* Calculate the lowest bit set in the priority map. */
 319:../Middlewares/threadx/common/src/tx_thread_system_suspend.c ****                 TX_LOWEST_SET_BIT_CALCULATE(priority_map, map_index)
 320:../Middlewares/threadx/common/src/tx_thread_system_suspend.c ****             }
 321:../Middlewares/threadx/common/src/tx_thread_system_suspend.c **** 
 322:../Middlewares/threadx/common/src/tx_thread_system_suspend.c ****             /* Calculate the base priority as well.  */
 323:../Middlewares/threadx/common/src/tx_thread_system_suspend.c ****             base_priority =  map_index * ((UINT) 32);
 324:../Middlewares/threadx/common/src/tx_thread_system_suspend.c **** #else
ARM GAS  /tmp/ccsStdKY.s 			page 28


 325:../Middlewares/threadx/common/src/tx_thread_system_suspend.c **** 
 326:../Middlewares/threadx/common/src/tx_thread_system_suspend.c ****             /* Setup the base priority to zero.  */
 327:../Middlewares/threadx/common/src/tx_thread_system_suspend.c ****             base_priority =   ((UINT) 0);
 328:../Middlewares/threadx/common/src/tx_thread_system_suspend.c **** #endif
 329:../Middlewares/threadx/common/src/tx_thread_system_suspend.c **** 
 330:../Middlewares/threadx/common/src/tx_thread_system_suspend.c ****             /* Setup working variable for the priority map.  */
 331:../Middlewares/threadx/common/src/tx_thread_system_suspend.c ****             priority_map =    _tx_thread_priority_maps[MAP_INDEX];
 332:../Middlewares/threadx/common/src/tx_thread_system_suspend.c **** 
 333:../Middlewares/threadx/common/src/tx_thread_system_suspend.c ****             /* Make a quick check for no other threads ready for execution.  */
 334:../Middlewares/threadx/common/src/tx_thread_system_suspend.c ****             if (priority_map == ((ULONG) 0))
 335:../Middlewares/threadx/common/src/tx_thread_system_suspend.c ****             {
 336:../Middlewares/threadx/common/src/tx_thread_system_suspend.c **** 
 337:../Middlewares/threadx/common/src/tx_thread_system_suspend.c ****                 /* Nothing else is ready.  Set highest priority and execute thread
 338:../Middlewares/threadx/common/src/tx_thread_system_suspend.c ****                    accordingly.  */
 339:../Middlewares/threadx/common/src/tx_thread_system_suspend.c ****                 _tx_thread_highest_priority =  ((UINT) TX_MAX_PRIORITIES);
 340:../Middlewares/threadx/common/src/tx_thread_system_suspend.c ****                 _tx_thread_execute_ptr =       TX_NULL;
 341:../Middlewares/threadx/common/src/tx_thread_system_suspend.c **** 
 342:../Middlewares/threadx/common/src/tx_thread_system_suspend.c **** #ifndef TX_MISRA_ENABLE
 343:../Middlewares/threadx/common/src/tx_thread_system_suspend.c **** 
 344:../Middlewares/threadx/common/src/tx_thread_system_suspend.c **** #ifdef TX_ENABLE_EVENT_TRACE
 345:../Middlewares/threadx/common/src/tx_thread_system_suspend.c **** 
 346:../Middlewares/threadx/common/src/tx_thread_system_suspend.c ****                 /* Check that the event time stamp is unchanged.  A different
 347:../Middlewares/threadx/common/src/tx_thread_system_suspend.c ****                    timestamp means that a later event wrote over the thread
 348:../Middlewares/threadx/common/src/tx_thread_system_suspend.c ****                    suspend event. In that case, do nothing here.  */
 349:../Middlewares/threadx/common/src/tx_thread_system_suspend.c ****                 if (entry_ptr != TX_NULL)
 350:../Middlewares/threadx/common/src/tx_thread_system_suspend.c ****                 {
 351:../Middlewares/threadx/common/src/tx_thread_system_suspend.c **** 
 352:../Middlewares/threadx/common/src/tx_thread_system_suspend.c ****                     /* Is the timestamp the same?  */
 353:../Middlewares/threadx/common/src/tx_thread_system_suspend.c ****                     if (time_stamp == entry_ptr -> tx_trace_buffer_entry_time_stamp)
 354:../Middlewares/threadx/common/src/tx_thread_system_suspend.c ****                     {
 355:../Middlewares/threadx/common/src/tx_thread_system_suspend.c **** 
 356:../Middlewares/threadx/common/src/tx_thread_system_suspend.c ****                         /* Timestamp is the same, set the "next thread pointer" to the new value of
 357:../Middlewares/threadx/common/src/tx_thread_system_suspend.c ****                            next thread to execute. This can be used by the trace analysis tool to k
 358:../Middlewares/threadx/common/src/tx_thread_system_suspend.c ****                            track of next thread execution.  */
 359:../Middlewares/threadx/common/src/tx_thread_system_suspend.c ****                         entry_ptr -> tx_trace_buffer_entry_information_field_4 =  0;
 360:../Middlewares/threadx/common/src/tx_thread_system_suspend.c ****                     }
 361:../Middlewares/threadx/common/src/tx_thread_system_suspend.c ****                 }
 362:../Middlewares/threadx/common/src/tx_thread_system_suspend.c **** #endif
 363:../Middlewares/threadx/common/src/tx_thread_system_suspend.c **** 
 364:../Middlewares/threadx/common/src/tx_thread_system_suspend.c ****                 /* Restore interrupts.  */
 365:../Middlewares/threadx/common/src/tx_thread_system_suspend.c ****                 TX_RESTORE
 366:../Middlewares/threadx/common/src/tx_thread_system_suspend.c **** 
 367:../Middlewares/threadx/common/src/tx_thread_system_suspend.c ****                 /* Determine if preemption should take place. This is only possible if the current 
 368:../Middlewares/threadx/common/src/tx_thread_system_suspend.c ****                    not the same as the execute thread pointer AND the system state and preempt disa
 369:../Middlewares/threadx/common/src/tx_thread_system_suspend.c ****                 TX_THREAD_SYSTEM_RETURN_CHECK(combined_flags)
 370:../Middlewares/threadx/common/src/tx_thread_system_suspend.c ****                 if (combined_flags == ((ULONG) 0))
 371:../Middlewares/threadx/common/src/tx_thread_system_suspend.c ****                 {
 372:../Middlewares/threadx/common/src/tx_thread_system_suspend.c **** 
 373:../Middlewares/threadx/common/src/tx_thread_system_suspend.c **** #ifdef TX_THREAD_ENABLE_PERFORMANCE_INFO
 374:../Middlewares/threadx/common/src/tx_thread_system_suspend.c **** 
 375:../Middlewares/threadx/common/src/tx_thread_system_suspend.c ****                     /* Yes, increment the return to idle return count.  */
 376:../Middlewares/threadx/common/src/tx_thread_system_suspend.c ****                     _tx_thread_performance_idle_return_count++;
 377:../Middlewares/threadx/common/src/tx_thread_system_suspend.c **** #endif
 378:../Middlewares/threadx/common/src/tx_thread_system_suspend.c **** 
 379:../Middlewares/threadx/common/src/tx_thread_system_suspend.c ****                     /* Preemption is needed - return to the system!  */
 380:../Middlewares/threadx/common/src/tx_thread_system_suspend.c ****                     _tx_thread_system_return();
 381:../Middlewares/threadx/common/src/tx_thread_system_suspend.c ****                 }
ARM GAS  /tmp/ccsStdKY.s 			page 29


 382:../Middlewares/threadx/common/src/tx_thread_system_suspend.c **** 
 383:../Middlewares/threadx/common/src/tx_thread_system_suspend.c ****                 /* Return to caller.  */
 384:../Middlewares/threadx/common/src/tx_thread_system_suspend.c ****                 return;
 385:../Middlewares/threadx/common/src/tx_thread_system_suspend.c **** #endif
 386:../Middlewares/threadx/common/src/tx_thread_system_suspend.c ****             }
 387:../Middlewares/threadx/common/src/tx_thread_system_suspend.c ****             else
 388:../Middlewares/threadx/common/src/tx_thread_system_suspend.c ****             {
 389:../Middlewares/threadx/common/src/tx_thread_system_suspend.c **** 
 390:../Middlewares/threadx/common/src/tx_thread_system_suspend.c ****                 /* Other threads at different priority levels are ready to run.  */
 391:../Middlewares/threadx/common/src/tx_thread_system_suspend.c **** 
 392:../Middlewares/threadx/common/src/tx_thread_system_suspend.c ****                 /* Calculate the lowest bit set in the priority map. */
 393:../Middlewares/threadx/common/src/tx_thread_system_suspend.c ****                 TX_LOWEST_SET_BIT_CALCULATE(priority_map, priority_bit)
 394:../Middlewares/threadx/common/src/tx_thread_system_suspend.c **** 
 395:../Middlewares/threadx/common/src/tx_thread_system_suspend.c ****                 /* Setup the next highest priority variable.  */
 396:../Middlewares/threadx/common/src/tx_thread_system_suspend.c ****                 _tx_thread_highest_priority =  base_priority + ((UINT) priority_bit);
 397:../Middlewares/threadx/common/src/tx_thread_system_suspend.c ****             }
 398:../Middlewares/threadx/common/src/tx_thread_system_suspend.c ****         }
 399:../Middlewares/threadx/common/src/tx_thread_system_suspend.c **** 
 400:../Middlewares/threadx/common/src/tx_thread_system_suspend.c ****         /* Determine if the suspending thread is the thread designated to execute.  */
 401:../Middlewares/threadx/common/src/tx_thread_system_suspend.c ****         if (thread_ptr == _tx_thread_execute_ptr)
 554              		.loc 1 401 9 is_stmt 1 view .LVU195
 555              		.loc 1 401 24 is_stmt 0 view .LVU196
 556 0168 D8F80030 		ldr	r3, [r8]
 557              		.loc 1 401 12 view .LVU197
 558 016c A342     		cmp	r3, r4
 559 016e 40F09980 		bne	.L27
 402:../Middlewares/threadx/common/src/tx_thread_system_suspend.c ****         {
 403:../Middlewares/threadx/common/src/tx_thread_system_suspend.c **** 
 404:../Middlewares/threadx/common/src/tx_thread_system_suspend.c ****             /* Pickup the highest priority thread to execute.  */
 405:../Middlewares/threadx/common/src/tx_thread_system_suspend.c ****             _tx_thread_execute_ptr =  _tx_thread_priority_list[_tx_thread_highest_priority];
 560              		.loc 1 405 13 is_stmt 1 view .LVU198
 561              		.loc 1 405 63 is_stmt 0 view .LVU199
 562 0172 464F     		ldr	r7, .L79+44
 563              	.LVL44:
 406:../Middlewares/threadx/common/src/tx_thread_system_suspend.c **** 
 407:../Middlewares/threadx/common/src/tx_thread_system_suspend.c **** #ifndef TX_DISABLE_PREEMPTION_THRESHOLD
 408:../Middlewares/threadx/common/src/tx_thread_system_suspend.c **** 
 409:../Middlewares/threadx/common/src/tx_thread_system_suspend.c ****             /* Determine if a previous thread with preemption-threshold was preempted.  */
 410:../Middlewares/threadx/common/src/tx_thread_system_suspend.c **** #if TX_MAX_PRIORITIES > 32
 411:../Middlewares/threadx/common/src/tx_thread_system_suspend.c ****             if (_tx_thread_preempted_map_active != ((ULONG) 0))
 412:../Middlewares/threadx/common/src/tx_thread_system_suspend.c **** #else
 413:../Middlewares/threadx/common/src/tx_thread_system_suspend.c ****             if (_tx_thread_preempted_maps[MAP_INDEX] != ((ULONG) 0))
 564              		.loc 1 413 42 view .LVU200
 565 0174 464C     		ldr	r4, .L79+48
 566              	.LVL45:
 405:../Middlewares/threadx/common/src/tx_thread_system_suspend.c **** 
 567              		.loc 1 405 63 view .LVU201
 568 0176 3B68     		ldr	r3, [r7]
 405:../Middlewares/threadx/common/src/tx_thread_system_suspend.c **** 
 569              		.loc 1 405 36 view .LVU202
 570 0178 51F82330 		ldr	r3, [r1, r3, lsl #2]
 571 017c C8F80030 		str	r3, [r8]
 572              		.loc 1 413 13 is_stmt 1 view .LVU203
 573              		.loc 1 413 16 is_stmt 0 view .LVU204
 574 0180 2368     		ldr	r3, [r4]
 575 0182 F3B1     		cbz	r3, .L28
 414:../Middlewares/threadx/common/src/tx_thread_system_suspend.c **** #endif
ARM GAS  /tmp/ccsStdKY.s 			page 30


 415:../Middlewares/threadx/common/src/tx_thread_system_suspend.c ****             {
 416:../Middlewares/threadx/common/src/tx_thread_system_suspend.c **** 
 417:../Middlewares/threadx/common/src/tx_thread_system_suspend.c ****                 /* Yes, there was a thread preempted when it was using preemption-threshold.  */
 418:../Middlewares/threadx/common/src/tx_thread_system_suspend.c **** 
 419:../Middlewares/threadx/common/src/tx_thread_system_suspend.c ****                 /* Disable preemption.  */
 420:../Middlewares/threadx/common/src/tx_thread_system_suspend.c ****                 _tx_thread_preempt_disable++;
 576              		.loc 1 420 17 is_stmt 1 view .LVU205
 577              		.loc 1 420 43 is_stmt 0 view .LVU206
 578 0184 3368     		ldr	r3, [r6]
 579 0186 0133     		adds	r3, r3, #1
 580 0188 3360     		str	r3, [r6]
 421:../Middlewares/threadx/common/src/tx_thread_system_suspend.c **** 
 422:../Middlewares/threadx/common/src/tx_thread_system_suspend.c ****                 /* Restore interrupts.  */
 423:../Middlewares/threadx/common/src/tx_thread_system_suspend.c ****                 TX_RESTORE
 581              		.loc 1 423 17 is_stmt 1 view .LVU207
 582              	.LVL46:
 583              	.LBB126:
 584              	.LBI126:
 586:../Middlewares/threadx/ports/cortex_m55/gnu/inc/tx_port.h **** {
 585              		.loc 2 586 55 view .LVU208
 586              	.LBB127:
 591:../Middlewares/threadx/ports/cortex_m55/gnu/inc/tx_port.h **** #endif
 587              		.loc 2 591 5 view .LVU209
 588              		.syntax unified
 589              	@ 591 "../Middlewares/threadx/ports/cortex_m55/gnu/inc/tx_port.h" 1
 590 018a 89F31088 		MSR  PRIMASK,r9
 591              	@ 0 "" 2
 592              	.LVL47:
 591:../Middlewares/threadx/ports/cortex_m55/gnu/inc/tx_port.h **** #endif
 593              		.loc 2 591 5 is_stmt 0 view .LVU210
 594              		.thumb
 595              		.syntax unified
 596              	.LBE127:
 597              	.LBE126:
 424:../Middlewares/threadx/common/src/tx_thread_system_suspend.c **** 
 425:../Middlewares/threadx/common/src/tx_thread_system_suspend.c ****                 /* Interrupts are enabled briefly here to keep the interrupt
 426:../Middlewares/threadx/common/src/tx_thread_system_suspend.c ****                    lockout time deterministic.  */
 427:../Middlewares/threadx/common/src/tx_thread_system_suspend.c **** 
 428:../Middlewares/threadx/common/src/tx_thread_system_suspend.c ****                 /* Disable interrupts again.  */
 429:../Middlewares/threadx/common/src/tx_thread_system_suspend.c ****                 TX_DISABLE
 598              		.loc 1 429 17 is_stmt 1 view .LVU211
 599              	.LBB128:
 600              	.LBI128:
 595:../Middlewares/threadx/ports/cortex_m55/gnu/inc/tx_port.h **** {
 601              		.loc 2 595 55 view .LVU212
 602              	.LBB129:
 597:../Middlewares/threadx/ports/cortex_m55/gnu/inc/tx_port.h **** 
 603              		.loc 2 597 1 view .LVU213
 599:../Middlewares/threadx/ports/cortex_m55/gnu/inc/tx_port.h **** 
 604              		.loc 2 599 5 view .LVU214
 605              	.LBB130:
 606              	.LBI130:
 563:../Middlewares/threadx/ports/cortex_m55/gnu/inc/tx_port.h **** {
 607              		.loc 2 563 55 view .LVU215
 608              	.LBB131:
 565:../Middlewares/threadx/ports/cortex_m55/gnu/inc/tx_port.h **** #ifdef TX_PORT_USE_BASEPRI
 609              		.loc 2 565 1 view .LVU216
ARM GAS  /tmp/ccsStdKY.s 			page 31


 569:../Middlewares/threadx/ports/cortex_m55/gnu/inc/tx_port.h **** #endif
 610              		.loc 2 569 5 view .LVU217
 611              		.syntax unified
 612              	@ 569 "../Middlewares/threadx/ports/cortex_m55/gnu/inc/tx_port.h" 1
 613 018e EFF31089 		MRS  r9, PRIMASK 
 614              	@ 0 "" 2
 615              	.LVL48:
 571:../Middlewares/threadx/ports/cortex_m55/gnu/inc/tx_port.h **** }
 616              		.loc 2 571 5 view .LVU218
 571:../Middlewares/threadx/ports/cortex_m55/gnu/inc/tx_port.h **** }
 617              		.loc 2 571 5 is_stmt 0 view .LVU219
 618              		.thumb
 619              		.syntax unified
 620              	.LBE131:
 621              	.LBE130:
 604:../Middlewares/threadx/ports/cortex_m55/gnu/inc/tx_port.h **** #endif
 622              		.loc 2 604 5 is_stmt 1 view .LVU220
 623              		.syntax unified
 624              	@ 604 "../Middlewares/threadx/ports/cortex_m55/gnu/inc/tx_port.h" 1
 625 0192 72B6     		CPSID i
 626              	@ 0 "" 2
 627              		.loc 2 606 5 view .LVU221
 628              	.LVL49:
 629              		.loc 2 606 5 is_stmt 0 view .LVU222
 630              		.thumb
 631              		.syntax unified
 632              	.LBE129:
 633              	.LBE128:
 430:../Middlewares/threadx/common/src/tx_thread_system_suspend.c **** 
 431:../Middlewares/threadx/common/src/tx_thread_system_suspend.c ****                 /* Decrement the preemption disable variable.  */
 432:../Middlewares/threadx/common/src/tx_thread_system_suspend.c ****                 _tx_thread_preempt_disable--;
 634              		.loc 1 432 17 is_stmt 1 view .LVU223
 635              		.loc 1 432 43 is_stmt 0 view .LVU224
 636 0194 3368     		ldr	r3, [r6]
 433:../Middlewares/threadx/common/src/tx_thread_system_suspend.c **** 
 434:../Middlewares/threadx/common/src/tx_thread_system_suspend.c ****                 /* Calculate the thread with preemption threshold set that
 435:../Middlewares/threadx/common/src/tx_thread_system_suspend.c ****                    was interrupted by a thread above the preemption level.  */
 436:../Middlewares/threadx/common/src/tx_thread_system_suspend.c **** 
 437:../Middlewares/threadx/common/src/tx_thread_system_suspend.c **** #if TX_MAX_PRIORITIES > 32
 438:../Middlewares/threadx/common/src/tx_thread_system_suspend.c **** 
 439:../Middlewares/threadx/common/src/tx_thread_system_suspend.c ****                 /* Calculate the index to find the next highest priority thread ready for execution
 440:../Middlewares/threadx/common/src/tx_thread_system_suspend.c ****                 priority_map =    _tx_thread_preempted_map_active;
 441:../Middlewares/threadx/common/src/tx_thread_system_suspend.c **** 
 442:../Middlewares/threadx/common/src/tx_thread_system_suspend.c ****                 /* Calculate the lowest bit set in the priority map. */
 443:../Middlewares/threadx/common/src/tx_thread_system_suspend.c ****                 TX_LOWEST_SET_BIT_CALCULATE(priority_map, map_index)
 444:../Middlewares/threadx/common/src/tx_thread_system_suspend.c **** 
 445:../Middlewares/threadx/common/src/tx_thread_system_suspend.c ****                 /* Calculate the base priority as well.  */
 446:../Middlewares/threadx/common/src/tx_thread_system_suspend.c ****                 base_priority =  map_index * ((UINT) 32);
 447:../Middlewares/threadx/common/src/tx_thread_system_suspend.c **** #else
 448:../Middlewares/threadx/common/src/tx_thread_system_suspend.c **** 
 449:../Middlewares/threadx/common/src/tx_thread_system_suspend.c ****                 /* Setup the base priority to zero.  */
 450:../Middlewares/threadx/common/src/tx_thread_system_suspend.c ****                 base_priority =   ((UINT) 0);
 451:../Middlewares/threadx/common/src/tx_thread_system_suspend.c **** #endif
 452:../Middlewares/threadx/common/src/tx_thread_system_suspend.c **** 
 453:../Middlewares/threadx/common/src/tx_thread_system_suspend.c ****                 /* Setup temporary preempted map.  */
 454:../Middlewares/threadx/common/src/tx_thread_system_suspend.c ****                 priority_map =  _tx_thread_preempted_maps[MAP_INDEX];
 637              		.loc 1 454 30 view .LVU225
ARM GAS  /tmp/ccsStdKY.s 			page 32


 638 0196 2268     		ldr	r2, [r4]
 432:../Middlewares/threadx/common/src/tx_thread_system_suspend.c **** 
 639              		.loc 1 432 43 view .LVU226
 640 0198 013B     		subs	r3, r3, #1
 641 019a 3360     		str	r3, [r6]
 450:../Middlewares/threadx/common/src/tx_thread_system_suspend.c **** #endif
 642              		.loc 1 450 17 is_stmt 1 view .LVU227
 643              	.LVL50:
 644              		.loc 1 454 17 view .LVU228
 455:../Middlewares/threadx/common/src/tx_thread_system_suspend.c **** 
 456:../Middlewares/threadx/common/src/tx_thread_system_suspend.c ****                 /* Calculate the lowest bit set in the priority map. */
 457:../Middlewares/threadx/common/src/tx_thread_system_suspend.c ****                 TX_LOWEST_SET_BIT_CALCULATE(priority_map, priority_bit)
 645              		.loc 1 457 17 view .LVU229
 646              		.syntax unified
 647              	@ 457 "../Middlewares/threadx/common/src/tx_thread_system_suspend.c" 1
 648 019c 92FAA2F3 		 RBIT r3,r2 
 649              	@ 0 "" 2
 650              	.LVL51:
 651              		.loc 1 457 17 view .LVU230
 652              	@ 457 "../Middlewares/threadx/common/src/tx_thread_system_suspend.c" 1
 653 01a0 B3FA83F3 		 CLZ  r3,r3 
 654              	@ 0 "" 2
 655              	.LVL52:
 458:../Middlewares/threadx/common/src/tx_thread_system_suspend.c **** 
 459:../Middlewares/threadx/common/src/tx_thread_system_suspend.c ****                 /* Setup the highest priority preempted thread.  */
 460:../Middlewares/threadx/common/src/tx_thread_system_suspend.c ****                 priority =  base_priority + ((UINT) priority_bit);
 656              		.loc 1 460 17 view .LVU231
 461:../Middlewares/threadx/common/src/tx_thread_system_suspend.c **** 
 462:../Middlewares/threadx/common/src/tx_thread_system_suspend.c ****                 /* Determine if the next highest priority thread is above the highest priority thre
 463:../Middlewares/threadx/common/src/tx_thread_system_suspend.c ****                 if (_tx_thread_highest_priority >= (_tx_thread_priority_list[priority] -> tx_thread
 657              		.loc 1 463 77 is_stmt 0 view .LVU232
 658              		.thumb
 659              		.syntax unified
 660 01a4 51F82310 		ldr	r1, [r1, r3, lsl #2]
 661              		.loc 1 463 20 view .LVU233
 662 01a8 3F68     		ldr	r7, [r7]
 663 01aa C86B     		ldr	r0, [r1, #60]
 460:../Middlewares/threadx/common/src/tx_thread_system_suspend.c **** 
 664              		.loc 1 460 26 view .LVU234
 665 01ac 0193     		str	r3, [sp, #4]
 666              		.loc 1 463 17 is_stmt 1 view .LVU235
 667              		.loc 1 463 20 is_stmt 0 view .LVU236
 668 01ae B842     		cmp	r0, r7
 669 01b0 07D8     		bhi	.L28
 464:../Middlewares/threadx/common/src/tx_thread_system_suspend.c ****                 {
 465:../Middlewares/threadx/common/src/tx_thread_system_suspend.c **** 
 466:../Middlewares/threadx/common/src/tx_thread_system_suspend.c ****                     /* Thread not allowed to execute until earlier preempted thread finishes or low
 467:../Middlewares/threadx/common/src/tx_thread_system_suspend.c ****                        preemption-threshold.  */
 468:../Middlewares/threadx/common/src/tx_thread_system_suspend.c ****                     _tx_thread_execute_ptr =  _tx_thread_priority_list[priority];
 670              		.loc 1 468 21 is_stmt 1 view .LVU237
 671              		.loc 1 468 44 is_stmt 0 view .LVU238
 672 01b2 C8F80010 		str	r1, [r8]
 469:../Middlewares/threadx/common/src/tx_thread_system_suspend.c **** 
 470:../Middlewares/threadx/common/src/tx_thread_system_suspend.c ****                     /* Clear the corresponding bit in the preempted map, since the preemption has b
 471:../Middlewares/threadx/common/src/tx_thread_system_suspend.c ****                     TX_MOD32_BIT_SET(priority, priority_bit)
 673              		.loc 1 471 21 is_stmt 1 view .LVU239
 674              	.LVL53:
ARM GAS  /tmp/ccsStdKY.s 			page 33


 472:../Middlewares/threadx/common/src/tx_thread_system_suspend.c ****                     _tx_thread_preempted_maps[MAP_INDEX] =  _tx_thread_preempted_maps[MAP_INDEX] & 
 675              		.loc 1 472 21 view .LVU240
 471:../Middlewares/threadx/common/src/tx_thread_system_suspend.c ****                     _tx_thread_preempted_maps[MAP_INDEX] =  _tx_thread_preempted_maps[MAP_INDEX] & 
 676              		.loc 1 471 21 is_stmt 0 view .LVU241
 677 01b6 0121     		movs	r1, #1
 678 01b8 01FA03F3 		lsl	r3, r1, r3
 679              	.LVL54:
 680              		.loc 1 472 98 view .LVU242
 681 01bc 22EA0303 		bic	r3, r2, r3
 682              	.LVL55:
 683              		.loc 1 472 58 view .LVU243
 684 01c0 2360     		str	r3, [r4]
 685              	.LVL56:
 686              	.L28:
 473:../Middlewares/threadx/common/src/tx_thread_system_suspend.c **** 
 474:../Middlewares/threadx/common/src/tx_thread_system_suspend.c **** #if TX_MAX_PRIORITIES > 32
 475:../Middlewares/threadx/common/src/tx_thread_system_suspend.c **** 
 476:../Middlewares/threadx/common/src/tx_thread_system_suspend.c ****                     /* Determine if there are any other bits set in this preempt map.  */
 477:../Middlewares/threadx/common/src/tx_thread_system_suspend.c ****                     if (_tx_thread_preempted_maps[MAP_INDEX] == ((ULONG) 0))
 478:../Middlewares/threadx/common/src/tx_thread_system_suspend.c ****                     {
 479:../Middlewares/threadx/common/src/tx_thread_system_suspend.c **** 
 480:../Middlewares/threadx/common/src/tx_thread_system_suspend.c ****                         /* No, clear the active bit to signify this preempt map has nothing set.  *
 481:../Middlewares/threadx/common/src/tx_thread_system_suspend.c ****                         TX_DIV32_BIT_SET(priority, priority_bit)
 482:../Middlewares/threadx/common/src/tx_thread_system_suspend.c ****                         _tx_thread_preempted_map_active =  _tx_thread_preempted_map_active & (~(pri
 483:../Middlewares/threadx/common/src/tx_thread_system_suspend.c ****                     }
 484:../Middlewares/threadx/common/src/tx_thread_system_suspend.c **** #endif
 485:../Middlewares/threadx/common/src/tx_thread_system_suspend.c ****                 }
 486:../Middlewares/threadx/common/src/tx_thread_system_suspend.c ****             }
 487:../Middlewares/threadx/common/src/tx_thread_system_suspend.c **** #endif
 488:../Middlewares/threadx/common/src/tx_thread_system_suspend.c **** 
 489:../Middlewares/threadx/common/src/tx_thread_system_suspend.c **** #ifndef TX_MISRA_ENABLE
 490:../Middlewares/threadx/common/src/tx_thread_system_suspend.c **** 
 491:../Middlewares/threadx/common/src/tx_thread_system_suspend.c **** #ifdef TX_THREAD_ENABLE_PERFORMANCE_INFO
 492:../Middlewares/threadx/common/src/tx_thread_system_suspend.c **** 
 493:../Middlewares/threadx/common/src/tx_thread_system_suspend.c ****             /* Is the execute pointer different?  */
 494:../Middlewares/threadx/common/src/tx_thread_system_suspend.c ****             if (_tx_thread_performance_execute_log[_tx_thread_performance__execute_log_index] != _t
 495:../Middlewares/threadx/common/src/tx_thread_system_suspend.c ****             {
 496:../Middlewares/threadx/common/src/tx_thread_system_suspend.c **** 
 497:../Middlewares/threadx/common/src/tx_thread_system_suspend.c ****                 /* Move to next entry.  */
 498:../Middlewares/threadx/common/src/tx_thread_system_suspend.c ****                 _tx_thread_performance__execute_log_index++;
 499:../Middlewares/threadx/common/src/tx_thread_system_suspend.c **** 
 500:../Middlewares/threadx/common/src/tx_thread_system_suspend.c ****                 /* Check for wrap condition.  */
 501:../Middlewares/threadx/common/src/tx_thread_system_suspend.c ****                 if (_tx_thread_performance__execute_log_index >= TX_THREAD_EXECUTE_LOG_SIZE)
 502:../Middlewares/threadx/common/src/tx_thread_system_suspend.c ****                 {
 503:../Middlewares/threadx/common/src/tx_thread_system_suspend.c **** 
 504:../Middlewares/threadx/common/src/tx_thread_system_suspend.c ****                     /* Set the index to the beginning.  */
 505:../Middlewares/threadx/common/src/tx_thread_system_suspend.c ****                     _tx_thread_performance__execute_log_index =  ((UINT) 0);
 506:../Middlewares/threadx/common/src/tx_thread_system_suspend.c ****                 }
 507:../Middlewares/threadx/common/src/tx_thread_system_suspend.c **** 
 508:../Middlewares/threadx/common/src/tx_thread_system_suspend.c ****                 /* Log the new execute pointer.  */
 509:../Middlewares/threadx/common/src/tx_thread_system_suspend.c ****                 _tx_thread_performance_execute_log[_tx_thread_performance__execute_log_index] =  _t
 510:../Middlewares/threadx/common/src/tx_thread_system_suspend.c ****             }
 511:../Middlewares/threadx/common/src/tx_thread_system_suspend.c **** #endif
 512:../Middlewares/threadx/common/src/tx_thread_system_suspend.c **** 
 513:../Middlewares/threadx/common/src/tx_thread_system_suspend.c **** #ifdef TX_ENABLE_EVENT_TRACE
 514:../Middlewares/threadx/common/src/tx_thread_system_suspend.c **** 
 515:../Middlewares/threadx/common/src/tx_thread_system_suspend.c ****             /* Check that the event time stamp is unchanged.  A different
ARM GAS  /tmp/ccsStdKY.s 			page 34


 516:../Middlewares/threadx/common/src/tx_thread_system_suspend.c ****                timestamp means that a later event wrote over the thread
 517:../Middlewares/threadx/common/src/tx_thread_system_suspend.c ****                suspend event. In that case, do nothing here.  */
 518:../Middlewares/threadx/common/src/tx_thread_system_suspend.c ****             if (entry_ptr != TX_NULL)
 687              		.loc 1 518 13 is_stmt 1 view .LVU244
 688              		.loc 1 518 16 is_stmt 0 view .LVU245
 689 01c2 95B3     		cbz	r5, .L30
 519:../Middlewares/threadx/common/src/tx_thread_system_suspend.c ****             {
 520:../Middlewares/threadx/common/src/tx_thread_system_suspend.c **** 
 521:../Middlewares/threadx/common/src/tx_thread_system_suspend.c ****                 /* Is the timestamp the same?  */
 522:../Middlewares/threadx/common/src/tx_thread_system_suspend.c ****                 if (time_stamp == entry_ptr -> tx_trace_buffer_entry_time_stamp)
 690              		.loc 1 522 17 is_stmt 1 view .LVU246
 691              		.loc 1 522 20 is_stmt 0 view .LVU247
 692 01c4 EB68     		ldr	r3, [r5, #12]
 693 01c6 5B45     		cmp	r3, fp
 694 01c8 2FD1     		bne	.L30
 523:../Middlewares/threadx/common/src/tx_thread_system_suspend.c ****                 {
 524:../Middlewares/threadx/common/src/tx_thread_system_suspend.c **** 
 525:../Middlewares/threadx/common/src/tx_thread_system_suspend.c ****                     /* Timestamp is the same, set the "next thread pointer" to the new value of the
 526:../Middlewares/threadx/common/src/tx_thread_system_suspend.c ****                        next thread to execute. This can be used by the trace analysis tool to keep
 527:../Middlewares/threadx/common/src/tx_thread_system_suspend.c ****                        track of next thread execution.  */
 528:../Middlewares/threadx/common/src/tx_thread_system_suspend.c ****                     entry_ptr -> tx_trace_buffer_entry_information_field_4 =  TX_POINTER_TO_ULONG_C
 695              		.loc 1 528 21 is_stmt 1 view .LVU248
 696              		.loc 1 528 76 is_stmt 0 view .LVU249
 697 01ca D8F80030 		ldr	r3, [r8]
 698 01ce 2BE0     		b	.L78
 699              	.LVL57:
 700              	.L13:
 701              	.LBB132:
 180:../Middlewares/threadx/common/src/tx_thread_system_suspend.c **** 
 702              		.loc 1 180 9 is_stmt 1 discriminator 4 view .LVU250
 703 01d0 B3F1F03F 		cmp	r3, #-252645136
 180:../Middlewares/threadx/common/src/tx_thread_system_suspend.c **** 
 704              		.loc 1 180 9 discriminator 6 view .LVU251
 705 01d4 35BF     		itete	cc
 706 01d6 0B46     		movcc	r3, r1
 707              	.LVL58:
 180:../Middlewares/threadx/common/src/tx_thread_system_suspend.c **** 
 708              		.loc 1 180 9 view .LVU252
 180:../Middlewares/threadx/common/src/tx_thread_system_suspend.c **** 
 709              		.loc 1 180 9 is_stmt 0 discriminator 7 view .LVU253
 710 01d8 4FF0F031 		movcs	r1, #-252645136
 180:../Middlewares/threadx/common/src/tx_thread_system_suspend.c **** 
 711              		.loc 1 180 9 discriminator 6 view .LVU254
 712 01dc 4FF0FF31 		movcc	r1, #-1
 713              	.LVL59:
 180:../Middlewares/threadx/common/src/tx_thread_system_suspend.c **** 
 714              		.loc 1 180 9 discriminator 7 view .LVU255
 715 01e0 0023     		movcs	r3, #0
 716 01e2 7EE7     		b	.L14
 717              	.LVL60:
 718              	.L15:
 180:../Middlewares/threadx/common/src/tx_thread_system_suspend.c **** 
 719              		.loc 1 180 9 is_stmt 1 discriminator 11 view .LVU256
 720 01e4 CCF80030 		str	r3, [ip]
 180:../Middlewares/threadx/common/src/tx_thread_system_suspend.c **** 
 721              		.loc 1 180 9 view .LVU257
 180:../Middlewares/threadx/common/src/tx_thread_system_suspend.c **** 
ARM GAS  /tmp/ccsStdKY.s 			page 35


 722              		.loc 1 180 9 is_stmt 0 discriminator 11 view .LVU258
 723 01e8 0362     		str	r3, [r0, #32]
 724              	.LBE132:
 187:../Middlewares/threadx/common/src/tx_thread_system_suspend.c ****         {
 725              		.loc 1 187 9 is_stmt 1 view .LVU259
 726 01ea 9AE7     		b	.L12
 727              	.LVL61:
 728              	.L17:
 261:../Middlewares/threadx/common/src/tx_thread_system_suspend.c **** 
 729              		.loc 1 261 13 view .LVU260
 261:../Middlewares/threadx/common/src/tx_thread_system_suspend.c **** 
 730              		.loc 1 261 48 is_stmt 0 view .LVU261
 731 01ec 41F82230 		str	r3, [r1, r2, lsl #2]
 270:../Middlewares/threadx/common/src/tx_thread_system_suspend.c ****             _tx_thread_priority_maps[MAP_INDEX] =  _tx_thread_priority_maps[MAP_INDEX] & (~(priorit
 732              		.loc 1 270 13 is_stmt 1 view .LVU262
 733              	.LVL62:
 271:../Middlewares/threadx/common/src/tx_thread_system_suspend.c **** 
 734              		.loc 1 271 13 view .LVU263
 270:../Middlewares/threadx/common/src/tx_thread_system_suspend.c ****             _tx_thread_priority_maps[MAP_INDEX] =  _tx_thread_priority_maps[MAP_INDEX] & (~(priorit
 735              		.loc 1 270 13 is_stmt 0 view .LVU264
 736 01f0 0123     		movs	r3, #1
 737 01f2 9340     		lsls	r3, r3, r2
 738              	.LVL63:
 271:../Middlewares/threadx/common/src/tx_thread_system_suspend.c **** 
 739              		.loc 1 271 76 view .LVU265
 740 01f4 274A     		ldr	r2, .L79+52
 288:../Middlewares/threadx/common/src/tx_thread_system_suspend.c ****             {
 741              		.loc 1 288 42 view .LVU266
 742 01f6 DFF898E0 		ldr	lr, .L79+48
 271:../Middlewares/threadx/common/src/tx_thread_system_suspend.c **** 
 743              		.loc 1 271 88 view .LVU267
 744 01fa 1068     		ldr	r0, [r2]
 271:../Middlewares/threadx/common/src/tx_thread_system_suspend.c **** 
 745              		.loc 1 271 91 view .LVU268
 746 01fc 6FEA030C 		mvn	ip, r3
 747              	.LVL64:
 271:../Middlewares/threadx/common/src/tx_thread_system_suspend.c **** 
 748              		.loc 1 271 88 view .LVU269
 749 0200 20EA0303 		bic	r3, r0, r3
 750              	.LVL65:
 271:../Middlewares/threadx/common/src/tx_thread_system_suspend.c **** 
 751              		.loc 1 271 49 view .LVU270
 752 0204 1360     		str	r3, [r2]
 288:../Middlewares/threadx/common/src/tx_thread_system_suspend.c ****             {
 753              		.loc 1 288 13 is_stmt 1 view .LVU271
 288:../Middlewares/threadx/common/src/tx_thread_system_suspend.c ****             {
 754              		.loc 1 288 42 is_stmt 0 view .LVU272
 755 0206 DEF80020 		ldr	r2, [lr]
 288:../Middlewares/threadx/common/src/tx_thread_system_suspend.c ****             {
 756              		.loc 1 288 16 view .LVU273
 757 020a 1AB1     		cbz	r2, .L21
 292:../Middlewares/threadx/common/src/tx_thread_system_suspend.c ****                 _tx_thread_preempted_maps[MAP_INDEX] =  _tx_thread_preempted_maps[MAP_INDEX] & (~(p
 758              		.loc 1 292 17 is_stmt 1 view .LVU274
 293:../Middlewares/threadx/common/src/tx_thread_system_suspend.c **** 
 759              		.loc 1 293 17 view .LVU275
 293:../Middlewares/threadx/common/src/tx_thread_system_suspend.c **** 
 760              		.loc 1 293 94 is_stmt 0 view .LVU276
ARM GAS  /tmp/ccsStdKY.s 			page 36


 761 020c 0CEA0202 		and	r2, ip, r2
 293:../Middlewares/threadx/common/src/tx_thread_system_suspend.c **** 
 762              		.loc 1 293 54 view .LVU277
 763 0210 CEF80020 		str	r2, [lr]
 764              	.LVL66:
 765              	.L21:
 327:../Middlewares/threadx/common/src/tx_thread_system_suspend.c **** #endif
 766              		.loc 1 327 13 is_stmt 1 view .LVU278
 331:../Middlewares/threadx/common/src/tx_thread_system_suspend.c **** 
 767              		.loc 1 331 13 view .LVU279
 334:../Middlewares/threadx/common/src/tx_thread_system_suspend.c ****             {
 768              		.loc 1 334 13 view .LVU280
 769 0214 1D4A     		ldr	r2, .L79+44
 334:../Middlewares/threadx/common/src/tx_thread_system_suspend.c ****             {
 770              		.loc 1 334 16 is_stmt 0 view .LVU281
 771 0216 EBB9     		cbnz	r3, .L22
 339:../Middlewares/threadx/common/src/tx_thread_system_suspend.c ****                 _tx_thread_execute_ptr =       TX_NULL;
 772              		.loc 1 339 17 is_stmt 1 view .LVU282
 339:../Middlewares/threadx/common/src/tx_thread_system_suspend.c ****                 _tx_thread_execute_ptr =       TX_NULL;
 773              		.loc 1 339 45 is_stmt 0 view .LVU283
 774 0218 2021     		movs	r1, #32
 340:../Middlewares/threadx/common/src/tx_thread_system_suspend.c **** 
 775              		.loc 1 340 40 view .LVU284
 776 021a C8F80030 		str	r3, [r8]
 339:../Middlewares/threadx/common/src/tx_thread_system_suspend.c ****                 _tx_thread_execute_ptr =       TX_NULL;
 777              		.loc 1 339 45 view .LVU285
 778 021e 1160     		str	r1, [r2]
 340:../Middlewares/threadx/common/src/tx_thread_system_suspend.c **** 
 779              		.loc 1 340 17 is_stmt 1 view .LVU286
 349:../Middlewares/threadx/common/src/tx_thread_system_suspend.c ****                 {
 780              		.loc 1 349 17 view .LVU287
 349:../Middlewares/threadx/common/src/tx_thread_system_suspend.c ****                 {
 781              		.loc 1 349 20 is_stmt 0 view .LVU288
 782 0220 1DB1     		cbz	r5, .L30
 353:../Middlewares/threadx/common/src/tx_thread_system_suspend.c ****                     {
 783              		.loc 1 353 21 is_stmt 1 view .LVU289
 353:../Middlewares/threadx/common/src/tx_thread_system_suspend.c ****                     {
 784              		.loc 1 353 24 is_stmt 0 view .LVU290
 785 0222 EA68     		ldr	r2, [r5, #12]
 786 0224 5A45     		cmp	r2, fp
 787 0226 00D1     		bne	.L30
 788              	.LVL67:
 789              	.L78:
 790              		.loc 1 528 76 view .LVU291
 791 0228 EB61     		str	r3, [r5, #28]
 792              	.L30:
 529:../Middlewares/threadx/common/src/tx_thread_system_suspend.c ****                 }
 530:../Middlewares/threadx/common/src/tx_thread_system_suspend.c ****             }
 531:../Middlewares/threadx/common/src/tx_thread_system_suspend.c **** #endif
 532:../Middlewares/threadx/common/src/tx_thread_system_suspend.c **** 
 533:../Middlewares/threadx/common/src/tx_thread_system_suspend.c ****             /* Restore interrupts.  */
 534:../Middlewares/threadx/common/src/tx_thread_system_suspend.c ****             TX_RESTORE
 793              		.loc 1 534 13 is_stmt 1 view .LVU292
 794              	.LVL68:
 795              	.LBB133:
 796              	.LBI133:
 586:../Middlewares/threadx/ports/cortex_m55/gnu/inc/tx_port.h **** {
ARM GAS  /tmp/ccsStdKY.s 			page 37


 797              		.loc 2 586 55 view .LVU293
 798              	.LBB134:
 591:../Middlewares/threadx/ports/cortex_m55/gnu/inc/tx_port.h **** #endif
 799              		.loc 2 591 5 view .LVU294
 800              		.syntax unified
 801              	@ 591 "../Middlewares/threadx/ports/cortex_m55/gnu/inc/tx_port.h" 1
 802 022a 89F31088 		MSR  PRIMASK,r9
 803              	@ 0 "" 2
 804              	.LVL69:
 591:../Middlewares/threadx/ports/cortex_m55/gnu/inc/tx_port.h **** #endif
 805              		.loc 2 591 5 is_stmt 0 view .LVU295
 806              		.thumb
 807              		.syntax unified
 808              	.LBE134:
 809              	.LBE133:
 535:../Middlewares/threadx/common/src/tx_thread_system_suspend.c **** 
 536:../Middlewares/threadx/common/src/tx_thread_system_suspend.c ****             /* Determine if preemption should take place. This is only possible if the current thre
 537:../Middlewares/threadx/common/src/tx_thread_system_suspend.c ****                not the same as the execute thread pointer AND the system state and preempt disable 
 538:../Middlewares/threadx/common/src/tx_thread_system_suspend.c ****             TX_THREAD_SYSTEM_RETURN_CHECK(combined_flags)
 810              		.loc 1 538 13 is_stmt 1 view .LVU296
 811              	.L76:
 539:../Middlewares/threadx/common/src/tx_thread_system_suspend.c ****             if (combined_flags == ((ULONG) 0))
 540:../Middlewares/threadx/common/src/tx_thread_system_suspend.c ****             {
 541:../Middlewares/threadx/common/src/tx_thread_system_suspend.c **** 
 542:../Middlewares/threadx/common/src/tx_thread_system_suspend.c **** #ifdef TX_THREAD_ENABLE_PERFORMANCE_INFO
 543:../Middlewares/threadx/common/src/tx_thread_system_suspend.c **** 
 544:../Middlewares/threadx/common/src/tx_thread_system_suspend.c ****                 /* No, there is another thread ready to run and will be scheduled upon return.  */
 545:../Middlewares/threadx/common/src/tx_thread_system_suspend.c ****                 _tx_thread_performance_non_idle_return_count++;
 546:../Middlewares/threadx/common/src/tx_thread_system_suspend.c **** #endif
 547:../Middlewares/threadx/common/src/tx_thread_system_suspend.c **** 
 548:../Middlewares/threadx/common/src/tx_thread_system_suspend.c ****                 /* Preemption is needed - return to the system!  */
 549:../Middlewares/threadx/common/src/tx_thread_system_suspend.c ****                 _tx_thread_system_return();
 550:../Middlewares/threadx/common/src/tx_thread_system_suspend.c ****             }
 551:../Middlewares/threadx/common/src/tx_thread_system_suspend.c **** 
 552:../Middlewares/threadx/common/src/tx_thread_system_suspend.c ****             /* Return to caller.  */
 553:../Middlewares/threadx/common/src/tx_thread_system_suspend.c ****             return;
 554:../Middlewares/threadx/common/src/tx_thread_system_suspend.c **** #endif
 555:../Middlewares/threadx/common/src/tx_thread_system_suspend.c ****         }
 556:../Middlewares/threadx/common/src/tx_thread_system_suspend.c **** 
 557:../Middlewares/threadx/common/src/tx_thread_system_suspend.c **** #ifdef TX_THREAD_ENABLE_PERFORMANCE_INFO
 558:../Middlewares/threadx/common/src/tx_thread_system_suspend.c **** 
 559:../Middlewares/threadx/common/src/tx_thread_system_suspend.c ****         /* Is the execute pointer different?  */
 560:../Middlewares/threadx/common/src/tx_thread_system_suspend.c ****         if (_tx_thread_performance_execute_log[_tx_thread_performance__execute_log_index] != _tx_th
 561:../Middlewares/threadx/common/src/tx_thread_system_suspend.c ****         {
 562:../Middlewares/threadx/common/src/tx_thread_system_suspend.c **** 
 563:../Middlewares/threadx/common/src/tx_thread_system_suspend.c ****             /* Move to next entry.  */
 564:../Middlewares/threadx/common/src/tx_thread_system_suspend.c ****             _tx_thread_performance__execute_log_index++;
 565:../Middlewares/threadx/common/src/tx_thread_system_suspend.c **** 
 566:../Middlewares/threadx/common/src/tx_thread_system_suspend.c ****             /* Check for wrap condition.  */
 567:../Middlewares/threadx/common/src/tx_thread_system_suspend.c ****             if (_tx_thread_performance__execute_log_index >= TX_THREAD_EXECUTE_LOG_SIZE)
 568:../Middlewares/threadx/common/src/tx_thread_system_suspend.c ****             {
 569:../Middlewares/threadx/common/src/tx_thread_system_suspend.c **** 
 570:../Middlewares/threadx/common/src/tx_thread_system_suspend.c ****                 /* Set the index to the beginning.  */
 571:../Middlewares/threadx/common/src/tx_thread_system_suspend.c ****                 _tx_thread_performance__execute_log_index =  ((UINT) 0);
 572:../Middlewares/threadx/common/src/tx_thread_system_suspend.c ****             }
 573:../Middlewares/threadx/common/src/tx_thread_system_suspend.c **** 
 574:../Middlewares/threadx/common/src/tx_thread_system_suspend.c ****             /* Log the new execute pointer.  */
ARM GAS  /tmp/ccsStdKY.s 			page 38


 575:../Middlewares/threadx/common/src/tx_thread_system_suspend.c ****             _tx_thread_performance_execute_log[_tx_thread_performance__execute_log_index] =  _tx_th
 576:../Middlewares/threadx/common/src/tx_thread_system_suspend.c ****         }
 577:../Middlewares/threadx/common/src/tx_thread_system_suspend.c **** #endif
 578:../Middlewares/threadx/common/src/tx_thread_system_suspend.c **** 
 579:../Middlewares/threadx/common/src/tx_thread_system_suspend.c **** #ifdef TX_ENABLE_EVENT_TRACE
 580:../Middlewares/threadx/common/src/tx_thread_system_suspend.c **** 
 581:../Middlewares/threadx/common/src/tx_thread_system_suspend.c ****          /* Check that the event time stamp is unchanged.  A different
 582:../Middlewares/threadx/common/src/tx_thread_system_suspend.c ****             timestamp means that a later event wrote over the thread
 583:../Middlewares/threadx/common/src/tx_thread_system_suspend.c ****             suspend event. In that case, do nothing here.  */
 584:../Middlewares/threadx/common/src/tx_thread_system_suspend.c ****          if (entry_ptr != TX_NULL)
 585:../Middlewares/threadx/common/src/tx_thread_system_suspend.c ****          {
 586:../Middlewares/threadx/common/src/tx_thread_system_suspend.c **** 
 587:../Middlewares/threadx/common/src/tx_thread_system_suspend.c ****             /* Is the timestamp the same?  */
 588:../Middlewares/threadx/common/src/tx_thread_system_suspend.c ****             if (time_stamp == entry_ptr -> tx_trace_buffer_entry_time_stamp)
 589:../Middlewares/threadx/common/src/tx_thread_system_suspend.c ****             {
 590:../Middlewares/threadx/common/src/tx_thread_system_suspend.c **** 
 591:../Middlewares/threadx/common/src/tx_thread_system_suspend.c ****                 /* Timestamp is the same, set the "next thread pointer" to the new value of the
 592:../Middlewares/threadx/common/src/tx_thread_system_suspend.c ****                    next thread to execute. This can be used by the trace analysis tool to keep
 593:../Middlewares/threadx/common/src/tx_thread_system_suspend.c ****                    track of next thread execution.  */
 594:../Middlewares/threadx/common/src/tx_thread_system_suspend.c **** #ifdef TX_MISRA_ENABLE
 595:../Middlewares/threadx/common/src/tx_thread_system_suspend.c ****                 entry_ptr -> tx_trace_buffer_entry_info_4 =  TX_POINTER_TO_ULONG_CONVERT(_tx_thread
 596:../Middlewares/threadx/common/src/tx_thread_system_suspend.c **** #else
 597:../Middlewares/threadx/common/src/tx_thread_system_suspend.c ****                 entry_ptr -> tx_trace_buffer_entry_information_field_4 =  TX_POINTER_TO_ULONG_CONVE
 598:../Middlewares/threadx/common/src/tx_thread_system_suspend.c **** #endif
 599:../Middlewares/threadx/common/src/tx_thread_system_suspend.c ****             }
 600:../Middlewares/threadx/common/src/tx_thread_system_suspend.c ****         }
 601:../Middlewares/threadx/common/src/tx_thread_system_suspend.c **** #endif
 602:../Middlewares/threadx/common/src/tx_thread_system_suspend.c ****     }
 603:../Middlewares/threadx/common/src/tx_thread_system_suspend.c **** 
 604:../Middlewares/threadx/common/src/tx_thread_system_suspend.c ****     /* Restore interrupts.  */
 605:../Middlewares/threadx/common/src/tx_thread_system_suspend.c ****     TX_RESTORE
 606:../Middlewares/threadx/common/src/tx_thread_system_suspend.c **** 
 607:../Middlewares/threadx/common/src/tx_thread_system_suspend.c ****     /* Determine if a preemption condition is present.  */
 608:../Middlewares/threadx/common/src/tx_thread_system_suspend.c ****     if (current_thread != _tx_thread_execute_ptr)
 609:../Middlewares/threadx/common/src/tx_thread_system_suspend.c ****     {
 610:../Middlewares/threadx/common/src/tx_thread_system_suspend.c **** 
 611:../Middlewares/threadx/common/src/tx_thread_system_suspend.c **** #ifdef TX_ENABLE_STACK_CHECKING
 612:../Middlewares/threadx/common/src/tx_thread_system_suspend.c **** 
 613:../Middlewares/threadx/common/src/tx_thread_system_suspend.c ****         /* Pickup the next execute pointer.  */
 614:../Middlewares/threadx/common/src/tx_thread_system_suspend.c ****         thread_ptr =  _tx_thread_execute_ptr;
 615:../Middlewares/threadx/common/src/tx_thread_system_suspend.c **** 
 616:../Middlewares/threadx/common/src/tx_thread_system_suspend.c ****         /* Check this thread's stack.  */
 617:../Middlewares/threadx/common/src/tx_thread_system_suspend.c ****         TX_THREAD_STACK_CHECK(thread_ptr)
 618:../Middlewares/threadx/common/src/tx_thread_system_suspend.c **** #endif
 619:../Middlewares/threadx/common/src/tx_thread_system_suspend.c **** 
 620:../Middlewares/threadx/common/src/tx_thread_system_suspend.c ****         /* Determine if preemption should take place. This is only possible if the current thread p
 621:../Middlewares/threadx/common/src/tx_thread_system_suspend.c ****            not the same as the execute thread pointer AND the system state and preempt disable flag
 622:../Middlewares/threadx/common/src/tx_thread_system_suspend.c ****         TX_THREAD_SYSTEM_RETURN_CHECK(combined_flags)
 812              		.loc 1 622 9 view .LVU297
 813 022e 3368     		ldr	r3, [r6]
 814              	.LVL70:
 623:../Middlewares/threadx/common/src/tx_thread_system_suspend.c ****         if (combined_flags == ((ULONG) 0))
 815              		.loc 1 623 9 view .LVU298
 816              		.loc 1 623 12 is_stmt 0 view .LVU299
 817 0230 6BB9     		cbnz	r3, .L1
 624:../Middlewares/threadx/common/src/tx_thread_system_suspend.c ****         {
 625:../Middlewares/threadx/common/src/tx_thread_system_suspend.c **** 
ARM GAS  /tmp/ccsStdKY.s 			page 39


 626:../Middlewares/threadx/common/src/tx_thread_system_suspend.c **** #ifdef TX_THREAD_ENABLE_PERFORMANCE_INFO
 627:../Middlewares/threadx/common/src/tx_thread_system_suspend.c **** 
 628:../Middlewares/threadx/common/src/tx_thread_system_suspend.c ****             /* Determine if an idle system return is present.  */
 629:../Middlewares/threadx/common/src/tx_thread_system_suspend.c ****             if (_tx_thread_execute_ptr == TX_NULL)
 630:../Middlewares/threadx/common/src/tx_thread_system_suspend.c ****             {
 631:../Middlewares/threadx/common/src/tx_thread_system_suspend.c **** 
 632:../Middlewares/threadx/common/src/tx_thread_system_suspend.c ****                 /* Yes, increment the return to idle return count.  */
 633:../Middlewares/threadx/common/src/tx_thread_system_suspend.c ****                 _tx_thread_performance_idle_return_count++;
 634:../Middlewares/threadx/common/src/tx_thread_system_suspend.c ****             }
 635:../Middlewares/threadx/common/src/tx_thread_system_suspend.c ****             else
 636:../Middlewares/threadx/common/src/tx_thread_system_suspend.c ****             {
 637:../Middlewares/threadx/common/src/tx_thread_system_suspend.c **** 
 638:../Middlewares/threadx/common/src/tx_thread_system_suspend.c ****                 /* No, there is another thread ready to run and will be scheduled upon return.  */
 639:../Middlewares/threadx/common/src/tx_thread_system_suspend.c ****                 _tx_thread_performance_non_idle_return_count++;
 640:../Middlewares/threadx/common/src/tx_thread_system_suspend.c ****             }
 641:../Middlewares/threadx/common/src/tx_thread_system_suspend.c **** #endif
 642:../Middlewares/threadx/common/src/tx_thread_system_suspend.c **** 
 643:../Middlewares/threadx/common/src/tx_thread_system_suspend.c ****             /* Preemption is needed - return to the system!  */
 644:../Middlewares/threadx/common/src/tx_thread_system_suspend.c ****             _tx_thread_system_return();
 818              		.loc 1 644 13 is_stmt 1 view .LVU300
 819              	.LBB135:
 820              	.LBI135:
 607:../Middlewares/threadx/ports/cortex_m55/gnu/inc/tx_port.h **** }
 608:../Middlewares/threadx/ports/cortex_m55/gnu/inc/tx_port.h **** 
 609:../Middlewares/threadx/ports/cortex_m55/gnu/inc/tx_port.h **** __attribute__( ( always_inline ) ) static inline void _tx_thread_system_return_inline(void)
 821              		.loc 2 609 55 view .LVU301
 822              	.LBB136:
 610:../Middlewares/threadx/ports/cortex_m55/gnu/inc/tx_port.h **** {
 611:../Middlewares/threadx/ports/cortex_m55/gnu/inc/tx_port.h **** UINT interrupt_save;
 823              		.loc 2 611 1 view .LVU302
 612:../Middlewares/threadx/ports/cortex_m55/gnu/inc/tx_port.h **** 
 613:../Middlewares/threadx/ports/cortex_m55/gnu/inc/tx_port.h ****     /* Set PendSV to invoke ThreadX scheduler.  */
 614:../Middlewares/threadx/ports/cortex_m55/gnu/inc/tx_port.h ****     *((volatile ULONG *) 0xE000ED04) = ((ULONG) 0x10000000);
 824              		.loc 2 614 5 view .LVU303
 825              		.loc 2 614 38 is_stmt 0 view .LVU304
 826 0232 4FF0E023 		mov	r3, #-536813568
 827              	.LVL71:
 828              		.loc 2 614 38 view .LVU305
 829 0236 4FF08052 		mov	r2, #268435456
 830 023a C3F8042D 		str	r2, [r3, #3332]
 615:../Middlewares/threadx/ports/cortex_m55/gnu/inc/tx_port.h ****     if (_tx_ipsr_get() == 0)
 831              		.loc 2 615 5 is_stmt 1 view .LVU306
 832              	.LBB137:
 833              	.LBI137:
 507:../Middlewares/threadx/ports/cortex_m55/gnu/inc/tx_port.h **** {
 834              		.loc 2 507 55 view .LVU307
 835              	.LBB138:
 509:../Middlewares/threadx/ports/cortex_m55/gnu/inc/tx_port.h ****     __asm__ volatile (" MRS  %0,IPSR ": "=r" (ipsr_value) );
 836              		.loc 2 509 1 view .LVU308
 510:../Middlewares/threadx/ports/cortex_m55/gnu/inc/tx_port.h ****     return(ipsr_value);
 837              		.loc 2 510 5 view .LVU309
 838              		.syntax unified
 839              	@ 510 "../Middlewares/threadx/ports/cortex_m55/gnu/inc/tx_port.h" 1
 840 023e EFF30583 		 MRS  r3,IPSR 
 841              	@ 0 "" 2
 842              	.LVL72:
 511:../Middlewares/threadx/ports/cortex_m55/gnu/inc/tx_port.h **** }
ARM GAS  /tmp/ccsStdKY.s 			page 40


 843              		.loc 2 511 5 view .LVU310
 511:../Middlewares/threadx/ports/cortex_m55/gnu/inc/tx_port.h **** }
 844              		.loc 2 511 5 is_stmt 0 view .LVU311
 845              		.thumb
 846              		.syntax unified
 847              	.LBE138:
 848              	.LBE137:
 849              		.loc 2 615 8 discriminator 1 view .LVU312
 850 0242 23B9     		cbnz	r3, .L1
 616:../Middlewares/threadx/ports/cortex_m55/gnu/inc/tx_port.h ****     {
 617:../Middlewares/threadx/ports/cortex_m55/gnu/inc/tx_port.h ****         interrupt_save = __get_interrupt_posture();
 851              		.loc 2 617 9 is_stmt 1 view .LVU313
 852              	.LBB139:
 853              	.LBI139:
 563:../Middlewares/threadx/ports/cortex_m55/gnu/inc/tx_port.h **** {
 854              		.loc 2 563 55 view .LVU314
 855              	.LBB140:
 565:../Middlewares/threadx/ports/cortex_m55/gnu/inc/tx_port.h **** #ifdef TX_PORT_USE_BASEPRI
 856              		.loc 2 565 1 view .LVU315
 569:../Middlewares/threadx/ports/cortex_m55/gnu/inc/tx_port.h **** #endif
 857              		.loc 2 569 5 view .LVU316
 858              		.syntax unified
 859              	@ 569 "../Middlewares/threadx/ports/cortex_m55/gnu/inc/tx_port.h" 1
 860 0244 EFF31083 		MRS  r3, PRIMASK 
 861              	@ 0 "" 2
 862              	.LVL73:
 571:../Middlewares/threadx/ports/cortex_m55/gnu/inc/tx_port.h **** }
 863              		.loc 2 571 5 view .LVU317
 571:../Middlewares/threadx/ports/cortex_m55/gnu/inc/tx_port.h **** }
 864              		.loc 2 571 5 is_stmt 0 view .LVU318
 865              		.thumb
 866              		.syntax unified
 867              	.LBE140:
 868              	.LBE139:
 618:../Middlewares/threadx/ports/cortex_m55/gnu/inc/tx_port.h **** #ifdef TX_PORT_USE_BASEPRI
 619:../Middlewares/threadx/ports/cortex_m55/gnu/inc/tx_port.h ****         __set_basepri_value(0);
 620:../Middlewares/threadx/ports/cortex_m55/gnu/inc/tx_port.h **** #else
 621:../Middlewares/threadx/ports/cortex_m55/gnu/inc/tx_port.h ****         __enable_interrupts();
 869              		.loc 2 621 9 is_stmt 1 view .LVU319
 870              	.LBB141:
 871              	.LBI141:
 580:../Middlewares/threadx/ports/cortex_m55/gnu/inc/tx_port.h **** {
 872              		.loc 2 580 55 view .LVU320
 873              	.LBB142:
 582:../Middlewares/threadx/ports/cortex_m55/gnu/inc/tx_port.h **** }
 874              		.loc 2 582 5 view .LVU321
 875              		.syntax unified
 876              	@ 582 "../Middlewares/threadx/ports/cortex_m55/gnu/inc/tx_port.h" 1
 877 0248 62B6     		CPSIE  i
 878              	@ 0 "" 2
 879              		.thumb
 880              		.syntax unified
 881              	.LBE142:
 882              	.LBE141:
 622:../Middlewares/threadx/ports/cortex_m55/gnu/inc/tx_port.h **** #endif
 623:../Middlewares/threadx/ports/cortex_m55/gnu/inc/tx_port.h ****         __restore_interrupt(interrupt_save);
 883              		.loc 2 623 9 view .LVU322
ARM GAS  /tmp/ccsStdKY.s 			page 41


 884              	.LVL74:
 885              	.LBB143:
 886              	.LBI143:
 586:../Middlewares/threadx/ports/cortex_m55/gnu/inc/tx_port.h **** {
 887              		.loc 2 586 55 view .LVU323
 888              	.LBB144:
 591:../Middlewares/threadx/ports/cortex_m55/gnu/inc/tx_port.h **** #endif
 889              		.loc 2 591 5 view .LVU324
 890              		.syntax unified
 891              	@ 591 "../Middlewares/threadx/ports/cortex_m55/gnu/inc/tx_port.h" 1
 892 024a 83F31088 		MSR  PRIMASK,r3
 893              	@ 0 "" 2
 894              	.LVL75:
 895              		.thumb
 896              		.syntax unified
 897              	.L1:
 591:../Middlewares/threadx/ports/cortex_m55/gnu/inc/tx_port.h **** #endif
 898              		.loc 2 591 5 is_stmt 0 view .LVU325
 899              	.LBE144:
 900              	.LBE143:
 901              	.LBE136:
 902              	.LBE135:
 645:../Middlewares/threadx/common/src/tx_thread_system_suspend.c ****         }
 646:../Middlewares/threadx/common/src/tx_thread_system_suspend.c ****     }
 647:../Middlewares/threadx/common/src/tx_thread_system_suspend.c **** 
 648:../Middlewares/threadx/common/src/tx_thread_system_suspend.c ****     /* Return to caller.  */
 649:../Middlewares/threadx/common/src/tx_thread_system_suspend.c ****     return;
 650:../Middlewares/threadx/common/src/tx_thread_system_suspend.c **** }
 903              		.loc 1 650 1 view .LVU326
 904 024e 03B0     		add	sp, sp, #12
 905              		.cfi_remember_state
 906              		.cfi_def_cfa_offset 36
 907              		@ sp needed
 908 0250 BDE8F08F 		pop	{r4, r5, r6, r7, r8, r9, r10, fp, pc}
 909              	.LVL76:
 910              	.L22:
 911              		.cfi_restore_state
 393:../Middlewares/threadx/common/src/tx_thread_system_suspend.c **** 
 912              		.loc 1 393 17 is_stmt 1 view .LVU327
 913              		.syntax unified
 914              	@ 393 "../Middlewares/threadx/common/src/tx_thread_system_suspend.c" 1
 915 0254 93FAA3F3 		 RBIT r3,r3 
 916              	@ 0 "" 2
 917              	.LVL77:
 393:../Middlewares/threadx/common/src/tx_thread_system_suspend.c **** 
 918              		.loc 1 393 17 view .LVU328
 919              	@ 393 "../Middlewares/threadx/common/src/tx_thread_system_suspend.c" 1
 920 0258 B3FA83F3 		 CLZ  r3,r3 
 921              	@ 0 "" 2
 922              	.LVL78:
 396:../Middlewares/threadx/common/src/tx_thread_system_suspend.c ****             }
 923              		.loc 1 396 17 view .LVU329
 396:../Middlewares/threadx/common/src/tx_thread_system_suspend.c ****             }
 924              		.loc 1 396 45 is_stmt 0 view .LVU330
 925              		.thumb
 926              		.syntax unified
 927 025c 1360     		str	r3, [r2]
ARM GAS  /tmp/ccsStdKY.s 			page 42


 928 025e 83E7     		b	.L19
 929              	.L80:
 930              		.align	2
 931              	.L79:
 932 0260 44524854 		.word	1414025796
 933 0264 00000000 		.word	_tx_timer_time_slice
 934 0268 00000000 		.word	_tx_thread_preempt_disable
 935 026c 00000000 		.word	_tx_trace_event_enable_bits
 936 0270 00000000 		.word	_tx_thread_system_state
 937 0274 001000E0 		.word	-536866816
 938 0278 00000000 		.word	_tx_trace_header_ptr
 939 027c 00000000 		.word	_tx_trace_buffer_end_ptr
 940 0280 00000000 		.word	_tx_trace_buffer_start_ptr
 941 0284 00000000 		.word	_tx_trace_full_notify_function
 942 0288 00000000 		.word	_tx_thread_priority_list
 943 028c 00000000 		.word	_tx_thread_highest_priority
 944 0290 00000000 		.word	_tx_thread_preempted_maps
 945 0294 00000000 		.word	_tx_thread_priority_maps
 946 0298 00000000 		.word	_tx_thread_current_ptr
 947 029c 00000000 		.word	_tx_thread_execute_ptr
 948 02a0 00000000 		.word	_tx_trace_buffer_current_ptr
 949              	.LVL79:
 950              	.L27:
 584:../Middlewares/threadx/common/src/tx_thread_system_suspend.c ****          {
 951              		.loc 1 584 10 is_stmt 1 view .LVU331
 584:../Middlewares/threadx/common/src/tx_thread_system_suspend.c ****          {
 952              		.loc 1 584 13 is_stmt 0 view .LVU332
 953 02a4 1DB1     		cbz	r5, .L9
 588:../Middlewares/threadx/common/src/tx_thread_system_suspend.c ****             {
 954              		.loc 1 588 13 is_stmt 1 view .LVU333
 588:../Middlewares/threadx/common/src/tx_thread_system_suspend.c ****             {
 955              		.loc 1 588 16 is_stmt 0 view .LVU334
 956 02a6 EA68     		ldr	r2, [r5, #12]
 957 02a8 5A45     		cmp	r2, fp
 597:../Middlewares/threadx/common/src/tx_thread_system_suspend.c **** #endif
 958              		.loc 1 597 17 is_stmt 1 view .LVU335
 597:../Middlewares/threadx/common/src/tx_thread_system_suspend.c **** #endif
 959              		.loc 1 597 72 is_stmt 0 view .LVU336
 960 02aa 08BF     		it	eq
 961 02ac EB61     		streq	r3, [r5, #28]
 962              	.LVL80:
 963              	.L9:
 605:../Middlewares/threadx/common/src/tx_thread_system_suspend.c **** 
 964              		.loc 1 605 5 is_stmt 1 view .LVU337
 965              	.LBB145:
 966              	.LBI145:
 586:../Middlewares/threadx/ports/cortex_m55/gnu/inc/tx_port.h **** {
 967              		.loc 2 586 55 view .LVU338
 968              	.LBB146:
 591:../Middlewares/threadx/ports/cortex_m55/gnu/inc/tx_port.h **** #endif
 969              		.loc 2 591 5 view .LVU339
 970              		.syntax unified
 971              	@ 591 "../Middlewares/threadx/ports/cortex_m55/gnu/inc/tx_port.h" 1
 972 02ae 89F31088 		MSR  PRIMASK,r9
 973              	@ 0 "" 2
 974              	.LVL81:
 591:../Middlewares/threadx/ports/cortex_m55/gnu/inc/tx_port.h **** #endif
ARM GAS  /tmp/ccsStdKY.s 			page 43


 975              		.loc 2 591 5 is_stmt 0 view .LVU340
 976              		.thumb
 977              		.syntax unified
 978              	.LBE146:
 979              	.LBE145:
 608:../Middlewares/threadx/common/src/tx_thread_system_suspend.c ****     {
 980              		.loc 1 608 5 is_stmt 1 view .LVU341
 608:../Middlewares/threadx/common/src/tx_thread_system_suspend.c ****     {
 981              		.loc 1 608 24 is_stmt 0 view .LVU342
 982 02b2 D8F80040 		ldr	r4, [r8]
 983              	.LVL82:
 608:../Middlewares/threadx/common/src/tx_thread_system_suspend.c ****     {
 984              		.loc 1 608 8 view .LVU343
 985 02b6 BC42     		cmp	r4, r7
 986 02b8 C9D0     		beq	.L1
 614:../Middlewares/threadx/common/src/tx_thread_system_suspend.c **** 
 987              		.loc 1 614 9 is_stmt 1 view .LVU344
 988              	.LVL83:
 989              	.LBB147:
 617:../Middlewares/threadx/common/src/tx_thread_system_suspend.c **** #endif
 990              		.loc 1 617 9 view .LVU345
 617:../Middlewares/threadx/common/src/tx_thread_system_suspend.c **** #endif
 991              		.loc 1 617 9 view .LVU346
 992              	.LBB148:
 993              	.LBI148:
 595:../Middlewares/threadx/ports/cortex_m55/gnu/inc/tx_port.h **** {
 994              		.loc 2 595 55 view .LVU347
 995              	.LBB149:
 597:../Middlewares/threadx/ports/cortex_m55/gnu/inc/tx_port.h **** 
 996              		.loc 2 597 1 view .LVU348
 599:../Middlewares/threadx/ports/cortex_m55/gnu/inc/tx_port.h **** 
 997              		.loc 2 599 5 view .LVU349
 998              	.LBB150:
 999              	.LBI150:
 563:../Middlewares/threadx/ports/cortex_m55/gnu/inc/tx_port.h **** {
 1000              		.loc 2 563 55 view .LVU350
 1001              	.LBB151:
 565:../Middlewares/threadx/ports/cortex_m55/gnu/inc/tx_port.h **** #ifdef TX_PORT_USE_BASEPRI
 1002              		.loc 2 565 1 view .LVU351
 569:../Middlewares/threadx/ports/cortex_m55/gnu/inc/tx_port.h **** #endif
 1003              		.loc 2 569 5 view .LVU352
 1004              		.syntax unified
 1005              	@ 569 "../Middlewares/threadx/ports/cortex_m55/gnu/inc/tx_port.h" 1
 1006 02ba EFF31083 		MRS  r3, PRIMASK 
 1007              	@ 0 "" 2
 1008              	.LVL84:
 571:../Middlewares/threadx/ports/cortex_m55/gnu/inc/tx_port.h **** }
 1009              		.loc 2 571 5 view .LVU353
 571:../Middlewares/threadx/ports/cortex_m55/gnu/inc/tx_port.h **** }
 1010              		.loc 2 571 5 is_stmt 0 view .LVU354
 1011              		.thumb
 1012              		.syntax unified
 1013              	.LBE151:
 1014              	.LBE150:
 604:../Middlewares/threadx/ports/cortex_m55/gnu/inc/tx_port.h **** #endif
 1015              		.loc 2 604 5 is_stmt 1 view .LVU355
 1016              		.syntax unified
ARM GAS  /tmp/ccsStdKY.s 			page 44


 1017              	@ 604 "../Middlewares/threadx/ports/cortex_m55/gnu/inc/tx_port.h" 1
 1018 02be 72B6     		CPSID i
 1019              	@ 0 "" 2
 606:../Middlewares/threadx/ports/cortex_m55/gnu/inc/tx_port.h **** }
 1020              		.loc 2 606 5 view .LVU356
 1021              	.LVL85:
 606:../Middlewares/threadx/ports/cortex_m55/gnu/inc/tx_port.h **** }
 1022              		.loc 2 606 5 is_stmt 0 view .LVU357
 1023              		.thumb
 1024              		.syntax unified
 1025              	.LBE149:
 1026              	.LBE148:
 617:../Middlewares/threadx/common/src/tx_thread_system_suspend.c **** #endif
 1027              		.loc 1 617 9 is_stmt 1 discriminator 1 view .LVU358
 1028 02c0 84B3     		cbz	r4, .L32
 1029 02c2 2168     		ldr	r1, [r4]
 1030 02c4 194A     		ldr	r2, .L81
 1031 02c6 9142     		cmp	r1, r2
 1032 02c8 2CD1     		bne	.L32
 617:../Middlewares/threadx/common/src/tx_thread_system_suspend.c **** #endif
 1033              		.loc 1 617 9 discriminator 3 view .LVU359
 1034 02ca A268     		ldr	r2, [r4, #8]
 1035 02cc D4F8A810 		ldr	r1, [r4, #168]
 1036 02d0 8A42     		cmp	r2, r1
 617:../Middlewares/threadx/common/src/tx_thread_system_suspend.c **** #endif
 1037              		.loc 1 617 9 discriminator 5 view .LVU360
 1038 02d2 38BF     		it	cc
 1039 02d4 C4F8A820 		strcc	r2, [r4, #168]
 617:../Middlewares/threadx/common/src/tx_thread_system_suspend.c **** #endif
 1040              		.loc 1 617 9 discriminator 7 view .LVU361
 1041 02d8 E268     		ldr	r2, [r4, #12]
 1042 02da 1168     		ldr	r1, [r2]
 1043 02dc B1F1EF3F 		cmp	r1, #-269488145
 1044 02e0 09D1     		bne	.L34
 617:../Middlewares/threadx/common/src/tx_thread_system_suspend.c **** #endif
 1045              		.loc 1 617 9 is_stmt 0 discriminator 9 view .LVU362
 1046 02e2 2169     		ldr	r1, [r4, #16]
 1047 02e4 D1F80110 		ldr	r1, [r1, #1]
 1048 02e8 B1F1EF3F 		cmp	r1, #-269488145
 1049 02ec 03D1     		bne	.L34
 617:../Middlewares/threadx/common/src/tx_thread_system_suspend.c **** #endif
 1050              		.loc 1 617 9 discriminator 11 view .LVU363
 1051 02ee D4F8A810 		ldr	r1, [r4, #168]
 1052 02f2 8A42     		cmp	r2, r1
 1053 02f4 07D9     		bls	.L35
 1054              	.L34:
 617:../Middlewares/threadx/common/src/tx_thread_system_suspend.c **** #endif
 1055              		.loc 1 617 9 is_stmt 1 discriminator 12 view .LVU364
 1056              	.LVL86:
 1057              	.LBB152:
 1058              	.LBI152:
 586:../Middlewares/threadx/ports/cortex_m55/gnu/inc/tx_port.h **** {
 1059              		.loc 2 586 55 view .LVU365
 1060              	.LBB153:
 591:../Middlewares/threadx/ports/cortex_m55/gnu/inc/tx_port.h **** #endif
 1061              		.loc 2 591 5 view .LVU366
 1062              		.syntax unified
ARM GAS  /tmp/ccsStdKY.s 			page 45


 1063              	@ 591 "../Middlewares/threadx/ports/cortex_m55/gnu/inc/tx_port.h" 1
 1064 02f6 83F31088 		MSR  PRIMASK,r3
 1065              	@ 0 "" 2
 1066              	.LVL87:
 591:../Middlewares/threadx/ports/cortex_m55/gnu/inc/tx_port.h **** #endif
 1067              		.loc 2 591 5 is_stmt 0 view .LVU367
 1068              		.thumb
 1069              		.syntax unified
 1070              	.LBE153:
 1071              	.LBE152:
 617:../Middlewares/threadx/common/src/tx_thread_system_suspend.c **** #endif
 1072              		.loc 1 617 9 is_stmt 1 discriminator 1 view .LVU368
 1073 02fa 2046     		mov	r0, r4
 1074 02fc FFF7FEFF 		bl	_tx_thread_stack_error_handler
 1075              	.LVL88:
 617:../Middlewares/threadx/common/src/tx_thread_system_suspend.c **** #endif
 1076              		.loc 1 617 9 discriminator 2 view .LVU369
 1077              	.LBB154:
 1078              	.LBI154:
 595:../Middlewares/threadx/ports/cortex_m55/gnu/inc/tx_port.h **** {
 1079              		.loc 2 595 55 view .LVU370
 1080              	.LBB155:
 597:../Middlewares/threadx/ports/cortex_m55/gnu/inc/tx_port.h **** 
 1081              		.loc 2 597 1 view .LVU371
 599:../Middlewares/threadx/ports/cortex_m55/gnu/inc/tx_port.h **** 
 1082              		.loc 2 599 5 view .LVU372
 1083              	.LBB156:
 1084              	.LBI156:
 563:../Middlewares/threadx/ports/cortex_m55/gnu/inc/tx_port.h **** {
 1085              		.loc 2 563 55 view .LVU373
 1086              	.LBB157:
 565:../Middlewares/threadx/ports/cortex_m55/gnu/inc/tx_port.h **** #ifdef TX_PORT_USE_BASEPRI
 1087              		.loc 2 565 1 view .LVU374
 569:../Middlewares/threadx/ports/cortex_m55/gnu/inc/tx_port.h **** #endif
 1088              		.loc 2 569 5 view .LVU375
 1089              		.syntax unified
 1090              	@ 569 "../Middlewares/threadx/ports/cortex_m55/gnu/inc/tx_port.h" 1
 1091 0300 EFF31083 		MRS  r3, PRIMASK 
 1092              	@ 0 "" 2
 1093              	.LVL89:
 571:../Middlewares/threadx/ports/cortex_m55/gnu/inc/tx_port.h **** }
 1094              		.loc 2 571 5 view .LVU376
 571:../Middlewares/threadx/ports/cortex_m55/gnu/inc/tx_port.h **** }
 1095              		.loc 2 571 5 is_stmt 0 view .LVU377
 1096              		.thumb
 1097              		.syntax unified
 1098              	.LBE157:
 1099              	.LBE156:
 604:../Middlewares/threadx/ports/cortex_m55/gnu/inc/tx_port.h **** #endif
 1100              		.loc 2 604 5 is_stmt 1 view .LVU378
 1101              		.syntax unified
 1102              	@ 604 "../Middlewares/threadx/ports/cortex_m55/gnu/inc/tx_port.h" 1
 1103 0304 72B6     		CPSID i
 1104              	@ 0 "" 2
 606:../Middlewares/threadx/ports/cortex_m55/gnu/inc/tx_port.h **** }
 1105              		.loc 2 606 5 view .LVU379
 1106              	.LVL90:
ARM GAS  /tmp/ccsStdKY.s 			page 46


 1107              		.thumb
 1108              		.syntax unified
 1109              	.L35:
 606:../Middlewares/threadx/ports/cortex_m55/gnu/inc/tx_port.h **** }
 1110              		.loc 2 606 5 is_stmt 0 view .LVU380
 1111              	.LBE155:
 1112              	.LBE154:
 617:../Middlewares/threadx/common/src/tx_thread_system_suspend.c **** #endif
 1113              		.loc 1 617 9 is_stmt 1 discriminator 14 view .LVU381
 1114 0306 D4F8A820 		ldr	r2, [r4, #168]
 1115 030a 52F8042C 		ldr	r2, [r2, #-4]
 1116 030e B2F1EF3F 		cmp	r2, #-269488145
 1117 0312 07D0     		beq	.L32
 617:../Middlewares/threadx/common/src/tx_thread_system_suspend.c **** #endif
 1118              		.loc 1 617 9 discriminator 15 view .LVU382
 1119              	.LVL91:
 1120              	.LBB158:
 1121              	.LBI158:
 586:../Middlewares/threadx/ports/cortex_m55/gnu/inc/tx_port.h **** {
 1122              		.loc 2 586 55 view .LVU383
 1123              	.LBB159:
 591:../Middlewares/threadx/ports/cortex_m55/gnu/inc/tx_port.h **** #endif
 1124              		.loc 2 591 5 view .LVU384
 1125              		.syntax unified
 1126              	@ 591 "../Middlewares/threadx/ports/cortex_m55/gnu/inc/tx_port.h" 1
 1127 0314 83F31088 		MSR  PRIMASK,r3
 1128              	@ 0 "" 2
 1129              	.LVL92:
 591:../Middlewares/threadx/ports/cortex_m55/gnu/inc/tx_port.h **** #endif
 1130              		.loc 2 591 5 is_stmt 0 view .LVU385
 1131              		.thumb
 1132              		.syntax unified
 1133              	.LBE159:
 1134              	.LBE158:
 617:../Middlewares/threadx/common/src/tx_thread_system_suspend.c **** #endif
 1135              		.loc 1 617 9 is_stmt 1 discriminator 1 view .LVU386
 1136 0318 2046     		mov	r0, r4
 1137 031a FFF7FEFF 		bl	_tx_thread_stack_analyze
 1138              	.LVL93:
 617:../Middlewares/threadx/common/src/tx_thread_system_suspend.c **** #endif
 1139              		.loc 1 617 9 discriminator 2 view .LVU387
 1140              	.LBB160:
 1141              	.LBI160:
 595:../Middlewares/threadx/ports/cortex_m55/gnu/inc/tx_port.h **** {
 1142              		.loc 2 595 55 view .LVU388
 1143              	.LBB161:
 597:../Middlewares/threadx/ports/cortex_m55/gnu/inc/tx_port.h **** 
 1144              		.loc 2 597 1 view .LVU389
 599:../Middlewares/threadx/ports/cortex_m55/gnu/inc/tx_port.h **** 
 1145              		.loc 2 599 5 view .LVU390
 1146              	.LBB162:
 1147              	.LBI162:
 563:../Middlewares/threadx/ports/cortex_m55/gnu/inc/tx_port.h **** {
 1148              		.loc 2 563 55 view .LVU391
 1149              	.LBB163:
 565:../Middlewares/threadx/ports/cortex_m55/gnu/inc/tx_port.h **** #ifdef TX_PORT_USE_BASEPRI
 1150              		.loc 2 565 1 view .LVU392
ARM GAS  /tmp/ccsStdKY.s 			page 47


 569:../Middlewares/threadx/ports/cortex_m55/gnu/inc/tx_port.h **** #endif
 1151              		.loc 2 569 5 view .LVU393
 1152              		.syntax unified
 1153              	@ 569 "../Middlewares/threadx/ports/cortex_m55/gnu/inc/tx_port.h" 1
 1154 031e EFF31083 		MRS  r3, PRIMASK 
 1155              	@ 0 "" 2
 1156              	.LVL94:
 571:../Middlewares/threadx/ports/cortex_m55/gnu/inc/tx_port.h **** }
 1157              		.loc 2 571 5 view .LVU394
 571:../Middlewares/threadx/ports/cortex_m55/gnu/inc/tx_port.h **** }
 1158              		.loc 2 571 5 is_stmt 0 view .LVU395
 1159              		.thumb
 1160              		.syntax unified
 1161              	.LBE163:
 1162              	.LBE162:
 604:../Middlewares/threadx/ports/cortex_m55/gnu/inc/tx_port.h **** #endif
 1163              		.loc 2 604 5 is_stmt 1 view .LVU396
 1164              		.syntax unified
 1165              	@ 604 "../Middlewares/threadx/ports/cortex_m55/gnu/inc/tx_port.h" 1
 1166 0322 72B6     		CPSID i
 1167              	@ 0 "" 2
 606:../Middlewares/threadx/ports/cortex_m55/gnu/inc/tx_port.h **** }
 1168              		.loc 2 606 5 view .LVU397
 1169              	.LVL95:
 1170              		.thumb
 1171              		.syntax unified
 1172              	.L32:
 606:../Middlewares/threadx/ports/cortex_m55/gnu/inc/tx_port.h **** }
 1173              		.loc 2 606 5 is_stmt 0 view .LVU398
 1174              	.LBE161:
 1175              	.LBE160:
 617:../Middlewares/threadx/common/src/tx_thread_system_suspend.c **** #endif
 1176              		.loc 1 617 9 is_stmt 1 discriminator 17 view .LVU399
 1177              	.LBB164:
 1178              	.LBI164:
 586:../Middlewares/threadx/ports/cortex_m55/gnu/inc/tx_port.h **** {
 1179              		.loc 2 586 55 view .LVU400
 1180              	.LBB165:
 591:../Middlewares/threadx/ports/cortex_m55/gnu/inc/tx_port.h **** #endif
 1181              		.loc 2 591 5 view .LVU401
 1182              		.syntax unified
 1183              	@ 591 "../Middlewares/threadx/ports/cortex_m55/gnu/inc/tx_port.h" 1
 1184 0324 83F31088 		MSR  PRIMASK,r3
 1185              	@ 0 "" 2
 1186              		.thumb
 1187              		.syntax unified
 1188 0328 81E7     		b	.L76
 1189              	.L82:
 1190 032a 00BF     		.align	2
 1191              	.L81:
 1192 032c 44524854 		.word	1414025796
 1193              	.LBE165:
 1194              	.LBE164:
 1195              	.LBE147:
 1196              		.cfi_endproc
 1197              	.LFE8:
 1199              		.text
ARM GAS  /tmp/ccsStdKY.s 			page 48


 1200              	.Letext0:
 1201              		.file 3 "../Middlewares/threadx/common/inc/tx_api.h"
 1202              		.file 4 "../Middlewares/threadx/common/inc/tx_thread.h"
 1203              		.file 5 "../Middlewares/threadx/common/inc/tx_trace.h"
 1204              		.file 6 "../Middlewares/threadx/common/inc/tx_timer.h"
ARM GAS  /tmp/ccsStdKY.s 			page 49

