ARM GAS  /tmp/ccSHAuWX.s 			page 1


   1              		.arch armv8.1-m.main
   2              		.fpu fpv5-d16
   3              		.arch_extension dsp
   4              		.arch_extension fp
   5              		.arch_extension fp.dp
   6              		.arch_extension mve
   7              		.arch_extension mve.fp
   8              		.eabi_attribute 5, "cortex-m55"
   9              		.eabi_attribute 28, 1
  10              		.eabi_attribute 20, 1
  11              		.eabi_attribute 21, 1
  12              		.eabi_attribute 23, 3
  13              		.eabi_attribute 24, 1
  14              		.eabi_attribute 25, 1
  15              		.eabi_attribute 26, 1
  16              		.eabi_attribute 30, 4
  17              		.eabi_attribute 34, 1
  18              		.eabi_attribute 38, 1
  19              		.eabi_attribute 18, 4
  20              		.file	"tx_thread_time_slice.c"
  21              		.text
  22              	.Ltext0:
  23              		.cfi_sections	.debug_frame
  24              		.file 1 "../Middlewares/threadx/common/src/tx_thread_time_slice.c"
  25              		.section	.text._tx_thread_time_slice,"ax",%progbits
  26              		.align	1
  27              		.global	_tx_thread_time_slice
  28              		.syntax unified
  29              		.thumb
  30              		.thumb_func
  32              	_tx_thread_time_slice:
  33              	.LFB8:
   1:../Middlewares/threadx/common/src/tx_thread_time_slice.c **** /**************************************************************************/
   2:../Middlewares/threadx/common/src/tx_thread_time_slice.c **** /*                                                                        */
   3:../Middlewares/threadx/common/src/tx_thread_time_slice.c **** /*       Copyright (c) Microsoft Corporation. All rights reserved.        */
   4:../Middlewares/threadx/common/src/tx_thread_time_slice.c **** /*                                                                        */
   5:../Middlewares/threadx/common/src/tx_thread_time_slice.c **** /*       This software is licensed under the Microsoft Software License   */
   6:../Middlewares/threadx/common/src/tx_thread_time_slice.c **** /*       Terms for Microsoft Azure RTOS. Full text of the license can be  */
   7:../Middlewares/threadx/common/src/tx_thread_time_slice.c **** /*       found in the LICENSE file at https://aka.ms/AzureRTOS_EULA       */
   8:../Middlewares/threadx/common/src/tx_thread_time_slice.c **** /*       and in the root directory of this software.                      */
   9:../Middlewares/threadx/common/src/tx_thread_time_slice.c **** /*                                                                        */
  10:../Middlewares/threadx/common/src/tx_thread_time_slice.c **** /**************************************************************************/
  11:../Middlewares/threadx/common/src/tx_thread_time_slice.c **** 
  12:../Middlewares/threadx/common/src/tx_thread_time_slice.c **** 
  13:../Middlewares/threadx/common/src/tx_thread_time_slice.c **** /**************************************************************************/
  14:../Middlewares/threadx/common/src/tx_thread_time_slice.c **** /**************************************************************************/
  15:../Middlewares/threadx/common/src/tx_thread_time_slice.c **** /**                                                                       */
  16:../Middlewares/threadx/common/src/tx_thread_time_slice.c **** /** ThreadX Component                                                     */
  17:../Middlewares/threadx/common/src/tx_thread_time_slice.c **** /**                                                                       */
  18:../Middlewares/threadx/common/src/tx_thread_time_slice.c **** /**   Thread                                                              */
  19:../Middlewares/threadx/common/src/tx_thread_time_slice.c **** /**                                                                       */
  20:../Middlewares/threadx/common/src/tx_thread_time_slice.c **** /**************************************************************************/
  21:../Middlewares/threadx/common/src/tx_thread_time_slice.c **** /**************************************************************************/
  22:../Middlewares/threadx/common/src/tx_thread_time_slice.c **** 
  23:../Middlewares/threadx/common/src/tx_thread_time_slice.c **** #define TX_SOURCE_CODE
  24:../Middlewares/threadx/common/src/tx_thread_time_slice.c **** 
  25:../Middlewares/threadx/common/src/tx_thread_time_slice.c **** #ifndef TX_NO_TIMER
ARM GAS  /tmp/ccSHAuWX.s 			page 2


  26:../Middlewares/threadx/common/src/tx_thread_time_slice.c **** 
  27:../Middlewares/threadx/common/src/tx_thread_time_slice.c **** /* Include necessary system files.  */
  28:../Middlewares/threadx/common/src/tx_thread_time_slice.c **** 
  29:../Middlewares/threadx/common/src/tx_thread_time_slice.c **** #include "tx_api.h"
  30:../Middlewares/threadx/common/src/tx_thread_time_slice.c **** #include "tx_timer.h"
  31:../Middlewares/threadx/common/src/tx_thread_time_slice.c **** #include "tx_thread.h"
  32:../Middlewares/threadx/common/src/tx_thread_time_slice.c **** #include "tx_trace.h"
  33:../Middlewares/threadx/common/src/tx_thread_time_slice.c **** 
  34:../Middlewares/threadx/common/src/tx_thread_time_slice.c **** 
  35:../Middlewares/threadx/common/src/tx_thread_time_slice.c **** /**************************************************************************/
  36:../Middlewares/threadx/common/src/tx_thread_time_slice.c **** /*                                                                        */
  37:../Middlewares/threadx/common/src/tx_thread_time_slice.c **** /*  FUNCTION                                               RELEASE        */
  38:../Middlewares/threadx/common/src/tx_thread_time_slice.c **** /*                                                                        */
  39:../Middlewares/threadx/common/src/tx_thread_time_slice.c **** /*    _tx_thread_time_slice                               PORTABLE C      */
  40:../Middlewares/threadx/common/src/tx_thread_time_slice.c **** /*                                                           6.1          */
  41:../Middlewares/threadx/common/src/tx_thread_time_slice.c **** /*  AUTHOR                                                                */
  42:../Middlewares/threadx/common/src/tx_thread_time_slice.c **** /*                                                                        */
  43:../Middlewares/threadx/common/src/tx_thread_time_slice.c **** /*    William E. Lamie, Microsoft Corporation                             */
  44:../Middlewares/threadx/common/src/tx_thread_time_slice.c **** /*                                                                        */
  45:../Middlewares/threadx/common/src/tx_thread_time_slice.c **** /*  DESCRIPTION                                                           */
  46:../Middlewares/threadx/common/src/tx_thread_time_slice.c **** /*                                                                        */
  47:../Middlewares/threadx/common/src/tx_thread_time_slice.c **** /*    This function moves the currently executing thread to the end of    */
  48:../Middlewares/threadx/common/src/tx_thread_time_slice.c **** /*    the threads ready at the same priority level as a result of a       */
  49:../Middlewares/threadx/common/src/tx_thread_time_slice.c **** /*    time-slice interrupt.  If no other thread of the same priority is   */
  50:../Middlewares/threadx/common/src/tx_thread_time_slice.c **** /*    ready, this function simply returns.                                */
  51:../Middlewares/threadx/common/src/tx_thread_time_slice.c **** /*                                                                        */
  52:../Middlewares/threadx/common/src/tx_thread_time_slice.c **** /*  INPUT                                                                 */
  53:../Middlewares/threadx/common/src/tx_thread_time_slice.c **** /*                                                                        */
  54:../Middlewares/threadx/common/src/tx_thread_time_slice.c **** /*    None                                                                */
  55:../Middlewares/threadx/common/src/tx_thread_time_slice.c **** /*                                                                        */
  56:../Middlewares/threadx/common/src/tx_thread_time_slice.c **** /*  OUTPUT                                                                */
  57:../Middlewares/threadx/common/src/tx_thread_time_slice.c **** /*                                                                        */
  58:../Middlewares/threadx/common/src/tx_thread_time_slice.c **** /*    None                                                                */
  59:../Middlewares/threadx/common/src/tx_thread_time_slice.c **** /*                                                                        */
  60:../Middlewares/threadx/common/src/tx_thread_time_slice.c **** /*  CALLS                                                                 */
  61:../Middlewares/threadx/common/src/tx_thread_time_slice.c **** /*                                                                        */
  62:../Middlewares/threadx/common/src/tx_thread_time_slice.c **** /*    None                                                                */
  63:../Middlewares/threadx/common/src/tx_thread_time_slice.c **** /*                                                                        */
  64:../Middlewares/threadx/common/src/tx_thread_time_slice.c **** /*  CALLED BY                                                             */
  65:../Middlewares/threadx/common/src/tx_thread_time_slice.c **** /*                                                                        */
  66:../Middlewares/threadx/common/src/tx_thread_time_slice.c **** /*    _tx_timer_interrupt                   Timer interrupt handling      */
  67:../Middlewares/threadx/common/src/tx_thread_time_slice.c **** /*                                                                        */
  68:../Middlewares/threadx/common/src/tx_thread_time_slice.c **** /*  RELEASE HISTORY                                                       */
  69:../Middlewares/threadx/common/src/tx_thread_time_slice.c **** /*                                                                        */
  70:../Middlewares/threadx/common/src/tx_thread_time_slice.c **** /*    DATE              NAME                      DESCRIPTION             */
  71:../Middlewares/threadx/common/src/tx_thread_time_slice.c **** /*                                                                        */
  72:../Middlewares/threadx/common/src/tx_thread_time_slice.c **** /*  05-19-2020     William E. Lamie         Initial Version 6.0           */
  73:../Middlewares/threadx/common/src/tx_thread_time_slice.c **** /*  09-30-2020     Scott Larson             Modified comment(s), and      */
  74:../Middlewares/threadx/common/src/tx_thread_time_slice.c **** /*                                            opt out of function when    */
  75:../Middlewares/threadx/common/src/tx_thread_time_slice.c **** /*                                            TX_NO_TIMER is defined,     */
  76:../Middlewares/threadx/common/src/tx_thread_time_slice.c **** /*                                            resulting in version 6.1    */
  77:../Middlewares/threadx/common/src/tx_thread_time_slice.c **** /*                                                                        */
  78:../Middlewares/threadx/common/src/tx_thread_time_slice.c **** /**************************************************************************/
  79:../Middlewares/threadx/common/src/tx_thread_time_slice.c **** VOID  _tx_thread_time_slice(VOID)
  80:../Middlewares/threadx/common/src/tx_thread_time_slice.c **** {
  34              		.loc 1 80 1 view -0
  35              		.cfi_startproc
ARM GAS  /tmp/ccSHAuWX.s 			page 3


  36              		@ args = 0, pretend = 0, frame = 8
  37              		@ frame_needed = 0, uses_anonymous_args = 0
  81:../Middlewares/threadx/common/src/tx_thread_time_slice.c **** 
  82:../Middlewares/threadx/common/src/tx_thread_time_slice.c **** TX_INTERRUPT_SAVE_AREA
  38              		.loc 1 82 1 view .LVU1
  83:../Middlewares/threadx/common/src/tx_thread_time_slice.c **** 
  84:../Middlewares/threadx/common/src/tx_thread_time_slice.c **** TX_THREAD       *thread_ptr;
  39              		.loc 1 84 1 view .LVU2
  85:../Middlewares/threadx/common/src/tx_thread_time_slice.c **** #ifdef TX_ENABLE_STACK_CHECKING
  86:../Middlewares/threadx/common/src/tx_thread_time_slice.c **** TX_THREAD       *next_thread_ptr;
  40              		.loc 1 86 1 view .LVU3
  87:../Middlewares/threadx/common/src/tx_thread_time_slice.c **** #endif
  88:../Middlewares/threadx/common/src/tx_thread_time_slice.c **** #ifdef TX_ENABLE_EVENT_TRACE
  89:../Middlewares/threadx/common/src/tx_thread_time_slice.c **** ULONG           system_state;
  41              		.loc 1 89 1 view .LVU4
  90:../Middlewares/threadx/common/src/tx_thread_time_slice.c **** UINT            preempt_disable;
  42              		.loc 1 90 1 view .LVU5
  91:../Middlewares/threadx/common/src/tx_thread_time_slice.c **** #endif
  92:../Middlewares/threadx/common/src/tx_thread_time_slice.c **** 
  93:../Middlewares/threadx/common/src/tx_thread_time_slice.c ****     /* Pickup thread pointer.  */
  94:../Middlewares/threadx/common/src/tx_thread_time_slice.c ****     TX_THREAD_GET_CURRENT(thread_ptr)
  43              		.loc 1 94 5 view .LVU6
  80:../Middlewares/threadx/common/src/tx_thread_time_slice.c **** 
  44              		.loc 1 80 1 is_stmt 0 view .LVU7
  45 0000 2DE9F341 		push	{r0, r1, r4, r5, r6, r7, r8, lr}
  46              		.cfi_def_cfa_offset 32
  47              		.cfi_offset 4, -24
  48              		.cfi_offset 5, -20
  49              		.cfi_offset 6, -16
  50              		.cfi_offset 7, -12
  51              		.cfi_offset 8, -8
  52              		.cfi_offset 14, -4
  53              		.loc 1 94 5 view .LVU8
  54 0004 724F     		ldr	r7, .L39
  55 0006 3B68     		ldr	r3, [r7]
  56 0008 0193     		str	r3, [sp, #4]
  57              	.LBB53:
  95:../Middlewares/threadx/common/src/tx_thread_time_slice.c **** 
  96:../Middlewares/threadx/common/src/tx_thread_time_slice.c **** #ifdef TX_ENABLE_STACK_CHECKING
  97:../Middlewares/threadx/common/src/tx_thread_time_slice.c **** 
  98:../Middlewares/threadx/common/src/tx_thread_time_slice.c ****     /* Check this thread's stack.  */
  99:../Middlewares/threadx/common/src/tx_thread_time_slice.c ****     TX_THREAD_STACK_CHECK(thread_ptr)
  58              		.loc 1 99 5 is_stmt 1 view .LVU9
  59              		.loc 1 99 5 view .LVU10
  60              	.LBB54:
  61              	.LBI54:
  62              		.file 2 "../Middlewares/threadx/ports/cortex_m55/gnu/inc/tx_port.h"
   1:../Middlewares/threadx/ports/cortex_m55/gnu/inc/tx_port.h **** /**************************************************************************/
   2:../Middlewares/threadx/ports/cortex_m55/gnu/inc/tx_port.h **** /*                                                                        */
   3:../Middlewares/threadx/ports/cortex_m55/gnu/inc/tx_port.h **** /*       Copyright (c) Microsoft Corporation. All rights reserved.        */
   4:../Middlewares/threadx/ports/cortex_m55/gnu/inc/tx_port.h **** /*                                                                        */
   5:../Middlewares/threadx/ports/cortex_m55/gnu/inc/tx_port.h **** /*       This software is licensed under the Microsoft Software License   */
   6:../Middlewares/threadx/ports/cortex_m55/gnu/inc/tx_port.h **** /*       Terms for Microsoft Azure RTOS. Full text of the license can be  */
   7:../Middlewares/threadx/ports/cortex_m55/gnu/inc/tx_port.h **** /*       found in the LICENSE file at https://aka.ms/AzureRTOS_EULA       */
   8:../Middlewares/threadx/ports/cortex_m55/gnu/inc/tx_port.h **** /*       and in the root directory of this software.                      */
   9:../Middlewares/threadx/ports/cortex_m55/gnu/inc/tx_port.h **** /*                                                                        */
  10:../Middlewares/threadx/ports/cortex_m55/gnu/inc/tx_port.h **** /**************************************************************************/
ARM GAS  /tmp/ccSHAuWX.s 			page 4


  11:../Middlewares/threadx/ports/cortex_m55/gnu/inc/tx_port.h **** 
  12:../Middlewares/threadx/ports/cortex_m55/gnu/inc/tx_port.h **** 
  13:../Middlewares/threadx/ports/cortex_m55/gnu/inc/tx_port.h **** /**************************************************************************/
  14:../Middlewares/threadx/ports/cortex_m55/gnu/inc/tx_port.h **** /**************************************************************************/
  15:../Middlewares/threadx/ports/cortex_m55/gnu/inc/tx_port.h **** /**                                                                       */
  16:../Middlewares/threadx/ports/cortex_m55/gnu/inc/tx_port.h **** /** ThreadX Component                                                     */
  17:../Middlewares/threadx/ports/cortex_m55/gnu/inc/tx_port.h **** /**                                                                       */
  18:../Middlewares/threadx/ports/cortex_m55/gnu/inc/tx_port.h **** /**   Port Specific                                                       */
  19:../Middlewares/threadx/ports/cortex_m55/gnu/inc/tx_port.h **** /**                                                                       */
  20:../Middlewares/threadx/ports/cortex_m55/gnu/inc/tx_port.h **** /**************************************************************************/
  21:../Middlewares/threadx/ports/cortex_m55/gnu/inc/tx_port.h **** /**************************************************************************/
  22:../Middlewares/threadx/ports/cortex_m55/gnu/inc/tx_port.h **** 
  23:../Middlewares/threadx/ports/cortex_m55/gnu/inc/tx_port.h **** 
  24:../Middlewares/threadx/ports/cortex_m55/gnu/inc/tx_port.h **** /**************************************************************************/
  25:../Middlewares/threadx/ports/cortex_m55/gnu/inc/tx_port.h **** /*                                                                        */
  26:../Middlewares/threadx/ports/cortex_m55/gnu/inc/tx_port.h **** /*  PORT SPECIFIC C INFORMATION                            RELEASE        */
  27:../Middlewares/threadx/ports/cortex_m55/gnu/inc/tx_port.h **** /*                                                                        */
  28:../Middlewares/threadx/ports/cortex_m55/gnu/inc/tx_port.h **** /*    tx_port.h                                         Cortex-M55/GNU    */
  29:../Middlewares/threadx/ports/cortex_m55/gnu/inc/tx_port.h **** /*                                                           6.2.1        */
  30:../Middlewares/threadx/ports/cortex_m55/gnu/inc/tx_port.h **** /*                                                                        */
  31:../Middlewares/threadx/ports/cortex_m55/gnu/inc/tx_port.h **** /*  AUTHOR                                                                */
  32:../Middlewares/threadx/ports/cortex_m55/gnu/inc/tx_port.h **** /*                                                                        */
  33:../Middlewares/threadx/ports/cortex_m55/gnu/inc/tx_port.h **** /*    Scott Larson, Microsoft Corporation                                 */
  34:../Middlewares/threadx/ports/cortex_m55/gnu/inc/tx_port.h **** /*                                                                        */
  35:../Middlewares/threadx/ports/cortex_m55/gnu/inc/tx_port.h **** /*  DESCRIPTION                                                           */
  36:../Middlewares/threadx/ports/cortex_m55/gnu/inc/tx_port.h **** /*                                                                        */
  37:../Middlewares/threadx/ports/cortex_m55/gnu/inc/tx_port.h **** /*    This file contains data type definitions that make the ThreadX      */
  38:../Middlewares/threadx/ports/cortex_m55/gnu/inc/tx_port.h **** /*    real-time kernel function identically on a variety of different     */
  39:../Middlewares/threadx/ports/cortex_m55/gnu/inc/tx_port.h **** /*    processor architectures.  For example, the size or number of bits   */
  40:../Middlewares/threadx/ports/cortex_m55/gnu/inc/tx_port.h **** /*    in an "int" data type vary between microprocessor architectures and */
  41:../Middlewares/threadx/ports/cortex_m55/gnu/inc/tx_port.h **** /*    even C compilers for the same microprocessor.  ThreadX does not     */
  42:../Middlewares/threadx/ports/cortex_m55/gnu/inc/tx_port.h **** /*    directly use native C data types.  Instead, ThreadX creates its     */
  43:../Middlewares/threadx/ports/cortex_m55/gnu/inc/tx_port.h **** /*    own special types that can be mapped to actual data types by this   */
  44:../Middlewares/threadx/ports/cortex_m55/gnu/inc/tx_port.h **** /*    file to guarantee consistency in the interface and functionality.   */
  45:../Middlewares/threadx/ports/cortex_m55/gnu/inc/tx_port.h **** /*                                                                        */
  46:../Middlewares/threadx/ports/cortex_m55/gnu/inc/tx_port.h **** /*    This file replaces the previous Cortex-M55 files. It unifies        */
  47:../Middlewares/threadx/ports/cortex_m55/gnu/inc/tx_port.h **** /*    the Cortex-M55 compilers into one common file.                      */
  48:../Middlewares/threadx/ports/cortex_m55/gnu/inc/tx_port.h **** /*                                                                        */
  49:../Middlewares/threadx/ports/cortex_m55/gnu/inc/tx_port.h **** /*  RELEASE HISTORY                                                       */
  50:../Middlewares/threadx/ports/cortex_m55/gnu/inc/tx_port.h **** /*                                                                        */
  51:../Middlewares/threadx/ports/cortex_m55/gnu/inc/tx_port.h **** /*    DATE              NAME                      DESCRIPTION             */
  52:../Middlewares/threadx/ports/cortex_m55/gnu/inc/tx_port.h **** /*                                                                        */
  53:../Middlewares/threadx/ports/cortex_m55/gnu/inc/tx_port.h **** /*  09-30-2020      Scott Larson            Initial Version 6.1           */
  54:../Middlewares/threadx/ports/cortex_m55/gnu/inc/tx_port.h **** /*  03-02-2021      Scott Larson            Modified comment(s), added    */
  55:../Middlewares/threadx/ports/cortex_m55/gnu/inc/tx_port.h **** /*                                            ULONG64_DEFINED,            */
  56:../Middlewares/threadx/ports/cortex_m55/gnu/inc/tx_port.h **** /*                                            resulting in version 6.1.5  */
  57:../Middlewares/threadx/ports/cortex_m55/gnu/inc/tx_port.h **** /*  06-02-2021      Scott Larson            Modified comment(s), removed  */
  58:../Middlewares/threadx/ports/cortex_m55/gnu/inc/tx_port.h **** /*                                            unneeded header file, funcs */
  59:../Middlewares/threadx/ports/cortex_m55/gnu/inc/tx_port.h **** /*                                            set_control and get_control */
  60:../Middlewares/threadx/ports/cortex_m55/gnu/inc/tx_port.h **** /*                                            changed to inline,          */
  61:../Middlewares/threadx/ports/cortex_m55/gnu/inc/tx_port.h **** /*                                            added symbol to enable      */
  62:../Middlewares/threadx/ports/cortex_m55/gnu/inc/tx_port.h **** /*                                            stack error handler,        */
  63:../Middlewares/threadx/ports/cortex_m55/gnu/inc/tx_port.h **** /*                                            resulting in version 6.1.7  */
  64:../Middlewares/threadx/ports/cortex_m55/gnu/inc/tx_port.h **** /*  10-15-2021      Scott Larson            Modified comment(s), improved */
  65:../Middlewares/threadx/ports/cortex_m55/gnu/inc/tx_port.h **** /*                                            stack check error handling, */
  66:../Middlewares/threadx/ports/cortex_m55/gnu/inc/tx_port.h **** /*                                            resulting in version 6.1.9  */
  67:../Middlewares/threadx/ports/cortex_m55/gnu/inc/tx_port.h **** /*  01-31-2022      Scott Larson            Modified comment(s), unified  */
ARM GAS  /tmp/ccSHAuWX.s 			page 5


  68:../Middlewares/threadx/ports/cortex_m55/gnu/inc/tx_port.h **** /*                                            this file across compilers, */
  69:../Middlewares/threadx/ports/cortex_m55/gnu/inc/tx_port.h **** /*                                            fixed predefined macro,     */
  70:../Middlewares/threadx/ports/cortex_m55/gnu/inc/tx_port.h **** /*                                            resulting in version 6.1.10 */
  71:../Middlewares/threadx/ports/cortex_m55/gnu/inc/tx_port.h **** /*  04-25-2022      Scott Larson            Modified comments and added   */
  72:../Middlewares/threadx/ports/cortex_m55/gnu/inc/tx_port.h **** /*                                            volatile to registers,      */
  73:../Middlewares/threadx/ports/cortex_m55/gnu/inc/tx_port.h **** /*                                            resulting in version 6.1.11 */
  74:../Middlewares/threadx/ports/cortex_m55/gnu/inc/tx_port.h **** /*  07-29-2022      Scott Larson            Modified comments and changed */
  75:../Middlewares/threadx/ports/cortex_m55/gnu/inc/tx_port.h **** /*                                            secure stack initialization */
  76:../Middlewares/threadx/ports/cortex_m55/gnu/inc/tx_port.h **** /*                                            macro to port-specific,     */
  77:../Middlewares/threadx/ports/cortex_m55/gnu/inc/tx_port.h **** /*                                            described BASEPRI usage,    */
  78:../Middlewares/threadx/ports/cortex_m55/gnu/inc/tx_port.h **** /*                                            resulting in version 6.1.12 */
  79:../Middlewares/threadx/ports/cortex_m55/gnu/inc/tx_port.h **** /*  03-08-2023      Scott Larson            Removed unneeded #include,    */
  80:../Middlewares/threadx/ports/cortex_m55/gnu/inc/tx_port.h **** /*                                            resulting in version 6.2.1  */
  81:../Middlewares/threadx/ports/cortex_m55/gnu/inc/tx_port.h **** /*                                                                        */
  82:../Middlewares/threadx/ports/cortex_m55/gnu/inc/tx_port.h **** /**************************************************************************/
  83:../Middlewares/threadx/ports/cortex_m55/gnu/inc/tx_port.h **** 
  84:../Middlewares/threadx/ports/cortex_m55/gnu/inc/tx_port.h **** #ifndef TX_PORT_H
  85:../Middlewares/threadx/ports/cortex_m55/gnu/inc/tx_port.h **** #define TX_PORT_H
  86:../Middlewares/threadx/ports/cortex_m55/gnu/inc/tx_port.h **** 
  87:../Middlewares/threadx/ports/cortex_m55/gnu/inc/tx_port.h **** /* Determine if the optional ThreadX user define file should be used.  */
  88:../Middlewares/threadx/ports/cortex_m55/gnu/inc/tx_port.h **** #ifdef TX_INCLUDE_USER_DEFINE_FILE
  89:../Middlewares/threadx/ports/cortex_m55/gnu/inc/tx_port.h **** 
  90:../Middlewares/threadx/ports/cortex_m55/gnu/inc/tx_port.h **** /* Yes, include the user defines in tx_user.h. The defines in this file may
  91:../Middlewares/threadx/ports/cortex_m55/gnu/inc/tx_port.h ****    alternately be defined on the command line.  */
  92:../Middlewares/threadx/ports/cortex_m55/gnu/inc/tx_port.h **** 
  93:../Middlewares/threadx/ports/cortex_m55/gnu/inc/tx_port.h **** #include "tx_user.h"
  94:../Middlewares/threadx/ports/cortex_m55/gnu/inc/tx_port.h **** #endif /* TX_INCLUDE_USER_DEFINE_FILE */
  95:../Middlewares/threadx/ports/cortex_m55/gnu/inc/tx_port.h **** 
  96:../Middlewares/threadx/ports/cortex_m55/gnu/inc/tx_port.h **** /* Define compiler library include files.  */
  97:../Middlewares/threadx/ports/cortex_m55/gnu/inc/tx_port.h **** 
  98:../Middlewares/threadx/ports/cortex_m55/gnu/inc/tx_port.h **** #include <stdlib.h>
  99:../Middlewares/threadx/ports/cortex_m55/gnu/inc/tx_port.h **** #include <string.h>
 100:../Middlewares/threadx/ports/cortex_m55/gnu/inc/tx_port.h **** 
 101:../Middlewares/threadx/ports/cortex_m55/gnu/inc/tx_port.h **** #ifdef __ICCARM__
 102:../Middlewares/threadx/ports/cortex_m55/gnu/inc/tx_port.h **** #include <intrinsics.h>                         /* IAR Intrinsics */
 103:../Middlewares/threadx/ports/cortex_m55/gnu/inc/tx_port.h **** #define __asm__                 __asm           /* Define to make all inline asm from each compiler
 104:../Middlewares/threadx/ports/cortex_m55/gnu/inc/tx_port.h **** #define _tx_control_get         __get_CONTROL
 105:../Middlewares/threadx/ports/cortex_m55/gnu/inc/tx_port.h **** #define _tx_control_set         __set_CONTROL
 106:../Middlewares/threadx/ports/cortex_m55/gnu/inc/tx_port.h **** #define _tx_ipsr_get            __get_IPSR
 107:../Middlewares/threadx/ports/cortex_m55/gnu/inc/tx_port.h **** #ifdef  TX_ENABLE_IAR_LIBRARY_SUPPORT
 108:../Middlewares/threadx/ports/cortex_m55/gnu/inc/tx_port.h **** #include <yvals.h>
 109:../Middlewares/threadx/ports/cortex_m55/gnu/inc/tx_port.h **** #endif /* TX_ENABLE_IAR_LIBRARY_SUPPORT */
 110:../Middlewares/threadx/ports/cortex_m55/gnu/inc/tx_port.h **** #endif /* __ICCARM__ */
 111:../Middlewares/threadx/ports/cortex_m55/gnu/inc/tx_port.h **** 
 112:../Middlewares/threadx/ports/cortex_m55/gnu/inc/tx_port.h **** 
 113:../Middlewares/threadx/ports/cortex_m55/gnu/inc/tx_port.h **** /* Define ThreadX basic types for this port.  */
 114:../Middlewares/threadx/ports/cortex_m55/gnu/inc/tx_port.h **** 
 115:../Middlewares/threadx/ports/cortex_m55/gnu/inc/tx_port.h **** #define VOID                                    void
 116:../Middlewares/threadx/ports/cortex_m55/gnu/inc/tx_port.h **** typedef char                                    CHAR;
 117:../Middlewares/threadx/ports/cortex_m55/gnu/inc/tx_port.h **** typedef unsigned char                           UCHAR;
 118:../Middlewares/threadx/ports/cortex_m55/gnu/inc/tx_port.h **** typedef int                                     INT;
 119:../Middlewares/threadx/ports/cortex_m55/gnu/inc/tx_port.h **** typedef unsigned int                            UINT;
 120:../Middlewares/threadx/ports/cortex_m55/gnu/inc/tx_port.h **** typedef long                                    LONG;
 121:../Middlewares/threadx/ports/cortex_m55/gnu/inc/tx_port.h **** typedef unsigned long                           ULONG;
 122:../Middlewares/threadx/ports/cortex_m55/gnu/inc/tx_port.h **** typedef unsigned long long                      ULONG64;
 123:../Middlewares/threadx/ports/cortex_m55/gnu/inc/tx_port.h **** typedef short                                   SHORT;
 124:../Middlewares/threadx/ports/cortex_m55/gnu/inc/tx_port.h **** typedef unsigned short                          USHORT;
ARM GAS  /tmp/ccSHAuWX.s 			page 6


 125:../Middlewares/threadx/ports/cortex_m55/gnu/inc/tx_port.h **** #define ULONG64_DEFINED
 126:../Middlewares/threadx/ports/cortex_m55/gnu/inc/tx_port.h **** 
 127:../Middlewares/threadx/ports/cortex_m55/gnu/inc/tx_port.h **** /* Function prototypes for this port. */
 128:../Middlewares/threadx/ports/cortex_m55/gnu/inc/tx_port.h **** struct  TX_THREAD_STRUCT;
 129:../Middlewares/threadx/ports/cortex_m55/gnu/inc/tx_port.h **** UINT    _txe_thread_secure_stack_allocate(struct TX_THREAD_STRUCT *thread_ptr, ULONG stack_size);
 130:../Middlewares/threadx/ports/cortex_m55/gnu/inc/tx_port.h **** UINT    _txe_thread_secure_stack_free(struct TX_THREAD_STRUCT *thread_ptr);
 131:../Middlewares/threadx/ports/cortex_m55/gnu/inc/tx_port.h **** UINT    _tx_thread_secure_stack_allocate(struct TX_THREAD_STRUCT *tx_thread, ULONG stack_size);
 132:../Middlewares/threadx/ports/cortex_m55/gnu/inc/tx_port.h **** UINT    _tx_thread_secure_stack_free(struct TX_THREAD_STRUCT *tx_thread);
 133:../Middlewares/threadx/ports/cortex_m55/gnu/inc/tx_port.h **** 
 134:../Middlewares/threadx/ports/cortex_m55/gnu/inc/tx_port.h **** /* Define the system API mappings based on the error checking
 135:../Middlewares/threadx/ports/cortex_m55/gnu/inc/tx_port.h ****    selected by the user.  Note: this section is only applicable to
 136:../Middlewares/threadx/ports/cortex_m55/gnu/inc/tx_port.h ****    application source code, hence the conditional that turns off this
 137:../Middlewares/threadx/ports/cortex_m55/gnu/inc/tx_port.h ****    stuff when the include file is processed by the ThreadX source. */
 138:../Middlewares/threadx/ports/cortex_m55/gnu/inc/tx_port.h **** 
 139:../Middlewares/threadx/ports/cortex_m55/gnu/inc/tx_port.h **** #ifndef TX_SOURCE_CODE
 140:../Middlewares/threadx/ports/cortex_m55/gnu/inc/tx_port.h **** 
 141:../Middlewares/threadx/ports/cortex_m55/gnu/inc/tx_port.h **** 
 142:../Middlewares/threadx/ports/cortex_m55/gnu/inc/tx_port.h **** /* Determine if error checking is desired.  If so, map API functions
 143:../Middlewares/threadx/ports/cortex_m55/gnu/inc/tx_port.h ****    to the appropriate error checking front-ends.  Otherwise, map API
 144:../Middlewares/threadx/ports/cortex_m55/gnu/inc/tx_port.h ****    functions to the core functions that actually perform the work.
 145:../Middlewares/threadx/ports/cortex_m55/gnu/inc/tx_port.h ****    Note: error checking is enabled by default.  */
 146:../Middlewares/threadx/ports/cortex_m55/gnu/inc/tx_port.h **** 
 147:../Middlewares/threadx/ports/cortex_m55/gnu/inc/tx_port.h **** #ifdef TX_DISABLE_ERROR_CHECKING
 148:../Middlewares/threadx/ports/cortex_m55/gnu/inc/tx_port.h **** 
 149:../Middlewares/threadx/ports/cortex_m55/gnu/inc/tx_port.h **** /* Services without error checking.  */
 150:../Middlewares/threadx/ports/cortex_m55/gnu/inc/tx_port.h **** 
 151:../Middlewares/threadx/ports/cortex_m55/gnu/inc/tx_port.h **** #define tx_thread_secure_stack_allocate   _tx_thread_secure_stack_allocate
 152:../Middlewares/threadx/ports/cortex_m55/gnu/inc/tx_port.h **** #define tx_thread_secure_stack_free       _tx_thread_secure_stack_free
 153:../Middlewares/threadx/ports/cortex_m55/gnu/inc/tx_port.h **** 
 154:../Middlewares/threadx/ports/cortex_m55/gnu/inc/tx_port.h **** #else
 155:../Middlewares/threadx/ports/cortex_m55/gnu/inc/tx_port.h **** 
 156:../Middlewares/threadx/ports/cortex_m55/gnu/inc/tx_port.h **** /* Services with error checking.  */
 157:../Middlewares/threadx/ports/cortex_m55/gnu/inc/tx_port.h **** 
 158:../Middlewares/threadx/ports/cortex_m55/gnu/inc/tx_port.h **** #define tx_thread_secure_stack_allocate   _txe_thread_secure_stack_allocate
 159:../Middlewares/threadx/ports/cortex_m55/gnu/inc/tx_port.h **** #define tx_thread_secure_stack_free       _txe_thread_secure_stack_free
 160:../Middlewares/threadx/ports/cortex_m55/gnu/inc/tx_port.h **** 
 161:../Middlewares/threadx/ports/cortex_m55/gnu/inc/tx_port.h **** #endif  /* TX_DISABLE_ERROR_CHECKING */
 162:../Middlewares/threadx/ports/cortex_m55/gnu/inc/tx_port.h **** #endif  /* TX_SOURCE_CODE */
 163:../Middlewares/threadx/ports/cortex_m55/gnu/inc/tx_port.h **** 
 164:../Middlewares/threadx/ports/cortex_m55/gnu/inc/tx_port.h **** /* This port has a usage fault handler in _tx_initialize_low_level for stack exceptions.  */
 165:../Middlewares/threadx/ports/cortex_m55/gnu/inc/tx_port.h **** #define TX_PORT_THREAD_STACK_ERROR_HANDLING
 166:../Middlewares/threadx/ports/cortex_m55/gnu/inc/tx_port.h **** 
 167:../Middlewares/threadx/ports/cortex_m55/gnu/inc/tx_port.h **** /* Define the priority levels for ThreadX.  Legal values range
 168:../Middlewares/threadx/ports/cortex_m55/gnu/inc/tx_port.h ****    from 32 to 1024 and MUST be evenly divisible by 32.  */
 169:../Middlewares/threadx/ports/cortex_m55/gnu/inc/tx_port.h **** 
 170:../Middlewares/threadx/ports/cortex_m55/gnu/inc/tx_port.h **** #ifndef TX_MAX_PRIORITIES
 171:../Middlewares/threadx/ports/cortex_m55/gnu/inc/tx_port.h **** #define TX_MAX_PRIORITIES                       32
 172:../Middlewares/threadx/ports/cortex_m55/gnu/inc/tx_port.h **** #endif
 173:../Middlewares/threadx/ports/cortex_m55/gnu/inc/tx_port.h **** 
 174:../Middlewares/threadx/ports/cortex_m55/gnu/inc/tx_port.h **** 
 175:../Middlewares/threadx/ports/cortex_m55/gnu/inc/tx_port.h **** /* Define the minimum stack for a ThreadX thread on this processor. If the size supplied during
 176:../Middlewares/threadx/ports/cortex_m55/gnu/inc/tx_port.h ****    thread creation is less than this value, the thread create call will return an error.  */
 177:../Middlewares/threadx/ports/cortex_m55/gnu/inc/tx_port.h **** 
 178:../Middlewares/threadx/ports/cortex_m55/gnu/inc/tx_port.h **** #ifndef TX_MINIMUM_STACK
 179:../Middlewares/threadx/ports/cortex_m55/gnu/inc/tx_port.h **** #define TX_MINIMUM_STACK                        200         /* Minimum stack size for this port  */
 180:../Middlewares/threadx/ports/cortex_m55/gnu/inc/tx_port.h **** #endif
 181:../Middlewares/threadx/ports/cortex_m55/gnu/inc/tx_port.h **** 
ARM GAS  /tmp/ccSHAuWX.s 			page 7


 182:../Middlewares/threadx/ports/cortex_m55/gnu/inc/tx_port.h **** 
 183:../Middlewares/threadx/ports/cortex_m55/gnu/inc/tx_port.h **** /* Define the system timer thread's default stack size and priority.  These are only applicable
 184:../Middlewares/threadx/ports/cortex_m55/gnu/inc/tx_port.h ****    if TX_TIMER_PROCESS_IN_ISR is not defined.  */
 185:../Middlewares/threadx/ports/cortex_m55/gnu/inc/tx_port.h **** 
 186:../Middlewares/threadx/ports/cortex_m55/gnu/inc/tx_port.h **** #ifndef TX_TIMER_THREAD_STACK_SIZE
 187:../Middlewares/threadx/ports/cortex_m55/gnu/inc/tx_port.h **** #define TX_TIMER_THREAD_STACK_SIZE              1024        /* Default timer thread stack size  */
 188:../Middlewares/threadx/ports/cortex_m55/gnu/inc/tx_port.h **** #endif
 189:../Middlewares/threadx/ports/cortex_m55/gnu/inc/tx_port.h **** 
 190:../Middlewares/threadx/ports/cortex_m55/gnu/inc/tx_port.h **** #ifndef TX_TIMER_THREAD_PRIORITY
 191:../Middlewares/threadx/ports/cortex_m55/gnu/inc/tx_port.h **** #define TX_TIMER_THREAD_PRIORITY                0           /* Default timer thread priority    */
 192:../Middlewares/threadx/ports/cortex_m55/gnu/inc/tx_port.h **** #endif
 193:../Middlewares/threadx/ports/cortex_m55/gnu/inc/tx_port.h **** 
 194:../Middlewares/threadx/ports/cortex_m55/gnu/inc/tx_port.h **** /* By default, ThreadX for Cortex-M uses the PRIMASK register to enable/disable interrupts.
 195:../Middlewares/threadx/ports/cortex_m55/gnu/inc/tx_port.h **** If using BASEPRI is desired, define the following two symbols for both c and assembly files:
 196:../Middlewares/threadx/ports/cortex_m55/gnu/inc/tx_port.h **** TX_PORT_USE_BASEPRI - This tells ThreadX to use BASEPRI instead of PRIMASK.
 197:../Middlewares/threadx/ports/cortex_m55/gnu/inc/tx_port.h **** TX_PORT_BASEPRI = (priority_mask << (8 - number_priority_bits)) - this defines the maximum priority
 198:../Middlewares/threadx/ports/cortex_m55/gnu/inc/tx_port.h **** Any interrupt with a higher priority than priority_mask will not be masked, thus the interrupt will
 199:../Middlewares/threadx/ports/cortex_m55/gnu/inc/tx_port.h **** */
 200:../Middlewares/threadx/ports/cortex_m55/gnu/inc/tx_port.h **** 
 201:../Middlewares/threadx/ports/cortex_m55/gnu/inc/tx_port.h **** /* Define various constants for the ThreadX Cortex-M port.  */
 202:../Middlewares/threadx/ports/cortex_m55/gnu/inc/tx_port.h **** 
 203:../Middlewares/threadx/ports/cortex_m55/gnu/inc/tx_port.h **** #define TX_INT_DISABLE                          1           /* Disable interrupts               */
 204:../Middlewares/threadx/ports/cortex_m55/gnu/inc/tx_port.h **** #define TX_INT_ENABLE                           0           /* Enable interrupts                */
 205:../Middlewares/threadx/ports/cortex_m55/gnu/inc/tx_port.h **** 
 206:../Middlewares/threadx/ports/cortex_m55/gnu/inc/tx_port.h **** 
 207:../Middlewares/threadx/ports/cortex_m55/gnu/inc/tx_port.h **** /* Define the clock source for trace event entry time stamp. The following two item are port specif
 208:../Middlewares/threadx/ports/cortex_m55/gnu/inc/tx_port.h ****    For example, if the time source is at the address 0x0a800024 and is 16-bits in size, the clock
 209:../Middlewares/threadx/ports/cortex_m55/gnu/inc/tx_port.h ****    source constants would be:
 210:../Middlewares/threadx/ports/cortex_m55/gnu/inc/tx_port.h **** 
 211:../Middlewares/threadx/ports/cortex_m55/gnu/inc/tx_port.h **** #define TX_TRACE_TIME_SOURCE                    *((volatile ULONG *) 0x0a800024)
 212:../Middlewares/threadx/ports/cortex_m55/gnu/inc/tx_port.h **** #define TX_TRACE_TIME_MASK                      0x0000FFFFUL
 213:../Middlewares/threadx/ports/cortex_m55/gnu/inc/tx_port.h **** 
 214:../Middlewares/threadx/ports/cortex_m55/gnu/inc/tx_port.h **** */
 215:../Middlewares/threadx/ports/cortex_m55/gnu/inc/tx_port.h **** 
 216:../Middlewares/threadx/ports/cortex_m55/gnu/inc/tx_port.h **** #ifndef TX_MISRA_ENABLE
 217:../Middlewares/threadx/ports/cortex_m55/gnu/inc/tx_port.h **** #ifndef TX_TRACE_TIME_SOURCE
 218:../Middlewares/threadx/ports/cortex_m55/gnu/inc/tx_port.h **** #define TX_TRACE_TIME_SOURCE                    *((volatile ULONG *) 0xE0001004)
 219:../Middlewares/threadx/ports/cortex_m55/gnu/inc/tx_port.h **** #endif
 220:../Middlewares/threadx/ports/cortex_m55/gnu/inc/tx_port.h **** #else
 221:../Middlewares/threadx/ports/cortex_m55/gnu/inc/tx_port.h **** ULONG   _tx_misra_time_stamp_get(VOID);
 222:../Middlewares/threadx/ports/cortex_m55/gnu/inc/tx_port.h **** #define TX_TRACE_TIME_SOURCE                    _tx_misra_time_stamp_get()
 223:../Middlewares/threadx/ports/cortex_m55/gnu/inc/tx_port.h **** #endif
 224:../Middlewares/threadx/ports/cortex_m55/gnu/inc/tx_port.h **** 
 225:../Middlewares/threadx/ports/cortex_m55/gnu/inc/tx_port.h **** #ifndef TX_TRACE_TIME_MASK
 226:../Middlewares/threadx/ports/cortex_m55/gnu/inc/tx_port.h **** #define TX_TRACE_TIME_MASK                      0xFFFFFFFFUL
 227:../Middlewares/threadx/ports/cortex_m55/gnu/inc/tx_port.h **** #endif
 228:../Middlewares/threadx/ports/cortex_m55/gnu/inc/tx_port.h **** 
 229:../Middlewares/threadx/ports/cortex_m55/gnu/inc/tx_port.h **** 
 230:../Middlewares/threadx/ports/cortex_m55/gnu/inc/tx_port.h **** /* Define the port specific options for the _tx_build_options variable. This variable indicates
 231:../Middlewares/threadx/ports/cortex_m55/gnu/inc/tx_port.h ****    how the ThreadX library was built.  */
 232:../Middlewares/threadx/ports/cortex_m55/gnu/inc/tx_port.h **** 
 233:../Middlewares/threadx/ports/cortex_m55/gnu/inc/tx_port.h **** #define TX_PORT_SPECIFIC_BUILD_OPTIONS          (0)
 234:../Middlewares/threadx/ports/cortex_m55/gnu/inc/tx_port.h **** 
 235:../Middlewares/threadx/ports/cortex_m55/gnu/inc/tx_port.h **** 
 236:../Middlewares/threadx/ports/cortex_m55/gnu/inc/tx_port.h **** /* Define the in-line initialization constant so that modules with in-line
 237:../Middlewares/threadx/ports/cortex_m55/gnu/inc/tx_port.h ****    initialization capabilities can prevent their initialization from being
 238:../Middlewares/threadx/ports/cortex_m55/gnu/inc/tx_port.h ****    a function call.  */
ARM GAS  /tmp/ccSHAuWX.s 			page 8


 239:../Middlewares/threadx/ports/cortex_m55/gnu/inc/tx_port.h **** 
 240:../Middlewares/threadx/ports/cortex_m55/gnu/inc/tx_port.h **** #ifdef TX_MISRA_ENABLE
 241:../Middlewares/threadx/ports/cortex_m55/gnu/inc/tx_port.h **** #define TX_DISABLE_INLINE
 242:../Middlewares/threadx/ports/cortex_m55/gnu/inc/tx_port.h **** #else
 243:../Middlewares/threadx/ports/cortex_m55/gnu/inc/tx_port.h **** #define TX_INLINE_INITIALIZATION
 244:../Middlewares/threadx/ports/cortex_m55/gnu/inc/tx_port.h **** #endif
 245:../Middlewares/threadx/ports/cortex_m55/gnu/inc/tx_port.h **** 
 246:../Middlewares/threadx/ports/cortex_m55/gnu/inc/tx_port.h **** 
 247:../Middlewares/threadx/ports/cortex_m55/gnu/inc/tx_port.h **** /* Determine whether or not stack checking is enabled. By default, ThreadX stack checking is
 248:../Middlewares/threadx/ports/cortex_m55/gnu/inc/tx_port.h ****    disabled. When the following is defined, ThreadX thread stack checking is enabled.  If stack
 249:../Middlewares/threadx/ports/cortex_m55/gnu/inc/tx_port.h ****    checking is enabled (TX_ENABLE_STACK_CHECKING is defined), the TX_DISABLE_STACK_FILLING
 250:../Middlewares/threadx/ports/cortex_m55/gnu/inc/tx_port.h ****    define is negated, thereby forcing the stack fill which is necessary for the stack checking
 251:../Middlewares/threadx/ports/cortex_m55/gnu/inc/tx_port.h ****    logic.  */
 252:../Middlewares/threadx/ports/cortex_m55/gnu/inc/tx_port.h **** 
 253:../Middlewares/threadx/ports/cortex_m55/gnu/inc/tx_port.h **** #ifndef TX_MISRA_ENABLE
 254:../Middlewares/threadx/ports/cortex_m55/gnu/inc/tx_port.h **** #ifdef TX_ENABLE_STACK_CHECKING
 255:../Middlewares/threadx/ports/cortex_m55/gnu/inc/tx_port.h **** #undef TX_DISABLE_STACK_FILLING
 256:../Middlewares/threadx/ports/cortex_m55/gnu/inc/tx_port.h **** #endif
 257:../Middlewares/threadx/ports/cortex_m55/gnu/inc/tx_port.h **** #endif
 258:../Middlewares/threadx/ports/cortex_m55/gnu/inc/tx_port.h **** 
 259:../Middlewares/threadx/ports/cortex_m55/gnu/inc/tx_port.h **** 
 260:../Middlewares/threadx/ports/cortex_m55/gnu/inc/tx_port.h **** /* Define the TX_THREAD control block extensions for this port. The main reason
 261:../Middlewares/threadx/ports/cortex_m55/gnu/inc/tx_port.h ****    for the multiple macros is so that backward compatibility can be maintained with
 262:../Middlewares/threadx/ports/cortex_m55/gnu/inc/tx_port.h ****    existing ThreadX kernel awareness modules.  */
 263:../Middlewares/threadx/ports/cortex_m55/gnu/inc/tx_port.h **** 
 264:../Middlewares/threadx/ports/cortex_m55/gnu/inc/tx_port.h **** #define TX_THREAD_EXTENSION_0
 265:../Middlewares/threadx/ports/cortex_m55/gnu/inc/tx_port.h **** #define TX_THREAD_EXTENSION_1
 266:../Middlewares/threadx/ports/cortex_m55/gnu/inc/tx_port.h **** 
 267:../Middlewares/threadx/ports/cortex_m55/gnu/inc/tx_port.h **** #ifdef  TX_ENABLE_IAR_LIBRARY_SUPPORT
 268:../Middlewares/threadx/ports/cortex_m55/gnu/inc/tx_port.h **** /* IAR library support */
 269:../Middlewares/threadx/ports/cortex_m55/gnu/inc/tx_port.h **** #if !defined(TX_SINGLE_MODE_SECURE) && !defined(TX_SINGLE_MODE_NON_SECURE)
 270:../Middlewares/threadx/ports/cortex_m55/gnu/inc/tx_port.h **** /* ThreadX in non-secure zone with calls to secure zone. */
 271:../Middlewares/threadx/ports/cortex_m55/gnu/inc/tx_port.h **** #define TX_THREAD_EXTENSION_2           VOID    *tx_thread_secure_stack_context;    \
 272:../Middlewares/threadx/ports/cortex_m55/gnu/inc/tx_port.h ****                                         VOID    *tx_thread_iar_tls_pointer;
 273:../Middlewares/threadx/ports/cortex_m55/gnu/inc/tx_port.h **** #else
 274:../Middlewares/threadx/ports/cortex_m55/gnu/inc/tx_port.h **** /* ThreadX in only one zone. */
 275:../Middlewares/threadx/ports/cortex_m55/gnu/inc/tx_port.h **** #define TX_THREAD_EXTENSION_2           VOID    *tx_thread_iar_tls_pointer;
 276:../Middlewares/threadx/ports/cortex_m55/gnu/inc/tx_port.h **** #endif
 277:../Middlewares/threadx/ports/cortex_m55/gnu/inc/tx_port.h **** 
 278:../Middlewares/threadx/ports/cortex_m55/gnu/inc/tx_port.h **** #else
 279:../Middlewares/threadx/ports/cortex_m55/gnu/inc/tx_port.h **** /* No IAR library support */
 280:../Middlewares/threadx/ports/cortex_m55/gnu/inc/tx_port.h **** #if !defined(TX_SINGLE_MODE_SECURE) && !defined(TX_SINGLE_MODE_NON_SECURE)
 281:../Middlewares/threadx/ports/cortex_m55/gnu/inc/tx_port.h **** /* ThreadX in non-secure zone with calls to secure zone. */
 282:../Middlewares/threadx/ports/cortex_m55/gnu/inc/tx_port.h **** #define TX_THREAD_EXTENSION_2           VOID    *tx_thread_secure_stack_context;
 283:../Middlewares/threadx/ports/cortex_m55/gnu/inc/tx_port.h **** #else
 284:../Middlewares/threadx/ports/cortex_m55/gnu/inc/tx_port.h **** /* ThreadX in only one zone. */
 285:../Middlewares/threadx/ports/cortex_m55/gnu/inc/tx_port.h **** #define TX_THREAD_EXTENSION_2
 286:../Middlewares/threadx/ports/cortex_m55/gnu/inc/tx_port.h **** #endif
 287:../Middlewares/threadx/ports/cortex_m55/gnu/inc/tx_port.h **** 
 288:../Middlewares/threadx/ports/cortex_m55/gnu/inc/tx_port.h **** #endif  /* TX_ENABLE_IAR_LIBRARY_SUPPORT */
 289:../Middlewares/threadx/ports/cortex_m55/gnu/inc/tx_port.h **** 
 290:../Middlewares/threadx/ports/cortex_m55/gnu/inc/tx_port.h **** #define TX_THREAD_EXTENSION_3
 291:../Middlewares/threadx/ports/cortex_m55/gnu/inc/tx_port.h **** 
 292:../Middlewares/threadx/ports/cortex_m55/gnu/inc/tx_port.h **** 
 293:../Middlewares/threadx/ports/cortex_m55/gnu/inc/tx_port.h **** /* Define the port extensions of the remaining ThreadX objects.  */
 294:../Middlewares/threadx/ports/cortex_m55/gnu/inc/tx_port.h **** 
 295:../Middlewares/threadx/ports/cortex_m55/gnu/inc/tx_port.h **** #define TX_BLOCK_POOL_EXTENSION
ARM GAS  /tmp/ccSHAuWX.s 			page 9


 296:../Middlewares/threadx/ports/cortex_m55/gnu/inc/tx_port.h **** #define TX_BYTE_POOL_EXTENSION
 297:../Middlewares/threadx/ports/cortex_m55/gnu/inc/tx_port.h **** #define TX_EVENT_FLAGS_GROUP_EXTENSION
 298:../Middlewares/threadx/ports/cortex_m55/gnu/inc/tx_port.h **** #define TX_MUTEX_EXTENSION
 299:../Middlewares/threadx/ports/cortex_m55/gnu/inc/tx_port.h **** #define TX_QUEUE_EXTENSION
 300:../Middlewares/threadx/ports/cortex_m55/gnu/inc/tx_port.h **** #define TX_SEMAPHORE_EXTENSION
 301:../Middlewares/threadx/ports/cortex_m55/gnu/inc/tx_port.h **** #define TX_TIMER_EXTENSION
 302:../Middlewares/threadx/ports/cortex_m55/gnu/inc/tx_port.h **** 
 303:../Middlewares/threadx/ports/cortex_m55/gnu/inc/tx_port.h **** 
 304:../Middlewares/threadx/ports/cortex_m55/gnu/inc/tx_port.h **** /* Define the user extension field of the thread control block.  Nothing
 305:../Middlewares/threadx/ports/cortex_m55/gnu/inc/tx_port.h ****    additional is needed for this port so it is defined as white space.  */
 306:../Middlewares/threadx/ports/cortex_m55/gnu/inc/tx_port.h **** 
 307:../Middlewares/threadx/ports/cortex_m55/gnu/inc/tx_port.h **** #ifndef TX_THREAD_USER_EXTENSION
 308:../Middlewares/threadx/ports/cortex_m55/gnu/inc/tx_port.h **** #define TX_THREAD_USER_EXTENSION
 309:../Middlewares/threadx/ports/cortex_m55/gnu/inc/tx_port.h **** #endif
 310:../Middlewares/threadx/ports/cortex_m55/gnu/inc/tx_port.h **** 
 311:../Middlewares/threadx/ports/cortex_m55/gnu/inc/tx_port.h **** 
 312:../Middlewares/threadx/ports/cortex_m55/gnu/inc/tx_port.h **** /* Define the macros for processing extensions in tx_thread_create, tx_thread_delete,
 313:../Middlewares/threadx/ports/cortex_m55/gnu/inc/tx_port.h ****    tx_thread_shell_entry, and tx_thread_terminate.  */
 314:../Middlewares/threadx/ports/cortex_m55/gnu/inc/tx_port.h **** #ifdef  TX_ENABLE_IAR_LIBRARY_SUPPORT
 315:../Middlewares/threadx/ports/cortex_m55/gnu/inc/tx_port.h **** void    *_tx_iar_create_per_thread_tls_area(void);
 316:../Middlewares/threadx/ports/cortex_m55/gnu/inc/tx_port.h **** void    _tx_iar_destroy_per_thread_tls_area(void *tls_ptr);
 317:../Middlewares/threadx/ports/cortex_m55/gnu/inc/tx_port.h **** void    __iar_Initlocks(void);
 318:../Middlewares/threadx/ports/cortex_m55/gnu/inc/tx_port.h **** #define TX_THREAD_CREATE_EXTENSION(thread_ptr)                      thread_ptr -> tx_thread_iar_tls
 319:../Middlewares/threadx/ports/cortex_m55/gnu/inc/tx_port.h **** 
 320:../Middlewares/threadx/ports/cortex_m55/gnu/inc/tx_port.h **** #if !defined(TX_SINGLE_MODE_SECURE) && !defined(TX_SINGLE_MODE_NON_SECURE)
 321:../Middlewares/threadx/ports/cortex_m55/gnu/inc/tx_port.h **** #define TX_THREAD_DELETE_EXTENSION(thread_ptr)                      do {_tx_iar_destroy_per_thread_
 322:../Middlewares/threadx/ports/cortex_m55/gnu/inc/tx_port.h ****                                                                         thread_ptr -> tx_thread_iar
 323:../Middlewares/threadx/ports/cortex_m55/gnu/inc/tx_port.h ****                                                                     if(thread_ptr -> tx_thread_secu
 324:../Middlewares/threadx/ports/cortex_m55/gnu/inc/tx_port.h **** #else
 325:../Middlewares/threadx/ports/cortex_m55/gnu/inc/tx_port.h **** #define TX_THREAD_DELETE_EXTENSION(thread_ptr)                      do {_tx_iar_destroy_per_thread_
 326:../Middlewares/threadx/ports/cortex_m55/gnu/inc/tx_port.h ****                                                                         thread_ptr -> tx_thread_iar
 327:../Middlewares/threadx/ports/cortex_m55/gnu/inc/tx_port.h **** #endif
 328:../Middlewares/threadx/ports/cortex_m55/gnu/inc/tx_port.h **** #define TX_PORT_SPECIFIC_PRE_SCHEDULER_INITIALIZATION               do {__iar_Initlocks();} while(0
 329:../Middlewares/threadx/ports/cortex_m55/gnu/inc/tx_port.h **** 
 330:../Middlewares/threadx/ports/cortex_m55/gnu/inc/tx_port.h **** #else   /* No IAR library support. */
 331:../Middlewares/threadx/ports/cortex_m55/gnu/inc/tx_port.h **** #define TX_THREAD_CREATE_EXTENSION(thread_ptr)
 332:../Middlewares/threadx/ports/cortex_m55/gnu/inc/tx_port.h **** #if !defined(TX_SINGLE_MODE_SECURE) && !defined(TX_SINGLE_MODE_NON_SECURE)
 333:../Middlewares/threadx/ports/cortex_m55/gnu/inc/tx_port.h **** #define TX_THREAD_DELETE_EXTENSION(thread_ptr)                      if(thread_ptr -> tx_thread_secu
 334:../Middlewares/threadx/ports/cortex_m55/gnu/inc/tx_port.h **** #else
 335:../Middlewares/threadx/ports/cortex_m55/gnu/inc/tx_port.h **** #define TX_THREAD_DELETE_EXTENSION(thread_ptr)
 336:../Middlewares/threadx/ports/cortex_m55/gnu/inc/tx_port.h **** #endif
 337:../Middlewares/threadx/ports/cortex_m55/gnu/inc/tx_port.h **** #endif  /* TX_ENABLE_IAR_LIBRARY_SUPPORT */
 338:../Middlewares/threadx/ports/cortex_m55/gnu/inc/tx_port.h **** 
 339:../Middlewares/threadx/ports/cortex_m55/gnu/inc/tx_port.h **** #if !defined(TX_SINGLE_MODE_SECURE) && !defined(TX_SINGLE_MODE_NON_SECURE)
 340:../Middlewares/threadx/ports/cortex_m55/gnu/inc/tx_port.h **** /* Define the size of the secure stack for the timer thread and use the extension to allocate the s
 341:../Middlewares/threadx/ports/cortex_m55/gnu/inc/tx_port.h **** #define TX_TIMER_THREAD_SECURE_STACK_SIZE       256
 342:../Middlewares/threadx/ports/cortex_m55/gnu/inc/tx_port.h **** #define TX_TIMER_INITIALIZE_EXTENSION(status)   _tx_thread_secure_stack_allocate(&_tx_timer_thread,
 343:../Middlewares/threadx/ports/cortex_m55/gnu/inc/tx_port.h **** #endif
 344:../Middlewares/threadx/ports/cortex_m55/gnu/inc/tx_port.h **** 
 345:../Middlewares/threadx/ports/cortex_m55/gnu/inc/tx_port.h **** 
 346:../Middlewares/threadx/ports/cortex_m55/gnu/inc/tx_port.h **** #if defined(__ARMVFP__) || defined(__ARM_PCS_VFP) || defined(__ARM_FP) || defined(__TARGET_FPU_VFP)
 347:../Middlewares/threadx/ports/cortex_m55/gnu/inc/tx_port.h **** 
 348:../Middlewares/threadx/ports/cortex_m55/gnu/inc/tx_port.h **** #ifdef TX_MISRA_ENABLE
 349:../Middlewares/threadx/ports/cortex_m55/gnu/inc/tx_port.h **** 
 350:../Middlewares/threadx/ports/cortex_m55/gnu/inc/tx_port.h **** ULONG  _tx_misra_control_get(void);
 351:../Middlewares/threadx/ports/cortex_m55/gnu/inc/tx_port.h **** void   _tx_misra_control_set(ULONG value);
 352:../Middlewares/threadx/ports/cortex_m55/gnu/inc/tx_port.h **** ULONG  _tx_misra_fpccr_get(void);
ARM GAS  /tmp/ccSHAuWX.s 			page 10


 353:../Middlewares/threadx/ports/cortex_m55/gnu/inc/tx_port.h **** void   _tx_misra_vfp_touch(void);
 354:../Middlewares/threadx/ports/cortex_m55/gnu/inc/tx_port.h **** 
 355:../Middlewares/threadx/ports/cortex_m55/gnu/inc/tx_port.h **** #else   /* TX_MISRA_ENABLE not defined */
 356:../Middlewares/threadx/ports/cortex_m55/gnu/inc/tx_port.h **** 
 357:../Middlewares/threadx/ports/cortex_m55/gnu/inc/tx_port.h **** #ifdef __GNUC__ /* GCC and ARM Compiler 6 */
 358:../Middlewares/threadx/ports/cortex_m55/gnu/inc/tx_port.h **** 
 359:../Middlewares/threadx/ports/cortex_m55/gnu/inc/tx_port.h **** __attribute__( ( always_inline ) ) static inline ULONG _tx_control_get(void)
 360:../Middlewares/threadx/ports/cortex_m55/gnu/inc/tx_port.h **** {
 361:../Middlewares/threadx/ports/cortex_m55/gnu/inc/tx_port.h **** ULONG  control_value;
 362:../Middlewares/threadx/ports/cortex_m55/gnu/inc/tx_port.h **** 
 363:../Middlewares/threadx/ports/cortex_m55/gnu/inc/tx_port.h ****     __asm__ volatile (" MRS  %0,CONTROL ": "=r" (control_value) );
 364:../Middlewares/threadx/ports/cortex_m55/gnu/inc/tx_port.h ****     return(control_value);
 365:../Middlewares/threadx/ports/cortex_m55/gnu/inc/tx_port.h **** }
 366:../Middlewares/threadx/ports/cortex_m55/gnu/inc/tx_port.h **** 
 367:../Middlewares/threadx/ports/cortex_m55/gnu/inc/tx_port.h **** __attribute__( ( always_inline ) ) static inline void _tx_control_set(ULONG control_value)
 368:../Middlewares/threadx/ports/cortex_m55/gnu/inc/tx_port.h **** {
 369:../Middlewares/threadx/ports/cortex_m55/gnu/inc/tx_port.h ****     __asm__ volatile (" MSR  CONTROL,%0": : "r" (control_value): "memory" );
 370:../Middlewares/threadx/ports/cortex_m55/gnu/inc/tx_port.h **** }
 371:../Middlewares/threadx/ports/cortex_m55/gnu/inc/tx_port.h **** 
 372:../Middlewares/threadx/ports/cortex_m55/gnu/inc/tx_port.h **** #endif  /* __GNUC__ */
 373:../Middlewares/threadx/ports/cortex_m55/gnu/inc/tx_port.h **** 
 374:../Middlewares/threadx/ports/cortex_m55/gnu/inc/tx_port.h **** /* Touch VFP register in order to flush. Works for AC6/GCC/IAR compilers. */
 375:../Middlewares/threadx/ports/cortex_m55/gnu/inc/tx_port.h **** #define TX_VFP_TOUCH()  __asm__ volatile ("VMOV.F32 s0, s0");
 376:../Middlewares/threadx/ports/cortex_m55/gnu/inc/tx_port.h **** 
 377:../Middlewares/threadx/ports/cortex_m55/gnu/inc/tx_port.h **** #endif  /* TX_MISRA_ENABLE */
 378:../Middlewares/threadx/ports/cortex_m55/gnu/inc/tx_port.h **** 
 379:../Middlewares/threadx/ports/cortex_m55/gnu/inc/tx_port.h **** /* A completed thread falls into _thread_shell_entry and we can simply deactivate the FPU via CONTR
 380:../Middlewares/threadx/ports/cortex_m55/gnu/inc/tx_port.h ****    in order to ensure no lazy stacking will occur. */
 381:../Middlewares/threadx/ports/cortex_m55/gnu/inc/tx_port.h **** 
 382:../Middlewares/threadx/ports/cortex_m55/gnu/inc/tx_port.h **** #ifndef TX_MISRA_ENABLE
 383:../Middlewares/threadx/ports/cortex_m55/gnu/inc/tx_port.h **** 
 384:../Middlewares/threadx/ports/cortex_m55/gnu/inc/tx_port.h **** #define TX_THREAD_COMPLETED_EXTENSION(thread_ptr)   {                                              
 385:../Middlewares/threadx/ports/cortex_m55/gnu/inc/tx_port.h ****                                                     ULONG  _tx_vfp_state;                          
 386:../Middlewares/threadx/ports/cortex_m55/gnu/inc/tx_port.h ****                                                         _tx_vfp_state = _tx_control_get();         
 387:../Middlewares/threadx/ports/cortex_m55/gnu/inc/tx_port.h ****                                                         _tx_vfp_state = _tx_vfp_state & ~((ULONG) 0
 388:../Middlewares/threadx/ports/cortex_m55/gnu/inc/tx_port.h ****                                                         _tx_control_set(_tx_vfp_state);            
 389:../Middlewares/threadx/ports/cortex_m55/gnu/inc/tx_port.h ****                                                     }
 390:../Middlewares/threadx/ports/cortex_m55/gnu/inc/tx_port.h **** #else
 391:../Middlewares/threadx/ports/cortex_m55/gnu/inc/tx_port.h **** 
 392:../Middlewares/threadx/ports/cortex_m55/gnu/inc/tx_port.h **** #define TX_THREAD_COMPLETED_EXTENSION(thread_ptr)   {                                              
 393:../Middlewares/threadx/ports/cortex_m55/gnu/inc/tx_port.h ****                                                     ULONG  _tx_vfp_state;                          
 394:../Middlewares/threadx/ports/cortex_m55/gnu/inc/tx_port.h ****                                                         _tx_vfp_state = _tx_misra_control_get();   
 395:../Middlewares/threadx/ports/cortex_m55/gnu/inc/tx_port.h ****                                                         _tx_vfp_state = _tx_vfp_state & ~((ULONG) 0
 396:../Middlewares/threadx/ports/cortex_m55/gnu/inc/tx_port.h ****                                                         _tx_misra_control_set(_tx_vfp_state);      
 397:../Middlewares/threadx/ports/cortex_m55/gnu/inc/tx_port.h ****                                                     }
 398:../Middlewares/threadx/ports/cortex_m55/gnu/inc/tx_port.h **** #endif
 399:../Middlewares/threadx/ports/cortex_m55/gnu/inc/tx_port.h **** 
 400:../Middlewares/threadx/ports/cortex_m55/gnu/inc/tx_port.h **** /* A thread can be terminated by another thread, so we first check if it's self-terminating and not
 401:../Middlewares/threadx/ports/cortex_m55/gnu/inc/tx_port.h ****    If so, deactivate the FPU via CONTROL.FPCA. Otherwise we are in an interrupt or another thread i
 402:../Middlewares/threadx/ports/cortex_m55/gnu/inc/tx_port.h ****    this one, so if the FPCCR.LSPACT bit is set, we need to save the CONTROL.FPCA state, touch the F
 403:../Middlewares/threadx/ports/cortex_m55/gnu/inc/tx_port.h ****    the lazy FPU save, then restore the CONTROL.FPCA state. */
 404:../Middlewares/threadx/ports/cortex_m55/gnu/inc/tx_port.h **** 
 405:../Middlewares/threadx/ports/cortex_m55/gnu/inc/tx_port.h **** #ifndef TX_MISRA_ENABLE
 406:../Middlewares/threadx/ports/cortex_m55/gnu/inc/tx_port.h **** 
 407:../Middlewares/threadx/ports/cortex_m55/gnu/inc/tx_port.h **** #define TX_THREAD_TERMINATED_EXTENSION(thread_ptr)  {                                              
 408:../Middlewares/threadx/ports/cortex_m55/gnu/inc/tx_port.h ****                                                     ULONG  _tx_system_state;                       
 409:../Middlewares/threadx/ports/cortex_m55/gnu/inc/tx_port.h ****                                                         _tx_system_state = TX_THREAD_GET_SYSTEM_STA
ARM GAS  /tmp/ccSHAuWX.s 			page 11


 410:../Middlewares/threadx/ports/cortex_m55/gnu/inc/tx_port.h ****                                                         if ((_tx_system_state == ((ULONG) 0)) && ((
 411:../Middlewares/threadx/ports/cortex_m55/gnu/inc/tx_port.h ****                                                         {                                          
 412:../Middlewares/threadx/ports/cortex_m55/gnu/inc/tx_port.h ****                                                         ULONG  _tx_vfp_state;                      
 413:../Middlewares/threadx/ports/cortex_m55/gnu/inc/tx_port.h ****                                                             _tx_vfp_state = _tx_control_get();     
 414:../Middlewares/threadx/ports/cortex_m55/gnu/inc/tx_port.h ****                                                             _tx_vfp_state = _tx_vfp_state & ~((ULON
 415:../Middlewares/threadx/ports/cortex_m55/gnu/inc/tx_port.h ****                                                             _tx_control_set(_tx_vfp_state);        
 416:../Middlewares/threadx/ports/cortex_m55/gnu/inc/tx_port.h ****                                                         }                                          
 417:../Middlewares/threadx/ports/cortex_m55/gnu/inc/tx_port.h ****                                                         else                                       
 418:../Middlewares/threadx/ports/cortex_m55/gnu/inc/tx_port.h ****                                                         {                                          
 419:../Middlewares/threadx/ports/cortex_m55/gnu/inc/tx_port.h ****                                                         ULONG  _tx_fpccr;                          
 420:../Middlewares/threadx/ports/cortex_m55/gnu/inc/tx_port.h ****                                                             _tx_fpccr = *((volatile ULONG *) 0xE000
 421:../Middlewares/threadx/ports/cortex_m55/gnu/inc/tx_port.h ****                                                             _tx_fpccr = _tx_fpccr & ((ULONG) 0x01);
 422:../Middlewares/threadx/ports/cortex_m55/gnu/inc/tx_port.h ****                                                             if (_tx_fpccr == ((ULONG) 0x01))       
 423:../Middlewares/threadx/ports/cortex_m55/gnu/inc/tx_port.h ****                                                             {                                      
 424:../Middlewares/threadx/ports/cortex_m55/gnu/inc/tx_port.h ****                                                             ULONG _tx_vfp_state;                   
 425:../Middlewares/threadx/ports/cortex_m55/gnu/inc/tx_port.h ****                                                                 _tx_vfp_state = _tx_control_get(); 
 426:../Middlewares/threadx/ports/cortex_m55/gnu/inc/tx_port.h ****                                                                 _tx_vfp_state = _tx_vfp_state & ((U
 427:../Middlewares/threadx/ports/cortex_m55/gnu/inc/tx_port.h ****                                                                 TX_VFP_TOUCH();                    
 428:../Middlewares/threadx/ports/cortex_m55/gnu/inc/tx_port.h ****                                                                 if (_tx_vfp_state == ((ULONG) 0))  
 429:../Middlewares/threadx/ports/cortex_m55/gnu/inc/tx_port.h ****                                                                 {                                  
 430:../Middlewares/threadx/ports/cortex_m55/gnu/inc/tx_port.h ****                                                                     _tx_vfp_state = _tx_control_get
 431:../Middlewares/threadx/ports/cortex_m55/gnu/inc/tx_port.h ****                                                                     _tx_vfp_state = _tx_vfp_state &
 432:../Middlewares/threadx/ports/cortex_m55/gnu/inc/tx_port.h ****                                                                     _tx_control_set(_tx_vfp_state);
 433:../Middlewares/threadx/ports/cortex_m55/gnu/inc/tx_port.h ****                                                                 }                                  
 434:../Middlewares/threadx/ports/cortex_m55/gnu/inc/tx_port.h ****                                                             }                                      
 435:../Middlewares/threadx/ports/cortex_m55/gnu/inc/tx_port.h ****                                                         }                                          
 436:../Middlewares/threadx/ports/cortex_m55/gnu/inc/tx_port.h ****                                                     }
 437:../Middlewares/threadx/ports/cortex_m55/gnu/inc/tx_port.h **** #else
 438:../Middlewares/threadx/ports/cortex_m55/gnu/inc/tx_port.h **** 
 439:../Middlewares/threadx/ports/cortex_m55/gnu/inc/tx_port.h **** #define TX_THREAD_TERMINATED_EXTENSION(thread_ptr)  {                                              
 440:../Middlewares/threadx/ports/cortex_m55/gnu/inc/tx_port.h ****                                                     ULONG  _tx_system_state;                       
 441:../Middlewares/threadx/ports/cortex_m55/gnu/inc/tx_port.h ****                                                         _tx_system_state = TX_THREAD_GET_SYSTEM_STA
 442:../Middlewares/threadx/ports/cortex_m55/gnu/inc/tx_port.h ****                                                         if ((_tx_system_state == ((ULONG) 0)) && ((
 443:../Middlewares/threadx/ports/cortex_m55/gnu/inc/tx_port.h ****                                                         {                                          
 444:../Middlewares/threadx/ports/cortex_m55/gnu/inc/tx_port.h ****                                                         ULONG  _tx_vfp_state;                      
 445:../Middlewares/threadx/ports/cortex_m55/gnu/inc/tx_port.h ****                                                             _tx_vfp_state = _tx_misra_control_get()
 446:../Middlewares/threadx/ports/cortex_m55/gnu/inc/tx_port.h ****                                                             _tx_vfp_state = _tx_vfp_state & ~((ULON
 447:../Middlewares/threadx/ports/cortex_m55/gnu/inc/tx_port.h ****                                                             _tx_misra_control_set(_tx_vfp_state);  
 448:../Middlewares/threadx/ports/cortex_m55/gnu/inc/tx_port.h ****                                                         }                                          
 449:../Middlewares/threadx/ports/cortex_m55/gnu/inc/tx_port.h ****                                                         else                                       
 450:../Middlewares/threadx/ports/cortex_m55/gnu/inc/tx_port.h ****                                                         {                                          
 451:../Middlewares/threadx/ports/cortex_m55/gnu/inc/tx_port.h ****                                                         ULONG  _tx_fpccr;                          
 452:../Middlewares/threadx/ports/cortex_m55/gnu/inc/tx_port.h ****                                                             _tx_fpccr = _tx_misra_fpccr_get();     
 453:../Middlewares/threadx/ports/cortex_m55/gnu/inc/tx_port.h ****                                                             _tx_fpccr = _tx_fpccr & ((ULONG) 0x01);
 454:../Middlewares/threadx/ports/cortex_m55/gnu/inc/tx_port.h ****                                                             if (_tx_fpccr == ((ULONG) 0x01))       
 455:../Middlewares/threadx/ports/cortex_m55/gnu/inc/tx_port.h ****                                                             {                                      
 456:../Middlewares/threadx/ports/cortex_m55/gnu/inc/tx_port.h ****                                                             ULONG _tx_vfp_state;                   
 457:../Middlewares/threadx/ports/cortex_m55/gnu/inc/tx_port.h ****                                                                 _tx_vfp_state = _tx_misra_control_g
 458:../Middlewares/threadx/ports/cortex_m55/gnu/inc/tx_port.h ****                                                                 _tx_vfp_state = _tx_vfp_state & ((U
 459:../Middlewares/threadx/ports/cortex_m55/gnu/inc/tx_port.h ****                                                                 _tx_misra_vfp_touch();             
 460:../Middlewares/threadx/ports/cortex_m55/gnu/inc/tx_port.h ****                                                                 if (_tx_vfp_state == ((ULONG) 0))  
 461:../Middlewares/threadx/ports/cortex_m55/gnu/inc/tx_port.h ****                                                                 {                                  
 462:../Middlewares/threadx/ports/cortex_m55/gnu/inc/tx_port.h ****                                                                     _tx_vfp_state = _tx_misra_contr
 463:../Middlewares/threadx/ports/cortex_m55/gnu/inc/tx_port.h ****                                                                     _tx_vfp_state = _tx_vfp_state &
 464:../Middlewares/threadx/ports/cortex_m55/gnu/inc/tx_port.h ****                                                                     _tx_misra_control_set(_tx_vfp_s
 465:../Middlewares/threadx/ports/cortex_m55/gnu/inc/tx_port.h ****                                                                 }                                  
 466:../Middlewares/threadx/ports/cortex_m55/gnu/inc/tx_port.h ****                                                             }                                      
ARM GAS  /tmp/ccSHAuWX.s 			page 12


 467:../Middlewares/threadx/ports/cortex_m55/gnu/inc/tx_port.h ****                                                         }                                          
 468:../Middlewares/threadx/ports/cortex_m55/gnu/inc/tx_port.h ****                                                     }
 469:../Middlewares/threadx/ports/cortex_m55/gnu/inc/tx_port.h **** #endif
 470:../Middlewares/threadx/ports/cortex_m55/gnu/inc/tx_port.h **** 
 471:../Middlewares/threadx/ports/cortex_m55/gnu/inc/tx_port.h **** #else   /* No VFP in use */
 472:../Middlewares/threadx/ports/cortex_m55/gnu/inc/tx_port.h **** 
 473:../Middlewares/threadx/ports/cortex_m55/gnu/inc/tx_port.h **** #define TX_THREAD_COMPLETED_EXTENSION(thread_ptr)
 474:../Middlewares/threadx/ports/cortex_m55/gnu/inc/tx_port.h **** #define TX_THREAD_TERMINATED_EXTENSION(thread_ptr)
 475:../Middlewares/threadx/ports/cortex_m55/gnu/inc/tx_port.h **** 
 476:../Middlewares/threadx/ports/cortex_m55/gnu/inc/tx_port.h **** #endif  /* defined(__ARMVFP__) || defined(__ARM_PCS_VFP) || defined(__ARM_FP) || defined(__TARGET_F
 477:../Middlewares/threadx/ports/cortex_m55/gnu/inc/tx_port.h **** 
 478:../Middlewares/threadx/ports/cortex_m55/gnu/inc/tx_port.h **** 
 479:../Middlewares/threadx/ports/cortex_m55/gnu/inc/tx_port.h **** /* Define the ThreadX object creation extensions for the remaining objects.  */
 480:../Middlewares/threadx/ports/cortex_m55/gnu/inc/tx_port.h **** 
 481:../Middlewares/threadx/ports/cortex_m55/gnu/inc/tx_port.h **** #define TX_BLOCK_POOL_CREATE_EXTENSION(pool_ptr)
 482:../Middlewares/threadx/ports/cortex_m55/gnu/inc/tx_port.h **** #define TX_BYTE_POOL_CREATE_EXTENSION(pool_ptr)
 483:../Middlewares/threadx/ports/cortex_m55/gnu/inc/tx_port.h **** #define TX_EVENT_FLAGS_GROUP_CREATE_EXTENSION(group_ptr)
 484:../Middlewares/threadx/ports/cortex_m55/gnu/inc/tx_port.h **** #define TX_MUTEX_CREATE_EXTENSION(mutex_ptr)
 485:../Middlewares/threadx/ports/cortex_m55/gnu/inc/tx_port.h **** #define TX_QUEUE_CREATE_EXTENSION(queue_ptr)
 486:../Middlewares/threadx/ports/cortex_m55/gnu/inc/tx_port.h **** #define TX_SEMAPHORE_CREATE_EXTENSION(semaphore_ptr)
 487:../Middlewares/threadx/ports/cortex_m55/gnu/inc/tx_port.h **** #define TX_TIMER_CREATE_EXTENSION(timer_ptr)
 488:../Middlewares/threadx/ports/cortex_m55/gnu/inc/tx_port.h **** 
 489:../Middlewares/threadx/ports/cortex_m55/gnu/inc/tx_port.h **** 
 490:../Middlewares/threadx/ports/cortex_m55/gnu/inc/tx_port.h **** /* Define the ThreadX object deletion extensions for the remaining objects.  */
 491:../Middlewares/threadx/ports/cortex_m55/gnu/inc/tx_port.h **** 
 492:../Middlewares/threadx/ports/cortex_m55/gnu/inc/tx_port.h **** #define TX_BLOCK_POOL_DELETE_EXTENSION(pool_ptr)
 493:../Middlewares/threadx/ports/cortex_m55/gnu/inc/tx_port.h **** #define TX_BYTE_POOL_DELETE_EXTENSION(pool_ptr)
 494:../Middlewares/threadx/ports/cortex_m55/gnu/inc/tx_port.h **** #define TX_EVENT_FLAGS_GROUP_DELETE_EXTENSION(group_ptr)
 495:../Middlewares/threadx/ports/cortex_m55/gnu/inc/tx_port.h **** #define TX_MUTEX_DELETE_EXTENSION(mutex_ptr)
 496:../Middlewares/threadx/ports/cortex_m55/gnu/inc/tx_port.h **** #define TX_QUEUE_DELETE_EXTENSION(queue_ptr)
 497:../Middlewares/threadx/ports/cortex_m55/gnu/inc/tx_port.h **** #define TX_SEMAPHORE_DELETE_EXTENSION(semaphore_ptr)
 498:../Middlewares/threadx/ports/cortex_m55/gnu/inc/tx_port.h **** #define TX_TIMER_DELETE_EXTENSION(timer_ptr)
 499:../Middlewares/threadx/ports/cortex_m55/gnu/inc/tx_port.h **** 
 500:../Middlewares/threadx/ports/cortex_m55/gnu/inc/tx_port.h **** 
 501:../Middlewares/threadx/ports/cortex_m55/gnu/inc/tx_port.h **** /* Define the get system state macro.  */
 502:../Middlewares/threadx/ports/cortex_m55/gnu/inc/tx_port.h **** 
 503:../Middlewares/threadx/ports/cortex_m55/gnu/inc/tx_port.h **** #ifndef TX_THREAD_GET_SYSTEM_STATE
 504:../Middlewares/threadx/ports/cortex_m55/gnu/inc/tx_port.h **** #ifndef TX_MISRA_ENABLE
 505:../Middlewares/threadx/ports/cortex_m55/gnu/inc/tx_port.h **** 
 506:../Middlewares/threadx/ports/cortex_m55/gnu/inc/tx_port.h **** #if defined(__GNUC__) /* GCC and AC6 */
 507:../Middlewares/threadx/ports/cortex_m55/gnu/inc/tx_port.h **** __attribute__( ( always_inline ) ) static inline UINT _tx_ipsr_get(void)
 508:../Middlewares/threadx/ports/cortex_m55/gnu/inc/tx_port.h **** {
 509:../Middlewares/threadx/ports/cortex_m55/gnu/inc/tx_port.h **** UINT ipsr_value;
 510:../Middlewares/threadx/ports/cortex_m55/gnu/inc/tx_port.h ****     __asm__ volatile (" MRS  %0,IPSR ": "=r" (ipsr_value) );
 511:../Middlewares/threadx/ports/cortex_m55/gnu/inc/tx_port.h ****     return(ipsr_value);
 512:../Middlewares/threadx/ports/cortex_m55/gnu/inc/tx_port.h **** }
 513:../Middlewares/threadx/ports/cortex_m55/gnu/inc/tx_port.h **** #endif  /* GCC and AC6 IPSR_get function. */
 514:../Middlewares/threadx/ports/cortex_m55/gnu/inc/tx_port.h **** 
 515:../Middlewares/threadx/ports/cortex_m55/gnu/inc/tx_port.h **** #define TX_THREAD_GET_SYSTEM_STATE()        (_tx_thread_system_state | _tx_ipsr_get())
 516:../Middlewares/threadx/ports/cortex_m55/gnu/inc/tx_port.h **** 
 517:../Middlewares/threadx/ports/cortex_m55/gnu/inc/tx_port.h **** #else   /* TX_MISRA_ENABLE is defined, use MISRA function. */
 518:../Middlewares/threadx/ports/cortex_m55/gnu/inc/tx_port.h **** ULONG   _tx_misra_ipsr_get(VOID);
 519:../Middlewares/threadx/ports/cortex_m55/gnu/inc/tx_port.h **** #define TX_THREAD_GET_SYSTEM_STATE()        (_tx_thread_system_state | _tx_misra_ipsr_get())
 520:../Middlewares/threadx/ports/cortex_m55/gnu/inc/tx_port.h **** #endif  /* TX_MISRA_ENABLE */
 521:../Middlewares/threadx/ports/cortex_m55/gnu/inc/tx_port.h **** #endif  /* TX_THREAD_GET_SYSTEM_STATE */
 522:../Middlewares/threadx/ports/cortex_m55/gnu/inc/tx_port.h **** 
 523:../Middlewares/threadx/ports/cortex_m55/gnu/inc/tx_port.h **** 
ARM GAS  /tmp/ccSHAuWX.s 			page 13


 524:../Middlewares/threadx/ports/cortex_m55/gnu/inc/tx_port.h **** /* Define the check for whether or not to call the _tx_thread_system_return function.  A non-zero v
 525:../Middlewares/threadx/ports/cortex_m55/gnu/inc/tx_port.h ****    indicates that _tx_thread_system_return should not be called. This overrides the definition in t
 526:../Middlewares/threadx/ports/cortex_m55/gnu/inc/tx_port.h ****    for Cortex-M since so we don't waste time checking the _tx_thread_system_state variable that is 
 527:../Middlewares/threadx/ports/cortex_m55/gnu/inc/tx_port.h ****    zero after initialization for Cortex-M ports. */
 528:../Middlewares/threadx/ports/cortex_m55/gnu/inc/tx_port.h **** 
 529:../Middlewares/threadx/ports/cortex_m55/gnu/inc/tx_port.h **** #ifndef TX_THREAD_SYSTEM_RETURN_CHECK
 530:../Middlewares/threadx/ports/cortex_m55/gnu/inc/tx_port.h **** #define TX_THREAD_SYSTEM_RETURN_CHECK(c)    (c) = ((ULONG) _tx_thread_preempt_disable);
 531:../Middlewares/threadx/ports/cortex_m55/gnu/inc/tx_port.h **** #endif
 532:../Middlewares/threadx/ports/cortex_m55/gnu/inc/tx_port.h **** 
 533:../Middlewares/threadx/ports/cortex_m55/gnu/inc/tx_port.h **** #if !defined(TX_SINGLE_MODE_SECURE) && !defined(TX_SINGLE_MODE_NON_SECURE)
 534:../Middlewares/threadx/ports/cortex_m55/gnu/inc/tx_port.h **** /* Initialize secure stacks for threads calling secure functions. */
 535:../Middlewares/threadx/ports/cortex_m55/gnu/inc/tx_port.h **** extern void    _tx_thread_secure_stack_initialize(void);
 536:../Middlewares/threadx/ports/cortex_m55/gnu/inc/tx_port.h **** #define TX_PORT_SPECIFIC_PRE_INITIALIZATION             _tx_thread_secure_stack_initialize();
 537:../Middlewares/threadx/ports/cortex_m55/gnu/inc/tx_port.h **** #endif
 538:../Middlewares/threadx/ports/cortex_m55/gnu/inc/tx_port.h **** 
 539:../Middlewares/threadx/ports/cortex_m55/gnu/inc/tx_port.h **** /* Define the macro to ensure _tx_thread_preempt_disable is set early in initialization in order to
 540:../Middlewares/threadx/ports/cortex_m55/gnu/inc/tx_port.h ****    prevent early scheduling on Cortex-M parts.  */
 541:../Middlewares/threadx/ports/cortex_m55/gnu/inc/tx_port.h **** 
 542:../Middlewares/threadx/ports/cortex_m55/gnu/inc/tx_port.h **** #define TX_PORT_SPECIFIC_POST_INITIALIZATION    _tx_thread_preempt_disable++;
 543:../Middlewares/threadx/ports/cortex_m55/gnu/inc/tx_port.h **** 
 544:../Middlewares/threadx/ports/cortex_m55/gnu/inc/tx_port.h **** 
 545:../Middlewares/threadx/ports/cortex_m55/gnu/inc/tx_port.h **** 
 546:../Middlewares/threadx/ports/cortex_m55/gnu/inc/tx_port.h **** 
 547:../Middlewares/threadx/ports/cortex_m55/gnu/inc/tx_port.h **** #ifndef TX_DISABLE_INLINE
 548:../Middlewares/threadx/ports/cortex_m55/gnu/inc/tx_port.h **** 
 549:../Middlewares/threadx/ports/cortex_m55/gnu/inc/tx_port.h **** /* Define the TX_LOWEST_SET_BIT_CALCULATE macro for each compiler. */
 550:../Middlewares/threadx/ports/cortex_m55/gnu/inc/tx_port.h **** #ifdef __ICCARM__       /* IAR Compiler */
 551:../Middlewares/threadx/ports/cortex_m55/gnu/inc/tx_port.h **** #define TX_LOWEST_SET_BIT_CALCULATE(m, b)       (b) = (UINT) __CLZ(__RBIT((m)));
 552:../Middlewares/threadx/ports/cortex_m55/gnu/inc/tx_port.h **** #elif defined(__GNUC__) /* GCC and AC6 Compiler */
 553:../Middlewares/threadx/ports/cortex_m55/gnu/inc/tx_port.h **** #define TX_LOWEST_SET_BIT_CALCULATE(m, b)       __asm__ volatile (" RBIT %0,%1 ": "=r" (m) : "r" (m
 554:../Middlewares/threadx/ports/cortex_m55/gnu/inc/tx_port.h ****                                                 __asm__ volatile (" CLZ  %0,%1 ": "=r" (b) : "r" (m
 555:../Middlewares/threadx/ports/cortex_m55/gnu/inc/tx_port.h **** #else
 556:../Middlewares/threadx/ports/cortex_m55/gnu/inc/tx_port.h **** #error "Compiler not supported."
 557:../Middlewares/threadx/ports/cortex_m55/gnu/inc/tx_port.h **** #endif
 558:../Middlewares/threadx/ports/cortex_m55/gnu/inc/tx_port.h **** 
 559:../Middlewares/threadx/ports/cortex_m55/gnu/inc/tx_port.h **** 
 560:../Middlewares/threadx/ports/cortex_m55/gnu/inc/tx_port.h **** 
 561:../Middlewares/threadx/ports/cortex_m55/gnu/inc/tx_port.h **** /* Define the interrupt disable/restore macros. */
 562:../Middlewares/threadx/ports/cortex_m55/gnu/inc/tx_port.h **** 
 563:../Middlewares/threadx/ports/cortex_m55/gnu/inc/tx_port.h **** __attribute__( ( always_inline ) ) static inline UINT __get_interrupt_posture(void)
 564:../Middlewares/threadx/ports/cortex_m55/gnu/inc/tx_port.h **** {
 565:../Middlewares/threadx/ports/cortex_m55/gnu/inc/tx_port.h **** UINT posture;
 566:../Middlewares/threadx/ports/cortex_m55/gnu/inc/tx_port.h **** #ifdef TX_PORT_USE_BASEPRI
 567:../Middlewares/threadx/ports/cortex_m55/gnu/inc/tx_port.h ****     __asm__ volatile ("MRS  %0, BASEPRI ": "=r" (posture));
 568:../Middlewares/threadx/ports/cortex_m55/gnu/inc/tx_port.h **** #else
 569:../Middlewares/threadx/ports/cortex_m55/gnu/inc/tx_port.h ****     __asm__ volatile ("MRS  %0, PRIMASK ": "=r" (posture));
 570:../Middlewares/threadx/ports/cortex_m55/gnu/inc/tx_port.h **** #endif
 571:../Middlewares/threadx/ports/cortex_m55/gnu/inc/tx_port.h ****     return(posture);
 572:../Middlewares/threadx/ports/cortex_m55/gnu/inc/tx_port.h **** }
 573:../Middlewares/threadx/ports/cortex_m55/gnu/inc/tx_port.h **** 
 574:../Middlewares/threadx/ports/cortex_m55/gnu/inc/tx_port.h **** #ifdef TX_PORT_USE_BASEPRI
 575:../Middlewares/threadx/ports/cortex_m55/gnu/inc/tx_port.h **** __attribute__( ( always_inline ) ) static inline void __set_basepri_value(UINT basepri_value)
 576:../Middlewares/threadx/ports/cortex_m55/gnu/inc/tx_port.h **** {
 577:../Middlewares/threadx/ports/cortex_m55/gnu/inc/tx_port.h ****     __asm__ volatile ("MSR  BASEPRI,%0 ": : "r" (basepri_value));
 578:../Middlewares/threadx/ports/cortex_m55/gnu/inc/tx_port.h **** }
 579:../Middlewares/threadx/ports/cortex_m55/gnu/inc/tx_port.h **** #else
 580:../Middlewares/threadx/ports/cortex_m55/gnu/inc/tx_port.h **** __attribute__( ( always_inline ) ) static inline void __enable_interrupts(void)
ARM GAS  /tmp/ccSHAuWX.s 			page 14


 581:../Middlewares/threadx/ports/cortex_m55/gnu/inc/tx_port.h **** {
 582:../Middlewares/threadx/ports/cortex_m55/gnu/inc/tx_port.h ****     __asm__ volatile ("CPSIE  i": : : "memory");
 583:../Middlewares/threadx/ports/cortex_m55/gnu/inc/tx_port.h **** }
 584:../Middlewares/threadx/ports/cortex_m55/gnu/inc/tx_port.h **** #endif
 585:../Middlewares/threadx/ports/cortex_m55/gnu/inc/tx_port.h **** 
 586:../Middlewares/threadx/ports/cortex_m55/gnu/inc/tx_port.h **** __attribute__( ( always_inline ) ) static inline void __restore_interrupt(UINT int_posture)
 587:../Middlewares/threadx/ports/cortex_m55/gnu/inc/tx_port.h **** {
 588:../Middlewares/threadx/ports/cortex_m55/gnu/inc/tx_port.h **** #ifdef TX_PORT_USE_BASEPRI
 589:../Middlewares/threadx/ports/cortex_m55/gnu/inc/tx_port.h ****     __set_basepri_value(int_posture);
 590:../Middlewares/threadx/ports/cortex_m55/gnu/inc/tx_port.h **** #else
 591:../Middlewares/threadx/ports/cortex_m55/gnu/inc/tx_port.h ****     __asm__ volatile ("MSR  PRIMASK,%0": : "r" (int_posture): "memory");
 592:../Middlewares/threadx/ports/cortex_m55/gnu/inc/tx_port.h **** #endif
 593:../Middlewares/threadx/ports/cortex_m55/gnu/inc/tx_port.h **** }
 594:../Middlewares/threadx/ports/cortex_m55/gnu/inc/tx_port.h **** 
 595:../Middlewares/threadx/ports/cortex_m55/gnu/inc/tx_port.h **** __attribute__( ( always_inline ) ) static inline UINT __disable_interrupts(void)
  63              		.loc 2 595 55 view .LVU11
  64              	.LBB55:
 596:../Middlewares/threadx/ports/cortex_m55/gnu/inc/tx_port.h **** {
 597:../Middlewares/threadx/ports/cortex_m55/gnu/inc/tx_port.h **** UINT int_posture;
  65              		.loc 2 597 1 view .LVU12
 598:../Middlewares/threadx/ports/cortex_m55/gnu/inc/tx_port.h **** 
 599:../Middlewares/threadx/ports/cortex_m55/gnu/inc/tx_port.h ****     int_posture = __get_interrupt_posture();
  66              		.loc 2 599 5 view .LVU13
  67              	.LBB56:
  68              	.LBI56:
 563:../Middlewares/threadx/ports/cortex_m55/gnu/inc/tx_port.h **** {
  69              		.loc 2 563 55 view .LVU14
  70              	.LBB57:
 565:../Middlewares/threadx/ports/cortex_m55/gnu/inc/tx_port.h **** #ifdef TX_PORT_USE_BASEPRI
  71              		.loc 2 565 1 view .LVU15
 569:../Middlewares/threadx/ports/cortex_m55/gnu/inc/tx_port.h **** #endif
  72              		.loc 2 569 5 view .LVU16
  73              		.syntax unified
  74              	@ 569 "../Middlewares/threadx/ports/cortex_m55/gnu/inc/tx_port.h" 1
  75 000a EFF31082 		MRS  r2, PRIMASK 
  76              	@ 0 "" 2
  77              	.LVL0:
 571:../Middlewares/threadx/ports/cortex_m55/gnu/inc/tx_port.h **** }
  78              		.loc 2 571 5 view .LVU17
 571:../Middlewares/threadx/ports/cortex_m55/gnu/inc/tx_port.h **** }
  79              		.loc 2 571 5 is_stmt 0 view .LVU18
  80              		.thumb
  81              		.syntax unified
  82              	.LBE57:
  83              	.LBE56:
 600:../Middlewares/threadx/ports/cortex_m55/gnu/inc/tx_port.h **** 
 601:../Middlewares/threadx/ports/cortex_m55/gnu/inc/tx_port.h **** #ifdef TX_PORT_USE_BASEPRI
 602:../Middlewares/threadx/ports/cortex_m55/gnu/inc/tx_port.h ****     __set_basepri_value(TX_PORT_BASEPRI);
 603:../Middlewares/threadx/ports/cortex_m55/gnu/inc/tx_port.h **** #else
 604:../Middlewares/threadx/ports/cortex_m55/gnu/inc/tx_port.h ****     __asm__ volatile ("CPSID i" : : : "memory");
  84              		.loc 2 604 5 is_stmt 1 view .LVU19
  85              		.syntax unified
  86              	@ 604 "../Middlewares/threadx/ports/cortex_m55/gnu/inc/tx_port.h" 1
  87 000e 72B6     		CPSID i
  88              	@ 0 "" 2
 605:../Middlewares/threadx/ports/cortex_m55/gnu/inc/tx_port.h **** #endif
 606:../Middlewares/threadx/ports/cortex_m55/gnu/inc/tx_port.h ****     return(int_posture);
ARM GAS  /tmp/ccSHAuWX.s 			page 15


  89              		.loc 2 606 5 view .LVU20
  90              	.LVL1:
  91              		.loc 2 606 5 is_stmt 0 view .LVU21
  92              		.thumb
  93              		.syntax unified
  94              	.LBE55:
  95              	.LBE54:
  96              		.loc 1 99 5 is_stmt 1 discriminator 1 view .LVU22
  97 0010 019B     		ldr	r3, [sp, #4]
  98 0012 8BB3     		cbz	r3, .L2
  99 0014 1868     		ldr	r0, [r3]
 100 0016 6F49     		ldr	r1, .L39+4
 101 0018 8842     		cmp	r0, r1
 102 001a 2DD1     		bne	.L2
 103              		.loc 1 99 5 discriminator 3 view .LVU23
 104 001c 9968     		ldr	r1, [r3, #8]
 105 001e D3F8A800 		ldr	r0, [r3, #168]
 106 0022 8142     		cmp	r1, r0
 107              		.loc 1 99 5 discriminator 5 view .LVU24
 108 0024 38BF     		it	cc
 109 0026 C3F8A810 		strcc	r1, [r3, #168]
 110              		.loc 1 99 5 discriminator 7 view .LVU25
 111 002a D968     		ldr	r1, [r3, #12]
 112 002c 0868     		ldr	r0, [r1]
 113 002e B0F1EF3F 		cmp	r0, #-269488145
 114 0032 09D1     		bne	.L4
 115              		.loc 1 99 5 is_stmt 0 discriminator 9 view .LVU26
 116 0034 1869     		ldr	r0, [r3, #16]
 117 0036 D0F80100 		ldr	r0, [r0, #1]
 118 003a B0F1EF3F 		cmp	r0, #-269488145
 119 003e 03D1     		bne	.L4
 120              		.loc 1 99 5 discriminator 11 view .LVU27
 121 0040 D3F8A830 		ldr	r3, [r3, #168]
 122 0044 9942     		cmp	r1, r3
 123 0046 07D9     		bls	.L5
 124              	.L4:
 125              		.loc 1 99 5 is_stmt 1 discriminator 12 view .LVU28
 126              	.LVL2:
 127              	.LBB58:
 128              	.LBI58:
 586:../Middlewares/threadx/ports/cortex_m55/gnu/inc/tx_port.h **** {
 129              		.loc 2 586 55 view .LVU29
 130              	.LBB59:
 591:../Middlewares/threadx/ports/cortex_m55/gnu/inc/tx_port.h **** #endif
 131              		.loc 2 591 5 view .LVU30
 132              		.syntax unified
 133              	@ 591 "../Middlewares/threadx/ports/cortex_m55/gnu/inc/tx_port.h" 1
 134 0048 82F31088 		MSR  PRIMASK,r2
 135              	@ 0 "" 2
 136              	.LVL3:
 591:../Middlewares/threadx/ports/cortex_m55/gnu/inc/tx_port.h **** #endif
 137              		.loc 2 591 5 is_stmt 0 view .LVU31
 138              		.thumb
 139              		.syntax unified
 140              	.LBE59:
 141              	.LBE58:
 142              		.loc 1 99 5 is_stmt 1 discriminator 1 view .LVU32
ARM GAS  /tmp/ccSHAuWX.s 			page 16


 143 004c 0198     		ldr	r0, [sp, #4]
 144 004e FFF7FEFF 		bl	_tx_thread_stack_error_handler
 145              	.LVL4:
 146              		.loc 1 99 5 discriminator 2 view .LVU33
 147              	.LBB60:
 148              	.LBI60:
 595:../Middlewares/threadx/ports/cortex_m55/gnu/inc/tx_port.h **** {
 149              		.loc 2 595 55 view .LVU34
 150              	.LBB61:
 597:../Middlewares/threadx/ports/cortex_m55/gnu/inc/tx_port.h **** 
 151              		.loc 2 597 1 view .LVU35
 599:../Middlewares/threadx/ports/cortex_m55/gnu/inc/tx_port.h **** 
 152              		.loc 2 599 5 view .LVU36
 153              	.LBB62:
 154              	.LBI62:
 563:../Middlewares/threadx/ports/cortex_m55/gnu/inc/tx_port.h **** {
 155              		.loc 2 563 55 view .LVU37
 156              	.LBB63:
 565:../Middlewares/threadx/ports/cortex_m55/gnu/inc/tx_port.h **** #ifdef TX_PORT_USE_BASEPRI
 157              		.loc 2 565 1 view .LVU38
 569:../Middlewares/threadx/ports/cortex_m55/gnu/inc/tx_port.h **** #endif
 158              		.loc 2 569 5 view .LVU39
 159              		.syntax unified
 160              	@ 569 "../Middlewares/threadx/ports/cortex_m55/gnu/inc/tx_port.h" 1
 161 0052 EFF31082 		MRS  r2, PRIMASK 
 162              	@ 0 "" 2
 163              	.LVL5:
 571:../Middlewares/threadx/ports/cortex_m55/gnu/inc/tx_port.h **** }
 164              		.loc 2 571 5 view .LVU40
 571:../Middlewares/threadx/ports/cortex_m55/gnu/inc/tx_port.h **** }
 165              		.loc 2 571 5 is_stmt 0 view .LVU41
 166              		.thumb
 167              		.syntax unified
 168              	.LBE63:
 169              	.LBE62:
 604:../Middlewares/threadx/ports/cortex_m55/gnu/inc/tx_port.h **** #endif
 170              		.loc 2 604 5 is_stmt 1 view .LVU42
 171              		.syntax unified
 172              	@ 604 "../Middlewares/threadx/ports/cortex_m55/gnu/inc/tx_port.h" 1
 173 0056 72B6     		CPSID i
 174              	@ 0 "" 2
 175              		.loc 2 606 5 view .LVU43
 176              	.LVL6:
 177              		.thumb
 178              		.syntax unified
 179              	.L5:
 180              		.loc 2 606 5 is_stmt 0 view .LVU44
 181              	.LBE61:
 182              	.LBE60:
 183              		.loc 1 99 5 is_stmt 1 discriminator 14 view .LVU45
 184 0058 019B     		ldr	r3, [sp, #4]
 185 005a D3F8A830 		ldr	r3, [r3, #168]
 186 005e 53F8043C 		ldr	r3, [r3, #-4]
 187 0062 B3F1EF3F 		cmp	r3, #-269488145
 188 0066 07D0     		beq	.L2
 189              		.loc 1 99 5 discriminator 15 view .LVU46
 190              	.LVL7:
ARM GAS  /tmp/ccSHAuWX.s 			page 17


 191              	.LBB64:
 192              	.LBI64:
 586:../Middlewares/threadx/ports/cortex_m55/gnu/inc/tx_port.h **** {
 193              		.loc 2 586 55 view .LVU47
 194              	.LBB65:
 591:../Middlewares/threadx/ports/cortex_m55/gnu/inc/tx_port.h **** #endif
 195              		.loc 2 591 5 view .LVU48
 196              		.syntax unified
 197              	@ 591 "../Middlewares/threadx/ports/cortex_m55/gnu/inc/tx_port.h" 1
 198 0068 82F31088 		MSR  PRIMASK,r2
 199              	@ 0 "" 2
 200              	.LVL8:
 591:../Middlewares/threadx/ports/cortex_m55/gnu/inc/tx_port.h **** #endif
 201              		.loc 2 591 5 is_stmt 0 view .LVU49
 202              		.thumb
 203              		.syntax unified
 204              	.LBE65:
 205              	.LBE64:
 206              		.loc 1 99 5 is_stmt 1 discriminator 1 view .LVU50
 207 006c 0198     		ldr	r0, [sp, #4]
 208 006e FFF7FEFF 		bl	_tx_thread_stack_analyze
 209              	.LVL9:
 210              		.loc 1 99 5 discriminator 2 view .LVU51
 211              	.LBB66:
 212              	.LBI66:
 595:../Middlewares/threadx/ports/cortex_m55/gnu/inc/tx_port.h **** {
 213              		.loc 2 595 55 view .LVU52
 214              	.LBB67:
 597:../Middlewares/threadx/ports/cortex_m55/gnu/inc/tx_port.h **** 
 215              		.loc 2 597 1 view .LVU53
 599:../Middlewares/threadx/ports/cortex_m55/gnu/inc/tx_port.h **** 
 216              		.loc 2 599 5 view .LVU54
 217              	.LBB68:
 218              	.LBI68:
 563:../Middlewares/threadx/ports/cortex_m55/gnu/inc/tx_port.h **** {
 219              		.loc 2 563 55 view .LVU55
 220              	.LBB69:
 565:../Middlewares/threadx/ports/cortex_m55/gnu/inc/tx_port.h **** #ifdef TX_PORT_USE_BASEPRI
 221              		.loc 2 565 1 view .LVU56
 569:../Middlewares/threadx/ports/cortex_m55/gnu/inc/tx_port.h **** #endif
 222              		.loc 2 569 5 view .LVU57
 223              		.syntax unified
 224              	@ 569 "../Middlewares/threadx/ports/cortex_m55/gnu/inc/tx_port.h" 1
 225 0072 EFF31082 		MRS  r2, PRIMASK 
 226              	@ 0 "" 2
 227              	.LVL10:
 571:../Middlewares/threadx/ports/cortex_m55/gnu/inc/tx_port.h **** }
 228              		.loc 2 571 5 view .LVU58
 571:../Middlewares/threadx/ports/cortex_m55/gnu/inc/tx_port.h **** }
 229              		.loc 2 571 5 is_stmt 0 view .LVU59
 230              		.thumb
 231              		.syntax unified
 232              	.LBE69:
 233              	.LBE68:
 604:../Middlewares/threadx/ports/cortex_m55/gnu/inc/tx_port.h **** #endif
 234              		.loc 2 604 5 is_stmt 1 view .LVU60
 235              		.syntax unified
ARM GAS  /tmp/ccSHAuWX.s 			page 18


 236              	@ 604 "../Middlewares/threadx/ports/cortex_m55/gnu/inc/tx_port.h" 1
 237 0076 72B6     		CPSID i
 238              	@ 0 "" 2
 239              		.loc 2 606 5 view .LVU61
 240              	.LVL11:
 241              		.thumb
 242              		.syntax unified
 243              	.L2:
 244              		.loc 2 606 5 is_stmt 0 view .LVU62
 245              	.LBE67:
 246              	.LBE66:
 247              		.loc 1 99 5 is_stmt 1 discriminator 17 view .LVU63
 248              	.LBB70:
 249              	.LBI70:
 586:../Middlewares/threadx/ports/cortex_m55/gnu/inc/tx_port.h **** {
 250              		.loc 2 586 55 view .LVU64
 251              	.LBB71:
 591:../Middlewares/threadx/ports/cortex_m55/gnu/inc/tx_port.h **** #endif
 252              		.loc 2 591 5 view .LVU65
 253              		.syntax unified
 254              	@ 591 "../Middlewares/threadx/ports/cortex_m55/gnu/inc/tx_port.h" 1
 255 0078 82F31088 		MSR  PRIMASK,r2
 256              	@ 0 "" 2
 257              	.LVL12:
 591:../Middlewares/threadx/ports/cortex_m55/gnu/inc/tx_port.h **** #endif
 258              		.loc 2 591 5 is_stmt 0 view .LVU66
 259              		.thumb
 260              		.syntax unified
 261              	.LBE71:
 262              	.LBE70:
 263              	.LBE53:
 100:../Middlewares/threadx/common/src/tx_thread_time_slice.c **** 
 101:../Middlewares/threadx/common/src/tx_thread_time_slice.c ****     /* Set the next thread pointer to NULL.  */
 102:../Middlewares/threadx/common/src/tx_thread_time_slice.c ****     next_thread_ptr =  TX_NULL;
 264              		.loc 1 102 5 is_stmt 1 view .LVU67
 103:../Middlewares/threadx/common/src/tx_thread_time_slice.c **** #endif
 104:../Middlewares/threadx/common/src/tx_thread_time_slice.c **** 
 105:../Middlewares/threadx/common/src/tx_thread_time_slice.c ****     /* Lockout interrupts while the time-slice is evaluated.  */
 106:../Middlewares/threadx/common/src/tx_thread_time_slice.c ****     TX_DISABLE
 265              		.loc 1 106 5 view .LVU68
 266              	.LBB72:
 267              	.LBI72:
 595:../Middlewares/threadx/ports/cortex_m55/gnu/inc/tx_port.h **** {
 268              		.loc 2 595 55 view .LVU69
 269              	.LBB73:
 597:../Middlewares/threadx/ports/cortex_m55/gnu/inc/tx_port.h **** 
 270              		.loc 2 597 1 view .LVU70
 599:../Middlewares/threadx/ports/cortex_m55/gnu/inc/tx_port.h **** 
 271              		.loc 2 599 5 view .LVU71
 272              	.LBB74:
 273              	.LBI74:
 563:../Middlewares/threadx/ports/cortex_m55/gnu/inc/tx_port.h **** {
 274              		.loc 2 563 55 view .LVU72
 275              	.LBB75:
 565:../Middlewares/threadx/ports/cortex_m55/gnu/inc/tx_port.h **** #ifdef TX_PORT_USE_BASEPRI
 276              		.loc 2 565 1 view .LVU73
 569:../Middlewares/threadx/ports/cortex_m55/gnu/inc/tx_port.h **** #endif
ARM GAS  /tmp/ccSHAuWX.s 			page 19


 277              		.loc 2 569 5 view .LVU74
 278              		.syntax unified
 279              	@ 569 "../Middlewares/threadx/ports/cortex_m55/gnu/inc/tx_port.h" 1
 280 007c EFF31086 		MRS  r6, PRIMASK 
 281              	@ 0 "" 2
 282              	.LVL13:
 571:../Middlewares/threadx/ports/cortex_m55/gnu/inc/tx_port.h **** }
 283              		.loc 2 571 5 view .LVU75
 571:../Middlewares/threadx/ports/cortex_m55/gnu/inc/tx_port.h **** }
 284              		.loc 2 571 5 is_stmt 0 view .LVU76
 285              		.thumb
 286              		.syntax unified
 287              	.LBE75:
 288              	.LBE74:
 604:../Middlewares/threadx/ports/cortex_m55/gnu/inc/tx_port.h **** #endif
 289              		.loc 2 604 5 is_stmt 1 view .LVU77
 290              		.syntax unified
 291              	@ 604 "../Middlewares/threadx/ports/cortex_m55/gnu/inc/tx_port.h" 1
 292 0080 72B6     		CPSID i
 293              	@ 0 "" 2
 294              		.loc 2 606 5 view .LVU78
 295              	.LVL14:
 296              		.loc 2 606 5 is_stmt 0 view .LVU79
 297              		.thumb
 298              		.syntax unified
 299              	.LBE73:
 300              	.LBE72:
 107:../Middlewares/threadx/common/src/tx_thread_time_slice.c **** 
 108:../Middlewares/threadx/common/src/tx_thread_time_slice.c ****     /* Clear the expired time-slice flag.  */
 109:../Middlewares/threadx/common/src/tx_thread_time_slice.c ****     _tx_timer_expired_time_slice =  TX_FALSE;
 301              		.loc 1 109 5 is_stmt 1 view .LVU80
 302              		.loc 1 109 34 is_stmt 0 view .LVU81
 303 0082 0022     		movs	r2, #0
 304              	.LVL15:
 305              		.loc 1 109 34 view .LVU82
 306 0084 544B     		ldr	r3, .L39+8
 307 0086 1A60     		str	r2, [r3]
 110:../Middlewares/threadx/common/src/tx_thread_time_slice.c **** 
 111:../Middlewares/threadx/common/src/tx_thread_time_slice.c ****     /* Make sure the thread pointer is valid.  */
 112:../Middlewares/threadx/common/src/tx_thread_time_slice.c ****     if (thread_ptr != TX_NULL)
 308              		.loc 1 112 5 is_stmt 1 view .LVU83
 309              		.loc 1 112 20 is_stmt 0 view .LVU84
 310 0088 019B     		ldr	r3, [sp, #4]
 311              		.loc 1 112 8 view .LVU85
 312 008a 002B     		cmp	r3, #0
 313 008c 79D1     		bne	.L6
 314              	.L8:
 102:../Middlewares/threadx/common/src/tx_thread_time_slice.c **** #endif
 315              		.loc 1 102 21 view .LVU86
 316 008e 0024     		movs	r4, #0
 317              	.L7:
 318              	.LVL16:
 113:../Middlewares/threadx/common/src/tx_thread_time_slice.c ****     {
 114:../Middlewares/threadx/common/src/tx_thread_time_slice.c **** 
 115:../Middlewares/threadx/common/src/tx_thread_time_slice.c ****         /* Make sure the thread is still active, i.e. not suspended.  */
 116:../Middlewares/threadx/common/src/tx_thread_time_slice.c ****         if (thread_ptr -> tx_thread_state == TX_READY)
 117:../Middlewares/threadx/common/src/tx_thread_time_slice.c ****         {
ARM GAS  /tmp/ccSHAuWX.s 			page 20


 118:../Middlewares/threadx/common/src/tx_thread_time_slice.c **** 
 119:../Middlewares/threadx/common/src/tx_thread_time_slice.c ****             /* Setup a fresh time-slice for the thread.  */
 120:../Middlewares/threadx/common/src/tx_thread_time_slice.c ****             thread_ptr -> tx_thread_time_slice =  thread_ptr -> tx_thread_new_time_slice;
 121:../Middlewares/threadx/common/src/tx_thread_time_slice.c **** 
 122:../Middlewares/threadx/common/src/tx_thread_time_slice.c ****             /* Reset the actual time-slice variable.  */
 123:../Middlewares/threadx/common/src/tx_thread_time_slice.c ****             _tx_timer_time_slice =  thread_ptr -> tx_thread_time_slice;
 124:../Middlewares/threadx/common/src/tx_thread_time_slice.c **** 
 125:../Middlewares/threadx/common/src/tx_thread_time_slice.c ****             /* Determine if there is another thread at the same priority and preemption-threshold
 126:../Middlewares/threadx/common/src/tx_thread_time_slice.c ****                is not set.  Preemption-threshold overrides time-slicing.  */
 127:../Middlewares/threadx/common/src/tx_thread_time_slice.c ****             if (thread_ptr -> tx_thread_ready_next != thread_ptr)
 128:../Middlewares/threadx/common/src/tx_thread_time_slice.c ****             {
 129:../Middlewares/threadx/common/src/tx_thread_time_slice.c **** 
 130:../Middlewares/threadx/common/src/tx_thread_time_slice.c ****                 /* Check to see if preemption-threshold is not being used.  */
 131:../Middlewares/threadx/common/src/tx_thread_time_slice.c ****                 if (thread_ptr -> tx_thread_priority == thread_ptr -> tx_thread_preempt_threshold)
 132:../Middlewares/threadx/common/src/tx_thread_time_slice.c ****                 {
 133:../Middlewares/threadx/common/src/tx_thread_time_slice.c **** 
 134:../Middlewares/threadx/common/src/tx_thread_time_slice.c ****                     /* Preemption-threshold is not being used by this thread.  */
 135:../Middlewares/threadx/common/src/tx_thread_time_slice.c **** 
 136:../Middlewares/threadx/common/src/tx_thread_time_slice.c ****                     /* There is another thread at this priority, make it the highest at
 137:../Middlewares/threadx/common/src/tx_thread_time_slice.c ****                        this priority level.  */
 138:../Middlewares/threadx/common/src/tx_thread_time_slice.c ****                     _tx_thread_priority_list[thread_ptr -> tx_thread_priority] =  thread_ptr -> tx_
 139:../Middlewares/threadx/common/src/tx_thread_time_slice.c **** 
 140:../Middlewares/threadx/common/src/tx_thread_time_slice.c ****                     /* Designate the highest priority thread as the one to execute.  Don't use this
 141:../Middlewares/threadx/common/src/tx_thread_time_slice.c ****                        thread's priority as an index just in case a higher priority thread is now
 142:../Middlewares/threadx/common/src/tx_thread_time_slice.c ****                        ready!  */
 143:../Middlewares/threadx/common/src/tx_thread_time_slice.c ****                     _tx_thread_execute_ptr =  _tx_thread_priority_list[_tx_thread_highest_priority]
 144:../Middlewares/threadx/common/src/tx_thread_time_slice.c **** 
 145:../Middlewares/threadx/common/src/tx_thread_time_slice.c **** #ifdef TX_THREAD_ENABLE_PERFORMANCE_INFO
 146:../Middlewares/threadx/common/src/tx_thread_time_slice.c **** 
 147:../Middlewares/threadx/common/src/tx_thread_time_slice.c ****                     /* Increment the thread's time-slice counter.  */
 148:../Middlewares/threadx/common/src/tx_thread_time_slice.c ****                     thread_ptr -> tx_thread_performance_time_slice_count++;
 149:../Middlewares/threadx/common/src/tx_thread_time_slice.c **** 
 150:../Middlewares/threadx/common/src/tx_thread_time_slice.c ****                     /* Increment the total number of thread time-slice operations.  */
 151:../Middlewares/threadx/common/src/tx_thread_time_slice.c ****                     _tx_thread_performance_time_slice_count++;
 152:../Middlewares/threadx/common/src/tx_thread_time_slice.c **** #endif
 153:../Middlewares/threadx/common/src/tx_thread_time_slice.c **** 
 154:../Middlewares/threadx/common/src/tx_thread_time_slice.c **** 
 155:../Middlewares/threadx/common/src/tx_thread_time_slice.c **** #ifdef TX_ENABLE_STACK_CHECKING
 156:../Middlewares/threadx/common/src/tx_thread_time_slice.c **** 
 157:../Middlewares/threadx/common/src/tx_thread_time_slice.c ****                     /* Pickup the next execute pointer.  */
 158:../Middlewares/threadx/common/src/tx_thread_time_slice.c ****                     next_thread_ptr =  _tx_thread_execute_ptr;
 159:../Middlewares/threadx/common/src/tx_thread_time_slice.c **** #endif
 160:../Middlewares/threadx/common/src/tx_thread_time_slice.c ****                 }
 161:../Middlewares/threadx/common/src/tx_thread_time_slice.c ****             }
 162:../Middlewares/threadx/common/src/tx_thread_time_slice.c ****         }
 163:../Middlewares/threadx/common/src/tx_thread_time_slice.c ****     }
 164:../Middlewares/threadx/common/src/tx_thread_time_slice.c **** 
 165:../Middlewares/threadx/common/src/tx_thread_time_slice.c **** #ifdef TX_ENABLE_EVENT_TRACE
 166:../Middlewares/threadx/common/src/tx_thread_time_slice.c **** 
 167:../Middlewares/threadx/common/src/tx_thread_time_slice.c ****     /* Pickup the volatile information.  */
 168:../Middlewares/threadx/common/src/tx_thread_time_slice.c ****     system_state =  TX_THREAD_GET_SYSTEM_STATE();
 319              		.loc 1 168 5 is_stmt 1 view .LVU87
 320              	.LBB76:
 321              	.LBI76:
 507:../Middlewares/threadx/ports/cortex_m55/gnu/inc/tx_port.h **** {
 322              		.loc 2 507 55 view .LVU88
 323              	.LBB77:
ARM GAS  /tmp/ccSHAuWX.s 			page 21


 509:../Middlewares/threadx/ports/cortex_m55/gnu/inc/tx_port.h ****     __asm__ volatile (" MRS  %0,IPSR ": "=r" (ipsr_value) );
 324              		.loc 2 509 1 view .LVU89
 510:../Middlewares/threadx/ports/cortex_m55/gnu/inc/tx_port.h ****     return(ipsr_value);
 325              		.loc 2 510 5 view .LVU90
 326              		.syntax unified
 327              	@ 510 "../Middlewares/threadx/ports/cortex_m55/gnu/inc/tx_port.h" 1
 328 0090 EFF3058E 		 MRS  lr,IPSR 
 329              	@ 0 "" 2
 330              	.LVL17:
 511:../Middlewares/threadx/ports/cortex_m55/gnu/inc/tx_port.h **** }
 331              		.loc 2 511 5 view .LVU91
 511:../Middlewares/threadx/ports/cortex_m55/gnu/inc/tx_port.h **** }
 332              		.loc 2 511 5 is_stmt 0 view .LVU92
 333              		.thumb
 334              		.syntax unified
 335              	.LBE77:
 336              	.LBE76:
 169:../Middlewares/threadx/common/src/tx_thread_time_slice.c ****     preempt_disable =  _tx_thread_preempt_disable;
 337              		.loc 1 169 21 view .LVU93
 338 0094 514B     		ldr	r3, .L39+12
 168:../Middlewares/threadx/common/src/tx_thread_time_slice.c ****     preempt_disable =  _tx_thread_preempt_disable;
 339              		.loc 1 168 21 discriminator 1 view .LVU94
 340 0096 524A     		ldr	r2, .L39+16
 341              	.LBB78:
 170:../Middlewares/threadx/common/src/tx_thread_time_slice.c **** 
 171:../Middlewares/threadx/common/src/tx_thread_time_slice.c ****     /* Insert this event into the trace buffer.  */
 172:../Middlewares/threadx/common/src/tx_thread_time_slice.c ****     TX_TRACE_IN_LINE_INSERT(TX_TRACE_TIME_SLICE, _tx_thread_execute_ptr, system_state, preempt_disa
 342              		.loc 1 172 5 view .LVU95
 343 0098 524D     		ldr	r5, .L39+20
 344              	.LBE78:
 168:../Middlewares/threadx/common/src/tx_thread_time_slice.c ****     preempt_disable =  _tx_thread_preempt_disable;
 345              		.loc 1 168 21 discriminator 1 view .LVU96
 346 009a 1068     		ldr	r0, [r2]
 347              	.LVL18:
 169:../Middlewares/threadx/common/src/tx_thread_time_slice.c **** 
 348              		.loc 1 169 5 is_stmt 1 view .LVU97
 169:../Middlewares/threadx/common/src/tx_thread_time_slice.c **** 
 349              		.loc 1 169 21 is_stmt 0 view .LVU98
 350 009c D3F800C0 		ldr	ip, [r3]
 351              	.LVL19:
 352              	.LBB81:
 353              		.loc 1 172 5 is_stmt 1 view .LVU99
 354              		.loc 1 172 5 view .LVU100
 355              		.loc 1 172 5 view .LVU101
 356              		.loc 1 172 5 view .LVU102
 357              		.loc 1 172 5 view .LVU103
 358 00a0 2B68     		ldr	r3, [r5]
 359              	.LVL20:
 360              		.loc 1 172 5 view .LVU104
 361 00a2 002B     		cmp	r3, #0
 362 00a4 31D0     		beq	.L10
 363              		.loc 1 172 5 is_stmt 0 discriminator 1 view .LVU105
 364 00a6 5049     		ldr	r1, .L39+24
 365 00a8 0968     		ldr	r1, [r1]
 366 00aa C907     		lsls	r1, r1, #31
 367 00ac 2DD5     		bpl	.L10
 368              		.loc 1 172 5 is_stmt 1 discriminator 2 view .LVU106
ARM GAS  /tmp/ccSHAuWX.s 			page 22


 369              	.LBB79:
 370              	.LBI79:
 507:../Middlewares/threadx/ports/cortex_m55/gnu/inc/tx_port.h **** {
 371              		.loc 2 507 55 view .LVU107
 372              	.LBB80:
 509:../Middlewares/threadx/ports/cortex_m55/gnu/inc/tx_port.h ****     __asm__ volatile (" MRS  %0,IPSR ": "=r" (ipsr_value) );
 373              		.loc 2 509 1 view .LVU108
 510:../Middlewares/threadx/ports/cortex_m55/gnu/inc/tx_port.h ****     return(ipsr_value);
 374              		.loc 2 510 5 view .LVU109
 375              		.syntax unified
 376              	@ 510 "../Middlewares/threadx/ports/cortex_m55/gnu/inc/tx_port.h" 1
 377 00ae EFF30588 		 MRS  r8,IPSR 
 378              	@ 0 "" 2
 379              	.LVL21:
 511:../Middlewares/threadx/ports/cortex_m55/gnu/inc/tx_port.h **** }
 380              		.loc 2 511 5 view .LVU110
 511:../Middlewares/threadx/ports/cortex_m55/gnu/inc/tx_port.h **** }
 381              		.loc 2 511 5 is_stmt 0 view .LVU111
 382              		.thumb
 383              		.syntax unified
 384              	.LBE80:
 385              	.LBE79:
 386              		.loc 1 172 5 discriminator 1 view .LVU112
 387 00b2 1268     		ldr	r2, [r2]
 388              	.LVL22:
 389              		.loc 1 172 5 is_stmt 1 discriminator 1 view .LVU113
 390 00b4 3968     		ldr	r1, [r7]
 391              	.LVL23:
 392              		.loc 1 172 5 discriminator 1 view .LVU114
 393 00b6 52EA0802 		orrs	r2, r2, r8
 394              	.LVL24:
 395              		.loc 1 172 5 is_stmt 0 discriminator 1 view .LVU115
 396 00ba 7CD1     		bne	.L12
 397              		.loc 1 172 5 is_stmt 1 discriminator 3 view .LVU116
 398              	.LVL25:
 399              		.loc 1 172 5 view .LVU117
 400              		.loc 1 172 5 is_stmt 0 discriminator 3 view .LVU118
 401 00bc CF6B     		ldr	r7, [r1, #60]
 402 00be CA6A     		ldr	r2, [r1, #44]
 403              	.LVL26:
 404              		.loc 1 172 5 discriminator 3 view .LVU119
 405 00c0 42EA0742 		orr	r2, r2, r7, lsl #16
 406 00c4 42F00042 		orr	r2, r2, #-2147483648
 407              	.LVL27:
 408              	.L13:
 409              		.loc 1 172 5 is_stmt 1 discriminator 9 view .LVU120
 410 00c8 C3E90012 		strd	r1, r2, [r3]
 411              		.loc 1 172 5 view .LVU121
 412              		.loc 1 172 5 is_stmt 0 discriminator 9 view .LVU122
 413 00cc 0522     		movs	r2, #5
 414              	.LVL28:
 415              		.loc 1 172 5 discriminator 9 view .LVU123
 416 00ce 9A60     		str	r2, [r3, #8]
 417              		.loc 1 172 5 is_stmt 1 view .LVU124
 418              		.loc 1 172 5 is_stmt 0 discriminator 9 view .LVU125
 419 00d0 464A     		ldr	r2, .L39+28
 420              	.LBE81:
ARM GAS  /tmp/ccSHAuWX.s 			page 23


 168:../Middlewares/threadx/common/src/tx_thread_time_slice.c ****     preempt_disable =  _tx_thread_preempt_disable;
 421              		.loc 1 168 18 discriminator 1 view .LVU126
 422 00d2 40EA0E00 		orr	r0, r0, lr
 423              	.LVL29:
 424              	.LBB82:
 425              		.loc 1 172 5 discriminator 9 view .LVU127
 426 00d6 5268     		ldr	r2, [r2, #4]
 427 00d8 C3E9050C 		strd	r0, ip, [r3, #20]
 428 00dc DA60     		str	r2, [r3, #12]
 429              		.loc 1 172 5 is_stmt 1 view .LVU128
 430              		.loc 1 172 5 is_stmt 0 discriminator 9 view .LVU129
 431 00de 444A     		ldr	r2, .L39+32
 432 00e0 2033     		adds	r3, r3, #32
 433              	.LVL30:
 434              		.loc 1 172 5 discriminator 9 view .LVU130
 435 00e2 1268     		ldr	r2, [r2]
 436 00e4 43F8102C 		str	r2, [r3, #-16]
 437              		.loc 1 172 5 is_stmt 1 view .LVU131
 438              		.loc 1 172 5 view .LVU132
 439              		.loc 1 172 5 is_stmt 0 discriminator 9 view .LVU133
 440 00e8 01AA     		add	r2, sp, #4
 441 00ea 43F8042C 		str	r2, [r3, #-4]
 442              		.loc 1 172 5 is_stmt 1 view .LVU134
 443              	.LVL31:
 444              		.loc 1 172 5 view .LVU135
 445              		.loc 1 172 5 is_stmt 0 discriminator 10 view .LVU136
 446 00ee 414A     		ldr	r2, .L39+36
 447 00f0 1068     		ldr	r0, [r2]
 448              		.loc 1 172 5 discriminator 9 view .LVU137
 449 00f2 414A     		ldr	r2, .L39+40
 450 00f4 1268     		ldr	r2, [r2]
 451 00f6 9A42     		cmp	r2, r3
 452 00f8 67D8     		bhi	.L14
 453              		.loc 1 172 5 is_stmt 1 discriminator 10 view .LVU138
 454 00fa 404B     		ldr	r3, .L39+44
 455              	.LVL32:
 456              		.loc 1 172 5 is_stmt 0 discriminator 10 view .LVU139
 457 00fc 1B68     		ldr	r3, [r3]
 458              	.LVL33:
 459              		.loc 1 172 5 is_stmt 1 view .LVU140
 460              		.loc 1 172 5 is_stmt 0 discriminator 10 view .LVU141
 461 00fe 2B60     		str	r3, [r5]
 462              	.LVL34:
 463              		.loc 1 172 5 is_stmt 1 view .LVU142
 464              		.loc 1 172 5 is_stmt 0 discriminator 10 view .LVU143
 465 0100 0362     		str	r3, [r0, #32]
 466              		.loc 1 172 5 is_stmt 1 view .LVU144
 467              		.loc 1 172 5 is_stmt 0 discriminator 10 view .LVU145
 468 0102 3F4B     		ldr	r3, .L39+48
 469              	.LVL35:
 470              		.loc 1 172 5 discriminator 10 view .LVU146
 471 0104 1B68     		ldr	r3, [r3]
 472 0106 03B1     		cbz	r3, .L10
 473              		.loc 1 172 5 is_stmt 1 discriminator 12 view .LVU147
 474 0108 9847     		blx	r3
 475              	.LVL36:
 476              	.L10:
ARM GAS  /tmp/ccSHAuWX.s 			page 24


 477              		.loc 1 172 5 is_stmt 0 discriminator 12 view .LVU148
 478              	.LBE82:
 173:../Middlewares/threadx/common/src/tx_thread_time_slice.c **** #endif
 174:../Middlewares/threadx/common/src/tx_thread_time_slice.c **** 
 175:../Middlewares/threadx/common/src/tx_thread_time_slice.c ****     /* Restore previous interrupt posture.  */
 176:../Middlewares/threadx/common/src/tx_thread_time_slice.c ****     TX_RESTORE
 479              		.loc 1 176 5 is_stmt 1 view .LVU149
 480              	.LBB83:
 481              	.LBI83:
 586:../Middlewares/threadx/ports/cortex_m55/gnu/inc/tx_port.h **** {
 482              		.loc 2 586 55 view .LVU150
 483              	.LBB84:
 591:../Middlewares/threadx/ports/cortex_m55/gnu/inc/tx_port.h **** #endif
 484              		.loc 2 591 5 view .LVU151
 485              		.syntax unified
 486              	@ 591 "../Middlewares/threadx/ports/cortex_m55/gnu/inc/tx_port.h" 1
 487 010a 86F31088 		MSR  PRIMASK,r6
 488              	@ 0 "" 2
 489              	.LVL37:
 591:../Middlewares/threadx/ports/cortex_m55/gnu/inc/tx_port.h **** #endif
 490              		.loc 2 591 5 is_stmt 0 view .LVU152
 491              		.thumb
 492              		.syntax unified
 493              	.LBE84:
 494              	.LBE83:
 177:../Middlewares/threadx/common/src/tx_thread_time_slice.c **** 
 178:../Middlewares/threadx/common/src/tx_thread_time_slice.c **** #ifdef TX_ENABLE_STACK_CHECKING
 179:../Middlewares/threadx/common/src/tx_thread_time_slice.c **** 
 180:../Middlewares/threadx/common/src/tx_thread_time_slice.c ****     /* Determine if there is a next thread pointer to perform stack checking on.  */
 181:../Middlewares/threadx/common/src/tx_thread_time_slice.c ****     if (next_thread_ptr != TX_NULL)
 495              		.loc 1 181 5 is_stmt 1 view .LVU153
 496              		.loc 1 181 8 is_stmt 0 view .LVU154
 497 010e ACB3     		cbz	r4, .L1
 498              	.LBB85:
 182:../Middlewares/threadx/common/src/tx_thread_time_slice.c ****     {
 183:../Middlewares/threadx/common/src/tx_thread_time_slice.c **** 
 184:../Middlewares/threadx/common/src/tx_thread_time_slice.c ****         /* Yes, check this thread's stack.  */
 185:../Middlewares/threadx/common/src/tx_thread_time_slice.c ****         TX_THREAD_STACK_CHECK(next_thread_ptr)
 499              		.loc 1 185 9 is_stmt 1 view .LVU155
 500              		.loc 1 185 9 view .LVU156
 501              	.LBB86:
 502              	.LBI86:
 595:../Middlewares/threadx/ports/cortex_m55/gnu/inc/tx_port.h **** {
 503              		.loc 2 595 55 view .LVU157
 504              	.LBB87:
 597:../Middlewares/threadx/ports/cortex_m55/gnu/inc/tx_port.h **** 
 505              		.loc 2 597 1 view .LVU158
 599:../Middlewares/threadx/ports/cortex_m55/gnu/inc/tx_port.h **** 
 506              		.loc 2 599 5 view .LVU159
 507              	.LBB88:
 508              	.LBI88:
 563:../Middlewares/threadx/ports/cortex_m55/gnu/inc/tx_port.h **** {
 509              		.loc 2 563 55 view .LVU160
 510              	.LBB89:
 565:../Middlewares/threadx/ports/cortex_m55/gnu/inc/tx_port.h **** #ifdef TX_PORT_USE_BASEPRI
 511              		.loc 2 565 1 view .LVU161
 569:../Middlewares/threadx/ports/cortex_m55/gnu/inc/tx_port.h **** #endif
ARM GAS  /tmp/ccSHAuWX.s 			page 25


 512              		.loc 2 569 5 view .LVU162
 513              		.syntax unified
 514              	@ 569 "../Middlewares/threadx/ports/cortex_m55/gnu/inc/tx_port.h" 1
 515 0110 EFF31083 		MRS  r3, PRIMASK 
 516              	@ 0 "" 2
 517              	.LVL38:
 571:../Middlewares/threadx/ports/cortex_m55/gnu/inc/tx_port.h **** }
 518              		.loc 2 571 5 view .LVU163
 571:../Middlewares/threadx/ports/cortex_m55/gnu/inc/tx_port.h **** }
 519              		.loc 2 571 5 is_stmt 0 view .LVU164
 520              		.thumb
 521              		.syntax unified
 522              	.LBE89:
 523              	.LBE88:
 604:../Middlewares/threadx/ports/cortex_m55/gnu/inc/tx_port.h **** #endif
 524              		.loc 2 604 5 is_stmt 1 view .LVU165
 525              		.syntax unified
 526              	@ 604 "../Middlewares/threadx/ports/cortex_m55/gnu/inc/tx_port.h" 1
 527 0114 72B6     		CPSID i
 528              	@ 0 "" 2
 529              		.loc 2 606 5 view .LVU166
 530              	.LVL39:
 531              		.loc 2 606 5 is_stmt 0 view .LVU167
 532              		.thumb
 533              		.syntax unified
 534              	.LBE87:
 535              	.LBE86:
 536              		.loc 1 185 9 is_stmt 1 discriminator 1 view .LVU168
 537 0116 2F4A     		ldr	r2, .L39+4
 538 0118 2168     		ldr	r1, [r4]
 539 011a 9142     		cmp	r1, r2
 540 011c 2CD1     		bne	.L16
 541              		.loc 1 185 9 discriminator 3 view .LVU169
 542 011e A268     		ldr	r2, [r4, #8]
 543 0120 D4F8A810 		ldr	r1, [r4, #168]
 544 0124 8A42     		cmp	r2, r1
 545              		.loc 1 185 9 discriminator 5 view .LVU170
 546 0126 38BF     		it	cc
 547 0128 C4F8A820 		strcc	r2, [r4, #168]
 548              		.loc 1 185 9 discriminator 7 view .LVU171
 549 012c E268     		ldr	r2, [r4, #12]
 550 012e 1168     		ldr	r1, [r2]
 551 0130 B1F1EF3F 		cmp	r1, #-269488145
 552 0134 09D1     		bne	.L18
 553              		.loc 1 185 9 is_stmt 0 discriminator 9 view .LVU172
 554 0136 2169     		ldr	r1, [r4, #16]
 555 0138 D1F80110 		ldr	r1, [r1, #1]
 556 013c B1F1EF3F 		cmp	r1, #-269488145
 557 0140 03D1     		bne	.L18
 558              		.loc 1 185 9 discriminator 11 view .LVU173
 559 0142 D4F8A810 		ldr	r1, [r4, #168]
 560 0146 8A42     		cmp	r2, r1
 561 0148 07D9     		bls	.L19
 562              	.L18:
 563              		.loc 1 185 9 is_stmt 1 discriminator 12 view .LVU174
 564              	.LVL40:
 565              	.LBB90:
ARM GAS  /tmp/ccSHAuWX.s 			page 26


 566              	.LBI90:
 586:../Middlewares/threadx/ports/cortex_m55/gnu/inc/tx_port.h **** {
 567              		.loc 2 586 55 view .LVU175
 568              	.LBB91:
 591:../Middlewares/threadx/ports/cortex_m55/gnu/inc/tx_port.h **** #endif
 569              		.loc 2 591 5 view .LVU176
 570              		.syntax unified
 571              	@ 591 "../Middlewares/threadx/ports/cortex_m55/gnu/inc/tx_port.h" 1
 572 014a 83F31088 		MSR  PRIMASK,r3
 573              	@ 0 "" 2
 574              	.LVL41:
 591:../Middlewares/threadx/ports/cortex_m55/gnu/inc/tx_port.h **** #endif
 575              		.loc 2 591 5 is_stmt 0 view .LVU177
 576              		.thumb
 577              		.syntax unified
 578              	.LBE91:
 579              	.LBE90:
 580              		.loc 1 185 9 is_stmt 1 discriminator 1 view .LVU178
 581 014e 2046     		mov	r0, r4
 582 0150 FFF7FEFF 		bl	_tx_thread_stack_error_handler
 583              	.LVL42:
 584              		.loc 1 185 9 discriminator 2 view .LVU179
 585              	.LBB92:
 586              	.LBI92:
 595:../Middlewares/threadx/ports/cortex_m55/gnu/inc/tx_port.h **** {
 587              		.loc 2 595 55 view .LVU180
 588              	.LBB93:
 597:../Middlewares/threadx/ports/cortex_m55/gnu/inc/tx_port.h **** 
 589              		.loc 2 597 1 view .LVU181
 599:../Middlewares/threadx/ports/cortex_m55/gnu/inc/tx_port.h **** 
 590              		.loc 2 599 5 view .LVU182
 591              	.LBB94:
 592              	.LBI94:
 563:../Middlewares/threadx/ports/cortex_m55/gnu/inc/tx_port.h **** {
 593              		.loc 2 563 55 view .LVU183
 594              	.LBB95:
 565:../Middlewares/threadx/ports/cortex_m55/gnu/inc/tx_port.h **** #ifdef TX_PORT_USE_BASEPRI
 595              		.loc 2 565 1 view .LVU184
 569:../Middlewares/threadx/ports/cortex_m55/gnu/inc/tx_port.h **** #endif
 596              		.loc 2 569 5 view .LVU185
 597              		.syntax unified
 598              	@ 569 "../Middlewares/threadx/ports/cortex_m55/gnu/inc/tx_port.h" 1
 599 0154 EFF31083 		MRS  r3, PRIMASK 
 600              	@ 0 "" 2
 601              	.LVL43:
 571:../Middlewares/threadx/ports/cortex_m55/gnu/inc/tx_port.h **** }
 602              		.loc 2 571 5 view .LVU186
 571:../Middlewares/threadx/ports/cortex_m55/gnu/inc/tx_port.h **** }
 603              		.loc 2 571 5 is_stmt 0 view .LVU187
 604              		.thumb
 605              		.syntax unified
 606              	.LBE95:
 607              	.LBE94:
 604:../Middlewares/threadx/ports/cortex_m55/gnu/inc/tx_port.h **** #endif
 608              		.loc 2 604 5 is_stmt 1 view .LVU188
 609              		.syntax unified
 610              	@ 604 "../Middlewares/threadx/ports/cortex_m55/gnu/inc/tx_port.h" 1
ARM GAS  /tmp/ccSHAuWX.s 			page 27


 611 0158 72B6     		CPSID i
 612              	@ 0 "" 2
 613              		.loc 2 606 5 view .LVU189
 614              	.LVL44:
 615              		.thumb
 616              		.syntax unified
 617              	.L19:
 618              		.loc 2 606 5 is_stmt 0 view .LVU190
 619              	.LBE93:
 620              	.LBE92:
 621              		.loc 1 185 9 is_stmt 1 discriminator 14 view .LVU191
 622 015a D4F8A820 		ldr	r2, [r4, #168]
 623 015e 52F8042C 		ldr	r2, [r2, #-4]
 624 0162 B2F1EF3F 		cmp	r2, #-269488145
 625 0166 07D0     		beq	.L16
 626              		.loc 1 185 9 discriminator 15 view .LVU192
 627              	.LVL45:
 628              	.LBB96:
 629              	.LBI96:
 586:../Middlewares/threadx/ports/cortex_m55/gnu/inc/tx_port.h **** {
 630              		.loc 2 586 55 view .LVU193
 631              	.LBB97:
 591:../Middlewares/threadx/ports/cortex_m55/gnu/inc/tx_port.h **** #endif
 632              		.loc 2 591 5 view .LVU194
 633              		.syntax unified
 634              	@ 591 "../Middlewares/threadx/ports/cortex_m55/gnu/inc/tx_port.h" 1
 635 0168 83F31088 		MSR  PRIMASK,r3
 636              	@ 0 "" 2
 637              	.LVL46:
 591:../Middlewares/threadx/ports/cortex_m55/gnu/inc/tx_port.h **** #endif
 638              		.loc 2 591 5 is_stmt 0 view .LVU195
 639              		.thumb
 640              		.syntax unified
 641              	.LBE97:
 642              	.LBE96:
 643              		.loc 1 185 9 is_stmt 1 discriminator 1 view .LVU196
 644 016c 2046     		mov	r0, r4
 645 016e FFF7FEFF 		bl	_tx_thread_stack_analyze
 646              	.LVL47:
 647              		.loc 1 185 9 discriminator 2 view .LVU197
 648              	.LBB98:
 649              	.LBI98:
 595:../Middlewares/threadx/ports/cortex_m55/gnu/inc/tx_port.h **** {
 650              		.loc 2 595 55 view .LVU198
 651              	.LBB99:
 597:../Middlewares/threadx/ports/cortex_m55/gnu/inc/tx_port.h **** 
 652              		.loc 2 597 1 view .LVU199
 599:../Middlewares/threadx/ports/cortex_m55/gnu/inc/tx_port.h **** 
 653              		.loc 2 599 5 view .LVU200
 654              	.LBB100:
 655              	.LBI100:
 563:../Middlewares/threadx/ports/cortex_m55/gnu/inc/tx_port.h **** {
 656              		.loc 2 563 55 view .LVU201
 657              	.LBB101:
 565:../Middlewares/threadx/ports/cortex_m55/gnu/inc/tx_port.h **** #ifdef TX_PORT_USE_BASEPRI
 658              		.loc 2 565 1 view .LVU202
 569:../Middlewares/threadx/ports/cortex_m55/gnu/inc/tx_port.h **** #endif
ARM GAS  /tmp/ccSHAuWX.s 			page 28


 659              		.loc 2 569 5 view .LVU203
 660              		.syntax unified
 661              	@ 569 "../Middlewares/threadx/ports/cortex_m55/gnu/inc/tx_port.h" 1
 662 0172 EFF31083 		MRS  r3, PRIMASK 
 663              	@ 0 "" 2
 664              	.LVL48:
 571:../Middlewares/threadx/ports/cortex_m55/gnu/inc/tx_port.h **** }
 665              		.loc 2 571 5 view .LVU204
 571:../Middlewares/threadx/ports/cortex_m55/gnu/inc/tx_port.h **** }
 666              		.loc 2 571 5 is_stmt 0 view .LVU205
 667              		.thumb
 668              		.syntax unified
 669              	.LBE101:
 670              	.LBE100:
 604:../Middlewares/threadx/ports/cortex_m55/gnu/inc/tx_port.h **** #endif
 671              		.loc 2 604 5 is_stmt 1 view .LVU206
 672              		.syntax unified
 673              	@ 604 "../Middlewares/threadx/ports/cortex_m55/gnu/inc/tx_port.h" 1
 674 0176 72B6     		CPSID i
 675              	@ 0 "" 2
 676              		.loc 2 606 5 view .LVU207
 677              	.LVL49:
 678              		.thumb
 679              		.syntax unified
 680              	.L16:
 681              		.loc 2 606 5 is_stmt 0 view .LVU208
 682              	.LBE99:
 683              	.LBE98:
 684              		.loc 1 185 9 is_stmt 1 discriminator 17 view .LVU209
 685              	.LBB102:
 686              	.LBI102:
 586:../Middlewares/threadx/ports/cortex_m55/gnu/inc/tx_port.h **** {
 687              		.loc 2 586 55 view .LVU210
 688              	.LBB103:
 591:../Middlewares/threadx/ports/cortex_m55/gnu/inc/tx_port.h **** #endif
 689              		.loc 2 591 5 view .LVU211
 690              		.syntax unified
 691              	@ 591 "../Middlewares/threadx/ports/cortex_m55/gnu/inc/tx_port.h" 1
 692 0178 83F31088 		MSR  PRIMASK,r3
 693              	@ 0 "" 2
 694              	.LVL50:
 695              		.thumb
 696              		.syntax unified
 697              	.L1:
 591:../Middlewares/threadx/ports/cortex_m55/gnu/inc/tx_port.h **** #endif
 698              		.loc 2 591 5 is_stmt 0 view .LVU212
 699              	.LBE103:
 700              	.LBE102:
 701              	.LBE85:
 186:../Middlewares/threadx/common/src/tx_thread_time_slice.c ****     }
 187:../Middlewares/threadx/common/src/tx_thread_time_slice.c **** #endif
 188:../Middlewares/threadx/common/src/tx_thread_time_slice.c **** }
 702              		.loc 1 188 1 view .LVU213
 703 017c 02B0     		add	sp, sp, #8
 704              		.cfi_remember_state
 705              		.cfi_def_cfa_offset 24
 706              		@ sp needed
ARM GAS  /tmp/ccSHAuWX.s 			page 29


 707 017e BDE8F081 		pop	{r4, r5, r6, r7, r8, pc}
 708              	.LVL51:
 709              	.L6:
 710              		.cfi_restore_state
 116:../Middlewares/threadx/common/src/tx_thread_time_slice.c ****         {
 711              		.loc 1 116 9 is_stmt 1 view .LVU214
 116:../Middlewares/threadx/common/src/tx_thread_time_slice.c ****         {
 712              		.loc 1 116 12 is_stmt 0 view .LVU215
 713 0182 1A6B     		ldr	r2, [r3, #48]
 714 0184 002A     		cmp	r2, #0
 715 0186 82D1     		bne	.L8
 120:../Middlewares/threadx/common/src/tx_thread_time_slice.c **** 
 716              		.loc 1 120 13 is_stmt 1 view .LVU216
 120:../Middlewares/threadx/common/src/tx_thread_time_slice.c **** 
 717              		.loc 1 120 62 is_stmt 0 view .LVU217
 718 0188 DA69     		ldr	r2, [r3, #28]
 123:../Middlewares/threadx/common/src/tx_thread_time_slice.c **** 
 719              		.loc 1 123 34 view .LVU218
 720 018a 1E49     		ldr	r1, .L39+52
 120:../Middlewares/threadx/common/src/tx_thread_time_slice.c **** 
 721              		.loc 1 120 48 view .LVU219
 722 018c 9A61     		str	r2, [r3, #24]
 123:../Middlewares/threadx/common/src/tx_thread_time_slice.c **** 
 723              		.loc 1 123 13 is_stmt 1 view .LVU220
 123:../Middlewares/threadx/common/src/tx_thread_time_slice.c **** 
 724              		.loc 1 123 34 is_stmt 0 view .LVU221
 725 018e 0A60     		str	r2, [r1]
 127:../Middlewares/threadx/common/src/tx_thread_time_slice.c ****             {
 726              		.loc 1 127 13 is_stmt 1 view .LVU222
 127:../Middlewares/threadx/common/src/tx_thread_time_slice.c ****             {
 727              		.loc 1 127 28 is_stmt 0 view .LVU223
 728 0190 196A     		ldr	r1, [r3, #32]
 127:../Middlewares/threadx/common/src/tx_thread_time_slice.c ****             {
 729              		.loc 1 127 16 view .LVU224
 730 0192 8B42     		cmp	r3, r1
 731 0194 3FF47BAF 		beq	.L8
 131:../Middlewares/threadx/common/src/tx_thread_time_slice.c ****                 {
 732              		.loc 1 131 17 is_stmt 1 view .LVU225
 131:../Middlewares/threadx/common/src/tx_thread_time_slice.c ****                 {
 733              		.loc 1 131 32 is_stmt 0 view .LVU226
 734 0198 DA6A     		ldr	r2, [r3, #44]
 131:../Middlewares/threadx/common/src/tx_thread_time_slice.c ****                 {
 735              		.loc 1 131 20 view .LVU227
 736 019a DB6B     		ldr	r3, [r3, #60]
 737 019c 9A42     		cmp	r2, r3
 738 019e 7FF476AF 		bne	.L8
 138:../Middlewares/threadx/common/src/tx_thread_time_slice.c **** 
 739              		.loc 1 138 21 is_stmt 1 view .LVU228
 138:../Middlewares/threadx/common/src/tx_thread_time_slice.c **** 
 740              		.loc 1 138 80 is_stmt 0 view .LVU229
 741 01a2 194B     		ldr	r3, .L39+56
 742 01a4 43F82210 		str	r1, [r3, r2, lsl #2]
 143:../Middlewares/threadx/common/src/tx_thread_time_slice.c **** 
 743              		.loc 1 143 21 is_stmt 1 view .LVU230
 143:../Middlewares/threadx/common/src/tx_thread_time_slice.c **** 
 744              		.loc 1 143 71 is_stmt 0 view .LVU231
 745 01a8 184A     		ldr	r2, .L39+60
ARM GAS  /tmp/ccSHAuWX.s 			page 30


 746 01aa 1268     		ldr	r2, [r2]
 747 01ac 53F82240 		ldr	r4, [r3, r2, lsl #2]
 143:../Middlewares/threadx/common/src/tx_thread_time_slice.c **** 
 748              		.loc 1 143 44 view .LVU232
 749 01b0 0F4B     		ldr	r3, .L39+32
 750 01b2 1C60     		str	r4, [r3]
 158:../Middlewares/threadx/common/src/tx_thread_time_slice.c **** #endif
 751              		.loc 1 158 21 is_stmt 1 view .LVU233
 752 01b4 6CE7     		b	.L7
 753              	.LVL52:
 754              	.L12:
 755              	.LBB104:
 172:../Middlewares/threadx/common/src/tx_thread_time_slice.c **** #endif
 756              		.loc 1 172 5 discriminator 4 view .LVU234
 757 01b6 B2F1F03F 		cmp	r2, #-252645136
 172:../Middlewares/threadx/common/src/tx_thread_time_slice.c **** #endif
 758              		.loc 1 172 5 discriminator 6 view .LVU235
 759 01ba 35BF     		itete	cc
 760 01bc 0A46     		movcc	r2, r1
 761              	.LVL53:
 172:../Middlewares/threadx/common/src/tx_thread_time_slice.c **** #endif
 762              		.loc 1 172 5 view .LVU236
 172:../Middlewares/threadx/common/src/tx_thread_time_slice.c **** #endif
 763              		.loc 1 172 5 is_stmt 0 discriminator 7 view .LVU237
 764 01be 4FF0F031 		movcs	r1, #-252645136
 172:../Middlewares/threadx/common/src/tx_thread_time_slice.c **** #endif
 765              		.loc 1 172 5 discriminator 6 view .LVU238
 766 01c2 4FF0FF31 		movcc	r1, #-1
 767              	.LVL54:
 172:../Middlewares/threadx/common/src/tx_thread_time_slice.c **** #endif
 768              		.loc 1 172 5 discriminator 7 view .LVU239
 769 01c6 0022     		movcs	r2, #0
 770 01c8 7EE7     		b	.L13
 771              	.LVL55:
 772              	.L14:
 172:../Middlewares/threadx/common/src/tx_thread_time_slice.c **** #endif
 773              		.loc 1 172 5 is_stmt 1 discriminator 11 view .LVU240
 774 01ca 2B60     		str	r3, [r5]
 775              	.LVL56:
 172:../Middlewares/threadx/common/src/tx_thread_time_slice.c **** #endif
 776              		.loc 1 172 5 view .LVU241
 172:../Middlewares/threadx/common/src/tx_thread_time_slice.c **** #endif
 777              		.loc 1 172 5 is_stmt 0 discriminator 11 view .LVU242
 778 01cc 0362     		str	r3, [r0, #32]
 779 01ce 9CE7     		b	.L10
 780              	.L40:
 781              		.align	2
 782              	.L39:
 783 01d0 00000000 		.word	_tx_thread_current_ptr
 784 01d4 44524854 		.word	1414025796
 785 01d8 00000000 		.word	_tx_timer_expired_time_slice
 786 01dc 00000000 		.word	_tx_thread_preempt_disable
 787 01e0 00000000 		.word	_tx_thread_system_state
 788 01e4 00000000 		.word	_tx_trace_buffer_current_ptr
 789 01e8 00000000 		.word	_tx_trace_event_enable_bits
 790 01ec 001000E0 		.word	-536866816
 791 01f0 00000000 		.word	_tx_thread_execute_ptr
ARM GAS  /tmp/ccSHAuWX.s 			page 31


 792 01f4 00000000 		.word	_tx_trace_header_ptr
 793 01f8 00000000 		.word	_tx_trace_buffer_end_ptr
 794 01fc 00000000 		.word	_tx_trace_buffer_start_ptr
 795 0200 00000000 		.word	_tx_trace_full_notify_function
 796 0204 00000000 		.word	_tx_timer_time_slice
 797 0208 00000000 		.word	_tx_thread_priority_list
 798 020c 00000000 		.word	_tx_thread_highest_priority
 799              	.LBE104:
 800              		.cfi_endproc
 801              	.LFE8:
 803              		.text
 804              	.Letext0:
 805              		.file 3 "../Middlewares/threadx/common/inc/tx_api.h"
 806              		.file 4 "../Middlewares/threadx/common/inc/tx_timer.h"
 807              		.file 5 "../Middlewares/threadx/common/inc/tx_thread.h"
 808              		.file 6 "../Middlewares/threadx/common/inc/tx_trace.h"
ARM GAS  /tmp/ccSHAuWX.s 			page 32

