ARM GAS  /tmp/cc8X2vvc.s 			page 1


   1              		.arch armv8.1-m.main
   2              		.fpu fpv5-d16
   3              		.arch_extension dsp
   4              		.arch_extension fp
   5              		.arch_extension fp.dp
   6              		.arch_extension mve
   7              		.arch_extension mve.fp
   8              		.eabi_attribute 5, "cortex-m55"
   9              		.eabi_attribute 28, 1
  10              		.eabi_attribute 20, 1
  11              		.eabi_attribute 21, 1
  12              		.eabi_attribute 23, 3
  13              		.eabi_attribute 24, 1
  14              		.eabi_attribute 25, 1
  15              		.eabi_attribute 26, 1
  16              		.eabi_attribute 30, 4
  17              		.eabi_attribute 34, 1
  18              		.eabi_attribute 38, 1
  19              		.eabi_attribute 18, 4
  20              		.file	"tx_trace_object_register.c"
  21              		.text
  22              	.Ltext0:
  23              		.cfi_sections	.debug_frame
  24              		.file 1 "../Middlewares/threadx/common/src/tx_trace_object_register.c"
  25              		.section	.text._tx_trace_object_register,"ax",%progbits
  26              		.align	1
  27              		.global	_tx_trace_object_register
  28              		.syntax unified
  29              		.thumb
  30              		.thumb_func
  32              	_tx_trace_object_register:
  33              	.LVL0:
  34              	.LFB8:
   1:../Middlewares/threadx/common/src/tx_trace_object_register.c **** /**************************************************************************/
   2:../Middlewares/threadx/common/src/tx_trace_object_register.c **** /*                                                                        */
   3:../Middlewares/threadx/common/src/tx_trace_object_register.c **** /*       Copyright (c) Microsoft Corporation. All rights reserved.        */
   4:../Middlewares/threadx/common/src/tx_trace_object_register.c **** /*                                                                        */
   5:../Middlewares/threadx/common/src/tx_trace_object_register.c **** /*       This software is licensed under the Microsoft Software License   */
   6:../Middlewares/threadx/common/src/tx_trace_object_register.c **** /*       Terms for Microsoft Azure RTOS. Full text of the license can be  */
   7:../Middlewares/threadx/common/src/tx_trace_object_register.c **** /*       found in the LICENSE file at https://aka.ms/AzureRTOS_EULA       */
   8:../Middlewares/threadx/common/src/tx_trace_object_register.c **** /*       and in the root directory of this software.                      */
   9:../Middlewares/threadx/common/src/tx_trace_object_register.c **** /*                                                                        */
  10:../Middlewares/threadx/common/src/tx_trace_object_register.c **** /**************************************************************************/
  11:../Middlewares/threadx/common/src/tx_trace_object_register.c **** 
  12:../Middlewares/threadx/common/src/tx_trace_object_register.c **** 
  13:../Middlewares/threadx/common/src/tx_trace_object_register.c **** /**************************************************************************/
  14:../Middlewares/threadx/common/src/tx_trace_object_register.c **** /**************************************************************************/
  15:../Middlewares/threadx/common/src/tx_trace_object_register.c **** /**                                                                       */
  16:../Middlewares/threadx/common/src/tx_trace_object_register.c **** /** ThreadX Component                                                     */
  17:../Middlewares/threadx/common/src/tx_trace_object_register.c **** /**                                                                       */
  18:../Middlewares/threadx/common/src/tx_trace_object_register.c **** /**   Trace                                                               */
  19:../Middlewares/threadx/common/src/tx_trace_object_register.c **** /**                                                                       */
  20:../Middlewares/threadx/common/src/tx_trace_object_register.c **** /**************************************************************************/
  21:../Middlewares/threadx/common/src/tx_trace_object_register.c **** /**************************************************************************/
  22:../Middlewares/threadx/common/src/tx_trace_object_register.c **** 
  23:../Middlewares/threadx/common/src/tx_trace_object_register.c **** #define TX_SOURCE_CODE
  24:../Middlewares/threadx/common/src/tx_trace_object_register.c **** 
ARM GAS  /tmp/cc8X2vvc.s 			page 2


  25:../Middlewares/threadx/common/src/tx_trace_object_register.c **** 
  26:../Middlewares/threadx/common/src/tx_trace_object_register.c **** /* Include necessary system files.  */
  27:../Middlewares/threadx/common/src/tx_trace_object_register.c **** 
  28:../Middlewares/threadx/common/src/tx_trace_object_register.c **** #include "tx_api.h"
  29:../Middlewares/threadx/common/src/tx_trace_object_register.c **** #include "tx_trace.h"
  30:../Middlewares/threadx/common/src/tx_trace_object_register.c **** 
  31:../Middlewares/threadx/common/src/tx_trace_object_register.c **** 
  32:../Middlewares/threadx/common/src/tx_trace_object_register.c **** /**************************************************************************/
  33:../Middlewares/threadx/common/src/tx_trace_object_register.c **** /*                                                                        */
  34:../Middlewares/threadx/common/src/tx_trace_object_register.c **** /*  FUNCTION                                               RELEASE        */
  35:../Middlewares/threadx/common/src/tx_trace_object_register.c **** /*                                                                        */
  36:../Middlewares/threadx/common/src/tx_trace_object_register.c **** /*    _tx_trace_object_register                           PORTABLE C      */
  37:../Middlewares/threadx/common/src/tx_trace_object_register.c **** /*                                                           6.1.12       */
  38:../Middlewares/threadx/common/src/tx_trace_object_register.c **** /*  AUTHOR                                                                */
  39:../Middlewares/threadx/common/src/tx_trace_object_register.c **** /*                                                                        */
  40:../Middlewares/threadx/common/src/tx_trace_object_register.c **** /*    William E. Lamie, Microsoft Corporation                             */
  41:../Middlewares/threadx/common/src/tx_trace_object_register.c **** /*                                                                        */
  42:../Middlewares/threadx/common/src/tx_trace_object_register.c **** /*  DESCRIPTION                                                           */
  43:../Middlewares/threadx/common/src/tx_trace_object_register.c **** /*                                                                        */
  44:../Middlewares/threadx/common/src/tx_trace_object_register.c **** /*    This function registers a ThreadX system object in the trace        */
  45:../Middlewares/threadx/common/src/tx_trace_object_register.c **** /*    registry area. This provides a mapping between the object pointers  */
  46:../Middlewares/threadx/common/src/tx_trace_object_register.c **** /*    stored in each trace event to the actual ThreadX objects.           */
  47:../Middlewares/threadx/common/src/tx_trace_object_register.c **** /*                                                                        */
  48:../Middlewares/threadx/common/src/tx_trace_object_register.c **** /*  INPUT                                                                 */
  49:../Middlewares/threadx/common/src/tx_trace_object_register.c **** /*                                                                        */
  50:../Middlewares/threadx/common/src/tx_trace_object_register.c **** /*    object_type                           Type of system object         */
  51:../Middlewares/threadx/common/src/tx_trace_object_register.c **** /*    object_ptr                            Address of system object      */
  52:../Middlewares/threadx/common/src/tx_trace_object_register.c **** /*    object_name                           Name of system object         */
  53:../Middlewares/threadx/common/src/tx_trace_object_register.c **** /*    parameter_1                           Supplemental parameter 1      */
  54:../Middlewares/threadx/common/src/tx_trace_object_register.c **** /*    parameter_2                           Supplemental parameter 2      */
  55:../Middlewares/threadx/common/src/tx_trace_object_register.c **** /*                                                                        */
  56:../Middlewares/threadx/common/src/tx_trace_object_register.c **** /*  OUTPUT                                                                */
  57:../Middlewares/threadx/common/src/tx_trace_object_register.c **** /*                                                                        */
  58:../Middlewares/threadx/common/src/tx_trace_object_register.c **** /*    None                                                                */
  59:../Middlewares/threadx/common/src/tx_trace_object_register.c **** /*                                                                        */
  60:../Middlewares/threadx/common/src/tx_trace_object_register.c **** /*  CALLS                                                                 */
  61:../Middlewares/threadx/common/src/tx_trace_object_register.c **** /*                                                                        */
  62:../Middlewares/threadx/common/src/tx_trace_object_register.c **** /*    None                                                                */
  63:../Middlewares/threadx/common/src/tx_trace_object_register.c **** /*                                                                        */
  64:../Middlewares/threadx/common/src/tx_trace_object_register.c **** /*  CALLED BY                                                             */
  65:../Middlewares/threadx/common/src/tx_trace_object_register.c **** /*                                                                        */
  66:../Middlewares/threadx/common/src/tx_trace_object_register.c **** /*    Application Code                                                    */
  67:../Middlewares/threadx/common/src/tx_trace_object_register.c **** /*                                                                        */
  68:../Middlewares/threadx/common/src/tx_trace_object_register.c **** /*  RELEASE HISTORY                                                       */
  69:../Middlewares/threadx/common/src/tx_trace_object_register.c **** /*                                                                        */
  70:../Middlewares/threadx/common/src/tx_trace_object_register.c **** /*    DATE              NAME                      DESCRIPTION             */
  71:../Middlewares/threadx/common/src/tx_trace_object_register.c **** /*                                                                        */
  72:../Middlewares/threadx/common/src/tx_trace_object_register.c **** /*  05-19-2020      William E. Lamie        Initial Version 6.0           */
  73:../Middlewares/threadx/common/src/tx_trace_object_register.c **** /*  09-30-2020      Yuxin Zhou              Modified comment(s),          */
  74:../Middlewares/threadx/common/src/tx_trace_object_register.c **** /*                                            resulting in version 6.1    */
  75:../Middlewares/threadx/common/src/tx_trace_object_register.c **** /*  07-29-2022      Scott Larson            Modified comment(s),          */
  76:../Middlewares/threadx/common/src/tx_trace_object_register.c **** /*                                            check for null name,        */
  77:../Middlewares/threadx/common/src/tx_trace_object_register.c **** /*                                            resulting in version 6.1.12 */
  78:../Middlewares/threadx/common/src/tx_trace_object_register.c **** /*                                                                        */
  79:../Middlewares/threadx/common/src/tx_trace_object_register.c **** /**************************************************************************/
  80:../Middlewares/threadx/common/src/tx_trace_object_register.c **** VOID  _tx_trace_object_register(UCHAR object_type, VOID *object_ptr, CHAR *object_name, ULONG param
  81:../Middlewares/threadx/common/src/tx_trace_object_register.c **** {
ARM GAS  /tmp/cc8X2vvc.s 			page 3


  35              		.loc 1 81 1 view -0
  36              		.cfi_startproc
  37              		@ args = 4, pretend = 0, frame = 8
  38              		@ frame_needed = 0, uses_anonymous_args = 0
  82:../Middlewares/threadx/common/src/tx_trace_object_register.c **** 
  83:../Middlewares/threadx/common/src/tx_trace_object_register.c **** #ifdef TX_ENABLE_EVENT_TRACE
  84:../Middlewares/threadx/common/src/tx_trace_object_register.c **** 
  85:../Middlewares/threadx/common/src/tx_trace_object_register.c **** UINT                            i, entries;
  39              		.loc 1 85 1 view .LVU1
  86:../Middlewares/threadx/common/src/tx_trace_object_register.c **** UINT                            found, loop_break;
  40              		.loc 1 86 1 view .LVU2
  87:../Middlewares/threadx/common/src/tx_trace_object_register.c **** TX_THREAD                       *thread_ptr;
  41              		.loc 1 87 1 view .LVU3
  88:../Middlewares/threadx/common/src/tx_trace_object_register.c **** UCHAR                           *work_ptr;
  42              		.loc 1 88 1 view .LVU4
  89:../Middlewares/threadx/common/src/tx_trace_object_register.c **** TX_TRACE_OBJECT_ENTRY           *entry_ptr;
  43              		.loc 1 89 1 view .LVU5
  90:../Middlewares/threadx/common/src/tx_trace_object_register.c **** 
  91:../Middlewares/threadx/common/src/tx_trace_object_register.c **** 
  92:../Middlewares/threadx/common/src/tx_trace_object_register.c ****     /* Determine if the registry area is setup.  */
  93:../Middlewares/threadx/common/src/tx_trace_object_register.c ****     if (_tx_trace_registry_start_ptr != TX_NULL)
  44              		.loc 1 93 5 view .LVU6
  81:../Middlewares/threadx/common/src/tx_trace_object_register.c **** 
  45              		.loc 1 81 1 is_stmt 0 view .LVU7
  46 0000 2DE9F74F 		push	{r0, r1, r2, r4, r5, r6, r7, r8, r9, r10, fp, lr}
  47              		.cfi_def_cfa_offset 48
  48              		.cfi_offset 4, -36
  49              		.cfi_offset 5, -32
  50              		.cfi_offset 6, -28
  51              		.cfi_offset 7, -24
  52              		.cfi_offset 8, -20
  53              		.cfi_offset 9, -16
  54              		.cfi_offset 10, -12
  55              		.cfi_offset 11, -8
  56              		.cfi_offset 14, -4
  81:../Middlewares/threadx/common/src/tx_trace_object_register.c **** 
  57              		.loc 1 81 1 view .LVU8
  58 0004 CDE90023 		strd	r2, r3, [sp]
  59              		.loc 1 93 38 view .LVU9
  60 0008 394B     		ldr	r3, .L36
  61              	.LVL1:
  62              		.loc 1 93 38 view .LVU10
  63 000a 1C68     		ldr	r4, [r3]
  64              		.loc 1 93 8 view .LVU11
  65 000c 002C     		cmp	r4, #0
  66 000e 65D0     		beq	.L1
  94:../Middlewares/threadx/common/src/tx_trace_object_register.c ****     {
  95:../Middlewares/threadx/common/src/tx_trace_object_register.c **** 
  96:../Middlewares/threadx/common/src/tx_trace_object_register.c ****         /* Trace buffer is enabled, proceed.  */
  97:../Middlewares/threadx/common/src/tx_trace_object_register.c **** 
  98:../Middlewares/threadx/common/src/tx_trace_object_register.c ****         /* Pickup the total entries.  */
  99:../Middlewares/threadx/common/src/tx_trace_object_register.c ****         entries =  _tx_trace_total_registry_entries;
  67              		.loc 1 99 9 is_stmt 1 view .LVU12
  68              	.LVL2:
 100:../Middlewares/threadx/common/src/tx_trace_object_register.c **** 
 101:../Middlewares/threadx/common/src/tx_trace_object_register.c ****         /* Determine if there are available entries in the registry.  */
 102:../Middlewares/threadx/common/src/tx_trace_object_register.c ****         if (_tx_trace_available_registry_entries != ((ULONG) 0))
ARM GAS  /tmp/cc8X2vvc.s 			page 4


  69              		.loc 1 102 9 view .LVU13
  70              		.loc 1 102 50 is_stmt 0 view .LVU14
  71 0010 DFF8E4E0 		ldr	lr, .L36+8
  72 0014 DEF80060 		ldr	r6, [lr]
  73              		.loc 1 102 12 view .LVU15
  74 0018 002E     		cmp	r6, #0
  75 001a 5FD0     		beq	.L1
  99:../Middlewares/threadx/common/src/tx_trace_object_register.c **** 
  76              		.loc 1 99 17 view .LVU16
  77 001c 354B     		ldr	r3, .L36+4
  78              	.LVL3:
 103:../Middlewares/threadx/common/src/tx_trace_object_register.c ****         {
 104:../Middlewares/threadx/common/src/tx_trace_object_register.c **** 
 105:../Middlewares/threadx/common/src/tx_trace_object_register.c ****             /* There are more available entries, proceed.  */
 106:../Middlewares/threadx/common/src/tx_trace_object_register.c **** 
 107:../Middlewares/threadx/common/src/tx_trace_object_register.c ****             /* Initialize found to the max entries... indicating no space was found.  */
 108:../Middlewares/threadx/common/src/tx_trace_object_register.c ****             found =       entries;
 109:../Middlewares/threadx/common/src/tx_trace_object_register.c ****             loop_break =  TX_FALSE;
 110:../Middlewares/threadx/common/src/tx_trace_object_register.c **** 
 111:../Middlewares/threadx/common/src/tx_trace_object_register.c ****             /* Loop to find available entry.  */
 112:../Middlewares/threadx/common/src/tx_trace_object_register.c ****             i =  _tx_trace_registry_search_start;
  79              		.loc 1 112 15 view .LVU17
  80 001e DFF8DCC0 		ldr	ip, .L36+12
  99:../Middlewares/threadx/common/src/tx_trace_object_register.c **** 
  81              		.loc 1 99 17 view .LVU18
  82 0022 1D68     		ldr	r5, [r3]
 108:../Middlewares/threadx/common/src/tx_trace_object_register.c ****             loop_break =  TX_FALSE;
  83              		.loc 1 108 13 is_stmt 1 view .LVU19
  84              	.LVL4:
 109:../Middlewares/threadx/common/src/tx_trace_object_register.c **** 
  85              		.loc 1 109 13 view .LVU20
  86              		.loc 1 112 13 view .LVU21
  87              		.loc 1 112 15 is_stmt 0 view .LVU22
  88 0024 DCF80080 		ldr	r8, [ip]
  89              	.LVL5:
 108:../Middlewares/threadx/common/src/tx_trace_object_register.c ****             loop_break =  TX_FALSE;
  90              		.loc 1 108 19 view .LVU23
  91 0028 2B46     		mov	r3, r5
  92              	.LVL6:
  93              		.loc 1 112 15 view .LVU24
  94 002a 4246     		mov	r2, r8
  95              	.LVL7:
 113:../Middlewares/threadx/common/src/tx_trace_object_register.c ****             do
 114:../Middlewares/threadx/common/src/tx_trace_object_register.c ****             {
 115:../Middlewares/threadx/common/src/tx_trace_object_register.c **** 
 116:../Middlewares/threadx/common/src/tx_trace_object_register.c ****                 /* Setup the registry entry pointer.  */
 117:../Middlewares/threadx/common/src/tx_trace_object_register.c ****                 work_ptr =   TX_OBJECT_TO_UCHAR_POINTER_CONVERT(_tx_trace_registry_start_ptr);
 118:../Middlewares/threadx/common/src/tx_trace_object_register.c ****                 work_ptr =   TX_UCHAR_POINTER_ADD(work_ptr, ((sizeof(TX_TRACE_OBJECT_ENTRY))*i));
  96              		.loc 1 118 30 view .LVU25
  97 002c 4FF03009 		mov	r9, #48
  98              	.LVL8:
  99              	.L7:
 113:../Middlewares/threadx/common/src/tx_trace_object_register.c ****             do
 100              		.loc 1 113 13 is_stmt 1 view .LVU26
 117:../Middlewares/threadx/common/src/tx_trace_object_register.c ****                 work_ptr =   TX_UCHAR_POINTER_ADD(work_ptr, ((sizeof(TX_TRACE_OBJECT_ENTRY))*i));
 101              		.loc 1 117 17 view .LVU27
 102              		.loc 1 118 17 view .LVU28
ARM GAS  /tmp/cc8X2vvc.s 			page 5


 103              		.loc 1 118 30 is_stmt 0 view .LVU29
 104 0030 09FB02FA 		mul	r10, r9, r2
 105              		.loc 1 118 26 view .LVU30
 106 0034 04EB0A07 		add	r7, r4, r10
 107              	.LVL9:
 119:../Middlewares/threadx/common/src/tx_trace_object_register.c ****                 entry_ptr =  TX_UCHAR_TO_OBJECT_POINTER_CONVERT(work_ptr);
 108              		.loc 1 119 17 is_stmt 1 view .LVU31
 120:../Middlewares/threadx/common/src/tx_trace_object_register.c **** 
 121:../Middlewares/threadx/common/src/tx_trace_object_register.c ****                 /* Determine if this is the first pass building the registry. A NULL object value i
 122:../Middlewares/threadx/common/src/tx_trace_object_register.c ****                    of the registry has never been used.  */
 123:../Middlewares/threadx/common/src/tx_trace_object_register.c ****                 if (entry_ptr -> tx_trace_object_entry_thread_pointer == (ULONG) 0)
 109              		.loc 1 123 17 view .LVU32
 110              		.loc 1 123 31 is_stmt 0 view .LVU33
 111 0038 D7F804B0 		ldr	fp, [r7, #4]
 112              		.loc 1 123 20 view .LVU34
 113 003c BBF1000F 		cmp	fp, #0
 114 0040 4FD0     		beq	.L13
 115              		.loc 1 123 20 view .LVU35
 116 0042 0027     		movs	r7, #0
 117              	.LVL10:
 118              	.L3:
 124:../Middlewares/threadx/common/src/tx_trace_object_register.c ****                 {
 125:../Middlewares/threadx/common/src/tx_trace_object_register.c **** 
 126:../Middlewares/threadx/common/src/tx_trace_object_register.c ****                     /* Set found to this index and break out of the loop.  */
 127:../Middlewares/threadx/common/src/tx_trace_object_register.c ****                     found =  i;
 128:../Middlewares/threadx/common/src/tx_trace_object_register.c ****                     loop_break =  TX_TRUE;
 129:../Middlewares/threadx/common/src/tx_trace_object_register.c ****                 }
 130:../Middlewares/threadx/common/src/tx_trace_object_register.c **** 
 131:../Middlewares/threadx/common/src/tx_trace_object_register.c ****                 /* Determine if this entry matches the object pointer... we must reuse old entries 
 132:../Middlewares/threadx/common/src/tx_trace_object_register.c ****                    registry.  */
 133:../Middlewares/threadx/common/src/tx_trace_object_register.c ****                 if (entry_ptr -> tx_trace_object_entry_thread_pointer == TX_POINTER_TO_ULONG_CONVER
 119              		.loc 1 133 17 is_stmt 1 view .LVU36
 120              		.loc 1 133 20 is_stmt 0 view .LVU37
 121 0044 8B45     		cmp	fp, r1
 122 0046 51D0     		beq	.L14
 134:../Middlewares/threadx/common/src/tx_trace_object_register.c ****                 {
 135:../Middlewares/threadx/common/src/tx_trace_object_register.c **** 
 136:../Middlewares/threadx/common/src/tx_trace_object_register.c ****                     /* Set found to this index and break out of the loop.  */
 137:../Middlewares/threadx/common/src/tx_trace_object_register.c ****                     found =  i;
 138:../Middlewares/threadx/common/src/tx_trace_object_register.c ****                     loop_break =  TX_TRUE;
 139:../Middlewares/threadx/common/src/tx_trace_object_register.c ****                 }
 140:../Middlewares/threadx/common/src/tx_trace_object_register.c **** 
 141:../Middlewares/threadx/common/src/tx_trace_object_register.c ****                 /* Determine if we should break out of the loop.  */
 142:../Middlewares/threadx/common/src/tx_trace_object_register.c ****                 if (loop_break == TX_TRUE)
 123              		.loc 1 142 17 is_stmt 1 view .LVU38
 124              		.loc 1 142 20 is_stmt 0 view .LVU39
 125 0048 A7B9     		cbnz	r7, .L4
 126              	.LVL11:
 143:../Middlewares/threadx/common/src/tx_trace_object_register.c ****                 {
 144:../Middlewares/threadx/common/src/tx_trace_object_register.c **** 
 145:../Middlewares/threadx/common/src/tx_trace_object_register.c ****                     /* Yes, break out of the loop.  */
 146:../Middlewares/threadx/common/src/tx_trace_object_register.c ****                     break;
 147:../Middlewares/threadx/common/src/tx_trace_object_register.c ****                 }
 148:../Middlewares/threadx/common/src/tx_trace_object_register.c **** 
 149:../Middlewares/threadx/common/src/tx_trace_object_register.c ****                 /* Is this entry available?  */
 150:../Middlewares/threadx/common/src/tx_trace_object_register.c ****                 if (entry_ptr -> tx_trace_object_entry_available == TX_TRUE)
 127              		.loc 1 150 17 is_stmt 1 view .LVU40
ARM GAS  /tmp/cc8X2vvc.s 			page 6


 128              		.loc 1 150 20 is_stmt 0 view .LVU41
 129 004a 14F80AA0 		ldrb	r10, [r4, r10]	@ zero_extendqisi2
 130              	.LVL12:
 131              		.loc 1 150 20 view .LVU42
 132 004e BAF1010F 		cmp	r10, #1
 133 0052 09D1     		bne	.L5
 151:../Middlewares/threadx/common/src/tx_trace_object_register.c ****                 {
 152:../Middlewares/threadx/common/src/tx_trace_object_register.c **** 
 153:../Middlewares/threadx/common/src/tx_trace_object_register.c ****                     /* Yes, determine if we have not already found an empty slot.  */
 154:../Middlewares/threadx/common/src/tx_trace_object_register.c ****                     if (found == entries)
 134              		.loc 1 154 21 is_stmt 1 view .LVU43
 135              		.loc 1 154 24 is_stmt 0 view .LVU44
 136 0054 AB42     		cmp	r3, r5
 137 0056 47D0     		beq	.L15
 155:../Middlewares/threadx/common/src/tx_trace_object_register.c ****                     {
 156:../Middlewares/threadx/common/src/tx_trace_object_register.c ****                         found =  i;
 157:../Middlewares/threadx/common/src/tx_trace_object_register.c ****                     }
 158:../Middlewares/threadx/common/src/tx_trace_object_register.c ****                     else
 159:../Middlewares/threadx/common/src/tx_trace_object_register.c ****                     {
 160:../Middlewares/threadx/common/src/tx_trace_object_register.c **** 
 161:../Middlewares/threadx/common/src/tx_trace_object_register.c ****                         /* Setup a pointer to the found entry.  */
 162:../Middlewares/threadx/common/src/tx_trace_object_register.c ****                         work_ptr =   TX_OBJECT_TO_UCHAR_POINTER_CONVERT(_tx_trace_registry_start_pt
 138              		.loc 1 162 25 is_stmt 1 view .LVU45
 139              	.LVL13:
 163:../Middlewares/threadx/common/src/tx_trace_object_register.c ****                         work_ptr =   TX_UCHAR_POINTER_ADD(work_ptr, ((sizeof(TX_TRACE_OBJECT_ENTRY)
 140              		.loc 1 163 25 view .LVU46
 164:../Middlewares/threadx/common/src/tx_trace_object_register.c ****                         entry_ptr =  TX_UCHAR_TO_OBJECT_POINTER_CONVERT(work_ptr);
 141              		.loc 1 164 25 view .LVU47
 165:../Middlewares/threadx/common/src/tx_trace_object_register.c **** 
 166:../Middlewares/threadx/common/src/tx_trace_object_register.c ****                          if (entry_ptr -> tx_trace_object_entry_type != ((UCHAR) 0))
 142              		.loc 1 166 26 view .LVU48
 143              		.loc 1 166 40 is_stmt 0 view .LVU49
 144 0058 09FB034A 		mla	r10, r9, r3, r4
 145              		.loc 1 166 29 view .LVU50
 146 005c 9AF801A0 		ldrb	r10, [r10, #1]	@ zero_extendqisi2
 156:../Middlewares/threadx/common/src/tx_trace_object_register.c ****                     }
 147              		.loc 1 156 31 view .LVU51
 148 0060 BAF1000F 		cmp	r10, #0
 149 0064 18BF     		it	ne
 150 0066 1346     		movne	r3, r2
 151              	.LVL14:
 152              	.L5:
 167:../Middlewares/threadx/common/src/tx_trace_object_register.c ****                          {
 168:../Middlewares/threadx/common/src/tx_trace_object_register.c ****                             found =  i;
 169:../Middlewares/threadx/common/src/tx_trace_object_register.c ****                          }
 170:../Middlewares/threadx/common/src/tx_trace_object_register.c ****                     }
 171:../Middlewares/threadx/common/src/tx_trace_object_register.c ****                 }
 172:../Middlewares/threadx/common/src/tx_trace_object_register.c **** 
 173:../Middlewares/threadx/common/src/tx_trace_object_register.c ****                 /* Move to the next entry.  */
 174:../Middlewares/threadx/common/src/tx_trace_object_register.c ****                 i++;
 153              		.loc 1 174 17 is_stmt 1 view .LVU52
 154              		.loc 1 174 18 is_stmt 0 view .LVU53
 155 0068 0132     		adds	r2, r2, #1
 156              	.LVL15:
 175:../Middlewares/threadx/common/src/tx_trace_object_register.c **** 
 176:../Middlewares/threadx/common/src/tx_trace_object_register.c ****                 /* Determine if we have wrapped the list.  */
 177:../Middlewares/threadx/common/src/tx_trace_object_register.c ****                 if (i >= entries)
ARM GAS  /tmp/cc8X2vvc.s 			page 7


 157              		.loc 1 177 17 is_stmt 1 view .LVU54
 178:../Middlewares/threadx/common/src/tx_trace_object_register.c ****                 {
 179:../Middlewares/threadx/common/src/tx_trace_object_register.c **** 
 180:../Middlewares/threadx/common/src/tx_trace_object_register.c ****                     /* Yes, wrap to the beginning of the list.  */
 181:../Middlewares/threadx/common/src/tx_trace_object_register.c ****                     i =  ((ULONG) 0);
 158              		.loc 1 181 23 is_stmt 0 view .LVU55
 159 006a 9542     		cmp	r5, r2
 160 006c 98BF     		it	ls
 161 006e 3A46     		movls	r2, r7
 162              	.LVL16:
 182:../Middlewares/threadx/common/src/tx_trace_object_register.c ****                 }
 183:../Middlewares/threadx/common/src/tx_trace_object_register.c **** 
 184:../Middlewares/threadx/common/src/tx_trace_object_register.c ****             } while (i != _tx_trace_registry_search_start);
 163              		.loc 1 184 24 is_stmt 1 view .LVU56
 164 0070 4245     		cmp	r2, r8
 165 0072 DDD1     		bne	.L7
 166              	.LVL17:
 167              	.L4:
 185:../Middlewares/threadx/common/src/tx_trace_object_register.c **** 
 186:../Middlewares/threadx/common/src/tx_trace_object_register.c ****             /* Now determine if an empty or reuse entry has been found.  */
 187:../Middlewares/threadx/common/src/tx_trace_object_register.c ****             if (found < entries)
 168              		.loc 1 187 13 view .LVU57
 169              		.loc 1 187 16 is_stmt 0 view .LVU58
 170 0074 AB42     		cmp	r3, r5
 171 0076 31D2     		bcs	.L1
 188:../Middlewares/threadx/common/src/tx_trace_object_register.c ****             {
 189:../Middlewares/threadx/common/src/tx_trace_object_register.c **** 
 190:../Middlewares/threadx/common/src/tx_trace_object_register.c ****                 /* Decrement the number of available entries.  */
 191:../Middlewares/threadx/common/src/tx_trace_object_register.c ****                 _tx_trace_available_registry_entries--;
 172              		.loc 1 191 17 is_stmt 1 view .LVU59
 192:../Middlewares/threadx/common/src/tx_trace_object_register.c **** 
 193:../Middlewares/threadx/common/src/tx_trace_object_register.c ****                 /* Adjust the search index to the next entry.  */
 194:../Middlewares/threadx/common/src/tx_trace_object_register.c ****                 if ((found + ((ULONG) 1)) < entries)
 173              		.loc 1 194 28 is_stmt 0 view .LVU60
 174 0078 5A1C     		adds	r2, r3, #1
 175              	.LVL18:
 195:../Middlewares/threadx/common/src/tx_trace_object_register.c ****                 {
 196:../Middlewares/threadx/common/src/tx_trace_object_register.c **** 
 197:../Middlewares/threadx/common/src/tx_trace_object_register.c ****                     /* Start searching from the next index.  */
 198:../Middlewares/threadx/common/src/tx_trace_object_register.c ****                     _tx_trace_registry_search_start =  found + ((ULONG) 1);
 199:../Middlewares/threadx/common/src/tx_trace_object_register.c ****                 }
 200:../Middlewares/threadx/common/src/tx_trace_object_register.c ****                 else
 201:../Middlewares/threadx/common/src/tx_trace_object_register.c ****                 {
 202:../Middlewares/threadx/common/src/tx_trace_object_register.c **** 
 203:../Middlewares/threadx/common/src/tx_trace_object_register.c ****                     /* Reset the search to the beginning of the list. */
 204:../Middlewares/threadx/common/src/tx_trace_object_register.c ****                     _tx_trace_registry_search_start =  ((ULONG) 0);
 176              		.loc 1 204 53 view .LVU61
 177 007a AA42     		cmp	r2, r5
 178 007c 28BF     		it	cs
 179 007e 0022     		movcs	r2, #0
 180 0080 CCF80020 		str	r2, [ip]
 205:../Middlewares/threadx/common/src/tx_trace_object_register.c ****                 }
 206:../Middlewares/threadx/common/src/tx_trace_object_register.c **** 
 207:../Middlewares/threadx/common/src/tx_trace_object_register.c ****                 /* Yes, an entry has been found...  */
 208:../Middlewares/threadx/common/src/tx_trace_object_register.c **** 
 209:../Middlewares/threadx/common/src/tx_trace_object_register.c ****                 /* Build a pointer to the found entry.  */
 210:../Middlewares/threadx/common/src/tx_trace_object_register.c ****                 work_ptr =   TX_OBJECT_TO_UCHAR_POINTER_CONVERT(_tx_trace_registry_start_ptr);
ARM GAS  /tmp/cc8X2vvc.s 			page 8


 211:../Middlewares/threadx/common/src/tx_trace_object_register.c ****                 work_ptr =   TX_UCHAR_POINTER_ADD(work_ptr, ((sizeof(TX_TRACE_OBJECT_ENTRY))*found)
 181              		.loc 1 211 30 view .LVU62
 182 0084 3022     		movs	r2, #48
 212:../Middlewares/threadx/common/src/tx_trace_object_register.c ****                 entry_ptr =  TX_UCHAR_TO_OBJECT_POINTER_CONVERT(work_ptr);
 213:../Middlewares/threadx/common/src/tx_trace_object_register.c **** 
 214:../Middlewares/threadx/common/src/tx_trace_object_register.c ****                 /* Populate the found entry!  */
 215:../Middlewares/threadx/common/src/tx_trace_object_register.c ****                 entry_ptr -> tx_trace_object_entry_available =       ((UCHAR) TX_FALSE);
 183              		.loc 1 215 62 view .LVU63
 184 0086 0025     		movs	r5, #0
 185              	.LVL19:
 211:../Middlewares/threadx/common/src/tx_trace_object_register.c ****                 entry_ptr =  TX_UCHAR_TO_OBJECT_POINTER_CONVERT(work_ptr);
 186              		.loc 1 211 30 view .LVU64
 187 0088 5343     		muls	r3, r2, r3
 188              	.LVL20:
 191:../Middlewares/threadx/common/src/tx_trace_object_register.c **** 
 189              		.loc 1 191 53 view .LVU65
 190 008a 013E     		subs	r6, r6, #1
 211:../Middlewares/threadx/common/src/tx_trace_object_register.c ****                 entry_ptr =  TX_UCHAR_TO_OBJECT_POINTER_CONVERT(work_ptr);
 191              		.loc 1 211 26 view .LVU66
 192 008c E218     		adds	r2, r4, r3
 191:../Middlewares/threadx/common/src/tx_trace_object_register.c **** 
 193              		.loc 1 191 53 view .LVU67
 194 008e CEF80060 		str	r6, [lr]
 194:../Middlewares/threadx/common/src/tx_trace_object_register.c ****                 {
 195              		.loc 1 194 17 is_stmt 1 view .LVU68
 210:../Middlewares/threadx/common/src/tx_trace_object_register.c ****                 work_ptr =   TX_UCHAR_POINTER_ADD(work_ptr, ((sizeof(TX_TRACE_OBJECT_ENTRY))*found)
 196              		.loc 1 210 17 view .LVU69
 197              	.LVL21:
 211:../Middlewares/threadx/common/src/tx_trace_object_register.c ****                 entry_ptr =  TX_UCHAR_TO_OBJECT_POINTER_CONVERT(work_ptr);
 198              		.loc 1 211 17 view .LVU70
 212:../Middlewares/threadx/common/src/tx_trace_object_register.c **** 
 199              		.loc 1 212 17 view .LVU71
 200              		.loc 1 215 17 view .LVU72
 201              		.loc 1 215 62 is_stmt 0 view .LVU73
 202 0092 E554     		strb	r5, [r4, r3]
 203              	.LVL22:
 216:../Middlewares/threadx/common/src/tx_trace_object_register.c ****                 entry_ptr -> tx_trace_object_entry_type =            object_type;
 204              		.loc 1 216 17 is_stmt 1 view .LVU74
 217:../Middlewares/threadx/common/src/tx_trace_object_register.c ****                 entry_ptr -> tx_trace_object_entry_thread_pointer =  TX_POINTER_TO_ULONG_CONVERT(ob
 218:../Middlewares/threadx/common/src/tx_trace_object_register.c ****                 entry_ptr -> tx_trace_object_entry_param_1 =         parameter_1;
 205              		.loc 1 218 60 is_stmt 0 view .LVU75
 206 0094 019B     		ldr	r3, [sp, #4]
 216:../Middlewares/threadx/common/src/tx_trace_object_register.c ****                 entry_ptr -> tx_trace_object_entry_type =            object_type;
 207              		.loc 1 216 57 view .LVU76
 208 0096 5070     		strb	r0, [r2, #1]
 217:../Middlewares/threadx/common/src/tx_trace_object_register.c ****                 entry_ptr -> tx_trace_object_entry_thread_pointer =  TX_POINTER_TO_ULONG_CONVERT(ob
 209              		.loc 1 217 17 is_stmt 1 view .LVU77
 210              		.loc 1 218 60 is_stmt 0 view .LVU78
 211 0098 9360     		str	r3, [r2, #8]
 219:../Middlewares/threadx/common/src/tx_trace_object_register.c ****                 entry_ptr -> tx_trace_object_entry_param_2 =         parameter_2;
 212              		.loc 1 219 60 view .LVU79
 213 009a 0C9B     		ldr	r3, [sp, #48]
 217:../Middlewares/threadx/common/src/tx_trace_object_register.c ****                 entry_ptr -> tx_trace_object_entry_thread_pointer =  TX_POINTER_TO_ULONG_CONVERT(ob
 214              		.loc 1 217 67 view .LVU80
 215 009c 5160     		str	r1, [r2, #4]
 218:../Middlewares/threadx/common/src/tx_trace_object_register.c ****                 entry_ptr -> tx_trace_object_entry_param_2 =         parameter_2;
 216              		.loc 1 218 17 is_stmt 1 view .LVU81
ARM GAS  /tmp/cc8X2vvc.s 			page 9


 217              		.loc 1 219 17 view .LVU82
 218              		.loc 1 219 60 is_stmt 0 view .LVU83
 219 009e D360     		str	r3, [r2, #12]
 220:../Middlewares/threadx/common/src/tx_trace_object_register.c **** 
 221:../Middlewares/threadx/common/src/tx_trace_object_register.c ****                 /* Loop to copy the object name string...  */
 222:../Middlewares/threadx/common/src/tx_trace_object_register.c ****                 for (i = ((ULONG) 0); i < (((ULONG) TX_TRACE_OBJECT_REGISTRY_NAME)-((ULONG) 1)); i+
 220              		.loc 1 222 17 is_stmt 1 view .LVU84
 221              	.LVL23:
 222              		.loc 1 222 41 discriminator 1 view .LVU85
 223 00a0 009B     		ldr	r3, [sp]
 224 00a2 02F10F06 		add	r6, r2, #15
 225 00a6 5C1E     		subs	r4, r3, #1
 226              		.loc 1 222 24 is_stmt 0 view .LVU86
 227 00a8 2B46     		mov	r3, r5
 228 00aa 1F25     		movs	r5, #31
 229              	.LVL24:
 230              	.L10:
 223:../Middlewares/threadx/common/src/tx_trace_object_register.c ****                 {
 224:../Middlewares/threadx/common/src/tx_trace_object_register.c **** 
 225:../Middlewares/threadx/common/src/tx_trace_object_register.c ****                     /* Setup work pointer to the object name character.  */
 226:../Middlewares/threadx/common/src/tx_trace_object_register.c ****                     work_ptr =  TX_CHAR_TO_UCHAR_POINTER_CONVERT(object_name);
 231              		.loc 1 226 21 is_stmt 1 view .LVU87
 227:../Middlewares/threadx/common/src/tx_trace_object_register.c ****                     work_ptr =  TX_UCHAR_POINTER_ADD(work_ptr, i);
 232              		.loc 1 227 21 view .LVU88
 228:../Middlewares/threadx/common/src/tx_trace_object_register.c **** 
 229:../Middlewares/threadx/common/src/tx_trace_object_register.c ****                     /* Determine if object_name (work_ptr) is null.  */
 230:../Middlewares/threadx/common/src/tx_trace_object_register.c ****                     if (work_ptr == TX_NULL)
 233              		.loc 1 230 21 view .LVU89
 234              		.loc 1 230 24 is_stmt 0 view .LVU90
 235 00ac 671C     		adds	r7, r4, #1
 236 00ae 08D0     		beq	.L11
 231:../Middlewares/threadx/common/src/tx_trace_object_register.c ****                     {
 232:../Middlewares/threadx/common/src/tx_trace_object_register.c ****                         break;
 233:../Middlewares/threadx/common/src/tx_trace_object_register.c ****                     }
 234:../Middlewares/threadx/common/src/tx_trace_object_register.c **** 
 235:../Middlewares/threadx/common/src/tx_trace_object_register.c ****                     /* Copy a character of the name.  */
 236:../Middlewares/threadx/common/src/tx_trace_object_register.c ****                     entry_ptr -> tx_trace_object_entry_name[i] =  (UCHAR) *work_ptr;
 237              		.loc 1 236 21 is_stmt 1 view .LVU91
 238              		.loc 1 236 75 is_stmt 0 view .LVU92
 239 00b0 14F8017F 		ldrb	r7, [r4, #1]!	@ zero_extendqisi2
 240              		.loc 1 236 64 view .LVU93
 241 00b4 06F8017F 		strb	r7, [r6, #1]!
 237:../Middlewares/threadx/common/src/tx_trace_object_register.c **** 
 238:../Middlewares/threadx/common/src/tx_trace_object_register.c ****                     /* Determine if we are at the end.  */
 239:../Middlewares/threadx/common/src/tx_trace_object_register.c ****                     if (*work_ptr == ((UCHAR) 0))
 242              		.loc 1 239 21 is_stmt 1 view .LVU94
 243              		.loc 1 239 24 is_stmt 0 view .LVU95
 244 00b8 1FB1     		cbz	r7, .L11
 222:../Middlewares/threadx/common/src/tx_trace_object_register.c ****                 {
 245              		.loc 1 222 99 is_stmt 1 discriminator 2 view .LVU96
 222:../Middlewares/threadx/common/src/tx_trace_object_register.c ****                 {
 246              		.loc 1 222 41 is_stmt 0 discriminator 1 view .LVU97
 247 00ba 013D     		subs	r5, r5, #1
 222:../Middlewares/threadx/common/src/tx_trace_object_register.c ****                 {
 248              		.loc 1 222 99 discriminator 2 view .LVU98
 249 00bc 03F10103 		add	r3, r3, #1
 250              	.LVL25:
ARM GAS  /tmp/cc8X2vvc.s 			page 10


 222:../Middlewares/threadx/common/src/tx_trace_object_register.c ****                 {
 251              		.loc 1 222 41 is_stmt 1 discriminator 1 view .LVU99
 252 00c0 F4D1     		bne	.L10
 253              	.LVL26:
 254              	.L11:
 240:../Middlewares/threadx/common/src/tx_trace_object_register.c ****                     {
 241:../Middlewares/threadx/common/src/tx_trace_object_register.c ****                         break;
 242:../Middlewares/threadx/common/src/tx_trace_object_register.c ****                     }
 243:../Middlewares/threadx/common/src/tx_trace_object_register.c ****                 }
 244:../Middlewares/threadx/common/src/tx_trace_object_register.c **** 
 245:../Middlewares/threadx/common/src/tx_trace_object_register.c ****                 /* Null terminate the object string.  */
 246:../Middlewares/threadx/common/src/tx_trace_object_register.c ****                 entry_ptr -> tx_trace_object_entry_name[i] =  (UCHAR) 0;
 255              		.loc 1 246 17 view .LVU100
 256              		.loc 1 246 60 is_stmt 0 view .LVU101
 257 00c2 0024     		movs	r4, #0
 258 00c4 1344     		add	r3, r3, r2
 259              	.LVL27:
 260              		.loc 1 246 60 view .LVU102
 261 00c6 1C74     		strb	r4, [r3, #16]
 247:../Middlewares/threadx/common/src/tx_trace_object_register.c **** 
 248:../Middlewares/threadx/common/src/tx_trace_object_register.c ****                 /* Determine if a thread object type is present.  */
 249:../Middlewares/threadx/common/src/tx_trace_object_register.c ****                 if (object_type == TX_TRACE_OBJECT_TYPE_THREAD)
 262              		.loc 1 249 17 is_stmt 1 view .LVU103
 263              		.loc 1 249 20 is_stmt 0 view .LVU104
 264 00c8 0128     		cmp	r0, #1
 250:../Middlewares/threadx/common/src/tx_trace_object_register.c ****                 {
 251:../Middlewares/threadx/common/src/tx_trace_object_register.c **** 
 252:../Middlewares/threadx/common/src/tx_trace_object_register.c ****                     /* Yes, a thread object is present.  */
 253:../Middlewares/threadx/common/src/tx_trace_object_register.c **** 
 254:../Middlewares/threadx/common/src/tx_trace_object_register.c ****                     /* Setup a pointer to the thread.  */
 255:../Middlewares/threadx/common/src/tx_trace_object_register.c ****                     thread_ptr =  TX_VOID_TO_THREAD_POINTER_CONVERT(object_ptr);
 265              		.loc 1 255 21 is_stmt 1 view .LVU105
 266              	.LVL28:
 256:../Middlewares/threadx/common/src/tx_trace_object_register.c **** 
 257:../Middlewares/threadx/common/src/tx_trace_object_register.c ****                     /* Store the thread's priority in the reserved bits.  */
 258:../Middlewares/threadx/common/src/tx_trace_object_register.c ****                     entry_ptr -> tx_trace_object_entry_reserved1 =  ((UCHAR) 0x80) | ((UCHAR) (thre
 267              		.loc 1 258 21 view .LVU106
 268              		.loc 1 258 107 is_stmt 0 view .LVU107
 269 00ca 09BF     		itett	eq
 270 00cc C96A     		ldreq	r1, [r1, #44]
 271              	.LVL29:
 259:../Middlewares/threadx/common/src/tx_trace_object_register.c ****                     entry_ptr -> tx_trace_object_entry_reserved2 =  (UCHAR) (thread_ptr -> tx_threa
 260:../Middlewares/threadx/common/src/tx_trace_object_register.c ****                 }
 261:../Middlewares/threadx/common/src/tx_trace_object_register.c ****                 else
 262:../Middlewares/threadx/common/src/tx_trace_object_register.c ****                 {
 263:../Middlewares/threadx/common/src/tx_trace_object_register.c **** 
 264:../Middlewares/threadx/common/src/tx_trace_object_register.c ****                     /* For all other objects, set the reserved bytes to 0.  */
 265:../Middlewares/threadx/common/src/tx_trace_object_register.c ****                     entry_ptr -> tx_trace_object_entry_reserved1 =  ((UCHAR) 0);
 272              		.loc 1 265 66 view .LVU108
 273 00ce 5480     		strhne	r4, [r2, #2]	@ movhi
 258:../Middlewares/threadx/common/src/tx_trace_object_register.c ****                     entry_ptr -> tx_trace_object_entry_reserved2 =  (UCHAR) (thread_ptr -> tx_threa
 274              		.loc 1 258 129 view .LVU109
 275 00d0 0B0A     		lsreq	r3, r1, #8
 258:../Middlewares/threadx/common/src/tx_trace_object_register.c ****                     entry_ptr -> tx_trace_object_entry_reserved2 =  (UCHAR) (thread_ptr -> tx_threa
 276              		.loc 1 258 66 view .LVU110
 277 00d2 63F07F03 		orneq	r3, r3, #127
 278 00d6 04BF     		itt	eq
ARM GAS  /tmp/cc8X2vvc.s 			page 11


 279 00d8 9370     		strbeq	r3, [r2, #2]
 259:../Middlewares/threadx/common/src/tx_trace_object_register.c ****                     entry_ptr -> tx_trace_object_entry_reserved2 =  (UCHAR) (thread_ptr -> tx_threa
 280              		.loc 1 259 21 is_stmt 1 view .LVU111
 259:../Middlewares/threadx/common/src/tx_trace_object_register.c ****                     entry_ptr -> tx_trace_object_entry_reserved2 =  (UCHAR) (thread_ptr -> tx_threa
 281              		.loc 1 259 69 is_stmt 0 view .LVU112
 282 00da D170     		strbeq	r1, [r2, #3]
 283              		.loc 1 265 21 is_stmt 1 view .LVU113
 266:../Middlewares/threadx/common/src/tx_trace_object_register.c ****                     entry_ptr -> tx_trace_object_entry_reserved2 =  ((UCHAR) 0);
 284              		.loc 1 266 21 view .LVU114
 285              	.LVL30:
 286              	.L1:
 267:../Middlewares/threadx/common/src/tx_trace_object_register.c ****                 }
 268:../Middlewares/threadx/common/src/tx_trace_object_register.c ****             }
 269:../Middlewares/threadx/common/src/tx_trace_object_register.c ****         }
 270:../Middlewares/threadx/common/src/tx_trace_object_register.c ****     }
 271:../Middlewares/threadx/common/src/tx_trace_object_register.c **** #else
 272:../Middlewares/threadx/common/src/tx_trace_object_register.c **** 
 273:../Middlewares/threadx/common/src/tx_trace_object_register.c **** TX_INTERRUPT_SAVE_AREA
 274:../Middlewares/threadx/common/src/tx_trace_object_register.c **** 
 275:../Middlewares/threadx/common/src/tx_trace_object_register.c **** 
 276:../Middlewares/threadx/common/src/tx_trace_object_register.c ****     /* Access input arguments just for the sake of lint, MISRA, etc.  */
 277:../Middlewares/threadx/common/src/tx_trace_object_register.c ****     if (object_type != ((UCHAR) 0))
 278:../Middlewares/threadx/common/src/tx_trace_object_register.c ****     {
 279:../Middlewares/threadx/common/src/tx_trace_object_register.c **** 
 280:../Middlewares/threadx/common/src/tx_trace_object_register.c ****         if (object_ptr != TX_NULL)
 281:../Middlewares/threadx/common/src/tx_trace_object_register.c ****         {
 282:../Middlewares/threadx/common/src/tx_trace_object_register.c **** 
 283:../Middlewares/threadx/common/src/tx_trace_object_register.c ****             if (object_name != TX_NULL)
 284:../Middlewares/threadx/common/src/tx_trace_object_register.c ****             {
 285:../Middlewares/threadx/common/src/tx_trace_object_register.c **** 
 286:../Middlewares/threadx/common/src/tx_trace_object_register.c ****                 if (parameter_1 != ((ULONG) 0))
 287:../Middlewares/threadx/common/src/tx_trace_object_register.c ****                 {
 288:../Middlewares/threadx/common/src/tx_trace_object_register.c **** 
 289:../Middlewares/threadx/common/src/tx_trace_object_register.c ****                     if (parameter_2 != ((ULONG) 0))
 290:../Middlewares/threadx/common/src/tx_trace_object_register.c ****                     {
 291:../Middlewares/threadx/common/src/tx_trace_object_register.c **** 
 292:../Middlewares/threadx/common/src/tx_trace_object_register.c ****                         /* NOP code.  */
 293:../Middlewares/threadx/common/src/tx_trace_object_register.c ****                         TX_DISABLE
 294:../Middlewares/threadx/common/src/tx_trace_object_register.c ****                         TX_RESTORE
 295:../Middlewares/threadx/common/src/tx_trace_object_register.c ****                     }
 296:../Middlewares/threadx/common/src/tx_trace_object_register.c ****                 }
 297:../Middlewares/threadx/common/src/tx_trace_object_register.c ****             }
 298:../Middlewares/threadx/common/src/tx_trace_object_register.c ****         }
 299:../Middlewares/threadx/common/src/tx_trace_object_register.c ****     }
 300:../Middlewares/threadx/common/src/tx_trace_object_register.c **** #endif
 301:../Middlewares/threadx/common/src/tx_trace_object_register.c **** }
 287              		.loc 1 301 1 is_stmt 0 view .LVU115
 288 00dc 03B0     		add	sp, sp, #12
 289              		.cfi_remember_state
 290              		.cfi_def_cfa_offset 36
 291              	.LVL31:
 292              		.loc 1 301 1 view .LVU116
 293              		@ sp needed
 294 00de BDE8F08F 		pop	{r4, r5, r6, r7, r8, r9, r10, fp, pc}
 295              	.LVL32:
 296              	.L13:
 297              		.cfi_restore_state
ARM GAS  /tmp/cc8X2vvc.s 			page 12


 127:../Middlewares/threadx/common/src/tx_trace_object_register.c ****                     loop_break =  TX_TRUE;
 298              		.loc 1 127 27 view .LVU117
 299 00e2 1346     		mov	r3, r2
 300              	.LVL33:
 128:../Middlewares/threadx/common/src/tx_trace_object_register.c ****                 }
 301              		.loc 1 128 32 view .LVU118
 302 00e4 0127     		movs	r7, #1
 303              	.LVL34:
 128:../Middlewares/threadx/common/src/tx_trace_object_register.c ****                 }
 304              		.loc 1 128 32 view .LVU119
 305 00e6 ADE7     		b	.L3
 306              	.LVL35:
 307              	.L15:
 156:../Middlewares/threadx/common/src/tx_trace_object_register.c ****                     }
 308              		.loc 1 156 31 view .LVU120
 309 00e8 1346     		mov	r3, r2
 310              	.LVL36:
 156:../Middlewares/threadx/common/src/tx_trace_object_register.c ****                     }
 311              		.loc 1 156 31 view .LVU121
 312 00ea BDE7     		b	.L5
 313              	.LVL37:
 314              	.L14:
 137:../Middlewares/threadx/common/src/tx_trace_object_register.c ****                     loop_break =  TX_TRUE;
 315              		.loc 1 137 27 view .LVU122
 316 00ec 1346     		mov	r3, r2
 317              	.LVL38:
 137:../Middlewares/threadx/common/src/tx_trace_object_register.c ****                     loop_break =  TX_TRUE;
 318              		.loc 1 137 27 view .LVU123
 319 00ee C1E7     		b	.L4
 320              	.L37:
 321              		.align	2
 322              	.L36:
 323 00f0 00000000 		.word	_tx_trace_registry_start_ptr
 324 00f4 00000000 		.word	_tx_trace_total_registry_entries
 325 00f8 00000000 		.word	_tx_trace_available_registry_entries
 326 00fc 00000000 		.word	_tx_trace_registry_search_start
 327              		.cfi_endproc
 328              	.LFE8:
 330              		.text
 331              	.Letext0:
 332              		.file 2 "../Middlewares/threadx/ports/cortex_m55/gnu/inc/tx_port.h"
 333              		.file 3 "../Middlewares/threadx/common/inc/tx_api.h"
 334              		.file 4 "../Middlewares/threadx/common/inc/tx_trace.h"
ARM GAS  /tmp/cc8X2vvc.s 			page 13

