ARM GAS  /tmp/cc3mb8cs.s 			page 1


   1              		.arch armv8.1-m.main
   2              		.fpu fpv5-d16
   3              		.arch_extension dsp
   4              		.arch_extension fp
   5              		.arch_extension fp.dp
   6              		.arch_extension mve
   7              		.arch_extension mve.fp
   8              		.eabi_attribute 5, "cortex-m55"
   9              		.eabi_attribute 28, 1
  10              		.eabi_attribute 20, 1
  11              		.eabi_attribute 21, 1
  12              		.eabi_attribute 23, 3
  13              		.eabi_attribute 24, 1
  14              		.eabi_attribute 25, 1
  15              		.eabi_attribute 26, 1
  16              		.eabi_attribute 30, 4
  17              		.eabi_attribute 34, 1
  18              		.eabi_attribute 38, 1
  19              		.eabi_attribute 18, 4
  20              		.file	"tx_timer_initialize.c"
  21              		.text
  22              	.Ltext0:
  23              		.cfi_sections	.debug_frame
  24              		.file 1 "../Middlewares/threadx/common/src/tx_timer_initialize.c"
  25              		.section	.rodata._tx_timer_initialize.str1.1,"aMS",%progbits,1
  26              	.LC0:
  27 0000 53797374 		.ascii	"System Timer Thread\000"
  27      656D2054 
  27      696D6572 
  27      20546872 
  27      65616400 
  28              		.section	.text._tx_timer_initialize,"ax",%progbits
  29              		.align	1
  30              		.global	_tx_timer_initialize
  31              		.syntax unified
  32              		.thumb
  33              		.thumb_func
  35              	_tx_timer_initialize:
  36              	.LFB8:
   1:../Middlewares/threadx/common/src/tx_timer_initialize.c **** /**************************************************************************/
   2:../Middlewares/threadx/common/src/tx_timer_initialize.c **** /*                                                                        */
   3:../Middlewares/threadx/common/src/tx_timer_initialize.c **** /*       Copyright (c) Microsoft Corporation. All rights reserved.        */
   4:../Middlewares/threadx/common/src/tx_timer_initialize.c **** /*                                                                        */
   5:../Middlewares/threadx/common/src/tx_timer_initialize.c **** /*       This software is licensed under the Microsoft Software License   */
   6:../Middlewares/threadx/common/src/tx_timer_initialize.c **** /*       Terms for Microsoft Azure RTOS. Full text of the license can be  */
   7:../Middlewares/threadx/common/src/tx_timer_initialize.c **** /*       found in the LICENSE file at https://aka.ms/AzureRTOS_EULA       */
   8:../Middlewares/threadx/common/src/tx_timer_initialize.c **** /*       and in the root directory of this software.                      */
   9:../Middlewares/threadx/common/src/tx_timer_initialize.c **** /*                                                                        */
  10:../Middlewares/threadx/common/src/tx_timer_initialize.c **** /**************************************************************************/
  11:../Middlewares/threadx/common/src/tx_timer_initialize.c **** 
  12:../Middlewares/threadx/common/src/tx_timer_initialize.c **** 
  13:../Middlewares/threadx/common/src/tx_timer_initialize.c **** /**************************************************************************/
  14:../Middlewares/threadx/common/src/tx_timer_initialize.c **** /**************************************************************************/
  15:../Middlewares/threadx/common/src/tx_timer_initialize.c **** /**                                                                       */
  16:../Middlewares/threadx/common/src/tx_timer_initialize.c **** /** ThreadX Component                                                     */
  17:../Middlewares/threadx/common/src/tx_timer_initialize.c **** /**                                                                       */
  18:../Middlewares/threadx/common/src/tx_timer_initialize.c **** /**   Timer                                                               */
ARM GAS  /tmp/cc3mb8cs.s 			page 2


  19:../Middlewares/threadx/common/src/tx_timer_initialize.c **** /**                                                                       */
  20:../Middlewares/threadx/common/src/tx_timer_initialize.c **** /**************************************************************************/
  21:../Middlewares/threadx/common/src/tx_timer_initialize.c **** /**************************************************************************/
  22:../Middlewares/threadx/common/src/tx_timer_initialize.c **** 
  23:../Middlewares/threadx/common/src/tx_timer_initialize.c **** #define TX_SOURCE_CODE
  24:../Middlewares/threadx/common/src/tx_timer_initialize.c **** 
  25:../Middlewares/threadx/common/src/tx_timer_initialize.c **** 
  26:../Middlewares/threadx/common/src/tx_timer_initialize.c **** /* Include necessary system files.  */
  27:../Middlewares/threadx/common/src/tx_timer_initialize.c **** 
  28:../Middlewares/threadx/common/src/tx_timer_initialize.c **** #include "tx_api.h"
  29:../Middlewares/threadx/common/src/tx_timer_initialize.c **** #include "tx_thread.h"
  30:../Middlewares/threadx/common/src/tx_timer_initialize.c **** #include "tx_timer.h"
  31:../Middlewares/threadx/common/src/tx_timer_initialize.c **** 
  32:../Middlewares/threadx/common/src/tx_timer_initialize.c **** 
  33:../Middlewares/threadx/common/src/tx_timer_initialize.c **** /* Check for the TX_NO_TIMER option. When defined, do not define all of the
  34:../Middlewares/threadx/common/src/tx_timer_initialize.c ****    timer component global variables.  */
  35:../Middlewares/threadx/common/src/tx_timer_initialize.c **** 
  36:../Middlewares/threadx/common/src/tx_timer_initialize.c **** #ifndef TX_NO_TIMER
  37:../Middlewares/threadx/common/src/tx_timer_initialize.c **** 
  38:../Middlewares/threadx/common/src/tx_timer_initialize.c **** 
  39:../Middlewares/threadx/common/src/tx_timer_initialize.c **** /* Define the system clock value that is continually incremented by the
  40:../Middlewares/threadx/common/src/tx_timer_initialize.c ****    periodic timer interrupt processing.  */
  41:../Middlewares/threadx/common/src/tx_timer_initialize.c **** 
  42:../Middlewares/threadx/common/src/tx_timer_initialize.c **** volatile ULONG      _tx_timer_system_clock;
  43:../Middlewares/threadx/common/src/tx_timer_initialize.c **** 
  44:../Middlewares/threadx/common/src/tx_timer_initialize.c **** 
  45:../Middlewares/threadx/common/src/tx_timer_initialize.c **** /* Define the time-slice expiration flag.  This is used to indicate that a time-slice
  46:../Middlewares/threadx/common/src/tx_timer_initialize.c ****    has happened.  */
  47:../Middlewares/threadx/common/src/tx_timer_initialize.c **** 
  48:../Middlewares/threadx/common/src/tx_timer_initialize.c **** UINT                _tx_timer_expired_time_slice;
  49:../Middlewares/threadx/common/src/tx_timer_initialize.c **** 
  50:../Middlewares/threadx/common/src/tx_timer_initialize.c **** 
  51:../Middlewares/threadx/common/src/tx_timer_initialize.c **** /* Define the thread and application timer entry list.  This list provides a direct access
  52:../Middlewares/threadx/common/src/tx_timer_initialize.c ****    method for insertion of times less than TX_TIMER_ENTRIES.  */
  53:../Middlewares/threadx/common/src/tx_timer_initialize.c **** 
  54:../Middlewares/threadx/common/src/tx_timer_initialize.c **** TX_TIMER_INTERNAL   *_tx_timer_list[TX_TIMER_ENTRIES];
  55:../Middlewares/threadx/common/src/tx_timer_initialize.c **** 
  56:../Middlewares/threadx/common/src/tx_timer_initialize.c **** 
  57:../Middlewares/threadx/common/src/tx_timer_initialize.c **** /* Define the boundary pointers to the list.  These are setup to easily manage
  58:../Middlewares/threadx/common/src/tx_timer_initialize.c ****    wrapping the list.  */
  59:../Middlewares/threadx/common/src/tx_timer_initialize.c **** 
  60:../Middlewares/threadx/common/src/tx_timer_initialize.c **** TX_TIMER_INTERNAL   **_tx_timer_list_start;
  61:../Middlewares/threadx/common/src/tx_timer_initialize.c **** TX_TIMER_INTERNAL   **_tx_timer_list_end;
  62:../Middlewares/threadx/common/src/tx_timer_initialize.c **** 
  63:../Middlewares/threadx/common/src/tx_timer_initialize.c **** 
  64:../Middlewares/threadx/common/src/tx_timer_initialize.c **** /* Define the current timer pointer in the list.  This pointer is moved sequentially
  65:../Middlewares/threadx/common/src/tx_timer_initialize.c ****    through the timer list by the timer interrupt handler.  */
  66:../Middlewares/threadx/common/src/tx_timer_initialize.c **** 
  67:../Middlewares/threadx/common/src/tx_timer_initialize.c **** TX_TIMER_INTERNAL   **_tx_timer_current_ptr;
  68:../Middlewares/threadx/common/src/tx_timer_initialize.c **** 
  69:../Middlewares/threadx/common/src/tx_timer_initialize.c **** 
  70:../Middlewares/threadx/common/src/tx_timer_initialize.c **** /* Define the timer expiration flag.  This is used to indicate that a timer
  71:../Middlewares/threadx/common/src/tx_timer_initialize.c ****    has expired.  */
  72:../Middlewares/threadx/common/src/tx_timer_initialize.c **** 
  73:../Middlewares/threadx/common/src/tx_timer_initialize.c **** UINT                _tx_timer_expired;
  74:../Middlewares/threadx/common/src/tx_timer_initialize.c **** 
  75:../Middlewares/threadx/common/src/tx_timer_initialize.c **** 
ARM GAS  /tmp/cc3mb8cs.s 			page 3


  76:../Middlewares/threadx/common/src/tx_timer_initialize.c **** /* Define the created timer list head pointer.  */
  77:../Middlewares/threadx/common/src/tx_timer_initialize.c **** 
  78:../Middlewares/threadx/common/src/tx_timer_initialize.c **** TX_TIMER            *_tx_timer_created_ptr;
  79:../Middlewares/threadx/common/src/tx_timer_initialize.c **** 
  80:../Middlewares/threadx/common/src/tx_timer_initialize.c **** 
  81:../Middlewares/threadx/common/src/tx_timer_initialize.c **** /* Define the created timer count.  */
  82:../Middlewares/threadx/common/src/tx_timer_initialize.c **** 
  83:../Middlewares/threadx/common/src/tx_timer_initialize.c **** ULONG               _tx_timer_created_count;
  84:../Middlewares/threadx/common/src/tx_timer_initialize.c **** 
  85:../Middlewares/threadx/common/src/tx_timer_initialize.c **** 
  86:../Middlewares/threadx/common/src/tx_timer_initialize.c **** /* Define the pointer to the timer that has expired and is being processed.  */
  87:../Middlewares/threadx/common/src/tx_timer_initialize.c **** 
  88:../Middlewares/threadx/common/src/tx_timer_initialize.c **** TX_TIMER_INTERNAL  *_tx_timer_expired_timer_ptr;
  89:../Middlewares/threadx/common/src/tx_timer_initialize.c **** 
  90:../Middlewares/threadx/common/src/tx_timer_initialize.c **** 
  91:../Middlewares/threadx/common/src/tx_timer_initialize.c **** #ifndef TX_TIMER_PROCESS_IN_ISR
  92:../Middlewares/threadx/common/src/tx_timer_initialize.c **** 
  93:../Middlewares/threadx/common/src/tx_timer_initialize.c **** /* Define the timer thread's control block.  */
  94:../Middlewares/threadx/common/src/tx_timer_initialize.c **** 
  95:../Middlewares/threadx/common/src/tx_timer_initialize.c **** TX_THREAD           _tx_timer_thread;
  96:../Middlewares/threadx/common/src/tx_timer_initialize.c **** 
  97:../Middlewares/threadx/common/src/tx_timer_initialize.c **** 
  98:../Middlewares/threadx/common/src/tx_timer_initialize.c **** /* Define the variable that holds the timer thread's starting stack address.  */
  99:../Middlewares/threadx/common/src/tx_timer_initialize.c **** 
 100:../Middlewares/threadx/common/src/tx_timer_initialize.c **** VOID                *_tx_timer_stack_start;
 101:../Middlewares/threadx/common/src/tx_timer_initialize.c **** 
 102:../Middlewares/threadx/common/src/tx_timer_initialize.c **** 
 103:../Middlewares/threadx/common/src/tx_timer_initialize.c **** /* Define the variable that holds the timer thread's stack size.  */
 104:../Middlewares/threadx/common/src/tx_timer_initialize.c **** 
 105:../Middlewares/threadx/common/src/tx_timer_initialize.c **** ULONG               _tx_timer_stack_size;
 106:../Middlewares/threadx/common/src/tx_timer_initialize.c **** 
 107:../Middlewares/threadx/common/src/tx_timer_initialize.c **** 
 108:../Middlewares/threadx/common/src/tx_timer_initialize.c **** /* Define the variable that holds the timer thread's priority.  */
 109:../Middlewares/threadx/common/src/tx_timer_initialize.c **** 
 110:../Middlewares/threadx/common/src/tx_timer_initialize.c **** UINT                _tx_timer_priority;
 111:../Middlewares/threadx/common/src/tx_timer_initialize.c **** 
 112:../Middlewares/threadx/common/src/tx_timer_initialize.c **** /* Define the system timer thread's stack.   The default size is defined
 113:../Middlewares/threadx/common/src/tx_timer_initialize.c ****    in tx_port.h.  */
 114:../Middlewares/threadx/common/src/tx_timer_initialize.c **** 
 115:../Middlewares/threadx/common/src/tx_timer_initialize.c **** ULONG               _tx_timer_thread_stack_area[(((UINT) TX_TIMER_THREAD_STACK_SIZE)+((sizeof(ULONG
 116:../Middlewares/threadx/common/src/tx_timer_initialize.c **** 
 117:../Middlewares/threadx/common/src/tx_timer_initialize.c **** #else
 118:../Middlewares/threadx/common/src/tx_timer_initialize.c **** 
 119:../Middlewares/threadx/common/src/tx_timer_initialize.c **** 
 120:../Middlewares/threadx/common/src/tx_timer_initialize.c **** /* Define the busy flag that will prevent nested timer ISR processing.  */
 121:../Middlewares/threadx/common/src/tx_timer_initialize.c **** 
 122:../Middlewares/threadx/common/src/tx_timer_initialize.c **** UINT                _tx_timer_processing_active;
 123:../Middlewares/threadx/common/src/tx_timer_initialize.c **** 
 124:../Middlewares/threadx/common/src/tx_timer_initialize.c **** #endif
 125:../Middlewares/threadx/common/src/tx_timer_initialize.c **** 
 126:../Middlewares/threadx/common/src/tx_timer_initialize.c **** #ifdef TX_TIMER_ENABLE_PERFORMANCE_INFO
 127:../Middlewares/threadx/common/src/tx_timer_initialize.c **** 
 128:../Middlewares/threadx/common/src/tx_timer_initialize.c **** /* Define the total number of timer activations.  */
 129:../Middlewares/threadx/common/src/tx_timer_initialize.c **** 
 130:../Middlewares/threadx/common/src/tx_timer_initialize.c **** ULONG               _tx_timer_performance_activate_count;
 131:../Middlewares/threadx/common/src/tx_timer_initialize.c **** 
 132:../Middlewares/threadx/common/src/tx_timer_initialize.c **** 
ARM GAS  /tmp/cc3mb8cs.s 			page 4


 133:../Middlewares/threadx/common/src/tx_timer_initialize.c **** /* Define the total number of timer reactivations.  */
 134:../Middlewares/threadx/common/src/tx_timer_initialize.c **** 
 135:../Middlewares/threadx/common/src/tx_timer_initialize.c **** ULONG               _tx_timer_performance_reactivate_count;
 136:../Middlewares/threadx/common/src/tx_timer_initialize.c **** 
 137:../Middlewares/threadx/common/src/tx_timer_initialize.c **** 
 138:../Middlewares/threadx/common/src/tx_timer_initialize.c **** /* Define the total number of timer deactivations.  */
 139:../Middlewares/threadx/common/src/tx_timer_initialize.c **** 
 140:../Middlewares/threadx/common/src/tx_timer_initialize.c **** ULONG               _tx_timer_performance_deactivate_count;
 141:../Middlewares/threadx/common/src/tx_timer_initialize.c **** 
 142:../Middlewares/threadx/common/src/tx_timer_initialize.c **** 
 143:../Middlewares/threadx/common/src/tx_timer_initialize.c **** /* Define the total number of timer expirations.  */
 144:../Middlewares/threadx/common/src/tx_timer_initialize.c **** 
 145:../Middlewares/threadx/common/src/tx_timer_initialize.c **** ULONG               _tx_timer_performance_expiration_count;
 146:../Middlewares/threadx/common/src/tx_timer_initialize.c **** 
 147:../Middlewares/threadx/common/src/tx_timer_initialize.c **** 
 148:../Middlewares/threadx/common/src/tx_timer_initialize.c **** /* Define the total number of timer expiration adjustments. These are required
 149:../Middlewares/threadx/common/src/tx_timer_initialize.c ****    if the expiration time is greater than the size of the timer list. In such
 150:../Middlewares/threadx/common/src/tx_timer_initialize.c ****    cases, the timer is placed at the end of the list and then reactivated
 151:../Middlewares/threadx/common/src/tx_timer_initialize.c ****    as many times as necessary to finally achieve the resulting timeout. */
 152:../Middlewares/threadx/common/src/tx_timer_initialize.c **** 
 153:../Middlewares/threadx/common/src/tx_timer_initialize.c **** ULONG               _tx_timer_performance__expiration_adjust_count;
 154:../Middlewares/threadx/common/src/tx_timer_initialize.c **** 
 155:../Middlewares/threadx/common/src/tx_timer_initialize.c **** #endif
 156:../Middlewares/threadx/common/src/tx_timer_initialize.c **** #endif
 157:../Middlewares/threadx/common/src/tx_timer_initialize.c **** 
 158:../Middlewares/threadx/common/src/tx_timer_initialize.c **** 
 159:../Middlewares/threadx/common/src/tx_timer_initialize.c **** /* Define the current time slice value.  If non-zero, a time-slice is active.
 160:../Middlewares/threadx/common/src/tx_timer_initialize.c ****    Otherwise, the time_slice is not active.  */
 161:../Middlewares/threadx/common/src/tx_timer_initialize.c **** 
 162:../Middlewares/threadx/common/src/tx_timer_initialize.c **** ULONG               _tx_timer_time_slice;
 163:../Middlewares/threadx/common/src/tx_timer_initialize.c **** 
 164:../Middlewares/threadx/common/src/tx_timer_initialize.c **** 
 165:../Middlewares/threadx/common/src/tx_timer_initialize.c **** /**************************************************************************/
 166:../Middlewares/threadx/common/src/tx_timer_initialize.c **** /*                                                                        */
 167:../Middlewares/threadx/common/src/tx_timer_initialize.c **** /*  FUNCTION                                               RELEASE        */
 168:../Middlewares/threadx/common/src/tx_timer_initialize.c **** /*                                                                        */
 169:../Middlewares/threadx/common/src/tx_timer_initialize.c **** /*    _tx_timer_initialize                                PORTABLE C      */
 170:../Middlewares/threadx/common/src/tx_timer_initialize.c **** /*                                                           6.1          */
 171:../Middlewares/threadx/common/src/tx_timer_initialize.c **** /*  AUTHOR                                                                */
 172:../Middlewares/threadx/common/src/tx_timer_initialize.c **** /*                                                                        */
 173:../Middlewares/threadx/common/src/tx_timer_initialize.c **** /*    William E. Lamie, Microsoft Corporation                             */
 174:../Middlewares/threadx/common/src/tx_timer_initialize.c **** /*                                                                        */
 175:../Middlewares/threadx/common/src/tx_timer_initialize.c **** /*  DESCRIPTION                                                           */
 176:../Middlewares/threadx/common/src/tx_timer_initialize.c **** /*                                                                        */
 177:../Middlewares/threadx/common/src/tx_timer_initialize.c **** /*    This function initializes the various control data structures for   */
 178:../Middlewares/threadx/common/src/tx_timer_initialize.c **** /*    the clock control component.                                        */
 179:../Middlewares/threadx/common/src/tx_timer_initialize.c **** /*                                                                        */
 180:../Middlewares/threadx/common/src/tx_timer_initialize.c **** /*  INPUT                                                                 */
 181:../Middlewares/threadx/common/src/tx_timer_initialize.c **** /*                                                                        */
 182:../Middlewares/threadx/common/src/tx_timer_initialize.c **** /*    None                                                                */
 183:../Middlewares/threadx/common/src/tx_timer_initialize.c **** /*                                                                        */
 184:../Middlewares/threadx/common/src/tx_timer_initialize.c **** /*  OUTPUT                                                                */
 185:../Middlewares/threadx/common/src/tx_timer_initialize.c **** /*                                                                        */
 186:../Middlewares/threadx/common/src/tx_timer_initialize.c **** /*    None                                                                */
 187:../Middlewares/threadx/common/src/tx_timer_initialize.c **** /*                                                                        */
 188:../Middlewares/threadx/common/src/tx_timer_initialize.c **** /*  CALLS                                                                 */
 189:../Middlewares/threadx/common/src/tx_timer_initialize.c **** /*                                                                        */
ARM GAS  /tmp/cc3mb8cs.s 			page 5


 190:../Middlewares/threadx/common/src/tx_timer_initialize.c **** /*    _tx_thread_create                 Create the system timer thread    */
 191:../Middlewares/threadx/common/src/tx_timer_initialize.c **** /*                                                                        */
 192:../Middlewares/threadx/common/src/tx_timer_initialize.c **** /*  CALLED BY                                                             */
 193:../Middlewares/threadx/common/src/tx_timer_initialize.c **** /*                                                                        */
 194:../Middlewares/threadx/common/src/tx_timer_initialize.c **** /*    _tx_initialize_high_level         High level initialization         */
 195:../Middlewares/threadx/common/src/tx_timer_initialize.c **** /*                                                                        */
 196:../Middlewares/threadx/common/src/tx_timer_initialize.c **** /*  RELEASE HISTORY                                                       */
 197:../Middlewares/threadx/common/src/tx_timer_initialize.c **** /*                                                                        */
 198:../Middlewares/threadx/common/src/tx_timer_initialize.c **** /*    DATE              NAME                      DESCRIPTION             */
 199:../Middlewares/threadx/common/src/tx_timer_initialize.c **** /*                                                                        */
 200:../Middlewares/threadx/common/src/tx_timer_initialize.c **** /*  05-19-2020     William E. Lamie         Initial Version 6.0           */
 201:../Middlewares/threadx/common/src/tx_timer_initialize.c **** /*  09-30-2020     Yuxin Zhou               Modified comment(s),          */
 202:../Middlewares/threadx/common/src/tx_timer_initialize.c **** /*                                            resulting in version 6.1    */
 203:../Middlewares/threadx/common/src/tx_timer_initialize.c **** /*                                                                        */
 204:../Middlewares/threadx/common/src/tx_timer_initialize.c **** /**************************************************************************/
 205:../Middlewares/threadx/common/src/tx_timer_initialize.c **** VOID  _tx_timer_initialize(VOID)
 206:../Middlewares/threadx/common/src/tx_timer_initialize.c **** {
  37              		.loc 1 206 1 view -0
  38              		.cfi_startproc
  39              		@ args = 0, pretend = 0, frame = 0
  40              		@ frame_needed = 0, uses_anonymous_args = 0
 207:../Middlewares/threadx/common/src/tx_timer_initialize.c **** #ifndef TX_NO_TIMER
 208:../Middlewares/threadx/common/src/tx_timer_initialize.c **** #ifndef TX_TIMER_PROCESS_IN_ISR
 209:../Middlewares/threadx/common/src/tx_timer_initialize.c **** UINT    status;
  41              		.loc 1 209 1 view .LVU1
 210:../Middlewares/threadx/common/src/tx_timer_initialize.c **** #endif
 211:../Middlewares/threadx/common/src/tx_timer_initialize.c **** 
 212:../Middlewares/threadx/common/src/tx_timer_initialize.c **** #ifndef TX_DISABLE_REDUNDANT_CLEARING
 213:../Middlewares/threadx/common/src/tx_timer_initialize.c **** 
 214:../Middlewares/threadx/common/src/tx_timer_initialize.c ****     /* Initialize the system clock to 0.  */
 215:../Middlewares/threadx/common/src/tx_timer_initialize.c ****     _tx_timer_system_clock =  ((ULONG) 0);
  42              		.loc 1 215 5 view .LVU2
 206:../Middlewares/threadx/common/src/tx_timer_initialize.c **** #ifndef TX_NO_TIMER
  43              		.loc 1 206 1 is_stmt 0 view .LVU3
  44 0000 F0B5     		push	{r4, r5, r6, r7, lr}
  45              		.cfi_def_cfa_offset 20
  46              		.cfi_offset 4, -20
  47              		.cfi_offset 5, -16
  48              		.cfi_offset 6, -12
  49              		.cfi_offset 7, -8
  50              		.cfi_offset 14, -4
  51              		.loc 1 215 28 view .LVU4
  52 0002 0024     		movs	r4, #0
  53 0004 1C4B     		ldr	r3, .L4
 206:../Middlewares/threadx/common/src/tx_timer_initialize.c **** #ifndef TX_NO_TIMER
  54              		.loc 1 206 1 view .LVU5
  55 0006 87B0     		sub	sp, sp, #28
  56              		.cfi_def_cfa_offset 48
  57              		.loc 1 215 28 view .LVU6
  58 0008 1C60     		str	r4, [r3]
 216:../Middlewares/threadx/common/src/tx_timer_initialize.c **** 
 217:../Middlewares/threadx/common/src/tx_timer_initialize.c ****     /* Initialize the time-slice value to 0 to make sure it is disabled.  */
 218:../Middlewares/threadx/common/src/tx_timer_initialize.c ****     _tx_timer_time_slice =  ((ULONG) 0);
  59              		.loc 1 218 5 is_stmt 1 view .LVU7
  60              		.loc 1 218 26 is_stmt 0 view .LVU8
  61 000a 1C4B     		ldr	r3, .L4+4
 219:../Middlewares/threadx/common/src/tx_timer_initialize.c **** 
ARM GAS  /tmp/cc3mb8cs.s 			page 6


 220:../Middlewares/threadx/common/src/tx_timer_initialize.c ****     /* Clear the expired flags.  */
 221:../Middlewares/threadx/common/src/tx_timer_initialize.c ****     _tx_timer_expired_time_slice =  TX_FALSE;
 222:../Middlewares/threadx/common/src/tx_timer_initialize.c ****     _tx_timer_expired =             TX_FALSE;
 223:../Middlewares/threadx/common/src/tx_timer_initialize.c **** 
 224:../Middlewares/threadx/common/src/tx_timer_initialize.c ****     /* Set the currently expired timer being processed pointer to NULL.  */
 225:../Middlewares/threadx/common/src/tx_timer_initialize.c ****     _tx_timer_expired_timer_ptr =  TX_NULL;
 226:../Middlewares/threadx/common/src/tx_timer_initialize.c **** 
 227:../Middlewares/threadx/common/src/tx_timer_initialize.c ****     /* Initialize the thread and application timer management control structures.  */
 228:../Middlewares/threadx/common/src/tx_timer_initialize.c **** 
 229:../Middlewares/threadx/common/src/tx_timer_initialize.c ****     /* First, initialize the timer list.  */
 230:../Middlewares/threadx/common/src/tx_timer_initialize.c ****     TX_MEMSET(&_tx_timer_list[0], 0, (sizeof(_tx_timer_list)));
  62              		.loc 1 230 5 view .LVU9
  63 000c 8022     		movs	r2, #128
 218:../Middlewares/threadx/common/src/tx_timer_initialize.c **** 
  64              		.loc 1 218 26 view .LVU10
  65 000e 1C60     		str	r4, [r3]
 221:../Middlewares/threadx/common/src/tx_timer_initialize.c ****     _tx_timer_expired =             TX_FALSE;
  66              		.loc 1 221 5 is_stmt 1 view .LVU11
 221:../Middlewares/threadx/common/src/tx_timer_initialize.c ****     _tx_timer_expired =             TX_FALSE;
  67              		.loc 1 221 34 is_stmt 0 view .LVU12
  68 0010 1B4B     		ldr	r3, .L4+8
  69              		.loc 1 230 5 view .LVU13
  70 0012 2146     		mov	r1, r4
 221:../Middlewares/threadx/common/src/tx_timer_initialize.c ****     _tx_timer_expired =             TX_FALSE;
  71              		.loc 1 221 34 view .LVU14
  72 0014 1C60     		str	r4, [r3]
 222:../Middlewares/threadx/common/src/tx_timer_initialize.c **** 
  73              		.loc 1 222 5 is_stmt 1 view .LVU15
 222:../Middlewares/threadx/common/src/tx_timer_initialize.c **** 
  74              		.loc 1 222 23 is_stmt 0 view .LVU16
  75 0016 1B4B     		ldr	r3, .L4+12
 231:../Middlewares/threadx/common/src/tx_timer_initialize.c **** #endif
 232:../Middlewares/threadx/common/src/tx_timer_initialize.c **** 
 233:../Middlewares/threadx/common/src/tx_timer_initialize.c ****     /* Initialize all of the list pointers.  */
 234:../Middlewares/threadx/common/src/tx_timer_initialize.c ****     _tx_timer_list_start =   &_tx_timer_list[0];
 235:../Middlewares/threadx/common/src/tx_timer_initialize.c ****     _tx_timer_current_ptr =  &_tx_timer_list[0];
 236:../Middlewares/threadx/common/src/tx_timer_initialize.c **** 
 237:../Middlewares/threadx/common/src/tx_timer_initialize.c ****     /* Set the timer list end pointer to one past the actual timer list.  This is done
 238:../Middlewares/threadx/common/src/tx_timer_initialize.c ****        to make the timer interrupt handling in assembly language a little easier.  */
 239:../Middlewares/threadx/common/src/tx_timer_initialize.c ****     _tx_timer_list_end =     &_tx_timer_list[TX_TIMER_ENTRIES-((ULONG) 1)];
 240:../Middlewares/threadx/common/src/tx_timer_initialize.c ****     _tx_timer_list_end =     TX_TIMER_POINTER_ADD(_tx_timer_list_end, ((ULONG) 1));
 241:../Middlewares/threadx/common/src/tx_timer_initialize.c **** 
 242:../Middlewares/threadx/common/src/tx_timer_initialize.c **** #ifndef TX_TIMER_PROCESS_IN_ISR
 243:../Middlewares/threadx/common/src/tx_timer_initialize.c **** 
 244:../Middlewares/threadx/common/src/tx_timer_initialize.c ****     /* Setup the variables associated with the system timer thread's stack and
 245:../Middlewares/threadx/common/src/tx_timer_initialize.c ****        priority.  */
 246:../Middlewares/threadx/common/src/tx_timer_initialize.c ****     _tx_timer_stack_start =  (VOID *) &_tx_timer_thread_stack_area[0];
  76              		.loc 1 246 27 view .LVU17
  77 0018 1B4D     		ldr	r5, .L4+16
 222:../Middlewares/threadx/common/src/tx_timer_initialize.c **** 
  78              		.loc 1 222 23 view .LVU18
  79 001a 1C60     		str	r4, [r3]
 225:../Middlewares/threadx/common/src/tx_timer_initialize.c **** 
  80              		.loc 1 225 5 is_stmt 1 view .LVU19
 225:../Middlewares/threadx/common/src/tx_timer_initialize.c **** 
  81              		.loc 1 225 33 is_stmt 0 view .LVU20
  82 001c 1B4B     		ldr	r3, .L4+20
ARM GAS  /tmp/cc3mb8cs.s 			page 7


 247:../Middlewares/threadx/common/src/tx_timer_initialize.c ****     _tx_timer_stack_size =   ((ULONG) TX_TIMER_THREAD_STACK_SIZE);
  83              		.loc 1 247 26 view .LVU21
  84 001e 1C4E     		ldr	r6, .L4+24
 225:../Middlewares/threadx/common/src/tx_timer_initialize.c **** 
  85              		.loc 1 225 33 view .LVU22
  86 0020 1C60     		str	r4, [r3]
 230:../Middlewares/threadx/common/src/tx_timer_initialize.c **** #endif
  87              		.loc 1 230 5 is_stmt 1 view .LVU23
  88 0022 1C4B     		ldr	r3, .L4+28
 248:../Middlewares/threadx/common/src/tx_timer_initialize.c ****     _tx_timer_priority =     ((UINT) TX_TIMER_THREAD_PRIORITY);
  89              		.loc 1 248 24 is_stmt 0 view .LVU24
  90 0024 1C4F     		ldr	r7, .L4+32
 230:../Middlewares/threadx/common/src/tx_timer_initialize.c **** #endif
  91              		.loc 1 230 5 view .LVU25
  92 0026 1846     		mov	r0, r3
  93 0028 FFF7FEFF 		bl	memset
  94              	.LVL0:
  95 002c 0346     		mov	r3, r0
 234:../Middlewares/threadx/common/src/tx_timer_initialize.c ****     _tx_timer_current_ptr =  &_tx_timer_list[0];
  96              		.loc 1 234 5 is_stmt 1 view .LVU26
 234:../Middlewares/threadx/common/src/tx_timer_initialize.c ****     _tx_timer_current_ptr =  &_tx_timer_list[0];
  97              		.loc 1 234 26 is_stmt 0 view .LVU27
  98 002e 1B4A     		ldr	r2, .L4+36
 240:../Middlewares/threadx/common/src/tx_timer_initialize.c **** 
  99              		.loc 1 240 24 view .LVU28
 100 0030 8033     		adds	r3, r3, #128
 234:../Middlewares/threadx/common/src/tx_timer_initialize.c ****     _tx_timer_current_ptr =  &_tx_timer_list[0];
 101              		.loc 1 234 26 view .LVU29
 102 0032 1060     		str	r0, [r2]
 235:../Middlewares/threadx/common/src/tx_timer_initialize.c **** 
 103              		.loc 1 235 5 is_stmt 1 view .LVU30
 235:../Middlewares/threadx/common/src/tx_timer_initialize.c **** 
 104              		.loc 1 235 27 is_stmt 0 view .LVU31
 105 0034 1A4A     		ldr	r2, .L4+40
 106              		.loc 1 248 24 view .LVU32
 107 0036 3C60     		str	r4, [r7]
 235:../Middlewares/threadx/common/src/tx_timer_initialize.c **** 
 108              		.loc 1 235 27 view .LVU33
 109 0038 1060     		str	r0, [r2]
 239:../Middlewares/threadx/common/src/tx_timer_initialize.c ****     _tx_timer_list_end =     TX_TIMER_POINTER_ADD(_tx_timer_list_end, ((ULONG) 1));
 110              		.loc 1 239 5 is_stmt 1 view .LVU34
 240:../Middlewares/threadx/common/src/tx_timer_initialize.c **** 
 111              		.loc 1 240 5 view .LVU35
 240:../Middlewares/threadx/common/src/tx_timer_initialize.c **** 
 112              		.loc 1 240 24 is_stmt 0 view .LVU36
 113 003a 1A4A     		ldr	r2, .L4+44
 114 003c 1360     		str	r3, [r2]
 246:../Middlewares/threadx/common/src/tx_timer_initialize.c ****     _tx_timer_stack_size =   ((ULONG) TX_TIMER_THREAD_STACK_SIZE);
 115              		.loc 1 246 5 is_stmt 1 view .LVU37
 246:../Middlewares/threadx/common/src/tx_timer_initialize.c ****     _tx_timer_stack_size =   ((ULONG) TX_TIMER_THREAD_STACK_SIZE);
 116              		.loc 1 246 27 is_stmt 0 view .LVU38
 117 003e 1A4B     		ldr	r3, .L4+48
 118 0040 2B60     		str	r3, [r5]
 247:../Middlewares/threadx/common/src/tx_timer_initialize.c ****     _tx_timer_priority =     ((UINT) TX_TIMER_THREAD_PRIORITY);
 119              		.loc 1 247 5 is_stmt 1 view .LVU39
 247:../Middlewares/threadx/common/src/tx_timer_initialize.c ****     _tx_timer_priority =     ((UINT) TX_TIMER_THREAD_PRIORITY);
 120              		.loc 1 247 26 is_stmt 0 view .LVU40
ARM GAS  /tmp/cc3mb8cs.s 			page 8


 121 0042 4FF48063 		mov	r3, #1024
 122 0046 3360     		str	r3, [r6]
 123              		.loc 1 248 5 is_stmt 1 view .LVU41
 124              	.L2:
 249:../Middlewares/threadx/common/src/tx_timer_initialize.c **** 
 250:../Middlewares/threadx/common/src/tx_timer_initialize.c ****     /* Create the system timer thread.  This thread processes all of the timer
 251:../Middlewares/threadx/common/src/tx_timer_initialize.c ****        expirations and reschedules.  Its stack and priority are defined in the
 252:../Middlewares/threadx/common/src/tx_timer_initialize.c ****        low-level initialization component.  */
 253:../Middlewares/threadx/common/src/tx_timer_initialize.c ****     do
 125              		.loc 1 253 5 view .LVU42
 254:../Middlewares/threadx/common/src/tx_timer_initialize.c ****     {
 255:../Middlewares/threadx/common/src/tx_timer_initialize.c **** 
 256:../Middlewares/threadx/common/src/tx_timer_initialize.c ****         /* Create the system timer thread.  */
 257:../Middlewares/threadx/common/src/tx_timer_initialize.c ****         status =  _tx_thread_create(&_tx_timer_thread,
 126              		.loc 1 257 9 view .LVU43
 127              		.loc 1 257 19 is_stmt 0 view .LVU44
 128 0048 0022     		movs	r2, #0
 129 004a 3B68     		ldr	r3, [r7]
 130 004c CDE90422 		strd	r2, r2, [sp, #16]
 131 0050 CDE90233 		strd	r3, r3, [sp, #8]
 132 0054 3368     		ldr	r3, [r6]
 133 0056 154A     		ldr	r2, .L4+52
 134 0058 0193     		str	r3, [sp, #4]
 135 005a 2B68     		ldr	r3, [r5]
 136 005c 1449     		ldr	r1, .L4+56
 137 005e 0093     		str	r3, [sp]
 138 0060 1448     		ldr	r0, .L4+60
 139 0062 154B     		ldr	r3, .L4+64
 140 0064 FFF7FEFF 		bl	_tx_thread_create
 141              	.LVL1:
 258:../Middlewares/threadx/common/src/tx_timer_initialize.c ****                                     TX_CONST_CHAR_TO_CHAR_POINTER_CONVERT("System Timer Thread"),
 259:../Middlewares/threadx/common/src/tx_timer_initialize.c ****                                     _tx_timer_thread_entry,
 260:../Middlewares/threadx/common/src/tx_timer_initialize.c ****                                     ((ULONG) TX_TIMER_ID),
 261:../Middlewares/threadx/common/src/tx_timer_initialize.c ****                                     _tx_timer_stack_start, _tx_timer_stack_size,
 262:../Middlewares/threadx/common/src/tx_timer_initialize.c ****                                     _tx_timer_priority, _tx_timer_priority, TX_NO_TIME_SLICE, TX_DO
 263:../Middlewares/threadx/common/src/tx_timer_initialize.c **** 
 264:../Middlewares/threadx/common/src/tx_timer_initialize.c **** #ifdef TX_SAFETY_CRITICAL
 265:../Middlewares/threadx/common/src/tx_timer_initialize.c **** 
 266:../Middlewares/threadx/common/src/tx_timer_initialize.c ****         /* Check return from thread create - if an error is detected throw an exception.  */
 267:../Middlewares/threadx/common/src/tx_timer_initialize.c ****         if (status != TX_SUCCESS)
 268:../Middlewares/threadx/common/src/tx_timer_initialize.c ****         {
 269:../Middlewares/threadx/common/src/tx_timer_initialize.c **** 
 270:../Middlewares/threadx/common/src/tx_timer_initialize.c ****             /* Raise safety critical exception.  */
 271:../Middlewares/threadx/common/src/tx_timer_initialize.c ****             TX_SAFETY_CRITICAL_EXCEPTION(__FILE__, __LINE__, status);
 272:../Middlewares/threadx/common/src/tx_timer_initialize.c ****         }
 273:../Middlewares/threadx/common/src/tx_timer_initialize.c **** #endif
 274:../Middlewares/threadx/common/src/tx_timer_initialize.c **** 
 275:../Middlewares/threadx/common/src/tx_timer_initialize.c ****         /* Define timer initialize extension.  */
 276:../Middlewares/threadx/common/src/tx_timer_initialize.c ****         TX_TIMER_INITIALIZE_EXTENSION(status)
 277:../Middlewares/threadx/common/src/tx_timer_initialize.c **** 
 278:../Middlewares/threadx/common/src/tx_timer_initialize.c ****     } while (status != TX_SUCCESS);
 142              		.loc 1 278 21 is_stmt 1 discriminator 1 view .LVU45
 143 0068 0028     		cmp	r0, #0
 144 006a EDD1     		bne	.L2
 279:../Middlewares/threadx/common/src/tx_timer_initialize.c **** 
 280:../Middlewares/threadx/common/src/tx_timer_initialize.c **** #else
 281:../Middlewares/threadx/common/src/tx_timer_initialize.c **** 
ARM GAS  /tmp/cc3mb8cs.s 			page 9


 282:../Middlewares/threadx/common/src/tx_timer_initialize.c ****     /* Clear the timer interrupt processing active flag.  */
 283:../Middlewares/threadx/common/src/tx_timer_initialize.c ****     _tx_timer_processing_active =  TX_FALSE;
 284:../Middlewares/threadx/common/src/tx_timer_initialize.c **** #endif
 285:../Middlewares/threadx/common/src/tx_timer_initialize.c **** 
 286:../Middlewares/threadx/common/src/tx_timer_initialize.c **** #ifndef TX_DISABLE_REDUNDANT_CLEARING
 287:../Middlewares/threadx/common/src/tx_timer_initialize.c **** 
 288:../Middlewares/threadx/common/src/tx_timer_initialize.c ****     /* Initialize the head pointer of the created application timer list.  */
 289:../Middlewares/threadx/common/src/tx_timer_initialize.c ****     _tx_timer_created_ptr =  TX_NULL;
 145              		.loc 1 289 5 view .LVU46
 146              		.loc 1 289 27 is_stmt 0 view .LVU47
 147 006c 134B     		ldr	r3, .L4+68
 148 006e 1860     		str	r0, [r3]
 290:../Middlewares/threadx/common/src/tx_timer_initialize.c **** 
 291:../Middlewares/threadx/common/src/tx_timer_initialize.c ****     /* Set the created count to zero.  */
 292:../Middlewares/threadx/common/src/tx_timer_initialize.c ****     _tx_timer_created_count =  TX_EMPTY;
 149              		.loc 1 292 5 is_stmt 1 view .LVU48
 150              		.loc 1 292 29 is_stmt 0 view .LVU49
 151 0070 134B     		ldr	r3, .L4+72
 152 0072 1860     		str	r0, [r3]
 293:../Middlewares/threadx/common/src/tx_timer_initialize.c **** 
 294:../Middlewares/threadx/common/src/tx_timer_initialize.c **** #ifdef TX_TIMER_ENABLE_PERFORMANCE_INFO
 295:../Middlewares/threadx/common/src/tx_timer_initialize.c **** 
 296:../Middlewares/threadx/common/src/tx_timer_initialize.c ****     /* Initialize timer performance counters.  */
 297:../Middlewares/threadx/common/src/tx_timer_initialize.c ****     _tx_timer_performance_activate_count =           ((ULONG) 0);
 298:../Middlewares/threadx/common/src/tx_timer_initialize.c ****     _tx_timer_performance_reactivate_count =         ((ULONG) 0);
 299:../Middlewares/threadx/common/src/tx_timer_initialize.c ****     _tx_timer_performance_deactivate_count =         ((ULONG) 0);
 300:../Middlewares/threadx/common/src/tx_timer_initialize.c ****     _tx_timer_performance_expiration_count =         ((ULONG) 0);
 301:../Middlewares/threadx/common/src/tx_timer_initialize.c ****     _tx_timer_performance__expiration_adjust_count =  ((ULONG) 0);
 302:../Middlewares/threadx/common/src/tx_timer_initialize.c **** #endif
 303:../Middlewares/threadx/common/src/tx_timer_initialize.c **** #endif
 304:../Middlewares/threadx/common/src/tx_timer_initialize.c **** #endif
 305:../Middlewares/threadx/common/src/tx_timer_initialize.c **** }
 153              		.loc 1 305 1 view .LVU50
 154 0074 07B0     		add	sp, sp, #28
 155              		.cfi_def_cfa_offset 20
 156              		@ sp needed
 157 0076 F0BD     		pop	{r4, r5, r6, r7, pc}
 158              	.L5:
 159              		.align	2
 160              	.L4:
 161 0078 00000000 		.word	_tx_timer_system_clock
 162 007c 00000000 		.word	_tx_timer_time_slice
 163 0080 00000000 		.word	_tx_timer_expired_time_slice
 164 0084 00000000 		.word	_tx_timer_expired
 165 0088 00000000 		.word	_tx_timer_stack_start
 166 008c 00000000 		.word	_tx_timer_expired_timer_ptr
 167 0090 00000000 		.word	_tx_timer_stack_size
 168 0094 00000000 		.word	_tx_timer_list
 169 0098 00000000 		.word	_tx_timer_priority
 170 009c 00000000 		.word	_tx_timer_list_start
 171 00a0 00000000 		.word	_tx_timer_current_ptr
 172 00a4 00000000 		.word	_tx_timer_list_end
 173 00a8 00000000 		.word	_tx_timer_thread_stack_area
 174 00ac 00000000 		.word	_tx_timer_thread_entry
 175 00b0 00000000 		.word	.LC0
 176 00b4 00000000 		.word	_tx_timer_thread
 177 00b8 4D495441 		.word	1096042829
ARM GAS  /tmp/cc3mb8cs.s 			page 10


 178 00bc 00000000 		.word	_tx_timer_created_ptr
 179 00c0 00000000 		.word	_tx_timer_created_count
 180              		.cfi_endproc
 181              	.LFE8:
 183              		.global	_tx_timer_time_slice
 184              		.section	.bss._tx_timer_time_slice,"aw",%nobits
 185              		.align	2
 188              	_tx_timer_time_slice:
 189 0000 00000000 		.space	4
 190              		.global	_tx_timer_thread_stack_area
 191              		.section	.bss._tx_timer_thread_stack_area,"aw",%nobits
 192              		.align	2
 195              	_tx_timer_thread_stack_area:
 196 0000 00000000 		.space	1024
 196      00000000 
 196      00000000 
 196      00000000 
 196      00000000 
 197              		.global	_tx_timer_priority
 198              		.section	.bss._tx_timer_priority,"aw",%nobits
 199              		.align	2
 202              	_tx_timer_priority:
 203 0000 00000000 		.space	4
 204              		.global	_tx_timer_stack_size
 205              		.section	.bss._tx_timer_stack_size,"aw",%nobits
 206              		.align	2
 209              	_tx_timer_stack_size:
 210 0000 00000000 		.space	4
 211              		.global	_tx_timer_stack_start
 212              		.section	.bss._tx_timer_stack_start,"aw",%nobits
 213              		.align	2
 216              	_tx_timer_stack_start:
 217 0000 00000000 		.space	4
 218              		.global	_tx_timer_thread
 219              		.section	.bss._tx_timer_thread,"aw",%nobits
 220              		.align	2
 223              	_tx_timer_thread:
 224 0000 00000000 		.space	180
 224      00000000 
 224      00000000 
 224      00000000 
 224      00000000 
 225              		.global	_tx_timer_expired_timer_ptr
 226              		.section	.bss._tx_timer_expired_timer_ptr,"aw",%nobits
 227              		.align	2
 230              	_tx_timer_expired_timer_ptr:
 231 0000 00000000 		.space	4
 232              		.global	_tx_timer_created_count
 233              		.section	.bss._tx_timer_created_count,"aw",%nobits
 234              		.align	2
 237              	_tx_timer_created_count:
 238 0000 00000000 		.space	4
 239              		.global	_tx_timer_created_ptr
 240              		.section	.bss._tx_timer_created_ptr,"aw",%nobits
 241              		.align	2
 244              	_tx_timer_created_ptr:
 245 0000 00000000 		.space	4
ARM GAS  /tmp/cc3mb8cs.s 			page 11


 246              		.global	_tx_timer_expired
 247              		.section	.bss._tx_timer_expired,"aw",%nobits
 248              		.align	2
 251              	_tx_timer_expired:
 252 0000 00000000 		.space	4
 253              		.global	_tx_timer_current_ptr
 254              		.section	.bss._tx_timer_current_ptr,"aw",%nobits
 255              		.align	2
 258              	_tx_timer_current_ptr:
 259 0000 00000000 		.space	4
 260              		.global	_tx_timer_list_end
 261              		.section	.bss._tx_timer_list_end,"aw",%nobits
 262              		.align	2
 265              	_tx_timer_list_end:
 266 0000 00000000 		.space	4
 267              		.global	_tx_timer_list_start
 268              		.section	.bss._tx_timer_list_start,"aw",%nobits
 269              		.align	2
 272              	_tx_timer_list_start:
 273 0000 00000000 		.space	4
 274              		.global	_tx_timer_list
 275              		.section	.bss._tx_timer_list,"aw",%nobits
 276              		.align	2
 279              	_tx_timer_list:
 280 0000 00000000 		.space	128
 280      00000000 
 280      00000000 
 280      00000000 
 280      00000000 
 281              		.global	_tx_timer_expired_time_slice
 282              		.section	.bss._tx_timer_expired_time_slice,"aw",%nobits
 283              		.align	2
 286              	_tx_timer_expired_time_slice:
 287 0000 00000000 		.space	4
 288              		.global	_tx_timer_system_clock
 289              		.section	.bss._tx_timer_system_clock,"aw",%nobits
 290              		.align	2
 293              	_tx_timer_system_clock:
 294 0000 00000000 		.space	4
 295              		.text
 296              	.Letext0:
 297              		.file 2 "../Middlewares/threadx/ports/cortex_m55/gnu/inc/tx_port.h"
 298              		.file 3 "../Middlewares/threadx/common/inc/tx_api.h"
 299              		.file 4 "../Middlewares/threadx/common/inc/tx_timer.h"
 300              		.file 5 "/opt/st/stm32cubeclt_1.21.0/GNU-tools-for-STM32/arm-none-eabi/include/string.h"
 301              		.file 6 "<built-in>"
ARM GAS  /tmp/cc3mb8cs.s 			page 12

