ARM GAS  /tmp/ccqaDgc2.s 			page 1


   1              		.arch armv8.1-m.main
   2              		.fpu fpv5-d16
   3              		.arch_extension dsp
   4              		.arch_extension fp
   5              		.arch_extension fp.dp
   6              		.arch_extension mve
   7              		.arch_extension mve.fp
   8              		.eabi_attribute 5, "cortex-m55"
   9              		.eabi_attribute 28, 1
  10              		.eabi_attribute 20, 1
  11              		.eabi_attribute 21, 1
  12              		.eabi_attribute 23, 3
  13              		.eabi_attribute 24, 1
  14              		.eabi_attribute 25, 1
  15              		.eabi_attribute 26, 1
  16              		.eabi_attribute 30, 4
  17              		.eabi_attribute 34, 1
  18              		.eabi_attribute 38, 1
  19              		.eabi_attribute 18, 4
  20              		.file	"tx_trace_enable.c"
  21              		.text
  22              	.Ltext0:
  23              		.cfi_sections	.debug_frame
  24              		.file 1 "../Middlewares/threadx/common/src/tx_trace_enable.c"
  25              		.section	.text._tx_trace_enable,"ax",%progbits
  26              		.align	1
  27              		.global	_tx_trace_enable
  28              		.syntax unified
  29              		.thumb
  30              		.thumb_func
  32              	_tx_trace_enable:
  33              	.LVL0:
  34              	.LFB8:
   1:../Middlewares/threadx/common/src/tx_trace_enable.c **** /**************************************************************************/
   2:../Middlewares/threadx/common/src/tx_trace_enable.c **** /*                                                                        */
   3:../Middlewares/threadx/common/src/tx_trace_enable.c **** /*       Copyright (c) Microsoft Corporation. All rights reserved.        */
   4:../Middlewares/threadx/common/src/tx_trace_enable.c **** /*                                                                        */
   5:../Middlewares/threadx/common/src/tx_trace_enable.c **** /*       This software is licensed under the Microsoft Software License   */
   6:../Middlewares/threadx/common/src/tx_trace_enable.c **** /*       Terms for Microsoft Azure RTOS. Full text of the license can be  */
   7:../Middlewares/threadx/common/src/tx_trace_enable.c **** /*       found in the LICENSE file at https://aka.ms/AzureRTOS_EULA       */
   8:../Middlewares/threadx/common/src/tx_trace_enable.c **** /*       and in the root directory of this software.                      */
   9:../Middlewares/threadx/common/src/tx_trace_enable.c **** /*                                                                        */
  10:../Middlewares/threadx/common/src/tx_trace_enable.c **** /**************************************************************************/
  11:../Middlewares/threadx/common/src/tx_trace_enable.c **** 
  12:../Middlewares/threadx/common/src/tx_trace_enable.c **** 
  13:../Middlewares/threadx/common/src/tx_trace_enable.c **** /**************************************************************************/
  14:../Middlewares/threadx/common/src/tx_trace_enable.c **** /**************************************************************************/
  15:../Middlewares/threadx/common/src/tx_trace_enable.c **** /**                                                                       */
  16:../Middlewares/threadx/common/src/tx_trace_enable.c **** /** ThreadX Component                                                     */
  17:../Middlewares/threadx/common/src/tx_trace_enable.c **** /**                                                                       */
  18:../Middlewares/threadx/common/src/tx_trace_enable.c **** /**   Trace                                                               */
  19:../Middlewares/threadx/common/src/tx_trace_enable.c **** /**                                                                       */
  20:../Middlewares/threadx/common/src/tx_trace_enable.c **** /**************************************************************************/
  21:../Middlewares/threadx/common/src/tx_trace_enable.c **** /**************************************************************************/
  22:../Middlewares/threadx/common/src/tx_trace_enable.c **** 
  23:../Middlewares/threadx/common/src/tx_trace_enable.c **** #define TX_SOURCE_CODE
  24:../Middlewares/threadx/common/src/tx_trace_enable.c **** 
ARM GAS  /tmp/ccqaDgc2.s 			page 2


  25:../Middlewares/threadx/common/src/tx_trace_enable.c **** 
  26:../Middlewares/threadx/common/src/tx_trace_enable.c **** /* Include necessary system files.  */
  27:../Middlewares/threadx/common/src/tx_trace_enable.c **** 
  28:../Middlewares/threadx/common/src/tx_trace_enable.c **** #include "tx_api.h"
  29:../Middlewares/threadx/common/src/tx_trace_enable.c **** #ifdef TX_ENABLE_EVENT_TRACE
  30:../Middlewares/threadx/common/src/tx_trace_enable.c **** #include "tx_thread.h"
  31:../Middlewares/threadx/common/src/tx_trace_enable.c **** #include "tx_timer.h"
  32:../Middlewares/threadx/common/src/tx_trace_enable.c **** #include "tx_event_flags.h"
  33:../Middlewares/threadx/common/src/tx_trace_enable.c **** #include "tx_queue.h"
  34:../Middlewares/threadx/common/src/tx_trace_enable.c **** #include "tx_semaphore.h"
  35:../Middlewares/threadx/common/src/tx_trace_enable.c **** #include "tx_mutex.h"
  36:../Middlewares/threadx/common/src/tx_trace_enable.c **** #include "tx_block_pool.h"
  37:../Middlewares/threadx/common/src/tx_trace_enable.c **** #include "tx_byte_pool.h"
  38:../Middlewares/threadx/common/src/tx_trace_enable.c **** #endif
  39:../Middlewares/threadx/common/src/tx_trace_enable.c **** #include "tx_trace.h"
  40:../Middlewares/threadx/common/src/tx_trace_enable.c **** 
  41:../Middlewares/threadx/common/src/tx_trace_enable.c **** 
  42:../Middlewares/threadx/common/src/tx_trace_enable.c **** /**************************************************************************/
  43:../Middlewares/threadx/common/src/tx_trace_enable.c **** /*                                                                        */
  44:../Middlewares/threadx/common/src/tx_trace_enable.c **** /*  FUNCTION                                               RELEASE        */
  45:../Middlewares/threadx/common/src/tx_trace_enable.c **** /*                                                                        */
  46:../Middlewares/threadx/common/src/tx_trace_enable.c **** /*    _tx_trace_enable                                    PORTABLE C      */
  47:../Middlewares/threadx/common/src/tx_trace_enable.c **** /*                                                           6.1          */
  48:../Middlewares/threadx/common/src/tx_trace_enable.c **** /*  AUTHOR                                                                */
  49:../Middlewares/threadx/common/src/tx_trace_enable.c **** /*                                                                        */
  50:../Middlewares/threadx/common/src/tx_trace_enable.c **** /*    William E. Lamie, Microsoft Corporation                             */
  51:../Middlewares/threadx/common/src/tx_trace_enable.c **** /*                                                                        */
  52:../Middlewares/threadx/common/src/tx_trace_enable.c **** /*  DESCRIPTION                                                           */
  53:../Middlewares/threadx/common/src/tx_trace_enable.c **** /*                                                                        */
  54:../Middlewares/threadx/common/src/tx_trace_enable.c **** /*    This function initializes the ThreadX trace buffer and the          */
  55:../Middlewares/threadx/common/src/tx_trace_enable.c **** /*    associated control variables, enabling it for operation.            */
  56:../Middlewares/threadx/common/src/tx_trace_enable.c **** /*                                                                        */
  57:../Middlewares/threadx/common/src/tx_trace_enable.c **** /*  INPUT                                                                 */
  58:../Middlewares/threadx/common/src/tx_trace_enable.c **** /*                                                                        */
  59:../Middlewares/threadx/common/src/tx_trace_enable.c **** /*    trace_buffer_start                    Start of trace buffer         */
  60:../Middlewares/threadx/common/src/tx_trace_enable.c **** /*    trace_buffer_size                     Size (bytes) of trace buffer  */
  61:../Middlewares/threadx/common/src/tx_trace_enable.c **** /*    registry_entries                      Number of object registry     */
  62:../Middlewares/threadx/common/src/tx_trace_enable.c **** /*                                            entries.                    */
  63:../Middlewares/threadx/common/src/tx_trace_enable.c **** /*                                                                        */
  64:../Middlewares/threadx/common/src/tx_trace_enable.c **** /*  OUTPUT                                                                */
  65:../Middlewares/threadx/common/src/tx_trace_enable.c **** /*                                                                        */
  66:../Middlewares/threadx/common/src/tx_trace_enable.c **** /*    Completion Status                                                   */
  67:../Middlewares/threadx/common/src/tx_trace_enable.c **** /*                                                                        */
  68:../Middlewares/threadx/common/src/tx_trace_enable.c **** /*  CALLS                                                                 */
  69:../Middlewares/threadx/common/src/tx_trace_enable.c **** /*                                                                        */
  70:../Middlewares/threadx/common/src/tx_trace_enable.c **** /*    _tx_thread_system_preempt_check       Check for preemption          */
  71:../Middlewares/threadx/common/src/tx_trace_enable.c **** /*    _tx_trace_object_register             Register existing objects     */
  72:../Middlewares/threadx/common/src/tx_trace_enable.c **** /*                                                                        */
  73:../Middlewares/threadx/common/src/tx_trace_enable.c **** /*  CALLED BY                                                             */
  74:../Middlewares/threadx/common/src/tx_trace_enable.c **** /*                                                                        */
  75:../Middlewares/threadx/common/src/tx_trace_enable.c **** /*    Application Code                                                    */
  76:../Middlewares/threadx/common/src/tx_trace_enable.c **** /*                                                                        */
  77:../Middlewares/threadx/common/src/tx_trace_enable.c **** /*  RELEASE HISTORY                                                       */
  78:../Middlewares/threadx/common/src/tx_trace_enable.c **** /*                                                                        */
  79:../Middlewares/threadx/common/src/tx_trace_enable.c **** /*    DATE              NAME                      DESCRIPTION             */
  80:../Middlewares/threadx/common/src/tx_trace_enable.c **** /*                                                                        */
  81:../Middlewares/threadx/common/src/tx_trace_enable.c **** /*  05-19-2020     William E. Lamie         Initial Version 6.0           */
ARM GAS  /tmp/ccqaDgc2.s 			page 3


  82:../Middlewares/threadx/common/src/tx_trace_enable.c **** /*  09-30-2020     Yuxin Zhou               Modified comment(s),          */
  83:../Middlewares/threadx/common/src/tx_trace_enable.c **** /*                                            resulting in version 6.1    */
  84:../Middlewares/threadx/common/src/tx_trace_enable.c **** /*                                                                        */
  85:../Middlewares/threadx/common/src/tx_trace_enable.c **** /**************************************************************************/
  86:../Middlewares/threadx/common/src/tx_trace_enable.c **** UINT  _tx_trace_enable(VOID *trace_buffer_start, ULONG trace_buffer_size, ULONG registry_entries)
  87:../Middlewares/threadx/common/src/tx_trace_enable.c **** {
  35              		.loc 1 87 1 view -0
  36              		.cfi_startproc
  37              		@ args = 0, pretend = 0, frame = 8
  38              		@ frame_needed = 0, uses_anonymous_args = 0
  88:../Middlewares/threadx/common/src/tx_trace_enable.c **** 
  89:../Middlewares/threadx/common/src/tx_trace_enable.c **** #ifdef TX_ENABLE_EVENT_TRACE
  90:../Middlewares/threadx/common/src/tx_trace_enable.c **** 
  91:../Middlewares/threadx/common/src/tx_trace_enable.c **** TX_INTERRUPT_SAVE_AREA
  39              		.loc 1 91 1 view .LVU1
  92:../Middlewares/threadx/common/src/tx_trace_enable.c **** 
  93:../Middlewares/threadx/common/src/tx_trace_enable.c **** TX_THREAD                       *thread_ptr;
  40              		.loc 1 93 1 view .LVU2
  94:../Middlewares/threadx/common/src/tx_trace_enable.c **** TX_TIMER                        *timer_ptr;
  41              		.loc 1 94 1 view .LVU3
  95:../Middlewares/threadx/common/src/tx_trace_enable.c **** TX_EVENT_FLAGS_GROUP            *event_flags_ptr;
  42              		.loc 1 95 1 view .LVU4
  96:../Middlewares/threadx/common/src/tx_trace_enable.c **** TX_QUEUE                        *queue_ptr;
  43              		.loc 1 96 1 view .LVU5
  97:../Middlewares/threadx/common/src/tx_trace_enable.c **** TX_SEMAPHORE                    *semaphore_ptr;
  44              		.loc 1 97 1 view .LVU6
  98:../Middlewares/threadx/common/src/tx_trace_enable.c **** TX_MUTEX                        *mutex_ptr;
  45              		.loc 1 98 1 view .LVU7
  99:../Middlewares/threadx/common/src/tx_trace_enable.c **** TX_BLOCK_POOL                   *block_pool_ptr;
  46              		.loc 1 99 1 view .LVU8
 100:../Middlewares/threadx/common/src/tx_trace_enable.c **** TX_BYTE_POOL                    *byte_pool_ptr;
  47              		.loc 1 100 1 view .LVU9
 101:../Middlewares/threadx/common/src/tx_trace_enable.c **** UCHAR                           *work_ptr;
  48              		.loc 1 101 1 view .LVU10
 102:../Middlewares/threadx/common/src/tx_trace_enable.c **** UCHAR                           *event_start_ptr;
  49              		.loc 1 102 1 view .LVU11
 103:../Middlewares/threadx/common/src/tx_trace_enable.c **** TX_TRACE_OBJECT_ENTRY           *entry_ptr;
  50              		.loc 1 103 1 view .LVU12
 104:../Middlewares/threadx/common/src/tx_trace_enable.c **** TX_TRACE_BUFFER_ENTRY           *event_ptr;
  51              		.loc 1 104 1 view .LVU13
 105:../Middlewares/threadx/common/src/tx_trace_enable.c **** ULONG                           i;
  52              		.loc 1 105 1 view .LVU14
 106:../Middlewares/threadx/common/src/tx_trace_enable.c **** UINT                            status;
  53              		.loc 1 106 1 view .LVU15
 107:../Middlewares/threadx/common/src/tx_trace_enable.c **** 
 108:../Middlewares/threadx/common/src/tx_trace_enable.c **** 
 109:../Middlewares/threadx/common/src/tx_trace_enable.c ****     /* First, see if there is enough room for the control header, the registry entries, and at leas
 110:../Middlewares/threadx/common/src/tx_trace_enable.c ****        memory supplied to this call.  */
 111:../Middlewares/threadx/common/src/tx_trace_enable.c ****     if (trace_buffer_size < ((sizeof(TX_TRACE_HEADER)) + ((sizeof(TX_TRACE_OBJECT_ENTRY)) * registr
  54              		.loc 1 111 5 view .LVU16
  87:../Middlewares/threadx/common/src/tx_trace_enable.c **** 
  55              		.loc 1 87 1 is_stmt 0 view .LVU17
  56 0000 2DE9F04F 		push	{r4, r5, r6, r7, r8, r9, r10, fp, lr}
  57              		.cfi_def_cfa_offset 36
  58              		.cfi_offset 4, -36
  59              		.cfi_offset 5, -32
  60              		.cfi_offset 6, -28
ARM GAS  /tmp/ccqaDgc2.s 			page 4


  61              		.cfi_offset 7, -24
  62              		.cfi_offset 8, -20
  63              		.cfi_offset 9, -16
  64              		.cfi_offset 10, -12
  65              		.cfi_offset 11, -8
  66              		.cfi_offset 14, -4
  67              		.loc 1 111 111 view .LVU18
  68 0004 3027     		movs	r7, #48
  69 0006 5743     		muls	r7, r2, r7
  70 0008 07F15003 		add	r3, r7, #80
  71              		.loc 1 111 8 view .LVU19
  72 000c 8B42     		cmp	r3, r1
  87:../Middlewares/threadx/common/src/tx_trace_enable.c **** 
  73              		.loc 1 87 1 view .LVU20
  74 000e 85B0     		sub	sp, sp, #20
  75              		.cfi_def_cfa_offset 56
  76              		.loc 1 111 8 view .LVU21
  77 0010 00F2EA81 		bhi	.L35
 112:../Middlewares/threadx/common/src/tx_trace_enable.c ****     {
 113:../Middlewares/threadx/common/src/tx_trace_enable.c **** 
 114:../Middlewares/threadx/common/src/tx_trace_enable.c ****         /* No, the memory isn't big enough to hold one trace buffer entry.  Return an error.  */
 115:../Middlewares/threadx/common/src/tx_trace_enable.c ****         status =  TX_SIZE_ERROR;
 116:../Middlewares/threadx/common/src/tx_trace_enable.c ****     }
 117:../Middlewares/threadx/common/src/tx_trace_enable.c **** 
 118:../Middlewares/threadx/common/src/tx_trace_enable.c ****     /* Determine if trace is already enabled.  */
 119:../Middlewares/threadx/common/src/tx_trace_enable.c ****     else if (_tx_trace_buffer_current_ptr != TX_NULL)
  78              		.loc 1 119 10 is_stmt 1 view .LVU22
  79              		.loc 1 119 43 is_stmt 0 view .LVU23
  80 0014 B44D     		ldr	r5, .L51
  81              		.loc 1 119 13 view .LVU24
  82 0016 D5F800C0 		ldr	ip, [r5]
  83 001a BCF1000F 		cmp	ip, #0
  84 001e 40F0E581 		bne	.L36
 120:../Middlewares/threadx/common/src/tx_trace_enable.c ****     {
 121:../Middlewares/threadx/common/src/tx_trace_enable.c **** 
 122:../Middlewares/threadx/common/src/tx_trace_enable.c ****         /* Yes, trace is already enabled.  */
 123:../Middlewares/threadx/common/src/tx_trace_enable.c ****         status =  TX_NOT_DONE;
 124:../Middlewares/threadx/common/src/tx_trace_enable.c ****     }
 125:../Middlewares/threadx/common/src/tx_trace_enable.c ****     else
 126:../Middlewares/threadx/common/src/tx_trace_enable.c ****     {
 127:../Middlewares/threadx/common/src/tx_trace_enable.c **** 
 128:../Middlewares/threadx/common/src/tx_trace_enable.c ****         /* Set the enable bits for all events enabled.  */
 129:../Middlewares/threadx/common/src/tx_trace_enable.c ****         _tx_trace_event_enable_bits =  0xFFFFFFFFUL;
  85              		.loc 1 129 9 is_stmt 1 view .LVU25
  86              		.loc 1 129 37 is_stmt 0 view .LVU26
  87 0022 4FF0FF33 		mov	r3, #-1
 130:../Middlewares/threadx/common/src/tx_trace_enable.c **** 
 131:../Middlewares/threadx/common/src/tx_trace_enable.c ****         /* Setup working pointer to the supplied memory.  */
 132:../Middlewares/threadx/common/src/tx_trace_enable.c ****         work_ptr =  TX_VOID_TO_UCHAR_POINTER_CONVERT(trace_buffer_start);
 133:../Middlewares/threadx/common/src/tx_trace_enable.c **** 
 134:../Middlewares/threadx/common/src/tx_trace_enable.c ****         /* Setup pointer to the trace control area.  */
 135:../Middlewares/threadx/common/src/tx_trace_enable.c ****         _tx_trace_header_ptr =  TX_UCHAR_TO_HEADER_POINTER_CONVERT(work_ptr);
 136:../Middlewares/threadx/common/src/tx_trace_enable.c **** 
 137:../Middlewares/threadx/common/src/tx_trace_enable.c ****         /* Move the working pointer past the control area.  */
 138:../Middlewares/threadx/common/src/tx_trace_enable.c ****         work_ptr =  TX_UCHAR_POINTER_ADD(work_ptr, (sizeof(TX_TRACE_HEADER)));
 139:../Middlewares/threadx/common/src/tx_trace_enable.c **** 
 140:../Middlewares/threadx/common/src/tx_trace_enable.c ****         /* Save the start of the trace object registry.  */
ARM GAS  /tmp/ccqaDgc2.s 			page 5


 141:../Middlewares/threadx/common/src/tx_trace_enable.c ****         _tx_trace_registry_start_ptr =  TX_UCHAR_TO_OBJECT_POINTER_CONVERT(work_ptr);
 142:../Middlewares/threadx/common/src/tx_trace_enable.c **** 
 143:../Middlewares/threadx/common/src/tx_trace_enable.c ****         /* Setup the end of the trace object registry.  */
 144:../Middlewares/threadx/common/src/tx_trace_enable.c ****         work_ptr =  TX_UCHAR_POINTER_ADD(work_ptr, (sizeof(TX_TRACE_OBJECT_ENTRY))*registry_entries
 145:../Middlewares/threadx/common/src/tx_trace_enable.c ****         _tx_trace_registry_end_ptr =  TX_UCHAR_TO_OBJECT_POINTER_CONVERT(work_ptr);
 146:../Middlewares/threadx/common/src/tx_trace_enable.c **** 
 147:../Middlewares/threadx/common/src/tx_trace_enable.c ****         /* Loop to make all trace object registry entries empty and valid.  */
 148:../Middlewares/threadx/common/src/tx_trace_enable.c ****         for (i = ((ULONG) 0); i < registry_entries; i++)
 149:../Middlewares/threadx/common/src/tx_trace_enable.c ****         {
 150:../Middlewares/threadx/common/src/tx_trace_enable.c **** 
 151:../Middlewares/threadx/common/src/tx_trace_enable.c ****             /* Setup the work pointer.  */
 152:../Middlewares/threadx/common/src/tx_trace_enable.c ****             work_ptr =  TX_OBJECT_TO_UCHAR_POINTER_CONVERT(_tx_trace_registry_start_ptr);
 153:../Middlewares/threadx/common/src/tx_trace_enable.c ****             work_ptr =  TX_UCHAR_POINTER_ADD(work_ptr, (sizeof(TX_TRACE_OBJECT_ENTRY))*i);
 154:../Middlewares/threadx/common/src/tx_trace_enable.c **** 
 155:../Middlewares/threadx/common/src/tx_trace_enable.c ****             /* Convert to a registry entry pointer.  */
 156:../Middlewares/threadx/common/src/tx_trace_enable.c ****             entry_ptr =  TX_UCHAR_TO_OBJECT_POINTER_CONVERT(work_ptr);
 157:../Middlewares/threadx/common/src/tx_trace_enable.c **** 
 158:../Middlewares/threadx/common/src/tx_trace_enable.c ****             /* Initialize object registry entry.  */
 159:../Middlewares/threadx/common/src/tx_trace_enable.c ****             entry_ptr -> tx_trace_object_entry_available =         (UCHAR) TX_TRUE;
  88              		.loc 1 159 58 view .LVU27
  89 0026 4FF0010A 		mov	r10, #1
 160:../Middlewares/threadx/common/src/tx_trace_enable.c ****             entry_ptr -> tx_trace_object_entry_type =              (UCHAR) TX_TRACE_OBJECT_TYPE_NOT
  90              		.loc 1 160 53 view .LVU28
  91 002a DFF82CB3 		ldr	fp, .L51+112
  92 002e 4FEA171E 		lsr	lr, r7, #4
  93 0032 0BFB0EFE 		mul	lr, fp, lr
 129:../Middlewares/threadx/common/src/tx_trace_enable.c **** 
  94              		.loc 1 129 37 view .LVU29
  95 0036 DFF82493 		ldr	r9, .L51+116
 145:../Middlewares/threadx/common/src/tx_trace_enable.c **** 
  96              		.loc 1 145 36 view .LVU30
  97 003a AC4E     		ldr	r6, .L51+4
 129:../Middlewares/threadx/common/src/tx_trace_enable.c **** 
  98              		.loc 1 129 37 view .LVU31
  99 003c C9F80030 		str	r3, [r9]
 132:../Middlewares/threadx/common/src/tx_trace_enable.c **** 
 100              		.loc 1 132 9 is_stmt 1 view .LVU32
 101              	.LVL1:
 135:../Middlewares/threadx/common/src/tx_trace_enable.c **** 
 102              		.loc 1 135 9 view .LVU33
 141:../Middlewares/threadx/common/src/tx_trace_enable.c **** 
 103              		.loc 1 141 38 is_stmt 0 view .LVU34
 104 0040 AB4B     		ldr	r3, .L51+8
 138:../Middlewares/threadx/common/src/tx_trace_enable.c **** 
 105              		.loc 1 138 18 view .LVU35
 106 0042 00F13004 		add	r4, r0, #48
 107              		.loc 1 160 53 view .LVU36
 108 0046 2EF0704E 		bic	lr, lr, #-268435456
 141:../Middlewares/threadx/common/src/tx_trace_enable.c **** 
 109              		.loc 1 141 38 view .LVU37
 110 004a 1C60     		str	r4, [r3]
 111              		.loc 1 160 53 view .LVU38
 112 004c D644     		add	lr, lr, r10
 144:../Middlewares/threadx/common/src/tx_trace_enable.c ****         _tx_trace_registry_end_ptr =  TX_UCHAR_TO_OBJECT_POINTER_CONVERT(work_ptr);
 113              		.loc 1 144 18 view .LVU39
 114 004e E319     		adds	r3, r4, r7
 145:../Middlewares/threadx/common/src/tx_trace_enable.c **** 
ARM GAS  /tmp/ccqaDgc2.s 			page 6


 115              		.loc 1 145 36 view .LVU40
 116 0050 3360     		str	r3, [r6]
 117              		.loc 1 160 53 view .LVU41
 118 0052 4EF001E0 		dls	lr, lr
 148:../Middlewares/threadx/common/src/tx_trace_enable.c ****         {
 119              		.loc 1 148 9 view .LVU42
 120 0056 0646     		mov	r6, r0
 135:../Middlewares/threadx/common/src/tx_trace_enable.c **** 
 121              		.loc 1 135 30 view .LVU43
 122 0058 DFF80483 		ldr	r8, .L51+120
 123 005c C8F80000 		str	r0, [r8]
 138:../Middlewares/threadx/common/src/tx_trace_enable.c **** 
 124              		.loc 1 138 9 is_stmt 1 view .LVU44
 125              	.LVL2:
 141:../Middlewares/threadx/common/src/tx_trace_enable.c **** 
 126              		.loc 1 141 9 view .LVU45
 144:../Middlewares/threadx/common/src/tx_trace_enable.c ****         _tx_trace_registry_end_ptr =  TX_UCHAR_TO_OBJECT_POINTER_CONVERT(work_ptr);
 127              		.loc 1 144 9 view .LVU46
 145:../Middlewares/threadx/common/src/tx_trace_enable.c **** 
 128              		.loc 1 145 9 view .LVU47
 148:../Middlewares/threadx/common/src/tx_trace_enable.c ****         {
 129              		.loc 1 148 9 view .LVU48
 130              	.L3:
 148:../Middlewares/threadx/common/src/tx_trace_enable.c ****         {
 131              		.loc 1 148 33 discriminator 1 view .LVU49
 132 0060 BEF1010E 		subs	lr, #1;bne	.L4
 132      40F0EF80 
 161:../Middlewares/threadx/common/src/tx_trace_enable.c ****             entry_ptr -> tx_trace_object_entry_reserved1 =         (UCHAR) 0;
 162:../Middlewares/threadx/common/src/tx_trace_enable.c ****             entry_ptr -> tx_trace_object_entry_reserved2 =         (UCHAR) 0;
 163:../Middlewares/threadx/common/src/tx_trace_enable.c ****             entry_ptr -> tx_trace_object_entry_thread_pointer =    (ULONG) 0;
 164:../Middlewares/threadx/common/src/tx_trace_enable.c ****         }
 165:../Middlewares/threadx/common/src/tx_trace_enable.c **** 
 166:../Middlewares/threadx/common/src/tx_trace_enable.c ****         /* Setup the total number of registry entries.  */
 167:../Middlewares/threadx/common/src/tx_trace_enable.c ****         _tx_trace_total_registry_entries =  registry_entries;
 133              		.loc 1 167 9 view .LVU50
 134              		.loc 1 167 42 is_stmt 0 view .LVU51
 135 0068 A24E     		ldr	r6, .L51+12
 136 006a 3039     		subs	r1, r1, #48
 137              	.LVL3:
 138              		.loc 1 167 42 view .LVU52
 139 006c 3260     		str	r2, [r6]
 168:../Middlewares/threadx/common/src/tx_trace_enable.c **** 
 169:../Middlewares/threadx/common/src/tx_trace_enable.c ****         /* Setup the object registry available count to the total number of registry entries.  */
 170:../Middlewares/threadx/common/src/tx_trace_enable.c ****         _tx_trace_available_registry_entries =  registry_entries;
 140              		.loc 1 170 9 is_stmt 1 view .LVU53
 141              		.loc 1 170 46 is_stmt 0 view .LVU54
 142 006e A24E     		ldr	r6, .L51+16
 171:../Middlewares/threadx/common/src/tx_trace_enable.c **** 
 172:../Middlewares/threadx/common/src/tx_trace_enable.c ****         /* Setup the search starting index to the first entry.  */
 173:../Middlewares/threadx/common/src/tx_trace_enable.c ****         _tx_trace_registry_search_start =  ((ULONG) 0);
 174:../Middlewares/threadx/common/src/tx_trace_enable.c **** 
 175:../Middlewares/threadx/common/src/tx_trace_enable.c ****         /* Setup the work pointer to after the trace object registry.  */
 176:../Middlewares/threadx/common/src/tx_trace_enable.c ****         work_ptr =  TX_OBJECT_TO_UCHAR_POINTER_CONVERT(_tx_trace_registry_end_ptr);
 177:../Middlewares/threadx/common/src/tx_trace_enable.c **** 
 178:../Middlewares/threadx/common/src/tx_trace_enable.c ****         /* Adjust the remaining trace buffer size.  */
 179:../Middlewares/threadx/common/src/tx_trace_enable.c ****         trace_buffer_size =  trace_buffer_size - ((sizeof(TX_TRACE_OBJECT_ENTRY)) * registry_entrie
 143              		.loc 1 179 27 view .LVU55
ARM GAS  /tmp/ccqaDgc2.s 			page 7


 144 0070 C91B     		subs	r1, r1, r7
 145              	.LVL4:
 170:../Middlewares/threadx/common/src/tx_trace_enable.c **** 
 146              		.loc 1 170 46 view .LVU56
 147 0072 3260     		str	r2, [r6]
 173:../Middlewares/threadx/common/src/tx_trace_enable.c **** 
 148              		.loc 1 173 9 is_stmt 1 view .LVU57
 173:../Middlewares/threadx/common/src/tx_trace_enable.c **** 
 149              		.loc 1 173 41 is_stmt 0 view .LVU58
 150 0074 0022     		movs	r2, #0
 151              	.LVL5:
 180:../Middlewares/threadx/common/src/tx_trace_enable.c **** 
 181:../Middlewares/threadx/common/src/tx_trace_enable.c ****         /* Setup pointer to the start of the actual event trace log.  */
 182:../Middlewares/threadx/common/src/tx_trace_enable.c ****         _tx_trace_buffer_start_ptr =      TX_UCHAR_TO_ENTRY_POINTER_CONVERT(work_ptr);
 183:../Middlewares/threadx/common/src/tx_trace_enable.c **** 
 184:../Middlewares/threadx/common/src/tx_trace_enable.c ****         /* Save the event trace log start address.  */
 185:../Middlewares/threadx/common/src/tx_trace_enable.c ****         event_start_ptr =  work_ptr;
 186:../Middlewares/threadx/common/src/tx_trace_enable.c **** 
 187:../Middlewares/threadx/common/src/tx_trace_enable.c ****         /* Calculate the end of the trace buffer.  */
 188:../Middlewares/threadx/common/src/tx_trace_enable.c ****         work_ptr =  TX_UCHAR_POINTER_ADD(work_ptr, ((trace_buffer_size/(sizeof(TX_TRACE_BUFFER_ENTR
 152              		.loc 1 188 21 view .LVU59
 153 0076 21F01F0C 		bic	ip, r1, #31
 189:../Middlewares/threadx/common/src/tx_trace_enable.c ****         _tx_trace_buffer_end_ptr =        TX_UCHAR_TO_ENTRY_POINTER_CONVERT(work_ptr);
 190:../Middlewares/threadx/common/src/tx_trace_enable.c **** 
 191:../Middlewares/threadx/common/src/tx_trace_enable.c ****         /* Loop to mark all entries in the trace buffer as invalid.  */
 192:../Middlewares/threadx/common/src/tx_trace_enable.c ****         for (i = ((ULONG) 0); i < (trace_buffer_size/(sizeof(TX_TRACE_BUFFER_ENTRY))); i++)
 154              		.loc 1 192 53 discriminator 1 view .LVU60
 155 007a 4909     		lsrs	r1, r1, #5
 193:../Middlewares/threadx/common/src/tx_trace_enable.c ****         {
 194:../Middlewares/threadx/common/src/tx_trace_enable.c **** 
 195:../Middlewares/threadx/common/src/tx_trace_enable.c ****             /* Setup the work pointer.  */
 196:../Middlewares/threadx/common/src/tx_trace_enable.c ****             work_ptr =  TX_UCHAR_POINTER_ADD(event_start_ptr, (sizeof(TX_TRACE_BUFFER_ENTRY))*i);
 197:../Middlewares/threadx/common/src/tx_trace_enable.c **** 
 198:../Middlewares/threadx/common/src/tx_trace_enable.c ****             /* Convert to a trace event pointer.  */
 199:../Middlewares/threadx/common/src/tx_trace_enable.c ****             event_ptr =  TX_UCHAR_TO_ENTRY_POINTER_CONVERT(work_ptr);
 200:../Middlewares/threadx/common/src/tx_trace_enable.c **** 
 201:../Middlewares/threadx/common/src/tx_trace_enable.c ****             /* Mark this trace event as invalid.  */
 202:../Middlewares/threadx/common/src/tx_trace_enable.c ****             event_ptr -> tx_trace_buffer_entry_thread_pointer =  ((ULONG) 0);
 156              		.loc 1 202 63 view .LVU61
 157 007c 01F1010E 		add	lr, r1, #1
 158 0080 9246     		mov	r10, r2
 159 0082 4EF001E0 		dls	lr, lr
 173:../Middlewares/threadx/common/src/tx_trace_enable.c **** 
 160              		.loc 1 173 41 view .LVU62
 161 0086 9D4E     		ldr	r6, .L51+20
 189:../Middlewares/threadx/common/src/tx_trace_enable.c ****         _tx_trace_buffer_end_ptr =        TX_UCHAR_TO_ENTRY_POINTER_CONVERT(work_ptr);
 162              		.loc 1 189 34 view .LVU63
 163 0088 9D4F     		ldr	r7, .L51+24
 173:../Middlewares/threadx/common/src/tx_trace_enable.c **** 
 164              		.loc 1 173 41 view .LVU64
 165 008a 3260     		str	r2, [r6]
 176:../Middlewares/threadx/common/src/tx_trace_enable.c **** 
 166              		.loc 1 176 9 is_stmt 1 view .LVU65
 167              	.LVL6:
 179:../Middlewares/threadx/common/src/tx_trace_enable.c **** 
 168              		.loc 1 179 9 view .LVU66
 182:../Middlewares/threadx/common/src/tx_trace_enable.c **** 
ARM GAS  /tmp/ccqaDgc2.s 			page 8


 169              		.loc 1 182 9 view .LVU67
 182:../Middlewares/threadx/common/src/tx_trace_enable.c **** 
 170              		.loc 1 182 36 is_stmt 0 view .LVU68
 171 008c 9D4E     		ldr	r6, .L51+28
 188:../Middlewares/threadx/common/src/tx_trace_enable.c ****         _tx_trace_buffer_end_ptr =        TX_UCHAR_TO_ENTRY_POINTER_CONVERT(work_ptr);
 172              		.loc 1 188 18 view .LVU69
 173 008e 9C44     		add	ip, ip, r3
 182:../Middlewares/threadx/common/src/tx_trace_enable.c **** 
 174              		.loc 1 182 36 view .LVU70
 175 0090 3360     		str	r3, [r6]
 185:../Middlewares/threadx/common/src/tx_trace_enable.c **** 
 176              		.loc 1 185 9 is_stmt 1 view .LVU71
 177              	.LVL7:
 188:../Middlewares/threadx/common/src/tx_trace_enable.c ****         _tx_trace_buffer_end_ptr =        TX_UCHAR_TO_ENTRY_POINTER_CONVERT(work_ptr);
 178              		.loc 1 188 9 view .LVU72
 189:../Middlewares/threadx/common/src/tx_trace_enable.c **** 
 179              		.loc 1 189 9 view .LVU73
 189:../Middlewares/threadx/common/src/tx_trace_enable.c **** 
 180              		.loc 1 189 34 is_stmt 0 view .LVU74
 181 0092 C7F800C0 		str	ip, [r7]
 192:../Middlewares/threadx/common/src/tx_trace_enable.c ****         {
 182              		.loc 1 192 9 is_stmt 1 view .LVU75
 183              	.LVL8:
 184              	.L5:
 192:../Middlewares/threadx/common/src/tx_trace_enable.c ****         {
 185              		.loc 1 192 33 discriminator 1 view .LVU76
 186 0096 BEF1010E 		subs	lr, #1;bne	.L6
 186      40F0E080 
 203:../Middlewares/threadx/common/src/tx_trace_enable.c ****         }
 204:../Middlewares/threadx/common/src/tx_trace_enable.c **** 
 205:../Middlewares/threadx/common/src/tx_trace_enable.c ****         /* Now, fill in the event trace control header.  */
 206:../Middlewares/threadx/common/src/tx_trace_enable.c ****         _tx_trace_header_ptr -> tx_trace_header_id =                             TX_TRACE_VALID;
 187              		.loc 1 206 9 view .LVU77
 207:../Middlewares/threadx/common/src/tx_trace_enable.c ****         _tx_trace_header_ptr -> tx_trace_header_timer_valid_mask =               TX_TRACE_TIME_MASK
 188              		.loc 1 207 66 is_stmt 0 view .LVU78
 189 009e 4FF0FF32 		mov	r2, #-1
 190              	.LVL9:
 191              		.loc 1 207 66 view .LVU79
 192 00a2 DFF8C0E2 		ldr	lr, .L51+124
 208:../Middlewares/threadx/common/src/tx_trace_enable.c ****         _tx_trace_header_ptr -> tx_trace_header_trace_base_address =             TX_POINTER_TO_ULON
 209:../Middlewares/threadx/common/src/tx_trace_enable.c ****         _tx_trace_header_ptr -> tx_trace_header_registry_start_pointer =         TX_POINTER_TO_ULON
 210:../Middlewares/threadx/common/src/tx_trace_enable.c ****         _tx_trace_header_ptr -> tx_trace_header_reserved1 =                      ((USHORT) 0);
 211:../Middlewares/threadx/common/src/tx_trace_enable.c ****         _tx_trace_header_ptr -> tx_trace_header_object_name_size =               ((USHORT) TX_TRACE
 212:../Middlewares/threadx/common/src/tx_trace_enable.c ****         _tx_trace_header_ptr -> tx_trace_header_registry_end_pointer =           TX_POINTER_TO_ULON
 213:../Middlewares/threadx/common/src/tx_trace_enable.c ****         _tx_trace_header_ptr -> tx_trace_header_buffer_start_pointer =           TX_POINTER_TO_ULON
 214:../Middlewares/threadx/common/src/tx_trace_enable.c ****         _tx_trace_header_ptr -> tx_trace_header_buffer_end_pointer =             TX_POINTER_TO_ULON
 215:../Middlewares/threadx/common/src/tx_trace_enable.c ****         _tx_trace_header_ptr -> tx_trace_header_buffer_current_pointer =         TX_POINTER_TO_ULON
 216:../Middlewares/threadx/common/src/tx_trace_enable.c ****         _tx_trace_header_ptr -> tx_trace_header_reserved2 =                      0xAAAAAAAAUL;
 217:../Middlewares/threadx/common/src/tx_trace_enable.c ****         _tx_trace_header_ptr -> tx_trace_header_reserved3 =                      0xBBBBBBBBUL;
 193              		.loc 1 217 59 view .LVU80
 194 00a6 4FF0AA3A 		mov	r10, #-1431655766
 207:../Middlewares/threadx/common/src/tx_trace_enable.c ****         _tx_trace_header_ptr -> tx_trace_header_timer_valid_mask =               TX_TRACE_TIME_MASK
 195              		.loc 1 207 66 view .LVU81
 196 00aa C0E900E2 		strd	lr, r2, [r0]
 208:../Middlewares/threadx/common/src/tx_trace_enable.c ****         _tx_trace_header_ptr -> tx_trace_header_trace_base_address =             TX_POINTER_TO_ULON
 197              		.loc 1 208 9 is_stmt 1 view .LVU82
 210:../Middlewares/threadx/common/src/tx_trace_enable.c ****         _tx_trace_header_ptr -> tx_trace_header_object_name_size =               ((USHORT) TX_TRACE
ARM GAS  /tmp/ccqaDgc2.s 			page 9


 198              		.loc 1 210 59 is_stmt 0 view .LVU83
 199 00ae 4FF40012 		mov	r2, #2097152
 214:../Middlewares/threadx/common/src/tx_trace_enable.c ****         _tx_trace_header_ptr -> tx_trace_header_buffer_current_pointer =         TX_POINTER_TO_ULON
 200              		.loc 1 214 68 view .LVU84
 201 00b2 C0E9063C 		strd	r3, ip, [r0, #24]
 212:../Middlewares/threadx/common/src/tx_trace_enable.c ****         _tx_trace_header_ptr -> tx_trace_header_buffer_start_pointer =           TX_POINTER_TO_ULON
 202              		.loc 1 212 70 view .LVU85
 203 00b6 C0E90423 		strd	r2, r3, [r0, #16]
 215:../Middlewares/threadx/common/src/tx_trace_enable.c ****         _tx_trace_header_ptr -> tx_trace_header_reserved2 =                      0xAAAAAAAAUL;
 204              		.loc 1 215 72 view .LVU86
 205 00ba 0362     		str	r3, [r0, #32]
 206              		.loc 1 217 59 view .LVU87
 207 00bc 4FF0BB33 		mov	r3, #-1145324613
 208              	.LVL10:
 209              		.loc 1 217 59 view .LVU88
 210 00c0 C0E909A3 		strd	r10, r3, [r0, #36]
 218:../Middlewares/threadx/common/src/tx_trace_enable.c ****         _tx_trace_header_ptr -> tx_trace_header_reserved4 =                      0xCCCCCCCCUL;
 211              		.loc 1 218 59 view .LVU89
 212 00c4 4FF0CC33 		mov	r3, #-858993460
 209:../Middlewares/threadx/common/src/tx_trace_enable.c ****         _tx_trace_header_ptr -> tx_trace_header_reserved1 =                      ((USHORT) 0);
 213              		.loc 1 209 72 view .LVU90
 214 00c8 C0E90204 		strd	r0, r4, [r0, #8]
 210:../Middlewares/threadx/common/src/tx_trace_enable.c ****         _tx_trace_header_ptr -> tx_trace_header_object_name_size =               ((USHORT) TX_TRACE
 215              		.loc 1 210 9 is_stmt 1 view .LVU91
 211:../Middlewares/threadx/common/src/tx_trace_enable.c ****         _tx_trace_header_ptr -> tx_trace_header_registry_end_pointer =           TX_POINTER_TO_ULON
 216              		.loc 1 211 9 view .LVU92
 213:../Middlewares/threadx/common/src/tx_trace_enable.c ****         _tx_trace_header_ptr -> tx_trace_header_buffer_end_pointer =             TX_POINTER_TO_ULON
 217              		.loc 1 213 9 view .LVU93
 215:../Middlewares/threadx/common/src/tx_trace_enable.c ****         _tx_trace_header_ptr -> tx_trace_header_reserved2 =                      0xAAAAAAAAUL;
 218              		.loc 1 215 9 view .LVU94
 216:../Middlewares/threadx/common/src/tx_trace_enable.c ****         _tx_trace_header_ptr -> tx_trace_header_reserved3 =                      0xBBBBBBBBUL;
 219              		.loc 1 216 9 view .LVU95
 220              		.loc 1 218 9 view .LVU96
 221              		.loc 1 218 59 is_stmt 0 view .LVU97
 222 00cc C362     		str	r3, [r0, #44]
 219:../Middlewares/threadx/common/src/tx_trace_enable.c **** 
 220:../Middlewares/threadx/common/src/tx_trace_enable.c ****         /* Now, loop through all existing ThreadX objects and register them in the newly setup trac
 221:../Middlewares/threadx/common/src/tx_trace_enable.c **** 
 222:../Middlewares/threadx/common/src/tx_trace_enable.c ****         /* Disable interrupts.  */
 223:../Middlewares/threadx/common/src/tx_trace_enable.c ****         TX_DISABLE
 223              		.loc 1 223 9 is_stmt 1 view .LVU98
 224              	.LBB22:
 225              	.LBI22:
 226              		.file 2 "../Middlewares/threadx/ports/cortex_m55/gnu/inc/tx_port.h"
   1:../Middlewares/threadx/ports/cortex_m55/gnu/inc/tx_port.h **** /**************************************************************************/
   2:../Middlewares/threadx/ports/cortex_m55/gnu/inc/tx_port.h **** /*                                                                        */
   3:../Middlewares/threadx/ports/cortex_m55/gnu/inc/tx_port.h **** /*       Copyright (c) Microsoft Corporation. All rights reserved.        */
   4:../Middlewares/threadx/ports/cortex_m55/gnu/inc/tx_port.h **** /*                                                                        */
   5:../Middlewares/threadx/ports/cortex_m55/gnu/inc/tx_port.h **** /*       This software is licensed under the Microsoft Software License   */
   6:../Middlewares/threadx/ports/cortex_m55/gnu/inc/tx_port.h **** /*       Terms for Microsoft Azure RTOS. Full text of the license can be  */
   7:../Middlewares/threadx/ports/cortex_m55/gnu/inc/tx_port.h **** /*       found in the LICENSE file at https://aka.ms/AzureRTOS_EULA       */
   8:../Middlewares/threadx/ports/cortex_m55/gnu/inc/tx_port.h **** /*       and in the root directory of this software.                      */
   9:../Middlewares/threadx/ports/cortex_m55/gnu/inc/tx_port.h **** /*                                                                        */
  10:../Middlewares/threadx/ports/cortex_m55/gnu/inc/tx_port.h **** /**************************************************************************/
  11:../Middlewares/threadx/ports/cortex_m55/gnu/inc/tx_port.h **** 
  12:../Middlewares/threadx/ports/cortex_m55/gnu/inc/tx_port.h **** 
  13:../Middlewares/threadx/ports/cortex_m55/gnu/inc/tx_port.h **** /**************************************************************************/
ARM GAS  /tmp/ccqaDgc2.s 			page 10


  14:../Middlewares/threadx/ports/cortex_m55/gnu/inc/tx_port.h **** /**************************************************************************/
  15:../Middlewares/threadx/ports/cortex_m55/gnu/inc/tx_port.h **** /**                                                                       */
  16:../Middlewares/threadx/ports/cortex_m55/gnu/inc/tx_port.h **** /** ThreadX Component                                                     */
  17:../Middlewares/threadx/ports/cortex_m55/gnu/inc/tx_port.h **** /**                                                                       */
  18:../Middlewares/threadx/ports/cortex_m55/gnu/inc/tx_port.h **** /**   Port Specific                                                       */
  19:../Middlewares/threadx/ports/cortex_m55/gnu/inc/tx_port.h **** /**                                                                       */
  20:../Middlewares/threadx/ports/cortex_m55/gnu/inc/tx_port.h **** /**************************************************************************/
  21:../Middlewares/threadx/ports/cortex_m55/gnu/inc/tx_port.h **** /**************************************************************************/
  22:../Middlewares/threadx/ports/cortex_m55/gnu/inc/tx_port.h **** 
  23:../Middlewares/threadx/ports/cortex_m55/gnu/inc/tx_port.h **** 
  24:../Middlewares/threadx/ports/cortex_m55/gnu/inc/tx_port.h **** /**************************************************************************/
  25:../Middlewares/threadx/ports/cortex_m55/gnu/inc/tx_port.h **** /*                                                                        */
  26:../Middlewares/threadx/ports/cortex_m55/gnu/inc/tx_port.h **** /*  PORT SPECIFIC C INFORMATION                            RELEASE        */
  27:../Middlewares/threadx/ports/cortex_m55/gnu/inc/tx_port.h **** /*                                                                        */
  28:../Middlewares/threadx/ports/cortex_m55/gnu/inc/tx_port.h **** /*    tx_port.h                                         Cortex-M55/GNU    */
  29:../Middlewares/threadx/ports/cortex_m55/gnu/inc/tx_port.h **** /*                                                           6.2.1        */
  30:../Middlewares/threadx/ports/cortex_m55/gnu/inc/tx_port.h **** /*                                                                        */
  31:../Middlewares/threadx/ports/cortex_m55/gnu/inc/tx_port.h **** /*  AUTHOR                                                                */
  32:../Middlewares/threadx/ports/cortex_m55/gnu/inc/tx_port.h **** /*                                                                        */
  33:../Middlewares/threadx/ports/cortex_m55/gnu/inc/tx_port.h **** /*    Scott Larson, Microsoft Corporation                                 */
  34:../Middlewares/threadx/ports/cortex_m55/gnu/inc/tx_port.h **** /*                                                                        */
  35:../Middlewares/threadx/ports/cortex_m55/gnu/inc/tx_port.h **** /*  DESCRIPTION                                                           */
  36:../Middlewares/threadx/ports/cortex_m55/gnu/inc/tx_port.h **** /*                                                                        */
  37:../Middlewares/threadx/ports/cortex_m55/gnu/inc/tx_port.h **** /*    This file contains data type definitions that make the ThreadX      */
  38:../Middlewares/threadx/ports/cortex_m55/gnu/inc/tx_port.h **** /*    real-time kernel function identically on a variety of different     */
  39:../Middlewares/threadx/ports/cortex_m55/gnu/inc/tx_port.h **** /*    processor architectures.  For example, the size or number of bits   */
  40:../Middlewares/threadx/ports/cortex_m55/gnu/inc/tx_port.h **** /*    in an "int" data type vary between microprocessor architectures and */
  41:../Middlewares/threadx/ports/cortex_m55/gnu/inc/tx_port.h **** /*    even C compilers for the same microprocessor.  ThreadX does not     */
  42:../Middlewares/threadx/ports/cortex_m55/gnu/inc/tx_port.h **** /*    directly use native C data types.  Instead, ThreadX creates its     */
  43:../Middlewares/threadx/ports/cortex_m55/gnu/inc/tx_port.h **** /*    own special types that can be mapped to actual data types by this   */
  44:../Middlewares/threadx/ports/cortex_m55/gnu/inc/tx_port.h **** /*    file to guarantee consistency in the interface and functionality.   */
  45:../Middlewares/threadx/ports/cortex_m55/gnu/inc/tx_port.h **** /*                                                                        */
  46:../Middlewares/threadx/ports/cortex_m55/gnu/inc/tx_port.h **** /*    This file replaces the previous Cortex-M55 files. It unifies        */
  47:../Middlewares/threadx/ports/cortex_m55/gnu/inc/tx_port.h **** /*    the Cortex-M55 compilers into one common file.                      */
  48:../Middlewares/threadx/ports/cortex_m55/gnu/inc/tx_port.h **** /*                                                                        */
  49:../Middlewares/threadx/ports/cortex_m55/gnu/inc/tx_port.h **** /*  RELEASE HISTORY                                                       */
  50:../Middlewares/threadx/ports/cortex_m55/gnu/inc/tx_port.h **** /*                                                                        */
  51:../Middlewares/threadx/ports/cortex_m55/gnu/inc/tx_port.h **** /*    DATE              NAME                      DESCRIPTION             */
  52:../Middlewares/threadx/ports/cortex_m55/gnu/inc/tx_port.h **** /*                                                                        */
  53:../Middlewares/threadx/ports/cortex_m55/gnu/inc/tx_port.h **** /*  09-30-2020      Scott Larson            Initial Version 6.1           */
  54:../Middlewares/threadx/ports/cortex_m55/gnu/inc/tx_port.h **** /*  03-02-2021      Scott Larson            Modified comment(s), added    */
  55:../Middlewares/threadx/ports/cortex_m55/gnu/inc/tx_port.h **** /*                                            ULONG64_DEFINED,            */
  56:../Middlewares/threadx/ports/cortex_m55/gnu/inc/tx_port.h **** /*                                            resulting in version 6.1.5  */
  57:../Middlewares/threadx/ports/cortex_m55/gnu/inc/tx_port.h **** /*  06-02-2021      Scott Larson            Modified comment(s), removed  */
  58:../Middlewares/threadx/ports/cortex_m55/gnu/inc/tx_port.h **** /*                                            unneeded header file, funcs */
  59:../Middlewares/threadx/ports/cortex_m55/gnu/inc/tx_port.h **** /*                                            set_control and get_control */
  60:../Middlewares/threadx/ports/cortex_m55/gnu/inc/tx_port.h **** /*                                            changed to inline,          */
  61:../Middlewares/threadx/ports/cortex_m55/gnu/inc/tx_port.h **** /*                                            added symbol to enable      */
  62:../Middlewares/threadx/ports/cortex_m55/gnu/inc/tx_port.h **** /*                                            stack error handler,        */
  63:../Middlewares/threadx/ports/cortex_m55/gnu/inc/tx_port.h **** /*                                            resulting in version 6.1.7  */
  64:../Middlewares/threadx/ports/cortex_m55/gnu/inc/tx_port.h **** /*  10-15-2021      Scott Larson            Modified comment(s), improved */
  65:../Middlewares/threadx/ports/cortex_m55/gnu/inc/tx_port.h **** /*                                            stack check error handling, */
  66:../Middlewares/threadx/ports/cortex_m55/gnu/inc/tx_port.h **** /*                                            resulting in version 6.1.9  */
  67:../Middlewares/threadx/ports/cortex_m55/gnu/inc/tx_port.h **** /*  01-31-2022      Scott Larson            Modified comment(s), unified  */
  68:../Middlewares/threadx/ports/cortex_m55/gnu/inc/tx_port.h **** /*                                            this file across compilers, */
  69:../Middlewares/threadx/ports/cortex_m55/gnu/inc/tx_port.h **** /*                                            fixed predefined macro,     */
  70:../Middlewares/threadx/ports/cortex_m55/gnu/inc/tx_port.h **** /*                                            resulting in version 6.1.10 */
ARM GAS  /tmp/ccqaDgc2.s 			page 11


  71:../Middlewares/threadx/ports/cortex_m55/gnu/inc/tx_port.h **** /*  04-25-2022      Scott Larson            Modified comments and added   */
  72:../Middlewares/threadx/ports/cortex_m55/gnu/inc/tx_port.h **** /*                                            volatile to registers,      */
  73:../Middlewares/threadx/ports/cortex_m55/gnu/inc/tx_port.h **** /*                                            resulting in version 6.1.11 */
  74:../Middlewares/threadx/ports/cortex_m55/gnu/inc/tx_port.h **** /*  07-29-2022      Scott Larson            Modified comments and changed */
  75:../Middlewares/threadx/ports/cortex_m55/gnu/inc/tx_port.h **** /*                                            secure stack initialization */
  76:../Middlewares/threadx/ports/cortex_m55/gnu/inc/tx_port.h **** /*                                            macro to port-specific,     */
  77:../Middlewares/threadx/ports/cortex_m55/gnu/inc/tx_port.h **** /*                                            described BASEPRI usage,    */
  78:../Middlewares/threadx/ports/cortex_m55/gnu/inc/tx_port.h **** /*                                            resulting in version 6.1.12 */
  79:../Middlewares/threadx/ports/cortex_m55/gnu/inc/tx_port.h **** /*  03-08-2023      Scott Larson            Removed unneeded #include,    */
  80:../Middlewares/threadx/ports/cortex_m55/gnu/inc/tx_port.h **** /*                                            resulting in version 6.2.1  */
  81:../Middlewares/threadx/ports/cortex_m55/gnu/inc/tx_port.h **** /*                                                                        */
  82:../Middlewares/threadx/ports/cortex_m55/gnu/inc/tx_port.h **** /**************************************************************************/
  83:../Middlewares/threadx/ports/cortex_m55/gnu/inc/tx_port.h **** 
  84:../Middlewares/threadx/ports/cortex_m55/gnu/inc/tx_port.h **** #ifndef TX_PORT_H
  85:../Middlewares/threadx/ports/cortex_m55/gnu/inc/tx_port.h **** #define TX_PORT_H
  86:../Middlewares/threadx/ports/cortex_m55/gnu/inc/tx_port.h **** 
  87:../Middlewares/threadx/ports/cortex_m55/gnu/inc/tx_port.h **** /* Determine if the optional ThreadX user define file should be used.  */
  88:../Middlewares/threadx/ports/cortex_m55/gnu/inc/tx_port.h **** #ifdef TX_INCLUDE_USER_DEFINE_FILE
  89:../Middlewares/threadx/ports/cortex_m55/gnu/inc/tx_port.h **** 
  90:../Middlewares/threadx/ports/cortex_m55/gnu/inc/tx_port.h **** /* Yes, include the user defines in tx_user.h. The defines in this file may
  91:../Middlewares/threadx/ports/cortex_m55/gnu/inc/tx_port.h ****    alternately be defined on the command line.  */
  92:../Middlewares/threadx/ports/cortex_m55/gnu/inc/tx_port.h **** 
  93:../Middlewares/threadx/ports/cortex_m55/gnu/inc/tx_port.h **** #include "tx_user.h"
  94:../Middlewares/threadx/ports/cortex_m55/gnu/inc/tx_port.h **** #endif /* TX_INCLUDE_USER_DEFINE_FILE */
  95:../Middlewares/threadx/ports/cortex_m55/gnu/inc/tx_port.h **** 
  96:../Middlewares/threadx/ports/cortex_m55/gnu/inc/tx_port.h **** /* Define compiler library include files.  */
  97:../Middlewares/threadx/ports/cortex_m55/gnu/inc/tx_port.h **** 
  98:../Middlewares/threadx/ports/cortex_m55/gnu/inc/tx_port.h **** #include <stdlib.h>
  99:../Middlewares/threadx/ports/cortex_m55/gnu/inc/tx_port.h **** #include <string.h>
 100:../Middlewares/threadx/ports/cortex_m55/gnu/inc/tx_port.h **** 
 101:../Middlewares/threadx/ports/cortex_m55/gnu/inc/tx_port.h **** #ifdef __ICCARM__
 102:../Middlewares/threadx/ports/cortex_m55/gnu/inc/tx_port.h **** #include <intrinsics.h>                         /* IAR Intrinsics */
 103:../Middlewares/threadx/ports/cortex_m55/gnu/inc/tx_port.h **** #define __asm__                 __asm           /* Define to make all inline asm from each compiler
 104:../Middlewares/threadx/ports/cortex_m55/gnu/inc/tx_port.h **** #define _tx_control_get         __get_CONTROL
 105:../Middlewares/threadx/ports/cortex_m55/gnu/inc/tx_port.h **** #define _tx_control_set         __set_CONTROL
 106:../Middlewares/threadx/ports/cortex_m55/gnu/inc/tx_port.h **** #define _tx_ipsr_get            __get_IPSR
 107:../Middlewares/threadx/ports/cortex_m55/gnu/inc/tx_port.h **** #ifdef  TX_ENABLE_IAR_LIBRARY_SUPPORT
 108:../Middlewares/threadx/ports/cortex_m55/gnu/inc/tx_port.h **** #include <yvals.h>
 109:../Middlewares/threadx/ports/cortex_m55/gnu/inc/tx_port.h **** #endif /* TX_ENABLE_IAR_LIBRARY_SUPPORT */
 110:../Middlewares/threadx/ports/cortex_m55/gnu/inc/tx_port.h **** #endif /* __ICCARM__ */
 111:../Middlewares/threadx/ports/cortex_m55/gnu/inc/tx_port.h **** 
 112:../Middlewares/threadx/ports/cortex_m55/gnu/inc/tx_port.h **** 
 113:../Middlewares/threadx/ports/cortex_m55/gnu/inc/tx_port.h **** /* Define ThreadX basic types for this port.  */
 114:../Middlewares/threadx/ports/cortex_m55/gnu/inc/tx_port.h **** 
 115:../Middlewares/threadx/ports/cortex_m55/gnu/inc/tx_port.h **** #define VOID                                    void
 116:../Middlewares/threadx/ports/cortex_m55/gnu/inc/tx_port.h **** typedef char                                    CHAR;
 117:../Middlewares/threadx/ports/cortex_m55/gnu/inc/tx_port.h **** typedef unsigned char                           UCHAR;
 118:../Middlewares/threadx/ports/cortex_m55/gnu/inc/tx_port.h **** typedef int                                     INT;
 119:../Middlewares/threadx/ports/cortex_m55/gnu/inc/tx_port.h **** typedef unsigned int                            UINT;
 120:../Middlewares/threadx/ports/cortex_m55/gnu/inc/tx_port.h **** typedef long                                    LONG;
 121:../Middlewares/threadx/ports/cortex_m55/gnu/inc/tx_port.h **** typedef unsigned long                           ULONG;
 122:../Middlewares/threadx/ports/cortex_m55/gnu/inc/tx_port.h **** typedef unsigned long long                      ULONG64;
 123:../Middlewares/threadx/ports/cortex_m55/gnu/inc/tx_port.h **** typedef short                                   SHORT;
 124:../Middlewares/threadx/ports/cortex_m55/gnu/inc/tx_port.h **** typedef unsigned short                          USHORT;
 125:../Middlewares/threadx/ports/cortex_m55/gnu/inc/tx_port.h **** #define ULONG64_DEFINED
 126:../Middlewares/threadx/ports/cortex_m55/gnu/inc/tx_port.h **** 
 127:../Middlewares/threadx/ports/cortex_m55/gnu/inc/tx_port.h **** /* Function prototypes for this port. */
ARM GAS  /tmp/ccqaDgc2.s 			page 12


 128:../Middlewares/threadx/ports/cortex_m55/gnu/inc/tx_port.h **** struct  TX_THREAD_STRUCT;
 129:../Middlewares/threadx/ports/cortex_m55/gnu/inc/tx_port.h **** UINT    _txe_thread_secure_stack_allocate(struct TX_THREAD_STRUCT *thread_ptr, ULONG stack_size);
 130:../Middlewares/threadx/ports/cortex_m55/gnu/inc/tx_port.h **** UINT    _txe_thread_secure_stack_free(struct TX_THREAD_STRUCT *thread_ptr);
 131:../Middlewares/threadx/ports/cortex_m55/gnu/inc/tx_port.h **** UINT    _tx_thread_secure_stack_allocate(struct TX_THREAD_STRUCT *tx_thread, ULONG stack_size);
 132:../Middlewares/threadx/ports/cortex_m55/gnu/inc/tx_port.h **** UINT    _tx_thread_secure_stack_free(struct TX_THREAD_STRUCT *tx_thread);
 133:../Middlewares/threadx/ports/cortex_m55/gnu/inc/tx_port.h **** 
 134:../Middlewares/threadx/ports/cortex_m55/gnu/inc/tx_port.h **** /* Define the system API mappings based on the error checking
 135:../Middlewares/threadx/ports/cortex_m55/gnu/inc/tx_port.h ****    selected by the user.  Note: this section is only applicable to
 136:../Middlewares/threadx/ports/cortex_m55/gnu/inc/tx_port.h ****    application source code, hence the conditional that turns off this
 137:../Middlewares/threadx/ports/cortex_m55/gnu/inc/tx_port.h ****    stuff when the include file is processed by the ThreadX source. */
 138:../Middlewares/threadx/ports/cortex_m55/gnu/inc/tx_port.h **** 
 139:../Middlewares/threadx/ports/cortex_m55/gnu/inc/tx_port.h **** #ifndef TX_SOURCE_CODE
 140:../Middlewares/threadx/ports/cortex_m55/gnu/inc/tx_port.h **** 
 141:../Middlewares/threadx/ports/cortex_m55/gnu/inc/tx_port.h **** 
 142:../Middlewares/threadx/ports/cortex_m55/gnu/inc/tx_port.h **** /* Determine if error checking is desired.  If so, map API functions
 143:../Middlewares/threadx/ports/cortex_m55/gnu/inc/tx_port.h ****    to the appropriate error checking front-ends.  Otherwise, map API
 144:../Middlewares/threadx/ports/cortex_m55/gnu/inc/tx_port.h ****    functions to the core functions that actually perform the work.
 145:../Middlewares/threadx/ports/cortex_m55/gnu/inc/tx_port.h ****    Note: error checking is enabled by default.  */
 146:../Middlewares/threadx/ports/cortex_m55/gnu/inc/tx_port.h **** 
 147:../Middlewares/threadx/ports/cortex_m55/gnu/inc/tx_port.h **** #ifdef TX_DISABLE_ERROR_CHECKING
 148:../Middlewares/threadx/ports/cortex_m55/gnu/inc/tx_port.h **** 
 149:../Middlewares/threadx/ports/cortex_m55/gnu/inc/tx_port.h **** /* Services without error checking.  */
 150:../Middlewares/threadx/ports/cortex_m55/gnu/inc/tx_port.h **** 
 151:../Middlewares/threadx/ports/cortex_m55/gnu/inc/tx_port.h **** #define tx_thread_secure_stack_allocate   _tx_thread_secure_stack_allocate
 152:../Middlewares/threadx/ports/cortex_m55/gnu/inc/tx_port.h **** #define tx_thread_secure_stack_free       _tx_thread_secure_stack_free
 153:../Middlewares/threadx/ports/cortex_m55/gnu/inc/tx_port.h **** 
 154:../Middlewares/threadx/ports/cortex_m55/gnu/inc/tx_port.h **** #else
 155:../Middlewares/threadx/ports/cortex_m55/gnu/inc/tx_port.h **** 
 156:../Middlewares/threadx/ports/cortex_m55/gnu/inc/tx_port.h **** /* Services with error checking.  */
 157:../Middlewares/threadx/ports/cortex_m55/gnu/inc/tx_port.h **** 
 158:../Middlewares/threadx/ports/cortex_m55/gnu/inc/tx_port.h **** #define tx_thread_secure_stack_allocate   _txe_thread_secure_stack_allocate
 159:../Middlewares/threadx/ports/cortex_m55/gnu/inc/tx_port.h **** #define tx_thread_secure_stack_free       _txe_thread_secure_stack_free
 160:../Middlewares/threadx/ports/cortex_m55/gnu/inc/tx_port.h **** 
 161:../Middlewares/threadx/ports/cortex_m55/gnu/inc/tx_port.h **** #endif  /* TX_DISABLE_ERROR_CHECKING */
 162:../Middlewares/threadx/ports/cortex_m55/gnu/inc/tx_port.h **** #endif  /* TX_SOURCE_CODE */
 163:../Middlewares/threadx/ports/cortex_m55/gnu/inc/tx_port.h **** 
 164:../Middlewares/threadx/ports/cortex_m55/gnu/inc/tx_port.h **** /* This port has a usage fault handler in _tx_initialize_low_level for stack exceptions.  */
 165:../Middlewares/threadx/ports/cortex_m55/gnu/inc/tx_port.h **** #define TX_PORT_THREAD_STACK_ERROR_HANDLING
 166:../Middlewares/threadx/ports/cortex_m55/gnu/inc/tx_port.h **** 
 167:../Middlewares/threadx/ports/cortex_m55/gnu/inc/tx_port.h **** /* Define the priority levels for ThreadX.  Legal values range
 168:../Middlewares/threadx/ports/cortex_m55/gnu/inc/tx_port.h ****    from 32 to 1024 and MUST be evenly divisible by 32.  */
 169:../Middlewares/threadx/ports/cortex_m55/gnu/inc/tx_port.h **** 
 170:../Middlewares/threadx/ports/cortex_m55/gnu/inc/tx_port.h **** #ifndef TX_MAX_PRIORITIES
 171:../Middlewares/threadx/ports/cortex_m55/gnu/inc/tx_port.h **** #define TX_MAX_PRIORITIES                       32
 172:../Middlewares/threadx/ports/cortex_m55/gnu/inc/tx_port.h **** #endif
 173:../Middlewares/threadx/ports/cortex_m55/gnu/inc/tx_port.h **** 
 174:../Middlewares/threadx/ports/cortex_m55/gnu/inc/tx_port.h **** 
 175:../Middlewares/threadx/ports/cortex_m55/gnu/inc/tx_port.h **** /* Define the minimum stack for a ThreadX thread on this processor. If the size supplied during
 176:../Middlewares/threadx/ports/cortex_m55/gnu/inc/tx_port.h ****    thread creation is less than this value, the thread create call will return an error.  */
 177:../Middlewares/threadx/ports/cortex_m55/gnu/inc/tx_port.h **** 
 178:../Middlewares/threadx/ports/cortex_m55/gnu/inc/tx_port.h **** #ifndef TX_MINIMUM_STACK
 179:../Middlewares/threadx/ports/cortex_m55/gnu/inc/tx_port.h **** #define TX_MINIMUM_STACK                        200         /* Minimum stack size for this port  */
 180:../Middlewares/threadx/ports/cortex_m55/gnu/inc/tx_port.h **** #endif
 181:../Middlewares/threadx/ports/cortex_m55/gnu/inc/tx_port.h **** 
 182:../Middlewares/threadx/ports/cortex_m55/gnu/inc/tx_port.h **** 
 183:../Middlewares/threadx/ports/cortex_m55/gnu/inc/tx_port.h **** /* Define the system timer thread's default stack size and priority.  These are only applicable
 184:../Middlewares/threadx/ports/cortex_m55/gnu/inc/tx_port.h ****    if TX_TIMER_PROCESS_IN_ISR is not defined.  */
ARM GAS  /tmp/ccqaDgc2.s 			page 13


 185:../Middlewares/threadx/ports/cortex_m55/gnu/inc/tx_port.h **** 
 186:../Middlewares/threadx/ports/cortex_m55/gnu/inc/tx_port.h **** #ifndef TX_TIMER_THREAD_STACK_SIZE
 187:../Middlewares/threadx/ports/cortex_m55/gnu/inc/tx_port.h **** #define TX_TIMER_THREAD_STACK_SIZE              1024        /* Default timer thread stack size  */
 188:../Middlewares/threadx/ports/cortex_m55/gnu/inc/tx_port.h **** #endif
 189:../Middlewares/threadx/ports/cortex_m55/gnu/inc/tx_port.h **** 
 190:../Middlewares/threadx/ports/cortex_m55/gnu/inc/tx_port.h **** #ifndef TX_TIMER_THREAD_PRIORITY
 191:../Middlewares/threadx/ports/cortex_m55/gnu/inc/tx_port.h **** #define TX_TIMER_THREAD_PRIORITY                0           /* Default timer thread priority    */
 192:../Middlewares/threadx/ports/cortex_m55/gnu/inc/tx_port.h **** #endif
 193:../Middlewares/threadx/ports/cortex_m55/gnu/inc/tx_port.h **** 
 194:../Middlewares/threadx/ports/cortex_m55/gnu/inc/tx_port.h **** /* By default, ThreadX for Cortex-M uses the PRIMASK register to enable/disable interrupts.
 195:../Middlewares/threadx/ports/cortex_m55/gnu/inc/tx_port.h **** If using BASEPRI is desired, define the following two symbols for both c and assembly files:
 196:../Middlewares/threadx/ports/cortex_m55/gnu/inc/tx_port.h **** TX_PORT_USE_BASEPRI - This tells ThreadX to use BASEPRI instead of PRIMASK.
 197:../Middlewares/threadx/ports/cortex_m55/gnu/inc/tx_port.h **** TX_PORT_BASEPRI = (priority_mask << (8 - number_priority_bits)) - this defines the maximum priority
 198:../Middlewares/threadx/ports/cortex_m55/gnu/inc/tx_port.h **** Any interrupt with a higher priority than priority_mask will not be masked, thus the interrupt will
 199:../Middlewares/threadx/ports/cortex_m55/gnu/inc/tx_port.h **** */
 200:../Middlewares/threadx/ports/cortex_m55/gnu/inc/tx_port.h **** 
 201:../Middlewares/threadx/ports/cortex_m55/gnu/inc/tx_port.h **** /* Define various constants for the ThreadX Cortex-M port.  */
 202:../Middlewares/threadx/ports/cortex_m55/gnu/inc/tx_port.h **** 
 203:../Middlewares/threadx/ports/cortex_m55/gnu/inc/tx_port.h **** #define TX_INT_DISABLE                          1           /* Disable interrupts               */
 204:../Middlewares/threadx/ports/cortex_m55/gnu/inc/tx_port.h **** #define TX_INT_ENABLE                           0           /* Enable interrupts                */
 205:../Middlewares/threadx/ports/cortex_m55/gnu/inc/tx_port.h **** 
 206:../Middlewares/threadx/ports/cortex_m55/gnu/inc/tx_port.h **** 
 207:../Middlewares/threadx/ports/cortex_m55/gnu/inc/tx_port.h **** /* Define the clock source for trace event entry time stamp. The following two item are port specif
 208:../Middlewares/threadx/ports/cortex_m55/gnu/inc/tx_port.h ****    For example, if the time source is at the address 0x0a800024 and is 16-bits in size, the clock
 209:../Middlewares/threadx/ports/cortex_m55/gnu/inc/tx_port.h ****    source constants would be:
 210:../Middlewares/threadx/ports/cortex_m55/gnu/inc/tx_port.h **** 
 211:../Middlewares/threadx/ports/cortex_m55/gnu/inc/tx_port.h **** #define TX_TRACE_TIME_SOURCE                    *((volatile ULONG *) 0x0a800024)
 212:../Middlewares/threadx/ports/cortex_m55/gnu/inc/tx_port.h **** #define TX_TRACE_TIME_MASK                      0x0000FFFFUL
 213:../Middlewares/threadx/ports/cortex_m55/gnu/inc/tx_port.h **** 
 214:../Middlewares/threadx/ports/cortex_m55/gnu/inc/tx_port.h **** */
 215:../Middlewares/threadx/ports/cortex_m55/gnu/inc/tx_port.h **** 
 216:../Middlewares/threadx/ports/cortex_m55/gnu/inc/tx_port.h **** #ifndef TX_MISRA_ENABLE
 217:../Middlewares/threadx/ports/cortex_m55/gnu/inc/tx_port.h **** #ifndef TX_TRACE_TIME_SOURCE
 218:../Middlewares/threadx/ports/cortex_m55/gnu/inc/tx_port.h **** #define TX_TRACE_TIME_SOURCE                    *((volatile ULONG *) 0xE0001004)
 219:../Middlewares/threadx/ports/cortex_m55/gnu/inc/tx_port.h **** #endif
 220:../Middlewares/threadx/ports/cortex_m55/gnu/inc/tx_port.h **** #else
 221:../Middlewares/threadx/ports/cortex_m55/gnu/inc/tx_port.h **** ULONG   _tx_misra_time_stamp_get(VOID);
 222:../Middlewares/threadx/ports/cortex_m55/gnu/inc/tx_port.h **** #define TX_TRACE_TIME_SOURCE                    _tx_misra_time_stamp_get()
 223:../Middlewares/threadx/ports/cortex_m55/gnu/inc/tx_port.h **** #endif
 224:../Middlewares/threadx/ports/cortex_m55/gnu/inc/tx_port.h **** 
 225:../Middlewares/threadx/ports/cortex_m55/gnu/inc/tx_port.h **** #ifndef TX_TRACE_TIME_MASK
 226:../Middlewares/threadx/ports/cortex_m55/gnu/inc/tx_port.h **** #define TX_TRACE_TIME_MASK                      0xFFFFFFFFUL
 227:../Middlewares/threadx/ports/cortex_m55/gnu/inc/tx_port.h **** #endif
 228:../Middlewares/threadx/ports/cortex_m55/gnu/inc/tx_port.h **** 
 229:../Middlewares/threadx/ports/cortex_m55/gnu/inc/tx_port.h **** 
 230:../Middlewares/threadx/ports/cortex_m55/gnu/inc/tx_port.h **** /* Define the port specific options for the _tx_build_options variable. This variable indicates
 231:../Middlewares/threadx/ports/cortex_m55/gnu/inc/tx_port.h ****    how the ThreadX library was built.  */
 232:../Middlewares/threadx/ports/cortex_m55/gnu/inc/tx_port.h **** 
 233:../Middlewares/threadx/ports/cortex_m55/gnu/inc/tx_port.h **** #define TX_PORT_SPECIFIC_BUILD_OPTIONS          (0)
 234:../Middlewares/threadx/ports/cortex_m55/gnu/inc/tx_port.h **** 
 235:../Middlewares/threadx/ports/cortex_m55/gnu/inc/tx_port.h **** 
 236:../Middlewares/threadx/ports/cortex_m55/gnu/inc/tx_port.h **** /* Define the in-line initialization constant so that modules with in-line
 237:../Middlewares/threadx/ports/cortex_m55/gnu/inc/tx_port.h ****    initialization capabilities can prevent their initialization from being
 238:../Middlewares/threadx/ports/cortex_m55/gnu/inc/tx_port.h ****    a function call.  */
 239:../Middlewares/threadx/ports/cortex_m55/gnu/inc/tx_port.h **** 
 240:../Middlewares/threadx/ports/cortex_m55/gnu/inc/tx_port.h **** #ifdef TX_MISRA_ENABLE
 241:../Middlewares/threadx/ports/cortex_m55/gnu/inc/tx_port.h **** #define TX_DISABLE_INLINE
ARM GAS  /tmp/ccqaDgc2.s 			page 14


 242:../Middlewares/threadx/ports/cortex_m55/gnu/inc/tx_port.h **** #else
 243:../Middlewares/threadx/ports/cortex_m55/gnu/inc/tx_port.h **** #define TX_INLINE_INITIALIZATION
 244:../Middlewares/threadx/ports/cortex_m55/gnu/inc/tx_port.h **** #endif
 245:../Middlewares/threadx/ports/cortex_m55/gnu/inc/tx_port.h **** 
 246:../Middlewares/threadx/ports/cortex_m55/gnu/inc/tx_port.h **** 
 247:../Middlewares/threadx/ports/cortex_m55/gnu/inc/tx_port.h **** /* Determine whether or not stack checking is enabled. By default, ThreadX stack checking is
 248:../Middlewares/threadx/ports/cortex_m55/gnu/inc/tx_port.h ****    disabled. When the following is defined, ThreadX thread stack checking is enabled.  If stack
 249:../Middlewares/threadx/ports/cortex_m55/gnu/inc/tx_port.h ****    checking is enabled (TX_ENABLE_STACK_CHECKING is defined), the TX_DISABLE_STACK_FILLING
 250:../Middlewares/threadx/ports/cortex_m55/gnu/inc/tx_port.h ****    define is negated, thereby forcing the stack fill which is necessary for the stack checking
 251:../Middlewares/threadx/ports/cortex_m55/gnu/inc/tx_port.h ****    logic.  */
 252:../Middlewares/threadx/ports/cortex_m55/gnu/inc/tx_port.h **** 
 253:../Middlewares/threadx/ports/cortex_m55/gnu/inc/tx_port.h **** #ifndef TX_MISRA_ENABLE
 254:../Middlewares/threadx/ports/cortex_m55/gnu/inc/tx_port.h **** #ifdef TX_ENABLE_STACK_CHECKING
 255:../Middlewares/threadx/ports/cortex_m55/gnu/inc/tx_port.h **** #undef TX_DISABLE_STACK_FILLING
 256:../Middlewares/threadx/ports/cortex_m55/gnu/inc/tx_port.h **** #endif
 257:../Middlewares/threadx/ports/cortex_m55/gnu/inc/tx_port.h **** #endif
 258:../Middlewares/threadx/ports/cortex_m55/gnu/inc/tx_port.h **** 
 259:../Middlewares/threadx/ports/cortex_m55/gnu/inc/tx_port.h **** 
 260:../Middlewares/threadx/ports/cortex_m55/gnu/inc/tx_port.h **** /* Define the TX_THREAD control block extensions for this port. The main reason
 261:../Middlewares/threadx/ports/cortex_m55/gnu/inc/tx_port.h ****    for the multiple macros is so that backward compatibility can be maintained with
 262:../Middlewares/threadx/ports/cortex_m55/gnu/inc/tx_port.h ****    existing ThreadX kernel awareness modules.  */
 263:../Middlewares/threadx/ports/cortex_m55/gnu/inc/tx_port.h **** 
 264:../Middlewares/threadx/ports/cortex_m55/gnu/inc/tx_port.h **** #define TX_THREAD_EXTENSION_0
 265:../Middlewares/threadx/ports/cortex_m55/gnu/inc/tx_port.h **** #define TX_THREAD_EXTENSION_1
 266:../Middlewares/threadx/ports/cortex_m55/gnu/inc/tx_port.h **** 
 267:../Middlewares/threadx/ports/cortex_m55/gnu/inc/tx_port.h **** #ifdef  TX_ENABLE_IAR_LIBRARY_SUPPORT
 268:../Middlewares/threadx/ports/cortex_m55/gnu/inc/tx_port.h **** /* IAR library support */
 269:../Middlewares/threadx/ports/cortex_m55/gnu/inc/tx_port.h **** #if !defined(TX_SINGLE_MODE_SECURE) && !defined(TX_SINGLE_MODE_NON_SECURE)
 270:../Middlewares/threadx/ports/cortex_m55/gnu/inc/tx_port.h **** /* ThreadX in non-secure zone with calls to secure zone. */
 271:../Middlewares/threadx/ports/cortex_m55/gnu/inc/tx_port.h **** #define TX_THREAD_EXTENSION_2           VOID    *tx_thread_secure_stack_context;    \
 272:../Middlewares/threadx/ports/cortex_m55/gnu/inc/tx_port.h ****                                         VOID    *tx_thread_iar_tls_pointer;
 273:../Middlewares/threadx/ports/cortex_m55/gnu/inc/tx_port.h **** #else
 274:../Middlewares/threadx/ports/cortex_m55/gnu/inc/tx_port.h **** /* ThreadX in only one zone. */
 275:../Middlewares/threadx/ports/cortex_m55/gnu/inc/tx_port.h **** #define TX_THREAD_EXTENSION_2           VOID    *tx_thread_iar_tls_pointer;
 276:../Middlewares/threadx/ports/cortex_m55/gnu/inc/tx_port.h **** #endif
 277:../Middlewares/threadx/ports/cortex_m55/gnu/inc/tx_port.h **** 
 278:../Middlewares/threadx/ports/cortex_m55/gnu/inc/tx_port.h **** #else
 279:../Middlewares/threadx/ports/cortex_m55/gnu/inc/tx_port.h **** /* No IAR library support */
 280:../Middlewares/threadx/ports/cortex_m55/gnu/inc/tx_port.h **** #if !defined(TX_SINGLE_MODE_SECURE) && !defined(TX_SINGLE_MODE_NON_SECURE)
 281:../Middlewares/threadx/ports/cortex_m55/gnu/inc/tx_port.h **** /* ThreadX in non-secure zone with calls to secure zone. */
 282:../Middlewares/threadx/ports/cortex_m55/gnu/inc/tx_port.h **** #define TX_THREAD_EXTENSION_2           VOID    *tx_thread_secure_stack_context;
 283:../Middlewares/threadx/ports/cortex_m55/gnu/inc/tx_port.h **** #else
 284:../Middlewares/threadx/ports/cortex_m55/gnu/inc/tx_port.h **** /* ThreadX in only one zone. */
 285:../Middlewares/threadx/ports/cortex_m55/gnu/inc/tx_port.h **** #define TX_THREAD_EXTENSION_2
 286:../Middlewares/threadx/ports/cortex_m55/gnu/inc/tx_port.h **** #endif
 287:../Middlewares/threadx/ports/cortex_m55/gnu/inc/tx_port.h **** 
 288:../Middlewares/threadx/ports/cortex_m55/gnu/inc/tx_port.h **** #endif  /* TX_ENABLE_IAR_LIBRARY_SUPPORT */
 289:../Middlewares/threadx/ports/cortex_m55/gnu/inc/tx_port.h **** 
 290:../Middlewares/threadx/ports/cortex_m55/gnu/inc/tx_port.h **** #define TX_THREAD_EXTENSION_3
 291:../Middlewares/threadx/ports/cortex_m55/gnu/inc/tx_port.h **** 
 292:../Middlewares/threadx/ports/cortex_m55/gnu/inc/tx_port.h **** 
 293:../Middlewares/threadx/ports/cortex_m55/gnu/inc/tx_port.h **** /* Define the port extensions of the remaining ThreadX objects.  */
 294:../Middlewares/threadx/ports/cortex_m55/gnu/inc/tx_port.h **** 
 295:../Middlewares/threadx/ports/cortex_m55/gnu/inc/tx_port.h **** #define TX_BLOCK_POOL_EXTENSION
 296:../Middlewares/threadx/ports/cortex_m55/gnu/inc/tx_port.h **** #define TX_BYTE_POOL_EXTENSION
 297:../Middlewares/threadx/ports/cortex_m55/gnu/inc/tx_port.h **** #define TX_EVENT_FLAGS_GROUP_EXTENSION
 298:../Middlewares/threadx/ports/cortex_m55/gnu/inc/tx_port.h **** #define TX_MUTEX_EXTENSION
ARM GAS  /tmp/ccqaDgc2.s 			page 15


 299:../Middlewares/threadx/ports/cortex_m55/gnu/inc/tx_port.h **** #define TX_QUEUE_EXTENSION
 300:../Middlewares/threadx/ports/cortex_m55/gnu/inc/tx_port.h **** #define TX_SEMAPHORE_EXTENSION
 301:../Middlewares/threadx/ports/cortex_m55/gnu/inc/tx_port.h **** #define TX_TIMER_EXTENSION
 302:../Middlewares/threadx/ports/cortex_m55/gnu/inc/tx_port.h **** 
 303:../Middlewares/threadx/ports/cortex_m55/gnu/inc/tx_port.h **** 
 304:../Middlewares/threadx/ports/cortex_m55/gnu/inc/tx_port.h **** /* Define the user extension field of the thread control block.  Nothing
 305:../Middlewares/threadx/ports/cortex_m55/gnu/inc/tx_port.h ****    additional is needed for this port so it is defined as white space.  */
 306:../Middlewares/threadx/ports/cortex_m55/gnu/inc/tx_port.h **** 
 307:../Middlewares/threadx/ports/cortex_m55/gnu/inc/tx_port.h **** #ifndef TX_THREAD_USER_EXTENSION
 308:../Middlewares/threadx/ports/cortex_m55/gnu/inc/tx_port.h **** #define TX_THREAD_USER_EXTENSION
 309:../Middlewares/threadx/ports/cortex_m55/gnu/inc/tx_port.h **** #endif
 310:../Middlewares/threadx/ports/cortex_m55/gnu/inc/tx_port.h **** 
 311:../Middlewares/threadx/ports/cortex_m55/gnu/inc/tx_port.h **** 
 312:../Middlewares/threadx/ports/cortex_m55/gnu/inc/tx_port.h **** /* Define the macros for processing extensions in tx_thread_create, tx_thread_delete,
 313:../Middlewares/threadx/ports/cortex_m55/gnu/inc/tx_port.h ****    tx_thread_shell_entry, and tx_thread_terminate.  */
 314:../Middlewares/threadx/ports/cortex_m55/gnu/inc/tx_port.h **** #ifdef  TX_ENABLE_IAR_LIBRARY_SUPPORT
 315:../Middlewares/threadx/ports/cortex_m55/gnu/inc/tx_port.h **** void    *_tx_iar_create_per_thread_tls_area(void);
 316:../Middlewares/threadx/ports/cortex_m55/gnu/inc/tx_port.h **** void    _tx_iar_destroy_per_thread_tls_area(void *tls_ptr);
 317:../Middlewares/threadx/ports/cortex_m55/gnu/inc/tx_port.h **** void    __iar_Initlocks(void);
 318:../Middlewares/threadx/ports/cortex_m55/gnu/inc/tx_port.h **** #define TX_THREAD_CREATE_EXTENSION(thread_ptr)                      thread_ptr -> tx_thread_iar_tls
 319:../Middlewares/threadx/ports/cortex_m55/gnu/inc/tx_port.h **** 
 320:../Middlewares/threadx/ports/cortex_m55/gnu/inc/tx_port.h **** #if !defined(TX_SINGLE_MODE_SECURE) && !defined(TX_SINGLE_MODE_NON_SECURE)
 321:../Middlewares/threadx/ports/cortex_m55/gnu/inc/tx_port.h **** #define TX_THREAD_DELETE_EXTENSION(thread_ptr)                      do {_tx_iar_destroy_per_thread_
 322:../Middlewares/threadx/ports/cortex_m55/gnu/inc/tx_port.h ****                                                                         thread_ptr -> tx_thread_iar
 323:../Middlewares/threadx/ports/cortex_m55/gnu/inc/tx_port.h ****                                                                     if(thread_ptr -> tx_thread_secu
 324:../Middlewares/threadx/ports/cortex_m55/gnu/inc/tx_port.h **** #else
 325:../Middlewares/threadx/ports/cortex_m55/gnu/inc/tx_port.h **** #define TX_THREAD_DELETE_EXTENSION(thread_ptr)                      do {_tx_iar_destroy_per_thread_
 326:../Middlewares/threadx/ports/cortex_m55/gnu/inc/tx_port.h ****                                                                         thread_ptr -> tx_thread_iar
 327:../Middlewares/threadx/ports/cortex_m55/gnu/inc/tx_port.h **** #endif
 328:../Middlewares/threadx/ports/cortex_m55/gnu/inc/tx_port.h **** #define TX_PORT_SPECIFIC_PRE_SCHEDULER_INITIALIZATION               do {__iar_Initlocks();} while(0
 329:../Middlewares/threadx/ports/cortex_m55/gnu/inc/tx_port.h **** 
 330:../Middlewares/threadx/ports/cortex_m55/gnu/inc/tx_port.h **** #else   /* No IAR library support. */
 331:../Middlewares/threadx/ports/cortex_m55/gnu/inc/tx_port.h **** #define TX_THREAD_CREATE_EXTENSION(thread_ptr)
 332:../Middlewares/threadx/ports/cortex_m55/gnu/inc/tx_port.h **** #if !defined(TX_SINGLE_MODE_SECURE) && !defined(TX_SINGLE_MODE_NON_SECURE)
 333:../Middlewares/threadx/ports/cortex_m55/gnu/inc/tx_port.h **** #define TX_THREAD_DELETE_EXTENSION(thread_ptr)                      if(thread_ptr -> tx_thread_secu
 334:../Middlewares/threadx/ports/cortex_m55/gnu/inc/tx_port.h **** #else
 335:../Middlewares/threadx/ports/cortex_m55/gnu/inc/tx_port.h **** #define TX_THREAD_DELETE_EXTENSION(thread_ptr)
 336:../Middlewares/threadx/ports/cortex_m55/gnu/inc/tx_port.h **** #endif
 337:../Middlewares/threadx/ports/cortex_m55/gnu/inc/tx_port.h **** #endif  /* TX_ENABLE_IAR_LIBRARY_SUPPORT */
 338:../Middlewares/threadx/ports/cortex_m55/gnu/inc/tx_port.h **** 
 339:../Middlewares/threadx/ports/cortex_m55/gnu/inc/tx_port.h **** #if !defined(TX_SINGLE_MODE_SECURE) && !defined(TX_SINGLE_MODE_NON_SECURE)
 340:../Middlewares/threadx/ports/cortex_m55/gnu/inc/tx_port.h **** /* Define the size of the secure stack for the timer thread and use the extension to allocate the s
 341:../Middlewares/threadx/ports/cortex_m55/gnu/inc/tx_port.h **** #define TX_TIMER_THREAD_SECURE_STACK_SIZE       256
 342:../Middlewares/threadx/ports/cortex_m55/gnu/inc/tx_port.h **** #define TX_TIMER_INITIALIZE_EXTENSION(status)   _tx_thread_secure_stack_allocate(&_tx_timer_thread,
 343:../Middlewares/threadx/ports/cortex_m55/gnu/inc/tx_port.h **** #endif
 344:../Middlewares/threadx/ports/cortex_m55/gnu/inc/tx_port.h **** 
 345:../Middlewares/threadx/ports/cortex_m55/gnu/inc/tx_port.h **** 
 346:../Middlewares/threadx/ports/cortex_m55/gnu/inc/tx_port.h **** #if defined(__ARMVFP__) || defined(__ARM_PCS_VFP) || defined(__ARM_FP) || defined(__TARGET_FPU_VFP)
 347:../Middlewares/threadx/ports/cortex_m55/gnu/inc/tx_port.h **** 
 348:../Middlewares/threadx/ports/cortex_m55/gnu/inc/tx_port.h **** #ifdef TX_MISRA_ENABLE
 349:../Middlewares/threadx/ports/cortex_m55/gnu/inc/tx_port.h **** 
 350:../Middlewares/threadx/ports/cortex_m55/gnu/inc/tx_port.h **** ULONG  _tx_misra_control_get(void);
 351:../Middlewares/threadx/ports/cortex_m55/gnu/inc/tx_port.h **** void   _tx_misra_control_set(ULONG value);
 352:../Middlewares/threadx/ports/cortex_m55/gnu/inc/tx_port.h **** ULONG  _tx_misra_fpccr_get(void);
 353:../Middlewares/threadx/ports/cortex_m55/gnu/inc/tx_port.h **** void   _tx_misra_vfp_touch(void);
 354:../Middlewares/threadx/ports/cortex_m55/gnu/inc/tx_port.h **** 
 355:../Middlewares/threadx/ports/cortex_m55/gnu/inc/tx_port.h **** #else   /* TX_MISRA_ENABLE not defined */
ARM GAS  /tmp/ccqaDgc2.s 			page 16


 356:../Middlewares/threadx/ports/cortex_m55/gnu/inc/tx_port.h **** 
 357:../Middlewares/threadx/ports/cortex_m55/gnu/inc/tx_port.h **** #ifdef __GNUC__ /* GCC and ARM Compiler 6 */
 358:../Middlewares/threadx/ports/cortex_m55/gnu/inc/tx_port.h **** 
 359:../Middlewares/threadx/ports/cortex_m55/gnu/inc/tx_port.h **** __attribute__( ( always_inline ) ) static inline ULONG _tx_control_get(void)
 360:../Middlewares/threadx/ports/cortex_m55/gnu/inc/tx_port.h **** {
 361:../Middlewares/threadx/ports/cortex_m55/gnu/inc/tx_port.h **** ULONG  control_value;
 362:../Middlewares/threadx/ports/cortex_m55/gnu/inc/tx_port.h **** 
 363:../Middlewares/threadx/ports/cortex_m55/gnu/inc/tx_port.h ****     __asm__ volatile (" MRS  %0,CONTROL ": "=r" (control_value) );
 364:../Middlewares/threadx/ports/cortex_m55/gnu/inc/tx_port.h ****     return(control_value);
 365:../Middlewares/threadx/ports/cortex_m55/gnu/inc/tx_port.h **** }
 366:../Middlewares/threadx/ports/cortex_m55/gnu/inc/tx_port.h **** 
 367:../Middlewares/threadx/ports/cortex_m55/gnu/inc/tx_port.h **** __attribute__( ( always_inline ) ) static inline void _tx_control_set(ULONG control_value)
 368:../Middlewares/threadx/ports/cortex_m55/gnu/inc/tx_port.h **** {
 369:../Middlewares/threadx/ports/cortex_m55/gnu/inc/tx_port.h ****     __asm__ volatile (" MSR  CONTROL,%0": : "r" (control_value): "memory" );
 370:../Middlewares/threadx/ports/cortex_m55/gnu/inc/tx_port.h **** }
 371:../Middlewares/threadx/ports/cortex_m55/gnu/inc/tx_port.h **** 
 372:../Middlewares/threadx/ports/cortex_m55/gnu/inc/tx_port.h **** #endif  /* __GNUC__ */
 373:../Middlewares/threadx/ports/cortex_m55/gnu/inc/tx_port.h **** 
 374:../Middlewares/threadx/ports/cortex_m55/gnu/inc/tx_port.h **** /* Touch VFP register in order to flush. Works for AC6/GCC/IAR compilers. */
 375:../Middlewares/threadx/ports/cortex_m55/gnu/inc/tx_port.h **** #define TX_VFP_TOUCH()  __asm__ volatile ("VMOV.F32 s0, s0");
 376:../Middlewares/threadx/ports/cortex_m55/gnu/inc/tx_port.h **** 
 377:../Middlewares/threadx/ports/cortex_m55/gnu/inc/tx_port.h **** #endif  /* TX_MISRA_ENABLE */
 378:../Middlewares/threadx/ports/cortex_m55/gnu/inc/tx_port.h **** 
 379:../Middlewares/threadx/ports/cortex_m55/gnu/inc/tx_port.h **** /* A completed thread falls into _thread_shell_entry and we can simply deactivate the FPU via CONTR
 380:../Middlewares/threadx/ports/cortex_m55/gnu/inc/tx_port.h ****    in order to ensure no lazy stacking will occur. */
 381:../Middlewares/threadx/ports/cortex_m55/gnu/inc/tx_port.h **** 
 382:../Middlewares/threadx/ports/cortex_m55/gnu/inc/tx_port.h **** #ifndef TX_MISRA_ENABLE
 383:../Middlewares/threadx/ports/cortex_m55/gnu/inc/tx_port.h **** 
 384:../Middlewares/threadx/ports/cortex_m55/gnu/inc/tx_port.h **** #define TX_THREAD_COMPLETED_EXTENSION(thread_ptr)   {                                              
 385:../Middlewares/threadx/ports/cortex_m55/gnu/inc/tx_port.h ****                                                     ULONG  _tx_vfp_state;                          
 386:../Middlewares/threadx/ports/cortex_m55/gnu/inc/tx_port.h ****                                                         _tx_vfp_state = _tx_control_get();         
 387:../Middlewares/threadx/ports/cortex_m55/gnu/inc/tx_port.h ****                                                         _tx_vfp_state = _tx_vfp_state & ~((ULONG) 0
 388:../Middlewares/threadx/ports/cortex_m55/gnu/inc/tx_port.h ****                                                         _tx_control_set(_tx_vfp_state);            
 389:../Middlewares/threadx/ports/cortex_m55/gnu/inc/tx_port.h ****                                                     }
 390:../Middlewares/threadx/ports/cortex_m55/gnu/inc/tx_port.h **** #else
 391:../Middlewares/threadx/ports/cortex_m55/gnu/inc/tx_port.h **** 
 392:../Middlewares/threadx/ports/cortex_m55/gnu/inc/tx_port.h **** #define TX_THREAD_COMPLETED_EXTENSION(thread_ptr)   {                                              
 393:../Middlewares/threadx/ports/cortex_m55/gnu/inc/tx_port.h ****                                                     ULONG  _tx_vfp_state;                          
 394:../Middlewares/threadx/ports/cortex_m55/gnu/inc/tx_port.h ****                                                         _tx_vfp_state = _tx_misra_control_get();   
 395:../Middlewares/threadx/ports/cortex_m55/gnu/inc/tx_port.h ****                                                         _tx_vfp_state = _tx_vfp_state & ~((ULONG) 0
 396:../Middlewares/threadx/ports/cortex_m55/gnu/inc/tx_port.h ****                                                         _tx_misra_control_set(_tx_vfp_state);      
 397:../Middlewares/threadx/ports/cortex_m55/gnu/inc/tx_port.h ****                                                     }
 398:../Middlewares/threadx/ports/cortex_m55/gnu/inc/tx_port.h **** #endif
 399:../Middlewares/threadx/ports/cortex_m55/gnu/inc/tx_port.h **** 
 400:../Middlewares/threadx/ports/cortex_m55/gnu/inc/tx_port.h **** /* A thread can be terminated by another thread, so we first check if it's self-terminating and not
 401:../Middlewares/threadx/ports/cortex_m55/gnu/inc/tx_port.h ****    If so, deactivate the FPU via CONTROL.FPCA. Otherwise we are in an interrupt or another thread i
 402:../Middlewares/threadx/ports/cortex_m55/gnu/inc/tx_port.h ****    this one, so if the FPCCR.LSPACT bit is set, we need to save the CONTROL.FPCA state, touch the F
 403:../Middlewares/threadx/ports/cortex_m55/gnu/inc/tx_port.h ****    the lazy FPU save, then restore the CONTROL.FPCA state. */
 404:../Middlewares/threadx/ports/cortex_m55/gnu/inc/tx_port.h **** 
 405:../Middlewares/threadx/ports/cortex_m55/gnu/inc/tx_port.h **** #ifndef TX_MISRA_ENABLE
 406:../Middlewares/threadx/ports/cortex_m55/gnu/inc/tx_port.h **** 
 407:../Middlewares/threadx/ports/cortex_m55/gnu/inc/tx_port.h **** #define TX_THREAD_TERMINATED_EXTENSION(thread_ptr)  {                                              
 408:../Middlewares/threadx/ports/cortex_m55/gnu/inc/tx_port.h ****                                                     ULONG  _tx_system_state;                       
 409:../Middlewares/threadx/ports/cortex_m55/gnu/inc/tx_port.h ****                                                         _tx_system_state = TX_THREAD_GET_SYSTEM_STA
 410:../Middlewares/threadx/ports/cortex_m55/gnu/inc/tx_port.h ****                                                         if ((_tx_system_state == ((ULONG) 0)) && ((
 411:../Middlewares/threadx/ports/cortex_m55/gnu/inc/tx_port.h ****                                                         {                                          
 412:../Middlewares/threadx/ports/cortex_m55/gnu/inc/tx_port.h ****                                                         ULONG  _tx_vfp_state;                      
ARM GAS  /tmp/ccqaDgc2.s 			page 17


 413:../Middlewares/threadx/ports/cortex_m55/gnu/inc/tx_port.h ****                                                             _tx_vfp_state = _tx_control_get();     
 414:../Middlewares/threadx/ports/cortex_m55/gnu/inc/tx_port.h ****                                                             _tx_vfp_state = _tx_vfp_state & ~((ULON
 415:../Middlewares/threadx/ports/cortex_m55/gnu/inc/tx_port.h ****                                                             _tx_control_set(_tx_vfp_state);        
 416:../Middlewares/threadx/ports/cortex_m55/gnu/inc/tx_port.h ****                                                         }                                          
 417:../Middlewares/threadx/ports/cortex_m55/gnu/inc/tx_port.h ****                                                         else                                       
 418:../Middlewares/threadx/ports/cortex_m55/gnu/inc/tx_port.h ****                                                         {                                          
 419:../Middlewares/threadx/ports/cortex_m55/gnu/inc/tx_port.h ****                                                         ULONG  _tx_fpccr;                          
 420:../Middlewares/threadx/ports/cortex_m55/gnu/inc/tx_port.h ****                                                             _tx_fpccr = *((volatile ULONG *) 0xE000
 421:../Middlewares/threadx/ports/cortex_m55/gnu/inc/tx_port.h ****                                                             _tx_fpccr = _tx_fpccr & ((ULONG) 0x01);
 422:../Middlewares/threadx/ports/cortex_m55/gnu/inc/tx_port.h ****                                                             if (_tx_fpccr == ((ULONG) 0x01))       
 423:../Middlewares/threadx/ports/cortex_m55/gnu/inc/tx_port.h ****                                                             {                                      
 424:../Middlewares/threadx/ports/cortex_m55/gnu/inc/tx_port.h ****                                                             ULONG _tx_vfp_state;                   
 425:../Middlewares/threadx/ports/cortex_m55/gnu/inc/tx_port.h ****                                                                 _tx_vfp_state = _tx_control_get(); 
 426:../Middlewares/threadx/ports/cortex_m55/gnu/inc/tx_port.h ****                                                                 _tx_vfp_state = _tx_vfp_state & ((U
 427:../Middlewares/threadx/ports/cortex_m55/gnu/inc/tx_port.h ****                                                                 TX_VFP_TOUCH();                    
 428:../Middlewares/threadx/ports/cortex_m55/gnu/inc/tx_port.h ****                                                                 if (_tx_vfp_state == ((ULONG) 0))  
 429:../Middlewares/threadx/ports/cortex_m55/gnu/inc/tx_port.h ****                                                                 {                                  
 430:../Middlewares/threadx/ports/cortex_m55/gnu/inc/tx_port.h ****                                                                     _tx_vfp_state = _tx_control_get
 431:../Middlewares/threadx/ports/cortex_m55/gnu/inc/tx_port.h ****                                                                     _tx_vfp_state = _tx_vfp_state &
 432:../Middlewares/threadx/ports/cortex_m55/gnu/inc/tx_port.h ****                                                                     _tx_control_set(_tx_vfp_state);
 433:../Middlewares/threadx/ports/cortex_m55/gnu/inc/tx_port.h ****                                                                 }                                  
 434:../Middlewares/threadx/ports/cortex_m55/gnu/inc/tx_port.h ****                                                             }                                      
 435:../Middlewares/threadx/ports/cortex_m55/gnu/inc/tx_port.h ****                                                         }                                          
 436:../Middlewares/threadx/ports/cortex_m55/gnu/inc/tx_port.h ****                                                     }
 437:../Middlewares/threadx/ports/cortex_m55/gnu/inc/tx_port.h **** #else
 438:../Middlewares/threadx/ports/cortex_m55/gnu/inc/tx_port.h **** 
 439:../Middlewares/threadx/ports/cortex_m55/gnu/inc/tx_port.h **** #define TX_THREAD_TERMINATED_EXTENSION(thread_ptr)  {                                              
 440:../Middlewares/threadx/ports/cortex_m55/gnu/inc/tx_port.h ****                                                     ULONG  _tx_system_state;                       
 441:../Middlewares/threadx/ports/cortex_m55/gnu/inc/tx_port.h ****                                                         _tx_system_state = TX_THREAD_GET_SYSTEM_STA
 442:../Middlewares/threadx/ports/cortex_m55/gnu/inc/tx_port.h ****                                                         if ((_tx_system_state == ((ULONG) 0)) && ((
 443:../Middlewares/threadx/ports/cortex_m55/gnu/inc/tx_port.h ****                                                         {                                          
 444:../Middlewares/threadx/ports/cortex_m55/gnu/inc/tx_port.h ****                                                         ULONG  _tx_vfp_state;                      
 445:../Middlewares/threadx/ports/cortex_m55/gnu/inc/tx_port.h ****                                                             _tx_vfp_state = _tx_misra_control_get()
 446:../Middlewares/threadx/ports/cortex_m55/gnu/inc/tx_port.h ****                                                             _tx_vfp_state = _tx_vfp_state & ~((ULON
 447:../Middlewares/threadx/ports/cortex_m55/gnu/inc/tx_port.h ****                                                             _tx_misra_control_set(_tx_vfp_state);  
 448:../Middlewares/threadx/ports/cortex_m55/gnu/inc/tx_port.h ****                                                         }                                          
 449:../Middlewares/threadx/ports/cortex_m55/gnu/inc/tx_port.h ****                                                         else                                       
 450:../Middlewares/threadx/ports/cortex_m55/gnu/inc/tx_port.h ****                                                         {                                          
 451:../Middlewares/threadx/ports/cortex_m55/gnu/inc/tx_port.h ****                                                         ULONG  _tx_fpccr;                          
 452:../Middlewares/threadx/ports/cortex_m55/gnu/inc/tx_port.h ****                                                             _tx_fpccr = _tx_misra_fpccr_get();     
 453:../Middlewares/threadx/ports/cortex_m55/gnu/inc/tx_port.h ****                                                             _tx_fpccr = _tx_fpccr & ((ULONG) 0x01);
 454:../Middlewares/threadx/ports/cortex_m55/gnu/inc/tx_port.h ****                                                             if (_tx_fpccr == ((ULONG) 0x01))       
 455:../Middlewares/threadx/ports/cortex_m55/gnu/inc/tx_port.h ****                                                             {                                      
 456:../Middlewares/threadx/ports/cortex_m55/gnu/inc/tx_port.h ****                                                             ULONG _tx_vfp_state;                   
 457:../Middlewares/threadx/ports/cortex_m55/gnu/inc/tx_port.h ****                                                                 _tx_vfp_state = _tx_misra_control_g
 458:../Middlewares/threadx/ports/cortex_m55/gnu/inc/tx_port.h ****                                                                 _tx_vfp_state = _tx_vfp_state & ((U
 459:../Middlewares/threadx/ports/cortex_m55/gnu/inc/tx_port.h ****                                                                 _tx_misra_vfp_touch();             
 460:../Middlewares/threadx/ports/cortex_m55/gnu/inc/tx_port.h ****                                                                 if (_tx_vfp_state == ((ULONG) 0))  
 461:../Middlewares/threadx/ports/cortex_m55/gnu/inc/tx_port.h ****                                                                 {                                  
 462:../Middlewares/threadx/ports/cortex_m55/gnu/inc/tx_port.h ****                                                                     _tx_vfp_state = _tx_misra_contr
 463:../Middlewares/threadx/ports/cortex_m55/gnu/inc/tx_port.h ****                                                                     _tx_vfp_state = _tx_vfp_state &
 464:../Middlewares/threadx/ports/cortex_m55/gnu/inc/tx_port.h ****                                                                     _tx_misra_control_set(_tx_vfp_s
 465:../Middlewares/threadx/ports/cortex_m55/gnu/inc/tx_port.h ****                                                                 }                                  
 466:../Middlewares/threadx/ports/cortex_m55/gnu/inc/tx_port.h ****                                                             }                                      
 467:../Middlewares/threadx/ports/cortex_m55/gnu/inc/tx_port.h ****                                                         }                                          
 468:../Middlewares/threadx/ports/cortex_m55/gnu/inc/tx_port.h ****                                                     }
 469:../Middlewares/threadx/ports/cortex_m55/gnu/inc/tx_port.h **** #endif
ARM GAS  /tmp/ccqaDgc2.s 			page 18


 470:../Middlewares/threadx/ports/cortex_m55/gnu/inc/tx_port.h **** 
 471:../Middlewares/threadx/ports/cortex_m55/gnu/inc/tx_port.h **** #else   /* No VFP in use */
 472:../Middlewares/threadx/ports/cortex_m55/gnu/inc/tx_port.h **** 
 473:../Middlewares/threadx/ports/cortex_m55/gnu/inc/tx_port.h **** #define TX_THREAD_COMPLETED_EXTENSION(thread_ptr)
 474:../Middlewares/threadx/ports/cortex_m55/gnu/inc/tx_port.h **** #define TX_THREAD_TERMINATED_EXTENSION(thread_ptr)
 475:../Middlewares/threadx/ports/cortex_m55/gnu/inc/tx_port.h **** 
 476:../Middlewares/threadx/ports/cortex_m55/gnu/inc/tx_port.h **** #endif  /* defined(__ARMVFP__) || defined(__ARM_PCS_VFP) || defined(__ARM_FP) || defined(__TARGET_F
 477:../Middlewares/threadx/ports/cortex_m55/gnu/inc/tx_port.h **** 
 478:../Middlewares/threadx/ports/cortex_m55/gnu/inc/tx_port.h **** 
 479:../Middlewares/threadx/ports/cortex_m55/gnu/inc/tx_port.h **** /* Define the ThreadX object creation extensions for the remaining objects.  */
 480:../Middlewares/threadx/ports/cortex_m55/gnu/inc/tx_port.h **** 
 481:../Middlewares/threadx/ports/cortex_m55/gnu/inc/tx_port.h **** #define TX_BLOCK_POOL_CREATE_EXTENSION(pool_ptr)
 482:../Middlewares/threadx/ports/cortex_m55/gnu/inc/tx_port.h **** #define TX_BYTE_POOL_CREATE_EXTENSION(pool_ptr)
 483:../Middlewares/threadx/ports/cortex_m55/gnu/inc/tx_port.h **** #define TX_EVENT_FLAGS_GROUP_CREATE_EXTENSION(group_ptr)
 484:../Middlewares/threadx/ports/cortex_m55/gnu/inc/tx_port.h **** #define TX_MUTEX_CREATE_EXTENSION(mutex_ptr)
 485:../Middlewares/threadx/ports/cortex_m55/gnu/inc/tx_port.h **** #define TX_QUEUE_CREATE_EXTENSION(queue_ptr)
 486:../Middlewares/threadx/ports/cortex_m55/gnu/inc/tx_port.h **** #define TX_SEMAPHORE_CREATE_EXTENSION(semaphore_ptr)
 487:../Middlewares/threadx/ports/cortex_m55/gnu/inc/tx_port.h **** #define TX_TIMER_CREATE_EXTENSION(timer_ptr)
 488:../Middlewares/threadx/ports/cortex_m55/gnu/inc/tx_port.h **** 
 489:../Middlewares/threadx/ports/cortex_m55/gnu/inc/tx_port.h **** 
 490:../Middlewares/threadx/ports/cortex_m55/gnu/inc/tx_port.h **** /* Define the ThreadX object deletion extensions for the remaining objects.  */
 491:../Middlewares/threadx/ports/cortex_m55/gnu/inc/tx_port.h **** 
 492:../Middlewares/threadx/ports/cortex_m55/gnu/inc/tx_port.h **** #define TX_BLOCK_POOL_DELETE_EXTENSION(pool_ptr)
 493:../Middlewares/threadx/ports/cortex_m55/gnu/inc/tx_port.h **** #define TX_BYTE_POOL_DELETE_EXTENSION(pool_ptr)
 494:../Middlewares/threadx/ports/cortex_m55/gnu/inc/tx_port.h **** #define TX_EVENT_FLAGS_GROUP_DELETE_EXTENSION(group_ptr)
 495:../Middlewares/threadx/ports/cortex_m55/gnu/inc/tx_port.h **** #define TX_MUTEX_DELETE_EXTENSION(mutex_ptr)
 496:../Middlewares/threadx/ports/cortex_m55/gnu/inc/tx_port.h **** #define TX_QUEUE_DELETE_EXTENSION(queue_ptr)
 497:../Middlewares/threadx/ports/cortex_m55/gnu/inc/tx_port.h **** #define TX_SEMAPHORE_DELETE_EXTENSION(semaphore_ptr)
 498:../Middlewares/threadx/ports/cortex_m55/gnu/inc/tx_port.h **** #define TX_TIMER_DELETE_EXTENSION(timer_ptr)
 499:../Middlewares/threadx/ports/cortex_m55/gnu/inc/tx_port.h **** 
 500:../Middlewares/threadx/ports/cortex_m55/gnu/inc/tx_port.h **** 
 501:../Middlewares/threadx/ports/cortex_m55/gnu/inc/tx_port.h **** /* Define the get system state macro.  */
 502:../Middlewares/threadx/ports/cortex_m55/gnu/inc/tx_port.h **** 
 503:../Middlewares/threadx/ports/cortex_m55/gnu/inc/tx_port.h **** #ifndef TX_THREAD_GET_SYSTEM_STATE
 504:../Middlewares/threadx/ports/cortex_m55/gnu/inc/tx_port.h **** #ifndef TX_MISRA_ENABLE
 505:../Middlewares/threadx/ports/cortex_m55/gnu/inc/tx_port.h **** 
 506:../Middlewares/threadx/ports/cortex_m55/gnu/inc/tx_port.h **** #if defined(__GNUC__) /* GCC and AC6 */
 507:../Middlewares/threadx/ports/cortex_m55/gnu/inc/tx_port.h **** __attribute__( ( always_inline ) ) static inline UINT _tx_ipsr_get(void)
 508:../Middlewares/threadx/ports/cortex_m55/gnu/inc/tx_port.h **** {
 509:../Middlewares/threadx/ports/cortex_m55/gnu/inc/tx_port.h **** UINT ipsr_value;
 510:../Middlewares/threadx/ports/cortex_m55/gnu/inc/tx_port.h ****     __asm__ volatile (" MRS  %0,IPSR ": "=r" (ipsr_value) );
 511:../Middlewares/threadx/ports/cortex_m55/gnu/inc/tx_port.h ****     return(ipsr_value);
 512:../Middlewares/threadx/ports/cortex_m55/gnu/inc/tx_port.h **** }
 513:../Middlewares/threadx/ports/cortex_m55/gnu/inc/tx_port.h **** #endif  /* GCC and AC6 IPSR_get function. */
 514:../Middlewares/threadx/ports/cortex_m55/gnu/inc/tx_port.h **** 
 515:../Middlewares/threadx/ports/cortex_m55/gnu/inc/tx_port.h **** #define TX_THREAD_GET_SYSTEM_STATE()        (_tx_thread_system_state | _tx_ipsr_get())
 516:../Middlewares/threadx/ports/cortex_m55/gnu/inc/tx_port.h **** 
 517:../Middlewares/threadx/ports/cortex_m55/gnu/inc/tx_port.h **** #else   /* TX_MISRA_ENABLE is defined, use MISRA function. */
 518:../Middlewares/threadx/ports/cortex_m55/gnu/inc/tx_port.h **** ULONG   _tx_misra_ipsr_get(VOID);
 519:../Middlewares/threadx/ports/cortex_m55/gnu/inc/tx_port.h **** #define TX_THREAD_GET_SYSTEM_STATE()        (_tx_thread_system_state | _tx_misra_ipsr_get())
 520:../Middlewares/threadx/ports/cortex_m55/gnu/inc/tx_port.h **** #endif  /* TX_MISRA_ENABLE */
 521:../Middlewares/threadx/ports/cortex_m55/gnu/inc/tx_port.h **** #endif  /* TX_THREAD_GET_SYSTEM_STATE */
 522:../Middlewares/threadx/ports/cortex_m55/gnu/inc/tx_port.h **** 
 523:../Middlewares/threadx/ports/cortex_m55/gnu/inc/tx_port.h **** 
 524:../Middlewares/threadx/ports/cortex_m55/gnu/inc/tx_port.h **** /* Define the check for whether or not to call the _tx_thread_system_return function.  A non-zero v
 525:../Middlewares/threadx/ports/cortex_m55/gnu/inc/tx_port.h ****    indicates that _tx_thread_system_return should not be called. This overrides the definition in t
 526:../Middlewares/threadx/ports/cortex_m55/gnu/inc/tx_port.h ****    for Cortex-M since so we don't waste time checking the _tx_thread_system_state variable that is 
ARM GAS  /tmp/ccqaDgc2.s 			page 19


 527:../Middlewares/threadx/ports/cortex_m55/gnu/inc/tx_port.h ****    zero after initialization for Cortex-M ports. */
 528:../Middlewares/threadx/ports/cortex_m55/gnu/inc/tx_port.h **** 
 529:../Middlewares/threadx/ports/cortex_m55/gnu/inc/tx_port.h **** #ifndef TX_THREAD_SYSTEM_RETURN_CHECK
 530:../Middlewares/threadx/ports/cortex_m55/gnu/inc/tx_port.h **** #define TX_THREAD_SYSTEM_RETURN_CHECK(c)    (c) = ((ULONG) _tx_thread_preempt_disable);
 531:../Middlewares/threadx/ports/cortex_m55/gnu/inc/tx_port.h **** #endif
 532:../Middlewares/threadx/ports/cortex_m55/gnu/inc/tx_port.h **** 
 533:../Middlewares/threadx/ports/cortex_m55/gnu/inc/tx_port.h **** #if !defined(TX_SINGLE_MODE_SECURE) && !defined(TX_SINGLE_MODE_NON_SECURE)
 534:../Middlewares/threadx/ports/cortex_m55/gnu/inc/tx_port.h **** /* Initialize secure stacks for threads calling secure functions. */
 535:../Middlewares/threadx/ports/cortex_m55/gnu/inc/tx_port.h **** extern void    _tx_thread_secure_stack_initialize(void);
 536:../Middlewares/threadx/ports/cortex_m55/gnu/inc/tx_port.h **** #define TX_PORT_SPECIFIC_PRE_INITIALIZATION             _tx_thread_secure_stack_initialize();
 537:../Middlewares/threadx/ports/cortex_m55/gnu/inc/tx_port.h **** #endif
 538:../Middlewares/threadx/ports/cortex_m55/gnu/inc/tx_port.h **** 
 539:../Middlewares/threadx/ports/cortex_m55/gnu/inc/tx_port.h **** /* Define the macro to ensure _tx_thread_preempt_disable is set early in initialization in order to
 540:../Middlewares/threadx/ports/cortex_m55/gnu/inc/tx_port.h ****    prevent early scheduling on Cortex-M parts.  */
 541:../Middlewares/threadx/ports/cortex_m55/gnu/inc/tx_port.h **** 
 542:../Middlewares/threadx/ports/cortex_m55/gnu/inc/tx_port.h **** #define TX_PORT_SPECIFIC_POST_INITIALIZATION    _tx_thread_preempt_disable++;
 543:../Middlewares/threadx/ports/cortex_m55/gnu/inc/tx_port.h **** 
 544:../Middlewares/threadx/ports/cortex_m55/gnu/inc/tx_port.h **** 
 545:../Middlewares/threadx/ports/cortex_m55/gnu/inc/tx_port.h **** 
 546:../Middlewares/threadx/ports/cortex_m55/gnu/inc/tx_port.h **** 
 547:../Middlewares/threadx/ports/cortex_m55/gnu/inc/tx_port.h **** #ifndef TX_DISABLE_INLINE
 548:../Middlewares/threadx/ports/cortex_m55/gnu/inc/tx_port.h **** 
 549:../Middlewares/threadx/ports/cortex_m55/gnu/inc/tx_port.h **** /* Define the TX_LOWEST_SET_BIT_CALCULATE macro for each compiler. */
 550:../Middlewares/threadx/ports/cortex_m55/gnu/inc/tx_port.h **** #ifdef __ICCARM__       /* IAR Compiler */
 551:../Middlewares/threadx/ports/cortex_m55/gnu/inc/tx_port.h **** #define TX_LOWEST_SET_BIT_CALCULATE(m, b)       (b) = (UINT) __CLZ(__RBIT((m)));
 552:../Middlewares/threadx/ports/cortex_m55/gnu/inc/tx_port.h **** #elif defined(__GNUC__) /* GCC and AC6 Compiler */
 553:../Middlewares/threadx/ports/cortex_m55/gnu/inc/tx_port.h **** #define TX_LOWEST_SET_BIT_CALCULATE(m, b)       __asm__ volatile (" RBIT %0,%1 ": "=r" (m) : "r" (m
 554:../Middlewares/threadx/ports/cortex_m55/gnu/inc/tx_port.h ****                                                 __asm__ volatile (" CLZ  %0,%1 ": "=r" (b) : "r" (m
 555:../Middlewares/threadx/ports/cortex_m55/gnu/inc/tx_port.h **** #else
 556:../Middlewares/threadx/ports/cortex_m55/gnu/inc/tx_port.h **** #error "Compiler not supported."
 557:../Middlewares/threadx/ports/cortex_m55/gnu/inc/tx_port.h **** #endif
 558:../Middlewares/threadx/ports/cortex_m55/gnu/inc/tx_port.h **** 
 559:../Middlewares/threadx/ports/cortex_m55/gnu/inc/tx_port.h **** 
 560:../Middlewares/threadx/ports/cortex_m55/gnu/inc/tx_port.h **** 
 561:../Middlewares/threadx/ports/cortex_m55/gnu/inc/tx_port.h **** /* Define the interrupt disable/restore macros. */
 562:../Middlewares/threadx/ports/cortex_m55/gnu/inc/tx_port.h **** 
 563:../Middlewares/threadx/ports/cortex_m55/gnu/inc/tx_port.h **** __attribute__( ( always_inline ) ) static inline UINT __get_interrupt_posture(void)
 564:../Middlewares/threadx/ports/cortex_m55/gnu/inc/tx_port.h **** {
 565:../Middlewares/threadx/ports/cortex_m55/gnu/inc/tx_port.h **** UINT posture;
 566:../Middlewares/threadx/ports/cortex_m55/gnu/inc/tx_port.h **** #ifdef TX_PORT_USE_BASEPRI
 567:../Middlewares/threadx/ports/cortex_m55/gnu/inc/tx_port.h ****     __asm__ volatile ("MRS  %0, BASEPRI ": "=r" (posture));
 568:../Middlewares/threadx/ports/cortex_m55/gnu/inc/tx_port.h **** #else
 569:../Middlewares/threadx/ports/cortex_m55/gnu/inc/tx_port.h ****     __asm__ volatile ("MRS  %0, PRIMASK ": "=r" (posture));
 570:../Middlewares/threadx/ports/cortex_m55/gnu/inc/tx_port.h **** #endif
 571:../Middlewares/threadx/ports/cortex_m55/gnu/inc/tx_port.h ****     return(posture);
 572:../Middlewares/threadx/ports/cortex_m55/gnu/inc/tx_port.h **** }
 573:../Middlewares/threadx/ports/cortex_m55/gnu/inc/tx_port.h **** 
 574:../Middlewares/threadx/ports/cortex_m55/gnu/inc/tx_port.h **** #ifdef TX_PORT_USE_BASEPRI
 575:../Middlewares/threadx/ports/cortex_m55/gnu/inc/tx_port.h **** __attribute__( ( always_inline ) ) static inline void __set_basepri_value(UINT basepri_value)
 576:../Middlewares/threadx/ports/cortex_m55/gnu/inc/tx_port.h **** {
 577:../Middlewares/threadx/ports/cortex_m55/gnu/inc/tx_port.h ****     __asm__ volatile ("MSR  BASEPRI,%0 ": : "r" (basepri_value));
 578:../Middlewares/threadx/ports/cortex_m55/gnu/inc/tx_port.h **** }
 579:../Middlewares/threadx/ports/cortex_m55/gnu/inc/tx_port.h **** #else
 580:../Middlewares/threadx/ports/cortex_m55/gnu/inc/tx_port.h **** __attribute__( ( always_inline ) ) static inline void __enable_interrupts(void)
 581:../Middlewares/threadx/ports/cortex_m55/gnu/inc/tx_port.h **** {
 582:../Middlewares/threadx/ports/cortex_m55/gnu/inc/tx_port.h ****     __asm__ volatile ("CPSIE  i": : : "memory");
 583:../Middlewares/threadx/ports/cortex_m55/gnu/inc/tx_port.h **** }
ARM GAS  /tmp/ccqaDgc2.s 			page 20


 584:../Middlewares/threadx/ports/cortex_m55/gnu/inc/tx_port.h **** #endif
 585:../Middlewares/threadx/ports/cortex_m55/gnu/inc/tx_port.h **** 
 586:../Middlewares/threadx/ports/cortex_m55/gnu/inc/tx_port.h **** __attribute__( ( always_inline ) ) static inline void __restore_interrupt(UINT int_posture)
 587:../Middlewares/threadx/ports/cortex_m55/gnu/inc/tx_port.h **** {
 588:../Middlewares/threadx/ports/cortex_m55/gnu/inc/tx_port.h **** #ifdef TX_PORT_USE_BASEPRI
 589:../Middlewares/threadx/ports/cortex_m55/gnu/inc/tx_port.h ****     __set_basepri_value(int_posture);
 590:../Middlewares/threadx/ports/cortex_m55/gnu/inc/tx_port.h **** #else
 591:../Middlewares/threadx/ports/cortex_m55/gnu/inc/tx_port.h ****     __asm__ volatile ("MSR  PRIMASK,%0": : "r" (int_posture): "memory");
 592:../Middlewares/threadx/ports/cortex_m55/gnu/inc/tx_port.h **** #endif
 593:../Middlewares/threadx/ports/cortex_m55/gnu/inc/tx_port.h **** }
 594:../Middlewares/threadx/ports/cortex_m55/gnu/inc/tx_port.h **** 
 595:../Middlewares/threadx/ports/cortex_m55/gnu/inc/tx_port.h **** __attribute__( ( always_inline ) ) static inline UINT __disable_interrupts(void)
 227              		.loc 2 595 55 view .LVU99
 228              	.LBB23:
 596:../Middlewares/threadx/ports/cortex_m55/gnu/inc/tx_port.h **** {
 597:../Middlewares/threadx/ports/cortex_m55/gnu/inc/tx_port.h **** UINT int_posture;
 229              		.loc 2 597 1 view .LVU100
 598:../Middlewares/threadx/ports/cortex_m55/gnu/inc/tx_port.h **** 
 599:../Middlewares/threadx/ports/cortex_m55/gnu/inc/tx_port.h ****     int_posture = __get_interrupt_posture();
 230              		.loc 2 599 5 view .LVU101
 231              	.LBB24:
 232              	.LBI24:
 563:../Middlewares/threadx/ports/cortex_m55/gnu/inc/tx_port.h **** {
 233              		.loc 2 563 55 view .LVU102
 234              	.LBB25:
 565:../Middlewares/threadx/ports/cortex_m55/gnu/inc/tx_port.h **** #ifdef TX_PORT_USE_BASEPRI
 235              		.loc 2 565 1 view .LVU103
 569:../Middlewares/threadx/ports/cortex_m55/gnu/inc/tx_port.h **** #endif
 236              		.loc 2 569 5 view .LVU104
 237              		.syntax unified
 238              	@ 569 "../Middlewares/threadx/ports/cortex_m55/gnu/inc/tx_port.h" 1
 239 00ce EFF31082 		MRS  r2, PRIMASK 
 240              	@ 0 "" 2
 241              	.LVL11:
 571:../Middlewares/threadx/ports/cortex_m55/gnu/inc/tx_port.h **** }
 242              		.loc 2 571 5 view .LVU105
 571:../Middlewares/threadx/ports/cortex_m55/gnu/inc/tx_port.h **** }
 243              		.loc 2 571 5 is_stmt 0 view .LVU106
 244              		.thumb
 245              		.syntax unified
 246              	.LBE25:
 247              	.LBE24:
 600:../Middlewares/threadx/ports/cortex_m55/gnu/inc/tx_port.h **** 
 601:../Middlewares/threadx/ports/cortex_m55/gnu/inc/tx_port.h **** #ifdef TX_PORT_USE_BASEPRI
 602:../Middlewares/threadx/ports/cortex_m55/gnu/inc/tx_port.h ****     __set_basepri_value(TX_PORT_BASEPRI);
 603:../Middlewares/threadx/ports/cortex_m55/gnu/inc/tx_port.h **** #else
 604:../Middlewares/threadx/ports/cortex_m55/gnu/inc/tx_port.h ****     __asm__ volatile ("CPSID i" : : : "memory");
 248              		.loc 2 604 5 is_stmt 1 view .LVU107
 249              		.syntax unified
 250              	@ 604 "../Middlewares/threadx/ports/cortex_m55/gnu/inc/tx_port.h" 1
 251 00d2 72B6     		CPSID i
 252              	@ 0 "" 2
 605:../Middlewares/threadx/ports/cortex_m55/gnu/inc/tx_port.h **** #endif
 606:../Middlewares/threadx/ports/cortex_m55/gnu/inc/tx_port.h ****     return(int_posture);
 253              		.loc 2 606 5 view .LVU108
 254              	.LVL12:
 255              		.loc 2 606 5 is_stmt 0 view .LVU109
ARM GAS  /tmp/ccqaDgc2.s 			page 21


 256              		.thumb
 257              		.syntax unified
 258              	.LBE23:
 259              	.LBE22:
 224:../Middlewares/threadx/common/src/tx_trace_enable.c **** 
 225:../Middlewares/threadx/common/src/tx_trace_enable.c ****         /* First, disable preemption.  */
 226:../Middlewares/threadx/common/src/tx_trace_enable.c ****         _tx_thread_preempt_disable++;
 260              		.loc 1 226 9 is_stmt 1 view .LVU110
 261              		.loc 1 226 35 is_stmt 0 view .LVU111
 262 00d4 DFF890B2 		ldr	fp, .L51+128
 263 00d8 DBF80030 		ldr	r3, [fp]
 264 00dc 0133     		adds	r3, r3, #1
 265 00de CBF80030 		str	r3, [fp]
 227:../Middlewares/threadx/common/src/tx_trace_enable.c **** 
 228:../Middlewares/threadx/common/src/tx_trace_enable.c ****         /* Restore interrupts.  */
 229:../Middlewares/threadx/common/src/tx_trace_enable.c ****         TX_RESTORE
 266              		.loc 1 229 9 is_stmt 1 view .LVU112
 267              	.LVL13:
 268              	.LBB26:
 269              	.LBI26:
 586:../Middlewares/threadx/ports/cortex_m55/gnu/inc/tx_port.h **** {
 270              		.loc 2 586 55 view .LVU113
 271              	.LBB27:
 591:../Middlewares/threadx/ports/cortex_m55/gnu/inc/tx_port.h **** #endif
 272              		.loc 2 591 5 view .LVU114
 273              		.syntax unified
 274              	@ 591 "../Middlewares/threadx/ports/cortex_m55/gnu/inc/tx_port.h" 1
 275 00e2 82F31088 		MSR  PRIMASK,r2
 276              	@ 0 "" 2
 277              	.LVL14:
 591:../Middlewares/threadx/ports/cortex_m55/gnu/inc/tx_port.h **** #endif
 278              		.loc 2 591 5 is_stmt 0 view .LVU115
 279              		.thumb
 280              		.syntax unified
 281              	.LBE27:
 282              	.LBE26:
 230:../Middlewares/threadx/common/src/tx_trace_enable.c **** 
 231:../Middlewares/threadx/common/src/tx_trace_enable.c ****         /* Pickup the first thread and the number of created threads.  */
 232:../Middlewares/threadx/common/src/tx_trace_enable.c ****         thread_ptr =  _tx_thread_created_ptr;
 283              		.loc 1 232 9 is_stmt 1 view .LVU116
 284              		.loc 1 232 20 is_stmt 0 view .LVU117
 285 00e6 884B     		ldr	r3, .L51+32
 286 00e8 1C68     		ldr	r4, [r3]
 287              	.LVL15:
 233:../Middlewares/threadx/common/src/tx_trace_enable.c ****         i =           _tx_thread_created_count;
 288              		.loc 1 233 9 is_stmt 1 view .LVU118
 289              		.loc 1 233 11 is_stmt 0 view .LVU119
 290 00ea 884B     		ldr	r3, .L51+36
 291 00ec D3F800A0 		ldr	r10, [r3]
 292              	.LVL16:
 234:../Middlewares/threadx/common/src/tx_trace_enable.c **** 
 235:../Middlewares/threadx/common/src/tx_trace_enable.c ****         /* Loop to register all threads.  */
 236:../Middlewares/threadx/common/src/tx_trace_enable.c ****         while (i != ((ULONG) 0))
 293              		.loc 1 236 9 is_stmt 1 view .LVU120
 294              	.L7:
 295              		.loc 1 236 18 view .LVU121
 296 00f0 BAF1000F 		cmp	r10, #0
ARM GAS  /tmp/ccqaDgc2.s 			page 22


 297 00f4 40F0B880 		bne	.L8
 237:../Middlewares/threadx/common/src/tx_trace_enable.c ****         {
 238:../Middlewares/threadx/common/src/tx_trace_enable.c **** 
 239:../Middlewares/threadx/common/src/tx_trace_enable.c ****             /* Decrement the counter.  */
 240:../Middlewares/threadx/common/src/tx_trace_enable.c ****             i--;
 241:../Middlewares/threadx/common/src/tx_trace_enable.c **** 
 242:../Middlewares/threadx/common/src/tx_trace_enable.c ****             /* Register this thread.  */
 243:../Middlewares/threadx/common/src/tx_trace_enable.c ****             _tx_trace_object_register(TX_TRACE_OBJECT_TYPE_THREAD, thread_ptr, thread_ptr -> tx_thr
 244:../Middlewares/threadx/common/src/tx_trace_enable.c ****                                         TX_POINTER_TO_ULONG_CONVERT(thread_ptr -> tx_thread_stack_s
 245:../Middlewares/threadx/common/src/tx_trace_enable.c **** 
 246:../Middlewares/threadx/common/src/tx_trace_enable.c ****             /* Move to the next thread.  */
 247:../Middlewares/threadx/common/src/tx_trace_enable.c ****             thread_ptr =  thread_ptr -> tx_thread_created_next;
 248:../Middlewares/threadx/common/src/tx_trace_enable.c ****         }
 249:../Middlewares/threadx/common/src/tx_trace_enable.c **** 
 250:../Middlewares/threadx/common/src/tx_trace_enable.c ****         /* Pickup the first timer and the number of created timers.  */
 251:../Middlewares/threadx/common/src/tx_trace_enable.c ****         timer_ptr =  _tx_timer_created_ptr;
 298              		.loc 1 251 9 view .LVU122
 299              		.loc 1 251 19 is_stmt 0 view .LVU123
 300 00f8 854B     		ldr	r3, .L51+40
 301 00fa D3F800A0 		ldr	r10, [r3]
 302              	.LVL17:
 252:../Middlewares/threadx/common/src/tx_trace_enable.c ****         i =          _tx_timer_created_count;
 303              		.loc 1 252 9 is_stmt 1 view .LVU124
 304              		.loc 1 252 11 is_stmt 0 view .LVU125
 305 00fe 854B     		ldr	r3, .L51+44
 306 0100 1C68     		ldr	r4, [r3]
 307              	.LVL18:
 253:../Middlewares/threadx/common/src/tx_trace_enable.c **** 
 254:../Middlewares/threadx/common/src/tx_trace_enable.c ****         /* Loop to register all timers.  */
 255:../Middlewares/threadx/common/src/tx_trace_enable.c ****         while (i != ((ULONG) 0))
 308              		.loc 1 255 9 is_stmt 1 view .LVU126
 309              	.L9:
 310              		.loc 1 255 18 view .LVU127
 311 0102 002C     		cmp	r4, #0
 312 0104 40F0BD80 		bne	.L10
 256:../Middlewares/threadx/common/src/tx_trace_enable.c ****         {
 257:../Middlewares/threadx/common/src/tx_trace_enable.c **** 
 258:../Middlewares/threadx/common/src/tx_trace_enable.c ****             /* Decrement the counter.  */
 259:../Middlewares/threadx/common/src/tx_trace_enable.c ****             i--;
 260:../Middlewares/threadx/common/src/tx_trace_enable.c **** 
 261:../Middlewares/threadx/common/src/tx_trace_enable.c ****             /* Register this timer.  */
 262:../Middlewares/threadx/common/src/tx_trace_enable.c ****             _tx_trace_object_register(TX_TRACE_OBJECT_TYPE_TIMER, timer_ptr, timer_ptr -> tx_timer_
 263:../Middlewares/threadx/common/src/tx_trace_enable.c ****                                                        ((ULONG) 0), timer_ptr -> tx_timer_internal.
 264:../Middlewares/threadx/common/src/tx_trace_enable.c **** 
 265:../Middlewares/threadx/common/src/tx_trace_enable.c ****             /* Move to the next timer.  */
 266:../Middlewares/threadx/common/src/tx_trace_enable.c ****             timer_ptr =  timer_ptr -> tx_timer_created_next;
 267:../Middlewares/threadx/common/src/tx_trace_enable.c ****         }
 268:../Middlewares/threadx/common/src/tx_trace_enable.c **** 
 269:../Middlewares/threadx/common/src/tx_trace_enable.c **** 
 270:../Middlewares/threadx/common/src/tx_trace_enable.c ****         /* Pickup the first event flag group and the number of created groups.  */
 271:../Middlewares/threadx/common/src/tx_trace_enable.c ****         event_flags_ptr =  _tx_event_flags_created_ptr;
 313              		.loc 1 271 9 view .LVU128
 314              		.loc 1 271 25 is_stmt 0 view .LVU129
 315 0108 834B     		ldr	r3, .L51+48
 316 010a 1968     		ldr	r1, [r3]
 317              	.LVL19:
 272:../Middlewares/threadx/common/src/tx_trace_enable.c ****         i =                _tx_event_flags_created_count;
ARM GAS  /tmp/ccqaDgc2.s 			page 23


 318              		.loc 1 272 9 is_stmt 1 view .LVU130
 319              		.loc 1 272 11 is_stmt 0 view .LVU131
 320 010c 834B     		ldr	r3, .L51+52
 321 010e D3F800A0 		ldr	r10, [r3]
 322              	.LVL20:
 273:../Middlewares/threadx/common/src/tx_trace_enable.c **** 
 274:../Middlewares/threadx/common/src/tx_trace_enable.c ****         /* Loop to register all event flags groups.  */
 275:../Middlewares/threadx/common/src/tx_trace_enable.c ****         while (i != ((ULONG) 0))
 323              		.loc 1 275 9 is_stmt 1 view .LVU132
 324              	.L11:
 325              		.loc 1 275 18 view .LVU133
 326 0112 BAF1000F 		cmp	r10, #0
 327 0116 40F0C280 		bne	.L12
 276:../Middlewares/threadx/common/src/tx_trace_enable.c ****         {
 277:../Middlewares/threadx/common/src/tx_trace_enable.c **** 
 278:../Middlewares/threadx/common/src/tx_trace_enable.c ****             /* Decrement the counter.  */
 279:../Middlewares/threadx/common/src/tx_trace_enable.c ****             i--;
 280:../Middlewares/threadx/common/src/tx_trace_enable.c **** 
 281:../Middlewares/threadx/common/src/tx_trace_enable.c ****             /* Register this event flags group.  */
 282:../Middlewares/threadx/common/src/tx_trace_enable.c ****             _tx_trace_object_register(TX_TRACE_OBJECT_TYPE_EVENT_FLAGS, event_flags_ptr, event_flag
 283:../Middlewares/threadx/common/src/tx_trace_enable.c **** 
 284:../Middlewares/threadx/common/src/tx_trace_enable.c ****             /* Move to the next event flags group.  */
 285:../Middlewares/threadx/common/src/tx_trace_enable.c ****             event_flags_ptr =  event_flags_ptr -> tx_event_flags_group_created_next;
 286:../Middlewares/threadx/common/src/tx_trace_enable.c ****         }
 287:../Middlewares/threadx/common/src/tx_trace_enable.c **** 
 288:../Middlewares/threadx/common/src/tx_trace_enable.c ****         /* Pickup the first queue and the number of created queues.  */
 289:../Middlewares/threadx/common/src/tx_trace_enable.c ****         queue_ptr =  _tx_queue_created_ptr;
 328              		.loc 1 289 9 view .LVU134
 329              		.loc 1 289 19 is_stmt 0 view .LVU135
 330 011a 814B     		ldr	r3, .L51+56
 331 011c 1968     		ldr	r1, [r3]
 332              	.LVL21:
 290:../Middlewares/threadx/common/src/tx_trace_enable.c ****         i =          _tx_queue_created_count;
 333              		.loc 1 290 9 is_stmt 1 view .LVU136
 334              		.loc 1 290 11 is_stmt 0 view .LVU137
 335 011e 814B     		ldr	r3, .L51+60
 336 0120 1C68     		ldr	r4, [r3]
 337              	.LVL22:
 291:../Middlewares/threadx/common/src/tx_trace_enable.c **** 
 292:../Middlewares/threadx/common/src/tx_trace_enable.c ****         /* Loop to register all queues.  */
 293:../Middlewares/threadx/common/src/tx_trace_enable.c ****         while (i != ((ULONG) 0))
 338              		.loc 1 293 9 is_stmt 1 view .LVU138
 339              	.L13:
 340              		.loc 1 293 18 view .LVU139
 341 0122 002C     		cmp	r4, #0
 342 0124 40F0C780 		bne	.L14
 294:../Middlewares/threadx/common/src/tx_trace_enable.c ****         {
 295:../Middlewares/threadx/common/src/tx_trace_enable.c **** 
 296:../Middlewares/threadx/common/src/tx_trace_enable.c ****             /* Decrement the counter.  */
 297:../Middlewares/threadx/common/src/tx_trace_enable.c ****             i--;
 298:../Middlewares/threadx/common/src/tx_trace_enable.c **** 
 299:../Middlewares/threadx/common/src/tx_trace_enable.c ****             /* Register this queue.  */
 300:../Middlewares/threadx/common/src/tx_trace_enable.c ****             _tx_trace_object_register(TX_TRACE_OBJECT_TYPE_QUEUE, queue_ptr, queue_ptr -> tx_queue_
 301:../Middlewares/threadx/common/src/tx_trace_enable.c ****                                                                     (queue_ptr -> tx_queue_capacity
 302:../Middlewares/threadx/common/src/tx_trace_enable.c **** 
 303:../Middlewares/threadx/common/src/tx_trace_enable.c ****             /* Move to the next queue.  */
 304:../Middlewares/threadx/common/src/tx_trace_enable.c ****             queue_ptr =  queue_ptr -> tx_queue_created_next;
ARM GAS  /tmp/ccqaDgc2.s 			page 24


 305:../Middlewares/threadx/common/src/tx_trace_enable.c ****         }
 306:../Middlewares/threadx/common/src/tx_trace_enable.c **** 
 307:../Middlewares/threadx/common/src/tx_trace_enable.c ****         /* Pickup the first semaphore and the number of created semaphores.  */
 308:../Middlewares/threadx/common/src/tx_trace_enable.c ****         semaphore_ptr =  _tx_semaphore_created_ptr;
 343              		.loc 1 308 9 view .LVU140
 344              		.loc 1 308 23 is_stmt 0 view .LVU141
 345 0128 7F4B     		ldr	r3, .L51+64
 346 012a 1968     		ldr	r1, [r3]
 347              	.LVL23:
 309:../Middlewares/threadx/common/src/tx_trace_enable.c ****         i =              _tx_semaphore_created_count;
 348              		.loc 1 309 9 is_stmt 1 view .LVU142
 349              		.loc 1 309 11 is_stmt 0 view .LVU143
 350 012c 7F4B     		ldr	r3, .L51+68
 351 012e D3F800A0 		ldr	r10, [r3]
 352              	.LVL24:
 310:../Middlewares/threadx/common/src/tx_trace_enable.c **** 
 311:../Middlewares/threadx/common/src/tx_trace_enable.c ****         /* Loop to register all semaphores.  */
 312:../Middlewares/threadx/common/src/tx_trace_enable.c ****         while (i != ((ULONG) 0))
 353              		.loc 1 312 9 is_stmt 1 view .LVU144
 354              	.L15:
 355              		.loc 1 312 18 view .LVU145
 356 0132 BAF1000F 		cmp	r10, #0
 357 0136 40F0CB80 		bne	.L16
 313:../Middlewares/threadx/common/src/tx_trace_enable.c ****         {
 314:../Middlewares/threadx/common/src/tx_trace_enable.c **** 
 315:../Middlewares/threadx/common/src/tx_trace_enable.c ****             /* Decrement the counter.  */
 316:../Middlewares/threadx/common/src/tx_trace_enable.c ****             i--;
 317:../Middlewares/threadx/common/src/tx_trace_enable.c **** 
 318:../Middlewares/threadx/common/src/tx_trace_enable.c ****             /* Register this semaphore.  */
 319:../Middlewares/threadx/common/src/tx_trace_enable.c ****             _tx_trace_object_register(TX_TRACE_OBJECT_TYPE_SEMAPHORE, semaphore_ptr, semaphore_ptr 
 320:../Middlewares/threadx/common/src/tx_trace_enable.c **** 
 321:../Middlewares/threadx/common/src/tx_trace_enable.c ****             /* Move to the next semaphore.  */
 322:../Middlewares/threadx/common/src/tx_trace_enable.c ****             semaphore_ptr =  semaphore_ptr -> tx_semaphore_created_next;
 323:../Middlewares/threadx/common/src/tx_trace_enable.c ****         }
 324:../Middlewares/threadx/common/src/tx_trace_enable.c **** 
 325:../Middlewares/threadx/common/src/tx_trace_enable.c ****         /* Pickup the first mutex and the number of created mutexes.  */
 326:../Middlewares/threadx/common/src/tx_trace_enable.c ****         mutex_ptr =  _tx_mutex_created_ptr;
 358              		.loc 1 326 9 view .LVU146
 359              		.loc 1 326 19 is_stmt 0 view .LVU147
 360 013a 7D4B     		ldr	r3, .L51+72
 361 013c 1968     		ldr	r1, [r3]
 362              	.LVL25:
 327:../Middlewares/threadx/common/src/tx_trace_enable.c ****         i =          _tx_mutex_created_count;
 363              		.loc 1 327 9 is_stmt 1 view .LVU148
 364              		.loc 1 327 11 is_stmt 0 view .LVU149
 365 013e 7D4B     		ldr	r3, .L51+76
 366 0140 1C68     		ldr	r4, [r3]
 367              	.LVL26:
 328:../Middlewares/threadx/common/src/tx_trace_enable.c **** 
 329:../Middlewares/threadx/common/src/tx_trace_enable.c ****         /* Loop to register all mutexes.  */
 330:../Middlewares/threadx/common/src/tx_trace_enable.c ****         while (i != ((ULONG) 0))
 368              		.loc 1 330 9 is_stmt 1 view .LVU150
 369              	.L17:
 370              		.loc 1 330 18 view .LVU151
 371 0142 002C     		cmp	r4, #0
 372 0144 40F01281 		bne	.L18
 331:../Middlewares/threadx/common/src/tx_trace_enable.c ****         {
ARM GAS  /tmp/ccqaDgc2.s 			page 25


 332:../Middlewares/threadx/common/src/tx_trace_enable.c **** 
 333:../Middlewares/threadx/common/src/tx_trace_enable.c ****             /* Decrement the counter.  */
 334:../Middlewares/threadx/common/src/tx_trace_enable.c ****             i--;
 335:../Middlewares/threadx/common/src/tx_trace_enable.c **** 
 336:../Middlewares/threadx/common/src/tx_trace_enable.c ****             /* Register this mutex.  */
 337:../Middlewares/threadx/common/src/tx_trace_enable.c ****             _tx_trace_object_register(TX_TRACE_OBJECT_TYPE_MUTEX, mutex_ptr, mutex_ptr -> tx_mutex_
 338:../Middlewares/threadx/common/src/tx_trace_enable.c ****                                                                         (ULONG) mutex_ptr -> tx_mut
 339:../Middlewares/threadx/common/src/tx_trace_enable.c **** 
 340:../Middlewares/threadx/common/src/tx_trace_enable.c ****             /* Move to the next mutex.  */
 341:../Middlewares/threadx/common/src/tx_trace_enable.c ****             mutex_ptr =  mutex_ptr -> tx_mutex_created_next;
 342:../Middlewares/threadx/common/src/tx_trace_enable.c ****         }
 343:../Middlewares/threadx/common/src/tx_trace_enable.c **** 
 344:../Middlewares/threadx/common/src/tx_trace_enable.c ****         /* Pickup the first block pool and the number of created block pools.  */
 345:../Middlewares/threadx/common/src/tx_trace_enable.c ****         block_pool_ptr =  _tx_block_pool_created_ptr;
 373              		.loc 1 345 9 view .LVU152
 374              		.loc 1 345 24 is_stmt 0 view .LVU153
 375 0148 7B4B     		ldr	r3, .L51+80
 376 014a 1968     		ldr	r1, [r3]
 377              	.LVL27:
 346:../Middlewares/threadx/common/src/tx_trace_enable.c ****         i =               _tx_block_pool_created_count;
 378              		.loc 1 346 9 is_stmt 1 view .LVU154
 379              		.loc 1 346 11 is_stmt 0 view .LVU155
 380 014c 7B4B     		ldr	r3, .L51+84
 381 014e D3F800A0 		ldr	r10, [r3]
 382              	.LVL28:
 347:../Middlewares/threadx/common/src/tx_trace_enable.c **** 
 348:../Middlewares/threadx/common/src/tx_trace_enable.c ****         /* Loop to register all block pools.  */
 349:../Middlewares/threadx/common/src/tx_trace_enable.c ****         while (i != ((ULONG) 0))
 383              		.loc 1 349 9 is_stmt 1 view .LVU156
 384              	.L19:
 385              		.loc 1 349 18 view .LVU157
 386 0152 BAF1000F 		cmp	r10, #0
 387 0156 40F01581 		bne	.L20
 350:../Middlewares/threadx/common/src/tx_trace_enable.c ****         {
 351:../Middlewares/threadx/common/src/tx_trace_enable.c **** 
 352:../Middlewares/threadx/common/src/tx_trace_enable.c ****              /* Decrement the counter.  */
 353:../Middlewares/threadx/common/src/tx_trace_enable.c ****             i--;
 354:../Middlewares/threadx/common/src/tx_trace_enable.c **** 
 355:../Middlewares/threadx/common/src/tx_trace_enable.c ****             /* Register this block pool.  */
 356:../Middlewares/threadx/common/src/tx_trace_enable.c ****             _tx_trace_object_register(TX_TRACE_OBJECT_TYPE_BLOCK_POOL, block_pool_ptr, block_pool_p
 357:../Middlewares/threadx/common/src/tx_trace_enable.c ****                                                                             block_pool_ptr -> tx_bl
 358:../Middlewares/threadx/common/src/tx_trace_enable.c **** 
 359:../Middlewares/threadx/common/src/tx_trace_enable.c ****             /* Move to the next block pool.  */
 360:../Middlewares/threadx/common/src/tx_trace_enable.c ****             block_pool_ptr =  block_pool_ptr -> tx_block_pool_created_next;
 361:../Middlewares/threadx/common/src/tx_trace_enable.c ****         }
 362:../Middlewares/threadx/common/src/tx_trace_enable.c **** 
 363:../Middlewares/threadx/common/src/tx_trace_enable.c ****         /* Pickup the first byte pool and the number of created byte pools.  */
 364:../Middlewares/threadx/common/src/tx_trace_enable.c ****         byte_pool_ptr =  _tx_byte_pool_created_ptr;
 388              		.loc 1 364 9 view .LVU158
 389              		.loc 1 364 23 is_stmt 0 view .LVU159
 390 015a 794B     		ldr	r3, .L51+88
 391 015c 1968     		ldr	r1, [r3]
 392              	.LVL29:
 365:../Middlewares/threadx/common/src/tx_trace_enable.c ****         i =              _tx_byte_pool_created_count;
 393              		.loc 1 365 9 is_stmt 1 view .LVU160
 394              		.loc 1 365 11 is_stmt 0 view .LVU161
 395 015e 794B     		ldr	r3, .L51+92
ARM GAS  /tmp/ccqaDgc2.s 			page 26


 396 0160 1C68     		ldr	r4, [r3]
 397              	.LVL30:
 366:../Middlewares/threadx/common/src/tx_trace_enable.c **** 
 367:../Middlewares/threadx/common/src/tx_trace_enable.c ****         /* Loop to register all byte pools.  */
 368:../Middlewares/threadx/common/src/tx_trace_enable.c ****         while (i != ((ULONG) 0))
 398              		.loc 1 368 9 is_stmt 1 view .LVU162
 399              	.L21:
 400              		.loc 1 368 18 view .LVU163
 401 0162 002C     		cmp	r4, #0
 402 0164 40F01A81 		bne	.L22
 369:../Middlewares/threadx/common/src/tx_trace_enable.c ****         {
 370:../Middlewares/threadx/common/src/tx_trace_enable.c **** 
 371:../Middlewares/threadx/common/src/tx_trace_enable.c ****             /* Decrement the counter.  */
 372:../Middlewares/threadx/common/src/tx_trace_enable.c ****             i--;
 373:../Middlewares/threadx/common/src/tx_trace_enable.c **** 
 374:../Middlewares/threadx/common/src/tx_trace_enable.c ****             /* Register this byte pool.  */
 375:../Middlewares/threadx/common/src/tx_trace_enable.c ****             _tx_trace_object_register(TX_TRACE_OBJECT_TYPE_BYTE_POOL, byte_pool_ptr, byte_pool_ptr 
 376:../Middlewares/threadx/common/src/tx_trace_enable.c ****                                                                             byte_pool_ptr -> tx_byt
 377:../Middlewares/threadx/common/src/tx_trace_enable.c **** 
 378:../Middlewares/threadx/common/src/tx_trace_enable.c ****             /* Move to the next byte pool.  */
 379:../Middlewares/threadx/common/src/tx_trace_enable.c ****             byte_pool_ptr =  byte_pool_ptr -> tx_byte_pool_created_next;
 380:../Middlewares/threadx/common/src/tx_trace_enable.c ****         }
 381:../Middlewares/threadx/common/src/tx_trace_enable.c **** 
 382:../Middlewares/threadx/common/src/tx_trace_enable.c ****         /* Disable interrupts.  */
 383:../Middlewares/threadx/common/src/tx_trace_enable.c ****         TX_DISABLE
 403              		.loc 1 383 9 view .LVU164
 404              	.LBB28:
 405              	.LBI28:
 595:../Middlewares/threadx/ports/cortex_m55/gnu/inc/tx_port.h **** {
 406              		.loc 2 595 55 view .LVU165
 407              	.LBB29:
 597:../Middlewares/threadx/ports/cortex_m55/gnu/inc/tx_port.h **** 
 408              		.loc 2 597 1 view .LVU166
 599:../Middlewares/threadx/ports/cortex_m55/gnu/inc/tx_port.h **** 
 409              		.loc 2 599 5 view .LVU167
 410              	.LBB30:
 411              	.LBI30:
 563:../Middlewares/threadx/ports/cortex_m55/gnu/inc/tx_port.h **** {
 412              		.loc 2 563 55 view .LVU168
 413              	.LBB31:
 565:../Middlewares/threadx/ports/cortex_m55/gnu/inc/tx_port.h **** #ifdef TX_PORT_USE_BASEPRI
 414              		.loc 2 565 1 view .LVU169
 569:../Middlewares/threadx/ports/cortex_m55/gnu/inc/tx_port.h **** #endif
 415              		.loc 2 569 5 view .LVU170
 416              		.syntax unified
 417              	@ 569 "../Middlewares/threadx/ports/cortex_m55/gnu/inc/tx_port.h" 1
 418 0168 EFF3108A 		MRS  r10, PRIMASK 
 419              	@ 0 "" 2
 420              	.LVL31:
 571:../Middlewares/threadx/ports/cortex_m55/gnu/inc/tx_port.h **** }
 421              		.loc 2 571 5 view .LVU171
 571:../Middlewares/threadx/ports/cortex_m55/gnu/inc/tx_port.h **** }
 422              		.loc 2 571 5 is_stmt 0 view .LVU172
 423              		.thumb
 424              		.syntax unified
 425              	.LBE31:
 426              	.LBE30:
ARM GAS  /tmp/ccqaDgc2.s 			page 27


 604:../Middlewares/threadx/ports/cortex_m55/gnu/inc/tx_port.h **** #endif
 427              		.loc 2 604 5 is_stmt 1 view .LVU173
 428              		.syntax unified
 429              	@ 604 "../Middlewares/threadx/ports/cortex_m55/gnu/inc/tx_port.h" 1
 430 016c 72B6     		CPSID i
 431              	@ 0 "" 2
 432              		.loc 2 606 5 view .LVU174
 433              	.LVL32:
 434              		.loc 2 606 5 is_stmt 0 view .LVU175
 435              		.thumb
 436              		.syntax unified
 437              	.LBE29:
 438              	.LBE28:
 384:../Middlewares/threadx/common/src/tx_trace_enable.c **** 
 385:../Middlewares/threadx/common/src/tx_trace_enable.c ****         /* Release the preeemption.  */
 386:../Middlewares/threadx/common/src/tx_trace_enable.c ****         _tx_thread_preempt_disable--;
 439              		.loc 1 386 9 is_stmt 1 view .LVU176
 440              		.loc 1 386 35 is_stmt 0 view .LVU177
 441 016e DBF80030 		ldr	r3, [fp]
 442 0172 013B     		subs	r3, r3, #1
 443 0174 CBF80030 		str	r3, [fp]
 387:../Middlewares/threadx/common/src/tx_trace_enable.c **** 
 388:../Middlewares/threadx/common/src/tx_trace_enable.c ****         /* Finally, setup the current buffer pointer, which effectively enables the trace!  */
 389:../Middlewares/threadx/common/src/tx_trace_enable.c ****         _tx_trace_buffer_current_ptr =    (TX_TRACE_BUFFER_ENTRY *) _tx_trace_buffer_start_ptr;
 444              		.loc 1 389 9 is_stmt 1 view .LVU178
 445              		.loc 1 389 38 is_stmt 0 view .LVU179
 446 0178 3368     		ldr	r3, [r6]
 447 017a 2B60     		str	r3, [r5]
 448              	.LBB32:
 390:../Middlewares/threadx/common/src/tx_trace_enable.c **** 
 391:../Middlewares/threadx/common/src/tx_trace_enable.c ****         /* Insert two RUNNING events so the buffer is not empty.  */
 392:../Middlewares/threadx/common/src/tx_trace_enable.c ****         TX_TRACE_IN_LINE_INSERT(TX_TRACE_RUNNING, 0, 0, 0, 0, TX_TRACE_INTERNAL_EVENTS)
 449              		.loc 1 392 9 is_stmt 1 view .LVU180
 450              		.loc 1 392 9 view .LVU181
 451              		.loc 1 392 9 view .LVU182
 452              		.loc 1 392 9 view .LVU183
 453              		.loc 1 392 9 view .LVU184
 454              	.LVL33:
 455              		.loc 1 392 9 view .LVU185
 456 017c 63B3     		cbz	r3, .L24
 457              		.loc 1 392 9 is_stmt 0 discriminator 1 view .LVU186
 458 017e D9F80020 		ldr	r2, [r9]
 459 0182 D107     		lsls	r1, r2, #31
 460              	.LVL34:
 461              		.loc 1 392 9 discriminator 1 view .LVU187
 462 0184 28D5     		bpl	.L24
 463              		.loc 1 392 9 is_stmt 1 discriminator 2 view .LVU188
 464              	.LBB33:
 465              	.LBI33:
 507:../Middlewares/threadx/ports/cortex_m55/gnu/inc/tx_port.h **** {
 466              		.loc 2 507 55 view .LVU189
 467              	.LBB34:
 509:../Middlewares/threadx/ports/cortex_m55/gnu/inc/tx_port.h ****     __asm__ volatile (" MRS  %0,IPSR ": "=r" (ipsr_value) );
 468              		.loc 2 509 1 view .LVU190
 510:../Middlewares/threadx/ports/cortex_m55/gnu/inc/tx_port.h ****     return(ipsr_value);
 469              		.loc 2 510 5 view .LVU191
 470              		.syntax unified
ARM GAS  /tmp/ccqaDgc2.s 			page 28


 471              	@ 510 "../Middlewares/threadx/ports/cortex_m55/gnu/inc/tx_port.h" 1
 472 0186 EFF30580 		 MRS  r0,IPSR 
 473              	@ 0 "" 2
 474              	.LVL35:
 511:../Middlewares/threadx/ports/cortex_m55/gnu/inc/tx_port.h **** }
 475              		.loc 2 511 5 view .LVU192
 511:../Middlewares/threadx/ports/cortex_m55/gnu/inc/tx_port.h **** }
 476              		.loc 2 511 5 is_stmt 0 view .LVU193
 477              		.thumb
 478              		.syntax unified
 479              	.LBE34:
 480              	.LBE33:
 481              		.loc 1 392 9 discriminator 1 view .LVU194
 482 018a 6F4A     		ldr	r2, .L51+96
 483 018c 6F49     		ldr	r1, .L51+100
 484 018e 1268     		ldr	r2, [r2]
 485              	.LVL36:
 486              		.loc 1 392 9 is_stmt 1 discriminator 1 view .LVU195
 487 0190 0968     		ldr	r1, [r1]
 488              	.LVL37:
 489              		.loc 1 392 9 discriminator 1 view .LVU196
 490 0192 0243     		orrs	r2, r2, r0
 491              	.LVL38:
 492              		.loc 1 392 9 is_stmt 0 discriminator 1 view .LVU197
 493 0194 40F00E81 		bne	.L26
 494              		.loc 1 392 9 is_stmt 1 discriminator 3 view .LVU198
 495              	.LVL39:
 496              		.loc 1 392 9 view .LVU199
 497              		.loc 1 392 9 is_stmt 0 discriminator 3 view .LVU200
 498 0198 C86B     		ldr	r0, [r1, #60]
 499 019a CA6A     		ldr	r2, [r1, #44]
 500              	.LVL40:
 501              		.loc 1 392 9 discriminator 3 view .LVU201
 502 019c 42EA0042 		orr	r2, r2, r0, lsl #16
 503 01a0 42F00042 		orr	r2, r2, #-2147483648
 504              	.LVL41:
 505              	.L27:
 506              		.loc 1 392 9 is_stmt 1 discriminator 9 view .LVU202
 507 01a4 C3E90012 		strd	r1, r2, [r3]
 508              		.loc 1 392 9 view .LVU203
 509              		.loc 1 392 9 is_stmt 0 discriminator 9 view .LVU204
 510 01a8 0622     		movs	r2, #6
 511              	.LVL42:
 512              		.loc 1 392 9 discriminator 9 view .LVU205
 513 01aa 9A60     		str	r2, [r3, #8]
 514              		.loc 1 392 9 is_stmt 1 view .LVU206
 515              		.loc 1 392 9 is_stmt 0 discriminator 9 view .LVU207
 516 01ac 684A     		ldr	r2, .L51+104
 517 01ae 3968     		ldr	r1, [r7]
 518 01b0 5268     		ldr	r2, [r2, #4]
 519              		.loc 1 392 9 discriminator 10 view .LVU208
 520 01b2 D8F80000 		ldr	r0, [r8]
 521              		.loc 1 392 9 discriminator 9 view .LVU209
 522 01b6 DA60     		str	r2, [r3, #12]
 523              		.loc 1 392 9 is_stmt 1 view .LVU210
 524              		.loc 1 392 9 is_stmt 0 discriminator 9 view .LVU211
 525 01b8 0022     		movs	r2, #0
ARM GAS  /tmp/ccqaDgc2.s 			page 29


 526 01ba C3E90422 		strd	r2, r2, [r3, #16]
 527              		.loc 1 392 9 is_stmt 1 view .LVU212
 528              		.loc 1 392 9 is_stmt 0 discriminator 9 view .LVU213
 529 01be C3E90622 		strd	r2, r2, [r3, #24]
 530              		.loc 1 392 9 is_stmt 1 view .LVU214
 531              		.loc 1 392 9 is_stmt 0 discriminator 9 view .LVU215
 532 01c2 03F12002 		add	r2, r3, #32
 533              	.LVL43:
 534              		.loc 1 392 9 is_stmt 1 view .LVU216
 535              		.loc 1 392 9 is_stmt 0 discriminator 9 view .LVU217
 536 01c6 9142     		cmp	r1, r2
 537 01c8 00F2FE80 		bhi	.L28
 538              		.loc 1 392 9 is_stmt 1 discriminator 10 view .LVU218
 539              	.LVL44:
 540              		.loc 1 392 9 view .LVU219
 541              		.loc 1 392 9 is_stmt 0 discriminator 10 view .LVU220
 542 01cc 2B60     		str	r3, [r5]
 543              		.loc 1 392 9 is_stmt 1 view .LVU221
 544              		.loc 1 392 9 is_stmt 0 discriminator 10 view .LVU222
 545 01ce 0362     		str	r3, [r0, #32]
 546              		.loc 1 392 9 is_stmt 1 view .LVU223
 547              		.loc 1 392 9 is_stmt 0 discriminator 10 view .LVU224
 548 01d0 604B     		ldr	r3, .L51+108
 549              	.LVL45:
 550              		.loc 1 392 9 discriminator 10 view .LVU225
 551 01d2 1B68     		ldr	r3, [r3]
 552 01d4 03B1     		cbz	r3, .L24
 553              	.LVL46:
 554              		.loc 1 392 9 is_stmt 1 discriminator 12 view .LVU226
 555 01d6 9847     		blx	r3
 556              	.LVL47:
 557              	.L24:
 558              		.loc 1 392 9 is_stmt 0 discriminator 12 view .LVU227
 559              	.LBE32:
 560              	.LBB35:
 393:../Middlewares/threadx/common/src/tx_trace_enable.c ****         TX_TRACE_IN_LINE_INSERT(TX_TRACE_RUNNING, 0, 0, 0, 0, TX_TRACE_INTERNAL_EVENTS)
 561              		.loc 1 393 9 is_stmt 1 view .LVU228
 562              		.loc 1 393 9 view .LVU229
 563              		.loc 1 393 9 view .LVU230
 564              		.loc 1 393 9 view .LVU231
 565              		.loc 1 393 9 view .LVU232
 566 01d8 2B68     		ldr	r3, [r5]
 567              	.LVL48:
 568              		.loc 1 393 9 view .LVU233
 569 01da 63B3     		cbz	r3, .L30
 570              		.loc 1 393 9 is_stmt 0 discriminator 1 view .LVU234
 571 01dc D9F80020 		ldr	r2, [r9]
 572 01e0 D207     		lsls	r2, r2, #31
 573 01e2 28D5     		bpl	.L30
 574              		.loc 1 393 9 is_stmt 1 discriminator 2 view .LVU235
 575              	.LBB36:
 576              	.LBI36:
 507:../Middlewares/threadx/ports/cortex_m55/gnu/inc/tx_port.h **** {
 577              		.loc 2 507 55 view .LVU236
 578              	.LBB37:
 509:../Middlewares/threadx/ports/cortex_m55/gnu/inc/tx_port.h ****     __asm__ volatile (" MRS  %0,IPSR ": "=r" (ipsr_value) );
 579              		.loc 2 509 1 view .LVU237
ARM GAS  /tmp/ccqaDgc2.s 			page 30


 510:../Middlewares/threadx/ports/cortex_m55/gnu/inc/tx_port.h ****     return(ipsr_value);
 580              		.loc 2 510 5 view .LVU238
 581              		.syntax unified
 582              	@ 510 "../Middlewares/threadx/ports/cortex_m55/gnu/inc/tx_port.h" 1
 583 01e4 EFF30580 		 MRS  r0,IPSR 
 584              	@ 0 "" 2
 585              	.LVL49:
 511:../Middlewares/threadx/ports/cortex_m55/gnu/inc/tx_port.h **** }
 586              		.loc 2 511 5 view .LVU239
 511:../Middlewares/threadx/ports/cortex_m55/gnu/inc/tx_port.h **** }
 587              		.loc 2 511 5 is_stmt 0 view .LVU240
 588              		.thumb
 589              		.syntax unified
 590              	.LBE37:
 591              	.LBE36:
 592              		.loc 1 393 9 discriminator 1 view .LVU241
 593 01e8 574A     		ldr	r2, .L51+96
 594 01ea 5849     		ldr	r1, .L51+100
 595 01ec 1268     		ldr	r2, [r2]
 596              	.LVL50:
 597              		.loc 1 393 9 is_stmt 1 discriminator 1 view .LVU242
 598 01ee 0968     		ldr	r1, [r1]
 599              	.LVL51:
 600              		.loc 1 393 9 discriminator 1 view .LVU243
 601 01f0 0243     		orrs	r2, r2, r0
 602              	.LVL52:
 603              		.loc 1 393 9 is_stmt 0 discriminator 1 view .LVU244
 604 01f2 40F0EC80 		bne	.L32
 605              		.loc 1 393 9 is_stmt 1 discriminator 3 view .LVU245
 606              	.LVL53:
 607              		.loc 1 393 9 view .LVU246
 608              		.loc 1 393 9 is_stmt 0 discriminator 3 view .LVU247
 609 01f6 C86B     		ldr	r0, [r1, #60]
 610 01f8 CA6A     		ldr	r2, [r1, #44]
 611              	.LVL54:
 612              		.loc 1 393 9 discriminator 3 view .LVU248
 613 01fa 42EA0042 		orr	r2, r2, r0, lsl #16
 614 01fe 42F00042 		orr	r2, r2, #-2147483648
 615              	.LVL55:
 616              	.L33:
 617              		.loc 1 393 9 is_stmt 1 discriminator 9 view .LVU249
 618 0202 C3E90012 		strd	r1, r2, [r3]
 619              		.loc 1 393 9 view .LVU250
 620              		.loc 1 393 9 is_stmt 0 discriminator 9 view .LVU251
 621 0206 0622     		movs	r2, #6
 622              	.LVL56:
 623              		.loc 1 393 9 discriminator 9 view .LVU252
 624 0208 9A60     		str	r2, [r3, #8]
 625              		.loc 1 393 9 is_stmt 1 view .LVU253
 626              		.loc 1 393 9 is_stmt 0 discriminator 9 view .LVU254
 627 020a 514A     		ldr	r2, .L51+104
 628              		.loc 1 393 9 discriminator 10 view .LVU255
 629 020c D8F80000 		ldr	r0, [r8]
 630              		.loc 1 393 9 discriminator 9 view .LVU256
 631 0210 5268     		ldr	r2, [r2, #4]
 632 0212 DA60     		str	r2, [r3, #12]
 633              		.loc 1 393 9 is_stmt 1 view .LVU257
ARM GAS  /tmp/ccqaDgc2.s 			page 31


 634              		.loc 1 393 9 is_stmt 0 discriminator 9 view .LVU258
 635 0214 0022     		movs	r2, #0
 636 0216 C3E90422 		strd	r2, r2, [r3, #16]
 637              		.loc 1 393 9 is_stmt 1 view .LVU259
 638              		.loc 1 393 9 is_stmt 0 discriminator 9 view .LVU260
 639 021a C3E90622 		strd	r2, r2, [r3, #24]
 640              		.loc 1 393 9 is_stmt 1 view .LVU261
 641              		.loc 1 393 9 is_stmt 0 discriminator 9 view .LVU262
 642 021e 3A68     		ldr	r2, [r7]
 643 0220 2033     		adds	r3, r3, #32
 644              	.LVL57:
 645              		.loc 1 393 9 is_stmt 1 view .LVU263
 646              		.loc 1 393 9 is_stmt 0 discriminator 9 view .LVU264
 647 0222 9A42     		cmp	r2, r3
 648 0224 00F2DD80 		bhi	.L34
 649              		.loc 1 393 9 is_stmt 1 discriminator 10 view .LVU265
 650 0228 3368     		ldr	r3, [r6]
 651              	.LVL58:
 652              		.loc 1 393 9 view .LVU266
 653              		.loc 1 393 9 is_stmt 0 discriminator 10 view .LVU267
 654 022a 2B60     		str	r3, [r5]
 655              	.LVL59:
 656              		.loc 1 393 9 is_stmt 1 view .LVU268
 657              		.loc 1 393 9 is_stmt 0 discriminator 10 view .LVU269
 658 022c 0362     		str	r3, [r0, #32]
 659              		.loc 1 393 9 is_stmt 1 view .LVU270
 660              		.loc 1 393 9 is_stmt 0 discriminator 10 view .LVU271
 661 022e 494B     		ldr	r3, .L51+108
 662              	.LVL60:
 663              		.loc 1 393 9 discriminator 10 view .LVU272
 664 0230 1B68     		ldr	r3, [r3]
 665 0232 03B1     		cbz	r3, .L30
 666              		.loc 1 393 9 is_stmt 1 discriminator 12 view .LVU273
 667 0234 9847     		blx	r3
 668              	.LVL61:
 669              	.L30:
 670              		.loc 1 393 9 is_stmt 0 discriminator 12 view .LVU274
 671              	.LBE35:
 394:../Middlewares/threadx/common/src/tx_trace_enable.c **** 
 395:../Middlewares/threadx/common/src/tx_trace_enable.c ****         /* Restore interrupts.  */
 396:../Middlewares/threadx/common/src/tx_trace_enable.c ****         TX_RESTORE
 672              		.loc 1 396 9 is_stmt 1 view .LVU275
 673              	.LBB38:
 674              	.LBI38:
 586:../Middlewares/threadx/ports/cortex_m55/gnu/inc/tx_port.h **** {
 675              		.loc 2 586 55 view .LVU276
 676              	.LBB39:
 591:../Middlewares/threadx/ports/cortex_m55/gnu/inc/tx_port.h **** #endif
 677              		.loc 2 591 5 view .LVU277
 678              		.syntax unified
 679              	@ 591 "../Middlewares/threadx/ports/cortex_m55/gnu/inc/tx_port.h" 1
 680 0236 8AF31088 		MSR  PRIMASK,r10
 681              	@ 0 "" 2
 682              	.LVL62:
 591:../Middlewares/threadx/ports/cortex_m55/gnu/inc/tx_port.h **** #endif
 683              		.loc 2 591 5 is_stmt 0 view .LVU278
 684              		.thumb
ARM GAS  /tmp/ccqaDgc2.s 			page 32


 685              		.syntax unified
 686              	.LBE39:
 687              	.LBE38:
 397:../Middlewares/threadx/common/src/tx_trace_enable.c **** 
 398:../Middlewares/threadx/common/src/tx_trace_enable.c ****         /* Check for preemption.  */
 399:../Middlewares/threadx/common/src/tx_trace_enable.c ****         _tx_thread_system_preempt_check();
 688              		.loc 1 399 9 is_stmt 1 view .LVU279
 689 023a FFF7FEFF 		bl	_tx_thread_system_preempt_check
 690              	.LVL63:
 400:../Middlewares/threadx/common/src/tx_trace_enable.c **** 
 401:../Middlewares/threadx/common/src/tx_trace_enable.c ****         /* Return successful completion.  */
 402:../Middlewares/threadx/common/src/tx_trace_enable.c ****         status =  TX_SUCCESS;
 691              		.loc 1 402 9 view .LVU280
 692              	.L1:
 403:../Middlewares/threadx/common/src/tx_trace_enable.c ****     }
 404:../Middlewares/threadx/common/src/tx_trace_enable.c **** 
 405:../Middlewares/threadx/common/src/tx_trace_enable.c ****     /* Return completion status.  */
 406:../Middlewares/threadx/common/src/tx_trace_enable.c ****     return(status);
 407:../Middlewares/threadx/common/src/tx_trace_enable.c **** #else
 408:../Middlewares/threadx/common/src/tx_trace_enable.c **** 
 409:../Middlewares/threadx/common/src/tx_trace_enable.c **** UINT        status;
 410:../Middlewares/threadx/common/src/tx_trace_enable.c **** 
 411:../Middlewares/threadx/common/src/tx_trace_enable.c **** 
 412:../Middlewares/threadx/common/src/tx_trace_enable.c ****     /* Access input arguments just for the sake of lint, MISRA, etc.  */
 413:../Middlewares/threadx/common/src/tx_trace_enable.c ****     if (trace_buffer_start != TX_NULL)
 414:../Middlewares/threadx/common/src/tx_trace_enable.c ****     {
 415:../Middlewares/threadx/common/src/tx_trace_enable.c **** 
 416:../Middlewares/threadx/common/src/tx_trace_enable.c ****         /* Trace not enabled, return an error.  */
 417:../Middlewares/threadx/common/src/tx_trace_enable.c ****         status =  TX_FEATURE_NOT_ENABLED;
 418:../Middlewares/threadx/common/src/tx_trace_enable.c ****     }
 419:../Middlewares/threadx/common/src/tx_trace_enable.c ****     else if (trace_buffer_size == ((ULONG) 0))
 420:../Middlewares/threadx/common/src/tx_trace_enable.c ****     {
 421:../Middlewares/threadx/common/src/tx_trace_enable.c **** 
 422:../Middlewares/threadx/common/src/tx_trace_enable.c ****         /* Trace not enabled, return an error.  */
 423:../Middlewares/threadx/common/src/tx_trace_enable.c ****         status =  TX_FEATURE_NOT_ENABLED;
 424:../Middlewares/threadx/common/src/tx_trace_enable.c ****     }
 425:../Middlewares/threadx/common/src/tx_trace_enable.c ****     else if (registry_entries == ((ULONG) 0))
 426:../Middlewares/threadx/common/src/tx_trace_enable.c ****     {
 427:../Middlewares/threadx/common/src/tx_trace_enable.c **** 
 428:../Middlewares/threadx/common/src/tx_trace_enable.c ****         /* Trace not enabled, return an error.  */
 429:../Middlewares/threadx/common/src/tx_trace_enable.c ****         status =  TX_FEATURE_NOT_ENABLED;
 430:../Middlewares/threadx/common/src/tx_trace_enable.c ****     }
 431:../Middlewares/threadx/common/src/tx_trace_enable.c ****     else
 432:../Middlewares/threadx/common/src/tx_trace_enable.c ****     {
 433:../Middlewares/threadx/common/src/tx_trace_enable.c **** 
 434:../Middlewares/threadx/common/src/tx_trace_enable.c ****         /* Trace not enabled, return an error.  */
 435:../Middlewares/threadx/common/src/tx_trace_enable.c ****         status =  TX_FEATURE_NOT_ENABLED;
 436:../Middlewares/threadx/common/src/tx_trace_enable.c ****     }
 437:../Middlewares/threadx/common/src/tx_trace_enable.c **** 
 438:../Middlewares/threadx/common/src/tx_trace_enable.c ****     /* Return completion status.  */
 439:../Middlewares/threadx/common/src/tx_trace_enable.c ****     return(status);
 440:../Middlewares/threadx/common/src/tx_trace_enable.c **** #endif
 441:../Middlewares/threadx/common/src/tx_trace_enable.c **** }
 693              		.loc 1 441 1 is_stmt 0 view .LVU281
 694 023e 2046     		mov	r0, r4
 695 0240 05B0     		add	sp, sp, #20
 696              		.cfi_remember_state
ARM GAS  /tmp/ccqaDgc2.s 			page 33


 697              		.cfi_def_cfa_offset 36
 698              		@ sp needed
 699 0242 BDE8F08F 		pop	{r4, r5, r6, r7, r8, r9, r10, fp, pc}
 700              	.LVL64:
 701              	.L4:
 702              		.cfi_restore_state
 152:../Middlewares/threadx/common/src/tx_trace_enable.c ****             work_ptr =  TX_UCHAR_POINTER_ADD(work_ptr, (sizeof(TX_TRACE_OBJECT_ENTRY))*i);
 703              		.loc 1 152 13 is_stmt 1 view .LVU282
 153:../Middlewares/threadx/common/src/tx_trace_enable.c **** 
 704              		.loc 1 153 13 view .LVU283
 156:../Middlewares/threadx/common/src/tx_trace_enable.c **** 
 705              		.loc 1 156 13 view .LVU284
 159:../Middlewares/threadx/common/src/tx_trace_enable.c ****             entry_ptr -> tx_trace_object_entry_type =              (UCHAR) TX_TRACE_OBJECT_TYPE_NOT
 706              		.loc 1 159 13 view .LVU285
 159:../Middlewares/threadx/common/src/tx_trace_enable.c ****             entry_ptr -> tx_trace_object_entry_type =              (UCHAR) TX_TRACE_OBJECT_TYPE_NOT
 707              		.loc 1 159 58 is_stmt 0 view .LVU286
 708 0246 86F830A0 		strb	r10, [r6, #48]
 160:../Middlewares/threadx/common/src/tx_trace_enable.c ****             entry_ptr -> tx_trace_object_entry_reserved1 =         (UCHAR) 0;
 709              		.loc 1 160 13 is_stmt 1 view .LVU287
 160:../Middlewares/threadx/common/src/tx_trace_enable.c ****             entry_ptr -> tx_trace_object_entry_reserved1 =         (UCHAR) 0;
 710              		.loc 1 160 53 is_stmt 0 view .LVU288
 711 024a 86F831C0 		strb	ip, [r6, #49]
 161:../Middlewares/threadx/common/src/tx_trace_enable.c ****             entry_ptr -> tx_trace_object_entry_reserved2 =         (UCHAR) 0;
 712              		.loc 1 161 13 is_stmt 1 view .LVU289
 161:../Middlewares/threadx/common/src/tx_trace_enable.c ****             entry_ptr -> tx_trace_object_entry_reserved2 =         (UCHAR) 0;
 713              		.loc 1 161 58 is_stmt 0 view .LVU290
 714 024e 86F832C0 		strb	ip, [r6, #50]
 162:../Middlewares/threadx/common/src/tx_trace_enable.c ****             entry_ptr -> tx_trace_object_entry_thread_pointer =    (ULONG) 0;
 715              		.loc 1 162 13 is_stmt 1 view .LVU291
 162:../Middlewares/threadx/common/src/tx_trace_enable.c ****             entry_ptr -> tx_trace_object_entry_thread_pointer =    (ULONG) 0;
 716              		.loc 1 162 58 is_stmt 0 view .LVU292
 717 0252 86F833C0 		strb	ip, [r6, #51]
 163:../Middlewares/threadx/common/src/tx_trace_enable.c ****         }
 718              		.loc 1 163 13 is_stmt 1 view .LVU293
 163:../Middlewares/threadx/common/src/tx_trace_enable.c ****         }
 719              		.loc 1 163 63 is_stmt 0 view .LVU294
 720 0256 C6F834C0 		str	ip, [r6, #52]
 148:../Middlewares/threadx/common/src/tx_trace_enable.c ****         {
 721              		.loc 1 148 54 is_stmt 1 discriminator 3 view .LVU295
 722 025a 3036     		adds	r6, r6, #48
 723              	.LVL65:
 148:../Middlewares/threadx/common/src/tx_trace_enable.c ****         {
 724              		.loc 1 148 54 is_stmt 0 discriminator 3 view .LVU296
 725 025c 00E7     		b	.L3
 726              	.LVL66:
 727              	.L6:
 196:../Middlewares/threadx/common/src/tx_trace_enable.c **** 
 728              		.loc 1 196 13 is_stmt 1 view .LVU297
 199:../Middlewares/threadx/common/src/tx_trace_enable.c **** 
 729              		.loc 1 199 13 view .LVU298
 202:../Middlewares/threadx/common/src/tx_trace_enable.c ****         }
 730              		.loc 1 202 13 view .LVU299
 202:../Middlewares/threadx/common/src/tx_trace_enable.c ****         }
 731              		.loc 1 202 63 is_stmt 0 view .LVU300
 732 025e 5101     		lsls	r1, r2, #5
 733 0260 43F801A0 		str	r10, [r3, r1]
 192:../Middlewares/threadx/common/src/tx_trace_enable.c ****         {
ARM GAS  /tmp/ccqaDgc2.s 			page 34


 734              		.loc 1 192 89 is_stmt 1 discriminator 3 view .LVU301
 735 0264 0132     		adds	r2, r2, #1
 736              	.LVL67:
 192:../Middlewares/threadx/common/src/tx_trace_enable.c ****         {
 737              		.loc 1 192 89 is_stmt 0 discriminator 3 view .LVU302
 738 0266 16E7     		b	.L5
 739              	.LVL68:
 740              	.L8:
 240:../Middlewares/threadx/common/src/tx_trace_enable.c **** 
 741              		.loc 1 240 13 is_stmt 1 view .LVU303
 243:../Middlewares/threadx/common/src/tx_trace_enable.c ****                                         TX_POINTER_TO_ULONG_CONVERT(thread_ptr -> tx_thread_stack_s
 742              		.loc 1 243 13 is_stmt 0 view .LVU304
 743 0268 6369     		ldr	r3, [r4, #20]
 744 026a 2146     		mov	r1, r4
 745 026c 0093     		str	r3, [sp]
 746 026e E368     		ldr	r3, [r4, #12]
 747 0270 A26A     		ldr	r2, [r4, #40]
 748 0272 0120     		movs	r0, #1
 749 0274 FFF7FEFF 		bl	_tx_trace_object_register
 750              	.LVL69:
 240:../Middlewares/threadx/common/src/tx_trace_enable.c **** 
 751              		.loc 1 240 14 view .LVU305
 752 0278 0AF1FF3A 		add	r10, r10, #-1
 753              	.LVL70:
 243:../Middlewares/threadx/common/src/tx_trace_enable.c ****                                         TX_POINTER_TO_ULONG_CONVERT(thread_ptr -> tx_thread_stack_s
 754              		.loc 1 243 13 is_stmt 1 view .LVU306
 247:../Middlewares/threadx/common/src/tx_trace_enable.c ****         }
 755              		.loc 1 247 13 view .LVU307
 247:../Middlewares/threadx/common/src/tx_trace_enable.c ****         }
 756              		.loc 1 247 24 is_stmt 0 view .LVU308
 757 027c D4F88840 		ldr	r4, [r4, #136]
 758              	.LVL71:
 247:../Middlewares/threadx/common/src/tx_trace_enable.c ****         }
 759              		.loc 1 247 24 view .LVU309
 760 0280 36E7     		b	.L7
 761              	.LVL72:
 762              	.L10:
 259:../Middlewares/threadx/common/src/tx_trace_enable.c **** 
 763              		.loc 1 259 13 is_stmt 1 view .LVU310
 262:../Middlewares/threadx/common/src/tx_trace_enable.c ****                                                        ((ULONG) 0), timer_ptr -> tx_timer_internal.
 764              		.loc 1 262 13 is_stmt 0 view .LVU311
 765 0282 DAF80C30 		ldr	r3, [r10, #12]
 766 0286 5146     		mov	r1, r10
 767 0288 0093     		str	r3, [sp]
 768 028a DAF80420 		ldr	r2, [r10, #4]
 769 028e 0023     		movs	r3, #0
 770 0290 0220     		movs	r0, #2
 771 0292 FFF7FEFF 		bl	_tx_trace_object_register
 772              	.LVL73:
 259:../Middlewares/threadx/common/src/tx_trace_enable.c **** 
 773              		.loc 1 259 14 view .LVU312
 774 0296 013C     		subs	r4, r4, #1
 775              	.LVL74:
 262:../Middlewares/threadx/common/src/tx_trace_enable.c ****                                                        ((ULONG) 0), timer_ptr -> tx_timer_internal.
 776              		.loc 1 262 13 is_stmt 1 view .LVU313
 266:../Middlewares/threadx/common/src/tx_trace_enable.c ****         }
 777              		.loc 1 266 13 view .LVU314
ARM GAS  /tmp/ccqaDgc2.s 			page 35


 266:../Middlewares/threadx/common/src/tx_trace_enable.c ****         }
 778              		.loc 1 266 23 is_stmt 0 view .LVU315
 779 0298 DAF824A0 		ldr	r10, [r10, #36]
 780              	.LVL75:
 266:../Middlewares/threadx/common/src/tx_trace_enable.c ****         }
 781              		.loc 1 266 23 view .LVU316
 782 029c 31E7     		b	.L9
 783              	.LVL76:
 784              	.L12:
 279:../Middlewares/threadx/common/src/tx_trace_enable.c **** 
 785              		.loc 1 279 13 is_stmt 1 view .LVU317
 282:../Middlewares/threadx/common/src/tx_trace_enable.c **** 
 786              		.loc 1 282 13 is_stmt 0 view .LVU318
 787 029e 0094     		str	r4, [sp]
 788 02a0 4A68     		ldr	r2, [r1, #4]
 789 02a2 0023     		movs	r3, #0
 790 02a4 0620     		movs	r0, #6
 791 02a6 0391     		str	r1, [sp, #12]
 792 02a8 FFF7FEFF 		bl	_tx_trace_object_register
 793              	.LVL77:
 285:../Middlewares/threadx/common/src/tx_trace_enable.c ****         }
 794              		.loc 1 285 29 view .LVU319
 795 02ac 0399     		ldr	r1, [sp, #12]
 279:../Middlewares/threadx/common/src/tx_trace_enable.c **** 
 796              		.loc 1 279 14 view .LVU320
 797 02ae 0AF1FF3A 		add	r10, r10, #-1
 798              	.LVL78:
 282:../Middlewares/threadx/common/src/tx_trace_enable.c **** 
 799              		.loc 1 282 13 is_stmt 1 view .LVU321
 285:../Middlewares/threadx/common/src/tx_trace_enable.c ****         }
 800              		.loc 1 285 13 view .LVU322
 285:../Middlewares/threadx/common/src/tx_trace_enable.c ****         }
 801              		.loc 1 285 29 is_stmt 0 view .LVU323
 802 02b2 8969     		ldr	r1, [r1, #24]
 803 02b4 2DE7     		b	.L11
 804              	.LVL79:
 805              	.L14:
 297:../Middlewares/threadx/common/src/tx_trace_enable.c **** 
 806              		.loc 1 297 13 is_stmt 1 view .LVU324
 301:../Middlewares/threadx/common/src/tx_trace_enable.c **** 
 807              		.loc 1 301 101 is_stmt 0 view .LVU325
 808 02b6 CB68     		ldr	r3, [r1, #12]
 300:../Middlewares/threadx/common/src/tx_trace_enable.c ****                                                                     (queue_ptr -> tx_queue_capacity
 809              		.loc 1 300 13 view .LVU326
 810 02b8 CDF800A0 		str	r10, [sp]
 811 02bc 4A68     		ldr	r2, [r1, #4]
 812 02be 0320     		movs	r0, #3
 813 02c0 9B00     		lsls	r3, r3, #2
 814 02c2 0391     		str	r1, [sp, #12]
 815 02c4 FFF7FEFF 		bl	_tx_trace_object_register
 816              	.LVL80:
 304:../Middlewares/threadx/common/src/tx_trace_enable.c ****         }
 817              		.loc 1 304 23 view .LVU327
 818 02c8 0399     		ldr	r1, [sp, #12]
 297:../Middlewares/threadx/common/src/tx_trace_enable.c **** 
 819              		.loc 1 297 14 view .LVU328
 820 02ca 013C     		subs	r4, r4, #1
ARM GAS  /tmp/ccqaDgc2.s 			page 36


 821              	.LVL81:
 300:../Middlewares/threadx/common/src/tx_trace_enable.c ****                                                                     (queue_ptr -> tx_queue_capacity
 822              		.loc 1 300 13 is_stmt 1 view .LVU329
 304:../Middlewares/threadx/common/src/tx_trace_enable.c ****         }
 823              		.loc 1 304 13 view .LVU330
 304:../Middlewares/threadx/common/src/tx_trace_enable.c ****         }
 824              		.loc 1 304 23 is_stmt 0 view .LVU331
 825 02cc 096B     		ldr	r1, [r1, #48]
 826 02ce 28E7     		b	.L13
 827              	.LVL82:
 828              	.L16:
 316:../Middlewares/threadx/common/src/tx_trace_enable.c **** 
 829              		.loc 1 316 13 is_stmt 1 view .LVU332
 319:../Middlewares/threadx/common/src/tx_trace_enable.c **** 
 830              		.loc 1 319 13 is_stmt 0 view .LVU333
 831 02d0 0094     		str	r4, [sp]
 832 02d2 4A68     		ldr	r2, [r1, #4]
 833 02d4 0023     		movs	r3, #0
 834 02d6 0420     		movs	r0, #4
 835 02d8 0391     		str	r1, [sp, #12]
 836 02da FFF7FEFF 		bl	_tx_trace_object_register
 837              	.LVL83:
 322:../Middlewares/threadx/common/src/tx_trace_enable.c ****         }
 838              		.loc 1 322 27 view .LVU334
 839 02de 0399     		ldr	r1, [sp, #12]
 316:../Middlewares/threadx/common/src/tx_trace_enable.c **** 
 840              		.loc 1 316 14 view .LVU335
 841 02e0 0AF1FF3A 		add	r10, r10, #-1
 842              	.LVL84:
 319:../Middlewares/threadx/common/src/tx_trace_enable.c **** 
 843              		.loc 1 319 13 is_stmt 1 view .LVU336
 322:../Middlewares/threadx/common/src/tx_trace_enable.c ****         }
 844              		.loc 1 322 13 view .LVU337
 322:../Middlewares/threadx/common/src/tx_trace_enable.c ****         }
 845              		.loc 1 322 27 is_stmt 0 view .LVU338
 846 02e4 4969     		ldr	r1, [r1, #20]
 847 02e6 24E7     		b	.L15
 848              	.L52:
 849              		.align	2
 850              	.L51:
 851 02e8 00000000 		.word	_tx_trace_buffer_current_ptr
 852 02ec 00000000 		.word	_tx_trace_registry_end_ptr
 853 02f0 00000000 		.word	_tx_trace_registry_start_ptr
 854 02f4 00000000 		.word	_tx_trace_total_registry_entries
 855 02f8 00000000 		.word	_tx_trace_available_registry_entries
 856 02fc 00000000 		.word	_tx_trace_registry_search_start
 857 0300 00000000 		.word	_tx_trace_buffer_end_ptr
 858 0304 00000000 		.word	_tx_trace_buffer_start_ptr
 859 0308 00000000 		.word	_tx_thread_created_ptr
 860 030c 00000000 		.word	_tx_thread_created_count
 861 0310 00000000 		.word	_tx_timer_created_ptr
 862 0314 00000000 		.word	_tx_timer_created_count
 863 0318 00000000 		.word	_tx_event_flags_created_ptr
 864 031c 00000000 		.word	_tx_event_flags_created_count
 865 0320 00000000 		.word	_tx_queue_created_ptr
 866 0324 00000000 		.word	_tx_queue_created_count
 867 0328 00000000 		.word	_tx_semaphore_created_ptr
ARM GAS  /tmp/ccqaDgc2.s 			page 37


 868 032c 00000000 		.word	_tx_semaphore_created_count
 869 0330 00000000 		.word	_tx_mutex_created_ptr
 870 0334 00000000 		.word	_tx_mutex_created_count
 871 0338 00000000 		.word	_tx_block_pool_created_ptr
 872 033c 00000000 		.word	_tx_block_pool_created_count
 873 0340 00000000 		.word	_tx_byte_pool_created_ptr
 874 0344 00000000 		.word	_tx_byte_pool_created_count
 875 0348 00000000 		.word	_tx_thread_system_state
 876 034c 00000000 		.word	_tx_thread_current_ptr
 877 0350 001000E0 		.word	-536866816
 878 0354 00000000 		.word	_tx_trace_full_notify_function
 879 0358 ABAAAA0A 		.word	178956971
 880 035c 00000000 		.word	_tx_trace_event_enable_bits
 881 0360 00000000 		.word	_tx_trace_header_ptr
 882 0364 42545854 		.word	1415074882
 883 0368 00000000 		.word	_tx_thread_preempt_disable
 884              	.LVL85:
 885              	.L18:
 334:../Middlewares/threadx/common/src/tx_trace_enable.c **** 
 886              		.loc 1 334 13 is_stmt 1 view .LVU339
 337:../Middlewares/threadx/common/src/tx_trace_enable.c ****                                                                         (ULONG) mutex_ptr -> tx_mut
 887              		.loc 1 337 13 is_stmt 0 view .LVU340
 888 036c CDF800A0 		str	r10, [sp]
 889 0370 0B69     		ldr	r3, [r1, #16]
 890 0372 4A68     		ldr	r2, [r1, #4]
 891 0374 0520     		movs	r0, #5
 892 0376 0391     		str	r1, [sp, #12]
 893 0378 FFF7FEFF 		bl	_tx_trace_object_register
 894              	.LVL86:
 341:../Middlewares/threadx/common/src/tx_trace_enable.c ****         }
 895              		.loc 1 341 23 view .LVU341
 896 037c 0399     		ldr	r1, [sp, #12]
 334:../Middlewares/threadx/common/src/tx_trace_enable.c **** 
 897              		.loc 1 334 14 view .LVU342
 898 037e 013C     		subs	r4, r4, #1
 899              	.LVL87:
 337:../Middlewares/threadx/common/src/tx_trace_enable.c ****                                                                         (ULONG) mutex_ptr -> tx_mut
 900              		.loc 1 337 13 is_stmt 1 view .LVU343
 341:../Middlewares/threadx/common/src/tx_trace_enable.c ****         }
 901              		.loc 1 341 13 view .LVU344
 341:../Middlewares/threadx/common/src/tx_trace_enable.c ****         }
 902              		.loc 1 341 23 is_stmt 0 view .LVU345
 903 0380 096A     		ldr	r1, [r1, #32]
 904 0382 DEE6     		b	.L17
 905              	.LVL88:
 906              	.L20:
 353:../Middlewares/threadx/common/src/tx_trace_enable.c **** 
 907              		.loc 1 353 13 is_stmt 1 view .LVU346
 356:../Middlewares/threadx/common/src/tx_trace_enable.c ****                                                                             block_pool_ptr -> tx_bl
 908              		.loc 1 356 13 is_stmt 0 view .LVU347
 909 0384 0094     		str	r4, [sp]
 910 0386 8B69     		ldr	r3, [r1, #24]
 911 0388 4A68     		ldr	r2, [r1, #4]
 912 038a 0720     		movs	r0, #7
 913 038c 0391     		str	r1, [sp, #12]
 914 038e FFF7FEFF 		bl	_tx_trace_object_register
 915              	.LVL89:
ARM GAS  /tmp/ccqaDgc2.s 			page 38


 360:../Middlewares/threadx/common/src/tx_trace_enable.c ****         }
 916              		.loc 1 360 28 view .LVU348
 917 0392 0399     		ldr	r1, [sp, #12]
 353:../Middlewares/threadx/common/src/tx_trace_enable.c **** 
 918              		.loc 1 353 14 view .LVU349
 919 0394 0AF1FF3A 		add	r10, r10, #-1
 920              	.LVL90:
 356:../Middlewares/threadx/common/src/tx_trace_enable.c ****                                                                             block_pool_ptr -> tx_bl
 921              		.loc 1 356 13 is_stmt 1 view .LVU350
 360:../Middlewares/threadx/common/src/tx_trace_enable.c ****         }
 922              		.loc 1 360 13 view .LVU351
 360:../Middlewares/threadx/common/src/tx_trace_enable.c ****         }
 923              		.loc 1 360 28 is_stmt 0 view .LVU352
 924 0398 896A     		ldr	r1, [r1, #40]
 925 039a DAE6     		b	.L19
 926              	.LVL91:
 927              	.L22:
 372:../Middlewares/threadx/common/src/tx_trace_enable.c **** 
 928              		.loc 1 372 13 is_stmt 1 view .LVU353
 375:../Middlewares/threadx/common/src/tx_trace_enable.c ****                                                                             byte_pool_ptr -> tx_byt
 929              		.loc 1 375 13 is_stmt 0 view .LVU354
 930 039c CDF800A0 		str	r10, [sp]
 931 03a0 CB69     		ldr	r3, [r1, #28]
 932 03a2 4A68     		ldr	r2, [r1, #4]
 933 03a4 0820     		movs	r0, #8
 934 03a6 0391     		str	r1, [sp, #12]
 935 03a8 FFF7FEFF 		bl	_tx_trace_object_register
 936              	.LVL92:
 379:../Middlewares/threadx/common/src/tx_trace_enable.c ****         }
 937              		.loc 1 379 27 view .LVU355
 938 03ac 0399     		ldr	r1, [sp, #12]
 372:../Middlewares/threadx/common/src/tx_trace_enable.c **** 
 939              		.loc 1 372 14 view .LVU356
 940 03ae 013C     		subs	r4, r4, #1
 941              	.LVL93:
 375:../Middlewares/threadx/common/src/tx_trace_enable.c ****                                                                             byte_pool_ptr -> tx_byt
 942              		.loc 1 375 13 is_stmt 1 view .LVU357
 379:../Middlewares/threadx/common/src/tx_trace_enable.c ****         }
 943              		.loc 1 379 13 view .LVU358
 379:../Middlewares/threadx/common/src/tx_trace_enable.c ****         }
 944              		.loc 1 379 27 is_stmt 0 view .LVU359
 945 03b0 C96A     		ldr	r1, [r1, #44]
 946 03b2 D6E6     		b	.L21
 947              	.LVL94:
 948              	.L26:
 949              	.LBB40:
 392:../Middlewares/threadx/common/src/tx_trace_enable.c ****         TX_TRACE_IN_LINE_INSERT(TX_TRACE_RUNNING, 0, 0, 0, 0, TX_TRACE_INTERNAL_EVENTS)
 950              		.loc 1 392 9 is_stmt 1 discriminator 4 view .LVU360
 951 03b4 B2F1F03F 		cmp	r2, #-252645136
 392:../Middlewares/threadx/common/src/tx_trace_enable.c ****         TX_TRACE_IN_LINE_INSERT(TX_TRACE_RUNNING, 0, 0, 0, 0, TX_TRACE_INTERNAL_EVENTS)
 952              		.loc 1 392 9 discriminator 6 view .LVU361
 953 03b8 35BF     		itete	cc
 954 03ba 0A46     		movcc	r2, r1
 955              	.LVL95:
 392:../Middlewares/threadx/common/src/tx_trace_enable.c ****         TX_TRACE_IN_LINE_INSERT(TX_TRACE_RUNNING, 0, 0, 0, 0, TX_TRACE_INTERNAL_EVENTS)
 956              		.loc 1 392 9 view .LVU362
 392:../Middlewares/threadx/common/src/tx_trace_enable.c ****         TX_TRACE_IN_LINE_INSERT(TX_TRACE_RUNNING, 0, 0, 0, 0, TX_TRACE_INTERNAL_EVENTS)
ARM GAS  /tmp/ccqaDgc2.s 			page 39


 957              		.loc 1 392 9 is_stmt 0 discriminator 7 view .LVU363
 958 03bc 2246     		movcs	r2, r4
 959              	.LVL96:
 392:../Middlewares/threadx/common/src/tx_trace_enable.c ****         TX_TRACE_IN_LINE_INSERT(TX_TRACE_RUNNING, 0, 0, 0, 0, TX_TRACE_INTERNAL_EVENTS)
 960              		.loc 1 392 9 discriminator 6 view .LVU364
 961 03be 4FF0FF31 		movcc	r1, #-1
 392:../Middlewares/threadx/common/src/tx_trace_enable.c ****         TX_TRACE_IN_LINE_INSERT(TX_TRACE_RUNNING, 0, 0, 0, 0, TX_TRACE_INTERNAL_EVENTS)
 962              		.loc 1 392 9 discriminator 7 view .LVU365
 963 03c2 4FF0F031 		movcs	r1, #-252645136
 964 03c6 EDE6     		b	.L27
 965              	.LVL97:
 966              	.L28:
 392:../Middlewares/threadx/common/src/tx_trace_enable.c ****         TX_TRACE_IN_LINE_INSERT(TX_TRACE_RUNNING, 0, 0, 0, 0, TX_TRACE_INTERNAL_EVENTS)
 967              		.loc 1 392 9 is_stmt 1 discriminator 11 view .LVU366
 968 03c8 2A60     		str	r2, [r5]
 392:../Middlewares/threadx/common/src/tx_trace_enable.c ****         TX_TRACE_IN_LINE_INSERT(TX_TRACE_RUNNING, 0, 0, 0, 0, TX_TRACE_INTERNAL_EVENTS)
 969              		.loc 1 392 9 view .LVU367
 392:../Middlewares/threadx/common/src/tx_trace_enable.c ****         TX_TRACE_IN_LINE_INSERT(TX_TRACE_RUNNING, 0, 0, 0, 0, TX_TRACE_INTERNAL_EVENTS)
 970              		.loc 1 392 9 is_stmt 0 discriminator 11 view .LVU368
 971 03ca 0262     		str	r2, [r0, #32]
 972 03cc 04E7     		b	.L24
 973              	.LVL98:
 974              	.L32:
 392:../Middlewares/threadx/common/src/tx_trace_enable.c ****         TX_TRACE_IN_LINE_INSERT(TX_TRACE_RUNNING, 0, 0, 0, 0, TX_TRACE_INTERNAL_EVENTS)
 975              		.loc 1 392 9 discriminator 11 view .LVU369
 976              	.LBE40:
 977              	.LBB41:
 393:../Middlewares/threadx/common/src/tx_trace_enable.c **** 
 978              		.loc 1 393 9 is_stmt 1 discriminator 4 view .LVU370
 979 03ce B2F1F03F 		cmp	r2, #-252645136
 393:../Middlewares/threadx/common/src/tx_trace_enable.c **** 
 980              		.loc 1 393 9 discriminator 6 view .LVU371
 981 03d2 35BF     		itete	cc
 982 03d4 0A46     		movcc	r2, r1
 983              	.LVL99:
 393:../Middlewares/threadx/common/src/tx_trace_enable.c **** 
 984              		.loc 1 393 9 view .LVU372
 393:../Middlewares/threadx/common/src/tx_trace_enable.c **** 
 985              		.loc 1 393 9 is_stmt 0 discriminator 7 view .LVU373
 986 03d6 0022     		movcs	r2, #0
 987              	.LVL100:
 393:../Middlewares/threadx/common/src/tx_trace_enable.c **** 
 988              		.loc 1 393 9 discriminator 6 view .LVU374
 989 03d8 4FF0FF31 		movcc	r1, #-1
 393:../Middlewares/threadx/common/src/tx_trace_enable.c **** 
 990              		.loc 1 393 9 discriminator 7 view .LVU375
 991 03dc 4FF0F031 		movcs	r1, #-252645136
 992 03e0 0FE7     		b	.L33
 993              	.LVL101:
 994              	.L34:
 393:../Middlewares/threadx/common/src/tx_trace_enable.c **** 
 995              		.loc 1 393 9 is_stmt 1 discriminator 11 view .LVU376
 996 03e2 2B60     		str	r3, [r5]
 997              	.LVL102:
 393:../Middlewares/threadx/common/src/tx_trace_enable.c **** 
 998              		.loc 1 393 9 view .LVU377
 393:../Middlewares/threadx/common/src/tx_trace_enable.c **** 
ARM GAS  /tmp/ccqaDgc2.s 			page 40


 999              		.loc 1 393 9 is_stmt 0 discriminator 11 view .LVU378
 1000 03e4 0362     		str	r3, [r0, #32]
 1001 03e6 26E7     		b	.L30
 1002              	.LVL103:
 1003              	.L35:
 393:../Middlewares/threadx/common/src/tx_trace_enable.c **** 
 1004              		.loc 1 393 9 discriminator 11 view .LVU379
 1005              	.LBE41:
 115:../Middlewares/threadx/common/src/tx_trace_enable.c ****     }
 1006              		.loc 1 115 16 view .LVU380
 1007 03e8 0524     		movs	r4, #5
 1008 03ea 28E7     		b	.L1
 1009              	.L36:
 123:../Middlewares/threadx/common/src/tx_trace_enable.c ****     }
 1010              		.loc 1 123 16 view .LVU381
 1011 03ec 2024     		movs	r4, #32
 1012              	.LVL104:
 406:../Middlewares/threadx/common/src/tx_trace_enable.c **** #else
 1013              		.loc 1 406 5 is_stmt 1 view .LVU382
 406:../Middlewares/threadx/common/src/tx_trace_enable.c **** #else
 1014              		.loc 1 406 11 is_stmt 0 view .LVU383
 1015 03ee 26E7     		b	.L1
 1016              		.cfi_endproc
 1017              	.LFE8:
 1019              		.text
 1020              	.Letext0:
 1021              		.file 3 "../Middlewares/threadx/common/inc/tx_api.h"
 1022              		.file 4 "../Middlewares/threadx/common/inc/tx_thread.h"
 1023              		.file 5 "../Middlewares/threadx/common/inc/tx_timer.h"
 1024              		.file 6 "../Middlewares/threadx/common/inc/tx_event_flags.h"
 1025              		.file 7 "../Middlewares/threadx/common/inc/tx_queue.h"
 1026              		.file 8 "../Middlewares/threadx/common/inc/tx_semaphore.h"
 1027              		.file 9 "../Middlewares/threadx/common/inc/tx_mutex.h"
 1028              		.file 10 "../Middlewares/threadx/common/inc/tx_block_pool.h"
 1029              		.file 11 "../Middlewares/threadx/common/inc/tx_byte_pool.h"
 1030              		.file 12 "../Middlewares/threadx/common/inc/tx_trace.h"
ARM GAS  /tmp/ccqaDgc2.s 			page 41

