ARM GAS  /tmp/cc3LA3rC.s 			page 1


   1              		.arch armv8.1-m.main
   2              		.fpu fpv5-d16
   3              		.arch_extension dsp
   4              		.arch_extension fp
   5              		.arch_extension fp.dp
   6              		.arch_extension mve
   7              		.arch_extension mve.fp
   8              		.eabi_attribute 5, "cortex-m55"
   9              		.eabi_attribute 28, 1
  10              		.eabi_attribute 20, 1
  11              		.eabi_attribute 21, 1
  12              		.eabi_attribute 23, 3
  13              		.eabi_attribute 24, 1
  14              		.eabi_attribute 25, 1
  15              		.eabi_attribute 26, 1
  16              		.eabi_attribute 30, 4
  17              		.eabi_attribute 34, 1
  18              		.eabi_attribute 38, 1
  19              		.eabi_attribute 18, 4
  20              		.file	"txe_queue_create.c"
  21              		.text
  22              	.Ltext0:
  23              		.cfi_sections	.debug_frame
  24              		.file 1 "../Middlewares/threadx/common/src/txe_queue_create.c"
  25              		.section	.text._txe_queue_create,"ax",%progbits
  26              		.align	1
  27              		.global	_txe_queue_create
  28              		.syntax unified
  29              		.thumb
  30              		.thumb_func
  32              	_txe_queue_create:
  33              	.LVL0:
  34              	.LFB8:
   1:../Middlewares/threadx/common/src/txe_queue_create.c **** /**************************************************************************/
   2:../Middlewares/threadx/common/src/txe_queue_create.c **** /*                                                                        */
   3:../Middlewares/threadx/common/src/txe_queue_create.c **** /*       Copyright (c) Microsoft Corporation. All rights reserved.        */
   4:../Middlewares/threadx/common/src/txe_queue_create.c **** /*                                                                        */
   5:../Middlewares/threadx/common/src/txe_queue_create.c **** /*       This software is licensed under the Microsoft Software License   */
   6:../Middlewares/threadx/common/src/txe_queue_create.c **** /*       Terms for Microsoft Azure RTOS. Full text of the license can be  */
   7:../Middlewares/threadx/common/src/txe_queue_create.c **** /*       found in the LICENSE file at https://aka.ms/AzureRTOS_EULA       */
   8:../Middlewares/threadx/common/src/txe_queue_create.c **** /*       and in the root directory of this software.                      */
   9:../Middlewares/threadx/common/src/txe_queue_create.c **** /*                                                                        */
  10:../Middlewares/threadx/common/src/txe_queue_create.c **** /**************************************************************************/
  11:../Middlewares/threadx/common/src/txe_queue_create.c **** 
  12:../Middlewares/threadx/common/src/txe_queue_create.c **** 
  13:../Middlewares/threadx/common/src/txe_queue_create.c **** /**************************************************************************/
  14:../Middlewares/threadx/common/src/txe_queue_create.c **** /**************************************************************************/
  15:../Middlewares/threadx/common/src/txe_queue_create.c **** /**                                                                       */
  16:../Middlewares/threadx/common/src/txe_queue_create.c **** /** ThreadX Component                                                     */
  17:../Middlewares/threadx/common/src/txe_queue_create.c **** /**                                                                       */
  18:../Middlewares/threadx/common/src/txe_queue_create.c **** /**   Queue                                                               */
  19:../Middlewares/threadx/common/src/txe_queue_create.c **** /**                                                                       */
  20:../Middlewares/threadx/common/src/txe_queue_create.c **** /**************************************************************************/
  21:../Middlewares/threadx/common/src/txe_queue_create.c **** /**************************************************************************/
  22:../Middlewares/threadx/common/src/txe_queue_create.c **** 
  23:../Middlewares/threadx/common/src/txe_queue_create.c **** #define TX_SOURCE_CODE
  24:../Middlewares/threadx/common/src/txe_queue_create.c **** 
ARM GAS  /tmp/cc3LA3rC.s 			page 2


  25:../Middlewares/threadx/common/src/txe_queue_create.c **** 
  26:../Middlewares/threadx/common/src/txe_queue_create.c **** /* Include necessary system files.  */
  27:../Middlewares/threadx/common/src/txe_queue_create.c **** 
  28:../Middlewares/threadx/common/src/txe_queue_create.c **** #include "tx_api.h"
  29:../Middlewares/threadx/common/src/txe_queue_create.c **** #include "tx_initialize.h"
  30:../Middlewares/threadx/common/src/txe_queue_create.c **** #include "tx_timer.h"
  31:../Middlewares/threadx/common/src/txe_queue_create.c **** #include "tx_thread.h"
  32:../Middlewares/threadx/common/src/txe_queue_create.c **** #include "tx_queue.h"
  33:../Middlewares/threadx/common/src/txe_queue_create.c **** 
  34:../Middlewares/threadx/common/src/txe_queue_create.c **** 
  35:../Middlewares/threadx/common/src/txe_queue_create.c **** /**************************************************************************/
  36:../Middlewares/threadx/common/src/txe_queue_create.c **** /*                                                                        */
  37:../Middlewares/threadx/common/src/txe_queue_create.c **** /*  FUNCTION                                               RELEASE        */
  38:../Middlewares/threadx/common/src/txe_queue_create.c **** /*                                                                        */
  39:../Middlewares/threadx/common/src/txe_queue_create.c **** /*    _txe_queue_create                                   PORTABLE C      */
  40:../Middlewares/threadx/common/src/txe_queue_create.c **** /*                                                           6.1          */
  41:../Middlewares/threadx/common/src/txe_queue_create.c **** /*  AUTHOR                                                                */
  42:../Middlewares/threadx/common/src/txe_queue_create.c **** /*                                                                        */
  43:../Middlewares/threadx/common/src/txe_queue_create.c **** /*    William E. Lamie, Microsoft Corporation                             */
  44:../Middlewares/threadx/common/src/txe_queue_create.c **** /*                                                                        */
  45:../Middlewares/threadx/common/src/txe_queue_create.c **** /*  DESCRIPTION                                                           */
  46:../Middlewares/threadx/common/src/txe_queue_create.c **** /*                                                                        */
  47:../Middlewares/threadx/common/src/txe_queue_create.c **** /*    This function checks for errors in the queue create function call.  */
  48:../Middlewares/threadx/common/src/txe_queue_create.c **** /*                                                                        */
  49:../Middlewares/threadx/common/src/txe_queue_create.c **** /*  INPUT                                                                 */
  50:../Middlewares/threadx/common/src/txe_queue_create.c **** /*                                                                        */
  51:../Middlewares/threadx/common/src/txe_queue_create.c **** /*    queue_ptr                         Pointer to queue control block    */
  52:../Middlewares/threadx/common/src/txe_queue_create.c **** /*    name_ptr                          Pointer to queue name             */
  53:../Middlewares/threadx/common/src/txe_queue_create.c **** /*    message_size                      Size of each queue message        */
  54:../Middlewares/threadx/common/src/txe_queue_create.c **** /*    queue_start                       Starting address of the queue area*/
  55:../Middlewares/threadx/common/src/txe_queue_create.c **** /*    queue_size                        Number of bytes in the queue      */
  56:../Middlewares/threadx/common/src/txe_queue_create.c **** /*    queue_control_block_size          Size of queue control block       */
  57:../Middlewares/threadx/common/src/txe_queue_create.c **** /*                                                                        */
  58:../Middlewares/threadx/common/src/txe_queue_create.c **** /*  OUTPUT                                                                */
  59:../Middlewares/threadx/common/src/txe_queue_create.c **** /*                                                                        */
  60:../Middlewares/threadx/common/src/txe_queue_create.c **** /*    TX_QUEUE_ERROR                    Invalid queue pointer             */
  61:../Middlewares/threadx/common/src/txe_queue_create.c **** /*    TX_PTR_ERROR                      Invalid starting address of queue */
  62:../Middlewares/threadx/common/src/txe_queue_create.c **** /*    TX_SIZE_ERROR                     Invalid message queue size        */
  63:../Middlewares/threadx/common/src/txe_queue_create.c **** /*    status                            Actual completion status          */
  64:../Middlewares/threadx/common/src/txe_queue_create.c **** /*                                                                        */
  65:../Middlewares/threadx/common/src/txe_queue_create.c **** /*  CALLS                                                                 */
  66:../Middlewares/threadx/common/src/txe_queue_create.c **** /*                                                                        */
  67:../Middlewares/threadx/common/src/txe_queue_create.c **** /*    _tx_queue_create                  Actual queue create function      */
  68:../Middlewares/threadx/common/src/txe_queue_create.c **** /*    _tx_thread_system_preempt_check   Check for preemption              */
  69:../Middlewares/threadx/common/src/txe_queue_create.c **** /*                                                                        */
  70:../Middlewares/threadx/common/src/txe_queue_create.c **** /*  CALLED BY                                                             */
  71:../Middlewares/threadx/common/src/txe_queue_create.c **** /*                                                                        */
  72:../Middlewares/threadx/common/src/txe_queue_create.c **** /*    Application Code                                                    */
  73:../Middlewares/threadx/common/src/txe_queue_create.c **** /*                                                                        */
  74:../Middlewares/threadx/common/src/txe_queue_create.c **** /*  RELEASE HISTORY                                                       */
  75:../Middlewares/threadx/common/src/txe_queue_create.c **** /*                                                                        */
  76:../Middlewares/threadx/common/src/txe_queue_create.c **** /*    DATE              NAME                      DESCRIPTION             */
  77:../Middlewares/threadx/common/src/txe_queue_create.c **** /*                                                                        */
  78:../Middlewares/threadx/common/src/txe_queue_create.c **** /*  05-19-2020     William E. Lamie         Initial Version 6.0           */
  79:../Middlewares/threadx/common/src/txe_queue_create.c **** /*  09-30-2020     Yuxin Zhou               Modified comment(s),          */
  80:../Middlewares/threadx/common/src/txe_queue_create.c **** /*                                            resulting in version 6.1    */
  81:../Middlewares/threadx/common/src/txe_queue_create.c **** /*                                                                        */
ARM GAS  /tmp/cc3LA3rC.s 			page 3


  82:../Middlewares/threadx/common/src/txe_queue_create.c **** /**************************************************************************/
  83:../Middlewares/threadx/common/src/txe_queue_create.c **** UINT  _txe_queue_create(TX_QUEUE *queue_ptr, CHAR *name_ptr, UINT message_size,
  84:../Middlewares/threadx/common/src/txe_queue_create.c ****                         VOID *queue_start, ULONG queue_size, UINT queue_control_block_size)
  85:../Middlewares/threadx/common/src/txe_queue_create.c **** {
  35              		.loc 1 85 1 view -0
  36              		.cfi_startproc
  37              		@ args = 8, pretend = 0, frame = 0
  38              		@ frame_needed = 0, uses_anonymous_args = 0
  86:../Middlewares/threadx/common/src/txe_queue_create.c **** 
  87:../Middlewares/threadx/common/src/txe_queue_create.c **** TX_INTERRUPT_SAVE_AREA
  39              		.loc 1 87 1 view .LVU1
  88:../Middlewares/threadx/common/src/txe_queue_create.c **** 
  89:../Middlewares/threadx/common/src/txe_queue_create.c **** UINT            status;
  40              		.loc 1 89 1 view .LVU2
  90:../Middlewares/threadx/common/src/txe_queue_create.c **** ULONG           i;
  41              		.loc 1 90 1 view .LVU3
  91:../Middlewares/threadx/common/src/txe_queue_create.c **** TX_QUEUE        *next_queue;
  42              		.loc 1 91 1 view .LVU4
  92:../Middlewares/threadx/common/src/txe_queue_create.c **** #ifndef TX_TIMER_PROCESS_IN_ISR
  93:../Middlewares/threadx/common/src/txe_queue_create.c **** TX_THREAD       *thread_ptr;
  43              		.loc 1 93 1 view .LVU5
  94:../Middlewares/threadx/common/src/txe_queue_create.c **** #endif
  95:../Middlewares/threadx/common/src/txe_queue_create.c **** 
  96:../Middlewares/threadx/common/src/txe_queue_create.c **** 
  97:../Middlewares/threadx/common/src/txe_queue_create.c ****     /* Default status to success.  */
  98:../Middlewares/threadx/common/src/txe_queue_create.c ****     status =  TX_SUCCESS;
  44              		.loc 1 98 5 view .LVU6
  99:../Middlewares/threadx/common/src/txe_queue_create.c **** 
 100:../Middlewares/threadx/common/src/txe_queue_create.c ****     /* Check for an invalid queue pointer.  */
 101:../Middlewares/threadx/common/src/txe_queue_create.c ****     if (queue_ptr == TX_NULL)
  45              		.loc 1 101 5 view .LVU7
  85:../Middlewares/threadx/common/src/txe_queue_create.c **** 
  46              		.loc 1 85 1 is_stmt 0 view .LVU8
  47 0000 2DE9F047 		push	{r4, r5, r6, r7, r8, r9, r10, lr}
  48              		.cfi_def_cfa_offset 32
  49              		.cfi_offset 4, -32
  50              		.cfi_offset 5, -28
  51              		.cfi_offset 6, -24
  52              		.cfi_offset 7, -20
  53              		.cfi_offset 8, -16
  54              		.cfi_offset 9, -12
  55              		.cfi_offset 10, -8
  56              		.cfi_offset 14, -4
  85:../Middlewares/threadx/common/src/txe_queue_create.c **** 
  57              		.loc 1 85 1 view .LVU9
  58 0004 1E46     		mov	r6, r3
  59 0006 DDE90893 		ldrd	r9, r3, [sp, #32]
  60              	.LVL1:
  85:../Middlewares/threadx/common/src/txe_queue_create.c **** 
  61              		.loc 1 85 1 view .LVU10
  62 000a 8846     		mov	r8, r1
  63 000c 1546     		mov	r5, r2
  64              		.loc 1 101 8 view .LVU11
  65 000e 0446     		mov	r4, r0
  66 0010 10B9     		cbnz	r0, .L2
  67              	.LVL2:
  68              	.L4:
ARM GAS  /tmp/cc3LA3rC.s 			page 4


 102:../Middlewares/threadx/common/src/txe_queue_create.c ****     {
 103:../Middlewares/threadx/common/src/txe_queue_create.c **** 
 104:../Middlewares/threadx/common/src/txe_queue_create.c ****         /* Queue pointer is invalid, return appropriate error code.  */
 105:../Middlewares/threadx/common/src/txe_queue_create.c ****         status =  TX_QUEUE_ERROR;
  69              		.loc 1 105 16 view .LVU12
  70 0012 0920     		movs	r0, #9
  71              	.LVL3:
  72              	.L1:
 106:../Middlewares/threadx/common/src/txe_queue_create.c ****     }
 107:../Middlewares/threadx/common/src/txe_queue_create.c **** 
 108:../Middlewares/threadx/common/src/txe_queue_create.c ****     /* Now check for a valid control block size.  */
 109:../Middlewares/threadx/common/src/txe_queue_create.c ****     else if (queue_control_block_size != (sizeof(TX_QUEUE)))
 110:../Middlewares/threadx/common/src/txe_queue_create.c ****     {
 111:../Middlewares/threadx/common/src/txe_queue_create.c **** 
 112:../Middlewares/threadx/common/src/txe_queue_create.c ****         /* Queue pointer is invalid, return appropriate error code.  */
 113:../Middlewares/threadx/common/src/txe_queue_create.c ****         status =  TX_QUEUE_ERROR;
 114:../Middlewares/threadx/common/src/txe_queue_create.c ****     }
 115:../Middlewares/threadx/common/src/txe_queue_create.c ****     else
 116:../Middlewares/threadx/common/src/txe_queue_create.c ****     {
 117:../Middlewares/threadx/common/src/txe_queue_create.c **** 
 118:../Middlewares/threadx/common/src/txe_queue_create.c ****         /* Disable interrupts.  */
 119:../Middlewares/threadx/common/src/txe_queue_create.c ****         TX_DISABLE
 120:../Middlewares/threadx/common/src/txe_queue_create.c **** 
 121:../Middlewares/threadx/common/src/txe_queue_create.c ****         /* Increment the preempt disable flag.  */
 122:../Middlewares/threadx/common/src/txe_queue_create.c ****         _tx_thread_preempt_disable++;
 123:../Middlewares/threadx/common/src/txe_queue_create.c **** 
 124:../Middlewares/threadx/common/src/txe_queue_create.c ****         /* Restore interrupts.  */
 125:../Middlewares/threadx/common/src/txe_queue_create.c ****         TX_RESTORE
 126:../Middlewares/threadx/common/src/txe_queue_create.c **** 
 127:../Middlewares/threadx/common/src/txe_queue_create.c ****         /* Next see if it is already in the created list.  */
 128:../Middlewares/threadx/common/src/txe_queue_create.c ****         next_queue =   _tx_queue_created_ptr;
 129:../Middlewares/threadx/common/src/txe_queue_create.c ****         for (i = ((ULONG) 0); i < _tx_queue_created_count; i++)
 130:../Middlewares/threadx/common/src/txe_queue_create.c ****         {
 131:../Middlewares/threadx/common/src/txe_queue_create.c **** 
 132:../Middlewares/threadx/common/src/txe_queue_create.c ****             /* Determine if this queue matches the queue in the list.  */
 133:../Middlewares/threadx/common/src/txe_queue_create.c ****             if (queue_ptr == next_queue)
 134:../Middlewares/threadx/common/src/txe_queue_create.c ****             {
 135:../Middlewares/threadx/common/src/txe_queue_create.c **** 
 136:../Middlewares/threadx/common/src/txe_queue_create.c ****                 break;
 137:../Middlewares/threadx/common/src/txe_queue_create.c ****             }
 138:../Middlewares/threadx/common/src/txe_queue_create.c ****             else
 139:../Middlewares/threadx/common/src/txe_queue_create.c ****             {
 140:../Middlewares/threadx/common/src/txe_queue_create.c **** 
 141:../Middlewares/threadx/common/src/txe_queue_create.c ****                 /* Move to the next queue.  */
 142:../Middlewares/threadx/common/src/txe_queue_create.c ****                 next_queue =  next_queue -> tx_queue_created_next;
 143:../Middlewares/threadx/common/src/txe_queue_create.c ****             }
 144:../Middlewares/threadx/common/src/txe_queue_create.c ****         }
 145:../Middlewares/threadx/common/src/txe_queue_create.c **** 
 146:../Middlewares/threadx/common/src/txe_queue_create.c ****         /* Disable interrupts.  */
 147:../Middlewares/threadx/common/src/txe_queue_create.c ****         TX_DISABLE
 148:../Middlewares/threadx/common/src/txe_queue_create.c **** 
 149:../Middlewares/threadx/common/src/txe_queue_create.c ****         /* Decrement the preempt disable flag.  */
 150:../Middlewares/threadx/common/src/txe_queue_create.c ****         _tx_thread_preempt_disable--;
 151:../Middlewares/threadx/common/src/txe_queue_create.c **** 
 152:../Middlewares/threadx/common/src/txe_queue_create.c ****         /* Restore interrupts.  */
 153:../Middlewares/threadx/common/src/txe_queue_create.c ****         TX_RESTORE
 154:../Middlewares/threadx/common/src/txe_queue_create.c **** 
ARM GAS  /tmp/cc3LA3rC.s 			page 5


 155:../Middlewares/threadx/common/src/txe_queue_create.c ****         /* Check for preemption.  */
 156:../Middlewares/threadx/common/src/txe_queue_create.c ****         _tx_thread_system_preempt_check();
 157:../Middlewares/threadx/common/src/txe_queue_create.c **** 
 158:../Middlewares/threadx/common/src/txe_queue_create.c ****         /* At this point, check to see if there is a duplicate queue.  */
 159:../Middlewares/threadx/common/src/txe_queue_create.c ****         if (queue_ptr == next_queue)
 160:../Middlewares/threadx/common/src/txe_queue_create.c ****         {
 161:../Middlewares/threadx/common/src/txe_queue_create.c **** 
 162:../Middlewares/threadx/common/src/txe_queue_create.c ****             /* Queue is already created, return appropriate error code.  */
 163:../Middlewares/threadx/common/src/txe_queue_create.c ****             status =  TX_QUEUE_ERROR;
 164:../Middlewares/threadx/common/src/txe_queue_create.c ****         }
 165:../Middlewares/threadx/common/src/txe_queue_create.c **** 
 166:../Middlewares/threadx/common/src/txe_queue_create.c ****         /* Check the starting address of the queue.  */
 167:../Middlewares/threadx/common/src/txe_queue_create.c ****         else if (queue_start == TX_NULL)
 168:../Middlewares/threadx/common/src/txe_queue_create.c ****         {
 169:../Middlewares/threadx/common/src/txe_queue_create.c **** 
 170:../Middlewares/threadx/common/src/txe_queue_create.c ****             /* Invalid starting address of queue.  */
 171:../Middlewares/threadx/common/src/txe_queue_create.c ****             status =  TX_PTR_ERROR;
 172:../Middlewares/threadx/common/src/txe_queue_create.c ****         }
 173:../Middlewares/threadx/common/src/txe_queue_create.c **** 
 174:../Middlewares/threadx/common/src/txe_queue_create.c ****         /* Check for an invalid message size - less than 1.  */
 175:../Middlewares/threadx/common/src/txe_queue_create.c ****         else if (message_size < TX_1_ULONG)
 176:../Middlewares/threadx/common/src/txe_queue_create.c ****         {
 177:../Middlewares/threadx/common/src/txe_queue_create.c **** 
 178:../Middlewares/threadx/common/src/txe_queue_create.c ****             /* Invalid message size specified.  */
 179:../Middlewares/threadx/common/src/txe_queue_create.c ****             status =  TX_SIZE_ERROR;
 180:../Middlewares/threadx/common/src/txe_queue_create.c ****         }
 181:../Middlewares/threadx/common/src/txe_queue_create.c **** 
 182:../Middlewares/threadx/common/src/txe_queue_create.c ****         /* Check for an invalid message size - greater than 16.  */
 183:../Middlewares/threadx/common/src/txe_queue_create.c ****         else if (message_size > TX_16_ULONG)
 184:../Middlewares/threadx/common/src/txe_queue_create.c ****         {
 185:../Middlewares/threadx/common/src/txe_queue_create.c **** 
 186:../Middlewares/threadx/common/src/txe_queue_create.c ****             /* Invalid message size specified.  */
 187:../Middlewares/threadx/common/src/txe_queue_create.c ****             status =  TX_SIZE_ERROR;
 188:../Middlewares/threadx/common/src/txe_queue_create.c ****         }
 189:../Middlewares/threadx/common/src/txe_queue_create.c **** 
 190:../Middlewares/threadx/common/src/txe_queue_create.c ****         /* Check on the queue size.  */
 191:../Middlewares/threadx/common/src/txe_queue_create.c ****         else if ((queue_size/(sizeof(ULONG))) < message_size)
 192:../Middlewares/threadx/common/src/txe_queue_create.c ****         {
 193:../Middlewares/threadx/common/src/txe_queue_create.c **** 
 194:../Middlewares/threadx/common/src/txe_queue_create.c ****             /* Invalid queue size specified.  */
 195:../Middlewares/threadx/common/src/txe_queue_create.c ****             status =  TX_SIZE_ERROR;
 196:../Middlewares/threadx/common/src/txe_queue_create.c ****         }
 197:../Middlewares/threadx/common/src/txe_queue_create.c ****         else
 198:../Middlewares/threadx/common/src/txe_queue_create.c ****         {
 199:../Middlewares/threadx/common/src/txe_queue_create.c **** 
 200:../Middlewares/threadx/common/src/txe_queue_create.c **** #ifndef TX_TIMER_PROCESS_IN_ISR
 201:../Middlewares/threadx/common/src/txe_queue_create.c **** 
 202:../Middlewares/threadx/common/src/txe_queue_create.c ****             /* Pickup thread pointer.  */
 203:../Middlewares/threadx/common/src/txe_queue_create.c ****             TX_THREAD_GET_CURRENT(thread_ptr)
 204:../Middlewares/threadx/common/src/txe_queue_create.c **** 
 205:../Middlewares/threadx/common/src/txe_queue_create.c ****             /* Check for invalid caller of this function.  First check for a calling thread.  */
 206:../Middlewares/threadx/common/src/txe_queue_create.c ****             if (thread_ptr == &_tx_timer_thread)
 207:../Middlewares/threadx/common/src/txe_queue_create.c ****             {
 208:../Middlewares/threadx/common/src/txe_queue_create.c **** 
 209:../Middlewares/threadx/common/src/txe_queue_create.c ****                 /* Invalid caller of this function, return appropriate error code.  */
 210:../Middlewares/threadx/common/src/txe_queue_create.c ****                 status =  TX_CALLER_ERROR;
 211:../Middlewares/threadx/common/src/txe_queue_create.c ****             }
ARM GAS  /tmp/cc3LA3rC.s 			page 6


 212:../Middlewares/threadx/common/src/txe_queue_create.c **** #endif
 213:../Middlewares/threadx/common/src/txe_queue_create.c **** 
 214:../Middlewares/threadx/common/src/txe_queue_create.c ****             /* Check for interrupt call.  */
 215:../Middlewares/threadx/common/src/txe_queue_create.c ****             if (TX_THREAD_GET_SYSTEM_STATE() != ((ULONG) 0))
 216:../Middlewares/threadx/common/src/txe_queue_create.c ****             {
 217:../Middlewares/threadx/common/src/txe_queue_create.c **** 
 218:../Middlewares/threadx/common/src/txe_queue_create.c ****                 /* Now, make sure the call is from an interrupt and not initialization.  */
 219:../Middlewares/threadx/common/src/txe_queue_create.c ****                 if (TX_THREAD_GET_SYSTEM_STATE() < TX_INITIALIZE_IN_PROGRESS)
 220:../Middlewares/threadx/common/src/txe_queue_create.c ****                 {
 221:../Middlewares/threadx/common/src/txe_queue_create.c **** 
 222:../Middlewares/threadx/common/src/txe_queue_create.c ****                     /* Invalid caller of this function, return appropriate error code.  */
 223:../Middlewares/threadx/common/src/txe_queue_create.c ****                     status =  TX_CALLER_ERROR;
 224:../Middlewares/threadx/common/src/txe_queue_create.c ****                 }
 225:../Middlewares/threadx/common/src/txe_queue_create.c ****             }
 226:../Middlewares/threadx/common/src/txe_queue_create.c ****         }
 227:../Middlewares/threadx/common/src/txe_queue_create.c ****     }
 228:../Middlewares/threadx/common/src/txe_queue_create.c **** 
 229:../Middlewares/threadx/common/src/txe_queue_create.c ****     /* Determine if everything is okay.  */
 230:../Middlewares/threadx/common/src/txe_queue_create.c ****     if (status == TX_SUCCESS)
 231:../Middlewares/threadx/common/src/txe_queue_create.c ****     {
 232:../Middlewares/threadx/common/src/txe_queue_create.c **** 
 233:../Middlewares/threadx/common/src/txe_queue_create.c ****         /* Call actual queue create function.  */
 234:../Middlewares/threadx/common/src/txe_queue_create.c ****         status =  _tx_queue_create(queue_ptr, name_ptr, message_size, queue_start, queue_size);
 235:../Middlewares/threadx/common/src/txe_queue_create.c ****     }
 236:../Middlewares/threadx/common/src/txe_queue_create.c **** 
 237:../Middlewares/threadx/common/src/txe_queue_create.c ****     /* Return completion status.  */
 238:../Middlewares/threadx/common/src/txe_queue_create.c ****     return(status);
 239:../Middlewares/threadx/common/src/txe_queue_create.c **** }
  73              		.loc 1 239 1 view .LVU13
  74 0014 BDE8F087 		pop	{r4, r5, r6, r7, r8, r9, r10, pc}
  75              	.LVL4:
  76              	.L2:
 109:../Middlewares/threadx/common/src/txe_queue_create.c ****     {
  77              		.loc 1 109 10 is_stmt 1 view .LVU14
 109:../Middlewares/threadx/common/src/txe_queue_create.c ****     {
  78              		.loc 1 109 13 is_stmt 0 view .LVU15
  79 0018 3C2B     		cmp	r3, #60
  80 001a FAD1     		bne	.L4
 119:../Middlewares/threadx/common/src/txe_queue_create.c **** 
  81              		.loc 1 119 9 is_stmt 1 view .LVU16
  82              	.LBB20:
  83              	.LBI20:
  84              		.file 2 "../Middlewares/threadx/ports/cortex_m55/gnu/inc/tx_port.h"
   1:../Middlewares/threadx/ports/cortex_m55/gnu/inc/tx_port.h **** /**************************************************************************/
   2:../Middlewares/threadx/ports/cortex_m55/gnu/inc/tx_port.h **** /*                                                                        */
   3:../Middlewares/threadx/ports/cortex_m55/gnu/inc/tx_port.h **** /*       Copyright (c) Microsoft Corporation. All rights reserved.        */
   4:../Middlewares/threadx/ports/cortex_m55/gnu/inc/tx_port.h **** /*                                                                        */
   5:../Middlewares/threadx/ports/cortex_m55/gnu/inc/tx_port.h **** /*       This software is licensed under the Microsoft Software License   */
   6:../Middlewares/threadx/ports/cortex_m55/gnu/inc/tx_port.h **** /*       Terms for Microsoft Azure RTOS. Full text of the license can be  */
   7:../Middlewares/threadx/ports/cortex_m55/gnu/inc/tx_port.h **** /*       found in the LICENSE file at https://aka.ms/AzureRTOS_EULA       */
   8:../Middlewares/threadx/ports/cortex_m55/gnu/inc/tx_port.h **** /*       and in the root directory of this software.                      */
   9:../Middlewares/threadx/ports/cortex_m55/gnu/inc/tx_port.h **** /*                                                                        */
  10:../Middlewares/threadx/ports/cortex_m55/gnu/inc/tx_port.h **** /**************************************************************************/
  11:../Middlewares/threadx/ports/cortex_m55/gnu/inc/tx_port.h **** 
  12:../Middlewares/threadx/ports/cortex_m55/gnu/inc/tx_port.h **** 
  13:../Middlewares/threadx/ports/cortex_m55/gnu/inc/tx_port.h **** /**************************************************************************/
  14:../Middlewares/threadx/ports/cortex_m55/gnu/inc/tx_port.h **** /**************************************************************************/
ARM GAS  /tmp/cc3LA3rC.s 			page 7


  15:../Middlewares/threadx/ports/cortex_m55/gnu/inc/tx_port.h **** /**                                                                       */
  16:../Middlewares/threadx/ports/cortex_m55/gnu/inc/tx_port.h **** /** ThreadX Component                                                     */
  17:../Middlewares/threadx/ports/cortex_m55/gnu/inc/tx_port.h **** /**                                                                       */
  18:../Middlewares/threadx/ports/cortex_m55/gnu/inc/tx_port.h **** /**   Port Specific                                                       */
  19:../Middlewares/threadx/ports/cortex_m55/gnu/inc/tx_port.h **** /**                                                                       */
  20:../Middlewares/threadx/ports/cortex_m55/gnu/inc/tx_port.h **** /**************************************************************************/
  21:../Middlewares/threadx/ports/cortex_m55/gnu/inc/tx_port.h **** /**************************************************************************/
  22:../Middlewares/threadx/ports/cortex_m55/gnu/inc/tx_port.h **** 
  23:../Middlewares/threadx/ports/cortex_m55/gnu/inc/tx_port.h **** 
  24:../Middlewares/threadx/ports/cortex_m55/gnu/inc/tx_port.h **** /**************************************************************************/
  25:../Middlewares/threadx/ports/cortex_m55/gnu/inc/tx_port.h **** /*                                                                        */
  26:../Middlewares/threadx/ports/cortex_m55/gnu/inc/tx_port.h **** /*  PORT SPECIFIC C INFORMATION                            RELEASE        */
  27:../Middlewares/threadx/ports/cortex_m55/gnu/inc/tx_port.h **** /*                                                                        */
  28:../Middlewares/threadx/ports/cortex_m55/gnu/inc/tx_port.h **** /*    tx_port.h                                         Cortex-M55/GNU    */
  29:../Middlewares/threadx/ports/cortex_m55/gnu/inc/tx_port.h **** /*                                                           6.2.1        */
  30:../Middlewares/threadx/ports/cortex_m55/gnu/inc/tx_port.h **** /*                                                                        */
  31:../Middlewares/threadx/ports/cortex_m55/gnu/inc/tx_port.h **** /*  AUTHOR                                                                */
  32:../Middlewares/threadx/ports/cortex_m55/gnu/inc/tx_port.h **** /*                                                                        */
  33:../Middlewares/threadx/ports/cortex_m55/gnu/inc/tx_port.h **** /*    Scott Larson, Microsoft Corporation                                 */
  34:../Middlewares/threadx/ports/cortex_m55/gnu/inc/tx_port.h **** /*                                                                        */
  35:../Middlewares/threadx/ports/cortex_m55/gnu/inc/tx_port.h **** /*  DESCRIPTION                                                           */
  36:../Middlewares/threadx/ports/cortex_m55/gnu/inc/tx_port.h **** /*                                                                        */
  37:../Middlewares/threadx/ports/cortex_m55/gnu/inc/tx_port.h **** /*    This file contains data type definitions that make the ThreadX      */
  38:../Middlewares/threadx/ports/cortex_m55/gnu/inc/tx_port.h **** /*    real-time kernel function identically on a variety of different     */
  39:../Middlewares/threadx/ports/cortex_m55/gnu/inc/tx_port.h **** /*    processor architectures.  For example, the size or number of bits   */
  40:../Middlewares/threadx/ports/cortex_m55/gnu/inc/tx_port.h **** /*    in an "int" data type vary between microprocessor architectures and */
  41:../Middlewares/threadx/ports/cortex_m55/gnu/inc/tx_port.h **** /*    even C compilers for the same microprocessor.  ThreadX does not     */
  42:../Middlewares/threadx/ports/cortex_m55/gnu/inc/tx_port.h **** /*    directly use native C data types.  Instead, ThreadX creates its     */
  43:../Middlewares/threadx/ports/cortex_m55/gnu/inc/tx_port.h **** /*    own special types that can be mapped to actual data types by this   */
  44:../Middlewares/threadx/ports/cortex_m55/gnu/inc/tx_port.h **** /*    file to guarantee consistency in the interface and functionality.   */
  45:../Middlewares/threadx/ports/cortex_m55/gnu/inc/tx_port.h **** /*                                                                        */
  46:../Middlewares/threadx/ports/cortex_m55/gnu/inc/tx_port.h **** /*    This file replaces the previous Cortex-M55 files. It unifies        */
  47:../Middlewares/threadx/ports/cortex_m55/gnu/inc/tx_port.h **** /*    the Cortex-M55 compilers into one common file.                      */
  48:../Middlewares/threadx/ports/cortex_m55/gnu/inc/tx_port.h **** /*                                                                        */
  49:../Middlewares/threadx/ports/cortex_m55/gnu/inc/tx_port.h **** /*  RELEASE HISTORY                                                       */
  50:../Middlewares/threadx/ports/cortex_m55/gnu/inc/tx_port.h **** /*                                                                        */
  51:../Middlewares/threadx/ports/cortex_m55/gnu/inc/tx_port.h **** /*    DATE              NAME                      DESCRIPTION             */
  52:../Middlewares/threadx/ports/cortex_m55/gnu/inc/tx_port.h **** /*                                                                        */
  53:../Middlewares/threadx/ports/cortex_m55/gnu/inc/tx_port.h **** /*  09-30-2020      Scott Larson            Initial Version 6.1           */
  54:../Middlewares/threadx/ports/cortex_m55/gnu/inc/tx_port.h **** /*  03-02-2021      Scott Larson            Modified comment(s), added    */
  55:../Middlewares/threadx/ports/cortex_m55/gnu/inc/tx_port.h **** /*                                            ULONG64_DEFINED,            */
  56:../Middlewares/threadx/ports/cortex_m55/gnu/inc/tx_port.h **** /*                                            resulting in version 6.1.5  */
  57:../Middlewares/threadx/ports/cortex_m55/gnu/inc/tx_port.h **** /*  06-02-2021      Scott Larson            Modified comment(s), removed  */
  58:../Middlewares/threadx/ports/cortex_m55/gnu/inc/tx_port.h **** /*                                            unneeded header file, funcs */
  59:../Middlewares/threadx/ports/cortex_m55/gnu/inc/tx_port.h **** /*                                            set_control and get_control */
  60:../Middlewares/threadx/ports/cortex_m55/gnu/inc/tx_port.h **** /*                                            changed to inline,          */
  61:../Middlewares/threadx/ports/cortex_m55/gnu/inc/tx_port.h **** /*                                            added symbol to enable      */
  62:../Middlewares/threadx/ports/cortex_m55/gnu/inc/tx_port.h **** /*                                            stack error handler,        */
  63:../Middlewares/threadx/ports/cortex_m55/gnu/inc/tx_port.h **** /*                                            resulting in version 6.1.7  */
  64:../Middlewares/threadx/ports/cortex_m55/gnu/inc/tx_port.h **** /*  10-15-2021      Scott Larson            Modified comment(s), improved */
  65:../Middlewares/threadx/ports/cortex_m55/gnu/inc/tx_port.h **** /*                                            stack check error handling, */
  66:../Middlewares/threadx/ports/cortex_m55/gnu/inc/tx_port.h **** /*                                            resulting in version 6.1.9  */
  67:../Middlewares/threadx/ports/cortex_m55/gnu/inc/tx_port.h **** /*  01-31-2022      Scott Larson            Modified comment(s), unified  */
  68:../Middlewares/threadx/ports/cortex_m55/gnu/inc/tx_port.h **** /*                                            this file across compilers, */
  69:../Middlewares/threadx/ports/cortex_m55/gnu/inc/tx_port.h **** /*                                            fixed predefined macro,     */
  70:../Middlewares/threadx/ports/cortex_m55/gnu/inc/tx_port.h **** /*                                            resulting in version 6.1.10 */
  71:../Middlewares/threadx/ports/cortex_m55/gnu/inc/tx_port.h **** /*  04-25-2022      Scott Larson            Modified comments and added   */
ARM GAS  /tmp/cc3LA3rC.s 			page 8


  72:../Middlewares/threadx/ports/cortex_m55/gnu/inc/tx_port.h **** /*                                            volatile to registers,      */
  73:../Middlewares/threadx/ports/cortex_m55/gnu/inc/tx_port.h **** /*                                            resulting in version 6.1.11 */
  74:../Middlewares/threadx/ports/cortex_m55/gnu/inc/tx_port.h **** /*  07-29-2022      Scott Larson            Modified comments and changed */
  75:../Middlewares/threadx/ports/cortex_m55/gnu/inc/tx_port.h **** /*                                            secure stack initialization */
  76:../Middlewares/threadx/ports/cortex_m55/gnu/inc/tx_port.h **** /*                                            macro to port-specific,     */
  77:../Middlewares/threadx/ports/cortex_m55/gnu/inc/tx_port.h **** /*                                            described BASEPRI usage,    */
  78:../Middlewares/threadx/ports/cortex_m55/gnu/inc/tx_port.h **** /*                                            resulting in version 6.1.12 */
  79:../Middlewares/threadx/ports/cortex_m55/gnu/inc/tx_port.h **** /*  03-08-2023      Scott Larson            Removed unneeded #include,    */
  80:../Middlewares/threadx/ports/cortex_m55/gnu/inc/tx_port.h **** /*                                            resulting in version 6.2.1  */
  81:../Middlewares/threadx/ports/cortex_m55/gnu/inc/tx_port.h **** /*                                                                        */
  82:../Middlewares/threadx/ports/cortex_m55/gnu/inc/tx_port.h **** /**************************************************************************/
  83:../Middlewares/threadx/ports/cortex_m55/gnu/inc/tx_port.h **** 
  84:../Middlewares/threadx/ports/cortex_m55/gnu/inc/tx_port.h **** #ifndef TX_PORT_H
  85:../Middlewares/threadx/ports/cortex_m55/gnu/inc/tx_port.h **** #define TX_PORT_H
  86:../Middlewares/threadx/ports/cortex_m55/gnu/inc/tx_port.h **** 
  87:../Middlewares/threadx/ports/cortex_m55/gnu/inc/tx_port.h **** /* Determine if the optional ThreadX user define file should be used.  */
  88:../Middlewares/threadx/ports/cortex_m55/gnu/inc/tx_port.h **** #ifdef TX_INCLUDE_USER_DEFINE_FILE
  89:../Middlewares/threadx/ports/cortex_m55/gnu/inc/tx_port.h **** 
  90:../Middlewares/threadx/ports/cortex_m55/gnu/inc/tx_port.h **** /* Yes, include the user defines in tx_user.h. The defines in this file may
  91:../Middlewares/threadx/ports/cortex_m55/gnu/inc/tx_port.h ****    alternately be defined on the command line.  */
  92:../Middlewares/threadx/ports/cortex_m55/gnu/inc/tx_port.h **** 
  93:../Middlewares/threadx/ports/cortex_m55/gnu/inc/tx_port.h **** #include "tx_user.h"
  94:../Middlewares/threadx/ports/cortex_m55/gnu/inc/tx_port.h **** #endif /* TX_INCLUDE_USER_DEFINE_FILE */
  95:../Middlewares/threadx/ports/cortex_m55/gnu/inc/tx_port.h **** 
  96:../Middlewares/threadx/ports/cortex_m55/gnu/inc/tx_port.h **** /* Define compiler library include files.  */
  97:../Middlewares/threadx/ports/cortex_m55/gnu/inc/tx_port.h **** 
  98:../Middlewares/threadx/ports/cortex_m55/gnu/inc/tx_port.h **** #include <stdlib.h>
  99:../Middlewares/threadx/ports/cortex_m55/gnu/inc/tx_port.h **** #include <string.h>
 100:../Middlewares/threadx/ports/cortex_m55/gnu/inc/tx_port.h **** 
 101:../Middlewares/threadx/ports/cortex_m55/gnu/inc/tx_port.h **** #ifdef __ICCARM__
 102:../Middlewares/threadx/ports/cortex_m55/gnu/inc/tx_port.h **** #include <intrinsics.h>                         /* IAR Intrinsics */
 103:../Middlewares/threadx/ports/cortex_m55/gnu/inc/tx_port.h **** #define __asm__                 __asm           /* Define to make all inline asm from each compiler
 104:../Middlewares/threadx/ports/cortex_m55/gnu/inc/tx_port.h **** #define _tx_control_get         __get_CONTROL
 105:../Middlewares/threadx/ports/cortex_m55/gnu/inc/tx_port.h **** #define _tx_control_set         __set_CONTROL
 106:../Middlewares/threadx/ports/cortex_m55/gnu/inc/tx_port.h **** #define _tx_ipsr_get            __get_IPSR
 107:../Middlewares/threadx/ports/cortex_m55/gnu/inc/tx_port.h **** #ifdef  TX_ENABLE_IAR_LIBRARY_SUPPORT
 108:../Middlewares/threadx/ports/cortex_m55/gnu/inc/tx_port.h **** #include <yvals.h>
 109:../Middlewares/threadx/ports/cortex_m55/gnu/inc/tx_port.h **** #endif /* TX_ENABLE_IAR_LIBRARY_SUPPORT */
 110:../Middlewares/threadx/ports/cortex_m55/gnu/inc/tx_port.h **** #endif /* __ICCARM__ */
 111:../Middlewares/threadx/ports/cortex_m55/gnu/inc/tx_port.h **** 
 112:../Middlewares/threadx/ports/cortex_m55/gnu/inc/tx_port.h **** 
 113:../Middlewares/threadx/ports/cortex_m55/gnu/inc/tx_port.h **** /* Define ThreadX basic types for this port.  */
 114:../Middlewares/threadx/ports/cortex_m55/gnu/inc/tx_port.h **** 
 115:../Middlewares/threadx/ports/cortex_m55/gnu/inc/tx_port.h **** #define VOID                                    void
 116:../Middlewares/threadx/ports/cortex_m55/gnu/inc/tx_port.h **** typedef char                                    CHAR;
 117:../Middlewares/threadx/ports/cortex_m55/gnu/inc/tx_port.h **** typedef unsigned char                           UCHAR;
 118:../Middlewares/threadx/ports/cortex_m55/gnu/inc/tx_port.h **** typedef int                                     INT;
 119:../Middlewares/threadx/ports/cortex_m55/gnu/inc/tx_port.h **** typedef unsigned int                            UINT;
 120:../Middlewares/threadx/ports/cortex_m55/gnu/inc/tx_port.h **** typedef long                                    LONG;
 121:../Middlewares/threadx/ports/cortex_m55/gnu/inc/tx_port.h **** typedef unsigned long                           ULONG;
 122:../Middlewares/threadx/ports/cortex_m55/gnu/inc/tx_port.h **** typedef unsigned long long                      ULONG64;
 123:../Middlewares/threadx/ports/cortex_m55/gnu/inc/tx_port.h **** typedef short                                   SHORT;
 124:../Middlewares/threadx/ports/cortex_m55/gnu/inc/tx_port.h **** typedef unsigned short                          USHORT;
 125:../Middlewares/threadx/ports/cortex_m55/gnu/inc/tx_port.h **** #define ULONG64_DEFINED
 126:../Middlewares/threadx/ports/cortex_m55/gnu/inc/tx_port.h **** 
 127:../Middlewares/threadx/ports/cortex_m55/gnu/inc/tx_port.h **** /* Function prototypes for this port. */
 128:../Middlewares/threadx/ports/cortex_m55/gnu/inc/tx_port.h **** struct  TX_THREAD_STRUCT;
ARM GAS  /tmp/cc3LA3rC.s 			page 9


 129:../Middlewares/threadx/ports/cortex_m55/gnu/inc/tx_port.h **** UINT    _txe_thread_secure_stack_allocate(struct TX_THREAD_STRUCT *thread_ptr, ULONG stack_size);
 130:../Middlewares/threadx/ports/cortex_m55/gnu/inc/tx_port.h **** UINT    _txe_thread_secure_stack_free(struct TX_THREAD_STRUCT *thread_ptr);
 131:../Middlewares/threadx/ports/cortex_m55/gnu/inc/tx_port.h **** UINT    _tx_thread_secure_stack_allocate(struct TX_THREAD_STRUCT *tx_thread, ULONG stack_size);
 132:../Middlewares/threadx/ports/cortex_m55/gnu/inc/tx_port.h **** UINT    _tx_thread_secure_stack_free(struct TX_THREAD_STRUCT *tx_thread);
 133:../Middlewares/threadx/ports/cortex_m55/gnu/inc/tx_port.h **** 
 134:../Middlewares/threadx/ports/cortex_m55/gnu/inc/tx_port.h **** /* Define the system API mappings based on the error checking
 135:../Middlewares/threadx/ports/cortex_m55/gnu/inc/tx_port.h ****    selected by the user.  Note: this section is only applicable to
 136:../Middlewares/threadx/ports/cortex_m55/gnu/inc/tx_port.h ****    application source code, hence the conditional that turns off this
 137:../Middlewares/threadx/ports/cortex_m55/gnu/inc/tx_port.h ****    stuff when the include file is processed by the ThreadX source. */
 138:../Middlewares/threadx/ports/cortex_m55/gnu/inc/tx_port.h **** 
 139:../Middlewares/threadx/ports/cortex_m55/gnu/inc/tx_port.h **** #ifndef TX_SOURCE_CODE
 140:../Middlewares/threadx/ports/cortex_m55/gnu/inc/tx_port.h **** 
 141:../Middlewares/threadx/ports/cortex_m55/gnu/inc/tx_port.h **** 
 142:../Middlewares/threadx/ports/cortex_m55/gnu/inc/tx_port.h **** /* Determine if error checking is desired.  If so, map API functions
 143:../Middlewares/threadx/ports/cortex_m55/gnu/inc/tx_port.h ****    to the appropriate error checking front-ends.  Otherwise, map API
 144:../Middlewares/threadx/ports/cortex_m55/gnu/inc/tx_port.h ****    functions to the core functions that actually perform the work.
 145:../Middlewares/threadx/ports/cortex_m55/gnu/inc/tx_port.h ****    Note: error checking is enabled by default.  */
 146:../Middlewares/threadx/ports/cortex_m55/gnu/inc/tx_port.h **** 
 147:../Middlewares/threadx/ports/cortex_m55/gnu/inc/tx_port.h **** #ifdef TX_DISABLE_ERROR_CHECKING
 148:../Middlewares/threadx/ports/cortex_m55/gnu/inc/tx_port.h **** 
 149:../Middlewares/threadx/ports/cortex_m55/gnu/inc/tx_port.h **** /* Services without error checking.  */
 150:../Middlewares/threadx/ports/cortex_m55/gnu/inc/tx_port.h **** 
 151:../Middlewares/threadx/ports/cortex_m55/gnu/inc/tx_port.h **** #define tx_thread_secure_stack_allocate   _tx_thread_secure_stack_allocate
 152:../Middlewares/threadx/ports/cortex_m55/gnu/inc/tx_port.h **** #define tx_thread_secure_stack_free       _tx_thread_secure_stack_free
 153:../Middlewares/threadx/ports/cortex_m55/gnu/inc/tx_port.h **** 
 154:../Middlewares/threadx/ports/cortex_m55/gnu/inc/tx_port.h **** #else
 155:../Middlewares/threadx/ports/cortex_m55/gnu/inc/tx_port.h **** 
 156:../Middlewares/threadx/ports/cortex_m55/gnu/inc/tx_port.h **** /* Services with error checking.  */
 157:../Middlewares/threadx/ports/cortex_m55/gnu/inc/tx_port.h **** 
 158:../Middlewares/threadx/ports/cortex_m55/gnu/inc/tx_port.h **** #define tx_thread_secure_stack_allocate   _txe_thread_secure_stack_allocate
 159:../Middlewares/threadx/ports/cortex_m55/gnu/inc/tx_port.h **** #define tx_thread_secure_stack_free       _txe_thread_secure_stack_free
 160:../Middlewares/threadx/ports/cortex_m55/gnu/inc/tx_port.h **** 
 161:../Middlewares/threadx/ports/cortex_m55/gnu/inc/tx_port.h **** #endif  /* TX_DISABLE_ERROR_CHECKING */
 162:../Middlewares/threadx/ports/cortex_m55/gnu/inc/tx_port.h **** #endif  /* TX_SOURCE_CODE */
 163:../Middlewares/threadx/ports/cortex_m55/gnu/inc/tx_port.h **** 
 164:../Middlewares/threadx/ports/cortex_m55/gnu/inc/tx_port.h **** /* This port has a usage fault handler in _tx_initialize_low_level for stack exceptions.  */
 165:../Middlewares/threadx/ports/cortex_m55/gnu/inc/tx_port.h **** #define TX_PORT_THREAD_STACK_ERROR_HANDLING
 166:../Middlewares/threadx/ports/cortex_m55/gnu/inc/tx_port.h **** 
 167:../Middlewares/threadx/ports/cortex_m55/gnu/inc/tx_port.h **** /* Define the priority levels for ThreadX.  Legal values range
 168:../Middlewares/threadx/ports/cortex_m55/gnu/inc/tx_port.h ****    from 32 to 1024 and MUST be evenly divisible by 32.  */
 169:../Middlewares/threadx/ports/cortex_m55/gnu/inc/tx_port.h **** 
 170:../Middlewares/threadx/ports/cortex_m55/gnu/inc/tx_port.h **** #ifndef TX_MAX_PRIORITIES
 171:../Middlewares/threadx/ports/cortex_m55/gnu/inc/tx_port.h **** #define TX_MAX_PRIORITIES                       32
 172:../Middlewares/threadx/ports/cortex_m55/gnu/inc/tx_port.h **** #endif
 173:../Middlewares/threadx/ports/cortex_m55/gnu/inc/tx_port.h **** 
 174:../Middlewares/threadx/ports/cortex_m55/gnu/inc/tx_port.h **** 
 175:../Middlewares/threadx/ports/cortex_m55/gnu/inc/tx_port.h **** /* Define the minimum stack for a ThreadX thread on this processor. If the size supplied during
 176:../Middlewares/threadx/ports/cortex_m55/gnu/inc/tx_port.h ****    thread creation is less than this value, the thread create call will return an error.  */
 177:../Middlewares/threadx/ports/cortex_m55/gnu/inc/tx_port.h **** 
 178:../Middlewares/threadx/ports/cortex_m55/gnu/inc/tx_port.h **** #ifndef TX_MINIMUM_STACK
 179:../Middlewares/threadx/ports/cortex_m55/gnu/inc/tx_port.h **** #define TX_MINIMUM_STACK                        200         /* Minimum stack size for this port  */
 180:../Middlewares/threadx/ports/cortex_m55/gnu/inc/tx_port.h **** #endif
 181:../Middlewares/threadx/ports/cortex_m55/gnu/inc/tx_port.h **** 
 182:../Middlewares/threadx/ports/cortex_m55/gnu/inc/tx_port.h **** 
 183:../Middlewares/threadx/ports/cortex_m55/gnu/inc/tx_port.h **** /* Define the system timer thread's default stack size and priority.  These are only applicable
 184:../Middlewares/threadx/ports/cortex_m55/gnu/inc/tx_port.h ****    if TX_TIMER_PROCESS_IN_ISR is not defined.  */
 185:../Middlewares/threadx/ports/cortex_m55/gnu/inc/tx_port.h **** 
ARM GAS  /tmp/cc3LA3rC.s 			page 10


 186:../Middlewares/threadx/ports/cortex_m55/gnu/inc/tx_port.h **** #ifndef TX_TIMER_THREAD_STACK_SIZE
 187:../Middlewares/threadx/ports/cortex_m55/gnu/inc/tx_port.h **** #define TX_TIMER_THREAD_STACK_SIZE              1024        /* Default timer thread stack size  */
 188:../Middlewares/threadx/ports/cortex_m55/gnu/inc/tx_port.h **** #endif
 189:../Middlewares/threadx/ports/cortex_m55/gnu/inc/tx_port.h **** 
 190:../Middlewares/threadx/ports/cortex_m55/gnu/inc/tx_port.h **** #ifndef TX_TIMER_THREAD_PRIORITY
 191:../Middlewares/threadx/ports/cortex_m55/gnu/inc/tx_port.h **** #define TX_TIMER_THREAD_PRIORITY                0           /* Default timer thread priority    */
 192:../Middlewares/threadx/ports/cortex_m55/gnu/inc/tx_port.h **** #endif
 193:../Middlewares/threadx/ports/cortex_m55/gnu/inc/tx_port.h **** 
 194:../Middlewares/threadx/ports/cortex_m55/gnu/inc/tx_port.h **** /* By default, ThreadX for Cortex-M uses the PRIMASK register to enable/disable interrupts.
 195:../Middlewares/threadx/ports/cortex_m55/gnu/inc/tx_port.h **** If using BASEPRI is desired, define the following two symbols for both c and assembly files:
 196:../Middlewares/threadx/ports/cortex_m55/gnu/inc/tx_port.h **** TX_PORT_USE_BASEPRI - This tells ThreadX to use BASEPRI instead of PRIMASK.
 197:../Middlewares/threadx/ports/cortex_m55/gnu/inc/tx_port.h **** TX_PORT_BASEPRI = (priority_mask << (8 - number_priority_bits)) - this defines the maximum priority
 198:../Middlewares/threadx/ports/cortex_m55/gnu/inc/tx_port.h **** Any interrupt with a higher priority than priority_mask will not be masked, thus the interrupt will
 199:../Middlewares/threadx/ports/cortex_m55/gnu/inc/tx_port.h **** */
 200:../Middlewares/threadx/ports/cortex_m55/gnu/inc/tx_port.h **** 
 201:../Middlewares/threadx/ports/cortex_m55/gnu/inc/tx_port.h **** /* Define various constants for the ThreadX Cortex-M port.  */
 202:../Middlewares/threadx/ports/cortex_m55/gnu/inc/tx_port.h **** 
 203:../Middlewares/threadx/ports/cortex_m55/gnu/inc/tx_port.h **** #define TX_INT_DISABLE                          1           /* Disable interrupts               */
 204:../Middlewares/threadx/ports/cortex_m55/gnu/inc/tx_port.h **** #define TX_INT_ENABLE                           0           /* Enable interrupts                */
 205:../Middlewares/threadx/ports/cortex_m55/gnu/inc/tx_port.h **** 
 206:../Middlewares/threadx/ports/cortex_m55/gnu/inc/tx_port.h **** 
 207:../Middlewares/threadx/ports/cortex_m55/gnu/inc/tx_port.h **** /* Define the clock source for trace event entry time stamp. The following two item are port specif
 208:../Middlewares/threadx/ports/cortex_m55/gnu/inc/tx_port.h ****    For example, if the time source is at the address 0x0a800024 and is 16-bits in size, the clock
 209:../Middlewares/threadx/ports/cortex_m55/gnu/inc/tx_port.h ****    source constants would be:
 210:../Middlewares/threadx/ports/cortex_m55/gnu/inc/tx_port.h **** 
 211:../Middlewares/threadx/ports/cortex_m55/gnu/inc/tx_port.h **** #define TX_TRACE_TIME_SOURCE                    *((volatile ULONG *) 0x0a800024)
 212:../Middlewares/threadx/ports/cortex_m55/gnu/inc/tx_port.h **** #define TX_TRACE_TIME_MASK                      0x0000FFFFUL
 213:../Middlewares/threadx/ports/cortex_m55/gnu/inc/tx_port.h **** 
 214:../Middlewares/threadx/ports/cortex_m55/gnu/inc/tx_port.h **** */
 215:../Middlewares/threadx/ports/cortex_m55/gnu/inc/tx_port.h **** 
 216:../Middlewares/threadx/ports/cortex_m55/gnu/inc/tx_port.h **** #ifndef TX_MISRA_ENABLE
 217:../Middlewares/threadx/ports/cortex_m55/gnu/inc/tx_port.h **** #ifndef TX_TRACE_TIME_SOURCE
 218:../Middlewares/threadx/ports/cortex_m55/gnu/inc/tx_port.h **** #define TX_TRACE_TIME_SOURCE                    *((volatile ULONG *) 0xE0001004)
 219:../Middlewares/threadx/ports/cortex_m55/gnu/inc/tx_port.h **** #endif
 220:../Middlewares/threadx/ports/cortex_m55/gnu/inc/tx_port.h **** #else
 221:../Middlewares/threadx/ports/cortex_m55/gnu/inc/tx_port.h **** ULONG   _tx_misra_time_stamp_get(VOID);
 222:../Middlewares/threadx/ports/cortex_m55/gnu/inc/tx_port.h **** #define TX_TRACE_TIME_SOURCE                    _tx_misra_time_stamp_get()
 223:../Middlewares/threadx/ports/cortex_m55/gnu/inc/tx_port.h **** #endif
 224:../Middlewares/threadx/ports/cortex_m55/gnu/inc/tx_port.h **** 
 225:../Middlewares/threadx/ports/cortex_m55/gnu/inc/tx_port.h **** #ifndef TX_TRACE_TIME_MASK
 226:../Middlewares/threadx/ports/cortex_m55/gnu/inc/tx_port.h **** #define TX_TRACE_TIME_MASK                      0xFFFFFFFFUL
 227:../Middlewares/threadx/ports/cortex_m55/gnu/inc/tx_port.h **** #endif
 228:../Middlewares/threadx/ports/cortex_m55/gnu/inc/tx_port.h **** 
 229:../Middlewares/threadx/ports/cortex_m55/gnu/inc/tx_port.h **** 
 230:../Middlewares/threadx/ports/cortex_m55/gnu/inc/tx_port.h **** /* Define the port specific options for the _tx_build_options variable. This variable indicates
 231:../Middlewares/threadx/ports/cortex_m55/gnu/inc/tx_port.h ****    how the ThreadX library was built.  */
 232:../Middlewares/threadx/ports/cortex_m55/gnu/inc/tx_port.h **** 
 233:../Middlewares/threadx/ports/cortex_m55/gnu/inc/tx_port.h **** #define TX_PORT_SPECIFIC_BUILD_OPTIONS          (0)
 234:../Middlewares/threadx/ports/cortex_m55/gnu/inc/tx_port.h **** 
 235:../Middlewares/threadx/ports/cortex_m55/gnu/inc/tx_port.h **** 
 236:../Middlewares/threadx/ports/cortex_m55/gnu/inc/tx_port.h **** /* Define the in-line initialization constant so that modules with in-line
 237:../Middlewares/threadx/ports/cortex_m55/gnu/inc/tx_port.h ****    initialization capabilities can prevent their initialization from being
 238:../Middlewares/threadx/ports/cortex_m55/gnu/inc/tx_port.h ****    a function call.  */
 239:../Middlewares/threadx/ports/cortex_m55/gnu/inc/tx_port.h **** 
 240:../Middlewares/threadx/ports/cortex_m55/gnu/inc/tx_port.h **** #ifdef TX_MISRA_ENABLE
 241:../Middlewares/threadx/ports/cortex_m55/gnu/inc/tx_port.h **** #define TX_DISABLE_INLINE
 242:../Middlewares/threadx/ports/cortex_m55/gnu/inc/tx_port.h **** #else
ARM GAS  /tmp/cc3LA3rC.s 			page 11


 243:../Middlewares/threadx/ports/cortex_m55/gnu/inc/tx_port.h **** #define TX_INLINE_INITIALIZATION
 244:../Middlewares/threadx/ports/cortex_m55/gnu/inc/tx_port.h **** #endif
 245:../Middlewares/threadx/ports/cortex_m55/gnu/inc/tx_port.h **** 
 246:../Middlewares/threadx/ports/cortex_m55/gnu/inc/tx_port.h **** 
 247:../Middlewares/threadx/ports/cortex_m55/gnu/inc/tx_port.h **** /* Determine whether or not stack checking is enabled. By default, ThreadX stack checking is
 248:../Middlewares/threadx/ports/cortex_m55/gnu/inc/tx_port.h ****    disabled. When the following is defined, ThreadX thread stack checking is enabled.  If stack
 249:../Middlewares/threadx/ports/cortex_m55/gnu/inc/tx_port.h ****    checking is enabled (TX_ENABLE_STACK_CHECKING is defined), the TX_DISABLE_STACK_FILLING
 250:../Middlewares/threadx/ports/cortex_m55/gnu/inc/tx_port.h ****    define is negated, thereby forcing the stack fill which is necessary for the stack checking
 251:../Middlewares/threadx/ports/cortex_m55/gnu/inc/tx_port.h ****    logic.  */
 252:../Middlewares/threadx/ports/cortex_m55/gnu/inc/tx_port.h **** 
 253:../Middlewares/threadx/ports/cortex_m55/gnu/inc/tx_port.h **** #ifndef TX_MISRA_ENABLE
 254:../Middlewares/threadx/ports/cortex_m55/gnu/inc/tx_port.h **** #ifdef TX_ENABLE_STACK_CHECKING
 255:../Middlewares/threadx/ports/cortex_m55/gnu/inc/tx_port.h **** #undef TX_DISABLE_STACK_FILLING
 256:../Middlewares/threadx/ports/cortex_m55/gnu/inc/tx_port.h **** #endif
 257:../Middlewares/threadx/ports/cortex_m55/gnu/inc/tx_port.h **** #endif
 258:../Middlewares/threadx/ports/cortex_m55/gnu/inc/tx_port.h **** 
 259:../Middlewares/threadx/ports/cortex_m55/gnu/inc/tx_port.h **** 
 260:../Middlewares/threadx/ports/cortex_m55/gnu/inc/tx_port.h **** /* Define the TX_THREAD control block extensions for this port. The main reason
 261:../Middlewares/threadx/ports/cortex_m55/gnu/inc/tx_port.h ****    for the multiple macros is so that backward compatibility can be maintained with
 262:../Middlewares/threadx/ports/cortex_m55/gnu/inc/tx_port.h ****    existing ThreadX kernel awareness modules.  */
 263:../Middlewares/threadx/ports/cortex_m55/gnu/inc/tx_port.h **** 
 264:../Middlewares/threadx/ports/cortex_m55/gnu/inc/tx_port.h **** #define TX_THREAD_EXTENSION_0
 265:../Middlewares/threadx/ports/cortex_m55/gnu/inc/tx_port.h **** #define TX_THREAD_EXTENSION_1
 266:../Middlewares/threadx/ports/cortex_m55/gnu/inc/tx_port.h **** 
 267:../Middlewares/threadx/ports/cortex_m55/gnu/inc/tx_port.h **** #ifdef  TX_ENABLE_IAR_LIBRARY_SUPPORT
 268:../Middlewares/threadx/ports/cortex_m55/gnu/inc/tx_port.h **** /* IAR library support */
 269:../Middlewares/threadx/ports/cortex_m55/gnu/inc/tx_port.h **** #if !defined(TX_SINGLE_MODE_SECURE) && !defined(TX_SINGLE_MODE_NON_SECURE)
 270:../Middlewares/threadx/ports/cortex_m55/gnu/inc/tx_port.h **** /* ThreadX in non-secure zone with calls to secure zone. */
 271:../Middlewares/threadx/ports/cortex_m55/gnu/inc/tx_port.h **** #define TX_THREAD_EXTENSION_2           VOID    *tx_thread_secure_stack_context;    \
 272:../Middlewares/threadx/ports/cortex_m55/gnu/inc/tx_port.h ****                                         VOID    *tx_thread_iar_tls_pointer;
 273:../Middlewares/threadx/ports/cortex_m55/gnu/inc/tx_port.h **** #else
 274:../Middlewares/threadx/ports/cortex_m55/gnu/inc/tx_port.h **** /* ThreadX in only one zone. */
 275:../Middlewares/threadx/ports/cortex_m55/gnu/inc/tx_port.h **** #define TX_THREAD_EXTENSION_2           VOID    *tx_thread_iar_tls_pointer;
 276:../Middlewares/threadx/ports/cortex_m55/gnu/inc/tx_port.h **** #endif
 277:../Middlewares/threadx/ports/cortex_m55/gnu/inc/tx_port.h **** 
 278:../Middlewares/threadx/ports/cortex_m55/gnu/inc/tx_port.h **** #else
 279:../Middlewares/threadx/ports/cortex_m55/gnu/inc/tx_port.h **** /* No IAR library support */
 280:../Middlewares/threadx/ports/cortex_m55/gnu/inc/tx_port.h **** #if !defined(TX_SINGLE_MODE_SECURE) && !defined(TX_SINGLE_MODE_NON_SECURE)
 281:../Middlewares/threadx/ports/cortex_m55/gnu/inc/tx_port.h **** /* ThreadX in non-secure zone with calls to secure zone. */
 282:../Middlewares/threadx/ports/cortex_m55/gnu/inc/tx_port.h **** #define TX_THREAD_EXTENSION_2           VOID    *tx_thread_secure_stack_context;
 283:../Middlewares/threadx/ports/cortex_m55/gnu/inc/tx_port.h **** #else
 284:../Middlewares/threadx/ports/cortex_m55/gnu/inc/tx_port.h **** /* ThreadX in only one zone. */
 285:../Middlewares/threadx/ports/cortex_m55/gnu/inc/tx_port.h **** #define TX_THREAD_EXTENSION_2
 286:../Middlewares/threadx/ports/cortex_m55/gnu/inc/tx_port.h **** #endif
 287:../Middlewares/threadx/ports/cortex_m55/gnu/inc/tx_port.h **** 
 288:../Middlewares/threadx/ports/cortex_m55/gnu/inc/tx_port.h **** #endif  /* TX_ENABLE_IAR_LIBRARY_SUPPORT */
 289:../Middlewares/threadx/ports/cortex_m55/gnu/inc/tx_port.h **** 
 290:../Middlewares/threadx/ports/cortex_m55/gnu/inc/tx_port.h **** #define TX_THREAD_EXTENSION_3
 291:../Middlewares/threadx/ports/cortex_m55/gnu/inc/tx_port.h **** 
 292:../Middlewares/threadx/ports/cortex_m55/gnu/inc/tx_port.h **** 
 293:../Middlewares/threadx/ports/cortex_m55/gnu/inc/tx_port.h **** /* Define the port extensions of the remaining ThreadX objects.  */
 294:../Middlewares/threadx/ports/cortex_m55/gnu/inc/tx_port.h **** 
 295:../Middlewares/threadx/ports/cortex_m55/gnu/inc/tx_port.h **** #define TX_BLOCK_POOL_EXTENSION
 296:../Middlewares/threadx/ports/cortex_m55/gnu/inc/tx_port.h **** #define TX_BYTE_POOL_EXTENSION
 297:../Middlewares/threadx/ports/cortex_m55/gnu/inc/tx_port.h **** #define TX_EVENT_FLAGS_GROUP_EXTENSION
 298:../Middlewares/threadx/ports/cortex_m55/gnu/inc/tx_port.h **** #define TX_MUTEX_EXTENSION
 299:../Middlewares/threadx/ports/cortex_m55/gnu/inc/tx_port.h **** #define TX_QUEUE_EXTENSION
ARM GAS  /tmp/cc3LA3rC.s 			page 12


 300:../Middlewares/threadx/ports/cortex_m55/gnu/inc/tx_port.h **** #define TX_SEMAPHORE_EXTENSION
 301:../Middlewares/threadx/ports/cortex_m55/gnu/inc/tx_port.h **** #define TX_TIMER_EXTENSION
 302:../Middlewares/threadx/ports/cortex_m55/gnu/inc/tx_port.h **** 
 303:../Middlewares/threadx/ports/cortex_m55/gnu/inc/tx_port.h **** 
 304:../Middlewares/threadx/ports/cortex_m55/gnu/inc/tx_port.h **** /* Define the user extension field of the thread control block.  Nothing
 305:../Middlewares/threadx/ports/cortex_m55/gnu/inc/tx_port.h ****    additional is needed for this port so it is defined as white space.  */
 306:../Middlewares/threadx/ports/cortex_m55/gnu/inc/tx_port.h **** 
 307:../Middlewares/threadx/ports/cortex_m55/gnu/inc/tx_port.h **** #ifndef TX_THREAD_USER_EXTENSION
 308:../Middlewares/threadx/ports/cortex_m55/gnu/inc/tx_port.h **** #define TX_THREAD_USER_EXTENSION
 309:../Middlewares/threadx/ports/cortex_m55/gnu/inc/tx_port.h **** #endif
 310:../Middlewares/threadx/ports/cortex_m55/gnu/inc/tx_port.h **** 
 311:../Middlewares/threadx/ports/cortex_m55/gnu/inc/tx_port.h **** 
 312:../Middlewares/threadx/ports/cortex_m55/gnu/inc/tx_port.h **** /* Define the macros for processing extensions in tx_thread_create, tx_thread_delete,
 313:../Middlewares/threadx/ports/cortex_m55/gnu/inc/tx_port.h ****    tx_thread_shell_entry, and tx_thread_terminate.  */
 314:../Middlewares/threadx/ports/cortex_m55/gnu/inc/tx_port.h **** #ifdef  TX_ENABLE_IAR_LIBRARY_SUPPORT
 315:../Middlewares/threadx/ports/cortex_m55/gnu/inc/tx_port.h **** void    *_tx_iar_create_per_thread_tls_area(void);
 316:../Middlewares/threadx/ports/cortex_m55/gnu/inc/tx_port.h **** void    _tx_iar_destroy_per_thread_tls_area(void *tls_ptr);
 317:../Middlewares/threadx/ports/cortex_m55/gnu/inc/tx_port.h **** void    __iar_Initlocks(void);
 318:../Middlewares/threadx/ports/cortex_m55/gnu/inc/tx_port.h **** #define TX_THREAD_CREATE_EXTENSION(thread_ptr)                      thread_ptr -> tx_thread_iar_tls
 319:../Middlewares/threadx/ports/cortex_m55/gnu/inc/tx_port.h **** 
 320:../Middlewares/threadx/ports/cortex_m55/gnu/inc/tx_port.h **** #if !defined(TX_SINGLE_MODE_SECURE) && !defined(TX_SINGLE_MODE_NON_SECURE)
 321:../Middlewares/threadx/ports/cortex_m55/gnu/inc/tx_port.h **** #define TX_THREAD_DELETE_EXTENSION(thread_ptr)                      do {_tx_iar_destroy_per_thread_
 322:../Middlewares/threadx/ports/cortex_m55/gnu/inc/tx_port.h ****                                                                         thread_ptr -> tx_thread_iar
 323:../Middlewares/threadx/ports/cortex_m55/gnu/inc/tx_port.h ****                                                                     if(thread_ptr -> tx_thread_secu
 324:../Middlewares/threadx/ports/cortex_m55/gnu/inc/tx_port.h **** #else
 325:../Middlewares/threadx/ports/cortex_m55/gnu/inc/tx_port.h **** #define TX_THREAD_DELETE_EXTENSION(thread_ptr)                      do {_tx_iar_destroy_per_thread_
 326:../Middlewares/threadx/ports/cortex_m55/gnu/inc/tx_port.h ****                                                                         thread_ptr -> tx_thread_iar
 327:../Middlewares/threadx/ports/cortex_m55/gnu/inc/tx_port.h **** #endif
 328:../Middlewares/threadx/ports/cortex_m55/gnu/inc/tx_port.h **** #define TX_PORT_SPECIFIC_PRE_SCHEDULER_INITIALIZATION               do {__iar_Initlocks();} while(0
 329:../Middlewares/threadx/ports/cortex_m55/gnu/inc/tx_port.h **** 
 330:../Middlewares/threadx/ports/cortex_m55/gnu/inc/tx_port.h **** #else   /* No IAR library support. */
 331:../Middlewares/threadx/ports/cortex_m55/gnu/inc/tx_port.h **** #define TX_THREAD_CREATE_EXTENSION(thread_ptr)
 332:../Middlewares/threadx/ports/cortex_m55/gnu/inc/tx_port.h **** #if !defined(TX_SINGLE_MODE_SECURE) && !defined(TX_SINGLE_MODE_NON_SECURE)
 333:../Middlewares/threadx/ports/cortex_m55/gnu/inc/tx_port.h **** #define TX_THREAD_DELETE_EXTENSION(thread_ptr)                      if(thread_ptr -> tx_thread_secu
 334:../Middlewares/threadx/ports/cortex_m55/gnu/inc/tx_port.h **** #else
 335:../Middlewares/threadx/ports/cortex_m55/gnu/inc/tx_port.h **** #define TX_THREAD_DELETE_EXTENSION(thread_ptr)
 336:../Middlewares/threadx/ports/cortex_m55/gnu/inc/tx_port.h **** #endif
 337:../Middlewares/threadx/ports/cortex_m55/gnu/inc/tx_port.h **** #endif  /* TX_ENABLE_IAR_LIBRARY_SUPPORT */
 338:../Middlewares/threadx/ports/cortex_m55/gnu/inc/tx_port.h **** 
 339:../Middlewares/threadx/ports/cortex_m55/gnu/inc/tx_port.h **** #if !defined(TX_SINGLE_MODE_SECURE) && !defined(TX_SINGLE_MODE_NON_SECURE)
 340:../Middlewares/threadx/ports/cortex_m55/gnu/inc/tx_port.h **** /* Define the size of the secure stack for the timer thread and use the extension to allocate the s
 341:../Middlewares/threadx/ports/cortex_m55/gnu/inc/tx_port.h **** #define TX_TIMER_THREAD_SECURE_STACK_SIZE       256
 342:../Middlewares/threadx/ports/cortex_m55/gnu/inc/tx_port.h **** #define TX_TIMER_INITIALIZE_EXTENSION(status)   _tx_thread_secure_stack_allocate(&_tx_timer_thread,
 343:../Middlewares/threadx/ports/cortex_m55/gnu/inc/tx_port.h **** #endif
 344:../Middlewares/threadx/ports/cortex_m55/gnu/inc/tx_port.h **** 
 345:../Middlewares/threadx/ports/cortex_m55/gnu/inc/tx_port.h **** 
 346:../Middlewares/threadx/ports/cortex_m55/gnu/inc/tx_port.h **** #if defined(__ARMVFP__) || defined(__ARM_PCS_VFP) || defined(__ARM_FP) || defined(__TARGET_FPU_VFP)
 347:../Middlewares/threadx/ports/cortex_m55/gnu/inc/tx_port.h **** 
 348:../Middlewares/threadx/ports/cortex_m55/gnu/inc/tx_port.h **** #ifdef TX_MISRA_ENABLE
 349:../Middlewares/threadx/ports/cortex_m55/gnu/inc/tx_port.h **** 
 350:../Middlewares/threadx/ports/cortex_m55/gnu/inc/tx_port.h **** ULONG  _tx_misra_control_get(void);
 351:../Middlewares/threadx/ports/cortex_m55/gnu/inc/tx_port.h **** void   _tx_misra_control_set(ULONG value);
 352:../Middlewares/threadx/ports/cortex_m55/gnu/inc/tx_port.h **** ULONG  _tx_misra_fpccr_get(void);
 353:../Middlewares/threadx/ports/cortex_m55/gnu/inc/tx_port.h **** void   _tx_misra_vfp_touch(void);
 354:../Middlewares/threadx/ports/cortex_m55/gnu/inc/tx_port.h **** 
 355:../Middlewares/threadx/ports/cortex_m55/gnu/inc/tx_port.h **** #else   /* TX_MISRA_ENABLE not defined */
 356:../Middlewares/threadx/ports/cortex_m55/gnu/inc/tx_port.h **** 
ARM GAS  /tmp/cc3LA3rC.s 			page 13


 357:../Middlewares/threadx/ports/cortex_m55/gnu/inc/tx_port.h **** #ifdef __GNUC__ /* GCC and ARM Compiler 6 */
 358:../Middlewares/threadx/ports/cortex_m55/gnu/inc/tx_port.h **** 
 359:../Middlewares/threadx/ports/cortex_m55/gnu/inc/tx_port.h **** __attribute__( ( always_inline ) ) static inline ULONG _tx_control_get(void)
 360:../Middlewares/threadx/ports/cortex_m55/gnu/inc/tx_port.h **** {
 361:../Middlewares/threadx/ports/cortex_m55/gnu/inc/tx_port.h **** ULONG  control_value;
 362:../Middlewares/threadx/ports/cortex_m55/gnu/inc/tx_port.h **** 
 363:../Middlewares/threadx/ports/cortex_m55/gnu/inc/tx_port.h ****     __asm__ volatile (" MRS  %0,CONTROL ": "=r" (control_value) );
 364:../Middlewares/threadx/ports/cortex_m55/gnu/inc/tx_port.h ****     return(control_value);
 365:../Middlewares/threadx/ports/cortex_m55/gnu/inc/tx_port.h **** }
 366:../Middlewares/threadx/ports/cortex_m55/gnu/inc/tx_port.h **** 
 367:../Middlewares/threadx/ports/cortex_m55/gnu/inc/tx_port.h **** __attribute__( ( always_inline ) ) static inline void _tx_control_set(ULONG control_value)
 368:../Middlewares/threadx/ports/cortex_m55/gnu/inc/tx_port.h **** {
 369:../Middlewares/threadx/ports/cortex_m55/gnu/inc/tx_port.h ****     __asm__ volatile (" MSR  CONTROL,%0": : "r" (control_value): "memory" );
 370:../Middlewares/threadx/ports/cortex_m55/gnu/inc/tx_port.h **** }
 371:../Middlewares/threadx/ports/cortex_m55/gnu/inc/tx_port.h **** 
 372:../Middlewares/threadx/ports/cortex_m55/gnu/inc/tx_port.h **** #endif  /* __GNUC__ */
 373:../Middlewares/threadx/ports/cortex_m55/gnu/inc/tx_port.h **** 
 374:../Middlewares/threadx/ports/cortex_m55/gnu/inc/tx_port.h **** /* Touch VFP register in order to flush. Works for AC6/GCC/IAR compilers. */
 375:../Middlewares/threadx/ports/cortex_m55/gnu/inc/tx_port.h **** #define TX_VFP_TOUCH()  __asm__ volatile ("VMOV.F32 s0, s0");
 376:../Middlewares/threadx/ports/cortex_m55/gnu/inc/tx_port.h **** 
 377:../Middlewares/threadx/ports/cortex_m55/gnu/inc/tx_port.h **** #endif  /* TX_MISRA_ENABLE */
 378:../Middlewares/threadx/ports/cortex_m55/gnu/inc/tx_port.h **** 
 379:../Middlewares/threadx/ports/cortex_m55/gnu/inc/tx_port.h **** /* A completed thread falls into _thread_shell_entry and we can simply deactivate the FPU via CONTR
 380:../Middlewares/threadx/ports/cortex_m55/gnu/inc/tx_port.h ****    in order to ensure no lazy stacking will occur. */
 381:../Middlewares/threadx/ports/cortex_m55/gnu/inc/tx_port.h **** 
 382:../Middlewares/threadx/ports/cortex_m55/gnu/inc/tx_port.h **** #ifndef TX_MISRA_ENABLE
 383:../Middlewares/threadx/ports/cortex_m55/gnu/inc/tx_port.h **** 
 384:../Middlewares/threadx/ports/cortex_m55/gnu/inc/tx_port.h **** #define TX_THREAD_COMPLETED_EXTENSION(thread_ptr)   {                                              
 385:../Middlewares/threadx/ports/cortex_m55/gnu/inc/tx_port.h ****                                                     ULONG  _tx_vfp_state;                          
 386:../Middlewares/threadx/ports/cortex_m55/gnu/inc/tx_port.h ****                                                         _tx_vfp_state = _tx_control_get();         
 387:../Middlewares/threadx/ports/cortex_m55/gnu/inc/tx_port.h ****                                                         _tx_vfp_state = _tx_vfp_state & ~((ULONG) 0
 388:../Middlewares/threadx/ports/cortex_m55/gnu/inc/tx_port.h ****                                                         _tx_control_set(_tx_vfp_state);            
 389:../Middlewares/threadx/ports/cortex_m55/gnu/inc/tx_port.h ****                                                     }
 390:../Middlewares/threadx/ports/cortex_m55/gnu/inc/tx_port.h **** #else
 391:../Middlewares/threadx/ports/cortex_m55/gnu/inc/tx_port.h **** 
 392:../Middlewares/threadx/ports/cortex_m55/gnu/inc/tx_port.h **** #define TX_THREAD_COMPLETED_EXTENSION(thread_ptr)   {                                              
 393:../Middlewares/threadx/ports/cortex_m55/gnu/inc/tx_port.h ****                                                     ULONG  _tx_vfp_state;                          
 394:../Middlewares/threadx/ports/cortex_m55/gnu/inc/tx_port.h ****                                                         _tx_vfp_state = _tx_misra_control_get();   
 395:../Middlewares/threadx/ports/cortex_m55/gnu/inc/tx_port.h ****                                                         _tx_vfp_state = _tx_vfp_state & ~((ULONG) 0
 396:../Middlewares/threadx/ports/cortex_m55/gnu/inc/tx_port.h ****                                                         _tx_misra_control_set(_tx_vfp_state);      
 397:../Middlewares/threadx/ports/cortex_m55/gnu/inc/tx_port.h ****                                                     }
 398:../Middlewares/threadx/ports/cortex_m55/gnu/inc/tx_port.h **** #endif
 399:../Middlewares/threadx/ports/cortex_m55/gnu/inc/tx_port.h **** 
 400:../Middlewares/threadx/ports/cortex_m55/gnu/inc/tx_port.h **** /* A thread can be terminated by another thread, so we first check if it's self-terminating and not
 401:../Middlewares/threadx/ports/cortex_m55/gnu/inc/tx_port.h ****    If so, deactivate the FPU via CONTROL.FPCA. Otherwise we are in an interrupt or another thread i
 402:../Middlewares/threadx/ports/cortex_m55/gnu/inc/tx_port.h ****    this one, so if the FPCCR.LSPACT bit is set, we need to save the CONTROL.FPCA state, touch the F
 403:../Middlewares/threadx/ports/cortex_m55/gnu/inc/tx_port.h ****    the lazy FPU save, then restore the CONTROL.FPCA state. */
 404:../Middlewares/threadx/ports/cortex_m55/gnu/inc/tx_port.h **** 
 405:../Middlewares/threadx/ports/cortex_m55/gnu/inc/tx_port.h **** #ifndef TX_MISRA_ENABLE
 406:../Middlewares/threadx/ports/cortex_m55/gnu/inc/tx_port.h **** 
 407:../Middlewares/threadx/ports/cortex_m55/gnu/inc/tx_port.h **** #define TX_THREAD_TERMINATED_EXTENSION(thread_ptr)  {                                              
 408:../Middlewares/threadx/ports/cortex_m55/gnu/inc/tx_port.h ****                                                     ULONG  _tx_system_state;                       
 409:../Middlewares/threadx/ports/cortex_m55/gnu/inc/tx_port.h ****                                                         _tx_system_state = TX_THREAD_GET_SYSTEM_STA
 410:../Middlewares/threadx/ports/cortex_m55/gnu/inc/tx_port.h ****                                                         if ((_tx_system_state == ((ULONG) 0)) && ((
 411:../Middlewares/threadx/ports/cortex_m55/gnu/inc/tx_port.h ****                                                         {                                          
 412:../Middlewares/threadx/ports/cortex_m55/gnu/inc/tx_port.h ****                                                         ULONG  _tx_vfp_state;                      
 413:../Middlewares/threadx/ports/cortex_m55/gnu/inc/tx_port.h ****                                                             _tx_vfp_state = _tx_control_get();     
ARM GAS  /tmp/cc3LA3rC.s 			page 14


 414:../Middlewares/threadx/ports/cortex_m55/gnu/inc/tx_port.h ****                                                             _tx_vfp_state = _tx_vfp_state & ~((ULON
 415:../Middlewares/threadx/ports/cortex_m55/gnu/inc/tx_port.h ****                                                             _tx_control_set(_tx_vfp_state);        
 416:../Middlewares/threadx/ports/cortex_m55/gnu/inc/tx_port.h ****                                                         }                                          
 417:../Middlewares/threadx/ports/cortex_m55/gnu/inc/tx_port.h ****                                                         else                                       
 418:../Middlewares/threadx/ports/cortex_m55/gnu/inc/tx_port.h ****                                                         {                                          
 419:../Middlewares/threadx/ports/cortex_m55/gnu/inc/tx_port.h ****                                                         ULONG  _tx_fpccr;                          
 420:../Middlewares/threadx/ports/cortex_m55/gnu/inc/tx_port.h ****                                                             _tx_fpccr = *((volatile ULONG *) 0xE000
 421:../Middlewares/threadx/ports/cortex_m55/gnu/inc/tx_port.h ****                                                             _tx_fpccr = _tx_fpccr & ((ULONG) 0x01);
 422:../Middlewares/threadx/ports/cortex_m55/gnu/inc/tx_port.h ****                                                             if (_tx_fpccr == ((ULONG) 0x01))       
 423:../Middlewares/threadx/ports/cortex_m55/gnu/inc/tx_port.h ****                                                             {                                      
 424:../Middlewares/threadx/ports/cortex_m55/gnu/inc/tx_port.h ****                                                             ULONG _tx_vfp_state;                   
 425:../Middlewares/threadx/ports/cortex_m55/gnu/inc/tx_port.h ****                                                                 _tx_vfp_state = _tx_control_get(); 
 426:../Middlewares/threadx/ports/cortex_m55/gnu/inc/tx_port.h ****                                                                 _tx_vfp_state = _tx_vfp_state & ((U
 427:../Middlewares/threadx/ports/cortex_m55/gnu/inc/tx_port.h ****                                                                 TX_VFP_TOUCH();                    
 428:../Middlewares/threadx/ports/cortex_m55/gnu/inc/tx_port.h ****                                                                 if (_tx_vfp_state == ((ULONG) 0))  
 429:../Middlewares/threadx/ports/cortex_m55/gnu/inc/tx_port.h ****                                                                 {                                  
 430:../Middlewares/threadx/ports/cortex_m55/gnu/inc/tx_port.h ****                                                                     _tx_vfp_state = _tx_control_get
 431:../Middlewares/threadx/ports/cortex_m55/gnu/inc/tx_port.h ****                                                                     _tx_vfp_state = _tx_vfp_state &
 432:../Middlewares/threadx/ports/cortex_m55/gnu/inc/tx_port.h ****                                                                     _tx_control_set(_tx_vfp_state);
 433:../Middlewares/threadx/ports/cortex_m55/gnu/inc/tx_port.h ****                                                                 }                                  
 434:../Middlewares/threadx/ports/cortex_m55/gnu/inc/tx_port.h ****                                                             }                                      
 435:../Middlewares/threadx/ports/cortex_m55/gnu/inc/tx_port.h ****                                                         }                                          
 436:../Middlewares/threadx/ports/cortex_m55/gnu/inc/tx_port.h ****                                                     }
 437:../Middlewares/threadx/ports/cortex_m55/gnu/inc/tx_port.h **** #else
 438:../Middlewares/threadx/ports/cortex_m55/gnu/inc/tx_port.h **** 
 439:../Middlewares/threadx/ports/cortex_m55/gnu/inc/tx_port.h **** #define TX_THREAD_TERMINATED_EXTENSION(thread_ptr)  {                                              
 440:../Middlewares/threadx/ports/cortex_m55/gnu/inc/tx_port.h ****                                                     ULONG  _tx_system_state;                       
 441:../Middlewares/threadx/ports/cortex_m55/gnu/inc/tx_port.h ****                                                         _tx_system_state = TX_THREAD_GET_SYSTEM_STA
 442:../Middlewares/threadx/ports/cortex_m55/gnu/inc/tx_port.h ****                                                         if ((_tx_system_state == ((ULONG) 0)) && ((
 443:../Middlewares/threadx/ports/cortex_m55/gnu/inc/tx_port.h ****                                                         {                                          
 444:../Middlewares/threadx/ports/cortex_m55/gnu/inc/tx_port.h ****                                                         ULONG  _tx_vfp_state;                      
 445:../Middlewares/threadx/ports/cortex_m55/gnu/inc/tx_port.h ****                                                             _tx_vfp_state = _tx_misra_control_get()
 446:../Middlewares/threadx/ports/cortex_m55/gnu/inc/tx_port.h ****                                                             _tx_vfp_state = _tx_vfp_state & ~((ULON
 447:../Middlewares/threadx/ports/cortex_m55/gnu/inc/tx_port.h ****                                                             _tx_misra_control_set(_tx_vfp_state);  
 448:../Middlewares/threadx/ports/cortex_m55/gnu/inc/tx_port.h ****                                                         }                                          
 449:../Middlewares/threadx/ports/cortex_m55/gnu/inc/tx_port.h ****                                                         else                                       
 450:../Middlewares/threadx/ports/cortex_m55/gnu/inc/tx_port.h ****                                                         {                                          
 451:../Middlewares/threadx/ports/cortex_m55/gnu/inc/tx_port.h ****                                                         ULONG  _tx_fpccr;                          
 452:../Middlewares/threadx/ports/cortex_m55/gnu/inc/tx_port.h ****                                                             _tx_fpccr = _tx_misra_fpccr_get();     
 453:../Middlewares/threadx/ports/cortex_m55/gnu/inc/tx_port.h ****                                                             _tx_fpccr = _tx_fpccr & ((ULONG) 0x01);
 454:../Middlewares/threadx/ports/cortex_m55/gnu/inc/tx_port.h ****                                                             if (_tx_fpccr == ((ULONG) 0x01))       
 455:../Middlewares/threadx/ports/cortex_m55/gnu/inc/tx_port.h ****                                                             {                                      
 456:../Middlewares/threadx/ports/cortex_m55/gnu/inc/tx_port.h ****                                                             ULONG _tx_vfp_state;                   
 457:../Middlewares/threadx/ports/cortex_m55/gnu/inc/tx_port.h ****                                                                 _tx_vfp_state = _tx_misra_control_g
 458:../Middlewares/threadx/ports/cortex_m55/gnu/inc/tx_port.h ****                                                                 _tx_vfp_state = _tx_vfp_state & ((U
 459:../Middlewares/threadx/ports/cortex_m55/gnu/inc/tx_port.h ****                                                                 _tx_misra_vfp_touch();             
 460:../Middlewares/threadx/ports/cortex_m55/gnu/inc/tx_port.h ****                                                                 if (_tx_vfp_state == ((ULONG) 0))  
 461:../Middlewares/threadx/ports/cortex_m55/gnu/inc/tx_port.h ****                                                                 {                                  
 462:../Middlewares/threadx/ports/cortex_m55/gnu/inc/tx_port.h ****                                                                     _tx_vfp_state = _tx_misra_contr
 463:../Middlewares/threadx/ports/cortex_m55/gnu/inc/tx_port.h ****                                                                     _tx_vfp_state = _tx_vfp_state &
 464:../Middlewares/threadx/ports/cortex_m55/gnu/inc/tx_port.h ****                                                                     _tx_misra_control_set(_tx_vfp_s
 465:../Middlewares/threadx/ports/cortex_m55/gnu/inc/tx_port.h ****                                                                 }                                  
 466:../Middlewares/threadx/ports/cortex_m55/gnu/inc/tx_port.h ****                                                             }                                      
 467:../Middlewares/threadx/ports/cortex_m55/gnu/inc/tx_port.h ****                                                         }                                          
 468:../Middlewares/threadx/ports/cortex_m55/gnu/inc/tx_port.h ****                                                     }
 469:../Middlewares/threadx/ports/cortex_m55/gnu/inc/tx_port.h **** #endif
 470:../Middlewares/threadx/ports/cortex_m55/gnu/inc/tx_port.h **** 
ARM GAS  /tmp/cc3LA3rC.s 			page 15


 471:../Middlewares/threadx/ports/cortex_m55/gnu/inc/tx_port.h **** #else   /* No VFP in use */
 472:../Middlewares/threadx/ports/cortex_m55/gnu/inc/tx_port.h **** 
 473:../Middlewares/threadx/ports/cortex_m55/gnu/inc/tx_port.h **** #define TX_THREAD_COMPLETED_EXTENSION(thread_ptr)
 474:../Middlewares/threadx/ports/cortex_m55/gnu/inc/tx_port.h **** #define TX_THREAD_TERMINATED_EXTENSION(thread_ptr)
 475:../Middlewares/threadx/ports/cortex_m55/gnu/inc/tx_port.h **** 
 476:../Middlewares/threadx/ports/cortex_m55/gnu/inc/tx_port.h **** #endif  /* defined(__ARMVFP__) || defined(__ARM_PCS_VFP) || defined(__ARM_FP) || defined(__TARGET_F
 477:../Middlewares/threadx/ports/cortex_m55/gnu/inc/tx_port.h **** 
 478:../Middlewares/threadx/ports/cortex_m55/gnu/inc/tx_port.h **** 
 479:../Middlewares/threadx/ports/cortex_m55/gnu/inc/tx_port.h **** /* Define the ThreadX object creation extensions for the remaining objects.  */
 480:../Middlewares/threadx/ports/cortex_m55/gnu/inc/tx_port.h **** 
 481:../Middlewares/threadx/ports/cortex_m55/gnu/inc/tx_port.h **** #define TX_BLOCK_POOL_CREATE_EXTENSION(pool_ptr)
 482:../Middlewares/threadx/ports/cortex_m55/gnu/inc/tx_port.h **** #define TX_BYTE_POOL_CREATE_EXTENSION(pool_ptr)
 483:../Middlewares/threadx/ports/cortex_m55/gnu/inc/tx_port.h **** #define TX_EVENT_FLAGS_GROUP_CREATE_EXTENSION(group_ptr)
 484:../Middlewares/threadx/ports/cortex_m55/gnu/inc/tx_port.h **** #define TX_MUTEX_CREATE_EXTENSION(mutex_ptr)
 485:../Middlewares/threadx/ports/cortex_m55/gnu/inc/tx_port.h **** #define TX_QUEUE_CREATE_EXTENSION(queue_ptr)
 486:../Middlewares/threadx/ports/cortex_m55/gnu/inc/tx_port.h **** #define TX_SEMAPHORE_CREATE_EXTENSION(semaphore_ptr)
 487:../Middlewares/threadx/ports/cortex_m55/gnu/inc/tx_port.h **** #define TX_TIMER_CREATE_EXTENSION(timer_ptr)
 488:../Middlewares/threadx/ports/cortex_m55/gnu/inc/tx_port.h **** 
 489:../Middlewares/threadx/ports/cortex_m55/gnu/inc/tx_port.h **** 
 490:../Middlewares/threadx/ports/cortex_m55/gnu/inc/tx_port.h **** /* Define the ThreadX object deletion extensions for the remaining objects.  */
 491:../Middlewares/threadx/ports/cortex_m55/gnu/inc/tx_port.h **** 
 492:../Middlewares/threadx/ports/cortex_m55/gnu/inc/tx_port.h **** #define TX_BLOCK_POOL_DELETE_EXTENSION(pool_ptr)
 493:../Middlewares/threadx/ports/cortex_m55/gnu/inc/tx_port.h **** #define TX_BYTE_POOL_DELETE_EXTENSION(pool_ptr)
 494:../Middlewares/threadx/ports/cortex_m55/gnu/inc/tx_port.h **** #define TX_EVENT_FLAGS_GROUP_DELETE_EXTENSION(group_ptr)
 495:../Middlewares/threadx/ports/cortex_m55/gnu/inc/tx_port.h **** #define TX_MUTEX_DELETE_EXTENSION(mutex_ptr)
 496:../Middlewares/threadx/ports/cortex_m55/gnu/inc/tx_port.h **** #define TX_QUEUE_DELETE_EXTENSION(queue_ptr)
 497:../Middlewares/threadx/ports/cortex_m55/gnu/inc/tx_port.h **** #define TX_SEMAPHORE_DELETE_EXTENSION(semaphore_ptr)
 498:../Middlewares/threadx/ports/cortex_m55/gnu/inc/tx_port.h **** #define TX_TIMER_DELETE_EXTENSION(timer_ptr)
 499:../Middlewares/threadx/ports/cortex_m55/gnu/inc/tx_port.h **** 
 500:../Middlewares/threadx/ports/cortex_m55/gnu/inc/tx_port.h **** 
 501:../Middlewares/threadx/ports/cortex_m55/gnu/inc/tx_port.h **** /* Define the get system state macro.  */
 502:../Middlewares/threadx/ports/cortex_m55/gnu/inc/tx_port.h **** 
 503:../Middlewares/threadx/ports/cortex_m55/gnu/inc/tx_port.h **** #ifndef TX_THREAD_GET_SYSTEM_STATE
 504:../Middlewares/threadx/ports/cortex_m55/gnu/inc/tx_port.h **** #ifndef TX_MISRA_ENABLE
 505:../Middlewares/threadx/ports/cortex_m55/gnu/inc/tx_port.h **** 
 506:../Middlewares/threadx/ports/cortex_m55/gnu/inc/tx_port.h **** #if defined(__GNUC__) /* GCC and AC6 */
 507:../Middlewares/threadx/ports/cortex_m55/gnu/inc/tx_port.h **** __attribute__( ( always_inline ) ) static inline UINT _tx_ipsr_get(void)
 508:../Middlewares/threadx/ports/cortex_m55/gnu/inc/tx_port.h **** {
 509:../Middlewares/threadx/ports/cortex_m55/gnu/inc/tx_port.h **** UINT ipsr_value;
 510:../Middlewares/threadx/ports/cortex_m55/gnu/inc/tx_port.h ****     __asm__ volatile (" MRS  %0,IPSR ": "=r" (ipsr_value) );
 511:../Middlewares/threadx/ports/cortex_m55/gnu/inc/tx_port.h ****     return(ipsr_value);
 512:../Middlewares/threadx/ports/cortex_m55/gnu/inc/tx_port.h **** }
 513:../Middlewares/threadx/ports/cortex_m55/gnu/inc/tx_port.h **** #endif  /* GCC and AC6 IPSR_get function. */
 514:../Middlewares/threadx/ports/cortex_m55/gnu/inc/tx_port.h **** 
 515:../Middlewares/threadx/ports/cortex_m55/gnu/inc/tx_port.h **** #define TX_THREAD_GET_SYSTEM_STATE()        (_tx_thread_system_state | _tx_ipsr_get())
 516:../Middlewares/threadx/ports/cortex_m55/gnu/inc/tx_port.h **** 
 517:../Middlewares/threadx/ports/cortex_m55/gnu/inc/tx_port.h **** #else   /* TX_MISRA_ENABLE is defined, use MISRA function. */
 518:../Middlewares/threadx/ports/cortex_m55/gnu/inc/tx_port.h **** ULONG   _tx_misra_ipsr_get(VOID);
 519:../Middlewares/threadx/ports/cortex_m55/gnu/inc/tx_port.h **** #define TX_THREAD_GET_SYSTEM_STATE()        (_tx_thread_system_state | _tx_misra_ipsr_get())
 520:../Middlewares/threadx/ports/cortex_m55/gnu/inc/tx_port.h **** #endif  /* TX_MISRA_ENABLE */
 521:../Middlewares/threadx/ports/cortex_m55/gnu/inc/tx_port.h **** #endif  /* TX_THREAD_GET_SYSTEM_STATE */
 522:../Middlewares/threadx/ports/cortex_m55/gnu/inc/tx_port.h **** 
 523:../Middlewares/threadx/ports/cortex_m55/gnu/inc/tx_port.h **** 
 524:../Middlewares/threadx/ports/cortex_m55/gnu/inc/tx_port.h **** /* Define the check for whether or not to call the _tx_thread_system_return function.  A non-zero v
 525:../Middlewares/threadx/ports/cortex_m55/gnu/inc/tx_port.h ****    indicates that _tx_thread_system_return should not be called. This overrides the definition in t
 526:../Middlewares/threadx/ports/cortex_m55/gnu/inc/tx_port.h ****    for Cortex-M since so we don't waste time checking the _tx_thread_system_state variable that is 
 527:../Middlewares/threadx/ports/cortex_m55/gnu/inc/tx_port.h ****    zero after initialization for Cortex-M ports. */
ARM GAS  /tmp/cc3LA3rC.s 			page 16


 528:../Middlewares/threadx/ports/cortex_m55/gnu/inc/tx_port.h **** 
 529:../Middlewares/threadx/ports/cortex_m55/gnu/inc/tx_port.h **** #ifndef TX_THREAD_SYSTEM_RETURN_CHECK
 530:../Middlewares/threadx/ports/cortex_m55/gnu/inc/tx_port.h **** #define TX_THREAD_SYSTEM_RETURN_CHECK(c)    (c) = ((ULONG) _tx_thread_preempt_disable);
 531:../Middlewares/threadx/ports/cortex_m55/gnu/inc/tx_port.h **** #endif
 532:../Middlewares/threadx/ports/cortex_m55/gnu/inc/tx_port.h **** 
 533:../Middlewares/threadx/ports/cortex_m55/gnu/inc/tx_port.h **** #if !defined(TX_SINGLE_MODE_SECURE) && !defined(TX_SINGLE_MODE_NON_SECURE)
 534:../Middlewares/threadx/ports/cortex_m55/gnu/inc/tx_port.h **** /* Initialize secure stacks for threads calling secure functions. */
 535:../Middlewares/threadx/ports/cortex_m55/gnu/inc/tx_port.h **** extern void    _tx_thread_secure_stack_initialize(void);
 536:../Middlewares/threadx/ports/cortex_m55/gnu/inc/tx_port.h **** #define TX_PORT_SPECIFIC_PRE_INITIALIZATION             _tx_thread_secure_stack_initialize();
 537:../Middlewares/threadx/ports/cortex_m55/gnu/inc/tx_port.h **** #endif
 538:../Middlewares/threadx/ports/cortex_m55/gnu/inc/tx_port.h **** 
 539:../Middlewares/threadx/ports/cortex_m55/gnu/inc/tx_port.h **** /* Define the macro to ensure _tx_thread_preempt_disable is set early in initialization in order to
 540:../Middlewares/threadx/ports/cortex_m55/gnu/inc/tx_port.h ****    prevent early scheduling on Cortex-M parts.  */
 541:../Middlewares/threadx/ports/cortex_m55/gnu/inc/tx_port.h **** 
 542:../Middlewares/threadx/ports/cortex_m55/gnu/inc/tx_port.h **** #define TX_PORT_SPECIFIC_POST_INITIALIZATION    _tx_thread_preempt_disable++;
 543:../Middlewares/threadx/ports/cortex_m55/gnu/inc/tx_port.h **** 
 544:../Middlewares/threadx/ports/cortex_m55/gnu/inc/tx_port.h **** 
 545:../Middlewares/threadx/ports/cortex_m55/gnu/inc/tx_port.h **** 
 546:../Middlewares/threadx/ports/cortex_m55/gnu/inc/tx_port.h **** 
 547:../Middlewares/threadx/ports/cortex_m55/gnu/inc/tx_port.h **** #ifndef TX_DISABLE_INLINE
 548:../Middlewares/threadx/ports/cortex_m55/gnu/inc/tx_port.h **** 
 549:../Middlewares/threadx/ports/cortex_m55/gnu/inc/tx_port.h **** /* Define the TX_LOWEST_SET_BIT_CALCULATE macro for each compiler. */
 550:../Middlewares/threadx/ports/cortex_m55/gnu/inc/tx_port.h **** #ifdef __ICCARM__       /* IAR Compiler */
 551:../Middlewares/threadx/ports/cortex_m55/gnu/inc/tx_port.h **** #define TX_LOWEST_SET_BIT_CALCULATE(m, b)       (b) = (UINT) __CLZ(__RBIT((m)));
 552:../Middlewares/threadx/ports/cortex_m55/gnu/inc/tx_port.h **** #elif defined(__GNUC__) /* GCC and AC6 Compiler */
 553:../Middlewares/threadx/ports/cortex_m55/gnu/inc/tx_port.h **** #define TX_LOWEST_SET_BIT_CALCULATE(m, b)       __asm__ volatile (" RBIT %0,%1 ": "=r" (m) : "r" (m
 554:../Middlewares/threadx/ports/cortex_m55/gnu/inc/tx_port.h ****                                                 __asm__ volatile (" CLZ  %0,%1 ": "=r" (b) : "r" (m
 555:../Middlewares/threadx/ports/cortex_m55/gnu/inc/tx_port.h **** #else
 556:../Middlewares/threadx/ports/cortex_m55/gnu/inc/tx_port.h **** #error "Compiler not supported."
 557:../Middlewares/threadx/ports/cortex_m55/gnu/inc/tx_port.h **** #endif
 558:../Middlewares/threadx/ports/cortex_m55/gnu/inc/tx_port.h **** 
 559:../Middlewares/threadx/ports/cortex_m55/gnu/inc/tx_port.h **** 
 560:../Middlewares/threadx/ports/cortex_m55/gnu/inc/tx_port.h **** 
 561:../Middlewares/threadx/ports/cortex_m55/gnu/inc/tx_port.h **** /* Define the interrupt disable/restore macros. */
 562:../Middlewares/threadx/ports/cortex_m55/gnu/inc/tx_port.h **** 
 563:../Middlewares/threadx/ports/cortex_m55/gnu/inc/tx_port.h **** __attribute__( ( always_inline ) ) static inline UINT __get_interrupt_posture(void)
 564:../Middlewares/threadx/ports/cortex_m55/gnu/inc/tx_port.h **** {
 565:../Middlewares/threadx/ports/cortex_m55/gnu/inc/tx_port.h **** UINT posture;
 566:../Middlewares/threadx/ports/cortex_m55/gnu/inc/tx_port.h **** #ifdef TX_PORT_USE_BASEPRI
 567:../Middlewares/threadx/ports/cortex_m55/gnu/inc/tx_port.h ****     __asm__ volatile ("MRS  %0, BASEPRI ": "=r" (posture));
 568:../Middlewares/threadx/ports/cortex_m55/gnu/inc/tx_port.h **** #else
 569:../Middlewares/threadx/ports/cortex_m55/gnu/inc/tx_port.h ****     __asm__ volatile ("MRS  %0, PRIMASK ": "=r" (posture));
 570:../Middlewares/threadx/ports/cortex_m55/gnu/inc/tx_port.h **** #endif
 571:../Middlewares/threadx/ports/cortex_m55/gnu/inc/tx_port.h ****     return(posture);
 572:../Middlewares/threadx/ports/cortex_m55/gnu/inc/tx_port.h **** }
 573:../Middlewares/threadx/ports/cortex_m55/gnu/inc/tx_port.h **** 
 574:../Middlewares/threadx/ports/cortex_m55/gnu/inc/tx_port.h **** #ifdef TX_PORT_USE_BASEPRI
 575:../Middlewares/threadx/ports/cortex_m55/gnu/inc/tx_port.h **** __attribute__( ( always_inline ) ) static inline void __set_basepri_value(UINT basepri_value)
 576:../Middlewares/threadx/ports/cortex_m55/gnu/inc/tx_port.h **** {
 577:../Middlewares/threadx/ports/cortex_m55/gnu/inc/tx_port.h ****     __asm__ volatile ("MSR  BASEPRI,%0 ": : "r" (basepri_value));
 578:../Middlewares/threadx/ports/cortex_m55/gnu/inc/tx_port.h **** }
 579:../Middlewares/threadx/ports/cortex_m55/gnu/inc/tx_port.h **** #else
 580:../Middlewares/threadx/ports/cortex_m55/gnu/inc/tx_port.h **** __attribute__( ( always_inline ) ) static inline void __enable_interrupts(void)
 581:../Middlewares/threadx/ports/cortex_m55/gnu/inc/tx_port.h **** {
 582:../Middlewares/threadx/ports/cortex_m55/gnu/inc/tx_port.h ****     __asm__ volatile ("CPSIE  i": : : "memory");
 583:../Middlewares/threadx/ports/cortex_m55/gnu/inc/tx_port.h **** }
 584:../Middlewares/threadx/ports/cortex_m55/gnu/inc/tx_port.h **** #endif
ARM GAS  /tmp/cc3LA3rC.s 			page 17


 585:../Middlewares/threadx/ports/cortex_m55/gnu/inc/tx_port.h **** 
 586:../Middlewares/threadx/ports/cortex_m55/gnu/inc/tx_port.h **** __attribute__( ( always_inline ) ) static inline void __restore_interrupt(UINT int_posture)
 587:../Middlewares/threadx/ports/cortex_m55/gnu/inc/tx_port.h **** {
 588:../Middlewares/threadx/ports/cortex_m55/gnu/inc/tx_port.h **** #ifdef TX_PORT_USE_BASEPRI
 589:../Middlewares/threadx/ports/cortex_m55/gnu/inc/tx_port.h ****     __set_basepri_value(int_posture);
 590:../Middlewares/threadx/ports/cortex_m55/gnu/inc/tx_port.h **** #else
 591:../Middlewares/threadx/ports/cortex_m55/gnu/inc/tx_port.h ****     __asm__ volatile ("MSR  PRIMASK,%0": : "r" (int_posture): "memory");
 592:../Middlewares/threadx/ports/cortex_m55/gnu/inc/tx_port.h **** #endif
 593:../Middlewares/threadx/ports/cortex_m55/gnu/inc/tx_port.h **** }
 594:../Middlewares/threadx/ports/cortex_m55/gnu/inc/tx_port.h **** 
 595:../Middlewares/threadx/ports/cortex_m55/gnu/inc/tx_port.h **** __attribute__( ( always_inline ) ) static inline UINT __disable_interrupts(void)
  85              		.loc 2 595 55 view .LVU17
  86              	.LBB21:
 596:../Middlewares/threadx/ports/cortex_m55/gnu/inc/tx_port.h **** {
 597:../Middlewares/threadx/ports/cortex_m55/gnu/inc/tx_port.h **** UINT int_posture;
  87              		.loc 2 597 1 view .LVU18
 598:../Middlewares/threadx/ports/cortex_m55/gnu/inc/tx_port.h **** 
 599:../Middlewares/threadx/ports/cortex_m55/gnu/inc/tx_port.h ****     int_posture = __get_interrupt_posture();
  88              		.loc 2 599 5 view .LVU19
  89              	.LBB22:
  90              	.LBI22:
 563:../Middlewares/threadx/ports/cortex_m55/gnu/inc/tx_port.h **** {
  91              		.loc 2 563 55 view .LVU20
  92              	.LBB23:
 565:../Middlewares/threadx/ports/cortex_m55/gnu/inc/tx_port.h **** #ifdef TX_PORT_USE_BASEPRI
  93              		.loc 2 565 1 view .LVU21
 569:../Middlewares/threadx/ports/cortex_m55/gnu/inc/tx_port.h **** #endif
  94              		.loc 2 569 5 view .LVU22
  95              		.syntax unified
  96              	@ 569 "../Middlewares/threadx/ports/cortex_m55/gnu/inc/tx_port.h" 1
  97 001c EFF31081 		MRS  r1, PRIMASK 
  98              	@ 0 "" 2
  99              	.LVL5:
 571:../Middlewares/threadx/ports/cortex_m55/gnu/inc/tx_port.h **** }
 100              		.loc 2 571 5 view .LVU23
 571:../Middlewares/threadx/ports/cortex_m55/gnu/inc/tx_port.h **** }
 101              		.loc 2 571 5 is_stmt 0 view .LVU24
 102              		.thumb
 103              		.syntax unified
 104              	.LBE23:
 105              	.LBE22:
 600:../Middlewares/threadx/ports/cortex_m55/gnu/inc/tx_port.h **** 
 601:../Middlewares/threadx/ports/cortex_m55/gnu/inc/tx_port.h **** #ifdef TX_PORT_USE_BASEPRI
 602:../Middlewares/threadx/ports/cortex_m55/gnu/inc/tx_port.h ****     __set_basepri_value(TX_PORT_BASEPRI);
 603:../Middlewares/threadx/ports/cortex_m55/gnu/inc/tx_port.h **** #else
 604:../Middlewares/threadx/ports/cortex_m55/gnu/inc/tx_port.h ****     __asm__ volatile ("CPSID i" : : : "memory");
 106              		.loc 2 604 5 is_stmt 1 view .LVU25
 107              		.syntax unified
 108              	@ 604 "../Middlewares/threadx/ports/cortex_m55/gnu/inc/tx_port.h" 1
 109 0020 72B6     		CPSID i
 110              	@ 0 "" 2
 605:../Middlewares/threadx/ports/cortex_m55/gnu/inc/tx_port.h **** #endif
 606:../Middlewares/threadx/ports/cortex_m55/gnu/inc/tx_port.h ****     return(int_posture);
 111              		.loc 2 606 5 view .LVU26
 112              	.LVL6:
 113              		.loc 2 606 5 is_stmt 0 view .LVU27
 114              		.thumb
ARM GAS  /tmp/cc3LA3rC.s 			page 18


 115              		.syntax unified
 116              	.LBE21:
 117              	.LBE20:
 122:../Middlewares/threadx/common/src/txe_queue_create.c **** 
 118              		.loc 1 122 9 is_stmt 1 view .LVU28
 122:../Middlewares/threadx/common/src/txe_queue_create.c **** 
 119              		.loc 1 122 35 is_stmt 0 view .LVU29
 120 0022 244B     		ldr	r3, .L22
 121 0024 1A68     		ldr	r2, [r3]
 122              	.LVL7:
 122:../Middlewares/threadx/common/src/txe_queue_create.c **** 
 123              		.loc 1 122 35 view .LVU30
 124 0026 0132     		adds	r2, r2, #1
 125 0028 1A60     		str	r2, [r3]
 125:../Middlewares/threadx/common/src/txe_queue_create.c **** 
 126              		.loc 1 125 9 is_stmt 1 view .LVU31
 127              	.LVL8:
 128              	.LBB24:
 129              	.LBI24:
 586:../Middlewares/threadx/ports/cortex_m55/gnu/inc/tx_port.h **** {
 130              		.loc 2 586 55 view .LVU32
 131              	.LBB25:
 591:../Middlewares/threadx/ports/cortex_m55/gnu/inc/tx_port.h **** #endif
 132              		.loc 2 591 5 view .LVU33
 133              		.syntax unified
 134              	@ 591 "../Middlewares/threadx/ports/cortex_m55/gnu/inc/tx_port.h" 1
 135 002a 81F31088 		MSR  PRIMASK,r1
 136              	@ 0 "" 2
 137              	.LVL9:
 591:../Middlewares/threadx/ports/cortex_m55/gnu/inc/tx_port.h **** #endif
 138              		.loc 2 591 5 is_stmt 0 view .LVU34
 139              		.thumb
 140              		.syntax unified
 141              	.LBE25:
 142              	.LBE24:
 128:../Middlewares/threadx/common/src/txe_queue_create.c ****         for (i = ((ULONG) 0); i < _tx_queue_created_count; i++)
 143              		.loc 1 128 9 is_stmt 1 view .LVU35
 128:../Middlewares/threadx/common/src/txe_queue_create.c ****         for (i = ((ULONG) 0); i < _tx_queue_created_count; i++)
 144              		.loc 1 128 20 is_stmt 0 view .LVU36
 145 002e 224A     		ldr	r2, .L22+4
 146 0030 1768     		ldr	r7, [r2]
 147              	.LVL10:
 129:../Middlewares/threadx/common/src/txe_queue_create.c ****         {
 148              		.loc 1 129 9 is_stmt 1 view .LVU37
 129:../Middlewares/threadx/common/src/txe_queue_create.c ****         {
 149              		.loc 1 129 33 is_stmt 0 discriminator 1 view .LVU38
 150 0032 224A     		ldr	r2, .L22+8
 151 0034 1268     		ldr	r2, [r2]
 152 0036 0132     		adds	r2, r2, #1
 153              	.LVL11:
 154              	.L5:
 129:../Middlewares/threadx/common/src/txe_queue_create.c ****         {
 155              		.loc 1 129 33 is_stmt 1 discriminator 1 view .LVU39
 156 0038 013A     		subs	r2, r2, #1
 157 003a 01D0     		beq	.L9
 133:../Middlewares/threadx/common/src/txe_queue_create.c ****             {
 158              		.loc 1 133 13 view .LVU40
ARM GAS  /tmp/cc3LA3rC.s 			page 19


 133:../Middlewares/threadx/common/src/txe_queue_create.c ****             {
 159              		.loc 1 133 16 is_stmt 0 view .LVU41
 160 003c A742     		cmp	r7, r4
 161 003e 31D1     		bne	.L6
 162              	.L9:
 147:../Middlewares/threadx/common/src/txe_queue_create.c **** 
 163              		.loc 1 147 9 is_stmt 1 view .LVU42
 164              	.LBB26:
 165              	.LBI26:
 595:../Middlewares/threadx/ports/cortex_m55/gnu/inc/tx_port.h **** {
 166              		.loc 2 595 55 view .LVU43
 167              	.LBB27:
 597:../Middlewares/threadx/ports/cortex_m55/gnu/inc/tx_port.h **** 
 168              		.loc 2 597 1 view .LVU44
 599:../Middlewares/threadx/ports/cortex_m55/gnu/inc/tx_port.h **** 
 169              		.loc 2 599 5 view .LVU45
 170              	.LBB28:
 171              	.LBI28:
 563:../Middlewares/threadx/ports/cortex_m55/gnu/inc/tx_port.h **** {
 172              		.loc 2 563 55 view .LVU46
 173              	.LBB29:
 565:../Middlewares/threadx/ports/cortex_m55/gnu/inc/tx_port.h **** #ifdef TX_PORT_USE_BASEPRI
 174              		.loc 2 565 1 view .LVU47
 569:../Middlewares/threadx/ports/cortex_m55/gnu/inc/tx_port.h **** #endif
 175              		.loc 2 569 5 view .LVU48
 176              		.syntax unified
 177              	@ 569 "../Middlewares/threadx/ports/cortex_m55/gnu/inc/tx_port.h" 1
 178 0040 EFF31081 		MRS  r1, PRIMASK 
 179              	@ 0 "" 2
 180              	.LVL12:
 571:../Middlewares/threadx/ports/cortex_m55/gnu/inc/tx_port.h **** }
 181              		.loc 2 571 5 view .LVU49
 571:../Middlewares/threadx/ports/cortex_m55/gnu/inc/tx_port.h **** }
 182              		.loc 2 571 5 is_stmt 0 view .LVU50
 183              		.thumb
 184              		.syntax unified
 185              	.LBE29:
 186              	.LBE28:
 604:../Middlewares/threadx/ports/cortex_m55/gnu/inc/tx_port.h **** #endif
 187              		.loc 2 604 5 is_stmt 1 view .LVU51
 188              		.syntax unified
 189              	@ 604 "../Middlewares/threadx/ports/cortex_m55/gnu/inc/tx_port.h" 1
 190 0044 72B6     		CPSID i
 191              	@ 0 "" 2
 192              		.loc 2 606 5 view .LVU52
 193              	.LVL13:
 194              		.loc 2 606 5 is_stmt 0 view .LVU53
 195              		.thumb
 196              		.syntax unified
 197              	.LBE27:
 198              	.LBE26:
 150:../Middlewares/threadx/common/src/txe_queue_create.c **** 
 199              		.loc 1 150 9 is_stmt 1 view .LVU54
 150:../Middlewares/threadx/common/src/txe_queue_create.c **** 
 200              		.loc 1 150 35 is_stmt 0 view .LVU55
 201 0046 1A68     		ldr	r2, [r3]
 202 0048 013A     		subs	r2, r2, #1
ARM GAS  /tmp/cc3LA3rC.s 			page 20


 203 004a 1A60     		str	r2, [r3]
 153:../Middlewares/threadx/common/src/txe_queue_create.c **** 
 204              		.loc 1 153 9 is_stmt 1 view .LVU56
 205              	.LVL14:
 206              	.LBB30:
 207              	.LBI30:
 586:../Middlewares/threadx/ports/cortex_m55/gnu/inc/tx_port.h **** {
 208              		.loc 2 586 55 view .LVU57
 209              	.LBB31:
 591:../Middlewares/threadx/ports/cortex_m55/gnu/inc/tx_port.h **** #endif
 210              		.loc 2 591 5 view .LVU58
 211              		.syntax unified
 212              	@ 591 "../Middlewares/threadx/ports/cortex_m55/gnu/inc/tx_port.h" 1
 213 004c 81F31088 		MSR  PRIMASK,r1
 214              	@ 0 "" 2
 215              	.LVL15:
 591:../Middlewares/threadx/ports/cortex_m55/gnu/inc/tx_port.h **** #endif
 216              		.loc 2 591 5 is_stmt 0 view .LVU59
 217              		.thumb
 218              		.syntax unified
 219              	.LBE31:
 220              	.LBE30:
 156:../Middlewares/threadx/common/src/txe_queue_create.c **** 
 221              		.loc 1 156 9 is_stmt 1 view .LVU60
 222 0050 FFF7FEFF 		bl	_tx_thread_system_preempt_check
 223              	.LVL16:
 159:../Middlewares/threadx/common/src/txe_queue_create.c ****         {
 224              		.loc 1 159 9 view .LVU61
 159:../Middlewares/threadx/common/src/txe_queue_create.c ****         {
 225              		.loc 1 159 12 is_stmt 0 view .LVU62
 226 0054 A742     		cmp	r7, r4
 227 0056 DCD0     		beq	.L4
 167:../Middlewares/threadx/common/src/txe_queue_create.c ****         {
 228              		.loc 1 167 14 is_stmt 1 view .LVU63
 167:../Middlewares/threadx/common/src/txe_queue_create.c ****         {
 229              		.loc 1 167 17 is_stmt 0 view .LVU64
 230 0058 36B3     		cbz	r6, .L12
 175:../Middlewares/threadx/common/src/txe_queue_create.c ****         {
 231              		.loc 1 175 14 is_stmt 1 view .LVU65
 175:../Middlewares/threadx/common/src/txe_queue_create.c ****         {
 232              		.loc 1 175 17 is_stmt 0 view .LVU66
 233 005a 6B1E     		subs	r3, r5, #1
 234 005c 0F2B     		cmp	r3, #15
 235 005e 25D8     		bhi	.L14
 183:../Middlewares/threadx/common/src/txe_queue_create.c ****         {
 236              		.loc 1 183 14 is_stmt 1 view .LVU67
 191:../Middlewares/threadx/common/src/txe_queue_create.c ****         {
 237              		.loc 1 191 14 view .LVU68
 191:../Middlewares/threadx/common/src/txe_queue_create.c ****         {
 238              		.loc 1 191 17 is_stmt 0 view .LVU69
 239 0060 B5EB990F 		cmp	r5, r9, lsr #2
 240 0064 22D8     		bhi	.L14
 203:../Middlewares/threadx/common/src/txe_queue_create.c **** 
 241              		.loc 1 203 13 is_stmt 1 view .LVU70
 242              	.LVL17:
 206:../Middlewares/threadx/common/src/txe_queue_create.c ****             {
 243              		.loc 1 206 13 view .LVU71
ARM GAS  /tmp/cc3LA3rC.s 			page 21


 206:../Middlewares/threadx/common/src/txe_queue_create.c ****             {
 244              		.loc 1 206 16 is_stmt 0 view .LVU72
 245 0066 164B     		ldr	r3, .L22+12
 246              	.LVL18:
 206:../Middlewares/threadx/common/src/txe_queue_create.c ****             {
 247              		.loc 1 206 16 view .LVU73
 248 0068 1A68     		ldr	r2, [r3]
  98:../Middlewares/threadx/common/src/txe_queue_create.c **** 
 249              		.loc 1 98 12 view .LVU74
 250 006a 164B     		ldr	r3, .L22+16
 251              	.LVL19:
  98:../Middlewares/threadx/common/src/txe_queue_create.c **** 
 252              		.loc 1 98 12 view .LVU75
 253 006c 9A42     		cmp	r2, r3
 254 006e 0CBF     		ite	eq
 255 0070 1321     		moveq	r1, #19
 256 0072 0021     		movne	r1, #0
 257              	.LVL20:
 215:../Middlewares/threadx/common/src/txe_queue_create.c ****             {
 258              		.loc 1 215 13 is_stmt 1 view .LVU76
 259              	.LBB32:
 260              	.LBI32:
 507:../Middlewares/threadx/ports/cortex_m55/gnu/inc/tx_port.h **** {
 261              		.loc 2 507 55 view .LVU77
 262              	.LBB33:
 509:../Middlewares/threadx/ports/cortex_m55/gnu/inc/tx_port.h ****     __asm__ volatile (" MRS  %0,IPSR ": "=r" (ipsr_value) );
 263              		.loc 2 509 1 view .LVU78
 510:../Middlewares/threadx/ports/cortex_m55/gnu/inc/tx_port.h ****     return(ipsr_value);
 264              		.loc 2 510 5 view .LVU79
 265              		.syntax unified
 266              	@ 510 "../Middlewares/threadx/ports/cortex_m55/gnu/inc/tx_port.h" 1
 267 0074 EFF30580 		 MRS  r0,IPSR 
 268              	@ 0 "" 2
 269              	.LVL21:
 511:../Middlewares/threadx/ports/cortex_m55/gnu/inc/tx_port.h **** }
 270              		.loc 2 511 5 view .LVU80
 511:../Middlewares/threadx/ports/cortex_m55/gnu/inc/tx_port.h **** }
 271              		.loc 2 511 5 is_stmt 0 view .LVU81
 272              		.thumb
 273              		.syntax unified
 274              	.LBE33:
 275              	.LBE32:
 215:../Middlewares/threadx/common/src/txe_queue_create.c ****             {
 276              		.loc 1 215 17 discriminator 1 view .LVU82
 277 0078 134B     		ldr	r3, .L22+20
 278 007a 1A68     		ldr	r2, [r3]
 279              	.LVL22:
 215:../Middlewares/threadx/common/src/txe_queue_create.c ****             {
 280              		.loc 1 215 16 discriminator 1 view .LVU83
 281 007c 0243     		orrs	r2, r2, r0
 282 007e 06D0     		beq	.L11
 219:../Middlewares/threadx/common/src/txe_queue_create.c ****                 {
 283              		.loc 1 219 17 is_stmt 1 view .LVU84
 284              	.LBB34:
 285              	.LBI34:
 507:../Middlewares/threadx/ports/cortex_m55/gnu/inc/tx_port.h **** {
 286              		.loc 2 507 55 view .LVU85
ARM GAS  /tmp/cc3LA3rC.s 			page 22


 287              	.LBB35:
 509:../Middlewares/threadx/ports/cortex_m55/gnu/inc/tx_port.h ****     __asm__ volatile (" MRS  %0,IPSR ": "=r" (ipsr_value) );
 288              		.loc 2 509 1 view .LVU86
 510:../Middlewares/threadx/ports/cortex_m55/gnu/inc/tx_port.h ****     return(ipsr_value);
 289              		.loc 2 510 5 view .LVU87
 290              		.syntax unified
 291              	@ 510 "../Middlewares/threadx/ports/cortex_m55/gnu/inc/tx_port.h" 1
 292 0080 EFF30582 		 MRS  r2,IPSR 
 293              	@ 0 "" 2
 294              	.LVL23:
 511:../Middlewares/threadx/ports/cortex_m55/gnu/inc/tx_port.h **** }
 295              		.loc 2 511 5 view .LVU88
 511:../Middlewares/threadx/ports/cortex_m55/gnu/inc/tx_port.h **** }
 296              		.loc 2 511 5 is_stmt 0 view .LVU89
 297              		.thumb
 298              		.syntax unified
 299              	.LBE35:
 300              	.LBE34:
 219:../Middlewares/threadx/common/src/txe_queue_create.c ****                 {
 301              		.loc 1 219 21 discriminator 1 view .LVU90
 302 0084 1B68     		ldr	r3, [r3]
 303 0086 1343     		orrs	r3, r3, r2
 219:../Middlewares/threadx/common/src/txe_queue_create.c ****                 {
 304              		.loc 1 219 20 discriminator 1 view .LVU91
 305 0088 B3F1F03F 		cmp	r3, #-252645136
 306 008c 10D3     		bcc	.L17
 307              	.L11:
 230:../Middlewares/threadx/common/src/txe_queue_create.c ****     {
 308              		.loc 1 230 5 is_stmt 1 view .LVU92
 230:../Middlewares/threadx/common/src/txe_queue_create.c ****     {
 309              		.loc 1 230 8 is_stmt 0 view .LVU93
 310 008e 79B9     		cbnz	r1, .L17
 234:../Middlewares/threadx/common/src/txe_queue_create.c ****     }
 311              		.loc 1 234 9 is_stmt 1 view .LVU94
 234:../Middlewares/threadx/common/src/txe_queue_create.c ****     }
 312              		.loc 1 234 19 is_stmt 0 view .LVU95
 313 0090 3346     		mov	r3, r6
 314 0092 2A46     		mov	r2, r5
 315 0094 4146     		mov	r1, r8
 316              	.LVL24:
 234:../Middlewares/threadx/common/src/txe_queue_create.c ****     }
 317              		.loc 1 234 19 view .LVU96
 318 0096 2046     		mov	r0, r4
 319 0098 CDF82090 		str	r9, [sp, #32]
 320              	.LVL25:
 321              		.loc 1 239 1 view .LVU97
 322 009c BDE8F047 		pop	{r4, r5, r6, r7, r8, r9, r10, lr}
 323              		.cfi_remember_state
 324              		.cfi_restore 14
 325              		.cfi_restore 10
 326              		.cfi_restore 9
 327              		.cfi_restore 8
 328              		.cfi_restore 7
 329              		.cfi_restore 6
 330              		.cfi_restore 5
 331              		.cfi_restore 4
 332              		.cfi_def_cfa_offset 0
ARM GAS  /tmp/cc3LA3rC.s 			page 23


 333              	.LVL26:
 234:../Middlewares/threadx/common/src/txe_queue_create.c ****     }
 334              		.loc 1 234 19 view .LVU98
 335 00a0 FFF7FEBF 		b	_tx_queue_create
 336              	.LVL27:
 337              	.L6:
 338              		.cfi_restore_state
 142:../Middlewares/threadx/common/src/txe_queue_create.c ****             }
 339              		.loc 1 142 17 is_stmt 1 view .LVU99
 142:../Middlewares/threadx/common/src/txe_queue_create.c ****             }
 340              		.loc 1 142 28 is_stmt 0 view .LVU100
 341 00a4 3F6B     		ldr	r7, [r7, #48]
 342              	.LVL28:
 129:../Middlewares/threadx/common/src/txe_queue_create.c ****         {
 343              		.loc 1 129 61 is_stmt 1 discriminator 2 view .LVU101
 344 00a6 C7E7     		b	.L5
 345              	.LVL29:
 346              	.L12:
 171:../Middlewares/threadx/common/src/txe_queue_create.c ****         }
 347              		.loc 1 171 20 is_stmt 0 view .LVU102
 348 00a8 0320     		movs	r0, #3
 349 00aa B3E7     		b	.L1
 350              	.L14:
 195:../Middlewares/threadx/common/src/txe_queue_create.c ****         }
 351              		.loc 1 195 20 view .LVU103
 352 00ac 0520     		movs	r0, #5
 353 00ae B1E7     		b	.L1
 354              	.LVL30:
 355              	.L17:
 195:../Middlewares/threadx/common/src/txe_queue_create.c ****         }
 356              		.loc 1 195 20 view .LVU104
 357 00b0 1320     		movs	r0, #19
 358              	.LVL31:
 238:../Middlewares/threadx/common/src/txe_queue_create.c **** }
 359              		.loc 1 238 5 is_stmt 1 view .LVU105
 238:../Middlewares/threadx/common/src/txe_queue_create.c **** }
 360              		.loc 1 238 11 is_stmt 0 view .LVU106
 361 00b2 AFE7     		b	.L1
 362              	.L23:
 363              		.align	2
 364              	.L22:
 365 00b4 00000000 		.word	_tx_thread_preempt_disable
 366 00b8 00000000 		.word	_tx_queue_created_ptr
 367 00bc 00000000 		.word	_tx_queue_created_count
 368 00c0 00000000 		.word	_tx_thread_current_ptr
 369 00c4 00000000 		.word	_tx_timer_thread
 370 00c8 00000000 		.word	_tx_thread_system_state
 371              		.cfi_endproc
 372              	.LFE8:
 374              		.text
 375              	.Letext0:
 376              		.file 3 "../Middlewares/threadx/common/inc/tx_api.h"
 377              		.file 4 "../Middlewares/threadx/common/inc/tx_timer.h"
 378              		.file 5 "../Middlewares/threadx/common/inc/tx_thread.h"
 379              		.file 6 "../Middlewares/threadx/common/inc/tx_queue.h"
ARM GAS  /tmp/cc3LA3rC.s 			page 24

