ARM GAS  /tmp/ccbJxyKS.s 			page 1


   1              		.arch armv8.1-m.main
   2              		.fpu fpv5-d16
   3              		.arch_extension dsp
   4              		.arch_extension fp
   5              		.arch_extension fp.dp
   6              		.arch_extension mve
   7              		.arch_extension mve.fp
   8              		.eabi_attribute 5, "cortex-m55"
   9              		.eabi_attribute 28, 1
  10              		.eabi_attribute 20, 1
  11              		.eabi_attribute 21, 1
  12              		.eabi_attribute 23, 3
  13              		.eabi_attribute 24, 1
  14              		.eabi_attribute 25, 1
  15              		.eabi_attribute 26, 1
  16              		.eabi_attribute 30, 4
  17              		.eabi_attribute 34, 1
  18              		.eabi_attribute 38, 1
  19              		.eabi_attribute 18, 4
  20              		.file	"uvcl.c"
  21              		.text
  22              	.Ltext0:
  23              		.cfi_sections	.debug_frame
  24              		.file 1 "../Middlewares/screenl/uvcl/Src/uvcl.c"
  25              		.section	.rodata.compare_streams.str1.1,"aMS",%progbits,1
  26              	.LC0:
  27 0000 73312D3E 		.ascii	"s1->fps != s2->fps\000"
  27      66707320 
  27      213D2073 
  27      322D3E66 
  27      707300
  28              	.LC1:
  29 0013 2E2E2F4D 		.ascii	"../Middlewares/screenl/uvcl/Src/uvcl.c\000"
  29      6964646C 
  29      65776172 
  29      65732F73 
  29      63726565 
  30              		.section	.text.compare_streams,"ax",%progbits
  31              		.align	1
  32              		.syntax unified
  33              		.thumb
  34              		.thumb_func
  36              	compare_streams:
  37              	.LVL0:
  38              	.LFB897:
   1:../Middlewares/screenl/uvcl/Src/uvcl.c **** /**
   2:../Middlewares/screenl/uvcl/Src/uvcl.c ****  ******************************************************************************
   3:../Middlewares/screenl/uvcl/Src/uvcl.c ****  * @file    uvcl.c
   4:../Middlewares/screenl/uvcl/Src/uvcl.c ****  * @author  MDG Application Team
   5:../Middlewares/screenl/uvcl/Src/uvcl.c ****  ******************************************************************************
   6:../Middlewares/screenl/uvcl/Src/uvcl.c ****  * @attention
   7:../Middlewares/screenl/uvcl/Src/uvcl.c ****  *
   8:../Middlewares/screenl/uvcl/Src/uvcl.c ****  * Copyright (c) 2024 STMicroelectronics.
   9:../Middlewares/screenl/uvcl/Src/uvcl.c ****  * All rights reserved.
  10:../Middlewares/screenl/uvcl/Src/uvcl.c ****  *
  11:../Middlewares/screenl/uvcl/Src/uvcl.c ****  * This software is licensed under terms that can be found in the LICENSE file
  12:../Middlewares/screenl/uvcl/Src/uvcl.c ****  * in the root directory of this software component.
ARM GAS  /tmp/ccbJxyKS.s 			page 2


  13:../Middlewares/screenl/uvcl/Src/uvcl.c ****  * If no LICENSE file comes with this software, it is provided AS-IS.
  14:../Middlewares/screenl/uvcl/Src/uvcl.c ****  *
  15:../Middlewares/screenl/uvcl/Src/uvcl.c ****  ******************************************************************************
  16:../Middlewares/screenl/uvcl/Src/uvcl.c ****  */
  17:../Middlewares/screenl/uvcl/Src/uvcl.c **** 
  18:../Middlewares/screenl/uvcl/Src/uvcl.c **** #include "uvcl.h"
  19:../Middlewares/screenl/uvcl/Src/uvcl.c **** 
  20:../Middlewares/screenl/uvcl/Src/uvcl.c **** #include <assert.h>
  21:../Middlewares/screenl/uvcl/Src/uvcl.c **** #include <stdlib.h>
  22:../Middlewares/screenl/uvcl/Src/uvcl.c **** #include <string.h>
  23:../Middlewares/screenl/uvcl/Src/uvcl.c **** 
  24:../Middlewares/screenl/uvcl/Src/uvcl.c **** #include "uvcl_desc.h"
  25:../Middlewares/screenl/uvcl/Src/uvcl.c **** #include "uvcl_internal.h"
  26:../Middlewares/screenl/uvcl/Src/uvcl.c **** 
  27:../Middlewares/screenl/uvcl/Src/uvcl.c **** #ifdef UVC_LIB_USE_USBX
  28:../Middlewares/screenl/uvcl/Src/uvcl.c **** #include "uvcl_usbx.h"
  29:../Middlewares/screenl/uvcl/Src/uvcl.c **** #endif
  30:../Middlewares/screenl/uvcl/Src/uvcl.c **** #ifdef UVC_LIB_USE_STM32_USBD
  31:../Middlewares/screenl/uvcl/Src/uvcl.c **** #include "uvcl_stm32_usbd.h"
  32:../Middlewares/screenl/uvcl/Src/uvcl.c **** #endif
  33:../Middlewares/screenl/uvcl/Src/uvcl.c **** 
  34:../Middlewares/screenl/uvcl/Src/uvcl.c **** #ifndef MIN
  35:../Middlewares/screenl/uvcl/Src/uvcl.c **** #define MIN(a, b)  (((a) < (b)) ? (a) : (b))
  36:../Middlewares/screenl/uvcl/Src/uvcl.c **** #endif
  37:../Middlewares/screenl/uvcl/Src/uvcl.c **** 
  38:../Middlewares/screenl/uvcl/Src/uvcl.c **** #ifndef USB_REQ_SET_INTERFACE
  39:../Middlewares/screenl/uvcl/Src/uvcl.c **** #define USB_REQ_SET_INTERFACE 0x0BU
  40:../Middlewares/screenl/uvcl/Src/uvcl.c **** #endif
  41:../Middlewares/screenl/uvcl/Src/uvcl.c **** 
  42:../Middlewares/screenl/uvcl/Src/uvcl.c **** /* We want to be the owner so we can decide about location of this structure */
  43:../Middlewares/screenl/uvcl/Src/uvcl.c **** #ifdef UVC_LIB_USE_DMA
  44:../Middlewares/screenl/uvcl/Src/uvcl.c **** PCD_HandleTypeDef uvcl_pcd_handle UVCL_UNCACHED UVCL_ALIGN_32;
  45:../Middlewares/screenl/uvcl/Src/uvcl.c **** #else
  46:../Middlewares/screenl/uvcl/Src/uvcl.c **** PCD_HandleTypeDef uvcl_pcd_handle;
  47:../Middlewares/screenl/uvcl/Src/uvcl.c **** #endif
  48:../Middlewares/screenl/uvcl/Src/uvcl.c **** 
  49:../Middlewares/screenl/uvcl/Src/uvcl.c **** #if defined(UVC_LIB_USE_DMA) && defined(UVC_LIB_USE_STM32_USBD)
  50:../Middlewares/screenl/uvcl/Src/uvcl.c **** static uint8_t packet[UVC_ISO_HS_MPS] UVCL_UNCACHED UVCL_ALIGN_32;
  51:../Middlewares/screenl/uvcl/Src/uvcl.c **** #else
  52:../Middlewares/screenl/uvcl/Src/uvcl.c **** static uint8_t packet[UVC_ISO_HS_MPS];
  53:../Middlewares/screenl/uvcl/Src/uvcl.c **** #endif
  54:../Middlewares/screenl/uvcl/Src/uvcl.c **** 
  55:../Middlewares/screenl/uvcl/Src/uvcl.c **** static UVCL_Ctx_t ctx;
  56:../Middlewares/screenl/uvcl/Src/uvcl.c **** UVCL_Ctx_t *p_ctx_single;
  57:../Middlewares/screenl/uvcl/Src/uvcl.c **** 
  58:../Middlewares/screenl/uvcl/Src/uvcl.c **** static int UVCL_FpsOk(UVCL_Ctx_t *p_ctx)
  59:../Middlewares/screenl/uvcl/Src/uvcl.c **** {
  60:../Middlewares/screenl/uvcl/Src/uvcl.c ****   if (p_ctx->conf.is_immediate_mode)
  61:../Middlewares/screenl/uvcl/Src/uvcl.c ****     return 1;
  62:../Middlewares/screenl/uvcl/Src/uvcl.c **** 
  63:../Middlewares/screenl/uvcl/Src/uvcl.c ****   if (HAL_GetTick() - p_ctx->frame_start >= p_ctx->frame_period_in_ms)
  64:../Middlewares/screenl/uvcl/Src/uvcl.c ****   {
  65:../Middlewares/screenl/uvcl/Src/uvcl.c ****     return 1;
  66:../Middlewares/screenl/uvcl/Src/uvcl.c ****   }
  67:../Middlewares/screenl/uvcl/Src/uvcl.c **** 
  68:../Middlewares/screenl/uvcl/Src/uvcl.c ****   return 0;
  69:../Middlewares/screenl/uvcl/Src/uvcl.c **** }
ARM GAS  /tmp/ccbJxyKS.s 			page 3


  70:../Middlewares/screenl/uvcl/Src/uvcl.c **** 
  71:../Middlewares/screenl/uvcl/Src/uvcl.c **** static void UVCL_FillSentData(UVCL_Ctx_t *p_ctx, UVCL_OnFlyCtx_t *on_fly_ctx, uint8_t *p_frame, int
  72:../Middlewares/screenl/uvcl/Src/uvcl.c ****                              int packet_size)
  73:../Middlewares/screenl/uvcl/Src/uvcl.c **** {
  74:../Middlewares/screenl/uvcl/Src/uvcl.c ****   on_fly_ctx->packet_nb = (fsize + packet_size - 1) / (packet_size - 2);
  75:../Middlewares/screenl/uvcl/Src/uvcl.c ****   on_fly_ctx->last_packet_size = fsize % (packet_size - 2);
  76:../Middlewares/screenl/uvcl/Src/uvcl.c ****   if (!on_fly_ctx->last_packet_size)
  77:../Middlewares/screenl/uvcl/Src/uvcl.c ****   {
  78:../Middlewares/screenl/uvcl/Src/uvcl.c ****     on_fly_ctx->packet_nb--;
  79:../Middlewares/screenl/uvcl/Src/uvcl.c ****     on_fly_ctx->last_packet_size = packet_size - 2;
  80:../Middlewares/screenl/uvcl/Src/uvcl.c ****   }
  81:../Middlewares/screenl/uvcl/Src/uvcl.c ****   on_fly_ctx->p_frame = p_frame;
  82:../Middlewares/screenl/uvcl/Src/uvcl.c ****   on_fly_ctx->cursor = p_frame;
  83:../Middlewares/screenl/uvcl/Src/uvcl.c ****   p_ctx->packet[1] ^= 1;
  84:../Middlewares/screenl/uvcl/Src/uvcl.c **** 
  85:../Middlewares/screenl/uvcl/Src/uvcl.c ****   p_ctx->is_starting = 0;
  86:../Middlewares/screenl/uvcl/Src/uvcl.c ****   p_ctx->frame_start = HAL_GetTick();
  87:../Middlewares/screenl/uvcl/Src/uvcl.c **** }
  88:../Middlewares/screenl/uvcl/Src/uvcl.c **** 
  89:../Middlewares/screenl/uvcl/Src/uvcl.c **** static UVCL_OnFlyCtx_t *UVCL_StartSelectedRaw(UVCL_Ctx_t *p_ctx, int packet_size)
  90:../Middlewares/screenl/uvcl/Src/uvcl.c **** {
  91:../Middlewares/screenl/uvcl/Src/uvcl.c ****   UVCL_OnFlyCtx_t *on_fly_ctx = &p_ctx->on_fly_storage_ctx;
  92:../Middlewares/screenl/uvcl/Src/uvcl.c **** 
  93:../Middlewares/screenl/uvcl/Src/uvcl.c ****   on_fly_ctx->frame_index = -1;
  94:../Middlewares/screenl/uvcl/Src/uvcl.c ****   UVCL_FillSentData(p_ctx, on_fly_ctx, p_ctx->p_frame, p_ctx->frame_size, packet_size);
  95:../Middlewares/screenl/uvcl/Src/uvcl.c **** 
  96:../Middlewares/screenl/uvcl/Src/uvcl.c ****   __DMB();
  97:../Middlewares/screenl/uvcl/Src/uvcl.c ****   p_ctx->p_frame = NULL;
  98:../Middlewares/screenl/uvcl/Src/uvcl.c **** 
  99:../Middlewares/screenl/uvcl/Src/uvcl.c ****   return on_fly_ctx;
 100:../Middlewares/screenl/uvcl/Src/uvcl.c **** }
 101:../Middlewares/screenl/uvcl/Src/uvcl.c **** 
 102:../Middlewares/screenl/uvcl/Src/uvcl.c **** static int UVCL_handle_set_itf_setup_request(UVCL_Ctx_t *p_ctx, UVCL_SetupReq_t *req)
 103:../Middlewares/screenl/uvcl/Src/uvcl.c **** {
 104:../Middlewares/screenl/uvcl/Src/uvcl.c ****   uint16_t wIndex = req->wIndex;
 105:../Middlewares/screenl/uvcl/Src/uvcl.c ****   uint16_t wValue = req->wValue;
 106:../Middlewares/screenl/uvcl/Src/uvcl.c ****   int ret;
 107:../Middlewares/screenl/uvcl/Src/uvcl.c **** 
 108:../Middlewares/screenl/uvcl/Src/uvcl.c ****   /* Only handle control on vs itf */
 109:../Middlewares/screenl/uvcl/Src/uvcl.c ****   if (wIndex != 1)
 110:../Middlewares/screenl/uvcl/Src/uvcl.c ****     return -1;
 111:../Middlewares/screenl/uvcl/Src/uvcl.c **** 
 112:../Middlewares/screenl/uvcl/Src/uvcl.c ****   switch (wValue) {
 113:../Middlewares/screenl/uvcl/Src/uvcl.c ****   case 0:
 114:../Middlewares/screenl/uvcl/Src/uvcl.c ****     /* set alternate itf to zero => stop streaming */
 115:../Middlewares/screenl/uvcl/Src/uvcl.c ****     ret = req->stop_streaming(req->ctx);
 116:../Middlewares/screenl/uvcl/Src/uvcl.c ****     break;
 117:../Middlewares/screenl/uvcl/Src/uvcl.c ****   case 1:
 118:../Middlewares/screenl/uvcl/Src/uvcl.c ****     /* set alternate itf to one => start streaming */
 119:../Middlewares/screenl/uvcl/Src/uvcl.c ****     ret = req->start_streaming(req->ctx);
 120:../Middlewares/screenl/uvcl/Src/uvcl.c ****     break;
 121:../Middlewares/screenl/uvcl/Src/uvcl.c ****   default:
 122:../Middlewares/screenl/uvcl/Src/uvcl.c ****     assert(0);
 123:../Middlewares/screenl/uvcl/Src/uvcl.c ****     return -1;
 124:../Middlewares/screenl/uvcl/Src/uvcl.c ****   }
 125:../Middlewares/screenl/uvcl/Src/uvcl.c **** 
 126:../Middlewares/screenl/uvcl/Src/uvcl.c ****   return ret;
ARM GAS  /tmp/ccbJxyKS.s 			page 4


 127:../Middlewares/screenl/uvcl/Src/uvcl.c **** }
 128:../Middlewares/screenl/uvcl/Src/uvcl.c **** 
 129:../Middlewares/screenl/uvcl/Src/uvcl.c **** static int UVCL_handle_std_itf_setup_request(UVCL_Ctx_t *p_ctx, UVCL_SetupReq_t *req)
 130:../Middlewares/screenl/uvcl/Src/uvcl.c **** {
 131:../Middlewares/screenl/uvcl/Src/uvcl.c ****   int ret;
 132:../Middlewares/screenl/uvcl/Src/uvcl.c **** 
 133:../Middlewares/screenl/uvcl/Src/uvcl.c ****   switch (req->bRequest) {
 134:../Middlewares/screenl/uvcl/Src/uvcl.c ****   case USB_REQ_SET_INTERFACE:
 135:../Middlewares/screenl/uvcl/Src/uvcl.c ****     ret = UVCL_handle_set_itf_setup_request(p_ctx, req);
 136:../Middlewares/screenl/uvcl/Src/uvcl.c ****     break;
 137:../Middlewares/screenl/uvcl/Src/uvcl.c ****   default:
 138:../Middlewares/screenl/uvcl/Src/uvcl.c ****     assert(0);
 139:../Middlewares/screenl/uvcl/Src/uvcl.c ****     return -1;
 140:../Middlewares/screenl/uvcl/Src/uvcl.c ****   }
 141:../Middlewares/screenl/uvcl/Src/uvcl.c **** 
 142:../Middlewares/screenl/uvcl/Src/uvcl.c ****   return ret;
 143:../Middlewares/screenl/uvcl/Src/uvcl.c **** }
 144:../Middlewares/screenl/uvcl/Src/uvcl.c **** 
 145:../Middlewares/screenl/uvcl/Src/uvcl.c **** static int UVCL_handle_probe_control_get_request(UVCL_Ctx_t *p_ctx, UVCL_SetupReq_t *req)
 146:../Middlewares/screenl/uvcl/Src/uvcl.c **** {
 147:../Middlewares/screenl/uvcl/Src/uvcl.c ****   int format_idx = p_ctx->UVC_VideoProbeControl.bFormatIndex;
 148:../Middlewares/screenl/uvcl/Src/uvcl.c ****   int frame_idx = p_ctx->UVC_VideoProbeControl.bFrameIndex;
 149:../Middlewares/screenl/uvcl/Src/uvcl.c **** 
 150:../Middlewares/screenl/uvcl/Src/uvcl.c ****   p_ctx->UVC_VideoProbeControl.bmHint = 0;
 151:../Middlewares/screenl/uvcl/Src/uvcl.c ****   p_ctx->UVC_VideoProbeControl.dwMaxVideoFrameSize = UVCL_ComputedwMaxVideoFrameSize(p_ctx, format_
 152:../Middlewares/screenl/uvcl/Src/uvcl.c ****   p_ctx->UVC_VideoProbeControl.dwMaxPayloadTransferSize = req->dwMaxPayloadTransferSize;
 153:../Middlewares/screenl/uvcl/Src/uvcl.c ****   p_ctx->UVC_VideoProbeControl.dwClockFrequency = 48000000;
 154:../Middlewares/screenl/uvcl/Src/uvcl.c ****   /* should not zero but not clear what value is possible for uncompressed format */
 155:../Middlewares/screenl/uvcl/Src/uvcl.c ****   p_ctx->UVC_VideoProbeControl.bPreferedVersion = 0x00U;
 156:../Middlewares/screenl/uvcl/Src/uvcl.c ****   p_ctx->UVC_VideoProbeControl.bMinVersion = 0x00U;
 157:../Middlewares/screenl/uvcl/Src/uvcl.c ****   p_ctx->UVC_VideoProbeControl.bMaxVersion = 0x00U;
 158:../Middlewares/screenl/uvcl/Src/uvcl.c **** 
 159:../Middlewares/screenl/uvcl/Src/uvcl.c ****   return req->send_data(req->ctx, (uint8_t *)&p_ctx->UVC_VideoProbeControl,
 160:../Middlewares/screenl/uvcl/Src/uvcl.c ****                         MIN(req->wLength, sizeof(p_ctx->UVC_VideoProbeControl)));
 161:../Middlewares/screenl/uvcl/Src/uvcl.c **** }
 162:../Middlewares/screenl/uvcl/Src/uvcl.c **** 
 163:../Middlewares/screenl/uvcl/Src/uvcl.c **** static int UVCL_handle_probe_control_set_request(UVCL_Ctx_t *p_ctx, UVCL_SetupReq_t *req)
 164:../Middlewares/screenl/uvcl/Src/uvcl.c **** {
 165:../Middlewares/screenl/uvcl/Src/uvcl.c ****   return req->receive_data(req->ctx, (uint8_t *)&p_ctx->UVC_VideoProbeControl,
 166:../Middlewares/screenl/uvcl/Src/uvcl.c ****                            MIN(req->wLength, sizeof(p_ctx->UVC_VideoProbeControl)));
 167:../Middlewares/screenl/uvcl/Src/uvcl.c **** }
 168:../Middlewares/screenl/uvcl/Src/uvcl.c **** 
 169:../Middlewares/screenl/uvcl/Src/uvcl.c **** static int UVCL_handle_probe_control_request(UVCL_Ctx_t *p_ctx, UVCL_SetupReq_t *req)
 170:../Middlewares/screenl/uvcl/Src/uvcl.c **** {
 171:../Middlewares/screenl/uvcl/Src/uvcl.c ****   int ret;
 172:../Middlewares/screenl/uvcl/Src/uvcl.c **** 
 173:../Middlewares/screenl/uvcl/Src/uvcl.c ****   switch (req->bRequest) {
 174:../Middlewares/screenl/uvcl/Src/uvcl.c ****   case UVC_GET_DEF:
 175:../Middlewares/screenl/uvcl/Src/uvcl.c ****   case UVC_GET_MIN:
 176:../Middlewares/screenl/uvcl/Src/uvcl.c ****   case UVC_GET_MAX:
 177:../Middlewares/screenl/uvcl/Src/uvcl.c ****   case UVC_GET_CUR:
 178:../Middlewares/screenl/uvcl/Src/uvcl.c ****     ret = UVCL_handle_probe_control_get_request(p_ctx, req);
 179:../Middlewares/screenl/uvcl/Src/uvcl.c ****     break;
 180:../Middlewares/screenl/uvcl/Src/uvcl.c ****   case UVC_SET_CUR:
 181:../Middlewares/screenl/uvcl/Src/uvcl.c ****     ret = UVCL_handle_probe_control_set_request(p_ctx, req);
 182:../Middlewares/screenl/uvcl/Src/uvcl.c ****     break;
 183:../Middlewares/screenl/uvcl/Src/uvcl.c ****   default:
ARM GAS  /tmp/ccbJxyKS.s 			page 5


 184:../Middlewares/screenl/uvcl/Src/uvcl.c ****     assert(0);
 185:../Middlewares/screenl/uvcl/Src/uvcl.c ****     return -1;
 186:../Middlewares/screenl/uvcl/Src/uvcl.c ****   }
 187:../Middlewares/screenl/uvcl/Src/uvcl.c **** 
 188:../Middlewares/screenl/uvcl/Src/uvcl.c ****   return ret;
 189:../Middlewares/screenl/uvcl/Src/uvcl.c **** }
 190:../Middlewares/screenl/uvcl/Src/uvcl.c **** 
 191:../Middlewares/screenl/uvcl/Src/uvcl.c **** static int UVCL_handle_probe_commit_set_request(UVCL_Ctx_t *p_ctx, UVCL_SetupReq_t *req)
 192:../Middlewares/screenl/uvcl/Src/uvcl.c **** {
 193:../Middlewares/screenl/uvcl/Src/uvcl.c ****   return req->receive_data(req->ctx, (uint8_t *)&p_ctx->UVC_VideoCommitControl,
 194:../Middlewares/screenl/uvcl/Src/uvcl.c ****                            MIN(req->wLength, sizeof(p_ctx->UVC_VideoCommitControl)));
 195:../Middlewares/screenl/uvcl/Src/uvcl.c **** }
 196:../Middlewares/screenl/uvcl/Src/uvcl.c **** 
 197:../Middlewares/screenl/uvcl/Src/uvcl.c **** static int UVCL_handle_commit_control_request(UVCL_Ctx_t *p_ctx, UVCL_SetupReq_t *req)
 198:../Middlewares/screenl/uvcl/Src/uvcl.c **** {
 199:../Middlewares/screenl/uvcl/Src/uvcl.c ****   int ret;
 200:../Middlewares/screenl/uvcl/Src/uvcl.c **** 
 201:../Middlewares/screenl/uvcl/Src/uvcl.c ****   switch (req->bRequest) {
 202:../Middlewares/screenl/uvcl/Src/uvcl.c ****   case UVC_SET_CUR:
 203:../Middlewares/screenl/uvcl/Src/uvcl.c ****     ret = UVCL_handle_probe_commit_set_request(p_ctx, req);
 204:../Middlewares/screenl/uvcl/Src/uvcl.c ****     break;
 205:../Middlewares/screenl/uvcl/Src/uvcl.c ****   default:
 206:../Middlewares/screenl/uvcl/Src/uvcl.c ****     assert(0);
 207:../Middlewares/screenl/uvcl/Src/uvcl.c ****     return -1;
 208:../Middlewares/screenl/uvcl/Src/uvcl.c ****   }
 209:../Middlewares/screenl/uvcl/Src/uvcl.c **** 
 210:../Middlewares/screenl/uvcl/Src/uvcl.c ****   return ret;
 211:../Middlewares/screenl/uvcl/Src/uvcl.c **** }
 212:../Middlewares/screenl/uvcl/Src/uvcl.c **** 
 213:../Middlewares/screenl/uvcl/Src/uvcl.c **** static int UVCL_handle_class_itf_setup_request(UVCL_Ctx_t *p_ctx, UVCL_SetupReq_t *req)
 214:../Middlewares/screenl/uvcl/Src/uvcl.c **** {
 215:../Middlewares/screenl/uvcl/Src/uvcl.c ****   int itf_nb = req->wIndex;
 216:../Middlewares/screenl/uvcl/Src/uvcl.c ****   int cs = req->wValue >> 8;
 217:../Middlewares/screenl/uvcl/Src/uvcl.c ****   int ret;
 218:../Middlewares/screenl/uvcl/Src/uvcl.c **** 
 219:../Middlewares/screenl/uvcl/Src/uvcl.c ****   /* no control for vc itf */
 220:../Middlewares/screenl/uvcl/Src/uvcl.c ****   if (!itf_nb)
 221:../Middlewares/screenl/uvcl/Src/uvcl.c ****     return -1;
 222:../Middlewares/screenl/uvcl/Src/uvcl.c **** 
 223:../Middlewares/screenl/uvcl/Src/uvcl.c ****   switch (cs) {
 224:../Middlewares/screenl/uvcl/Src/uvcl.c ****   case VS_PROBE_CONTROL_CS:
 225:../Middlewares/screenl/uvcl/Src/uvcl.c ****     ret = UVCL_handle_probe_control_request(p_ctx, req);
 226:../Middlewares/screenl/uvcl/Src/uvcl.c ****     break;
 227:../Middlewares/screenl/uvcl/Src/uvcl.c ****   case VS_COMMIT_CONTROL_CS:
 228:../Middlewares/screenl/uvcl/Src/uvcl.c ****     ret = UVCL_handle_commit_control_request(p_ctx, req);
 229:../Middlewares/screenl/uvcl/Src/uvcl.c ****     break;
 230:../Middlewares/screenl/uvcl/Src/uvcl.c ****   default:
 231:../Middlewares/screenl/uvcl/Src/uvcl.c ****     assert(0);
 232:../Middlewares/screenl/uvcl/Src/uvcl.c ****     return -1;
 233:../Middlewares/screenl/uvcl/Src/uvcl.c ****   }
 234:../Middlewares/screenl/uvcl/Src/uvcl.c **** 
 235:../Middlewares/screenl/uvcl/Src/uvcl.c ****   return ret;
 236:../Middlewares/screenl/uvcl/Src/uvcl.c **** }
 237:../Middlewares/screenl/uvcl/Src/uvcl.c **** 
 238:../Middlewares/screenl/uvcl/Src/uvcl.c **** static int UVCL_handle_itf_setup_request(UVCL_Ctx_t *p_ctx, UVCL_SetupReq_t *req)
 239:../Middlewares/screenl/uvcl/Src/uvcl.c **** {
 240:../Middlewares/screenl/uvcl/Src/uvcl.c ****   int ret;
ARM GAS  /tmp/ccbJxyKS.s 			page 6


 241:../Middlewares/screenl/uvcl/Src/uvcl.c **** 
 242:../Middlewares/screenl/uvcl/Src/uvcl.c ****   switch (req->bmRequestType & USB_REQ_TYPE_MASK) {
 243:../Middlewares/screenl/uvcl/Src/uvcl.c ****   case USB_REQ_TYPE_STANDARD:
 244:../Middlewares/screenl/uvcl/Src/uvcl.c ****     ret = UVCL_handle_std_itf_setup_request(p_ctx, req);
 245:../Middlewares/screenl/uvcl/Src/uvcl.c ****     break;
 246:../Middlewares/screenl/uvcl/Src/uvcl.c ****   case USB_REQ_TYPE_CLASS:
 247:../Middlewares/screenl/uvcl/Src/uvcl.c ****     ret = UVCL_handle_class_itf_setup_request(p_ctx, req);
 248:../Middlewares/screenl/uvcl/Src/uvcl.c ****     break;
 249:../Middlewares/screenl/uvcl/Src/uvcl.c ****   default:
 250:../Middlewares/screenl/uvcl/Src/uvcl.c ****     assert(0);
 251:../Middlewares/screenl/uvcl/Src/uvcl.c ****     return -1;
 252:../Middlewares/screenl/uvcl/Src/uvcl.c ****   }
 253:../Middlewares/screenl/uvcl/Src/uvcl.c **** 
 254:../Middlewares/screenl/uvcl/Src/uvcl.c ****   return ret;
 255:../Middlewares/screenl/uvcl/Src/uvcl.c **** }
 256:../Middlewares/screenl/uvcl/Src/uvcl.c **** 
 257:../Middlewares/screenl/uvcl/Src/uvcl.c **** static int UVCL_usb_init(PCD_HandleTypeDef *pcd_handle, PCD_TypeDef *pcd_instance)
 258:../Middlewares/screenl/uvcl/Src/uvcl.c **** {
 259:../Middlewares/screenl/uvcl/Src/uvcl.c ****   RCC_OscInitTypeDef RCC_OscInitStruct = { 0 };
 260:../Middlewares/screenl/uvcl/Src/uvcl.c ****   int ret;
 261:../Middlewares/screenl/uvcl/Src/uvcl.c **** 
 262:../Middlewares/screenl/uvcl/Src/uvcl.c ****   /* First be sure HSE is turn on */
 263:../Middlewares/screenl/uvcl/Src/uvcl.c ****   RCC_OscInitStruct.OscillatorType = RCC_OSCILLATORTYPE_HSE;
 264:../Middlewares/screenl/uvcl/Src/uvcl.c ****   RCC_OscInitStruct.HSEState = RCC_HSE_ON;
 265:../Middlewares/screenl/uvcl/Src/uvcl.c ****   ret = HAL_RCC_OscConfig(&RCC_OscInitStruct);
 266:../Middlewares/screenl/uvcl/Src/uvcl.c ****   if (ret)
 267:../Middlewares/screenl/uvcl/Src/uvcl.c ****     return ret;
 268:../Middlewares/screenl/uvcl/Src/uvcl.c **** 
 269:../Middlewares/screenl/uvcl/Src/uvcl.c ****   /* configure usb */
 270:../Middlewares/screenl/uvcl/Src/uvcl.c ****   memset(pcd_handle, 0 , sizeof(*pcd_handle));
 271:../Middlewares/screenl/uvcl/Src/uvcl.c ****   pcd_handle->Instance = pcd_instance;
 272:../Middlewares/screenl/uvcl/Src/uvcl.c ****   pcd_handle->Init.dev_endpoints = 9;
 273:../Middlewares/screenl/uvcl/Src/uvcl.c ****   pcd_handle->Init.speed = PCD_SPEED_HIGH;
 274:../Middlewares/screenl/uvcl/Src/uvcl.c **** #ifdef UVC_LIB_USE_DMA
 275:../Middlewares/screenl/uvcl/Src/uvcl.c ****   pcd_handle->Init.dma_enable = ENABLE;
 276:../Middlewares/screenl/uvcl/Src/uvcl.c **** #else
 277:../Middlewares/screenl/uvcl/Src/uvcl.c ****   pcd_handle->Init.dma_enable = DISABLE;
 278:../Middlewares/screenl/uvcl/Src/uvcl.c **** #endif
 279:../Middlewares/screenl/uvcl/Src/uvcl.c ****   pcd_handle->Init.phy_itface = USB_OTG_HS_EMBEDDED_PHY;
 280:../Middlewares/screenl/uvcl/Src/uvcl.c **** #ifdef UVC_LIB_USE_SOF
 281:../Middlewares/screenl/uvcl/Src/uvcl.c ****   pcd_handle->Init.Sof_enable = ENABLE;
 282:../Middlewares/screenl/uvcl/Src/uvcl.c **** #else
 283:../Middlewares/screenl/uvcl/Src/uvcl.c ****   pcd_handle->Init.Sof_enable = DISABLE;
 284:../Middlewares/screenl/uvcl/Src/uvcl.c **** #endif
 285:../Middlewares/screenl/uvcl/Src/uvcl.c ****   pcd_handle->Init.low_power_enable = DISABLE;
 286:../Middlewares/screenl/uvcl/Src/uvcl.c ****   pcd_handle->Init.lpm_enable = DISABLE;
 287:../Middlewares/screenl/uvcl/Src/uvcl.c ****   pcd_handle->Init.vbus_sensing_enable = DISABLE;
 288:../Middlewares/screenl/uvcl/Src/uvcl.c ****   pcd_handle->Init.use_dedicated_ep1 = DISABLE;
 289:../Middlewares/screenl/uvcl/Src/uvcl.c ****   pcd_handle->Init.use_external_vbus = DISABLE;
 290:../Middlewares/screenl/uvcl/Src/uvcl.c ****   ret = HAL_PCD_Init(pcd_handle);
 291:../Middlewares/screenl/uvcl/Src/uvcl.c ****   if (ret)
 292:../Middlewares/screenl/uvcl/Src/uvcl.c ****     return ret;
 293:../Middlewares/screenl/uvcl/Src/uvcl.c **** 
 294:../Middlewares/screenl/uvcl/Src/uvcl.c ****   HAL_PCDEx_SetRxFiFo(pcd_handle, 0x80);
 295:../Middlewares/screenl/uvcl/Src/uvcl.c ****   HAL_PCDEx_SetTxFiFo(pcd_handle, 0, 0x10);
 296:../Middlewares/screenl/uvcl/Src/uvcl.c ****   HAL_PCDEx_SetTxFiFo(pcd_handle, 1, 0x300);
 297:../Middlewares/screenl/uvcl/Src/uvcl.c **** 
ARM GAS  /tmp/ccbJxyKS.s 			page 7


 298:../Middlewares/screenl/uvcl/Src/uvcl.c ****   return 0;
 299:../Middlewares/screenl/uvcl/Src/uvcl.c **** }
 300:../Middlewares/screenl/uvcl/Src/uvcl.c **** 
 301:../Middlewares/screenl/uvcl/Src/uvcl.c **** static int UVCL_cbs_check(UVCL_Callbacks_t *cbs)
 302:../Middlewares/screenl/uvcl/Src/uvcl.c **** {
 303:../Middlewares/screenl/uvcl/Src/uvcl.c ****   if (!cbs)
 304:../Middlewares/screenl/uvcl/Src/uvcl.c ****     return -1;
 305:../Middlewares/screenl/uvcl/Src/uvcl.c **** 
 306:../Middlewares/screenl/uvcl/Src/uvcl.c ****   if (!cbs->frame_release)
 307:../Middlewares/screenl/uvcl/Src/uvcl.c ****     return -1;
 308:../Middlewares/screenl/uvcl/Src/uvcl.c **** 
 309:../Middlewares/screenl/uvcl/Src/uvcl.c ****   return 0;
 310:../Middlewares/screenl/uvcl/Src/uvcl.c **** }
 311:../Middlewares/screenl/uvcl/Src/uvcl.c **** 
 312:../Middlewares/screenl/uvcl/Src/uvcl.c **** static int UVCL_stream_check(UVCL_StreamConf_t *stream)
 313:../Middlewares/screenl/uvcl/Src/uvcl.c **** {
 314:../Middlewares/screenl/uvcl/Src/uvcl.c ****   if (stream->width <= 0 || stream->height <= 0 || stream->fps <= 0)
 315:../Middlewares/screenl/uvcl/Src/uvcl.c ****     return -1;
 316:../Middlewares/screenl/uvcl/Src/uvcl.c **** 
 317:../Middlewares/screenl/uvcl/Src/uvcl.c ****   if (stream->payload_type != UVCL_PAYLOAD_UNCOMPRESSED_YUY2 &&
 318:../Middlewares/screenl/uvcl/Src/uvcl.c ****       stream->payload_type != UVCL_PAYLOAD_FB_RGB565 &&
 319:../Middlewares/screenl/uvcl/Src/uvcl.c ****       stream->payload_type != UVCL_PAYLOAD_FB_GREY &&
 320:../Middlewares/screenl/uvcl/Src/uvcl.c ****       stream->payload_type != UVCL_PAYLOAD_JPEG &&
 321:../Middlewares/screenl/uvcl/Src/uvcl.c ****       stream->payload_type != UVCL_PAYLOAD_FB_H264 &&
 322:../Middlewares/screenl/uvcl/Src/uvcl.c ****       stream->payload_type != UVCL_PAYLOAD_FB_BGR3 &&
 323:../Middlewares/screenl/uvcl/Src/uvcl.c ****       stream->payload_type != UVCL_PAYLOAD_FB_JPEG &&
 324:../Middlewares/screenl/uvcl/Src/uvcl.c ****       stream->payload_type != UVCL_PAYLOAD_FB_GREY_D3DFMT_L8
 325:../Middlewares/screenl/uvcl/Src/uvcl.c ****       )
 326:../Middlewares/screenl/uvcl/Src/uvcl.c ****     return -1;
 327:../Middlewares/screenl/uvcl/Src/uvcl.c **** 
 328:../Middlewares/screenl/uvcl/Src/uvcl.c ****   return 0;
 329:../Middlewares/screenl/uvcl/Src/uvcl.c **** }
 330:../Middlewares/screenl/uvcl/Src/uvcl.c **** 
 331:../Middlewares/screenl/uvcl/Src/uvcl.c **** static int UVCL_conf_check(UVCL_Conf_t *conf)
 332:../Middlewares/screenl/uvcl/Src/uvcl.c **** {
 333:../Middlewares/screenl/uvcl/Src/uvcl.c ****   int ret;
 334:../Middlewares/screenl/uvcl/Src/uvcl.c ****   int i;
 335:../Middlewares/screenl/uvcl/Src/uvcl.c **** 
 336:../Middlewares/screenl/uvcl/Src/uvcl.c ****   if (!conf)
 337:../Middlewares/screenl/uvcl/Src/uvcl.c ****     return -1;
 338:../Middlewares/screenl/uvcl/Src/uvcl.c **** 
 339:../Middlewares/screenl/uvcl/Src/uvcl.c ****   if (conf->streams_nb <= 0 || conf->streams_nb > UVCL_MAX_STREAM_CONF_NB)
 340:../Middlewares/screenl/uvcl/Src/uvcl.c ****     return -1;
 341:../Middlewares/screenl/uvcl/Src/uvcl.c **** 
 342:../Middlewares/screenl/uvcl/Src/uvcl.c ****   for (i = 0; i < conf->streams_nb; i++) {
 343:../Middlewares/screenl/uvcl/Src/uvcl.c ****     ret = UVCL_stream_check(&conf->streams[i]);
 344:../Middlewares/screenl/uvcl/Src/uvcl.c ****     if (ret)
 345:../Middlewares/screenl/uvcl/Src/uvcl.c ****       return ret;
 346:../Middlewares/screenl/uvcl/Src/uvcl.c ****   }
 347:../Middlewares/screenl/uvcl/Src/uvcl.c **** 
 348:../Middlewares/screenl/uvcl/Src/uvcl.c ****   return 0;
 349:../Middlewares/screenl/uvcl/Src/uvcl.c **** }
 350:../Middlewares/screenl/uvcl/Src/uvcl.c **** 
 351:../Middlewares/screenl/uvcl/Src/uvcl.c **** static int compare_streams(const void *p1, const void *p2)
 352:../Middlewares/screenl/uvcl/Src/uvcl.c **** {
  39              		.loc 1 352 1 view -0
  40              		.cfi_startproc
ARM GAS  /tmp/ccbJxyKS.s 			page 8


  41              		@ args = 0, pretend = 0, frame = 0
  42              		@ frame_needed = 0, uses_anonymous_args = 0
 353:../Middlewares/screenl/uvcl/Src/uvcl.c ****   UVCL_StreamConf_t *s1 = (UVCL_StreamConf_t *) p1;
  43              		.loc 1 353 3 view .LVU1
 354:../Middlewares/screenl/uvcl/Src/uvcl.c ****   UVCL_StreamConf_t *s2 = (UVCL_StreamConf_t *) p2;
  44              		.loc 1 354 3 view .LVU2
 355:../Middlewares/screenl/uvcl/Src/uvcl.c **** 
 356:../Middlewares/screenl/uvcl/Src/uvcl.c ****   if (s1->payload_type != s2->payload_type)
  45              		.loc 1 356 3 view .LVU3
 352:../Middlewares/screenl/uvcl/Src/uvcl.c ****   UVCL_StreamConf_t *s1 = (UVCL_StreamConf_t *) p1;
  46              		.loc 1 352 1 is_stmt 0 view .LVU4
  47 0000 08B5     		push	{r3, lr}
  48              		.cfi_def_cfa_offset 8
  49              		.cfi_offset 3, -8
  50              		.cfi_offset 14, -4
  51              		.loc 1 356 29 view .LVU5
  52 0002 0A68     		ldr	r2, [r1]
  53              		.loc 1 356 9 view .LVU6
  54 0004 0368     		ldr	r3, [r0]
  55              		.loc 1 356 6 view .LVU7
  56 0006 9342     		cmp	r3, r2
  57 0008 01D0     		beq	.L2
  58              	.L7:
 357:../Middlewares/screenl/uvcl/Src/uvcl.c ****     return s1->payload_type - s2->payload_type;
 358:../Middlewares/screenl/uvcl/Src/uvcl.c **** 
 359:../Middlewares/screenl/uvcl/Src/uvcl.c ****   if (s1->width != s2->width)
 360:../Middlewares/screenl/uvcl/Src/uvcl.c ****     return s1->width - s2->width;
 361:../Middlewares/screenl/uvcl/Src/uvcl.c **** 
 362:../Middlewares/screenl/uvcl/Src/uvcl.c ****   if (s1->height != s2->height)
 363:../Middlewares/screenl/uvcl/Src/uvcl.c ****     return s1->height - s2->height;
  59              		.loc 1 363 5 is_stmt 1 view .LVU8
  60              		.loc 1 363 23 is_stmt 0 view .LVU9
  61 000a 981A     		subs	r0, r3, r2
  62              	.LVL1:
  63              	.L1:
 364:../Middlewares/screenl/uvcl/Src/uvcl.c **** 
 365:../Middlewares/screenl/uvcl/Src/uvcl.c ****   assert(s1->fps != s2->fps);
 366:../Middlewares/screenl/uvcl/Src/uvcl.c **** 
 367:../Middlewares/screenl/uvcl/Src/uvcl.c ****   return s1->fps - s2->fps;
 368:../Middlewares/screenl/uvcl/Src/uvcl.c **** }
  64              		.loc 1 368 1 view .LVU10
  65 000c 08BD     		pop	{r3, pc}
  66              	.LVL2:
  67              	.L2:
 359:../Middlewares/screenl/uvcl/Src/uvcl.c ****     return s1->width - s2->width;
  68              		.loc 1 359 3 is_stmt 1 view .LVU11
 359:../Middlewares/screenl/uvcl/Src/uvcl.c ****     return s1->width - s2->width;
  69              		.loc 1 359 9 is_stmt 0 view .LVU12
  70 000e 4368     		ldr	r3, [r0, #4]
 359:../Middlewares/screenl/uvcl/Src/uvcl.c ****     return s1->width - s2->width;
  71              		.loc 1 359 22 view .LVU13
  72 0010 4A68     		ldr	r2, [r1, #4]
 359:../Middlewares/screenl/uvcl/Src/uvcl.c ****     return s1->width - s2->width;
  73              		.loc 1 359 6 view .LVU14
  74 0012 9342     		cmp	r3, r2
  75 0014 F9D1     		bne	.L7
 362:../Middlewares/screenl/uvcl/Src/uvcl.c ****     return s1->height - s2->height;
ARM GAS  /tmp/ccbJxyKS.s 			page 9


  76              		.loc 1 362 3 is_stmt 1 view .LVU15
 362:../Middlewares/screenl/uvcl/Src/uvcl.c ****     return s1->height - s2->height;
  77              		.loc 1 362 9 is_stmt 0 view .LVU16
  78 0016 8368     		ldr	r3, [r0, #8]
 362:../Middlewares/screenl/uvcl/Src/uvcl.c ****     return s1->height - s2->height;
  79              		.loc 1 362 23 view .LVU17
  80 0018 8A68     		ldr	r2, [r1, #8]
 362:../Middlewares/screenl/uvcl/Src/uvcl.c ****     return s1->height - s2->height;
  81              		.loc 1 362 6 view .LVU18
  82 001a 9342     		cmp	r3, r2
  83 001c F5D1     		bne	.L7
 365:../Middlewares/screenl/uvcl/Src/uvcl.c **** 
  84              		.loc 1 365 3 is_stmt 1 view .LVU19
  85 001e C268     		ldr	r2, [r0, #12]
  86 0020 CB68     		ldr	r3, [r1, #12]
  87 0022 9A42     		cmp	r2, r3
 367:../Middlewares/screenl/uvcl/Src/uvcl.c **** }
  88              		.loc 1 367 18 is_stmt 0 view .LVU20
  89 0024 A2EB0300 		sub	r0, r2, r3
  90              	.LVL3:
 365:../Middlewares/screenl/uvcl/Src/uvcl.c **** 
  91              		.loc 1 365 3 view .LVU21
  92 0028 F0D1     		bne	.L1
  93              	.LBB8:
  94              	.LBI8:
 351:../Middlewares/screenl/uvcl/Src/uvcl.c **** {
  95              		.loc 1 351 12 is_stmt 1 view .LVU22
  96              	.LVL4:
  97              	.LBB9:
 365:../Middlewares/screenl/uvcl/Src/uvcl.c **** 
  98              		.loc 1 365 3 is_stmt 0 discriminator 1 view .LVU23
  99 002a 40F26D11 		movw	r1, #365
 100              	.LVL5:
 365:../Middlewares/screenl/uvcl/Src/uvcl.c **** 
 101              		.loc 1 365 3 discriminator 1 view .LVU24
 102 002e 024B     		ldr	r3, .L8
 103 0030 024A     		ldr	r2, .L8+4
 104 0032 0348     		ldr	r0, .L8+8
 105 0034 FFF7FEFF 		bl	__assert_func
 106              	.LVL6:
 107              	.L9:
 108              		.align	2
 109              	.L8:
 110 0038 00000000 		.word	.LC0
 111 003c 00000000 		.word	__func__.1
 112 0040 13000000 		.word	.LC1
 113              	.LBE9:
 114              	.LBE8:
 115              		.cfi_endproc
 116              	.LFE897:
 118              		.section	.text.UVCL_StartNewFrameTransmission,"ax",%progbits
 119              		.align	1
 120              		.global	UVCL_StartNewFrameTransmission
 121              		.syntax unified
 122              		.thumb
 123              		.thumb_func
 125              	UVCL_StartNewFrameTransmission:
ARM GAS  /tmp/ccbJxyKS.s 			page 10


 126              	.LVL7:
 127              	.LFB902:
 369:../Middlewares/screenl/uvcl/Src/uvcl.c **** 
 370:../Middlewares/screenl/uvcl/Src/uvcl.c **** static void UVCL_conf_reorder_streams(UVCL_Conf_t *conf)
 371:../Middlewares/screenl/uvcl/Src/uvcl.c **** {
 372:../Middlewares/screenl/uvcl/Src/uvcl.c ****   qsort(conf->streams, conf->streams_nb, sizeof(UVCL_StreamConf_t),
 373:../Middlewares/screenl/uvcl/Src/uvcl.c ****           compare_streams);
 374:../Middlewares/screenl/uvcl/Src/uvcl.c **** }
 375:../Middlewares/screenl/uvcl/Src/uvcl.c **** 
 376:../Middlewares/screenl/uvcl/Src/uvcl.c **** static void UVCL_vc_init(UVC_VideoControlTypeDef *vc, int fps)
 377:../Middlewares/screenl/uvcl/Src/uvcl.c **** {
 378:../Middlewares/screenl/uvcl/Src/uvcl.c ****   vc->bmHint = 0x0000U;
 379:../Middlewares/screenl/uvcl/Src/uvcl.c ****   vc->bFormatIndex = 0x01U;
 380:../Middlewares/screenl/uvcl/Src/uvcl.c ****   vc->bFrameIndex = 0x01U;
 381:../Middlewares/screenl/uvcl/Src/uvcl.c ****   vc->dwFrameInterval = UVC_INTERVAL(fps);
 382:../Middlewares/screenl/uvcl/Src/uvcl.c ****   vc->wKeyFrameRate = 0x0000U;
 383:../Middlewares/screenl/uvcl/Src/uvcl.c ****   vc->wPFrameRate = 0x0000U;
 384:../Middlewares/screenl/uvcl/Src/uvcl.c ****   vc->wCompQuality = 0x0000U;
 385:../Middlewares/screenl/uvcl/Src/uvcl.c ****   vc->wCompWindowSize = 0x0000U;
 386:../Middlewares/screenl/uvcl/Src/uvcl.c ****   vc->wDelay = 0x0000U;
 387:../Middlewares/screenl/uvcl/Src/uvcl.c ****   vc->dwMaxVideoFrameSize = 0x0000U;
 388:../Middlewares/screenl/uvcl/Src/uvcl.c ****   vc->dwMaxPayloadTransferSize = 0x00000000U;
 389:../Middlewares/screenl/uvcl/Src/uvcl.c ****   vc->dwClockFrequency = 0x00000000U;
 390:../Middlewares/screenl/uvcl/Src/uvcl.c ****   vc->bmFramingInfo = 0x00U;
 391:../Middlewares/screenl/uvcl/Src/uvcl.c ****   vc->bPreferedVersion = 0x00U;
 392:../Middlewares/screenl/uvcl/Src/uvcl.c ****   vc->bMinVersion = 0x00U;
 393:../Middlewares/screenl/uvcl/Src/uvcl.c ****   vc->bMaxVersion = 0x00U;
 394:../Middlewares/screenl/uvcl/Src/uvcl.c **** }
 395:../Middlewares/screenl/uvcl/Src/uvcl.c **** 
 396:../Middlewares/screenl/uvcl/Src/uvcl.c **** static void UVCL_ctx_init_streams_p(UVCL_Ctx_t *p_ctx)
 397:../Middlewares/screenl/uvcl/Src/uvcl.c **** {
 398:../Middlewares/screenl/uvcl/Src/uvcl.c ****   uint8_t bFormatIndex = 1;
 399:../Middlewares/screenl/uvcl/Src/uvcl.c ****   uint8_t bFrameIndex = 1;
 400:../Middlewares/screenl/uvcl/Src/uvcl.c ****   int i;
 401:../Middlewares/screenl/uvcl/Src/uvcl.c **** 
 402:../Middlewares/screenl/uvcl/Src/uvcl.c ****   p_ctx->streams_p[0].bFormatIndex = bFormatIndex;
 403:../Middlewares/screenl/uvcl/Src/uvcl.c ****   p_ctx->streams_p[0].bFrameIndex = bFrameIndex;
 404:../Middlewares/screenl/uvcl/Src/uvcl.c ****   p_ctx->streams_p[0].dwFrameInterval = UVC_INTERVAL(p_ctx->conf.streams[0].fps);
 405:../Middlewares/screenl/uvcl/Src/uvcl.c **** 
 406:../Middlewares/screenl/uvcl/Src/uvcl.c ****   for (i = 1; i < p_ctx->conf.streams_nb; i++) {
 407:../Middlewares/screenl/uvcl/Src/uvcl.c ****     UVCL_StreamConf_t *prev =  &p_ctx->conf.streams[i - 1];
 408:../Middlewares/screenl/uvcl/Src/uvcl.c ****     UVCL_StreamConf_t *current =  &p_ctx->conf.streams[i];
 409:../Middlewares/screenl/uvcl/Src/uvcl.c **** 
 410:../Middlewares/screenl/uvcl/Src/uvcl.c ****     if (prev->payload_type != current->payload_type) {
 411:../Middlewares/screenl/uvcl/Src/uvcl.c ****       bFormatIndex += 1;
 412:../Middlewares/screenl/uvcl/Src/uvcl.c ****       bFrameIndex = 1;
 413:../Middlewares/screenl/uvcl/Src/uvcl.c ****     } else if (prev->width != current->width || prev->height != current->height) {
 414:../Middlewares/screenl/uvcl/Src/uvcl.c ****       bFrameIndex += 1;
 415:../Middlewares/screenl/uvcl/Src/uvcl.c ****     }
 416:../Middlewares/screenl/uvcl/Src/uvcl.c **** 
 417:../Middlewares/screenl/uvcl/Src/uvcl.c ****     p_ctx->streams_p[i].bFormatIndex = bFormatIndex;
 418:../Middlewares/screenl/uvcl/Src/uvcl.c ****     p_ctx->streams_p[i].bFrameIndex = bFrameIndex;
 419:../Middlewares/screenl/uvcl/Src/uvcl.c ****     p_ctx->streams_p[i].dwFrameInterval = UVC_INTERVAL(current->fps);
 420:../Middlewares/screenl/uvcl/Src/uvcl.c ****   }
 421:../Middlewares/screenl/uvcl/Src/uvcl.c **** }
 422:../Middlewares/screenl/uvcl/Src/uvcl.c **** 
 423:../Middlewares/screenl/uvcl/Src/uvcl.c **** static void UVCL_ctx_init(UVCL_Ctx_t *p_ctx, UVCL_Conf_t *conf, UVCL_Callbacks_t *cbs)
ARM GAS  /tmp/ccbJxyKS.s 			page 11


 424:../Middlewares/screenl/uvcl/Src/uvcl.c **** {
 425:../Middlewares/screenl/uvcl/Src/uvcl.c ****   p_ctx->conf = *conf;
 426:../Middlewares/screenl/uvcl/Src/uvcl.c ****   p_ctx->cbs = cbs;
 427:../Middlewares/screenl/uvcl/Src/uvcl.c ****   p_ctx->buffer_nb = USBX_BUFFER_NB;
 428:../Middlewares/screenl/uvcl/Src/uvcl.c ****   p_ctx->packet = packet;
 429:../Middlewares/screenl/uvcl/Src/uvcl.c ****   p_ctx->frame_period_in_ms = 1000 / conf->streams[0].fps;
 430:../Middlewares/screenl/uvcl/Src/uvcl.c ****   UVCL_ctx_init_streams_p(p_ctx);
 431:../Middlewares/screenl/uvcl/Src/uvcl.c ****   UVCL_vc_init(&p_ctx->UVC_VideoCommitControl, conf->streams[0].fps);
 432:../Middlewares/screenl/uvcl/Src/uvcl.c ****   UVCL_vc_init(&p_ctx->UVC_VideoProbeControl, conf->streams[0].fps);
 433:../Middlewares/screenl/uvcl/Src/uvcl.c **** 
 434:../Middlewares/screenl/uvcl/Src/uvcl.c ****   p_ctx_single = p_ctx;
 435:../Middlewares/screenl/uvcl/Src/uvcl.c **** }
 436:../Middlewares/screenl/uvcl/Src/uvcl.c **** 
 437:../Middlewares/screenl/uvcl/Src/uvcl.c **** /* internal API for common code */
 438:../Middlewares/screenl/uvcl/Src/uvcl.c **** UVCL_OnFlyCtx_t *UVCL_StartNewFrameTransmission(UVCL_Ctx_t *p_ctx, int packet_size)
 439:../Middlewares/screenl/uvcl/Src/uvcl.c **** {
 128              		.loc 1 439 1 is_stmt 1 view -0
 129              		.cfi_startproc
 130              		@ args = 0, pretend = 0, frame = 0
 131              		@ frame_needed = 0, uses_anonymous_args = 0
 440:../Middlewares/screenl/uvcl/Src/uvcl.c ****   int is_fps_ok = UVCL_FpsOk(p_ctx);
 132              		.loc 1 440 3 view .LVU26
 133              	.LBB18:
 134              	.LBI18:
  58:../Middlewares/screenl/uvcl/Src/uvcl.c **** {
 135              		.loc 1 58 12 view .LVU27
 136              	.LBB19:
  60:../Middlewares/screenl/uvcl/Src/uvcl.c ****     return 1;
 137              		.loc 1 60 3 view .LVU28
  60:../Middlewares/screenl/uvcl/Src/uvcl.c ****     return 1;
 138              		.loc 1 60 6 is_stmt 0 view .LVU29
 139 0000 D0F8A430 		ldr	r3, [r0, #164]
 140              	.LBE19:
 141              	.LBE18:
 439:../Middlewares/screenl/uvcl/Src/uvcl.c ****   int is_fps_ok = UVCL_FpsOk(p_ctx);
 142              		.loc 1 439 1 view .LVU30
 143 0004 70B5     		push	{r4, r5, r6, lr}
 144              		.cfi_def_cfa_offset 16
 145              		.cfi_offset 4, -16
 146              		.cfi_offset 5, -12
 147              		.cfi_offset 6, -8
 148              		.cfi_offset 14, -4
 439:../Middlewares/screenl/uvcl/Src/uvcl.c ****   int is_fps_ok = UVCL_FpsOk(p_ctx);
 149              		.loc 1 439 1 view .LVU31
 150 0006 0446     		mov	r4, r0
 151 0008 0D46     		mov	r5, r1
 152              	.LBB22:
 153              	.LBB20:
  60:../Middlewares/screenl/uvcl/Src/uvcl.c ****     return 1;
 154              		.loc 1 60 6 view .LVU32
 155 000a 5BB9     		cbnz	r3, .L11
  63:../Middlewares/screenl/uvcl/Src/uvcl.c ****   {
 156              		.loc 1 63 3 is_stmt 1 view .LVU33
  63:../Middlewares/screenl/uvcl/Src/uvcl.c ****   {
 157              		.loc 1 63 7 is_stmt 0 view .LVU34
 158 000c FFF7FEFF 		bl	HAL_GetTick
 159              	.LVL8:
ARM GAS  /tmp/ccbJxyKS.s 			page 12


  63:../Middlewares/screenl/uvcl/Src/uvcl.c ****   {
 160              		.loc 1 63 7 view .LVU35
 161              	.LBE20:
 162              	.LBE22:
 441:../Middlewares/screenl/uvcl/Src/uvcl.c **** 
 442:../Middlewares/screenl/uvcl/Src/uvcl.c ****   if (p_ctx->is_starting == 0 && !is_fps_ok)
 163              		.loc 1 442 3 is_stmt 1 view .LVU36
 164              	.LBB23:
 165              	.LBB21:
  63:../Middlewares/screenl/uvcl/Src/uvcl.c ****   {
 166              		.loc 1 63 21 is_stmt 0 discriminator 1 view .LVU37
 167 0010 D4F8B830 		ldr	r3, [r4, #184]
 168 0014 C01A     		subs	r0, r0, r3
 169              	.LVL9:
  63:../Middlewares/screenl/uvcl/Src/uvcl.c ****   {
 170              		.loc 1 63 21 discriminator 1 view .LVU38
 171              	.LBE21:
 172              	.LBE23:
 173              		.loc 1 442 6 view .LVU39
 174 0016 D4E92F23 		ldrd	r2, r3, [r4, #188]
 175 001a 9042     		cmp	r0, r2
 176 001c 28BF     		it	cs
 177 001e 43F00103 		orrcs	r3, r3, #1
 178 0022 13B1     		cbz	r3, .L12
 179              	.LVL10:
 180              	.L11:
 443:../Middlewares/screenl/uvcl/Src/uvcl.c ****     return NULL;
 444:../Middlewares/screenl/uvcl/Src/uvcl.c **** 
 445:../Middlewares/screenl/uvcl/Src/uvcl.c ****   if (!p_ctx->p_frame)
 181              		.loc 1 445 3 is_stmt 1 view .LVU40
 182              		.loc 1 445 13 is_stmt 0 view .LVU41
 183 0024 D4F8C410 		ldr	r1, [r4, #196]
 184              		.loc 1 445 6 view .LVU42
 185 0028 11B9     		cbnz	r1, .L13
 186              	.L12:
 443:../Middlewares/screenl/uvcl/Src/uvcl.c ****     return NULL;
 187              		.loc 1 443 12 view .LVU43
 188 002a 0026     		movs	r6, #0
 189              	.LVL11:
 190              	.L10:
 446:../Middlewares/screenl/uvcl/Src/uvcl.c ****     return NULL;
 447:../Middlewares/screenl/uvcl/Src/uvcl.c **** 
 448:../Middlewares/screenl/uvcl/Src/uvcl.c ****   return UVCL_StartSelectedRaw(p_ctx, packet_size);
 449:../Middlewares/screenl/uvcl/Src/uvcl.c **** }
 191              		.loc 1 449 1 view .LVU44
 192 002c 3046     		mov	r0, r6
 193 002e 70BD     		pop	{r4, r5, r6, pc}
 194              	.LVL12:
 195              	.L13:
 448:../Middlewares/screenl/uvcl/Src/uvcl.c **** }
 196              		.loc 1 448 3 is_stmt 1 view .LVU45
 197              	.LBB24:
 198              	.LBI24:
  89:../Middlewares/screenl/uvcl/Src/uvcl.c **** {
 199              		.loc 1 89 25 view .LVU46
 200              	.LBB25:
  91:../Middlewares/screenl/uvcl/Src/uvcl.c **** 
ARM GAS  /tmp/ccbJxyKS.s 			page 13


 201              		.loc 1 91 3 view .LVU47
  93:../Middlewares/screenl/uvcl/Src/uvcl.c ****   UVCL_FillSentData(p_ctx, on_fly_ctx, p_ctx->p_frame, p_ctx->frame_size, packet_size);
 202              		.loc 1 93 27 is_stmt 0 view .LVU48
 203 0030 4FF0FF33 		mov	r3, #-1
 204 0034 C4F8CC30 		str	r3, [r4, #204]
  94:../Middlewares/screenl/uvcl/Src/uvcl.c **** 
 205              		.loc 1 94 3 view .LVU49
 206 0038 D4F8C830 		ldr	r3, [r4, #200]
 207              	.LBB26:
 208              	.LBB27:
  74:../Middlewares/screenl/uvcl/Src/uvcl.c ****   on_fly_ctx->last_packet_size = fsize % (packet_size - 2);
 209              		.loc 1 74 68 view .LVU50
 210 003c AA1E     		subs	r2, r5, #2
  75:../Middlewares/screenl/uvcl/Src/uvcl.c ****   if (!on_fly_ctx->last_packet_size)
 211              		.loc 1 75 40 view .LVU51
 212 003e 93FBF2F0 		sdiv	r0, r3, r2
  74:../Middlewares/screenl/uvcl/Src/uvcl.c ****   on_fly_ctx->last_packet_size = fsize % (packet_size - 2);
 213              		.loc 1 74 34 view .LVU52
 214 0042 1D44     		add	r5, r5, r3
 215              	.LVL13:
  74:../Middlewares/screenl/uvcl/Src/uvcl.c ****   on_fly_ctx->last_packet_size = fsize % (packet_size - 2);
 216              		.loc 1 74 48 view .LVU53
 217 0044 013D     		subs	r5, r5, #1
  74:../Middlewares/screenl/uvcl/Src/uvcl.c ****   on_fly_ctx->last_packet_size = fsize % (packet_size - 2);
 218              		.loc 1 74 53 view .LVU54
 219 0046 95FBF2F5 		sdiv	r5, r5, r2
  75:../Middlewares/screenl/uvcl/Src/uvcl.c ****   if (!on_fly_ctx->last_packet_size)
 220              		.loc 1 75 40 view .LVU55
 221 004a 02FB1033 		mls	r3, r2, r0, r3
 222              	.LBE27:
 223              	.LBE26:
  91:../Middlewares/screenl/uvcl/Src/uvcl.c **** 
 224              		.loc 1 91 20 view .LVU56
 225 004e 04F1CC06 		add	r6, r4, #204
 226              	.LVL14:
  93:../Middlewares/screenl/uvcl/Src/uvcl.c ****   UVCL_FillSentData(p_ctx, on_fly_ctx, p_ctx->p_frame, p_ctx->frame_size, packet_size);
 227              		.loc 1 93 3 is_stmt 1 view .LVU57
  94:../Middlewares/screenl/uvcl/Src/uvcl.c **** 
 228              		.loc 1 94 3 view .LVU58
 229              	.LBB29:
 230              	.LBI26:
  71:../Middlewares/screenl/uvcl/Src/uvcl.c ****                              int packet_size)
 231              		.loc 1 71 13 view .LVU59
 232              	.LBB28:
  74:../Middlewares/screenl/uvcl/Src/uvcl.c ****   on_fly_ctx->last_packet_size = fsize % (packet_size - 2);
 233              		.loc 1 74 3 view .LVU60
  74:../Middlewares/screenl/uvcl/Src/uvcl.c ****   on_fly_ctx->last_packet_size = fsize % (packet_size - 2);
 234              		.loc 1 74 25 is_stmt 0 view .LVU61
 235 0052 C4F8D450 		str	r5, [r4, #212]
  75:../Middlewares/screenl/uvcl/Src/uvcl.c ****   if (!on_fly_ctx->last_packet_size)
 236              		.loc 1 75 3 is_stmt 1 view .LVU62
  75:../Middlewares/screenl/uvcl/Src/uvcl.c ****   if (!on_fly_ctx->last_packet_size)
 237              		.loc 1 75 32 is_stmt 0 view .LVU63
 238 0056 C4F8DC30 		str	r3, [r4, #220]
  76:../Middlewares/screenl/uvcl/Src/uvcl.c ****   {
 239              		.loc 1 76 3 is_stmt 1 view .LVU64
  76:../Middlewares/screenl/uvcl/Src/uvcl.c ****   {
ARM GAS  /tmp/ccbJxyKS.s 			page 14


 240              		.loc 1 76 6 is_stmt 0 view .LVU65
 241 005a 23B9     		cbnz	r3, .L15
  78:../Middlewares/screenl/uvcl/Src/uvcl.c ****     on_fly_ctx->last_packet_size = packet_size - 2;
 242              		.loc 1 78 5 is_stmt 1 view .LVU66
  78:../Middlewares/screenl/uvcl/Src/uvcl.c ****     on_fly_ctx->last_packet_size = packet_size - 2;
 243              		.loc 1 78 26 is_stmt 0 view .LVU67
 244 005c 013D     		subs	r5, r5, #1
 245 005e C4F8D450 		str	r5, [r4, #212]
  79:../Middlewares/screenl/uvcl/Src/uvcl.c ****   }
 246              		.loc 1 79 5 is_stmt 1 view .LVU68
  79:../Middlewares/screenl/uvcl/Src/uvcl.c ****   }
 247              		.loc 1 79 34 is_stmt 0 view .LVU69
 248 0062 C4F8DC20 		str	r2, [r4, #220]
 249              	.L15:
  81:../Middlewares/screenl/uvcl/Src/uvcl.c ****   on_fly_ctx->cursor = p_frame;
 250              		.loc 1 81 3 is_stmt 1 view .LVU70
  85:../Middlewares/screenl/uvcl/Src/uvcl.c ****   p_ctx->frame_start = HAL_GetTick();
 251              		.loc 1 85 22 is_stmt 0 view .LVU71
 252 0066 0025     		movs	r5, #0
  83:../Middlewares/screenl/uvcl/Src/uvcl.c **** 
 253              		.loc 1 83 8 view .LVU72
 254 0068 D4F8B420 		ldr	r2, [r4, #180]
 255              	.LVL15:
  81:../Middlewares/screenl/uvcl/Src/uvcl.c ****   on_fly_ctx->cursor = p_frame;
 256              		.loc 1 81 23 view .LVU73
 257 006c C4F8E410 		str	r1, [r4, #228]
  82:../Middlewares/screenl/uvcl/Src/uvcl.c ****   p_ctx->packet[1] ^= 1;
 258              		.loc 1 82 3 is_stmt 1 view .LVU74
  82:../Middlewares/screenl/uvcl/Src/uvcl.c ****   p_ctx->packet[1] ^= 1;
 259              		.loc 1 82 22 is_stmt 0 view .LVU75
 260 0070 C4F8D010 		str	r1, [r4, #208]
  83:../Middlewares/screenl/uvcl/Src/uvcl.c **** 
 261              		.loc 1 83 3 is_stmt 1 view .LVU76
  83:../Middlewares/screenl/uvcl/Src/uvcl.c **** 
 262              		.loc 1 83 20 is_stmt 0 view .LVU77
 263 0074 5378     		ldrb	r3, [r2, #1]	@ zero_extendqisi2
 264 0076 83F00103 		eor	r3, r3, #1
 265 007a 5370     		strb	r3, [r2, #1]
  85:../Middlewares/screenl/uvcl/Src/uvcl.c ****   p_ctx->frame_start = HAL_GetTick();
 266              		.loc 1 85 3 is_stmt 1 view .LVU78
  85:../Middlewares/screenl/uvcl/Src/uvcl.c ****   p_ctx->frame_start = HAL_GetTick();
 267              		.loc 1 85 22 is_stmt 0 view .LVU79
 268 007c C4F8C050 		str	r5, [r4, #192]
  86:../Middlewares/screenl/uvcl/Src/uvcl.c **** }
 269              		.loc 1 86 3 is_stmt 1 view .LVU80
  86:../Middlewares/screenl/uvcl/Src/uvcl.c **** }
 270              		.loc 1 86 24 is_stmt 0 view .LVU81
 271 0080 FFF7FEFF 		bl	HAL_GetTick
 272              	.LVL16:
  86:../Middlewares/screenl/uvcl/Src/uvcl.c **** }
 273              		.loc 1 86 22 discriminator 1 view .LVU82
 274 0084 C4F8B800 		str	r0, [r4, #184]
 275              	.LVL17:
  86:../Middlewares/screenl/uvcl/Src/uvcl.c **** }
 276              		.loc 1 86 22 discriminator 1 view .LVU83
 277              	.LBE28:
 278              	.LBE29:
ARM GAS  /tmp/ccbJxyKS.s 			page 15


  96:../Middlewares/screenl/uvcl/Src/uvcl.c ****   p_ctx->p_frame = NULL;
 279              		.loc 1 96 3 is_stmt 1 view .LVU84
 280              	.LBB30:
 281              	.LBI30:
 282              		.file 2 "../STM32Cube_FW_N6/Drivers/CMSIS/Include/cmsis_gcc.h"
   1:../STM32Cube_FW_N6/Drivers/CMSIS/Include/cmsis_gcc.h **** /**************************************************************************//**
   2:../STM32Cube_FW_N6/Drivers/CMSIS/Include/cmsis_gcc.h ****  * @file     cmsis_gcc.h
   3:../STM32Cube_FW_N6/Drivers/CMSIS/Include/cmsis_gcc.h ****  * @brief    CMSIS compiler GCC header file
   4:../STM32Cube_FW_N6/Drivers/CMSIS/Include/cmsis_gcc.h ****  * @version  V6.0.0
   5:../STM32Cube_FW_N6/Drivers/CMSIS/Include/cmsis_gcc.h ****  * @date     27. July 2024
   6:../STM32Cube_FW_N6/Drivers/CMSIS/Include/cmsis_gcc.h ****  ******************************************************************************/
   7:../STM32Cube_FW_N6/Drivers/CMSIS/Include/cmsis_gcc.h **** /*
   8:../STM32Cube_FW_N6/Drivers/CMSIS/Include/cmsis_gcc.h ****  * Copyright (c) 2009-2023 Arm Limited. All rights reserved.
   9:../STM32Cube_FW_N6/Drivers/CMSIS/Include/cmsis_gcc.h ****  *
  10:../STM32Cube_FW_N6/Drivers/CMSIS/Include/cmsis_gcc.h ****  * SPDX-License-Identifier: Apache-2.0
  11:../STM32Cube_FW_N6/Drivers/CMSIS/Include/cmsis_gcc.h ****  *
  12:../STM32Cube_FW_N6/Drivers/CMSIS/Include/cmsis_gcc.h ****  * Licensed under the Apache License, Version 2.0 (the License); you may
  13:../STM32Cube_FW_N6/Drivers/CMSIS/Include/cmsis_gcc.h ****  * not use this file except in compliance with the License.
  14:../STM32Cube_FW_N6/Drivers/CMSIS/Include/cmsis_gcc.h ****  * You may obtain a copy of the License at
  15:../STM32Cube_FW_N6/Drivers/CMSIS/Include/cmsis_gcc.h ****  *
  16:../STM32Cube_FW_N6/Drivers/CMSIS/Include/cmsis_gcc.h ****  * www.apache.org/licenses/LICENSE-2.0
  17:../STM32Cube_FW_N6/Drivers/CMSIS/Include/cmsis_gcc.h ****  *
  18:../STM32Cube_FW_N6/Drivers/CMSIS/Include/cmsis_gcc.h ****  * Unless required by applicable law or agreed to in writing, software
  19:../STM32Cube_FW_N6/Drivers/CMSIS/Include/cmsis_gcc.h ****  * distributed under the License is distributed on an AS IS BASIS, WITHOUT
  20:../STM32Cube_FW_N6/Drivers/CMSIS/Include/cmsis_gcc.h ****  * WARRANTIES OR CONDITIONS OF ANY KIND, either express or implied.
  21:../STM32Cube_FW_N6/Drivers/CMSIS/Include/cmsis_gcc.h ****  * See the License for the specific language governing permissions and
  22:../STM32Cube_FW_N6/Drivers/CMSIS/Include/cmsis_gcc.h ****  * limitations under the License.
  23:../STM32Cube_FW_N6/Drivers/CMSIS/Include/cmsis_gcc.h ****  */
  24:../STM32Cube_FW_N6/Drivers/CMSIS/Include/cmsis_gcc.h **** 
  25:../STM32Cube_FW_N6/Drivers/CMSIS/Include/cmsis_gcc.h **** #ifndef __CMSIS_GCC_H
  26:../STM32Cube_FW_N6/Drivers/CMSIS/Include/cmsis_gcc.h **** #define __CMSIS_GCC_H
  27:../STM32Cube_FW_N6/Drivers/CMSIS/Include/cmsis_gcc.h **** 
  28:../STM32Cube_FW_N6/Drivers/CMSIS/Include/cmsis_gcc.h **** #pragma GCC system_header   /* treat file as system include file */
  29:../STM32Cube_FW_N6/Drivers/CMSIS/Include/cmsis_gcc.h **** 
  30:../STM32Cube_FW_N6/Drivers/CMSIS/Include/cmsis_gcc.h **** #include <arm_acle.h>
  31:../STM32Cube_FW_N6/Drivers/CMSIS/Include/cmsis_gcc.h **** 
  32:../STM32Cube_FW_N6/Drivers/CMSIS/Include/cmsis_gcc.h **** /* Fallback for __has_builtin */
  33:../STM32Cube_FW_N6/Drivers/CMSIS/Include/cmsis_gcc.h **** #ifndef __has_builtin
  34:../STM32Cube_FW_N6/Drivers/CMSIS/Include/cmsis_gcc.h ****   #define __has_builtin(x) (0)
  35:../STM32Cube_FW_N6/Drivers/CMSIS/Include/cmsis_gcc.h **** #endif
  36:../STM32Cube_FW_N6/Drivers/CMSIS/Include/cmsis_gcc.h **** 
  37:../STM32Cube_FW_N6/Drivers/CMSIS/Include/cmsis_gcc.h **** /* CMSIS compiler specific defines */
  38:../STM32Cube_FW_N6/Drivers/CMSIS/Include/cmsis_gcc.h **** #ifndef   __ASM
  39:../STM32Cube_FW_N6/Drivers/CMSIS/Include/cmsis_gcc.h ****   #define __ASM                                  __asm
  40:../STM32Cube_FW_N6/Drivers/CMSIS/Include/cmsis_gcc.h **** #endif
  41:../STM32Cube_FW_N6/Drivers/CMSIS/Include/cmsis_gcc.h **** #ifndef   __INLINE
  42:../STM32Cube_FW_N6/Drivers/CMSIS/Include/cmsis_gcc.h ****   #define __INLINE                               inline
  43:../STM32Cube_FW_N6/Drivers/CMSIS/Include/cmsis_gcc.h **** #endif
  44:../STM32Cube_FW_N6/Drivers/CMSIS/Include/cmsis_gcc.h **** #ifndef   __STATIC_INLINE
  45:../STM32Cube_FW_N6/Drivers/CMSIS/Include/cmsis_gcc.h ****   #define __STATIC_INLINE                        static inline
  46:../STM32Cube_FW_N6/Drivers/CMSIS/Include/cmsis_gcc.h **** #endif
  47:../STM32Cube_FW_N6/Drivers/CMSIS/Include/cmsis_gcc.h **** #ifndef   __STATIC_FORCEINLINE
  48:../STM32Cube_FW_N6/Drivers/CMSIS/Include/cmsis_gcc.h ****   #define __STATIC_FORCEINLINE                   __attribute__((always_inline)) static inline
  49:../STM32Cube_FW_N6/Drivers/CMSIS/Include/cmsis_gcc.h **** #endif
  50:../STM32Cube_FW_N6/Drivers/CMSIS/Include/cmsis_gcc.h **** #ifndef   __NO_RETURN
  51:../STM32Cube_FW_N6/Drivers/CMSIS/Include/cmsis_gcc.h ****   #define __NO_RETURN                            __attribute__((__noreturn__))
  52:../STM32Cube_FW_N6/Drivers/CMSIS/Include/cmsis_gcc.h **** #endif
ARM GAS  /tmp/ccbJxyKS.s 			page 16


  53:../STM32Cube_FW_N6/Drivers/CMSIS/Include/cmsis_gcc.h **** #ifndef   CMSIS_DEPRECATED
  54:../STM32Cube_FW_N6/Drivers/CMSIS/Include/cmsis_gcc.h ****   #define CMSIS_DEPRECATED                       __attribute__((deprecated))
  55:../STM32Cube_FW_N6/Drivers/CMSIS/Include/cmsis_gcc.h **** #endif
  56:../STM32Cube_FW_N6/Drivers/CMSIS/Include/cmsis_gcc.h **** #ifndef   __USED
  57:../STM32Cube_FW_N6/Drivers/CMSIS/Include/cmsis_gcc.h ****   #define __USED                                 __attribute__((used))
  58:../STM32Cube_FW_N6/Drivers/CMSIS/Include/cmsis_gcc.h **** #endif
  59:../STM32Cube_FW_N6/Drivers/CMSIS/Include/cmsis_gcc.h **** #ifndef   __WEAK
  60:../STM32Cube_FW_N6/Drivers/CMSIS/Include/cmsis_gcc.h ****   #define __WEAK                                 __attribute__((weak))
  61:../STM32Cube_FW_N6/Drivers/CMSIS/Include/cmsis_gcc.h **** #endif
  62:../STM32Cube_FW_N6/Drivers/CMSIS/Include/cmsis_gcc.h **** #ifndef   __PACKED
  63:../STM32Cube_FW_N6/Drivers/CMSIS/Include/cmsis_gcc.h ****   #define __PACKED                               __attribute__((packed, aligned(1)))
  64:../STM32Cube_FW_N6/Drivers/CMSIS/Include/cmsis_gcc.h **** #endif
  65:../STM32Cube_FW_N6/Drivers/CMSIS/Include/cmsis_gcc.h **** #ifndef   __PACKED_STRUCT
  66:../STM32Cube_FW_N6/Drivers/CMSIS/Include/cmsis_gcc.h ****   #define __PACKED_STRUCT                        struct __attribute__((packed, aligned(1)))
  67:../STM32Cube_FW_N6/Drivers/CMSIS/Include/cmsis_gcc.h **** #endif
  68:../STM32Cube_FW_N6/Drivers/CMSIS/Include/cmsis_gcc.h **** #ifndef   __PACKED_UNION
  69:../STM32Cube_FW_N6/Drivers/CMSIS/Include/cmsis_gcc.h ****   #define __PACKED_UNION                         union __attribute__((packed, aligned(1)))
  70:../STM32Cube_FW_N6/Drivers/CMSIS/Include/cmsis_gcc.h **** #endif
  71:../STM32Cube_FW_N6/Drivers/CMSIS/Include/cmsis_gcc.h **** #ifndef   __UNALIGNED_UINT16_WRITE
  72:../STM32Cube_FW_N6/Drivers/CMSIS/Include/cmsis_gcc.h ****   #pragma GCC diagnostic push
  73:../STM32Cube_FW_N6/Drivers/CMSIS/Include/cmsis_gcc.h ****   #pragma GCC diagnostic ignored "-Wpacked"
  74:../STM32Cube_FW_N6/Drivers/CMSIS/Include/cmsis_gcc.h ****   #pragma GCC diagnostic ignored "-Wattributes"
  75:../STM32Cube_FW_N6/Drivers/CMSIS/Include/cmsis_gcc.h ****   __PACKED_STRUCT T_UINT16_WRITE { uint16_t v; };
  76:../STM32Cube_FW_N6/Drivers/CMSIS/Include/cmsis_gcc.h ****   #pragma GCC diagnostic pop
  77:../STM32Cube_FW_N6/Drivers/CMSIS/Include/cmsis_gcc.h ****   #define __UNALIGNED_UINT16_WRITE(addr, val)    (void)((((struct T_UINT16_WRITE *)(void *)(addr))-
  78:../STM32Cube_FW_N6/Drivers/CMSIS/Include/cmsis_gcc.h **** #endif
  79:../STM32Cube_FW_N6/Drivers/CMSIS/Include/cmsis_gcc.h **** #ifndef   __UNALIGNED_UINT16_READ
  80:../STM32Cube_FW_N6/Drivers/CMSIS/Include/cmsis_gcc.h ****   #pragma GCC diagnostic push
  81:../STM32Cube_FW_N6/Drivers/CMSIS/Include/cmsis_gcc.h ****   #pragma GCC diagnostic ignored "-Wpacked"
  82:../STM32Cube_FW_N6/Drivers/CMSIS/Include/cmsis_gcc.h ****   #pragma GCC diagnostic ignored "-Wattributes"
  83:../STM32Cube_FW_N6/Drivers/CMSIS/Include/cmsis_gcc.h ****   __PACKED_STRUCT T_UINT16_READ { uint16_t v; };
  84:../STM32Cube_FW_N6/Drivers/CMSIS/Include/cmsis_gcc.h ****   #pragma GCC diagnostic pop
  85:../STM32Cube_FW_N6/Drivers/CMSIS/Include/cmsis_gcc.h ****   #define __UNALIGNED_UINT16_READ(addr)          (((const struct T_UINT16_READ *)(const void *)(add
  86:../STM32Cube_FW_N6/Drivers/CMSIS/Include/cmsis_gcc.h **** #endif
  87:../STM32Cube_FW_N6/Drivers/CMSIS/Include/cmsis_gcc.h **** #ifndef   __UNALIGNED_UINT32_WRITE
  88:../STM32Cube_FW_N6/Drivers/CMSIS/Include/cmsis_gcc.h ****   #pragma GCC diagnostic push
  89:../STM32Cube_FW_N6/Drivers/CMSIS/Include/cmsis_gcc.h ****   #pragma GCC diagnostic ignored "-Wpacked"
  90:../STM32Cube_FW_N6/Drivers/CMSIS/Include/cmsis_gcc.h ****   #pragma GCC diagnostic ignored "-Wattributes"
  91:../STM32Cube_FW_N6/Drivers/CMSIS/Include/cmsis_gcc.h ****   __PACKED_STRUCT T_UINT32_WRITE { uint32_t v; };
  92:../STM32Cube_FW_N6/Drivers/CMSIS/Include/cmsis_gcc.h ****   #pragma GCC diagnostic pop
  93:../STM32Cube_FW_N6/Drivers/CMSIS/Include/cmsis_gcc.h ****   #define __UNALIGNED_UINT32_WRITE(addr, val)    (void)((((struct T_UINT32_WRITE *)(void *)(addr))-
  94:../STM32Cube_FW_N6/Drivers/CMSIS/Include/cmsis_gcc.h **** #endif
  95:../STM32Cube_FW_N6/Drivers/CMSIS/Include/cmsis_gcc.h **** #ifndef   __UNALIGNED_UINT32_READ
  96:../STM32Cube_FW_N6/Drivers/CMSIS/Include/cmsis_gcc.h ****   #pragma GCC diagnostic push
  97:../STM32Cube_FW_N6/Drivers/CMSIS/Include/cmsis_gcc.h ****   #pragma GCC diagnostic ignored "-Wpacked"
  98:../STM32Cube_FW_N6/Drivers/CMSIS/Include/cmsis_gcc.h ****   #pragma GCC diagnostic ignored "-Wattributes"
  99:../STM32Cube_FW_N6/Drivers/CMSIS/Include/cmsis_gcc.h ****   __PACKED_STRUCT T_UINT32_READ { uint32_t v; };
 100:../STM32Cube_FW_N6/Drivers/CMSIS/Include/cmsis_gcc.h ****   #pragma GCC diagnostic pop
 101:../STM32Cube_FW_N6/Drivers/CMSIS/Include/cmsis_gcc.h ****   #define __UNALIGNED_UINT32_READ(addr)          (((const struct T_UINT32_READ *)(const void *)(add
 102:../STM32Cube_FW_N6/Drivers/CMSIS/Include/cmsis_gcc.h **** #endif
 103:../STM32Cube_FW_N6/Drivers/CMSIS/Include/cmsis_gcc.h **** #ifndef   __ALIGNED
 104:../STM32Cube_FW_N6/Drivers/CMSIS/Include/cmsis_gcc.h ****   #define __ALIGNED(x)                           __attribute__((aligned(x)))
 105:../STM32Cube_FW_N6/Drivers/CMSIS/Include/cmsis_gcc.h **** #endif
 106:../STM32Cube_FW_N6/Drivers/CMSIS/Include/cmsis_gcc.h **** #ifndef   __RESTRICT
 107:../STM32Cube_FW_N6/Drivers/CMSIS/Include/cmsis_gcc.h ****   #define __RESTRICT                             __restrict
 108:../STM32Cube_FW_N6/Drivers/CMSIS/Include/cmsis_gcc.h **** #endif
 109:../STM32Cube_FW_N6/Drivers/CMSIS/Include/cmsis_gcc.h **** #ifndef   __COMPILER_BARRIER
ARM GAS  /tmp/ccbJxyKS.s 			page 17


 110:../STM32Cube_FW_N6/Drivers/CMSIS/Include/cmsis_gcc.h ****   #define __COMPILER_BARRIER()                   __ASM volatile("":::"memory")
 111:../STM32Cube_FW_N6/Drivers/CMSIS/Include/cmsis_gcc.h **** #endif
 112:../STM32Cube_FW_N6/Drivers/CMSIS/Include/cmsis_gcc.h **** #ifndef __NO_INIT
 113:../STM32Cube_FW_N6/Drivers/CMSIS/Include/cmsis_gcc.h ****   #define __NO_INIT                              __attribute__ ((section (".noinit")))
 114:../STM32Cube_FW_N6/Drivers/CMSIS/Include/cmsis_gcc.h **** #endif
 115:../STM32Cube_FW_N6/Drivers/CMSIS/Include/cmsis_gcc.h **** #ifndef __ALIAS
 116:../STM32Cube_FW_N6/Drivers/CMSIS/Include/cmsis_gcc.h ****   #define __ALIAS(x)                             __attribute__ ((alias(x)))
 117:../STM32Cube_FW_N6/Drivers/CMSIS/Include/cmsis_gcc.h **** #endif
 118:../STM32Cube_FW_N6/Drivers/CMSIS/Include/cmsis_gcc.h **** 
 119:../STM32Cube_FW_N6/Drivers/CMSIS/Include/cmsis_gcc.h **** /* ##########################  Core Instruction Access  ######################### */
 120:../STM32Cube_FW_N6/Drivers/CMSIS/Include/cmsis_gcc.h **** /** \defgroup CMSIS_Core_InstructionInterface CMSIS Core Instruction Interface
 121:../STM32Cube_FW_N6/Drivers/CMSIS/Include/cmsis_gcc.h ****   Access to dedicated instructions
 122:../STM32Cube_FW_N6/Drivers/CMSIS/Include/cmsis_gcc.h ****   @{
 123:../STM32Cube_FW_N6/Drivers/CMSIS/Include/cmsis_gcc.h **** */
 124:../STM32Cube_FW_N6/Drivers/CMSIS/Include/cmsis_gcc.h **** 
 125:../STM32Cube_FW_N6/Drivers/CMSIS/Include/cmsis_gcc.h **** /* Define macros for porting to both thumb1 and thumb2.
 126:../STM32Cube_FW_N6/Drivers/CMSIS/Include/cmsis_gcc.h ****  * For thumb1, use low register (r0-r7), specified by constraint "l"
 127:../STM32Cube_FW_N6/Drivers/CMSIS/Include/cmsis_gcc.h ****  * Otherwise, use general registers, specified by constraint "r" */
 128:../STM32Cube_FW_N6/Drivers/CMSIS/Include/cmsis_gcc.h **** #if defined (__thumb__) && !defined (__thumb2__)
 129:../STM32Cube_FW_N6/Drivers/CMSIS/Include/cmsis_gcc.h **** #define __CMSIS_GCC_OUT_REG(r) "=l" (r)
 130:../STM32Cube_FW_N6/Drivers/CMSIS/Include/cmsis_gcc.h **** #define __CMSIS_GCC_RW_REG(r) "+l" (r)
 131:../STM32Cube_FW_N6/Drivers/CMSIS/Include/cmsis_gcc.h **** #define __CMSIS_GCC_USE_REG(r) "l" (r)
 132:../STM32Cube_FW_N6/Drivers/CMSIS/Include/cmsis_gcc.h **** #else
 133:../STM32Cube_FW_N6/Drivers/CMSIS/Include/cmsis_gcc.h **** #define __CMSIS_GCC_OUT_REG(r) "=r" (r)
 134:../STM32Cube_FW_N6/Drivers/CMSIS/Include/cmsis_gcc.h **** #define __CMSIS_GCC_RW_REG(r) "+r" (r)
 135:../STM32Cube_FW_N6/Drivers/CMSIS/Include/cmsis_gcc.h **** #define __CMSIS_GCC_USE_REG(r) "r" (r)
 136:../STM32Cube_FW_N6/Drivers/CMSIS/Include/cmsis_gcc.h **** #endif
 137:../STM32Cube_FW_N6/Drivers/CMSIS/Include/cmsis_gcc.h **** 
 138:../STM32Cube_FW_N6/Drivers/CMSIS/Include/cmsis_gcc.h **** /**
 139:../STM32Cube_FW_N6/Drivers/CMSIS/Include/cmsis_gcc.h ****   \brief   No Operation
 140:../STM32Cube_FW_N6/Drivers/CMSIS/Include/cmsis_gcc.h ****   \details No Operation does nothing. This instruction can be used for code alignment purposes.
 141:../STM32Cube_FW_N6/Drivers/CMSIS/Include/cmsis_gcc.h ****  */
 142:../STM32Cube_FW_N6/Drivers/CMSIS/Include/cmsis_gcc.h **** #define __NOP()         __ASM volatile ("nop")
 143:../STM32Cube_FW_N6/Drivers/CMSIS/Include/cmsis_gcc.h **** 
 144:../STM32Cube_FW_N6/Drivers/CMSIS/Include/cmsis_gcc.h **** 
 145:../STM32Cube_FW_N6/Drivers/CMSIS/Include/cmsis_gcc.h **** /**
 146:../STM32Cube_FW_N6/Drivers/CMSIS/Include/cmsis_gcc.h ****   \brief   Wait For Interrupt
 147:../STM32Cube_FW_N6/Drivers/CMSIS/Include/cmsis_gcc.h ****   \details Wait For Interrupt is a hint instruction that suspends execution until one of a number o
 148:../STM32Cube_FW_N6/Drivers/CMSIS/Include/cmsis_gcc.h ****  */
 149:../STM32Cube_FW_N6/Drivers/CMSIS/Include/cmsis_gcc.h **** #define __WFI()         __ASM volatile ("wfi":::"memory")
 150:../STM32Cube_FW_N6/Drivers/CMSIS/Include/cmsis_gcc.h **** 
 151:../STM32Cube_FW_N6/Drivers/CMSIS/Include/cmsis_gcc.h **** 
 152:../STM32Cube_FW_N6/Drivers/CMSIS/Include/cmsis_gcc.h **** /**
 153:../STM32Cube_FW_N6/Drivers/CMSIS/Include/cmsis_gcc.h ****   \brief   Wait For Event
 154:../STM32Cube_FW_N6/Drivers/CMSIS/Include/cmsis_gcc.h ****   \details Wait For Event is a hint instruction that permits the processor to enter
 155:../STM32Cube_FW_N6/Drivers/CMSIS/Include/cmsis_gcc.h ****            a low-power state until one of a number of events occurs.
 156:../STM32Cube_FW_N6/Drivers/CMSIS/Include/cmsis_gcc.h ****  */
 157:../STM32Cube_FW_N6/Drivers/CMSIS/Include/cmsis_gcc.h **** #define __WFE()         __ASM volatile ("wfe":::"memory")
 158:../STM32Cube_FW_N6/Drivers/CMSIS/Include/cmsis_gcc.h **** 
 159:../STM32Cube_FW_N6/Drivers/CMSIS/Include/cmsis_gcc.h **** 
 160:../STM32Cube_FW_N6/Drivers/CMSIS/Include/cmsis_gcc.h **** /**
 161:../STM32Cube_FW_N6/Drivers/CMSIS/Include/cmsis_gcc.h ****   \brief   Send Event
 162:../STM32Cube_FW_N6/Drivers/CMSIS/Include/cmsis_gcc.h ****   \details Send Event is a hint instruction. It causes an event to be signaled to the CPU.
 163:../STM32Cube_FW_N6/Drivers/CMSIS/Include/cmsis_gcc.h ****  */
 164:../STM32Cube_FW_N6/Drivers/CMSIS/Include/cmsis_gcc.h **** #define __SEV()         __ASM volatile ("sev")
 165:../STM32Cube_FW_N6/Drivers/CMSIS/Include/cmsis_gcc.h **** 
 166:../STM32Cube_FW_N6/Drivers/CMSIS/Include/cmsis_gcc.h **** 
ARM GAS  /tmp/ccbJxyKS.s 			page 18


 167:../STM32Cube_FW_N6/Drivers/CMSIS/Include/cmsis_gcc.h **** /**
 168:../STM32Cube_FW_N6/Drivers/CMSIS/Include/cmsis_gcc.h ****   \brief   Instruction Synchronization Barrier
 169:../STM32Cube_FW_N6/Drivers/CMSIS/Include/cmsis_gcc.h ****   \details Instruction Synchronization Barrier flushes the pipeline in the processor,
 170:../STM32Cube_FW_N6/Drivers/CMSIS/Include/cmsis_gcc.h ****            so that all instructions following the ISB are fetched from cache or memory,
 171:../STM32Cube_FW_N6/Drivers/CMSIS/Include/cmsis_gcc.h ****            after the instruction has been completed.
 172:../STM32Cube_FW_N6/Drivers/CMSIS/Include/cmsis_gcc.h ****  */
 173:../STM32Cube_FW_N6/Drivers/CMSIS/Include/cmsis_gcc.h **** __STATIC_FORCEINLINE void __ISB(void)
 174:../STM32Cube_FW_N6/Drivers/CMSIS/Include/cmsis_gcc.h **** {
 175:../STM32Cube_FW_N6/Drivers/CMSIS/Include/cmsis_gcc.h ****   __ASM volatile ("isb 0xF":::"memory");
 176:../STM32Cube_FW_N6/Drivers/CMSIS/Include/cmsis_gcc.h **** }
 177:../STM32Cube_FW_N6/Drivers/CMSIS/Include/cmsis_gcc.h **** 
 178:../STM32Cube_FW_N6/Drivers/CMSIS/Include/cmsis_gcc.h **** 
 179:../STM32Cube_FW_N6/Drivers/CMSIS/Include/cmsis_gcc.h **** /**
 180:../STM32Cube_FW_N6/Drivers/CMSIS/Include/cmsis_gcc.h ****   \brief   Data Synchronization Barrier
 181:../STM32Cube_FW_N6/Drivers/CMSIS/Include/cmsis_gcc.h ****   \details Acts as a special kind of Data Memory Barrier.
 182:../STM32Cube_FW_N6/Drivers/CMSIS/Include/cmsis_gcc.h ****            It completes when all explicit memory accesses before this instruction complete.
 183:../STM32Cube_FW_N6/Drivers/CMSIS/Include/cmsis_gcc.h ****  */
 184:../STM32Cube_FW_N6/Drivers/CMSIS/Include/cmsis_gcc.h **** __STATIC_FORCEINLINE void __DSB(void)
 185:../STM32Cube_FW_N6/Drivers/CMSIS/Include/cmsis_gcc.h **** {
 186:../STM32Cube_FW_N6/Drivers/CMSIS/Include/cmsis_gcc.h ****   __ASM volatile ("dsb 0xF":::"memory");
 187:../STM32Cube_FW_N6/Drivers/CMSIS/Include/cmsis_gcc.h **** }
 188:../STM32Cube_FW_N6/Drivers/CMSIS/Include/cmsis_gcc.h **** 
 189:../STM32Cube_FW_N6/Drivers/CMSIS/Include/cmsis_gcc.h **** 
 190:../STM32Cube_FW_N6/Drivers/CMSIS/Include/cmsis_gcc.h **** /**
 191:../STM32Cube_FW_N6/Drivers/CMSIS/Include/cmsis_gcc.h ****   \brief   Data Memory Barrier
 192:../STM32Cube_FW_N6/Drivers/CMSIS/Include/cmsis_gcc.h ****   \details Ensures the apparent order of the explicit memory operations before
 193:../STM32Cube_FW_N6/Drivers/CMSIS/Include/cmsis_gcc.h ****            and after the instruction, without ensuring their completion.
 194:../STM32Cube_FW_N6/Drivers/CMSIS/Include/cmsis_gcc.h ****  */
 195:../STM32Cube_FW_N6/Drivers/CMSIS/Include/cmsis_gcc.h **** __STATIC_FORCEINLINE void __DMB(void)
 283              		.loc 2 195 27 view .LVU85
 284              	.LBB31:
 196:../STM32Cube_FW_N6/Drivers/CMSIS/Include/cmsis_gcc.h **** {
 197:../STM32Cube_FW_N6/Drivers/CMSIS/Include/cmsis_gcc.h ****   __ASM volatile ("dmb 0xF":::"memory");
 285              		.loc 2 197 3 view .LVU86
 286              		.syntax unified
 287              	@ 197 "../STM32Cube_FW_N6/Drivers/CMSIS/Include/cmsis_gcc.h" 1
 288 0088 BFF35F8F 		dmb 0xF
 289              	@ 0 "" 2
 290              		.thumb
 291              		.syntax unified
 292              	.LBE31:
 293              	.LBE30:
  97:../Middlewares/screenl/uvcl/Src/uvcl.c **** 
 294              		.loc 1 97 3 view .LVU87
  97:../Middlewares/screenl/uvcl/Src/uvcl.c **** 
 295              		.loc 1 97 18 is_stmt 0 view .LVU88
 296 008c C4F8C450 		str	r5, [r4, #196]
  99:../Middlewares/screenl/uvcl/Src/uvcl.c **** }
 297              		.loc 1 99 3 is_stmt 1 view .LVU89
 298              	.LVL18:
  99:../Middlewares/screenl/uvcl/Src/uvcl.c **** }
 299              		.loc 1 99 3 is_stmt 0 view .LVU90
 300              	.LBE25:
 301              	.LBE24:
 448:../Middlewares/screenl/uvcl/Src/uvcl.c **** }
 302              		.loc 1 448 10 view .LVU91
 303 0090 CCE7     		b	.L10
ARM GAS  /tmp/ccbJxyKS.s 			page 19


 304              		.cfi_endproc
 305              	.LFE902:
 307              		.section	.rodata.UVCL_UpdateOnFlyCtx.str1.1,"aMS",%progbits,1
 308              	.LC2:
 309 0000 6F6E5F66 		.ascii	"on_fly_ctx\000"
 309      6C795F63 
 309      747800
 310              	.LC3:
 311 000b 6F6E5F66 		.ascii	"on_fly_ctx->p_frame\000"
 311      6C795F63 
 311      74782D3E 
 311      705F6672 
 311      616D6500 
 312              		.section	.text.UVCL_UpdateOnFlyCtx,"ax",%progbits
 313              		.align	1
 314              		.global	UVCL_UpdateOnFlyCtx
 315              		.syntax unified
 316              		.thumb
 317              		.thumb_func
 319              	UVCL_UpdateOnFlyCtx:
 320              	.LVL19:
 321              	.LFB904:
 450:../Middlewares/screenl/uvcl/Src/uvcl.c **** 
 451:../Middlewares/screenl/uvcl/Src/uvcl.c **** int UVCL_handle_setup_request(UVCL_Ctx_t *p_ctx, UVCL_SetupReq_t *req)
 452:../Middlewares/screenl/uvcl/Src/uvcl.c **** {
 453:../Middlewares/screenl/uvcl/Src/uvcl.c ****   int ret;
 454:../Middlewares/screenl/uvcl/Src/uvcl.c **** 
 455:../Middlewares/screenl/uvcl/Src/uvcl.c ****   switch (req->bmRequestType & USB_REQ_RECIPIENT_MASK) {
 456:../Middlewares/screenl/uvcl/Src/uvcl.c ****   case USB_REQ_RECIPIENT_INTERFACE:
 457:../Middlewares/screenl/uvcl/Src/uvcl.c ****     ret = UVCL_handle_itf_setup_request(p_ctx, req);
 458:../Middlewares/screenl/uvcl/Src/uvcl.c ****     break;
 459:../Middlewares/screenl/uvcl/Src/uvcl.c ****   default:
 460:../Middlewares/screenl/uvcl/Src/uvcl.c ****     assert(0);
 461:../Middlewares/screenl/uvcl/Src/uvcl.c ****     return -1;
 462:../Middlewares/screenl/uvcl/Src/uvcl.c ****   }
 463:../Middlewares/screenl/uvcl/Src/uvcl.c **** 
 464:../Middlewares/screenl/uvcl/Src/uvcl.c ****   return ret;
 465:../Middlewares/screenl/uvcl/Src/uvcl.c **** }
 466:../Middlewares/screenl/uvcl/Src/uvcl.c **** 
 467:../Middlewares/screenl/uvcl/Src/uvcl.c **** void UVCL_UpdateOnFlyCtx(UVCL_Ctx_t *p_ctx, int len)
 468:../Middlewares/screenl/uvcl/Src/uvcl.c **** {
 322              		.loc 1 468 1 is_stmt 1 view -0
 323              		.cfi_startproc
 324              		@ args = 0, pretend = 0, frame = 0
 325              		@ frame_needed = 0, uses_anonymous_args = 0
 469:../Middlewares/screenl/uvcl/Src/uvcl.c ****   UVCL_OnFlyCtx_t *on_fly_ctx = p_ctx->on_fly_ctx;
 326              		.loc 1 469 3 view .LVU93
 468:../Middlewares/screenl/uvcl/Src/uvcl.c ****   UVCL_OnFlyCtx_t *on_fly_ctx = p_ctx->on_fly_ctx;
 327              		.loc 1 468 1 is_stmt 0 view .LVU94
 328 0000 38B5     		push	{r3, r4, r5, lr}
 329              		.cfi_def_cfa_offset 16
 330              		.cfi_offset 3, -16
 331              		.cfi_offset 4, -12
 332              		.cfi_offset 5, -8
 333              		.cfi_offset 14, -4
 334              		.loc 1 469 20 view .LVU95
 335 0002 D0F8E830 		ldr	r3, [r0, #232]
ARM GAS  /tmp/ccbJxyKS.s 			page 20


 336              	.LVL20:
 470:../Middlewares/screenl/uvcl/Src/uvcl.c **** 
 471:../Middlewares/screenl/uvcl/Src/uvcl.c ****   assert(on_fly_ctx);
 337              		.loc 1 471 3 is_stmt 1 view .LVU96
 468:../Middlewares/screenl/uvcl/Src/uvcl.c ****   UVCL_OnFlyCtx_t *on_fly_ctx = p_ctx->on_fly_ctx;
 338              		.loc 1 468 1 is_stmt 0 view .LVU97
 339 0006 0546     		mov	r5, r0
 340              		.loc 1 471 3 view .LVU98
 341 0008 33B9     		cbnz	r3, .L20
 342              		.loc 1 471 3 discriminator 1 view .LVU99
 343 000a 40F2D711 		movw	r1, #471
 344              	.LVL21:
 345              		.loc 1 471 3 discriminator 1 view .LVU100
 346 000e 104B     		ldr	r3, .L24
 347              	.LVL22:
 348              		.loc 1 471 3 discriminator 1 view .LVU101
 349 0010 104A     		ldr	r2, .L24+4
 350              	.LVL23:
 351              	.L23:
 472:../Middlewares/screenl/uvcl/Src/uvcl.c **** 
 473:../Middlewares/screenl/uvcl/Src/uvcl.c ****   on_fly_ctx->packet_index = (on_fly_ctx->packet_index + 1) % on_fly_ctx->packet_nb;
 474:../Middlewares/screenl/uvcl/Src/uvcl.c ****   on_fly_ctx->cursor += len - 2;
 475:../Middlewares/screenl/uvcl/Src/uvcl.c ****   on_fly_ctx->prev_len = len;
 476:../Middlewares/screenl/uvcl/Src/uvcl.c **** 
 477:../Middlewares/screenl/uvcl/Src/uvcl.c ****   if (on_fly_ctx->packet_index)
 478:../Middlewares/screenl/uvcl/Src/uvcl.c ****     return ;
 479:../Middlewares/screenl/uvcl/Src/uvcl.c **** 
 480:../Middlewares/screenl/uvcl/Src/uvcl.c ****   /* Once displayed we can make frame free */
 481:../Middlewares/screenl/uvcl/Src/uvcl.c ****   assert(on_fly_ctx->p_frame);
 352              		.loc 1 481 3 discriminator 1 view .LVU102
 353 0012 1148     		ldr	r0, .L24+8
 354 0014 FFF7FEFF 		bl	__assert_func
 355              	.LVL24:
 356              	.L20:
 473:../Middlewares/screenl/uvcl/Src/uvcl.c ****   on_fly_ctx->cursor += len - 2;
 357              		.loc 1 473 3 is_stmt 1 view .LVU103
 473:../Middlewares/screenl/uvcl/Src/uvcl.c ****   on_fly_ctx->cursor += len - 2;
 358              		.loc 1 473 56 is_stmt 0 view .LVU104
 359 0018 DC68     		ldr	r4, [r3, #12]
 473:../Middlewares/screenl/uvcl/Src/uvcl.c ****   on_fly_ctx->cursor += len - 2;
 360              		.loc 1 473 61 view .LVU105
 361 001a 9A68     		ldr	r2, [r3, #8]
 473:../Middlewares/screenl/uvcl/Src/uvcl.c ****   on_fly_ctx->cursor += len - 2;
 362              		.loc 1 473 56 view .LVU106
 363 001c 0134     		adds	r4, r4, #1
 473:../Middlewares/screenl/uvcl/Src/uvcl.c ****   on_fly_ctx->cursor += len - 2;
 364              		.loc 1 473 61 view .LVU107
 365 001e 94FBF2F0 		sdiv	r0, r4, r2
 366              	.LVL25:
 473:../Middlewares/screenl/uvcl/Src/uvcl.c ****   on_fly_ctx->cursor += len - 2;
 367              		.loc 1 473 61 view .LVU108
 368 0022 02FB1044 		mls	r4, r2, r0, r4
 474:../Middlewares/screenl/uvcl/Src/uvcl.c ****   on_fly_ctx->prev_len = len;
 369              		.loc 1 474 22 view .LVU109
 370 0026 5A68     		ldr	r2, [r3, #4]
 371 0028 881E     		subs	r0, r1, #2
 372 002a 0244     		add	r2, r2, r0
ARM GAS  /tmp/ccbJxyKS.s 			page 21


 473:../Middlewares/screenl/uvcl/Src/uvcl.c ****   on_fly_ctx->cursor += len - 2;
 373              		.loc 1 473 28 view .LVU110
 374 002c DC60     		str	r4, [r3, #12]
 474:../Middlewares/screenl/uvcl/Src/uvcl.c ****   on_fly_ctx->prev_len = len;
 375              		.loc 1 474 3 is_stmt 1 view .LVU111
 474:../Middlewares/screenl/uvcl/Src/uvcl.c ****   on_fly_ctx->prev_len = len;
 376              		.loc 1 474 22 is_stmt 0 view .LVU112
 377 002e 5A60     		str	r2, [r3, #4]
 475:../Middlewares/screenl/uvcl/Src/uvcl.c **** 
 378              		.loc 1 475 3 is_stmt 1 view .LVU113
 475:../Middlewares/screenl/uvcl/Src/uvcl.c **** 
 379              		.loc 1 475 24 is_stmt 0 view .LVU114
 380 0030 5961     		str	r1, [r3, #20]
 477:../Middlewares/screenl/uvcl/Src/uvcl.c ****     return ;
 381              		.loc 1 477 3 is_stmt 1 view .LVU115
 477:../Middlewares/screenl/uvcl/Src/uvcl.c ****     return ;
 382              		.loc 1 477 6 is_stmt 0 view .LVU116
 383 0032 64B9     		cbnz	r4, .L19
 384              		.loc 1 481 3 is_stmt 1 view .LVU117
 385 0034 9969     		ldr	r1, [r3, #24]
 386              	.LVL26:
 387              		.loc 1 481 3 is_stmt 0 view .LVU118
 388 0036 21B9     		cbnz	r1, .L22
 389              		.loc 1 481 3 discriminator 1 view .LVU119
 390 0038 40F2E111 		movw	r1, #481
 391 003c 074B     		ldr	r3, .L24+12
 392              	.LVL27:
 393              		.loc 1 481 3 discriminator 1 view .LVU120
 394 003e 054A     		ldr	r2, .L24+4
 395 0040 E7E7     		b	.L23
 396              	.LVL28:
 397              	.L22:
 482:../Middlewares/screenl/uvcl/Src/uvcl.c ****   p_ctx->cbs->frame_release(p_ctx->cbs, on_fly_ctx->p_frame);
 398              		.loc 1 482 3 is_stmt 1 view .LVU121
 399              		.loc 1 482 8 is_stmt 0 view .LVU122
 400 0042 D5F8A800 		ldr	r0, [r5, #168]
 401              		.loc 1 482 3 view .LVU123
 402 0046 8368     		ldr	r3, [r0, #8]
 403              	.LVL29:
 404              		.loc 1 482 3 view .LVU124
 405 0048 9847     		blx	r3
 406              	.LVL30:
 483:../Middlewares/screenl/uvcl/Src/uvcl.c **** 
 484:../Middlewares/screenl/uvcl/Src/uvcl.c ****   /* We reach last packet */
 485:../Middlewares/screenl/uvcl/Src/uvcl.c ****   p_ctx->on_fly_ctx = NULL;
 407              		.loc 1 485 3 is_stmt 1 view .LVU125
 408              		.loc 1 485 21 is_stmt 0 view .LVU126
 409 004a C5F8E840 		str	r4, [r5, #232]
 410              	.L19:
 486:../Middlewares/screenl/uvcl/Src/uvcl.c **** }
 411              		.loc 1 486 1 view .LVU127
 412 004e 38BD     		pop	{r3, r4, r5, pc}
 413              	.LVL31:
 414              	.L25:
 415              		.loc 1 486 1 view .LVU128
 416              		.align	2
 417              	.L24:
ARM GAS  /tmp/ccbJxyKS.s 			page 22


 418 0050 00000000 		.word	.LC2
 419 0054 00000000 		.word	__func__.5
 420 0058 13000000 		.word	.LC1
 421 005c 0B000000 		.word	.LC3
 422              		.cfi_endproc
 423              	.LFE904:
 425              		.section	.text.UVCL_AbortOnFlyCtx,"ax",%progbits
 426              		.align	1
 427              		.global	UVCL_AbortOnFlyCtx
 428              		.syntax unified
 429              		.thumb
 430              		.thumb_func
 432              	UVCL_AbortOnFlyCtx:
 433              	.LVL32:
 434              	.LFB905:
 487:../Middlewares/screenl/uvcl/Src/uvcl.c **** 
 488:../Middlewares/screenl/uvcl/Src/uvcl.c **** void UVCL_AbortOnFlyCtx(UVCL_Ctx_t *p_ctx)
 489:../Middlewares/screenl/uvcl/Src/uvcl.c **** {
 435              		.loc 1 489 1 is_stmt 1 view -0
 436              		.cfi_startproc
 437              		@ args = 0, pretend = 0, frame = 0
 438              		@ frame_needed = 0, uses_anonymous_args = 0
 490:../Middlewares/screenl/uvcl/Src/uvcl.c ****   UVCL_OnFlyCtx_t *on_fly_ctx = p_ctx->on_fly_ctx;
 439              		.loc 1 490 3 view .LVU130
 440              		.loc 1 490 20 is_stmt 0 view .LVU131
 441 0000 D0F8E830 		ldr	r3, [r0, #232]
 442              	.LVL33:
 491:../Middlewares/screenl/uvcl/Src/uvcl.c **** 
 492:../Middlewares/screenl/uvcl/Src/uvcl.c ****   assert(on_fly_ctx);
 443              		.loc 1 492 3 is_stmt 1 view .LVU132
 489:../Middlewares/screenl/uvcl/Src/uvcl.c ****   UVCL_OnFlyCtx_t *on_fly_ctx = p_ctx->on_fly_ctx;
 444              		.loc 1 489 1 is_stmt 0 view .LVU133
 445 0004 10B5     		push	{r4, lr}
 446              		.cfi_def_cfa_offset 8
 447              		.cfi_offset 4, -8
 448              		.cfi_offset 14, -4
 489:../Middlewares/screenl/uvcl/Src/uvcl.c ****   UVCL_OnFlyCtx_t *on_fly_ctx = p_ctx->on_fly_ctx;
 449              		.loc 1 489 1 view .LVU134
 450 0006 0446     		mov	r4, r0
 451              		.loc 1 492 3 view .LVU135
 452 0008 33B9     		cbnz	r3, .L27
 453              		.loc 1 492 3 discriminator 1 view .LVU136
 454 000a 4FF4F671 		mov	r1, #492
 455 000e 074B     		ldr	r3, .L28
 456              	.LVL34:
 457              		.loc 1 492 3 discriminator 1 view .LVU137
 458 0010 074A     		ldr	r2, .L28+4
 459 0012 0848     		ldr	r0, .L28+8
 460              	.LVL35:
 461              		.loc 1 492 3 discriminator 1 view .LVU138
 462 0014 FFF7FEFF 		bl	__assert_func
 463              	.LVL36:
 464              	.L27:
 493:../Middlewares/screenl/uvcl/Src/uvcl.c **** 
 494:../Middlewares/screenl/uvcl/Src/uvcl.c ****   p_ctx->cbs->frame_release(p_ctx->cbs, on_fly_ctx->p_frame);
 465              		.loc 1 494 3 is_stmt 1 view .LVU139
 466              		.loc 1 494 8 is_stmt 0 view .LVU140
ARM GAS  /tmp/ccbJxyKS.s 			page 23


 467 0018 D0F8A800 		ldr	r0, [r0, #168]
 468              	.LVL37:
 469              		.loc 1 494 3 view .LVU141
 470 001c 9969     		ldr	r1, [r3, #24]
 471 001e 8268     		ldr	r2, [r0, #8]
 472 0020 9047     		blx	r2
 473              	.LVL38:
 495:../Middlewares/screenl/uvcl/Src/uvcl.c ****   p_ctx->on_fly_ctx = NULL;
 474              		.loc 1 495 3 is_stmt 1 view .LVU142
 475              		.loc 1 495 21 is_stmt 0 view .LVU143
 476 0022 0023     		movs	r3, #0
 477 0024 C4F8E830 		str	r3, [r4, #232]
 496:../Middlewares/screenl/uvcl/Src/uvcl.c **** }
 478              		.loc 1 496 1 view .LVU144
 479 0028 10BD     		pop	{r4, pc}
 480              	.LVL39:
 481              	.L29:
 482              		.loc 1 496 1 view .LVU145
 483 002a 00BF     		.align	2
 484              	.L28:
 485 002c 00000000 		.word	.LC2
 486 0030 00000000 		.word	__func__.4
 487 0034 13000000 		.word	.LC1
 488              		.cfi_endproc
 489              	.LFE905:
 491              		.section	.rodata.UVCL_ComputedwMaxVideoFrameSize.str1.1,"aMS",%progbits,1
 492              	.LC4:
 493 0000 6920213D 		.ascii	"i != conf->streams_nb\000"
 493      20636F6E 
 493      662D3E73 
 493      74726561 
 493      6D735F6E 
 494              	.LC5:
 495 0016 3000     		.ascii	"0\000"
 496              		.section	.text.UVCL_ComputedwMaxVideoFrameSize,"ax",%progbits
 497              		.align	1
 498              		.global	UVCL_ComputedwMaxVideoFrameSize
 499              		.syntax unified
 500              		.thumb
 501              		.thumb_func
 503              	UVCL_ComputedwMaxVideoFrameSize:
 504              	.LVL40:
 505              	.LFB906:
 497:../Middlewares/screenl/uvcl/Src/uvcl.c **** 
 498:../Middlewares/screenl/uvcl/Src/uvcl.c **** uint32_t UVCL_ComputedwMaxVideoFrameSize(UVCL_Ctx_t *ctx, int format_idx, int frame_idx)
 499:../Middlewares/screenl/uvcl/Src/uvcl.c **** {
 506              		.loc 1 499 1 is_stmt 1 view -0
 507              		.cfi_startproc
 508              		@ args = 0, pretend = 0, frame = 0
 509              		@ frame_needed = 0, uses_anonymous_args = 0
 500:../Middlewares/screenl/uvcl/Src/uvcl.c ****   UVCL_Conf_t *conf = &ctx->conf;
 510              		.loc 1 500 3 view .LVU147
 501:../Middlewares/screenl/uvcl/Src/uvcl.c ****   uint32_t dwMaxVideoFrameSize;
 511              		.loc 1 501 3 view .LVU148
 502:../Middlewares/screenl/uvcl/Src/uvcl.c ****   int payload_type;
 512              		.loc 1 502 3 view .LVU149
 503:../Middlewares/screenl/uvcl/Src/uvcl.c ****   int height;
ARM GAS  /tmp/ccbJxyKS.s 			page 24


 513              		.loc 1 503 3 view .LVU150
 504:../Middlewares/screenl/uvcl/Src/uvcl.c ****   int width;
 514              		.loc 1 504 3 view .LVU151
 505:../Middlewares/screenl/uvcl/Src/uvcl.c ****   int res;
 515              		.loc 1 505 3 view .LVU152
 506:../Middlewares/screenl/uvcl/Src/uvcl.c ****   int i;
 516              		.loc 1 506 3 view .LVU153
 507:../Middlewares/screenl/uvcl/Src/uvcl.c **** 
 508:../Middlewares/screenl/uvcl/Src/uvcl.c ****   for (i = 0; i < conf->streams_nb; i++) {
 517              		.loc 1 508 3 view .LVU154
 499:../Middlewares/screenl/uvcl/Src/uvcl.c ****   UVCL_Conf_t *conf = &ctx->conf;
 518              		.loc 1 499 1 is_stmt 0 view .LVU155
 519 0000 70B5     		push	{r4, r5, r6, lr}
 520              		.cfi_def_cfa_offset 16
 521              		.cfi_offset 4, -16
 522              		.cfi_offset 5, -12
 523              		.cfi_offset 6, -8
 524              		.cfi_offset 14, -4
 525              		.loc 1 508 10 view .LVU156
 526 0002 0023     		movs	r3, #0
 499:../Middlewares/screenl/uvcl/Src/uvcl.c ****   UVCL_Conf_t *conf = &ctx->conf;
 527              		.loc 1 499 1 view .LVU157
 528 0004 0446     		mov	r4, r0
 529              		.loc 1 508 23 discriminator 1 view .LVU158
 530 0006 D0F8A050 		ldr	r5, [r0, #160]
 531              	.LVL41:
 532              	.L31:
 533              		.loc 1 508 17 is_stmt 1 discriminator 1 view .LVU159
 534 000a 9D42     		cmp	r5, r3
 535 000c 07DC     		bgt	.L35
 509:../Middlewares/screenl/uvcl/Src/uvcl.c ****     if (ctx->streams_p[i].bFormatIndex == format_idx && ctx->streams_p[i].bFrameIndex == frame_idx)
 510:../Middlewares/screenl/uvcl/Src/uvcl.c ****       break;
 511:../Middlewares/screenl/uvcl/Src/uvcl.c ****   }
 512:../Middlewares/screenl/uvcl/Src/uvcl.c ****   assert(i != conf->streams_nb);
 536              		.loc 1 512 3 view .LVU160
 537 000e 0ED1     		bne	.L33
 538              		.loc 1 512 3 is_stmt 0 discriminator 1 view .LVU161
 539 0010 4FF40071 		mov	r1, #512
 540              	.LVL42:
 541              		.loc 1 512 3 discriminator 1 view .LVU162
 542 0014 184B     		ldr	r3, .L55
 543              	.LVL43:
 544              		.loc 1 512 3 discriminator 1 view .LVU163
 545 0016 194A     		ldr	r2, .L55+4
 546              	.LVL44:
 547              	.L52:
 513:../Middlewares/screenl/uvcl/Src/uvcl.c **** 
 514:../Middlewares/screenl/uvcl/Src/uvcl.c ****   dwMaxVideoFrameSize = conf->streams[i].dwMaxVideoFrameSize;
 515:../Middlewares/screenl/uvcl/Src/uvcl.c ****   payload_type = conf->streams[i].payload_type;
 516:../Middlewares/screenl/uvcl/Src/uvcl.c ****   height = conf->streams[i].height;
 517:../Middlewares/screenl/uvcl/Src/uvcl.c ****   width = conf->streams[i].width;
 518:../Middlewares/screenl/uvcl/Src/uvcl.c **** 
 519:../Middlewares/screenl/uvcl/Src/uvcl.c ****   res = height * width;
 520:../Middlewares/screenl/uvcl/Src/uvcl.c ****   switch (payload_type) {
 521:../Middlewares/screenl/uvcl/Src/uvcl.c ****   case UVCL_PAYLOAD_FB_GREY:
 522:../Middlewares/screenl/uvcl/Src/uvcl.c ****   case UVCL_PAYLOAD_FB_GREY_D3DFMT_L8:
 523:../Middlewares/screenl/uvcl/Src/uvcl.c ****     res = width * height * 1;
ARM GAS  /tmp/ccbJxyKS.s 			page 25


 524:../Middlewares/screenl/uvcl/Src/uvcl.c ****     break;
 525:../Middlewares/screenl/uvcl/Src/uvcl.c ****   case UVCL_PAYLOAD_UNCOMPRESSED_YUY2:
 526:../Middlewares/screenl/uvcl/Src/uvcl.c ****   case UVCL_PAYLOAD_FB_RGB565:
 527:../Middlewares/screenl/uvcl/Src/uvcl.c ****     res = width * height * 2;
 528:../Middlewares/screenl/uvcl/Src/uvcl.c ****     break;
 529:../Middlewares/screenl/uvcl/Src/uvcl.c ****   case UVCL_PAYLOAD_FB_BGR3:
 530:../Middlewares/screenl/uvcl/Src/uvcl.c ****     res = width * height * 3;
 531:../Middlewares/screenl/uvcl/Src/uvcl.c ****     break;
 532:../Middlewares/screenl/uvcl/Src/uvcl.c ****   case UVCL_PAYLOAD_JPEG:
 533:../Middlewares/screenl/uvcl/Src/uvcl.c ****     res = dwMaxVideoFrameSize ?  dwMaxVideoFrameSize : width * height;
 534:../Middlewares/screenl/uvcl/Src/uvcl.c ****     break;
 535:../Middlewares/screenl/uvcl/Src/uvcl.c ****   case UVCL_PAYLOAD_FB_H264:
 536:../Middlewares/screenl/uvcl/Src/uvcl.c ****     res = dwMaxVideoFrameSize ?  dwMaxVideoFrameSize : width * height;
 537:../Middlewares/screenl/uvcl/Src/uvcl.c ****     break;
 538:../Middlewares/screenl/uvcl/Src/uvcl.c ****   case UVCL_PAYLOAD_FB_JPEG:
 539:../Middlewares/screenl/uvcl/Src/uvcl.c ****     res = dwMaxVideoFrameSize ?  dwMaxVideoFrameSize : width * height;
 540:../Middlewares/screenl/uvcl/Src/uvcl.c ****     break;
 541:../Middlewares/screenl/uvcl/Src/uvcl.c ****   default:
 542:../Middlewares/screenl/uvcl/Src/uvcl.c ****     assert(0);
 548              		.loc 1 542 5 view .LVU164
 549 0018 1948     		ldr	r0, .L55+8
 550 001a FFF7FEFF 		bl	__assert_func
 551              	.LVL45:
 552              	.L35:
 509:../Middlewares/screenl/uvcl/Src/uvcl.c ****     if (ctx->streams_p[i].bFormatIndex == format_idx && ctx->streams_p[i].bFrameIndex == frame_idx)
 553              		.loc 1 509 5 is_stmt 1 view .LVU165
 509:../Middlewares/screenl/uvcl/Src/uvcl.c ****     if (ctx->streams_p[i].bFormatIndex == format_idx && ctx->streams_p[i].bFrameIndex == frame_idx)
 554              		.loc 1 509 26 is_stmt 0 view .LVU166
 555 001e 90F84C61 		ldrb	r6, [r0, #332]	@ zero_extendqisi2
 509:../Middlewares/screenl/uvcl/Src/uvcl.c ****     if (ctx->streams_p[i].bFormatIndex == format_idx && ctx->streams_p[i].bFrameIndex == frame_idx)
 556              		.loc 1 509 8 view .LVU167
 557 0022 8E42     		cmp	r6, r1
 558 0024 12D1     		bne	.L32
 509:../Middlewares/screenl/uvcl/Src/uvcl.c ****     if (ctx->streams_p[i].bFormatIndex == format_idx && ctx->streams_p[i].bFrameIndex == frame_idx)
 559              		.loc 1 509 74 discriminator 1 view .LVU168
 560 0026 90F84D61 		ldrb	r6, [r0, #333]	@ zero_extendqisi2
 509:../Middlewares/screenl/uvcl/Src/uvcl.c ****     if (ctx->streams_p[i].bFormatIndex == format_idx && ctx->streams_p[i].bFrameIndex == frame_idx)
 561              		.loc 1 509 54 discriminator 1 view .LVU169
 562 002a 9642     		cmp	r6, r2
 563 002c 0ED1     		bne	.L32
 564              	.L33:
 514:../Middlewares/screenl/uvcl/Src/uvcl.c ****   payload_type = conf->streams[i].payload_type;
 565              		.loc 1 514 3 is_stmt 1 view .LVU170
 514:../Middlewares/screenl/uvcl/Src/uvcl.c ****   payload_type = conf->streams[i].payload_type;
 566              		.loc 1 514 23 is_stmt 0 view .LVU171
 567 002e 1422     		movs	r2, #20
 568              	.LVL46:
 514:../Middlewares/screenl/uvcl/Src/uvcl.c ****   payload_type = conf->streams[i].payload_type;
 569              		.loc 1 514 23 view .LVU172
 570 0030 5A43     		muls	r2, r3, r2
 571 0032 A118     		adds	r1, r4, r2
 572              	.LVL47:
 520:../Middlewares/screenl/uvcl/Src/uvcl.c ****   case UVCL_PAYLOAD_FB_GREY:
 573              		.loc 1 520 3 view .LVU173
 574 0034 A258     		ldr	r2, [r4, r2]
 514:../Middlewares/screenl/uvcl/Src/uvcl.c ****   payload_type = conf->streams[i].payload_type;
 575              		.loc 1 514 23 view .LVU174
ARM GAS  /tmp/ccbJxyKS.s 			page 26


 576 0036 0869     		ldr	r0, [r1, #16]
 577              	.LVL48:
 515:../Middlewares/screenl/uvcl/Src/uvcl.c ****   height = conf->streams[i].height;
 578              		.loc 1 515 3 is_stmt 1 view .LVU175
 516:../Middlewares/screenl/uvcl/Src/uvcl.c ****   width = conf->streams[i].width;
 579              		.loc 1 516 3 view .LVU176
 517:../Middlewares/screenl/uvcl/Src/uvcl.c **** 
 580              		.loc 1 517 9 is_stmt 0 view .LVU177
 581 0038 D1E90113 		ldrd	r1, r3, [r1, #4]
 582              	.LVL49:
 519:../Middlewares/screenl/uvcl/Src/uvcl.c ****   switch (payload_type) {
 583              		.loc 1 519 3 is_stmt 1 view .LVU178
 520:../Middlewares/screenl/uvcl/Src/uvcl.c ****   case UVCL_PAYLOAD_FB_GREY:
 584              		.loc 1 520 3 view .LVU179
 585 003c 072A     		cmp	r2, #7
 586 003e 15D8     		bhi	.L37
 587 0040 DFE802F0 		tbb	[pc, r2]
 588              	.LVL50:
 589              	.L39:
 590 0044 07       		.byte	(.L43-.L39)/2
 591 0045 0F       		.byte	(.L40-.L39)/2
 592 0046 07       		.byte	(.L43-.L39)/2
 593 0047 0A       		.byte	(.L42-.L39)/2
 594 0048 11       		.byte	(.L51-.L39)/2
 595 0049 0F       		.byte	(.L40-.L39)/2
 596 004a 0F       		.byte	(.L40-.L39)/2
 597 004b 11       		.byte	(.L51-.L39)/2
 598              		.p2align 1
 599              	.L32:
 508:../Middlewares/screenl/uvcl/Src/uvcl.c ****     if (ctx->streams_p[i].bFormatIndex == format_idx && ctx->streams_p[i].bFrameIndex == frame_idx)
 600              		.loc 1 508 38 discriminator 2 view .LVU180
 601 004c 0133     		adds	r3, r3, #1
 602              	.LVL51:
 508:../Middlewares/screenl/uvcl/Src/uvcl.c ****     if (ctx->streams_p[i].bFormatIndex == format_idx && ctx->streams_p[i].bFrameIndex == frame_idx)
 603              		.loc 1 508 38 is_stmt 0 discriminator 2 view .LVU181
 604 004e 0830     		adds	r0, r0, #8
 605 0050 DBE7     		b	.L31
 606              	.LVL52:
 607              	.L43:
 527:../Middlewares/screenl/uvcl/Src/uvcl.c ****     break;
 608              		.loc 1 527 5 is_stmt 1 view .LVU182
 527:../Middlewares/screenl/uvcl/Src/uvcl.c ****     break;
 609              		.loc 1 527 17 is_stmt 0 view .LVU183
 610 0052 4B43     		muls	r3, r1, r3
 611              	.LVL53:
 527:../Middlewares/screenl/uvcl/Src/uvcl.c ****     break;
 612              		.loc 1 527 9 view .LVU184
 613 0054 5800     		lsls	r0, r3, #1
 614              	.LVL54:
 528:../Middlewares/screenl/uvcl/Src/uvcl.c ****   case UVCL_PAYLOAD_FB_BGR3:
 615              		.loc 1 528 5 is_stmt 1 view .LVU185
 616              	.L45:
 543:../Middlewares/screenl/uvcl/Src/uvcl.c ****   }
 544:../Middlewares/screenl/uvcl/Src/uvcl.c **** 
 545:../Middlewares/screenl/uvcl/Src/uvcl.c ****   return res;
 617              		.loc 1 545 3 view .LVU186
 546:../Middlewares/screenl/uvcl/Src/uvcl.c **** }
ARM GAS  /tmp/ccbJxyKS.s 			page 27


 618              		.loc 1 546 1 is_stmt 0 view .LVU187
 619 0056 70BD     		pop	{r4, r5, r6, pc}
 620              	.LVL55:
 621              	.L42:
 530:../Middlewares/screenl/uvcl/Src/uvcl.c ****     break;
 622              		.loc 1 530 5 is_stmt 1 view .LVU188
 530:../Middlewares/screenl/uvcl/Src/uvcl.c ****     break;
 623              		.loc 1 530 17 is_stmt 0 view .LVU189
 624 0058 01FB03F0 		mul	r0, r1, r3
 625              	.LVL56:
 530:../Middlewares/screenl/uvcl/Src/uvcl.c ****     break;
 626              		.loc 1 530 9 view .LVU190
 627 005c 00EB4000 		add	r0, r0, r0, lsl #1
 628              	.LVL57:
 531:../Middlewares/screenl/uvcl/Src/uvcl.c ****   case UVCL_PAYLOAD_JPEG:
 629              		.loc 1 531 5 is_stmt 1 view .LVU191
 630 0060 F9E7     		b	.L45
 631              	.LVL58:
 632              	.L40:
 539:../Middlewares/screenl/uvcl/Src/uvcl.c ****     break;
 633              		.loc 1 539 5 view .LVU192
 539:../Middlewares/screenl/uvcl/Src/uvcl.c ****     break;
 634              		.loc 1 539 54 is_stmt 0 view .LVU193
 635 0062 0028     		cmp	r0, #0
 636 0064 F7D1     		bne	.L45
 637              	.L51:
 539:../Middlewares/screenl/uvcl/Src/uvcl.c ****     break;
 638              		.loc 1 539 54 discriminator 1 view .LVU194
 639 0066 01FB03F0 		mul	r0, r1, r3
 640              	.LVL59:
 539:../Middlewares/screenl/uvcl/Src/uvcl.c ****     break;
 641              		.loc 1 539 54 discriminator 1 view .LVU195
 642 006a F4E7     		b	.L45
 643              	.LVL60:
 644              	.L37:
 542:../Middlewares/screenl/uvcl/Src/uvcl.c ****   }
 645              		.loc 1 542 5 is_stmt 1 view .LVU196
 646 006c 40F21E21 		movw	r1, #542
 647              	.LVL61:
 542:../Middlewares/screenl/uvcl/Src/uvcl.c ****   }
 648              		.loc 1 542 5 is_stmt 0 view .LVU197
 649 0070 044B     		ldr	r3, .L55+12
 542:../Middlewares/screenl/uvcl/Src/uvcl.c ****   }
 650              		.loc 1 542 5 view .LVU198
 651 0072 024A     		ldr	r2, .L55+4
 652 0074 D0E7     		b	.L52
 653              	.L56:
 654 0076 00BF     		.align	2
 655              	.L55:
 656 0078 00000000 		.word	.LC4
 657 007c 00000000 		.word	__func__.3
 658 0080 13000000 		.word	.LC1
 659 0084 16000000 		.word	.LC5
 660              		.cfi_endproc
 661              	.LFE906:
 663              		.section	.text.UVCL_handle_setup_request,"ax",%progbits
 664              		.align	1
ARM GAS  /tmp/ccbJxyKS.s 			page 28


 665              		.global	UVCL_handle_setup_request
 666              		.syntax unified
 667              		.thumb
 668              		.thumb_func
 670              	UVCL_handle_setup_request:
 671              	.LVL62:
 672              	.LFB903:
 452:../Middlewares/screenl/uvcl/Src/uvcl.c ****   int ret;
 673              		.loc 1 452 1 is_stmt 1 view -0
 674              		.cfi_startproc
 675              		@ args = 0, pretend = 0, frame = 0
 676              		@ frame_needed = 0, uses_anonymous_args = 0
 453:../Middlewares/screenl/uvcl/Src/uvcl.c **** 
 677              		.loc 1 453 3 view .LVU200
 455:../Middlewares/screenl/uvcl/Src/uvcl.c ****   case USB_REQ_RECIPIENT_INTERFACE:
 678              		.loc 1 455 3 view .LVU201
 452:../Middlewares/screenl/uvcl/Src/uvcl.c ****   int ret;
 679              		.loc 1 452 1 is_stmt 0 view .LVU202
 680 0000 2DE9F041 		push	{r4, r5, r6, r7, r8, lr}
 681              		.cfi_def_cfa_offset 24
 682              		.cfi_offset 4, -24
 683              		.cfi_offset 5, -20
 684              		.cfi_offset 6, -16
 685              		.cfi_offset 7, -12
 686              		.cfi_offset 8, -8
 687              		.cfi_offset 14, -4
 455:../Middlewares/screenl/uvcl/Src/uvcl.c ****   case USB_REQ_RECIPIENT_INTERFACE:
 688              		.loc 1 455 14 view .LVU203
 689 0004 0B78     		ldrb	r3, [r1]	@ zero_extendqisi2
 452:../Middlewares/screenl/uvcl/Src/uvcl.c ****   int ret;
 690              		.loc 1 452 1 view .LVU204
 691 0006 0546     		mov	r5, r0
 455:../Middlewares/screenl/uvcl/Src/uvcl.c ****   case USB_REQ_RECIPIENT_INTERFACE:
 692              		.loc 1 455 3 view .LVU205
 693 0008 03F00302 		and	r2, r3, #3
 694 000c 012A     		cmp	r2, #1
 452:../Middlewares/screenl/uvcl/Src/uvcl.c ****   int ret;
 695              		.loc 1 452 1 view .LVU206
 696 000e 0C46     		mov	r4, r1
 455:../Middlewares/screenl/uvcl/Src/uvcl.c ****   case USB_REQ_RECIPIENT_INTERFACE:
 697              		.loc 1 455 3 view .LVU207
 698 0010 76D1     		bne	.L58
 457:../Middlewares/screenl/uvcl/Src/uvcl.c ****     break;
 699              		.loc 1 457 5 is_stmt 1 view .LVU208
 700              	.LVL63:
 701              	.LBB50:
 702              	.LBI50:
 238:../Middlewares/screenl/uvcl/Src/uvcl.c **** {
 703              		.loc 1 238 12 view .LVU209
 704              	.LBB51:
 240:../Middlewares/screenl/uvcl/Src/uvcl.c **** 
 705              		.loc 1 240 3 view .LVU210
 242:../Middlewares/screenl/uvcl/Src/uvcl.c ****   case USB_REQ_TYPE_STANDARD:
 706              		.loc 1 242 3 view .LVU211
 707 0012 13F06003 		ands	r3, r3, #96
 708 0016 05D0     		beq	.L59
 709 0018 202B     		cmp	r3, #32
ARM GAS  /tmp/ccbJxyKS.s 			page 29


 710 001a 1ED0     		beq	.L60
 250:../Middlewares/screenl/uvcl/Src/uvcl.c ****     return -1;
 711              		.loc 1 250 5 view .LVU212
 712 001c FA21     		movs	r1, #250
 713              	.LVL64:
 250:../Middlewares/screenl/uvcl/Src/uvcl.c ****     return -1;
 714              		.loc 1 250 5 is_stmt 0 view .LVU213
 715 001e 3D4B     		ldr	r3, .L85
 716 0020 3D4A     		ldr	r2, .L85+4
 717 0022 0CE0     		b	.L83
 718              	.LVL65:
 719              	.L59:
 244:../Middlewares/screenl/uvcl/Src/uvcl.c ****     break;
 720              		.loc 1 244 5 is_stmt 1 view .LVU214
 721              	.LBB52:
 722              	.LBI52:
 129:../Middlewares/screenl/uvcl/Src/uvcl.c **** {
 723              		.loc 1 129 12 view .LVU215
 724              	.LBB53:
 131:../Middlewares/screenl/uvcl/Src/uvcl.c **** 
 725              		.loc 1 131 3 view .LVU216
 133:../Middlewares/screenl/uvcl/Src/uvcl.c ****   case USB_REQ_SET_INTERFACE:
 726              		.loc 1 133 3 view .LVU217
 727 0024 4B78     		ldrb	r3, [r1, #1]	@ zero_extendqisi2
 728 0026 0B2B     		cmp	r3, #11
 729 0028 13D1     		bne	.L62
 135:../Middlewares/screenl/uvcl/Src/uvcl.c ****     break;
 730              		.loc 1 135 5 view .LVU218
 731              	.LVL66:
 732              	.LBB54:
 733              	.LBI54:
 102:../Middlewares/screenl/uvcl/Src/uvcl.c **** {
 734              		.loc 1 102 12 view .LVU219
 735              	.LBB55:
 104:../Middlewares/screenl/uvcl/Src/uvcl.c ****   uint16_t wValue = req->wValue;
 736              		.loc 1 104 3 view .LVU220
 105:../Middlewares/screenl/uvcl/Src/uvcl.c ****   int ret;
 737              		.loc 1 105 3 view .LVU221
 109:../Middlewares/screenl/uvcl/Src/uvcl.c ****     return -1;
 738              		.loc 1 109 6 is_stmt 0 view .LVU222
 739 002a 8A88     		ldrh	r2, [r1, #4]
 105:../Middlewares/screenl/uvcl/Src/uvcl.c ****   int ret;
 740              		.loc 1 105 12 view .LVU223
 741 002c 4B88     		ldrh	r3, [r1, #2]
 742              	.LVL67:
 106:../Middlewares/screenl/uvcl/Src/uvcl.c **** 
 743              		.loc 1 106 3 is_stmt 1 view .LVU224
 109:../Middlewares/screenl/uvcl/Src/uvcl.c ****     return -1;
 744              		.loc 1 109 3 view .LVU225
 109:../Middlewares/screenl/uvcl/Src/uvcl.c ****     return -1;
 745              		.loc 1 109 6 is_stmt 0 view .LVU226
 746 002e 012A     		cmp	r2, #1
 747 0030 6BD1     		bne	.L57
 112:../Middlewares/screenl/uvcl/Src/uvcl.c ****   case 0:
 748              		.loc 1 112 3 is_stmt 1 view .LVU227
 749 0032 3BB1     		cbz	r3, .L64
 750 0034 012B     		cmp	r3, #1
ARM GAS  /tmp/ccbJxyKS.s 			page 30


 751 0036 0AD0     		beq	.L65
 122:../Middlewares/screenl/uvcl/Src/uvcl.c ****     return -1;
 752              		.loc 1 122 5 view .LVU228
 753 0038 7A21     		movs	r1, #122
 754              	.LVL68:
 122:../Middlewares/screenl/uvcl/Src/uvcl.c ****     return -1;
 755              		.loc 1 122 5 is_stmt 0 view .LVU229
 756 003a 364B     		ldr	r3, .L85
 757              	.LVL69:
 122:../Middlewares/screenl/uvcl/Src/uvcl.c ****     return -1;
 758              		.loc 1 122 5 view .LVU230
 759 003c 374A     		ldr	r2, .L85+8
 760              	.LVL70:
 761              	.L83:
 122:../Middlewares/screenl/uvcl/Src/uvcl.c ****     return -1;
 762              		.loc 1 122 5 view .LVU231
 763              	.LBE55:
 764              	.LBE54:
 765              	.LBE53:
 766              	.LBE52:
 767              	.LBE51:
 768              	.LBE50:
 460:../Middlewares/screenl/uvcl/Src/uvcl.c ****     return -1;
 769              		.loc 1 460 5 view .LVU232
 770 003e 3848     		ldr	r0, .L85+12
 771              	.LVL71:
 460:../Middlewares/screenl/uvcl/Src/uvcl.c ****     return -1;
 772              		.loc 1 460 5 view .LVU233
 773 0040 FFF7FEFF 		bl	__assert_func
 774              	.LVL72:
 775              	.L64:
 776              	.LBB93:
 777              	.LBB90:
 778              	.LBB62:
 779              	.LBB60:
 780              	.LBB58:
 781              	.LBB56:
 115:../Middlewares/screenl/uvcl/Src/uvcl.c ****     break;
 782              		.loc 1 115 5 is_stmt 1 view .LVU234
 115:../Middlewares/screenl/uvcl/Src/uvcl.c ****     break;
 783              		.loc 1 115 11 is_stmt 0 view .LVU235
 784 0044 0B69     		ldr	r3, [r1, #16]
 785              	.LVL73:
 786              	.L81:
 119:../Middlewares/screenl/uvcl/Src/uvcl.c ****     break;
 787              		.loc 1 119 11 view .LVU236
 788 0046 E068     		ldr	r0, [r4, #12]
 789              	.LVL74:
 119:../Middlewares/screenl/uvcl/Src/uvcl.c ****     break;
 790              		.loc 1 119 11 view .LVU237
 791              	.LBE56:
 792              	.LBE58:
 793              	.LBE60:
 794              	.LBE62:
 795              	.LBE90:
 796              	.LBE93:
 465:../Middlewares/screenl/uvcl/Src/uvcl.c **** 
ARM GAS  /tmp/ccbJxyKS.s 			page 31


 797              		.loc 1 465 1 view .LVU238
 798 0048 BDE8F041 		pop	{r4, r5, r6, r7, r8, lr}
 799              		.cfi_remember_state
 800              		.cfi_restore 14
 801              		.cfi_restore 8
 802              		.cfi_restore 7
 803              		.cfi_restore 6
 804              		.cfi_restore 5
 805              		.cfi_restore 4
 806              		.cfi_def_cfa_offset 0
 807              	.LVL75:
 808              	.LBB94:
 809              	.LBB91:
 810              	.LBB63:
 811              	.LBB61:
 812              	.LBB59:
 813              	.LBB57:
 119:../Middlewares/screenl/uvcl/Src/uvcl.c ****     break;
 814              		.loc 1 119 11 view .LVU239
 815 004c 1847     		bx	r3
 816              	.LVL76:
 817              	.L65:
 818              		.cfi_restore_state
 119:../Middlewares/screenl/uvcl/Src/uvcl.c ****     break;
 819              		.loc 1 119 5 is_stmt 1 view .LVU240
 119:../Middlewares/screenl/uvcl/Src/uvcl.c ****     break;
 820              		.loc 1 119 11 is_stmt 0 view .LVU241
 821 004e 4B69     		ldr	r3, [r1, #20]
 822              	.LVL77:
 119:../Middlewares/screenl/uvcl/Src/uvcl.c ****     break;
 823              		.loc 1 119 11 view .LVU242
 824 0050 F9E7     		b	.L81
 825              	.LVL78:
 826              	.L62:
 119:../Middlewares/screenl/uvcl/Src/uvcl.c ****     break;
 827              		.loc 1 119 11 view .LVU243
 828              	.LBE57:
 829              	.LBE59:
 138:../Middlewares/screenl/uvcl/Src/uvcl.c ****     return -1;
 830              		.loc 1 138 5 is_stmt 1 view .LVU244
 831 0052 8A21     		movs	r1, #138
 832              	.LVL79:
 138:../Middlewares/screenl/uvcl/Src/uvcl.c ****     return -1;
 833              		.loc 1 138 5 is_stmt 0 view .LVU245
 834 0054 2F4B     		ldr	r3, .L85
 835 0056 334A     		ldr	r2, .L85+16
 836 0058 F1E7     		b	.L83
 837              	.LVL80:
 838              	.L60:
 138:../Middlewares/screenl/uvcl/Src/uvcl.c ****     return -1;
 839              		.loc 1 138 5 view .LVU246
 840              	.LBE61:
 841              	.LBE63:
 247:../Middlewares/screenl/uvcl/Src/uvcl.c ****     break;
 842              		.loc 1 247 5 is_stmt 1 view .LVU247
 843              	.LBB64:
 844              	.LBI64:
ARM GAS  /tmp/ccbJxyKS.s 			page 32


 213:../Middlewares/screenl/uvcl/Src/uvcl.c **** {
 845              		.loc 1 213 12 view .LVU248
 846              	.LBB65:
 215:../Middlewares/screenl/uvcl/Src/uvcl.c ****   int cs = req->wValue >> 8;
 847              		.loc 1 215 3 view .LVU249
 216:../Middlewares/screenl/uvcl/Src/uvcl.c ****   int ret;
 848              		.loc 1 216 3 view .LVU250
 216:../Middlewares/screenl/uvcl/Src/uvcl.c ****   int ret;
 849              		.loc 1 216 24 is_stmt 0 view .LVU251
 850 005a 4B88     		ldrh	r3, [r1, #2]
 220:../Middlewares/screenl/uvcl/Src/uvcl.c ****     return -1;
 851              		.loc 1 220 6 view .LVU252
 852 005c 8A88     		ldrh	r2, [r1, #4]
 853              	.LVL81:
 216:../Middlewares/screenl/uvcl/Src/uvcl.c ****   int ret;
 854              		.loc 1 216 24 view .LVU253
 855 005e 1B0A     		lsrs	r3, r3, #8
 856              	.LVL82:
 217:../Middlewares/screenl/uvcl/Src/uvcl.c **** 
 857              		.loc 1 217 3 is_stmt 1 view .LVU254
 220:../Middlewares/screenl/uvcl/Src/uvcl.c ****     return -1;
 858              		.loc 1 220 3 view .LVU255
 220:../Middlewares/screenl/uvcl/Src/uvcl.c ****     return -1;
 859              		.loc 1 220 6 is_stmt 0 view .LVU256
 860 0060 002A     		cmp	r2, #0
 861 0062 52D0     		beq	.L57
 223:../Middlewares/screenl/uvcl/Src/uvcl.c ****   case VS_PROBE_CONTROL_CS:
 862              		.loc 1 223 3 is_stmt 1 view .LVU257
 863 0064 012B     		cmp	r3, #1
 864 0066 05D0     		beq	.L67
 865 0068 022B     		cmp	r3, #2
 866 006a 3AD0     		beq	.L68
 231:../Middlewares/screenl/uvcl/Src/uvcl.c ****     return -1;
 867              		.loc 1 231 5 view .LVU258
 868 006c E721     		movs	r1, #231
 869              	.LVL83:
 231:../Middlewares/screenl/uvcl/Src/uvcl.c ****     return -1;
 870              		.loc 1 231 5 is_stmt 0 view .LVU259
 871 006e 294B     		ldr	r3, .L85
 872              	.LVL84:
 231:../Middlewares/screenl/uvcl/Src/uvcl.c ****     return -1;
 873              		.loc 1 231 5 view .LVU260
 874 0070 2D4A     		ldr	r2, .L85+20
 875              	.LVL85:
 231:../Middlewares/screenl/uvcl/Src/uvcl.c ****     return -1;
 876              		.loc 1 231 5 view .LVU261
 877 0072 E4E7     		b	.L83
 878              	.LVL86:
 879              	.L67:
 225:../Middlewares/screenl/uvcl/Src/uvcl.c ****     break;
 880              		.loc 1 225 5 is_stmt 1 view .LVU262
 881              	.LBB66:
 882              	.LBI66:
 169:../Middlewares/screenl/uvcl/Src/uvcl.c **** {
 883              		.loc 1 169 12 view .LVU263
 884              	.LBB67:
 171:../Middlewares/screenl/uvcl/Src/uvcl.c **** 
ARM GAS  /tmp/ccbJxyKS.s 			page 33


 885              		.loc 1 171 3 view .LVU264
 173:../Middlewares/screenl/uvcl/Src/uvcl.c ****   case UVC_GET_DEF:
 886              		.loc 1 173 3 view .LVU265
 173:../Middlewares/screenl/uvcl/Src/uvcl.c ****   case UVC_GET_DEF:
 887              		.loc 1 173 14 is_stmt 0 view .LVU266
 888 0074 4B78     		ldrb	r3, [r1, #1]	@ zero_extendqisi2
 889              	.LVL87:
 173:../Middlewares/screenl/uvcl/Src/uvcl.c ****   case UVC_GET_DEF:
 890              		.loc 1 173 14 view .LVU267
 891 0076 00F58E77 		add	r7, r0, #284
 173:../Middlewares/screenl/uvcl/Src/uvcl.c ****   case UVC_GET_DEF:
 892              		.loc 1 173 3 view .LVU268
 893 007a 832B     		cmp	r3, #131
 894 007c 07D8     		bhi	.L70
 895 007e 802B     		cmp	r3, #128
 896 0080 07D8     		bhi	.L71
 897 0082 012B     		cmp	r3, #1
 898 0084 2AD0     		beq	.L72
 899              	.L73:
 184:../Middlewares/screenl/uvcl/Src/uvcl.c ****     return -1;
 900              		.loc 1 184 5 is_stmt 1 view .LVU269
 901 0086 B821     		movs	r1, #184
 902              	.LVL88:
 184:../Middlewares/screenl/uvcl/Src/uvcl.c ****     return -1;
 903              		.loc 1 184 5 is_stmt 0 view .LVU270
 904 0088 224B     		ldr	r3, .L85
 905 008a 284A     		ldr	r2, .L85+24
 906              	.LVL89:
 184:../Middlewares/screenl/uvcl/Src/uvcl.c ****     return -1;
 907              		.loc 1 184 5 view .LVU271
 908 008c D7E7     		b	.L83
 909              	.LVL90:
 910              	.L70:
 173:../Middlewares/screenl/uvcl/Src/uvcl.c ****   case UVC_GET_DEF:
 911              		.loc 1 173 3 view .LVU272
 912 008e 872B     		cmp	r3, #135
 913 0090 F9D1     		bne	.L73
 914              	.L71:
 178:../Middlewares/screenl/uvcl/Src/uvcl.c ****     break;
 915              		.loc 1 178 5 is_stmt 1 view .LVU273
 916              	.LVL91:
 917              	.LBB68:
 918              	.LBI68:
 145:../Middlewares/screenl/uvcl/Src/uvcl.c **** {
 919              		.loc 1 145 12 view .LVU274
 920              	.LBB69:
 147:../Middlewares/screenl/uvcl/Src/uvcl.c ****   int frame_idx = p_ctx->UVC_VideoProbeControl.bFrameIndex;
 921              		.loc 1 147 3 view .LVU275
 148:../Middlewares/screenl/uvcl/Src/uvcl.c **** 
 922              		.loc 1 148 3 view .LVU276
 150:../Middlewares/screenl/uvcl/Src/uvcl.c ****   p_ctx->UVC_VideoProbeControl.dwMaxVideoFrameSize = UVCL_ComputedwMaxVideoFrameSize(p_ctx, format_
 923              		.loc 1 150 3 view .LVU277
 150:../Middlewares/screenl/uvcl/Src/uvcl.c ****   p_ctx->UVC_VideoProbeControl.dwMaxVideoFrameSize = UVCL_ComputedwMaxVideoFrameSize(p_ctx, format_
 924              		.loc 1 150 39 is_stmt 0 view .LVU278
 925 0092 0026     		movs	r6, #0
 151:../Middlewares/screenl/uvcl/Src/uvcl.c ****   p_ctx->UVC_VideoProbeControl.dwMaxPayloadTransferSize = req->dwMaxPayloadTransferSize;
 926              		.loc 1 151 54 view .LVU279
ARM GAS  /tmp/ccbJxyKS.s 			page 34


 927 0094 95F81F21 		ldrb	r2, [r5, #287]	@ zero_extendqisi2
 928              	.LVL92:
 151:../Middlewares/screenl/uvcl/Src/uvcl.c ****   p_ctx->UVC_VideoProbeControl.dwMaxPayloadTransferSize = req->dwMaxPayloadTransferSize;
 929              		.loc 1 151 54 view .LVU280
 930 0098 2846     		mov	r0, r5
 931              	.LVL93:
 151:../Middlewares/screenl/uvcl/Src/uvcl.c ****   p_ctx->UVC_VideoProbeControl.dwMaxPayloadTransferSize = req->dwMaxPayloadTransferSize;
 932              		.loc 1 151 54 view .LVU281
 933 009a 95F81E11 		ldrb	r1, [r5, #286]	@ zero_extendqisi2
 934              	.LVL94:
 150:../Middlewares/screenl/uvcl/Src/uvcl.c ****   p_ctx->UVC_VideoProbeControl.dwMaxVideoFrameSize = UVCL_ComputedwMaxVideoFrameSize(p_ctx, format_
 935              		.loc 1 150 39 view .LVU282
 936 009e A5F81C61 		strh	r6, [r5, #284]	@ movhi
 151:../Middlewares/screenl/uvcl/Src/uvcl.c ****   p_ctx->UVC_VideoProbeControl.dwMaxPayloadTransferSize = req->dwMaxPayloadTransferSize;
 937              		.loc 1 151 3 is_stmt 1 view .LVU283
 151:../Middlewares/screenl/uvcl/Src/uvcl.c ****   p_ctx->UVC_VideoProbeControl.dwMaxPayloadTransferSize = req->dwMaxPayloadTransferSize;
 938              		.loc 1 151 54 is_stmt 0 view .LVU284
 939 00a2 FFF7FEFF 		bl	UVCL_ComputedwMaxVideoFrameSize
 940              	.LVL95:
 152:../Middlewares/screenl/uvcl/Src/uvcl.c ****   p_ctx->UVC_VideoProbeControl.dwClockFrequency = 48000000;
 941              		.loc 1 152 57 view .LVU285
 942 00a6 A368     		ldr	r3, [r4, #8]
 155:../Middlewares/screenl/uvcl/Src/uvcl.c ****   p_ctx->UVC_VideoProbeControl.bMinVersion = 0x00U;
 943              		.loc 1 155 49 view .LVU286
 944 00a8 85F83B61 		strb	r6, [r5, #315]
 152:../Middlewares/screenl/uvcl/Src/uvcl.c ****   p_ctx->UVC_VideoProbeControl.dwClockFrequency = 48000000;
 945              		.loc 1 152 57 view .LVU287
 946 00ac C5F83231 		str	r3, [r5, #306]	@ unaligned
 153:../Middlewares/screenl/uvcl/Src/uvcl.c ****   /* should not zero but not clear what value is possible for uncompressed format */
 947              		.loc 1 153 49 view .LVU288
 948 00b0 4FF4D843 		mov	r3, #27648
 949 00b4 A5F83631 		strh	r3, [r5, #310]	@ movhi
 950 00b8 4FF43773 		mov	r3, #732
 156:../Middlewares/screenl/uvcl/Src/uvcl.c ****   p_ctx->UVC_VideoProbeControl.bMaxVersion = 0x00U;
 951              		.loc 1 156 44 view .LVU289
 952 00bc A5F83C61 		strh	r6, [r5, #316]	@ movhi
 153:../Middlewares/screenl/uvcl/Src/uvcl.c ****   /* should not zero but not clear what value is possible for uncompressed format */
 953              		.loc 1 153 49 view .LVU290
 954 00c0 A5F83831 		strh	r3, [r5, #312]	@ movhi
 160:../Middlewares/screenl/uvcl/Src/uvcl.c **** }
 955              		.loc 1 160 25 view .LVU291
 956 00c4 E288     		ldrh	r2, [r4, #6]
 159:../Middlewares/screenl/uvcl/Src/uvcl.c ****                         MIN(req->wLength, sizeof(p_ctx->UVC_VideoProbeControl)));
 957              		.loc 1 159 10 view .LVU292
 958 00c6 A369     		ldr	r3, [r4, #24]
 151:../Middlewares/screenl/uvcl/Src/uvcl.c ****   p_ctx->UVC_VideoProbeControl.dwMaxPayloadTransferSize = req->dwMaxPayloadTransferSize;
 959              		.loc 1 151 52 discriminator 1 view .LVU293
 960 00c8 C5F82E01 		str	r0, [r5, #302]	@ unaligned
 152:../Middlewares/screenl/uvcl/Src/uvcl.c ****   p_ctx->UVC_VideoProbeControl.dwClockFrequency = 48000000;
 961              		.loc 1 152 3 is_stmt 1 view .LVU294
 153:../Middlewares/screenl/uvcl/Src/uvcl.c ****   /* should not zero but not clear what value is possible for uncompressed format */
 962              		.loc 1 153 3 view .LVU295
 155:../Middlewares/screenl/uvcl/Src/uvcl.c ****   p_ctx->UVC_VideoProbeControl.bMinVersion = 0x00U;
 963              		.loc 1 155 3 view .LVU296
 156:../Middlewares/screenl/uvcl/Src/uvcl.c ****   p_ctx->UVC_VideoProbeControl.bMaxVersion = 0x00U;
 964              		.loc 1 156 3 view .LVU297
 157:../Middlewares/screenl/uvcl/Src/uvcl.c **** 
ARM GAS  /tmp/ccbJxyKS.s 			page 35


 965              		.loc 1 157 3 view .LVU298
 159:../Middlewares/screenl/uvcl/Src/uvcl.c ****                         MIN(req->wLength, sizeof(p_ctx->UVC_VideoProbeControl)));
 966              		.loc 1 159 3 view .LVU299
 967              	.LVL96:
 968              	.L84:
 159:../Middlewares/screenl/uvcl/Src/uvcl.c ****                         MIN(req->wLength, sizeof(p_ctx->UVC_VideoProbeControl)));
 969              		.loc 1 159 3 is_stmt 0 view .LVU300
 970              	.LBE69:
 971              	.LBE68:
 972              	.LBB70:
 973              	.LBB71:
 165:../Middlewares/screenl/uvcl/Src/uvcl.c ****                            MIN(req->wLength, sizeof(p_ctx->UVC_VideoProbeControl)));
 974              		.loc 1 165 10 view .LVU301
 975 00cc 302A     		cmp	r2, #48
 976 00ce 28BF     		it	cs
 977 00d0 3022     		movcs	r2, #48
 978 00d2 3946     		mov	r1, r7
 979              	.LVL97:
 980              	.L82:
 165:../Middlewares/screenl/uvcl/Src/uvcl.c ****                            MIN(req->wLength, sizeof(p_ctx->UVC_VideoProbeControl)));
 981              		.loc 1 165 10 view .LVU302
 982              	.LBE71:
 983              	.LBE70:
 984              	.LBE67:
 985              	.LBE66:
 986              	.LBB75:
 987              	.LBB76:
 988              	.LBB77:
 989              	.LBB78:
 193:../Middlewares/screenl/uvcl/Src/uvcl.c ****                            MIN(req->wLength, sizeof(p_ctx->UVC_VideoCommitControl)));
 990              		.loc 1 193 10 view .LVU303
 991 00d4 E068     		ldr	r0, [r4, #12]
 992              	.LBE78:
 993              	.LBE77:
 994              	.LBE76:
 995              	.LBE75:
 996              	.LBE65:
 997              	.LBE64:
 998              	.LBE91:
 999              	.LBE94:
 465:../Middlewares/screenl/uvcl/Src/uvcl.c **** 
 1000              		.loc 1 465 1 view .LVU304
 1001 00d6 BDE8F041 		pop	{r4, r5, r6, r7, r8, lr}
 1002              		.cfi_remember_state
 1003              		.cfi_restore 14
 1004              		.cfi_restore 8
 1005              		.cfi_restore 7
 1006              		.cfi_restore 6
 1007              		.cfi_restore 5
 1008              		.cfi_restore 4
 1009              		.cfi_def_cfa_offset 0
 1010              	.LVL98:
 1011              	.LBB95:
 1012              	.LBB92:
 1013              	.LBB89:
 1014              	.LBB88:
 1015              	.LBB85:
ARM GAS  /tmp/ccbJxyKS.s 			page 36


 1016              	.LBB83:
 1017              	.LBB81:
 1018              	.LBB79:
 193:../Middlewares/screenl/uvcl/Src/uvcl.c ****                            MIN(req->wLength, sizeof(p_ctx->UVC_VideoCommitControl)));
 1019              		.loc 1 193 10 view .LVU305
 1020 00da 1847     		bx	r3
 1021              	.LVL99:
 1022              	.L72:
 1023              		.cfi_restore_state
 193:../Middlewares/screenl/uvcl/Src/uvcl.c ****                            MIN(req->wLength, sizeof(p_ctx->UVC_VideoCommitControl)));
 1024              		.loc 1 193 10 view .LVU306
 1025              	.LBE79:
 1026              	.LBE81:
 1027              	.LBE83:
 1028              	.LBE85:
 1029              	.LBB86:
 1030              	.LBB74:
 181:../Middlewares/screenl/uvcl/Src/uvcl.c ****     break;
 1031              		.loc 1 181 5 is_stmt 1 view .LVU307
 1032              	.LBB73:
 1033              	.LBI70:
 163:../Middlewares/screenl/uvcl/Src/uvcl.c **** {
 1034              		.loc 1 163 12 view .LVU308
 1035              	.LBB72:
 165:../Middlewares/screenl/uvcl/Src/uvcl.c ****                            MIN(req->wLength, sizeof(p_ctx->UVC_VideoProbeControl)));
 1036              		.loc 1 165 3 view .LVU309
 166:../Middlewares/screenl/uvcl/Src/uvcl.c **** }
 1037              		.loc 1 166 28 is_stmt 0 view .LVU310
 1038 00dc CA88     		ldrh	r2, [r1, #6]
 1039              	.LVL100:
 165:../Middlewares/screenl/uvcl/Src/uvcl.c ****                            MIN(req->wLength, sizeof(p_ctx->UVC_VideoProbeControl)));
 1040              		.loc 1 165 10 view .LVU311
 1041 00de CB69     		ldr	r3, [r1, #28]
 1042 00e0 F4E7     		b	.L84
 1043              	.LVL101:
 1044              	.L68:
 165:../Middlewares/screenl/uvcl/Src/uvcl.c ****                            MIN(req->wLength, sizeof(p_ctx->UVC_VideoProbeControl)));
 1045              		.loc 1 165 10 view .LVU312
 1046              	.LBE72:
 1047              	.LBE73:
 1048              	.LBE74:
 1049              	.LBE86:
 228:../Middlewares/screenl/uvcl/Src/uvcl.c ****     break;
 1050              		.loc 1 228 5 is_stmt 1 view .LVU313
 1051              	.LBB87:
 1052              	.LBI75:
 197:../Middlewares/screenl/uvcl/Src/uvcl.c **** {
 1053              		.loc 1 197 12 view .LVU314
 1054              	.LBB84:
 199:../Middlewares/screenl/uvcl/Src/uvcl.c **** 
 1055              		.loc 1 199 3 view .LVU315
 201:../Middlewares/screenl/uvcl/Src/uvcl.c ****   case UVC_SET_CUR:
 1056              		.loc 1 201 3 view .LVU316
 1057 00e2 4B78     		ldrb	r3, [r1, #1]	@ zero_extendqisi2
 1058              	.LVL102:
 201:../Middlewares/screenl/uvcl/Src/uvcl.c ****   case UVC_SET_CUR:
 1059              		.loc 1 201 3 is_stmt 0 view .LVU317
ARM GAS  /tmp/ccbJxyKS.s 			page 37


 1060 00e4 012B     		cmp	r3, #1
 1061 00e6 07D1     		bne	.L74
 203:../Middlewares/screenl/uvcl/Src/uvcl.c ****     break;
 1062              		.loc 1 203 5 is_stmt 1 view .LVU318
 1063              	.LVL103:
 1064              	.LBB82:
 1065              	.LBI77:
 191:../Middlewares/screenl/uvcl/Src/uvcl.c **** {
 1066              		.loc 1 191 12 view .LVU319
 1067              	.LBB80:
 193:../Middlewares/screenl/uvcl/Src/uvcl.c ****                            MIN(req->wLength, sizeof(p_ctx->UVC_VideoCommitControl)));
 1068              		.loc 1 193 3 view .LVU320
 194:../Middlewares/screenl/uvcl/Src/uvcl.c **** }
 1069              		.loc 1 194 28 is_stmt 0 view .LVU321
 1070 00e8 CA88     		ldrh	r2, [r1, #6]
 1071              	.LVL104:
 193:../Middlewares/screenl/uvcl/Src/uvcl.c ****                            MIN(req->wLength, sizeof(p_ctx->UVC_VideoCommitControl)));
 1072              		.loc 1 193 10 view .LVU322
 1073 00ea CB69     		ldr	r3, [r1, #28]
 1074 00ec 302A     		cmp	r2, #48
 1075 00ee 28BF     		it	cs
 1076 00f0 3022     		movcs	r2, #48
 1077 00f2 00F1EC01 		add	r1, r0, #236
 1078              	.LVL105:
 193:../Middlewares/screenl/uvcl/Src/uvcl.c ****                            MIN(req->wLength, sizeof(p_ctx->UVC_VideoCommitControl)));
 1079              		.loc 1 193 10 view .LVU323
 1080 00f6 EDE7     		b	.L82
 1081              	.LVL106:
 1082              	.L74:
 193:../Middlewares/screenl/uvcl/Src/uvcl.c ****                            MIN(req->wLength, sizeof(p_ctx->UVC_VideoCommitControl)));
 1083              		.loc 1 193 10 view .LVU324
 1084              	.LBE80:
 1085              	.LBE82:
 206:../Middlewares/screenl/uvcl/Src/uvcl.c ****     return -1;
 1086              		.loc 1 206 5 is_stmt 1 view .LVU325
 1087 00f8 CE21     		movs	r1, #206
 1088              	.LVL107:
 206:../Middlewares/screenl/uvcl/Src/uvcl.c ****     return -1;
 1089              		.loc 1 206 5 is_stmt 0 view .LVU326
 1090 00fa 064B     		ldr	r3, .L85
 1091 00fc 0C4A     		ldr	r2, .L85+28
 1092              	.LVL108:
 206:../Middlewares/screenl/uvcl/Src/uvcl.c ****     return -1;
 1093              		.loc 1 206 5 view .LVU327
 1094 00fe 9EE7     		b	.L83
 1095              	.LVL109:
 1096              	.L58:
 206:../Middlewares/screenl/uvcl/Src/uvcl.c ****     return -1;
 1097              		.loc 1 206 5 view .LVU328
 1098              	.LBE84:
 1099              	.LBE87:
 1100              	.LBE88:
 1101              	.LBE89:
 1102              	.LBE92:
 1103              	.LBE95:
 460:../Middlewares/screenl/uvcl/Src/uvcl.c ****     return -1;
 1104              		.loc 1 460 5 is_stmt 1 view .LVU329
ARM GAS  /tmp/ccbJxyKS.s 			page 38


 1105 0100 4FF4E671 		mov	r1, #460
 1106              	.LVL110:
 460:../Middlewares/screenl/uvcl/Src/uvcl.c ****     return -1;
 1107              		.loc 1 460 5 is_stmt 0 view .LVU330
 1108 0104 034B     		ldr	r3, .L85
 1109 0106 0B4A     		ldr	r2, .L85+32
 1110 0108 99E7     		b	.L83
 1111              	.LVL111:
 1112              	.L57:
 465:../Middlewares/screenl/uvcl/Src/uvcl.c **** 
 1113              		.loc 1 465 1 view .LVU331
 1114 010a 4FF0FF30 		mov	r0, #-1
 1115              	.LVL112:
 465:../Middlewares/screenl/uvcl/Src/uvcl.c **** 
 1116              		.loc 1 465 1 view .LVU332
 1117 010e BDE8F081 		pop	{r4, r5, r6, r7, r8, pc}
 1118              	.LVL113:
 1119              	.L86:
 465:../Middlewares/screenl/uvcl/Src/uvcl.c **** 
 1120              		.loc 1 465 1 view .LVU333
 1121 0112 00BF     		.align	2
 1122              	.L85:
 1123 0114 16000000 		.word	.LC5
 1124 0118 00000000 		.word	__func__.11
 1125 011c 00000000 		.word	__func__.9
 1126 0120 13000000 		.word	.LC1
 1127 0124 00000000 		.word	__func__.10
 1128 0128 00000000 		.word	__func__.8
 1129 012c 00000000 		.word	__func__.7
 1130 0130 00000000 		.word	__func__.6
 1131 0134 00000000 		.word	__func__.12
 1132              		.cfi_endproc
 1133              	.LFE903:
 1135              		.section	.rodata.UVCL_SetupStreamingStream.str1.1,"aMS",%progbits,1
 1136              	.LC6:
 1137 0000 69203C20 		.ascii	"i < ctx->conf.streams_nb\000"
 1137      6374782D 
 1137      3E636F6E 
 1137      662E7374 
 1137      7265616D 
 1138              		.section	.text.UVCL_SetupStreamingStream,"ax",%progbits
 1139              		.align	1
 1140              		.global	UVCL_SetupStreamingStream
 1141              		.syntax unified
 1142              		.thumb
 1143              		.thumb_func
 1145              	UVCL_SetupStreamingStream:
 1146              	.LVL114:
 1147              	.LFB907:
 547:../Middlewares/screenl/uvcl/Src/uvcl.c **** 
 548:../Middlewares/screenl/uvcl/Src/uvcl.c **** void UVCL_SetupStreamingStream(UVCL_Ctx_t *ctx, UVCL_StreamConf_t *stream)
 549:../Middlewares/screenl/uvcl/Src/uvcl.c **** {
 1148              		.loc 1 549 1 is_stmt 1 view -0
 1149              		.cfi_startproc
 1150              		@ args = 0, pretend = 0, frame = 0
 1151              		@ frame_needed = 0, uses_anonymous_args = 0
 550:../Middlewares/screenl/uvcl/Src/uvcl.c ****   uint32_t dwFrameInterval = ctx->UVC_VideoCommitControl.dwFrameInterval;
ARM GAS  /tmp/ccbJxyKS.s 			page 39


 1152              		.loc 1 550 3 view .LVU335
 549:../Middlewares/screenl/uvcl/Src/uvcl.c ****   uint32_t dwFrameInterval = ctx->UVC_VideoCommitControl.dwFrameInterval;
 1153              		.loc 1 549 1 is_stmt 0 view .LVU336
 1154 0000 F8B5     		push	{r3, r4, r5, r6, r7, lr}
 1155              		.cfi_def_cfa_offset 24
 1156              		.cfi_offset 3, -24
 1157              		.cfi_offset 4, -20
 1158              		.cfi_offset 5, -16
 1159              		.cfi_offset 6, -12
 1160              		.cfi_offset 7, -8
 1161              		.cfi_offset 14, -4
 549:../Middlewares/screenl/uvcl/Src/uvcl.c ****   uint32_t dwFrameInterval = ctx->UVC_VideoCommitControl.dwFrameInterval;
 1162              		.loc 1 549 1 view .LVU337
 1163 0002 0D46     		mov	r5, r1
 551:../Middlewares/screenl/uvcl/Src/uvcl.c ****   uint8_t bFormatIndex = ctx->UVC_VideoCommitControl.bFormatIndex;
 552:../Middlewares/screenl/uvcl/Src/uvcl.c ****   uint8_t bFrameIndex = ctx->UVC_VideoCommitControl.bFrameIndex;
 553:../Middlewares/screenl/uvcl/Src/uvcl.c ****   int i;
 554:../Middlewares/screenl/uvcl/Src/uvcl.c **** 
 555:../Middlewares/screenl/uvcl/Src/uvcl.c ****   for (i = 0; i < ctx->conf.streams_nb; i++) {
 1164              		.loc 1 555 10 view .LVU338
 1165 0004 0021     		movs	r1, #0
 1166              	.LVL115:
 1167              		.loc 1 555 28 discriminator 1 view .LVU339
 1168 0006 D0F8A040 		ldr	r4, [r0, #160]
 1169 000a 0246     		mov	r2, r0
 1170 000c 8C42     		cmp	r4, r1
 1171              		.loc 1 555 10 view .LVU340
 1172 000e 04F10103 		add	r3, r4, #1
 1173 0012 B8BF     		it	lt
 1174 0014 0123     		movlt	r3, #1
 550:../Middlewares/screenl/uvcl/Src/uvcl.c ****   uint8_t bFormatIndex = ctx->UVC_VideoCommitControl.bFormatIndex;
 1175              		.loc 1 550 12 view .LVU341
 1176 0016 D0F8F060 		ldr	r6, [r0, #240]
 1177              	.LVL116:
 551:../Middlewares/screenl/uvcl/Src/uvcl.c ****   uint8_t bFormatIndex = ctx->UVC_VideoCommitControl.bFormatIndex;
 1178              		.loc 1 551 3 is_stmt 1 view .LVU342
 551:../Middlewares/screenl/uvcl/Src/uvcl.c ****   uint8_t bFormatIndex = ctx->UVC_VideoCommitControl.bFormatIndex;
 1179              		.loc 1 551 11 is_stmt 0 view .LVU343
 1180 001a 90F8EE70 		ldrb	r7, [r0, #238]	@ zero_extendqisi2
 1181              	.LVL117:
 552:../Middlewares/screenl/uvcl/Src/uvcl.c ****   int i;
 1182              		.loc 1 552 3 is_stmt 1 view .LVU344
 552:../Middlewares/screenl/uvcl/Src/uvcl.c ****   int i;
 1183              		.loc 1 552 11 is_stmt 0 view .LVU345
 1184 001e 90F8EFC0 		ldrb	ip, [r0, #239]	@ zero_extendqisi2
 1185              	.LVL118:
 553:../Middlewares/screenl/uvcl/Src/uvcl.c **** 
 1186              		.loc 1 553 3 is_stmt 1 view .LVU346
 1187              		.loc 1 555 3 view .LVU347
 1188              	.L88:
 1189              		.loc 1 555 17 discriminator 1 view .LVU348
 1190 0022 013B     		subs	r3, r3, #1
 1191 0024 06D1     		bne	.L91
 556:../Middlewares/screenl/uvcl/Src/uvcl.c ****     if (bFormatIndex == ctx->streams_p[i].bFormatIndex && bFrameIndex == ctx->streams_p[i].bFrameIn
 557:../Middlewares/screenl/uvcl/Src/uvcl.c ****         dwFrameInterval == ctx->streams_p[i].dwFrameInterval)
 558:../Middlewares/screenl/uvcl/Src/uvcl.c ****       break;
 559:../Middlewares/screenl/uvcl/Src/uvcl.c ****   }
ARM GAS  /tmp/ccbJxyKS.s 			page 40


 560:../Middlewares/screenl/uvcl/Src/uvcl.c ****   assert(i < ctx->conf.streams_nb);
 1192              		.loc 1 560 3 view .LVU349
 1193              		.loc 1 560 3 is_stmt 0 discriminator 1 view .LVU350
 1194 0026 4FF40C71 		mov	r1, #560
 1195              	.LVL119:
 1196              		.loc 1 560 3 discriminator 1 view .LVU351
 1197 002a 0E4B     		ldr	r3, .L93
 1198 002c 0E4A     		ldr	r2, .L93+4
 1199 002e 0F48     		ldr	r0, .L93+8
 1200              	.LVL120:
 1201              		.loc 1 560 3 discriminator 1 view .LVU352
 1202 0030 FFF7FEFF 		bl	__assert_func
 1203              	.LVL121:
 1204              	.L91:
 556:../Middlewares/screenl/uvcl/Src/uvcl.c ****     if (bFormatIndex == ctx->streams_p[i].bFormatIndex && bFrameIndex == ctx->streams_p[i].bFrameIn
 1205              		.loc 1 556 5 is_stmt 1 view .LVU353
 556:../Middlewares/screenl/uvcl/Src/uvcl.c ****     if (bFormatIndex == ctx->streams_p[i].bFormatIndex && bFrameIndex == ctx->streams_p[i].bFrameIn
 1206              		.loc 1 556 8 is_stmt 0 view .LVU354
 1207 0034 92F84C41 		ldrb	r4, [r2, #332]	@ zero_extendqisi2
 1208 0038 BC42     		cmp	r4, r7
 1209 003a 07D1     		bne	.L89
 556:../Middlewares/screenl/uvcl/Src/uvcl.c ****     if (bFormatIndex == ctx->streams_p[i].bFormatIndex && bFrameIndex == ctx->streams_p[i].bFrameIn
 1210              		.loc 1 556 56 discriminator 1 view .LVU355
 1211 003c 92F84D41 		ldrb	r4, [r2, #333]	@ zero_extendqisi2
 1212 0040 6445     		cmp	r4, ip
 1213 0042 03D1     		bne	.L89
 556:../Middlewares/screenl/uvcl/Src/uvcl.c ****     if (bFormatIndex == ctx->streams_p[i].bFormatIndex && bFrameIndex == ctx->streams_p[i].bFrameIn
 1214              		.loc 1 556 104 discriminator 2 view .LVU356
 1215 0044 D2F85041 		ldr	r4, [r2, #336]
 1216 0048 B442     		cmp	r4, r6
 1217 004a 02D0     		beq	.L90
 1218              	.L89:
 555:../Middlewares/screenl/uvcl/Src/uvcl.c ****     if (bFormatIndex == ctx->streams_p[i].bFormatIndex && bFrameIndex == ctx->streams_p[i].bFrameIn
 1219              		.loc 1 555 42 is_stmt 1 discriminator 2 view .LVU357
 1220 004c 0131     		adds	r1, r1, #1
 1221              	.LVL122:
 555:../Middlewares/screenl/uvcl/Src/uvcl.c ****     if (bFormatIndex == ctx->streams_p[i].bFormatIndex && bFrameIndex == ctx->streams_p[i].bFrameIn
 1222              		.loc 1 555 42 is_stmt 0 discriminator 2 view .LVU358
 1223 004e 0832     		adds	r2, r2, #8
 1224 0050 E7E7     		b	.L88
 1225              	.L90:
 1226              		.loc 1 560 3 is_stmt 1 view .LVU359
 561:../Middlewares/screenl/uvcl/Src/uvcl.c **** 
 562:../Middlewares/screenl/uvcl/Src/uvcl.c ****   *stream = ctx->conf.streams[i];
 1227              		.loc 1 562 3 view .LVU360
 1228              		.loc 1 562 11 is_stmt 0 view .LVU361
 1229 0052 1423     		movs	r3, #20
 1230 0054 03FB0104 		mla	r4, r3, r1, r0
 1231 0058 0FCC     		ldmia	r4!, {r0, r1, r2, r3}
 1232              	.LVL123:
 1233              		.loc 1 562 11 view .LVU362
 1234 005a 0FC5     		stmia	r5!, {r0, r1, r2, r3}
 1235              	.LVL124:
 1236              		.loc 1 562 11 view .LVU363
 1237 005c 2368     		ldr	r3, [r4]
 1238 005e 2B60     		str	r3, [r5]
 563:../Middlewares/screenl/uvcl/Src/uvcl.c **** }
ARM GAS  /tmp/ccbJxyKS.s 			page 41


 1239              		.loc 1 563 1 view .LVU364
 1240 0060 F8BD     		pop	{r3, r4, r5, r6, r7, pc}
 1241              	.LVL125:
 1242              	.L94:
 1243              		.loc 1 563 1 view .LVU365
 1244 0062 00BF     		.align	2
 1245              	.L93:
 1246 0064 00000000 		.word	.LC6
 1247 0068 00000000 		.word	__func__.2
 1248 006c 13000000 		.word	.LC1
 1249              		.cfi_endproc
 1250              	.LFE907:
 1252              		.section	.text.UVCL_Init,"ax",%progbits
 1253              		.align	1
 1254              		.global	UVCL_Init
 1255              		.syntax unified
 1256              		.thumb
 1257              		.thumb_func
 1259              	UVCL_Init:
 1260              	.LVL126:
 1261              	.LFB908:
 564:../Middlewares/screenl/uvcl/Src/uvcl.c **** 
 565:../Middlewares/screenl/uvcl/Src/uvcl.c **** /* public API */
 566:../Middlewares/screenl/uvcl/Src/uvcl.c **** /* FIXME : handle errors correctly */
 567:../Middlewares/screenl/uvcl/Src/uvcl.c **** int UVCL_Init(PCD_TypeDef *pcd_instance, UVCL_Conf_t *conf_given, UVCL_Callbacks_t *cbs)
 568:../Middlewares/screenl/uvcl/Src/uvcl.c **** {
 1262              		.loc 1 568 1 is_stmt 1 view -0
 1263              		.cfi_startproc
 1264              		@ args = 0, pretend = 0, frame = 320
 1265              		@ frame_needed = 0, uses_anonymous_args = 0
 569:../Middlewares/screenl/uvcl/Src/uvcl.c ****   UVCL_Conf_t conf = *conf_given;
 1266              		.loc 1 569 3 view .LVU367
 568:../Middlewares/screenl/uvcl/Src/uvcl.c ****   UVCL_Conf_t conf = *conf_given;
 1267              		.loc 1 568 1 is_stmt 0 view .LVU368
 1268 0000 2DE9F047 		push	{r4, r5, r6, r7, r8, r9, r10, lr}
 1269              		.cfi_def_cfa_offset 32
 1270              		.cfi_offset 4, -32
 1271              		.cfi_offset 5, -28
 1272              		.cfi_offset 6, -24
 1273              		.cfi_offset 7, -20
 1274              		.cfi_offset 8, -16
 1275              		.cfi_offset 9, -12
 1276              		.cfi_offset 10, -8
 1277              		.cfi_offset 14, -4
 570:../Middlewares/screenl/uvcl/Src/uvcl.c ****   int ret;
 571:../Middlewares/screenl/uvcl/Src/uvcl.c **** 
 572:../Middlewares/screenl/uvcl/Src/uvcl.c ****   if (p_ctx_single)
 1278              		.loc 1 572 7 view .LVU369
 1279 0004 DFF8D081 		ldr	r8, .L120+24
 568:../Middlewares/screenl/uvcl/Src/uvcl.c ****   UVCL_Conf_t conf = *conf_given;
 1280              		.loc 1 568 1 view .LVU370
 1281 0008 D0B0     		sub	sp, sp, #320
 1282              		.cfi_def_cfa_offset 352
 568:../Middlewares/screenl/uvcl/Src/uvcl.c ****   UVCL_Conf_t conf = *conf_given;
 1283              		.loc 1 568 1 view .LVU371
 1284 000a 8246     		mov	r10, r0
 1285 000c 9146     		mov	r9, r2
ARM GAS  /tmp/ccbJxyKS.s 			page 42


 569:../Middlewares/screenl/uvcl/Src/uvcl.c ****   int ret;
 1286              		.loc 1 569 15 view .LVU372
 1287 000e 26A8     		add	r0, sp, #152
 1288              	.LVL127:
 569:../Middlewares/screenl/uvcl/Src/uvcl.c ****   int ret;
 1289              		.loc 1 569 15 view .LVU373
 1290 0010 A822     		movs	r2, #168
 1291              	.LVL128:
 569:../Middlewares/screenl/uvcl/Src/uvcl.c ****   int ret;
 1292              		.loc 1 569 15 view .LVU374
 1293 0012 FFF7FEFF 		bl	memcpy
 1294              	.LVL129:
 570:../Middlewares/screenl/uvcl/Src/uvcl.c ****   int ret;
 1295              		.loc 1 570 3 is_stmt 1 view .LVU375
 1296              		.loc 1 572 3 view .LVU376
 1297              		.loc 1 572 6 is_stmt 0 view .LVU377
 1298 0016 D8F80030 		ldr	r3, [r8]
 1299 001a 002B     		cmp	r3, #0
 1300 001c 40F0CD80 		bne	.L115
 573:../Middlewares/screenl/uvcl/Src/uvcl.c ****     return -1;
 574:../Middlewares/screenl/uvcl/Src/uvcl.c **** 
 575:../Middlewares/screenl/uvcl/Src/uvcl.c ****   ret = UVCL_cbs_check(cbs);
 1301              		.loc 1 575 3 is_stmt 1 view .LVU378
 1302              	.LVL130:
 1303              	.LBB116:
 1304              	.LBI116:
 301:../Middlewares/screenl/uvcl/Src/uvcl.c **** {
 1305              		.loc 1 301 12 view .LVU379
 1306              	.LBB117:
 303:../Middlewares/screenl/uvcl/Src/uvcl.c ****     return -1;
 1307              		.loc 1 303 3 view .LVU380
 303:../Middlewares/screenl/uvcl/Src/uvcl.c ****     return -1;
 1308              		.loc 1 303 6 is_stmt 0 view .LVU381
 1309 0020 B9F1000F 		cmp	r9, #0
 1310 0024 00F0C980 		beq	.L115
 306:../Middlewares/screenl/uvcl/Src/uvcl.c ****     return -1;
 1311              		.loc 1 306 3 is_stmt 1 view .LVU382
 306:../Middlewares/screenl/uvcl/Src/uvcl.c ****     return -1;
 1312              		.loc 1 306 6 is_stmt 0 view .LVU383
 1313 0028 D9F80830 		ldr	r3, [r9, #8]
 1314 002c 002B     		cmp	r3, #0
 1315 002e 00F0C480 		beq	.L115
 1316              	.LVL131:
 306:../Middlewares/screenl/uvcl/Src/uvcl.c ****     return -1;
 1317              		.loc 1 306 6 view .LVU384
 1318              	.LBE117:
 1319              	.LBE116:
 576:../Middlewares/screenl/uvcl/Src/uvcl.c ****   if (ret)
 1320              		.loc 1 576 3 is_stmt 1 view .LVU385
 577:../Middlewares/screenl/uvcl/Src/uvcl.c ****     return ret;
 578:../Middlewares/screenl/uvcl/Src/uvcl.c **** 
 579:../Middlewares/screenl/uvcl/Src/uvcl.c ****   ret = UVCL_conf_check(&conf);
 1321              		.loc 1 579 3 view .LVU386
 1322              	.LBB118:
 1323              	.LBI118:
 331:../Middlewares/screenl/uvcl/Src/uvcl.c **** {
 1324              		.loc 1 331 12 view .LVU387
ARM GAS  /tmp/ccbJxyKS.s 			page 43


 1325              	.LBB119:
 333:../Middlewares/screenl/uvcl/Src/uvcl.c ****   int i;
 1326              		.loc 1 333 3 view .LVU388
 334:../Middlewares/screenl/uvcl/Src/uvcl.c **** 
 1327              		.loc 1 334 3 view .LVU389
 336:../Middlewares/screenl/uvcl/Src/uvcl.c ****     return -1;
 1328              		.loc 1 336 3 view .LVU390
 339:../Middlewares/screenl/uvcl/Src/uvcl.c ****     return -1;
 1329              		.loc 1 339 3 view .LVU391
 339:../Middlewares/screenl/uvcl/Src/uvcl.c ****     return -1;
 1330              		.loc 1 339 11 is_stmt 0 view .LVU392
 1331 0032 4E99     		ldr	r1, [sp, #312]
 339:../Middlewares/screenl/uvcl/Src/uvcl.c ****     return -1;
 1332              		.loc 1 339 29 view .LVU393
 1333 0034 4B1E     		subs	r3, r1, #1
 339:../Middlewares/screenl/uvcl/Src/uvcl.c ****     return -1;
 1334              		.loc 1 339 6 view .LVU394
 1335 0036 072B     		cmp	r3, #7
 1336 0038 00F2BF80 		bhi	.L115
 342:../Middlewares/screenl/uvcl/Src/uvcl.c ****     ret = UVCL_stream_check(&conf->streams[i]);
 1337              		.loc 1 342 10 view .LVU395
 1338 003c 0A46     		mov	r2, r1
 1339 003e 26AB     		add	r3, sp, #152
 1340              	.LVL132:
 1341              	.L97:
 343:../Middlewares/screenl/uvcl/Src/uvcl.c ****     if (ret)
 1342              		.loc 1 343 5 is_stmt 1 view .LVU396
 1343              	.LBB120:
 1344              	.LBI120:
 312:../Middlewares/screenl/uvcl/Src/uvcl.c **** {
 1345              		.loc 1 312 12 view .LVU397
 1346              	.LBB121:
 314:../Middlewares/screenl/uvcl/Src/uvcl.c ****     return -1;
 1347              		.loc 1 314 3 view .LVU398
 314:../Middlewares/screenl/uvcl/Src/uvcl.c ****     return -1;
 1348              		.loc 1 314 6 is_stmt 0 view .LVU399
 1349 0040 5868     		ldr	r0, [r3, #4]
 1350 0042 0028     		cmp	r0, #0
 1351 0044 40F3B980 		ble	.L115
 314:../Middlewares/screenl/uvcl/Src/uvcl.c ****     return -1;
 1352              		.loc 1 314 26 discriminator 1 view .LVU400
 1353 0048 9868     		ldr	r0, [r3, #8]
 1354 004a 0028     		cmp	r0, #0
 1355 004c 40F3B580 		ble	.L115
 314:../Middlewares/screenl/uvcl/Src/uvcl.c ****     return -1;
 1356              		.loc 1 314 49 discriminator 2 view .LVU401
 1357 0050 D868     		ldr	r0, [r3, #12]
 1358 0052 0028     		cmp	r0, #0
 1359 0054 40F3B180 		ble	.L115
 317:../Middlewares/screenl/uvcl/Src/uvcl.c ****       stream->payload_type != UVCL_PAYLOAD_FB_RGB565 &&
 1360              		.loc 1 317 3 is_stmt 1 view .LVU402
 317:../Middlewares/screenl/uvcl/Src/uvcl.c ****       stream->payload_type != UVCL_PAYLOAD_FB_RGB565 &&
 1361              		.loc 1 317 6 is_stmt 0 view .LVU403
 1362 0058 1868     		ldr	r0, [r3]
 1363 005a 0728     		cmp	r0, #7
 1364 005c 00F2AD80 		bhi	.L115
 1365              	.LBE121:
ARM GAS  /tmp/ccbJxyKS.s 			page 44


 1366              	.LBE120:
 342:../Middlewares/screenl/uvcl/Src/uvcl.c ****     ret = UVCL_stream_check(&conf->streams[i]);
 1367              		.loc 1 342 38 is_stmt 1 discriminator 2 view .LVU404
 342:../Middlewares/screenl/uvcl/Src/uvcl.c ****     ret = UVCL_stream_check(&conf->streams[i]);
 1368              		.loc 1 342 17 discriminator 1 view .LVU405
 1369 0060 013A     		subs	r2, r2, #1
 1370 0062 03F11403 		add	r3, r3, #20
 1371 0066 EBD1     		bne	.L97
 1372              	.LVL133:
 342:../Middlewares/screenl/uvcl/Src/uvcl.c ****     ret = UVCL_stream_check(&conf->streams[i]);
 1373              		.loc 1 342 17 is_stmt 0 discriminator 1 view .LVU406
 1374              	.LBE119:
 1375              	.LBE118:
 580:../Middlewares/screenl/uvcl/Src/uvcl.c ****   if (ret)
 1376              		.loc 1 580 3 is_stmt 1 view .LVU407
 581:../Middlewares/screenl/uvcl/Src/uvcl.c ****     return ret;
 582:../Middlewares/screenl/uvcl/Src/uvcl.c **** 
 583:../Middlewares/screenl/uvcl/Src/uvcl.c ****   UVCL_conf_reorder_streams(&conf);
 1377              		.loc 1 583 3 view .LVU408
 1378              	.LBB122:
 1379              	.LBI122:
 370:../Middlewares/screenl/uvcl/Src/uvcl.c **** {
 1380              		.loc 1 370 13 view .LVU409
 1381              	.LBB123:
 372:../Middlewares/screenl/uvcl/Src/uvcl.c ****           compare_streams);
 1382              		.loc 1 372 3 view .LVU410
 1383              	.LBE123:
 1384              	.LBE122:
 1385              	.LBB125:
 1386              	.LBB126:
 264:../Middlewares/screenl/uvcl/Src/uvcl.c ****   ret = HAL_RCC_OscConfig(&RCC_OscInitStruct);
 1387              		.loc 1 264 30 is_stmt 0 view .LVU411
 1388 0068 0127     		movs	r7, #1
 1389 006a 1024     		movs	r4, #16
 1390              	.LBE126:
 1391              	.LBE125:
 1392              	.LBB129:
 1393              	.LBB124:
 372:../Middlewares/screenl/uvcl/Src/uvcl.c ****           compare_streams);
 1394              		.loc 1 372 3 view .LVU412
 1395 006c 544B     		ldr	r3, .L120
 1396 006e 1422     		movs	r2, #20
 1397 0070 26A8     		add	r0, sp, #152
 1398              	.LVL134:
 372:../Middlewares/screenl/uvcl/Src/uvcl.c ****           compare_streams);
 1399              		.loc 1 372 3 view .LVU413
 1400 0072 FFF7FEFF 		bl	qsort
 1401              	.LVL135:
 372:../Middlewares/screenl/uvcl/Src/uvcl.c ****           compare_streams);
 1402              		.loc 1 372 3 view .LVU414
 1403              	.LBE124:
 1404              	.LBE129:
 584:../Middlewares/screenl/uvcl/Src/uvcl.c **** 
 585:../Middlewares/screenl/uvcl/Src/uvcl.c ****   ret = UVCL_usb_init(&uvcl_pcd_handle, pcd_instance);
 1405              		.loc 1 585 3 is_stmt 1 view .LVU415
 1406              	.LBB130:
 1407              	.LBI125:
ARM GAS  /tmp/ccbJxyKS.s 			page 45


 257:../Middlewares/screenl/uvcl/Src/uvcl.c **** {
 1408              		.loc 1 257 12 view .LVU416
 1409              	.LBB127:
 259:../Middlewares/screenl/uvcl/Src/uvcl.c ****   int ret;
 1410              		.loc 1 259 3 view .LVU417
 259:../Middlewares/screenl/uvcl/Src/uvcl.c ****   int ret;
 1411              		.loc 1 259 22 is_stmt 0 view .LVU418
 1412 0076 9022     		movs	r2, #144
 1413 0078 0021     		movs	r1, #0
 1414 007a 02A8     		add	r0, sp, #8
 1415 007c FFF7FEFF 		bl	memset
 1416              	.LVL136:
 260:../Middlewares/screenl/uvcl/Src/uvcl.c **** 
 1417              		.loc 1 260 3 is_stmt 1 view .LVU419
 263:../Middlewares/screenl/uvcl/Src/uvcl.c ****   RCC_OscInitStruct.HSEState = RCC_HSE_ON;
 1418              		.loc 1 263 3 view .LVU420
 265:../Middlewares/screenl/uvcl/Src/uvcl.c ****   if (ret)
 1419              		.loc 1 265 9 is_stmt 0 view .LVU421
 1420 0080 6846     		mov	r0, sp
 264:../Middlewares/screenl/uvcl/Src/uvcl.c ****   ret = HAL_RCC_OscConfig(&RCC_OscInitStruct);
 1421              		.loc 1 264 30 view .LVU422
 1422 0082 CDE90074 		strd	r7, r4, [sp]
 265:../Middlewares/screenl/uvcl/Src/uvcl.c ****   if (ret)
 1423              		.loc 1 265 3 is_stmt 1 view .LVU423
 265:../Middlewares/screenl/uvcl/Src/uvcl.c ****   if (ret)
 1424              		.loc 1 265 9 is_stmt 0 view .LVU424
 1425 0086 FFF7FEFF 		bl	HAL_RCC_OscConfig
 1426              	.LVL137:
 266:../Middlewares/screenl/uvcl/Src/uvcl.c ****     return ret;
 1427              		.loc 1 266 3 is_stmt 1 view .LVU425
 266:../Middlewares/screenl/uvcl/Src/uvcl.c ****     return ret;
 1428              		.loc 1 266 6 is_stmt 0 view .LVU426
 1429 008a 0546     		mov	r5, r0
 1430 008c 0028     		cmp	r0, #0
 1431 008e 6FD1     		bne	.L95
 270:../Middlewares/screenl/uvcl/Src/uvcl.c ****   pcd_handle->Instance = pcd_instance;
 1432              		.loc 1 270 3 is_stmt 1 view .LVU427
 1433 0090 4C4E     		ldr	r6, .L120+4
 1434 0092 2946     		mov	r1, r5
 1435 0094 40F2E442 		movw	r2, #1252
 1436 0098 3046     		mov	r0, r6
 1437              	.LVL138:
 270:../Middlewares/screenl/uvcl/Src/uvcl.c ****   pcd_handle->Instance = pcd_instance;
 1438              		.loc 1 270 3 is_stmt 0 view .LVU428
 1439 009a FFF7FEFF 		bl	memset
 1440              	.LVL139:
 271:../Middlewares/screenl/uvcl/Src/uvcl.c ****   pcd_handle->Init.dev_endpoints = 9;
 1441              		.loc 1 271 3 is_stmt 1 view .LVU429
 272:../Middlewares/screenl/uvcl/Src/uvcl.c ****   pcd_handle->Init.speed = PCD_SPEED_HIGH;
 1442              		.loc 1 272 34 is_stmt 0 view .LVU430
 1443 009e 0923     		movs	r3, #9
 1444 00a0 3371     		strb	r3, [r6, #4]
 279:../Middlewares/screenl/uvcl/Src/uvcl.c **** #ifdef UVC_LIB_USE_SOF
 1445              		.loc 1 279 31 view .LVU431
 1446 00a2 0323     		movs	r3, #3
 290:../Middlewares/screenl/uvcl/Src/uvcl.c ****   if (ret)
 1447              		.loc 1 290 9 view .LVU432
ARM GAS  /tmp/ccbJxyKS.s 			page 46


 1448 00a4 3046     		mov	r0, r6
 271:../Middlewares/screenl/uvcl/Src/uvcl.c ****   pcd_handle->Init.dev_endpoints = 9;
 1449              		.loc 1 271 24 view .LVU433
 1450 00a6 C6F800A0 		str	r10, [r6]
 272:../Middlewares/screenl/uvcl/Src/uvcl.c ****   pcd_handle->Init.speed = PCD_SPEED_HIGH;
 1451              		.loc 1 272 3 is_stmt 1 view .LVU434
 273:../Middlewares/screenl/uvcl/Src/uvcl.c **** #ifdef UVC_LIB_USE_DMA
 1452              		.loc 1 273 3 view .LVU435
 277:../Middlewares/screenl/uvcl/Src/uvcl.c **** #endif
 1453              		.loc 1 277 3 view .LVU436
 279:../Middlewares/screenl/uvcl/Src/uvcl.c **** #ifdef UVC_LIB_USE_SOF
 1454              		.loc 1 279 3 view .LVU437
 279:../Middlewares/screenl/uvcl/Src/uvcl.c **** #ifdef UVC_LIB_USE_SOF
 1455              		.loc 1 279 31 is_stmt 0 view .LVU438
 1456 00aa 7372     		strb	r3, [r6, #9]
 283:../Middlewares/screenl/uvcl/Src/uvcl.c **** #endif
 1457              		.loc 1 283 3 is_stmt 1 view .LVU439
 285:../Middlewares/screenl/uvcl/Src/uvcl.c ****   pcd_handle->Init.lpm_enable = DISABLE;
 1458              		.loc 1 285 3 view .LVU440
 286:../Middlewares/screenl/uvcl/Src/uvcl.c ****   pcd_handle->Init.vbus_sensing_enable = DISABLE;
 1459              		.loc 1 286 3 view .LVU441
 287:../Middlewares/screenl/uvcl/Src/uvcl.c ****   pcd_handle->Init.use_dedicated_ep1 = DISABLE;
 1460              		.loc 1 287 3 view .LVU442
 288:../Middlewares/screenl/uvcl/Src/uvcl.c ****   pcd_handle->Init.use_external_vbus = DISABLE;
 1461              		.loc 1 288 3 view .LVU443
 289:../Middlewares/screenl/uvcl/Src/uvcl.c ****   ret = HAL_PCD_Init(pcd_handle);
 1462              		.loc 1 289 3 view .LVU444
 290:../Middlewares/screenl/uvcl/Src/uvcl.c ****   if (ret)
 1463              		.loc 1 290 3 view .LVU445
 290:../Middlewares/screenl/uvcl/Src/uvcl.c ****   if (ret)
 1464              		.loc 1 290 9 is_stmt 0 view .LVU446
 1465 00ac FFF7FEFF 		bl	HAL_PCD_Init
 1466              	.LVL140:
 291:../Middlewares/screenl/uvcl/Src/uvcl.c ****     return ret;
 1467              		.loc 1 291 3 is_stmt 1 view .LVU447
 291:../Middlewares/screenl/uvcl/Src/uvcl.c ****     return ret;
 1468              		.loc 1 291 6 is_stmt 0 view .LVU448
 1469 00b0 0546     		mov	r5, r0
 1470 00b2 0028     		cmp	r0, #0
 1471 00b4 5CD1     		bne	.L95
 294:../Middlewares/screenl/uvcl/Src/uvcl.c ****   HAL_PCDEx_SetTxFiFo(pcd_handle, 0, 0x10);
 1472              		.loc 1 294 3 is_stmt 1 view .LVU449
 1473 00b6 8021     		movs	r1, #128
 1474 00b8 3046     		mov	r0, r6
 1475              	.LVL141:
 294:../Middlewares/screenl/uvcl/Src/uvcl.c ****   HAL_PCDEx_SetTxFiFo(pcd_handle, 0, 0x10);
 1476              		.loc 1 294 3 is_stmt 0 view .LVU450
 1477 00ba FFF7FEFF 		bl	HAL_PCDEx_SetRxFiFo
 1478              	.LVL142:
 295:../Middlewares/screenl/uvcl/Src/uvcl.c ****   HAL_PCDEx_SetTxFiFo(pcd_handle, 1, 0x300);
 1479              		.loc 1 295 3 is_stmt 1 view .LVU451
 1480 00be 2246     		mov	r2, r4
 1481 00c0 2946     		mov	r1, r5
 1482 00c2 3046     		mov	r0, r6
 1483              	.LBE127:
 1484              	.LBE130:
 586:../Middlewares/screenl/uvcl/Src/uvcl.c ****   if (ret)
ARM GAS  /tmp/ccbJxyKS.s 			page 47


 587:../Middlewares/screenl/uvcl/Src/uvcl.c ****     return ret;
 588:../Middlewares/screenl/uvcl/Src/uvcl.c **** 
 589:../Middlewares/screenl/uvcl/Src/uvcl.c **** #ifdef UVC_LIB_USE_USBX
 590:../Middlewares/screenl/uvcl/Src/uvcl.c ****   ret = UVCL_usbx_init(&ctx, &uvcl_pcd_handle, pcd_instance, &conf);
 1485              		.loc 1 590 9 is_stmt 0 view .LVU452
 1486 00c4 404C     		ldr	r4, .L120+8
 1487              	.LBB131:
 1488              	.LBB128:
 295:../Middlewares/screenl/uvcl/Src/uvcl.c ****   HAL_PCDEx_SetTxFiFo(pcd_handle, 1, 0x300);
 1489              		.loc 1 295 3 view .LVU453
 1490 00c6 FFF7FEFF 		bl	HAL_PCDEx_SetTxFiFo
 1491              	.LVL143:
 296:../Middlewares/screenl/uvcl/Src/uvcl.c **** 
 1492              		.loc 1 296 3 is_stmt 1 view .LVU454
 1493 00ca 4FF44072 		mov	r2, #768
 1494 00ce 3946     		mov	r1, r7
 1495 00d0 3046     		mov	r0, r6
 1496 00d2 FFF7FEFF 		bl	HAL_PCDEx_SetTxFiFo
 1497              	.LVL144:
 298:../Middlewares/screenl/uvcl/Src/uvcl.c **** }
 1498              		.loc 1 298 3 view .LVU455
 298:../Middlewares/screenl/uvcl/Src/uvcl.c **** }
 1499              		.loc 1 298 3 is_stmt 0 view .LVU456
 1500              	.LBE128:
 1501              	.LBE131:
 586:../Middlewares/screenl/uvcl/Src/uvcl.c ****   if (ret)
 1502              		.loc 1 586 3 is_stmt 1 view .LVU457
 1503              		.loc 1 590 3 view .LVU458
 1504              		.loc 1 590 9 is_stmt 0 view .LVU459
 1505 00d6 5246     		mov	r2, r10
 1506 00d8 3146     		mov	r1, r6
 1507 00da 2046     		mov	r0, r4
 1508 00dc 26AB     		add	r3, sp, #152
 1509 00de FFF7FEFF 		bl	UVCL_usbx_init
 1510              	.LVL145:
 591:../Middlewares/screenl/uvcl/Src/uvcl.c **** #endif
 592:../Middlewares/screenl/uvcl/Src/uvcl.c **** #ifdef UVC_LIB_USE_STM32_USBD
 593:../Middlewares/screenl/uvcl/Src/uvcl.c ****   ret = UVCL_stm32_usbd_init(&ctx, &uvcl_pcd_handle, pcd_instance, &conf);
 594:../Middlewares/screenl/uvcl/Src/uvcl.c **** #endif
 595:../Middlewares/screenl/uvcl/Src/uvcl.c ****   if (ret)
 1511              		.loc 1 595 3 is_stmt 1 view .LVU460
 1512              		.loc 1 595 6 is_stmt 0 view .LVU461
 1513 00e2 0546     		mov	r5, r0
 1514 00e4 0028     		cmp	r0, #0
 1515 00e6 43D1     		bne	.L95
 596:../Middlewares/screenl/uvcl/Src/uvcl.c ****     return ret;
 597:../Middlewares/screenl/uvcl/Src/uvcl.c **** 
 598:../Middlewares/screenl/uvcl/Src/uvcl.c ****   UVCL_ctx_init(&ctx, &conf, cbs);
 1516              		.loc 1 598 3 is_stmt 1 view .LVU462
 1517              	.LVL146:
 1518              	.LBB132:
 1519              	.LBI132:
 423:../Middlewares/screenl/uvcl/Src/uvcl.c **** {
 1520              		.loc 1 423 13 view .LVU463
 1521              	.LBB133:
 425:../Middlewares/screenl/uvcl/Src/uvcl.c ****   p_ctx->cbs = cbs;
 1522              		.loc 1 425 3 view .LVU464
ARM GAS  /tmp/ccbJxyKS.s 			page 48


 425:../Middlewares/screenl/uvcl/Src/uvcl.c ****   p_ctx->cbs = cbs;
 1523              		.loc 1 425 15 is_stmt 0 view .LVU465
 1524 00e8 A822     		movs	r2, #168
 1525 00ea 2046     		mov	r0, r4
 1526              	.LVL147:
 425:../Middlewares/screenl/uvcl/Src/uvcl.c ****   p_ctx->cbs = cbs;
 1527              		.loc 1 425 15 view .LVU466
 1528 00ec 26A9     		add	r1, sp, #152
 1529              	.LVL148:
 425:../Middlewares/screenl/uvcl/Src/uvcl.c ****   p_ctx->cbs = cbs;
 1530              		.loc 1 425 15 view .LVU467
 1531 00ee FFF7FEFF 		bl	memcpy
 1532              	.LVL149:
 426:../Middlewares/screenl/uvcl/Src/uvcl.c ****   p_ctx->buffer_nb = USBX_BUFFER_NB;
 1533              		.loc 1 426 3 is_stmt 1 view .LVU468
 427:../Middlewares/screenl/uvcl/Src/uvcl.c ****   p_ctx->packet = packet;
 1534              		.loc 1 427 20 is_stmt 0 view .LVU469
 1535 00f2 0423     		movs	r3, #4
 1536 00f4 C4F8AC30 		str	r3, [r4, #172]
 428:../Middlewares/screenl/uvcl/Src/uvcl.c ****   p_ctx->frame_period_in_ms = 1000 / conf->streams[0].fps;
 1537              		.loc 1 428 17 view .LVU470
 1538 00f8 344B     		ldr	r3, .L120+12
 429:../Middlewares/screenl/uvcl/Src/uvcl.c ****   UVCL_ctx_init_streams_p(p_ctx);
 1539              		.loc 1 429 54 view .LVU471
 1540 00fa 2998     		ldr	r0, [sp, #164]
 428:../Middlewares/screenl/uvcl/Src/uvcl.c ****   p_ctx->frame_period_in_ms = 1000 / conf->streams[0].fps;
 1541              		.loc 1 428 17 view .LVU472
 1542 00fc C4F8B430 		str	r3, [r4, #180]
 429:../Middlewares/screenl/uvcl/Src/uvcl.c ****   UVCL_ctx_init_streams_p(p_ctx);
 1543              		.loc 1 429 36 view .LVU473
 1544 0100 4FF47A73 		mov	r3, #1000
 1545 0104 93FBF0F3 		sdiv	r3, r3, r0
 429:../Middlewares/screenl/uvcl/Src/uvcl.c ****   UVCL_ctx_init_streams_p(p_ctx);
 1546              		.loc 1 429 29 view .LVU474
 1547 0108 C4F8BC30 		str	r3, [r4, #188]
 1548              	.LBB134:
 1549              	.LBB135:
 402:../Middlewares/screenl/uvcl/Src/uvcl.c ****   p_ctx->streams_p[0].bFrameIndex = bFrameIndex;
 1550              		.loc 1 402 36 view .LVU475
 1551 010c 40F20113 		movw	r3, #257
 1552              	.LBB136:
 419:../Middlewares/screenl/uvcl/Src/uvcl.c ****   }
 1553              		.loc 1 419 43 view .LVU476
 1554 0110 D4F8A020 		ldr	r2, [r4, #160]
 1555              	.LBE136:
 402:../Middlewares/screenl/uvcl/Src/uvcl.c ****   p_ctx->streams_p[0].bFrameIndex = bFrameIndex;
 1556              		.loc 1 402 36 view .LVU477
 1557 0114 A4F84C31 		strh	r3, [r4, #332]	@ movhi
 404:../Middlewares/screenl/uvcl/Src/uvcl.c **** 
 1558              		.loc 1 404 41 view .LVU478
 1559 0118 2D4B     		ldr	r3, .L120+16
 1560 011a 002A     		cmp	r2, #0
 1561 011c B3FBF0F0 		udiv	r0, r3, r0
 1562 0120 2646     		mov	r6, r4
 406:../Middlewares/screenl/uvcl/Src/uvcl.c ****     UVCL_StreamConf_t *prev =  &p_ctx->conf.streams[i - 1];
 1563              		.loc 1 406 3 view .LVU479
 1564 0122 2346     		mov	r3, r4
ARM GAS  /tmp/ccbJxyKS.s 			page 49


 399:../Middlewares/screenl/uvcl/Src/uvcl.c ****   int i;
 1565              		.loc 1 399 11 view .LVU480
 1566 0124 3D46     		mov	r5, r7
 1567              	.LVL150:
 398:../Middlewares/screenl/uvcl/Src/uvcl.c ****   uint8_t bFrameIndex = 1;
 1568              		.loc 1 398 11 view .LVU481
 1569 0126 BC46     		mov	ip, r7
 1570 0128 D8BF     		it	le
 1571 012a 3A46     		movle	r2, r7
 1572              	.LBE135:
 1573              	.LBE134:
 426:../Middlewares/screenl/uvcl/Src/uvcl.c ****   p_ctx->buffer_nb = USBX_BUFFER_NB;
 1574              		.loc 1 426 14 view .LVU482
 1575 012c C4F8A890 		str	r9, [r4, #168]
 427:../Middlewares/screenl/uvcl/Src/uvcl.c ****   p_ctx->packet = packet;
 1576              		.loc 1 427 3 is_stmt 1 view .LVU483
 428:../Middlewares/screenl/uvcl/Src/uvcl.c ****   p_ctx->frame_period_in_ms = 1000 / conf->streams[0].fps;
 1577              		.loc 1 428 3 view .LVU484
 429:../Middlewares/screenl/uvcl/Src/uvcl.c ****   UVCL_ctx_init_streams_p(p_ctx);
 1578              		.loc 1 429 3 view .LVU485
 430:../Middlewares/screenl/uvcl/Src/uvcl.c ****   UVCL_vc_init(&p_ctx->UVC_VideoCommitControl, conf->streams[0].fps);
 1579              		.loc 1 430 3 view .LVU486
 1580              	.LBB141:
 1581              	.LBI134:
 396:../Middlewares/screenl/uvcl/Src/uvcl.c **** {
 1582              		.loc 1 396 13 view .LVU487
 1583              	.LVL151:
 1584              	.LBB139:
 398:../Middlewares/screenl/uvcl/Src/uvcl.c ****   uint8_t bFrameIndex = 1;
 1585              		.loc 1 398 3 view .LVU488
 399:../Middlewares/screenl/uvcl/Src/uvcl.c ****   int i;
 1586              		.loc 1 399 3 view .LVU489
 400:../Middlewares/screenl/uvcl/Src/uvcl.c **** 
 1587              		.loc 1 400 3 view .LVU490
 402:../Middlewares/screenl/uvcl/Src/uvcl.c ****   p_ctx->streams_p[0].bFrameIndex = bFrameIndex;
 1588              		.loc 1 402 3 view .LVU491
 403:../Middlewares/screenl/uvcl/Src/uvcl.c ****   p_ctx->streams_p[0].dwFrameInterval = UVC_INTERVAL(p_ctx->conf.streams[0].fps);
 1589              		.loc 1 403 3 view .LVU492
 404:../Middlewares/screenl/uvcl/Src/uvcl.c **** 
 1590              		.loc 1 404 3 view .LVU493
 404:../Middlewares/screenl/uvcl/Src/uvcl.c **** 
 1591              		.loc 1 404 39 is_stmt 0 view .LVU494
 1592 0130 C4F85001 		str	r0, [r4, #336]
 406:../Middlewares/screenl/uvcl/Src/uvcl.c ****     UVCL_StreamConf_t *prev =  &p_ctx->conf.streams[i - 1];
 1593              		.loc 1 406 3 is_stmt 1 view .LVU495
 1594              	.LVL152:
 1595              	.L101:
 406:../Middlewares/screenl/uvcl/Src/uvcl.c ****     UVCL_StreamConf_t *prev =  &p_ctx->conf.streams[i - 1];
 1596              		.loc 1 406 17 discriminator 1 view .LVU496
 1597 0134 013A     		subs	r2, r2, #1
 1598 0136 1FD1     		bne	.L105
 1599              	.LVL153:
 406:../Middlewares/screenl/uvcl/Src/uvcl.c ****     UVCL_StreamConf_t *prev =  &p_ctx->conf.streams[i - 1];
 1600              		.loc 1 406 17 is_stmt 0 discriminator 1 view .LVU497
 1601              	.LBE139:
 1602              	.LBE141:
 431:../Middlewares/screenl/uvcl/Src/uvcl.c ****   UVCL_vc_init(&p_ctx->UVC_VideoProbeControl, conf->streams[0].fps);
ARM GAS  /tmp/ccbJxyKS.s 			page 50


 1603              		.loc 1 431 3 is_stmt 1 view .LVU498
 1604              	.LBB142:
 1605              	.LBI142:
 376:../Middlewares/screenl/uvcl/Src/uvcl.c **** {
 1606              		.loc 1 376 13 view .LVU499
 1607              	.LBB143:
 378:../Middlewares/screenl/uvcl/Src/uvcl.c ****   vc->bFormatIndex = 0x01U;
 1608              		.loc 1 378 3 view .LVU500
 379:../Middlewares/screenl/uvcl/Src/uvcl.c ****   vc->bFrameIndex = 0x01U;
 1609              		.loc 1 379 3 view .LVU501
 380:../Middlewares/screenl/uvcl/Src/uvcl.c ****   vc->dwFrameInterval = UVC_INTERVAL(fps);
 1610              		.loc 1 380 3 view .LVU502
 382:../Middlewares/screenl/uvcl/Src/uvcl.c ****   vc->wPFrameRate = 0x0000U;
 1611              		.loc 1 382 21 is_stmt 0 view .LVU503
 1612 0138 0023     		movs	r3, #0
 378:../Middlewares/screenl/uvcl/Src/uvcl.c ****   vc->bFormatIndex = 0x01U;
 1613              		.loc 1 378 14 view .LVU504
 1614 013a 264A     		ldr	r2, .L120+20
 384:../Middlewares/screenl/uvcl/Src/uvcl.c ****   vc->wCompWindowSize = 0x0000U;
 1615              		.loc 1 384 20 view .LVU505
 1616 013c C4E93D33 		strd	r3, r3, [r4, #244]
 381:../Middlewares/screenl/uvcl/Src/uvcl.c ****   vc->wKeyFrameRate = 0x0000U;
 1617              		.loc 1 381 23 view .LVU506
 1618 0140 C4E93B20 		strd	r2, r0, [r4, #236]
 382:../Middlewares/screenl/uvcl/Src/uvcl.c ****   vc->wPFrameRate = 0x0000U;
 1619              		.loc 1 382 3 is_stmt 1 view .LVU507
 383:../Middlewares/screenl/uvcl/Src/uvcl.c ****   vc->wCompQuality = 0x0000U;
 1620              		.loc 1 383 3 view .LVU508
 384:../Middlewares/screenl/uvcl/Src/uvcl.c ****   vc->wCompWindowSize = 0x0000U;
 1621              		.loc 1 384 3 view .LVU509
 385:../Middlewares/screenl/uvcl/Src/uvcl.c ****   vc->wDelay = 0x0000U;
 1622              		.loc 1 385 3 view .LVU510
 386:../Middlewares/screenl/uvcl/Src/uvcl.c ****   vc->dwMaxVideoFrameSize = 0x0000U;
 1623              		.loc 1 386 3 view .LVU511
 387:../Middlewares/screenl/uvcl/Src/uvcl.c ****   vc->dwMaxPayloadTransferSize = 0x00000000U;
 1624              		.loc 1 387 3 view .LVU512
 388:../Middlewares/screenl/uvcl/Src/uvcl.c ****   vc->dwClockFrequency = 0x00000000U;
 1625              		.loc 1 388 3 view .LVU513
 389:../Middlewares/screenl/uvcl/Src/uvcl.c ****   vc->bmFramingInfo = 0x00U;
 1626              		.loc 1 389 3 view .LVU514
 390:../Middlewares/screenl/uvcl/Src/uvcl.c ****   vc->bPreferedVersion = 0x00U;
 1627              		.loc 1 390 3 view .LVU515
 391:../Middlewares/screenl/uvcl/Src/uvcl.c ****   vc->bMinVersion = 0x00U;
 1628              		.loc 1 391 3 view .LVU516
 392:../Middlewares/screenl/uvcl/Src/uvcl.c ****   vc->bMaxVersion = 0x00U;
 1629              		.loc 1 392 3 view .LVU517
 393:../Middlewares/screenl/uvcl/Src/uvcl.c **** }
 1630              		.loc 1 393 3 view .LVU518
 1631              	.LBE143:
 1632              	.LBE142:
 1633              	.LBB146:
 1634              	.LBB147:
 381:../Middlewares/screenl/uvcl/Src/uvcl.c ****   vc->wKeyFrameRate = 0x0000U;
 1635              		.loc 1 381 23 is_stmt 0 view .LVU519
 1636 0144 C4E94720 		strd	r2, r0, [r4, #284]
 1637              	.LBE147:
 1638              	.LBE146:
ARM GAS  /tmp/ccbJxyKS.s 			page 51


 1639              	.LBE133:
 1640              	.LBE132:
 599:../Middlewares/screenl/uvcl/Src/uvcl.c **** 
 600:../Middlewares/screenl/uvcl/Src/uvcl.c ****   return HAL_PCD_Start(&uvcl_pcd_handle);
 1641              		.loc 1 600 10 view .LVU520
 1642 0148 1E48     		ldr	r0, .L120+4
 1643              	.LBB157:
 1644              	.LBB155:
 1645              	.LBB150:
 1646              	.LBB144:
 387:../Middlewares/screenl/uvcl/Src/uvcl.c ****   vc->dwMaxPayloadTransferSize = 0x00000000U;
 1647              		.loc 1 387 27 view .LVU521
 1648 014a C4E93F33 		strd	r3, r3, [r4, #252]
 389:../Middlewares/screenl/uvcl/Src/uvcl.c ****   vc->bmFramingInfo = 0x00U;
 1649              		.loc 1 389 24 view .LVU522
 1650 014e C4E94133 		strd	r3, r3, [r4, #260]
 1651              	.LBE144:
 1652              	.LBE150:
 1653              	.LBB151:
 1654              	.LBB148:
 384:../Middlewares/screenl/uvcl/Src/uvcl.c ****   vc->wCompWindowSize = 0x0000U;
 1655              		.loc 1 384 20 view .LVU523
 1656 0152 C4E94933 		strd	r3, r3, [r4, #292]
 387:../Middlewares/screenl/uvcl/Src/uvcl.c ****   vc->dwMaxPayloadTransferSize = 0x00000000U;
 1657              		.loc 1 387 27 view .LVU524
 1658 0156 C4E94B33 		strd	r3, r3, [r4, #300]
 389:../Middlewares/screenl/uvcl/Src/uvcl.c ****   vc->bmFramingInfo = 0x00U;
 1659              		.loc 1 389 24 view .LVU525
 1660 015a C4E94D33 		strd	r3, r3, [r4, #308]
 1661              	.LBE148:
 1662              	.LBE151:
 1663              	.LBB152:
 1664              	.LBB145:
 392:../Middlewares/screenl/uvcl/Src/uvcl.c ****   vc->bMaxVersion = 0x00U;
 1665              		.loc 1 392 19 view .LVU526
 1666 015e A4F80C31 		strh	r3, [r4, #268]	@ movhi
 1667              	.LVL154:
 392:../Middlewares/screenl/uvcl/Src/uvcl.c ****   vc->bMaxVersion = 0x00U;
 1668              		.loc 1 392 19 view .LVU527
 1669              	.LBE145:
 1670              	.LBE152:
 432:../Middlewares/screenl/uvcl/Src/uvcl.c **** 
 1671              		.loc 1 432 3 is_stmt 1 view .LVU528
 1672              	.LBB153:
 1673              	.LBI146:
 376:../Middlewares/screenl/uvcl/Src/uvcl.c **** {
 1674              		.loc 1 376 13 view .LVU529
 1675              	.LBB149:
 378:../Middlewares/screenl/uvcl/Src/uvcl.c ****   vc->bFormatIndex = 0x01U;
 1676              		.loc 1 378 3 view .LVU530
 379:../Middlewares/screenl/uvcl/Src/uvcl.c ****   vc->bFrameIndex = 0x01U;
 1677              		.loc 1 379 3 view .LVU531
 380:../Middlewares/screenl/uvcl/Src/uvcl.c ****   vc->dwFrameInterval = UVC_INTERVAL(fps);
 1678              		.loc 1 380 3 view .LVU532
 382:../Middlewares/screenl/uvcl/Src/uvcl.c ****   vc->wPFrameRate = 0x0000U;
 1679              		.loc 1 382 3 view .LVU533
 383:../Middlewares/screenl/uvcl/Src/uvcl.c ****   vc->wCompQuality = 0x0000U;
ARM GAS  /tmp/ccbJxyKS.s 			page 52


 1680              		.loc 1 383 3 view .LVU534
 384:../Middlewares/screenl/uvcl/Src/uvcl.c ****   vc->wCompWindowSize = 0x0000U;
 1681              		.loc 1 384 3 view .LVU535
 385:../Middlewares/screenl/uvcl/Src/uvcl.c ****   vc->wDelay = 0x0000U;
 1682              		.loc 1 385 3 view .LVU536
 386:../Middlewares/screenl/uvcl/Src/uvcl.c ****   vc->dwMaxVideoFrameSize = 0x0000U;
 1683              		.loc 1 386 3 view .LVU537
 387:../Middlewares/screenl/uvcl/Src/uvcl.c ****   vc->dwMaxPayloadTransferSize = 0x00000000U;
 1684              		.loc 1 387 3 view .LVU538
 388:../Middlewares/screenl/uvcl/Src/uvcl.c ****   vc->dwClockFrequency = 0x00000000U;
 1685              		.loc 1 388 3 view .LVU539
 389:../Middlewares/screenl/uvcl/Src/uvcl.c ****   vc->bmFramingInfo = 0x00U;
 1686              		.loc 1 389 3 view .LVU540
 390:../Middlewares/screenl/uvcl/Src/uvcl.c ****   vc->bPreferedVersion = 0x00U;
 1687              		.loc 1 390 3 view .LVU541
 391:../Middlewares/screenl/uvcl/Src/uvcl.c ****   vc->bMinVersion = 0x00U;
 1688              		.loc 1 391 3 view .LVU542
 392:../Middlewares/screenl/uvcl/Src/uvcl.c ****   vc->bMaxVersion = 0x00U;
 1689              		.loc 1 392 3 view .LVU543
 393:../Middlewares/screenl/uvcl/Src/uvcl.c **** }
 1690              		.loc 1 393 3 view .LVU544
 392:../Middlewares/screenl/uvcl/Src/uvcl.c ****   vc->bMaxVersion = 0x00U;
 1691              		.loc 1 392 19 is_stmt 0 view .LVU545
 1692 0162 A4F83C31 		strh	r3, [r4, #316]	@ movhi
 1693              	.LVL155:
 392:../Middlewares/screenl/uvcl/Src/uvcl.c ****   vc->bMaxVersion = 0x00U;
 1694              		.loc 1 392 19 view .LVU546
 1695              	.LBE149:
 1696              	.LBE153:
 434:../Middlewares/screenl/uvcl/Src/uvcl.c **** }
 1697              		.loc 1 434 3 is_stmt 1 view .LVU547
 434:../Middlewares/screenl/uvcl/Src/uvcl.c **** }
 1698              		.loc 1 434 16 is_stmt 0 view .LVU548
 1699 0166 C8F80040 		str	r4, [r8]
 1700              	.LVL156:
 434:../Middlewares/screenl/uvcl/Src/uvcl.c **** }
 1701              		.loc 1 434 16 view .LVU549
 1702              	.LBE155:
 1703              	.LBE157:
 1704              		.loc 1 600 3 is_stmt 1 view .LVU550
 1705              		.loc 1 600 10 is_stmt 0 view .LVU551
 1706 016a FFF7FEFF 		bl	HAL_PCD_Start
 1707              	.LVL157:
 1708 016e 0546     		mov	r5, r0
 1709              	.LVL158:
 1710              	.L95:
 601:../Middlewares/screenl/uvcl/Src/uvcl.c **** }
 1711              		.loc 1 601 1 view .LVU552
 1712 0170 2846     		mov	r0, r5
 1713 0172 50B0     		add	sp, sp, #320
 1714              		.cfi_remember_state
 1715              		.cfi_def_cfa_offset 32
 1716              		@ sp needed
 1717 0174 BDE8F087 		pop	{r4, r5, r6, r7, r8, r9, r10, pc}
 1718              	.LVL159:
 1719              	.L105:
 1720              		.cfi_restore_state
ARM GAS  /tmp/ccbJxyKS.s 			page 53


 1721              	.LBB158:
 1722              	.LBB156:
 1723              	.LBB154:
 1724              	.LBB140:
 1725              	.LBB137:
 407:../Middlewares/screenl/uvcl/Src/uvcl.c ****     UVCL_StreamConf_t *current =  &p_ctx->conf.streams[i];
 1726              		.loc 1 407 5 is_stmt 1 view .LVU553
 408:../Middlewares/screenl/uvcl/Src/uvcl.c **** 
 1727              		.loc 1 408 5 view .LVU554
 410:../Middlewares/screenl/uvcl/Src/uvcl.c ****       bFormatIndex += 1;
 1728              		.loc 1 410 5 view .LVU555
 410:../Middlewares/screenl/uvcl/Src/uvcl.c ****       bFormatIndex += 1;
 1729              		.loc 1 410 8 is_stmt 0 view .LVU556
 1730 0178 1F68     		ldr	r7, [r3]
 1731 017a 5969     		ldr	r1, [r3, #20]
 1732 017c 8F42     		cmp	r7, r1
 1733 017e 11D0     		beq	.L102
 411:../Middlewares/screenl/uvcl/Src/uvcl.c ****       bFrameIndex = 1;
 1734              		.loc 1 411 7 is_stmt 1 view .LVU557
 412:../Middlewares/screenl/uvcl/Src/uvcl.c ****     } else if (prev->width != current->width || prev->height != current->height) {
 1735              		.loc 1 412 19 is_stmt 0 view .LVU558
 1736 0180 0125     		movs	r5, #1
 1737              	.LVL160:
 411:../Middlewares/screenl/uvcl/Src/uvcl.c ****       bFrameIndex = 1;
 1738              		.loc 1 411 20 view .LVU559
 1739 0182 0CF1010C 		add	ip, ip, #1
 1740              	.LVL161:
 411:../Middlewares/screenl/uvcl/Src/uvcl.c ****       bFrameIndex = 1;
 1741              		.loc 1 411 20 view .LVU560
 1742 0186 5FFA8CFC 		uxtb	ip, ip
 1743              	.LVL162:
 412:../Middlewares/screenl/uvcl/Src/uvcl.c ****     } else if (prev->width != current->width || prev->height != current->height) {
 1744              		.loc 1 412 7 is_stmt 1 view .LVU561
 1745              	.L103:
 417:../Middlewares/screenl/uvcl/Src/uvcl.c ****     p_ctx->streams_p[i].bFrameIndex = bFrameIndex;
 1746              		.loc 1 417 5 view .LVU562
 417:../Middlewares/screenl/uvcl/Src/uvcl.c ****     p_ctx->streams_p[i].bFrameIndex = bFrameIndex;
 1747              		.loc 1 417 38 is_stmt 0 view .LVU563
 1748 018a 86F854C1 		strb	ip, [r6, #340]
 418:../Middlewares/screenl/uvcl/Src/uvcl.c ****     p_ctx->streams_p[i].dwFrameInterval = UVC_INTERVAL(current->fps);
 1749              		.loc 1 418 5 is_stmt 1 view .LVU564
 418:../Middlewares/screenl/uvcl/Src/uvcl.c ****     p_ctx->streams_p[i].dwFrameInterval = UVC_INTERVAL(current->fps);
 1750              		.loc 1 418 37 is_stmt 0 view .LVU565
 1751 018e 86F85551 		strb	r5, [r6, #341]
 419:../Middlewares/screenl/uvcl/Src/uvcl.c ****   }
 1752              		.loc 1 419 5 is_stmt 1 view .LVU566
 419:../Middlewares/screenl/uvcl/Src/uvcl.c ****   }
 1753              		.loc 1 419 43 is_stmt 0 view .LVU567
 1754 0192 1F6A     		ldr	r7, [r3, #32]
 1755 0194 0E49     		ldr	r1, .L120+16
 1756 0196 0836     		adds	r6, r6, #8
 1757 0198 B1FBF7F7 		udiv	r7, r1, r7
 1758 019c 1433     		adds	r3, r3, #20
 419:../Middlewares/screenl/uvcl/Src/uvcl.c ****   }
 1759              		.loc 1 419 41 view .LVU568
 1760 019e C6F85071 		str	r7, [r6, #336]
 1761              	.LBE137:
ARM GAS  /tmp/ccbJxyKS.s 			page 54


 406:../Middlewares/screenl/uvcl/Src/uvcl.c ****     UVCL_StreamConf_t *prev =  &p_ctx->conf.streams[i - 1];
 1762              		.loc 1 406 44 is_stmt 1 discriminator 2 view .LVU569
 1763 01a2 C7E7     		b	.L101
 1764              	.L102:
 1765              	.LBB138:
 413:../Middlewares/screenl/uvcl/Src/uvcl.c ****       bFrameIndex += 1;
 1766              		.loc 1 413 12 view .LVU570
 413:../Middlewares/screenl/uvcl/Src/uvcl.c ****       bFrameIndex += 1;
 1767              		.loc 1 413 15 is_stmt 0 view .LVU571
 1768 01a4 5F68     		ldr	r7, [r3, #4]
 1769 01a6 9969     		ldr	r1, [r3, #24]
 1770 01a8 8F42     		cmp	r7, r1
 1771 01aa 03D1     		bne	.L104
 413:../Middlewares/screenl/uvcl/Src/uvcl.c ****       bFrameIndex += 1;
 1772              		.loc 1 413 46 discriminator 1 view .LVU572
 1773 01ac 9F68     		ldr	r7, [r3, #8]
 1774 01ae D969     		ldr	r1, [r3, #28]
 1775 01b0 8F42     		cmp	r7, r1
 1776 01b2 EAD0     		beq	.L103
 1777              	.L104:
 414:../Middlewares/screenl/uvcl/Src/uvcl.c ****     }
 1778              		.loc 1 414 7 is_stmt 1 view .LVU573
 414:../Middlewares/screenl/uvcl/Src/uvcl.c ****     }
 1779              		.loc 1 414 19 is_stmt 0 view .LVU574
 1780 01b4 0135     		adds	r5, r5, #1
 1781              	.LVL163:
 414:../Middlewares/screenl/uvcl/Src/uvcl.c ****     }
 1782              		.loc 1 414 19 view .LVU575
 1783 01b6 EDB2     		uxtb	r5, r5
 1784 01b8 E7E7     		b	.L103
 1785              	.LVL164:
 1786              	.L115:
 414:../Middlewares/screenl/uvcl/Src/uvcl.c ****     }
 1787              		.loc 1 414 19 view .LVU576
 1788              	.LBE138:
 1789              	.LBE140:
 1790              	.LBE154:
 1791              	.LBE156:
 1792              	.LBE158:
 573:../Middlewares/screenl/uvcl/Src/uvcl.c **** 
 1793              		.loc 1 573 12 view .LVU577
 1794 01ba 4FF0FF35 		mov	r5, #-1
 1795 01be D7E7     		b	.L95
 1796              	.L121:
 1797              		.align	2
 1798              	.L120:
 1799 01c0 00000000 		.word	compare_streams
 1800 01c4 00000000 		.word	uvcl_pcd_handle
 1801 01c8 00000000 		.word	ctx
 1802 01cc 00000000 		.word	packet
 1803 01d0 80969800 		.word	10000000
 1804 01d4 00000101 		.word	16842752
 1805 01d8 00000000 		.word	p_ctx_single
 1806              		.cfi_endproc
 1807              	.LFE908:
 1809              		.section	.text.UVCL_Deinit,"ax",%progbits
 1810              		.align	1
ARM GAS  /tmp/ccbJxyKS.s 			page 55


 1811              		.global	UVCL_Deinit
 1812              		.syntax unified
 1813              		.thumb
 1814              		.thumb_func
 1816              	UVCL_Deinit:
 1817              	.LFB909:
 602:../Middlewares/screenl/uvcl/Src/uvcl.c **** 
 603:../Middlewares/screenl/uvcl/Src/uvcl.c **** int UVCL_Deinit()
 604:../Middlewares/screenl/uvcl/Src/uvcl.c **** {
 1818              		.loc 1 604 1 is_stmt 1 view -0
 1819              		.cfi_startproc
 1820              		@ Volatile: function does not return.
 1821              		@ args = 0, pretend = 0, frame = 0
 1822              		@ frame_needed = 0, uses_anonymous_args = 0
 605:../Middlewares/screenl/uvcl/Src/uvcl.c ****   assert(0);
 1823              		.loc 1 605 3 view .LVU579
 604:../Middlewares/screenl/uvcl/Src/uvcl.c ****   assert(0);
 1824              		.loc 1 604 1 is_stmt 0 view .LVU580
 1825 0000 08B5     		push	{r3, lr}
 1826              		.cfi_def_cfa_offset 8
 1827              		.cfi_offset 3, -8
 1828              		.cfi_offset 14, -4
 1829              		.loc 1 605 3 view .LVU581
 1830 0002 40F25D21 		movw	r1, #605
 1831 0006 024B     		ldr	r3, .L123
 1832 0008 024A     		ldr	r2, .L123+4
 1833 000a 0348     		ldr	r0, .L123+8
 1834 000c FFF7FEFF 		bl	__assert_func
 1835              	.LVL165:
 1836              	.L124:
 1837              		.align	2
 1838              	.L123:
 1839 0010 16000000 		.word	.LC5
 1840 0014 00000000 		.word	__func__.0
 1841 0018 13000000 		.word	.LC1
 1842              		.cfi_endproc
 1843              	.LFE909:
 1845              		.section	.text.UVCL_IRQHandler,"ax",%progbits
 1846              		.align	1
 1847              		.global	UVCL_IRQHandler
 1848              		.syntax unified
 1849              		.thumb
 1850              		.thumb_func
 1852              	UVCL_IRQHandler:
 1853              	.LFB910:
 606:../Middlewares/screenl/uvcl/Src/uvcl.c **** 
 607:../Middlewares/screenl/uvcl/Src/uvcl.c ****   //p_ctx = NULL;
 608:../Middlewares/screenl/uvcl/Src/uvcl.c **** 
 609:../Middlewares/screenl/uvcl/Src/uvcl.c ****   return -1;
 610:../Middlewares/screenl/uvcl/Src/uvcl.c **** }
 611:../Middlewares/screenl/uvcl/Src/uvcl.c **** 
 612:../Middlewares/screenl/uvcl/Src/uvcl.c **** void UVCL_IRQHandler()
 613:../Middlewares/screenl/uvcl/Src/uvcl.c **** {
 1854              		.loc 1 613 1 is_stmt 1 view -0
 1855              		.cfi_startproc
 1856              		@ args = 0, pretend = 0, frame = 0
 1857              		@ frame_needed = 0, uses_anonymous_args = 0
ARM GAS  /tmp/ccbJxyKS.s 			page 56


 1858              		@ link register save eliminated.
 614:../Middlewares/screenl/uvcl/Src/uvcl.c **** #if defined(UVCL_USBD_USE_THREADX) || defined(UVCL_USBD_USE_FREERTOS)
 615:../Middlewares/screenl/uvcl/Src/uvcl.c ****   UVCL_stm32_usbd_IRQHandler();
 616:../Middlewares/screenl/uvcl/Src/uvcl.c **** #elif defined(UVC_LIB_USE_USBX)
 617:../Middlewares/screenl/uvcl/Src/uvcl.c ****   UVCL_stm32_usbx_IRQHandler();
 1859              		.loc 1 617 3 view .LVU583
 1860 0000 FFF7FEBF 		b	UVCL_stm32_usbx_IRQHandler
 1861              	.LVL166:
 1862              		.cfi_endproc
 1863              	.LFE910:
 1865              		.section	.text.UVCL_ShowFrame,"ax",%progbits
 1866              		.align	1
 1867              		.global	UVCL_ShowFrame
 1868              		.syntax unified
 1869              		.thumb
 1870              		.thumb_func
 1872              	UVCL_ShowFrame:
 1873              	.LVL167:
 1874              	.LFB911:
 618:../Middlewares/screenl/uvcl/Src/uvcl.c **** #else
 619:../Middlewares/screenl/uvcl/Src/uvcl.c ****   HAL_PCD_IRQHandler(&uvcl_pcd_handle);
 620:../Middlewares/screenl/uvcl/Src/uvcl.c **** #endif
 621:../Middlewares/screenl/uvcl/Src/uvcl.c **** }
 622:../Middlewares/screenl/uvcl/Src/uvcl.c **** 
 623:../Middlewares/screenl/uvcl/Src/uvcl.c **** int UVCL_ShowFrame(void *frame, int frame_size)
 624:../Middlewares/screenl/uvcl/Src/uvcl.c **** {
 1875              		.loc 1 624 1 view -0
 1876              		.cfi_startproc
 1877              		@ args = 0, pretend = 0, frame = 0
 1878              		@ frame_needed = 0, uses_anonymous_args = 0
 1879              		@ link register save eliminated.
 625:../Middlewares/screenl/uvcl/Src/uvcl.c ****   UVCL_Ctx_t *p_ctx = p_ctx_single;
 1880              		.loc 1 625 3 view .LVU585
 1881              		.loc 1 625 15 is_stmt 0 view .LVU586
 1882 0000 0C4B     		ldr	r3, .L136
 624:../Middlewares/screenl/uvcl/Src/uvcl.c ****   UVCL_Ctx_t *p_ctx = p_ctx_single;
 1883              		.loc 1 624 1 view .LVU587
 1884 0002 0246     		mov	r2, r0
 1885              		.loc 1 625 15 view .LVU588
 1886 0004 1B68     		ldr	r3, [r3]
 1887              	.LVL168:
 626:../Middlewares/screenl/uvcl/Src/uvcl.c **** 
 627:../Middlewares/screenl/uvcl/Src/uvcl.c ****   if (p_ctx->state != UVCL_STATUS_STREAMING)
 1888              		.loc 1 627 3 is_stmt 1 view .LVU589
 1889              		.loc 1 627 6 is_stmt 0 view .LVU590
 1890 0006 93F8B000 		ldrb	r0, [r3, #176]	@ zero_extendqisi2
 1891              	.LVL169:
 1892              		.loc 1 627 6 view .LVU591
 1893 000a 0128     		cmp	r0, #1
 1894 000c 0FD1     		bne	.L127
 628:../Middlewares/screenl/uvcl/Src/uvcl.c ****     return -1;
 629:../Middlewares/screenl/uvcl/Src/uvcl.c ****   if (p_ctx->p_frame)
 1895              		.loc 1 629 3 is_stmt 1 view .LVU592
 1896              		.loc 1 629 6 is_stmt 0 view .LVU593
 1897 000e D3F8C400 		ldr	r0, [r3, #196]
 1898 0012 60B9     		cbnz	r0, .L127
 630:../Middlewares/screenl/uvcl/Src/uvcl.c ****     return -1;
ARM GAS  /tmp/ccbJxyKS.s 			page 57


 631:../Middlewares/screenl/uvcl/Src/uvcl.c ****   if (!frame)
 1899              		.loc 1 631 3 is_stmt 1 view .LVU594
 1900              		.loc 1 631 6 is_stmt 0 view .LVU595
 1901 0014 5AB1     		cbz	r2, .L127
 632:../Middlewares/screenl/uvcl/Src/uvcl.c ****     return -1;
 633:../Middlewares/screenl/uvcl/Src/uvcl.c ****   if (!frame_size)
 1902              		.loc 1 633 3 is_stmt 1 view .LVU596
 1903              		.loc 1 633 6 is_stmt 0 view .LVU597
 1904 0016 51B1     		cbz	r1, .L127
 634:../Middlewares/screenl/uvcl/Src/uvcl.c ****     return -1;
 635:../Middlewares/screenl/uvcl/Src/uvcl.c **** 
 636:../Middlewares/screenl/uvcl/Src/uvcl.c ****   p_ctx->frame_size = frame_size;
 1905              		.loc 1 636 3 is_stmt 1 view .LVU598
 1906              		.loc 1 636 21 is_stmt 0 view .LVU599
 1907 0018 C3F8C810 		str	r1, [r3, #200]
 637:../Middlewares/screenl/uvcl/Src/uvcl.c ****   __DMB();
 1908              		.loc 1 637 3 is_stmt 1 view .LVU600
 1909              	.LBB159:
 1910              	.LBI159:
 195:../STM32Cube_FW_N6/Drivers/CMSIS/Include/cmsis_gcc.h **** {
 1911              		.loc 2 195 27 view .LVU601
 1912              	.LBB160:
 1913              		.loc 2 197 3 view .LVU602
 1914              		.syntax unified
 1915              	@ 197 "../STM32Cube_FW_N6/Drivers/CMSIS/Include/cmsis_gcc.h" 1
 1916 001c BFF35F8F 		dmb 0xF
 1917              	@ 0 "" 2
 1918              		.thumb
 1919              		.syntax unified
 1920              	.LBE160:
 1921              	.LBE159:
 638:../Middlewares/screenl/uvcl/Src/uvcl.c ****   p_ctx->p_frame = frame;
 1922              		.loc 1 638 3 view .LVU603
 1923              		.loc 1 638 18 is_stmt 0 view .LVU604
 1924 0020 C3F8C420 		str	r2, [r3, #196]
 639:../Middlewares/screenl/uvcl/Src/uvcl.c **** 
 640:../Middlewares/screenl/uvcl/Src/uvcl.c ****   if (p_ctx->state == UVCL_STATUS_STOP) {
 1925              		.loc 1 640 3 is_stmt 1 view .LVU605
 1926              		.loc 1 640 6 is_stmt 0 view .LVU606
 1927 0024 93F8B020 		ldrb	r2, [r3, #176]	@ zero_extendqisi2
 1928              	.LVL170:
 1929              		.loc 1 640 6 view .LVU607
 1930 0028 1AB9     		cbnz	r2, .L126
 641:../Middlewares/screenl/uvcl/Src/uvcl.c ****     p_ctx->p_frame = NULL;
 1931              		.loc 1 641 5 is_stmt 1 view .LVU608
 1932              		.loc 1 641 20 is_stmt 0 view .LVU609
 1933 002a C3F8C420 		str	r2, [r3, #196]
 1934              	.LVL171:
 642:../Middlewares/screenl/uvcl/Src/uvcl.c ****     return -1;
 1935              		.loc 1 642 5 is_stmt 1 view .LVU610
 1936              	.L127:
 628:../Middlewares/screenl/uvcl/Src/uvcl.c ****   if (p_ctx->p_frame)
 1937              		.loc 1 628 12 is_stmt 0 view .LVU611
 1938 002e 4FF0FF30 		mov	r0, #-1
 1939              	.L126:
 643:../Middlewares/screenl/uvcl/Src/uvcl.c ****   }
 644:../Middlewares/screenl/uvcl/Src/uvcl.c **** 
ARM GAS  /tmp/ccbJxyKS.s 			page 58


 645:../Middlewares/screenl/uvcl/Src/uvcl.c ****   return 0;
 646:../Middlewares/screenl/uvcl/Src/uvcl.c **** }
 1940              		.loc 1 646 1 view .LVU612
 1941 0032 7047     		bx	lr
 1942              	.L137:
 1943              		.align	2
 1944              	.L136:
 1945 0034 00000000 		.word	p_ctx_single
 1946              		.cfi_endproc
 1947              	.LFE911:
 1949              		.section	.rodata.__func__.0,"a"
 1952              	__func__.0:
 1953 0000 5556434C 		.ascii	"UVCL_Deinit\000"
 1953      5F446569 
 1953      6E697400 
 1954              		.section	.rodata.__func__.1,"a"
 1957              	__func__.1:
 1958 0000 636F6D70 		.ascii	"compare_streams\000"
 1958      6172655F 
 1958      73747265 
 1958      616D7300 
 1959              		.section	.rodata.__func__.2,"a"
 1962              	__func__.2:
 1963 0000 5556434C 		.ascii	"UVCL_SetupStreamingStream\000"
 1963      5F536574 
 1963      75705374 
 1963      7265616D 
 1963      696E6753 
 1964              		.section	.rodata.__func__.3,"a"
 1967              	__func__.3:
 1968 0000 5556434C 		.ascii	"UVCL_ComputedwMaxVideoFrameSize\000"
 1968      5F436F6D 
 1968      70757465 
 1968      64774D61 
 1968      78566964 
 1969              		.section	.rodata.__func__.4,"a"
 1972              	__func__.4:
 1973 0000 5556434C 		.ascii	"UVCL_AbortOnFlyCtx\000"
 1973      5F41626F 
 1973      72744F6E 
 1973      466C7943 
 1973      747800
 1974              		.section	.rodata.__func__.5,"a"
 1977              	__func__.5:
 1978 0000 5556434C 		.ascii	"UVCL_UpdateOnFlyCtx\000"
 1978      5F557064 
 1978      6174654F 
 1978      6E466C79 
 1978      43747800 
 1979              		.section	.rodata.__func__.6,"a"
 1982              	__func__.6:
 1983 0000 5556434C 		.ascii	"UVCL_handle_commit_control_request\000"
 1983      5F68616E 
 1983      646C655F 
 1983      636F6D6D 
 1983      69745F63 
 1984              		.section	.rodata.__func__.7,"a"
ARM GAS  /tmp/ccbJxyKS.s 			page 59


 1987              	__func__.7:
 1988 0000 5556434C 		.ascii	"UVCL_handle_probe_control_request\000"
 1988      5F68616E 
 1988      646C655F 
 1988      70726F62 
 1988      655F636F 
 1989              		.section	.rodata.__func__.8,"a"
 1992              	__func__.8:
 1993 0000 5556434C 		.ascii	"UVCL_handle_class_itf_setup_request\000"
 1993      5F68616E 
 1993      646C655F 
 1993      636C6173 
 1993      735F6974 
 1994              		.section	.rodata.__func__.9,"a"
 1997              	__func__.9:
 1998 0000 5556434C 		.ascii	"UVCL_handle_set_itf_setup_request\000"
 1998      5F68616E 
 1998      646C655F 
 1998      7365745F 
 1998      6974665F 
 1999              		.section	.rodata.__func__.10,"a"
 2002              	__func__.10:
 2003 0000 5556434C 		.ascii	"UVCL_handle_std_itf_setup_request\000"
 2003      5F68616E 
 2003      646C655F 
 2003      7374645F 
 2003      6974665F 
 2004              		.section	.rodata.__func__.11,"a"
 2007              	__func__.11:
 2008 0000 5556434C 		.ascii	"UVCL_handle_itf_setup_request\000"
 2008      5F68616E 
 2008      646C655F 
 2008      6974665F 
 2008      73657475 
 2009              		.section	.rodata.__func__.12,"a"
 2012              	__func__.12:
 2013 0000 5556434C 		.ascii	"UVCL_handle_setup_request\000"
 2013      5F68616E 
 2013      646C655F 
 2013      73657475 
 2013      705F7265 
 2014              		.global	p_ctx_single
 2015              		.section	.bss.p_ctx_single,"aw",%nobits
 2016              		.align	2
 2019              	p_ctx_single:
 2020 0000 00000000 		.space	4
 2021              		.section	.bss.ctx,"aw",%nobits
 2022              		.align	2
 2025              	ctx:
 2026 0000 00000000 		.space	8588
 2026      00000000 
 2026      00000000 
 2026      00000000 
 2026      00000000 
 2027              		.section	.bss.packet,"aw",%nobits
 2030              	packet:
 2031 0000 00000000 		.space	3072
ARM GAS  /tmp/ccbJxyKS.s 			page 60


 2031      00000000 
 2031      00000000 
 2031      00000000 
 2031      00000000 
 2032              		.global	uvcl_pcd_handle
 2033              		.section	.bss.uvcl_pcd_handle,"aw",%nobits
 2034              		.align	2
 2037              	uvcl_pcd_handle:
 2038 0000 00000000 		.space	1252
 2038      00000000 
 2038      00000000 
 2038      00000000 
 2038      00000000 
 2039              		.text
 2040              	.Letext0:
 2041              		.file 3 "/opt/st/stm32cubeclt_1.21.0/GNU-tools-for-STM32/arm-none-eabi/include/machine/_default_ty
 2042              		.file 4 "/opt/st/stm32cubeclt_1.21.0/GNU-tools-for-STM32/arm-none-eabi/include/sys/_stdint.h"
 2043              		.file 5 "/opt/st/stm32cubeclt_1.21.0/GNU-tools-for-STM32/lib/gcc/arm-none-eabi/14.3.1/include/stdd
 2044              		.file 6 "../STM32Cube_FW_N6/Drivers/CMSIS/Device/ST/STM32N6xx/Include/stm32n657xx.h"
 2045              		.file 7 "../STM32Cube_FW_N6/Drivers/CMSIS/Device/ST/STM32N6xx/Include/stm32n6xx.h"
 2046              		.file 8 "../STM32Cube_FW_N6/Drivers/STM32N6xx_HAL_Driver/Inc/stm32n6xx_hal_def.h"
 2047              		.file 9 "../STM32Cube_FW_N6/Drivers/STM32N6xx_HAL_Driver/Inc/stm32n6xx_hal_rcc.h"
 2048              		.file 10 "../STM32Cube_FW_N6/Drivers/STM32N6xx_HAL_Driver/Inc/stm32n6xx_ll_usb.h"
 2049              		.file 11 "../STM32Cube_FW_N6/Drivers/STM32N6xx_HAL_Driver/Inc/stm32n6xx_hal_pcd.h"
 2050              		.file 12 "../Middlewares/screenl/uvcl/Inc/uvcl.h"
 2051              		.file 13 "/opt/st/stm32cubeclt_1.21.0/GNU-tools-for-STM32/arm-none-eabi/include/stdlib.h"
 2052              		.file 14 "../Middlewares/screenl/uvcl/Src/uvcl_internal.h"
 2053              		.file 15 "../STM32Cube_FW_N6/Drivers/STM32N6xx_HAL_Driver/Inc/stm32n6xx_hal_pcd_ex.h"
 2054              		.file 16 "/opt/st/stm32cubeclt_1.21.0/GNU-tools-for-STM32/arm-none-eabi/include/string.h"
 2055              		.file 17 "../Middlewares/screenl/uvcl/Src/usbx/uvcl_usbx.h"
 2056              		.file 18 "/opt/st/stm32cubeclt_1.21.0/GNU-tools-for-STM32/arm-none-eabi/include/assert.h"
 2057              		.file 19 "<built-in>"
 2058              		.file 20 "../STM32Cube_FW_N6/Drivers/STM32N6xx_HAL_Driver/Inc/stm32n6xx_hal.h"
ARM GAS  /tmp/ccbJxyKS.s 			page 61

