ARM GAS  /tmp/ccfnEgU9.s 			page 1


   1              		.arch armv8.1-m.main
   2              		.fpu fpv5-d16
   3              		.arch_extension dsp
   4              		.arch_extension fp
   5              		.arch_extension fp.dp
   6              		.arch_extension mve
   7              		.arch_extension mve.fp
   8              		.eabi_attribute 5, "cortex-m55"
   9              		.eabi_attribute 28, 1
  10              		.eabi_attribute 20, 1
  11              		.eabi_attribute 21, 1
  12              		.eabi_attribute 23, 3
  13              		.eabi_attribute 24, 1
  14              		.eabi_attribute 25, 1
  15              		.eabi_attribute 26, 1
  16              		.eabi_attribute 30, 4
  17              		.eabi_attribute 34, 1
  18              		.eabi_attribute 38, 1
  19              		.eabi_attribute 18, 4
  20              		.file	"ux_device_stack_get_status.c"
  21              		.text
  22              	.Ltext0:
  23              		.cfi_sections	.debug_frame
  24              		.file 1 "../STM32Cube_FW_N6/Middlewares/ST/usbx/common/core/src/ux_device_stack_get_status.c"
  25              		.section	.text._ux_device_stack_get_status,"ax",%progbits
  26              		.align	1
  27              		.global	_ux_device_stack_get_status
  28              		.syntax unified
  29              		.thumb
  30              		.thumb_func
  32              	_ux_device_stack_get_status:
  33              	.LVL0:
  34              	.LFB3:
   1:../STM32Cube_FW_N6/Middlewares/ST/usbx/common/core/src/ux_device_stack_get_status.c **** /**************************************************************************/
   2:../STM32Cube_FW_N6/Middlewares/ST/usbx/common/core/src/ux_device_stack_get_status.c **** /*                                                                        */
   3:../STM32Cube_FW_N6/Middlewares/ST/usbx/common/core/src/ux_device_stack_get_status.c **** /*       Copyright (c) Microsoft Corporation. All rights reserved.        */
   4:../STM32Cube_FW_N6/Middlewares/ST/usbx/common/core/src/ux_device_stack_get_status.c **** /*                                                                        */
   5:../STM32Cube_FW_N6/Middlewares/ST/usbx/common/core/src/ux_device_stack_get_status.c **** /*       This software is licensed under the Microsoft Software License   */
   6:../STM32Cube_FW_N6/Middlewares/ST/usbx/common/core/src/ux_device_stack_get_status.c **** /*       Terms for Microsoft Azure RTOS. Full text of the license can be  */
   7:../STM32Cube_FW_N6/Middlewares/ST/usbx/common/core/src/ux_device_stack_get_status.c **** /*       found in the LICENSE file at https://aka.ms/AzureRTOS_EULA       */
   8:../STM32Cube_FW_N6/Middlewares/ST/usbx/common/core/src/ux_device_stack_get_status.c **** /*       and in the root directory of this software.                      */
   9:../STM32Cube_FW_N6/Middlewares/ST/usbx/common/core/src/ux_device_stack_get_status.c **** /*                                                                        */
  10:../STM32Cube_FW_N6/Middlewares/ST/usbx/common/core/src/ux_device_stack_get_status.c **** /**************************************************************************/
  11:../STM32Cube_FW_N6/Middlewares/ST/usbx/common/core/src/ux_device_stack_get_status.c **** 
  12:../STM32Cube_FW_N6/Middlewares/ST/usbx/common/core/src/ux_device_stack_get_status.c **** 
  13:../STM32Cube_FW_N6/Middlewares/ST/usbx/common/core/src/ux_device_stack_get_status.c **** /**************************************************************************/
  14:../STM32Cube_FW_N6/Middlewares/ST/usbx/common/core/src/ux_device_stack_get_status.c **** /**************************************************************************/
  15:../STM32Cube_FW_N6/Middlewares/ST/usbx/common/core/src/ux_device_stack_get_status.c **** /**                                                                       */ 
  16:../STM32Cube_FW_N6/Middlewares/ST/usbx/common/core/src/ux_device_stack_get_status.c **** /** USBX Component                                                        */ 
  17:../STM32Cube_FW_N6/Middlewares/ST/usbx/common/core/src/ux_device_stack_get_status.c **** /**                                                                       */
  18:../STM32Cube_FW_N6/Middlewares/ST/usbx/common/core/src/ux_device_stack_get_status.c **** /**   Device Stack                                                        */
  19:../STM32Cube_FW_N6/Middlewares/ST/usbx/common/core/src/ux_device_stack_get_status.c **** /**                                                                       */
  20:../STM32Cube_FW_N6/Middlewares/ST/usbx/common/core/src/ux_device_stack_get_status.c **** /**************************************************************************/
  21:../STM32Cube_FW_N6/Middlewares/ST/usbx/common/core/src/ux_device_stack_get_status.c **** /**************************************************************************/
  22:../STM32Cube_FW_N6/Middlewares/ST/usbx/common/core/src/ux_device_stack_get_status.c **** 
  23:../STM32Cube_FW_N6/Middlewares/ST/usbx/common/core/src/ux_device_stack_get_status.c **** #define UX_SOURCE_CODE
  24:../STM32Cube_FW_N6/Middlewares/ST/usbx/common/core/src/ux_device_stack_get_status.c **** 
ARM GAS  /tmp/ccfnEgU9.s 			page 2


  25:../STM32Cube_FW_N6/Middlewares/ST/usbx/common/core/src/ux_device_stack_get_status.c **** 
  26:../STM32Cube_FW_N6/Middlewares/ST/usbx/common/core/src/ux_device_stack_get_status.c **** /* Include necessary system files.  */
  27:../STM32Cube_FW_N6/Middlewares/ST/usbx/common/core/src/ux_device_stack_get_status.c **** 
  28:../STM32Cube_FW_N6/Middlewares/ST/usbx/common/core/src/ux_device_stack_get_status.c **** #include "ux_api.h"
  29:../STM32Cube_FW_N6/Middlewares/ST/usbx/common/core/src/ux_device_stack_get_status.c **** #include "ux_device_stack.h"
  30:../STM32Cube_FW_N6/Middlewares/ST/usbx/common/core/src/ux_device_stack_get_status.c **** 
  31:../STM32Cube_FW_N6/Middlewares/ST/usbx/common/core/src/ux_device_stack_get_status.c **** 
  32:../STM32Cube_FW_N6/Middlewares/ST/usbx/common/core/src/ux_device_stack_get_status.c **** /**************************************************************************/
  33:../STM32Cube_FW_N6/Middlewares/ST/usbx/common/core/src/ux_device_stack_get_status.c **** /*                                                                        */
  34:../STM32Cube_FW_N6/Middlewares/ST/usbx/common/core/src/ux_device_stack_get_status.c **** /*  FUNCTION                                               RELEASE        */
  35:../STM32Cube_FW_N6/Middlewares/ST/usbx/common/core/src/ux_device_stack_get_status.c **** /*                                                                        */
  36:../STM32Cube_FW_N6/Middlewares/ST/usbx/common/core/src/ux_device_stack_get_status.c **** /*    _ux_device_stack_get_status                         PORTABLE C      */
  37:../STM32Cube_FW_N6/Middlewares/ST/usbx/common/core/src/ux_device_stack_get_status.c **** /*                                                           6.1.6        */
  38:../STM32Cube_FW_N6/Middlewares/ST/usbx/common/core/src/ux_device_stack_get_status.c **** /*  AUTHOR                                                                */
  39:../STM32Cube_FW_N6/Middlewares/ST/usbx/common/core/src/ux_device_stack_get_status.c **** /*                                                                        */
  40:../STM32Cube_FW_N6/Middlewares/ST/usbx/common/core/src/ux_device_stack_get_status.c **** /*    Chaoqiong Xiao, Microsoft Corporation                               */
  41:../STM32Cube_FW_N6/Middlewares/ST/usbx/common/core/src/ux_device_stack_get_status.c **** /*                                                                        */
  42:../STM32Cube_FW_N6/Middlewares/ST/usbx/common/core/src/ux_device_stack_get_status.c **** /*  DESCRIPTION                                                           */
  43:../STM32Cube_FW_N6/Middlewares/ST/usbx/common/core/src/ux_device_stack_get_status.c **** /*                                                                        */
  44:../STM32Cube_FW_N6/Middlewares/ST/usbx/common/core/src/ux_device_stack_get_status.c **** /*    This function obtains the status of a USB component of the device   */
  45:../STM32Cube_FW_N6/Middlewares/ST/usbx/common/core/src/ux_device_stack_get_status.c **** /*    such as device or endpoint.                                         */
  46:../STM32Cube_FW_N6/Middlewares/ST/usbx/common/core/src/ux_device_stack_get_status.c **** /*                                                                        */
  47:../STM32Cube_FW_N6/Middlewares/ST/usbx/common/core/src/ux_device_stack_get_status.c **** /*  INPUT                                                                 */
  48:../STM32Cube_FW_N6/Middlewares/ST/usbx/common/core/src/ux_device_stack_get_status.c **** /*                                                                        */
  49:../STM32Cube_FW_N6/Middlewares/ST/usbx/common/core/src/ux_device_stack_get_status.c **** /*    request_type                          Request type                  */
  50:../STM32Cube_FW_N6/Middlewares/ST/usbx/common/core/src/ux_device_stack_get_status.c **** /*    request_index                         Request index                 */
  51:../STM32Cube_FW_N6/Middlewares/ST/usbx/common/core/src/ux_device_stack_get_status.c **** /*    request_length                        Request length                */
  52:../STM32Cube_FW_N6/Middlewares/ST/usbx/common/core/src/ux_device_stack_get_status.c **** /*                                                                        */
  53:../STM32Cube_FW_N6/Middlewares/ST/usbx/common/core/src/ux_device_stack_get_status.c **** /*  OUTPUT                                                                */
  54:../STM32Cube_FW_N6/Middlewares/ST/usbx/common/core/src/ux_device_stack_get_status.c **** /*                                                                        */
  55:../STM32Cube_FW_N6/Middlewares/ST/usbx/common/core/src/ux_device_stack_get_status.c **** /*    Completion Status                                                   */ 
  56:../STM32Cube_FW_N6/Middlewares/ST/usbx/common/core/src/ux_device_stack_get_status.c **** /*                                                                        */
  57:../STM32Cube_FW_N6/Middlewares/ST/usbx/common/core/src/ux_device_stack_get_status.c **** /*  CALLS                                                                 */ 
  58:../STM32Cube_FW_N6/Middlewares/ST/usbx/common/core/src/ux_device_stack_get_status.c **** /*                                                                        */ 
  59:../STM32Cube_FW_N6/Middlewares/ST/usbx/common/core/src/ux_device_stack_get_status.c **** /*    _ux_device_stack_transfer_request     Transfer request              */
  60:../STM32Cube_FW_N6/Middlewares/ST/usbx/common/core/src/ux_device_stack_get_status.c **** /*    (ux_slave_dcd_function)               DCD dispatch function         */ 
  61:../STM32Cube_FW_N6/Middlewares/ST/usbx/common/core/src/ux_device_stack_get_status.c **** /*                                                                        */ 
  62:../STM32Cube_FW_N6/Middlewares/ST/usbx/common/core/src/ux_device_stack_get_status.c **** /*  CALLED BY                                                             */ 
  63:../STM32Cube_FW_N6/Middlewares/ST/usbx/common/core/src/ux_device_stack_get_status.c **** /*                                                                        */ 
  64:../STM32Cube_FW_N6/Middlewares/ST/usbx/common/core/src/ux_device_stack_get_status.c **** /*    Device Stack                                                        */
  65:../STM32Cube_FW_N6/Middlewares/ST/usbx/common/core/src/ux_device_stack_get_status.c **** /*                                                                        */ 
  66:../STM32Cube_FW_N6/Middlewares/ST/usbx/common/core/src/ux_device_stack_get_status.c **** /*  RELEASE HISTORY                                                       */ 
  67:../STM32Cube_FW_N6/Middlewares/ST/usbx/common/core/src/ux_device_stack_get_status.c **** /*                                                                        */ 
  68:../STM32Cube_FW_N6/Middlewares/ST/usbx/common/core/src/ux_device_stack_get_status.c **** /*    DATE              NAME                      DESCRIPTION             */ 
  69:../STM32Cube_FW_N6/Middlewares/ST/usbx/common/core/src/ux_device_stack_get_status.c **** /*                                                                        */ 
  70:../STM32Cube_FW_N6/Middlewares/ST/usbx/common/core/src/ux_device_stack_get_status.c **** /*  05-19-2020     Chaoqiong Xiao           Initial Version 6.0           */
  71:../STM32Cube_FW_N6/Middlewares/ST/usbx/common/core/src/ux_device_stack_get_status.c **** /*  09-30-2020     Chaoqiong Xiao           Modified comment(s),          */
  72:../STM32Cube_FW_N6/Middlewares/ST/usbx/common/core/src/ux_device_stack_get_status.c **** /*                                            resulting in version 6.1    */
  73:../STM32Cube_FW_N6/Middlewares/ST/usbx/common/core/src/ux_device_stack_get_status.c **** /*  04-02-2021     Chaoqiong Xiao           Modified comment(s),          */
  74:../STM32Cube_FW_N6/Middlewares/ST/usbx/common/core/src/ux_device_stack_get_status.c **** /*                                            supported bi-dir-endpoints, */
  75:../STM32Cube_FW_N6/Middlewares/ST/usbx/common/core/src/ux_device_stack_get_status.c **** /*                                            resulting in version 6.1.6  */
  76:../STM32Cube_FW_N6/Middlewares/ST/usbx/common/core/src/ux_device_stack_get_status.c **** /*                                                                        */
  77:../STM32Cube_FW_N6/Middlewares/ST/usbx/common/core/src/ux_device_stack_get_status.c **** /**************************************************************************/
  78:../STM32Cube_FW_N6/Middlewares/ST/usbx/common/core/src/ux_device_stack_get_status.c **** UINT  _ux_device_stack_get_status(ULONG request_type, ULONG request_index, ULONG request_length)
  79:../STM32Cube_FW_N6/Middlewares/ST/usbx/common/core/src/ux_device_stack_get_status.c **** {
  35              		.loc 1 79 1 view -0
  36              		.cfi_startproc
ARM GAS  /tmp/ccfnEgU9.s 			page 3


  37              		@ args = 0, pretend = 0, frame = 0
  38              		@ frame_needed = 0, uses_anonymous_args = 0
  80:../STM32Cube_FW_N6/Middlewares/ST/usbx/common/core/src/ux_device_stack_get_status.c **** 
  81:../STM32Cube_FW_N6/Middlewares/ST/usbx/common/core/src/ux_device_stack_get_status.c **** UX_SLAVE_DCD            *dcd;
  39              		.loc 1 81 1 view .LVU1
  82:../STM32Cube_FW_N6/Middlewares/ST/usbx/common/core/src/ux_device_stack_get_status.c **** UX_SLAVE_TRANSFER       *transfer_request;
  40              		.loc 1 82 1 view .LVU2
  83:../STM32Cube_FW_N6/Middlewares/ST/usbx/common/core/src/ux_device_stack_get_status.c **** UX_SLAVE_DEVICE         *device;
  41              		.loc 1 83 1 view .LVU3
  84:../STM32Cube_FW_N6/Middlewares/ST/usbx/common/core/src/ux_device_stack_get_status.c **** UX_SLAVE_ENDPOINT       *endpoint;
  42              		.loc 1 84 1 view .LVU4
  85:../STM32Cube_FW_N6/Middlewares/ST/usbx/common/core/src/ux_device_stack_get_status.c **** UINT                    status;
  43              		.loc 1 85 1 view .LVU5
  86:../STM32Cube_FW_N6/Middlewares/ST/usbx/common/core/src/ux_device_stack_get_status.c **** ULONG                   data_length;
  44              		.loc 1 86 1 view .LVU6
  87:../STM32Cube_FW_N6/Middlewares/ST/usbx/common/core/src/ux_device_stack_get_status.c **** 
  88:../STM32Cube_FW_N6/Middlewares/ST/usbx/common/core/src/ux_device_stack_get_status.c ****     UX_PARAMETER_NOT_USED(request_length);
  45              		.loc 1 88 5 view .LVU7
  89:../STM32Cube_FW_N6/Middlewares/ST/usbx/common/core/src/ux_device_stack_get_status.c **** 
  90:../STM32Cube_FW_N6/Middlewares/ST/usbx/common/core/src/ux_device_stack_get_status.c ****     /* If trace is enabled, insert this event into the trace buffer.  */
  91:../STM32Cube_FW_N6/Middlewares/ST/usbx/common/core/src/ux_device_stack_get_status.c ****     UX_TRACE_IN_LINE_INSERT(UX_TRACE_DEVICE_STACK_GET_STATUS, request_type, request_index, request_
  92:../STM32Cube_FW_N6/Middlewares/ST/usbx/common/core/src/ux_device_stack_get_status.c **** 
  93:../STM32Cube_FW_N6/Middlewares/ST/usbx/common/core/src/ux_device_stack_get_status.c ****     /* Get the pointer to the DCD.  */
  94:../STM32Cube_FW_N6/Middlewares/ST/usbx/common/core/src/ux_device_stack_get_status.c ****     dcd =  &_ux_system_slave -> ux_system_slave_dcd;
  46              		.loc 1 94 5 view .LVU8
  95:../STM32Cube_FW_N6/Middlewares/ST/usbx/common/core/src/ux_device_stack_get_status.c **** 
  96:../STM32Cube_FW_N6/Middlewares/ST/usbx/common/core/src/ux_device_stack_get_status.c ****     /* Get the pointer to the device.  */
  97:../STM32Cube_FW_N6/Middlewares/ST/usbx/common/core/src/ux_device_stack_get_status.c ****     device =  &_ux_system_slave -> ux_system_slave_device;
  98:../STM32Cube_FW_N6/Middlewares/ST/usbx/common/core/src/ux_device_stack_get_status.c **** 
  99:../STM32Cube_FW_N6/Middlewares/ST/usbx/common/core/src/ux_device_stack_get_status.c ****     /* Get the control endpoint for the device.  */
 100:../STM32Cube_FW_N6/Middlewares/ST/usbx/common/core/src/ux_device_stack_get_status.c ****     endpoint =  &device -> ux_slave_device_control_endpoint;
 101:../STM32Cube_FW_N6/Middlewares/ST/usbx/common/core/src/ux_device_stack_get_status.c **** 
 102:../STM32Cube_FW_N6/Middlewares/ST/usbx/common/core/src/ux_device_stack_get_status.c ****     /* Get the pointer to the transfer request associated with the endpoint.  */
 103:../STM32Cube_FW_N6/Middlewares/ST/usbx/common/core/src/ux_device_stack_get_status.c ****     transfer_request =  &endpoint -> ux_slave_endpoint_transfer_request;
 104:../STM32Cube_FW_N6/Middlewares/ST/usbx/common/core/src/ux_device_stack_get_status.c **** 
 105:../STM32Cube_FW_N6/Middlewares/ST/usbx/common/core/src/ux_device_stack_get_status.c ****     /* Reset the status buffer.  */
 106:../STM32Cube_FW_N6/Middlewares/ST/usbx/common/core/src/ux_device_stack_get_status.c ****     *transfer_request -> ux_slave_transfer_request_data_pointer =  0;
  47              		.loc 1 106 65 is_stmt 0 view .LVU9
  48 0000 0022     		movs	r2, #0
  49              	.LVL1:
  79:../STM32Cube_FW_N6/Middlewares/ST/usbx/common/core/src/ux_device_stack_get_status.c **** 
  50              		.loc 1 79 1 view .LVU10
  51 0002 38B5     		push	{r3, r4, r5, lr}
  52              		.cfi_def_cfa_offset 16
  53              		.cfi_offset 3, -16
  54              		.cfi_offset 4, -12
  55              		.cfi_offset 5, -8
  56              		.cfi_offset 14, -4
  94:../STM32Cube_FW_N6/Middlewares/ST/usbx/common/core/src/ux_device_stack_get_status.c **** 
  57              		.loc 1 94 30 view .LVU11
  58 0004 214B     		ldr	r3, .L15
 107:../STM32Cube_FW_N6/Middlewares/ST/usbx/common/core/src/ux_device_stack_get_status.c ****     *(transfer_request -> ux_slave_transfer_request_data_pointer + 1) =  0;
 108:../STM32Cube_FW_N6/Middlewares/ST/usbx/common/core/src/ux_device_stack_get_status.c ****     
 109:../STM32Cube_FW_N6/Middlewares/ST/usbx/common/core/src/ux_device_stack_get_status.c ****     /* The default length for GET_STATUS is 2, except for OTG get Status.  */
 110:../STM32Cube_FW_N6/Middlewares/ST/usbx/common/core/src/ux_device_stack_get_status.c ****     data_length = 2;
 111:../STM32Cube_FW_N6/Middlewares/ST/usbx/common/core/src/ux_device_stack_get_status.c ****     
 112:../STM32Cube_FW_N6/Middlewares/ST/usbx/common/core/src/ux_device_stack_get_status.c ****     /* The status can be for either the device or the endpoint.  */
ARM GAS  /tmp/ccfnEgU9.s 			page 4


 113:../STM32Cube_FW_N6/Middlewares/ST/usbx/common/core/src/ux_device_stack_get_status.c ****     switch (request_type & UX_REQUEST_TARGET)
  59              		.loc 1 113 5 view .LVU12
  60 0006 10F00300 		ands	r0, r0, #3
  61              	.LVL2:
  94:../STM32Cube_FW_N6/Middlewares/ST/usbx/common/core/src/ux_device_stack_get_status.c **** 
  62              		.loc 1 94 30 view .LVU13
  63 000a 1C68     		ldr	r4, [r3]
  64              	.LVL3:
  97:../STM32Cube_FW_N6/Middlewares/ST/usbx/common/core/src/ux_device_stack_get_status.c **** 
  65              		.loc 1 97 5 is_stmt 1 view .LVU14
 100:../STM32Cube_FW_N6/Middlewares/ST/usbx/common/core/src/ux_device_stack_get_status.c **** 
  66              		.loc 1 100 5 view .LVU15
 103:../STM32Cube_FW_N6/Middlewares/ST/usbx/common/core/src/ux_device_stack_get_status.c **** 
  67              		.loc 1 103 5 view .LVU16
 106:../STM32Cube_FW_N6/Middlewares/ST/usbx/common/core/src/ux_device_stack_get_status.c ****     *(transfer_request -> ux_slave_transfer_request_data_pointer + 1) =  0;
  68              		.loc 1 106 5 view .LVU17
 106:../STM32Cube_FW_N6/Middlewares/ST/usbx/common/core/src/ux_device_stack_get_status.c ****     *(transfer_request -> ux_slave_transfer_request_data_pointer + 1) =  0;
  69              		.loc 1 106 23 is_stmt 0 view .LVU18
  70 000c A56E     		ldr	r5, [r4, #104]
 106:../STM32Cube_FW_N6/Middlewares/ST/usbx/common/core/src/ux_device_stack_get_status.c ****     *(transfer_request -> ux_slave_transfer_request_data_pointer + 1) =  0;
  71              		.loc 1 106 65 view .LVU19
  72 000e 2A70     		strb	r2, [r5]
 107:../STM32Cube_FW_N6/Middlewares/ST/usbx/common/core/src/ux_device_stack_get_status.c ****     
  73              		.loc 1 107 5 is_stmt 1 view .LVU20
 107:../STM32Cube_FW_N6/Middlewares/ST/usbx/common/core/src/ux_device_stack_get_status.c ****     
  74              		.loc 1 107 24 is_stmt 0 view .LVU21
  75 0010 A56E     		ldr	r5, [r4, #104]
 107:../STM32Cube_FW_N6/Middlewares/ST/usbx/common/core/src/ux_device_stack_get_status.c ****     
  76              		.loc 1 107 71 view .LVU22
  77 0012 6A70     		strb	r2, [r5, #1]
 110:../STM32Cube_FW_N6/Middlewares/ST/usbx/common/core/src/ux_device_stack_get_status.c ****     
  78              		.loc 1 110 5 is_stmt 1 view .LVU23
  79              	.LVL4:
  80              		.loc 1 113 5 view .LVU24
  81 0014 0AD0     		beq	.L2
  82 0016 0228     		cmp	r0, #2
  83 0018 A369     		ldr	r3, [r4, #24]
 100:../STM32Cube_FW_N6/Middlewares/ST/usbx/common/core/src/ux_device_stack_get_status.c **** 
  84              		.loc 1 100 14 is_stmt 0 view .LVU25
  85 001a 04F13C05 		add	r5, r4, #60
  86              	.LVL5:
  87              		.loc 1 113 5 view .LVU26
  88 001e 24D0     		beq	.L3
  89              	.LVL6:
  90              	.L14:
 114:../STM32Cube_FW_N6/Middlewares/ST/usbx/common/core/src/ux_device_stack_get_status.c ****     {
 115:../STM32Cube_FW_N6/Middlewares/ST/usbx/common/core/src/ux_device_stack_get_status.c ****     
 116:../STM32Cube_FW_N6/Middlewares/ST/usbx/common/core/src/ux_device_stack_get_status.c ****     case UX_REQUEST_TARGET_DEVICE:
 117:../STM32Cube_FW_N6/Middlewares/ST/usbx/common/core/src/ux_device_stack_get_status.c **** 
 118:../STM32Cube_FW_N6/Middlewares/ST/usbx/common/core/src/ux_device_stack_get_status.c ****         /* When the device is probed, it is either for the power/remote capabilities or OTG role sw
 119:../STM32Cube_FW_N6/Middlewares/ST/usbx/common/core/src/ux_device_stack_get_status.c ****            We differentiate with the Windex, 0 or OTG status Selector.  */
 120:../STM32Cube_FW_N6/Middlewares/ST/usbx/common/core/src/ux_device_stack_get_status.c ****         if (request_index == UX_OTG_STATUS_SELECTOR)
 121:../STM32Cube_FW_N6/Middlewares/ST/usbx/common/core/src/ux_device_stack_get_status.c ****         {
 122:../STM32Cube_FW_N6/Middlewares/ST/usbx/common/core/src/ux_device_stack_get_status.c **** 
 123:../STM32Cube_FW_N6/Middlewares/ST/usbx/common/core/src/ux_device_stack_get_status.c ****             /* Set the data length to 1.  */
 124:../STM32Cube_FW_N6/Middlewares/ST/usbx/common/core/src/ux_device_stack_get_status.c ****             data_length = 1;
 125:../STM32Cube_FW_N6/Middlewares/ST/usbx/common/core/src/ux_device_stack_get_status.c ****             
ARM GAS  /tmp/ccfnEgU9.s 			page 5


 126:../STM32Cube_FW_N6/Middlewares/ST/usbx/common/core/src/ux_device_stack_get_status.c **** #ifdef UX_OTG_SUPPORT
 127:../STM32Cube_FW_N6/Middlewares/ST/usbx/common/core/src/ux_device_stack_get_status.c ****             /* Store the Role Swap flag.  */
 128:../STM32Cube_FW_N6/Middlewares/ST/usbx/common/core/src/ux_device_stack_get_status.c ****             *transfer_request -> ux_slave_transfer_request_data_pointer =  (UCHAR) _ux_system_otg -
 129:../STM32Cube_FW_N6/Middlewares/ST/usbx/common/core/src/ux_device_stack_get_status.c **** #endif
 130:../STM32Cube_FW_N6/Middlewares/ST/usbx/common/core/src/ux_device_stack_get_status.c ****             
 131:../STM32Cube_FW_N6/Middlewares/ST/usbx/common/core/src/ux_device_stack_get_status.c ****         }
 132:../STM32Cube_FW_N6/Middlewares/ST/usbx/common/core/src/ux_device_stack_get_status.c ****         else
 133:../STM32Cube_FW_N6/Middlewares/ST/usbx/common/core/src/ux_device_stack_get_status.c ****         {
 134:../STM32Cube_FW_N6/Middlewares/ST/usbx/common/core/src/ux_device_stack_get_status.c **** 
 135:../STM32Cube_FW_N6/Middlewares/ST/usbx/common/core/src/ux_device_stack_get_status.c ****             /* Store the current power state in the status buffer. */
 136:../STM32Cube_FW_N6/Middlewares/ST/usbx/common/core/src/ux_device_stack_get_status.c ****             if (_ux_system_slave -> ux_system_slave_power_state == UX_DEVICE_SELF_POWERED)
 137:../STM32Cube_FW_N6/Middlewares/ST/usbx/common/core/src/ux_device_stack_get_status.c ****                 *transfer_request -> ux_slave_transfer_request_data_pointer =  1;
 138:../STM32Cube_FW_N6/Middlewares/ST/usbx/common/core/src/ux_device_stack_get_status.c **** 
 139:../STM32Cube_FW_N6/Middlewares/ST/usbx/common/core/src/ux_device_stack_get_status.c ****             /* Store the remote wakeup capability state in the status buffer.  */
 140:../STM32Cube_FW_N6/Middlewares/ST/usbx/common/core/src/ux_device_stack_get_status.c **** 
 141:../STM32Cube_FW_N6/Middlewares/ST/usbx/common/core/src/ux_device_stack_get_status.c ****             if (_ux_system_slave -> ux_system_slave_remote_wakeup_enabled)
 142:../STM32Cube_FW_N6/Middlewares/ST/usbx/common/core/src/ux_device_stack_get_status.c ****                 *transfer_request -> ux_slave_transfer_request_data_pointer |=  2;
 143:../STM32Cube_FW_N6/Middlewares/ST/usbx/common/core/src/ux_device_stack_get_status.c ****         }
 144:../STM32Cube_FW_N6/Middlewares/ST/usbx/common/core/src/ux_device_stack_get_status.c ****         
 145:../STM32Cube_FW_N6/Middlewares/ST/usbx/common/core/src/ux_device_stack_get_status.c ****         break;
 146:../STM32Cube_FW_N6/Middlewares/ST/usbx/common/core/src/ux_device_stack_get_status.c ****             
 147:../STM32Cube_FW_N6/Middlewares/ST/usbx/common/core/src/ux_device_stack_get_status.c ****     case UX_REQUEST_TARGET_ENDPOINT:
 148:../STM32Cube_FW_N6/Middlewares/ST/usbx/common/core/src/ux_device_stack_get_status.c **** 
 149:../STM32Cube_FW_N6/Middlewares/ST/usbx/common/core/src/ux_device_stack_get_status.c **** #ifndef UX_DEVICE_BIDIRECTIONAL_ENDPOINT_SUPPORT
 150:../STM32Cube_FW_N6/Middlewares/ST/usbx/common/core/src/ux_device_stack_get_status.c **** 
 151:../STM32Cube_FW_N6/Middlewares/ST/usbx/common/core/src/ux_device_stack_get_status.c ****         /* This feature returns the halt state of a specific endpoint.  The endpoint index
 152:../STM32Cube_FW_N6/Middlewares/ST/usbx/common/core/src/ux_device_stack_get_status.c ****            is used to retrieve the endpoint container.  */
 153:../STM32Cube_FW_N6/Middlewares/ST/usbx/common/core/src/ux_device_stack_get_status.c ****         status =  dcd -> ux_slave_dcd_function(dcd, UX_DCD_ENDPOINT_STATUS, (VOID *)(ALIGN_TYPE)(re
 154:../STM32Cube_FW_N6/Middlewares/ST/usbx/common/core/src/ux_device_stack_get_status.c **** #else
 155:../STM32Cube_FW_N6/Middlewares/ST/usbx/common/core/src/ux_device_stack_get_status.c **** 
 156:../STM32Cube_FW_N6/Middlewares/ST/usbx/common/core/src/ux_device_stack_get_status.c ****         /* This feature returns the halt state of a specific endpoint.  The endpoint address
 157:../STM32Cube_FW_N6/Middlewares/ST/usbx/common/core/src/ux_device_stack_get_status.c ****            is used to retrieve the endpoint container.  */
 158:../STM32Cube_FW_N6/Middlewares/ST/usbx/common/core/src/ux_device_stack_get_status.c ****         status =  dcd -> ux_slave_dcd_function(dcd, UX_DCD_ENDPOINT_STATUS, (VOID *)(ALIGN_TYPE)(re
 159:../STM32Cube_FW_N6/Middlewares/ST/usbx/common/core/src/ux_device_stack_get_status.c **** #endif
 160:../STM32Cube_FW_N6/Middlewares/ST/usbx/common/core/src/ux_device_stack_get_status.c **** 
 161:../STM32Cube_FW_N6/Middlewares/ST/usbx/common/core/src/ux_device_stack_get_status.c ****         /* Check the status. We may have a unknown endpoint.  */
 162:../STM32Cube_FW_N6/Middlewares/ST/usbx/common/core/src/ux_device_stack_get_status.c ****         if (status != UX_ERROR)
 163:../STM32Cube_FW_N6/Middlewares/ST/usbx/common/core/src/ux_device_stack_get_status.c ****         {
 164:../STM32Cube_FW_N6/Middlewares/ST/usbx/common/core/src/ux_device_stack_get_status.c **** 
 165:../STM32Cube_FW_N6/Middlewares/ST/usbx/common/core/src/ux_device_stack_get_status.c ****             if (status == UX_TRUE)
 166:../STM32Cube_FW_N6/Middlewares/ST/usbx/common/core/src/ux_device_stack_get_status.c ****                 *transfer_request -> ux_slave_transfer_request_data_pointer =  1;
 167:../STM32Cube_FW_N6/Middlewares/ST/usbx/common/core/src/ux_device_stack_get_status.c ****         }                        
 168:../STM32Cube_FW_N6/Middlewares/ST/usbx/common/core/src/ux_device_stack_get_status.c ****         else
 169:../STM32Cube_FW_N6/Middlewares/ST/usbx/common/core/src/ux_device_stack_get_status.c ****         {
 170:../STM32Cube_FW_N6/Middlewares/ST/usbx/common/core/src/ux_device_stack_get_status.c ****     
 171:../STM32Cube_FW_N6/Middlewares/ST/usbx/common/core/src/ux_device_stack_get_status.c ****             /* We stall the command. Endpoint is wrong.  */
 172:../STM32Cube_FW_N6/Middlewares/ST/usbx/common/core/src/ux_device_stack_get_status.c ****             dcd -> ux_slave_dcd_function(dcd, UX_DCD_STALL_ENDPOINT, endpoint);
 173:../STM32Cube_FW_N6/Middlewares/ST/usbx/common/core/src/ux_device_stack_get_status.c ****     
 174:../STM32Cube_FW_N6/Middlewares/ST/usbx/common/core/src/ux_device_stack_get_status.c ****             /* No more work to do here.  The command failed but the upper layer does not depend on 
 175:../STM32Cube_FW_N6/Middlewares/ST/usbx/common/core/src/ux_device_stack_get_status.c ****             return(UX_SUCCESS);            
 176:../STM32Cube_FW_N6/Middlewares/ST/usbx/common/core/src/ux_device_stack_get_status.c ****         }
 177:../STM32Cube_FW_N6/Middlewares/ST/usbx/common/core/src/ux_device_stack_get_status.c ****         break;
 178:../STM32Cube_FW_N6/Middlewares/ST/usbx/common/core/src/ux_device_stack_get_status.c **** 
 179:../STM32Cube_FW_N6/Middlewares/ST/usbx/common/core/src/ux_device_stack_get_status.c ****     default:
 180:../STM32Cube_FW_N6/Middlewares/ST/usbx/common/core/src/ux_device_stack_get_status.c ****         
 181:../STM32Cube_FW_N6/Middlewares/ST/usbx/common/core/src/ux_device_stack_get_status.c ****         /* We stall the command.  */
 182:../STM32Cube_FW_N6/Middlewares/ST/usbx/common/core/src/ux_device_stack_get_status.c ****         dcd -> ux_slave_dcd_function(dcd, UX_DCD_STALL_ENDPOINT, endpoint);
ARM GAS  /tmp/ccfnEgU9.s 			page 6


  91              		.loc 1 182 9 is_stmt 1 view .LVU27
  92 0020 2A46     		mov	r2, r5
  93 0022 1421     		movs	r1, #20
  94 0024 2046     		mov	r0, r4
  95 0026 9847     		blx	r3
  96              	.LVL7:
 183:../STM32Cube_FW_N6/Middlewares/ST/usbx/common/core/src/ux_device_stack_get_status.c ****     
 184:../STM32Cube_FW_N6/Middlewares/ST/usbx/common/core/src/ux_device_stack_get_status.c ****         /* No more work to do here.  The command failed but the upper layer does not depend on it. 
 185:../STM32Cube_FW_N6/Middlewares/ST/usbx/common/core/src/ux_device_stack_get_status.c ****         return(UX_SUCCESS);            
  97              		.loc 1 185 9 view .LVU28
 186:../STM32Cube_FW_N6/Middlewares/ST/usbx/common/core/src/ux_device_stack_get_status.c ****     }
 187:../STM32Cube_FW_N6/Middlewares/ST/usbx/common/core/src/ux_device_stack_get_status.c ****     
 188:../STM32Cube_FW_N6/Middlewares/ST/usbx/common/core/src/ux_device_stack_get_status.c ****     /* Set the phase of the transfer to data out.  */
 189:../STM32Cube_FW_N6/Middlewares/ST/usbx/common/core/src/ux_device_stack_get_status.c ****     transfer_request -> ux_slave_transfer_request_phase =  UX_TRANSFER_PHASE_DATA_OUT;
 190:../STM32Cube_FW_N6/Middlewares/ST/usbx/common/core/src/ux_device_stack_get_status.c **** 
 191:../STM32Cube_FW_N6/Middlewares/ST/usbx/common/core/src/ux_device_stack_get_status.c ****     /* Send the descriptor with the appropriate length to the host.  */
 192:../STM32Cube_FW_N6/Middlewares/ST/usbx/common/core/src/ux_device_stack_get_status.c ****     status =  _ux_device_stack_transfer_request(transfer_request, data_length, data_length);
 193:../STM32Cube_FW_N6/Middlewares/ST/usbx/common/core/src/ux_device_stack_get_status.c **** 
 194:../STM32Cube_FW_N6/Middlewares/ST/usbx/common/core/src/ux_device_stack_get_status.c ****     /* Return the function status.  */
 195:../STM32Cube_FW_N6/Middlewares/ST/usbx/common/core/src/ux_device_stack_get_status.c ****     return(status);
 196:../STM32Cube_FW_N6/Middlewares/ST/usbx/common/core/src/ux_device_stack_get_status.c **** }
  98              		.loc 1 196 1 is_stmt 0 view .LVU29
  99 0028 0020     		movs	r0, #0
 100 002a 38BD     		pop	{r3, r4, r5, pc}
 101              	.LVL8:
 102              	.L2:
 120:../STM32Cube_FW_N6/Middlewares/ST/usbx/common/core/src/ux_device_stack_get_status.c ****         {
 103              		.loc 1 120 9 is_stmt 1 view .LVU30
 120:../STM32Cube_FW_N6/Middlewares/ST/usbx/common/core/src/ux_device_stack_get_status.c ****         {
 104              		.loc 1 120 12 is_stmt 0 view .LVU31
 105 002c B1F5704F 		cmp	r1, #61440
 106 0030 29D0     		beq	.L13
 136:../STM32Cube_FW_N6/Middlewares/ST/usbx/common/core/src/ux_device_stack_get_status.c ****                 *transfer_request -> ux_slave_transfer_request_data_pointer =  1;
 107              		.loc 1 136 13 is_stmt 1 view .LVU32
 136:../STM32Cube_FW_N6/Middlewares/ST/usbx/common/core/src/ux_device_stack_get_status.c ****                 *transfer_request -> ux_slave_transfer_request_data_pointer =  1;
 108              		.loc 1 136 34 is_stmt 0 view .LVU33
 109 0032 1A68     		ldr	r2, [r3]
 136:../STM32Cube_FW_N6/Middlewares/ST/usbx/common/core/src/ux_device_stack_get_status.c ****                 *transfer_request -> ux_slave_transfer_request_data_pointer =  1;
 110              		.loc 1 136 16 view .LVU34
 111 0034 D2F84421 		ldr	r2, [r2, #324]
 112 0038 022A     		cmp	r2, #2
 137:../STM32Cube_FW_N6/Middlewares/ST/usbx/common/core/src/ux_device_stack_get_status.c **** 
 113              		.loc 1 137 17 is_stmt 1 view .LVU35
 137:../STM32Cube_FW_N6/Middlewares/ST/usbx/common/core/src/ux_device_stack_get_status.c **** 
 114              		.loc 1 137 77 is_stmt 0 view .LVU36
 115 003a 02BF     		ittt	eq
 116 003c 0121     		moveq	r1, #1
 117              	.LVL9:
 137:../STM32Cube_FW_N6/Middlewares/ST/usbx/common/core/src/ux_device_stack_get_status.c **** 
 118              		.loc 1 137 35 view .LVU37
 119 003e A26E     		ldreq	r2, [r4, #104]
 137:../STM32Cube_FW_N6/Middlewares/ST/usbx/common/core/src/ux_device_stack_get_status.c **** 
 120              		.loc 1 137 77 view .LVU38
 121 0040 1170     		strbeq	r1, [r2]
 141:../STM32Cube_FW_N6/Middlewares/ST/usbx/common/core/src/ux_device_stack_get_status.c ****                 *transfer_request -> ux_slave_transfer_request_data_pointer |=  2;
 122              		.loc 1 141 13 is_stmt 1 view .LVU39
 141:../STM32Cube_FW_N6/Middlewares/ST/usbx/common/core/src/ux_device_stack_get_status.c ****                 *transfer_request -> ux_slave_transfer_request_data_pointer |=  2;
ARM GAS  /tmp/ccfnEgU9.s 			page 7


 123              		.loc 1 141 34 is_stmt 0 view .LVU40
 124 0042 1B68     		ldr	r3, [r3]
 141:../STM32Cube_FW_N6/Middlewares/ST/usbx/common/core/src/ux_device_stack_get_status.c ****                 *transfer_request -> ux_slave_transfer_request_data_pointer |=  2;
 125              		.loc 1 141 16 view .LVU41
 126 0044 D3F84C31 		ldr	r3, [r3, #332]
 127 0048 23B1     		cbz	r3, .L8
 142:../STM32Cube_FW_N6/Middlewares/ST/usbx/common/core/src/ux_device_stack_get_status.c ****         }
 128              		.loc 1 142 17 is_stmt 1 view .LVU42
 142:../STM32Cube_FW_N6/Middlewares/ST/usbx/common/core/src/ux_device_stack_get_status.c ****         }
 129              		.loc 1 142 35 is_stmt 0 view .LVU43
 130 004a A26E     		ldr	r2, [r4, #104]
 142:../STM32Cube_FW_N6/Middlewares/ST/usbx/common/core/src/ux_device_stack_get_status.c ****         }
 131              		.loc 1 142 77 view .LVU44
 132 004c 1378     		ldrb	r3, [r2]	@ zero_extendqisi2
 133 004e 43F00203 		orr	r3, r3, #2
 134 0052 1370     		strb	r3, [r2]
 135              	.L8:
 110:../STM32Cube_FW_N6/Middlewares/ST/usbx/common/core/src/ux_device_stack_get_status.c ****     
 136              		.loc 1 110 17 view .LVU45
 137 0054 0222     		movs	r2, #2
 138              	.L5:
 139              	.LVL10:
 189:../STM32Cube_FW_N6/Middlewares/ST/usbx/common/core/src/ux_device_stack_get_status.c **** 
 140              		.loc 1 189 5 is_stmt 1 view .LVU46
 189:../STM32Cube_FW_N6/Middlewares/ST/usbx/common/core/src/ux_device_stack_get_status.c **** 
 141              		.loc 1 189 57 is_stmt 0 view .LVU47
 142 0056 0323     		movs	r3, #3
 192:../STM32Cube_FW_N6/Middlewares/ST/usbx/common/core/src/ux_device_stack_get_status.c **** 
 143              		.loc 1 192 15 view .LVU48
 144 0058 04F15C00 		add	r0, r4, #92
 189:../STM32Cube_FW_N6/Middlewares/ST/usbx/common/core/src/ux_device_stack_get_status.c **** 
 145              		.loc 1 189 57 view .LVU49
 146 005c C4F88430 		str	r3, [r4, #132]
 192:../STM32Cube_FW_N6/Middlewares/ST/usbx/common/core/src/ux_device_stack_get_status.c **** 
 147              		.loc 1 192 5 is_stmt 1 view .LVU50
 192:../STM32Cube_FW_N6/Middlewares/ST/usbx/common/core/src/ux_device_stack_get_status.c **** 
 148              		.loc 1 192 15 is_stmt 0 view .LVU51
 149 0060 1146     		mov	r1, r2
 150              		.loc 1 196 1 view .LVU52
 151 0062 BDE83840 		pop	{r3, r4, r5, lr}
 152              		.cfi_remember_state
 153              		.cfi_restore 14
 154              		.cfi_restore 5
 155              		.cfi_restore 4
 156              		.cfi_restore 3
 157              		.cfi_def_cfa_offset 0
 158              	.LVL11:
 192:../STM32Cube_FW_N6/Middlewares/ST/usbx/common/core/src/ux_device_stack_get_status.c **** 
 159              		.loc 1 192 15 view .LVU53
 160 0066 FFF7FEBF 		b	_ux_device_stack_transfer_request
 161              	.LVL12:
 162              	.L3:
 163              		.cfi_restore_state
 153:../STM32Cube_FW_N6/Middlewares/ST/usbx/common/core/src/ux_device_stack_get_status.c **** #else
 164              		.loc 1 153 9 is_stmt 1 view .LVU54
 153:../STM32Cube_FW_N6/Middlewares/ST/usbx/common/core/src/ux_device_stack_get_status.c **** #else
 165              		.loc 1 153 19 is_stmt 0 view .LVU55
ARM GAS  /tmp/ccfnEgU9.s 			page 8


 166 006a 21F08002 		bic	r2, r1, #128
 167 006e 2046     		mov	r0, r4
 168 0070 1521     		movs	r1, #21
 169              	.LVL13:
 153:../STM32Cube_FW_N6/Middlewares/ST/usbx/common/core/src/ux_device_stack_get_status.c **** #else
 170              		.loc 1 153 19 view .LVU56
 171 0072 9847     		blx	r3
 172              	.LVL14:
 162:../STM32Cube_FW_N6/Middlewares/ST/usbx/common/core/src/ux_device_stack_get_status.c ****         {
 173              		.loc 1 162 9 is_stmt 1 view .LVU57
 162:../STM32Cube_FW_N6/Middlewares/ST/usbx/common/core/src/ux_device_stack_get_status.c ****         {
 174              		.loc 1 162 12 is_stmt 0 view .LVU58
 175 0074 FF28     		cmp	r0, #255
 176 0076 04D0     		beq	.L9
 165:../STM32Cube_FW_N6/Middlewares/ST/usbx/common/core/src/ux_device_stack_get_status.c ****                 *transfer_request -> ux_slave_transfer_request_data_pointer =  1;
 177              		.loc 1 165 13 is_stmt 1 view .LVU59
 165:../STM32Cube_FW_N6/Middlewares/ST/usbx/common/core/src/ux_device_stack_get_status.c ****                 *transfer_request -> ux_slave_transfer_request_data_pointer =  1;
 178              		.loc 1 165 16 is_stmt 0 view .LVU60
 179 0078 0128     		cmp	r0, #1
 180 007a EBD1     		bne	.L8
 166:../STM32Cube_FW_N6/Middlewares/ST/usbx/common/core/src/ux_device_stack_get_status.c ****         }                        
 181              		.loc 1 166 17 is_stmt 1 view .LVU61
 166:../STM32Cube_FW_N6/Middlewares/ST/usbx/common/core/src/ux_device_stack_get_status.c ****         }                        
 182              		.loc 1 166 35 is_stmt 0 view .LVU62
 183 007c A36E     		ldr	r3, [r4, #104]
 166:../STM32Cube_FW_N6/Middlewares/ST/usbx/common/core/src/ux_device_stack_get_status.c ****         }                        
 184              		.loc 1 166 77 view .LVU63
 185 007e 1870     		strb	r0, [r3]
 186 0080 E8E7     		b	.L8
 187              	.L9:
 172:../STM32Cube_FW_N6/Middlewares/ST/usbx/common/core/src/ux_device_stack_get_status.c ****     
 188              		.loc 1 172 13 is_stmt 1 view .LVU64
 189 0082 A369     		ldr	r3, [r4, #24]
 190 0084 CCE7     		b	.L14
 191              	.LVL15:
 192              	.L13:
 124:../STM32Cube_FW_N6/Middlewares/ST/usbx/common/core/src/ux_device_stack_get_status.c ****             
 193              		.loc 1 124 25 is_stmt 0 view .LVU65
 194 0086 0122     		movs	r2, #1
 195 0088 E5E7     		b	.L5
 196              	.L16:
 197 008a 00BF     		.align	2
 198              	.L15:
 199 008c 00000000 		.word	_ux_system_slave
 200              		.cfi_endproc
 201              	.LFE3:
 203              		.text
 204              	.Letext0:
 205              		.file 2 "../STM32Cube_FW_N6/Middlewares/ST/usbx/ports/generic/inc/ux_port.h"
 206              		.file 3 "../STM32Cube_FW_N6/Middlewares/ST/usbx/common/core/inc/ux_api.h"
 207              		.file 4 "../STM32Cube_FW_N6/Middlewares/ST/usbx/common/core/inc/ux_system.h"
 208              		.file 5 "../STM32Cube_FW_N6/Middlewares/ST/usbx/common/core/inc/ux_device_stack.h"
ARM GAS  /tmp/ccfnEgU9.s 			page 9

