ARM GAS  /tmp/cclBITku.s 			page 1


   1              		.arch armv8.1-m.main
   2              		.fpu fpv5-d16
   3              		.arch_extension dsp
   4              		.arch_extension fp
   5              		.arch_extension fp.dp
   6              		.arch_extension mve
   7              		.arch_extension mve.fp
   8              		.eabi_attribute 5, "cortex-m55"
   9              		.eabi_attribute 28, 1
  10              		.eabi_attribute 20, 1
  11              		.eabi_attribute 21, 1
  12              		.eabi_attribute 23, 3
  13              		.eabi_attribute 24, 1
  14              		.eabi_attribute 25, 1
  15              		.eabi_attribute 26, 1
  16              		.eabi_attribute 30, 4
  17              		.eabi_attribute 34, 1
  18              		.eabi_attribute 38, 1
  19              		.eabi_attribute 18, 4
  20              		.file	"ux_device_class_dpump_read_run.c"
  21              		.text
  22              	.Ltext0:
  23              		.cfi_sections	.debug_frame
  24              		.file 1 "../STM32Cube_FW_N6/Middlewares/ST/usbx/common/core/src/ux_device_class_dpump_read_run.c"
  25              		.section	.text._ux_device_class_dpump_read_run,"ax",%progbits
  26              		.align	1
  27              		.global	_ux_device_class_dpump_read_run
  28              		.syntax unified
  29              		.thumb
  30              		.thumb_func
  32              	_ux_device_class_dpump_read_run:
  33              	.LVL0:
  34              	.LFB3:
   1:../STM32Cube_FW_N6/Middlewares/ST/usbx/common/core/src/ux_device_class_dpump_read_run.c **** /**************************************************************************/
   2:../STM32Cube_FW_N6/Middlewares/ST/usbx/common/core/src/ux_device_class_dpump_read_run.c **** /*                                                                        */
   3:../STM32Cube_FW_N6/Middlewares/ST/usbx/common/core/src/ux_device_class_dpump_read_run.c **** /*       Copyright (c) Microsoft Corporation. All rights reserved.        */
   4:../STM32Cube_FW_N6/Middlewares/ST/usbx/common/core/src/ux_device_class_dpump_read_run.c **** /*                                                                        */
   5:../STM32Cube_FW_N6/Middlewares/ST/usbx/common/core/src/ux_device_class_dpump_read_run.c **** /*       This software is licensed under the Microsoft Software License   */
   6:../STM32Cube_FW_N6/Middlewares/ST/usbx/common/core/src/ux_device_class_dpump_read_run.c **** /*       Terms for Microsoft Azure RTOS. Full text of the license can be  */
   7:../STM32Cube_FW_N6/Middlewares/ST/usbx/common/core/src/ux_device_class_dpump_read_run.c **** /*       found in the LICENSE file at https://aka.ms/AzureRTOS_EULA       */
   8:../STM32Cube_FW_N6/Middlewares/ST/usbx/common/core/src/ux_device_class_dpump_read_run.c **** /*       and in the root directory of this software.                      */
   9:../STM32Cube_FW_N6/Middlewares/ST/usbx/common/core/src/ux_device_class_dpump_read_run.c **** /*                                                                        */
  10:../STM32Cube_FW_N6/Middlewares/ST/usbx/common/core/src/ux_device_class_dpump_read_run.c **** /**************************************************************************/
  11:../STM32Cube_FW_N6/Middlewares/ST/usbx/common/core/src/ux_device_class_dpump_read_run.c **** 
  12:../STM32Cube_FW_N6/Middlewares/ST/usbx/common/core/src/ux_device_class_dpump_read_run.c **** /**************************************************************************/
  13:../STM32Cube_FW_N6/Middlewares/ST/usbx/common/core/src/ux_device_class_dpump_read_run.c **** /**************************************************************************/
  14:../STM32Cube_FW_N6/Middlewares/ST/usbx/common/core/src/ux_device_class_dpump_read_run.c **** /**                                                                       */
  15:../STM32Cube_FW_N6/Middlewares/ST/usbx/common/core/src/ux_device_class_dpump_read_run.c **** /** USBX Component                                                        */
  16:../STM32Cube_FW_N6/Middlewares/ST/usbx/common/core/src/ux_device_class_dpump_read_run.c **** /**                                                                       */
  17:../STM32Cube_FW_N6/Middlewares/ST/usbx/common/core/src/ux_device_class_dpump_read_run.c **** /**   Device DPUMP Class                                                  */
  18:../STM32Cube_FW_N6/Middlewares/ST/usbx/common/core/src/ux_device_class_dpump_read_run.c **** /**                                                                       */
  19:../STM32Cube_FW_N6/Middlewares/ST/usbx/common/core/src/ux_device_class_dpump_read_run.c **** /**************************************************************************/
  20:../STM32Cube_FW_N6/Middlewares/ST/usbx/common/core/src/ux_device_class_dpump_read_run.c **** /**************************************************************************/
  21:../STM32Cube_FW_N6/Middlewares/ST/usbx/common/core/src/ux_device_class_dpump_read_run.c **** 
  22:../STM32Cube_FW_N6/Middlewares/ST/usbx/common/core/src/ux_device_class_dpump_read_run.c **** #define UX_SOURCE_CODE
  23:../STM32Cube_FW_N6/Middlewares/ST/usbx/common/core/src/ux_device_class_dpump_read_run.c **** 
  24:../STM32Cube_FW_N6/Middlewares/ST/usbx/common/core/src/ux_device_class_dpump_read_run.c **** 
ARM GAS  /tmp/cclBITku.s 			page 2


  25:../STM32Cube_FW_N6/Middlewares/ST/usbx/common/core/src/ux_device_class_dpump_read_run.c **** /* Include necessary system files.  */
  26:../STM32Cube_FW_N6/Middlewares/ST/usbx/common/core/src/ux_device_class_dpump_read_run.c **** 
  27:../STM32Cube_FW_N6/Middlewares/ST/usbx/common/core/src/ux_device_class_dpump_read_run.c **** #include "ux_api.h"
  28:../STM32Cube_FW_N6/Middlewares/ST/usbx/common/core/src/ux_device_class_dpump_read_run.c **** #include "ux_device_class_dpump.h"
  29:../STM32Cube_FW_N6/Middlewares/ST/usbx/common/core/src/ux_device_class_dpump_read_run.c **** #include "ux_device_stack.h"
  30:../STM32Cube_FW_N6/Middlewares/ST/usbx/common/core/src/ux_device_class_dpump_read_run.c **** 
  31:../STM32Cube_FW_N6/Middlewares/ST/usbx/common/core/src/ux_device_class_dpump_read_run.c **** 
  32:../STM32Cube_FW_N6/Middlewares/ST/usbx/common/core/src/ux_device_class_dpump_read_run.c **** #if defined(UX_DEVICE_STANDALONE)
  33:../STM32Cube_FW_N6/Middlewares/ST/usbx/common/core/src/ux_device_class_dpump_read_run.c **** 
  34:../STM32Cube_FW_N6/Middlewares/ST/usbx/common/core/src/ux_device_class_dpump_read_run.c **** #define UX_DEVICE_CLASS_DPUMP_READ_START    (UX_STATE_STEP + 1)
  35:../STM32Cube_FW_N6/Middlewares/ST/usbx/common/core/src/ux_device_class_dpump_read_run.c **** #define UX_DEVICE_CLASS_DPUMP_READ_WAIT     (UX_STATE_STEP + 2)
  36:../STM32Cube_FW_N6/Middlewares/ST/usbx/common/core/src/ux_device_class_dpump_read_run.c **** 
  37:../STM32Cube_FW_N6/Middlewares/ST/usbx/common/core/src/ux_device_class_dpump_read_run.c **** /**************************************************************************/
  38:../STM32Cube_FW_N6/Middlewares/ST/usbx/common/core/src/ux_device_class_dpump_read_run.c **** /*                                                                        */
  39:../STM32Cube_FW_N6/Middlewares/ST/usbx/common/core/src/ux_device_class_dpump_read_run.c **** /*  FUNCTION                                               RELEASE        */
  40:../STM32Cube_FW_N6/Middlewares/ST/usbx/common/core/src/ux_device_class_dpump_read_run.c **** /*                                                                        */
  41:../STM32Cube_FW_N6/Middlewares/ST/usbx/common/core/src/ux_device_class_dpump_read_run.c **** /*    _ux_device_class_dpump_read_run                     PORTABLE C      */
  42:../STM32Cube_FW_N6/Middlewares/ST/usbx/common/core/src/ux_device_class_dpump_read_run.c **** /*                                                           6.3.0        */
  43:../STM32Cube_FW_N6/Middlewares/ST/usbx/common/core/src/ux_device_class_dpump_read_run.c **** /*  AUTHOR                                                                */
  44:../STM32Cube_FW_N6/Middlewares/ST/usbx/common/core/src/ux_device_class_dpump_read_run.c **** /*                                                                        */
  45:../STM32Cube_FW_N6/Middlewares/ST/usbx/common/core/src/ux_device_class_dpump_read_run.c **** /*    Chaoqiong Xiao, Microsoft Corporation                               */
  46:../STM32Cube_FW_N6/Middlewares/ST/usbx/common/core/src/ux_device_class_dpump_read_run.c **** /*                                                                        */
  47:../STM32Cube_FW_N6/Middlewares/ST/usbx/common/core/src/ux_device_class_dpump_read_run.c **** /*  DESCRIPTION                                                           */
  48:../STM32Cube_FW_N6/Middlewares/ST/usbx/common/core/src/ux_device_class_dpump_read_run.c **** /*                                                                        */
  49:../STM32Cube_FW_N6/Middlewares/ST/usbx/common/core/src/ux_device_class_dpump_read_run.c **** /*    This function reads from the DPUMP class.                           */
  50:../STM32Cube_FW_N6/Middlewares/ST/usbx/common/core/src/ux_device_class_dpump_read_run.c **** /*                                                                        */
  51:../STM32Cube_FW_N6/Middlewares/ST/usbx/common/core/src/ux_device_class_dpump_read_run.c **** /*    It's for standalone mode.                                           */
  52:../STM32Cube_FW_N6/Middlewares/ST/usbx/common/core/src/ux_device_class_dpump_read_run.c **** /*                                                                        */
  53:../STM32Cube_FW_N6/Middlewares/ST/usbx/common/core/src/ux_device_class_dpump_read_run.c **** /*  INPUT                                                                 */
  54:../STM32Cube_FW_N6/Middlewares/ST/usbx/common/core/src/ux_device_class_dpump_read_run.c **** /*                                                                        */
  55:../STM32Cube_FW_N6/Middlewares/ST/usbx/common/core/src/ux_device_class_dpump_read_run.c **** /*    dpump                                   DPUMP class instance        */
  56:../STM32Cube_FW_N6/Middlewares/ST/usbx/common/core/src/ux_device_class_dpump_read_run.c **** /*    buffer                                  Buffer to hold data read    */
  57:../STM32Cube_FW_N6/Middlewares/ST/usbx/common/core/src/ux_device_class_dpump_read_run.c **** /*    requested_length                        Bytes to read               */
  58:../STM32Cube_FW_N6/Middlewares/ST/usbx/common/core/src/ux_device_class_dpump_read_run.c **** /*    actual_length                           Bytes read                  */
  59:../STM32Cube_FW_N6/Middlewares/ST/usbx/common/core/src/ux_device_class_dpump_read_run.c **** /*                                                                        */
  60:../STM32Cube_FW_N6/Middlewares/ST/usbx/common/core/src/ux_device_class_dpump_read_run.c **** /*  OUTPUT                                                                */
  61:../STM32Cube_FW_N6/Middlewares/ST/usbx/common/core/src/ux_device_class_dpump_read_run.c **** /*                                                                        */
  62:../STM32Cube_FW_N6/Middlewares/ST/usbx/common/core/src/ux_device_class_dpump_read_run.c **** /*    State machine Status to check                                       */
  63:../STM32Cube_FW_N6/Middlewares/ST/usbx/common/core/src/ux_device_class_dpump_read_run.c **** /*    UX_STATE_NEXT                         Transfer done, to next state  */
  64:../STM32Cube_FW_N6/Middlewares/ST/usbx/common/core/src/ux_device_class_dpump_read_run.c **** /*    UX_STATE_EXIT                         Abnormal, to reset state      */
  65:../STM32Cube_FW_N6/Middlewares/ST/usbx/common/core/src/ux_device_class_dpump_read_run.c **** /*    (others)                              Keep running, waiting         */
  66:../STM32Cube_FW_N6/Middlewares/ST/usbx/common/core/src/ux_device_class_dpump_read_run.c **** /*                                                                        */
  67:../STM32Cube_FW_N6/Middlewares/ST/usbx/common/core/src/ux_device_class_dpump_read_run.c **** /*  CALLS                                                                 */
  68:../STM32Cube_FW_N6/Middlewares/ST/usbx/common/core/src/ux_device_class_dpump_read_run.c **** /*                                                                        */
  69:../STM32Cube_FW_N6/Middlewares/ST/usbx/common/core/src/ux_device_class_dpump_read_run.c **** /*    _ux_device_stack_transfer_request     Request transfer              */
  70:../STM32Cube_FW_N6/Middlewares/ST/usbx/common/core/src/ux_device_class_dpump_read_run.c **** /*    _ux_utility_memory_copy               Copy memory                   */
  71:../STM32Cube_FW_N6/Middlewares/ST/usbx/common/core/src/ux_device_class_dpump_read_run.c **** /*                                                                        */
  72:../STM32Cube_FW_N6/Middlewares/ST/usbx/common/core/src/ux_device_class_dpump_read_run.c **** /*  CALLED BY                                                             */
  73:../STM32Cube_FW_N6/Middlewares/ST/usbx/common/core/src/ux_device_class_dpump_read_run.c **** /*                                                                        */
  74:../STM32Cube_FW_N6/Middlewares/ST/usbx/common/core/src/ux_device_class_dpump_read_run.c **** /*    Application                                                         */
  75:../STM32Cube_FW_N6/Middlewares/ST/usbx/common/core/src/ux_device_class_dpump_read_run.c **** /*                                                                        */
  76:../STM32Cube_FW_N6/Middlewares/ST/usbx/common/core/src/ux_device_class_dpump_read_run.c **** /*  RELEASE HISTORY                                                       */
  77:../STM32Cube_FW_N6/Middlewares/ST/usbx/common/core/src/ux_device_class_dpump_read_run.c **** /*                                                                        */
  78:../STM32Cube_FW_N6/Middlewares/ST/usbx/common/core/src/ux_device_class_dpump_read_run.c **** /*    DATE              NAME                      DESCRIPTION             */
  79:../STM32Cube_FW_N6/Middlewares/ST/usbx/common/core/src/ux_device_class_dpump_read_run.c **** /*                                                                        */
  80:../STM32Cube_FW_N6/Middlewares/ST/usbx/common/core/src/ux_device_class_dpump_read_run.c **** /*  01-31-2022     Chaoqiong Xiao           Initial Version 6.1.10        */
  81:../STM32Cube_FW_N6/Middlewares/ST/usbx/common/core/src/ux_device_class_dpump_read_run.c **** /*  10-31-2023     Chaoqiong Xiao           Modified comment(s),          */
ARM GAS  /tmp/cclBITku.s 			page 3


  82:../STM32Cube_FW_N6/Middlewares/ST/usbx/common/core/src/ux_device_class_dpump_read_run.c **** /*                                            added a new mode to manage  */
  83:../STM32Cube_FW_N6/Middlewares/ST/usbx/common/core/src/ux_device_class_dpump_read_run.c **** /*                                            endpoint buffer in classes, */
  84:../STM32Cube_FW_N6/Middlewares/ST/usbx/common/core/src/ux_device_class_dpump_read_run.c **** /*                                            resulting in version 6.3.0  */
  85:../STM32Cube_FW_N6/Middlewares/ST/usbx/common/core/src/ux_device_class_dpump_read_run.c **** /*                                                                        */
  86:../STM32Cube_FW_N6/Middlewares/ST/usbx/common/core/src/ux_device_class_dpump_read_run.c **** /**************************************************************************/
  87:../STM32Cube_FW_N6/Middlewares/ST/usbx/common/core/src/ux_device_class_dpump_read_run.c **** UINT _ux_device_class_dpump_read_run(UX_SLAVE_CLASS_DPUMP *dpump, UCHAR *buffer,
  88:../STM32Cube_FW_N6/Middlewares/ST/usbx/common/core/src/ux_device_class_dpump_read_run.c ****                                 ULONG requested_length, ULONG *actual_length)
  89:../STM32Cube_FW_N6/Middlewares/ST/usbx/common/core/src/ux_device_class_dpump_read_run.c **** {
  35              		.loc 1 89 1 view -0
  36              		.cfi_startproc
  37              		@ args = 0, pretend = 0, frame = 0
  38              		@ frame_needed = 0, uses_anonymous_args = 0
  90:../STM32Cube_FW_N6/Middlewares/ST/usbx/common/core/src/ux_device_class_dpump_read_run.c **** 
  91:../STM32Cube_FW_N6/Middlewares/ST/usbx/common/core/src/ux_device_class_dpump_read_run.c **** UX_SLAVE_ENDPOINT           *endpoint;
  39              		.loc 1 91 1 view .LVU1
  92:../STM32Cube_FW_N6/Middlewares/ST/usbx/common/core/src/ux_device_class_dpump_read_run.c **** UX_SLAVE_DEVICE             *device;
  40              		.loc 1 92 1 view .LVU2
  93:../STM32Cube_FW_N6/Middlewares/ST/usbx/common/core/src/ux_device_class_dpump_read_run.c **** UX_SLAVE_TRANSFER           *transfer_request;
  41              		.loc 1 93 1 view .LVU3
  94:../STM32Cube_FW_N6/Middlewares/ST/usbx/common/core/src/ux_device_class_dpump_read_run.c **** UINT                        status;
  42              		.loc 1 94 1 view .LVU4
  95:../STM32Cube_FW_N6/Middlewares/ST/usbx/common/core/src/ux_device_class_dpump_read_run.c **** UINT                        read_state;
  43              		.loc 1 95 1 view .LVU5
  96:../STM32Cube_FW_N6/Middlewares/ST/usbx/common/core/src/ux_device_class_dpump_read_run.c **** 
  97:../STM32Cube_FW_N6/Middlewares/ST/usbx/common/core/src/ux_device_class_dpump_read_run.c **** 
  98:../STM32Cube_FW_N6/Middlewares/ST/usbx/common/core/src/ux_device_class_dpump_read_run.c ****     /* If trace is enabled, insert this event into the trace buffer.  */
  99:../STM32Cube_FW_N6/Middlewares/ST/usbx/common/core/src/ux_device_class_dpump_read_run.c ****     UX_TRACE_IN_LINE_INSERT(UX_TRACE_DEVICE_CLASS_DPUMP_READ, dpump, buffer, requested_length, 0, U
 100:../STM32Cube_FW_N6/Middlewares/ST/usbx/common/core/src/ux_device_class_dpump_read_run.c **** 
 101:../STM32Cube_FW_N6/Middlewares/ST/usbx/common/core/src/ux_device_class_dpump_read_run.c ****     /* Get the pointer to the device.  */
 102:../STM32Cube_FW_N6/Middlewares/ST/usbx/common/core/src/ux_device_class_dpump_read_run.c ****     device =  &_ux_system_slave -> ux_system_slave_device;
  44              		.loc 1 102 5 view .LVU6
 103:../STM32Cube_FW_N6/Middlewares/ST/usbx/common/core/src/ux_device_class_dpump_read_run.c **** 
 104:../STM32Cube_FW_N6/Middlewares/ST/usbx/common/core/src/ux_device_class_dpump_read_run.c ****     /* As long as the device is in the CONFIGURED state.  */
 105:../STM32Cube_FW_N6/Middlewares/ST/usbx/common/core/src/ux_device_class_dpump_read_run.c ****     if (device -> ux_slave_device_state != UX_DEVICE_CONFIGURED)
  45              		.loc 1 105 5 view .LVU7
  89:../STM32Cube_FW_N6/Middlewares/ST/usbx/common/core/src/ux_device_class_dpump_read_run.c **** 
  46              		.loc 1 89 1 is_stmt 0 view .LVU8
  47 0000 70B5     		push	{r4, r5, r6, lr}
  48              		.cfi_def_cfa_offset 16
  49              		.cfi_offset 4, -16
  50              		.cfi_offset 5, -12
  51              		.cfi_offset 6, -8
  52              		.cfi_offset 14, -4
  89:../STM32Cube_FW_N6/Middlewares/ST/usbx/common/core/src/ux_device_class_dpump_read_run.c **** 
  53              		.loc 1 89 1 view .LVU9
  54 0002 1E46     		mov	r6, r3
  55              		.loc 1 105 16 view .LVU10
  56 0004 344B     		ldr	r3, .L22
  57              	.LVL1:
  89:../STM32Cube_FW_N6/Middlewares/ST/usbx/common/core/src/ux_device_class_dpump_read_run.c **** 
  58              		.loc 1 89 1 view .LVU11
  59 0006 0446     		mov	r4, r0
  60              		.loc 1 105 16 view .LVU12
  61 0008 1B68     		ldr	r3, [r3]
  62              	.LVL2:
  63              		.loc 1 105 8 view .LVU13
  64 000a 5B6A     		ldr	r3, [r3, #36]
ARM GAS  /tmp/cclBITku.s 			page 4


  65              	.LVL3:
  66              		.loc 1 105 8 view .LVU14
  67 000c 032B     		cmp	r3, #3
  68 000e 0AD0     		beq	.L2
 106:../STM32Cube_FW_N6/Middlewares/ST/usbx/common/core/src/ux_device_class_dpump_read_run.c ****     {
 107:../STM32Cube_FW_N6/Middlewares/ST/usbx/common/core/src/ux_device_class_dpump_read_run.c **** 
 108:../STM32Cube_FW_N6/Middlewares/ST/usbx/common/core/src/ux_device_class_dpump_read_run.c ****         /* Error trap. */
 109:../STM32Cube_FW_N6/Middlewares/ST/usbx/common/core/src/ux_device_class_dpump_read_run.c ****         _ux_system_error_handler(UX_SYSTEM_LEVEL_THREAD, UX_SYSTEM_CONTEXT_CLASS, UX_CONFIGURATION_
  69              		.loc 1 109 9 is_stmt 1 view .LVU15
  70 0010 5122     		movs	r2, #81
  71              	.LVL4:
  72              		.loc 1 109 9 is_stmt 0 view .LVU16
  73 0012 0721     		movs	r1, #7
  74              	.LVL5:
  75              		.loc 1 109 9 view .LVU17
  76 0014 0220     		movs	r0, #2
  77              	.LVL6:
  78              		.loc 1 109 9 view .LVU18
  79 0016 FFF7FEFF 		bl	_ux_system_error_handler
  80              	.LVL7:
 110:../STM32Cube_FW_N6/Middlewares/ST/usbx/common/core/src/ux_device_class_dpump_read_run.c **** 
 111:../STM32Cube_FW_N6/Middlewares/ST/usbx/common/core/src/ux_device_class_dpump_read_run.c ****         /* If trace is enabled, insert this event into the trace buffer.  */
 112:../STM32Cube_FW_N6/Middlewares/ST/usbx/common/core/src/ux_device_class_dpump_read_run.c ****         UX_TRACE_IN_LINE_INSERT(UX_TRACE_ERROR, UX_CONFIGURATION_HANDLE_UNKNOWN, device, 0, 0, UX_T
 113:../STM32Cube_FW_N6/Middlewares/ST/usbx/common/core/src/ux_device_class_dpump_read_run.c **** 
 114:../STM32Cube_FW_N6/Middlewares/ST/usbx/common/core/src/ux_device_class_dpump_read_run.c ****         /* Cannot proceed with command, the interface is down.  */
 115:../STM32Cube_FW_N6/Middlewares/ST/usbx/common/core/src/ux_device_class_dpump_read_run.c ****         dpump -> ux_device_class_dpump_read_state = UX_STATE_RESET;
  81              		.loc 1 115 9 is_stmt 1 view .LVU19
  82              		.loc 1 115 51 is_stmt 0 view .LVU20
  83 001a 0023     		movs	r3, #0
  84 001c 6364     		str	r3, [r4, #68]
 116:../STM32Cube_FW_N6/Middlewares/ST/usbx/common/core/src/ux_device_class_dpump_read_run.c ****         dpump -> ux_device_class_dpump_read_status = UX_CONFIGURATION_HANDLE_UNKNOWN;
  85              		.loc 1 116 9 is_stmt 1 view .LVU21
  86              		.loc 1 116 52 is_stmt 0 view .LVU22
  87 001e 5123     		movs	r3, #81
  88              	.LVL8:
  89              	.L21:
 117:../STM32Cube_FW_N6/Middlewares/ST/usbx/common/core/src/ux_device_class_dpump_read_run.c ****         return(UX_STATE_EXIT);
 118:../STM32Cube_FW_N6/Middlewares/ST/usbx/common/core/src/ux_device_class_dpump_read_run.c ****     }
 119:../STM32Cube_FW_N6/Middlewares/ST/usbx/common/core/src/ux_device_class_dpump_read_run.c **** 
 120:../STM32Cube_FW_N6/Middlewares/ST/usbx/common/core/src/ux_device_class_dpump_read_run.c ****     /* Locate the OUT endpoint.  */
 121:../STM32Cube_FW_N6/Middlewares/ST/usbx/common/core/src/ux_device_class_dpump_read_run.c ****     endpoint =  dpump -> ux_slave_class_dpump_bulkout_endpoint;
 122:../STM32Cube_FW_N6/Middlewares/ST/usbx/common/core/src/ux_device_class_dpump_read_run.c **** 
 123:../STM32Cube_FW_N6/Middlewares/ST/usbx/common/core/src/ux_device_class_dpump_read_run.c ****     /* Check endpoint. If NULL, we have not yet received the proper SET_INTERFACE command.  */
 124:../STM32Cube_FW_N6/Middlewares/ST/usbx/common/core/src/ux_device_class_dpump_read_run.c ****     if (endpoint == UX_NULL)
 125:../STM32Cube_FW_N6/Middlewares/ST/usbx/common/core/src/ux_device_class_dpump_read_run.c ****     {
 126:../STM32Cube_FW_N6/Middlewares/ST/usbx/common/core/src/ux_device_class_dpump_read_run.c ****         /* Error trap. */
 127:../STM32Cube_FW_N6/Middlewares/ST/usbx/common/core/src/ux_device_class_dpump_read_run.c ****         _ux_system_error_handler(UX_SYSTEM_LEVEL_THREAD, UX_SYSTEM_CONTEXT_CLASS, UX_ENDPOINT_HANDL
 128:../STM32Cube_FW_N6/Middlewares/ST/usbx/common/core/src/ux_device_class_dpump_read_run.c **** 
 129:../STM32Cube_FW_N6/Middlewares/ST/usbx/common/core/src/ux_device_class_dpump_read_run.c ****         dpump -> ux_device_class_dpump_read_state = UX_STATE_RESET;
 130:../STM32Cube_FW_N6/Middlewares/ST/usbx/common/core/src/ux_device_class_dpump_read_run.c ****         dpump -> ux_device_class_dpump_read_status = UX_ENDPOINT_HANDLE_UNKNOWN;
  90              		.loc 1 130 52 view .LVU23
  91 0020 A364     		str	r3, [r4, #72]
 131:../STM32Cube_FW_N6/Middlewares/ST/usbx/common/core/src/ux_device_class_dpump_read_run.c ****         return(UX_STATE_EXIT);
  92              		.loc 1 131 9 is_stmt 1 view .LVU24
  93              	.L3:
 117:../STM32Cube_FW_N6/Middlewares/ST/usbx/common/core/src/ux_device_class_dpump_read_run.c ****         return(UX_STATE_EXIT);
  94              		.loc 1 117 15 is_stmt 0 view .LVU25
ARM GAS  /tmp/cclBITku.s 			page 5


  95 0022 0120     		movs	r0, #1
  96              	.L1:
 132:../STM32Cube_FW_N6/Middlewares/ST/usbx/common/core/src/ux_device_class_dpump_read_run.c ****     }
 133:../STM32Cube_FW_N6/Middlewares/ST/usbx/common/core/src/ux_device_class_dpump_read_run.c **** 
 134:../STM32Cube_FW_N6/Middlewares/ST/usbx/common/core/src/ux_device_class_dpump_read_run.c ****     /* All DPUMP reading  are on the endpoint OUT, from the host.  */
 135:../STM32Cube_FW_N6/Middlewares/ST/usbx/common/core/src/ux_device_class_dpump_read_run.c ****     transfer_request =  &endpoint -> ux_slave_endpoint_transfer_request;
 136:../STM32Cube_FW_N6/Middlewares/ST/usbx/common/core/src/ux_device_class_dpump_read_run.c **** 
 137:../STM32Cube_FW_N6/Middlewares/ST/usbx/common/core/src/ux_device_class_dpump_read_run.c ****     /* Handle state cases.  */
 138:../STM32Cube_FW_N6/Middlewares/ST/usbx/common/core/src/ux_device_class_dpump_read_run.c ****     read_state = dpump -> ux_device_class_dpump_read_state;
 139:../STM32Cube_FW_N6/Middlewares/ST/usbx/common/core/src/ux_device_class_dpump_read_run.c ****     switch(read_state)
 140:../STM32Cube_FW_N6/Middlewares/ST/usbx/common/core/src/ux_device_class_dpump_read_run.c ****     {
 141:../STM32Cube_FW_N6/Middlewares/ST/usbx/common/core/src/ux_device_class_dpump_read_run.c ****     case UX_STATE_RESET:
 142:../STM32Cube_FW_N6/Middlewares/ST/usbx/common/core/src/ux_device_class_dpump_read_run.c ****         dpump -> ux_device_class_dpump_read_state = UX_DEVICE_CLASS_DPUMP_READ_START;
 143:../STM32Cube_FW_N6/Middlewares/ST/usbx/common/core/src/ux_device_class_dpump_read_run.c ****         dpump -> ux_device_class_dpump_read_status = UX_TRANSFER_NO_ANSWER;
 144:../STM32Cube_FW_N6/Middlewares/ST/usbx/common/core/src/ux_device_class_dpump_read_run.c ****         dpump -> ux_device_class_dpump_read_buffer = buffer;
 145:../STM32Cube_FW_N6/Middlewares/ST/usbx/common/core/src/ux_device_class_dpump_read_run.c ****         dpump -> ux_device_class_dpump_read_requested_length = requested_length;
 146:../STM32Cube_FW_N6/Middlewares/ST/usbx/common/core/src/ux_device_class_dpump_read_run.c ****         dpump -> ux_device_class_dpump_read_actual_length = 0;
 147:../STM32Cube_FW_N6/Middlewares/ST/usbx/common/core/src/ux_device_class_dpump_read_run.c **** 
 148:../STM32Cube_FW_N6/Middlewares/ST/usbx/common/core/src/ux_device_class_dpump_read_run.c ****         /* Fall through.  */
 149:../STM32Cube_FW_N6/Middlewares/ST/usbx/common/core/src/ux_device_class_dpump_read_run.c ****     case UX_DEVICE_CLASS_DPUMP_READ_START:
 150:../STM32Cube_FW_N6/Middlewares/ST/usbx/common/core/src/ux_device_class_dpump_read_run.c **** 
 151:../STM32Cube_FW_N6/Middlewares/ST/usbx/common/core/src/ux_device_class_dpump_read_run.c ****         /* Get remaining requested length.  */
 152:../STM32Cube_FW_N6/Middlewares/ST/usbx/common/core/src/ux_device_class_dpump_read_run.c ****         requested_length = dpump -> ux_device_class_dpump_read_requested_length -
 153:../STM32Cube_FW_N6/Middlewares/ST/usbx/common/core/src/ux_device_class_dpump_read_run.c ****                         dpump -> ux_device_class_dpump_read_actual_length;
 154:../STM32Cube_FW_N6/Middlewares/ST/usbx/common/core/src/ux_device_class_dpump_read_run.c **** 
 155:../STM32Cube_FW_N6/Middlewares/ST/usbx/common/core/src/ux_device_class_dpump_read_run.c ****         /* There is no remaining, we are done.  */
 156:../STM32Cube_FW_N6/Middlewares/ST/usbx/common/core/src/ux_device_class_dpump_read_run.c ****         if (requested_length == 0)
 157:../STM32Cube_FW_N6/Middlewares/ST/usbx/common/core/src/ux_device_class_dpump_read_run.c ****         {
 158:../STM32Cube_FW_N6/Middlewares/ST/usbx/common/core/src/ux_device_class_dpump_read_run.c ****             *actual_length = dpump -> ux_device_class_dpump_read_actual_length;
 159:../STM32Cube_FW_N6/Middlewares/ST/usbx/common/core/src/ux_device_class_dpump_read_run.c ****             dpump -> ux_device_class_dpump_read_state = UX_STATE_RESET;
 160:../STM32Cube_FW_N6/Middlewares/ST/usbx/common/core/src/ux_device_class_dpump_read_run.c ****             dpump -> ux_device_class_dpump_read_status = UX_SUCCESS;
 161:../STM32Cube_FW_N6/Middlewares/ST/usbx/common/core/src/ux_device_class_dpump_read_run.c ****             return(UX_STATE_NEXT);
 162:../STM32Cube_FW_N6/Middlewares/ST/usbx/common/core/src/ux_device_class_dpump_read_run.c ****         }
 163:../STM32Cube_FW_N6/Middlewares/ST/usbx/common/core/src/ux_device_class_dpump_read_run.c **** 
 164:../STM32Cube_FW_N6/Middlewares/ST/usbx/common/core/src/ux_device_class_dpump_read_run.c ****         /* Check if we have enough in the local buffer.  */
 165:../STM32Cube_FW_N6/Middlewares/ST/usbx/common/core/src/ux_device_class_dpump_read_run.c ****         if (requested_length > UX_DEVICE_CLASS_DPUMP_READ_BUFFER_SIZE)
 166:../STM32Cube_FW_N6/Middlewares/ST/usbx/common/core/src/ux_device_class_dpump_read_run.c **** 
 167:../STM32Cube_FW_N6/Middlewares/ST/usbx/common/core/src/ux_device_class_dpump_read_run.c ****             /* We have too much to transfer.  */
 168:../STM32Cube_FW_N6/Middlewares/ST/usbx/common/core/src/ux_device_class_dpump_read_run.c ****             dpump -> ux_device_class_dpump_read_transfer_length = UX_DEVICE_CLASS_DPUMP_READ_BUFFER
 169:../STM32Cube_FW_N6/Middlewares/ST/usbx/common/core/src/ux_device_class_dpump_read_run.c **** 
 170:../STM32Cube_FW_N6/Middlewares/ST/usbx/common/core/src/ux_device_class_dpump_read_run.c ****         else
 171:../STM32Cube_FW_N6/Middlewares/ST/usbx/common/core/src/ux_device_class_dpump_read_run.c **** 
 172:../STM32Cube_FW_N6/Middlewares/ST/usbx/common/core/src/ux_device_class_dpump_read_run.c ****             /* We can proceed with the demanded length.  */
 173:../STM32Cube_FW_N6/Middlewares/ST/usbx/common/core/src/ux_device_class_dpump_read_run.c ****             dpump -> ux_device_class_dpump_read_transfer_length = requested_length;
 174:../STM32Cube_FW_N6/Middlewares/ST/usbx/common/core/src/ux_device_class_dpump_read_run.c **** 
 175:../STM32Cube_FW_N6/Middlewares/ST/usbx/common/core/src/ux_device_class_dpump_read_run.c ****         /* Next state.  */
 176:../STM32Cube_FW_N6/Middlewares/ST/usbx/common/core/src/ux_device_class_dpump_read_run.c ****         dpump -> ux_device_class_dpump_read_state = UX_DEVICE_CLASS_DPUMP_READ_WAIT;
 177:../STM32Cube_FW_N6/Middlewares/ST/usbx/common/core/src/ux_device_class_dpump_read_run.c ****         UX_SLAVE_TRANSFER_STATE_RESET(transfer_request);
 178:../STM32Cube_FW_N6/Middlewares/ST/usbx/common/core/src/ux_device_class_dpump_read_run.c **** 
 179:../STM32Cube_FW_N6/Middlewares/ST/usbx/common/core/src/ux_device_class_dpump_read_run.c ****         /* Fall through.  */
 180:../STM32Cube_FW_N6/Middlewares/ST/usbx/common/core/src/ux_device_class_dpump_read_run.c ****     case UX_DEVICE_CLASS_DPUMP_READ_WAIT:
 181:../STM32Cube_FW_N6/Middlewares/ST/usbx/common/core/src/ux_device_class_dpump_read_run.c **** 
 182:../STM32Cube_FW_N6/Middlewares/ST/usbx/common/core/src/ux_device_class_dpump_read_run.c ****         /* Send the request to the device controller.  */
 183:../STM32Cube_FW_N6/Middlewares/ST/usbx/common/core/src/ux_device_class_dpump_read_run.c ****         status =  _ux_device_stack_transfer_run(transfer_request,
 184:../STM32Cube_FW_N6/Middlewares/ST/usbx/common/core/src/ux_device_class_dpump_read_run.c ****                             dpump -> ux_device_class_dpump_read_transfer_length,
 185:../STM32Cube_FW_N6/Middlewares/ST/usbx/common/core/src/ux_device_class_dpump_read_run.c ****                             dpump -> ux_device_class_dpump_read_transfer_length);
 186:../STM32Cube_FW_N6/Middlewares/ST/usbx/common/core/src/ux_device_class_dpump_read_run.c **** 
ARM GAS  /tmp/cclBITku.s 			page 6


 187:../STM32Cube_FW_N6/Middlewares/ST/usbx/common/core/src/ux_device_class_dpump_read_run.c ****         /* Error case.  */
 188:../STM32Cube_FW_N6/Middlewares/ST/usbx/common/core/src/ux_device_class_dpump_read_run.c ****         if (status < UX_STATE_NEXT)
 189:../STM32Cube_FW_N6/Middlewares/ST/usbx/common/core/src/ux_device_class_dpump_read_run.c ****         {
 190:../STM32Cube_FW_N6/Middlewares/ST/usbx/common/core/src/ux_device_class_dpump_read_run.c **** 
 191:../STM32Cube_FW_N6/Middlewares/ST/usbx/common/core/src/ux_device_class_dpump_read_run.c ****             dpump -> ux_device_class_dpump_read_state = UX_STATE_RESET;
 192:../STM32Cube_FW_N6/Middlewares/ST/usbx/common/core/src/ux_device_class_dpump_read_run.c ****             dpump -> ux_device_class_dpump_read_status =
 193:../STM32Cube_FW_N6/Middlewares/ST/usbx/common/core/src/ux_device_class_dpump_read_run.c ****                 transfer_request -> ux_slave_transfer_request_completion_code;
 194:../STM32Cube_FW_N6/Middlewares/ST/usbx/common/core/src/ux_device_class_dpump_read_run.c ****             return(UX_STATE_EXIT);
 195:../STM32Cube_FW_N6/Middlewares/ST/usbx/common/core/src/ux_device_class_dpump_read_run.c ****         }
 196:../STM32Cube_FW_N6/Middlewares/ST/usbx/common/core/src/ux_device_class_dpump_read_run.c **** 
 197:../STM32Cube_FW_N6/Middlewares/ST/usbx/common/core/src/ux_device_class_dpump_read_run.c ****         /* Success case.  */
 198:../STM32Cube_FW_N6/Middlewares/ST/usbx/common/core/src/ux_device_class_dpump_read_run.c ****         if (status == UX_STATE_NEXT)
 199:../STM32Cube_FW_N6/Middlewares/ST/usbx/common/core/src/ux_device_class_dpump_read_run.c ****         {
 200:../STM32Cube_FW_N6/Middlewares/ST/usbx/common/core/src/ux_device_class_dpump_read_run.c **** 
 201:../STM32Cube_FW_N6/Middlewares/ST/usbx/common/core/src/ux_device_class_dpump_read_run.c ****             /* We need to copy the buffer locally.  */
 202:../STM32Cube_FW_N6/Middlewares/ST/usbx/common/core/src/ux_device_class_dpump_read_run.c ****             _ux_utility_memory_copy(dpump -> ux_device_class_dpump_read_buffer,
 203:../STM32Cube_FW_N6/Middlewares/ST/usbx/common/core/src/ux_device_class_dpump_read_run.c ****                     transfer_request -> ux_slave_transfer_request_data_pointer,
 204:../STM32Cube_FW_N6/Middlewares/ST/usbx/common/core/src/ux_device_class_dpump_read_run.c ****                     dpump -> ux_device_class_dpump_read_transfer_length); /* Use case of memcpy is 
 205:../STM32Cube_FW_N6/Middlewares/ST/usbx/common/core/src/ux_device_class_dpump_read_run.c **** 
 206:../STM32Cube_FW_N6/Middlewares/ST/usbx/common/core/src/ux_device_class_dpump_read_run.c ****             /* Next buffer address.  */
 207:../STM32Cube_FW_N6/Middlewares/ST/usbx/common/core/src/ux_device_class_dpump_read_run.c ****             dpump -> ux_device_class_dpump_read_buffer +=
 208:../STM32Cube_FW_N6/Middlewares/ST/usbx/common/core/src/ux_device_class_dpump_read_run.c ****                     transfer_request -> ux_slave_transfer_request_actual_length;
 209:../STM32Cube_FW_N6/Middlewares/ST/usbx/common/core/src/ux_device_class_dpump_read_run.c **** 
 210:../STM32Cube_FW_N6/Middlewares/ST/usbx/common/core/src/ux_device_class_dpump_read_run.c ****             /* Set the length actually received. */
 211:../STM32Cube_FW_N6/Middlewares/ST/usbx/common/core/src/ux_device_class_dpump_read_run.c ****             dpump -> ux_device_class_dpump_read_actual_length +=
 212:../STM32Cube_FW_N6/Middlewares/ST/usbx/common/core/src/ux_device_class_dpump_read_run.c ****                     transfer_request -> ux_slave_transfer_request_actual_length;
 213:../STM32Cube_FW_N6/Middlewares/ST/usbx/common/core/src/ux_device_class_dpump_read_run.c **** 
 214:../STM32Cube_FW_N6/Middlewares/ST/usbx/common/core/src/ux_device_class_dpump_read_run.c ****             /* Last transfer status.  */
 215:../STM32Cube_FW_N6/Middlewares/ST/usbx/common/core/src/ux_device_class_dpump_read_run.c ****             dpump -> ux_device_class_dpump_read_status =
 216:../STM32Cube_FW_N6/Middlewares/ST/usbx/common/core/src/ux_device_class_dpump_read_run.c ****                 transfer_request -> ux_slave_transfer_request_completion_code;
 217:../STM32Cube_FW_N6/Middlewares/ST/usbx/common/core/src/ux_device_class_dpump_read_run.c **** 
 218:../STM32Cube_FW_N6/Middlewares/ST/usbx/common/core/src/ux_device_class_dpump_read_run.c ****             /* Update actual length.  */
 219:../STM32Cube_FW_N6/Middlewares/ST/usbx/common/core/src/ux_device_class_dpump_read_run.c ****             *actual_length = dpump -> ux_device_class_dpump_read_actual_length;
 220:../STM32Cube_FW_N6/Middlewares/ST/usbx/common/core/src/ux_device_class_dpump_read_run.c **** 
 221:../STM32Cube_FW_N6/Middlewares/ST/usbx/common/core/src/ux_device_class_dpump_read_run.c ****             /* Check short packet.  */
 222:../STM32Cube_FW_N6/Middlewares/ST/usbx/common/core/src/ux_device_class_dpump_read_run.c ****             if (transfer_request -> ux_slave_transfer_request_actual_length <
 223:../STM32Cube_FW_N6/Middlewares/ST/usbx/common/core/src/ux_device_class_dpump_read_run.c ****                 transfer_request -> ux_slave_transfer_request_requested_length)
 224:../STM32Cube_FW_N6/Middlewares/ST/usbx/common/core/src/ux_device_class_dpump_read_run.c ****             {
 225:../STM32Cube_FW_N6/Middlewares/ST/usbx/common/core/src/ux_device_class_dpump_read_run.c **** 
 226:../STM32Cube_FW_N6/Middlewares/ST/usbx/common/core/src/ux_device_class_dpump_read_run.c ****                 /* It's done.  */
 227:../STM32Cube_FW_N6/Middlewares/ST/usbx/common/core/src/ux_device_class_dpump_read_run.c ****                 dpump -> ux_device_class_dpump_read_state = UX_STATE_RESET;
 228:../STM32Cube_FW_N6/Middlewares/ST/usbx/common/core/src/ux_device_class_dpump_read_run.c ****                 return(UX_STATE_NEXT);
 229:../STM32Cube_FW_N6/Middlewares/ST/usbx/common/core/src/ux_device_class_dpump_read_run.c ****             }
 230:../STM32Cube_FW_N6/Middlewares/ST/usbx/common/core/src/ux_device_class_dpump_read_run.c **** 
 231:../STM32Cube_FW_N6/Middlewares/ST/usbx/common/core/src/ux_device_class_dpump_read_run.c ****             /* Next state.  */
 232:../STM32Cube_FW_N6/Middlewares/ST/usbx/common/core/src/ux_device_class_dpump_read_run.c ****             dpump -> ux_device_class_dpump_read_state = UX_DEVICE_CLASS_DPUMP_READ_START;
 233:../STM32Cube_FW_N6/Middlewares/ST/usbx/common/core/src/ux_device_class_dpump_read_run.c ****         }
 234:../STM32Cube_FW_N6/Middlewares/ST/usbx/common/core/src/ux_device_class_dpump_read_run.c **** 
 235:../STM32Cube_FW_N6/Middlewares/ST/usbx/common/core/src/ux_device_class_dpump_read_run.c ****         /* Keep waiting.  */
 236:../STM32Cube_FW_N6/Middlewares/ST/usbx/common/core/src/ux_device_class_dpump_read_run.c ****         return(UX_STATE_WAIT);
 237:../STM32Cube_FW_N6/Middlewares/ST/usbx/common/core/src/ux_device_class_dpump_read_run.c **** 
 238:../STM32Cube_FW_N6/Middlewares/ST/usbx/common/core/src/ux_device_class_dpump_read_run.c ****     default: /* Error.  */
 239:../STM32Cube_FW_N6/Middlewares/ST/usbx/common/core/src/ux_device_class_dpump_read_run.c ****         dpump -> ux_device_class_dpump_read_state = UX_STATE_RESET;
 240:../STM32Cube_FW_N6/Middlewares/ST/usbx/common/core/src/ux_device_class_dpump_read_run.c ****         break;
 241:../STM32Cube_FW_N6/Middlewares/ST/usbx/common/core/src/ux_device_class_dpump_read_run.c ****     }
 242:../STM32Cube_FW_N6/Middlewares/ST/usbx/common/core/src/ux_device_class_dpump_read_run.c **** 
 243:../STM32Cube_FW_N6/Middlewares/ST/usbx/common/core/src/ux_device_class_dpump_read_run.c ****     /* Error case.  */
ARM GAS  /tmp/cclBITku.s 			page 7


 244:../STM32Cube_FW_N6/Middlewares/ST/usbx/common/core/src/ux_device_class_dpump_read_run.c ****     return(UX_STATE_EXIT);
 245:../STM32Cube_FW_N6/Middlewares/ST/usbx/common/core/src/ux_device_class_dpump_read_run.c **** }
  97              		.loc 1 245 1 view .LVU26
  98 0024 70BD     		pop	{r4, r5, r6, pc}
  99              	.LVL9:
 100              	.L2:
 121:../STM32Cube_FW_N6/Middlewares/ST/usbx/common/core/src/ux_device_class_dpump_read_run.c **** 
 101              		.loc 1 121 5 is_stmt 1 view .LVU27
 121:../STM32Cube_FW_N6/Middlewares/ST/usbx/common/core/src/ux_device_class_dpump_read_run.c **** 
 102              		.loc 1 121 14 is_stmt 0 view .LVU28
 103 0026 0569     		ldr	r5, [r0, #16]
 104              	.LVL10:
 124:../STM32Cube_FW_N6/Middlewares/ST/usbx/common/core/src/ux_device_class_dpump_read_run.c ****     {
 105              		.loc 1 124 5 is_stmt 1 view .LVU29
 124:../STM32Cube_FW_N6/Middlewares/ST/usbx/common/core/src/ux_device_class_dpump_read_run.c ****     {
 106              		.loc 1 124 8 is_stmt 0 view .LVU30
 107 0028 3DB9     		cbnz	r5, .L4
 127:../STM32Cube_FW_N6/Middlewares/ST/usbx/common/core/src/ux_device_class_dpump_read_run.c **** 
 108              		.loc 1 127 9 is_stmt 1 view .LVU31
 109 002a 5322     		movs	r2, #83
 110              	.LVL11:
 127:../STM32Cube_FW_N6/Middlewares/ST/usbx/common/core/src/ux_device_class_dpump_read_run.c **** 
 111              		.loc 1 127 9 is_stmt 0 view .LVU32
 112 002c 0721     		movs	r1, #7
 113              	.LVL12:
 127:../STM32Cube_FW_N6/Middlewares/ST/usbx/common/core/src/ux_device_class_dpump_read_run.c **** 
 114              		.loc 1 127 9 view .LVU33
 115 002e 0220     		movs	r0, #2
 116              	.LVL13:
 127:../STM32Cube_FW_N6/Middlewares/ST/usbx/common/core/src/ux_device_class_dpump_read_run.c **** 
 117              		.loc 1 127 9 view .LVU34
 118 0030 FFF7FEFF 		bl	_ux_system_error_handler
 119              	.LVL14:
 129:../STM32Cube_FW_N6/Middlewares/ST/usbx/common/core/src/ux_device_class_dpump_read_run.c ****         dpump -> ux_device_class_dpump_read_status = UX_ENDPOINT_HANDLE_UNKNOWN;
 120              		.loc 1 129 9 is_stmt 1 view .LVU35
 130:../STM32Cube_FW_N6/Middlewares/ST/usbx/common/core/src/ux_device_class_dpump_read_run.c ****         return(UX_STATE_EXIT);
 121              		.loc 1 130 52 is_stmt 0 view .LVU36
 122 0034 5323     		movs	r3, #83
 129:../STM32Cube_FW_N6/Middlewares/ST/usbx/common/core/src/ux_device_class_dpump_read_run.c ****         dpump -> ux_device_class_dpump_read_status = UX_ENDPOINT_HANDLE_UNKNOWN;
 123              		.loc 1 129 51 view .LVU37
 124 0036 6564     		str	r5, [r4, #68]
 130:../STM32Cube_FW_N6/Middlewares/ST/usbx/common/core/src/ux_device_class_dpump_read_run.c ****         return(UX_STATE_EXIT);
 125              		.loc 1 130 9 is_stmt 1 view .LVU38
 126 0038 F2E7     		b	.L21
 127              	.LVL15:
 128              	.L4:
 135:../STM32Cube_FW_N6/Middlewares/ST/usbx/common/core/src/ux_device_class_dpump_read_run.c **** 
 129              		.loc 1 135 5 view .LVU39
 138:../STM32Cube_FW_N6/Middlewares/ST/usbx/common/core/src/ux_device_class_dpump_read_run.c ****     switch(read_state)
 130              		.loc 1 138 5 view .LVU40
 138:../STM32Cube_FW_N6/Middlewares/ST/usbx/common/core/src/ux_device_class_dpump_read_run.c ****     switch(read_state)
 131              		.loc 1 138 16 is_stmt 0 view .LVU41
 132 003a 436C     		ldr	r3, [r0, #68]
 133              	.LVL16:
 139:../STM32Cube_FW_N6/Middlewares/ST/usbx/common/core/src/ux_device_class_dpump_read_run.c ****     {
 134              		.loc 1 139 5 is_stmt 1 view .LVU42
 135 003c 212B     		cmp	r3, #33
ARM GAS  /tmp/cclBITku.s 			page 8


 136 003e 0BD0     		beq	.L6
 137 0040 222B     		cmp	r3, #34
 138 0042 1CD0     		beq	.L7
 139 0044 002B     		cmp	r3, #0
 140 0046 43D1     		bne	.L8
 142:../STM32Cube_FW_N6/Middlewares/ST/usbx/common/core/src/ux_device_class_dpump_read_run.c ****         dpump -> ux_device_class_dpump_read_status = UX_TRANSFER_NO_ANSWER;
 141              		.loc 1 142 9 view .LVU43
 143:../STM32Cube_FW_N6/Middlewares/ST/usbx/common/core/src/ux_device_class_dpump_read_run.c ****         dpump -> ux_device_class_dpump_read_buffer = buffer;
 142              		.loc 1 143 52 is_stmt 0 view .LVU44
 143 0048 4FF0210C 		mov	ip, #33
 144 004c 2220     		movs	r0, #34
 145              	.LVL17:
 145:../STM32Cube_FW_N6/Middlewares/ST/usbx/common/core/src/ux_device_class_dpump_read_run.c ****         dpump -> ux_device_class_dpump_read_actual_length = 0;
 146              		.loc 1 145 62 view .LVU45
 147 004e C4E90D12 		strd	r1, r2, [r4, #52]
 143:../STM32Cube_FW_N6/Middlewares/ST/usbx/common/core/src/ux_device_class_dpump_read_run.c ****         dpump -> ux_device_class_dpump_read_buffer = buffer;
 148              		.loc 1 143 52 view .LVU46
 149 0052 C4E911C0 		strd	ip, r0, [r4, #68]
 144:../STM32Cube_FW_N6/Middlewares/ST/usbx/common/core/src/ux_device_class_dpump_read_run.c ****         dpump -> ux_device_class_dpump_read_requested_length = requested_length;
 150              		.loc 1 144 9 is_stmt 1 view .LVU47
 146:../STM32Cube_FW_N6/Middlewares/ST/usbx/common/core/src/ux_device_class_dpump_read_run.c **** 
 151              		.loc 1 146 9 view .LVU48
 146:../STM32Cube_FW_N6/Middlewares/ST/usbx/common/core/src/ux_device_class_dpump_read_run.c **** 
 152              		.loc 1 146 59 is_stmt 0 view .LVU49
 153 0056 2364     		str	r3, [r4, #64]
 154              	.L6:
 152:../STM32Cube_FW_N6/Middlewares/ST/usbx/common/core/src/ux_device_class_dpump_read_run.c ****                         dpump -> ux_device_class_dpump_read_actual_length;
 155              		.loc 1 152 9 is_stmt 1 view .LVU50
 153:../STM32Cube_FW_N6/Middlewares/ST/usbx/common/core/src/ux_device_class_dpump_read_run.c **** 
 156              		.loc 1 153 31 is_stmt 0 view .LVU51
 157 0058 236C     		ldr	r3, [r4, #64]
 158              	.LVL18:
 152:../STM32Cube_FW_N6/Middlewares/ST/usbx/common/core/src/ux_device_class_dpump_read_run.c ****                         dpump -> ux_device_class_dpump_read_actual_length;
 159              		.loc 1 152 26 view .LVU52
 160 005a A26B     		ldr	r2, [r4, #56]
 161              	.LVL19:
 156:../STM32Cube_FW_N6/Middlewares/ST/usbx/common/core/src/ux_device_class_dpump_read_run.c ****         {
 162              		.loc 1 156 9 is_stmt 1 view .LVU53
 156:../STM32Cube_FW_N6/Middlewares/ST/usbx/common/core/src/ux_device_class_dpump_read_run.c ****         {
 163              		.loc 1 156 12 is_stmt 0 view .LVU54
 164 005c D21A     		subs	r2, r2, r3
 165              	.LVL20:
 156:../STM32Cube_FW_N6/Middlewares/ST/usbx/common/core/src/ux_device_class_dpump_read_run.c ****         {
 166              		.loc 1 156 12 view .LVU55
 167 005e 04D1     		bne	.L9
 158:../STM32Cube_FW_N6/Middlewares/ST/usbx/common/core/src/ux_device_class_dpump_read_run.c ****             dpump -> ux_device_class_dpump_read_state = UX_STATE_RESET;
 168              		.loc 1 158 13 is_stmt 1 view .LVU56
 158:../STM32Cube_FW_N6/Middlewares/ST/usbx/common/core/src/ux_device_class_dpump_read_run.c ****             dpump -> ux_device_class_dpump_read_state = UX_STATE_RESET;
 169              		.loc 1 158 28 is_stmt 0 view .LVU57
 170 0060 3360     		str	r3, [r6]
 159:../STM32Cube_FW_N6/Middlewares/ST/usbx/common/core/src/ux_device_class_dpump_read_run.c ****             dpump -> ux_device_class_dpump_read_status = UX_SUCCESS;
 171              		.loc 1 159 13 is_stmt 1 view .LVU58
 160:../STM32Cube_FW_N6/Middlewares/ST/usbx/common/core/src/ux_device_class_dpump_read_run.c ****             return(UX_STATE_NEXT);
 172              		.loc 1 160 56 is_stmt 0 view .LVU59
 173 0062 C4E91122 		strd	r2, r2, [r4, #68]
 161:../STM32Cube_FW_N6/Middlewares/ST/usbx/common/core/src/ux_device_class_dpump_read_run.c ****         }
 174              		.loc 1 161 13 is_stmt 1 view .LVU60
ARM GAS  /tmp/cclBITku.s 			page 9


 175              	.LVL21:
 176              	.L10:
 161:../STM32Cube_FW_N6/Middlewares/ST/usbx/common/core/src/ux_device_class_dpump_read_run.c ****         }
 177              		.loc 1 161 19 is_stmt 0 view .LVU61
 178 0066 0420     		movs	r0, #4
 179 0068 DCE7     		b	.L1
 180              	.LVL22:
 181              	.L9:
 165:../STM32Cube_FW_N6/Middlewares/ST/usbx/common/core/src/ux_device_class_dpump_read_run.c **** 
 182              		.loc 1 165 9 is_stmt 1 view .LVU62
 176:../STM32Cube_FW_N6/Middlewares/ST/usbx/common/core/src/ux_device_class_dpump_read_run.c ****         UX_SLAVE_TRANSFER_STATE_RESET(transfer_request);
 183              		.loc 1 176 51 is_stmt 0 view .LVU63
 184 006a 2223     		movs	r3, #34
 165:../STM32Cube_FW_N6/Middlewares/ST/usbx/common/core/src/ux_device_class_dpump_read_run.c **** 
 185              		.loc 1 165 12 view .LVU64
 186 006c B2F5406F 		cmp	r2, #3072
 176:../STM32Cube_FW_N6/Middlewares/ST/usbx/common/core/src/ux_device_class_dpump_read_run.c ****         UX_SLAVE_TRANSFER_STATE_RESET(transfer_request);
 187              		.loc 1 176 51 view .LVU65
 188 0070 6364     		str	r3, [r4, #68]
 165:../STM32Cube_FW_N6/Middlewares/ST/usbx/common/core/src/ux_device_class_dpump_read_run.c **** 
 189              		.loc 1 165 12 view .LVU66
 190 0072 28BF     		it	cs
 191 0074 4FF44062 		movcs	r2, #3072
 192              	.LVL23:
 177:../STM32Cube_FW_N6/Middlewares/ST/usbx/common/core/src/ux_device_class_dpump_read_run.c **** 
 193              		.loc 1 177 9 view .LVU67
 194 0078 0023     		movs	r3, #0
 195 007a E263     		str	r2, [r4, #60]
 176:../STM32Cube_FW_N6/Middlewares/ST/usbx/common/core/src/ux_device_class_dpump_read_run.c ****         UX_SLAVE_TRANSFER_STATE_RESET(transfer_request);
 196              		.loc 1 176 9 is_stmt 1 view .LVU68
 177:../STM32Cube_FW_N6/Middlewares/ST/usbx/common/core/src/ux_device_class_dpump_read_run.c **** 
 197              		.loc 1 177 9 view .LVU69
 198 007c 2B65     		str	r3, [r5, #80]
 199              	.LVL24:
 200              	.L7:
 183:../STM32Cube_FW_N6/Middlewares/ST/usbx/common/core/src/ux_device_class_dpump_read_run.c ****                             dpump -> ux_device_class_dpump_read_transfer_length,
 201              		.loc 1 183 9 view .LVU70
 183:../STM32Cube_FW_N6/Middlewares/ST/usbx/common/core/src/ux_device_class_dpump_read_run.c ****                             dpump -> ux_device_class_dpump_read_transfer_length,
 202              		.loc 1 183 19 is_stmt 0 view .LVU71
 203 007e E26B     		ldr	r2, [r4, #60]
 204 0080 05F12000 		add	r0, r5, #32
 205 0084 1146     		mov	r1, r2
 206              	.LVL25:
 183:../STM32Cube_FW_N6/Middlewares/ST/usbx/common/core/src/ux_device_class_dpump_read_run.c ****                             dpump -> ux_device_class_dpump_read_transfer_length,
 207              		.loc 1 183 19 view .LVU72
 208 0086 FFF7FEFF 		bl	_ux_device_stack_transfer_run
 209              	.LVL26:
 188:../STM32Cube_FW_N6/Middlewares/ST/usbx/common/core/src/ux_device_class_dpump_read_run.c ****         {
 210              		.loc 1 188 9 is_stmt 1 view .LVU73
 188:../STM32Cube_FW_N6/Middlewares/ST/usbx/common/core/src/ux_device_class_dpump_read_run.c ****         {
 211              		.loc 1 188 12 is_stmt 0 view .LVU74
 212 008a 0328     		cmp	r0, #3
 213 008c 03D8     		bhi	.L11
 191:../STM32Cube_FW_N6/Middlewares/ST/usbx/common/core/src/ux_device_class_dpump_read_run.c ****             dpump -> ux_device_class_dpump_read_status =
 214              		.loc 1 191 13 is_stmt 1 view .LVU75
 191:../STM32Cube_FW_N6/Middlewares/ST/usbx/common/core/src/ux_device_class_dpump_read_run.c ****             dpump -> ux_device_class_dpump_read_status =
 215              		.loc 1 191 55 is_stmt 0 view .LVU76
ARM GAS  /tmp/cclBITku.s 			page 10


 216 008e 0023     		movs	r3, #0
 217 0090 6364     		str	r3, [r4, #68]
 192:../STM32Cube_FW_N6/Middlewares/ST/usbx/common/core/src/ux_device_class_dpump_read_run.c ****                 transfer_request -> ux_slave_transfer_request_completion_code;
 218              		.loc 1 192 13 is_stmt 1 view .LVU77
 192:../STM32Cube_FW_N6/Middlewares/ST/usbx/common/core/src/ux_device_class_dpump_read_run.c ****                 transfer_request -> ux_slave_transfer_request_completion_code;
 219              		.loc 1 192 56 is_stmt 0 view .LVU78
 220 0092 6B6C     		ldr	r3, [r5, #68]
 221 0094 C4E7     		b	.L21
 222              	.L11:
 198:../STM32Cube_FW_N6/Middlewares/ST/usbx/common/core/src/ux_device_class_dpump_read_run.c ****         {
 223              		.loc 1 198 9 is_stmt 1 view .LVU79
 198:../STM32Cube_FW_N6/Middlewares/ST/usbx/common/core/src/ux_device_class_dpump_read_run.c ****         {
 224              		.loc 1 198 12 is_stmt 0 view .LVU80
 225 0096 0428     		cmp	r0, #4
 226 0098 01D0     		beq	.L12
 227              	.LVL27:
 228              	.L14:
 236:../STM32Cube_FW_N6/Middlewares/ST/usbx/common/core/src/ux_device_class_dpump_read_run.c **** 
 229              		.loc 1 236 15 view .LVU81
 230 009a 0520     		movs	r0, #5
 231 009c C2E7     		b	.L1
 232              	.LVL28:
 233              	.L12:
 202:../STM32Cube_FW_N6/Middlewares/ST/usbx/common/core/src/ux_device_class_dpump_read_run.c ****                     transfer_request -> ux_slave_transfer_request_data_pointer,
 234              		.loc 1 202 13 is_stmt 1 view .LVU82
 235 009e E26B     		ldr	r2, [r4, #60]
 236 00a0 E96A     		ldr	r1, [r5, #44]
 237 00a2 606B     		ldr	r0, [r4, #52]
 238              	.LVL29:
 202:../STM32Cube_FW_N6/Middlewares/ST/usbx/common/core/src/ux_device_class_dpump_read_run.c ****                     transfer_request -> ux_slave_transfer_request_data_pointer,
 239              		.loc 1 202 13 is_stmt 0 view .LVU83
 240 00a4 FFF7FEFF 		bl	_ux_utility_memory_copy
 241              	.LVL30:
 207:../STM32Cube_FW_N6/Middlewares/ST/usbx/common/core/src/ux_device_class_dpump_read_run.c ****                     transfer_request -> ux_slave_transfer_request_actual_length;
 242              		.loc 1 207 13 is_stmt 1 view .LVU84
 208:../STM32Cube_FW_N6/Middlewares/ST/usbx/common/core/src/ux_device_class_dpump_read_run.c **** 
 243              		.loc 1 208 38 is_stmt 0 view .LVU85
 244 00a8 AA6B     		ldr	r2, [r5, #56]
 207:../STM32Cube_FW_N6/Middlewares/ST/usbx/common/core/src/ux_device_class_dpump_read_run.c ****                     transfer_request -> ux_slave_transfer_request_actual_length;
 245              		.loc 1 207 56 view .LVU86
 246 00aa 636B     		ldr	r3, [r4, #52]
 247 00ac 1344     		add	r3, r3, r2
 248 00ae 6363     		str	r3, [r4, #52]
 211:../STM32Cube_FW_N6/Middlewares/ST/usbx/common/core/src/ux_device_class_dpump_read_run.c ****                     transfer_request -> ux_slave_transfer_request_actual_length;
 249              		.loc 1 211 13 is_stmt 1 view .LVU87
 211:../STM32Cube_FW_N6/Middlewares/ST/usbx/common/core/src/ux_device_class_dpump_read_run.c ****                     transfer_request -> ux_slave_transfer_request_actual_length;
 250              		.loc 1 211 63 is_stmt 0 view .LVU88
 251 00b0 236C     		ldr	r3, [r4, #64]
 252 00b2 1A44     		add	r2, r2, r3
 215:../STM32Cube_FW_N6/Middlewares/ST/usbx/common/core/src/ux_device_class_dpump_read_run.c ****                 transfer_request -> ux_slave_transfer_request_completion_code;
 253              		.loc 1 215 56 view .LVU89
 254 00b4 6B6C     		ldr	r3, [r5, #68]
 211:../STM32Cube_FW_N6/Middlewares/ST/usbx/common/core/src/ux_device_class_dpump_read_run.c ****                     transfer_request -> ux_slave_transfer_request_actual_length;
 255              		.loc 1 211 63 view .LVU90
 256 00b6 2264     		str	r2, [r4, #64]
 215:../STM32Cube_FW_N6/Middlewares/ST/usbx/common/core/src/ux_device_class_dpump_read_run.c ****                 transfer_request -> ux_slave_transfer_request_completion_code;
 257              		.loc 1 215 13 is_stmt 1 view .LVU91
ARM GAS  /tmp/cclBITku.s 			page 11


 215:../STM32Cube_FW_N6/Middlewares/ST/usbx/common/core/src/ux_device_class_dpump_read_run.c ****                 transfer_request -> ux_slave_transfer_request_completion_code;
 258              		.loc 1 215 56 is_stmt 0 view .LVU92
 259 00b8 A364     		str	r3, [r4, #72]
 219:../STM32Cube_FW_N6/Middlewares/ST/usbx/common/core/src/ux_device_class_dpump_read_run.c **** 
 260              		.loc 1 219 13 is_stmt 1 view .LVU93
 219:../STM32Cube_FW_N6/Middlewares/ST/usbx/common/core/src/ux_device_class_dpump_read_run.c **** 
 261              		.loc 1 219 28 is_stmt 0 view .LVU94
 262 00ba 3260     		str	r2, [r6]
 222:../STM32Cube_FW_N6/Middlewares/ST/usbx/common/core/src/ux_device_class_dpump_read_run.c ****                 transfer_request -> ux_slave_transfer_request_requested_length)
 263              		.loc 1 222 13 is_stmt 1 view .LVU95
 222:../STM32Cube_FW_N6/Middlewares/ST/usbx/common/core/src/ux_device_class_dpump_read_run.c ****                 transfer_request -> ux_slave_transfer_request_requested_length)
 264              		.loc 1 222 16 is_stmt 0 view .LVU96
 265 00bc D5E90D32 		ldrd	r3, r2, [r5, #52]
 266 00c0 9A42     		cmp	r2, r3
 267 00c2 02D2     		bcs	.L13
 227:../STM32Cube_FW_N6/Middlewares/ST/usbx/common/core/src/ux_device_class_dpump_read_run.c ****                 return(UX_STATE_NEXT);
 268              		.loc 1 227 17 is_stmt 1 view .LVU97
 227:../STM32Cube_FW_N6/Middlewares/ST/usbx/common/core/src/ux_device_class_dpump_read_run.c ****                 return(UX_STATE_NEXT);
 269              		.loc 1 227 59 is_stmt 0 view .LVU98
 270 00c4 0023     		movs	r3, #0
 271 00c6 6364     		str	r3, [r4, #68]
 228:../STM32Cube_FW_N6/Middlewares/ST/usbx/common/core/src/ux_device_class_dpump_read_run.c ****             }
 272              		.loc 1 228 17 is_stmt 1 view .LVU99
 228:../STM32Cube_FW_N6/Middlewares/ST/usbx/common/core/src/ux_device_class_dpump_read_run.c ****             }
 273              		.loc 1 228 23 is_stmt 0 view .LVU100
 274 00c8 CDE7     		b	.L10
 275              	.L13:
 232:../STM32Cube_FW_N6/Middlewares/ST/usbx/common/core/src/ux_device_class_dpump_read_run.c ****         }
 276              		.loc 1 232 13 is_stmt 1 view .LVU101
 232:../STM32Cube_FW_N6/Middlewares/ST/usbx/common/core/src/ux_device_class_dpump_read_run.c ****         }
 277              		.loc 1 232 55 is_stmt 0 view .LVU102
 278 00ca 2123     		movs	r3, #33
 279 00cc 6364     		str	r3, [r4, #68]
 280 00ce E4E7     		b	.L14
 281              	.LVL31:
 282              	.L8:
 239:../STM32Cube_FW_N6/Middlewares/ST/usbx/common/core/src/ux_device_class_dpump_read_run.c ****         break;
 283              		.loc 1 239 9 is_stmt 1 view .LVU103
 239:../STM32Cube_FW_N6/Middlewares/ST/usbx/common/core/src/ux_device_class_dpump_read_run.c ****         break;
 284              		.loc 1 239 51 is_stmt 0 view .LVU104
 285 00d0 0023     		movs	r3, #0
 286              	.LVL32:
 239:../STM32Cube_FW_N6/Middlewares/ST/usbx/common/core/src/ux_device_class_dpump_read_run.c ****         break;
 287              		.loc 1 239 51 view .LVU105
 288 00d2 4364     		str	r3, [r0, #68]
 289              	.LVL33:
 240:../STM32Cube_FW_N6/Middlewares/ST/usbx/common/core/src/ux_device_class_dpump_read_run.c ****     }
 290              		.loc 1 240 9 is_stmt 1 view .LVU106
 244:../STM32Cube_FW_N6/Middlewares/ST/usbx/common/core/src/ux_device_class_dpump_read_run.c **** }
 291              		.loc 1 244 5 view .LVU107
 244:../STM32Cube_FW_N6/Middlewares/ST/usbx/common/core/src/ux_device_class_dpump_read_run.c **** }
 292              		.loc 1 244 11 is_stmt 0 view .LVU108
 293 00d4 A5E7     		b	.L3
 294              	.L23:
 295 00d6 00BF     		.align	2
 296              	.L22:
 297 00d8 00000000 		.word	_ux_system_slave
ARM GAS  /tmp/cclBITku.s 			page 12


 298              		.cfi_endproc
 299              	.LFE3:
 301              		.text
 302              	.Letext0:
 303              		.file 2 "../STM32Cube_FW_N6/Middlewares/ST/usbx/ports/generic/inc/ux_port.h"
 304              		.file 3 "../STM32Cube_FW_N6/Middlewares/ST/usbx/common/core/inc/ux_api.h"
 305              		.file 4 "../STM32Cube_FW_N6/Middlewares/ST/usbx/common/core/inc/ux_device_class_dpump.h"
 306              		.file 5 "../STM32Cube_FW_N6/Middlewares/ST/usbx/common/core/inc/ux_utility.h"
 307              		.file 6 "../STM32Cube_FW_N6/Middlewares/ST/usbx/common/core/inc/ux_system.h"
 308              		.file 7 "../STM32Cube_FW_N6/Middlewares/ST/usbx/common/core/inc/ux_device_stack.h"
ARM GAS  /tmp/cclBITku.s 			page 13

