ARM GAS  /tmp/ccAG6Pne.s 			page 1


   1              		.arch armv8.1-m.main
   2              		.fpu fpv5-d16
   3              		.arch_extension dsp
   4              		.arch_extension fp
   5              		.arch_extension fp.dp
   6              		.arch_extension mve
   7              		.arch_extension mve.fp
   8              		.eabi_attribute 5, "cortex-m55"
   9              		.eabi_attribute 28, 1
  10              		.eabi_attribute 20, 1
  11              		.eabi_attribute 21, 1
  12              		.eabi_attribute 23, 3
  13              		.eabi_attribute 24, 1
  14              		.eabi_attribute 25, 1
  15              		.eabi_attribute 26, 1
  16              		.eabi_attribute 30, 4
  17              		.eabi_attribute 34, 1
  18              		.eabi_attribute 38, 1
  19              		.eabi_attribute 18, 4
  20              		.file	"ux_device_stack_transfer_abort.c"
  21              		.text
  22              	.Ltext0:
  23              		.cfi_sections	.debug_frame
  24              		.file 1 "../STM32Cube_FW_N6/Middlewares/ST/usbx/common/core/src/ux_device_stack_transfer_abort.c"
  25              		.section	.text._ux_device_stack_transfer_abort,"ax",%progbits
  26              		.align	1
  27              		.global	_ux_device_stack_transfer_abort
  28              		.syntax unified
  29              		.thumb
  30              		.thumb_func
  32              	_ux_device_stack_transfer_abort:
  33              	.LVL0:
  34              	.LFB3:
   1:../STM32Cube_FW_N6/Middlewares/ST/usbx/common/core/src/ux_device_stack_transfer_abort.c **** /**************************************************************************/
   2:../STM32Cube_FW_N6/Middlewares/ST/usbx/common/core/src/ux_device_stack_transfer_abort.c **** /*                                                                        */
   3:../STM32Cube_FW_N6/Middlewares/ST/usbx/common/core/src/ux_device_stack_transfer_abort.c **** /*       Copyright (c) Microsoft Corporation. All rights reserved.        */
   4:../STM32Cube_FW_N6/Middlewares/ST/usbx/common/core/src/ux_device_stack_transfer_abort.c **** /*                                                                        */
   5:../STM32Cube_FW_N6/Middlewares/ST/usbx/common/core/src/ux_device_stack_transfer_abort.c **** /*       This software is licensed under the Microsoft Software License   */
   6:../STM32Cube_FW_N6/Middlewares/ST/usbx/common/core/src/ux_device_stack_transfer_abort.c **** /*       Terms for Microsoft Azure RTOS. Full text of the license can be  */
   7:../STM32Cube_FW_N6/Middlewares/ST/usbx/common/core/src/ux_device_stack_transfer_abort.c **** /*       found in the LICENSE file at https://aka.ms/AzureRTOS_EULA       */
   8:../STM32Cube_FW_N6/Middlewares/ST/usbx/common/core/src/ux_device_stack_transfer_abort.c **** /*       and in the root directory of this software.                      */
   9:../STM32Cube_FW_N6/Middlewares/ST/usbx/common/core/src/ux_device_stack_transfer_abort.c **** /*                                                                        */
  10:../STM32Cube_FW_N6/Middlewares/ST/usbx/common/core/src/ux_device_stack_transfer_abort.c **** /**************************************************************************/
  11:../STM32Cube_FW_N6/Middlewares/ST/usbx/common/core/src/ux_device_stack_transfer_abort.c **** 
  12:../STM32Cube_FW_N6/Middlewares/ST/usbx/common/core/src/ux_device_stack_transfer_abort.c **** 
  13:../STM32Cube_FW_N6/Middlewares/ST/usbx/common/core/src/ux_device_stack_transfer_abort.c **** /**************************************************************************/
  14:../STM32Cube_FW_N6/Middlewares/ST/usbx/common/core/src/ux_device_stack_transfer_abort.c **** /**************************************************************************/
  15:../STM32Cube_FW_N6/Middlewares/ST/usbx/common/core/src/ux_device_stack_transfer_abort.c **** /**                                                                       */ 
  16:../STM32Cube_FW_N6/Middlewares/ST/usbx/common/core/src/ux_device_stack_transfer_abort.c **** /** USBX Component                                                        */ 
  17:../STM32Cube_FW_N6/Middlewares/ST/usbx/common/core/src/ux_device_stack_transfer_abort.c **** /**                                                                       */
  18:../STM32Cube_FW_N6/Middlewares/ST/usbx/common/core/src/ux_device_stack_transfer_abort.c **** /**   Device Stack                                                        */
  19:../STM32Cube_FW_N6/Middlewares/ST/usbx/common/core/src/ux_device_stack_transfer_abort.c **** /**                                                                       */
  20:../STM32Cube_FW_N6/Middlewares/ST/usbx/common/core/src/ux_device_stack_transfer_abort.c **** /**************************************************************************/
  21:../STM32Cube_FW_N6/Middlewares/ST/usbx/common/core/src/ux_device_stack_transfer_abort.c **** /**************************************************************************/
  22:../STM32Cube_FW_N6/Middlewares/ST/usbx/common/core/src/ux_device_stack_transfer_abort.c **** 
  23:../STM32Cube_FW_N6/Middlewares/ST/usbx/common/core/src/ux_device_stack_transfer_abort.c **** #define UX_SOURCE_CODE
  24:../STM32Cube_FW_N6/Middlewares/ST/usbx/common/core/src/ux_device_stack_transfer_abort.c **** 
ARM GAS  /tmp/ccAG6Pne.s 			page 2


  25:../STM32Cube_FW_N6/Middlewares/ST/usbx/common/core/src/ux_device_stack_transfer_abort.c **** 
  26:../STM32Cube_FW_N6/Middlewares/ST/usbx/common/core/src/ux_device_stack_transfer_abort.c **** /* Include necessary system files.  */
  27:../STM32Cube_FW_N6/Middlewares/ST/usbx/common/core/src/ux_device_stack_transfer_abort.c **** 
  28:../STM32Cube_FW_N6/Middlewares/ST/usbx/common/core/src/ux_device_stack_transfer_abort.c **** #include "ux_api.h"
  29:../STM32Cube_FW_N6/Middlewares/ST/usbx/common/core/src/ux_device_stack_transfer_abort.c **** #include "ux_device_stack.h"
  30:../STM32Cube_FW_N6/Middlewares/ST/usbx/common/core/src/ux_device_stack_transfer_abort.c **** 
  31:../STM32Cube_FW_N6/Middlewares/ST/usbx/common/core/src/ux_device_stack_transfer_abort.c **** 
  32:../STM32Cube_FW_N6/Middlewares/ST/usbx/common/core/src/ux_device_stack_transfer_abort.c **** /**************************************************************************/
  33:../STM32Cube_FW_N6/Middlewares/ST/usbx/common/core/src/ux_device_stack_transfer_abort.c **** /*                                                                        */
  34:../STM32Cube_FW_N6/Middlewares/ST/usbx/common/core/src/ux_device_stack_transfer_abort.c **** /*  FUNCTION                                               RELEASE        */
  35:../STM32Cube_FW_N6/Middlewares/ST/usbx/common/core/src/ux_device_stack_transfer_abort.c **** /*                                                                        */
  36:../STM32Cube_FW_N6/Middlewares/ST/usbx/common/core/src/ux_device_stack_transfer_abort.c **** /*    _ux_device_stack_transfer_abort                     PORTABLE C      */
  37:../STM32Cube_FW_N6/Middlewares/ST/usbx/common/core/src/ux_device_stack_transfer_abort.c **** /*                                                           6.1.10       */
  38:../STM32Cube_FW_N6/Middlewares/ST/usbx/common/core/src/ux_device_stack_transfer_abort.c **** /*  AUTHOR                                                                */
  39:../STM32Cube_FW_N6/Middlewares/ST/usbx/common/core/src/ux_device_stack_transfer_abort.c **** /*                                                                        */
  40:../STM32Cube_FW_N6/Middlewares/ST/usbx/common/core/src/ux_device_stack_transfer_abort.c **** /*    Chaoqiong Xiao, Microsoft Corporation                               */
  41:../STM32Cube_FW_N6/Middlewares/ST/usbx/common/core/src/ux_device_stack_transfer_abort.c **** /*                                                                        */
  42:../STM32Cube_FW_N6/Middlewares/ST/usbx/common/core/src/ux_device_stack_transfer_abort.c **** /*  DESCRIPTION                                                           */
  43:../STM32Cube_FW_N6/Middlewares/ST/usbx/common/core/src/ux_device_stack_transfer_abort.c **** /*                                                                        */
  44:../STM32Cube_FW_N6/Middlewares/ST/usbx/common/core/src/ux_device_stack_transfer_abort.c **** /*    This function aborts a pending transfer request that has been       */
  45:../STM32Cube_FW_N6/Middlewares/ST/usbx/common/core/src/ux_device_stack_transfer_abort.c **** /*    previously submitted. This function only cancels a specific         */
  46:../STM32Cube_FW_N6/Middlewares/ST/usbx/common/core/src/ux_device_stack_transfer_abort.c **** /*    transfer request.                                                   */
  47:../STM32Cube_FW_N6/Middlewares/ST/usbx/common/core/src/ux_device_stack_transfer_abort.c **** /*                                                                        */
  48:../STM32Cube_FW_N6/Middlewares/ST/usbx/common/core/src/ux_device_stack_transfer_abort.c **** /*    The call back to the function will have the                         */
  49:../STM32Cube_FW_N6/Middlewares/ST/usbx/common/core/src/ux_device_stack_transfer_abort.c **** /*    UX_TRANSFER_STATUS_ABORT status                                     */
  50:../STM32Cube_FW_N6/Middlewares/ST/usbx/common/core/src/ux_device_stack_transfer_abort.c **** /*                                                                        */
  51:../STM32Cube_FW_N6/Middlewares/ST/usbx/common/core/src/ux_device_stack_transfer_abort.c **** /*  INPUT                                                                 */
  52:../STM32Cube_FW_N6/Middlewares/ST/usbx/common/core/src/ux_device_stack_transfer_abort.c **** /*                                                                        */
  53:../STM32Cube_FW_N6/Middlewares/ST/usbx/common/core/src/ux_device_stack_transfer_abort.c **** /*    transfer_request                      Pointer to transfer request   */
  54:../STM32Cube_FW_N6/Middlewares/ST/usbx/common/core/src/ux_device_stack_transfer_abort.c **** /*    completion_code                       Completion code               */
  55:../STM32Cube_FW_N6/Middlewares/ST/usbx/common/core/src/ux_device_stack_transfer_abort.c **** /*                                                                        */
  56:../STM32Cube_FW_N6/Middlewares/ST/usbx/common/core/src/ux_device_stack_transfer_abort.c **** /*  OUTPUT                                                                */
  57:../STM32Cube_FW_N6/Middlewares/ST/usbx/common/core/src/ux_device_stack_transfer_abort.c **** /*                                                                        */
  58:../STM32Cube_FW_N6/Middlewares/ST/usbx/common/core/src/ux_device_stack_transfer_abort.c **** /*    Completion Status                                                   */ 
  59:../STM32Cube_FW_N6/Middlewares/ST/usbx/common/core/src/ux_device_stack_transfer_abort.c **** /*                                                                        */
  60:../STM32Cube_FW_N6/Middlewares/ST/usbx/common/core/src/ux_device_stack_transfer_abort.c **** /*  CALLS                                                                 */ 
  61:../STM32Cube_FW_N6/Middlewares/ST/usbx/common/core/src/ux_device_stack_transfer_abort.c **** /*                                                                        */ 
  62:../STM32Cube_FW_N6/Middlewares/ST/usbx/common/core/src/ux_device_stack_transfer_abort.c **** /*    _ux_utility_semaphore_put             Put semaphore                 */ 
  63:../STM32Cube_FW_N6/Middlewares/ST/usbx/common/core/src/ux_device_stack_transfer_abort.c **** /*                                                                        */ 
  64:../STM32Cube_FW_N6/Middlewares/ST/usbx/common/core/src/ux_device_stack_transfer_abort.c **** /*  CALLED BY                                                             */ 
  65:../STM32Cube_FW_N6/Middlewares/ST/usbx/common/core/src/ux_device_stack_transfer_abort.c **** /*                                                                        */ 
  66:../STM32Cube_FW_N6/Middlewares/ST/usbx/common/core/src/ux_device_stack_transfer_abort.c **** /*    Application                                                         */ 
  67:../STM32Cube_FW_N6/Middlewares/ST/usbx/common/core/src/ux_device_stack_transfer_abort.c **** /*    Device Stack                                                        */
  68:../STM32Cube_FW_N6/Middlewares/ST/usbx/common/core/src/ux_device_stack_transfer_abort.c **** /*                                                                        */ 
  69:../STM32Cube_FW_N6/Middlewares/ST/usbx/common/core/src/ux_device_stack_transfer_abort.c **** /*  RELEASE HISTORY                                                       */ 
  70:../STM32Cube_FW_N6/Middlewares/ST/usbx/common/core/src/ux_device_stack_transfer_abort.c **** /*                                                                        */ 
  71:../STM32Cube_FW_N6/Middlewares/ST/usbx/common/core/src/ux_device_stack_transfer_abort.c **** /*    DATE              NAME                      DESCRIPTION             */ 
  72:../STM32Cube_FW_N6/Middlewares/ST/usbx/common/core/src/ux_device_stack_transfer_abort.c **** /*                                                                        */ 
  73:../STM32Cube_FW_N6/Middlewares/ST/usbx/common/core/src/ux_device_stack_transfer_abort.c **** /*  05-19-2020     Chaoqiong Xiao           Initial Version 6.0           */
  74:../STM32Cube_FW_N6/Middlewares/ST/usbx/common/core/src/ux_device_stack_transfer_abort.c **** /*  09-30-2020     Chaoqiong Xiao           Modified comment(s),          */
  75:../STM32Cube_FW_N6/Middlewares/ST/usbx/common/core/src/ux_device_stack_transfer_abort.c **** /*                                            used UX prefix to refer to  */
  76:../STM32Cube_FW_N6/Middlewares/ST/usbx/common/core/src/ux_device_stack_transfer_abort.c **** /*                                            TX symbols instead of using */
  77:../STM32Cube_FW_N6/Middlewares/ST/usbx/common/core/src/ux_device_stack_transfer_abort.c **** /*                                            them directly,              */
  78:../STM32Cube_FW_N6/Middlewares/ST/usbx/common/core/src/ux_device_stack_transfer_abort.c **** /*                                            resulting in version 6.1    */
  79:../STM32Cube_FW_N6/Middlewares/ST/usbx/common/core/src/ux_device_stack_transfer_abort.c **** /*  01-31-2022     Chaoqiong Xiao           Modified comment(s),          */
  80:../STM32Cube_FW_N6/Middlewares/ST/usbx/common/core/src/ux_device_stack_transfer_abort.c **** /*                                            added standalone support,   */
  81:../STM32Cube_FW_N6/Middlewares/ST/usbx/common/core/src/ux_device_stack_transfer_abort.c **** /*                                            assigned aborting code,     */
ARM GAS  /tmp/ccAG6Pne.s 			page 3


  82:../STM32Cube_FW_N6/Middlewares/ST/usbx/common/core/src/ux_device_stack_transfer_abort.c **** /*                                            resulting in version 6.1.10 */
  83:../STM32Cube_FW_N6/Middlewares/ST/usbx/common/core/src/ux_device_stack_transfer_abort.c **** /*                                                                        */
  84:../STM32Cube_FW_N6/Middlewares/ST/usbx/common/core/src/ux_device_stack_transfer_abort.c **** /**************************************************************************/
  85:../STM32Cube_FW_N6/Middlewares/ST/usbx/common/core/src/ux_device_stack_transfer_abort.c **** UINT  _ux_device_stack_transfer_abort(UX_SLAVE_TRANSFER *transfer_request, ULONG completion_code)
  86:../STM32Cube_FW_N6/Middlewares/ST/usbx/common/core/src/ux_device_stack_transfer_abort.c **** {
  35              		.loc 1 86 1 view -0
  36              		.cfi_startproc
  37              		@ args = 0, pretend = 0, frame = 0
  38              		@ frame_needed = 0, uses_anonymous_args = 0
  87:../STM32Cube_FW_N6/Middlewares/ST/usbx/common/core/src/ux_device_stack_transfer_abort.c **** 
  88:../STM32Cube_FW_N6/Middlewares/ST/usbx/common/core/src/ux_device_stack_transfer_abort.c **** UX_INTERRUPT_SAVE_AREA
  39              		.loc 1 88 1 view .LVU1
  89:../STM32Cube_FW_N6/Middlewares/ST/usbx/common/core/src/ux_device_stack_transfer_abort.c **** 
  90:../STM32Cube_FW_N6/Middlewares/ST/usbx/common/core/src/ux_device_stack_transfer_abort.c **** UX_SLAVE_DCD    *dcd;
  40              		.loc 1 90 1 view .LVU2
  91:../STM32Cube_FW_N6/Middlewares/ST/usbx/common/core/src/ux_device_stack_transfer_abort.c **** 
  92:../STM32Cube_FW_N6/Middlewares/ST/usbx/common/core/src/ux_device_stack_transfer_abort.c ****     UX_PARAMETER_NOT_USED(completion_code);
  41              		.loc 1 92 5 view .LVU3
  93:../STM32Cube_FW_N6/Middlewares/ST/usbx/common/core/src/ux_device_stack_transfer_abort.c **** 
  94:../STM32Cube_FW_N6/Middlewares/ST/usbx/common/core/src/ux_device_stack_transfer_abort.c ****     /* If trace is enabled, insert this event into the trace buffer.  */
  95:../STM32Cube_FW_N6/Middlewares/ST/usbx/common/core/src/ux_device_stack_transfer_abort.c ****     UX_TRACE_IN_LINE_INSERT(UX_TRACE_DEVICE_STACK_TRANSFER_ABORT, transfer_request, completion_code
  96:../STM32Cube_FW_N6/Middlewares/ST/usbx/common/core/src/ux_device_stack_transfer_abort.c **** 
  97:../STM32Cube_FW_N6/Middlewares/ST/usbx/common/core/src/ux_device_stack_transfer_abort.c ****     /* Get the pointer to the DCD.  */
  98:../STM32Cube_FW_N6/Middlewares/ST/usbx/common/core/src/ux_device_stack_transfer_abort.c ****     dcd =  &_ux_system_slave -> ux_system_slave_dcd;
  42              		.loc 1 98 5 view .LVU4
  86:../STM32Cube_FW_N6/Middlewares/ST/usbx/common/core/src/ux_device_stack_transfer_abort.c **** 
  43              		.loc 1 86 1 is_stmt 0 view .LVU5
  44 0000 70B5     		push	{r4, r5, r6, lr}
  45              		.cfi_def_cfa_offset 16
  46              		.cfi_offset 4, -16
  47              		.cfi_offset 5, -12
  48              		.cfi_offset 6, -8
  49              		.cfi_offset 14, -4
  86:../STM32Cube_FW_N6/Middlewares/ST/usbx/common/core/src/ux_device_stack_transfer_abort.c **** 
  50              		.loc 1 86 1 view .LVU6
  51 0002 0446     		mov	r4, r0
  52              		.loc 1 98 30 view .LVU7
  53 0004 0B4B     		ldr	r3, .L4
  99:../STM32Cube_FW_N6/Middlewares/ST/usbx/common/core/src/ux_device_stack_transfer_abort.c **** 
 100:../STM32Cube_FW_N6/Middlewares/ST/usbx/common/core/src/ux_device_stack_transfer_abort.c ****     /* Sets the completion code due to bus reset.  */
 101:../STM32Cube_FW_N6/Middlewares/ST/usbx/common/core/src/ux_device_stack_transfer_abort.c ****     transfer_request -> ux_slave_transfer_request_completion_code = completion_code;
  54              		.loc 1 101 67 view .LVU8
  55 0006 4162     		str	r1, [r0, #36]
  98:../STM32Cube_FW_N6/Middlewares/ST/usbx/common/core/src/ux_device_stack_transfer_abort.c **** 
  56              		.loc 1 98 30 view .LVU9
  57 0008 1E68     		ldr	r6, [r3]
  58              	.LVL1:
  59              		.loc 1 101 5 is_stmt 1 view .LVU10
 102:../STM32Cube_FW_N6/Middlewares/ST/usbx/common/core/src/ux_device_stack_transfer_abort.c **** 
 103:../STM32Cube_FW_N6/Middlewares/ST/usbx/common/core/src/ux_device_stack_transfer_abort.c ****     /* Ensure we're not preempted by the transfer completion ISR.  */
 104:../STM32Cube_FW_N6/Middlewares/ST/usbx/common/core/src/ux_device_stack_transfer_abort.c ****     UX_DISABLE
  60              		.loc 1 104 5 view .LVU11
  61 000a FFF7FEFF 		bl	_ux_utility_interrupt_disable
  62              	.LVL2:
 105:../STM32Cube_FW_N6/Middlewares/ST/usbx/common/core/src/ux_device_stack_transfer_abort.c **** 
 106:../STM32Cube_FW_N6/Middlewares/ST/usbx/common/core/src/ux_device_stack_transfer_abort.c ****     /* It's possible the transfer already completed. Ensure it hasn't before doing the abort.  */
 107:../STM32Cube_FW_N6/Middlewares/ST/usbx/common/core/src/ux_device_stack_transfer_abort.c ****     if (transfer_request -> ux_slave_transfer_request_status == UX_TRANSFER_STATUS_PENDING)
ARM GAS  /tmp/ccAG6Pne.s 			page 4


  63              		.loc 1 107 8 is_stmt 0 view .LVU12
  64 000e 2368     		ldr	r3, [r4]
 104:../STM32Cube_FW_N6/Middlewares/ST/usbx/common/core/src/ux_device_stack_transfer_abort.c **** 
  65              		.loc 1 104 5 view .LVU13
  66 0010 0546     		mov	r5, r0
  67              	.LVL3:
  68              		.loc 1 107 5 is_stmt 1 view .LVU14
  69              		.loc 1 107 8 is_stmt 0 view .LVU15
  70 0012 012B     		cmp	r3, #1
  71 0014 0BD1     		bne	.L2
 108:../STM32Cube_FW_N6/Middlewares/ST/usbx/common/core/src/ux_device_stack_transfer_abort.c ****     {
 109:../STM32Cube_FW_N6/Middlewares/ST/usbx/common/core/src/ux_device_stack_transfer_abort.c **** 
 110:../STM32Cube_FW_N6/Middlewares/ST/usbx/common/core/src/ux_device_stack_transfer_abort.c ****         /* Call the DCD if necessary for cleaning up the pending transfer.  */
 111:../STM32Cube_FW_N6/Middlewares/ST/usbx/common/core/src/ux_device_stack_transfer_abort.c ****         dcd -> ux_slave_dcd_function(dcd, UX_DCD_TRANSFER_ABORT, (VOID *) transfer_request);
  72              		.loc 1 111 9 is_stmt 1 view .LVU16
  73 0016 B369     		ldr	r3, [r6, #24]
  74 0018 2246     		mov	r2, r4
  75 001a 0D21     		movs	r1, #13
  76 001c 3046     		mov	r0, r6
  77              	.LVL4:
  78              		.loc 1 111 9 is_stmt 0 view .LVU17
  79 001e 9847     		blx	r3
  80              	.LVL5:
 112:../STM32Cube_FW_N6/Middlewares/ST/usbx/common/core/src/ux_device_stack_transfer_abort.c **** 
 113:../STM32Cube_FW_N6/Middlewares/ST/usbx/common/core/src/ux_device_stack_transfer_abort.c ****         /* Restore interrupts. Note that the transfer request should not be modified now.  */
 114:../STM32Cube_FW_N6/Middlewares/ST/usbx/common/core/src/ux_device_stack_transfer_abort.c ****         UX_RESTORE
  81              		.loc 1 114 9 is_stmt 1 view .LVU18
  82 0020 2846     		mov	r0, r5
  83 0022 FFF7FEFF 		bl	_ux_utility_interrupt_restore
  84              	.LVL6:
 115:../STM32Cube_FW_N6/Middlewares/ST/usbx/common/core/src/ux_device_stack_transfer_abort.c **** 
 116:../STM32Cube_FW_N6/Middlewares/ST/usbx/common/core/src/ux_device_stack_transfer_abort.c ****         /* We need to set the completion code for the transfer to aborted. Note
 117:../STM32Cube_FW_N6/Middlewares/ST/usbx/common/core/src/ux_device_stack_transfer_abort.c ****            that the transfer request function cannot simultaneously modify this 
 118:../STM32Cube_FW_N6/Middlewares/ST/usbx/common/core/src/ux_device_stack_transfer_abort.c ****            because if the transfer was pending, then the transfer's thread is 
 119:../STM32Cube_FW_N6/Middlewares/ST/usbx/common/core/src/ux_device_stack_transfer_abort.c ****            currently waiting for it to complete.  */
 120:../STM32Cube_FW_N6/Middlewares/ST/usbx/common/core/src/ux_device_stack_transfer_abort.c ****         transfer_request -> ux_slave_transfer_request_status =  UX_TRANSFER_STATUS_ABORT;
  85              		.loc 1 120 9 view .LVU19
  86              		.loc 1 120 62 is_stmt 0 view .LVU20
  87 0026 0423     		movs	r3, #4
  88 0028 2360     		str	r3, [r4]
 121:../STM32Cube_FW_N6/Middlewares/ST/usbx/common/core/src/ux_device_stack_transfer_abort.c **** 
 122:../STM32Cube_FW_N6/Middlewares/ST/usbx/common/core/src/ux_device_stack_transfer_abort.c ****         /* Wake up the device driver who is waiting on the semaphore.  */
 123:../STM32Cube_FW_N6/Middlewares/ST/usbx/common/core/src/ux_device_stack_transfer_abort.c ****         _ux_device_semaphore_put(&transfer_request -> ux_slave_transfer_request_semaphore);
  89              		.loc 1 123 9 is_stmt 1 view .LVU21
  90              		.loc 1 123 9 view .LVU22
  91              		.loc 1 123 9 view .LVU23
  92              	.L3:
 124:../STM32Cube_FW_N6/Middlewares/ST/usbx/common/core/src/ux_device_stack_transfer_abort.c ****     }
 125:../STM32Cube_FW_N6/Middlewares/ST/usbx/common/core/src/ux_device_stack_transfer_abort.c ****     else
 126:../STM32Cube_FW_N6/Middlewares/ST/usbx/common/core/src/ux_device_stack_transfer_abort.c ****     {
 127:../STM32Cube_FW_N6/Middlewares/ST/usbx/common/core/src/ux_device_stack_transfer_abort.c **** 
 128:../STM32Cube_FW_N6/Middlewares/ST/usbx/common/core/src/ux_device_stack_transfer_abort.c ****         /* Restore interrupts.  */
 129:../STM32Cube_FW_N6/Middlewares/ST/usbx/common/core/src/ux_device_stack_transfer_abort.c ****         UX_RESTORE
 130:../STM32Cube_FW_N6/Middlewares/ST/usbx/common/core/src/ux_device_stack_transfer_abort.c ****     }
 131:../STM32Cube_FW_N6/Middlewares/ST/usbx/common/core/src/ux_device_stack_transfer_abort.c **** 
 132:../STM32Cube_FW_N6/Middlewares/ST/usbx/common/core/src/ux_device_stack_transfer_abort.c ****     /* This function never fails.  */
 133:../STM32Cube_FW_N6/Middlewares/ST/usbx/common/core/src/ux_device_stack_transfer_abort.c ****     return(UX_SUCCESS);       
ARM GAS  /tmp/ccAG6Pne.s 			page 5


  93              		.loc 1 133 5 view .LVU24
 134:../STM32Cube_FW_N6/Middlewares/ST/usbx/common/core/src/ux_device_stack_transfer_abort.c **** }
  94              		.loc 1 134 1 is_stmt 0 view .LVU25
  95 002a 0020     		movs	r0, #0
  96 002c 70BD     		pop	{r4, r5, r6, pc}
  97              	.LVL7:
  98              	.L2:
 129:../STM32Cube_FW_N6/Middlewares/ST/usbx/common/core/src/ux_device_stack_transfer_abort.c ****     }
  99              		.loc 1 129 9 is_stmt 1 view .LVU26
 100 002e FFF7FEFF 		bl	_ux_utility_interrupt_restore
 101              	.LVL8:
 129:../STM32Cube_FW_N6/Middlewares/ST/usbx/common/core/src/ux_device_stack_transfer_abort.c ****     }
 102              		.loc 1 129 9 is_stmt 0 view .LVU27
 103 0032 FAE7     		b	.L3
 104              	.L5:
 105              		.align	2
 106              	.L4:
 107 0034 00000000 		.word	_ux_system_slave
 108              		.cfi_endproc
 109              	.LFE3:
 111              		.text
 112              	.Letext0:
 113              		.file 2 "../STM32Cube_FW_N6/Middlewares/ST/usbx/ports/generic/inc/ux_port.h"
 114              		.file 3 "../STM32Cube_FW_N6/Middlewares/ST/usbx/common/core/inc/ux_api.h"
 115              		.file 4 "../STM32Cube_FW_N6/Middlewares/ST/usbx/common/core/inc/ux_system.h"
 116              		.file 5 "../STM32Cube_FW_N6/Middlewares/ST/usbx/common/core/inc/ux_utility.h"
ARM GAS  /tmp/ccAG6Pne.s 			page 6

