ARM GAS  /tmp/cc1PmeW1.s 			page 1


   1              		.arch armv8.1-m.main
   2              		.fpu fpv5-d16
   3              		.arch_extension dsp
   4              		.arch_extension fp
   5              		.arch_extension fp.dp
   6              		.arch_extension mve
   7              		.arch_extension mve.fp
   8              		.eabi_attribute 5, "cortex-m55"
   9              		.eabi_attribute 28, 1
  10              		.eabi_attribute 20, 1
  11              		.eabi_attribute 21, 1
  12              		.eabi_attribute 23, 3
  13              		.eabi_attribute 24, 1
  14              		.eabi_attribute 25, 1
  15              		.eabi_attribute 26, 1
  16              		.eabi_attribute 30, 4
  17              		.eabi_attribute 34, 1
  18              		.eabi_attribute 38, 1
  19              		.eabi_attribute 18, 4
  20              		.file	"ux_device_stack_transfer_request.c"
  21              		.text
  22              	.Ltext0:
  23              		.cfi_sections	.debug_frame
  24              		.file 1 "../STM32Cube_FW_N6/Middlewares/ST/usbx/common/core/src/ux_device_stack_transfer_request.c
  25              		.section	.text._ux_device_stack_transfer_request,"ax",%progbits
  26              		.align	1
  27              		.global	_ux_device_stack_transfer_request
  28              		.syntax unified
  29              		.thumb
  30              		.thumb_func
  32              	_ux_device_stack_transfer_request:
  33              	.LVL0:
  34              	.LFB3:
   1:../STM32Cube_FW_N6/Middlewares/ST/usbx/common/core/src/ux_device_stack_transfer_request.c **** /**************************************************************************/
   2:../STM32Cube_FW_N6/Middlewares/ST/usbx/common/core/src/ux_device_stack_transfer_request.c **** /*                                                                        */
   3:../STM32Cube_FW_N6/Middlewares/ST/usbx/common/core/src/ux_device_stack_transfer_request.c **** /*       Copyright (c) Microsoft Corporation. All rights reserved.        */
   4:../STM32Cube_FW_N6/Middlewares/ST/usbx/common/core/src/ux_device_stack_transfer_request.c **** /*                                                                        */
   5:../STM32Cube_FW_N6/Middlewares/ST/usbx/common/core/src/ux_device_stack_transfer_request.c **** /*       This software is licensed under the Microsoft Software License   */
   6:../STM32Cube_FW_N6/Middlewares/ST/usbx/common/core/src/ux_device_stack_transfer_request.c **** /*       Terms for Microsoft Azure RTOS. Full text of the license can be  */
   7:../STM32Cube_FW_N6/Middlewares/ST/usbx/common/core/src/ux_device_stack_transfer_request.c **** /*       found in the LICENSE file at https://aka.ms/AzureRTOS_EULA       */
   8:../STM32Cube_FW_N6/Middlewares/ST/usbx/common/core/src/ux_device_stack_transfer_request.c **** /*       and in the root directory of this software.                      */
   9:../STM32Cube_FW_N6/Middlewares/ST/usbx/common/core/src/ux_device_stack_transfer_request.c **** /*                                                                        */
  10:../STM32Cube_FW_N6/Middlewares/ST/usbx/common/core/src/ux_device_stack_transfer_request.c **** /**************************************************************************/
  11:../STM32Cube_FW_N6/Middlewares/ST/usbx/common/core/src/ux_device_stack_transfer_request.c **** 
  12:../STM32Cube_FW_N6/Middlewares/ST/usbx/common/core/src/ux_device_stack_transfer_request.c **** 
  13:../STM32Cube_FW_N6/Middlewares/ST/usbx/common/core/src/ux_device_stack_transfer_request.c **** /**************************************************************************/
  14:../STM32Cube_FW_N6/Middlewares/ST/usbx/common/core/src/ux_device_stack_transfer_request.c **** /**************************************************************************/
  15:../STM32Cube_FW_N6/Middlewares/ST/usbx/common/core/src/ux_device_stack_transfer_request.c **** /**                                                                       */ 
  16:../STM32Cube_FW_N6/Middlewares/ST/usbx/common/core/src/ux_device_stack_transfer_request.c **** /** USBX Component                                                        */ 
  17:../STM32Cube_FW_N6/Middlewares/ST/usbx/common/core/src/ux_device_stack_transfer_request.c **** /**                                                                       */
  18:../STM32Cube_FW_N6/Middlewares/ST/usbx/common/core/src/ux_device_stack_transfer_request.c **** /**   Device Stack                                                        */
  19:../STM32Cube_FW_N6/Middlewares/ST/usbx/common/core/src/ux_device_stack_transfer_request.c **** /**                                                                       */
  20:../STM32Cube_FW_N6/Middlewares/ST/usbx/common/core/src/ux_device_stack_transfer_request.c **** /**************************************************************************/
  21:../STM32Cube_FW_N6/Middlewares/ST/usbx/common/core/src/ux_device_stack_transfer_request.c **** /**************************************************************************/
  22:../STM32Cube_FW_N6/Middlewares/ST/usbx/common/core/src/ux_device_stack_transfer_request.c **** 
  23:../STM32Cube_FW_N6/Middlewares/ST/usbx/common/core/src/ux_device_stack_transfer_request.c **** #define UX_SOURCE_CODE
  24:../STM32Cube_FW_N6/Middlewares/ST/usbx/common/core/src/ux_device_stack_transfer_request.c **** 
ARM GAS  /tmp/cc1PmeW1.s 			page 2


  25:../STM32Cube_FW_N6/Middlewares/ST/usbx/common/core/src/ux_device_stack_transfer_request.c **** 
  26:../STM32Cube_FW_N6/Middlewares/ST/usbx/common/core/src/ux_device_stack_transfer_request.c **** /* Include necessary system files.  */
  27:../STM32Cube_FW_N6/Middlewares/ST/usbx/common/core/src/ux_device_stack_transfer_request.c **** 
  28:../STM32Cube_FW_N6/Middlewares/ST/usbx/common/core/src/ux_device_stack_transfer_request.c **** #include "ux_api.h"
  29:../STM32Cube_FW_N6/Middlewares/ST/usbx/common/core/src/ux_device_stack_transfer_request.c **** #include "ux_device_stack.h"
  30:../STM32Cube_FW_N6/Middlewares/ST/usbx/common/core/src/ux_device_stack_transfer_request.c **** 
  31:../STM32Cube_FW_N6/Middlewares/ST/usbx/common/core/src/ux_device_stack_transfer_request.c **** 
  32:../STM32Cube_FW_N6/Middlewares/ST/usbx/common/core/src/ux_device_stack_transfer_request.c **** /**************************************************************************/
  33:../STM32Cube_FW_N6/Middlewares/ST/usbx/common/core/src/ux_device_stack_transfer_request.c **** /*                                                                        */
  34:../STM32Cube_FW_N6/Middlewares/ST/usbx/common/core/src/ux_device_stack_transfer_request.c **** /*  FUNCTION                                               RELEASE        */
  35:../STM32Cube_FW_N6/Middlewares/ST/usbx/common/core/src/ux_device_stack_transfer_request.c **** /*                                                                        */
  36:../STM32Cube_FW_N6/Middlewares/ST/usbx/common/core/src/ux_device_stack_transfer_request.c **** /*    _ux_device_stack_transfer_request                   PORTABLE C      */
  37:../STM32Cube_FW_N6/Middlewares/ST/usbx/common/core/src/ux_device_stack_transfer_request.c **** /*                                                           6.1.10       */
  38:../STM32Cube_FW_N6/Middlewares/ST/usbx/common/core/src/ux_device_stack_transfer_request.c **** /*  AUTHOR                                                                */
  39:../STM32Cube_FW_N6/Middlewares/ST/usbx/common/core/src/ux_device_stack_transfer_request.c **** /*                                                                        */
  40:../STM32Cube_FW_N6/Middlewares/ST/usbx/common/core/src/ux_device_stack_transfer_request.c **** /*    Chaoqiong Xiao, Microsoft Corporation                               */
  41:../STM32Cube_FW_N6/Middlewares/ST/usbx/common/core/src/ux_device_stack_transfer_request.c **** /*                                                                        */
  42:../STM32Cube_FW_N6/Middlewares/ST/usbx/common/core/src/ux_device_stack_transfer_request.c **** /*  DESCRIPTION                                                           */
  43:../STM32Cube_FW_N6/Middlewares/ST/usbx/common/core/src/ux_device_stack_transfer_request.c **** /*                                                                        */
  44:../STM32Cube_FW_N6/Middlewares/ST/usbx/common/core/src/ux_device_stack_transfer_request.c **** /*    This function performs a USB transaction. On entry the              */
  45:../STM32Cube_FW_N6/Middlewares/ST/usbx/common/core/src/ux_device_stack_transfer_request.c **** /*    transfer request gives the endpoint pipe selected for this          */
  46:../STM32Cube_FW_N6/Middlewares/ST/usbx/common/core/src/ux_device_stack_transfer_request.c **** /*    transaction and the parameters associated with the transfer         */
  47:../STM32Cube_FW_N6/Middlewares/ST/usbx/common/core/src/ux_device_stack_transfer_request.c **** /*    (data payload, length of transaction).                              */
  48:../STM32Cube_FW_N6/Middlewares/ST/usbx/common/core/src/ux_device_stack_transfer_request.c **** /*                                                                        */
  49:../STM32Cube_FW_N6/Middlewares/ST/usbx/common/core/src/ux_device_stack_transfer_request.c **** /*  INPUT                                                                 */
  50:../STM32Cube_FW_N6/Middlewares/ST/usbx/common/core/src/ux_device_stack_transfer_request.c **** /*                                                                        */
  51:../STM32Cube_FW_N6/Middlewares/ST/usbx/common/core/src/ux_device_stack_transfer_request.c **** /*    transfer_request                      Pointer to transfer request   */
  52:../STM32Cube_FW_N6/Middlewares/ST/usbx/common/core/src/ux_device_stack_transfer_request.c **** /*    slave_length                          Length returned by host       */
  53:../STM32Cube_FW_N6/Middlewares/ST/usbx/common/core/src/ux_device_stack_transfer_request.c **** /*    host_length                           Length asked by host          */
  54:../STM32Cube_FW_N6/Middlewares/ST/usbx/common/core/src/ux_device_stack_transfer_request.c **** /*                                                                        */
  55:../STM32Cube_FW_N6/Middlewares/ST/usbx/common/core/src/ux_device_stack_transfer_request.c **** /*  OUTPUT                                                                */
  56:../STM32Cube_FW_N6/Middlewares/ST/usbx/common/core/src/ux_device_stack_transfer_request.c **** /*                                                                        */
  57:../STM32Cube_FW_N6/Middlewares/ST/usbx/common/core/src/ux_device_stack_transfer_request.c **** /*    Completion Status                                                   */ 
  58:../STM32Cube_FW_N6/Middlewares/ST/usbx/common/core/src/ux_device_stack_transfer_request.c **** /*                                                                        */
  59:../STM32Cube_FW_N6/Middlewares/ST/usbx/common/core/src/ux_device_stack_transfer_request.c **** /*  CALLS                                                                 */ 
  60:../STM32Cube_FW_N6/Middlewares/ST/usbx/common/core/src/ux_device_stack_transfer_request.c **** /*                                                                        */ 
  61:../STM32Cube_FW_N6/Middlewares/ST/usbx/common/core/src/ux_device_stack_transfer_request.c **** /*    (ux_slave_dcd_function)               Slave DCD dispatch function   */ 
  62:../STM32Cube_FW_N6/Middlewares/ST/usbx/common/core/src/ux_device_stack_transfer_request.c **** /*    _ux_utility_delay_ms                  Delay ms                      */ 
  63:../STM32Cube_FW_N6/Middlewares/ST/usbx/common/core/src/ux_device_stack_transfer_request.c **** /*                                                                        */ 
  64:../STM32Cube_FW_N6/Middlewares/ST/usbx/common/core/src/ux_device_stack_transfer_request.c **** /*  CALLED BY                                                             */ 
  65:../STM32Cube_FW_N6/Middlewares/ST/usbx/common/core/src/ux_device_stack_transfer_request.c **** /*                                                                        */ 
  66:../STM32Cube_FW_N6/Middlewares/ST/usbx/common/core/src/ux_device_stack_transfer_request.c **** /*    Application                                                         */ 
  67:../STM32Cube_FW_N6/Middlewares/ST/usbx/common/core/src/ux_device_stack_transfer_request.c **** /*    Device Stack                                                        */
  68:../STM32Cube_FW_N6/Middlewares/ST/usbx/common/core/src/ux_device_stack_transfer_request.c **** /*                                                                        */ 
  69:../STM32Cube_FW_N6/Middlewares/ST/usbx/common/core/src/ux_device_stack_transfer_request.c **** /*  RELEASE HISTORY                                                       */ 
  70:../STM32Cube_FW_N6/Middlewares/ST/usbx/common/core/src/ux_device_stack_transfer_request.c **** /*                                                                        */ 
  71:../STM32Cube_FW_N6/Middlewares/ST/usbx/common/core/src/ux_device_stack_transfer_request.c **** /*    DATE              NAME                      DESCRIPTION             */ 
  72:../STM32Cube_FW_N6/Middlewares/ST/usbx/common/core/src/ux_device_stack_transfer_request.c **** /*                                                                        */ 
  73:../STM32Cube_FW_N6/Middlewares/ST/usbx/common/core/src/ux_device_stack_transfer_request.c **** /*  05-19-2020     Chaoqiong Xiao           Initial Version 6.0           */
  74:../STM32Cube_FW_N6/Middlewares/ST/usbx/common/core/src/ux_device_stack_transfer_request.c **** /*  09-30-2020     Chaoqiong Xiao           Modified comment(s),          */
  75:../STM32Cube_FW_N6/Middlewares/ST/usbx/common/core/src/ux_device_stack_transfer_request.c **** /*                                            used UX prefix to refer to  */
  76:../STM32Cube_FW_N6/Middlewares/ST/usbx/common/core/src/ux_device_stack_transfer_request.c **** /*                                            TX symbols instead of using */
  77:../STM32Cube_FW_N6/Middlewares/ST/usbx/common/core/src/ux_device_stack_transfer_request.c **** /*                                            them directly,              */
  78:../STM32Cube_FW_N6/Middlewares/ST/usbx/common/core/src/ux_device_stack_transfer_request.c **** /*                                            resulting in version 6.1    */
  79:../STM32Cube_FW_N6/Middlewares/ST/usbx/common/core/src/ux_device_stack_transfer_request.c **** /*  01-31-2022     Chaoqiong Xiao           Modified comment(s),          */
  80:../STM32Cube_FW_N6/Middlewares/ST/usbx/common/core/src/ux_device_stack_transfer_request.c **** /*                                            added standalone support,   */
  81:../STM32Cube_FW_N6/Middlewares/ST/usbx/common/core/src/ux_device_stack_transfer_request.c **** /*                                            resulting in version 6.1.10 */
ARM GAS  /tmp/cc1PmeW1.s 			page 3


  82:../STM32Cube_FW_N6/Middlewares/ST/usbx/common/core/src/ux_device_stack_transfer_request.c **** /*                                                                        */
  83:../STM32Cube_FW_N6/Middlewares/ST/usbx/common/core/src/ux_device_stack_transfer_request.c **** /**************************************************************************/
  84:../STM32Cube_FW_N6/Middlewares/ST/usbx/common/core/src/ux_device_stack_transfer_request.c **** UINT  _ux_device_stack_transfer_request(UX_SLAVE_TRANSFER *transfer_request, 
  85:../STM32Cube_FW_N6/Middlewares/ST/usbx/common/core/src/ux_device_stack_transfer_request.c ****                                             ULONG slave_length, 
  86:../STM32Cube_FW_N6/Middlewares/ST/usbx/common/core/src/ux_device_stack_transfer_request.c ****                                             ULONG host_length)
  87:../STM32Cube_FW_N6/Middlewares/ST/usbx/common/core/src/ux_device_stack_transfer_request.c **** {
  35              		.loc 1 87 1 view -0
  36              		.cfi_startproc
  37              		@ args = 0, pretend = 0, frame = 0
  38              		@ frame_needed = 0, uses_anonymous_args = 0
  88:../STM32Cube_FW_N6/Middlewares/ST/usbx/common/core/src/ux_device_stack_transfer_request.c **** #if defined(UX_DEVICE_STANDALONE)
  89:../STM32Cube_FW_N6/Middlewares/ST/usbx/common/core/src/ux_device_stack_transfer_request.c **** UINT            status;
  39              		.loc 1 89 1 view .LVU1
  90:../STM32Cube_FW_N6/Middlewares/ST/usbx/common/core/src/ux_device_stack_transfer_request.c **** 
  91:../STM32Cube_FW_N6/Middlewares/ST/usbx/common/core/src/ux_device_stack_transfer_request.c ****     /* Start a transfer request without waiting it end.  */
  92:../STM32Cube_FW_N6/Middlewares/ST/usbx/common/core/src/ux_device_stack_transfer_request.c ****     UX_SLAVE_TRANSFER_STATE_RESET(transfer_request);
  40              		.loc 1 92 5 view .LVU2
  87:../STM32Cube_FW_N6/Middlewares/ST/usbx/common/core/src/ux_device_stack_transfer_request.c **** #if defined(UX_DEVICE_STANDALONE)
  41              		.loc 1 87 1 is_stmt 0 view .LVU3
  42 0000 38B5     		push	{r3, r4, r5, lr}
  43              		.cfi_def_cfa_offset 16
  44              		.cfi_offset 3, -16
  45              		.cfi_offset 4, -12
  46              		.cfi_offset 5, -8
  47              		.cfi_offset 14, -4
  48              		.loc 1 92 5 view .LVU4
  49 0002 0024     		movs	r4, #0
  50 0004 0463     		str	r4, [r0, #48]
  93:../STM32Cube_FW_N6/Middlewares/ST/usbx/common/core/src/ux_device_stack_transfer_request.c ****     status = _ux_device_stack_transfer_run(transfer_request, slave_length, host_length);
  51              		.loc 1 93 5 is_stmt 1 view .LVU5
  87:../STM32Cube_FW_N6/Middlewares/ST/usbx/common/core/src/ux_device_stack_transfer_request.c **** #if defined(UX_DEVICE_STANDALONE)
  52              		.loc 1 87 1 is_stmt 0 view .LVU6
  53 0006 0546     		mov	r5, r0
  54              		.loc 1 93 14 view .LVU7
  55 0008 FFF7FEFF 		bl	_ux_device_stack_transfer_run
  56              	.LVL1:
  94:../STM32Cube_FW_N6/Middlewares/ST/usbx/common/core/src/ux_device_stack_transfer_request.c ****     if (status == UX_STATE_LOCK)
  57              		.loc 1 94 8 view .LVU8
  58 000c 0628     		cmp	r0, #6
  93:../STM32Cube_FW_N6/Middlewares/ST/usbx/common/core/src/ux_device_stack_transfer_request.c ****     status = _ux_device_stack_transfer_run(transfer_request, slave_length, host_length);
  59              		.loc 1 93 14 view .LVU9
  60 000e 0346     		mov	r3, r0
  61              	.LVL2:
  62              		.loc 1 94 5 is_stmt 1 view .LVU10
  63              		.loc 1 94 8 is_stmt 0 view .LVU11
  64 0010 04D0     		beq	.L3
  95:../STM32Cube_FW_N6/Middlewares/ST/usbx/common/core/src/ux_device_stack_transfer_request.c ****         return(UX_BUSY);
  96:../STM32Cube_FW_N6/Middlewares/ST/usbx/common/core/src/ux_device_stack_transfer_request.c ****     if (status < UX_STATE_NEXT)
  65              		.loc 1 96 5 is_stmt 1 view .LVU12
  66              		.loc 1 96 8 is_stmt 0 view .LVU13
  67 0012 032B     		cmp	r3, #3
  97:../STM32Cube_FW_N6/Middlewares/ST/usbx/common/core/src/ux_device_stack_transfer_request.c ****         return(transfer_request -> ux_slave_transfer_request_completion_code);
  98:../STM32Cube_FW_N6/Middlewares/ST/usbx/common/core/src/ux_device_stack_transfer_request.c **** 
  99:../STM32Cube_FW_N6/Middlewares/ST/usbx/common/core/src/ux_device_stack_transfer_request.c ****     /* Started/done, things will be done in BG  */
 100:../STM32Cube_FW_N6/Middlewares/ST/usbx/common/core/src/ux_device_stack_transfer_request.c ****     return(UX_SUCCESS);
  68              		.loc 1 100 11 view .LVU14
  69 0014 2046     		mov	r0, r4
ARM GAS  /tmp/cc1PmeW1.s 			page 4


  70              	.LVL3:
  96:../STM32Cube_FW_N6/Middlewares/ST/usbx/common/core/src/ux_device_stack_transfer_request.c ****         return(transfer_request -> ux_slave_transfer_request_completion_code);
  71              		.loc 1 96 8 view .LVU15
  72 0016 00D8     		bhi	.L1
  97:../STM32Cube_FW_N6/Middlewares/ST/usbx/common/core/src/ux_device_stack_transfer_request.c ****         return(transfer_request -> ux_slave_transfer_request_completion_code);
  73              		.loc 1 97 9 is_stmt 1 view .LVU16
  97:../STM32Cube_FW_N6/Middlewares/ST/usbx/common/core/src/ux_device_stack_transfer_request.c ****         return(transfer_request -> ux_slave_transfer_request_completion_code);
  74              		.loc 1 97 33 is_stmt 0 view .LVU17
  75 0018 686A     		ldr	r0, [r5, #36]
  76              	.L1:
 101:../STM32Cube_FW_N6/Middlewares/ST/usbx/common/core/src/ux_device_stack_transfer_request.c **** #else
 102:../STM32Cube_FW_N6/Middlewares/ST/usbx/common/core/src/ux_device_stack_transfer_request.c **** UX_INTERRUPT_SAVE_AREA
 103:../STM32Cube_FW_N6/Middlewares/ST/usbx/common/core/src/ux_device_stack_transfer_request.c **** 
 104:../STM32Cube_FW_N6/Middlewares/ST/usbx/common/core/src/ux_device_stack_transfer_request.c **** UX_SLAVE_DCD            *dcd;
 105:../STM32Cube_FW_N6/Middlewares/ST/usbx/common/core/src/ux_device_stack_transfer_request.c **** UINT                    status;
 106:../STM32Cube_FW_N6/Middlewares/ST/usbx/common/core/src/ux_device_stack_transfer_request.c **** UX_SLAVE_ENDPOINT       *endpoint;
 107:../STM32Cube_FW_N6/Middlewares/ST/usbx/common/core/src/ux_device_stack_transfer_request.c **** ULONG                   device_state;
 108:../STM32Cube_FW_N6/Middlewares/ST/usbx/common/core/src/ux_device_stack_transfer_request.c **** 
 109:../STM32Cube_FW_N6/Middlewares/ST/usbx/common/core/src/ux_device_stack_transfer_request.c **** 
 110:../STM32Cube_FW_N6/Middlewares/ST/usbx/common/core/src/ux_device_stack_transfer_request.c ****     /* Do we have to skip this transfer?  */
 111:../STM32Cube_FW_N6/Middlewares/ST/usbx/common/core/src/ux_device_stack_transfer_request.c ****     if (transfer_request -> ux_slave_transfer_request_status_phase_ignore == UX_TRUE)
 112:../STM32Cube_FW_N6/Middlewares/ST/usbx/common/core/src/ux_device_stack_transfer_request.c ****         return(UX_SUCCESS);
 113:../STM32Cube_FW_N6/Middlewares/ST/usbx/common/core/src/ux_device_stack_transfer_request.c **** 
 114:../STM32Cube_FW_N6/Middlewares/ST/usbx/common/core/src/ux_device_stack_transfer_request.c ****     /* Disable interrupts to prevent the disconnection ISR from preempting us
 115:../STM32Cube_FW_N6/Middlewares/ST/usbx/common/core/src/ux_device_stack_transfer_request.c ****        while we check the device state and set the transfer status.  */
 116:../STM32Cube_FW_N6/Middlewares/ST/usbx/common/core/src/ux_device_stack_transfer_request.c ****     UX_DISABLE
 117:../STM32Cube_FW_N6/Middlewares/ST/usbx/common/core/src/ux_device_stack_transfer_request.c **** 
 118:../STM32Cube_FW_N6/Middlewares/ST/usbx/common/core/src/ux_device_stack_transfer_request.c ****     /* Get the device state.  */
 119:../STM32Cube_FW_N6/Middlewares/ST/usbx/common/core/src/ux_device_stack_transfer_request.c ****     device_state =  _ux_system_slave -> ux_system_slave_device.ux_slave_device_state;
 120:../STM32Cube_FW_N6/Middlewares/ST/usbx/common/core/src/ux_device_stack_transfer_request.c **** 
 121:../STM32Cube_FW_N6/Middlewares/ST/usbx/common/core/src/ux_device_stack_transfer_request.c ****     /* We can only transfer when the device is ATTACHED, ADDRESSED OR CONFIGURED.  */
 122:../STM32Cube_FW_N6/Middlewares/ST/usbx/common/core/src/ux_device_stack_transfer_request.c ****     if ((device_state == UX_DEVICE_ATTACHED) || (device_state == UX_DEVICE_ADDRESSED)
 123:../STM32Cube_FW_N6/Middlewares/ST/usbx/common/core/src/ux_device_stack_transfer_request.c ****             || (device_state == UX_DEVICE_CONFIGURED))
 124:../STM32Cube_FW_N6/Middlewares/ST/usbx/common/core/src/ux_device_stack_transfer_request.c **** 
 125:../STM32Cube_FW_N6/Middlewares/ST/usbx/common/core/src/ux_device_stack_transfer_request.c ****         /* Set the transfer to pending.  */
 126:../STM32Cube_FW_N6/Middlewares/ST/usbx/common/core/src/ux_device_stack_transfer_request.c ****         transfer_request -> ux_slave_transfer_request_status =  UX_TRANSFER_STATUS_PENDING; 
 127:../STM32Cube_FW_N6/Middlewares/ST/usbx/common/core/src/ux_device_stack_transfer_request.c **** 
 128:../STM32Cube_FW_N6/Middlewares/ST/usbx/common/core/src/ux_device_stack_transfer_request.c ****     else
 129:../STM32Cube_FW_N6/Middlewares/ST/usbx/common/core/src/ux_device_stack_transfer_request.c ****     {
 130:../STM32Cube_FW_N6/Middlewares/ST/usbx/common/core/src/ux_device_stack_transfer_request.c **** 
 131:../STM32Cube_FW_N6/Middlewares/ST/usbx/common/core/src/ux_device_stack_transfer_request.c ****         /* The device is in an invalid state. Restore interrupts and return error.  */
 132:../STM32Cube_FW_N6/Middlewares/ST/usbx/common/core/src/ux_device_stack_transfer_request.c ****         UX_RESTORE
 133:../STM32Cube_FW_N6/Middlewares/ST/usbx/common/core/src/ux_device_stack_transfer_request.c ****         return(UX_TRANSFER_NOT_READY);
 134:../STM32Cube_FW_N6/Middlewares/ST/usbx/common/core/src/ux_device_stack_transfer_request.c ****     }
 135:../STM32Cube_FW_N6/Middlewares/ST/usbx/common/core/src/ux_device_stack_transfer_request.c **** 
 136:../STM32Cube_FW_N6/Middlewares/ST/usbx/common/core/src/ux_device_stack_transfer_request.c ****     /* Restore interrupts.  */
 137:../STM32Cube_FW_N6/Middlewares/ST/usbx/common/core/src/ux_device_stack_transfer_request.c ****     UX_RESTORE
 138:../STM32Cube_FW_N6/Middlewares/ST/usbx/common/core/src/ux_device_stack_transfer_request.c ****                     
 139:../STM32Cube_FW_N6/Middlewares/ST/usbx/common/core/src/ux_device_stack_transfer_request.c ****     /* If trace is enabled, insert this event into the trace buffer.  */
 140:../STM32Cube_FW_N6/Middlewares/ST/usbx/common/core/src/ux_device_stack_transfer_request.c ****     UX_TRACE_IN_LINE_INSERT(UX_TRACE_DEVICE_STACK_TRANSFER_REQUEST, transfer_request, 0, 0, 0, UX_T
 141:../STM32Cube_FW_N6/Middlewares/ST/usbx/common/core/src/ux_device_stack_transfer_request.c **** 
 142:../STM32Cube_FW_N6/Middlewares/ST/usbx/common/core/src/ux_device_stack_transfer_request.c ****     /* Get the pointer to the DCD.  */
 143:../STM32Cube_FW_N6/Middlewares/ST/usbx/common/core/src/ux_device_stack_transfer_request.c ****     dcd =  &_ux_system_slave -> ux_system_slave_dcd;
 144:../STM32Cube_FW_N6/Middlewares/ST/usbx/common/core/src/ux_device_stack_transfer_request.c **** 
 145:../STM32Cube_FW_N6/Middlewares/ST/usbx/common/core/src/ux_device_stack_transfer_request.c ****     /* Get the endpoint associated with this transaction.  */
 146:../STM32Cube_FW_N6/Middlewares/ST/usbx/common/core/src/ux_device_stack_transfer_request.c ****     endpoint =  transfer_request -> ux_slave_transfer_request_endpoint;
 147:../STM32Cube_FW_N6/Middlewares/ST/usbx/common/core/src/ux_device_stack_transfer_request.c ****     
ARM GAS  /tmp/cc1PmeW1.s 			page 5


 148:../STM32Cube_FW_N6/Middlewares/ST/usbx/common/core/src/ux_device_stack_transfer_request.c ****     /* If the endpoint is non Control, check the endpoint direction and set the data phase directio
 149:../STM32Cube_FW_N6/Middlewares/ST/usbx/common/core/src/ux_device_stack_transfer_request.c ****     if ((endpoint -> ux_slave_endpoint_descriptor.bmAttributes & UX_MASK_ENDPOINT_TYPE) != UX_CONTR
 150:../STM32Cube_FW_N6/Middlewares/ST/usbx/common/core/src/ux_device_stack_transfer_request.c ****     {
 151:../STM32Cube_FW_N6/Middlewares/ST/usbx/common/core/src/ux_device_stack_transfer_request.c **** 
 152:../STM32Cube_FW_N6/Middlewares/ST/usbx/common/core/src/ux_device_stack_transfer_request.c ****         /* Check if the endpoint is STALLED. In this case, we must refuse the transaction until the
 153:../STM32Cube_FW_N6/Middlewares/ST/usbx/common/core/src/ux_device_stack_transfer_request.c ****            has been reset by the host.  */
 154:../STM32Cube_FW_N6/Middlewares/ST/usbx/common/core/src/ux_device_stack_transfer_request.c ****         while (endpoint -> ux_slave_endpoint_state == UX_ENDPOINT_HALTED)
 155:../STM32Cube_FW_N6/Middlewares/ST/usbx/common/core/src/ux_device_stack_transfer_request.c **** 
 156:../STM32Cube_FW_N6/Middlewares/ST/usbx/common/core/src/ux_device_stack_transfer_request.c ****             /* Wait for 100ms for endpoint to be reset by a CLEAR_FEATURE command.  */
 157:../STM32Cube_FW_N6/Middlewares/ST/usbx/common/core/src/ux_device_stack_transfer_request.c ****             _ux_utility_delay_ms(100);
 158:../STM32Cube_FW_N6/Middlewares/ST/usbx/common/core/src/ux_device_stack_transfer_request.c **** 
 159:../STM32Cube_FW_N6/Middlewares/ST/usbx/common/core/src/ux_device_stack_transfer_request.c ****         /* Isolate the direction from the endpoint address.  */
 160:../STM32Cube_FW_N6/Middlewares/ST/usbx/common/core/src/ux_device_stack_transfer_request.c ****         if ((endpoint -> ux_slave_endpoint_descriptor.bEndpointAddress & UX_ENDPOINT_DIRECTION) == 
 161:../STM32Cube_FW_N6/Middlewares/ST/usbx/common/core/src/ux_device_stack_transfer_request.c ****             transfer_request -> ux_slave_transfer_request_phase =  UX_TRANSFER_PHASE_DATA_OUT;
 162:../STM32Cube_FW_N6/Middlewares/ST/usbx/common/core/src/ux_device_stack_transfer_request.c ****         else    
 163:../STM32Cube_FW_N6/Middlewares/ST/usbx/common/core/src/ux_device_stack_transfer_request.c ****             transfer_request -> ux_slave_transfer_request_phase =  UX_TRANSFER_PHASE_DATA_IN;
 164:../STM32Cube_FW_N6/Middlewares/ST/usbx/common/core/src/ux_device_stack_transfer_request.c ****     }    
 165:../STM32Cube_FW_N6/Middlewares/ST/usbx/common/core/src/ux_device_stack_transfer_request.c **** 
 166:../STM32Cube_FW_N6/Middlewares/ST/usbx/common/core/src/ux_device_stack_transfer_request.c ****     /* See if we need to force a zero length packet at the end of the transfer. 
 167:../STM32Cube_FW_N6/Middlewares/ST/usbx/common/core/src/ux_device_stack_transfer_request.c ****        This happens on a DATA IN and when the host requested length is not met
 168:../STM32Cube_FW_N6/Middlewares/ST/usbx/common/core/src/ux_device_stack_transfer_request.c ****        and the last packet is on a boundary. If slave_length is zero, then it is 
 169:../STM32Cube_FW_N6/Middlewares/ST/usbx/common/core/src/ux_device_stack_transfer_request.c ****        a explicit ZLP request, no need to force ZLP.  */
 170:../STM32Cube_FW_N6/Middlewares/ST/usbx/common/core/src/ux_device_stack_transfer_request.c ****     if ((transfer_request -> ux_slave_transfer_request_phase ==  UX_TRANSFER_PHASE_DATA_OUT) &&
 171:../STM32Cube_FW_N6/Middlewares/ST/usbx/common/core/src/ux_device_stack_transfer_request.c ****         (slave_length != 0) && (host_length != slave_length) && 
 172:../STM32Cube_FW_N6/Middlewares/ST/usbx/common/core/src/ux_device_stack_transfer_request.c ****         (slave_length % endpoint -> ux_slave_endpoint_descriptor.wMaxPacketSize) == 0)
 173:../STM32Cube_FW_N6/Middlewares/ST/usbx/common/core/src/ux_device_stack_transfer_request.c ****     {
 174:../STM32Cube_FW_N6/Middlewares/ST/usbx/common/core/src/ux_device_stack_transfer_request.c **** 
 175:../STM32Cube_FW_N6/Middlewares/ST/usbx/common/core/src/ux_device_stack_transfer_request.c ****         /* If so force Zero Length Packet.  */
 176:../STM32Cube_FW_N6/Middlewares/ST/usbx/common/core/src/ux_device_stack_transfer_request.c ****         transfer_request -> ux_slave_transfer_request_force_zlp =  UX_TRUE;
 177:../STM32Cube_FW_N6/Middlewares/ST/usbx/common/core/src/ux_device_stack_transfer_request.c ****     }
 178:../STM32Cube_FW_N6/Middlewares/ST/usbx/common/core/src/ux_device_stack_transfer_request.c ****     else
 179:../STM32Cube_FW_N6/Middlewares/ST/usbx/common/core/src/ux_device_stack_transfer_request.c ****     {
 180:../STM32Cube_FW_N6/Middlewares/ST/usbx/common/core/src/ux_device_stack_transfer_request.c **** 
 181:../STM32Cube_FW_N6/Middlewares/ST/usbx/common/core/src/ux_device_stack_transfer_request.c ****         /* Condition is not met, do not force a Zero Length Packet.  */
 182:../STM32Cube_FW_N6/Middlewares/ST/usbx/common/core/src/ux_device_stack_transfer_request.c ****         transfer_request -> ux_slave_transfer_request_force_zlp =  UX_FALSE;
 183:../STM32Cube_FW_N6/Middlewares/ST/usbx/common/core/src/ux_device_stack_transfer_request.c ****     }
 184:../STM32Cube_FW_N6/Middlewares/ST/usbx/common/core/src/ux_device_stack_transfer_request.c **** 
 185:../STM32Cube_FW_N6/Middlewares/ST/usbx/common/core/src/ux_device_stack_transfer_request.c ****     /* Reset the number of bytes sent/received.  */
 186:../STM32Cube_FW_N6/Middlewares/ST/usbx/common/core/src/ux_device_stack_transfer_request.c ****     transfer_request -> ux_slave_transfer_request_actual_length =  0;
 187:../STM32Cube_FW_N6/Middlewares/ST/usbx/common/core/src/ux_device_stack_transfer_request.c **** 
 188:../STM32Cube_FW_N6/Middlewares/ST/usbx/common/core/src/ux_device_stack_transfer_request.c ****     /* Determine how many bytes to send in this transaction.  We keep track of the original
 189:../STM32Cube_FW_N6/Middlewares/ST/usbx/common/core/src/ux_device_stack_transfer_request.c ****         length and have a working length.  */
 190:../STM32Cube_FW_N6/Middlewares/ST/usbx/common/core/src/ux_device_stack_transfer_request.c ****     transfer_request -> ux_slave_transfer_request_requested_length =    slave_length;
 191:../STM32Cube_FW_N6/Middlewares/ST/usbx/common/core/src/ux_device_stack_transfer_request.c ****     transfer_request -> ux_slave_transfer_request_in_transfer_length =  slave_length;
 192:../STM32Cube_FW_N6/Middlewares/ST/usbx/common/core/src/ux_device_stack_transfer_request.c **** 
 193:../STM32Cube_FW_N6/Middlewares/ST/usbx/common/core/src/ux_device_stack_transfer_request.c ****     /* Save the buffer pointer.  */
 194:../STM32Cube_FW_N6/Middlewares/ST/usbx/common/core/src/ux_device_stack_transfer_request.c ****     transfer_request -> ux_slave_transfer_request_current_data_pointer =  
 195:../STM32Cube_FW_N6/Middlewares/ST/usbx/common/core/src/ux_device_stack_transfer_request.c ****                             transfer_request -> ux_slave_transfer_request_data_pointer;
 196:../STM32Cube_FW_N6/Middlewares/ST/usbx/common/core/src/ux_device_stack_transfer_request.c **** 
 197:../STM32Cube_FW_N6/Middlewares/ST/usbx/common/core/src/ux_device_stack_transfer_request.c ****     /* Call the DCD driver transfer function.   */
 198:../STM32Cube_FW_N6/Middlewares/ST/usbx/common/core/src/ux_device_stack_transfer_request.c ****     status =  dcd -> ux_slave_dcd_function(dcd, UX_DCD_TRANSFER_REQUEST, transfer_request);
 199:../STM32Cube_FW_N6/Middlewares/ST/usbx/common/core/src/ux_device_stack_transfer_request.c **** 
 200:../STM32Cube_FW_N6/Middlewares/ST/usbx/common/core/src/ux_device_stack_transfer_request.c ****     /* And return the status.  */
 201:../STM32Cube_FW_N6/Middlewares/ST/usbx/common/core/src/ux_device_stack_transfer_request.c ****     return(status);
 202:../STM32Cube_FW_N6/Middlewares/ST/usbx/common/core/src/ux_device_stack_transfer_request.c **** 
 203:../STM32Cube_FW_N6/Middlewares/ST/usbx/common/core/src/ux_device_stack_transfer_request.c **** #endif
 204:../STM32Cube_FW_N6/Middlewares/ST/usbx/common/core/src/ux_device_stack_transfer_request.c **** }
ARM GAS  /tmp/cc1PmeW1.s 			page 6


  77              		.loc 1 204 1 view .LVU18
  78 001a 38BD     		pop	{r3, r4, r5, pc}
  79              	.LVL4:
  80              	.L3:
  95:../STM32Cube_FW_N6/Middlewares/ST/usbx/common/core/src/ux_device_stack_transfer_request.c ****     if (status < UX_STATE_NEXT)
  81              		.loc 1 95 15 view .LVU19
  82 001c FE20     		movs	r0, #254
  83              	.LVL5:
  95:../STM32Cube_FW_N6/Middlewares/ST/usbx/common/core/src/ux_device_stack_transfer_request.c ****     if (status < UX_STATE_NEXT)
  84              		.loc 1 95 15 view .LVU20
  85 001e FCE7     		b	.L1
  86              		.cfi_endproc
  87              	.LFE3:
  89              		.text
  90              	.Letext0:
  91              		.file 2 "../STM32Cube_FW_N6/Middlewares/ST/usbx/ports/generic/inc/ux_port.h"
  92              		.file 3 "../STM32Cube_FW_N6/Middlewares/ST/usbx/common/core/inc/ux_api.h"
  93              		.file 4 "../STM32Cube_FW_N6/Middlewares/ST/usbx/common/core/inc/ux_device_stack.h"
ARM GAS  /tmp/cc1PmeW1.s 			page 7

