ARM GAS  /tmp/cc4jpTWk.s 			page 1


   1              		.arch armv8.1-m.main
   2              		.fpu fpv5-d16
   3              		.arch_extension dsp
   4              		.arch_extension fp
   5              		.arch_extension fp.dp
   6              		.arch_extension mve
   7              		.arch_extension mve.fp
   8              		.eabi_attribute 5, "cortex-m55"
   9              		.eabi_attribute 28, 1
  10              		.eabi_attribute 20, 1
  11              		.eabi_attribute 21, 1
  12              		.eabi_attribute 23, 3
  13              		.eabi_attribute 24, 1
  14              		.eabi_attribute 25, 1
  15              		.eabi_attribute 26, 1
  16              		.eabi_attribute 30, 4
  17              		.eabi_attribute 34, 1
  18              		.eabi_attribute 38, 1
  19              		.eabi_attribute 18, 4
  20              		.file	"ux_dcd_stm32_callback.c"
  21              		.text
  22              	.Ltext0:
  23              		.cfi_sections	.debug_frame
  24              		.file 1 "../STM32Cube_FW_N6/Middlewares/ST/usbx/common/usbx_stm32_device_controllers/ux_dcd_stm32_
  25              		.section	.text._ux_dcd_stm32_setup_isr_pending,"ax",%progbits
  26              		.align	1
  27              		.global	_ux_dcd_stm32_setup_isr_pending
  28              		.syntax unified
  29              		.thumb
  30              		.thumb_func
  32              	_ux_dcd_stm32_setup_isr_pending:
  33              	.LVL0:
  34              	.LFB888:
   1:../STM32Cube_FW_N6/Middlewares/ST/usbx/common/usbx_stm32_device_controllers/ux_dcd_stm32_callback.c **** /**************************************************************************/
   2:../STM32Cube_FW_N6/Middlewares/ST/usbx/common/usbx_stm32_device_controllers/ux_dcd_stm32_callback.c **** /*                                                                        */
   3:../STM32Cube_FW_N6/Middlewares/ST/usbx/common/usbx_stm32_device_controllers/ux_dcd_stm32_callback.c **** /*       Copyright (c) Microsoft Corporation. All rights reserved.        */
   4:../STM32Cube_FW_N6/Middlewares/ST/usbx/common/usbx_stm32_device_controllers/ux_dcd_stm32_callback.c **** /*                                                                        */
   5:../STM32Cube_FW_N6/Middlewares/ST/usbx/common/usbx_stm32_device_controllers/ux_dcd_stm32_callback.c **** /*       This software is licensed under the Microsoft Software License   */
   6:../STM32Cube_FW_N6/Middlewares/ST/usbx/common/usbx_stm32_device_controllers/ux_dcd_stm32_callback.c **** /*       Terms for Microsoft Azure RTOS. Full text of the license can be  */
   7:../STM32Cube_FW_N6/Middlewares/ST/usbx/common/usbx_stm32_device_controllers/ux_dcd_stm32_callback.c **** /*       found in the LICENSE file at https://aka.ms/AzureRTOS_EULA       */
   8:../STM32Cube_FW_N6/Middlewares/ST/usbx/common/usbx_stm32_device_controllers/ux_dcd_stm32_callback.c **** /*       and in the root directory of this software.                      */
   9:../STM32Cube_FW_N6/Middlewares/ST/usbx/common/usbx_stm32_device_controllers/ux_dcd_stm32_callback.c **** /*                                                                        */
  10:../STM32Cube_FW_N6/Middlewares/ST/usbx/common/usbx_stm32_device_controllers/ux_dcd_stm32_callback.c **** /**************************************************************************/
  11:../STM32Cube_FW_N6/Middlewares/ST/usbx/common/usbx_stm32_device_controllers/ux_dcd_stm32_callback.c **** 
  12:../STM32Cube_FW_N6/Middlewares/ST/usbx/common/usbx_stm32_device_controllers/ux_dcd_stm32_callback.c **** 
  13:../STM32Cube_FW_N6/Middlewares/ST/usbx/common/usbx_stm32_device_controllers/ux_dcd_stm32_callback.c **** /**************************************************************************/
  14:../STM32Cube_FW_N6/Middlewares/ST/usbx/common/usbx_stm32_device_controllers/ux_dcd_stm32_callback.c **** /**************************************************************************/
  15:../STM32Cube_FW_N6/Middlewares/ST/usbx/common/usbx_stm32_device_controllers/ux_dcd_stm32_callback.c **** /**                                                                       */
  16:../STM32Cube_FW_N6/Middlewares/ST/usbx/common/usbx_stm32_device_controllers/ux_dcd_stm32_callback.c **** /** USBX Component                                                        */
  17:../STM32Cube_FW_N6/Middlewares/ST/usbx/common/usbx_stm32_device_controllers/ux_dcd_stm32_callback.c **** /**                                                                       */
  18:../STM32Cube_FW_N6/Middlewares/ST/usbx/common/usbx_stm32_device_controllers/ux_dcd_stm32_callback.c **** /**   STM32 Controller Driver                                             */
  19:../STM32Cube_FW_N6/Middlewares/ST/usbx/common/usbx_stm32_device_controllers/ux_dcd_stm32_callback.c **** /**                                                                       */
  20:../STM32Cube_FW_N6/Middlewares/ST/usbx/common/usbx_stm32_device_controllers/ux_dcd_stm32_callback.c **** /**************************************************************************/
  21:../STM32Cube_FW_N6/Middlewares/ST/usbx/common/usbx_stm32_device_controllers/ux_dcd_stm32_callback.c **** /**************************************************************************/
  22:../STM32Cube_FW_N6/Middlewares/ST/usbx/common/usbx_stm32_device_controllers/ux_dcd_stm32_callback.c **** 
  23:../STM32Cube_FW_N6/Middlewares/ST/usbx/common/usbx_stm32_device_controllers/ux_dcd_stm32_callback.c **** #define UX_SOURCE_CODE
  24:../STM32Cube_FW_N6/Middlewares/ST/usbx/common/usbx_stm32_device_controllers/ux_dcd_stm32_callback.c **** #define UX_DCD_STM32_SOURCE_CODE
ARM GAS  /tmp/cc4jpTWk.s 			page 2


  25:../STM32Cube_FW_N6/Middlewares/ST/usbx/common/usbx_stm32_device_controllers/ux_dcd_stm32_callback.c **** 
  26:../STM32Cube_FW_N6/Middlewares/ST/usbx/common/usbx_stm32_device_controllers/ux_dcd_stm32_callback.c **** 
  27:../STM32Cube_FW_N6/Middlewares/ST/usbx/common/usbx_stm32_device_controllers/ux_dcd_stm32_callback.c **** /* Include necessary system files.  */
  28:../STM32Cube_FW_N6/Middlewares/ST/usbx/common/usbx_stm32_device_controllers/ux_dcd_stm32_callback.c **** 
  29:../STM32Cube_FW_N6/Middlewares/ST/usbx/common/usbx_stm32_device_controllers/ux_dcd_stm32_callback.c **** #include "ux_api.h"
  30:../STM32Cube_FW_N6/Middlewares/ST/usbx/common/usbx_stm32_device_controllers/ux_dcd_stm32_callback.c **** #include "ux_dcd_stm32.h"
  31:../STM32Cube_FW_N6/Middlewares/ST/usbx/common/usbx_stm32_device_controllers/ux_dcd_stm32_callback.c **** #include "ux_device_stack.h"
  32:../STM32Cube_FW_N6/Middlewares/ST/usbx/common/usbx_stm32_device_controllers/ux_dcd_stm32_callback.c **** #include "ux_utility.h"
  33:../STM32Cube_FW_N6/Middlewares/ST/usbx/common/usbx_stm32_device_controllers/ux_dcd_stm32_callback.c **** 
  34:../STM32Cube_FW_N6/Middlewares/ST/usbx/common/usbx_stm32_device_controllers/ux_dcd_stm32_callback.c **** 
  35:../STM32Cube_FW_N6/Middlewares/ST/usbx/common/usbx_stm32_device_controllers/ux_dcd_stm32_callback.c **** static inline void _ux_dcd_stm32_setup_in(UX_DCD_STM32_ED * ed, UX_SLAVE_TRANSFER *transfer_request
  36:../STM32Cube_FW_N6/Middlewares/ST/usbx/common/usbx_stm32_device_controllers/ux_dcd_stm32_callback.c **** {
  37:../STM32Cube_FW_N6/Middlewares/ST/usbx/common/usbx_stm32_device_controllers/ux_dcd_stm32_callback.c **** 
  38:../STM32Cube_FW_N6/Middlewares/ST/usbx/common/usbx_stm32_device_controllers/ux_dcd_stm32_callback.c ****     /* The endpoint is IN.  This is important to memorize the direction for the control endpoint
  39:../STM32Cube_FW_N6/Middlewares/ST/usbx/common/usbx_stm32_device_controllers/ux_dcd_stm32_callback.c ****         in case of a STALL. */
  40:../STM32Cube_FW_N6/Middlewares/ST/usbx/common/usbx_stm32_device_controllers/ux_dcd_stm32_callback.c ****     ed -> ux_dcd_stm32_ed_direction = UX_ENDPOINT_IN;
  41:../STM32Cube_FW_N6/Middlewares/ST/usbx/common/usbx_stm32_device_controllers/ux_dcd_stm32_callback.c **** 
  42:../STM32Cube_FW_N6/Middlewares/ST/usbx/common/usbx_stm32_device_controllers/ux_dcd_stm32_callback.c ****     /* Set the state to TX.  */
  43:../STM32Cube_FW_N6/Middlewares/ST/usbx/common/usbx_stm32_device_controllers/ux_dcd_stm32_callback.c ****     ed -> ux_dcd_stm32_ed_state = UX_DCD_STM32_ED_STATE_DATA_TX;
  44:../STM32Cube_FW_N6/Middlewares/ST/usbx/common/usbx_stm32_device_controllers/ux_dcd_stm32_callback.c **** 
  45:../STM32Cube_FW_N6/Middlewares/ST/usbx/common/usbx_stm32_device_controllers/ux_dcd_stm32_callback.c ****     /* Call the Control Transfer dispatcher.  */
  46:../STM32Cube_FW_N6/Middlewares/ST/usbx/common/usbx_stm32_device_controllers/ux_dcd_stm32_callback.c ****     _ux_device_stack_control_request_process(transfer_request);
  47:../STM32Cube_FW_N6/Middlewares/ST/usbx/common/usbx_stm32_device_controllers/ux_dcd_stm32_callback.c **** }
  48:../STM32Cube_FW_N6/Middlewares/ST/usbx/common/usbx_stm32_device_controllers/ux_dcd_stm32_callback.c **** 
  49:../STM32Cube_FW_N6/Middlewares/ST/usbx/common/usbx_stm32_device_controllers/ux_dcd_stm32_callback.c **** static inline void _ux_dcd_stm32_setup_out(UX_DCD_STM32_ED * ed, UX_SLAVE_TRANSFER *transfer_reques
  50:../STM32Cube_FW_N6/Middlewares/ST/usbx/common/usbx_stm32_device_controllers/ux_dcd_stm32_callback.c ****                                            PCD_HandleTypeDef *hpcd)
  51:../STM32Cube_FW_N6/Middlewares/ST/usbx/common/usbx_stm32_device_controllers/ux_dcd_stm32_callback.c **** {
  52:../STM32Cube_FW_N6/Middlewares/ST/usbx/common/usbx_stm32_device_controllers/ux_dcd_stm32_callback.c **** 
  53:../STM32Cube_FW_N6/Middlewares/ST/usbx/common/usbx_stm32_device_controllers/ux_dcd_stm32_callback.c ****     /* Set the completion code to no error.  */
  54:../STM32Cube_FW_N6/Middlewares/ST/usbx/common/usbx_stm32_device_controllers/ux_dcd_stm32_callback.c ****     transfer_request -> ux_slave_transfer_request_completion_code =  UX_SUCCESS;
  55:../STM32Cube_FW_N6/Middlewares/ST/usbx/common/usbx_stm32_device_controllers/ux_dcd_stm32_callback.c **** 
  56:../STM32Cube_FW_N6/Middlewares/ST/usbx/common/usbx_stm32_device_controllers/ux_dcd_stm32_callback.c ****     /* The endpoint is IN.  This is important to memorize the direction for the control endpoint
  57:../STM32Cube_FW_N6/Middlewares/ST/usbx/common/usbx_stm32_device_controllers/ux_dcd_stm32_callback.c ****         in case of a STALL. */
  58:../STM32Cube_FW_N6/Middlewares/ST/usbx/common/usbx_stm32_device_controllers/ux_dcd_stm32_callback.c ****     ed -> ux_dcd_stm32_ed_direction = UX_ENDPOINT_IN;
  59:../STM32Cube_FW_N6/Middlewares/ST/usbx/common/usbx_stm32_device_controllers/ux_dcd_stm32_callback.c **** 
  60:../STM32Cube_FW_N6/Middlewares/ST/usbx/common/usbx_stm32_device_controllers/ux_dcd_stm32_callback.c ****     /* We are using a Control endpoint on a OUT transaction and there was a payload.  */
  61:../STM32Cube_FW_N6/Middlewares/ST/usbx/common/usbx_stm32_device_controllers/ux_dcd_stm32_callback.c ****     if (_ux_device_stack_control_request_process(transfer_request) == UX_SUCCESS)
  62:../STM32Cube_FW_N6/Middlewares/ST/usbx/common/usbx_stm32_device_controllers/ux_dcd_stm32_callback.c ****     {
  63:../STM32Cube_FW_N6/Middlewares/ST/usbx/common/usbx_stm32_device_controllers/ux_dcd_stm32_callback.c **** 
  64:../STM32Cube_FW_N6/Middlewares/ST/usbx/common/usbx_stm32_device_controllers/ux_dcd_stm32_callback.c ****         /* Set the state to STATUS phase TX.  */
  65:../STM32Cube_FW_N6/Middlewares/ST/usbx/common/usbx_stm32_device_controllers/ux_dcd_stm32_callback.c ****         ed -> ux_dcd_stm32_ed_state = UX_DCD_STM32_ED_STATE_STATUS_TX;
  66:../STM32Cube_FW_N6/Middlewares/ST/usbx/common/usbx_stm32_device_controllers/ux_dcd_stm32_callback.c **** 
  67:../STM32Cube_FW_N6/Middlewares/ST/usbx/common/usbx_stm32_device_controllers/ux_dcd_stm32_callback.c ****         /* Arm the status transfer.  */
  68:../STM32Cube_FW_N6/Middlewares/ST/usbx/common/usbx_stm32_device_controllers/ux_dcd_stm32_callback.c ****         HAL_PCD_EP_Transmit(hpcd, 0x00U, UX_NULL, 0U);
  69:../STM32Cube_FW_N6/Middlewares/ST/usbx/common/usbx_stm32_device_controllers/ux_dcd_stm32_callback.c ****     }
  70:../STM32Cube_FW_N6/Middlewares/ST/usbx/common/usbx_stm32_device_controllers/ux_dcd_stm32_callback.c **** }
  71:../STM32Cube_FW_N6/Middlewares/ST/usbx/common/usbx_stm32_device_controllers/ux_dcd_stm32_callback.c **** 
  72:../STM32Cube_FW_N6/Middlewares/ST/usbx/common/usbx_stm32_device_controllers/ux_dcd_stm32_callback.c **** static inline void _ux_dcd_stm32_setup_status(UX_DCD_STM32_ED * ed, UX_SLAVE_TRANSFER *transfer_req
  73:../STM32Cube_FW_N6/Middlewares/ST/usbx/common/usbx_stm32_device_controllers/ux_dcd_stm32_callback.c ****                                               PCD_HandleTypeDef *hpcd)
  74:../STM32Cube_FW_N6/Middlewares/ST/usbx/common/usbx_stm32_device_controllers/ux_dcd_stm32_callback.c **** {
  75:../STM32Cube_FW_N6/Middlewares/ST/usbx/common/usbx_stm32_device_controllers/ux_dcd_stm32_callback.c **** 
  76:../STM32Cube_FW_N6/Middlewares/ST/usbx/common/usbx_stm32_device_controllers/ux_dcd_stm32_callback.c ****     /* The endpoint is IN.  This is important to memorize the direction for the control endpoint
  77:../STM32Cube_FW_N6/Middlewares/ST/usbx/common/usbx_stm32_device_controllers/ux_dcd_stm32_callback.c ****             in case of a STALL. */
  78:../STM32Cube_FW_N6/Middlewares/ST/usbx/common/usbx_stm32_device_controllers/ux_dcd_stm32_callback.c ****     ed -> ux_dcd_stm32_ed_direction = UX_ENDPOINT_IN;
  79:../STM32Cube_FW_N6/Middlewares/ST/usbx/common/usbx_stm32_device_controllers/ux_dcd_stm32_callback.c **** 
  80:../STM32Cube_FW_N6/Middlewares/ST/usbx/common/usbx_stm32_device_controllers/ux_dcd_stm32_callback.c ****     /* Call the Control Transfer dispatcher.  */
  81:../STM32Cube_FW_N6/Middlewares/ST/usbx/common/usbx_stm32_device_controllers/ux_dcd_stm32_callback.c ****     if (_ux_device_stack_control_request_process(transfer_request) == UX_SUCCESS)
ARM GAS  /tmp/cc4jpTWk.s 			page 3


  82:../STM32Cube_FW_N6/Middlewares/ST/usbx/common/usbx_stm32_device_controllers/ux_dcd_stm32_callback.c ****     {
  83:../STM32Cube_FW_N6/Middlewares/ST/usbx/common/usbx_stm32_device_controllers/ux_dcd_stm32_callback.c **** 
  84:../STM32Cube_FW_N6/Middlewares/ST/usbx/common/usbx_stm32_device_controllers/ux_dcd_stm32_callback.c ****         /* Set the state to STATUS RX.  */
  85:../STM32Cube_FW_N6/Middlewares/ST/usbx/common/usbx_stm32_device_controllers/ux_dcd_stm32_callback.c ****         ed -> ux_dcd_stm32_ed_state = UX_DCD_STM32_ED_STATE_STATUS_RX;
  86:../STM32Cube_FW_N6/Middlewares/ST/usbx/common/usbx_stm32_device_controllers/ux_dcd_stm32_callback.c ****         HAL_PCD_EP_Transmit(hpcd, 0x00U, UX_NULL, 0U);
  87:../STM32Cube_FW_N6/Middlewares/ST/usbx/common/usbx_stm32_device_controllers/ux_dcd_stm32_callback.c ****     }
  88:../STM32Cube_FW_N6/Middlewares/ST/usbx/common/usbx_stm32_device_controllers/ux_dcd_stm32_callback.c **** }
  89:../STM32Cube_FW_N6/Middlewares/ST/usbx/common/usbx_stm32_device_controllers/ux_dcd_stm32_callback.c **** 
  90:../STM32Cube_FW_N6/Middlewares/ST/usbx/common/usbx_stm32_device_controllers/ux_dcd_stm32_callback.c **** #if defined(UX_DEVICE_STANDALONE)
  91:../STM32Cube_FW_N6/Middlewares/ST/usbx/common/usbx_stm32_device_controllers/ux_dcd_stm32_callback.c **** /**************************************************************************/
  92:../STM32Cube_FW_N6/Middlewares/ST/usbx/common/usbx_stm32_device_controllers/ux_dcd_stm32_callback.c **** /*                                                                        */
  93:../STM32Cube_FW_N6/Middlewares/ST/usbx/common/usbx_stm32_device_controllers/ux_dcd_stm32_callback.c **** /*  FUNCTION                                                RELEASE       */
  94:../STM32Cube_FW_N6/Middlewares/ST/usbx/common/usbx_stm32_device_controllers/ux_dcd_stm32_callback.c **** /*                                                                        */
  95:../STM32Cube_FW_N6/Middlewares/ST/usbx/common/usbx_stm32_device_controllers/ux_dcd_stm32_callback.c **** /*    _ux_dcd_stm32_setup_isr_pending                      PORTABLE C     */
  96:../STM32Cube_FW_N6/Middlewares/ST/usbx/common/usbx_stm32_device_controllers/ux_dcd_stm32_callback.c **** /*                                                            6.1.10      */
  97:../STM32Cube_FW_N6/Middlewares/ST/usbx/common/usbx_stm32_device_controllers/ux_dcd_stm32_callback.c **** /*  AUTHOR                                                                */
  98:../STM32Cube_FW_N6/Middlewares/ST/usbx/common/usbx_stm32_device_controllers/ux_dcd_stm32_callback.c **** /*                                                                        */
  99:../STM32Cube_FW_N6/Middlewares/ST/usbx/common/usbx_stm32_device_controllers/ux_dcd_stm32_callback.c **** /*    Chaoqiong Xiao, Microsoft Corporation                               */
 100:../STM32Cube_FW_N6/Middlewares/ST/usbx/common/usbx_stm32_device_controllers/ux_dcd_stm32_callback.c **** /*                                                                        */
 101:../STM32Cube_FW_N6/Middlewares/ST/usbx/common/usbx_stm32_device_controllers/ux_dcd_stm32_callback.c **** /*  DESCRIPTION                                                           */
 102:../STM32Cube_FW_N6/Middlewares/ST/usbx/common/usbx_stm32_device_controllers/ux_dcd_stm32_callback.c **** /*                                                                        */
 103:../STM32Cube_FW_N6/Middlewares/ST/usbx/common/usbx_stm32_device_controllers/ux_dcd_stm32_callback.c **** /*    This function handles pending control ISR from HAL driver.          */
 104:../STM32Cube_FW_N6/Middlewares/ST/usbx/common/usbx_stm32_device_controllers/ux_dcd_stm32_callback.c **** /*                                                                        */
 105:../STM32Cube_FW_N6/Middlewares/ST/usbx/common/usbx_stm32_device_controllers/ux_dcd_stm32_callback.c **** /*  INPUT                                                                 */
 106:../STM32Cube_FW_N6/Middlewares/ST/usbx/common/usbx_stm32_device_controllers/ux_dcd_stm32_callback.c **** /*                                                                        */
 107:../STM32Cube_FW_N6/Middlewares/ST/usbx/common/usbx_stm32_device_controllers/ux_dcd_stm32_callback.c **** /*    hpcd                                  Pointer to PCD handle         */
 108:../STM32Cube_FW_N6/Middlewares/ST/usbx/common/usbx_stm32_device_controllers/ux_dcd_stm32_callback.c **** /*                                                                        */
 109:../STM32Cube_FW_N6/Middlewares/ST/usbx/common/usbx_stm32_device_controllers/ux_dcd_stm32_callback.c **** /*  OUTPUT                                                                */
 110:../STM32Cube_FW_N6/Middlewares/ST/usbx/common/usbx_stm32_device_controllers/ux_dcd_stm32_callback.c **** /*                                                                        */
 111:../STM32Cube_FW_N6/Middlewares/ST/usbx/common/usbx_stm32_device_controllers/ux_dcd_stm32_callback.c **** /*    None                                                                */
 112:../STM32Cube_FW_N6/Middlewares/ST/usbx/common/usbx_stm32_device_controllers/ux_dcd_stm32_callback.c **** /*                                                                        */
 113:../STM32Cube_FW_N6/Middlewares/ST/usbx/common/usbx_stm32_device_controllers/ux_dcd_stm32_callback.c **** /*  CALLS                                                                 */
 114:../STM32Cube_FW_N6/Middlewares/ST/usbx/common/usbx_stm32_device_controllers/ux_dcd_stm32_callback.c **** /*                                                                        */
 115:../STM32Cube_FW_N6/Middlewares/ST/usbx/common/usbx_stm32_device_controllers/ux_dcd_stm32_callback.c **** /*    _ux_device_stack_control_request_process                            */
 116:../STM32Cube_FW_N6/Middlewares/ST/usbx/common/usbx_stm32_device_controllers/ux_dcd_stm32_callback.c **** /*                                          Process control request       */
 117:../STM32Cube_FW_N6/Middlewares/ST/usbx/common/usbx_stm32_device_controllers/ux_dcd_stm32_callback.c **** /*    HAL_PCD_EP_Transmit                   Transmit data                 */
 118:../STM32Cube_FW_N6/Middlewares/ST/usbx/common/usbx_stm32_device_controllers/ux_dcd_stm32_callback.c **** /*    HAL_PCD_EP_Receive                    Receive data                  */
 119:../STM32Cube_FW_N6/Middlewares/ST/usbx/common/usbx_stm32_device_controllers/ux_dcd_stm32_callback.c **** /*                                                                        */
 120:../STM32Cube_FW_N6/Middlewares/ST/usbx/common/usbx_stm32_device_controllers/ux_dcd_stm32_callback.c **** /*  CALLED BY                                                             */
 121:../STM32Cube_FW_N6/Middlewares/ST/usbx/common/usbx_stm32_device_controllers/ux_dcd_stm32_callback.c **** /*                                                                        */
 122:../STM32Cube_FW_N6/Middlewares/ST/usbx/common/usbx_stm32_device_controllers/ux_dcd_stm32_callback.c **** /*    STM32 HAL Driver                                                    */
 123:../STM32Cube_FW_N6/Middlewares/ST/usbx/common/usbx_stm32_device_controllers/ux_dcd_stm32_callback.c **** /*                                                                        */
 124:../STM32Cube_FW_N6/Middlewares/ST/usbx/common/usbx_stm32_device_controllers/ux_dcd_stm32_callback.c **** /*  RELEASE HISTORY                                                       */
 125:../STM32Cube_FW_N6/Middlewares/ST/usbx/common/usbx_stm32_device_controllers/ux_dcd_stm32_callback.c **** /*                                                                        */
 126:../STM32Cube_FW_N6/Middlewares/ST/usbx/common/usbx_stm32_device_controllers/ux_dcd_stm32_callback.c **** /*    DATE              NAME                      DESCRIPTION             */
 127:../STM32Cube_FW_N6/Middlewares/ST/usbx/common/usbx_stm32_device_controllers/ux_dcd_stm32_callback.c **** /*                                                                        */
 128:../STM32Cube_FW_N6/Middlewares/ST/usbx/common/usbx_stm32_device_controllers/ux_dcd_stm32_callback.c **** /*  01-31-2022     Chaoqiong Xiao           Initial Version 6.1.10        */
 129:../STM32Cube_FW_N6/Middlewares/ST/usbx/common/usbx_stm32_device_controllers/ux_dcd_stm32_callback.c **** /*                                                                        */
 130:../STM32Cube_FW_N6/Middlewares/ST/usbx/common/usbx_stm32_device_controllers/ux_dcd_stm32_callback.c **** /**************************************************************************/
 131:../STM32Cube_FW_N6/Middlewares/ST/usbx/common/usbx_stm32_device_controllers/ux_dcd_stm32_callback.c **** VOID     _ux_dcd_stm32_setup_isr_pending(UX_DCD_STM32 *dcd_stm32)
 132:../STM32Cube_FW_N6/Middlewares/ST/usbx/common/usbx_stm32_device_controllers/ux_dcd_stm32_callback.c **** {
  35              		.loc 1 132 1 view -0
  36              		.cfi_startproc
  37              		@ args = 0, pretend = 0, frame = 0
  38              		@ frame_needed = 0, uses_anonymous_args = 0
 133:../STM32Cube_FW_N6/Middlewares/ST/usbx/common/usbx_stm32_device_controllers/ux_dcd_stm32_callback.c **** UX_INTERRUPT_SAVE_AREA
  39              		.loc 1 133 1 view .LVU1
ARM GAS  /tmp/cc4jpTWk.s 			page 4


 134:../STM32Cube_FW_N6/Middlewares/ST/usbx/common/usbx_stm32_device_controllers/ux_dcd_stm32_callback.c **** UX_DCD_STM32_ED         *ed;
  40              		.loc 1 134 1 view .LVU2
 135:../STM32Cube_FW_N6/Middlewares/ST/usbx/common/usbx_stm32_device_controllers/ux_dcd_stm32_callback.c **** UX_SLAVE_TRANSFER       *transfer_request;
  41              		.loc 1 135 1 view .LVU3
 136:../STM32Cube_FW_N6/Middlewares/ST/usbx/common/usbx_stm32_device_controllers/ux_dcd_stm32_callback.c **** ULONG                   ed_status;
  42              		.loc 1 136 1 view .LVU4
 137:../STM32Cube_FW_N6/Middlewares/ST/usbx/common/usbx_stm32_device_controllers/ux_dcd_stm32_callback.c **** 
 138:../STM32Cube_FW_N6/Middlewares/ST/usbx/common/usbx_stm32_device_controllers/ux_dcd_stm32_callback.c ****     /* Fetch the address of the physical endpoint.  */
 139:../STM32Cube_FW_N6/Middlewares/ST/usbx/common/usbx_stm32_device_controllers/ux_dcd_stm32_callback.c ****     ed =  &dcd_stm32 -> ux_dcd_stm32_ed[0];
  43              		.loc 1 139 5 view .LVU5
 140:../STM32Cube_FW_N6/Middlewares/ST/usbx/common/usbx_stm32_device_controllers/ux_dcd_stm32_callback.c **** 
 141:../STM32Cube_FW_N6/Middlewares/ST/usbx/common/usbx_stm32_device_controllers/ux_dcd_stm32_callback.c ****     /* Get the pointer to the transfer request.  */
 142:../STM32Cube_FW_N6/Middlewares/ST/usbx/common/usbx_stm32_device_controllers/ux_dcd_stm32_callback.c ****     transfer_request =  &ed -> ux_dcd_stm32_ed_endpoint -> ux_slave_endpoint_transfer_request;
  44              		.loc 1 142 5 view .LVU6
 132:../STM32Cube_FW_N6/Middlewares/ST/usbx/common/usbx_stm32_device_controllers/ux_dcd_stm32_callback.c **** UX_INTERRUPT_SAVE_AREA
  45              		.loc 1 132 1 is_stmt 0 view .LVU7
  46 0000 2DE9F041 		push	{r4, r5, r6, r7, r8, lr}
  47              		.cfi_def_cfa_offset 24
  48              		.cfi_offset 4, -24
  49              		.cfi_offset 5, -20
  50              		.cfi_offset 6, -16
  51              		.cfi_offset 7, -12
  52              		.cfi_offset 8, -8
  53              		.cfi_offset 14, -4
 132:../STM32Cube_FW_N6/Middlewares/ST/usbx/common/usbx_stm32_device_controllers/ux_dcd_stm32_callback.c **** UX_INTERRUPT_SAVE_AREA
  54              		.loc 1 132 1 view .LVU8
  55 0004 0446     		mov	r4, r0
  56              		.loc 1 142 29 view .LVU9
  57 0006 4768     		ldr	r7, [r0, #4]
  58              	.LVL1:
 143:../STM32Cube_FW_N6/Middlewares/ST/usbx/common/usbx_stm32_device_controllers/ux_dcd_stm32_callback.c **** 
 144:../STM32Cube_FW_N6/Middlewares/ST/usbx/common/usbx_stm32_device_controllers/ux_dcd_stm32_callback.c ****     UX_DISABLE
  59              		.loc 1 144 5 is_stmt 1 view .LVU10
  60 0008 FFF7FEFF 		bl	_ux_utility_interrupt_disable
  61              	.LVL2:
 145:../STM32Cube_FW_N6/Middlewares/ST/usbx/common/usbx_stm32_device_controllers/ux_dcd_stm32_callback.c **** 
 146:../STM32Cube_FW_N6/Middlewares/ST/usbx/common/usbx_stm32_device_controllers/ux_dcd_stm32_callback.c ****     /* Get the ED status.  */
 147:../STM32Cube_FW_N6/Middlewares/ST/usbx/common/usbx_stm32_device_controllers/ux_dcd_stm32_callback.c ****     ed_status = ed -> ux_dcd_stm32_ed_status;
  62              		.loc 1 147 5 view .LVU11
  63              		.loc 1 147 15 is_stmt 0 view .LVU12
  64 000c A368     		ldr	r3, [r4, #8]
  65              	.LVL3:
 148:../STM32Cube_FW_N6/Middlewares/ST/usbx/common/usbx_stm32_device_controllers/ux_dcd_stm32_callback.c **** 
 149:../STM32Cube_FW_N6/Middlewares/ST/usbx/common/usbx_stm32_device_controllers/ux_dcd_stm32_callback.c ****     /* Check if Task is pending to avoid re-entry.  */
 150:../STM32Cube_FW_N6/Middlewares/ST/usbx/common/usbx_stm32_device_controllers/ux_dcd_stm32_callback.c ****     if (ed_status & UX_DCD_STM32_ED_STATUS_TASK_PENDING)
  66              		.loc 1 150 5 is_stmt 1 view .LVU13
  67              		.loc 1 150 8 is_stmt 0 view .LVU14
  68 000e 13F48068 		ands	r8, r3, #1024
  69 0012 03D0     		beq	.L2
  70              	.LVL4:
  71              	.L12:
 151:../STM32Cube_FW_N6/Middlewares/ST/usbx/common/usbx_stm32_device_controllers/ux_dcd_stm32_callback.c ****     {
 152:../STM32Cube_FW_N6/Middlewares/ST/usbx/common/usbx_stm32_device_controllers/ux_dcd_stm32_callback.c ****         UX_RESTORE
 153:../STM32Cube_FW_N6/Middlewares/ST/usbx/common/usbx_stm32_device_controllers/ux_dcd_stm32_callback.c ****         return;
 154:../STM32Cube_FW_N6/Middlewares/ST/usbx/common/usbx_stm32_device_controllers/ux_dcd_stm32_callback.c ****     }
 155:../STM32Cube_FW_N6/Middlewares/ST/usbx/common/usbx_stm32_device_controllers/ux_dcd_stm32_callback.c **** 
 156:../STM32Cube_FW_N6/Middlewares/ST/usbx/common/usbx_stm32_device_controllers/ux_dcd_stm32_callback.c ****     /* Check if SETUP ISR is pending.  */
ARM GAS  /tmp/cc4jpTWk.s 			page 5


 157:../STM32Cube_FW_N6/Middlewares/ST/usbx/common/usbx_stm32_device_controllers/ux_dcd_stm32_callback.c ****     ed_status &= UX_DCD_STM32_ED_STATUS_SETUP;
 158:../STM32Cube_FW_N6/Middlewares/ST/usbx/common/usbx_stm32_device_controllers/ux_dcd_stm32_callback.c ****     if (ed_status == 0)
 159:../STM32Cube_FW_N6/Middlewares/ST/usbx/common/usbx_stm32_device_controllers/ux_dcd_stm32_callback.c ****     {
 160:../STM32Cube_FW_N6/Middlewares/ST/usbx/common/usbx_stm32_device_controllers/ux_dcd_stm32_callback.c ****         UX_RESTORE
  72              		.loc 1 160 9 is_stmt 1 view .LVU15
 161:../STM32Cube_FW_N6/Middlewares/ST/usbx/common/usbx_stm32_device_controllers/ux_dcd_stm32_callback.c ****         return;
 162:../STM32Cube_FW_N6/Middlewares/ST/usbx/common/usbx_stm32_device_controllers/ux_dcd_stm32_callback.c ****     }
 163:../STM32Cube_FW_N6/Middlewares/ST/usbx/common/usbx_stm32_device_controllers/ux_dcd_stm32_callback.c ****     ed -> ux_dcd_stm32_ed_status &= ~UX_DCD_STM32_ED_STATUS_SETUP;
 164:../STM32Cube_FW_N6/Middlewares/ST/usbx/common/usbx_stm32_device_controllers/ux_dcd_stm32_callback.c ****     ed -> ux_dcd_stm32_ed_status |= UX_DCD_STM32_ED_STATUS_TASK_PENDING;
 165:../STM32Cube_FW_N6/Middlewares/ST/usbx/common/usbx_stm32_device_controllers/ux_dcd_stm32_callback.c ****     UX_RESTORE
 166:../STM32Cube_FW_N6/Middlewares/ST/usbx/common/usbx_stm32_device_controllers/ux_dcd_stm32_callback.c **** 
 167:../STM32Cube_FW_N6/Middlewares/ST/usbx/common/usbx_stm32_device_controllers/ux_dcd_stm32_callback.c ****     /* Handle different SETUP cases.  */
 168:../STM32Cube_FW_N6/Middlewares/ST/usbx/common/usbx_stm32_device_controllers/ux_dcd_stm32_callback.c ****     switch(ed_status)
 169:../STM32Cube_FW_N6/Middlewares/ST/usbx/common/usbx_stm32_device_controllers/ux_dcd_stm32_callback.c ****     {
 170:../STM32Cube_FW_N6/Middlewares/ST/usbx/common/usbx_stm32_device_controllers/ux_dcd_stm32_callback.c ****     case UX_DCD_STM32_ED_STATUS_SETUP_IN:
 171:../STM32Cube_FW_N6/Middlewares/ST/usbx/common/usbx_stm32_device_controllers/ux_dcd_stm32_callback.c ****         _ux_dcd_stm32_setup_in(ed, transfer_request);
 172:../STM32Cube_FW_N6/Middlewares/ST/usbx/common/usbx_stm32_device_controllers/ux_dcd_stm32_callback.c ****         break;
 173:../STM32Cube_FW_N6/Middlewares/ST/usbx/common/usbx_stm32_device_controllers/ux_dcd_stm32_callback.c **** 
 174:../STM32Cube_FW_N6/Middlewares/ST/usbx/common/usbx_stm32_device_controllers/ux_dcd_stm32_callback.c ****     case UX_DCD_STM32_ED_STATUS_SETUP_OUT:
 175:../STM32Cube_FW_N6/Middlewares/ST/usbx/common/usbx_stm32_device_controllers/ux_dcd_stm32_callback.c ****         _ux_dcd_stm32_setup_out(ed, transfer_request, dcd_stm32 -> pcd_handle);
 176:../STM32Cube_FW_N6/Middlewares/ST/usbx/common/usbx_stm32_device_controllers/ux_dcd_stm32_callback.c ****         break;
 177:../STM32Cube_FW_N6/Middlewares/ST/usbx/common/usbx_stm32_device_controllers/ux_dcd_stm32_callback.c **** 
 178:../STM32Cube_FW_N6/Middlewares/ST/usbx/common/usbx_stm32_device_controllers/ux_dcd_stm32_callback.c ****     default: /* UX_DCD_STM32_ED_STATUS_SETUP_STATUS  */
 179:../STM32Cube_FW_N6/Middlewares/ST/usbx/common/usbx_stm32_device_controllers/ux_dcd_stm32_callback.c ****         _ux_dcd_stm32_setup_status(ed, transfer_request, dcd_stm32 -> pcd_handle);
 180:../STM32Cube_FW_N6/Middlewares/ST/usbx/common/usbx_stm32_device_controllers/ux_dcd_stm32_callback.c ****         break;
 181:../STM32Cube_FW_N6/Middlewares/ST/usbx/common/usbx_stm32_device_controllers/ux_dcd_stm32_callback.c ****     }
 182:../STM32Cube_FW_N6/Middlewares/ST/usbx/common/usbx_stm32_device_controllers/ux_dcd_stm32_callback.c **** 
 183:../STM32Cube_FW_N6/Middlewares/ST/usbx/common/usbx_stm32_device_controllers/ux_dcd_stm32_callback.c ****     /* Task is done.  */
 184:../STM32Cube_FW_N6/Middlewares/ST/usbx/common/usbx_stm32_device_controllers/ux_dcd_stm32_callback.c ****     ed -> ux_dcd_stm32_ed_status &= ~UX_DCD_STM32_ED_STATUS_TASK_PENDING;
 185:../STM32Cube_FW_N6/Middlewares/ST/usbx/common/usbx_stm32_device_controllers/ux_dcd_stm32_callback.c **** }
  73              		.loc 1 185 1 is_stmt 0 view .LVU16
  74 0014 BDE8F041 		pop	{r4, r5, r6, r7, r8, lr}
  75              		.cfi_remember_state
  76              		.cfi_restore 14
  77              		.cfi_restore 8
  78              		.cfi_restore 7
  79              		.cfi_restore 6
  80              		.cfi_restore 5
  81              		.cfi_restore 4
  82              		.cfi_def_cfa_offset 0
  83              	.LVL5:
 160:../STM32Cube_FW_N6/Middlewares/ST/usbx/common/usbx_stm32_device_controllers/ux_dcd_stm32_callback.c ****         return;
  84              		.loc 1 160 9 view .LVU17
  85 0018 FFF7FEBF 		b	_ux_utility_interrupt_restore
  86              	.LVL6:
  87              	.L2:
  88              		.cfi_restore_state
 157:../STM32Cube_FW_N6/Middlewares/ST/usbx/common/usbx_stm32_device_controllers/ux_dcd_stm32_callback.c ****     if (ed_status == 0)
  89              		.loc 1 157 5 is_stmt 1 view .LVU18
 158:../STM32Cube_FW_N6/Middlewares/ST/usbx/common/usbx_stm32_device_controllers/ux_dcd_stm32_callback.c ****     {
  90              		.loc 1 158 5 view .LVU19
 158:../STM32Cube_FW_N6/Middlewares/ST/usbx/common/usbx_stm32_device_controllers/ux_dcd_stm32_callback.c ****     {
  91              		.loc 1 158 8 is_stmt 0 view .LVU20
  92 001c 13F44076 		ands	r6, r3, #768
  93              	.LVL7:
 158:../STM32Cube_FW_N6/Middlewares/ST/usbx/common/usbx_stm32_device_controllers/ux_dcd_stm32_callback.c ****     {
  94              		.loc 1 158 8 view .LVU21
ARM GAS  /tmp/cc4jpTWk.s 			page 6


  95 0020 F8D0     		beq	.L12
 163:../STM32Cube_FW_N6/Middlewares/ST/usbx/common/usbx_stm32_device_controllers/ux_dcd_stm32_callback.c ****     ed -> ux_dcd_stm32_ed_status |= UX_DCD_STM32_ED_STATUS_TASK_PENDING;
  96              		.loc 1 163 34 view .LVU22
  97 0022 23F44073 		bic	r3, r3, #768
 164:../STM32Cube_FW_N6/Middlewares/ST/usbx/common/usbx_stm32_device_controllers/ux_dcd_stm32_callback.c ****     UX_RESTORE
  98              		.loc 1 164 34 view .LVU23
  99 0026 43F48063 		orr	r3, r3, #1024
 100 002a A360     		str	r3, [r4, #8]
 165:../STM32Cube_FW_N6/Middlewares/ST/usbx/common/usbx_stm32_device_controllers/ux_dcd_stm32_callback.c **** 
 101              		.loc 1 165 5 view .LVU24
 102 002c FFF7FEFF 		bl	_ux_utility_interrupt_restore
 103              	.LVL8:
 168:../STM32Cube_FW_N6/Middlewares/ST/usbx/common/usbx_stm32_device_controllers/ux_dcd_stm32_callback.c ****     {
 104              		.loc 1 168 5 view .LVU25
 105 0030 B6F5807F 		cmp	r6, #256
 106 0034 4FF08003 		mov	r3, #128
 142:../STM32Cube_FW_N6/Middlewares/ST/usbx/common/usbx_stm32_device_controllers/ux_dcd_stm32_callback.c **** 
 107              		.loc 1 142 22 view .LVU26
 108 0038 07F12005 		add	r5, r7, #32
 163:../STM32Cube_FW_N6/Middlewares/ST/usbx/common/usbx_stm32_device_controllers/ux_dcd_stm32_callback.c ****     ed -> ux_dcd_stm32_ed_status |= UX_DCD_STM32_ED_STATUS_TASK_PENDING;
 109              		.loc 1 163 5 is_stmt 1 view .LVU27
 164:../STM32Cube_FW_N6/Middlewares/ST/usbx/common/usbx_stm32_device_controllers/ux_dcd_stm32_callback.c ****     UX_RESTORE
 110              		.loc 1 164 5 view .LVU28
 165:../STM32Cube_FW_N6/Middlewares/ST/usbx/common/usbx_stm32_device_controllers/ux_dcd_stm32_callback.c **** 
 111              		.loc 1 165 5 view .LVU29
 168:../STM32Cube_FW_N6/Middlewares/ST/usbx/common/usbx_stm32_device_controllers/ux_dcd_stm32_callback.c ****     {
 112              		.loc 1 168 5 view .LVU30
 113 003c 0BD0     		beq	.L4
 114 003e B6F5407F 		cmp	r6, #768
 115 0042 266F     		ldr	r6, [r4, #112]
 116              	.LVL9:
 168:../STM32Cube_FW_N6/Middlewares/ST/usbx/common/usbx_stm32_device_controllers/ux_dcd_stm32_callback.c ****     {
 117              		.loc 1 168 5 is_stmt 0 view .LVU31
 118 0044 13D0     		beq	.L5
 179:../STM32Cube_FW_N6/Middlewares/ST/usbx/common/usbx_stm32_device_controllers/ux_dcd_stm32_callback.c ****         break;
 119              		.loc 1 179 9 is_stmt 1 view .LVU32
 120              	.LVL10:
 121              	.LBB10:
 122              	.LBI10:
  72:../STM32Cube_FW_N6/Middlewares/ST/usbx/common/usbx_stm32_device_controllers/ux_dcd_stm32_callback.c ****                                               PCD_HandleTypeDef *hpcd)
 123              		.loc 1 72 20 view .LVU33
 124              	.LBB11:
  78:../STM32Cube_FW_N6/Middlewares/ST/usbx/common/usbx_stm32_device_controllers/ux_dcd_stm32_callback.c **** 
 125              		.loc 1 78 5 view .LVU34
  78:../STM32Cube_FW_N6/Middlewares/ST/usbx/common/usbx_stm32_device_controllers/ux_dcd_stm32_callback.c **** 
 126              		.loc 1 78 37 is_stmt 0 view .LVU35
 127 0046 A373     		strb	r3, [r4, #14]
  81:../STM32Cube_FW_N6/Middlewares/ST/usbx/common/usbx_stm32_device_controllers/ux_dcd_stm32_callback.c ****     {
 128              		.loc 1 81 5 is_stmt 1 view .LVU36
  81:../STM32Cube_FW_N6/Middlewares/ST/usbx/common/usbx_stm32_device_controllers/ux_dcd_stm32_callback.c ****     {
 129              		.loc 1 81 9 is_stmt 0 view .LVU37
 130 0048 2846     		mov	r0, r5
 131 004a FFF7FEFF 		bl	_ux_device_stack_control_request_process
 132              	.LVL11:
  81:../STM32Cube_FW_N6/Middlewares/ST/usbx/common/usbx_stm32_device_controllers/ux_dcd_stm32_callback.c ****     {
 133              		.loc 1 81 8 discriminator 1 view .LVU38
 134 004e 0346     		mov	r3, r0
ARM GAS  /tmp/cc4jpTWk.s 			page 7


 135 0050 38B9     		cbnz	r0, .L7
  85:../STM32Cube_FW_N6/Middlewares/ST/usbx/common/usbx_stm32_device_controllers/ux_dcd_stm32_callback.c ****         HAL_PCD_EP_Transmit(hpcd, 0x00U, UX_NULL, 0U);
 136              		.loc 1 85 9 is_stmt 1 view .LVU39
  85:../STM32Cube_FW_N6/Middlewares/ST/usbx/common/usbx_stm32_device_controllers/ux_dcd_stm32_callback.c ****         HAL_PCD_EP_Transmit(hpcd, 0x00U, UX_NULL, 0U);
 137              		.loc 1 85 37 is_stmt 0 view .LVU40
 138 0052 0422     		movs	r2, #4
 139 0054 15E0     		b	.L11
 140              	.LVL12:
 141              	.L4:
  85:../STM32Cube_FW_N6/Middlewares/ST/usbx/common/usbx_stm32_device_controllers/ux_dcd_stm32_callback.c ****         HAL_PCD_EP_Transmit(hpcd, 0x00U, UX_NULL, 0U);
 142              		.loc 1 85 37 view .LVU41
 143              	.LBE11:
 144              	.LBE10:
 171:../STM32Cube_FW_N6/Middlewares/ST/usbx/common/usbx_stm32_device_controllers/ux_dcd_stm32_callback.c ****         break;
 145              		.loc 1 171 9 is_stmt 1 view .LVU42
 146              	.LBB13:
 147              	.LBI13:
  35:../STM32Cube_FW_N6/Middlewares/ST/usbx/common/usbx_stm32_device_controllers/ux_dcd_stm32_callback.c **** {
 148              		.loc 1 35 20 view .LVU43
 149              	.LBB14:
  40:../STM32Cube_FW_N6/Middlewares/ST/usbx/common/usbx_stm32_device_controllers/ux_dcd_stm32_callback.c **** 
 150              		.loc 1 40 5 view .LVU44
  40:../STM32Cube_FW_N6/Middlewares/ST/usbx/common/usbx_stm32_device_controllers/ux_dcd_stm32_callback.c **** 
 151              		.loc 1 40 37 is_stmt 0 view .LVU45
 152 0056 A373     		strb	r3, [r4, #14]
  43:../STM32Cube_FW_N6/Middlewares/ST/usbx/common/usbx_stm32_device_controllers/ux_dcd_stm32_callback.c **** 
 153              		.loc 1 43 5 is_stmt 1 view .LVU46
  43:../STM32Cube_FW_N6/Middlewares/ST/usbx/common/usbx_stm32_device_controllers/ux_dcd_stm32_callback.c **** 
 154              		.loc 1 43 33 is_stmt 0 view .LVU47
 155 0058 0123     		movs	r3, #1
  46:../STM32Cube_FW_N6/Middlewares/ST/usbx/common/usbx_stm32_device_controllers/ux_dcd_stm32_callback.c **** }
 156              		.loc 1 46 5 view .LVU48
 157 005a 2846     		mov	r0, r5
  43:../STM32Cube_FW_N6/Middlewares/ST/usbx/common/usbx_stm32_device_controllers/ux_dcd_stm32_callback.c **** 
 158              		.loc 1 43 33 view .LVU49
 159 005c 2373     		strb	r3, [r4, #12]
  46:../STM32Cube_FW_N6/Middlewares/ST/usbx/common/usbx_stm32_device_controllers/ux_dcd_stm32_callback.c **** }
 160              		.loc 1 46 5 is_stmt 1 view .LVU50
 161 005e FFF7FEFF 		bl	_ux_device_stack_control_request_process
 162              	.LVL13:
  46:../STM32Cube_FW_N6/Middlewares/ST/usbx/common/usbx_stm32_device_controllers/ux_dcd_stm32_callback.c **** }
 163              		.loc 1 46 5 is_stmt 0 view .LVU51
 164              	.LBE14:
 165              	.LBE13:
 172:../STM32Cube_FW_N6/Middlewares/ST/usbx/common/usbx_stm32_device_controllers/ux_dcd_stm32_callback.c **** 
 166              		.loc 1 172 9 is_stmt 1 view .LVU52
 167              	.L7:
 184:../STM32Cube_FW_N6/Middlewares/ST/usbx/common/usbx_stm32_device_controllers/ux_dcd_stm32_callback.c **** }
 168              		.loc 1 184 5 view .LVU53
 184:../STM32Cube_FW_N6/Middlewares/ST/usbx/common/usbx_stm32_device_controllers/ux_dcd_stm32_callback.c **** }
 169              		.loc 1 184 34 is_stmt 0 view .LVU54
 170 0062 A368     		ldr	r3, [r4, #8]
 171 0064 23F48063 		bic	r3, r3, #1024
 172 0068 A360     		str	r3, [r4, #8]
 173              		.loc 1 185 1 view .LVU55
 174 006a BDE8F081 		pop	{r4, r5, r6, r7, r8, pc}
 175              	.LVL14:
ARM GAS  /tmp/cc4jpTWk.s 			page 8


 176              	.L5:
 175:../STM32Cube_FW_N6/Middlewares/ST/usbx/common/usbx_stm32_device_controllers/ux_dcd_stm32_callback.c ****         break;
 177              		.loc 1 175 9 is_stmt 1 view .LVU56
 178              	.LBB15:
 179              	.LBI15:
  49:../STM32Cube_FW_N6/Middlewares/ST/usbx/common/usbx_stm32_device_controllers/ux_dcd_stm32_callback.c ****                                            PCD_HandleTypeDef *hpcd)
 180              		.loc 1 49 20 view .LVU57
 181              	.LBB16:
  54:../STM32Cube_FW_N6/Middlewares/ST/usbx/common/usbx_stm32_device_controllers/ux_dcd_stm32_callback.c **** 
 182              		.loc 1 54 5 view .LVU58
  54:../STM32Cube_FW_N6/Middlewares/ST/usbx/common/usbx_stm32_device_controllers/ux_dcd_stm32_callback.c **** 
 183              		.loc 1 54 67 is_stmt 0 view .LVU59
 184 006e C7F84480 		str	r8, [r7, #68]
  58:../STM32Cube_FW_N6/Middlewares/ST/usbx/common/usbx_stm32_device_controllers/ux_dcd_stm32_callback.c **** 
 185              		.loc 1 58 5 is_stmt 1 view .LVU60
  61:../STM32Cube_FW_N6/Middlewares/ST/usbx/common/usbx_stm32_device_controllers/ux_dcd_stm32_callback.c ****     {
 186              		.loc 1 61 9 is_stmt 0 view .LVU61
 187 0072 2846     		mov	r0, r5
  58:../STM32Cube_FW_N6/Middlewares/ST/usbx/common/usbx_stm32_device_controllers/ux_dcd_stm32_callback.c **** 
 188              		.loc 1 58 37 view .LVU62
 189 0074 A373     		strb	r3, [r4, #14]
  61:../STM32Cube_FW_N6/Middlewares/ST/usbx/common/usbx_stm32_device_controllers/ux_dcd_stm32_callback.c ****     {
 190              		.loc 1 61 5 is_stmt 1 view .LVU63
  61:../STM32Cube_FW_N6/Middlewares/ST/usbx/common/usbx_stm32_device_controllers/ux_dcd_stm32_callback.c ****     {
 191              		.loc 1 61 9 is_stmt 0 view .LVU64
 192 0076 FFF7FEFF 		bl	_ux_device_stack_control_request_process
 193              	.LVL15:
  61:../STM32Cube_FW_N6/Middlewares/ST/usbx/common/usbx_stm32_device_controllers/ux_dcd_stm32_callback.c ****     {
 194              		.loc 1 61 8 discriminator 1 view .LVU65
 195 007a 0346     		mov	r3, r0
 196 007c 0028     		cmp	r0, #0
 197 007e F0D1     		bne	.L7
  65:../STM32Cube_FW_N6/Middlewares/ST/usbx/common/usbx_stm32_device_controllers/ux_dcd_stm32_callback.c **** 
 198              		.loc 1 65 9 is_stmt 1 view .LVU66
  65:../STM32Cube_FW_N6/Middlewares/ST/usbx/common/usbx_stm32_device_controllers/ux_dcd_stm32_callback.c **** 
 199              		.loc 1 65 37 is_stmt 0 view .LVU67
 200 0080 0322     		movs	r2, #3
 201              	.LVL16:
 202              	.L11:
  65:../STM32Cube_FW_N6/Middlewares/ST/usbx/common/usbx_stm32_device_controllers/ux_dcd_stm32_callback.c **** 
 203              		.loc 1 65 37 view .LVU68
 204              	.LBE16:
 205              	.LBE15:
 206              	.LBB17:
 207              	.LBB12:
  85:../STM32Cube_FW_N6/Middlewares/ST/usbx/common/usbx_stm32_device_controllers/ux_dcd_stm32_callback.c ****         HAL_PCD_EP_Transmit(hpcd, 0x00U, UX_NULL, 0U);
 208              		.loc 1 85 37 view .LVU69
 209 0082 2273     		strb	r2, [r4, #12]
  86:../STM32Cube_FW_N6/Middlewares/ST/usbx/common/usbx_stm32_device_controllers/ux_dcd_stm32_callback.c ****     }
 210              		.loc 1 86 9 is_stmt 1 view .LVU70
 211 0084 1946     		mov	r1, r3
 212 0086 1A46     		mov	r2, r3
 213 0088 3046     		mov	r0, r6
 214 008a FFF7FEFF 		bl	HAL_PCD_EP_Transmit
 215              	.LVL17:
 216 008e E8E7     		b	.L7
 217              	.LBE12:
ARM GAS  /tmp/cc4jpTWk.s 			page 9


 218              	.LBE17:
 219              		.cfi_endproc
 220              	.LFE888:
 222              		.section	.text.HAL_PCD_SetupStageCallback,"ax",%progbits
 223              		.align	1
 224              		.global	HAL_PCD_SetupStageCallback
 225              		.syntax unified
 226              		.thumb
 227              		.thumb_func
 229              	HAL_PCD_SetupStageCallback:
 230              	.LVL18:
 231              	.LFB889:
 186:../STM32Cube_FW_N6/Middlewares/ST/usbx/common/usbx_stm32_device_controllers/ux_dcd_stm32_callback.c **** #endif
 187:../STM32Cube_FW_N6/Middlewares/ST/usbx/common/usbx_stm32_device_controllers/ux_dcd_stm32_callback.c **** 
 188:../STM32Cube_FW_N6/Middlewares/ST/usbx/common/usbx_stm32_device_controllers/ux_dcd_stm32_callback.c **** /**************************************************************************/
 189:../STM32Cube_FW_N6/Middlewares/ST/usbx/common/usbx_stm32_device_controllers/ux_dcd_stm32_callback.c **** /*                                                                        */
 190:../STM32Cube_FW_N6/Middlewares/ST/usbx/common/usbx_stm32_device_controllers/ux_dcd_stm32_callback.c **** /*  FUNCTION                                               RELEASE        */
 191:../STM32Cube_FW_N6/Middlewares/ST/usbx/common/usbx_stm32_device_controllers/ux_dcd_stm32_callback.c **** /*                                                                        */
 192:../STM32Cube_FW_N6/Middlewares/ST/usbx/common/usbx_stm32_device_controllers/ux_dcd_stm32_callback.c **** /*    HAL_PCD_SetupStageCallback                          PORTABLE C      */
 193:../STM32Cube_FW_N6/Middlewares/ST/usbx/common/usbx_stm32_device_controllers/ux_dcd_stm32_callback.c **** /*                                                           6.1.10       */
 194:../STM32Cube_FW_N6/Middlewares/ST/usbx/common/usbx_stm32_device_controllers/ux_dcd_stm32_callback.c **** /*  AUTHOR                                                                */
 195:../STM32Cube_FW_N6/Middlewares/ST/usbx/common/usbx_stm32_device_controllers/ux_dcd_stm32_callback.c **** /*                                                                        */
 196:../STM32Cube_FW_N6/Middlewares/ST/usbx/common/usbx_stm32_device_controllers/ux_dcd_stm32_callback.c **** /*    Chaoqiong Xiao, Microsoft Corporation                               */
 197:../STM32Cube_FW_N6/Middlewares/ST/usbx/common/usbx_stm32_device_controllers/ux_dcd_stm32_callback.c **** /*                                                                        */
 198:../STM32Cube_FW_N6/Middlewares/ST/usbx/common/usbx_stm32_device_controllers/ux_dcd_stm32_callback.c **** /*  DESCRIPTION                                                           */
 199:../STM32Cube_FW_N6/Middlewares/ST/usbx/common/usbx_stm32_device_controllers/ux_dcd_stm32_callback.c **** /*                                                                        */
 200:../STM32Cube_FW_N6/Middlewares/ST/usbx/common/usbx_stm32_device_controllers/ux_dcd_stm32_callback.c **** /*    This function handles callback from HAL driver.                     */
 201:../STM32Cube_FW_N6/Middlewares/ST/usbx/common/usbx_stm32_device_controllers/ux_dcd_stm32_callback.c **** /*                                                                        */
 202:../STM32Cube_FW_N6/Middlewares/ST/usbx/common/usbx_stm32_device_controllers/ux_dcd_stm32_callback.c **** /*  INPUT                                                                 */
 203:../STM32Cube_FW_N6/Middlewares/ST/usbx/common/usbx_stm32_device_controllers/ux_dcd_stm32_callback.c **** /*                                                                        */
 204:../STM32Cube_FW_N6/Middlewares/ST/usbx/common/usbx_stm32_device_controllers/ux_dcd_stm32_callback.c **** /*    hpcd                                  Pointer to PCD handle         */
 205:../STM32Cube_FW_N6/Middlewares/ST/usbx/common/usbx_stm32_device_controllers/ux_dcd_stm32_callback.c **** /*                                                                        */
 206:../STM32Cube_FW_N6/Middlewares/ST/usbx/common/usbx_stm32_device_controllers/ux_dcd_stm32_callback.c **** /*  OUTPUT                                                                */
 207:../STM32Cube_FW_N6/Middlewares/ST/usbx/common/usbx_stm32_device_controllers/ux_dcd_stm32_callback.c **** /*                                                                        */
 208:../STM32Cube_FW_N6/Middlewares/ST/usbx/common/usbx_stm32_device_controllers/ux_dcd_stm32_callback.c **** /*    None                                                                */
 209:../STM32Cube_FW_N6/Middlewares/ST/usbx/common/usbx_stm32_device_controllers/ux_dcd_stm32_callback.c **** /*                                                                        */
 210:../STM32Cube_FW_N6/Middlewares/ST/usbx/common/usbx_stm32_device_controllers/ux_dcd_stm32_callback.c **** /*  CALLS                                                                 */
 211:../STM32Cube_FW_N6/Middlewares/ST/usbx/common/usbx_stm32_device_controllers/ux_dcd_stm32_callback.c **** /*                                                                        */
 212:../STM32Cube_FW_N6/Middlewares/ST/usbx/common/usbx_stm32_device_controllers/ux_dcd_stm32_callback.c **** /*    _ux_device_stack_control_request_process                            */
 213:../STM32Cube_FW_N6/Middlewares/ST/usbx/common/usbx_stm32_device_controllers/ux_dcd_stm32_callback.c **** /*                                          Process control request       */
 214:../STM32Cube_FW_N6/Middlewares/ST/usbx/common/usbx_stm32_device_controllers/ux_dcd_stm32_callback.c **** /*    HAL_PCD_EP_Transmit                   Transmit data                 */
 215:../STM32Cube_FW_N6/Middlewares/ST/usbx/common/usbx_stm32_device_controllers/ux_dcd_stm32_callback.c **** /*    HAL_PCD_EP_Receive                    Receive data                  */
 216:../STM32Cube_FW_N6/Middlewares/ST/usbx/common/usbx_stm32_device_controllers/ux_dcd_stm32_callback.c **** /*                                                                        */
 217:../STM32Cube_FW_N6/Middlewares/ST/usbx/common/usbx_stm32_device_controllers/ux_dcd_stm32_callback.c **** /*  CALLED BY                                                             */
 218:../STM32Cube_FW_N6/Middlewares/ST/usbx/common/usbx_stm32_device_controllers/ux_dcd_stm32_callback.c **** /*                                                                        */
 219:../STM32Cube_FW_N6/Middlewares/ST/usbx/common/usbx_stm32_device_controllers/ux_dcd_stm32_callback.c **** /*    STM32 HAL Driver                                                    */
 220:../STM32Cube_FW_N6/Middlewares/ST/usbx/common/usbx_stm32_device_controllers/ux_dcd_stm32_callback.c **** /*                                                                        */
 221:../STM32Cube_FW_N6/Middlewares/ST/usbx/common/usbx_stm32_device_controllers/ux_dcd_stm32_callback.c **** /*  RELEASE HISTORY                                                       */
 222:../STM32Cube_FW_N6/Middlewares/ST/usbx/common/usbx_stm32_device_controllers/ux_dcd_stm32_callback.c **** /*                                                                        */
 223:../STM32Cube_FW_N6/Middlewares/ST/usbx/common/usbx_stm32_device_controllers/ux_dcd_stm32_callback.c **** /*    DATE              NAME                      DESCRIPTION             */
 224:../STM32Cube_FW_N6/Middlewares/ST/usbx/common/usbx_stm32_device_controllers/ux_dcd_stm32_callback.c **** /*                                                                        */
 225:../STM32Cube_FW_N6/Middlewares/ST/usbx/common/usbx_stm32_device_controllers/ux_dcd_stm32_callback.c **** /*  09-30-2020     Chaoqiong Xiao           Initial Version 6.1           */
 226:../STM32Cube_FW_N6/Middlewares/ST/usbx/common/usbx_stm32_device_controllers/ux_dcd_stm32_callback.c **** /*  01-31-2022     Chaoqiong Xiao           Modified comment(s),          */
 227:../STM32Cube_FW_N6/Middlewares/ST/usbx/common/usbx_stm32_device_controllers/ux_dcd_stm32_callback.c **** /*                                            added standalone support,   */
 228:../STM32Cube_FW_N6/Middlewares/ST/usbx/common/usbx_stm32_device_controllers/ux_dcd_stm32_callback.c **** /*                                            resulting in version 6.1.10 */
 229:../STM32Cube_FW_N6/Middlewares/ST/usbx/common/usbx_stm32_device_controllers/ux_dcd_stm32_callback.c **** /*                                                                        */
 230:../STM32Cube_FW_N6/Middlewares/ST/usbx/common/usbx_stm32_device_controllers/ux_dcd_stm32_callback.c **** /**************************************************************************/
ARM GAS  /tmp/cc4jpTWk.s 			page 10


 231:../STM32Cube_FW_N6/Middlewares/ST/usbx/common/usbx_stm32_device_controllers/ux_dcd_stm32_callback.c **** void HAL_PCD_SetupStageCallback(PCD_HandleTypeDef *hpcd)
 232:../STM32Cube_FW_N6/Middlewares/ST/usbx/common/usbx_stm32_device_controllers/ux_dcd_stm32_callback.c **** {
 232              		.loc 1 232 1 view -0
 233              		.cfi_startproc
 234              		@ args = 0, pretend = 0, frame = 0
 235              		@ frame_needed = 0, uses_anonymous_args = 0
 233:../STM32Cube_FW_N6/Middlewares/ST/usbx/common/usbx_stm32_device_controllers/ux_dcd_stm32_callback.c **** 
 234:../STM32Cube_FW_N6/Middlewares/ST/usbx/common/usbx_stm32_device_controllers/ux_dcd_stm32_callback.c **** UX_SLAVE_DCD            *dcd;
 236              		.loc 1 234 1 view .LVU72
 235:../STM32Cube_FW_N6/Middlewares/ST/usbx/common/usbx_stm32_device_controllers/ux_dcd_stm32_callback.c **** UX_DCD_STM32            *dcd_stm32;
 237              		.loc 1 235 1 view .LVU73
 236:../STM32Cube_FW_N6/Middlewares/ST/usbx/common/usbx_stm32_device_controllers/ux_dcd_stm32_callback.c **** UX_DCD_STM32_ED         *ed;
 238              		.loc 1 236 1 view .LVU74
 237:../STM32Cube_FW_N6/Middlewares/ST/usbx/common/usbx_stm32_device_controllers/ux_dcd_stm32_callback.c **** UX_SLAVE_TRANSFER       *transfer_request;
 239              		.loc 1 237 1 view .LVU75
 238:../STM32Cube_FW_N6/Middlewares/ST/usbx/common/usbx_stm32_device_controllers/ux_dcd_stm32_callback.c **** UX_SLAVE_ENDPOINT       *endpoint;
 240              		.loc 1 238 1 view .LVU76
 239:../STM32Cube_FW_N6/Middlewares/ST/usbx/common/usbx_stm32_device_controllers/ux_dcd_stm32_callback.c **** 
 240:../STM32Cube_FW_N6/Middlewares/ST/usbx/common/usbx_stm32_device_controllers/ux_dcd_stm32_callback.c **** 
 241:../STM32Cube_FW_N6/Middlewares/ST/usbx/common/usbx_stm32_device_controllers/ux_dcd_stm32_callback.c ****     /* Get the pointer to the DCD.  */
 242:../STM32Cube_FW_N6/Middlewares/ST/usbx/common/usbx_stm32_device_controllers/ux_dcd_stm32_callback.c ****     dcd =  &_ux_system_slave -> ux_system_slave_dcd;
 241              		.loc 1 242 5 view .LVU77
 243:../STM32Cube_FW_N6/Middlewares/ST/usbx/common/usbx_stm32_device_controllers/ux_dcd_stm32_callback.c **** 
 244:../STM32Cube_FW_N6/Middlewares/ST/usbx/common/usbx_stm32_device_controllers/ux_dcd_stm32_callback.c ****     /* Get the pointer to the STM32 DCD.  */
 245:../STM32Cube_FW_N6/Middlewares/ST/usbx/common/usbx_stm32_device_controllers/ux_dcd_stm32_callback.c ****     dcd_stm32 = (UX_DCD_STM32 *) dcd -> ux_slave_dcd_controller_hardware;
 242              		.loc 1 245 5 view .LVU78
 243              		.loc 1 245 15 is_stmt 0 view .LVU79
 244 0000 244B     		ldr	r3, .L20
 245              	.LVL19:
 232:../STM32Cube_FW_N6/Middlewares/ST/usbx/common/usbx_stm32_device_controllers/ux_dcd_stm32_callback.c **** 
 246              		.loc 1 232 1 view .LVU80
 247 0002 2DE9F041 		push	{r4, r5, r6, r7, r8, lr}
 248              		.cfi_def_cfa_offset 24
 249              		.cfi_offset 4, -24
 250              		.cfi_offset 5, -20
 251              		.cfi_offset 6, -16
 252              		.cfi_offset 7, -12
 253              		.cfi_offset 8, -8
 254              		.cfi_offset 14, -4
 255              		.loc 1 245 15 view .LVU81
 256 0006 1B68     		ldr	r3, [r3]
 257              	.LVL20:
 246:../STM32Cube_FW_N6/Middlewares/ST/usbx/common/usbx_stm32_device_controllers/ux_dcd_stm32_callback.c **** 
 247:../STM32Cube_FW_N6/Middlewares/ST/usbx/common/usbx_stm32_device_controllers/ux_dcd_stm32_callback.c ****     /* Fetch the address of the physical endpoint.  */
 248:../STM32Cube_FW_N6/Middlewares/ST/usbx/common/usbx_stm32_device_controllers/ux_dcd_stm32_callback.c ****     ed =  &dcd_stm32 -> ux_dcd_stm32_ed[0];
 249:../STM32Cube_FW_N6/Middlewares/ST/usbx/common/usbx_stm32_device_controllers/ux_dcd_stm32_callback.c **** 
 250:../STM32Cube_FW_N6/Middlewares/ST/usbx/common/usbx_stm32_device_controllers/ux_dcd_stm32_callback.c ****     /* Get the pointer to the transfer request.  */
 251:../STM32Cube_FW_N6/Middlewares/ST/usbx/common/usbx_stm32_device_controllers/ux_dcd_stm32_callback.c ****     transfer_request =  &ed -> ux_dcd_stm32_ed_endpoint -> ux_slave_endpoint_transfer_request;
 252:../STM32Cube_FW_N6/Middlewares/ST/usbx/common/usbx_stm32_device_controllers/ux_dcd_stm32_callback.c **** 
 253:../STM32Cube_FW_N6/Middlewares/ST/usbx/common/usbx_stm32_device_controllers/ux_dcd_stm32_callback.c ****     /* Copy setup data to transfer request.  */
 254:../STM32Cube_FW_N6/Middlewares/ST/usbx/common/usbx_stm32_device_controllers/ux_dcd_stm32_callback.c ****     _ux_utility_memory_copy(transfer_request->ux_slave_transfer_request_setup, hpcd -> Setup, UX_SE
 258              		.loc 1 254 5 view .LVU82
 259 0008 00F29C41 		addw	r1, r0, #1180
 245:../STM32Cube_FW_N6/Middlewares/ST/usbx/common/usbx_stm32_device_controllers/ux_dcd_stm32_callback.c **** 
 260              		.loc 1 245 15 view .LVU83
 261 000c DD69     		ldr	r5, [r3, #28]
 262              	.LVL21:
ARM GAS  /tmp/cc4jpTWk.s 			page 11


 248:../STM32Cube_FW_N6/Middlewares/ST/usbx/common/usbx_stm32_device_controllers/ux_dcd_stm32_callback.c **** 
 263              		.loc 1 248 5 is_stmt 1 view .LVU84
 251:../STM32Cube_FW_N6/Middlewares/ST/usbx/common/usbx_stm32_device_controllers/ux_dcd_stm32_callback.c **** 
 264              		.loc 1 251 5 view .LVU85
 265              		.loc 1 254 5 is_stmt 0 view .LVU86
 266 000e 0822     		movs	r2, #8
 251:../STM32Cube_FW_N6/Middlewares/ST/usbx/common/usbx_stm32_device_controllers/ux_dcd_stm32_callback.c **** 
 267              		.loc 1 251 29 view .LVU87
 268 0010 6C68     		ldr	r4, [r5, #4]
 269              	.LVL22:
 270              		.loc 1 254 5 is_stmt 1 view .LVU88
 232:../STM32Cube_FW_N6/Middlewares/ST/usbx/common/usbx_stm32_device_controllers/ux_dcd_stm32_callback.c **** 
 271              		.loc 1 232 1 is_stmt 0 view .LVU89
 272 0012 0646     		mov	r6, r0
 273              		.loc 1 254 5 view .LVU90
 274 0014 04F15C00 		add	r0, r4, #92
 275              	.LVL23:
 276              		.loc 1 254 5 view .LVU91
 277 0018 FFF7FEFF 		bl	_ux_utility_memory_copy
 278              	.LVL24:
 255:../STM32Cube_FW_N6/Middlewares/ST/usbx/common/usbx_stm32_device_controllers/ux_dcd_stm32_callback.c **** 
 256:../STM32Cube_FW_N6/Middlewares/ST/usbx/common/usbx_stm32_device_controllers/ux_dcd_stm32_callback.c ****     /* Clear the length of the data received.  */
 257:../STM32Cube_FW_N6/Middlewares/ST/usbx/common/usbx_stm32_device_controllers/ux_dcd_stm32_callback.c ****     transfer_request -> ux_slave_transfer_request_actual_length =  0;
 279              		.loc 1 257 5 is_stmt 1 view .LVU92
 258:../STM32Cube_FW_N6/Middlewares/ST/usbx/common/usbx_stm32_device_controllers/ux_dcd_stm32_callback.c **** 
 259:../STM32Cube_FW_N6/Middlewares/ST/usbx/common/usbx_stm32_device_controllers/ux_dcd_stm32_callback.c ****     /* Mark the phase as SETUP.  */
 260:../STM32Cube_FW_N6/Middlewares/ST/usbx/common/usbx_stm32_device_controllers/ux_dcd_stm32_callback.c ****     transfer_request -> ux_slave_transfer_request_type =  UX_TRANSFER_PHASE_SETUP;
 280              		.loc 1 260 56 is_stmt 0 view .LVU93
 281 001c 0123     		movs	r3, #1
 257:../STM32Cube_FW_N6/Middlewares/ST/usbx/common/usbx_stm32_device_controllers/ux_dcd_stm32_callback.c **** 
 282              		.loc 1 257 65 view .LVU94
 283 001e 0022     		movs	r2, #0
 284              		.loc 1 260 56 view .LVU95
 285 0020 6362     		str	r3, [r4, #36]
 261:../STM32Cube_FW_N6/Middlewares/ST/usbx/common/usbx_stm32_device_controllers/ux_dcd_stm32_callback.c **** 
 262:../STM32Cube_FW_N6/Middlewares/ST/usbx/common/usbx_stm32_device_controllers/ux_dcd_stm32_callback.c ****     /* Mark the transfer as successful.  */
 263:../STM32Cube_FW_N6/Middlewares/ST/usbx/common/usbx_stm32_device_controllers/ux_dcd_stm32_callback.c ****     transfer_request -> ux_slave_transfer_request_completion_code =  UX_SUCCESS;
 264:../STM32Cube_FW_N6/Middlewares/ST/usbx/common/usbx_stm32_device_controllers/ux_dcd_stm32_callback.c **** 
 265:../STM32Cube_FW_N6/Middlewares/ST/usbx/common/usbx_stm32_device_controllers/ux_dcd_stm32_callback.c ****     /* Set the status of the endpoint to not stalled.  */
 266:../STM32Cube_FW_N6/Middlewares/ST/usbx/common/usbx_stm32_device_controllers/ux_dcd_stm32_callback.c ****     ed -> ux_dcd_stm32_ed_status &= ~(UX_DCD_STM32_ED_STATUS_STALLED |
 286              		.loc 1 266 34 view .LVU96
 287 0022 AB68     		ldr	r3, [r5, #8]
 257:../STM32Cube_FW_N6/Middlewares/ST/usbx/common/usbx_stm32_device_controllers/ux_dcd_stm32_callback.c **** 
 288              		.loc 1 257 65 view .LVU97
 289 0024 A263     		str	r2, [r4, #56]
 260:../STM32Cube_FW_N6/Middlewares/ST/usbx/common/usbx_stm32_device_controllers/ux_dcd_stm32_callback.c **** 
 290              		.loc 1 260 5 is_stmt 1 view .LVU98
 263:../STM32Cube_FW_N6/Middlewares/ST/usbx/common/usbx_stm32_device_controllers/ux_dcd_stm32_callback.c **** 
 291              		.loc 1 263 5 view .LVU99
 292              		.loc 1 266 34 is_stmt 0 view .LVU100
 293 0026 23F00E03 		bic	r3, r3, #14
 263:../STM32Cube_FW_N6/Middlewares/ST/usbx/common/usbx_stm32_device_controllers/ux_dcd_stm32_callback.c **** 
 294              		.loc 1 263 67 view .LVU101
 295 002a 6264     		str	r2, [r4, #68]
 296              		.loc 1 266 5 is_stmt 1 view .LVU102
 297              		.loc 1 266 34 is_stmt 0 view .LVU103
 298 002c AB60     		str	r3, [r5, #8]
ARM GAS  /tmp/cc4jpTWk.s 			page 12


 267:../STM32Cube_FW_N6/Middlewares/ST/usbx/common/usbx_stm32_device_controllers/ux_dcd_stm32_callback.c ****                                       UX_DCD_STM32_ED_STATUS_TRANSFER |
 268:../STM32Cube_FW_N6/Middlewares/ST/usbx/common/usbx_stm32_device_controllers/ux_dcd_stm32_callback.c ****                                       UX_DCD_STM32_ED_STATUS_DONE);
 269:../STM32Cube_FW_N6/Middlewares/ST/usbx/common/usbx_stm32_device_controllers/ux_dcd_stm32_callback.c **** 
 270:../STM32Cube_FW_N6/Middlewares/ST/usbx/common/usbx_stm32_device_controllers/ux_dcd_stm32_callback.c ****     /* Check if the transaction is IN.  */
 271:../STM32Cube_FW_N6/Middlewares/ST/usbx/common/usbx_stm32_device_controllers/ux_dcd_stm32_callback.c ****     if (*transfer_request -> ux_slave_transfer_request_setup & UX_REQUEST_IN)
 299              		.loc 1 271 5 is_stmt 1 view .LVU104
 300              		.loc 1 271 8 is_stmt 0 view .LVU105
 301 002e 94F95C10 		ldrsb	r1, [r4, #92]
 302 0032 9142     		cmp	r1, r2
 303 0034 04DA     		bge	.L14
 272:../STM32Cube_FW_N6/Middlewares/ST/usbx/common/usbx_stm32_device_controllers/ux_dcd_stm32_callback.c ****     {
 273:../STM32Cube_FW_N6/Middlewares/ST/usbx/common/usbx_stm32_device_controllers/ux_dcd_stm32_callback.c **** #if defined(UX_DEVICE_STANDALONE)
 274:../STM32Cube_FW_N6/Middlewares/ST/usbx/common/usbx_stm32_device_controllers/ux_dcd_stm32_callback.c ****         ed -> ux_dcd_stm32_ed_status |= UX_DCD_STM32_ED_STATUS_SETUP_IN;
 304              		.loc 1 274 9 is_stmt 1 view .LVU106
 305              		.loc 1 274 38 is_stmt 0 view .LVU107
 306 0036 43F48073 		orr	r3, r3, #256
 307              	.L19:
 275:../STM32Cube_FW_N6/Middlewares/ST/usbx/common/usbx_stm32_device_controllers/ux_dcd_stm32_callback.c **** #else
 276:../STM32Cube_FW_N6/Middlewares/ST/usbx/common/usbx_stm32_device_controllers/ux_dcd_stm32_callback.c ****         _ux_dcd_stm32_setup_in(ed, transfer_request);
 277:../STM32Cube_FW_N6/Middlewares/ST/usbx/common/usbx_stm32_device_controllers/ux_dcd_stm32_callback.c **** #endif
 278:../STM32Cube_FW_N6/Middlewares/ST/usbx/common/usbx_stm32_device_controllers/ux_dcd_stm32_callback.c ****     }
 279:../STM32Cube_FW_N6/Middlewares/ST/usbx/common/usbx_stm32_device_controllers/ux_dcd_stm32_callback.c ****     else
 280:../STM32Cube_FW_N6/Middlewares/ST/usbx/common/usbx_stm32_device_controllers/ux_dcd_stm32_callback.c ****     {
 281:../STM32Cube_FW_N6/Middlewares/ST/usbx/common/usbx_stm32_device_controllers/ux_dcd_stm32_callback.c **** 
 282:../STM32Cube_FW_N6/Middlewares/ST/usbx/common/usbx_stm32_device_controllers/ux_dcd_stm32_callback.c ****         /* The endpoint is OUT.  This is important to memorize the direction for the control endpoi
 283:../STM32Cube_FW_N6/Middlewares/ST/usbx/common/usbx_stm32_device_controllers/ux_dcd_stm32_callback.c ****            in case of a STALL. */
 284:../STM32Cube_FW_N6/Middlewares/ST/usbx/common/usbx_stm32_device_controllers/ux_dcd_stm32_callback.c ****         ed -> ux_dcd_stm32_ed_direction  = UX_ENDPOINT_OUT;
 285:../STM32Cube_FW_N6/Middlewares/ST/usbx/common/usbx_stm32_device_controllers/ux_dcd_stm32_callback.c **** 
 286:../STM32Cube_FW_N6/Middlewares/ST/usbx/common/usbx_stm32_device_controllers/ux_dcd_stm32_callback.c ****         /* We are in a OUT transaction. Check if there is a data payload. If so, wait for the paylo
 287:../STM32Cube_FW_N6/Middlewares/ST/usbx/common/usbx_stm32_device_controllers/ux_dcd_stm32_callback.c ****            to be delivered.  */
 288:../STM32Cube_FW_N6/Middlewares/ST/usbx/common/usbx_stm32_device_controllers/ux_dcd_stm32_callback.c ****         if (*(transfer_request -> ux_slave_transfer_request_setup + 6) == 0 &&
 289:../STM32Cube_FW_N6/Middlewares/ST/usbx/common/usbx_stm32_device_controllers/ux_dcd_stm32_callback.c ****             *(transfer_request -> ux_slave_transfer_request_setup + 7) == 0)
 290:../STM32Cube_FW_N6/Middlewares/ST/usbx/common/usbx_stm32_device_controllers/ux_dcd_stm32_callback.c ****         {
 291:../STM32Cube_FW_N6/Middlewares/ST/usbx/common/usbx_stm32_device_controllers/ux_dcd_stm32_callback.c **** #if defined(UX_DEVICE_STANDALONE)
 292:../STM32Cube_FW_N6/Middlewares/ST/usbx/common/usbx_stm32_device_controllers/ux_dcd_stm32_callback.c ****             ed -> ux_dcd_stm32_ed_status |= UX_DCD_STM32_ED_STATUS_SETUP_STATUS;
 293:../STM32Cube_FW_N6/Middlewares/ST/usbx/common/usbx_stm32_device_controllers/ux_dcd_stm32_callback.c **** #else
 294:../STM32Cube_FW_N6/Middlewares/ST/usbx/common/usbx_stm32_device_controllers/ux_dcd_stm32_callback.c ****             _ux_dcd_stm32_setup_status(ed, transfer_request, hpcd);
 295:../STM32Cube_FW_N6/Middlewares/ST/usbx/common/usbx_stm32_device_controllers/ux_dcd_stm32_callback.c **** #endif
 296:../STM32Cube_FW_N6/Middlewares/ST/usbx/common/usbx_stm32_device_controllers/ux_dcd_stm32_callback.c ****         }
 297:../STM32Cube_FW_N6/Middlewares/ST/usbx/common/usbx_stm32_device_controllers/ux_dcd_stm32_callback.c ****         else
 298:../STM32Cube_FW_N6/Middlewares/ST/usbx/common/usbx_stm32_device_controllers/ux_dcd_stm32_callback.c ****         {
 299:../STM32Cube_FW_N6/Middlewares/ST/usbx/common/usbx_stm32_device_controllers/ux_dcd_stm32_callback.c **** 
 300:../STM32Cube_FW_N6/Middlewares/ST/usbx/common/usbx_stm32_device_controllers/ux_dcd_stm32_callback.c ****             /* Get the pointer to the logical endpoint from the transfer request.  */
 301:../STM32Cube_FW_N6/Middlewares/ST/usbx/common/usbx_stm32_device_controllers/ux_dcd_stm32_callback.c ****             endpoint =  transfer_request -> ux_slave_transfer_request_endpoint;
 302:../STM32Cube_FW_N6/Middlewares/ST/usbx/common/usbx_stm32_device_controllers/ux_dcd_stm32_callback.c **** 
 303:../STM32Cube_FW_N6/Middlewares/ST/usbx/common/usbx_stm32_device_controllers/ux_dcd_stm32_callback.c ****             /* Get the length we expect from the SETUP packet.  */
 304:../STM32Cube_FW_N6/Middlewares/ST/usbx/common/usbx_stm32_device_controllers/ux_dcd_stm32_callback.c ****             transfer_request -> ux_slave_transfer_request_requested_length = _ux_utility_short_get(
 305:../STM32Cube_FW_N6/Middlewares/ST/usbx/common/usbx_stm32_device_controllers/ux_dcd_stm32_callback.c **** 
 306:../STM32Cube_FW_N6/Middlewares/ST/usbx/common/usbx_stm32_device_controllers/ux_dcd_stm32_callback.c ****             /* Check if we have enough space for the request.  */
 307:../STM32Cube_FW_N6/Middlewares/ST/usbx/common/usbx_stm32_device_controllers/ux_dcd_stm32_callback.c ****             if (transfer_request -> ux_slave_transfer_request_requested_length > UX_SLAVE_REQUEST_C
 308:../STM32Cube_FW_N6/Middlewares/ST/usbx/common/usbx_stm32_device_controllers/ux_dcd_stm32_callback.c ****             {
 309:../STM32Cube_FW_N6/Middlewares/ST/usbx/common/usbx_stm32_device_controllers/ux_dcd_stm32_callback.c **** 
 310:../STM32Cube_FW_N6/Middlewares/ST/usbx/common/usbx_stm32_device_controllers/ux_dcd_stm32_callback.c ****                 /* No space available, stall the endpoint.  */
 311:../STM32Cube_FW_N6/Middlewares/ST/usbx/common/usbx_stm32_device_controllers/ux_dcd_stm32_callback.c ****                 _ux_dcd_stm32_endpoint_stall(dcd_stm32, endpoint);
 312:../STM32Cube_FW_N6/Middlewares/ST/usbx/common/usbx_stm32_device_controllers/ux_dcd_stm32_callback.c **** 
 313:../STM32Cube_FW_N6/Middlewares/ST/usbx/common/usbx_stm32_device_controllers/ux_dcd_stm32_callback.c ****                 /* Next phase is a SETUP.  */
 314:../STM32Cube_FW_N6/Middlewares/ST/usbx/common/usbx_stm32_device_controllers/ux_dcd_stm32_callback.c ****                 ed -> ux_dcd_stm32_ed_state =  UX_DCD_STM32_ED_STATE_IDLE;
ARM GAS  /tmp/cc4jpTWk.s 			page 13


 315:../STM32Cube_FW_N6/Middlewares/ST/usbx/common/usbx_stm32_device_controllers/ux_dcd_stm32_callback.c **** 
 316:../STM32Cube_FW_N6/Middlewares/ST/usbx/common/usbx_stm32_device_controllers/ux_dcd_stm32_callback.c **** #if defined(UX_DEVICE_STANDALONE)
 317:../STM32Cube_FW_N6/Middlewares/ST/usbx/common/usbx_stm32_device_controllers/ux_dcd_stm32_callback.c ****                 ed -> ux_dcd_stm32_ed_status |= UX_DCD_STM32_ED_STATUS_SETUP_STATUS;
 308              		.loc 1 317 46 view .LVU108
 309 003a AB60     		str	r3, [r5, #8]
 318:../STM32Cube_FW_N6/Middlewares/ST/usbx/common/usbx_stm32_device_controllers/ux_dcd_stm32_callback.c **** #endif
 319:../STM32Cube_FW_N6/Middlewares/ST/usbx/common/usbx_stm32_device_controllers/ux_dcd_stm32_callback.c **** 
 320:../STM32Cube_FW_N6/Middlewares/ST/usbx/common/usbx_stm32_device_controllers/ux_dcd_stm32_callback.c ****                 /* We are done.  */
 321:../STM32Cube_FW_N6/Middlewares/ST/usbx/common/usbx_stm32_device_controllers/ux_dcd_stm32_callback.c ****                 return;
 310              		.loc 1 321 17 is_stmt 1 view .LVU109
 311              	.L13:
 322:../STM32Cube_FW_N6/Middlewares/ST/usbx/common/usbx_stm32_device_controllers/ux_dcd_stm32_callback.c ****             }
 323:../STM32Cube_FW_N6/Middlewares/ST/usbx/common/usbx_stm32_device_controllers/ux_dcd_stm32_callback.c ****             else
 324:../STM32Cube_FW_N6/Middlewares/ST/usbx/common/usbx_stm32_device_controllers/ux_dcd_stm32_callback.c ****             {
 325:../STM32Cube_FW_N6/Middlewares/ST/usbx/common/usbx_stm32_device_controllers/ux_dcd_stm32_callback.c **** 
 326:../STM32Cube_FW_N6/Middlewares/ST/usbx/common/usbx_stm32_device_controllers/ux_dcd_stm32_callback.c ****                 /* Reset what we have received so far.  */
 327:../STM32Cube_FW_N6/Middlewares/ST/usbx/common/usbx_stm32_device_controllers/ux_dcd_stm32_callback.c ****                 transfer_request -> ux_slave_transfer_request_actual_length =  0;
 328:../STM32Cube_FW_N6/Middlewares/ST/usbx/common/usbx_stm32_device_controllers/ux_dcd_stm32_callback.c **** 
 329:../STM32Cube_FW_N6/Middlewares/ST/usbx/common/usbx_stm32_device_controllers/ux_dcd_stm32_callback.c ****                 /* And reprogram the current buffer address to the beginning of the buffer.  */
 330:../STM32Cube_FW_N6/Middlewares/ST/usbx/common/usbx_stm32_device_controllers/ux_dcd_stm32_callback.c ****                 transfer_request -> ux_slave_transfer_request_current_data_pointer =  transfer_requ
 331:../STM32Cube_FW_N6/Middlewares/ST/usbx/common/usbx_stm32_device_controllers/ux_dcd_stm32_callback.c **** 
 332:../STM32Cube_FW_N6/Middlewares/ST/usbx/common/usbx_stm32_device_controllers/ux_dcd_stm32_callback.c ****                 /* Receive data.  */
 333:../STM32Cube_FW_N6/Middlewares/ST/usbx/common/usbx_stm32_device_controllers/ux_dcd_stm32_callback.c ****                 HAL_PCD_EP_Receive(hpcd,
 334:../STM32Cube_FW_N6/Middlewares/ST/usbx/common/usbx_stm32_device_controllers/ux_dcd_stm32_callback.c ****                             endpoint -> ux_slave_endpoint_descriptor.bEndpointAddress,
 335:../STM32Cube_FW_N6/Middlewares/ST/usbx/common/usbx_stm32_device_controllers/ux_dcd_stm32_callback.c ****                             transfer_request -> ux_slave_transfer_request_current_data_pointer,
 336:../STM32Cube_FW_N6/Middlewares/ST/usbx/common/usbx_stm32_device_controllers/ux_dcd_stm32_callback.c ****                             transfer_request -> ux_slave_transfer_request_requested_length);
 337:../STM32Cube_FW_N6/Middlewares/ST/usbx/common/usbx_stm32_device_controllers/ux_dcd_stm32_callback.c **** 
 338:../STM32Cube_FW_N6/Middlewares/ST/usbx/common/usbx_stm32_device_controllers/ux_dcd_stm32_callback.c ****                 /* Set the state to RX.  */
 339:../STM32Cube_FW_N6/Middlewares/ST/usbx/common/usbx_stm32_device_controllers/ux_dcd_stm32_callback.c ****                 ed -> ux_dcd_stm32_ed_state =  UX_DCD_STM32_ED_STATE_DATA_RX;
 340:../STM32Cube_FW_N6/Middlewares/ST/usbx/common/usbx_stm32_device_controllers/ux_dcd_stm32_callback.c ****             }
 341:../STM32Cube_FW_N6/Middlewares/ST/usbx/common/usbx_stm32_device_controllers/ux_dcd_stm32_callback.c ****         }
 342:../STM32Cube_FW_N6/Middlewares/ST/usbx/common/usbx_stm32_device_controllers/ux_dcd_stm32_callback.c ****     }
 343:../STM32Cube_FW_N6/Middlewares/ST/usbx/common/usbx_stm32_device_controllers/ux_dcd_stm32_callback.c **** }
 312              		.loc 1 343 1 is_stmt 0 view .LVU110
 313 003c BDE8F081 		pop	{r4, r5, r6, r7, r8, pc}
 314              	.LVL25:
 315              	.L14:
 284:../STM32Cube_FW_N6/Middlewares/ST/usbx/common/usbx_stm32_device_controllers/ux_dcd_stm32_callback.c **** 
 316              		.loc 1 284 9 is_stmt 1 view .LVU111
 284:../STM32Cube_FW_N6/Middlewares/ST/usbx/common/usbx_stm32_device_controllers/ux_dcd_stm32_callback.c **** 
 317              		.loc 1 284 42 is_stmt 0 view .LVU112
 318 0040 AA73     		strb	r2, [r5, #14]
 288:../STM32Cube_FW_N6/Middlewares/ST/usbx/common/usbx_stm32_device_controllers/ux_dcd_stm32_callback.c ****             *(transfer_request -> ux_slave_transfer_request_setup + 7) == 0)
 319              		.loc 1 288 9 is_stmt 1 view .LVU113
 288:../STM32Cube_FW_N6/Middlewares/ST/usbx/common/usbx_stm32_device_controllers/ux_dcd_stm32_callback.c ****             *(transfer_request -> ux_slave_transfer_request_setup + 7) == 0)
 320              		.loc 1 288 12 is_stmt 0 view .LVU114
 321 0042 94F86220 		ldrb	r2, [r4, #98]	@ zero_extendqisi2
 322 0046 2AB9     		cbnz	r2, .L16
 288:../STM32Cube_FW_N6/Middlewares/ST/usbx/common/usbx_stm32_device_controllers/ux_dcd_stm32_callback.c ****             *(transfer_request -> ux_slave_transfer_request_setup + 7) == 0)
 323              		.loc 1 288 77 discriminator 1 view .LVU115
 324 0048 94F86320 		ldrb	r2, [r4, #99]	@ zero_extendqisi2
 325 004c 12B9     		cbnz	r2, .L16
 326              	.L18:
 317:../STM32Cube_FW_N6/Middlewares/ST/usbx/common/usbx_stm32_device_controllers/ux_dcd_stm32_callback.c **** #endif
 327              		.loc 1 317 46 view .LVU116
 328 004e 43F40073 		orr	r3, r3, #512
 329 0052 F2E7     		b	.L19
ARM GAS  /tmp/cc4jpTWk.s 			page 14


 330              	.L16:
 301:../STM32Cube_FW_N6/Middlewares/ST/usbx/common/usbx_stm32_device_controllers/ux_dcd_stm32_callback.c **** 
 331              		.loc 1 301 13 is_stmt 1 view .LVU117
 304:../STM32Cube_FW_N6/Middlewares/ST/usbx/common/usbx_stm32_device_controllers/ux_dcd_stm32_callback.c **** 
 332              		.loc 1 304 78 is_stmt 0 view .LVU118
 333 0054 04F16200 		add	r0, r4, #98
 301:../STM32Cube_FW_N6/Middlewares/ST/usbx/common/usbx_stm32_device_controllers/ux_dcd_stm32_callback.c **** 
 334              		.loc 1 301 22 view .LVU119
 335 0058 A76A     		ldr	r7, [r4, #40]
 336              	.LVL26:
 304:../STM32Cube_FW_N6/Middlewares/ST/usbx/common/usbx_stm32_device_controllers/ux_dcd_stm32_callback.c **** 
 337              		.loc 1 304 13 is_stmt 1 view .LVU120
 304:../STM32Cube_FW_N6/Middlewares/ST/usbx/common/usbx_stm32_device_controllers/ux_dcd_stm32_callback.c **** 
 338              		.loc 1 304 78 is_stmt 0 view .LVU121
 339 005a FFF7FEFF 		bl	_ux_utility_short_get
 340              	.LVL27:
 307:../STM32Cube_FW_N6/Middlewares/ST/usbx/common/usbx_stm32_device_controllers/ux_dcd_stm32_callback.c ****             {
 341              		.loc 1 307 16 view .LVU122
 342 005e B0F5007F 		cmp	r0, #512
 304:../STM32Cube_FW_N6/Middlewares/ST/usbx/common/usbx_stm32_device_controllers/ux_dcd_stm32_callback.c **** 
 343              		.loc 1 304 78 view .LVU123
 344 0062 0346     		mov	r3, r0
 345 0064 4FF00008 		mov	r8, #0
 304:../STM32Cube_FW_N6/Middlewares/ST/usbx/common/usbx_stm32_device_controllers/ux_dcd_stm32_callback.c **** 
 346              		.loc 1 304 76 discriminator 1 view .LVU124
 347 0068 6063     		str	r0, [r4, #52]
 307:../STM32Cube_FW_N6/Middlewares/ST/usbx/common/usbx_stm32_device_controllers/ux_dcd_stm32_callback.c ****             {
 348              		.loc 1 307 13 is_stmt 1 view .LVU125
 307:../STM32Cube_FW_N6/Middlewares/ST/usbx/common/usbx_stm32_device_controllers/ux_dcd_stm32_callback.c ****             {
 349              		.loc 1 307 16 is_stmt 0 view .LVU126
 350 006a 07D9     		bls	.L17
 311:../STM32Cube_FW_N6/Middlewares/ST/usbx/common/usbx_stm32_device_controllers/ux_dcd_stm32_callback.c **** 
 351              		.loc 1 311 17 is_stmt 1 view .LVU127
 352 006c 3946     		mov	r1, r7
 353 006e 2846     		mov	r0, r5
 354 0070 FFF7FEFF 		bl	_ux_dcd_stm32_endpoint_stall
 355              	.LVL28:
 314:../STM32Cube_FW_N6/Middlewares/ST/usbx/common/usbx_stm32_device_controllers/ux_dcd_stm32_callback.c **** 
 356              		.loc 1 314 17 view .LVU128
 317:../STM32Cube_FW_N6/Middlewares/ST/usbx/common/usbx_stm32_device_controllers/ux_dcd_stm32_callback.c **** #endif
 357              		.loc 1 317 46 is_stmt 0 view .LVU129
 358 0074 AB68     		ldr	r3, [r5, #8]
 314:../STM32Cube_FW_N6/Middlewares/ST/usbx/common/usbx_stm32_device_controllers/ux_dcd_stm32_callback.c **** 
 359              		.loc 1 314 45 view .LVU130
 360 0076 85F80C80 		strb	r8, [r5, #12]
 317:../STM32Cube_FW_N6/Middlewares/ST/usbx/common/usbx_stm32_device_controllers/ux_dcd_stm32_callback.c **** #endif
 361              		.loc 1 317 17 is_stmt 1 view .LVU131
 362 007a E8E7     		b	.L18
 363              	.L17:
 327:../STM32Cube_FW_N6/Middlewares/ST/usbx/common/usbx_stm32_device_controllers/ux_dcd_stm32_callback.c **** 
 364              		.loc 1 327 17 view .LVU132
 330:../STM32Cube_FW_N6/Middlewares/ST/usbx/common/usbx_stm32_device_controllers/ux_dcd_stm32_callback.c **** 
 365              		.loc 1 330 104 is_stmt 0 view .LVU133
 366 007c E26A     		ldr	r2, [r4, #44]
 327:../STM32Cube_FW_N6/Middlewares/ST/usbx/common/usbx_stm32_device_controllers/ux_dcd_stm32_callback.c **** 
 367              		.loc 1 327 77 view .LVU134
 368 007e C4F83880 		str	r8, [r4, #56]
ARM GAS  /tmp/cc4jpTWk.s 			page 15


 330:../STM32Cube_FW_N6/Middlewares/ST/usbx/common/usbx_stm32_device_controllers/ux_dcd_stm32_callback.c **** 
 369              		.loc 1 330 17 is_stmt 1 view .LVU135
 330:../STM32Cube_FW_N6/Middlewares/ST/usbx/common/usbx_stm32_device_controllers/ux_dcd_stm32_callback.c **** 
 370              		.loc 1 330 84 is_stmt 0 view .LVU136
 371 0082 2263     		str	r2, [r4, #48]
 333:../STM32Cube_FW_N6/Middlewares/ST/usbx/common/usbx_stm32_device_controllers/ux_dcd_stm32_callback.c ****                             endpoint -> ux_slave_endpoint_descriptor.bEndpointAddress,
 372              		.loc 1 333 17 is_stmt 1 view .LVU137
 373 0084 3046     		mov	r0, r6
 374 0086 B97B     		ldrb	r1, [r7, #14]	@ zero_extendqisi2
 375 0088 FFF7FEFF 		bl	HAL_PCD_EP_Receive
 376              	.LVL29:
 339:../STM32Cube_FW_N6/Middlewares/ST/usbx/common/usbx_stm32_device_controllers/ux_dcd_stm32_callback.c ****             }
 377              		.loc 1 339 17 view .LVU138
 339:../STM32Cube_FW_N6/Middlewares/ST/usbx/common/usbx_stm32_device_controllers/ux_dcd_stm32_callback.c ****             }
 378              		.loc 1 339 45 is_stmt 0 view .LVU139
 379 008c 0223     		movs	r3, #2
 380 008e 2B73     		strb	r3, [r5, #12]
 381 0090 D4E7     		b	.L13
 382              	.L21:
 383 0092 00BF     		.align	2
 384              	.L20:
 385 0094 00000000 		.word	_ux_system_slave
 386              		.cfi_endproc
 387              	.LFE889:
 389              		.section	.text.HAL_PCD_DataInStageCallback,"ax",%progbits
 390              		.align	1
 391              		.global	HAL_PCD_DataInStageCallback
 392              		.syntax unified
 393              		.thumb
 394              		.thumb_func
 396              	HAL_PCD_DataInStageCallback:
 397              	.LVL30:
 398              	.LFB890:
 344:../STM32Cube_FW_N6/Middlewares/ST/usbx/common/usbx_stm32_device_controllers/ux_dcd_stm32_callback.c **** 
 345:../STM32Cube_FW_N6/Middlewares/ST/usbx/common/usbx_stm32_device_controllers/ux_dcd_stm32_callback.c **** 
 346:../STM32Cube_FW_N6/Middlewares/ST/usbx/common/usbx_stm32_device_controllers/ux_dcd_stm32_callback.c **** /**************************************************************************/
 347:../STM32Cube_FW_N6/Middlewares/ST/usbx/common/usbx_stm32_device_controllers/ux_dcd_stm32_callback.c **** /*                                                                        */
 348:../STM32Cube_FW_N6/Middlewares/ST/usbx/common/usbx_stm32_device_controllers/ux_dcd_stm32_callback.c **** /*  FUNCTION                                               RELEASE        */
 349:../STM32Cube_FW_N6/Middlewares/ST/usbx/common/usbx_stm32_device_controllers/ux_dcd_stm32_callback.c **** /*                                                                        */
 350:../STM32Cube_FW_N6/Middlewares/ST/usbx/common/usbx_stm32_device_controllers/ux_dcd_stm32_callback.c **** /*    HAL_PCD_DataInStageCallback                         PORTABLE C      */
 351:../STM32Cube_FW_N6/Middlewares/ST/usbx/common/usbx_stm32_device_controllers/ux_dcd_stm32_callback.c **** /*                                                           6.1.12       */
 352:../STM32Cube_FW_N6/Middlewares/ST/usbx/common/usbx_stm32_device_controllers/ux_dcd_stm32_callback.c **** /*  AUTHOR                                                                */
 353:../STM32Cube_FW_N6/Middlewares/ST/usbx/common/usbx_stm32_device_controllers/ux_dcd_stm32_callback.c **** /*                                                                        */
 354:../STM32Cube_FW_N6/Middlewares/ST/usbx/common/usbx_stm32_device_controllers/ux_dcd_stm32_callback.c **** /*    Chaoqiong Xiao, Microsoft Corporation                               */
 355:../STM32Cube_FW_N6/Middlewares/ST/usbx/common/usbx_stm32_device_controllers/ux_dcd_stm32_callback.c **** /*                                                                        */
 356:../STM32Cube_FW_N6/Middlewares/ST/usbx/common/usbx_stm32_device_controllers/ux_dcd_stm32_callback.c **** /*  DESCRIPTION                                                           */
 357:../STM32Cube_FW_N6/Middlewares/ST/usbx/common/usbx_stm32_device_controllers/ux_dcd_stm32_callback.c **** /*                                                                        */
 358:../STM32Cube_FW_N6/Middlewares/ST/usbx/common/usbx_stm32_device_controllers/ux_dcd_stm32_callback.c **** /*    This function handles callback from HAL driver.                     */
 359:../STM32Cube_FW_N6/Middlewares/ST/usbx/common/usbx_stm32_device_controllers/ux_dcd_stm32_callback.c **** /*                                                                        */
 360:../STM32Cube_FW_N6/Middlewares/ST/usbx/common/usbx_stm32_device_controllers/ux_dcd_stm32_callback.c **** /*  INPUT                                                                 */
 361:../STM32Cube_FW_N6/Middlewares/ST/usbx/common/usbx_stm32_device_controllers/ux_dcd_stm32_callback.c **** /*                                                                        */
 362:../STM32Cube_FW_N6/Middlewares/ST/usbx/common/usbx_stm32_device_controllers/ux_dcd_stm32_callback.c **** /*    hpcd                                  Pointer to PCD handle         */
 363:../STM32Cube_FW_N6/Middlewares/ST/usbx/common/usbx_stm32_device_controllers/ux_dcd_stm32_callback.c **** /*    epnum                                 Endpoint number               */
 364:../STM32Cube_FW_N6/Middlewares/ST/usbx/common/usbx_stm32_device_controllers/ux_dcd_stm32_callback.c **** /*                                                                        */
 365:../STM32Cube_FW_N6/Middlewares/ST/usbx/common/usbx_stm32_device_controllers/ux_dcd_stm32_callback.c **** /*  OUTPUT                                                                */
 366:../STM32Cube_FW_N6/Middlewares/ST/usbx/common/usbx_stm32_device_controllers/ux_dcd_stm32_callback.c **** /*                                                                        */
 367:../STM32Cube_FW_N6/Middlewares/ST/usbx/common/usbx_stm32_device_controllers/ux_dcd_stm32_callback.c **** /*    None                                                                */
ARM GAS  /tmp/cc4jpTWk.s 			page 16


 368:../STM32Cube_FW_N6/Middlewares/ST/usbx/common/usbx_stm32_device_controllers/ux_dcd_stm32_callback.c **** /*                                                                        */
 369:../STM32Cube_FW_N6/Middlewares/ST/usbx/common/usbx_stm32_device_controllers/ux_dcd_stm32_callback.c **** /*  CALLS                                                                 */
 370:../STM32Cube_FW_N6/Middlewares/ST/usbx/common/usbx_stm32_device_controllers/ux_dcd_stm32_callback.c **** /*                                                                        */
 371:../STM32Cube_FW_N6/Middlewares/ST/usbx/common/usbx_stm32_device_controllers/ux_dcd_stm32_callback.c **** /*    _ux_utility_semaphore_put             Put semaphore                 */
 372:../STM32Cube_FW_N6/Middlewares/ST/usbx/common/usbx_stm32_device_controllers/ux_dcd_stm32_callback.c **** /*    HAL_PCD_EP_Transmit                   Transmit data                 */
 373:../STM32Cube_FW_N6/Middlewares/ST/usbx/common/usbx_stm32_device_controllers/ux_dcd_stm32_callback.c **** /*    HAL_PCD_EP_Receive                    Receive data                  */
 374:../STM32Cube_FW_N6/Middlewares/ST/usbx/common/usbx_stm32_device_controllers/ux_dcd_stm32_callback.c **** /*                                                                        */
 375:../STM32Cube_FW_N6/Middlewares/ST/usbx/common/usbx_stm32_device_controllers/ux_dcd_stm32_callback.c **** /*  CALLED BY                                                             */
 376:../STM32Cube_FW_N6/Middlewares/ST/usbx/common/usbx_stm32_device_controllers/ux_dcd_stm32_callback.c **** /*                                                                        */
 377:../STM32Cube_FW_N6/Middlewares/ST/usbx/common/usbx_stm32_device_controllers/ux_dcd_stm32_callback.c **** /*    STM32 HAL Driver                                                    */
 378:../STM32Cube_FW_N6/Middlewares/ST/usbx/common/usbx_stm32_device_controllers/ux_dcd_stm32_callback.c **** /*                                                                        */
 379:../STM32Cube_FW_N6/Middlewares/ST/usbx/common/usbx_stm32_device_controllers/ux_dcd_stm32_callback.c **** /*  RELEASE HISTORY                                                       */
 380:../STM32Cube_FW_N6/Middlewares/ST/usbx/common/usbx_stm32_device_controllers/ux_dcd_stm32_callback.c **** /*                                                                        */
 381:../STM32Cube_FW_N6/Middlewares/ST/usbx/common/usbx_stm32_device_controllers/ux_dcd_stm32_callback.c **** /*    DATE              NAME                      DESCRIPTION             */
 382:../STM32Cube_FW_N6/Middlewares/ST/usbx/common/usbx_stm32_device_controllers/ux_dcd_stm32_callback.c **** /*                                                                        */
 383:../STM32Cube_FW_N6/Middlewares/ST/usbx/common/usbx_stm32_device_controllers/ux_dcd_stm32_callback.c **** /*  09-30-2020     Chaoqiong Xiao           Initial Version 6.1           */
 384:../STM32Cube_FW_N6/Middlewares/ST/usbx/common/usbx_stm32_device_controllers/ux_dcd_stm32_callback.c **** /*  01-31-2022     Chaoqiong Xiao           Modified comment(s),          */
 385:../STM32Cube_FW_N6/Middlewares/ST/usbx/common/usbx_stm32_device_controllers/ux_dcd_stm32_callback.c **** /*                                            added standalone support,   */
 386:../STM32Cube_FW_N6/Middlewares/ST/usbx/common/usbx_stm32_device_controllers/ux_dcd_stm32_callback.c **** /*                                            added bi-dir EP support,    */
 387:../STM32Cube_FW_N6/Middlewares/ST/usbx/common/usbx_stm32_device_controllers/ux_dcd_stm32_callback.c **** /*                                            resulting in version 6.1.10 */
 388:../STM32Cube_FW_N6/Middlewares/ST/usbx/common/usbx_stm32_device_controllers/ux_dcd_stm32_callback.c **** /*  07-29-2022     Chaoqiong Xiao           Modified comment(s),          */
 389:../STM32Cube_FW_N6/Middlewares/ST/usbx/common/usbx_stm32_device_controllers/ux_dcd_stm32_callback.c **** /*                                            fixed transmit ZLP issue,   */
 390:../STM32Cube_FW_N6/Middlewares/ST/usbx/common/usbx_stm32_device_controllers/ux_dcd_stm32_callback.c **** /*                                            resulting in version 6.1.12 */
 391:../STM32Cube_FW_N6/Middlewares/ST/usbx/common/usbx_stm32_device_controllers/ux_dcd_stm32_callback.c **** /*                                                                        */
 392:../STM32Cube_FW_N6/Middlewares/ST/usbx/common/usbx_stm32_device_controllers/ux_dcd_stm32_callback.c **** /**************************************************************************/
 393:../STM32Cube_FW_N6/Middlewares/ST/usbx/common/usbx_stm32_device_controllers/ux_dcd_stm32_callback.c **** void HAL_PCD_DataInStageCallback(PCD_HandleTypeDef *hpcd, uint8_t epnum)
 394:../STM32Cube_FW_N6/Middlewares/ST/usbx/common/usbx_stm32_device_controllers/ux_dcd_stm32_callback.c **** {
 399              		.loc 1 394 1 is_stmt 1 view -0
 400              		.cfi_startproc
 401              		@ args = 0, pretend = 0, frame = 0
 402              		@ frame_needed = 0, uses_anonymous_args = 0
 395:../STM32Cube_FW_N6/Middlewares/ST/usbx/common/usbx_stm32_device_controllers/ux_dcd_stm32_callback.c **** 
 396:../STM32Cube_FW_N6/Middlewares/ST/usbx/common/usbx_stm32_device_controllers/ux_dcd_stm32_callback.c **** UX_SLAVE_DCD            *dcd;
 403              		.loc 1 396 1 view .LVU141
 397:../STM32Cube_FW_N6/Middlewares/ST/usbx/common/usbx_stm32_device_controllers/ux_dcd_stm32_callback.c **** UX_DCD_STM32            *dcd_stm32;
 404              		.loc 1 397 1 view .LVU142
 398:../STM32Cube_FW_N6/Middlewares/ST/usbx/common/usbx_stm32_device_controllers/ux_dcd_stm32_callback.c **** UX_DCD_STM32_ED         *ed;
 405              		.loc 1 398 1 view .LVU143
 399:../STM32Cube_FW_N6/Middlewares/ST/usbx/common/usbx_stm32_device_controllers/ux_dcd_stm32_callback.c **** UX_SLAVE_TRANSFER       *transfer_request;
 406              		.loc 1 399 1 view .LVU144
 400:../STM32Cube_FW_N6/Middlewares/ST/usbx/common/usbx_stm32_device_controllers/ux_dcd_stm32_callback.c **** ULONG                   transfer_length;
 407              		.loc 1 400 1 view .LVU145
 401:../STM32Cube_FW_N6/Middlewares/ST/usbx/common/usbx_stm32_device_controllers/ux_dcd_stm32_callback.c **** UX_SLAVE_ENDPOINT       *endpoint;
 408              		.loc 1 401 1 view .LVU146
 402:../STM32Cube_FW_N6/Middlewares/ST/usbx/common/usbx_stm32_device_controllers/ux_dcd_stm32_callback.c **** 
 403:../STM32Cube_FW_N6/Middlewares/ST/usbx/common/usbx_stm32_device_controllers/ux_dcd_stm32_callback.c **** 
 404:../STM32Cube_FW_N6/Middlewares/ST/usbx/common/usbx_stm32_device_controllers/ux_dcd_stm32_callback.c ****     /* Get the pointer to the DCD.  */
 405:../STM32Cube_FW_N6/Middlewares/ST/usbx/common/usbx_stm32_device_controllers/ux_dcd_stm32_callback.c ****     dcd =  &_ux_system_slave -> ux_system_slave_dcd;
 409              		.loc 1 405 5 view .LVU147
 406:../STM32Cube_FW_N6/Middlewares/ST/usbx/common/usbx_stm32_device_controllers/ux_dcd_stm32_callback.c **** 
 407:../STM32Cube_FW_N6/Middlewares/ST/usbx/common/usbx_stm32_device_controllers/ux_dcd_stm32_callback.c ****     /* Get the pointer to the STM32 DCD.  */
 408:../STM32Cube_FW_N6/Middlewares/ST/usbx/common/usbx_stm32_device_controllers/ux_dcd_stm32_callback.c ****     dcd_stm32 = (UX_DCD_STM32 *) dcd -> ux_slave_dcd_controller_hardware;
 410              		.loc 1 408 5 view .LVU148
 411              		.loc 1 408 15 is_stmt 0 view .LVU149
 412 0000 2E4B     		ldr	r3, .L39
 413              	.LVL31:
 394:../STM32Cube_FW_N6/Middlewares/ST/usbx/common/usbx_stm32_device_controllers/ux_dcd_stm32_callback.c **** 
ARM GAS  /tmp/cc4jpTWk.s 			page 17


 414              		.loc 1 394 1 view .LVU150
 415 0002 2DE9F041 		push	{r4, r5, r6, r7, r8, lr}
 416              		.cfi_def_cfa_offset 24
 417              		.cfi_offset 4, -24
 418              		.cfi_offset 5, -20
 419              		.cfi_offset 6, -16
 420              		.cfi_offset 7, -12
 421              		.cfi_offset 8, -8
 422              		.cfi_offset 14, -4
 423              		.loc 1 408 15 view .LVU151
 424 0006 1B68     		ldr	r3, [r3]
 425              	.LVL32:
 426              		.loc 1 408 15 view .LVU152
 427 0008 01F00F02 		and	r2, r1, #15
 428 000c DE69     		ldr	r6, [r3, #28]
 429              	.LVL33:
 409:../STM32Cube_FW_N6/Middlewares/ST/usbx/common/usbx_stm32_device_controllers/ux_dcd_stm32_callback.c **** 
 410:../STM32Cube_FW_N6/Middlewares/ST/usbx/common/usbx_stm32_device_controllers/ux_dcd_stm32_callback.c ****     /* Fetch the address of the physical endpoint.  */
 411:../STM32Cube_FW_N6/Middlewares/ST/usbx/common/usbx_stm32_device_controllers/ux_dcd_stm32_callback.c **** #if defined(UX_DEVICE_BIDIRECTIONAL_ENDPOINT_SUPPORT)
 412:../STM32Cube_FW_N6/Middlewares/ST/usbx/common/usbx_stm32_device_controllers/ux_dcd_stm32_callback.c ****     if ((epnum & 0xF) != 0)
 413:../STM32Cube_FW_N6/Middlewares/ST/usbx/common/usbx_stm32_device_controllers/ux_dcd_stm32_callback.c ****         ed =  &dcd_stm32 -> ux_dcd_stm32_ed_in[epnum & 0xF];
 414:../STM32Cube_FW_N6/Middlewares/ST/usbx/common/usbx_stm32_device_controllers/ux_dcd_stm32_callback.c ****     else
 415:../STM32Cube_FW_N6/Middlewares/ST/usbx/common/usbx_stm32_device_controllers/ux_dcd_stm32_callback.c **** #endif /* defined(UX_DEVICE_BIDIRECTIONAL_ENDPOINT_SUPPORT) */
 416:../STM32Cube_FW_N6/Middlewares/ST/usbx/common/usbx_stm32_device_controllers/ux_dcd_stm32_callback.c ****     ed =  &dcd_stm32 -> ux_dcd_stm32_ed[epnum & 0xF];
 430              		.loc 1 416 5 is_stmt 1 view .LVU153
 417:../STM32Cube_FW_N6/Middlewares/ST/usbx/common/usbx_stm32_device_controllers/ux_dcd_stm32_callback.c **** 
 418:../STM32Cube_FW_N6/Middlewares/ST/usbx/common/usbx_stm32_device_controllers/ux_dcd_stm32_callback.c ****     /* Get the pointer to the transfer request.  */
 419:../STM32Cube_FW_N6/Middlewares/ST/usbx/common/usbx_stm32_device_controllers/ux_dcd_stm32_callback.c ****     transfer_request =  &(ed -> ux_dcd_stm32_ed_endpoint -> ux_slave_endpoint_transfer_request);
 431              		.loc 1 419 5 view .LVU154
 432 000e 0C23     		movs	r3, #12
 433              	.LVL34:
 434              		.loc 1 419 5 is_stmt 0 view .LVU155
 435 0010 03FB0262 		mla	r2, r3, r2, r6
 394:../STM32Cube_FW_N6/Middlewares/ST/usbx/common/usbx_stm32_device_controllers/ux_dcd_stm32_callback.c **** 
 436              		.loc 1 394 1 view .LVU156
 437 0014 0746     		mov	r7, r0
 438 0016 0D46     		mov	r5, r1
 439              		.loc 1 419 30 view .LVU157
 440 0018 5468     		ldr	r4, [r2, #4]
 441              	.LVL35:
 420:../STM32Cube_FW_N6/Middlewares/ST/usbx/common/usbx_stm32_device_controllers/ux_dcd_stm32_callback.c **** 
 421:../STM32Cube_FW_N6/Middlewares/ST/usbx/common/usbx_stm32_device_controllers/ux_dcd_stm32_callback.c ****     /* Endpoint 0 is different.  */
 422:../STM32Cube_FW_N6/Middlewares/ST/usbx/common/usbx_stm32_device_controllers/ux_dcd_stm32_callback.c ****     if (epnum == 0U)
 442              		.loc 1 422 5 is_stmt 1 view .LVU158
 443              		.loc 1 422 8 is_stmt 0 view .LVU159
 444 001a 0029     		cmp	r1, #0
 445 001c 3BD1     		bne	.L23
 423:../STM32Cube_FW_N6/Middlewares/ST/usbx/common/usbx_stm32_device_controllers/ux_dcd_stm32_callback.c ****     {
 424:../STM32Cube_FW_N6/Middlewares/ST/usbx/common/usbx_stm32_device_controllers/ux_dcd_stm32_callback.c **** 
 425:../STM32Cube_FW_N6/Middlewares/ST/usbx/common/usbx_stm32_device_controllers/ux_dcd_stm32_callback.c ****         /* Get the pointer to the logical endpoint from the transfer request.  */
 426:../STM32Cube_FW_N6/Middlewares/ST/usbx/common/usbx_stm32_device_controllers/ux_dcd_stm32_callback.c ****         endpoint =  transfer_request -> ux_slave_transfer_request_endpoint;
 446              		.loc 1 426 9 is_stmt 1 view .LVU160
 447              	.LVL36:
 427:../STM32Cube_FW_N6/Middlewares/ST/usbx/common/usbx_stm32_device_controllers/ux_dcd_stm32_callback.c **** 
 428:../STM32Cube_FW_N6/Middlewares/ST/usbx/common/usbx_stm32_device_controllers/ux_dcd_stm32_callback.c ****         /* Check if we need to send data again on control endpoint. */
 429:../STM32Cube_FW_N6/Middlewares/ST/usbx/common/usbx_stm32_device_controllers/ux_dcd_stm32_callback.c ****         if (ed -> ux_dcd_stm32_ed_state == UX_DCD_STM32_ED_STATE_DATA_TX)
 448              		.loc 1 429 9 view .LVU161
ARM GAS  /tmp/cc4jpTWk.s 			page 18


 449              		.loc 1 429 12 is_stmt 0 view .LVU162
 450 001e 337B     		ldrb	r3, [r6, #12]	@ zero_extendqisi2
 451 0020 012B     		cmp	r3, #1
 452 0022 15D1     		bne	.L22
 426:../STM32Cube_FW_N6/Middlewares/ST/usbx/common/usbx_stm32_device_controllers/ux_dcd_stm32_callback.c **** 
 453              		.loc 1 426 18 view .LVU163
 454 0024 D4F82880 		ldr	r8, [r4, #40]
 430:../STM32Cube_FW_N6/Middlewares/ST/usbx/common/usbx_stm32_device_controllers/ux_dcd_stm32_callback.c ****         {
 431:../STM32Cube_FW_N6/Middlewares/ST/usbx/common/usbx_stm32_device_controllers/ux_dcd_stm32_callback.c **** 
 432:../STM32Cube_FW_N6/Middlewares/ST/usbx/common/usbx_stm32_device_controllers/ux_dcd_stm32_callback.c ****             /* Arm Status transfer.  */
 433:../STM32Cube_FW_N6/Middlewares/ST/usbx/common/usbx_stm32_device_controllers/ux_dcd_stm32_callback.c ****             HAL_PCD_EP_Receive(hpcd, 0, 0, 0);
 455              		.loc 1 433 13 is_stmt 1 view .LVU164
 456 0028 0B46     		mov	r3, r1
 457 002a 0A46     		mov	r2, r1
 458 002c FFF7FEFF 		bl	HAL_PCD_EP_Receive
 459              	.LVL37:
 434:../STM32Cube_FW_N6/Middlewares/ST/usbx/common/usbx_stm32_device_controllers/ux_dcd_stm32_callback.c **** 
 435:../STM32Cube_FW_N6/Middlewares/ST/usbx/common/usbx_stm32_device_controllers/ux_dcd_stm32_callback.c ****             /* Are we done with this transfer ? */
 436:../STM32Cube_FW_N6/Middlewares/ST/usbx/common/usbx_stm32_device_controllers/ux_dcd_stm32_callback.c ****             if (transfer_request -> ux_slave_transfer_request_in_transfer_length <=
 460              		.loc 1 436 13 view .LVU165
 461              		.loc 1 436 34 is_stmt 0 view .LVU166
 462 0030 E16B     		ldr	r1, [r4, #60]
 463              		.loc 1 436 82 view .LVU167
 464 0032 B8F81000 		ldrh	r0, [r8, #16]
 465              		.loc 1 436 16 view .LVU168
 466 0036 8142     		cmp	r1, r0
 467 0038 1DD8     		bhi	.L25
 437:../STM32Cube_FW_N6/Middlewares/ST/usbx/common/usbx_stm32_device_controllers/ux_dcd_stm32_callback.c ****                 endpoint -> ux_slave_endpoint_descriptor.wMaxPacketSize)
 438:../STM32Cube_FW_N6/Middlewares/ST/usbx/common/usbx_stm32_device_controllers/ux_dcd_stm32_callback.c ****             {
 439:../STM32Cube_FW_N6/Middlewares/ST/usbx/common/usbx_stm32_device_controllers/ux_dcd_stm32_callback.c **** 
 440:../STM32Cube_FW_N6/Middlewares/ST/usbx/common/usbx_stm32_device_controllers/ux_dcd_stm32_callback.c ****                 /* There is no data to send but we may need to send a Zero Length Packet.  */
 441:../STM32Cube_FW_N6/Middlewares/ST/usbx/common/usbx_stm32_device_controllers/ux_dcd_stm32_callback.c ****                 if (transfer_request -> ux_slave_transfer_request_force_zlp ==  UX_TRUE)
 468              		.loc 1 441 17 is_stmt 1 view .LVU169
 469              		.loc 1 441 20 is_stmt 0 view .LVU170
 470 003a A36D     		ldr	r3, [r4, #88]
 471 003c 012B     		cmp	r3, #1
 472 003e 09D1     		bne	.L26
 442:../STM32Cube_FW_N6/Middlewares/ST/usbx/common/usbx_stm32_device_controllers/ux_dcd_stm32_callback.c ****                 {
 443:../STM32Cube_FW_N6/Middlewares/ST/usbx/common/usbx_stm32_device_controllers/ux_dcd_stm32_callback.c **** 
 444:../STM32Cube_FW_N6/Middlewares/ST/usbx/common/usbx_stm32_device_controllers/ux_dcd_stm32_callback.c ****                     /* Arm a ZLP packet on IN.  */
 445:../STM32Cube_FW_N6/Middlewares/ST/usbx/common/usbx_stm32_device_controllers/ux_dcd_stm32_callback.c ****                     HAL_PCD_EP_Transmit(hpcd,
 473              		.loc 1 445 21 is_stmt 1 view .LVU171
 474 0040 2B46     		mov	r3, r5
 475 0042 2A46     		mov	r2, r5
 476 0044 3846     		mov	r0, r7
 477 0046 98F80E10 		ldrb	r1, [r8, #14]	@ zero_extendqisi2
 478 004a FFF7FEFF 		bl	HAL_PCD_EP_Transmit
 479              	.LVL38:
 446:../STM32Cube_FW_N6/Middlewares/ST/usbx/common/usbx_stm32_device_controllers/ux_dcd_stm32_callback.c ****                             endpoint->ux_slave_endpoint_descriptor.bEndpointAddress, 0, 0);
 447:../STM32Cube_FW_N6/Middlewares/ST/usbx/common/usbx_stm32_device_controllers/ux_dcd_stm32_callback.c **** 
 448:../STM32Cube_FW_N6/Middlewares/ST/usbx/common/usbx_stm32_device_controllers/ux_dcd_stm32_callback.c ****                     /* Reset the ZLP condition.  */
 449:../STM32Cube_FW_N6/Middlewares/ST/usbx/common/usbx_stm32_device_controllers/ux_dcd_stm32_callback.c ****                     transfer_request -> ux_slave_transfer_request_force_zlp =  UX_FALSE;
 480              		.loc 1 449 21 view .LVU172
 481              		.loc 1 449 77 is_stmt 0 view .LVU173
 482 004e A565     		str	r5, [r4, #88]
 483              	.LVL39:
 484              	.L22:
ARM GAS  /tmp/cc4jpTWk.s 			page 19


 450:../STM32Cube_FW_N6/Middlewares/ST/usbx/common/usbx_stm32_device_controllers/ux_dcd_stm32_callback.c **** 
 451:../STM32Cube_FW_N6/Middlewares/ST/usbx/common/usbx_stm32_device_controllers/ux_dcd_stm32_callback.c ****                 }
 452:../STM32Cube_FW_N6/Middlewares/ST/usbx/common/usbx_stm32_device_controllers/ux_dcd_stm32_callback.c ****                 else
 453:../STM32Cube_FW_N6/Middlewares/ST/usbx/common/usbx_stm32_device_controllers/ux_dcd_stm32_callback.c ****                 {
 454:../STM32Cube_FW_N6/Middlewares/ST/usbx/common/usbx_stm32_device_controllers/ux_dcd_stm32_callback.c **** 
 455:../STM32Cube_FW_N6/Middlewares/ST/usbx/common/usbx_stm32_device_controllers/ux_dcd_stm32_callback.c ****                     /* Set the completion code to no error.  */
 456:../STM32Cube_FW_N6/Middlewares/ST/usbx/common/usbx_stm32_device_controllers/ux_dcd_stm32_callback.c ****                     transfer_request -> ux_slave_transfer_request_completion_code =  UX_SUCCESS;
 457:../STM32Cube_FW_N6/Middlewares/ST/usbx/common/usbx_stm32_device_controllers/ux_dcd_stm32_callback.c **** 
 458:../STM32Cube_FW_N6/Middlewares/ST/usbx/common/usbx_stm32_device_controllers/ux_dcd_stm32_callback.c ****                     /* The transfer is completed.  */
 459:../STM32Cube_FW_N6/Middlewares/ST/usbx/common/usbx_stm32_device_controllers/ux_dcd_stm32_callback.c ****                     transfer_request -> ux_slave_transfer_request_status =  UX_TRANSFER_STATUS_COMP
 460:../STM32Cube_FW_N6/Middlewares/ST/usbx/common/usbx_stm32_device_controllers/ux_dcd_stm32_callback.c ****                     transfer_request -> ux_slave_transfer_request_actual_length =
 461:../STM32Cube_FW_N6/Middlewares/ST/usbx/common/usbx_stm32_device_controllers/ux_dcd_stm32_callback.c ****                         transfer_request -> ux_slave_transfer_request_requested_length;
 462:../STM32Cube_FW_N6/Middlewares/ST/usbx/common/usbx_stm32_device_controllers/ux_dcd_stm32_callback.c **** 
 463:../STM32Cube_FW_N6/Middlewares/ST/usbx/common/usbx_stm32_device_controllers/ux_dcd_stm32_callback.c **** #if defined(UX_DEVICE_STANDALONE)
 464:../STM32Cube_FW_N6/Middlewares/ST/usbx/common/usbx_stm32_device_controllers/ux_dcd_stm32_callback.c **** 
 465:../STM32Cube_FW_N6/Middlewares/ST/usbx/common/usbx_stm32_device_controllers/ux_dcd_stm32_callback.c ****                     /* Control status phase done.  */
 466:../STM32Cube_FW_N6/Middlewares/ST/usbx/common/usbx_stm32_device_controllers/ux_dcd_stm32_callback.c ****                     ed -> ux_dcd_stm32_ed_status |= UX_DCD_STM32_ED_STATUS_DONE;
 467:../STM32Cube_FW_N6/Middlewares/ST/usbx/common/usbx_stm32_device_controllers/ux_dcd_stm32_callback.c **** #endif
 468:../STM32Cube_FW_N6/Middlewares/ST/usbx/common/usbx_stm32_device_controllers/ux_dcd_stm32_callback.c **** 
 469:../STM32Cube_FW_N6/Middlewares/ST/usbx/common/usbx_stm32_device_controllers/ux_dcd_stm32_callback.c ****                     /* We are using a Control endpoint, if there is a callback, invoke it. We are s
 470:../STM32Cube_FW_N6/Middlewares/ST/usbx/common/usbx_stm32_device_controllers/ux_dcd_stm32_callback.c ****                     if (transfer_request -> ux_slave_transfer_request_completion_function)
 471:../STM32Cube_FW_N6/Middlewares/ST/usbx/common/usbx_stm32_device_controllers/ux_dcd_stm32_callback.c ****                         transfer_request -> ux_slave_transfer_request_completion_function (transfer
 472:../STM32Cube_FW_N6/Middlewares/ST/usbx/common/usbx_stm32_device_controllers/ux_dcd_stm32_callback.c **** 
 473:../STM32Cube_FW_N6/Middlewares/ST/usbx/common/usbx_stm32_device_controllers/ux_dcd_stm32_callback.c ****                     /* State is now STATUS RX.  */
 474:../STM32Cube_FW_N6/Middlewares/ST/usbx/common/usbx_stm32_device_controllers/ux_dcd_stm32_callback.c ****                     ed -> ux_dcd_stm32_ed_state = UX_DCD_STM32_ED_STATE_STATUS_RX;
 475:../STM32Cube_FW_N6/Middlewares/ST/usbx/common/usbx_stm32_device_controllers/ux_dcd_stm32_callback.c ****                 }
 476:../STM32Cube_FW_N6/Middlewares/ST/usbx/common/usbx_stm32_device_controllers/ux_dcd_stm32_callback.c ****             }
 477:../STM32Cube_FW_N6/Middlewares/ST/usbx/common/usbx_stm32_device_controllers/ux_dcd_stm32_callback.c ****             else
 478:../STM32Cube_FW_N6/Middlewares/ST/usbx/common/usbx_stm32_device_controllers/ux_dcd_stm32_callback.c ****             {
 479:../STM32Cube_FW_N6/Middlewares/ST/usbx/common/usbx_stm32_device_controllers/ux_dcd_stm32_callback.c **** 
 480:../STM32Cube_FW_N6/Middlewares/ST/usbx/common/usbx_stm32_device_controllers/ux_dcd_stm32_callback.c ****                 /* Get the size of the transfer.  */
 481:../STM32Cube_FW_N6/Middlewares/ST/usbx/common/usbx_stm32_device_controllers/ux_dcd_stm32_callback.c ****                 transfer_length = transfer_request -> ux_slave_transfer_request_in_transfer_length 
 482:../STM32Cube_FW_N6/Middlewares/ST/usbx/common/usbx_stm32_device_controllers/ux_dcd_stm32_callback.c **** 
 483:../STM32Cube_FW_N6/Middlewares/ST/usbx/common/usbx_stm32_device_controllers/ux_dcd_stm32_callback.c ****                 /* Check if the endpoint size is bigger that data requested. */
 484:../STM32Cube_FW_N6/Middlewares/ST/usbx/common/usbx_stm32_device_controllers/ux_dcd_stm32_callback.c ****                 if (transfer_length > endpoint -> ux_slave_endpoint_descriptor.wMaxPacketSize)
 485:../STM32Cube_FW_N6/Middlewares/ST/usbx/common/usbx_stm32_device_controllers/ux_dcd_stm32_callback.c ****                 {
 486:../STM32Cube_FW_N6/Middlewares/ST/usbx/common/usbx_stm32_device_controllers/ux_dcd_stm32_callback.c **** 
 487:../STM32Cube_FW_N6/Middlewares/ST/usbx/common/usbx_stm32_device_controllers/ux_dcd_stm32_callback.c ****                     /* Adjust the transfer size.  */
 488:../STM32Cube_FW_N6/Middlewares/ST/usbx/common/usbx_stm32_device_controllers/ux_dcd_stm32_callback.c ****                     transfer_length =  endpoint -> ux_slave_endpoint_descriptor.wMaxPacketSize;
 489:../STM32Cube_FW_N6/Middlewares/ST/usbx/common/usbx_stm32_device_controllers/ux_dcd_stm32_callback.c ****                 }
 490:../STM32Cube_FW_N6/Middlewares/ST/usbx/common/usbx_stm32_device_controllers/ux_dcd_stm32_callback.c **** 
 491:../STM32Cube_FW_N6/Middlewares/ST/usbx/common/usbx_stm32_device_controllers/ux_dcd_stm32_callback.c ****                 /* Adjust the data pointer.  */
 492:../STM32Cube_FW_N6/Middlewares/ST/usbx/common/usbx_stm32_device_controllers/ux_dcd_stm32_callback.c ****                 transfer_request -> ux_slave_transfer_request_current_data_pointer += endpoint -> u
 493:../STM32Cube_FW_N6/Middlewares/ST/usbx/common/usbx_stm32_device_controllers/ux_dcd_stm32_callback.c **** 
 494:../STM32Cube_FW_N6/Middlewares/ST/usbx/common/usbx_stm32_device_controllers/ux_dcd_stm32_callback.c ****                 /* Adjust the transfer length remaining.  */
 495:../STM32Cube_FW_N6/Middlewares/ST/usbx/common/usbx_stm32_device_controllers/ux_dcd_stm32_callback.c ****                 transfer_request -> ux_slave_transfer_request_in_transfer_length -= transfer_length
 496:../STM32Cube_FW_N6/Middlewares/ST/usbx/common/usbx_stm32_device_controllers/ux_dcd_stm32_callback.c **** 
 497:../STM32Cube_FW_N6/Middlewares/ST/usbx/common/usbx_stm32_device_controllers/ux_dcd_stm32_callback.c ****                 /* Transmit data.  */
 498:../STM32Cube_FW_N6/Middlewares/ST/usbx/common/usbx_stm32_device_controllers/ux_dcd_stm32_callback.c ****                 HAL_PCD_EP_Transmit(hpcd,
 499:../STM32Cube_FW_N6/Middlewares/ST/usbx/common/usbx_stm32_device_controllers/ux_dcd_stm32_callback.c ****                             endpoint->ux_slave_endpoint_descriptor.bEndpointAddress,
 500:../STM32Cube_FW_N6/Middlewares/ST/usbx/common/usbx_stm32_device_controllers/ux_dcd_stm32_callback.c ****                             transfer_request->ux_slave_transfer_request_current_data_pointer,
 501:../STM32Cube_FW_N6/Middlewares/ST/usbx/common/usbx_stm32_device_controllers/ux_dcd_stm32_callback.c ****                             transfer_length);
 502:../STM32Cube_FW_N6/Middlewares/ST/usbx/common/usbx_stm32_device_controllers/ux_dcd_stm32_callback.c ****             }
 503:../STM32Cube_FW_N6/Middlewares/ST/usbx/common/usbx_stm32_device_controllers/ux_dcd_stm32_callback.c ****         }
 504:../STM32Cube_FW_N6/Middlewares/ST/usbx/common/usbx_stm32_device_controllers/ux_dcd_stm32_callback.c ****     }
 505:../STM32Cube_FW_N6/Middlewares/ST/usbx/common/usbx_stm32_device_controllers/ux_dcd_stm32_callback.c ****     else
 506:../STM32Cube_FW_N6/Middlewares/ST/usbx/common/usbx_stm32_device_controllers/ux_dcd_stm32_callback.c ****     {
ARM GAS  /tmp/cc4jpTWk.s 			page 20


 507:../STM32Cube_FW_N6/Middlewares/ST/usbx/common/usbx_stm32_device_controllers/ux_dcd_stm32_callback.c **** 
 508:../STM32Cube_FW_N6/Middlewares/ST/usbx/common/usbx_stm32_device_controllers/ux_dcd_stm32_callback.c ****         /* Check if a ZLP should be armed.  */
 509:../STM32Cube_FW_N6/Middlewares/ST/usbx/common/usbx_stm32_device_controllers/ux_dcd_stm32_callback.c ****         if (transfer_request -> ux_slave_transfer_request_force_zlp &&
 510:../STM32Cube_FW_N6/Middlewares/ST/usbx/common/usbx_stm32_device_controllers/ux_dcd_stm32_callback.c ****             transfer_request -> ux_slave_transfer_request_requested_length)
 511:../STM32Cube_FW_N6/Middlewares/ST/usbx/common/usbx_stm32_device_controllers/ux_dcd_stm32_callback.c ****         {
 512:../STM32Cube_FW_N6/Middlewares/ST/usbx/common/usbx_stm32_device_controllers/ux_dcd_stm32_callback.c **** 
 513:../STM32Cube_FW_N6/Middlewares/ST/usbx/common/usbx_stm32_device_controllers/ux_dcd_stm32_callback.c ****             /* Reset the ZLP condition.  */
 514:../STM32Cube_FW_N6/Middlewares/ST/usbx/common/usbx_stm32_device_controllers/ux_dcd_stm32_callback.c ****             transfer_request -> ux_slave_transfer_request_force_zlp =  UX_FALSE;
 515:../STM32Cube_FW_N6/Middlewares/ST/usbx/common/usbx_stm32_device_controllers/ux_dcd_stm32_callback.c ****             transfer_request -> ux_slave_transfer_request_in_transfer_length = 0;
 516:../STM32Cube_FW_N6/Middlewares/ST/usbx/common/usbx_stm32_device_controllers/ux_dcd_stm32_callback.c **** 
 517:../STM32Cube_FW_N6/Middlewares/ST/usbx/common/usbx_stm32_device_controllers/ux_dcd_stm32_callback.c ****             /* Arm a ZLP packet on IN.  */
 518:../STM32Cube_FW_N6/Middlewares/ST/usbx/common/usbx_stm32_device_controllers/ux_dcd_stm32_callback.c ****             HAL_PCD_EP_Transmit(hpcd, epnum, 0, 0);
 519:../STM32Cube_FW_N6/Middlewares/ST/usbx/common/usbx_stm32_device_controllers/ux_dcd_stm32_callback.c **** 
 520:../STM32Cube_FW_N6/Middlewares/ST/usbx/common/usbx_stm32_device_controllers/ux_dcd_stm32_callback.c ****         }
 521:../STM32Cube_FW_N6/Middlewares/ST/usbx/common/usbx_stm32_device_controllers/ux_dcd_stm32_callback.c ****         else
 522:../STM32Cube_FW_N6/Middlewares/ST/usbx/common/usbx_stm32_device_controllers/ux_dcd_stm32_callback.c ****         {
 523:../STM32Cube_FW_N6/Middlewares/ST/usbx/common/usbx_stm32_device_controllers/ux_dcd_stm32_callback.c **** 
 524:../STM32Cube_FW_N6/Middlewares/ST/usbx/common/usbx_stm32_device_controllers/ux_dcd_stm32_callback.c ****             /* Set the completion code to no error.  */
 525:../STM32Cube_FW_N6/Middlewares/ST/usbx/common/usbx_stm32_device_controllers/ux_dcd_stm32_callback.c ****             transfer_request -> ux_slave_transfer_request_completion_code =  UX_SUCCESS;
 526:../STM32Cube_FW_N6/Middlewares/ST/usbx/common/usbx_stm32_device_controllers/ux_dcd_stm32_callback.c **** 
 527:../STM32Cube_FW_N6/Middlewares/ST/usbx/common/usbx_stm32_device_controllers/ux_dcd_stm32_callback.c ****             /* The transfer is completed.  */
 528:../STM32Cube_FW_N6/Middlewares/ST/usbx/common/usbx_stm32_device_controllers/ux_dcd_stm32_callback.c ****             transfer_request -> ux_slave_transfer_request_status =  UX_TRANSFER_STATUS_COMPLETED;
 529:../STM32Cube_FW_N6/Middlewares/ST/usbx/common/usbx_stm32_device_controllers/ux_dcd_stm32_callback.c ****             transfer_request -> ux_slave_transfer_request_actual_length =
 530:../STM32Cube_FW_N6/Middlewares/ST/usbx/common/usbx_stm32_device_controllers/ux_dcd_stm32_callback.c ****                 transfer_request -> ux_slave_transfer_request_requested_length;
 531:../STM32Cube_FW_N6/Middlewares/ST/usbx/common/usbx_stm32_device_controllers/ux_dcd_stm32_callback.c **** 
 532:../STM32Cube_FW_N6/Middlewares/ST/usbx/common/usbx_stm32_device_controllers/ux_dcd_stm32_callback.c **** #if defined(UX_DEVICE_STANDALONE)
 533:../STM32Cube_FW_N6/Middlewares/ST/usbx/common/usbx_stm32_device_controllers/ux_dcd_stm32_callback.c ****         ed -> ux_dcd_stm32_ed_status |= UX_DCD_STM32_ED_STATUS_DONE;
 534:../STM32Cube_FW_N6/Middlewares/ST/usbx/common/usbx_stm32_device_controllers/ux_dcd_stm32_callback.c **** #else
 535:../STM32Cube_FW_N6/Middlewares/ST/usbx/common/usbx_stm32_device_controllers/ux_dcd_stm32_callback.c **** 
 536:../STM32Cube_FW_N6/Middlewares/ST/usbx/common/usbx_stm32_device_controllers/ux_dcd_stm32_callback.c ****         /* Non control endpoint operation, use semaphore.  */
 537:../STM32Cube_FW_N6/Middlewares/ST/usbx/common/usbx_stm32_device_controllers/ux_dcd_stm32_callback.c ****         _ux_utility_semaphore_put(&transfer_request -> ux_slave_transfer_request_semaphore);
 538:../STM32Cube_FW_N6/Middlewares/ST/usbx/common/usbx_stm32_device_controllers/ux_dcd_stm32_callback.c **** #endif /* defined(UX_DEVICE_STANDALONE) */
 539:../STM32Cube_FW_N6/Middlewares/ST/usbx/common/usbx_stm32_device_controllers/ux_dcd_stm32_callback.c ****         }
 540:../STM32Cube_FW_N6/Middlewares/ST/usbx/common/usbx_stm32_device_controllers/ux_dcd_stm32_callback.c ****     }
 541:../STM32Cube_FW_N6/Middlewares/ST/usbx/common/usbx_stm32_device_controllers/ux_dcd_stm32_callback.c **** }
 485              		.loc 1 541 1 view .LVU174
 486 0050 BDE8F081 		pop	{r4, r5, r6, r7, r8, pc}
 487              	.LVL40:
 488              	.L26:
 456:../STM32Cube_FW_N6/Middlewares/ST/usbx/common/usbx_stm32_device_controllers/ux_dcd_stm32_callback.c **** 
 489              		.loc 1 456 21 is_stmt 1 view .LVU175
 459:../STM32Cube_FW_N6/Middlewares/ST/usbx/common/usbx_stm32_device_controllers/ux_dcd_stm32_callback.c ****                     transfer_request -> ux_slave_transfer_request_actual_length =
 490              		.loc 1 459 74 is_stmt 0 view .LVU176
 491 0054 0223     		movs	r3, #2
 492 0056 2362     		str	r3, [r4, #32]
 460:../STM32Cube_FW_N6/Middlewares/ST/usbx/common/usbx_stm32_device_controllers/ux_dcd_stm32_callback.c ****                         transfer_request -> ux_slave_transfer_request_requested_length;
 493              		.loc 1 460 81 view .LVU177
 494 0058 636B     		ldr	r3, [r4, #52]
 456:../STM32Cube_FW_N6/Middlewares/ST/usbx/common/usbx_stm32_device_controllers/ux_dcd_stm32_callback.c **** 
 495              		.loc 1 456 83 view .LVU178
 496 005a 6564     		str	r5, [r4, #68]
 459:../STM32Cube_FW_N6/Middlewares/ST/usbx/common/usbx_stm32_device_controllers/ux_dcd_stm32_callback.c ****                     transfer_request -> ux_slave_transfer_request_actual_length =
 497              		.loc 1 459 21 is_stmt 1 view .LVU179
 460:../STM32Cube_FW_N6/Middlewares/ST/usbx/common/usbx_stm32_device_controllers/ux_dcd_stm32_callback.c ****                         transfer_request -> ux_slave_transfer_request_requested_length;
 498              		.loc 1 460 21 view .LVU180
 460:../STM32Cube_FW_N6/Middlewares/ST/usbx/common/usbx_stm32_device_controllers/ux_dcd_stm32_callback.c ****                         transfer_request -> ux_slave_transfer_request_requested_length;
 499              		.loc 1 460 81 is_stmt 0 view .LVU181
ARM GAS  /tmp/cc4jpTWk.s 			page 21


 500 005c A363     		str	r3, [r4, #56]
 466:../STM32Cube_FW_N6/Middlewares/ST/usbx/common/usbx_stm32_device_controllers/ux_dcd_stm32_callback.c **** #endif
 501              		.loc 1 466 21 is_stmt 1 view .LVU182
 466:../STM32Cube_FW_N6/Middlewares/ST/usbx/common/usbx_stm32_device_controllers/ux_dcd_stm32_callback.c **** #endif
 502              		.loc 1 466 50 is_stmt 0 view .LVU183
 503 005e B368     		ldr	r3, [r6, #8]
 504 0060 43F00803 		orr	r3, r3, #8
 505 0064 B360     		str	r3, [r6, #8]
 470:../STM32Cube_FW_N6/Middlewares/ST/usbx/common/usbx_stm32_device_controllers/ux_dcd_stm32_callback.c ****                         transfer_request -> ux_slave_transfer_request_completion_function (transfer
 506              		.loc 1 470 21 is_stmt 1 view .LVU184
 470:../STM32Cube_FW_N6/Middlewares/ST/usbx/common/usbx_stm32_device_controllers/ux_dcd_stm32_callback.c ****                         transfer_request -> ux_slave_transfer_request_completion_function (transfer
 507              		.loc 1 470 42 is_stmt 0 view .LVU185
 508 0066 E36C     		ldr	r3, [r4, #76]
 470:../STM32Cube_FW_N6/Middlewares/ST/usbx/common/usbx_stm32_device_controllers/ux_dcd_stm32_callback.c ****                         transfer_request -> ux_slave_transfer_request_completion_function (transfer
 509              		.loc 1 470 24 view .LVU186
 510 0068 13B1     		cbz	r3, .L27
 471:../STM32Cube_FW_N6/Middlewares/ST/usbx/common/usbx_stm32_device_controllers/ux_dcd_stm32_callback.c **** 
 511              		.loc 1 471 25 is_stmt 1 view .LVU187
 512 006a 04F12000 		add	r0, r4, #32
 513 006e 9847     		blx	r3
 514              	.LVL41:
 515              	.L27:
 474:../STM32Cube_FW_N6/Middlewares/ST/usbx/common/usbx_stm32_device_controllers/ux_dcd_stm32_callback.c ****                 }
 516              		.loc 1 474 21 view .LVU188
 474:../STM32Cube_FW_N6/Middlewares/ST/usbx/common/usbx_stm32_device_controllers/ux_dcd_stm32_callback.c ****                 }
 517              		.loc 1 474 49 is_stmt 0 view .LVU189
 518 0070 0423     		movs	r3, #4
 519 0072 3373     		strb	r3, [r6, #12]
 520 0074 ECE7     		b	.L22
 521              	.L25:
 481:../STM32Cube_FW_N6/Middlewares/ST/usbx/common/usbx_stm32_device_controllers/ux_dcd_stm32_callback.c **** 
 522              		.loc 1 481 17 is_stmt 1 view .LVU190
 523              	.LVL42:
 484:../STM32Cube_FW_N6/Middlewares/ST/usbx/common/usbx_stm32_device_controllers/ux_dcd_stm32_callback.c ****                 {
 524              		.loc 1 484 17 view .LVU191
 481:../STM32Cube_FW_N6/Middlewares/ST/usbx/common/usbx_stm32_device_controllers/ux_dcd_stm32_callback.c **** 
 525              		.loc 1 481 33 is_stmt 0 view .LVU192
 526 0076 0B1A     		subs	r3, r1, r0
 527              	.LVL43:
 484:../STM32Cube_FW_N6/Middlewares/ST/usbx/common/usbx_stm32_device_controllers/ux_dcd_stm32_callback.c ****                 {
 528              		.loc 1 484 20 view .LVU193
 529 0078 8342     		cmp	r3, r0
 530 007a 28BF     		it	cs
 531 007c 0346     		movcs	r3, r0
 532              	.LVL44:
 492:../STM32Cube_FW_N6/Middlewares/ST/usbx/common/usbx_stm32_device_controllers/ux_dcd_stm32_callback.c **** 
 533              		.loc 1 492 17 is_stmt 1 view .LVU194
 492:../STM32Cube_FW_N6/Middlewares/ST/usbx/common/usbx_stm32_device_controllers/ux_dcd_stm32_callback.c **** 
 534              		.loc 1 492 84 is_stmt 0 view .LVU195
 535 007e 226B     		ldr	r2, [r4, #48]
 495:../STM32Cube_FW_N6/Middlewares/ST/usbx/common/usbx_stm32_device_controllers/ux_dcd_stm32_callback.c **** 
 536              		.loc 1 495 82 view .LVU196
 537 0080 C91A     		subs	r1, r1, r3
 492:../STM32Cube_FW_N6/Middlewares/ST/usbx/common/usbx_stm32_device_controllers/ux_dcd_stm32_callback.c **** 
 538              		.loc 1 492 84 view .LVU197
 539 0082 0244     		add	r2, r2, r0
 498:../STM32Cube_FW_N6/Middlewares/ST/usbx/common/usbx_stm32_device_controllers/ux_dcd_stm32_callback.c ****                             endpoint->ux_slave_endpoint_descriptor.bEndpointAddress,
ARM GAS  /tmp/cc4jpTWk.s 			page 22


 540              		.loc 1 498 17 view .LVU198
 541 0084 3846     		mov	r0, r7
 492:../STM32Cube_FW_N6/Middlewares/ST/usbx/common/usbx_stm32_device_controllers/ux_dcd_stm32_callback.c **** 
 542              		.loc 1 492 84 view .LVU199
 543 0086 2263     		str	r2, [r4, #48]
 495:../STM32Cube_FW_N6/Middlewares/ST/usbx/common/usbx_stm32_device_controllers/ux_dcd_stm32_callback.c **** 
 544              		.loc 1 495 17 is_stmt 1 view .LVU200
 495:../STM32Cube_FW_N6/Middlewares/ST/usbx/common/usbx_stm32_device_controllers/ux_dcd_stm32_callback.c **** 
 545              		.loc 1 495 82 is_stmt 0 view .LVU201
 546 0088 E163     		str	r1, [r4, #60]
 498:../STM32Cube_FW_N6/Middlewares/ST/usbx/common/usbx_stm32_device_controllers/ux_dcd_stm32_callback.c ****                             endpoint->ux_slave_endpoint_descriptor.bEndpointAddress,
 547              		.loc 1 498 17 is_stmt 1 view .LVU202
 548 008a 98F80E10 		ldrb	r1, [r8, #14]	@ zero_extendqisi2
 549              	.LVL45:
 550              	.L38:
 551              		.loc 1 541 1 is_stmt 0 view .LVU203
 552 008e BDE8F041 		pop	{r4, r5, r6, r7, r8, lr}
 553              		.cfi_remember_state
 554              		.cfi_restore 14
 555              		.cfi_restore 8
 556              		.cfi_restore 7
 557              		.cfi_restore 6
 558              		.cfi_restore 5
 559              		.cfi_restore 4
 560              		.cfi_def_cfa_offset 0
 561              	.LVL46:
 518:../STM32Cube_FW_N6/Middlewares/ST/usbx/common/usbx_stm32_device_controllers/ux_dcd_stm32_callback.c **** 
 562              		.loc 1 518 13 view .LVU204
 563 0092 FFF7FEBF 		b	HAL_PCD_EP_Transmit
 564              	.LVL47:
 565              	.L23:
 566              		.cfi_restore_state
 509:../STM32Cube_FW_N6/Middlewares/ST/usbx/common/usbx_stm32_device_controllers/ux_dcd_stm32_callback.c ****             transfer_request -> ux_slave_transfer_request_requested_length)
 567              		.loc 1 509 9 is_stmt 1 view .LVU205
 509:../STM32Cube_FW_N6/Middlewares/ST/usbx/common/usbx_stm32_device_controllers/ux_dcd_stm32_callback.c ****             transfer_request -> ux_slave_transfer_request_requested_length)
 568              		.loc 1 509 12 is_stmt 0 view .LVU206
 569 0096 A66D     		ldr	r6, [r4, #88]
 570              	.LVL48:
 509:../STM32Cube_FW_N6/Middlewares/ST/usbx/common/usbx_stm32_device_controllers/ux_dcd_stm32_callback.c ****             transfer_request -> ux_slave_transfer_request_requested_length)
 571              		.loc 1 509 12 view .LVU207
 572 0098 0023     		movs	r3, #0
 510:../STM32Cube_FW_N6/Middlewares/ST/usbx/common/usbx_stm32_device_controllers/ux_dcd_stm32_callback.c ****         {
 573              		.loc 1 510 30 view .LVU208
 574 009a 656B     		ldr	r5, [r4, #52]
 509:../STM32Cube_FW_N6/Middlewares/ST/usbx/common/usbx_stm32_device_controllers/ux_dcd_stm32_callback.c ****             transfer_request -> ux_slave_transfer_request_requested_length)
 575              		.loc 1 509 12 view .LVU209
 576 009c 26B1     		cbz	r6, .L28
 509:../STM32Cube_FW_N6/Middlewares/ST/usbx/common/usbx_stm32_device_controllers/ux_dcd_stm32_callback.c ****             transfer_request -> ux_slave_transfer_request_requested_length)
 577              		.loc 1 509 69 discriminator 1 view .LVU210
 578 009e 1DB1     		cbz	r5, .L28
 514:../STM32Cube_FW_N6/Middlewares/ST/usbx/common/usbx_stm32_device_controllers/ux_dcd_stm32_callback.c ****             transfer_request -> ux_slave_transfer_request_in_transfer_length = 0;
 579              		.loc 1 514 13 is_stmt 1 view .LVU211
 518:../STM32Cube_FW_N6/Middlewares/ST/usbx/common/usbx_stm32_device_controllers/ux_dcd_stm32_callback.c **** 
 580              		.loc 1 518 13 is_stmt 0 view .LVU212
 581 00a0 1A46     		mov	r2, r3
 514:../STM32Cube_FW_N6/Middlewares/ST/usbx/common/usbx_stm32_device_controllers/ux_dcd_stm32_callback.c ****             transfer_request -> ux_slave_transfer_request_in_transfer_length = 0;
 582              		.loc 1 514 69 view .LVU213
ARM GAS  /tmp/cc4jpTWk.s 			page 23


 583 00a2 A365     		str	r3, [r4, #88]
 515:../STM32Cube_FW_N6/Middlewares/ST/usbx/common/usbx_stm32_device_controllers/ux_dcd_stm32_callback.c **** 
 584              		.loc 1 515 13 is_stmt 1 view .LVU214
 515:../STM32Cube_FW_N6/Middlewares/ST/usbx/common/usbx_stm32_device_controllers/ux_dcd_stm32_callback.c **** 
 585              		.loc 1 515 78 is_stmt 0 view .LVU215
 586 00a4 E363     		str	r3, [r4, #60]
 518:../STM32Cube_FW_N6/Middlewares/ST/usbx/common/usbx_stm32_device_controllers/ux_dcd_stm32_callback.c **** 
 587              		.loc 1 518 13 is_stmt 1 view .LVU216
 588 00a6 F2E7     		b	.L38
 589              	.L28:
 525:../STM32Cube_FW_N6/Middlewares/ST/usbx/common/usbx_stm32_device_controllers/ux_dcd_stm32_callback.c **** 
 590              		.loc 1 525 13 view .LVU217
 525:../STM32Cube_FW_N6/Middlewares/ST/usbx/common/usbx_stm32_device_controllers/ux_dcd_stm32_callback.c **** 
 591              		.loc 1 525 75 is_stmt 0 view .LVU218
 592 00a8 6364     		str	r3, [r4, #68]
 528:../STM32Cube_FW_N6/Middlewares/ST/usbx/common/usbx_stm32_device_controllers/ux_dcd_stm32_callback.c ****             transfer_request -> ux_slave_transfer_request_actual_length =
 593              		.loc 1 528 13 is_stmt 1 view .LVU219
 528:../STM32Cube_FW_N6/Middlewares/ST/usbx/common/usbx_stm32_device_controllers/ux_dcd_stm32_callback.c ****             transfer_request -> ux_slave_transfer_request_actual_length =
 594              		.loc 1 528 66 is_stmt 0 view .LVU220
 595 00aa 0223     		movs	r3, #2
 596 00ac 2362     		str	r3, [r4, #32]
 529:../STM32Cube_FW_N6/Middlewares/ST/usbx/common/usbx_stm32_device_controllers/ux_dcd_stm32_callback.c ****                 transfer_request -> ux_slave_transfer_request_requested_length;
 597              		.loc 1 529 13 is_stmt 1 view .LVU221
 533:../STM32Cube_FW_N6/Middlewares/ST/usbx/common/usbx_stm32_device_controllers/ux_dcd_stm32_callback.c **** #else
 598              		.loc 1 533 38 is_stmt 0 view .LVU222
 599 00ae 9368     		ldr	r3, [r2, #8]
 529:../STM32Cube_FW_N6/Middlewares/ST/usbx/common/usbx_stm32_device_controllers/ux_dcd_stm32_callback.c ****                 transfer_request -> ux_slave_transfer_request_requested_length;
 600              		.loc 1 529 73 view .LVU223
 601 00b0 A563     		str	r5, [r4, #56]
 533:../STM32Cube_FW_N6/Middlewares/ST/usbx/common/usbx_stm32_device_controllers/ux_dcd_stm32_callback.c **** #else
 602              		.loc 1 533 9 is_stmt 1 view .LVU224
 533:../STM32Cube_FW_N6/Middlewares/ST/usbx/common/usbx_stm32_device_controllers/ux_dcd_stm32_callback.c **** #else
 603              		.loc 1 533 38 is_stmt 0 view .LVU225
 604 00b2 43F00803 		orr	r3, r3, #8
 605 00b6 9360     		str	r3, [r2, #8]
 606              		.loc 1 541 1 view .LVU226
 607 00b8 CAE7     		b	.L22
 608              	.L40:
 609 00ba 00BF     		.align	2
 610              	.L39:
 611 00bc 00000000 		.word	_ux_system_slave
 612              		.cfi_endproc
 613              	.LFE890:
 615              		.section	.text.HAL_PCD_DataOutStageCallback,"ax",%progbits
 616              		.align	1
 617              		.global	HAL_PCD_DataOutStageCallback
 618              		.syntax unified
 619              		.thumb
 620              		.thumb_func
 622              	HAL_PCD_DataOutStageCallback:
 623              	.LVL49:
 624              	.LFB891:
 542:../STM32Cube_FW_N6/Middlewares/ST/usbx/common/usbx_stm32_device_controllers/ux_dcd_stm32_callback.c **** 
 543:../STM32Cube_FW_N6/Middlewares/ST/usbx/common/usbx_stm32_device_controllers/ux_dcd_stm32_callback.c **** 
 544:../STM32Cube_FW_N6/Middlewares/ST/usbx/common/usbx_stm32_device_controllers/ux_dcd_stm32_callback.c **** /**************************************************************************/
 545:../STM32Cube_FW_N6/Middlewares/ST/usbx/common/usbx_stm32_device_controllers/ux_dcd_stm32_callback.c **** /*                                                                        */
 546:../STM32Cube_FW_N6/Middlewares/ST/usbx/common/usbx_stm32_device_controllers/ux_dcd_stm32_callback.c **** /*  FUNCTION                                               RELEASE        */
ARM GAS  /tmp/cc4jpTWk.s 			page 24


 547:../STM32Cube_FW_N6/Middlewares/ST/usbx/common/usbx_stm32_device_controllers/ux_dcd_stm32_callback.c **** /*                                                                        */
 548:../STM32Cube_FW_N6/Middlewares/ST/usbx/common/usbx_stm32_device_controllers/ux_dcd_stm32_callback.c **** /*    HAL_PCD_DataOutStageCallback                        PORTABLE C      */
 549:../STM32Cube_FW_N6/Middlewares/ST/usbx/common/usbx_stm32_device_controllers/ux_dcd_stm32_callback.c **** /*                                                           6.1.10       */
 550:../STM32Cube_FW_N6/Middlewares/ST/usbx/common/usbx_stm32_device_controllers/ux_dcd_stm32_callback.c **** /*  AUTHOR                                                                */
 551:../STM32Cube_FW_N6/Middlewares/ST/usbx/common/usbx_stm32_device_controllers/ux_dcd_stm32_callback.c **** /*                                                                        */
 552:../STM32Cube_FW_N6/Middlewares/ST/usbx/common/usbx_stm32_device_controllers/ux_dcd_stm32_callback.c **** /*    Chaoqiong Xiao, Microsoft Corporation                               */
 553:../STM32Cube_FW_N6/Middlewares/ST/usbx/common/usbx_stm32_device_controllers/ux_dcd_stm32_callback.c **** /*                                                                        */
 554:../STM32Cube_FW_N6/Middlewares/ST/usbx/common/usbx_stm32_device_controllers/ux_dcd_stm32_callback.c **** /*  DESCRIPTION                                                           */
 555:../STM32Cube_FW_N6/Middlewares/ST/usbx/common/usbx_stm32_device_controllers/ux_dcd_stm32_callback.c **** /*                                                                        */
 556:../STM32Cube_FW_N6/Middlewares/ST/usbx/common/usbx_stm32_device_controllers/ux_dcd_stm32_callback.c **** /*    This function handles callback from HAL driver.                     */
 557:../STM32Cube_FW_N6/Middlewares/ST/usbx/common/usbx_stm32_device_controllers/ux_dcd_stm32_callback.c **** /*                                                                        */
 558:../STM32Cube_FW_N6/Middlewares/ST/usbx/common/usbx_stm32_device_controllers/ux_dcd_stm32_callback.c **** /*  INPUT                                                                 */
 559:../STM32Cube_FW_N6/Middlewares/ST/usbx/common/usbx_stm32_device_controllers/ux_dcd_stm32_callback.c **** /*                                                                        */
 560:../STM32Cube_FW_N6/Middlewares/ST/usbx/common/usbx_stm32_device_controllers/ux_dcd_stm32_callback.c **** /*    hpcd                                  Pointer to PCD handle         */
 561:../STM32Cube_FW_N6/Middlewares/ST/usbx/common/usbx_stm32_device_controllers/ux_dcd_stm32_callback.c **** /*    epnum                                 Endpoint number               */
 562:../STM32Cube_FW_N6/Middlewares/ST/usbx/common/usbx_stm32_device_controllers/ux_dcd_stm32_callback.c **** /*                                                                        */
 563:../STM32Cube_FW_N6/Middlewares/ST/usbx/common/usbx_stm32_device_controllers/ux_dcd_stm32_callback.c **** /*  OUTPUT                                                                */
 564:../STM32Cube_FW_N6/Middlewares/ST/usbx/common/usbx_stm32_device_controllers/ux_dcd_stm32_callback.c **** /*                                                                        */
 565:../STM32Cube_FW_N6/Middlewares/ST/usbx/common/usbx_stm32_device_controllers/ux_dcd_stm32_callback.c **** /*    None                                                                */
 566:../STM32Cube_FW_N6/Middlewares/ST/usbx/common/usbx_stm32_device_controllers/ux_dcd_stm32_callback.c **** /*                                                                        */
 567:../STM32Cube_FW_N6/Middlewares/ST/usbx/common/usbx_stm32_device_controllers/ux_dcd_stm32_callback.c **** /*  CALLS                                                                 */
 568:../STM32Cube_FW_N6/Middlewares/ST/usbx/common/usbx_stm32_device_controllers/ux_dcd_stm32_callback.c **** /*                                                                        */
 569:../STM32Cube_FW_N6/Middlewares/ST/usbx/common/usbx_stm32_device_controllers/ux_dcd_stm32_callback.c **** /*    _ux_device_stack_control_request_process                            */
 570:../STM32Cube_FW_N6/Middlewares/ST/usbx/common/usbx_stm32_device_controllers/ux_dcd_stm32_callback.c **** /*                                          Process control request       */
 571:../STM32Cube_FW_N6/Middlewares/ST/usbx/common/usbx_stm32_device_controllers/ux_dcd_stm32_callback.c **** /*    _ux_utility_semaphore_put             Put semaphore                 */
 572:../STM32Cube_FW_N6/Middlewares/ST/usbx/common/usbx_stm32_device_controllers/ux_dcd_stm32_callback.c **** /*    HAL_PCD_EP_Transmit                   Transmit data                 */
 573:../STM32Cube_FW_N6/Middlewares/ST/usbx/common/usbx_stm32_device_controllers/ux_dcd_stm32_callback.c **** /*    HAL_PCD_EP_Receive                    Receive data                  */
 574:../STM32Cube_FW_N6/Middlewares/ST/usbx/common/usbx_stm32_device_controllers/ux_dcd_stm32_callback.c **** /*                                                                        */
 575:../STM32Cube_FW_N6/Middlewares/ST/usbx/common/usbx_stm32_device_controllers/ux_dcd_stm32_callback.c **** /*  CALLED BY                                                             */
 576:../STM32Cube_FW_N6/Middlewares/ST/usbx/common/usbx_stm32_device_controllers/ux_dcd_stm32_callback.c **** /*                                                                        */
 577:../STM32Cube_FW_N6/Middlewares/ST/usbx/common/usbx_stm32_device_controllers/ux_dcd_stm32_callback.c **** /*    STM32 HAL Driver                                                    */
 578:../STM32Cube_FW_N6/Middlewares/ST/usbx/common/usbx_stm32_device_controllers/ux_dcd_stm32_callback.c **** /*                                                                        */
 579:../STM32Cube_FW_N6/Middlewares/ST/usbx/common/usbx_stm32_device_controllers/ux_dcd_stm32_callback.c **** /*  RELEASE HISTORY                                                       */
 580:../STM32Cube_FW_N6/Middlewares/ST/usbx/common/usbx_stm32_device_controllers/ux_dcd_stm32_callback.c **** /*                                                                        */
 581:../STM32Cube_FW_N6/Middlewares/ST/usbx/common/usbx_stm32_device_controllers/ux_dcd_stm32_callback.c **** /*    DATE              NAME                      DESCRIPTION             */
 582:../STM32Cube_FW_N6/Middlewares/ST/usbx/common/usbx_stm32_device_controllers/ux_dcd_stm32_callback.c **** /*                                                                        */
 583:../STM32Cube_FW_N6/Middlewares/ST/usbx/common/usbx_stm32_device_controllers/ux_dcd_stm32_callback.c **** /*  09-30-2020     Chaoqiong Xiao           Initial Version 6.1           */
 584:../STM32Cube_FW_N6/Middlewares/ST/usbx/common/usbx_stm32_device_controllers/ux_dcd_stm32_callback.c **** /*  01-31-2022     Chaoqiong Xiao           Modified comment(s),          */
 585:../STM32Cube_FW_N6/Middlewares/ST/usbx/common/usbx_stm32_device_controllers/ux_dcd_stm32_callback.c **** /*                                            added standalone support,   */
 586:../STM32Cube_FW_N6/Middlewares/ST/usbx/common/usbx_stm32_device_controllers/ux_dcd_stm32_callback.c **** /*                                            resulting in version 6.1.10 */
 587:../STM32Cube_FW_N6/Middlewares/ST/usbx/common/usbx_stm32_device_controllers/ux_dcd_stm32_callback.c **** /*                                                                        */
 588:../STM32Cube_FW_N6/Middlewares/ST/usbx/common/usbx_stm32_device_controllers/ux_dcd_stm32_callback.c **** /**************************************************************************/
 589:../STM32Cube_FW_N6/Middlewares/ST/usbx/common/usbx_stm32_device_controllers/ux_dcd_stm32_callback.c **** void HAL_PCD_DataOutStageCallback(PCD_HandleTypeDef *hpcd, uint8_t epnum)
 590:../STM32Cube_FW_N6/Middlewares/ST/usbx/common/usbx_stm32_device_controllers/ux_dcd_stm32_callback.c **** {
 625              		.loc 1 590 1 is_stmt 1 view -0
 626              		.cfi_startproc
 627              		@ args = 0, pretend = 0, frame = 0
 628              		@ frame_needed = 0, uses_anonymous_args = 0
 591:../STM32Cube_FW_N6/Middlewares/ST/usbx/common/usbx_stm32_device_controllers/ux_dcd_stm32_callback.c **** 
 592:../STM32Cube_FW_N6/Middlewares/ST/usbx/common/usbx_stm32_device_controllers/ux_dcd_stm32_callback.c **** UX_SLAVE_DCD            *dcd;
 629              		.loc 1 592 1 view .LVU228
 593:../STM32Cube_FW_N6/Middlewares/ST/usbx/common/usbx_stm32_device_controllers/ux_dcd_stm32_callback.c **** UX_DCD_STM32            *dcd_stm32;
 630              		.loc 1 593 1 view .LVU229
 594:../STM32Cube_FW_N6/Middlewares/ST/usbx/common/usbx_stm32_device_controllers/ux_dcd_stm32_callback.c **** UX_DCD_STM32_ED         *ed;
 631              		.loc 1 594 1 view .LVU230
 595:../STM32Cube_FW_N6/Middlewares/ST/usbx/common/usbx_stm32_device_controllers/ux_dcd_stm32_callback.c **** UX_SLAVE_TRANSFER       *transfer_request;
 632              		.loc 1 595 1 view .LVU231
ARM GAS  /tmp/cc4jpTWk.s 			page 25


 596:../STM32Cube_FW_N6/Middlewares/ST/usbx/common/usbx_stm32_device_controllers/ux_dcd_stm32_callback.c **** ULONG                   transfer_length;
 633              		.loc 1 596 1 view .LVU232
 597:../STM32Cube_FW_N6/Middlewares/ST/usbx/common/usbx_stm32_device_controllers/ux_dcd_stm32_callback.c **** UX_SLAVE_ENDPOINT       *endpoint;
 634              		.loc 1 597 1 view .LVU233
 598:../STM32Cube_FW_N6/Middlewares/ST/usbx/common/usbx_stm32_device_controllers/ux_dcd_stm32_callback.c **** 
 599:../STM32Cube_FW_N6/Middlewares/ST/usbx/common/usbx_stm32_device_controllers/ux_dcd_stm32_callback.c **** 
 600:../STM32Cube_FW_N6/Middlewares/ST/usbx/common/usbx_stm32_device_controllers/ux_dcd_stm32_callback.c ****     /* Get the pointer to the DCD.  */
 601:../STM32Cube_FW_N6/Middlewares/ST/usbx/common/usbx_stm32_device_controllers/ux_dcd_stm32_callback.c ****     dcd = &_ux_system_slave -> ux_system_slave_dcd;
 635              		.loc 1 601 5 view .LVU234
 602:../STM32Cube_FW_N6/Middlewares/ST/usbx/common/usbx_stm32_device_controllers/ux_dcd_stm32_callback.c **** 
 603:../STM32Cube_FW_N6/Middlewares/ST/usbx/common/usbx_stm32_device_controllers/ux_dcd_stm32_callback.c ****     /* Get the pointer to the STM32 DCD.  */
 604:../STM32Cube_FW_N6/Middlewares/ST/usbx/common/usbx_stm32_device_controllers/ux_dcd_stm32_callback.c ****     dcd_stm32 = (UX_DCD_STM32 *) dcd -> ux_slave_dcd_controller_hardware;
 636              		.loc 1 604 5 view .LVU235
 637              		.loc 1 604 15 is_stmt 0 view .LVU236
 638 0000 224A     		ldr	r2, .L52
 639              	.LVL50:
 590:../STM32Cube_FW_N6/Middlewares/ST/usbx/common/usbx_stm32_device_controllers/ux_dcd_stm32_callback.c **** 
 640              		.loc 1 590 1 view .LVU237
 641 0002 2DE9F041 		push	{r4, r5, r6, r7, r8, lr}
 642              		.cfi_def_cfa_offset 24
 643              		.cfi_offset 4, -24
 644              		.cfi_offset 5, -20
 645              		.cfi_offset 6, -16
 646              		.cfi_offset 7, -12
 647              		.cfi_offset 8, -8
 648              		.cfi_offset 14, -4
 649              		.loc 1 604 15 view .LVU238
 650 0006 1268     		ldr	r2, [r2]
 651              	.LVL51:
 652              		.loc 1 604 15 view .LVU239
 653 0008 01F00F06 		and	r6, r1, #15
 654 000c D569     		ldr	r5, [r2, #28]
 655              	.LVL52:
 605:../STM32Cube_FW_N6/Middlewares/ST/usbx/common/usbx_stm32_device_controllers/ux_dcd_stm32_callback.c **** 
 606:../STM32Cube_FW_N6/Middlewares/ST/usbx/common/usbx_stm32_device_controllers/ux_dcd_stm32_callback.c ****     /* Fetch the address of the physical endpoint.  */
 607:../STM32Cube_FW_N6/Middlewares/ST/usbx/common/usbx_stm32_device_controllers/ux_dcd_stm32_callback.c ****     ed = &dcd_stm32 -> ux_dcd_stm32_ed[epnum & 0xF];
 656              		.loc 1 607 5 is_stmt 1 view .LVU240
 608:../STM32Cube_FW_N6/Middlewares/ST/usbx/common/usbx_stm32_device_controllers/ux_dcd_stm32_callback.c **** 
 609:../STM32Cube_FW_N6/Middlewares/ST/usbx/common/usbx_stm32_device_controllers/ux_dcd_stm32_callback.c ****     /* Get the pointer to the transfer request.  */
 610:../STM32Cube_FW_N6/Middlewares/ST/usbx/common/usbx_stm32_device_controllers/ux_dcd_stm32_callback.c ****     transfer_request = &(ed -> ux_dcd_stm32_ed_endpoint -> ux_slave_endpoint_transfer_request);
 657              		.loc 1 610 5 view .LVU241
 658 000e 0C22     		movs	r2, #12
 659              	.LVL53:
 660              		.loc 1 610 5 is_stmt 0 view .LVU242
 661 0010 02FB0656 		mla	r6, r2, r6, r5
 590:../STM32Cube_FW_N6/Middlewares/ST/usbx/common/usbx_stm32_device_controllers/ux_dcd_stm32_callback.c **** 
 662              		.loc 1 590 1 view .LVU243
 663 0014 0746     		mov	r7, r0
 664              		.loc 1 610 29 view .LVU244
 665 0016 7468     		ldr	r4, [r6, #4]
 666              	.LVL54:
 611:../STM32Cube_FW_N6/Middlewares/ST/usbx/common/usbx_stm32_device_controllers/ux_dcd_stm32_callback.c **** 
 612:../STM32Cube_FW_N6/Middlewares/ST/usbx/common/usbx_stm32_device_controllers/ux_dcd_stm32_callback.c ****     /* Endpoint 0 is different.  */
 613:../STM32Cube_FW_N6/Middlewares/ST/usbx/common/usbx_stm32_device_controllers/ux_dcd_stm32_callback.c ****     if (epnum == 0U)
 667              		.loc 1 613 5 is_stmt 1 view .LVU245
 668              		.loc 1 613 8 is_stmt 0 view .LVU246
 669 0018 61BB     		cbnz	r1, .L42
ARM GAS  /tmp/cc4jpTWk.s 			page 26


 614:../STM32Cube_FW_N6/Middlewares/ST/usbx/common/usbx_stm32_device_controllers/ux_dcd_stm32_callback.c ****     {
 615:../STM32Cube_FW_N6/Middlewares/ST/usbx/common/usbx_stm32_device_controllers/ux_dcd_stm32_callback.c **** 
 616:../STM32Cube_FW_N6/Middlewares/ST/usbx/common/usbx_stm32_device_controllers/ux_dcd_stm32_callback.c ****         /* Check if we have received something on endpoint 0 during data phase .  */
 617:../STM32Cube_FW_N6/Middlewares/ST/usbx/common/usbx_stm32_device_controllers/ux_dcd_stm32_callback.c ****         if (ed -> ux_dcd_stm32_ed_state == UX_DCD_STM32_ED_STATE_DATA_RX)
 670              		.loc 1 617 9 is_stmt 1 view .LVU247
 671              		.loc 1 617 12 is_stmt 0 view .LVU248
 672 001a 2B7B     		ldrb	r3, [r5, #12]	@ zero_extendqisi2
 673 001c 022B     		cmp	r3, #2
 674 001e 10D1     		bne	.L41
 618:../STM32Cube_FW_N6/Middlewares/ST/usbx/common/usbx_stm32_device_controllers/ux_dcd_stm32_callback.c ****         {
 619:../STM32Cube_FW_N6/Middlewares/ST/usbx/common/usbx_stm32_device_controllers/ux_dcd_stm32_callback.c **** 
 620:../STM32Cube_FW_N6/Middlewares/ST/usbx/common/usbx_stm32_device_controllers/ux_dcd_stm32_callback.c ****             /* Get the pointer to the logical endpoint from the transfer request.  */
 621:../STM32Cube_FW_N6/Middlewares/ST/usbx/common/usbx_stm32_device_controllers/ux_dcd_stm32_callback.c ****             endpoint = transfer_request -> ux_slave_transfer_request_endpoint;
 675              		.loc 1 621 13 is_stmt 1 view .LVU249
 676              		.loc 1 621 22 is_stmt 0 view .LVU250
 677 0020 A66A     		ldr	r6, [r4, #40]
 678              	.LVL55:
 622:../STM32Cube_FW_N6/Middlewares/ST/usbx/common/usbx_stm32_device_controllers/ux_dcd_stm32_callback.c **** 
 623:../STM32Cube_FW_N6/Middlewares/ST/usbx/common/usbx_stm32_device_controllers/ux_dcd_stm32_callback.c ****             /* Read the received data length for the Control endpoint.  */
 624:../STM32Cube_FW_N6/Middlewares/ST/usbx/common/usbx_stm32_device_controllers/ux_dcd_stm32_callback.c ****             transfer_length = HAL_PCD_EP_GetRxCount(hpcd, epnum);
 679              		.loc 1 624 13 is_stmt 1 view .LVU251
 680              		.loc 1 624 31 is_stmt 0 view .LVU252
 681 0022 FFF7FEFF 		bl	HAL_PCD_EP_GetRxCount
 682              	.LVL56:
 625:../STM32Cube_FW_N6/Middlewares/ST/usbx/common/usbx_stm32_device_controllers/ux_dcd_stm32_callback.c **** 
 626:../STM32Cube_FW_N6/Middlewares/ST/usbx/common/usbx_stm32_device_controllers/ux_dcd_stm32_callback.c ****             /* Update the length of the data received.  */
 627:../STM32Cube_FW_N6/Middlewares/ST/usbx/common/usbx_stm32_device_controllers/ux_dcd_stm32_callback.c ****             transfer_request -> ux_slave_transfer_request_actual_length += transfer_length;
 683              		.loc 1 627 13 is_stmt 1 view .LVU253
 684              		.loc 1 627 73 is_stmt 0 view .LVU254
 685 0026 A36B     		ldr	r3, [r4, #56]
 628:../STM32Cube_FW_N6/Middlewares/ST/usbx/common/usbx_stm32_device_controllers/ux_dcd_stm32_callback.c **** 
 629:../STM32Cube_FW_N6/Middlewares/ST/usbx/common/usbx_stm32_device_controllers/ux_dcd_stm32_callback.c ****             /* Can we accept this much?  */
 630:../STM32Cube_FW_N6/Middlewares/ST/usbx/common/usbx_stm32_device_controllers/ux_dcd_stm32_callback.c ****             if (transfer_request -> ux_slave_transfer_request_actual_length <=
 631:../STM32Cube_FW_N6/Middlewares/ST/usbx/common/usbx_stm32_device_controllers/ux_dcd_stm32_callback.c ****                 transfer_request -> ux_slave_transfer_request_requested_length)
 686              		.loc 1 631 34 view .LVU255
 687 0028 626B     		ldr	r2, [r4, #52]
 627:../STM32Cube_FW_N6/Middlewares/ST/usbx/common/usbx_stm32_device_controllers/ux_dcd_stm32_callback.c **** 
 688              		.loc 1 627 73 view .LVU256
 689 002a 0344     		add	r3, r3, r0
 630:../STM32Cube_FW_N6/Middlewares/ST/usbx/common/usbx_stm32_device_controllers/ux_dcd_stm32_callback.c ****                 transfer_request -> ux_slave_transfer_request_requested_length)
 690              		.loc 1 630 16 view .LVU257
 691 002c 9342     		cmp	r3, r2
 627:../STM32Cube_FW_N6/Middlewares/ST/usbx/common/usbx_stm32_device_controllers/ux_dcd_stm32_callback.c **** 
 692              		.loc 1 627 73 view .LVU258
 693 002e A363     		str	r3, [r4, #56]
 630:../STM32Cube_FW_N6/Middlewares/ST/usbx/common/usbx_stm32_device_controllers/ux_dcd_stm32_callback.c ****                 transfer_request -> ux_slave_transfer_request_requested_length)
 694              		.loc 1 630 13 is_stmt 1 view .LVU259
 630:../STM32Cube_FW_N6/Middlewares/ST/usbx/common/usbx_stm32_device_controllers/ux_dcd_stm32_callback.c ****                 transfer_request -> ux_slave_transfer_request_requested_length)
 695              		.loc 1 630 16 is_stmt 0 view .LVU260
 696 0030 12D8     		bhi	.L45
 632:../STM32Cube_FW_N6/Middlewares/ST/usbx/common/usbx_stm32_device_controllers/ux_dcd_stm32_callback.c ****             {
 633:../STM32Cube_FW_N6/Middlewares/ST/usbx/common/usbx_stm32_device_controllers/ux_dcd_stm32_callback.c **** 
 634:../STM32Cube_FW_N6/Middlewares/ST/usbx/common/usbx_stm32_device_controllers/ux_dcd_stm32_callback.c ****                 /* Are we done with this transfer ? */
 635:../STM32Cube_FW_N6/Middlewares/ST/usbx/common/usbx_stm32_device_controllers/ux_dcd_stm32_callback.c ****                 if ((transfer_request -> ux_slave_transfer_request_actual_length ==
 697              		.loc 1 635 17 is_stmt 1 view .LVU261
 698              		.loc 1 635 20 is_stmt 0 view .LVU262
 699 0032 02D0     		beq	.L46
ARM GAS  /tmp/cc4jpTWk.s 			page 27


 636:../STM32Cube_FW_N6/Middlewares/ST/usbx/common/usbx_stm32_device_controllers/ux_dcd_stm32_callback.c ****                      transfer_request -> ux_slave_transfer_request_requested_length) ||
 637:../STM32Cube_FW_N6/Middlewares/ST/usbx/common/usbx_stm32_device_controllers/ux_dcd_stm32_callback.c ****                     (transfer_length != endpoint -> ux_slave_endpoint_descriptor.wMaxPacketSize))
 700              		.loc 1 637 81 view .LVU263
 701 0034 338A     		ldrh	r3, [r6, #16]
 636:../STM32Cube_FW_N6/Middlewares/ST/usbx/common/usbx_stm32_device_controllers/ux_dcd_stm32_callback.c ****                      transfer_request -> ux_slave_transfer_request_requested_length) ||
 702              		.loc 1 636 86 view .LVU264
 703 0036 8342     		cmp	r3, r0
 704 0038 05D0     		beq	.L47
 705              	.L46:
 638:../STM32Cube_FW_N6/Middlewares/ST/usbx/common/usbx_stm32_device_controllers/ux_dcd_stm32_callback.c ****                 {
 639:../STM32Cube_FW_N6/Middlewares/ST/usbx/common/usbx_stm32_device_controllers/ux_dcd_stm32_callback.c **** #if defined(UX_DEVICE_STANDALONE)
 640:../STM32Cube_FW_N6/Middlewares/ST/usbx/common/usbx_stm32_device_controllers/ux_dcd_stm32_callback.c ****                     ed -> ux_dcd_stm32_ed_status |= UX_DCD_STM32_ED_STATUS_SETUP_OUT;
 706              		.loc 1 640 21 is_stmt 1 view .LVU265
 707              		.loc 1 640 50 is_stmt 0 view .LVU266
 708 003a AB68     		ldr	r3, [r5, #8]
 709 003c 43F44073 		orr	r3, r3, #768
 710 0040 AB60     		str	r3, [r5, #8]
 711              	.LVL57:
 712              	.L41:
 641:../STM32Cube_FW_N6/Middlewares/ST/usbx/common/usbx_stm32_device_controllers/ux_dcd_stm32_callback.c **** #else
 642:../STM32Cube_FW_N6/Middlewares/ST/usbx/common/usbx_stm32_device_controllers/ux_dcd_stm32_callback.c ****                     _ux_dcd_stm32_setup_out(ed, transfer_request, hpcd);
 643:../STM32Cube_FW_N6/Middlewares/ST/usbx/common/usbx_stm32_device_controllers/ux_dcd_stm32_callback.c **** #endif
 644:../STM32Cube_FW_N6/Middlewares/ST/usbx/common/usbx_stm32_device_controllers/ux_dcd_stm32_callback.c ****                 }
 645:../STM32Cube_FW_N6/Middlewares/ST/usbx/common/usbx_stm32_device_controllers/ux_dcd_stm32_callback.c ****                 else
 646:../STM32Cube_FW_N6/Middlewares/ST/usbx/common/usbx_stm32_device_controllers/ux_dcd_stm32_callback.c ****                 {
 647:../STM32Cube_FW_N6/Middlewares/ST/usbx/common/usbx_stm32_device_controllers/ux_dcd_stm32_callback.c **** 
 648:../STM32Cube_FW_N6/Middlewares/ST/usbx/common/usbx_stm32_device_controllers/ux_dcd_stm32_callback.c ****                     /* Rearm the OUT control endpoint for one packet. */
 649:../STM32Cube_FW_N6/Middlewares/ST/usbx/common/usbx_stm32_device_controllers/ux_dcd_stm32_callback.c ****                     transfer_request -> ux_slave_transfer_request_current_data_pointer += endpoint 
 650:../STM32Cube_FW_N6/Middlewares/ST/usbx/common/usbx_stm32_device_controllers/ux_dcd_stm32_callback.c ****                     HAL_PCD_EP_Receive(hpcd,
 651:../STM32Cube_FW_N6/Middlewares/ST/usbx/common/usbx_stm32_device_controllers/ux_dcd_stm32_callback.c ****                                 endpoint -> ux_slave_endpoint_descriptor.bEndpointAddress,
 652:../STM32Cube_FW_N6/Middlewares/ST/usbx/common/usbx_stm32_device_controllers/ux_dcd_stm32_callback.c ****                                 transfer_request -> ux_slave_transfer_request_current_data_pointer,
 653:../STM32Cube_FW_N6/Middlewares/ST/usbx/common/usbx_stm32_device_controllers/ux_dcd_stm32_callback.c ****                                 endpoint -> ux_slave_endpoint_descriptor.wMaxPacketSize);
 654:../STM32Cube_FW_N6/Middlewares/ST/usbx/common/usbx_stm32_device_controllers/ux_dcd_stm32_callback.c ****                 }
 655:../STM32Cube_FW_N6/Middlewares/ST/usbx/common/usbx_stm32_device_controllers/ux_dcd_stm32_callback.c ****             }
 656:../STM32Cube_FW_N6/Middlewares/ST/usbx/common/usbx_stm32_device_controllers/ux_dcd_stm32_callback.c ****             else
 657:../STM32Cube_FW_N6/Middlewares/ST/usbx/common/usbx_stm32_device_controllers/ux_dcd_stm32_callback.c ****             {
 658:../STM32Cube_FW_N6/Middlewares/ST/usbx/common/usbx_stm32_device_controllers/ux_dcd_stm32_callback.c **** 
 659:../STM32Cube_FW_N6/Middlewares/ST/usbx/common/usbx_stm32_device_controllers/ux_dcd_stm32_callback.c ****                 /*  We have an overflow situation. Set the completion code to overflow.  */
 660:../STM32Cube_FW_N6/Middlewares/ST/usbx/common/usbx_stm32_device_controllers/ux_dcd_stm32_callback.c ****                 transfer_request -> ux_slave_transfer_request_completion_code =  UX_TRANSFER_BUFFER
 661:../STM32Cube_FW_N6/Middlewares/ST/usbx/common/usbx_stm32_device_controllers/ux_dcd_stm32_callback.c **** 
 662:../STM32Cube_FW_N6/Middlewares/ST/usbx/common/usbx_stm32_device_controllers/ux_dcd_stm32_callback.c ****                 /* If trace is enabled, insert this event into the trace buffer.  */
 663:../STM32Cube_FW_N6/Middlewares/ST/usbx/common/usbx_stm32_device_controllers/ux_dcd_stm32_callback.c ****                 UX_TRACE_IN_LINE_INSERT(UX_TRACE_ERROR, UX_TRANSFER_BUFFER_OVERFLOW, transfer_reque
 664:../STM32Cube_FW_N6/Middlewares/ST/usbx/common/usbx_stm32_device_controllers/ux_dcd_stm32_callback.c **** 
 665:../STM32Cube_FW_N6/Middlewares/ST/usbx/common/usbx_stm32_device_controllers/ux_dcd_stm32_callback.c **** #if defined(UX_DEVICE_STANDALONE)
 666:../STM32Cube_FW_N6/Middlewares/ST/usbx/common/usbx_stm32_device_controllers/ux_dcd_stm32_callback.c **** 
 667:../STM32Cube_FW_N6/Middlewares/ST/usbx/common/usbx_stm32_device_controllers/ux_dcd_stm32_callback.c ****                 /* Control status phase done.  */
 668:../STM32Cube_FW_N6/Middlewares/ST/usbx/common/usbx_stm32_device_controllers/ux_dcd_stm32_callback.c ****                 ed -> ux_dcd_stm32_ed_status |= UX_DCD_STM32_ED_STATUS_DONE;
 669:../STM32Cube_FW_N6/Middlewares/ST/usbx/common/usbx_stm32_device_controllers/ux_dcd_stm32_callback.c **** #endif
 670:../STM32Cube_FW_N6/Middlewares/ST/usbx/common/usbx_stm32_device_controllers/ux_dcd_stm32_callback.c **** 
 671:../STM32Cube_FW_N6/Middlewares/ST/usbx/common/usbx_stm32_device_controllers/ux_dcd_stm32_callback.c ****                 /* We are using a Control endpoint, if there is a callback, invoke it. We are still
 672:../STM32Cube_FW_N6/Middlewares/ST/usbx/common/usbx_stm32_device_controllers/ux_dcd_stm32_callback.c ****                 if (transfer_request -> ux_slave_transfer_request_completion_function)
 673:../STM32Cube_FW_N6/Middlewares/ST/usbx/common/usbx_stm32_device_controllers/ux_dcd_stm32_callback.c ****                     transfer_request -> ux_slave_transfer_request_completion_function (transfer_req
 674:../STM32Cube_FW_N6/Middlewares/ST/usbx/common/usbx_stm32_device_controllers/ux_dcd_stm32_callback.c ****             }
 675:../STM32Cube_FW_N6/Middlewares/ST/usbx/common/usbx_stm32_device_controllers/ux_dcd_stm32_callback.c ****         }
 676:../STM32Cube_FW_N6/Middlewares/ST/usbx/common/usbx_stm32_device_controllers/ux_dcd_stm32_callback.c ****     }
 677:../STM32Cube_FW_N6/Middlewares/ST/usbx/common/usbx_stm32_device_controllers/ux_dcd_stm32_callback.c ****     else
 678:../STM32Cube_FW_N6/Middlewares/ST/usbx/common/usbx_stm32_device_controllers/ux_dcd_stm32_callback.c ****     {
ARM GAS  /tmp/cc4jpTWk.s 			page 28


 679:../STM32Cube_FW_N6/Middlewares/ST/usbx/common/usbx_stm32_device_controllers/ux_dcd_stm32_callback.c **** 
 680:../STM32Cube_FW_N6/Middlewares/ST/usbx/common/usbx_stm32_device_controllers/ux_dcd_stm32_callback.c **** 
 681:../STM32Cube_FW_N6/Middlewares/ST/usbx/common/usbx_stm32_device_controllers/ux_dcd_stm32_callback.c ****         /* Update the length of the data sent in previous transaction.  */
 682:../STM32Cube_FW_N6/Middlewares/ST/usbx/common/usbx_stm32_device_controllers/ux_dcd_stm32_callback.c ****         transfer_request -> ux_slave_transfer_request_actual_length =  HAL_PCD_EP_GetRxCount(hpcd, 
 683:../STM32Cube_FW_N6/Middlewares/ST/usbx/common/usbx_stm32_device_controllers/ux_dcd_stm32_callback.c **** 
 684:../STM32Cube_FW_N6/Middlewares/ST/usbx/common/usbx_stm32_device_controllers/ux_dcd_stm32_callback.c ****         /* Set the completion code to no error.  */
 685:../STM32Cube_FW_N6/Middlewares/ST/usbx/common/usbx_stm32_device_controllers/ux_dcd_stm32_callback.c ****         transfer_request -> ux_slave_transfer_request_completion_code =  UX_SUCCESS;
 686:../STM32Cube_FW_N6/Middlewares/ST/usbx/common/usbx_stm32_device_controllers/ux_dcd_stm32_callback.c **** 
 687:../STM32Cube_FW_N6/Middlewares/ST/usbx/common/usbx_stm32_device_controllers/ux_dcd_stm32_callback.c ****         /* The transfer is completed.  */
 688:../STM32Cube_FW_N6/Middlewares/ST/usbx/common/usbx_stm32_device_controllers/ux_dcd_stm32_callback.c ****         transfer_request -> ux_slave_transfer_request_status =  UX_TRANSFER_STATUS_COMPLETED;
 689:../STM32Cube_FW_N6/Middlewares/ST/usbx/common/usbx_stm32_device_controllers/ux_dcd_stm32_callback.c **** 
 690:../STM32Cube_FW_N6/Middlewares/ST/usbx/common/usbx_stm32_device_controllers/ux_dcd_stm32_callback.c **** #if defined(UX_DEVICE_STANDALONE)
 691:../STM32Cube_FW_N6/Middlewares/ST/usbx/common/usbx_stm32_device_controllers/ux_dcd_stm32_callback.c ****         ed -> ux_dcd_stm32_ed_status |= UX_DCD_STM32_ED_STATUS_DONE;
 692:../STM32Cube_FW_N6/Middlewares/ST/usbx/common/usbx_stm32_device_controllers/ux_dcd_stm32_callback.c **** #else
 693:../STM32Cube_FW_N6/Middlewares/ST/usbx/common/usbx_stm32_device_controllers/ux_dcd_stm32_callback.c **** 
 694:../STM32Cube_FW_N6/Middlewares/ST/usbx/common/usbx_stm32_device_controllers/ux_dcd_stm32_callback.c ****         /* Non control endpoint operation, use semaphore.  */
 695:../STM32Cube_FW_N6/Middlewares/ST/usbx/common/usbx_stm32_device_controllers/ux_dcd_stm32_callback.c ****         _ux_utility_semaphore_put(&transfer_request -> ux_slave_transfer_request_semaphore);
 696:../STM32Cube_FW_N6/Middlewares/ST/usbx/common/usbx_stm32_device_controllers/ux_dcd_stm32_callback.c **** #endif
 697:../STM32Cube_FW_N6/Middlewares/ST/usbx/common/usbx_stm32_device_controllers/ux_dcd_stm32_callback.c ****     }
 698:../STM32Cube_FW_N6/Middlewares/ST/usbx/common/usbx_stm32_device_controllers/ux_dcd_stm32_callback.c **** 
 699:../STM32Cube_FW_N6/Middlewares/ST/usbx/common/usbx_stm32_device_controllers/ux_dcd_stm32_callback.c **** }
 713              		.loc 1 699 1 view .LVU267
 714 0042 BDE8F081 		pop	{r4, r5, r6, r7, r8, pc}
 715              	.LVL58:
 716              	.L47:
 649:../STM32Cube_FW_N6/Middlewares/ST/usbx/common/usbx_stm32_device_controllers/ux_dcd_stm32_callback.c ****                     HAL_PCD_EP_Receive(hpcd,
 717              		.loc 1 649 21 is_stmt 1 view .LVU268
 649:../STM32Cube_FW_N6/Middlewares/ST/usbx/common/usbx_stm32_device_controllers/ux_dcd_stm32_callback.c ****                     HAL_PCD_EP_Receive(hpcd,
 718              		.loc 1 649 88 is_stmt 0 view .LVU269
 719 0046 226B     		ldr	r2, [r4, #48]
 650:../STM32Cube_FW_N6/Middlewares/ST/usbx/common/usbx_stm32_device_controllers/ux_dcd_stm32_callback.c ****                                 endpoint -> ux_slave_endpoint_descriptor.bEndpointAddress,
 720              		.loc 1 650 21 view .LVU270
 721 0048 3846     		mov	r0, r7
 722              	.LVL59:
 649:../STM32Cube_FW_N6/Middlewares/ST/usbx/common/usbx_stm32_device_controllers/ux_dcd_stm32_callback.c ****                     HAL_PCD_EP_Receive(hpcd,
 723              		.loc 1 649 88 view .LVU271
 724 004a 1A44     		add	r2, r2, r3
 725 004c 2263     		str	r2, [r4, #48]
 650:../STM32Cube_FW_N6/Middlewares/ST/usbx/common/usbx_stm32_device_controllers/ux_dcd_stm32_callback.c ****                                 endpoint -> ux_slave_endpoint_descriptor.bEndpointAddress,
 726              		.loc 1 650 21 is_stmt 1 view .LVU272
 727 004e B17B     		ldrb	r1, [r6, #14]	@ zero_extendqisi2
 728              		.loc 1 699 1 is_stmt 0 view .LVU273
 729 0050 BDE8F041 		pop	{r4, r5, r6, r7, r8, lr}
 730              		.cfi_remember_state
 731              		.cfi_restore 14
 732              		.cfi_restore 8
 733              		.cfi_restore 7
 734              		.cfi_restore 6
 735              		.cfi_restore 5
 736              		.cfi_restore 4
 737              		.cfi_def_cfa_offset 0
 738              	.LVL60:
 650:../STM32Cube_FW_N6/Middlewares/ST/usbx/common/usbx_stm32_device_controllers/ux_dcd_stm32_callback.c ****                                 endpoint -> ux_slave_endpoint_descriptor.bEndpointAddress,
 739              		.loc 1 650 21 view .LVU274
 740 0054 FFF7FEBF 		b	HAL_PCD_EP_Receive
 741              	.LVL61:
 742              	.L45:
ARM GAS  /tmp/cc4jpTWk.s 			page 29


 743              		.cfi_restore_state
 660:../STM32Cube_FW_N6/Middlewares/ST/usbx/common/usbx_stm32_device_controllers/ux_dcd_stm32_callback.c **** 
 744              		.loc 1 660 17 is_stmt 1 view .LVU275
 660:../STM32Cube_FW_N6/Middlewares/ST/usbx/common/usbx_stm32_device_controllers/ux_dcd_stm32_callback.c **** 
 745              		.loc 1 660 79 is_stmt 0 view .LVU276
 746 0058 2723     		movs	r3, #39
 747 005a 6364     		str	r3, [r4, #68]
 668:../STM32Cube_FW_N6/Middlewares/ST/usbx/common/usbx_stm32_device_controllers/ux_dcd_stm32_callback.c **** #endif
 748              		.loc 1 668 17 is_stmt 1 view .LVU277
 668:../STM32Cube_FW_N6/Middlewares/ST/usbx/common/usbx_stm32_device_controllers/ux_dcd_stm32_callback.c **** #endif
 749              		.loc 1 668 46 is_stmt 0 view .LVU278
 750 005c AB68     		ldr	r3, [r5, #8]
 751 005e 43F00803 		orr	r3, r3, #8
 752 0062 AB60     		str	r3, [r5, #8]
 672:../STM32Cube_FW_N6/Middlewares/ST/usbx/common/usbx_stm32_device_controllers/ux_dcd_stm32_callback.c ****                     transfer_request -> ux_slave_transfer_request_completion_function (transfer_req
 753              		.loc 1 672 17 is_stmt 1 view .LVU279
 672:../STM32Cube_FW_N6/Middlewares/ST/usbx/common/usbx_stm32_device_controllers/ux_dcd_stm32_callback.c ****                     transfer_request -> ux_slave_transfer_request_completion_function (transfer_req
 754              		.loc 1 672 38 is_stmt 0 view .LVU280
 755 0064 E36C     		ldr	r3, [r4, #76]
 672:../STM32Cube_FW_N6/Middlewares/ST/usbx/common/usbx_stm32_device_controllers/ux_dcd_stm32_callback.c ****                     transfer_request -> ux_slave_transfer_request_completion_function (transfer_req
 756              		.loc 1 672 20 view .LVU281
 757 0066 002B     		cmp	r3, #0
 758 0068 EBD0     		beq	.L41
 673:../STM32Cube_FW_N6/Middlewares/ST/usbx/common/usbx_stm32_device_controllers/ux_dcd_stm32_callback.c ****             }
 759              		.loc 1 673 21 is_stmt 1 view .LVU282
 760 006a 04F12000 		add	r0, r4, #32
 761              	.LVL62:
 762              		.loc 1 699 1 is_stmt 0 view .LVU283
 763 006e BDE8F041 		pop	{r4, r5, r6, r7, r8, lr}
 764              		.cfi_remember_state
 765              		.cfi_restore 14
 766              		.cfi_restore 8
 767              		.cfi_restore 7
 768              		.cfi_restore 6
 769              		.cfi_restore 5
 770              		.cfi_restore 4
 771              		.cfi_def_cfa_offset 0
 772              	.LVL63:
 673:../STM32Cube_FW_N6/Middlewares/ST/usbx/common/usbx_stm32_device_controllers/ux_dcd_stm32_callback.c ****             }
 773              		.loc 1 673 21 view .LVU284
 774 0072 1847     		bx	r3	@ indirect register sibling call
 775              	.LVL64:
 776              	.L42:
 777              		.cfi_restore_state
 682:../STM32Cube_FW_N6/Middlewares/ST/usbx/common/usbx_stm32_device_controllers/ux_dcd_stm32_callback.c **** 
 778              		.loc 1 682 9 is_stmt 1 view .LVU285
 682:../STM32Cube_FW_N6/Middlewares/ST/usbx/common/usbx_stm32_device_controllers/ux_dcd_stm32_callback.c **** 
 779              		.loc 1 682 72 is_stmt 0 view .LVU286
 780 0074 FFF7FEFF 		bl	HAL_PCD_EP_GetRxCount
 781              	.LVL65:
 685:../STM32Cube_FW_N6/Middlewares/ST/usbx/common/usbx_stm32_device_controllers/ux_dcd_stm32_callback.c **** 
 782              		.loc 1 685 71 view .LVU287
 783 0078 0023     		movs	r3, #0
 784 007a 6364     		str	r3, [r4, #68]
 688:../STM32Cube_FW_N6/Middlewares/ST/usbx/common/usbx_stm32_device_controllers/ux_dcd_stm32_callback.c **** 
 785              		.loc 1 688 62 view .LVU288
 786 007c 0223     		movs	r3, #2
ARM GAS  /tmp/cc4jpTWk.s 			page 30


 787 007e 2362     		str	r3, [r4, #32]
 691:../STM32Cube_FW_N6/Middlewares/ST/usbx/common/usbx_stm32_device_controllers/ux_dcd_stm32_callback.c **** #else
 788              		.loc 1 691 38 view .LVU289
 789 0080 B368     		ldr	r3, [r6, #8]
 682:../STM32Cube_FW_N6/Middlewares/ST/usbx/common/usbx_stm32_device_controllers/ux_dcd_stm32_callback.c **** 
 790              		.loc 1 682 69 discriminator 1 view .LVU290
 791 0082 A063     		str	r0, [r4, #56]
 685:../STM32Cube_FW_N6/Middlewares/ST/usbx/common/usbx_stm32_device_controllers/ux_dcd_stm32_callback.c **** 
 792              		.loc 1 685 9 is_stmt 1 view .LVU291
 688:../STM32Cube_FW_N6/Middlewares/ST/usbx/common/usbx_stm32_device_controllers/ux_dcd_stm32_callback.c **** 
 793              		.loc 1 688 9 view .LVU292
 691:../STM32Cube_FW_N6/Middlewares/ST/usbx/common/usbx_stm32_device_controllers/ux_dcd_stm32_callback.c **** #else
 794              		.loc 1 691 9 view .LVU293
 691:../STM32Cube_FW_N6/Middlewares/ST/usbx/common/usbx_stm32_device_controllers/ux_dcd_stm32_callback.c **** #else
 795              		.loc 1 691 38 is_stmt 0 view .LVU294
 796 0084 43F00803 		orr	r3, r3, #8
 797 0088 B360     		str	r3, [r6, #8]
 798              		.loc 1 699 1 view .LVU295
 799 008a DAE7     		b	.L41
 800              	.L53:
 801              		.align	2
 802              	.L52:
 803 008c 00000000 		.word	_ux_system_slave
 804              		.cfi_endproc
 805              	.LFE891:
 807              		.section	.text.HAL_PCD_ResetCallback,"ax",%progbits
 808              		.align	1
 809              		.global	HAL_PCD_ResetCallback
 810              		.syntax unified
 811              		.thumb
 812              		.thumb_func
 814              	HAL_PCD_ResetCallback:
 815              	.LVL66:
 816              	.LFB892:
 700:../STM32Cube_FW_N6/Middlewares/ST/usbx/common/usbx_stm32_device_controllers/ux_dcd_stm32_callback.c **** 
 701:../STM32Cube_FW_N6/Middlewares/ST/usbx/common/usbx_stm32_device_controllers/ux_dcd_stm32_callback.c **** 
 702:../STM32Cube_FW_N6/Middlewares/ST/usbx/common/usbx_stm32_device_controllers/ux_dcd_stm32_callback.c **** /**************************************************************************/
 703:../STM32Cube_FW_N6/Middlewares/ST/usbx/common/usbx_stm32_device_controllers/ux_dcd_stm32_callback.c **** /*                                                                        */
 704:../STM32Cube_FW_N6/Middlewares/ST/usbx/common/usbx_stm32_device_controllers/ux_dcd_stm32_callback.c **** /*  FUNCTION                                               RELEASE        */
 705:../STM32Cube_FW_N6/Middlewares/ST/usbx/common/usbx_stm32_device_controllers/ux_dcd_stm32_callback.c **** /*                                                                        */
 706:../STM32Cube_FW_N6/Middlewares/ST/usbx/common/usbx_stm32_device_controllers/ux_dcd_stm32_callback.c **** /*    HAL_PCD_ResetCallback                               PORTABLE C      */
 707:../STM32Cube_FW_N6/Middlewares/ST/usbx/common/usbx_stm32_device_controllers/ux_dcd_stm32_callback.c **** /*                                                           6.1.10       */
 708:../STM32Cube_FW_N6/Middlewares/ST/usbx/common/usbx_stm32_device_controllers/ux_dcd_stm32_callback.c **** /*  AUTHOR                                                                */
 709:../STM32Cube_FW_N6/Middlewares/ST/usbx/common/usbx_stm32_device_controllers/ux_dcd_stm32_callback.c **** /*                                                                        */
 710:../STM32Cube_FW_N6/Middlewares/ST/usbx/common/usbx_stm32_device_controllers/ux_dcd_stm32_callback.c **** /*    Chaoqiong Xiao, Microsoft Corporation                               */
 711:../STM32Cube_FW_N6/Middlewares/ST/usbx/common/usbx_stm32_device_controllers/ux_dcd_stm32_callback.c **** /*                                                                        */
 712:../STM32Cube_FW_N6/Middlewares/ST/usbx/common/usbx_stm32_device_controllers/ux_dcd_stm32_callback.c **** /*  DESCRIPTION                                                           */
 713:../STM32Cube_FW_N6/Middlewares/ST/usbx/common/usbx_stm32_device_controllers/ux_dcd_stm32_callback.c **** /*                                                                        */
 714:../STM32Cube_FW_N6/Middlewares/ST/usbx/common/usbx_stm32_device_controllers/ux_dcd_stm32_callback.c **** /*    This function handles callback from HAL driver.                     */
 715:../STM32Cube_FW_N6/Middlewares/ST/usbx/common/usbx_stm32_device_controllers/ux_dcd_stm32_callback.c **** /*                                                                        */
 716:../STM32Cube_FW_N6/Middlewares/ST/usbx/common/usbx_stm32_device_controllers/ux_dcd_stm32_callback.c **** /*  INPUT                                                                 */
 717:../STM32Cube_FW_N6/Middlewares/ST/usbx/common/usbx_stm32_device_controllers/ux_dcd_stm32_callback.c **** /*                                                                        */
 718:../STM32Cube_FW_N6/Middlewares/ST/usbx/common/usbx_stm32_device_controllers/ux_dcd_stm32_callback.c **** /*    hpcd                                  Pointer to PCD handle         */
 719:../STM32Cube_FW_N6/Middlewares/ST/usbx/common/usbx_stm32_device_controllers/ux_dcd_stm32_callback.c **** /*                                                                        */
 720:../STM32Cube_FW_N6/Middlewares/ST/usbx/common/usbx_stm32_device_controllers/ux_dcd_stm32_callback.c **** /*  OUTPUT                                                                */
 721:../STM32Cube_FW_N6/Middlewares/ST/usbx/common/usbx_stm32_device_controllers/ux_dcd_stm32_callback.c **** /*                                                                        */
 722:../STM32Cube_FW_N6/Middlewares/ST/usbx/common/usbx_stm32_device_controllers/ux_dcd_stm32_callback.c **** /*    None                                                                */
ARM GAS  /tmp/cc4jpTWk.s 			page 31


 723:../STM32Cube_FW_N6/Middlewares/ST/usbx/common/usbx_stm32_device_controllers/ux_dcd_stm32_callback.c **** /*                                                                        */
 724:../STM32Cube_FW_N6/Middlewares/ST/usbx/common/usbx_stm32_device_controllers/ux_dcd_stm32_callback.c **** /*  CALLS                                                                 */
 725:../STM32Cube_FW_N6/Middlewares/ST/usbx/common/usbx_stm32_device_controllers/ux_dcd_stm32_callback.c **** /*                                                                        */
 726:../STM32Cube_FW_N6/Middlewares/ST/usbx/common/usbx_stm32_device_controllers/ux_dcd_stm32_callback.c **** /*    _ux_device_stack_disconnect           Disconnect device             */
 727:../STM32Cube_FW_N6/Middlewares/ST/usbx/common/usbx_stm32_device_controllers/ux_dcd_stm32_callback.c **** /*    _ux_dcd_stm32_initialize_complete     Complete initialization       */
 728:../STM32Cube_FW_N6/Middlewares/ST/usbx/common/usbx_stm32_device_controllers/ux_dcd_stm32_callback.c **** /*                                                                        */
 729:../STM32Cube_FW_N6/Middlewares/ST/usbx/common/usbx_stm32_device_controllers/ux_dcd_stm32_callback.c **** /*  CALLED BY                                                             */
 730:../STM32Cube_FW_N6/Middlewares/ST/usbx/common/usbx_stm32_device_controllers/ux_dcd_stm32_callback.c **** /*                                                                        */
 731:../STM32Cube_FW_N6/Middlewares/ST/usbx/common/usbx_stm32_device_controllers/ux_dcd_stm32_callback.c **** /*    STM32 HAL Driver                                                    */
 732:../STM32Cube_FW_N6/Middlewares/ST/usbx/common/usbx_stm32_device_controllers/ux_dcd_stm32_callback.c **** /*                                                                        */
 733:../STM32Cube_FW_N6/Middlewares/ST/usbx/common/usbx_stm32_device_controllers/ux_dcd_stm32_callback.c **** /*  RELEASE HISTORY                                                       */
 734:../STM32Cube_FW_N6/Middlewares/ST/usbx/common/usbx_stm32_device_controllers/ux_dcd_stm32_callback.c **** /*                                                                        */
 735:../STM32Cube_FW_N6/Middlewares/ST/usbx/common/usbx_stm32_device_controllers/ux_dcd_stm32_callback.c **** /*    DATE              NAME                      DESCRIPTION             */
 736:../STM32Cube_FW_N6/Middlewares/ST/usbx/common/usbx_stm32_device_controllers/ux_dcd_stm32_callback.c **** /*                                                                        */
 737:../STM32Cube_FW_N6/Middlewares/ST/usbx/common/usbx_stm32_device_controllers/ux_dcd_stm32_callback.c **** /*  09-30-2020     Chaoqiong Xiao           Initial Version 6.1           */
 738:../STM32Cube_FW_N6/Middlewares/ST/usbx/common/usbx_stm32_device_controllers/ux_dcd_stm32_callback.c **** /*  01-31-2022     Chaoqiong Xiao           Modified comment(s),          */
 739:../STM32Cube_FW_N6/Middlewares/ST/usbx/common/usbx_stm32_device_controllers/ux_dcd_stm32_callback.c **** /*                                            resulting in version 6.1.10 */
 740:../STM32Cube_FW_N6/Middlewares/ST/usbx/common/usbx_stm32_device_controllers/ux_dcd_stm32_callback.c **** /*                                                                        */
 741:../STM32Cube_FW_N6/Middlewares/ST/usbx/common/usbx_stm32_device_controllers/ux_dcd_stm32_callback.c **** /**************************************************************************/
 742:../STM32Cube_FW_N6/Middlewares/ST/usbx/common/usbx_stm32_device_controllers/ux_dcd_stm32_callback.c **** void HAL_PCD_ResetCallback(PCD_HandleTypeDef *hpcd)
 743:../STM32Cube_FW_N6/Middlewares/ST/usbx/common/usbx_stm32_device_controllers/ux_dcd_stm32_callback.c **** {
 817              		.loc 1 743 1 is_stmt 1 view -0
 818              		.cfi_startproc
 819              		@ args = 0, pretend = 0, frame = 0
 820              		@ frame_needed = 0, uses_anonymous_args = 0
 744:../STM32Cube_FW_N6/Middlewares/ST/usbx/common/usbx_stm32_device_controllers/ux_dcd_stm32_callback.c **** 
 745:../STM32Cube_FW_N6/Middlewares/ST/usbx/common/usbx_stm32_device_controllers/ux_dcd_stm32_callback.c ****     /* If the device is attached or configured, we need to disconnect it.  */
 746:../STM32Cube_FW_N6/Middlewares/ST/usbx/common/usbx_stm32_device_controllers/ux_dcd_stm32_callback.c ****     if (_ux_system_slave -> ux_system_slave_device.ux_slave_device_state !=  UX_DEVICE_RESET)
 821              		.loc 1 746 5 view .LVU297
 743:../STM32Cube_FW_N6/Middlewares/ST/usbx/common/usbx_stm32_device_controllers/ux_dcd_stm32_callback.c **** 
 822              		.loc 1 743 1 is_stmt 0 view .LVU298
 823 0000 38B5     		push	{r3, r4, r5, lr}
 824              		.cfi_def_cfa_offset 16
 825              		.cfi_offset 3, -16
 826              		.cfi_offset 4, -12
 827              		.cfi_offset 5, -8
 828              		.cfi_offset 14, -4
 829              		.loc 1 746 51 view .LVU299
 830 0002 0A4C     		ldr	r4, .L61
 743:../STM32Cube_FW_N6/Middlewares/ST/usbx/common/usbx_stm32_device_controllers/ux_dcd_stm32_callback.c **** 
 831              		.loc 1 743 1 view .LVU300
 832 0004 0546     		mov	r5, r0
 833              		.loc 1 746 51 view .LVU301
 834 0006 2368     		ldr	r3, [r4]
 835              		.loc 1 746 8 view .LVU302
 836 0008 5B6A     		ldr	r3, [r3, #36]
 837 000a 0BB1     		cbz	r3, .L55
 747:../STM32Cube_FW_N6/Middlewares/ST/usbx/common/usbx_stm32_device_controllers/ux_dcd_stm32_callback.c ****     {
 748:../STM32Cube_FW_N6/Middlewares/ST/usbx/common/usbx_stm32_device_controllers/ux_dcd_stm32_callback.c **** 
 749:../STM32Cube_FW_N6/Middlewares/ST/usbx/common/usbx_stm32_device_controllers/ux_dcd_stm32_callback.c ****         /* Disconnect the device.  */
 750:../STM32Cube_FW_N6/Middlewares/ST/usbx/common/usbx_stm32_device_controllers/ux_dcd_stm32_callback.c ****         _ux_device_stack_disconnect();
 838              		.loc 1 750 9 is_stmt 1 view .LVU303
 839 000c FFF7FEFF 		bl	_ux_device_stack_disconnect
 840              	.LVL67:
 841              	.L55:
 751:../STM32Cube_FW_N6/Middlewares/ST/usbx/common/usbx_stm32_device_controllers/ux_dcd_stm32_callback.c ****     }
 752:../STM32Cube_FW_N6/Middlewares/ST/usbx/common/usbx_stm32_device_controllers/ux_dcd_stm32_callback.c **** 
ARM GAS  /tmp/cc4jpTWk.s 			page 32


 753:../STM32Cube_FW_N6/Middlewares/ST/usbx/common/usbx_stm32_device_controllers/ux_dcd_stm32_callback.c ****     /* Set USB Current Speed */
 754:../STM32Cube_FW_N6/Middlewares/ST/usbx/common/usbx_stm32_device_controllers/ux_dcd_stm32_callback.c ****     switch(hpcd -> Init.speed)
 842              		.loc 1 754 5 view .LVU304
 843 0010 EA79     		ldrb	r2, [r5, #7]	@ zero_extendqisi2
 755:../STM32Cube_FW_N6/Middlewares/ST/usbx/common/usbx_stm32_device_controllers/ux_dcd_stm32_callback.c ****     {
 756:../STM32Cube_FW_N6/Middlewares/ST/usbx/common/usbx_stm32_device_controllers/ux_dcd_stm32_callback.c **** #ifdef PCD_SPEED_HIGH
 757:../STM32Cube_FW_N6/Middlewares/ST/usbx/common/usbx_stm32_device_controllers/ux_dcd_stm32_callback.c ****     case PCD_SPEED_HIGH:
 758:../STM32Cube_FW_N6/Middlewares/ST/usbx/common/usbx_stm32_device_controllers/ux_dcd_stm32_callback.c **** 
 759:../STM32Cube_FW_N6/Middlewares/ST/usbx/common/usbx_stm32_device_controllers/ux_dcd_stm32_callback.c ****         /* We are connected at high speed.  */
 760:../STM32Cube_FW_N6/Middlewares/ST/usbx/common/usbx_stm32_device_controllers/ux_dcd_stm32_callback.c ****         _ux_system_slave -> ux_system_slave_speed =  UX_HIGH_SPEED_DEVICE;
 844              		.loc 1 760 26 is_stmt 0 view .LVU305
 845 0012 2368     		ldr	r3, [r4]
 754:../STM32Cube_FW_N6/Middlewares/ST/usbx/common/usbx_stm32_device_controllers/ux_dcd_stm32_callback.c ****     {
 846              		.loc 1 754 5 view .LVU306
 847 0014 002A     		cmp	r2, #0
 848 0016 0CBF     		ite	eq
 849 0018 0222     		moveq	r2, #2
 850 001a 0122     		movne	r2, #1
 851              		.loc 1 760 51 view .LVU307
 852 001c C3F84021 		str	r2, [r3, #320]
 761:../STM32Cube_FW_N6/Middlewares/ST/usbx/common/usbx_stm32_device_controllers/ux_dcd_stm32_callback.c ****         break;
 762:../STM32Cube_FW_N6/Middlewares/ST/usbx/common/usbx_stm32_device_controllers/ux_dcd_stm32_callback.c **** #endif
 763:../STM32Cube_FW_N6/Middlewares/ST/usbx/common/usbx_stm32_device_controllers/ux_dcd_stm32_callback.c ****     case PCD_SPEED_FULL:
 764:../STM32Cube_FW_N6/Middlewares/ST/usbx/common/usbx_stm32_device_controllers/ux_dcd_stm32_callback.c **** 
 765:../STM32Cube_FW_N6/Middlewares/ST/usbx/common/usbx_stm32_device_controllers/ux_dcd_stm32_callback.c ****         /* We are connected at full speed.  */
 766:../STM32Cube_FW_N6/Middlewares/ST/usbx/common/usbx_stm32_device_controllers/ux_dcd_stm32_callback.c ****         _ux_system_slave -> ux_system_slave_speed =  UX_FULL_SPEED_DEVICE;
 767:../STM32Cube_FW_N6/Middlewares/ST/usbx/common/usbx_stm32_device_controllers/ux_dcd_stm32_callback.c ****         break;
 768:../STM32Cube_FW_N6/Middlewares/ST/usbx/common/usbx_stm32_device_controllers/ux_dcd_stm32_callback.c **** 
 769:../STM32Cube_FW_N6/Middlewares/ST/usbx/common/usbx_stm32_device_controllers/ux_dcd_stm32_callback.c ****     default:
 770:../STM32Cube_FW_N6/Middlewares/ST/usbx/common/usbx_stm32_device_controllers/ux_dcd_stm32_callback.c **** 
 771:../STM32Cube_FW_N6/Middlewares/ST/usbx/common/usbx_stm32_device_controllers/ux_dcd_stm32_callback.c ****         /* We are connected at full speed.  */
 772:../STM32Cube_FW_N6/Middlewares/ST/usbx/common/usbx_stm32_device_controllers/ux_dcd_stm32_callback.c ****         _ux_system_slave -> ux_system_slave_speed =  UX_FULL_SPEED_DEVICE;
 773:../STM32Cube_FW_N6/Middlewares/ST/usbx/common/usbx_stm32_device_controllers/ux_dcd_stm32_callback.c ****         break;
 774:../STM32Cube_FW_N6/Middlewares/ST/usbx/common/usbx_stm32_device_controllers/ux_dcd_stm32_callback.c ****     }
 775:../STM32Cube_FW_N6/Middlewares/ST/usbx/common/usbx_stm32_device_controllers/ux_dcd_stm32_callback.c **** 
 776:../STM32Cube_FW_N6/Middlewares/ST/usbx/common/usbx_stm32_device_controllers/ux_dcd_stm32_callback.c ****     /* Complete the device initialization.  */
 777:../STM32Cube_FW_N6/Middlewares/ST/usbx/common/usbx_stm32_device_controllers/ux_dcd_stm32_callback.c ****     _ux_dcd_stm32_initialize_complete();
 853              		.loc 1 777 5 is_stmt 1 view .LVU308
 854 0020 FFF7FEFF 		bl	_ux_dcd_stm32_initialize_complete
 855              	.LVL68:
 778:../STM32Cube_FW_N6/Middlewares/ST/usbx/common/usbx_stm32_device_controllers/ux_dcd_stm32_callback.c **** 
 779:../STM32Cube_FW_N6/Middlewares/ST/usbx/common/usbx_stm32_device_controllers/ux_dcd_stm32_callback.c ****     /* Mark the device as attached now.  */
 780:../STM32Cube_FW_N6/Middlewares/ST/usbx/common/usbx_stm32_device_controllers/ux_dcd_stm32_callback.c ****     _ux_system_slave -> ux_system_slave_device.ux_slave_device_state =  UX_DEVICE_ATTACHED;
 856              		.loc 1 780 5 view .LVU309
 857              		.loc 1 780 70 is_stmt 0 view .LVU310
 858 0024 0122     		movs	r2, #1
 859 0026 2368     		ldr	r3, [r4]
 860 0028 5A62     		str	r2, [r3, #36]
 781:../STM32Cube_FW_N6/Middlewares/ST/usbx/common/usbx_stm32_device_controllers/ux_dcd_stm32_callback.c **** }
 861              		.loc 1 781 1 view .LVU311
 862 002a 38BD     		pop	{r3, r4, r5, pc}
 863              	.LVL69:
 864              	.L62:
 865              		.loc 1 781 1 view .LVU312
 866              		.align	2
 867              	.L61:
 868 002c 00000000 		.word	_ux_system_slave
ARM GAS  /tmp/cc4jpTWk.s 			page 33


 869              		.cfi_endproc
 870              	.LFE892:
 872              		.section	.text.HAL_PCD_ConnectCallback,"ax",%progbits
 873              		.align	1
 874              		.global	HAL_PCD_ConnectCallback
 875              		.syntax unified
 876              		.thumb
 877              		.thumb_func
 879              	HAL_PCD_ConnectCallback:
 880              	.LVL70:
 881              	.LFB893:
 782:../STM32Cube_FW_N6/Middlewares/ST/usbx/common/usbx_stm32_device_controllers/ux_dcd_stm32_callback.c **** 
 783:../STM32Cube_FW_N6/Middlewares/ST/usbx/common/usbx_stm32_device_controllers/ux_dcd_stm32_callback.c **** 
 784:../STM32Cube_FW_N6/Middlewares/ST/usbx/common/usbx_stm32_device_controllers/ux_dcd_stm32_callback.c **** /**************************************************************************/
 785:../STM32Cube_FW_N6/Middlewares/ST/usbx/common/usbx_stm32_device_controllers/ux_dcd_stm32_callback.c **** /*                                                                        */
 786:../STM32Cube_FW_N6/Middlewares/ST/usbx/common/usbx_stm32_device_controllers/ux_dcd_stm32_callback.c **** /*  FUNCTION                                               RELEASE        */
 787:../STM32Cube_FW_N6/Middlewares/ST/usbx/common/usbx_stm32_device_controllers/ux_dcd_stm32_callback.c **** /*                                                                        */
 788:../STM32Cube_FW_N6/Middlewares/ST/usbx/common/usbx_stm32_device_controllers/ux_dcd_stm32_callback.c **** /*    HAL_PCD_ConnectCallback                             PORTABLE C      */
 789:../STM32Cube_FW_N6/Middlewares/ST/usbx/common/usbx_stm32_device_controllers/ux_dcd_stm32_callback.c **** /*                                                           6.1.12       */
 790:../STM32Cube_FW_N6/Middlewares/ST/usbx/common/usbx_stm32_device_controllers/ux_dcd_stm32_callback.c **** /*  AUTHOR                                                                */
 791:../STM32Cube_FW_N6/Middlewares/ST/usbx/common/usbx_stm32_device_controllers/ux_dcd_stm32_callback.c **** /*                                                                        */
 792:../STM32Cube_FW_N6/Middlewares/ST/usbx/common/usbx_stm32_device_controllers/ux_dcd_stm32_callback.c **** /*    Chaoqiong Xiao, Microsoft Corporation                               */
 793:../STM32Cube_FW_N6/Middlewares/ST/usbx/common/usbx_stm32_device_controllers/ux_dcd_stm32_callback.c **** /*                                                                        */
 794:../STM32Cube_FW_N6/Middlewares/ST/usbx/common/usbx_stm32_device_controllers/ux_dcd_stm32_callback.c **** /*  DESCRIPTION                                                           */
 795:../STM32Cube_FW_N6/Middlewares/ST/usbx/common/usbx_stm32_device_controllers/ux_dcd_stm32_callback.c **** /*                                                                        */
 796:../STM32Cube_FW_N6/Middlewares/ST/usbx/common/usbx_stm32_device_controllers/ux_dcd_stm32_callback.c **** /*    This function handles callback from HAL driver.                     */
 797:../STM32Cube_FW_N6/Middlewares/ST/usbx/common/usbx_stm32_device_controllers/ux_dcd_stm32_callback.c **** /*                                                                        */
 798:../STM32Cube_FW_N6/Middlewares/ST/usbx/common/usbx_stm32_device_controllers/ux_dcd_stm32_callback.c **** /*  INPUT                                                                 */
 799:../STM32Cube_FW_N6/Middlewares/ST/usbx/common/usbx_stm32_device_controllers/ux_dcd_stm32_callback.c **** /*                                                                        */
 800:../STM32Cube_FW_N6/Middlewares/ST/usbx/common/usbx_stm32_device_controllers/ux_dcd_stm32_callback.c **** /*    hpcd                                  Pointer to PCD handle         */
 801:../STM32Cube_FW_N6/Middlewares/ST/usbx/common/usbx_stm32_device_controllers/ux_dcd_stm32_callback.c **** /*                                                                        */
 802:../STM32Cube_FW_N6/Middlewares/ST/usbx/common/usbx_stm32_device_controllers/ux_dcd_stm32_callback.c **** /*  OUTPUT                                                                */
 803:../STM32Cube_FW_N6/Middlewares/ST/usbx/common/usbx_stm32_device_controllers/ux_dcd_stm32_callback.c **** /*                                                                        */
 804:../STM32Cube_FW_N6/Middlewares/ST/usbx/common/usbx_stm32_device_controllers/ux_dcd_stm32_callback.c **** /*    None                                                                */
 805:../STM32Cube_FW_N6/Middlewares/ST/usbx/common/usbx_stm32_device_controllers/ux_dcd_stm32_callback.c **** /*                                                                        */
 806:../STM32Cube_FW_N6/Middlewares/ST/usbx/common/usbx_stm32_device_controllers/ux_dcd_stm32_callback.c **** /*  CALLS                                                                 */
 807:../STM32Cube_FW_N6/Middlewares/ST/usbx/common/usbx_stm32_device_controllers/ux_dcd_stm32_callback.c **** /*                                                                        */
 808:../STM32Cube_FW_N6/Middlewares/ST/usbx/common/usbx_stm32_device_controllers/ux_dcd_stm32_callback.c **** /*                                                                        */
 809:../STM32Cube_FW_N6/Middlewares/ST/usbx/common/usbx_stm32_device_controllers/ux_dcd_stm32_callback.c **** /*                                                                        */
 810:../STM32Cube_FW_N6/Middlewares/ST/usbx/common/usbx_stm32_device_controllers/ux_dcd_stm32_callback.c **** /*  CALLED BY                                                             */
 811:../STM32Cube_FW_N6/Middlewares/ST/usbx/common/usbx_stm32_device_controllers/ux_dcd_stm32_callback.c **** /*                                                                        */
 812:../STM32Cube_FW_N6/Middlewares/ST/usbx/common/usbx_stm32_device_controllers/ux_dcd_stm32_callback.c **** /*    STM32 HAL Driver                                                    */
 813:../STM32Cube_FW_N6/Middlewares/ST/usbx/common/usbx_stm32_device_controllers/ux_dcd_stm32_callback.c **** /*                                                                        */
 814:../STM32Cube_FW_N6/Middlewares/ST/usbx/common/usbx_stm32_device_controllers/ux_dcd_stm32_callback.c **** /*  RELEASE HISTORY                                                       */
 815:../STM32Cube_FW_N6/Middlewares/ST/usbx/common/usbx_stm32_device_controllers/ux_dcd_stm32_callback.c **** /*                                                                        */
 816:../STM32Cube_FW_N6/Middlewares/ST/usbx/common/usbx_stm32_device_controllers/ux_dcd_stm32_callback.c **** /*    DATE              NAME                      DESCRIPTION             */
 817:../STM32Cube_FW_N6/Middlewares/ST/usbx/common/usbx_stm32_device_controllers/ux_dcd_stm32_callback.c **** /*                                                                        */
 818:../STM32Cube_FW_N6/Middlewares/ST/usbx/common/usbx_stm32_device_controllers/ux_dcd_stm32_callback.c **** /*  07-29-2022     Chaoqiong Xiao           Modified comment(s),          */
 819:../STM32Cube_FW_N6/Middlewares/ST/usbx/common/usbx_stm32_device_controllers/ux_dcd_stm32_callback.c **** /*                                            resulting in version 6.1.12 */
 820:../STM32Cube_FW_N6/Middlewares/ST/usbx/common/usbx_stm32_device_controllers/ux_dcd_stm32_callback.c **** /**************************************************************************/
 821:../STM32Cube_FW_N6/Middlewares/ST/usbx/common/usbx_stm32_device_controllers/ux_dcd_stm32_callback.c **** void HAL_PCD_ConnectCallback(PCD_HandleTypeDef *hpcd)
 822:../STM32Cube_FW_N6/Middlewares/ST/usbx/common/usbx_stm32_device_controllers/ux_dcd_stm32_callback.c **** {
 882              		.loc 1 822 1 is_stmt 1 view -0
 883              		.cfi_startproc
 884              		@ args = 0, pretend = 0, frame = 0
 885              		@ frame_needed = 0, uses_anonymous_args = 0
 886              		@ link register save eliminated.
ARM GAS  /tmp/cc4jpTWk.s 			page 34


 823:../STM32Cube_FW_N6/Middlewares/ST/usbx/common/usbx_stm32_device_controllers/ux_dcd_stm32_callback.c **** 
 824:../STM32Cube_FW_N6/Middlewares/ST/usbx/common/usbx_stm32_device_controllers/ux_dcd_stm32_callback.c ****     /* Check the status change callback.  */
 825:../STM32Cube_FW_N6/Middlewares/ST/usbx/common/usbx_stm32_device_controllers/ux_dcd_stm32_callback.c ****     if (_ux_system_slave -> ux_system_slave_change_function != UX_NULL)
 887              		.loc 1 825 5 view .LVU314
 888              		.loc 1 825 26 is_stmt 0 view .LVU315
 889 0000 034B     		ldr	r3, .L65
 890 0002 1B68     		ldr	r3, [r3]
 891 0004 D3F86431 		ldr	r3, [r3, #356]
 892              		.loc 1 825 8 view .LVU316
 893 0008 0BB1     		cbz	r3, .L63
 826:../STM32Cube_FW_N6/Middlewares/ST/usbx/common/usbx_stm32_device_controllers/ux_dcd_stm32_callback.c ****     {
 827:../STM32Cube_FW_N6/Middlewares/ST/usbx/common/usbx_stm32_device_controllers/ux_dcd_stm32_callback.c **** 
 828:../STM32Cube_FW_N6/Middlewares/ST/usbx/common/usbx_stm32_device_controllers/ux_dcd_stm32_callback.c ****        /* Inform the application if a callback function was programmed.  */
 829:../STM32Cube_FW_N6/Middlewares/ST/usbx/common/usbx_stm32_device_controllers/ux_dcd_stm32_callback.c ****         _ux_system_slave -> ux_system_slave_change_function(UX_DCD_STM32_DEVICE_CONNECTED);
 894              		.loc 1 829 9 is_stmt 1 view .LVU317
 895 000a F120     		movs	r0, #241
 896              	.LVL71:
 897              		.loc 1 829 9 is_stmt 0 view .LVU318
 898 000c 1847     		bx	r3
 899              	.LVL72:
 900              	.L63:
 830:../STM32Cube_FW_N6/Middlewares/ST/usbx/common/usbx_stm32_device_controllers/ux_dcd_stm32_callback.c ****     }
 831:../STM32Cube_FW_N6/Middlewares/ST/usbx/common/usbx_stm32_device_controllers/ux_dcd_stm32_callback.c **** }
 901              		.loc 1 831 1 view .LVU319
 902 000e 7047     		bx	lr
 903              	.L66:
 904              		.align	2
 905              	.L65:
 906 0010 00000000 		.word	_ux_system_slave
 907              		.cfi_endproc
 908              	.LFE893:
 910              		.section	.text.HAL_PCD_DisconnectCallback,"ax",%progbits
 911              		.align	1
 912              		.global	HAL_PCD_DisconnectCallback
 913              		.syntax unified
 914              		.thumb
 915              		.thumb_func
 917              	HAL_PCD_DisconnectCallback:
 918              	.LVL73:
 919              	.LFB894:
 832:../STM32Cube_FW_N6/Middlewares/ST/usbx/common/usbx_stm32_device_controllers/ux_dcd_stm32_callback.c **** 
 833:../STM32Cube_FW_N6/Middlewares/ST/usbx/common/usbx_stm32_device_controllers/ux_dcd_stm32_callback.c **** 
 834:../STM32Cube_FW_N6/Middlewares/ST/usbx/common/usbx_stm32_device_controllers/ux_dcd_stm32_callback.c **** /**************************************************************************/
 835:../STM32Cube_FW_N6/Middlewares/ST/usbx/common/usbx_stm32_device_controllers/ux_dcd_stm32_callback.c **** /*                                                                        */
 836:../STM32Cube_FW_N6/Middlewares/ST/usbx/common/usbx_stm32_device_controllers/ux_dcd_stm32_callback.c **** /*  FUNCTION                                               RELEASE        */
 837:../STM32Cube_FW_N6/Middlewares/ST/usbx/common/usbx_stm32_device_controllers/ux_dcd_stm32_callback.c **** /*                                                                        */
 838:../STM32Cube_FW_N6/Middlewares/ST/usbx/common/usbx_stm32_device_controllers/ux_dcd_stm32_callback.c **** /*    HAL_PCD_DisconnectCallback                          PORTABLE C      */
 839:../STM32Cube_FW_N6/Middlewares/ST/usbx/common/usbx_stm32_device_controllers/ux_dcd_stm32_callback.c **** /*                                                           6.1.12       */
 840:../STM32Cube_FW_N6/Middlewares/ST/usbx/common/usbx_stm32_device_controllers/ux_dcd_stm32_callback.c **** /*  AUTHOR                                                                */
 841:../STM32Cube_FW_N6/Middlewares/ST/usbx/common/usbx_stm32_device_controllers/ux_dcd_stm32_callback.c **** /*                                                                        */
 842:../STM32Cube_FW_N6/Middlewares/ST/usbx/common/usbx_stm32_device_controllers/ux_dcd_stm32_callback.c **** /*    Chaoqiong Xiao, Microsoft Corporation                               */
 843:../STM32Cube_FW_N6/Middlewares/ST/usbx/common/usbx_stm32_device_controllers/ux_dcd_stm32_callback.c **** /*                                                                        */
 844:../STM32Cube_FW_N6/Middlewares/ST/usbx/common/usbx_stm32_device_controllers/ux_dcd_stm32_callback.c **** /*  DESCRIPTION                                                           */
 845:../STM32Cube_FW_N6/Middlewares/ST/usbx/common/usbx_stm32_device_controllers/ux_dcd_stm32_callback.c **** /*                                                                        */
 846:../STM32Cube_FW_N6/Middlewares/ST/usbx/common/usbx_stm32_device_controllers/ux_dcd_stm32_callback.c **** /*    This function handles callback from HAL driver.                     */
 847:../STM32Cube_FW_N6/Middlewares/ST/usbx/common/usbx_stm32_device_controllers/ux_dcd_stm32_callback.c **** /*                                                                        */
 848:../STM32Cube_FW_N6/Middlewares/ST/usbx/common/usbx_stm32_device_controllers/ux_dcd_stm32_callback.c **** /*  INPUT                                                                 */
ARM GAS  /tmp/cc4jpTWk.s 			page 35


 849:../STM32Cube_FW_N6/Middlewares/ST/usbx/common/usbx_stm32_device_controllers/ux_dcd_stm32_callback.c **** /*                                                                        */
 850:../STM32Cube_FW_N6/Middlewares/ST/usbx/common/usbx_stm32_device_controllers/ux_dcd_stm32_callback.c **** /*    hpcd                                  Pointer to PCD handle         */
 851:../STM32Cube_FW_N6/Middlewares/ST/usbx/common/usbx_stm32_device_controllers/ux_dcd_stm32_callback.c **** /*                                                                        */
 852:../STM32Cube_FW_N6/Middlewares/ST/usbx/common/usbx_stm32_device_controllers/ux_dcd_stm32_callback.c **** /*  OUTPUT                                                                */
 853:../STM32Cube_FW_N6/Middlewares/ST/usbx/common/usbx_stm32_device_controllers/ux_dcd_stm32_callback.c **** /*                                                                        */
 854:../STM32Cube_FW_N6/Middlewares/ST/usbx/common/usbx_stm32_device_controllers/ux_dcd_stm32_callback.c **** /*    None                                                                */
 855:../STM32Cube_FW_N6/Middlewares/ST/usbx/common/usbx_stm32_device_controllers/ux_dcd_stm32_callback.c **** /*                                                                        */
 856:../STM32Cube_FW_N6/Middlewares/ST/usbx/common/usbx_stm32_device_controllers/ux_dcd_stm32_callback.c **** /*  CALLS                                                                 */
 857:../STM32Cube_FW_N6/Middlewares/ST/usbx/common/usbx_stm32_device_controllers/ux_dcd_stm32_callback.c **** /*                                                                        */
 858:../STM32Cube_FW_N6/Middlewares/ST/usbx/common/usbx_stm32_device_controllers/ux_dcd_stm32_callback.c **** /*    _ux_device_stack_disconnect           Disconnect device             */
 859:../STM32Cube_FW_N6/Middlewares/ST/usbx/common/usbx_stm32_device_controllers/ux_dcd_stm32_callback.c **** /*                                                                        */
 860:../STM32Cube_FW_N6/Middlewares/ST/usbx/common/usbx_stm32_device_controllers/ux_dcd_stm32_callback.c **** /*  CALLED BY                                                             */
 861:../STM32Cube_FW_N6/Middlewares/ST/usbx/common/usbx_stm32_device_controllers/ux_dcd_stm32_callback.c **** /*                                                                        */
 862:../STM32Cube_FW_N6/Middlewares/ST/usbx/common/usbx_stm32_device_controllers/ux_dcd_stm32_callback.c **** /*    STM32 HAL Driver                                                    */
 863:../STM32Cube_FW_N6/Middlewares/ST/usbx/common/usbx_stm32_device_controllers/ux_dcd_stm32_callback.c **** /*                                                                        */
 864:../STM32Cube_FW_N6/Middlewares/ST/usbx/common/usbx_stm32_device_controllers/ux_dcd_stm32_callback.c **** /*  RELEASE HISTORY                                                       */
 865:../STM32Cube_FW_N6/Middlewares/ST/usbx/common/usbx_stm32_device_controllers/ux_dcd_stm32_callback.c **** /*                                                                        */
 866:../STM32Cube_FW_N6/Middlewares/ST/usbx/common/usbx_stm32_device_controllers/ux_dcd_stm32_callback.c **** /*    DATE              NAME                      DESCRIPTION             */
 867:../STM32Cube_FW_N6/Middlewares/ST/usbx/common/usbx_stm32_device_controllers/ux_dcd_stm32_callback.c **** /*                                                                        */
 868:../STM32Cube_FW_N6/Middlewares/ST/usbx/common/usbx_stm32_device_controllers/ux_dcd_stm32_callback.c **** /*  09-30-2020     Chaoqiong Xiao           Initial Version 6.1           */
 869:../STM32Cube_FW_N6/Middlewares/ST/usbx/common/usbx_stm32_device_controllers/ux_dcd_stm32_callback.c **** /*  01-31-2022     Chaoqiong Xiao           Modified comment(s),          */
 870:../STM32Cube_FW_N6/Middlewares/ST/usbx/common/usbx_stm32_device_controllers/ux_dcd_stm32_callback.c **** /*                                            resulting in version 6.1.10 */
 871:../STM32Cube_FW_N6/Middlewares/ST/usbx/common/usbx_stm32_device_controllers/ux_dcd_stm32_callback.c **** /*  07-29-2022     Chaoqiong Xiao           Modified comment(s),          */
 872:../STM32Cube_FW_N6/Middlewares/ST/usbx/common/usbx_stm32_device_controllers/ux_dcd_stm32_callback.c **** /*                                            resulting in version 6.1.12 */
 873:../STM32Cube_FW_N6/Middlewares/ST/usbx/common/usbx_stm32_device_controllers/ux_dcd_stm32_callback.c **** /*                                                                        */
 874:../STM32Cube_FW_N6/Middlewares/ST/usbx/common/usbx_stm32_device_controllers/ux_dcd_stm32_callback.c **** /**************************************************************************/
 875:../STM32Cube_FW_N6/Middlewares/ST/usbx/common/usbx_stm32_device_controllers/ux_dcd_stm32_callback.c **** void HAL_PCD_DisconnectCallback(PCD_HandleTypeDef *hpcd)
 876:../STM32Cube_FW_N6/Middlewares/ST/usbx/common/usbx_stm32_device_controllers/ux_dcd_stm32_callback.c **** {
 920              		.loc 1 876 1 is_stmt 1 view -0
 921              		.cfi_startproc
 922              		@ args = 0, pretend = 0, frame = 0
 923              		@ frame_needed = 0, uses_anonymous_args = 0
 877:../STM32Cube_FW_N6/Middlewares/ST/usbx/common/usbx_stm32_device_controllers/ux_dcd_stm32_callback.c **** 
 878:../STM32Cube_FW_N6/Middlewares/ST/usbx/common/usbx_stm32_device_controllers/ux_dcd_stm32_callback.c ****     /* Check the status change callback.  */
 879:../STM32Cube_FW_N6/Middlewares/ST/usbx/common/usbx_stm32_device_controllers/ux_dcd_stm32_callback.c ****     if (_ux_system_slave -> ux_system_slave_change_function != UX_NULL)
 924              		.loc 1 879 5 view .LVU321
 876:../STM32Cube_FW_N6/Middlewares/ST/usbx/common/usbx_stm32_device_controllers/ux_dcd_stm32_callback.c **** 
 925              		.loc 1 876 1 is_stmt 0 view .LVU322
 926 0000 10B5     		push	{r4, lr}
 927              		.cfi_def_cfa_offset 8
 928              		.cfi_offset 4, -8
 929              		.cfi_offset 14, -4
 930              		.loc 1 879 26 view .LVU323
 931 0002 074C     		ldr	r4, .L73
 932 0004 2368     		ldr	r3, [r4]
 933 0006 D3F86431 		ldr	r3, [r3, #356]
 934              		.loc 1 879 8 view .LVU324
 935 000a 0BB1     		cbz	r3, .L68
 880:../STM32Cube_FW_N6/Middlewares/ST/usbx/common/usbx_stm32_device_controllers/ux_dcd_stm32_callback.c ****     {
 881:../STM32Cube_FW_N6/Middlewares/ST/usbx/common/usbx_stm32_device_controllers/ux_dcd_stm32_callback.c **** 
 882:../STM32Cube_FW_N6/Middlewares/ST/usbx/common/usbx_stm32_device_controllers/ux_dcd_stm32_callback.c ****        /* Inform the application if a callback function was programmed.  */
 883:../STM32Cube_FW_N6/Middlewares/ST/usbx/common/usbx_stm32_device_controllers/ux_dcd_stm32_callback.c ****         _ux_system_slave -> ux_system_slave_change_function(UX_DCD_STM32_DEVICE_DISCONNECTED);
 936              		.loc 1 883 9 is_stmt 1 view .LVU325
 937 000c F220     		movs	r0, #242
 938              	.LVL74:
 939              		.loc 1 883 9 is_stmt 0 view .LVU326
 940 000e 9847     		blx	r3
ARM GAS  /tmp/cc4jpTWk.s 			page 36


 941              	.LVL75:
 942              	.L68:
 884:../STM32Cube_FW_N6/Middlewares/ST/usbx/common/usbx_stm32_device_controllers/ux_dcd_stm32_callback.c ****     }
 885:../STM32Cube_FW_N6/Middlewares/ST/usbx/common/usbx_stm32_device_controllers/ux_dcd_stm32_callback.c **** 
 886:../STM32Cube_FW_N6/Middlewares/ST/usbx/common/usbx_stm32_device_controllers/ux_dcd_stm32_callback.c ****     /* Check if the device is attached or configured.  */
 887:../STM32Cube_FW_N6/Middlewares/ST/usbx/common/usbx_stm32_device_controllers/ux_dcd_stm32_callback.c ****     if (_ux_system_slave -> ux_system_slave_device.ux_slave_device_state !=  UX_DEVICE_RESET)
 943              		.loc 1 887 5 is_stmt 1 view .LVU327
 944              		.loc 1 887 51 is_stmt 0 view .LVU328
 945 0010 2368     		ldr	r3, [r4]
 946              		.loc 1 887 8 view .LVU329
 947 0012 5B6A     		ldr	r3, [r3, #36]
 948 0014 1BB1     		cbz	r3, .L67
 888:../STM32Cube_FW_N6/Middlewares/ST/usbx/common/usbx_stm32_device_controllers/ux_dcd_stm32_callback.c ****     {
 889:../STM32Cube_FW_N6/Middlewares/ST/usbx/common/usbx_stm32_device_controllers/ux_dcd_stm32_callback.c **** 
 890:../STM32Cube_FW_N6/Middlewares/ST/usbx/common/usbx_stm32_device_controllers/ux_dcd_stm32_callback.c ****         /* Disconnect the device.  */
 891:../STM32Cube_FW_N6/Middlewares/ST/usbx/common/usbx_stm32_device_controllers/ux_dcd_stm32_callback.c ****         _ux_device_stack_disconnect();
 949              		.loc 1 891 9 is_stmt 1 view .LVU330
 892:../STM32Cube_FW_N6/Middlewares/ST/usbx/common/usbx_stm32_device_controllers/ux_dcd_stm32_callback.c ****     }
 893:../STM32Cube_FW_N6/Middlewares/ST/usbx/common/usbx_stm32_device_controllers/ux_dcd_stm32_callback.c **** }
 950              		.loc 1 893 1 is_stmt 0 view .LVU331
 951 0016 BDE81040 		pop	{r4, lr}
 952              		.cfi_remember_state
 953              		.cfi_restore 14
 954              		.cfi_restore 4
 955              		.cfi_def_cfa_offset 0
 891:../STM32Cube_FW_N6/Middlewares/ST/usbx/common/usbx_stm32_device_controllers/ux_dcd_stm32_callback.c ****     }
 956              		.loc 1 891 9 view .LVU332
 957 001a FFF7FEBF 		b	_ux_device_stack_disconnect
 958              	.LVL76:
 959              	.L67:
 960              		.cfi_restore_state
 961              		.loc 1 893 1 view .LVU333
 962 001e 10BD     		pop	{r4, pc}
 963              	.L74:
 964              		.align	2
 965              	.L73:
 966 0020 00000000 		.word	_ux_system_slave
 967              		.cfi_endproc
 968              	.LFE894:
 970              		.section	.text.HAL_PCD_SuspendCallback,"ax",%progbits
 971              		.align	1
 972              		.global	HAL_PCD_SuspendCallback
 973              		.syntax unified
 974              		.thumb
 975              		.thumb_func
 977              	HAL_PCD_SuspendCallback:
 978              	.LVL77:
 979              	.LFB895:
 894:../STM32Cube_FW_N6/Middlewares/ST/usbx/common/usbx_stm32_device_controllers/ux_dcd_stm32_callback.c **** 
 895:../STM32Cube_FW_N6/Middlewares/ST/usbx/common/usbx_stm32_device_controllers/ux_dcd_stm32_callback.c **** 
 896:../STM32Cube_FW_N6/Middlewares/ST/usbx/common/usbx_stm32_device_controllers/ux_dcd_stm32_callback.c **** /**************************************************************************/
 897:../STM32Cube_FW_N6/Middlewares/ST/usbx/common/usbx_stm32_device_controllers/ux_dcd_stm32_callback.c **** /*                                                                        */
 898:../STM32Cube_FW_N6/Middlewares/ST/usbx/common/usbx_stm32_device_controllers/ux_dcd_stm32_callback.c **** /*  FUNCTION                                               RELEASE        */
 899:../STM32Cube_FW_N6/Middlewares/ST/usbx/common/usbx_stm32_device_controllers/ux_dcd_stm32_callback.c **** /*                                                                        */
 900:../STM32Cube_FW_N6/Middlewares/ST/usbx/common/usbx_stm32_device_controllers/ux_dcd_stm32_callback.c **** /*    HAL_PCD_SuspendCallback                             PORTABLE C      */
 901:../STM32Cube_FW_N6/Middlewares/ST/usbx/common/usbx_stm32_device_controllers/ux_dcd_stm32_callback.c **** /*                                                           6.1.12       */
 902:../STM32Cube_FW_N6/Middlewares/ST/usbx/common/usbx_stm32_device_controllers/ux_dcd_stm32_callback.c **** /*  AUTHOR                                                                */
ARM GAS  /tmp/cc4jpTWk.s 			page 37


 903:../STM32Cube_FW_N6/Middlewares/ST/usbx/common/usbx_stm32_device_controllers/ux_dcd_stm32_callback.c **** /*                                                                        */
 904:../STM32Cube_FW_N6/Middlewares/ST/usbx/common/usbx_stm32_device_controllers/ux_dcd_stm32_callback.c **** /*    Chaoqiong Xiao, Microsoft Corporation                               */
 905:../STM32Cube_FW_N6/Middlewares/ST/usbx/common/usbx_stm32_device_controllers/ux_dcd_stm32_callback.c **** /*                                                                        */
 906:../STM32Cube_FW_N6/Middlewares/ST/usbx/common/usbx_stm32_device_controllers/ux_dcd_stm32_callback.c **** /*  DESCRIPTION                                                           */
 907:../STM32Cube_FW_N6/Middlewares/ST/usbx/common/usbx_stm32_device_controllers/ux_dcd_stm32_callback.c **** /*                                                                        */
 908:../STM32Cube_FW_N6/Middlewares/ST/usbx/common/usbx_stm32_device_controllers/ux_dcd_stm32_callback.c **** /*    This function handles callback from HAL driver.                     */
 909:../STM32Cube_FW_N6/Middlewares/ST/usbx/common/usbx_stm32_device_controllers/ux_dcd_stm32_callback.c **** /*                                                                        */
 910:../STM32Cube_FW_N6/Middlewares/ST/usbx/common/usbx_stm32_device_controllers/ux_dcd_stm32_callback.c **** /*  INPUT                                                                 */
 911:../STM32Cube_FW_N6/Middlewares/ST/usbx/common/usbx_stm32_device_controllers/ux_dcd_stm32_callback.c **** /*                                                                        */
 912:../STM32Cube_FW_N6/Middlewares/ST/usbx/common/usbx_stm32_device_controllers/ux_dcd_stm32_callback.c **** /*    hpcd                                  Pointer to PCD handle         */
 913:../STM32Cube_FW_N6/Middlewares/ST/usbx/common/usbx_stm32_device_controllers/ux_dcd_stm32_callback.c **** /*                                                                        */
 914:../STM32Cube_FW_N6/Middlewares/ST/usbx/common/usbx_stm32_device_controllers/ux_dcd_stm32_callback.c **** /*  OUTPUT                                                                */
 915:../STM32Cube_FW_N6/Middlewares/ST/usbx/common/usbx_stm32_device_controllers/ux_dcd_stm32_callback.c **** /*                                                                        */
 916:../STM32Cube_FW_N6/Middlewares/ST/usbx/common/usbx_stm32_device_controllers/ux_dcd_stm32_callback.c **** /*    None                                                                */
 917:../STM32Cube_FW_N6/Middlewares/ST/usbx/common/usbx_stm32_device_controllers/ux_dcd_stm32_callback.c **** /*                                                                        */
 918:../STM32Cube_FW_N6/Middlewares/ST/usbx/common/usbx_stm32_device_controllers/ux_dcd_stm32_callback.c **** /*  CALLS                                                                 */
 919:../STM32Cube_FW_N6/Middlewares/ST/usbx/common/usbx_stm32_device_controllers/ux_dcd_stm32_callback.c **** /*                                                                        */
 920:../STM32Cube_FW_N6/Middlewares/ST/usbx/common/usbx_stm32_device_controllers/ux_dcd_stm32_callback.c **** /*                                                                        */
 921:../STM32Cube_FW_N6/Middlewares/ST/usbx/common/usbx_stm32_device_controllers/ux_dcd_stm32_callback.c **** /*                                                                        */
 922:../STM32Cube_FW_N6/Middlewares/ST/usbx/common/usbx_stm32_device_controllers/ux_dcd_stm32_callback.c **** /*  CALLED BY                                                             */
 923:../STM32Cube_FW_N6/Middlewares/ST/usbx/common/usbx_stm32_device_controllers/ux_dcd_stm32_callback.c **** /*                                                                        */
 924:../STM32Cube_FW_N6/Middlewares/ST/usbx/common/usbx_stm32_device_controllers/ux_dcd_stm32_callback.c **** /*    STM32 HAL Driver                                                    */
 925:../STM32Cube_FW_N6/Middlewares/ST/usbx/common/usbx_stm32_device_controllers/ux_dcd_stm32_callback.c **** /*                                                                        */
 926:../STM32Cube_FW_N6/Middlewares/ST/usbx/common/usbx_stm32_device_controllers/ux_dcd_stm32_callback.c **** /*  RELEASE HISTORY                                                       */
 927:../STM32Cube_FW_N6/Middlewares/ST/usbx/common/usbx_stm32_device_controllers/ux_dcd_stm32_callback.c **** /*                                                                        */
 928:../STM32Cube_FW_N6/Middlewares/ST/usbx/common/usbx_stm32_device_controllers/ux_dcd_stm32_callback.c **** /*    DATE              NAME                      DESCRIPTION             */
 929:../STM32Cube_FW_N6/Middlewares/ST/usbx/common/usbx_stm32_device_controllers/ux_dcd_stm32_callback.c **** /*                                                                        */
 930:../STM32Cube_FW_N6/Middlewares/ST/usbx/common/usbx_stm32_device_controllers/ux_dcd_stm32_callback.c **** /*  07-29-2022     Chaoqiong Xiao           Modified comment(s),          */
 931:../STM32Cube_FW_N6/Middlewares/ST/usbx/common/usbx_stm32_device_controllers/ux_dcd_stm32_callback.c **** /*                                            resulting in version 6.1.12 */
 932:../STM32Cube_FW_N6/Middlewares/ST/usbx/common/usbx_stm32_device_controllers/ux_dcd_stm32_callback.c **** /*                                                                        */
 933:../STM32Cube_FW_N6/Middlewares/ST/usbx/common/usbx_stm32_device_controllers/ux_dcd_stm32_callback.c **** /**************************************************************************/
 934:../STM32Cube_FW_N6/Middlewares/ST/usbx/common/usbx_stm32_device_controllers/ux_dcd_stm32_callback.c **** void HAL_PCD_SuspendCallback(PCD_HandleTypeDef *hpcd)
 935:../STM32Cube_FW_N6/Middlewares/ST/usbx/common/usbx_stm32_device_controllers/ux_dcd_stm32_callback.c **** {
 980              		.loc 1 935 1 is_stmt 1 view -0
 981              		.cfi_startproc
 982              		@ args = 0, pretend = 0, frame = 0
 983              		@ frame_needed = 0, uses_anonymous_args = 0
 984              		@ link register save eliminated.
 936:../STM32Cube_FW_N6/Middlewares/ST/usbx/common/usbx_stm32_device_controllers/ux_dcd_stm32_callback.c **** 
 937:../STM32Cube_FW_N6/Middlewares/ST/usbx/common/usbx_stm32_device_controllers/ux_dcd_stm32_callback.c ****     /* Check the status change callback.  */
 938:../STM32Cube_FW_N6/Middlewares/ST/usbx/common/usbx_stm32_device_controllers/ux_dcd_stm32_callback.c ****     if (_ux_system_slave -> ux_system_slave_change_function != UX_NULL)
 985              		.loc 1 938 5 view .LVU335
 986              		.loc 1 938 26 is_stmt 0 view .LVU336
 987 0000 034B     		ldr	r3, .L77
 988 0002 1B68     		ldr	r3, [r3]
 989 0004 D3F86431 		ldr	r3, [r3, #356]
 990              		.loc 1 938 8 view .LVU337
 991 0008 0BB1     		cbz	r3, .L75
 939:../STM32Cube_FW_N6/Middlewares/ST/usbx/common/usbx_stm32_device_controllers/ux_dcd_stm32_callback.c ****     {
 940:../STM32Cube_FW_N6/Middlewares/ST/usbx/common/usbx_stm32_device_controllers/ux_dcd_stm32_callback.c **** 
 941:../STM32Cube_FW_N6/Middlewares/ST/usbx/common/usbx_stm32_device_controllers/ux_dcd_stm32_callback.c ****        /* Inform the application if a callback function was programmed.  */
 942:../STM32Cube_FW_N6/Middlewares/ST/usbx/common/usbx_stm32_device_controllers/ux_dcd_stm32_callback.c ****         _ux_system_slave -> ux_system_slave_change_function(UX_DCD_STM32_DEVICE_SUSPENDED);
 992              		.loc 1 942 9 is_stmt 1 view .LVU338
 993 000a F420     		movs	r0, #244
 994              	.LVL78:
 995              		.loc 1 942 9 is_stmt 0 view .LVU339
 996 000c 1847     		bx	r3
ARM GAS  /tmp/cc4jpTWk.s 			page 38


 997              	.LVL79:
 998              	.L75:
 943:../STM32Cube_FW_N6/Middlewares/ST/usbx/common/usbx_stm32_device_controllers/ux_dcd_stm32_callback.c ****     }
 944:../STM32Cube_FW_N6/Middlewares/ST/usbx/common/usbx_stm32_device_controllers/ux_dcd_stm32_callback.c **** }
 999              		.loc 1 944 1 view .LVU340
 1000 000e 7047     		bx	lr
 1001              	.L78:
 1002              		.align	2
 1003              	.L77:
 1004 0010 00000000 		.word	_ux_system_slave
 1005              		.cfi_endproc
 1006              	.LFE895:
 1008              		.section	.text.HAL_PCD_ResumeCallback,"ax",%progbits
 1009              		.align	1
 1010              		.global	HAL_PCD_ResumeCallback
 1011              		.syntax unified
 1012              		.thumb
 1013              		.thumb_func
 1015              	HAL_PCD_ResumeCallback:
 1016              	.LVL80:
 1017              	.LFB896:
 945:../STM32Cube_FW_N6/Middlewares/ST/usbx/common/usbx_stm32_device_controllers/ux_dcd_stm32_callback.c **** 
 946:../STM32Cube_FW_N6/Middlewares/ST/usbx/common/usbx_stm32_device_controllers/ux_dcd_stm32_callback.c **** 
 947:../STM32Cube_FW_N6/Middlewares/ST/usbx/common/usbx_stm32_device_controllers/ux_dcd_stm32_callback.c **** /**************************************************************************/
 948:../STM32Cube_FW_N6/Middlewares/ST/usbx/common/usbx_stm32_device_controllers/ux_dcd_stm32_callback.c **** /*                                                                        */
 949:../STM32Cube_FW_N6/Middlewares/ST/usbx/common/usbx_stm32_device_controllers/ux_dcd_stm32_callback.c **** /*  FUNCTION                                               RELEASE        */
 950:../STM32Cube_FW_N6/Middlewares/ST/usbx/common/usbx_stm32_device_controllers/ux_dcd_stm32_callback.c **** /*                                                                        */
 951:../STM32Cube_FW_N6/Middlewares/ST/usbx/common/usbx_stm32_device_controllers/ux_dcd_stm32_callback.c **** /*    HAL_PCD_ResumeCallback                              PORTABLE C      */
 952:../STM32Cube_FW_N6/Middlewares/ST/usbx/common/usbx_stm32_device_controllers/ux_dcd_stm32_callback.c **** /*                                                           6.1.12       */
 953:../STM32Cube_FW_N6/Middlewares/ST/usbx/common/usbx_stm32_device_controllers/ux_dcd_stm32_callback.c **** /*  AUTHOR                                                                */
 954:../STM32Cube_FW_N6/Middlewares/ST/usbx/common/usbx_stm32_device_controllers/ux_dcd_stm32_callback.c **** /*                                                                        */
 955:../STM32Cube_FW_N6/Middlewares/ST/usbx/common/usbx_stm32_device_controllers/ux_dcd_stm32_callback.c **** /*    Chaoqiong Xiao, Microsoft Corporation                               */
 956:../STM32Cube_FW_N6/Middlewares/ST/usbx/common/usbx_stm32_device_controllers/ux_dcd_stm32_callback.c **** /*                                                                        */
 957:../STM32Cube_FW_N6/Middlewares/ST/usbx/common/usbx_stm32_device_controllers/ux_dcd_stm32_callback.c **** /*  DESCRIPTION                                                           */
 958:../STM32Cube_FW_N6/Middlewares/ST/usbx/common/usbx_stm32_device_controllers/ux_dcd_stm32_callback.c **** /*                                                                        */
 959:../STM32Cube_FW_N6/Middlewares/ST/usbx/common/usbx_stm32_device_controllers/ux_dcd_stm32_callback.c **** /*    This function handles callback from HAL driver.                     */
 960:../STM32Cube_FW_N6/Middlewares/ST/usbx/common/usbx_stm32_device_controllers/ux_dcd_stm32_callback.c **** /*                                                                        */
 961:../STM32Cube_FW_N6/Middlewares/ST/usbx/common/usbx_stm32_device_controllers/ux_dcd_stm32_callback.c **** /*  INPUT                                                                 */
 962:../STM32Cube_FW_N6/Middlewares/ST/usbx/common/usbx_stm32_device_controllers/ux_dcd_stm32_callback.c **** /*                                                                        */
 963:../STM32Cube_FW_N6/Middlewares/ST/usbx/common/usbx_stm32_device_controllers/ux_dcd_stm32_callback.c **** /*    hpcd                                  Pointer to PCD handle         */
 964:../STM32Cube_FW_N6/Middlewares/ST/usbx/common/usbx_stm32_device_controllers/ux_dcd_stm32_callback.c **** /*                                                                        */
 965:../STM32Cube_FW_N6/Middlewares/ST/usbx/common/usbx_stm32_device_controllers/ux_dcd_stm32_callback.c **** /*  OUTPUT                                                                */
 966:../STM32Cube_FW_N6/Middlewares/ST/usbx/common/usbx_stm32_device_controllers/ux_dcd_stm32_callback.c **** /*                                                                        */
 967:../STM32Cube_FW_N6/Middlewares/ST/usbx/common/usbx_stm32_device_controllers/ux_dcd_stm32_callback.c **** /*    None                                                                */
 968:../STM32Cube_FW_N6/Middlewares/ST/usbx/common/usbx_stm32_device_controllers/ux_dcd_stm32_callback.c **** /*                                                                        */
 969:../STM32Cube_FW_N6/Middlewares/ST/usbx/common/usbx_stm32_device_controllers/ux_dcd_stm32_callback.c **** /*  CALLS                                                                 */
 970:../STM32Cube_FW_N6/Middlewares/ST/usbx/common/usbx_stm32_device_controllers/ux_dcd_stm32_callback.c **** /*                                                                        */
 971:../STM32Cube_FW_N6/Middlewares/ST/usbx/common/usbx_stm32_device_controllers/ux_dcd_stm32_callback.c **** /*                                                                        */
 972:../STM32Cube_FW_N6/Middlewares/ST/usbx/common/usbx_stm32_device_controllers/ux_dcd_stm32_callback.c **** /*                                                                        */
 973:../STM32Cube_FW_N6/Middlewares/ST/usbx/common/usbx_stm32_device_controllers/ux_dcd_stm32_callback.c **** /*  CALLED BY                                                             */
 974:../STM32Cube_FW_N6/Middlewares/ST/usbx/common/usbx_stm32_device_controllers/ux_dcd_stm32_callback.c **** /*                                                                        */
 975:../STM32Cube_FW_N6/Middlewares/ST/usbx/common/usbx_stm32_device_controllers/ux_dcd_stm32_callback.c **** /*    STM32 HAL Driver                                                    */
 976:../STM32Cube_FW_N6/Middlewares/ST/usbx/common/usbx_stm32_device_controllers/ux_dcd_stm32_callback.c **** /*                                                                        */
 977:../STM32Cube_FW_N6/Middlewares/ST/usbx/common/usbx_stm32_device_controllers/ux_dcd_stm32_callback.c **** /*  RELEASE HISTORY                                                       */
 978:../STM32Cube_FW_N6/Middlewares/ST/usbx/common/usbx_stm32_device_controllers/ux_dcd_stm32_callback.c **** /*                                                                        */
 979:../STM32Cube_FW_N6/Middlewares/ST/usbx/common/usbx_stm32_device_controllers/ux_dcd_stm32_callback.c **** /*    DATE              NAME                      DESCRIPTION             */
 980:../STM32Cube_FW_N6/Middlewares/ST/usbx/common/usbx_stm32_device_controllers/ux_dcd_stm32_callback.c **** /*                                                                        */
ARM GAS  /tmp/cc4jpTWk.s 			page 39


 981:../STM32Cube_FW_N6/Middlewares/ST/usbx/common/usbx_stm32_device_controllers/ux_dcd_stm32_callback.c **** /*  07-29-2022     Chaoqiong Xiao           Modified comment(s),          */
 982:../STM32Cube_FW_N6/Middlewares/ST/usbx/common/usbx_stm32_device_controllers/ux_dcd_stm32_callback.c **** /*                                            resulting in version 6.1.12 */
 983:../STM32Cube_FW_N6/Middlewares/ST/usbx/common/usbx_stm32_device_controllers/ux_dcd_stm32_callback.c **** /*                                                                        */
 984:../STM32Cube_FW_N6/Middlewares/ST/usbx/common/usbx_stm32_device_controllers/ux_dcd_stm32_callback.c **** /**************************************************************************/
 985:../STM32Cube_FW_N6/Middlewares/ST/usbx/common/usbx_stm32_device_controllers/ux_dcd_stm32_callback.c **** void HAL_PCD_ResumeCallback(PCD_HandleTypeDef *hpcd)
 986:../STM32Cube_FW_N6/Middlewares/ST/usbx/common/usbx_stm32_device_controllers/ux_dcd_stm32_callback.c **** {
 1018              		.loc 1 986 1 is_stmt 1 view -0
 1019              		.cfi_startproc
 1020              		@ args = 0, pretend = 0, frame = 0
 1021              		@ frame_needed = 0, uses_anonymous_args = 0
 1022              		@ link register save eliminated.
 987:../STM32Cube_FW_N6/Middlewares/ST/usbx/common/usbx_stm32_device_controllers/ux_dcd_stm32_callback.c **** 
 988:../STM32Cube_FW_N6/Middlewares/ST/usbx/common/usbx_stm32_device_controllers/ux_dcd_stm32_callback.c ****     /* Check the status change callback.  */
 989:../STM32Cube_FW_N6/Middlewares/ST/usbx/common/usbx_stm32_device_controllers/ux_dcd_stm32_callback.c ****     if (_ux_system_slave -> ux_system_slave_change_function != UX_NULL)
 1023              		.loc 1 989 5 view .LVU342
 1024              		.loc 1 989 26 is_stmt 0 view .LVU343
 1025 0000 034B     		ldr	r3, .L81
 1026 0002 1B68     		ldr	r3, [r3]
 1027 0004 D3F86431 		ldr	r3, [r3, #356]
 1028              		.loc 1 989 8 view .LVU344
 1029 0008 0BB1     		cbz	r3, .L79
 990:../STM32Cube_FW_N6/Middlewares/ST/usbx/common/usbx_stm32_device_controllers/ux_dcd_stm32_callback.c ****     {
 991:../STM32Cube_FW_N6/Middlewares/ST/usbx/common/usbx_stm32_device_controllers/ux_dcd_stm32_callback.c **** 
 992:../STM32Cube_FW_N6/Middlewares/ST/usbx/common/usbx_stm32_device_controllers/ux_dcd_stm32_callback.c ****        /* Inform the application if a callback function was programmed.  */
 993:../STM32Cube_FW_N6/Middlewares/ST/usbx/common/usbx_stm32_device_controllers/ux_dcd_stm32_callback.c ****         _ux_system_slave -> ux_system_slave_change_function(UX_DCD_STM32_DEVICE_RESUMED);
 1030              		.loc 1 993 9 is_stmt 1 view .LVU345
 1031 000a F320     		movs	r0, #243
 1032              	.LVL81:
 1033              		.loc 1 993 9 is_stmt 0 view .LVU346
 1034 000c 1847     		bx	r3
 1035              	.LVL82:
 1036              	.L79:
 994:../STM32Cube_FW_N6/Middlewares/ST/usbx/common/usbx_stm32_device_controllers/ux_dcd_stm32_callback.c ****     }
 995:../STM32Cube_FW_N6/Middlewares/ST/usbx/common/usbx_stm32_device_controllers/ux_dcd_stm32_callback.c **** }
 1037              		.loc 1 995 1 view .LVU347
 1038 000e 7047     		bx	lr
 1039              	.L82:
 1040              		.align	2
 1041              	.L81:
 1042 0010 00000000 		.word	_ux_system_slave
 1043              		.cfi_endproc
 1044              	.LFE896:
 1046              		.section	.text.HAL_PCD_SOFCallback,"ax",%progbits
 1047              		.align	1
 1048              		.global	HAL_PCD_SOFCallback
 1049              		.syntax unified
 1050              		.thumb
 1051              		.thumb_func
 1053              	HAL_PCD_SOFCallback:
 1054              	.LVL83:
 1055              	.LFB897:
 996:../STM32Cube_FW_N6/Middlewares/ST/usbx/common/usbx_stm32_device_controllers/ux_dcd_stm32_callback.c **** 
 997:../STM32Cube_FW_N6/Middlewares/ST/usbx/common/usbx_stm32_device_controllers/ux_dcd_stm32_callback.c **** 
 998:../STM32Cube_FW_N6/Middlewares/ST/usbx/common/usbx_stm32_device_controllers/ux_dcd_stm32_callback.c **** /**************************************************************************/
 999:../STM32Cube_FW_N6/Middlewares/ST/usbx/common/usbx_stm32_device_controllers/ux_dcd_stm32_callback.c **** /*                                                                        */
1000:../STM32Cube_FW_N6/Middlewares/ST/usbx/common/usbx_stm32_device_controllers/ux_dcd_stm32_callback.c **** /*  FUNCTION                                               RELEASE        */
1001:../STM32Cube_FW_N6/Middlewares/ST/usbx/common/usbx_stm32_device_controllers/ux_dcd_stm32_callback.c **** /*                                                                        */
ARM GAS  /tmp/cc4jpTWk.s 			page 40


1002:../STM32Cube_FW_N6/Middlewares/ST/usbx/common/usbx_stm32_device_controllers/ux_dcd_stm32_callback.c **** /*    HAL_PCD_SOFCallback                                 PORTABLE C      */
1003:../STM32Cube_FW_N6/Middlewares/ST/usbx/common/usbx_stm32_device_controllers/ux_dcd_stm32_callback.c **** /*                                                           6.1.12       */
1004:../STM32Cube_FW_N6/Middlewares/ST/usbx/common/usbx_stm32_device_controllers/ux_dcd_stm32_callback.c **** /*  AUTHOR                                                                */
1005:../STM32Cube_FW_N6/Middlewares/ST/usbx/common/usbx_stm32_device_controllers/ux_dcd_stm32_callback.c **** /*                                                                        */
1006:../STM32Cube_FW_N6/Middlewares/ST/usbx/common/usbx_stm32_device_controllers/ux_dcd_stm32_callback.c **** /*    Chaoqiong Xiao, Microsoft Corporation                               */
1007:../STM32Cube_FW_N6/Middlewares/ST/usbx/common/usbx_stm32_device_controllers/ux_dcd_stm32_callback.c **** /*                                                                        */
1008:../STM32Cube_FW_N6/Middlewares/ST/usbx/common/usbx_stm32_device_controllers/ux_dcd_stm32_callback.c **** /*  DESCRIPTION                                                           */
1009:../STM32Cube_FW_N6/Middlewares/ST/usbx/common/usbx_stm32_device_controllers/ux_dcd_stm32_callback.c **** /*                                                                        */
1010:../STM32Cube_FW_N6/Middlewares/ST/usbx/common/usbx_stm32_device_controllers/ux_dcd_stm32_callback.c **** /*    This function handles callback from HAL driver.                     */
1011:../STM32Cube_FW_N6/Middlewares/ST/usbx/common/usbx_stm32_device_controllers/ux_dcd_stm32_callback.c **** /*                                                                        */
1012:../STM32Cube_FW_N6/Middlewares/ST/usbx/common/usbx_stm32_device_controllers/ux_dcd_stm32_callback.c **** /*  INPUT                                                                 */
1013:../STM32Cube_FW_N6/Middlewares/ST/usbx/common/usbx_stm32_device_controllers/ux_dcd_stm32_callback.c **** /*                                                                        */
1014:../STM32Cube_FW_N6/Middlewares/ST/usbx/common/usbx_stm32_device_controllers/ux_dcd_stm32_callback.c **** /*    hpcd                                  Pointer to PCD handle         */
1015:../STM32Cube_FW_N6/Middlewares/ST/usbx/common/usbx_stm32_device_controllers/ux_dcd_stm32_callback.c **** /*                                                                        */
1016:../STM32Cube_FW_N6/Middlewares/ST/usbx/common/usbx_stm32_device_controllers/ux_dcd_stm32_callback.c **** /*  OUTPUT                                                                */
1017:../STM32Cube_FW_N6/Middlewares/ST/usbx/common/usbx_stm32_device_controllers/ux_dcd_stm32_callback.c **** /*                                                                        */
1018:../STM32Cube_FW_N6/Middlewares/ST/usbx/common/usbx_stm32_device_controllers/ux_dcd_stm32_callback.c **** /*    None                                                                */
1019:../STM32Cube_FW_N6/Middlewares/ST/usbx/common/usbx_stm32_device_controllers/ux_dcd_stm32_callback.c **** /*                                                                        */
1020:../STM32Cube_FW_N6/Middlewares/ST/usbx/common/usbx_stm32_device_controllers/ux_dcd_stm32_callback.c **** /*  CALLS                                                                 */
1021:../STM32Cube_FW_N6/Middlewares/ST/usbx/common/usbx_stm32_device_controllers/ux_dcd_stm32_callback.c **** /*                                                                        */
1022:../STM32Cube_FW_N6/Middlewares/ST/usbx/common/usbx_stm32_device_controllers/ux_dcd_stm32_callback.c **** /*                                                                        */
1023:../STM32Cube_FW_N6/Middlewares/ST/usbx/common/usbx_stm32_device_controllers/ux_dcd_stm32_callback.c **** /*                                                                        */
1024:../STM32Cube_FW_N6/Middlewares/ST/usbx/common/usbx_stm32_device_controllers/ux_dcd_stm32_callback.c **** /*  CALLED BY                                                             */
1025:../STM32Cube_FW_N6/Middlewares/ST/usbx/common/usbx_stm32_device_controllers/ux_dcd_stm32_callback.c **** /*                                                                        */
1026:../STM32Cube_FW_N6/Middlewares/ST/usbx/common/usbx_stm32_device_controllers/ux_dcd_stm32_callback.c **** /*    STM32 HAL Driver                                                    */
1027:../STM32Cube_FW_N6/Middlewares/ST/usbx/common/usbx_stm32_device_controllers/ux_dcd_stm32_callback.c **** /*                                                                        */
1028:../STM32Cube_FW_N6/Middlewares/ST/usbx/common/usbx_stm32_device_controllers/ux_dcd_stm32_callback.c **** /*  RELEASE HISTORY                                                       */
1029:../STM32Cube_FW_N6/Middlewares/ST/usbx/common/usbx_stm32_device_controllers/ux_dcd_stm32_callback.c **** /*                                                                        */
1030:../STM32Cube_FW_N6/Middlewares/ST/usbx/common/usbx_stm32_device_controllers/ux_dcd_stm32_callback.c **** /*    DATE              NAME                      DESCRIPTION             */
1031:../STM32Cube_FW_N6/Middlewares/ST/usbx/common/usbx_stm32_device_controllers/ux_dcd_stm32_callback.c **** /*                                                                        */
1032:../STM32Cube_FW_N6/Middlewares/ST/usbx/common/usbx_stm32_device_controllers/ux_dcd_stm32_callback.c **** /*  07-29-2022     Chaoqiong Xiao           Modified comment(s),          */
1033:../STM32Cube_FW_N6/Middlewares/ST/usbx/common/usbx_stm32_device_controllers/ux_dcd_stm32_callback.c **** /*                                            resulting in version 6.1.12 */
1034:../STM32Cube_FW_N6/Middlewares/ST/usbx/common/usbx_stm32_device_controllers/ux_dcd_stm32_callback.c **** /*                                                                        */
1035:../STM32Cube_FW_N6/Middlewares/ST/usbx/common/usbx_stm32_device_controllers/ux_dcd_stm32_callback.c **** /**************************************************************************/
1036:../STM32Cube_FW_N6/Middlewares/ST/usbx/common/usbx_stm32_device_controllers/ux_dcd_stm32_callback.c **** void HAL_PCD_SOFCallback(PCD_HandleTypeDef *hpcd)
1037:../STM32Cube_FW_N6/Middlewares/ST/usbx/common/usbx_stm32_device_controllers/ux_dcd_stm32_callback.c **** {
 1056              		.loc 1 1037 1 is_stmt 1 view -0
 1057              		.cfi_startproc
 1058              		@ args = 0, pretend = 0, frame = 0
 1059              		@ frame_needed = 0, uses_anonymous_args = 0
 1060              		@ link register save eliminated.
1038:../STM32Cube_FW_N6/Middlewares/ST/usbx/common/usbx_stm32_device_controllers/ux_dcd_stm32_callback.c **** 
1039:../STM32Cube_FW_N6/Middlewares/ST/usbx/common/usbx_stm32_device_controllers/ux_dcd_stm32_callback.c ****     /* Check the status change callback.  */
1040:../STM32Cube_FW_N6/Middlewares/ST/usbx/common/usbx_stm32_device_controllers/ux_dcd_stm32_callback.c ****     if (_ux_system_slave -> ux_system_slave_change_function != UX_NULL)
 1061              		.loc 1 1040 5 view .LVU349
 1062              		.loc 1 1040 26 is_stmt 0 view .LVU350
 1063 0000 034B     		ldr	r3, .L85
 1064 0002 1B68     		ldr	r3, [r3]
 1065 0004 D3F86431 		ldr	r3, [r3, #356]
 1066              		.loc 1 1040 8 view .LVU351
 1067 0008 0BB1     		cbz	r3, .L83
1041:../STM32Cube_FW_N6/Middlewares/ST/usbx/common/usbx_stm32_device_controllers/ux_dcd_stm32_callback.c ****     {
1042:../STM32Cube_FW_N6/Middlewares/ST/usbx/common/usbx_stm32_device_controllers/ux_dcd_stm32_callback.c **** 
1043:../STM32Cube_FW_N6/Middlewares/ST/usbx/common/usbx_stm32_device_controllers/ux_dcd_stm32_callback.c ****        /* Inform the application if a callback function was programmed.  */
1044:../STM32Cube_FW_N6/Middlewares/ST/usbx/common/usbx_stm32_device_controllers/ux_dcd_stm32_callback.c ****         _ux_system_slave -> ux_system_slave_change_function(UX_DCD_STM32_SOF_RECEIVED);
 1068              		.loc 1 1044 9 is_stmt 1 view .LVU352
 1069 000a F020     		movs	r0, #240
ARM GAS  /tmp/cc4jpTWk.s 			page 41


 1070              	.LVL84:
 1071              		.loc 1 1044 9 is_stmt 0 view .LVU353
 1072 000c 1847     		bx	r3
 1073              	.LVL85:
 1074              	.L83:
1045:../STM32Cube_FW_N6/Middlewares/ST/usbx/common/usbx_stm32_device_controllers/ux_dcd_stm32_callback.c ****     }
1046:../STM32Cube_FW_N6/Middlewares/ST/usbx/common/usbx_stm32_device_controllers/ux_dcd_stm32_callback.c **** }
 1075              		.loc 1 1046 1 view .LVU354
 1076 000e 7047     		bx	lr
 1077              	.L86:
 1078              		.align	2
 1079              	.L85:
 1080 0010 00000000 		.word	_ux_system_slave
 1081              		.cfi_endproc
 1082              	.LFE897:
 1084              		.section	.text.HAL_PCD_ISOINIncompleteCallback,"ax",%progbits
 1085              		.align	1
 1086              		.global	HAL_PCD_ISOINIncompleteCallback
 1087              		.syntax unified
 1088              		.thumb
 1089              		.thumb_func
 1091              	HAL_PCD_ISOINIncompleteCallback:
 1092              	.LVL86:
 1093              	.LFB898:
1047:../STM32Cube_FW_N6/Middlewares/ST/usbx/common/usbx_stm32_device_controllers/ux_dcd_stm32_callback.c **** 
1048:../STM32Cube_FW_N6/Middlewares/ST/usbx/common/usbx_stm32_device_controllers/ux_dcd_stm32_callback.c **** 
1049:../STM32Cube_FW_N6/Middlewares/ST/usbx/common/usbx_stm32_device_controllers/ux_dcd_stm32_callback.c **** #if defined(USBD_HAL_ISOINCOMPLETE_CALLBACK)
1050:../STM32Cube_FW_N6/Middlewares/ST/usbx/common/usbx_stm32_device_controllers/ux_dcd_stm32_callback.c **** /**************************************************************************/
1051:../STM32Cube_FW_N6/Middlewares/ST/usbx/common/usbx_stm32_device_controllers/ux_dcd_stm32_callback.c **** /*                                                                        */
1052:../STM32Cube_FW_N6/Middlewares/ST/usbx/common/usbx_stm32_device_controllers/ux_dcd_stm32_callback.c **** /*  FUNCTION                                                RELEASE       */
1053:../STM32Cube_FW_N6/Middlewares/ST/usbx/common/usbx_stm32_device_controllers/ux_dcd_stm32_callback.c **** /*                                                                        */
1054:../STM32Cube_FW_N6/Middlewares/ST/usbx/common/usbx_stm32_device_controllers/ux_dcd_stm32_callback.c **** /*    HAL_PCD_ISOINIncompleteCallback                      PORTABLE C     */
1055:../STM32Cube_FW_N6/Middlewares/ST/usbx/common/usbx_stm32_device_controllers/ux_dcd_stm32_callback.c **** /*                                                            6.1.10      */
1056:../STM32Cube_FW_N6/Middlewares/ST/usbx/common/usbx_stm32_device_controllers/ux_dcd_stm32_callback.c **** /*  AUTHOR                                                                */
1057:../STM32Cube_FW_N6/Middlewares/ST/usbx/common/usbx_stm32_device_controllers/ux_dcd_stm32_callback.c **** /*                                                                        */
1058:../STM32Cube_FW_N6/Middlewares/ST/usbx/common/usbx_stm32_device_controllers/ux_dcd_stm32_callback.c **** /*    Chaoqiong Xiao, Microsoft Corporation                               */
1059:../STM32Cube_FW_N6/Middlewares/ST/usbx/common/usbx_stm32_device_controllers/ux_dcd_stm32_callback.c **** /*                                                                        */
1060:../STM32Cube_FW_N6/Middlewares/ST/usbx/common/usbx_stm32_device_controllers/ux_dcd_stm32_callback.c **** /*  DESCRIPTION                                                           */
1061:../STM32Cube_FW_N6/Middlewares/ST/usbx/common/usbx_stm32_device_controllers/ux_dcd_stm32_callback.c **** /*                                                                        */
1062:../STM32Cube_FW_N6/Middlewares/ST/usbx/common/usbx_stm32_device_controllers/ux_dcd_stm32_callback.c **** /*    This function handles callback from HAL driver.                     */
1063:../STM32Cube_FW_N6/Middlewares/ST/usbx/common/usbx_stm32_device_controllers/ux_dcd_stm32_callback.c **** /*                                                                        */
1064:../STM32Cube_FW_N6/Middlewares/ST/usbx/common/usbx_stm32_device_controllers/ux_dcd_stm32_callback.c **** /*  INPUT                                                                 */
1065:../STM32Cube_FW_N6/Middlewares/ST/usbx/common/usbx_stm32_device_controllers/ux_dcd_stm32_callback.c **** /*                                                                        */
1066:../STM32Cube_FW_N6/Middlewares/ST/usbx/common/usbx_stm32_device_controllers/ux_dcd_stm32_callback.c **** /*    hpcd                                  Pointer to PCD handle         */
1067:../STM32Cube_FW_N6/Middlewares/ST/usbx/common/usbx_stm32_device_controllers/ux_dcd_stm32_callback.c **** /*    epnum                                 Endpoint number               */
1068:../STM32Cube_FW_N6/Middlewares/ST/usbx/common/usbx_stm32_device_controllers/ux_dcd_stm32_callback.c **** /*                                                                        */
1069:../STM32Cube_FW_N6/Middlewares/ST/usbx/common/usbx_stm32_device_controllers/ux_dcd_stm32_callback.c **** /*  OUTPUT                                                                */
1070:../STM32Cube_FW_N6/Middlewares/ST/usbx/common/usbx_stm32_device_controllers/ux_dcd_stm32_callback.c **** /*                                                                        */
1071:../STM32Cube_FW_N6/Middlewares/ST/usbx/common/usbx_stm32_device_controllers/ux_dcd_stm32_callback.c **** /*    None                                                                */
1072:../STM32Cube_FW_N6/Middlewares/ST/usbx/common/usbx_stm32_device_controllers/ux_dcd_stm32_callback.c **** /*                                                                        */
1073:../STM32Cube_FW_N6/Middlewares/ST/usbx/common/usbx_stm32_device_controllers/ux_dcd_stm32_callback.c **** /*  CALLS                                                                 */
1074:../STM32Cube_FW_N6/Middlewares/ST/usbx/common/usbx_stm32_device_controllers/ux_dcd_stm32_callback.c **** /*                                                                        */
1075:../STM32Cube_FW_N6/Middlewares/ST/usbx/common/usbx_stm32_device_controllers/ux_dcd_stm32_callback.c **** /*    HAL_PCD_EP_Transmit                   Transmit data                 */
1076:../STM32Cube_FW_N6/Middlewares/ST/usbx/common/usbx_stm32_device_controllers/ux_dcd_stm32_callback.c **** /*                                                                        */
1077:../STM32Cube_FW_N6/Middlewares/ST/usbx/common/usbx_stm32_device_controllers/ux_dcd_stm32_callback.c **** /*  CALLED BY                                                             */
1078:../STM32Cube_FW_N6/Middlewares/ST/usbx/common/usbx_stm32_device_controllers/ux_dcd_stm32_callback.c **** /*                                                                        */
1079:../STM32Cube_FW_N6/Middlewares/ST/usbx/common/usbx_stm32_device_controllers/ux_dcd_stm32_callback.c **** /*    STM32 HAL Driver                                                    */
ARM GAS  /tmp/cc4jpTWk.s 			page 42


1080:../STM32Cube_FW_N6/Middlewares/ST/usbx/common/usbx_stm32_device_controllers/ux_dcd_stm32_callback.c **** /*                                                                        */
1081:../STM32Cube_FW_N6/Middlewares/ST/usbx/common/usbx_stm32_device_controllers/ux_dcd_stm32_callback.c **** /*  RELEASE HISTORY                                                       */
1082:../STM32Cube_FW_N6/Middlewares/ST/usbx/common/usbx_stm32_device_controllers/ux_dcd_stm32_callback.c **** /*                                                                        */
1083:../STM32Cube_FW_N6/Middlewares/ST/usbx/common/usbx_stm32_device_controllers/ux_dcd_stm32_callback.c **** /*    DATE              NAME                      DESCRIPTION             */
1084:../STM32Cube_FW_N6/Middlewares/ST/usbx/common/usbx_stm32_device_controllers/ux_dcd_stm32_callback.c **** /*                                                                        */
1085:../STM32Cube_FW_N6/Middlewares/ST/usbx/common/usbx_stm32_device_controllers/ux_dcd_stm32_callback.c **** /*  01-31-2022     Chaoqiong Xiao           Initial Version 6.1.10        */
1086:../STM32Cube_FW_N6/Middlewares/ST/usbx/common/usbx_stm32_device_controllers/ux_dcd_stm32_callback.c **** /*                                                                        */
1087:../STM32Cube_FW_N6/Middlewares/ST/usbx/common/usbx_stm32_device_controllers/ux_dcd_stm32_callback.c **** /**************************************************************************/
1088:../STM32Cube_FW_N6/Middlewares/ST/usbx/common/usbx_stm32_device_controllers/ux_dcd_stm32_callback.c **** void HAL_PCD_ISOINIncompleteCallback(PCD_HandleTypeDef *hpcd, uint8_t epnum)
1089:../STM32Cube_FW_N6/Middlewares/ST/usbx/common/usbx_stm32_device_controllers/ux_dcd_stm32_callback.c **** {
 1094              		.loc 1 1089 1 is_stmt 1 view -0
 1095              		.cfi_startproc
 1096              		@ args = 0, pretend = 0, frame = 0
 1097              		@ frame_needed = 0, uses_anonymous_args = 0
 1098              		@ link register save eliminated.
1090:../STM32Cube_FW_N6/Middlewares/ST/usbx/common/usbx_stm32_device_controllers/ux_dcd_stm32_callback.c **** UX_SLAVE_DCD            *dcd;
 1099              		.loc 1 1090 1 view .LVU356
1091:../STM32Cube_FW_N6/Middlewares/ST/usbx/common/usbx_stm32_device_controllers/ux_dcd_stm32_callback.c **** UX_DCD_STM32            *dcd_stm32;
 1100              		.loc 1 1091 1 view .LVU357
1092:../STM32Cube_FW_N6/Middlewares/ST/usbx/common/usbx_stm32_device_controllers/ux_dcd_stm32_callback.c **** UX_DCD_STM32_ED         *ed;
 1101              		.loc 1 1092 1 view .LVU358
1093:../STM32Cube_FW_N6/Middlewares/ST/usbx/common/usbx_stm32_device_controllers/ux_dcd_stm32_callback.c **** UX_SLAVE_ENDPOINT       *endpoint;
 1102              		.loc 1 1093 1 view .LVU359
1094:../STM32Cube_FW_N6/Middlewares/ST/usbx/common/usbx_stm32_device_controllers/ux_dcd_stm32_callback.c **** 
1095:../STM32Cube_FW_N6/Middlewares/ST/usbx/common/usbx_stm32_device_controllers/ux_dcd_stm32_callback.c ****     UX_PARAMETER_NOT_USED(epnum);
 1103              		.loc 1 1095 5 view .LVU360
1096:../STM32Cube_FW_N6/Middlewares/ST/usbx/common/usbx_stm32_device_controllers/ux_dcd_stm32_callback.c **** 
1097:../STM32Cube_FW_N6/Middlewares/ST/usbx/common/usbx_stm32_device_controllers/ux_dcd_stm32_callback.c ****     /* Get the pointer to the DCD.  */
1098:../STM32Cube_FW_N6/Middlewares/ST/usbx/common/usbx_stm32_device_controllers/ux_dcd_stm32_callback.c ****     dcd =  &_ux_system_slave -> ux_system_slave_dcd;
 1104              		.loc 1 1098 5 view .LVU361
1099:../STM32Cube_FW_N6/Middlewares/ST/usbx/common/usbx_stm32_device_controllers/ux_dcd_stm32_callback.c **** 
