ARM GAS  /tmp/ccc3HROU.s 			page 1


   1              		.arch armv8.1-m.main
   2              		.fpu fpv5-d16
   3              		.arch_extension dsp
   4              		.arch_extension fp
   5              		.arch_extension fp.dp
   6              		.arch_extension mve
   7              		.arch_extension mve.fp
   8              		.eabi_attribute 5, "cortex-m55"
   9              		.eabi_attribute 28, 1
  10              		.eabi_attribute 20, 1
  11              		.eabi_attribute 21, 1
  12              		.eabi_attribute 23, 3
  13              		.eabi_attribute 24, 1
  14              		.eabi_attribute 25, 1
  15              		.eabi_attribute 26, 1
  16              		.eabi_attribute 30, 4
  17              		.eabi_attribute 34, 1
  18              		.eabi_attribute 38, 1
  19              		.eabi_attribute 18, 4
  20              		.file	"ux_device_stack_configuration_set.c"
  21              		.text
  22              	.Ltext0:
  23              		.cfi_sections	.debug_frame
  24              		.file 1 "../STM32Cube_FW_N6/Middlewares/ST/usbx/common/core/src/ux_device_stack_configuration_set.
  25              		.section	.text._ux_device_stack_configuration_set,"ax",%progbits
  26              		.align	1
  27              		.global	_ux_device_stack_configuration_set
  28              		.syntax unified
  29              		.thumb
  30              		.thumb_func
  32              	_ux_device_stack_configuration_set:
  33              	.LVL0:
  34              	.LFB3:
   1:../STM32Cube_FW_N6/Middlewares/ST/usbx/common/core/src/ux_device_stack_configuration_set.c **** /**************************************************************************/
   2:../STM32Cube_FW_N6/Middlewares/ST/usbx/common/core/src/ux_device_stack_configuration_set.c **** /*                                                                        */
   3:../STM32Cube_FW_N6/Middlewares/ST/usbx/common/core/src/ux_device_stack_configuration_set.c **** /*       Copyright (c) Microsoft Corporation. All rights reserved.        */
   4:../STM32Cube_FW_N6/Middlewares/ST/usbx/common/core/src/ux_device_stack_configuration_set.c **** /*                                                                        */
   5:../STM32Cube_FW_N6/Middlewares/ST/usbx/common/core/src/ux_device_stack_configuration_set.c **** /*       This software is licensed under the Microsoft Software License   */
   6:../STM32Cube_FW_N6/Middlewares/ST/usbx/common/core/src/ux_device_stack_configuration_set.c **** /*       Terms for Microsoft Azure RTOS. Full text of the license can be  */
   7:../STM32Cube_FW_N6/Middlewares/ST/usbx/common/core/src/ux_device_stack_configuration_set.c **** /*       found in the LICENSE file at https://aka.ms/AzureRTOS_EULA       */
   8:../STM32Cube_FW_N6/Middlewares/ST/usbx/common/core/src/ux_device_stack_configuration_set.c **** /*       and in the root directory of this software.                      */
   9:../STM32Cube_FW_N6/Middlewares/ST/usbx/common/core/src/ux_device_stack_configuration_set.c **** /*                                                                        */
  10:../STM32Cube_FW_N6/Middlewares/ST/usbx/common/core/src/ux_device_stack_configuration_set.c **** /**************************************************************************/
  11:../STM32Cube_FW_N6/Middlewares/ST/usbx/common/core/src/ux_device_stack_configuration_set.c **** 
  12:../STM32Cube_FW_N6/Middlewares/ST/usbx/common/core/src/ux_device_stack_configuration_set.c **** 
  13:../STM32Cube_FW_N6/Middlewares/ST/usbx/common/core/src/ux_device_stack_configuration_set.c **** /**************************************************************************/
  14:../STM32Cube_FW_N6/Middlewares/ST/usbx/common/core/src/ux_device_stack_configuration_set.c **** /**************************************************************************/
  15:../STM32Cube_FW_N6/Middlewares/ST/usbx/common/core/src/ux_device_stack_configuration_set.c **** /**                                                                       */ 
  16:../STM32Cube_FW_N6/Middlewares/ST/usbx/common/core/src/ux_device_stack_configuration_set.c **** /** USBX Component                                                        */ 
  17:../STM32Cube_FW_N6/Middlewares/ST/usbx/common/core/src/ux_device_stack_configuration_set.c **** /**                                                                       */
  18:../STM32Cube_FW_N6/Middlewares/ST/usbx/common/core/src/ux_device_stack_configuration_set.c **** /**   Device Stack                                                        */
  19:../STM32Cube_FW_N6/Middlewares/ST/usbx/common/core/src/ux_device_stack_configuration_set.c **** /**                                                                       */
  20:../STM32Cube_FW_N6/Middlewares/ST/usbx/common/core/src/ux_device_stack_configuration_set.c **** /**************************************************************************/
  21:../STM32Cube_FW_N6/Middlewares/ST/usbx/common/core/src/ux_device_stack_configuration_set.c **** /**************************************************************************/
  22:../STM32Cube_FW_N6/Middlewares/ST/usbx/common/core/src/ux_device_stack_configuration_set.c **** 
  23:../STM32Cube_FW_N6/Middlewares/ST/usbx/common/core/src/ux_device_stack_configuration_set.c **** #define UX_SOURCE_CODE
  24:../STM32Cube_FW_N6/Middlewares/ST/usbx/common/core/src/ux_device_stack_configuration_set.c **** 
ARM GAS  /tmp/ccc3HROU.s 			page 2


  25:../STM32Cube_FW_N6/Middlewares/ST/usbx/common/core/src/ux_device_stack_configuration_set.c **** 
  26:../STM32Cube_FW_N6/Middlewares/ST/usbx/common/core/src/ux_device_stack_configuration_set.c **** /* Include necessary system files.  */
  27:../STM32Cube_FW_N6/Middlewares/ST/usbx/common/core/src/ux_device_stack_configuration_set.c **** 
  28:../STM32Cube_FW_N6/Middlewares/ST/usbx/common/core/src/ux_device_stack_configuration_set.c **** #include "ux_api.h"
  29:../STM32Cube_FW_N6/Middlewares/ST/usbx/common/core/src/ux_device_stack_configuration_set.c **** #include "ux_device_stack.h"
  30:../STM32Cube_FW_N6/Middlewares/ST/usbx/common/core/src/ux_device_stack_configuration_set.c **** 
  31:../STM32Cube_FW_N6/Middlewares/ST/usbx/common/core/src/ux_device_stack_configuration_set.c **** 
  32:../STM32Cube_FW_N6/Middlewares/ST/usbx/common/core/src/ux_device_stack_configuration_set.c **** /**************************************************************************/
  33:../STM32Cube_FW_N6/Middlewares/ST/usbx/common/core/src/ux_device_stack_configuration_set.c **** /*                                                                        */
  34:../STM32Cube_FW_N6/Middlewares/ST/usbx/common/core/src/ux_device_stack_configuration_set.c **** /*  FUNCTION                                               RELEASE        */
  35:../STM32Cube_FW_N6/Middlewares/ST/usbx/common/core/src/ux_device_stack_configuration_set.c **** /*                                                                        */
  36:../STM32Cube_FW_N6/Middlewares/ST/usbx/common/core/src/ux_device_stack_configuration_set.c **** /*    _ux_device_stack_configuration_set                  PORTABLE C      */
  37:../STM32Cube_FW_N6/Middlewares/ST/usbx/common/core/src/ux_device_stack_configuration_set.c **** /*                                                           6.1.12       */
  38:../STM32Cube_FW_N6/Middlewares/ST/usbx/common/core/src/ux_device_stack_configuration_set.c **** /*  AUTHOR                                                                */
  39:../STM32Cube_FW_N6/Middlewares/ST/usbx/common/core/src/ux_device_stack_configuration_set.c **** /*                                                                        */
  40:../STM32Cube_FW_N6/Middlewares/ST/usbx/common/core/src/ux_device_stack_configuration_set.c **** /*    Chaoqiong Xiao, Microsoft Corporation                               */
  41:../STM32Cube_FW_N6/Middlewares/ST/usbx/common/core/src/ux_device_stack_configuration_set.c **** /*                                                                        */
  42:../STM32Cube_FW_N6/Middlewares/ST/usbx/common/core/src/ux_device_stack_configuration_set.c **** /*  DESCRIPTION                                                           */
  43:../STM32Cube_FW_N6/Middlewares/ST/usbx/common/core/src/ux_device_stack_configuration_set.c **** /*                                                                        */
  44:../STM32Cube_FW_N6/Middlewares/ST/usbx/common/core/src/ux_device_stack_configuration_set.c **** /*    This function sets the configuration from the host and will enable  */
  45:../STM32Cube_FW_N6/Middlewares/ST/usbx/common/core/src/ux_device_stack_configuration_set.c **** /*    the default alternate setting 0 for all the interfaces attached to  */
  46:../STM32Cube_FW_N6/Middlewares/ST/usbx/common/core/src/ux_device_stack_configuration_set.c **** /*    this configuration.                                                 */
  47:../STM32Cube_FW_N6/Middlewares/ST/usbx/common/core/src/ux_device_stack_configuration_set.c **** /*                                                                        */
  48:../STM32Cube_FW_N6/Middlewares/ST/usbx/common/core/src/ux_device_stack_configuration_set.c **** /*  INPUT                                                                 */
  49:../STM32Cube_FW_N6/Middlewares/ST/usbx/common/core/src/ux_device_stack_configuration_set.c **** /*                                                                        */
  50:../STM32Cube_FW_N6/Middlewares/ST/usbx/common/core/src/ux_device_stack_configuration_set.c **** /*    endpoint                              Pointer to endpoint           */
  51:../STM32Cube_FW_N6/Middlewares/ST/usbx/common/core/src/ux_device_stack_configuration_set.c **** /*    configuration_value                   Configuration selected        */
  52:../STM32Cube_FW_N6/Middlewares/ST/usbx/common/core/src/ux_device_stack_configuration_set.c **** /*                                                                        */
  53:../STM32Cube_FW_N6/Middlewares/ST/usbx/common/core/src/ux_device_stack_configuration_set.c **** /*  OUTPUT                                                                */
  54:../STM32Cube_FW_N6/Middlewares/ST/usbx/common/core/src/ux_device_stack_configuration_set.c **** /*                                                                        */
  55:../STM32Cube_FW_N6/Middlewares/ST/usbx/common/core/src/ux_device_stack_configuration_set.c **** /*    Completion Status                                                   */ 
  56:../STM32Cube_FW_N6/Middlewares/ST/usbx/common/core/src/ux_device_stack_configuration_set.c **** /*                                                                        */
  57:../STM32Cube_FW_N6/Middlewares/ST/usbx/common/core/src/ux_device_stack_configuration_set.c **** /*  CALLS                                                                 */ 
  58:../STM32Cube_FW_N6/Middlewares/ST/usbx/common/core/src/ux_device_stack_configuration_set.c **** /*                                                                        */
  59:../STM32Cube_FW_N6/Middlewares/ST/usbx/common/core/src/ux_device_stack_configuration_set.c **** /*    (ux_slave_class_entry_function)       Device class entry function   */ 
  60:../STM32Cube_FW_N6/Middlewares/ST/usbx/common/core/src/ux_device_stack_configuration_set.c **** /*    (ux_slave_dcd_function)               DCD dispatch function         */ 
  61:../STM32Cube_FW_N6/Middlewares/ST/usbx/common/core/src/ux_device_stack_configuration_set.c **** /*    _ux_device_stack_interface_delete     Delete interface              */
  62:../STM32Cube_FW_N6/Middlewares/ST/usbx/common/core/src/ux_device_stack_configuration_set.c **** /*    _ux_device_stack_interface_set        Set interface                 */ 
  63:../STM32Cube_FW_N6/Middlewares/ST/usbx/common/core/src/ux_device_stack_configuration_set.c **** /*    _ux_utility_descriptor_parse          Parse descriptor              */ 
  64:../STM32Cube_FW_N6/Middlewares/ST/usbx/common/core/src/ux_device_stack_configuration_set.c **** /*                                                                        */ 
  65:../STM32Cube_FW_N6/Middlewares/ST/usbx/common/core/src/ux_device_stack_configuration_set.c **** /*  CALLED BY                                                             */ 
  66:../STM32Cube_FW_N6/Middlewares/ST/usbx/common/core/src/ux_device_stack_configuration_set.c **** /*                                                                        */ 
  67:../STM32Cube_FW_N6/Middlewares/ST/usbx/common/core/src/ux_device_stack_configuration_set.c **** /*    Application                                                         */ 
  68:../STM32Cube_FW_N6/Middlewares/ST/usbx/common/core/src/ux_device_stack_configuration_set.c **** /*    Device Stack                                                        */
  69:../STM32Cube_FW_N6/Middlewares/ST/usbx/common/core/src/ux_device_stack_configuration_set.c **** /*                                                                        */ 
  70:../STM32Cube_FW_N6/Middlewares/ST/usbx/common/core/src/ux_device_stack_configuration_set.c **** /*  RELEASE HISTORY                                                       */ 
  71:../STM32Cube_FW_N6/Middlewares/ST/usbx/common/core/src/ux_device_stack_configuration_set.c **** /*                                                                        */ 
  72:../STM32Cube_FW_N6/Middlewares/ST/usbx/common/core/src/ux_device_stack_configuration_set.c **** /*    DATE              NAME                      DESCRIPTION             */ 
  73:../STM32Cube_FW_N6/Middlewares/ST/usbx/common/core/src/ux_device_stack_configuration_set.c **** /*                                                                        */ 
  74:../STM32Cube_FW_N6/Middlewares/ST/usbx/common/core/src/ux_device_stack_configuration_set.c **** /*  05-19-2020     Chaoqiong Xiao           Initial Version 6.0           */
  75:../STM32Cube_FW_N6/Middlewares/ST/usbx/common/core/src/ux_device_stack_configuration_set.c **** /*  09-30-2020     Chaoqiong Xiao           Modified comment(s),          */
  76:../STM32Cube_FW_N6/Middlewares/ST/usbx/common/core/src/ux_device_stack_configuration_set.c **** /*                                            optimized based on compile  */
  77:../STM32Cube_FW_N6/Middlewares/ST/usbx/common/core/src/ux_device_stack_configuration_set.c **** /*                                            definitions,                */
  78:../STM32Cube_FW_N6/Middlewares/ST/usbx/common/core/src/ux_device_stack_configuration_set.c **** /*                                            resulting in version 6.1    */
  79:../STM32Cube_FW_N6/Middlewares/ST/usbx/common/core/src/ux_device_stack_configuration_set.c **** /*  07-29-2022     Chaoqiong Xiao           Modified comment(s),          */
  80:../STM32Cube_FW_N6/Middlewares/ST/usbx/common/core/src/ux_device_stack_configuration_set.c **** /*                                            fixed parameter/variable    */
  81:../STM32Cube_FW_N6/Middlewares/ST/usbx/common/core/src/ux_device_stack_configuration_set.c **** /*                                            names conflict C++ keyword, */
ARM GAS  /tmp/ccc3HROU.s 			page 3


  82:../STM32Cube_FW_N6/Middlewares/ST/usbx/common/core/src/ux_device_stack_configuration_set.c **** /*                                            resulting in version 6.1.12 */
  83:../STM32Cube_FW_N6/Middlewares/ST/usbx/common/core/src/ux_device_stack_configuration_set.c **** /*                                                                        */
  84:../STM32Cube_FW_N6/Middlewares/ST/usbx/common/core/src/ux_device_stack_configuration_set.c **** /**************************************************************************/
  85:../STM32Cube_FW_N6/Middlewares/ST/usbx/common/core/src/ux_device_stack_configuration_set.c **** UINT  _ux_device_stack_configuration_set(ULONG configuration_value)
  86:../STM32Cube_FW_N6/Middlewares/ST/usbx/common/core/src/ux_device_stack_configuration_set.c **** {
  35              		.loc 1 86 1 view -0
  36              		.cfi_startproc
  37              		@ args = 0, pretend = 0, frame = 80
  38              		@ frame_needed = 0, uses_anonymous_args = 0
  87:../STM32Cube_FW_N6/Middlewares/ST/usbx/common/core/src/ux_device_stack_configuration_set.c **** 
  88:../STM32Cube_FW_N6/Middlewares/ST/usbx/common/core/src/ux_device_stack_configuration_set.c **** UX_SLAVE_DCD                    *dcd;
  39              		.loc 1 88 1 view .LVU1
  89:../STM32Cube_FW_N6/Middlewares/ST/usbx/common/core/src/ux_device_stack_configuration_set.c **** UCHAR *                         device_framework;
  40              		.loc 1 89 1 view .LVU2
  90:../STM32Cube_FW_N6/Middlewares/ST/usbx/common/core/src/ux_device_stack_configuration_set.c **** ULONG                           device_framework_length;
  41              		.loc 1 90 1 view .LVU3
  91:../STM32Cube_FW_N6/Middlewares/ST/usbx/common/core/src/ux_device_stack_configuration_set.c **** ULONG                           descriptor_length;
  42              		.loc 1 91 1 view .LVU4
  92:../STM32Cube_FW_N6/Middlewares/ST/usbx/common/core/src/ux_device_stack_configuration_set.c **** UCHAR                           descriptor_type;
  43              		.loc 1 92 1 view .LVU5
  93:../STM32Cube_FW_N6/Middlewares/ST/usbx/common/core/src/ux_device_stack_configuration_set.c **** UX_CONFIGURATION_DESCRIPTOR     configuration_descriptor = { 0 };
  44              		.loc 1 93 1 view .LVU6
  45              		.loc 1 93 33 is_stmt 0 view .LVU7
  46 0000 0023     		movs	r3, #0
  86:../STM32Cube_FW_N6/Middlewares/ST/usbx/common/core/src/ux_device_stack_configuration_set.c **** 
  47              		.loc 1 86 1 view .LVU8
  48 0002 2DE9F04F 		push	{r4, r5, r6, r7, r8, r9, r10, fp, lr}
  49              		.cfi_def_cfa_offset 36
  50              		.cfi_offset 4, -36
  51              		.cfi_offset 5, -32
  52              		.cfi_offset 6, -28
  53              		.cfi_offset 7, -24
  54              		.cfi_offset 8, -20
  55              		.cfi_offset 9, -16
  56              		.cfi_offset 10, -12
  57              		.cfi_offset 11, -8
  58              		.cfi_offset 14, -4
  94:../STM32Cube_FW_N6/Middlewares/ST/usbx/common/core/src/ux_device_stack_configuration_set.c **** UX_INTERFACE_DESCRIPTOR         interface_descriptor;
  95:../STM32Cube_FW_N6/Middlewares/ST/usbx/common/core/src/ux_device_stack_configuration_set.c **** UX_SLAVE_INTERFACE              *interface_ptr; 
  96:../STM32Cube_FW_N6/Middlewares/ST/usbx/common/core/src/ux_device_stack_configuration_set.c **** #if !defined(UX_DEVICE_INITIALIZE_FRAMEWORK_SCAN_DISABLE) || UX_MAX_DEVICE_INTERFACES > 1
  97:../STM32Cube_FW_N6/Middlewares/ST/usbx/common/core/src/ux_device_stack_configuration_set.c **** UX_SLAVE_INTERFACE              *next_interface; 
  98:../STM32Cube_FW_N6/Middlewares/ST/usbx/common/core/src/ux_device_stack_configuration_set.c **** #endif
  99:../STM32Cube_FW_N6/Middlewares/ST/usbx/common/core/src/ux_device_stack_configuration_set.c **** UX_SLAVE_CLASS                  *class_inst;
 100:../STM32Cube_FW_N6/Middlewares/ST/usbx/common/core/src/ux_device_stack_configuration_set.c **** UX_SLAVE_CLASS                  *current_class =  UX_NULL;
 101:../STM32Cube_FW_N6/Middlewares/ST/usbx/common/core/src/ux_device_stack_configuration_set.c **** UX_SLAVE_CLASS_COMMAND          class_command;
 102:../STM32Cube_FW_N6/Middlewares/ST/usbx/common/core/src/ux_device_stack_configuration_set.c **** UX_SLAVE_DEVICE                 *device;
 103:../STM32Cube_FW_N6/Middlewares/ST/usbx/common/core/src/ux_device_stack_configuration_set.c **** ULONG                           iad_flag;
 104:../STM32Cube_FW_N6/Middlewares/ST/usbx/common/core/src/ux_device_stack_configuration_set.c **** ULONG                           iad_first_interface =  0;
 105:../STM32Cube_FW_N6/Middlewares/ST/usbx/common/core/src/ux_device_stack_configuration_set.c **** ULONG                           iad_number_interfaces =  0;
 106:../STM32Cube_FW_N6/Middlewares/ST/usbx/common/core/src/ux_device_stack_configuration_set.c **** #if UX_MAX_SLAVE_CLASS_DRIVER > 1
 107:../STM32Cube_FW_N6/Middlewares/ST/usbx/common/core/src/ux_device_stack_configuration_set.c **** ULONG                           class_index;
 108:../STM32Cube_FW_N6/Middlewares/ST/usbx/common/core/src/ux_device_stack_configuration_set.c **** #endif
 109:../STM32Cube_FW_N6/Middlewares/ST/usbx/common/core/src/ux_device_stack_configuration_set.c **** 
 110:../STM32Cube_FW_N6/Middlewares/ST/usbx/common/core/src/ux_device_stack_configuration_set.c **** 
 111:../STM32Cube_FW_N6/Middlewares/ST/usbx/common/core/src/ux_device_stack_configuration_set.c ****     /* If trace is enabled, insert this event into the trace buffer.  */
 112:../STM32Cube_FW_N6/Middlewares/ST/usbx/common/core/src/ux_device_stack_configuration_set.c ****     UX_TRACE_IN_LINE_INSERT(UX_TRACE_DEVICE_STACK_CONFIGURATION_SET, configuration_value, 0, 0, 0, 
 113:../STM32Cube_FW_N6/Middlewares/ST/usbx/common/core/src/ux_device_stack_configuration_set.c **** 
ARM GAS  /tmp/ccc3HROU.s 			page 4


 114:../STM32Cube_FW_N6/Middlewares/ST/usbx/common/core/src/ux_device_stack_configuration_set.c ****     /* Get the pointer to the DCD.  */
 115:../STM32Cube_FW_N6/Middlewares/ST/usbx/common/core/src/ux_device_stack_configuration_set.c ****     dcd =  &_ux_system_slave -> ux_system_slave_dcd;
  59              		.loc 1 115 30 view .LVU9
  60 0006 DFF89CB1 		ldr	fp, .L40+8
  86:../STM32Cube_FW_N6/Middlewares/ST/usbx/common/core/src/ux_device_stack_configuration_set.c **** 
  61              		.loc 1 86 1 view .LVU10
  62 000a 95B0     		sub	sp, sp, #84
  63              		.cfi_def_cfa_offset 120
  64              		.loc 1 115 30 view .LVU11
  65 000c DBF80040 		ldr	r4, [fp]
  93:../STM32Cube_FW_N6/Middlewares/ST/usbx/common/core/src/ux_device_stack_configuration_set.c **** UX_INTERFACE_DESCRIPTOR         interface_descriptor;
  66              		.loc 1 93 33 view .LVU12
  67 0010 CDE90333 		strd	r3, r3, [sp, #12]
  68 0014 0593     		str	r3, [sp, #20]
  94:../STM32Cube_FW_N6/Middlewares/ST/usbx/common/core/src/ux_device_stack_configuration_set.c **** UX_INTERFACE_DESCRIPTOR         interface_descriptor;
  69              		.loc 1 94 1 is_stmt 1 view .LVU13
  95:../STM32Cube_FW_N6/Middlewares/ST/usbx/common/core/src/ux_device_stack_configuration_set.c **** #if !defined(UX_DEVICE_INITIALIZE_FRAMEWORK_SCAN_DISABLE) || UX_MAX_DEVICE_INTERFACES > 1
  70              		.loc 1 95 1 view .LVU14
  97:../STM32Cube_FW_N6/Middlewares/ST/usbx/common/core/src/ux_device_stack_configuration_set.c **** #endif
  71              		.loc 1 97 1 view .LVU15
  99:../STM32Cube_FW_N6/Middlewares/ST/usbx/common/core/src/ux_device_stack_configuration_set.c **** UX_SLAVE_CLASS                  *current_class =  UX_NULL;
  72              		.loc 1 99 1 view .LVU16
 100:../STM32Cube_FW_N6/Middlewares/ST/usbx/common/core/src/ux_device_stack_configuration_set.c **** UX_SLAVE_CLASS_COMMAND          class_command;
  73              		.loc 1 100 1 view .LVU17
  74              	.LVL1:
 101:../STM32Cube_FW_N6/Middlewares/ST/usbx/common/core/src/ux_device_stack_configuration_set.c **** UX_SLAVE_DEVICE                 *device;
  75              		.loc 1 101 1 view .LVU18
 102:../STM32Cube_FW_N6/Middlewares/ST/usbx/common/core/src/ux_device_stack_configuration_set.c **** ULONG                           iad_flag;
  76              		.loc 1 102 1 view .LVU19
 103:../STM32Cube_FW_N6/Middlewares/ST/usbx/common/core/src/ux_device_stack_configuration_set.c **** ULONG                           iad_first_interface =  0;
  77              		.loc 1 103 1 view .LVU20
 104:../STM32Cube_FW_N6/Middlewares/ST/usbx/common/core/src/ux_device_stack_configuration_set.c **** ULONG                           iad_number_interfaces =  0;
  78              		.loc 1 104 1 view .LVU21
 105:../STM32Cube_FW_N6/Middlewares/ST/usbx/common/core/src/ux_device_stack_configuration_set.c **** #if UX_MAX_SLAVE_CLASS_DRIVER > 1
  79              		.loc 1 105 1 view .LVU22
  80              		.loc 1 115 5 view .LVU23
 116:../STM32Cube_FW_N6/Middlewares/ST/usbx/common/core/src/ux_device_stack_configuration_set.c **** 
 117:../STM32Cube_FW_N6/Middlewares/ST/usbx/common/core/src/ux_device_stack_configuration_set.c ****     /* Get the pointer to the device.  */
 118:../STM32Cube_FW_N6/Middlewares/ST/usbx/common/core/src/ux_device_stack_configuration_set.c ****     device =  &_ux_system_slave -> ux_system_slave_device;
  81              		.loc 1 118 5 view .LVU24
 119:../STM32Cube_FW_N6/Middlewares/ST/usbx/common/core/src/ux_device_stack_configuration_set.c ****     
 120:../STM32Cube_FW_N6/Middlewares/ST/usbx/common/core/src/ux_device_stack_configuration_set.c ****     /* Reset the IAD flag.  */
 121:../STM32Cube_FW_N6/Middlewares/ST/usbx/common/core/src/ux_device_stack_configuration_set.c ****     iad_flag =  UX_FALSE;
  82              		.loc 1 121 5 view .LVU25
 122:../STM32Cube_FW_N6/Middlewares/ST/usbx/common/core/src/ux_device_stack_configuration_set.c **** 
 123:../STM32Cube_FW_N6/Middlewares/ST/usbx/common/core/src/ux_device_stack_configuration_set.c ****     /* If the configuration value is already selected, keep it.  */
 124:../STM32Cube_FW_N6/Middlewares/ST/usbx/common/core/src/ux_device_stack_configuration_set.c ****     if (device -> ux_slave_device_configuration_selected == configuration_value)
  83              		.loc 1 124 5 view .LVU26
  84              		.loc 1 124 8 is_stmt 0 view .LVU27
  85 0016 D4F8A430 		ldr	r3, [r4, #164]
  86:../STM32Cube_FW_N6/Middlewares/ST/usbx/common/core/src/ux_device_stack_configuration_set.c **** 
  86              		.loc 1 86 1 view .LVU28
  87 001a 0746     		mov	r7, r0
  88              		.loc 1 124 8 view .LVU29
  89 001c 8342     		cmp	r3, r0
  90 001e 4CD0     		beq	.L3
 125:../STM32Cube_FW_N6/Middlewares/ST/usbx/common/core/src/ux_device_stack_configuration_set.c ****         return(UX_SUCCESS);
ARM GAS  /tmp/ccc3HROU.s 			page 5


 126:../STM32Cube_FW_N6/Middlewares/ST/usbx/common/core/src/ux_device_stack_configuration_set.c **** 
 127:../STM32Cube_FW_N6/Middlewares/ST/usbx/common/core/src/ux_device_stack_configuration_set.c ****     /* We may have multiple configurations !, the index will tell us what
 128:../STM32Cube_FW_N6/Middlewares/ST/usbx/common/core/src/ux_device_stack_configuration_set.c ****        configuration descriptor we need to return.  */
 129:../STM32Cube_FW_N6/Middlewares/ST/usbx/common/core/src/ux_device_stack_configuration_set.c ****     device_framework = _ux_system_slave -> ux_system_slave_device_framework;
  91              		.loc 1 129 5 is_stmt 1 view .LVU30
 130:../STM32Cube_FW_N6/Middlewares/ST/usbx/common/core/src/ux_device_stack_configuration_set.c ****     device_framework_length =  _ux_system_slave -> ux_system_slave_device_framework_length;
  92              		.loc 1 130 29 is_stmt 0 view .LVU31
  93 0020 D4E93356 		ldrd	r5, r6, [r4, #204]
  94              	.LVL2:
 131:../STM32Cube_FW_N6/Middlewares/ST/usbx/common/core/src/ux_device_stack_configuration_set.c **** 
 132:../STM32Cube_FW_N6/Middlewares/ST/usbx/common/core/src/ux_device_stack_configuration_set.c ****     /* Parse the device framework and locate a configuration descriptor.  */
 133:../STM32Cube_FW_N6/Middlewares/ST/usbx/common/core/src/ux_device_stack_configuration_set.c ****     while (device_framework_length != 0)
  95              		.loc 1 133 5 is_stmt 1 view .LVU32
  96              	.L4:
  97              		.loc 1 133 36 view .LVU33
  98 0024 16B9     		cbnz	r6, .L8
 134:../STM32Cube_FW_N6/Middlewares/ST/usbx/common/core/src/ux_device_stack_configuration_set.c ****     {
 135:../STM32Cube_FW_N6/Middlewares/ST/usbx/common/core/src/ux_device_stack_configuration_set.c ****         /* Get the length of the current descriptor.  */
 136:../STM32Cube_FW_N6/Middlewares/ST/usbx/common/core/src/ux_device_stack_configuration_set.c ****         descriptor_length =  (ULONG) *device_framework;
 137:../STM32Cube_FW_N6/Middlewares/ST/usbx/common/core/src/ux_device_stack_configuration_set.c **** 
 138:../STM32Cube_FW_N6/Middlewares/ST/usbx/common/core/src/ux_device_stack_configuration_set.c ****         /* And its type.  */
 139:../STM32Cube_FW_N6/Middlewares/ST/usbx/common/core/src/ux_device_stack_configuration_set.c ****         descriptor_type =  *(device_framework + 1);
 140:../STM32Cube_FW_N6/Middlewares/ST/usbx/common/core/src/ux_device_stack_configuration_set.c **** 
 141:../STM32Cube_FW_N6/Middlewares/ST/usbx/common/core/src/ux_device_stack_configuration_set.c ****         /* Check if this is a configuration descriptor.  */
 142:../STM32Cube_FW_N6/Middlewares/ST/usbx/common/core/src/ux_device_stack_configuration_set.c ****         if (descriptor_type == UX_CONFIGURATION_DESCRIPTOR_ITEM)
 143:../STM32Cube_FW_N6/Middlewares/ST/usbx/common/core/src/ux_device_stack_configuration_set.c ****         {
 144:../STM32Cube_FW_N6/Middlewares/ST/usbx/common/core/src/ux_device_stack_configuration_set.c ****             /* Parse the descriptor in something more readable.  */
 145:../STM32Cube_FW_N6/Middlewares/ST/usbx/common/core/src/ux_device_stack_configuration_set.c ****             _ux_utility_descriptor_parse(device_framework,
 146:../STM32Cube_FW_N6/Middlewares/ST/usbx/common/core/src/ux_device_stack_configuration_set.c ****                         _ux_system_configuration_descriptor_structure,
 147:../STM32Cube_FW_N6/Middlewares/ST/usbx/common/core/src/ux_device_stack_configuration_set.c ****                         UX_CONFIGURATION_DESCRIPTOR_ENTRIES,
 148:../STM32Cube_FW_N6/Middlewares/ST/usbx/common/core/src/ux_device_stack_configuration_set.c ****                         (UCHAR *) &configuration_descriptor);
 149:../STM32Cube_FW_N6/Middlewares/ST/usbx/common/core/src/ux_device_stack_configuration_set.c **** 
 150:../STM32Cube_FW_N6/Middlewares/ST/usbx/common/core/src/ux_device_stack_configuration_set.c ****             /* Now we need to check the configuration value. It has
 151:../STM32Cube_FW_N6/Middlewares/ST/usbx/common/core/src/ux_device_stack_configuration_set.c ****                to be the same as the one specified in the setup function.  */
 152:../STM32Cube_FW_N6/Middlewares/ST/usbx/common/core/src/ux_device_stack_configuration_set.c ****             if (configuration_descriptor.bConfigurationValue == configuration_value)
 153:../STM32Cube_FW_N6/Middlewares/ST/usbx/common/core/src/ux_device_stack_configuration_set.c ****                 /* The configuration is found. */
 154:../STM32Cube_FW_N6/Middlewares/ST/usbx/common/core/src/ux_device_stack_configuration_set.c ****                 break;
 155:../STM32Cube_FW_N6/Middlewares/ST/usbx/common/core/src/ux_device_stack_configuration_set.c ****         }
 156:../STM32Cube_FW_N6/Middlewares/ST/usbx/common/core/src/ux_device_stack_configuration_set.c **** 
 157:../STM32Cube_FW_N6/Middlewares/ST/usbx/common/core/src/ux_device_stack_configuration_set.c ****         /* Adjust what is left of the device framework.  */
 158:../STM32Cube_FW_N6/Middlewares/ST/usbx/common/core/src/ux_device_stack_configuration_set.c ****         device_framework_length -= descriptor_length;
 159:../STM32Cube_FW_N6/Middlewares/ST/usbx/common/core/src/ux_device_stack_configuration_set.c ****         /* Point to the next descriptor.  */
 160:../STM32Cube_FW_N6/Middlewares/ST/usbx/common/core/src/ux_device_stack_configuration_set.c ****         device_framework += descriptor_length;
 161:../STM32Cube_FW_N6/Middlewares/ST/usbx/common/core/src/ux_device_stack_configuration_set.c ****     }
 162:../STM32Cube_FW_N6/Middlewares/ST/usbx/common/core/src/ux_device_stack_configuration_set.c **** 
 163:../STM32Cube_FW_N6/Middlewares/ST/usbx/common/core/src/ux_device_stack_configuration_set.c ****     /* Configuration not found. */
 164:../STM32Cube_FW_N6/Middlewares/ST/usbx/common/core/src/ux_device_stack_configuration_set.c ****     if (device_framework_length == 0 && configuration_value != 0)
  99              		.loc 1 164 5 view .LVU34
 100              		.loc 1 164 38 is_stmt 0 discriminator 1 view .LVU35
 101 0026 A7B1     		cbz	r7, .L6
 165:../STM32Cube_FW_N6/Middlewares/ST/usbx/common/core/src/ux_device_stack_configuration_set.c ****         return(UX_ERROR);
 102              		.loc 1 165 15 view .LVU36
 103 0028 FF20     		movs	r0, #255
 104 002a 47E0     		b	.L1
 105              	.L8:
 136:../STM32Cube_FW_N6/Middlewares/ST/usbx/common/core/src/ux_device_stack_configuration_set.c **** 
 106              		.loc 1 136 9 is_stmt 1 view .LVU37
ARM GAS  /tmp/ccc3HROU.s 			page 6


 142:../STM32Cube_FW_N6/Middlewares/ST/usbx/common/core/src/ux_device_stack_configuration_set.c ****         {
 107              		.loc 1 142 12 is_stmt 0 view .LVU38
 108 002c 6B78     		ldrb	r3, [r5, #1]	@ zero_extendqisi2
 136:../STM32Cube_FW_N6/Middlewares/ST/usbx/common/core/src/ux_device_stack_configuration_set.c **** 
 109              		.loc 1 136 27 view .LVU39
 110 002e 95F80080 		ldrb	r8, [r5]	@ zero_extendqisi2
 111              	.LVL3:
 139:../STM32Cube_FW_N6/Middlewares/ST/usbx/common/core/src/ux_device_stack_configuration_set.c **** 
 112              		.loc 1 139 9 is_stmt 1 view .LVU40
 142:../STM32Cube_FW_N6/Middlewares/ST/usbx/common/core/src/ux_device_stack_configuration_set.c ****         {
 113              		.loc 1 142 9 view .LVU41
 142:../STM32Cube_FW_N6/Middlewares/ST/usbx/common/core/src/ux_device_stack_configuration_set.c ****         {
 114              		.loc 1 142 12 is_stmt 0 view .LVU42
 115 0032 022B     		cmp	r3, #2
 116 0034 03D0     		beq	.L5
 117              	.LVL4:
 118              	.L7:
 158:../STM32Cube_FW_N6/Middlewares/ST/usbx/common/core/src/ux_device_stack_configuration_set.c ****         /* Point to the next descriptor.  */
 119              		.loc 1 158 9 is_stmt 1 view .LVU43
 158:../STM32Cube_FW_N6/Middlewares/ST/usbx/common/core/src/ux_device_stack_configuration_set.c ****         /* Point to the next descriptor.  */
 120              		.loc 1 158 33 is_stmt 0 view .LVU44
 121 0036 A6EB0806 		sub	r6, r6, r8
 122              	.LVL5:
 160:../STM32Cube_FW_N6/Middlewares/ST/usbx/common/core/src/ux_device_stack_configuration_set.c ****     }
 123              		.loc 1 160 9 is_stmt 1 view .LVU45
 160:../STM32Cube_FW_N6/Middlewares/ST/usbx/common/core/src/ux_device_stack_configuration_set.c ****     }
 124              		.loc 1 160 26 is_stmt 0 view .LVU46
 125 003a 4544     		add	r5, r5, r8
 126              	.LVL6:
 160:../STM32Cube_FW_N6/Middlewares/ST/usbx/common/core/src/ux_device_stack_configuration_set.c ****     }
 127              		.loc 1 160 26 view .LVU47
 128 003c F2E7     		b	.L4
 129              	.LVL7:
 130              	.L5:
 145:../STM32Cube_FW_N6/Middlewares/ST/usbx/common/core/src/ux_device_stack_configuration_set.c ****                         _ux_system_configuration_descriptor_structure,
 131              		.loc 1 145 13 is_stmt 1 view .LVU48
 132 003e 03AB     		add	r3, sp, #12
 133 0040 0822     		movs	r2, #8
 134 0042 2846     		mov	r0, r5
 135 0044 5549     		ldr	r1, .L40
 136 0046 FFF7FEFF 		bl	_ux_utility_descriptor_parse
 137              	.LVL8:
 152:../STM32Cube_FW_N6/Middlewares/ST/usbx/common/core/src/ux_device_stack_configuration_set.c ****                 /* The configuration is found. */
 138              		.loc 1 152 13 view .LVU49
 152:../STM32Cube_FW_N6/Middlewares/ST/usbx/common/core/src/ux_device_stack_configuration_set.c ****                 /* The configuration is found. */
 139              		.loc 1 152 41 is_stmt 0 view .LVU50
 140 004a 9DF81130 		ldrb	r3, [sp, #17]	@ zero_extendqisi2
 152:../STM32Cube_FW_N6/Middlewares/ST/usbx/common/core/src/ux_device_stack_configuration_set.c ****                 /* The configuration is found. */
 141              		.loc 1 152 16 view .LVU51
 142 004e BB42     		cmp	r3, r7
 143 0050 F1D1     		bne	.L7
 144              	.LVL9:
 145              	.L6:
 166:../STM32Cube_FW_N6/Middlewares/ST/usbx/common/core/src/ux_device_stack_configuration_set.c **** 
 167:../STM32Cube_FW_N6/Middlewares/ST/usbx/common/core/src/ux_device_stack_configuration_set.c ****     /* We unmount the configuration if there is previous configuration selected. */
 168:../STM32Cube_FW_N6/Middlewares/ST/usbx/common/core/src/ux_device_stack_configuration_set.c ****     if (device -> ux_slave_device_configuration_selected)
 146              		.loc 1 168 5 is_stmt 1 view .LVU52
ARM GAS  /tmp/ccc3HROU.s 			page 7


 147              		.loc 1 168 8 is_stmt 0 view .LVU53
 148 0052 D4F8A430 		ldr	r3, [r4, #164]
 149 0056 002B     		cmp	r3, #0
 150 0058 33D1     		bne	.L10
 151              	.LVL10:
 152              	.L16:
 169:../STM32Cube_FW_N6/Middlewares/ST/usbx/common/core/src/ux_device_stack_configuration_set.c ****     {
 170:../STM32Cube_FW_N6/Middlewares/ST/usbx/common/core/src/ux_device_stack_configuration_set.c **** 
 171:../STM32Cube_FW_N6/Middlewares/ST/usbx/common/core/src/ux_device_stack_configuration_set.c ****         /* Get the pointer to the first interface.  */
 172:../STM32Cube_FW_N6/Middlewares/ST/usbx/common/core/src/ux_device_stack_configuration_set.c ****         interface_ptr =  device -> ux_slave_device_first_interface;
 173:../STM32Cube_FW_N6/Middlewares/ST/usbx/common/core/src/ux_device_stack_configuration_set.c **** 
 174:../STM32Cube_FW_N6/Middlewares/ST/usbx/common/core/src/ux_device_stack_configuration_set.c **** #if !defined(UX_DEVICE_INITIALIZE_FRAMEWORK_SCAN_DISABLE) || UX_MAX_DEVICE_INTERFACES > 1
 175:../STM32Cube_FW_N6/Middlewares/ST/usbx/common/core/src/ux_device_stack_configuration_set.c ****         /* Deactivate all the interfaces if any.  */
 176:../STM32Cube_FW_N6/Middlewares/ST/usbx/common/core/src/ux_device_stack_configuration_set.c ****         while (interface_ptr != UX_NULL)
 177:../STM32Cube_FW_N6/Middlewares/ST/usbx/common/core/src/ux_device_stack_configuration_set.c ****         {
 178:../STM32Cube_FW_N6/Middlewares/ST/usbx/common/core/src/ux_device_stack_configuration_set.c **** #endif
 179:../STM32Cube_FW_N6/Middlewares/ST/usbx/common/core/src/ux_device_stack_configuration_set.c ****             /* Build all the fields of the Class Command.  */
 180:../STM32Cube_FW_N6/Middlewares/ST/usbx/common/core/src/ux_device_stack_configuration_set.c ****             class_command.ux_slave_class_command_request =   UX_SLAVE_CLASS_COMMAND_DEACTIVATE;
 181:../STM32Cube_FW_N6/Middlewares/ST/usbx/common/core/src/ux_device_stack_configuration_set.c ****             class_command.ux_slave_class_command_interface =  (VOID *) interface_ptr;
 182:../STM32Cube_FW_N6/Middlewares/ST/usbx/common/core/src/ux_device_stack_configuration_set.c **** 
 183:../STM32Cube_FW_N6/Middlewares/ST/usbx/common/core/src/ux_device_stack_configuration_set.c ****             /* Get the pointer to the class container of this interface.  */
 184:../STM32Cube_FW_N6/Middlewares/ST/usbx/common/core/src/ux_device_stack_configuration_set.c ****             class_inst =  interface_ptr -> ux_slave_interface_class;
 185:../STM32Cube_FW_N6/Middlewares/ST/usbx/common/core/src/ux_device_stack_configuration_set.c **** 
 186:../STM32Cube_FW_N6/Middlewares/ST/usbx/common/core/src/ux_device_stack_configuration_set.c ****             /* Store the class container. */
 187:../STM32Cube_FW_N6/Middlewares/ST/usbx/common/core/src/ux_device_stack_configuration_set.c ****             class_command.ux_slave_class_command_class_ptr =  class_inst;
 188:../STM32Cube_FW_N6/Middlewares/ST/usbx/common/core/src/ux_device_stack_configuration_set.c **** 
 189:../STM32Cube_FW_N6/Middlewares/ST/usbx/common/core/src/ux_device_stack_configuration_set.c ****             /* If there is a class container for this instance, deactivate it.  */
 190:../STM32Cube_FW_N6/Middlewares/ST/usbx/common/core/src/ux_device_stack_configuration_set.c ****             if (class_inst != UX_NULL)
 191:../STM32Cube_FW_N6/Middlewares/ST/usbx/common/core/src/ux_device_stack_configuration_set.c **** 
 192:../STM32Cube_FW_N6/Middlewares/ST/usbx/common/core/src/ux_device_stack_configuration_set.c ****                 /* Call the class with the DEACTIVATE signal.  */
 193:../STM32Cube_FW_N6/Middlewares/ST/usbx/common/core/src/ux_device_stack_configuration_set.c ****                 class_inst -> ux_slave_class_entry_function(&class_command);
 194:../STM32Cube_FW_N6/Middlewares/ST/usbx/common/core/src/ux_device_stack_configuration_set.c **** 
 195:../STM32Cube_FW_N6/Middlewares/ST/usbx/common/core/src/ux_device_stack_configuration_set.c **** #if !defined(UX_DEVICE_INITIALIZE_FRAMEWORK_SCAN_DISABLE) || UX_MAX_DEVICE_INTERFACES > 1
 196:../STM32Cube_FW_N6/Middlewares/ST/usbx/common/core/src/ux_device_stack_configuration_set.c ****             /* Get the next interface.  */
 197:../STM32Cube_FW_N6/Middlewares/ST/usbx/common/core/src/ux_device_stack_configuration_set.c ****             next_interface =  interface_ptr -> ux_slave_interface_next_interface;
 198:../STM32Cube_FW_N6/Middlewares/ST/usbx/common/core/src/ux_device_stack_configuration_set.c **** #endif
 199:../STM32Cube_FW_N6/Middlewares/ST/usbx/common/core/src/ux_device_stack_configuration_set.c **** 
 200:../STM32Cube_FW_N6/Middlewares/ST/usbx/common/core/src/ux_device_stack_configuration_set.c ****             /* Remove the interface and all endpoints associated with it.  */
 201:../STM32Cube_FW_N6/Middlewares/ST/usbx/common/core/src/ux_device_stack_configuration_set.c ****             _ux_device_stack_interface_delete(interface_ptr);
 202:../STM32Cube_FW_N6/Middlewares/ST/usbx/common/core/src/ux_device_stack_configuration_set.c **** 
 203:../STM32Cube_FW_N6/Middlewares/ST/usbx/common/core/src/ux_device_stack_configuration_set.c **** #if !defined(UX_DEVICE_INITIALIZE_FRAMEWORK_SCAN_DISABLE) || UX_MAX_DEVICE_INTERFACES > 1
 204:../STM32Cube_FW_N6/Middlewares/ST/usbx/common/core/src/ux_device_stack_configuration_set.c ****             /* Now we refresh the interface pointer.  */
 205:../STM32Cube_FW_N6/Middlewares/ST/usbx/common/core/src/ux_device_stack_configuration_set.c ****             interface_ptr =  next_interface;
 206:../STM32Cube_FW_N6/Middlewares/ST/usbx/common/core/src/ux_device_stack_configuration_set.c ****         }
 207:../STM32Cube_FW_N6/Middlewares/ST/usbx/common/core/src/ux_device_stack_configuration_set.c **** #endif
 208:../STM32Cube_FW_N6/Middlewares/ST/usbx/common/core/src/ux_device_stack_configuration_set.c **** 
 209:../STM32Cube_FW_N6/Middlewares/ST/usbx/common/core/src/ux_device_stack_configuration_set.c ****     }
 210:../STM32Cube_FW_N6/Middlewares/ST/usbx/common/core/src/ux_device_stack_configuration_set.c **** 
 211:../STM32Cube_FW_N6/Middlewares/ST/usbx/common/core/src/ux_device_stack_configuration_set.c ****     /* No configuration is selected.  */
 212:../STM32Cube_FW_N6/Middlewares/ST/usbx/common/core/src/ux_device_stack_configuration_set.c ****     device -> ux_slave_device_configuration_selected =  0;
 153              		.loc 1 212 5 is_stmt 1 view .LVU54
 154              		.loc 1 212 54 is_stmt 0 view .LVU55
 155 005a 0026     		movs	r6, #0
 213:../STM32Cube_FW_N6/Middlewares/ST/usbx/common/core/src/ux_device_stack_configuration_set.c **** 
 214:../STM32Cube_FW_N6/Middlewares/ST/usbx/common/core/src/ux_device_stack_configuration_set.c ****     /* Mark the device as attached now. */
 215:../STM32Cube_FW_N6/Middlewares/ST/usbx/common/core/src/ux_device_stack_configuration_set.c ****     device -> ux_slave_device_state =  UX_DEVICE_ATTACHED;
 156              		.loc 1 215 37 view .LVU56
ARM GAS  /tmp/ccc3HROU.s 			page 8


 157 005c 0122     		movs	r2, #1
 216:../STM32Cube_FW_N6/Middlewares/ST/usbx/common/core/src/ux_device_stack_configuration_set.c **** 
 217:../STM32Cube_FW_N6/Middlewares/ST/usbx/common/core/src/ux_device_stack_configuration_set.c ****     /* The DCD needs to update the device state too.  */
 218:../STM32Cube_FW_N6/Middlewares/ST/usbx/common/core/src/ux_device_stack_configuration_set.c ****     dcd -> ux_slave_dcd_function(dcd, UX_DCD_CHANGE_STATE, (VOID *) UX_DEVICE_ATTACHED);
 158              		.loc 1 218 5 view .LVU57
 159 005e 1321     		movs	r1, #19
 160 0060 2046     		mov	r0, r4
 161 0062 A369     		ldr	r3, [r4, #24]
 212:../STM32Cube_FW_N6/Middlewares/ST/usbx/common/core/src/ux_device_stack_configuration_set.c **** 
 162              		.loc 1 212 54 view .LVU58
 163 0064 C4F8A460 		str	r6, [r4, #164]
 215:../STM32Cube_FW_N6/Middlewares/ST/usbx/common/core/src/ux_device_stack_configuration_set.c **** 
 164              		.loc 1 215 5 is_stmt 1 view .LVU59
 215:../STM32Cube_FW_N6/Middlewares/ST/usbx/common/core/src/ux_device_stack_configuration_set.c **** 
 165              		.loc 1 215 37 is_stmt 0 view .LVU60
 166 0068 6262     		str	r2, [r4, #36]
 167              		.loc 1 218 5 is_stmt 1 view .LVU61
 168 006a 9847     		blx	r3
 169              	.LVL11:
 219:../STM32Cube_FW_N6/Middlewares/ST/usbx/common/core/src/ux_device_stack_configuration_set.c **** 
 220:../STM32Cube_FW_N6/Middlewares/ST/usbx/common/core/src/ux_device_stack_configuration_set.c ****     /* If the host tries to unconfigure, we are done. */
 221:../STM32Cube_FW_N6/Middlewares/ST/usbx/common/core/src/ux_device_stack_configuration_set.c ****     if (configuration_value == 0)
 170              		.loc 1 221 5 view .LVU62
 171              		.loc 1 221 8 is_stmt 0 view .LVU63
 172 006c 2FB3     		cbz	r7, .L3
 222:../STM32Cube_FW_N6/Middlewares/ST/usbx/common/core/src/ux_device_stack_configuration_set.c ****         return(UX_SUCCESS);
 223:../STM32Cube_FW_N6/Middlewares/ST/usbx/common/core/src/ux_device_stack_configuration_set.c **** 
 224:../STM32Cube_FW_N6/Middlewares/ST/usbx/common/core/src/ux_device_stack_configuration_set.c ****     /* Memorize the configuration selected.  */
 225:../STM32Cube_FW_N6/Middlewares/ST/usbx/common/core/src/ux_device_stack_configuration_set.c ****     device -> ux_slave_device_configuration_selected =  configuration_value;
 173              		.loc 1 225 5 is_stmt 1 view .LVU64
 226:../STM32Cube_FW_N6/Middlewares/ST/usbx/common/core/src/ux_device_stack_configuration_set.c **** 
 227:../STM32Cube_FW_N6/Middlewares/ST/usbx/common/core/src/ux_device_stack_configuration_set.c ****     /* We have found the configuration value requested by the host.
 228:../STM32Cube_FW_N6/Middlewares/ST/usbx/common/core/src/ux_device_stack_configuration_set.c ****        Create the configuration descriptor and attach it to the device.  */
 229:../STM32Cube_FW_N6/Middlewares/ST/usbx/common/core/src/ux_device_stack_configuration_set.c ****     _ux_utility_descriptor_parse(device_framework,
 174              		.loc 1 229 5 is_stmt 0 view .LVU65
 175 006e 4B49     		ldr	r1, .L40
 176 0070 0822     		movs	r2, #8
 177 0072 04F1A803 		add	r3, r4, #168
 178 0076 2846     		mov	r0, r5
 225:../STM32Cube_FW_N6/Middlewares/ST/usbx/common/core/src/ux_device_stack_configuration_set.c **** 
 179              		.loc 1 225 54 view .LVU66
 180 0078 C4F8A470 		str	r7, [r4, #164]
 181              		.loc 1 229 5 is_stmt 1 view .LVU67
 182 007c FFF7FEFF 		bl	_ux_utility_descriptor_parse
 183              	.LVL12:
 230:../STM32Cube_FW_N6/Middlewares/ST/usbx/common/core/src/ux_device_stack_configuration_set.c ****                 _ux_system_configuration_descriptor_structure,
 231:../STM32Cube_FW_N6/Middlewares/ST/usbx/common/core/src/ux_device_stack_configuration_set.c ****                 UX_CONFIGURATION_DESCRIPTOR_ENTRIES,
 232:../STM32Cube_FW_N6/Middlewares/ST/usbx/common/core/src/ux_device_stack_configuration_set.c ****                 (UCHAR *) &device -> ux_slave_device_configuration_descriptor);
 233:../STM32Cube_FW_N6/Middlewares/ST/usbx/common/core/src/ux_device_stack_configuration_set.c **** 
 234:../STM32Cube_FW_N6/Middlewares/ST/usbx/common/core/src/ux_device_stack_configuration_set.c ****     /* Configuration character D6 is for Self-powered */
 235:../STM32Cube_FW_N6/Middlewares/ST/usbx/common/core/src/ux_device_stack_configuration_set.c ****     _ux_system_slave -> ux_system_slave_power_state = (configuration_descriptor.bmAttributes & 0x40
 184              		.loc 1 235 5 view .LVU68
 185              		.loc 1 235 80 is_stmt 0 view .LVU69
 186 0080 9DF81330 		ldrb	r3, [sp, #19]	@ zero_extendqisi2
 104:../STM32Cube_FW_N6/Middlewares/ST/usbx/common/core/src/ux_device_stack_configuration_set.c **** ULONG                           iad_number_interfaces =  0;
 187              		.loc 1 104 33 view .LVU70
 188 0084 B146     		mov	r9, r6
ARM GAS  /tmp/ccc3HROU.s 			page 9


 189              		.loc 1 235 127 discriminator 1 view .LVU71
 190 0086 13F0400F 		tst	r3, #64
 191 008a 0CBF     		ite	eq
 192 008c 0121     		moveq	r1, #1
 193 008e 0221     		movne	r1, #2
 121:../STM32Cube_FW_N6/Middlewares/ST/usbx/common/core/src/ux_device_stack_configuration_set.c **** 
 194              		.loc 1 121 14 view .LVU72
 195 0090 B246     		mov	r10, r6
 196              		.loc 1 235 22 discriminator 4 view .LVU73
 197 0092 DBF80020 		ldr	r2, [fp]
 236:../STM32Cube_FW_N6/Middlewares/ST/usbx/common/core/src/ux_device_stack_configuration_set.c **** 
 237:../STM32Cube_FW_N6/Middlewares/ST/usbx/common/core/src/ux_device_stack_configuration_set.c ****     /* Configuration character D5 is for Remote Wakeup */
 238:../STM32Cube_FW_N6/Middlewares/ST/usbx/common/core/src/ux_device_stack_configuration_set.c ****     _ux_system_slave -> ux_system_slave_remote_wakeup_capability = (configuration_descriptor.bmAttr
 198              		.loc 1 238 125 view .LVU74
 199 0096 C3F34013 		ubfx	r3, r3, #5, #1
 239:../STM32Cube_FW_N6/Middlewares/ST/usbx/common/core/src/ux_device_stack_configuration_set.c **** 
 240:../STM32Cube_FW_N6/Middlewares/ST/usbx/common/core/src/ux_device_stack_configuration_set.c ****     /* Search only in current configuration */
 241:../STM32Cube_FW_N6/Middlewares/ST/usbx/common/core/src/ux_device_stack_configuration_set.c ****     device_framework_length =  configuration_descriptor.wTotalLength;
 200              		.loc 1 241 29 view .LVU75
 201 009a BDF80E80 		ldrh	r8, [sp, #14]
 235:../STM32Cube_FW_N6/Middlewares/ST/usbx/common/core/src/ux_device_stack_configuration_set.c **** 
 202              		.loc 1 235 53 discriminator 4 view .LVU76
 203 009e C2F84411 		str	r1, [r2, #324]
 238:../STM32Cube_FW_N6/Middlewares/ST/usbx/common/core/src/ux_device_stack_configuration_set.c **** 
 204              		.loc 1 238 5 is_stmt 1 view .LVU77
 238:../STM32Cube_FW_N6/Middlewares/ST/usbx/common/core/src/ux_device_stack_configuration_set.c **** 
 205              		.loc 1 238 66 is_stmt 0 view .LVU78
 206 00a2 C2F84831 		str	r3, [r2, #328]
 207              		.loc 1 241 5 is_stmt 1 view .LVU79
 208              	.LVL13:
 242:../STM32Cube_FW_N6/Middlewares/ST/usbx/common/core/src/ux_device_stack_configuration_set.c **** 
 243:../STM32Cube_FW_N6/Middlewares/ST/usbx/common/core/src/ux_device_stack_configuration_set.c ****     /*  We need to scan all the interface descriptors following this
 244:../STM32Cube_FW_N6/Middlewares/ST/usbx/common/core/src/ux_device_stack_configuration_set.c ****         configuration descriptor and enable all endpoints associated
 245:../STM32Cube_FW_N6/Middlewares/ST/usbx/common/core/src/ux_device_stack_configuration_set.c ****         with the default alternate setting of each interface.  */
 246:../STM32Cube_FW_N6/Middlewares/ST/usbx/common/core/src/ux_device_stack_configuration_set.c ****     while (device_framework_length != 0)
 209              		.loc 1 246 5 view .LVU80
 100:../STM32Cube_FW_N6/Middlewares/ST/usbx/common/core/src/ux_device_stack_configuration_set.c **** UX_SLAVE_CLASS_COMMAND          class_command;
 210              		.loc 1 100 34 is_stmt 0 view .LVU81
 211 00a6 0096     		str	r6, [sp]
 212              	.LVL14:
 213              	.L18:
 214              		.loc 1 246 36 is_stmt 1 view .LVU82
 215 00a8 B8F1000F 		cmp	r8, #0
 216 00ac 1FD1     		bne	.L30
 247:../STM32Cube_FW_N6/Middlewares/ST/usbx/common/core/src/ux_device_stack_configuration_set.c ****     {
 248:../STM32Cube_FW_N6/Middlewares/ST/usbx/common/core/src/ux_device_stack_configuration_set.c **** 
 249:../STM32Cube_FW_N6/Middlewares/ST/usbx/common/core/src/ux_device_stack_configuration_set.c ****         /* Get the length of the current descriptor.  */
 250:../STM32Cube_FW_N6/Middlewares/ST/usbx/common/core/src/ux_device_stack_configuration_set.c ****         descriptor_length =  (ULONG) *device_framework;
 251:../STM32Cube_FW_N6/Middlewares/ST/usbx/common/core/src/ux_device_stack_configuration_set.c **** 
 252:../STM32Cube_FW_N6/Middlewares/ST/usbx/common/core/src/ux_device_stack_configuration_set.c ****         /* And its type.  */
 253:../STM32Cube_FW_N6/Middlewares/ST/usbx/common/core/src/ux_device_stack_configuration_set.c ****         descriptor_type =  *(device_framework + 1);
 254:../STM32Cube_FW_N6/Middlewares/ST/usbx/common/core/src/ux_device_stack_configuration_set.c **** 
 255:../STM32Cube_FW_N6/Middlewares/ST/usbx/common/core/src/ux_device_stack_configuration_set.c ****         /* Check if this is an interface association descriptor.  */
 256:../STM32Cube_FW_N6/Middlewares/ST/usbx/common/core/src/ux_device_stack_configuration_set.c ****         if(descriptor_type == UX_INTERFACE_ASSOCIATION_DESCRIPTOR_ITEM)
 257:../STM32Cube_FW_N6/Middlewares/ST/usbx/common/core/src/ux_device_stack_configuration_set.c ****         {
 258:../STM32Cube_FW_N6/Middlewares/ST/usbx/common/core/src/ux_device_stack_configuration_set.c **** 
 259:../STM32Cube_FW_N6/Middlewares/ST/usbx/common/core/src/ux_device_stack_configuration_set.c ****             /* Set the IAD flag.  */
ARM GAS  /tmp/ccc3HROU.s 			page 10


 260:../STM32Cube_FW_N6/Middlewares/ST/usbx/common/core/src/ux_device_stack_configuration_set.c ****             iad_flag = UX_TRUE;
 261:../STM32Cube_FW_N6/Middlewares/ST/usbx/common/core/src/ux_device_stack_configuration_set.c **** 
 262:../STM32Cube_FW_N6/Middlewares/ST/usbx/common/core/src/ux_device_stack_configuration_set.c ****             /* Get the first interface we have in the IAD. */
 263:../STM32Cube_FW_N6/Middlewares/ST/usbx/common/core/src/ux_device_stack_configuration_set.c ****             iad_first_interface = (ULONG)  *(device_framework + 2);
 264:../STM32Cube_FW_N6/Middlewares/ST/usbx/common/core/src/ux_device_stack_configuration_set.c **** 
 265:../STM32Cube_FW_N6/Middlewares/ST/usbx/common/core/src/ux_device_stack_configuration_set.c ****             /* Get the number of interfaces we have in the IAD. */
 266:../STM32Cube_FW_N6/Middlewares/ST/usbx/common/core/src/ux_device_stack_configuration_set.c ****             iad_number_interfaces = (ULONG)  *(device_framework + 3);
 267:../STM32Cube_FW_N6/Middlewares/ST/usbx/common/core/src/ux_device_stack_configuration_set.c ****         }
 268:../STM32Cube_FW_N6/Middlewares/ST/usbx/common/core/src/ux_device_stack_configuration_set.c **** 
 269:../STM32Cube_FW_N6/Middlewares/ST/usbx/common/core/src/ux_device_stack_configuration_set.c ****         /* Check if this is an interface descriptor.  */
 270:../STM32Cube_FW_N6/Middlewares/ST/usbx/common/core/src/ux_device_stack_configuration_set.c ****         if(descriptor_type == UX_INTERFACE_DESCRIPTOR_ITEM)
 271:../STM32Cube_FW_N6/Middlewares/ST/usbx/common/core/src/ux_device_stack_configuration_set.c ****         {
 272:../STM32Cube_FW_N6/Middlewares/ST/usbx/common/core/src/ux_device_stack_configuration_set.c **** 
 273:../STM32Cube_FW_N6/Middlewares/ST/usbx/common/core/src/ux_device_stack_configuration_set.c ****             /* Parse the descriptor in something more readable.  */
 274:../STM32Cube_FW_N6/Middlewares/ST/usbx/common/core/src/ux_device_stack_configuration_set.c ****             _ux_utility_descriptor_parse(device_framework,
 275:../STM32Cube_FW_N6/Middlewares/ST/usbx/common/core/src/ux_device_stack_configuration_set.c ****                         _ux_system_interface_descriptor_structure,
 276:../STM32Cube_FW_N6/Middlewares/ST/usbx/common/core/src/ux_device_stack_configuration_set.c ****                         UX_INTERFACE_DESCRIPTOR_ENTRIES,
 277:../STM32Cube_FW_N6/Middlewares/ST/usbx/common/core/src/ux_device_stack_configuration_set.c ****                         (UCHAR *) &interface_descriptor);
 278:../STM32Cube_FW_N6/Middlewares/ST/usbx/common/core/src/ux_device_stack_configuration_set.c **** 
 279:../STM32Cube_FW_N6/Middlewares/ST/usbx/common/core/src/ux_device_stack_configuration_set.c ****             /* If the alternate setting is 0 for this interface, we need to
 280:../STM32Cube_FW_N6/Middlewares/ST/usbx/common/core/src/ux_device_stack_configuration_set.c ****                memorize its class association and start it.  */
 281:../STM32Cube_FW_N6/Middlewares/ST/usbx/common/core/src/ux_device_stack_configuration_set.c ****             if (interface_descriptor.bAlternateSetting == 0)
 282:../STM32Cube_FW_N6/Middlewares/ST/usbx/common/core/src/ux_device_stack_configuration_set.c ****             {
 283:../STM32Cube_FW_N6/Middlewares/ST/usbx/common/core/src/ux_device_stack_configuration_set.c **** 
 284:../STM32Cube_FW_N6/Middlewares/ST/usbx/common/core/src/ux_device_stack_configuration_set.c ****                 /* Are we in a IAD scenario ? */
 285:../STM32Cube_FW_N6/Middlewares/ST/usbx/common/core/src/ux_device_stack_configuration_set.c ****                 if (iad_flag == UX_TRUE)
 286:../STM32Cube_FW_N6/Middlewares/ST/usbx/common/core/src/ux_device_stack_configuration_set.c ****                 {
 287:../STM32Cube_FW_N6/Middlewares/ST/usbx/common/core/src/ux_device_stack_configuration_set.c **** 
 288:../STM32Cube_FW_N6/Middlewares/ST/usbx/common/core/src/ux_device_stack_configuration_set.c ****                     /* Check if this is the first interface from the IAD. In this case,
 289:../STM32Cube_FW_N6/Middlewares/ST/usbx/common/core/src/ux_device_stack_configuration_set.c ****                        we need to match a class to this interface.  */
 290:../STM32Cube_FW_N6/Middlewares/ST/usbx/common/core/src/ux_device_stack_configuration_set.c ****                     if (interface_descriptor.bInterfaceNumber == iad_first_interface)
 291:../STM32Cube_FW_N6/Middlewares/ST/usbx/common/core/src/ux_device_stack_configuration_set.c ****                     {
 292:../STM32Cube_FW_N6/Middlewares/ST/usbx/common/core/src/ux_device_stack_configuration_set.c **** 
 293:../STM32Cube_FW_N6/Middlewares/ST/usbx/common/core/src/ux_device_stack_configuration_set.c ****                         /* First interface. Scan the list of classes to find a match.  */
 294:../STM32Cube_FW_N6/Middlewares/ST/usbx/common/core/src/ux_device_stack_configuration_set.c ****                         class_inst =  _ux_system_slave -> ux_system_slave_class_array;
 295:../STM32Cube_FW_N6/Middlewares/ST/usbx/common/core/src/ux_device_stack_configuration_set.c **** 
 296:../STM32Cube_FW_N6/Middlewares/ST/usbx/common/core/src/ux_device_stack_configuration_set.c **** #if UX_MAX_SLAVE_CLASS_DRIVER > 1
 297:../STM32Cube_FW_N6/Middlewares/ST/usbx/common/core/src/ux_device_stack_configuration_set.c ****                         /* Parse all the class drivers.  */
 298:../STM32Cube_FW_N6/Middlewares/ST/usbx/common/core/src/ux_device_stack_configuration_set.c ****                         for (class_index = 0; class_index < _ux_system_slave -> ux_system_slave_max
 299:../STM32Cube_FW_N6/Middlewares/ST/usbx/common/core/src/ux_device_stack_configuration_set.c ****                         {
 300:../STM32Cube_FW_N6/Middlewares/ST/usbx/common/core/src/ux_device_stack_configuration_set.c **** #endif
 301:../STM32Cube_FW_N6/Middlewares/ST/usbx/common/core/src/ux_device_stack_configuration_set.c **** 
 302:../STM32Cube_FW_N6/Middlewares/ST/usbx/common/core/src/ux_device_stack_configuration_set.c ****                             /* Check if this class driver is used.  */
 303:../STM32Cube_FW_N6/Middlewares/ST/usbx/common/core/src/ux_device_stack_configuration_set.c ****                             if (class_inst -> ux_slave_class_status == UX_USED)
 304:../STM32Cube_FW_N6/Middlewares/ST/usbx/common/core/src/ux_device_stack_configuration_set.c ****                             {
 305:../STM32Cube_FW_N6/Middlewares/ST/usbx/common/core/src/ux_device_stack_configuration_set.c **** 
 306:../STM32Cube_FW_N6/Middlewares/ST/usbx/common/core/src/ux_device_stack_configuration_set.c ****                                 /* Check if this is the same interface for the same configuration. 
 307:../STM32Cube_FW_N6/Middlewares/ST/usbx/common/core/src/ux_device_stack_configuration_set.c ****                                 if ((interface_descriptor.bInterfaceNumber == class_inst -> ux_slav
 308:../STM32Cube_FW_N6/Middlewares/ST/usbx/common/core/src/ux_device_stack_configuration_set.c ****                                     (configuration_value == class_inst -> ux_slave_class_configurat
 309:../STM32Cube_FW_N6/Middlewares/ST/usbx/common/core/src/ux_device_stack_configuration_set.c ****                                 {
 310:../STM32Cube_FW_N6/Middlewares/ST/usbx/common/core/src/ux_device_stack_configuration_set.c **** 
 311:../STM32Cube_FW_N6/Middlewares/ST/usbx/common/core/src/ux_device_stack_configuration_set.c ****                                     /* Memorize the class in the class/interface array.  */
 312:../STM32Cube_FW_N6/Middlewares/ST/usbx/common/core/src/ux_device_stack_configuration_set.c ****                                     _ux_system_slave -> ux_system_slave_interface_class_array[inter
 313:../STM32Cube_FW_N6/Middlewares/ST/usbx/common/core/src/ux_device_stack_configuration_set.c **** 
 314:../STM32Cube_FW_N6/Middlewares/ST/usbx/common/core/src/ux_device_stack_configuration_set.c ****                                     /* And again as the current class.  */
 315:../STM32Cube_FW_N6/Middlewares/ST/usbx/common/core/src/ux_device_stack_configuration_set.c ****                                     current_class = class_inst;
 316:../STM32Cube_FW_N6/Middlewares/ST/usbx/common/core/src/ux_device_stack_configuration_set.c **** 
ARM GAS  /tmp/ccc3HROU.s 			page 11


 317:../STM32Cube_FW_N6/Middlewares/ST/usbx/common/core/src/ux_device_stack_configuration_set.c **** #if UX_MAX_SLAVE_CLASS_DRIVER > 1
 318:../STM32Cube_FW_N6/Middlewares/ST/usbx/common/core/src/ux_device_stack_configuration_set.c ****                                     /* We are done here.  */
 319:../STM32Cube_FW_N6/Middlewares/ST/usbx/common/core/src/ux_device_stack_configuration_set.c ****                                     break;
 320:../STM32Cube_FW_N6/Middlewares/ST/usbx/common/core/src/ux_device_stack_configuration_set.c **** #endif
 321:../STM32Cube_FW_N6/Middlewares/ST/usbx/common/core/src/ux_device_stack_configuration_set.c ****                                 }
 322:../STM32Cube_FW_N6/Middlewares/ST/usbx/common/core/src/ux_device_stack_configuration_set.c ****                             }
 323:../STM32Cube_FW_N6/Middlewares/ST/usbx/common/core/src/ux_device_stack_configuration_set.c **** 
 324:../STM32Cube_FW_N6/Middlewares/ST/usbx/common/core/src/ux_device_stack_configuration_set.c **** #if UX_MAX_SLAVE_CLASS_DRIVER > 1
 325:../STM32Cube_FW_N6/Middlewares/ST/usbx/common/core/src/ux_device_stack_configuration_set.c ****                             /* Move to the next registered class.  */
 326:../STM32Cube_FW_N6/Middlewares/ST/usbx/common/core/src/ux_device_stack_configuration_set.c ****                             class_inst ++;
 327:../STM32Cube_FW_N6/Middlewares/ST/usbx/common/core/src/ux_device_stack_configuration_set.c ****                         }
 328:../STM32Cube_FW_N6/Middlewares/ST/usbx/common/core/src/ux_device_stack_configuration_set.c **** #endif
 329:../STM32Cube_FW_N6/Middlewares/ST/usbx/common/core/src/ux_device_stack_configuration_set.c ****                     }
 330:../STM32Cube_FW_N6/Middlewares/ST/usbx/common/core/src/ux_device_stack_configuration_set.c ****                     else
 331:../STM32Cube_FW_N6/Middlewares/ST/usbx/common/core/src/ux_device_stack_configuration_set.c **** 
 332:../STM32Cube_FW_N6/Middlewares/ST/usbx/common/core/src/ux_device_stack_configuration_set.c ****                         /* Memorize the class in the class/interface array.  We use the current cla
 333:../STM32Cube_FW_N6/Middlewares/ST/usbx/common/core/src/ux_device_stack_configuration_set.c ****                         _ux_system_slave -> ux_system_slave_interface_class_array[interface_descrip
 334:../STM32Cube_FW_N6/Middlewares/ST/usbx/common/core/src/ux_device_stack_configuration_set.c **** 
 335:../STM32Cube_FW_N6/Middlewares/ST/usbx/common/core/src/ux_device_stack_configuration_set.c ****                     /* Decrement the number of interfaces found in the same IAD.  */
 336:../STM32Cube_FW_N6/Middlewares/ST/usbx/common/core/src/ux_device_stack_configuration_set.c ****                     iad_number_interfaces--;
 337:../STM32Cube_FW_N6/Middlewares/ST/usbx/common/core/src/ux_device_stack_configuration_set.c **** 
 338:../STM32Cube_FW_N6/Middlewares/ST/usbx/common/core/src/ux_device_stack_configuration_set.c ****                     /* If none are left, get out of the IAD state machine.  */
 339:../STM32Cube_FW_N6/Middlewares/ST/usbx/common/core/src/ux_device_stack_configuration_set.c ****                     if (iad_number_interfaces == 0)
 340:../STM32Cube_FW_N6/Middlewares/ST/usbx/common/core/src/ux_device_stack_configuration_set.c **** 
 341:../STM32Cube_FW_N6/Middlewares/ST/usbx/common/core/src/ux_device_stack_configuration_set.c ****                         /* We have exhausted the interfaces within the IAD.  */
 342:../STM32Cube_FW_N6/Middlewares/ST/usbx/common/core/src/ux_device_stack_configuration_set.c ****                         iad_flag = UX_FALSE;
 343:../STM32Cube_FW_N6/Middlewares/ST/usbx/common/core/src/ux_device_stack_configuration_set.c **** 
 344:../STM32Cube_FW_N6/Middlewares/ST/usbx/common/core/src/ux_device_stack_configuration_set.c ****                 }
 345:../STM32Cube_FW_N6/Middlewares/ST/usbx/common/core/src/ux_device_stack_configuration_set.c ****                 else
 346:../STM32Cube_FW_N6/Middlewares/ST/usbx/common/core/src/ux_device_stack_configuration_set.c ****                 {
 347:../STM32Cube_FW_N6/Middlewares/ST/usbx/common/core/src/ux_device_stack_configuration_set.c **** 
 348:../STM32Cube_FW_N6/Middlewares/ST/usbx/common/core/src/ux_device_stack_configuration_set.c ****                     /* First interface. Scan the list of classes to find a match.  */
 349:../STM32Cube_FW_N6/Middlewares/ST/usbx/common/core/src/ux_device_stack_configuration_set.c ****                     class_inst =  _ux_system_slave -> ux_system_slave_class_array;
 350:../STM32Cube_FW_N6/Middlewares/ST/usbx/common/core/src/ux_device_stack_configuration_set.c **** 
 351:../STM32Cube_FW_N6/Middlewares/ST/usbx/common/core/src/ux_device_stack_configuration_set.c **** #if UX_MAX_SLAVE_CLASS_DRIVER > 1
 352:../STM32Cube_FW_N6/Middlewares/ST/usbx/common/core/src/ux_device_stack_configuration_set.c ****                     /* Parse all the class drivers.  */
 353:../STM32Cube_FW_N6/Middlewares/ST/usbx/common/core/src/ux_device_stack_configuration_set.c ****                     for (class_index = 0; class_index < _ux_system_slave -> ux_system_slave_max_cla
 354:../STM32Cube_FW_N6/Middlewares/ST/usbx/common/core/src/ux_device_stack_configuration_set.c ****                     {
 355:../STM32Cube_FW_N6/Middlewares/ST/usbx/common/core/src/ux_device_stack_configuration_set.c **** #endif
 356:../STM32Cube_FW_N6/Middlewares/ST/usbx/common/core/src/ux_device_stack_configuration_set.c **** 
 357:../STM32Cube_FW_N6/Middlewares/ST/usbx/common/core/src/ux_device_stack_configuration_set.c ****                         /* Check if this class driver is used.  */
 358:../STM32Cube_FW_N6/Middlewares/ST/usbx/common/core/src/ux_device_stack_configuration_set.c ****                         if (class_inst -> ux_slave_class_status == UX_USED)
 359:../STM32Cube_FW_N6/Middlewares/ST/usbx/common/core/src/ux_device_stack_configuration_set.c ****                         {
 360:../STM32Cube_FW_N6/Middlewares/ST/usbx/common/core/src/ux_device_stack_configuration_set.c **** 
 361:../STM32Cube_FW_N6/Middlewares/ST/usbx/common/core/src/ux_device_stack_configuration_set.c ****                             /* Check if this is the same interface for the same configuration. */
 362:../STM32Cube_FW_N6/Middlewares/ST/usbx/common/core/src/ux_device_stack_configuration_set.c ****                             if ((interface_descriptor.bInterfaceNumber == class_inst -> ux_slave_cl
 363:../STM32Cube_FW_N6/Middlewares/ST/usbx/common/core/src/ux_device_stack_configuration_set.c ****                                     (configuration_value == class_inst -> ux_slave_class_configurat
 364:../STM32Cube_FW_N6/Middlewares/ST/usbx/common/core/src/ux_device_stack_configuration_set.c ****                             {
 365:../STM32Cube_FW_N6/Middlewares/ST/usbx/common/core/src/ux_device_stack_configuration_set.c **** 
 366:../STM32Cube_FW_N6/Middlewares/ST/usbx/common/core/src/ux_device_stack_configuration_set.c ****                                 /* Memorize the class in the class/interface array.  */
 367:../STM32Cube_FW_N6/Middlewares/ST/usbx/common/core/src/ux_device_stack_configuration_set.c ****                                 _ux_system_slave -> ux_system_slave_interface_class_array[interface
 368:../STM32Cube_FW_N6/Middlewares/ST/usbx/common/core/src/ux_device_stack_configuration_set.c **** 
 369:../STM32Cube_FW_N6/Middlewares/ST/usbx/common/core/src/ux_device_stack_configuration_set.c **** #if UX_MAX_SLAVE_CLASS_DRIVER > 1
 370:../STM32Cube_FW_N6/Middlewares/ST/usbx/common/core/src/ux_device_stack_configuration_set.c ****                                 /* We are done here.  */
 371:../STM32Cube_FW_N6/Middlewares/ST/usbx/common/core/src/ux_device_stack_configuration_set.c ****                                 break;
 372:../STM32Cube_FW_N6/Middlewares/ST/usbx/common/core/src/ux_device_stack_configuration_set.c **** #endif
 373:../STM32Cube_FW_N6/Middlewares/ST/usbx/common/core/src/ux_device_stack_configuration_set.c ****                             }
ARM GAS  /tmp/ccc3HROU.s 			page 12


 374:../STM32Cube_FW_N6/Middlewares/ST/usbx/common/core/src/ux_device_stack_configuration_set.c ****                         }
 375:../STM32Cube_FW_N6/Middlewares/ST/usbx/common/core/src/ux_device_stack_configuration_set.c **** 
 376:../STM32Cube_FW_N6/Middlewares/ST/usbx/common/core/src/ux_device_stack_configuration_set.c **** #if UX_MAX_SLAVE_CLASS_DRIVER > 1
 377:../STM32Cube_FW_N6/Middlewares/ST/usbx/common/core/src/ux_device_stack_configuration_set.c ****                         /* Move to the next registered class.  */
 378:../STM32Cube_FW_N6/Middlewares/ST/usbx/common/core/src/ux_device_stack_configuration_set.c ****                         class_inst ++;
 379:../STM32Cube_FW_N6/Middlewares/ST/usbx/common/core/src/ux_device_stack_configuration_set.c ****                     }
 380:../STM32Cube_FW_N6/Middlewares/ST/usbx/common/core/src/ux_device_stack_configuration_set.c **** #endif
 381:../STM32Cube_FW_N6/Middlewares/ST/usbx/common/core/src/ux_device_stack_configuration_set.c ****                 }
 382:../STM32Cube_FW_N6/Middlewares/ST/usbx/common/core/src/ux_device_stack_configuration_set.c **** 
 383:../STM32Cube_FW_N6/Middlewares/ST/usbx/common/core/src/ux_device_stack_configuration_set.c ****                 /* Set the interface.  */
 384:../STM32Cube_FW_N6/Middlewares/ST/usbx/common/core/src/ux_device_stack_configuration_set.c ****                 _ux_device_stack_interface_set(device_framework, device_framework_length, 0);
 385:../STM32Cube_FW_N6/Middlewares/ST/usbx/common/core/src/ux_device_stack_configuration_set.c ****             }
 386:../STM32Cube_FW_N6/Middlewares/ST/usbx/common/core/src/ux_device_stack_configuration_set.c ****         }
 387:../STM32Cube_FW_N6/Middlewares/ST/usbx/common/core/src/ux_device_stack_configuration_set.c **** 
 388:../STM32Cube_FW_N6/Middlewares/ST/usbx/common/core/src/ux_device_stack_configuration_set.c ****         /* Adjust what is left of the device framework.  */
 389:../STM32Cube_FW_N6/Middlewares/ST/usbx/common/core/src/ux_device_stack_configuration_set.c ****         device_framework_length -=  descriptor_length;
 390:../STM32Cube_FW_N6/Middlewares/ST/usbx/common/core/src/ux_device_stack_configuration_set.c **** 
 391:../STM32Cube_FW_N6/Middlewares/ST/usbx/common/core/src/ux_device_stack_configuration_set.c ****         /* Point to the next descriptor.  */
 392:../STM32Cube_FW_N6/Middlewares/ST/usbx/common/core/src/ux_device_stack_configuration_set.c ****         device_framework +=  descriptor_length;
 393:../STM32Cube_FW_N6/Middlewares/ST/usbx/common/core/src/ux_device_stack_configuration_set.c ****     }
 394:../STM32Cube_FW_N6/Middlewares/ST/usbx/common/core/src/ux_device_stack_configuration_set.c **** 
 395:../STM32Cube_FW_N6/Middlewares/ST/usbx/common/core/src/ux_device_stack_configuration_set.c ****     /* Mark the device as configured now. */
 396:../STM32Cube_FW_N6/Middlewares/ST/usbx/common/core/src/ux_device_stack_configuration_set.c ****     device -> ux_slave_device_state =  UX_DEVICE_CONFIGURED;
 217              		.loc 1 396 5 view .LVU83
 218              		.loc 1 396 37 is_stmt 0 view .LVU84
 219 00ae 0322     		movs	r2, #3
 397:../STM32Cube_FW_N6/Middlewares/ST/usbx/common/core/src/ux_device_stack_configuration_set.c **** 
 398:../STM32Cube_FW_N6/Middlewares/ST/usbx/common/core/src/ux_device_stack_configuration_set.c ****     /* The DCD needs to update the device state too.  */
 399:../STM32Cube_FW_N6/Middlewares/ST/usbx/common/core/src/ux_device_stack_configuration_set.c ****     dcd -> ux_slave_dcd_function(dcd, UX_DCD_CHANGE_STATE, (VOID *) UX_DEVICE_CONFIGURED);
 220              		.loc 1 399 5 view .LVU85
 221 00b0 1321     		movs	r1, #19
 222 00b2 2046     		mov	r0, r4
 223 00b4 A369     		ldr	r3, [r4, #24]
 396:../STM32Cube_FW_N6/Middlewares/ST/usbx/common/core/src/ux_device_stack_configuration_set.c **** 
 224              		.loc 1 396 37 view .LVU86
 225 00b6 6262     		str	r2, [r4, #36]
 226              		.loc 1 399 5 is_stmt 1 view .LVU87
 227 00b8 9847     		blx	r3
 228              	.LVL15:
 400:../STM32Cube_FW_N6/Middlewares/ST/usbx/common/core/src/ux_device_stack_configuration_set.c **** 
 401:../STM32Cube_FW_N6/Middlewares/ST/usbx/common/core/src/ux_device_stack_configuration_set.c ****     /* Configuration mounted. */
 402:../STM32Cube_FW_N6/Middlewares/ST/usbx/common/core/src/ux_device_stack_configuration_set.c ****     return(UX_SUCCESS);
 229              		.loc 1 402 5 view .LVU88
 230              	.L3:
 125:../STM32Cube_FW_N6/Middlewares/ST/usbx/common/core/src/ux_device_stack_configuration_set.c **** 
 231              		.loc 1 125 15 is_stmt 0 view .LVU89
 232 00ba 0020     		movs	r0, #0
 233              	.L1:
 403:../STM32Cube_FW_N6/Middlewares/ST/usbx/common/core/src/ux_device_stack_configuration_set.c **** }
 234              		.loc 1 403 1 view .LVU90
 235 00bc 15B0     		add	sp, sp, #84
 236              		.cfi_remember_state
 237              		.cfi_def_cfa_offset 36
 238              		@ sp needed
 239 00be BDE8F08F 		pop	{r4, r5, r6, r7, r8, r9, r10, fp, pc}
 240              	.LVL16:
 241              	.L10:
ARM GAS  /tmp/ccc3HROU.s 			page 13


 242              		.cfi_restore_state
 172:../STM32Cube_FW_N6/Middlewares/ST/usbx/common/core/src/ux_device_stack_configuration_set.c **** 
 243              		.loc 1 172 9 is_stmt 1 view .LVU91
 180:../STM32Cube_FW_N6/Middlewares/ST/usbx/common/core/src/ux_device_stack_configuration_set.c ****             class_command.ux_slave_class_command_interface =  (VOID *) interface_ptr;
 244              		.loc 1 180 58 is_stmt 0 view .LVU92
 245 00c2 4FF00308 		mov	r8, #3
 172:../STM32Cube_FW_N6/Middlewares/ST/usbx/common/core/src/ux_device_stack_configuration_set.c **** 
 246              		.loc 1 172 23 view .LVU93
 247 00c6 D4F8B460 		ldr	r6, [r4, #180]
 248              	.LVL17:
 176:../STM32Cube_FW_N6/Middlewares/ST/usbx/common/core/src/ux_device_stack_configuration_set.c ****         {
 249              		.loc 1 176 9 is_stmt 1 view .LVU94
 250              	.L13:
 176:../STM32Cube_FW_N6/Middlewares/ST/usbx/common/core/src/ux_device_stack_configuration_set.c ****         {
 251              		.loc 1 176 30 view .LVU95
 252 00ca 002E     		cmp	r6, #0
 253 00cc C5D0     		beq	.L16
 180:../STM32Cube_FW_N6/Middlewares/ST/usbx/common/core/src/ux_device_stack_configuration_set.c ****             class_command.ux_slave_class_command_interface =  (VOID *) interface_ptr;
 254              		.loc 1 180 13 view .LVU96
 184:../STM32Cube_FW_N6/Middlewares/ST/usbx/common/core/src/ux_device_stack_configuration_set.c **** 
 255              		.loc 1 184 24 is_stmt 0 view .LVU97
 256 00ce 7368     		ldr	r3, [r6, #4]
 180:../STM32Cube_FW_N6/Middlewares/ST/usbx/common/core/src/ux_device_stack_configuration_set.c ****             class_command.ux_slave_class_command_interface =  (VOID *) interface_ptr;
 257              		.loc 1 180 58 view .LVU98
 258 00d0 CDF82480 		str	r8, [sp, #36]
 181:../STM32Cube_FW_N6/Middlewares/ST/usbx/common/core/src/ux_device_stack_configuration_set.c **** 
 259              		.loc 1 181 13 is_stmt 1 view .LVU99
 181:../STM32Cube_FW_N6/Middlewares/ST/usbx/common/core/src/ux_device_stack_configuration_set.c **** 
 260              		.loc 1 181 60 is_stmt 0 view .LVU100
 261 00d4 0B96     		str	r6, [sp, #44]
 184:../STM32Cube_FW_N6/Middlewares/ST/usbx/common/core/src/ux_device_stack_configuration_set.c **** 
 262              		.loc 1 184 13 is_stmt 1 view .LVU101
 263              	.LVL18:
 187:../STM32Cube_FW_N6/Middlewares/ST/usbx/common/core/src/ux_device_stack_configuration_set.c **** 
 264              		.loc 1 187 13 view .LVU102
 187:../STM32Cube_FW_N6/Middlewares/ST/usbx/common/core/src/ux_device_stack_configuration_set.c **** 
 265              		.loc 1 187 60 is_stmt 0 view .LVU103
 266 00d6 1193     		str	r3, [sp, #68]
 190:../STM32Cube_FW_N6/Middlewares/ST/usbx/common/core/src/ux_device_stack_configuration_set.c **** 
 267              		.loc 1 190 13 is_stmt 1 view .LVU104
 190:../STM32Cube_FW_N6/Middlewares/ST/usbx/common/core/src/ux_device_stack_configuration_set.c **** 
 268              		.loc 1 190 16 is_stmt 0 view .LVU105
 269 00d8 13B1     		cbz	r3, .L14
 193:../STM32Cube_FW_N6/Middlewares/ST/usbx/common/core/src/ux_device_stack_configuration_set.c **** 
 270              		.loc 1 193 17 is_stmt 1 view .LVU106
 271 00da 5B6C     		ldr	r3, [r3, #68]
 272              	.LVL19:
 193:../STM32Cube_FW_N6/Middlewares/ST/usbx/common/core/src/ux_device_stack_configuration_set.c **** 
 273              		.loc 1 193 17 is_stmt 0 view .LVU107
 274 00dc 09A8     		add	r0, sp, #36
 275 00de 9847     		blx	r3
 276              	.LVL20:
 277              	.L14:
 197:../STM32Cube_FW_N6/Middlewares/ST/usbx/common/core/src/ux_device_stack_configuration_set.c **** #endif
 278              		.loc 1 197 13 is_stmt 1 view .LVU108
 197:../STM32Cube_FW_N6/Middlewares/ST/usbx/common/core/src/ux_device_stack_configuration_set.c **** #endif
 279              		.loc 1 197 28 is_stmt 0 view .LVU109
ARM GAS  /tmp/ccc3HROU.s 			page 14


 280 00e0 D6F81890 		ldr	r9, [r6, #24]
 281              	.LVL21:
 201:../STM32Cube_FW_N6/Middlewares/ST/usbx/common/core/src/ux_device_stack_configuration_set.c **** 
 282              		.loc 1 201 13 is_stmt 1 view .LVU110
 283 00e4 3046     		mov	r0, r6
 284 00e6 FFF7FEFF 		bl	_ux_device_stack_interface_delete
 285              	.LVL22:
 205:../STM32Cube_FW_N6/Middlewares/ST/usbx/common/core/src/ux_device_stack_configuration_set.c ****         }
 286              		.loc 1 205 13 view .LVU111
 205:../STM32Cube_FW_N6/Middlewares/ST/usbx/common/core/src/ux_device_stack_configuration_set.c ****         }
 287              		.loc 1 205 27 is_stmt 0 view .LVU112
 288 00ea 4E46     		mov	r6, r9
 289 00ec EDE7     		b	.L13
 290              	.LVL23:
 291              	.L30:
 250:../STM32Cube_FW_N6/Middlewares/ST/usbx/common/core/src/ux_device_stack_configuration_set.c **** 
 292              		.loc 1 250 9 is_stmt 1 view .LVU113
 250:../STM32Cube_FW_N6/Middlewares/ST/usbx/common/core/src/ux_device_stack_configuration_set.c **** 
 293              		.loc 1 250 27 is_stmt 0 view .LVU114
 294 00ee 2B78     		ldrb	r3, [r5]	@ zero_extendqisi2
 295 00f0 0193     		str	r3, [sp, #4]
 296              	.LVL24:
 253:../STM32Cube_FW_N6/Middlewares/ST/usbx/common/core/src/ux_device_stack_configuration_set.c **** 
 297              		.loc 1 253 9 is_stmt 1 view .LVU115
 253:../STM32Cube_FW_N6/Middlewares/ST/usbx/common/core/src/ux_device_stack_configuration_set.c **** 
 298              		.loc 1 253 25 is_stmt 0 view .LVU116
 299 00f2 6B78     		ldrb	r3, [r5, #1]	@ zero_extendqisi2
 300              	.LVL25:
 256:../STM32Cube_FW_N6/Middlewares/ST/usbx/common/core/src/ux_device_stack_configuration_set.c ****         {
 301              		.loc 1 256 9 is_stmt 1 view .LVU117
 256:../STM32Cube_FW_N6/Middlewares/ST/usbx/common/core/src/ux_device_stack_configuration_set.c ****         {
 302              		.loc 1 256 11 is_stmt 0 view .LVU118
 303 00f4 0B2B     		cmp	r3, #11
 304 00f6 09D1     		bne	.L19
 260:../STM32Cube_FW_N6/Middlewares/ST/usbx/common/core/src/ux_device_stack_configuration_set.c **** 
 305              		.loc 1 260 13 is_stmt 1 view .LVU119
 306              	.LVL26:
 263:../STM32Cube_FW_N6/Middlewares/ST/usbx/common/core/src/ux_device_stack_configuration_set.c **** 
 307              		.loc 1 263 13 view .LVU120
 260:../STM32Cube_FW_N6/Middlewares/ST/usbx/common/core/src/ux_device_stack_configuration_set.c **** 
 308              		.loc 1 260 22 is_stmt 0 view .LVU121
 309 00f8 4FF0010A 		mov	r10, #1
 263:../STM32Cube_FW_N6/Middlewares/ST/usbx/common/core/src/ux_device_stack_configuration_set.c **** 
 310              		.loc 1 263 33 view .LVU122
 311 00fc 95F80290 		ldrb	r9, [r5, #2]	@ zero_extendqisi2
 312              	.LVL27:
 266:../STM32Cube_FW_N6/Middlewares/ST/usbx/common/core/src/ux_device_stack_configuration_set.c ****         }
 313              		.loc 1 266 13 is_stmt 1 view .LVU123
 266:../STM32Cube_FW_N6/Middlewares/ST/usbx/common/core/src/ux_device_stack_configuration_set.c ****         }
 314              		.loc 1 266 35 is_stmt 0 view .LVU124
 315 0100 EE78     		ldrb	r6, [r5, #3]	@ zero_extendqisi2
 316              	.LVL28:
 270:../STM32Cube_FW_N6/Middlewares/ST/usbx/common/core/src/ux_device_stack_configuration_set.c ****         {
 317              		.loc 1 270 9 is_stmt 1 view .LVU125
 318              	.L20:
 389:../STM32Cube_FW_N6/Middlewares/ST/usbx/common/core/src/ux_device_stack_configuration_set.c **** 
 319              		.loc 1 389 9 view .LVU126
ARM GAS  /tmp/ccc3HROU.s 			page 15


 389:../STM32Cube_FW_N6/Middlewares/ST/usbx/common/core/src/ux_device_stack_configuration_set.c **** 
 320              		.loc 1 389 33 is_stmt 0 view .LVU127
 321 0102 019B     		ldr	r3, [sp, #4]
 322 0104 A8EB0308 		sub	r8, r8, r3
 323              	.LVL29:
 392:../STM32Cube_FW_N6/Middlewares/ST/usbx/common/core/src/ux_device_stack_configuration_set.c ****     }
 324              		.loc 1 392 9 is_stmt 1 view .LVU128
 392:../STM32Cube_FW_N6/Middlewares/ST/usbx/common/core/src/ux_device_stack_configuration_set.c ****     }
 325              		.loc 1 392 26 is_stmt 0 view .LVU129
 326 0108 1D44     		add	r5, r5, r3
 327              	.LVL30:
 392:../STM32Cube_FW_N6/Middlewares/ST/usbx/common/core/src/ux_device_stack_configuration_set.c ****     }
 328              		.loc 1 392 26 view .LVU130
 329 010a CDE7     		b	.L18
 330              	.LVL31:
 331              	.L19:
 270:../STM32Cube_FW_N6/Middlewares/ST/usbx/common/core/src/ux_device_stack_configuration_set.c ****         {
 332              		.loc 1 270 9 is_stmt 1 view .LVU131
 270:../STM32Cube_FW_N6/Middlewares/ST/usbx/common/core/src/ux_device_stack_configuration_set.c ****         {
 333              		.loc 1 270 11 is_stmt 0 view .LVU132
 334 010c 042B     		cmp	r3, #4
 335 010e F8D1     		bne	.L20
 274:../STM32Cube_FW_N6/Middlewares/ST/usbx/common/core/src/ux_device_stack_configuration_set.c ****                         _ux_system_interface_descriptor_structure,
 336              		.loc 1 274 13 is_stmt 1 view .LVU133
 337 0110 06AB     		add	r3, sp, #24
 338              	.LVL32:
 274:../STM32Cube_FW_N6/Middlewares/ST/usbx/common/core/src/ux_device_stack_configuration_set.c ****                         _ux_system_interface_descriptor_structure,
 339              		.loc 1 274 13 is_stmt 0 view .LVU134
 340 0112 0922     		movs	r2, #9
 341 0114 2846     		mov	r0, r5
 342 0116 2249     		ldr	r1, .L40+4
 343 0118 FFF7FEFF 		bl	_ux_utility_descriptor_parse
 344              	.LVL33:
 281:../STM32Cube_FW_N6/Middlewares/ST/usbx/common/core/src/ux_device_stack_configuration_set.c ****             {
 345              		.loc 1 281 13 is_stmt 1 view .LVU135
 281:../STM32Cube_FW_N6/Middlewares/ST/usbx/common/core/src/ux_device_stack_configuration_set.c ****             {
 346              		.loc 1 281 16 is_stmt 0 view .LVU136
 347 011c 9DF81B30 		ldrb	r3, [sp, #27]	@ zero_extendqisi2
 348 0120 002B     		cmp	r3, #0
 349 0122 EED1     		bne	.L20
 285:../STM32Cube_FW_N6/Middlewares/ST/usbx/common/core/src/ux_device_stack_configuration_set.c ****                 {
 350              		.loc 1 285 17 is_stmt 1 view .LVU137
 294:../STM32Cube_FW_N6/Middlewares/ST/usbx/common/core/src/ux_device_stack_configuration_set.c **** 
 351              		.loc 1 294 56 is_stmt 0 view .LVU138
 352 0124 DBF80030 		ldr	r3, [fp]
 285:../STM32Cube_FW_N6/Middlewares/ST/usbx/common/core/src/ux_device_stack_configuration_set.c ****                 {
 353              		.loc 1 285 20 view .LVU139
 354 0128 BAF1000F 		cmp	r10, #0
 355 012c 24D0     		beq	.L23
 290:../STM32Cube_FW_N6/Middlewares/ST/usbx/common/core/src/ux_device_stack_configuration_set.c ****                     {
 356              		.loc 1 290 21 is_stmt 1 view .LVU140
 290:../STM32Cube_FW_N6/Middlewares/ST/usbx/common/core/src/ux_device_stack_configuration_set.c ****                     {
 357              		.loc 1 290 45 is_stmt 0 view .LVU141
 358 012e 9DF81A20 		ldrb	r2, [sp, #26]	@ zero_extendqisi2
 290:../STM32Cube_FW_N6/Middlewares/ST/usbx/common/core/src/ux_device_stack_configuration_set.c ****                     {
 359              		.loc 1 290 24 view .LVU142
 360 0132 4A45     		cmp	r2, r9
ARM GAS  /tmp/ccc3HROU.s 			page 16


 361 0134 1BD1     		bne	.L24
 294:../STM32Cube_FW_N6/Middlewares/ST/usbx/common/core/src/ux_device_stack_configuration_set.c **** 
 362              		.loc 1 294 25 is_stmt 1 view .LVU143
 294:../STM32Cube_FW_N6/Middlewares/ST/usbx/common/core/src/ux_device_stack_configuration_set.c **** 
 363              		.loc 1 294 36 is_stmt 0 view .LVU144
 364 0136 D3F8FC20 		ldr	r2, [r3, #252]
 365              	.LVL34:
 303:../STM32Cube_FW_N6/Middlewares/ST/usbx/common/core/src/ux_device_stack_configuration_set.c ****                             {
 366              		.loc 1 303 29 is_stmt 1 view .LVU145
 303:../STM32Cube_FW_N6/Middlewares/ST/usbx/common/core/src/ux_device_stack_configuration_set.c ****                             {
 367              		.loc 1 303 32 is_stmt 0 view .LVU146
 368 013a 116C     		ldr	r1, [r2, #64]
 369 013c 0129     		cmp	r1, #1
 370 013e 0AD1     		bne	.L26
 307:../STM32Cube_FW_N6/Middlewares/ST/usbx/common/core/src/ux_device_stack_configuration_set.c ****                                     (configuration_value == class_inst -> ux_slave_class_configurat
 371              		.loc 1 307 33 is_stmt 1 view .LVU147
 307:../STM32Cube_FW_N6/Middlewares/ST/usbx/common/core/src/ux_device_stack_configuration_set.c ****                                     (configuration_value == class_inst -> ux_slave_class_configurat
 372              		.loc 1 307 36 is_stmt 0 view .LVU148
 373 0140 916D     		ldr	r1, [r2, #88]
 374 0142 8945     		cmp	r9, r1
 375 0144 07D1     		bne	.L26
 307:../STM32Cube_FW_N6/Middlewares/ST/usbx/common/core/src/ux_device_stack_configuration_set.c ****                                     (configuration_value == class_inst -> ux_slave_class_configurat
 376              		.loc 1 307 126 discriminator 1 view .LVU149
 377 0146 D16D     		ldr	r1, [r2, #92]
 378 0148 B942     		cmp	r1, r7
 379 014a 04D1     		bne	.L26
 312:../STM32Cube_FW_N6/Middlewares/ST/usbx/common/core/src/ux_device_stack_configuration_set.c **** 
 380              		.loc 1 312 37 is_stmt 1 view .LVU150
 312:../STM32Cube_FW_N6/Middlewares/ST/usbx/common/core/src/ux_device_stack_configuration_set.c **** 
 381              		.loc 1 312 134 is_stmt 0 view .LVU151
 382 014c 09F14001 		add	r1, r9, #64
 383 0150 43F82120 		str	r2, [r3, r1, lsl #2]
 315:../STM32Cube_FW_N6/Middlewares/ST/usbx/common/core/src/ux_device_stack_configuration_set.c **** 
 384              		.loc 1 315 37 is_stmt 1 view .LVU152
 385              	.LVL35:
 315:../STM32Cube_FW_N6/Middlewares/ST/usbx/common/core/src/ux_device_stack_configuration_set.c **** 
 386              		.loc 1 315 51 is_stmt 0 view .LVU153
 387 0154 0092     		str	r2, [sp]
 388              	.LVL36:
 389              	.L26:
 336:../STM32Cube_FW_N6/Middlewares/ST/usbx/common/core/src/ux_device_stack_configuration_set.c **** 
 390              		.loc 1 336 21 is_stmt 1 view .LVU154
 336:../STM32Cube_FW_N6/Middlewares/ST/usbx/common/core/src/ux_device_stack_configuration_set.c **** 
 391              		.loc 1 336 42 is_stmt 0 view .LVU155
 392 0156 013E     		subs	r6, r6, #1
 393              	.LVL37:
 339:../STM32Cube_FW_N6/Middlewares/ST/usbx/common/core/src/ux_device_stack_configuration_set.c **** 
 394              		.loc 1 339 21 is_stmt 1 view .LVU156
 339:../STM32Cube_FW_N6/Middlewares/ST/usbx/common/core/src/ux_device_stack_configuration_set.c **** 
 395              		.loc 1 339 24 is_stmt 0 view .LVU157
 396 0158 B6F1000A 		subs	r10, r6, #0
 397              	.LVL38:
 339:../STM32Cube_FW_N6/Middlewares/ST/usbx/common/core/src/ux_device_stack_configuration_set.c **** 
 398              		.loc 1 339 24 view .LVU158
 399 015c 18BF     		it	ne
 400 015e 4FF0010A 		movne	r10, #1
 401              	.L27:
ARM GAS  /tmp/ccc3HROU.s 			page 17


 402              	.LVL39:
 384:../STM32Cube_FW_N6/Middlewares/ST/usbx/common/core/src/ux_device_stack_configuration_set.c ****             }
 403              		.loc 1 384 17 is_stmt 1 view .LVU159
 404 0162 0022     		movs	r2, #0
 405 0164 4146     		mov	r1, r8
 406 0166 2846     		mov	r0, r5
 407 0168 FFF7FEFF 		bl	_ux_device_stack_interface_set
 408              	.LVL40:
 409 016c C9E7     		b	.L20
 410              	.L24:
 333:../STM32Cube_FW_N6/Middlewares/ST/usbx/common/core/src/ux_device_stack_configuration_set.c **** 
 411              		.loc 1 333 25 view .LVU160
 333:../STM32Cube_FW_N6/Middlewares/ST/usbx/common/core/src/ux_device_stack_configuration_set.c **** 
 412              		.loc 1 333 122 is_stmt 0 view .LVU161
 413 016e 0099     		ldr	r1, [sp]
 414 0170 4032     		adds	r2, r2, #64
 415 0172 43F82210 		str	r1, [r3, r2, lsl #2]
 416 0176 EEE7     		b	.L26
 417              	.L23:
 349:../STM32Cube_FW_N6/Middlewares/ST/usbx/common/core/src/ux_device_stack_configuration_set.c **** 
 418              		.loc 1 349 21 is_stmt 1 view .LVU162
 349:../STM32Cube_FW_N6/Middlewares/ST/usbx/common/core/src/ux_device_stack_configuration_set.c **** 
 419              		.loc 1 349 32 is_stmt 0 view .LVU163
 420 0178 D3F8FC10 		ldr	r1, [r3, #252]
 421              	.LVL41:
 358:../STM32Cube_FW_N6/Middlewares/ST/usbx/common/core/src/ux_device_stack_configuration_set.c ****                         {
 422              		.loc 1 358 25 is_stmt 1 view .LVU164
 358:../STM32Cube_FW_N6/Middlewares/ST/usbx/common/core/src/ux_device_stack_configuration_set.c ****                         {
 423              		.loc 1 358 28 is_stmt 0 view .LVU165
 424 017c 0A6C     		ldr	r2, [r1, #64]
 425 017e 012A     		cmp	r2, #1
 426 0180 EFD1     		bne	.L27
 362:../STM32Cube_FW_N6/Middlewares/ST/usbx/common/core/src/ux_device_stack_configuration_set.c ****                                     (configuration_value == class_inst -> ux_slave_class_configurat
 427              		.loc 1 362 29 is_stmt 1 view .LVU166
 362:../STM32Cube_FW_N6/Middlewares/ST/usbx/common/core/src/ux_device_stack_configuration_set.c ****                                     (configuration_value == class_inst -> ux_slave_class_configurat
 428              		.loc 1 362 54 is_stmt 0 view .LVU167
 429 0182 9DF81A20 		ldrb	r2, [sp, #26]	@ zero_extendqisi2
 362:../STM32Cube_FW_N6/Middlewares/ST/usbx/common/core/src/ux_device_stack_configuration_set.c ****                                     (configuration_value == class_inst -> ux_slave_class_configurat
 430              		.loc 1 362 32 view .LVU168
 431 0186 886D     		ldr	r0, [r1, #88]
 432 0188 8242     		cmp	r2, r0
 433 018a EAD1     		bne	.L27
 362:../STM32Cube_FW_N6/Middlewares/ST/usbx/common/core/src/ux_device_stack_configuration_set.c ****                                     (configuration_value == class_inst -> ux_slave_class_configurat
 434              		.loc 1 362 122 discriminator 1 view .LVU169
 435 018c C86D     		ldr	r0, [r1, #92]
 436 018e B842     		cmp	r0, r7
 367:../STM32Cube_FW_N6/Middlewares/ST/usbx/common/core/src/ux_device_stack_configuration_set.c **** 
 437              		.loc 1 367 33 is_stmt 1 view .LVU170
 367:../STM32Cube_FW_N6/Middlewares/ST/usbx/common/core/src/ux_device_stack_configuration_set.c **** 
 438              		.loc 1 367 130 is_stmt 0 view .LVU171
 439 0190 04BF     		itt	eq
 440 0192 4032     		addeq	r2, r2, #64
 441 0194 43F82210 		streq	r1, [r3, r2, lsl #2]
 442 0198 E3E7     		b	.L27
 443              	.L41:
 444 019a 00BF     		.align	2
 445              	.L40:
ARM GAS  /tmp/ccc3HROU.s 			page 18


 446 019c 00000000 		.word	_ux_system_configuration_descriptor_structure
 447 01a0 00000000 		.word	_ux_system_interface_descriptor_structure
 448 01a4 00000000 		.word	_ux_system_slave
 449              		.cfi_endproc
 450              	.LFE3:
 452              		.text
 453              	.Letext0:
 454              		.file 2 "../STM32Cube_FW_N6/Middlewares/ST/usbx/ports/generic/inc/ux_port.h"
 455              		.file 3 "../STM32Cube_FW_N6/Middlewares/ST/usbx/common/core/inc/ux_api.h"
 456              		.file 4 "../STM32Cube_FW_N6/Middlewares/ST/usbx/common/core/inc/ux_system.h"
 457              		.file 5 "../STM32Cube_FW_N6/Middlewares/ST/usbx/common/core/inc/ux_device_stack.h"
 458              		.file 6 "../STM32Cube_FW_N6/Middlewares/ST/usbx/common/core/inc/ux_utility.h"
ARM GAS  /tmp/ccc3HROU.s 			page 19

