ARM GAS  /tmp/ccvDkMQx.s 			page 1


   1              		.arch armv8.1-m.main
   2              		.fpu fpv5-d16
   3              		.arch_extension dsp
   4              		.arch_extension fp
   5              		.arch_extension fp.dp
   6              		.arch_extension mve
   7              		.arch_extension mve.fp
   8              		.eabi_attribute 5, "cortex-m55"
   9              		.eabi_attribute 28, 1
  10              		.eabi_attribute 20, 1
  11              		.eabi_attribute 21, 1
  12              		.eabi_attribute 23, 3
  13              		.eabi_attribute 24, 1
  14              		.eabi_attribute 25, 1
  15              		.eabi_attribute 26, 1
  16              		.eabi_attribute 30, 4
  17              		.eabi_attribute 34, 1
  18              		.eabi_attribute 38, 1
  19              		.eabi_attribute 18, 4
  20              		.file	"ux_device_class_dpump_write.c"
  21              		.text
  22              	.Ltext0:
  23              		.cfi_sections	.debug_frame
  24              		.file 1 "../STM32Cube_FW_N6/Middlewares/ST/usbx/common/core/src/ux_device_class_dpump_write.c"
  25              		.section	.text._ux_device_class_dpump_write,"ax",%progbits
  26              		.align	1
  27              		.global	_ux_device_class_dpump_write
  28              		.syntax unified
  29              		.thumb
  30              		.thumb_func
  32              	_ux_device_class_dpump_write:
  33              	.LVL0:
  34              	.LFB3:
   1:../STM32Cube_FW_N6/Middlewares/ST/usbx/common/core/src/ux_device_class_dpump_write.c **** /**************************************************************************/
   2:../STM32Cube_FW_N6/Middlewares/ST/usbx/common/core/src/ux_device_class_dpump_write.c **** /*                                                                        */
   3:../STM32Cube_FW_N6/Middlewares/ST/usbx/common/core/src/ux_device_class_dpump_write.c **** /*       Copyright (c) Microsoft Corporation. All rights reserved.        */
   4:../STM32Cube_FW_N6/Middlewares/ST/usbx/common/core/src/ux_device_class_dpump_write.c **** /*                                                                        */
   5:../STM32Cube_FW_N6/Middlewares/ST/usbx/common/core/src/ux_device_class_dpump_write.c **** /*       This software is licensed under the Microsoft Software License   */
   6:../STM32Cube_FW_N6/Middlewares/ST/usbx/common/core/src/ux_device_class_dpump_write.c **** /*       Terms for Microsoft Azure RTOS. Full text of the license can be  */
   7:../STM32Cube_FW_N6/Middlewares/ST/usbx/common/core/src/ux_device_class_dpump_write.c **** /*       found in the LICENSE file at https://aka.ms/AzureRTOS_EULA       */
   8:../STM32Cube_FW_N6/Middlewares/ST/usbx/common/core/src/ux_device_class_dpump_write.c **** /*       and in the root directory of this software.                      */
   9:../STM32Cube_FW_N6/Middlewares/ST/usbx/common/core/src/ux_device_class_dpump_write.c **** /*                                                                        */
  10:../STM32Cube_FW_N6/Middlewares/ST/usbx/common/core/src/ux_device_class_dpump_write.c **** /**************************************************************************/
  11:../STM32Cube_FW_N6/Middlewares/ST/usbx/common/core/src/ux_device_class_dpump_write.c **** 
  12:../STM32Cube_FW_N6/Middlewares/ST/usbx/common/core/src/ux_device_class_dpump_write.c **** /**************************************************************************/
  13:../STM32Cube_FW_N6/Middlewares/ST/usbx/common/core/src/ux_device_class_dpump_write.c **** /**************************************************************************/
  14:../STM32Cube_FW_N6/Middlewares/ST/usbx/common/core/src/ux_device_class_dpump_write.c **** /**                                                                       */ 
  15:../STM32Cube_FW_N6/Middlewares/ST/usbx/common/core/src/ux_device_class_dpump_write.c **** /** USBX Component                                                        */ 
  16:../STM32Cube_FW_N6/Middlewares/ST/usbx/common/core/src/ux_device_class_dpump_write.c **** /**                                                                       */
  17:../STM32Cube_FW_N6/Middlewares/ST/usbx/common/core/src/ux_device_class_dpump_write.c **** /**   Device DPUMP Class                                                  */
  18:../STM32Cube_FW_N6/Middlewares/ST/usbx/common/core/src/ux_device_class_dpump_write.c **** /**                                                                       */
  19:../STM32Cube_FW_N6/Middlewares/ST/usbx/common/core/src/ux_device_class_dpump_write.c **** /**************************************************************************/
  20:../STM32Cube_FW_N6/Middlewares/ST/usbx/common/core/src/ux_device_class_dpump_write.c **** /**************************************************************************/
  21:../STM32Cube_FW_N6/Middlewares/ST/usbx/common/core/src/ux_device_class_dpump_write.c **** 
  22:../STM32Cube_FW_N6/Middlewares/ST/usbx/common/core/src/ux_device_class_dpump_write.c **** #define UX_SOURCE_CODE
  23:../STM32Cube_FW_N6/Middlewares/ST/usbx/common/core/src/ux_device_class_dpump_write.c **** 
  24:../STM32Cube_FW_N6/Middlewares/ST/usbx/common/core/src/ux_device_class_dpump_write.c **** 
ARM GAS  /tmp/ccvDkMQx.s 			page 2


  25:../STM32Cube_FW_N6/Middlewares/ST/usbx/common/core/src/ux_device_class_dpump_write.c **** /* Include necessary system files.  */
  26:../STM32Cube_FW_N6/Middlewares/ST/usbx/common/core/src/ux_device_class_dpump_write.c **** 
  27:../STM32Cube_FW_N6/Middlewares/ST/usbx/common/core/src/ux_device_class_dpump_write.c **** #include "ux_api.h"
  28:../STM32Cube_FW_N6/Middlewares/ST/usbx/common/core/src/ux_device_class_dpump_write.c **** #include "ux_device_class_dpump.h"
  29:../STM32Cube_FW_N6/Middlewares/ST/usbx/common/core/src/ux_device_class_dpump_write.c **** #include "ux_device_stack.h"
  30:../STM32Cube_FW_N6/Middlewares/ST/usbx/common/core/src/ux_device_class_dpump_write.c **** 
  31:../STM32Cube_FW_N6/Middlewares/ST/usbx/common/core/src/ux_device_class_dpump_write.c **** 
  32:../STM32Cube_FW_N6/Middlewares/ST/usbx/common/core/src/ux_device_class_dpump_write.c **** /**************************************************************************/ 
  33:../STM32Cube_FW_N6/Middlewares/ST/usbx/common/core/src/ux_device_class_dpump_write.c **** /*                                                                        */ 
  34:../STM32Cube_FW_N6/Middlewares/ST/usbx/common/core/src/ux_device_class_dpump_write.c **** /*  FUNCTION                                               RELEASE        */ 
  35:../STM32Cube_FW_N6/Middlewares/ST/usbx/common/core/src/ux_device_class_dpump_write.c **** /*                                                                        */ 
  36:../STM32Cube_FW_N6/Middlewares/ST/usbx/common/core/src/ux_device_class_dpump_write.c **** /*    _ux_device_class_dpump_write                        PORTABLE C      */ 
  37:../STM32Cube_FW_N6/Middlewares/ST/usbx/common/core/src/ux_device_class_dpump_write.c **** /*                                                           6.3.0        */
  38:../STM32Cube_FW_N6/Middlewares/ST/usbx/common/core/src/ux_device_class_dpump_write.c **** /*  AUTHOR                                                                */
  39:../STM32Cube_FW_N6/Middlewares/ST/usbx/common/core/src/ux_device_class_dpump_write.c **** /*                                                                        */
  40:../STM32Cube_FW_N6/Middlewares/ST/usbx/common/core/src/ux_device_class_dpump_write.c **** /*    Chaoqiong Xiao, Microsoft Corporation                               */
  41:../STM32Cube_FW_N6/Middlewares/ST/usbx/common/core/src/ux_device_class_dpump_write.c **** /*                                                                        */
  42:../STM32Cube_FW_N6/Middlewares/ST/usbx/common/core/src/ux_device_class_dpump_write.c **** /*  DESCRIPTION                                                           */
  43:../STM32Cube_FW_N6/Middlewares/ST/usbx/common/core/src/ux_device_class_dpump_write.c **** /*                                                                        */ 
  44:../STM32Cube_FW_N6/Middlewares/ST/usbx/common/core/src/ux_device_class_dpump_write.c **** /*    This function writes to  the DPUMP class.                           */ 
  45:../STM32Cube_FW_N6/Middlewares/ST/usbx/common/core/src/ux_device_class_dpump_write.c **** /*                                                                        */ 
  46:../STM32Cube_FW_N6/Middlewares/ST/usbx/common/core/src/ux_device_class_dpump_write.c **** /*  INPUT                                                                 */ 
  47:../STM32Cube_FW_N6/Middlewares/ST/usbx/common/core/src/ux_device_class_dpump_write.c **** /*                                                                        */ 
  48:../STM32Cube_FW_N6/Middlewares/ST/usbx/common/core/src/ux_device_class_dpump_write.c **** /*    dpump                                   Address of dpump class      */ 
  49:../STM32Cube_FW_N6/Middlewares/ST/usbx/common/core/src/ux_device_class_dpump_write.c **** /*                                                instance                */ 
  50:../STM32Cube_FW_N6/Middlewares/ST/usbx/common/core/src/ux_device_class_dpump_write.c **** /*                                                                        */ 
  51:../STM32Cube_FW_N6/Middlewares/ST/usbx/common/core/src/ux_device_class_dpump_write.c **** /*  OUTPUT                                                                */ 
  52:../STM32Cube_FW_N6/Middlewares/ST/usbx/common/core/src/ux_device_class_dpump_write.c **** /*                                                                        */ 
  53:../STM32Cube_FW_N6/Middlewares/ST/usbx/common/core/src/ux_device_class_dpump_write.c **** /*    None                                                                */ 
  54:../STM32Cube_FW_N6/Middlewares/ST/usbx/common/core/src/ux_device_class_dpump_write.c **** /*                                                                        */ 
  55:../STM32Cube_FW_N6/Middlewares/ST/usbx/common/core/src/ux_device_class_dpump_write.c **** /*  CALLS                                                                 */ 
  56:../STM32Cube_FW_N6/Middlewares/ST/usbx/common/core/src/ux_device_class_dpump_write.c **** /*                                                                        */ 
  57:../STM32Cube_FW_N6/Middlewares/ST/usbx/common/core/src/ux_device_class_dpump_write.c **** /*   _ux_utility_memory_copy                                              */ 
  58:../STM32Cube_FW_N6/Middlewares/ST/usbx/common/core/src/ux_device_class_dpump_write.c **** /*   _ux_device_stack_transfer_request                                    */ 
  59:../STM32Cube_FW_N6/Middlewares/ST/usbx/common/core/src/ux_device_class_dpump_write.c **** /*                                                                        */ 
  60:../STM32Cube_FW_N6/Middlewares/ST/usbx/common/core/src/ux_device_class_dpump_write.c **** /*  CALLED BY                                                             */ 
  61:../STM32Cube_FW_N6/Middlewares/ST/usbx/common/core/src/ux_device_class_dpump_write.c **** /*                                                                        */ 
  62:../STM32Cube_FW_N6/Middlewares/ST/usbx/common/core/src/ux_device_class_dpump_write.c **** /*    ThreadX                                                             */ 
  63:../STM32Cube_FW_N6/Middlewares/ST/usbx/common/core/src/ux_device_class_dpump_write.c **** /*                                                                        */ 
  64:../STM32Cube_FW_N6/Middlewares/ST/usbx/common/core/src/ux_device_class_dpump_write.c **** /*  RELEASE HISTORY                                                       */ 
  65:../STM32Cube_FW_N6/Middlewares/ST/usbx/common/core/src/ux_device_class_dpump_write.c **** /*                                                                        */ 
  66:../STM32Cube_FW_N6/Middlewares/ST/usbx/common/core/src/ux_device_class_dpump_write.c **** /*    DATE              NAME                      DESCRIPTION             */ 
  67:../STM32Cube_FW_N6/Middlewares/ST/usbx/common/core/src/ux_device_class_dpump_write.c **** /*                                                                        */ 
  68:../STM32Cube_FW_N6/Middlewares/ST/usbx/common/core/src/ux_device_class_dpump_write.c **** /*  05-19-2020     Chaoqiong Xiao           Initial Version 6.0           */
  69:../STM32Cube_FW_N6/Middlewares/ST/usbx/common/core/src/ux_device_class_dpump_write.c **** /*  09-30-2020     Chaoqiong Xiao           Modified comment(s),          */
  70:../STM32Cube_FW_N6/Middlewares/ST/usbx/common/core/src/ux_device_class_dpump_write.c **** /*                                            verified memset and memcpy  */
  71:../STM32Cube_FW_N6/Middlewares/ST/usbx/common/core/src/ux_device_class_dpump_write.c **** /*                                            cases,                      */
  72:../STM32Cube_FW_N6/Middlewares/ST/usbx/common/core/src/ux_device_class_dpump_write.c **** /*                                            resulting in version 6.1    */
  73:../STM32Cube_FW_N6/Middlewares/ST/usbx/common/core/src/ux_device_class_dpump_write.c **** /*  10-31-2023     Chaoqiong Xiao           Modified comment(s),          */
  74:../STM32Cube_FW_N6/Middlewares/ST/usbx/common/core/src/ux_device_class_dpump_write.c **** /*                                            added a new mode to manage  */
  75:../STM32Cube_FW_N6/Middlewares/ST/usbx/common/core/src/ux_device_class_dpump_write.c **** /*                                            endpoint buffer in classes, */
  76:../STM32Cube_FW_N6/Middlewares/ST/usbx/common/core/src/ux_device_class_dpump_write.c **** /*                                            resulting in version 6.3.0  */
  77:../STM32Cube_FW_N6/Middlewares/ST/usbx/common/core/src/ux_device_class_dpump_write.c **** /*                                                                        */
  78:../STM32Cube_FW_N6/Middlewares/ST/usbx/common/core/src/ux_device_class_dpump_write.c **** /**************************************************************************/
  79:../STM32Cube_FW_N6/Middlewares/ST/usbx/common/core/src/ux_device_class_dpump_write.c **** UINT _ux_device_class_dpump_write(UX_SLAVE_CLASS_DPUMP *dpump, UCHAR *buffer, 
  80:../STM32Cube_FW_N6/Middlewares/ST/usbx/common/core/src/ux_device_class_dpump_write.c ****                                 ULONG requested_length, ULONG *actual_length)
  81:../STM32Cube_FW_N6/Middlewares/ST/usbx/common/core/src/ux_device_class_dpump_write.c **** {
ARM GAS  /tmp/ccvDkMQx.s 			page 3


  35              		.loc 1 81 1 view -0
  36              		.cfi_startproc
  37              		@ args = 0, pretend = 0, frame = 0
  38              		@ frame_needed = 0, uses_anonymous_args = 0
  82:../STM32Cube_FW_N6/Middlewares/ST/usbx/common/core/src/ux_device_class_dpump_write.c **** 
  83:../STM32Cube_FW_N6/Middlewares/ST/usbx/common/core/src/ux_device_class_dpump_write.c **** UX_SLAVE_ENDPOINT           *endpoint;
  39              		.loc 1 83 1 view .LVU1
  84:../STM32Cube_FW_N6/Middlewares/ST/usbx/common/core/src/ux_device_class_dpump_write.c **** UX_SLAVE_DEVICE             *device;
  40              		.loc 1 84 1 view .LVU2
  85:../STM32Cube_FW_N6/Middlewares/ST/usbx/common/core/src/ux_device_class_dpump_write.c **** UX_SLAVE_TRANSFER           *transfer_request;
  41              		.loc 1 85 1 view .LVU3
  86:../STM32Cube_FW_N6/Middlewares/ST/usbx/common/core/src/ux_device_class_dpump_write.c **** ULONG                       local_requested_length;
  42              		.loc 1 86 1 view .LVU4
  87:../STM32Cube_FW_N6/Middlewares/ST/usbx/common/core/src/ux_device_class_dpump_write.c **** UINT                        status;
  43              		.loc 1 87 1 view .LVU5
  88:../STM32Cube_FW_N6/Middlewares/ST/usbx/common/core/src/ux_device_class_dpump_write.c ****             
  89:../STM32Cube_FW_N6/Middlewares/ST/usbx/common/core/src/ux_device_class_dpump_write.c ****     /* If trace is enabled, insert this event into the trace buffer.  */
  90:../STM32Cube_FW_N6/Middlewares/ST/usbx/common/core/src/ux_device_class_dpump_write.c ****     UX_TRACE_IN_LINE_INSERT(UX_TRACE_DEVICE_CLASS_DPUMP_WRITE, dpump, buffer, requested_length, 0, 
  91:../STM32Cube_FW_N6/Middlewares/ST/usbx/common/core/src/ux_device_class_dpump_write.c ****   
  92:../STM32Cube_FW_N6/Middlewares/ST/usbx/common/core/src/ux_device_class_dpump_write.c ****     /* Get the pointer to the device.  */
  93:../STM32Cube_FW_N6/Middlewares/ST/usbx/common/core/src/ux_device_class_dpump_write.c ****     device =  &_ux_system_slave -> ux_system_slave_device;
  44              		.loc 1 93 5 view .LVU6
  81:../STM32Cube_FW_N6/Middlewares/ST/usbx/common/core/src/ux_device_class_dpump_write.c **** 
  45              		.loc 1 81 1 is_stmt 0 view .LVU7
  46 0000 2DE9F047 		push	{r4, r5, r6, r7, r8, r9, r10, lr}
  47              		.cfi_def_cfa_offset 32
  48              		.cfi_offset 4, -32
  49              		.cfi_offset 5, -28
  50              		.cfi_offset 6, -24
  51              		.cfi_offset 7, -20
  52              		.cfi_offset 8, -16
  53              		.cfi_offset 9, -12
  54              		.cfi_offset 10, -8
  55              		.cfi_offset 14, -4
  81:../STM32Cube_FW_N6/Middlewares/ST/usbx/common/core/src/ux_device_class_dpump_write.c **** 
  56              		.loc 1 81 1 view .LVU8
  57 0004 1F46     		mov	r7, r3
  58              		.loc 1 93 33 view .LVU9
  59 0006 234B     		ldr	r3, .L8
  60              	.LVL1:
  81:../STM32Cube_FW_N6/Middlewares/ST/usbx/common/core/src/ux_device_class_dpump_write.c **** 
  61              		.loc 1 81 1 view .LVU10
  62 0008 0E46     		mov	r6, r1
  63              		.loc 1 93 33 view .LVU11
  64 000a D3F80090 		ldr	r9, [r3]
  65              	.LVL2:
  94:../STM32Cube_FW_N6/Middlewares/ST/usbx/common/core/src/ux_device_class_dpump_write.c ****     
  95:../STM32Cube_FW_N6/Middlewares/ST/usbx/common/core/src/ux_device_class_dpump_write.c ****     /* As long as the device is in the CONFIGURED state.  */
  96:../STM32Cube_FW_N6/Middlewares/ST/usbx/common/core/src/ux_device_class_dpump_write.c ****     if (device -> ux_slave_device_state != UX_DEVICE_CONFIGURED)
  66              		.loc 1 96 5 is_stmt 1 view .LVU12
  81:../STM32Cube_FW_N6/Middlewares/ST/usbx/common/core/src/ux_device_class_dpump_write.c **** 
  67              		.loc 1 81 1 is_stmt 0 view .LVU13
  68 000e 1446     		mov	r4, r2
  69              		.loc 1 96 8 view .LVU14
  70 0010 D9F82430 		ldr	r3, [r9, #36]
  71 0014 032B     		cmp	r3, #3
  72 0016 07D0     		beq	.L2
ARM GAS  /tmp/ccvDkMQx.s 			page 4


  97:../STM32Cube_FW_N6/Middlewares/ST/usbx/common/core/src/ux_device_class_dpump_write.c ****     {
  98:../STM32Cube_FW_N6/Middlewares/ST/usbx/common/core/src/ux_device_class_dpump_write.c **** 
  99:../STM32Cube_FW_N6/Middlewares/ST/usbx/common/core/src/ux_device_class_dpump_write.c ****         /* Error trap. */
 100:../STM32Cube_FW_N6/Middlewares/ST/usbx/common/core/src/ux_device_class_dpump_write.c ****         _ux_system_error_handler(UX_SYSTEM_LEVEL_THREAD, UX_SYSTEM_CONTEXT_CLASS, UX_CONFIGURATION_
  73              		.loc 1 100 9 is_stmt 1 view .LVU15
  74 0018 0220     		movs	r0, #2
  75              	.LVL3:
  76              		.loc 1 100 9 is_stmt 0 view .LVU16
  77 001a 5122     		movs	r2, #81
  78              	.LVL4:
  79              		.loc 1 100 9 view .LVU17
  80 001c 0721     		movs	r1, #7
  81              	.LVL5:
  82              		.loc 1 100 9 view .LVU18
  83 001e FFF7FEFF 		bl	_ux_system_error_handler
  84              	.LVL6:
 101:../STM32Cube_FW_N6/Middlewares/ST/usbx/common/core/src/ux_device_class_dpump_write.c **** 
 102:../STM32Cube_FW_N6/Middlewares/ST/usbx/common/core/src/ux_device_class_dpump_write.c ****         /* If trace is enabled, insert this event into the trace buffer.  */
 103:../STM32Cube_FW_N6/Middlewares/ST/usbx/common/core/src/ux_device_class_dpump_write.c ****         UX_TRACE_IN_LINE_INSERT(UX_TRACE_ERROR, UX_CONFIGURATION_HANDLE_UNKNOWN, device, 0, 0, UX_T
 104:../STM32Cube_FW_N6/Middlewares/ST/usbx/common/core/src/ux_device_class_dpump_write.c **** 
 105:../STM32Cube_FW_N6/Middlewares/ST/usbx/common/core/src/ux_device_class_dpump_write.c ****         /* Cannot proceed with command, the interface is down.  */
 106:../STM32Cube_FW_N6/Middlewares/ST/usbx/common/core/src/ux_device_class_dpump_write.c ****         return(UX_CONFIGURATION_HANDLE_UNKNOWN);
  85              		.loc 1 106 9 is_stmt 1 view .LVU19
  86              		.loc 1 106 15 is_stmt 0 view .LVU20
  87 0022 5120     		movs	r0, #81
  88              	.L1:
 107:../STM32Cube_FW_N6/Middlewares/ST/usbx/common/core/src/ux_device_class_dpump_write.c ****     }
 108:../STM32Cube_FW_N6/Middlewares/ST/usbx/common/core/src/ux_device_class_dpump_write.c ****     
 109:../STM32Cube_FW_N6/Middlewares/ST/usbx/common/core/src/ux_device_class_dpump_write.c ****     /* Locate the IN endpoint.  */
 110:../STM32Cube_FW_N6/Middlewares/ST/usbx/common/core/src/ux_device_class_dpump_write.c ****     endpoint =  dpump -> ux_slave_class_dpump_bulkin_endpoint;
 111:../STM32Cube_FW_N6/Middlewares/ST/usbx/common/core/src/ux_device_class_dpump_write.c ****     
 112:../STM32Cube_FW_N6/Middlewares/ST/usbx/common/core/src/ux_device_class_dpump_write.c ****     /* Check endpoint. If NULL, we have not yet received the proper SET_INTERFACE command.  */
 113:../STM32Cube_FW_N6/Middlewares/ST/usbx/common/core/src/ux_device_class_dpump_write.c ****     if (endpoint == UX_NULL)
 114:../STM32Cube_FW_N6/Middlewares/ST/usbx/common/core/src/ux_device_class_dpump_write.c ****     {    
 115:../STM32Cube_FW_N6/Middlewares/ST/usbx/common/core/src/ux_device_class_dpump_write.c **** 
 116:../STM32Cube_FW_N6/Middlewares/ST/usbx/common/core/src/ux_device_class_dpump_write.c ****         /* Error trap. */
 117:../STM32Cube_FW_N6/Middlewares/ST/usbx/common/core/src/ux_device_class_dpump_write.c ****         _ux_system_error_handler(UX_SYSTEM_LEVEL_THREAD, UX_SYSTEM_CONTEXT_CLASS, UX_ENDPOINT_HANDL
 118:../STM32Cube_FW_N6/Middlewares/ST/usbx/common/core/src/ux_device_class_dpump_write.c **** 
 119:../STM32Cube_FW_N6/Middlewares/ST/usbx/common/core/src/ux_device_class_dpump_write.c ****         return(UX_ENDPOINT_HANDLE_UNKNOWN);
 120:../STM32Cube_FW_N6/Middlewares/ST/usbx/common/core/src/ux_device_class_dpump_write.c ****     }
 121:../STM32Cube_FW_N6/Middlewares/ST/usbx/common/core/src/ux_device_class_dpump_write.c ****     
 122:../STM32Cube_FW_N6/Middlewares/ST/usbx/common/core/src/ux_device_class_dpump_write.c ****     /* We are writing to the IN endpoint.  */
 123:../STM32Cube_FW_N6/Middlewares/ST/usbx/common/core/src/ux_device_class_dpump_write.c ****     transfer_request =  &endpoint -> ux_slave_endpoint_transfer_request;
 124:../STM32Cube_FW_N6/Middlewares/ST/usbx/common/core/src/ux_device_class_dpump_write.c **** 
 125:../STM32Cube_FW_N6/Middlewares/ST/usbx/common/core/src/ux_device_class_dpump_write.c ****     /* Reset the actual length.  */
 126:../STM32Cube_FW_N6/Middlewares/ST/usbx/common/core/src/ux_device_class_dpump_write.c ****     *actual_length =  0;
 127:../STM32Cube_FW_N6/Middlewares/ST/usbx/common/core/src/ux_device_class_dpump_write.c **** 
 128:../STM32Cube_FW_N6/Middlewares/ST/usbx/common/core/src/ux_device_class_dpump_write.c ****     /* Set return status to SUCCESS to make certain compilers happy.  */
 129:../STM32Cube_FW_N6/Middlewares/ST/usbx/common/core/src/ux_device_class_dpump_write.c ****     status =  UX_SUCCESS;
 130:../STM32Cube_FW_N6/Middlewares/ST/usbx/common/core/src/ux_device_class_dpump_write.c ****     
 131:../STM32Cube_FW_N6/Middlewares/ST/usbx/common/core/src/ux_device_class_dpump_write.c ****     /* Check if we need more transactions.  */
 132:../STM32Cube_FW_N6/Middlewares/ST/usbx/common/core/src/ux_device_class_dpump_write.c ****     while (device -> ux_slave_device_state == UX_DEVICE_CONFIGURED && requested_length != 0)
 133:../STM32Cube_FW_N6/Middlewares/ST/usbx/common/core/src/ux_device_class_dpump_write.c ****     { 
 134:../STM32Cube_FW_N6/Middlewares/ST/usbx/common/core/src/ux_device_class_dpump_write.c **** 
 135:../STM32Cube_FW_N6/Middlewares/ST/usbx/common/core/src/ux_device_class_dpump_write.c ****         /* Check if we have enough in the local buffer.  */
 136:../STM32Cube_FW_N6/Middlewares/ST/usbx/common/core/src/ux_device_class_dpump_write.c ****         if (requested_length > UX_DEVICE_CLASS_DPUMP_WRITE_BUFFER_SIZE)
 137:../STM32Cube_FW_N6/Middlewares/ST/usbx/common/core/src/ux_device_class_dpump_write.c **** 
ARM GAS  /tmp/ccvDkMQx.s 			page 5


 138:../STM32Cube_FW_N6/Middlewares/ST/usbx/common/core/src/ux_device_class_dpump_write.c ****             /* We have too much to transfer.  */
 139:../STM32Cube_FW_N6/Middlewares/ST/usbx/common/core/src/ux_device_class_dpump_write.c ****             local_requested_length = UX_DEVICE_CLASS_DPUMP_WRITE_BUFFER_SIZE;
 140:../STM32Cube_FW_N6/Middlewares/ST/usbx/common/core/src/ux_device_class_dpump_write.c ****             
 141:../STM32Cube_FW_N6/Middlewares/ST/usbx/common/core/src/ux_device_class_dpump_write.c ****         else
 142:../STM32Cube_FW_N6/Middlewares/ST/usbx/common/core/src/ux_device_class_dpump_write.c ****         
 143:../STM32Cube_FW_N6/Middlewares/ST/usbx/common/core/src/ux_device_class_dpump_write.c ****             /* We can proceed with the demanded length.  */
 144:../STM32Cube_FW_N6/Middlewares/ST/usbx/common/core/src/ux_device_class_dpump_write.c ****             local_requested_length = requested_length;
 145:../STM32Cube_FW_N6/Middlewares/ST/usbx/common/core/src/ux_device_class_dpump_write.c ****                         
 146:../STM32Cube_FW_N6/Middlewares/ST/usbx/common/core/src/ux_device_class_dpump_write.c ****         /* On a out, we copy the buffer to the caller. Not very efficient but it makes the API
 147:../STM32Cube_FW_N6/Middlewares/ST/usbx/common/core/src/ux_device_class_dpump_write.c ****            easier.  */
 148:../STM32Cube_FW_N6/Middlewares/ST/usbx/common/core/src/ux_device_class_dpump_write.c ****         _ux_utility_memory_copy(transfer_request -> ux_slave_transfer_request_data_pointer, 
 149:../STM32Cube_FW_N6/Middlewares/ST/usbx/common/core/src/ux_device_class_dpump_write.c ****                             buffer, local_requested_length); /* Use case of memcpy is verified. */
 150:../STM32Cube_FW_N6/Middlewares/ST/usbx/common/core/src/ux_device_class_dpump_write.c ****     
 151:../STM32Cube_FW_N6/Middlewares/ST/usbx/common/core/src/ux_device_class_dpump_write.c ****         /* Send the request to the device controller.  */
 152:../STM32Cube_FW_N6/Middlewares/ST/usbx/common/core/src/ux_device_class_dpump_write.c ****         status =  _ux_device_stack_transfer_request(transfer_request, local_requested_length, local
 153:../STM32Cube_FW_N6/Middlewares/ST/usbx/common/core/src/ux_device_class_dpump_write.c ****     
 154:../STM32Cube_FW_N6/Middlewares/ST/usbx/common/core/src/ux_device_class_dpump_write.c ****         /* Check the status */    
 155:../STM32Cube_FW_N6/Middlewares/ST/usbx/common/core/src/ux_device_class_dpump_write.c ****         if (status == UX_SUCCESS)
 156:../STM32Cube_FW_N6/Middlewares/ST/usbx/common/core/src/ux_device_class_dpump_write.c ****         {
 157:../STM32Cube_FW_N6/Middlewares/ST/usbx/common/core/src/ux_device_class_dpump_write.c **** 
 158:../STM32Cube_FW_N6/Middlewares/ST/usbx/common/core/src/ux_device_class_dpump_write.c ****             /* Next buffer address.  */
 159:../STM32Cube_FW_N6/Middlewares/ST/usbx/common/core/src/ux_device_class_dpump_write.c ****             buffer += transfer_request -> ux_slave_transfer_request_actual_length;
 160:../STM32Cube_FW_N6/Middlewares/ST/usbx/common/core/src/ux_device_class_dpump_write.c **** 
 161:../STM32Cube_FW_N6/Middlewares/ST/usbx/common/core/src/ux_device_class_dpump_write.c ****             /* Set the length actually received. */
 162:../STM32Cube_FW_N6/Middlewares/ST/usbx/common/core/src/ux_device_class_dpump_write.c ****             *actual_length += transfer_request -> ux_slave_transfer_request_actual_length; 
 163:../STM32Cube_FW_N6/Middlewares/ST/usbx/common/core/src/ux_device_class_dpump_write.c **** 
 164:../STM32Cube_FW_N6/Middlewares/ST/usbx/common/core/src/ux_device_class_dpump_write.c ****             /* Decrement what left has to be done.  */
 165:../STM32Cube_FW_N6/Middlewares/ST/usbx/common/core/src/ux_device_class_dpump_write.c ****             requested_length -= transfer_request -> ux_slave_transfer_request_actual_length;
 166:../STM32Cube_FW_N6/Middlewares/ST/usbx/common/core/src/ux_device_class_dpump_write.c **** 
 167:../STM32Cube_FW_N6/Middlewares/ST/usbx/common/core/src/ux_device_class_dpump_write.c ****         }
 168:../STM32Cube_FW_N6/Middlewares/ST/usbx/common/core/src/ux_device_class_dpump_write.c ****         
 169:../STM32Cube_FW_N6/Middlewares/ST/usbx/common/core/src/ux_device_class_dpump_write.c ****         else
 170:../STM32Cube_FW_N6/Middlewares/ST/usbx/common/core/src/ux_device_class_dpump_write.c ****     
 171:../STM32Cube_FW_N6/Middlewares/ST/usbx/common/core/src/ux_device_class_dpump_write.c ****             /* We had an error, abort.  */
 172:../STM32Cube_FW_N6/Middlewares/ST/usbx/common/core/src/ux_device_class_dpump_write.c ****             return(status);
 173:../STM32Cube_FW_N6/Middlewares/ST/usbx/common/core/src/ux_device_class_dpump_write.c ****     }
 174:../STM32Cube_FW_N6/Middlewares/ST/usbx/common/core/src/ux_device_class_dpump_write.c **** 
 175:../STM32Cube_FW_N6/Middlewares/ST/usbx/common/core/src/ux_device_class_dpump_write.c ****     /* Check why we got here, either completion or device was extracted.  */
 176:../STM32Cube_FW_N6/Middlewares/ST/usbx/common/core/src/ux_device_class_dpump_write.c ****     if (device -> ux_slave_device_state != UX_DEVICE_CONFIGURED)
 177:../STM32Cube_FW_N6/Middlewares/ST/usbx/common/core/src/ux_device_class_dpump_write.c ****     {        
 178:../STM32Cube_FW_N6/Middlewares/ST/usbx/common/core/src/ux_device_class_dpump_write.c **** 
 179:../STM32Cube_FW_N6/Middlewares/ST/usbx/common/core/src/ux_device_class_dpump_write.c ****         /* Error trap. */
 180:../STM32Cube_FW_N6/Middlewares/ST/usbx/common/core/src/ux_device_class_dpump_write.c ****         _ux_system_error_handler(UX_SYSTEM_LEVEL_THREAD, UX_SYSTEM_CONTEXT_CLASS, UX_TRANSFER_NO_AN
 181:../STM32Cube_FW_N6/Middlewares/ST/usbx/common/core/src/ux_device_class_dpump_write.c **** 
 182:../STM32Cube_FW_N6/Middlewares/ST/usbx/common/core/src/ux_device_class_dpump_write.c ****         /* If trace is enabled, insert this event into the trace buffer.  */
 183:../STM32Cube_FW_N6/Middlewares/ST/usbx/common/core/src/ux_device_class_dpump_write.c ****         UX_TRACE_IN_LINE_INSERT(UX_TRACE_ERROR, UX_TRANSFER_NO_ANSWER, transfer_request, 0, 0, UX_T
 184:../STM32Cube_FW_N6/Middlewares/ST/usbx/common/core/src/ux_device_class_dpump_write.c **** 
 185:../STM32Cube_FW_N6/Middlewares/ST/usbx/common/core/src/ux_device_class_dpump_write.c ****         /* Device must have been extracted.  */
 186:../STM32Cube_FW_N6/Middlewares/ST/usbx/common/core/src/ux_device_class_dpump_write.c ****         return (UX_TRANSFER_NO_ANSWER);
 187:../STM32Cube_FW_N6/Middlewares/ST/usbx/common/core/src/ux_device_class_dpump_write.c ****     }
 188:../STM32Cube_FW_N6/Middlewares/ST/usbx/common/core/src/ux_device_class_dpump_write.c ****     else
 189:../STM32Cube_FW_N6/Middlewares/ST/usbx/common/core/src/ux_device_class_dpump_write.c ****     
 190:../STM32Cube_FW_N6/Middlewares/ST/usbx/common/core/src/ux_device_class_dpump_write.c ****         /* Simply return the last transaction result.  */
 191:../STM32Cube_FW_N6/Middlewares/ST/usbx/common/core/src/ux_device_class_dpump_write.c ****         return(status);        
 192:../STM32Cube_FW_N6/Middlewares/ST/usbx/common/core/src/ux_device_class_dpump_write.c ****             
 193:../STM32Cube_FW_N6/Middlewares/ST/usbx/common/core/src/ux_device_class_dpump_write.c **** }
  89              		.loc 1 193 1 view .LVU21
ARM GAS  /tmp/ccvDkMQx.s 			page 6


  90 0024 BDE8F087 		pop	{r4, r5, r6, r7, r8, r9, r10, pc}
  91              	.LVL7:
  92              	.L2:
 110:../STM32Cube_FW_N6/Middlewares/ST/usbx/common/core/src/ux_device_class_dpump_write.c ****     
  93              		.loc 1 110 5 is_stmt 1 view .LVU22
 110:../STM32Cube_FW_N6/Middlewares/ST/usbx/common/core/src/ux_device_class_dpump_write.c ****     
  94              		.loc 1 110 14 is_stmt 0 view .LVU23
  95 0028 C568     		ldr	r5, [r0, #12]
  96              	.LVL8:
 113:../STM32Cube_FW_N6/Middlewares/ST/usbx/common/core/src/ux_device_class_dpump_write.c ****     {    
  97              		.loc 1 113 5 is_stmt 1 view .LVU24
 113:../STM32Cube_FW_N6/Middlewares/ST/usbx/common/core/src/ux_device_class_dpump_write.c ****     {    
  98              		.loc 1 113 8 is_stmt 0 view .LVU25
  99 002a 35B9     		cbnz	r5, .L4
 117:../STM32Cube_FW_N6/Middlewares/ST/usbx/common/core/src/ux_device_class_dpump_write.c **** 
 100              		.loc 1 117 9 is_stmt 1 view .LVU26
 101 002c 0220     		movs	r0, #2
 102              	.LVL9:
 117:../STM32Cube_FW_N6/Middlewares/ST/usbx/common/core/src/ux_device_class_dpump_write.c **** 
 103              		.loc 1 117 9 is_stmt 0 view .LVU27
 104 002e 5322     		movs	r2, #83
 105              	.LVL10:
 117:../STM32Cube_FW_N6/Middlewares/ST/usbx/common/core/src/ux_device_class_dpump_write.c **** 
 106              		.loc 1 117 9 view .LVU28
 107 0030 0721     		movs	r1, #7
 108              	.LVL11:
 117:../STM32Cube_FW_N6/Middlewares/ST/usbx/common/core/src/ux_device_class_dpump_write.c **** 
 109              		.loc 1 117 9 view .LVU29
 110 0032 FFF7FEFF 		bl	_ux_system_error_handler
 111              	.LVL12:
 119:../STM32Cube_FW_N6/Middlewares/ST/usbx/common/core/src/ux_device_class_dpump_write.c ****     }
 112              		.loc 1 119 9 is_stmt 1 view .LVU30
 119:../STM32Cube_FW_N6/Middlewares/ST/usbx/common/core/src/ux_device_class_dpump_write.c ****     }
 113              		.loc 1 119 15 is_stmt 0 view .LVU31
 114 0036 5320     		movs	r0, #83
 115 0038 F4E7     		b	.L1
 116              	.LVL13:
 117              	.L4:
 123:../STM32Cube_FW_N6/Middlewares/ST/usbx/common/core/src/ux_device_class_dpump_write.c **** 
 118              		.loc 1 123 5 is_stmt 1 view .LVU32
 126:../STM32Cube_FW_N6/Middlewares/ST/usbx/common/core/src/ux_device_class_dpump_write.c **** 
 119              		.loc 1 126 20 is_stmt 0 view .LVU33
 120 003a 0023     		movs	r3, #0
 123:../STM32Cube_FW_N6/Middlewares/ST/usbx/common/core/src/ux_device_class_dpump_write.c **** 
 121              		.loc 1 123 22 view .LVU34
 122 003c 05F12008 		add	r8, r5, #32
 123              	.LVL14:
 126:../STM32Cube_FW_N6/Middlewares/ST/usbx/common/core/src/ux_device_class_dpump_write.c **** 
 124              		.loc 1 126 5 is_stmt 1 view .LVU35
 126:../STM32Cube_FW_N6/Middlewares/ST/usbx/common/core/src/ux_device_class_dpump_write.c **** 
 125              		.loc 1 126 20 is_stmt 0 view .LVU36
 126 0040 3B60     		str	r3, [r7]
 129:../STM32Cube_FW_N6/Middlewares/ST/usbx/common/core/src/ux_device_class_dpump_write.c ****     
 127              		.loc 1 129 5 is_stmt 1 view .LVU37
 128              	.LVL15:
 132:../STM32Cube_FW_N6/Middlewares/ST/usbx/common/core/src/ux_device_class_dpump_write.c ****     { 
 129              		.loc 1 132 5 view .LVU38
ARM GAS  /tmp/ccvDkMQx.s 			page 7


 130              	.L5:
 132:../STM32Cube_FW_N6/Middlewares/ST/usbx/common/core/src/ux_device_class_dpump_write.c ****     { 
 131              		.loc 1 132 68 view .LVU39
 132 0042 D9F82430 		ldr	r3, [r9, #36]
 133 0046 032B     		cmp	r3, #3
 134 0048 1CD1     		bne	.L6
 132:../STM32Cube_FW_N6/Middlewares/ST/usbx/common/core/src/ux_device_class_dpump_write.c ****     { 
 135              		.loc 1 132 68 is_stmt 0 discriminator 1 view .LVU40
 136 004a 0CB9     		cbnz	r4, .L7
 191:../STM32Cube_FW_N6/Middlewares/ST/usbx/common/core/src/ux_device_class_dpump_write.c ****             
 137              		.loc 1 191 15 view .LVU41
 138 004c 2046     		mov	r0, r4
 139 004e E9E7     		b	.L1
 140              	.L7:
 136:../STM32Cube_FW_N6/Middlewares/ST/usbx/common/core/src/ux_device_class_dpump_write.c **** 
 141              		.loc 1 136 9 is_stmt 1 view .LVU42
 136:../STM32Cube_FW_N6/Middlewares/ST/usbx/common/core/src/ux_device_class_dpump_write.c **** 
 142              		.loc 1 136 12 is_stmt 0 view .LVU43
 143 0050 B4F5406F 		cmp	r4, #3072
 144 0054 A246     		mov	r10, r4
 145 0056 28BF     		it	cs
 146 0058 4FF4406A 		movcs	r10, #3072
 147              	.LVL16:
 148:../STM32Cube_FW_N6/Middlewares/ST/usbx/common/core/src/ux_device_class_dpump_write.c ****                             buffer, local_requested_length); /* Use case of memcpy is verified. */
 148              		.loc 1 148 9 is_stmt 1 view .LVU44
 149 005c 3146     		mov	r1, r6
 150 005e 5246     		mov	r2, r10
 151 0060 E86A     		ldr	r0, [r5, #44]
 152 0062 FFF7FEFF 		bl	_ux_utility_memory_copy
 153              	.LVL17:
 152:../STM32Cube_FW_N6/Middlewares/ST/usbx/common/core/src/ux_device_class_dpump_write.c ****     
 154              		.loc 1 152 9 view .LVU45
 152:../STM32Cube_FW_N6/Middlewares/ST/usbx/common/core/src/ux_device_class_dpump_write.c ****     
 155              		.loc 1 152 19 is_stmt 0 view .LVU46
 156 0066 5246     		mov	r2, r10
 157 0068 5146     		mov	r1, r10
 158 006a 4046     		mov	r0, r8
 159 006c FFF7FEFF 		bl	_ux_device_stack_transfer_request
 160              	.LVL18:
 155:../STM32Cube_FW_N6/Middlewares/ST/usbx/common/core/src/ux_device_class_dpump_write.c ****         {
 161              		.loc 1 155 9 is_stmt 1 view .LVU47
 155:../STM32Cube_FW_N6/Middlewares/ST/usbx/common/core/src/ux_device_class_dpump_write.c ****         {
 162              		.loc 1 155 12 is_stmt 0 view .LVU48
 163 0070 0028     		cmp	r0, #0
 164 0072 D7D1     		bne	.L1
 159:../STM32Cube_FW_N6/Middlewares/ST/usbx/common/core/src/ux_device_class_dpump_write.c **** 
 165              		.loc 1 159 13 is_stmt 1 view .LVU49
 159:../STM32Cube_FW_N6/Middlewares/ST/usbx/common/core/src/ux_device_class_dpump_write.c **** 
 166              		.loc 1 159 40 is_stmt 0 view .LVU50
 167 0074 AA6B     		ldr	r2, [r5, #56]
 162:../STM32Cube_FW_N6/Middlewares/ST/usbx/common/core/src/ux_device_class_dpump_write.c **** 
 168              		.loc 1 162 28 view .LVU51
 169 0076 3B68     		ldr	r3, [r7]
 159:../STM32Cube_FW_N6/Middlewares/ST/usbx/common/core/src/ux_device_class_dpump_write.c **** 
 170              		.loc 1 159 20 view .LVU52
 171 0078 1644     		add	r6, r6, r2
 172              	.LVL19:
ARM GAS  /tmp/ccvDkMQx.s 			page 8


 162:../STM32Cube_FW_N6/Middlewares/ST/usbx/common/core/src/ux_device_class_dpump_write.c **** 
 173              		.loc 1 162 13 is_stmt 1 view .LVU53
 162:../STM32Cube_FW_N6/Middlewares/ST/usbx/common/core/src/ux_device_class_dpump_write.c **** 
 174              		.loc 1 162 28 is_stmt 0 view .LVU54
 175 007a 1344     		add	r3, r3, r2
 176 007c 3B60     		str	r3, [r7]
 165:../STM32Cube_FW_N6/Middlewares/ST/usbx/common/core/src/ux_device_class_dpump_write.c **** 
 177              		.loc 1 165 13 is_stmt 1 view .LVU55
 165:../STM32Cube_FW_N6/Middlewares/ST/usbx/common/core/src/ux_device_class_dpump_write.c **** 
 178              		.loc 1 165 30 is_stmt 0 view .LVU56
 179 007e AB6B     		ldr	r3, [r5, #56]
 180 0080 E41A     		subs	r4, r4, r3
 181              	.LVL20:
 165:../STM32Cube_FW_N6/Middlewares/ST/usbx/common/core/src/ux_device_class_dpump_write.c **** 
 182              		.loc 1 165 30 view .LVU57
 183 0082 DEE7     		b	.L5
 184              	.LVL21:
 185              	.L6:
 176:../STM32Cube_FW_N6/Middlewares/ST/usbx/common/core/src/ux_device_class_dpump_write.c ****     {        
 186              		.loc 1 176 5 is_stmt 1 view .LVU58
 180:../STM32Cube_FW_N6/Middlewares/ST/usbx/common/core/src/ux_device_class_dpump_write.c **** 
 187              		.loc 1 180 9 view .LVU59
 188 0084 0220     		movs	r0, #2
 189 0086 2222     		movs	r2, #34
 190 0088 0721     		movs	r1, #7
 191 008a FFF7FEFF 		bl	_ux_system_error_handler
 192              	.LVL22:
 186:../STM32Cube_FW_N6/Middlewares/ST/usbx/common/core/src/ux_device_class_dpump_write.c ****     }
 193              		.loc 1 186 9 view .LVU60
 186:../STM32Cube_FW_N6/Middlewares/ST/usbx/common/core/src/ux_device_class_dpump_write.c ****     }
 194              		.loc 1 186 16 is_stmt 0 view .LVU61
 195 008e 2220     		movs	r0, #34
 196 0090 C8E7     		b	.L1
 197              	.L9:
 198 0092 00BF     		.align	2
 199              	.L8:
 200 0094 00000000 		.word	_ux_system_slave
 201              		.cfi_endproc
 202              	.LFE3:
 204              		.text
 205              	.Letext0:
 206              		.file 2 "../STM32Cube_FW_N6/Middlewares/ST/usbx/ports/generic/inc/ux_port.h"
 207              		.file 3 "../STM32Cube_FW_N6/Middlewares/ST/usbx/common/core/inc/ux_api.h"
 208              		.file 4 "../STM32Cube_FW_N6/Middlewares/ST/usbx/common/core/inc/ux_device_class_dpump.h"
 209              		.file 5 "../STM32Cube_FW_N6/Middlewares/ST/usbx/common/core/inc/ux_utility.h"
 210              		.file 6 "../STM32Cube_FW_N6/Middlewares/ST/usbx/common/core/inc/ux_system.h"
 211              		.file 7 "../STM32Cube_FW_N6/Middlewares/ST/usbx/common/core/inc/ux_device_stack.h"
ARM GAS  /tmp/ccvDkMQx.s 			page 9

