ARM GAS  /tmp/cc9qsIp8.s 			page 1


   1              		.arch armv8.1-m.main
   2              		.fpu fpv5-d16
   3              		.arch_extension dsp
   4              		.arch_extension fp
   5              		.arch_extension fp.dp
   6              		.arch_extension mve
   7              		.arch_extension mve.fp
   8              		.eabi_attribute 5, "cortex-m55"
   9              		.eabi_attribute 28, 1
  10              		.eabi_attribute 20, 1
  11              		.eabi_attribute 21, 1
  12              		.eabi_attribute 23, 3
  13              		.eabi_attribute 24, 1
  14              		.eabi_attribute 25, 1
  15              		.eabi_attribute 26, 1
  16              		.eabi_attribute 30, 4
  17              		.eabi_attribute 34, 1
  18              		.eabi_attribute 38, 1
  19              		.eabi_attribute 18, 4
  20              		.file	"ux_dcd_stm32_initialize.c"
  21              		.text
  22              	.Ltext0:
  23              		.cfi_sections	.debug_frame
  24              		.file 1 "../STM32Cube_FW_N6/Middlewares/ST/usbx/common/usbx_stm32_device_controllers/ux_dcd_stm32_
  25              		.section	.text._ux_dcd_stm32_initialize,"ax",%progbits
  26              		.align	1
  27              		.global	_ux_dcd_stm32_initialize
  28              		.syntax unified
  29              		.thumb
  30              		.thumb_func
  32              	_ux_dcd_stm32_initialize:
  33              	.LVL0:
  34              	.LFB885:
   1:../STM32Cube_FW_N6/Middlewares/ST/usbx/common/usbx_stm32_device_controllers/ux_dcd_stm32_initialize.c **** /**************************************************************************/
   2:../STM32Cube_FW_N6/Middlewares/ST/usbx/common/usbx_stm32_device_controllers/ux_dcd_stm32_initialize.c **** /*                                                                        */
   3:../STM32Cube_FW_N6/Middlewares/ST/usbx/common/usbx_stm32_device_controllers/ux_dcd_stm32_initialize.c **** /*       Copyright (c) Microsoft Corporation. All rights reserved.        */
   4:../STM32Cube_FW_N6/Middlewares/ST/usbx/common/usbx_stm32_device_controllers/ux_dcd_stm32_initialize.c **** /*                                                                        */
   5:../STM32Cube_FW_N6/Middlewares/ST/usbx/common/usbx_stm32_device_controllers/ux_dcd_stm32_initialize.c **** /*       This software is licensed under the Microsoft Software License   */
   6:../STM32Cube_FW_N6/Middlewares/ST/usbx/common/usbx_stm32_device_controllers/ux_dcd_stm32_initialize.c **** /*       Terms for Microsoft Azure RTOS. Full text of the license can be  */
   7:../STM32Cube_FW_N6/Middlewares/ST/usbx/common/usbx_stm32_device_controllers/ux_dcd_stm32_initialize.c **** /*       found in the LICENSE file at https://aka.ms/AzureRTOS_EULA       */
   8:../STM32Cube_FW_N6/Middlewares/ST/usbx/common/usbx_stm32_device_controllers/ux_dcd_stm32_initialize.c **** /*       and in the root directory of this software.                      */
   9:../STM32Cube_FW_N6/Middlewares/ST/usbx/common/usbx_stm32_device_controllers/ux_dcd_stm32_initialize.c **** /*                                                                        */
  10:../STM32Cube_FW_N6/Middlewares/ST/usbx/common/usbx_stm32_device_controllers/ux_dcd_stm32_initialize.c **** /**************************************************************************/
  11:../STM32Cube_FW_N6/Middlewares/ST/usbx/common/usbx_stm32_device_controllers/ux_dcd_stm32_initialize.c **** 
  12:../STM32Cube_FW_N6/Middlewares/ST/usbx/common/usbx_stm32_device_controllers/ux_dcd_stm32_initialize.c **** 
  13:../STM32Cube_FW_N6/Middlewares/ST/usbx/common/usbx_stm32_device_controllers/ux_dcd_stm32_initialize.c **** /**************************************************************************/
  14:../STM32Cube_FW_N6/Middlewares/ST/usbx/common/usbx_stm32_device_controllers/ux_dcd_stm32_initialize.c **** /**************************************************************************/
  15:../STM32Cube_FW_N6/Middlewares/ST/usbx/common/usbx_stm32_device_controllers/ux_dcd_stm32_initialize.c **** /**                                                                       */
  16:../STM32Cube_FW_N6/Middlewares/ST/usbx/common/usbx_stm32_device_controllers/ux_dcd_stm32_initialize.c **** /** USBX Component                                                        */
  17:../STM32Cube_FW_N6/Middlewares/ST/usbx/common/usbx_stm32_device_controllers/ux_dcd_stm32_initialize.c **** /**                                                                       */
  18:../STM32Cube_FW_N6/Middlewares/ST/usbx/common/usbx_stm32_device_controllers/ux_dcd_stm32_initialize.c **** /**   STM32 Controller Driver                                             */
  19:../STM32Cube_FW_N6/Middlewares/ST/usbx/common/usbx_stm32_device_controllers/ux_dcd_stm32_initialize.c **** /**                                                                       */
  20:../STM32Cube_FW_N6/Middlewares/ST/usbx/common/usbx_stm32_device_controllers/ux_dcd_stm32_initialize.c **** /**************************************************************************/
  21:../STM32Cube_FW_N6/Middlewares/ST/usbx/common/usbx_stm32_device_controllers/ux_dcd_stm32_initialize.c **** /**************************************************************************/
  22:../STM32Cube_FW_N6/Middlewares/ST/usbx/common/usbx_stm32_device_controllers/ux_dcd_stm32_initialize.c **** 
  23:../STM32Cube_FW_N6/Middlewares/ST/usbx/common/usbx_stm32_device_controllers/ux_dcd_stm32_initialize.c **** #define UX_SOURCE_CODE
  24:../STM32Cube_FW_N6/Middlewares/ST/usbx/common/usbx_stm32_device_controllers/ux_dcd_stm32_initialize.c **** #define UX_DCD_STM32_SOURCE_CODE
ARM GAS  /tmp/cc9qsIp8.s 			page 2


  25:../STM32Cube_FW_N6/Middlewares/ST/usbx/common/usbx_stm32_device_controllers/ux_dcd_stm32_initialize.c **** 
  26:../STM32Cube_FW_N6/Middlewares/ST/usbx/common/usbx_stm32_device_controllers/ux_dcd_stm32_initialize.c **** 
  27:../STM32Cube_FW_N6/Middlewares/ST/usbx/common/usbx_stm32_device_controllers/ux_dcd_stm32_initialize.c **** /* Include necessary system files.  */
  28:../STM32Cube_FW_N6/Middlewares/ST/usbx/common/usbx_stm32_device_controllers/ux_dcd_stm32_initialize.c **** 
  29:../STM32Cube_FW_N6/Middlewares/ST/usbx/common/usbx_stm32_device_controllers/ux_dcd_stm32_initialize.c **** #include "ux_api.h"
  30:../STM32Cube_FW_N6/Middlewares/ST/usbx/common/usbx_stm32_device_controllers/ux_dcd_stm32_initialize.c **** #include "ux_dcd_stm32.h"
  31:../STM32Cube_FW_N6/Middlewares/ST/usbx/common/usbx_stm32_device_controllers/ux_dcd_stm32_initialize.c **** #include "ux_device_stack.h"
  32:../STM32Cube_FW_N6/Middlewares/ST/usbx/common/usbx_stm32_device_controllers/ux_dcd_stm32_initialize.c **** 
  33:../STM32Cube_FW_N6/Middlewares/ST/usbx/common/usbx_stm32_device_controllers/ux_dcd_stm32_initialize.c **** 
  34:../STM32Cube_FW_N6/Middlewares/ST/usbx/common/usbx_stm32_device_controllers/ux_dcd_stm32_initialize.c **** /**************************************************************************/
  35:../STM32Cube_FW_N6/Middlewares/ST/usbx/common/usbx_stm32_device_controllers/ux_dcd_stm32_initialize.c **** /*                                                                        */
  36:../STM32Cube_FW_N6/Middlewares/ST/usbx/common/usbx_stm32_device_controllers/ux_dcd_stm32_initialize.c **** /*  FUNCTION                                               RELEASE        */
  37:../STM32Cube_FW_N6/Middlewares/ST/usbx/common/usbx_stm32_device_controllers/ux_dcd_stm32_initialize.c **** /*                                                                        */
  38:../STM32Cube_FW_N6/Middlewares/ST/usbx/common/usbx_stm32_device_controllers/ux_dcd_stm32_initialize.c **** /*    _ux_dcd_stm32_initialize                            PORTABLE C      */
  39:../STM32Cube_FW_N6/Middlewares/ST/usbx/common/usbx_stm32_device_controllers/ux_dcd_stm32_initialize.c **** /*                                                           6.1          */
  40:../STM32Cube_FW_N6/Middlewares/ST/usbx/common/usbx_stm32_device_controllers/ux_dcd_stm32_initialize.c **** /*  AUTHOR                                                                */
  41:../STM32Cube_FW_N6/Middlewares/ST/usbx/common/usbx_stm32_device_controllers/ux_dcd_stm32_initialize.c **** /*                                                                        */
  42:../STM32Cube_FW_N6/Middlewares/ST/usbx/common/usbx_stm32_device_controllers/ux_dcd_stm32_initialize.c **** /*    Chaoqiong Xiao, Microsoft Corporation                               */
  43:../STM32Cube_FW_N6/Middlewares/ST/usbx/common/usbx_stm32_device_controllers/ux_dcd_stm32_initialize.c **** /*                                                                        */
  44:../STM32Cube_FW_N6/Middlewares/ST/usbx/common/usbx_stm32_device_controllers/ux_dcd_stm32_initialize.c **** /*  DESCRIPTION                                                           */
  45:../STM32Cube_FW_N6/Middlewares/ST/usbx/common/usbx_stm32_device_controllers/ux_dcd_stm32_initialize.c **** /*                                                                        */
  46:../STM32Cube_FW_N6/Middlewares/ST/usbx/common/usbx_stm32_device_controllers/ux_dcd_stm32_initialize.c **** /*    This function initializes the USB device controller of the STM32    */
  47:../STM32Cube_FW_N6/Middlewares/ST/usbx/common/usbx_stm32_device_controllers/ux_dcd_stm32_initialize.c **** /*    microcontroller from ST.                                            */
  48:../STM32Cube_FW_N6/Middlewares/ST/usbx/common/usbx_stm32_device_controllers/ux_dcd_stm32_initialize.c **** /*                                                                        */
  49:../STM32Cube_FW_N6/Middlewares/ST/usbx/common/usbx_stm32_device_controllers/ux_dcd_stm32_initialize.c **** /*    Note: only software structures that are necessary for STM32 HAL to  */
  50:../STM32Cube_FW_N6/Middlewares/ST/usbx/common/usbx_stm32_device_controllers/ux_dcd_stm32_initialize.c **** /*    work is initialized, STM32 HAL APIs should be used to initialize    */
  51:../STM32Cube_FW_N6/Middlewares/ST/usbx/common/usbx_stm32_device_controllers/ux_dcd_stm32_initialize.c **** /*    controller hardware AFTER the function is invoked.                  */
  52:../STM32Cube_FW_N6/Middlewares/ST/usbx/common/usbx_stm32_device_controllers/ux_dcd_stm32_initialize.c **** /*                                                                        */
  53:../STM32Cube_FW_N6/Middlewares/ST/usbx/common/usbx_stm32_device_controllers/ux_dcd_stm32_initialize.c **** /*  INPUT                                                                 */
  54:../STM32Cube_FW_N6/Middlewares/ST/usbx/common/usbx_stm32_device_controllers/ux_dcd_stm32_initialize.c **** /*                                                                        */
  55:../STM32Cube_FW_N6/Middlewares/ST/usbx/common/usbx_stm32_device_controllers/ux_dcd_stm32_initialize.c **** /*    dcd_io                                Address of DCD, not used      */
  56:../STM32Cube_FW_N6/Middlewares/ST/usbx/common/usbx_stm32_device_controllers/ux_dcd_stm32_initialize.c **** /*    parameter                             Parameter, STM32 HAL PCD      */
  57:../STM32Cube_FW_N6/Middlewares/ST/usbx/common/usbx_stm32_device_controllers/ux_dcd_stm32_initialize.c **** /*                                            pointer is expected         */
  58:../STM32Cube_FW_N6/Middlewares/ST/usbx/common/usbx_stm32_device_controllers/ux_dcd_stm32_initialize.c **** /*                                                                        */
  59:../STM32Cube_FW_N6/Middlewares/ST/usbx/common/usbx_stm32_device_controllers/ux_dcd_stm32_initialize.c **** /*  OUTPUT                                                                */
  60:../STM32Cube_FW_N6/Middlewares/ST/usbx/common/usbx_stm32_device_controllers/ux_dcd_stm32_initialize.c **** /*                                                                        */
  61:../STM32Cube_FW_N6/Middlewares/ST/usbx/common/usbx_stm32_device_controllers/ux_dcd_stm32_initialize.c **** /*    Completion Status                                                   */
  62:../STM32Cube_FW_N6/Middlewares/ST/usbx/common/usbx_stm32_device_controllers/ux_dcd_stm32_initialize.c **** /*                                                                        */
  63:../STM32Cube_FW_N6/Middlewares/ST/usbx/common/usbx_stm32_device_controllers/ux_dcd_stm32_initialize.c **** /*  CALLS                                                                 */
  64:../STM32Cube_FW_N6/Middlewares/ST/usbx/common/usbx_stm32_device_controllers/ux_dcd_stm32_initialize.c **** /*                                                                        */
  65:../STM32Cube_FW_N6/Middlewares/ST/usbx/common/usbx_stm32_device_controllers/ux_dcd_stm32_initialize.c **** /*    HAL_PCD_Init                          Initialize LL driver          */
  66:../STM32Cube_FW_N6/Middlewares/ST/usbx/common/usbx_stm32_device_controllers/ux_dcd_stm32_initialize.c **** /*    _ux_utility_memory_allocate           Allocate memory               */
  67:../STM32Cube_FW_N6/Middlewares/ST/usbx/common/usbx_stm32_device_controllers/ux_dcd_stm32_initialize.c **** /*                                                                        */
  68:../STM32Cube_FW_N6/Middlewares/ST/usbx/common/usbx_stm32_device_controllers/ux_dcd_stm32_initialize.c **** /*  CALLED BY                                                             */
  69:../STM32Cube_FW_N6/Middlewares/ST/usbx/common/usbx_stm32_device_controllers/ux_dcd_stm32_initialize.c **** /*                                                                        */
  70:../STM32Cube_FW_N6/Middlewares/ST/usbx/common/usbx_stm32_device_controllers/ux_dcd_stm32_initialize.c **** /*    USBX Device Stack                                                   */
  71:../STM32Cube_FW_N6/Middlewares/ST/usbx/common/usbx_stm32_device_controllers/ux_dcd_stm32_initialize.c **** /*                                                                        */
  72:../STM32Cube_FW_N6/Middlewares/ST/usbx/common/usbx_stm32_device_controllers/ux_dcd_stm32_initialize.c **** /*  RELEASE HISTORY                                                       */
  73:../STM32Cube_FW_N6/Middlewares/ST/usbx/common/usbx_stm32_device_controllers/ux_dcd_stm32_initialize.c **** /*                                                                        */
  74:../STM32Cube_FW_N6/Middlewares/ST/usbx/common/usbx_stm32_device_controllers/ux_dcd_stm32_initialize.c **** /*    DATE              NAME                      DESCRIPTION             */
  75:../STM32Cube_FW_N6/Middlewares/ST/usbx/common/usbx_stm32_device_controllers/ux_dcd_stm32_initialize.c **** /*                                                                        */
  76:../STM32Cube_FW_N6/Middlewares/ST/usbx/common/usbx_stm32_device_controllers/ux_dcd_stm32_initialize.c **** /*  05-19-2020     Chaoqiong Xiao           Initial Version 6.0           */
  77:../STM32Cube_FW_N6/Middlewares/ST/usbx/common/usbx_stm32_device_controllers/ux_dcd_stm32_initialize.c **** /*  09-30-2020     Chaoqiong Xiao           Modified comment(s), used ST  */
  78:../STM32Cube_FW_N6/Middlewares/ST/usbx/common/usbx_stm32_device_controllers/ux_dcd_stm32_initialize.c **** /*                                            HAL library to drive the    */
  79:../STM32Cube_FW_N6/Middlewares/ST/usbx/common/usbx_stm32_device_controllers/ux_dcd_stm32_initialize.c **** /*                                            controller,                 */
  80:../STM32Cube_FW_N6/Middlewares/ST/usbx/common/usbx_stm32_device_controllers/ux_dcd_stm32_initialize.c **** /*                                            resulting in version 6.1    */
  81:../STM32Cube_FW_N6/Middlewares/ST/usbx/common/usbx_stm32_device_controllers/ux_dcd_stm32_initialize.c **** /*                                                                        */
ARM GAS  /tmp/cc9qsIp8.s 			page 3


  82:../STM32Cube_FW_N6/Middlewares/ST/usbx/common/usbx_stm32_device_controllers/ux_dcd_stm32_initialize.c **** /**************************************************************************/
  83:../STM32Cube_FW_N6/Middlewares/ST/usbx/common/usbx_stm32_device_controllers/ux_dcd_stm32_initialize.c **** UINT  _ux_dcd_stm32_initialize(ULONG dcd_io, ULONG parameter)
  84:../STM32Cube_FW_N6/Middlewares/ST/usbx/common/usbx_stm32_device_controllers/ux_dcd_stm32_initialize.c **** {
  35              		.loc 1 84 1 view -0
  36              		.cfi_startproc
  37              		@ args = 0, pretend = 0, frame = 0
  38              		@ frame_needed = 0, uses_anonymous_args = 0
  85:../STM32Cube_FW_N6/Middlewares/ST/usbx/common/usbx_stm32_device_controllers/ux_dcd_stm32_initialize.c **** 
  86:../STM32Cube_FW_N6/Middlewares/ST/usbx/common/usbx_stm32_device_controllers/ux_dcd_stm32_initialize.c **** UX_SLAVE_DCD            *dcd;
  39              		.loc 1 86 1 view .LVU1
  87:../STM32Cube_FW_N6/Middlewares/ST/usbx/common/usbx_stm32_device_controllers/ux_dcd_stm32_initialize.c **** UX_DCD_STM32            *dcd_stm32;
  40              		.loc 1 87 1 view .LVU2
  88:../STM32Cube_FW_N6/Middlewares/ST/usbx/common/usbx_stm32_device_controllers/ux_dcd_stm32_initialize.c **** 
  89:../STM32Cube_FW_N6/Middlewares/ST/usbx/common/usbx_stm32_device_controllers/ux_dcd_stm32_initialize.c **** 
  90:../STM32Cube_FW_N6/Middlewares/ST/usbx/common/usbx_stm32_device_controllers/ux_dcd_stm32_initialize.c ****     UX_PARAMETER_NOT_USED(dcd_io);
  41              		.loc 1 90 5 view .LVU3
  91:../STM32Cube_FW_N6/Middlewares/ST/usbx/common/usbx_stm32_device_controllers/ux_dcd_stm32_initialize.c **** 
  92:../STM32Cube_FW_N6/Middlewares/ST/usbx/common/usbx_stm32_device_controllers/ux_dcd_stm32_initialize.c ****     /* Get the pointer to the DCD.  */
  93:../STM32Cube_FW_N6/Middlewares/ST/usbx/common/usbx_stm32_device_controllers/ux_dcd_stm32_initialize.c ****     dcd =  &_ux_system_slave -> ux_system_slave_dcd;
  42              		.loc 1 93 5 view .LVU4
  84:../STM32Cube_FW_N6/Middlewares/ST/usbx/common/usbx_stm32_device_controllers/ux_dcd_stm32_initialize.c **** 
  43              		.loc 1 84 1 is_stmt 0 view .LVU5
  44 0000 38B5     		push	{r3, r4, r5, lr}
  45              		.cfi_def_cfa_offset 16
  46              		.cfi_offset 3, -16
  47              		.cfi_offset 4, -12
  48              		.cfi_offset 5, -8
  49              		.cfi_offset 14, -4
  50              		.loc 1 93 30 view .LVU6
  51 0002 0B4B     		ldr	r3, .L4
  84:../STM32Cube_FW_N6/Middlewares/ST/usbx/common/usbx_stm32_device_controllers/ux_dcd_stm32_initialize.c **** 
  52              		.loc 1 84 1 view .LVU7
  53 0004 0D46     		mov	r5, r1
  54              		.loc 1 93 30 view .LVU8
  55 0006 1C68     		ldr	r4, [r3]
  56              	.LVL1:
  94:../STM32Cube_FW_N6/Middlewares/ST/usbx/common/usbx_stm32_device_controllers/ux_dcd_stm32_initialize.c **** 
  95:../STM32Cube_FW_N6/Middlewares/ST/usbx/common/usbx_stm32_device_controllers/ux_dcd_stm32_initialize.c ****     /* The controller initialized here is of STM32 type.  */
  96:../STM32Cube_FW_N6/Middlewares/ST/usbx/common/usbx_stm32_device_controllers/ux_dcd_stm32_initialize.c ****     dcd -> ux_slave_dcd_controller_type =  UX_DCD_STM32_SLAVE_CONTROLLER;
  57              		.loc 1 96 5 is_stmt 1 view .LVU9
  97:../STM32Cube_FW_N6/Middlewares/ST/usbx/common/usbx_stm32_device_controllers/ux_dcd_stm32_initialize.c **** 
  98:../STM32Cube_FW_N6/Middlewares/ST/usbx/common/usbx_stm32_device_controllers/ux_dcd_stm32_initialize.c ****     /* Allocate memory for this STM32 DCD instance.  */
  99:../STM32Cube_FW_N6/Middlewares/ST/usbx/common/usbx_stm32_device_controllers/ux_dcd_stm32_initialize.c ****     dcd_stm32 =  _ux_utility_memory_allocate(UX_NO_ALIGN, UX_REGULAR_MEMORY, sizeof(UX_DCD_STM32));
  58              		.loc 1 99 18 is_stmt 0 view .LVU10
  59 0008 0021     		movs	r1, #0
  60              	.LVL2:
  96:../STM32Cube_FW_N6/Middlewares/ST/usbx/common/usbx_stm32_device_controllers/ux_dcd_stm32_initialize.c **** 
  61              		.loc 1 96 41 view .LVU11
  62 000a 8023     		movs	r3, #128
  63              		.loc 1 99 18 view .LVU12
  64 000c 7422     		movs	r2, #116
  65 000e 0846     		mov	r0, r1
  66              	.LVL3:
  96:../STM32Cube_FW_N6/Middlewares/ST/usbx/common/usbx_stm32_device_controllers/ux_dcd_stm32_initialize.c **** 
  67              		.loc 1 96 41 view .LVU13
  68 0010 6360     		str	r3, [r4, #4]
  69              		.loc 1 99 5 is_stmt 1 view .LVU14
ARM GAS  /tmp/cc9qsIp8.s 			page 4


  70              		.loc 1 99 18 is_stmt 0 view .LVU15
  71 0012 FFF7FEFF 		bl	_ux_utility_memory_allocate
  72              	.LVL4:
 100:../STM32Cube_FW_N6/Middlewares/ST/usbx/common/usbx_stm32_device_controllers/ux_dcd_stm32_initialize.c **** 
 101:../STM32Cube_FW_N6/Middlewares/ST/usbx/common/usbx_stm32_device_controllers/ux_dcd_stm32_initialize.c ****     /* Check if memory was properly allocated.  */
 102:../STM32Cube_FW_N6/Middlewares/ST/usbx/common/usbx_stm32_device_controllers/ux_dcd_stm32_initialize.c ****     if(dcd_stm32 == UX_NULL)
  73              		.loc 1 102 5 is_stmt 1 view .LVU16
  74              		.loc 1 102 7 is_stmt 0 view .LVU17
  75 0016 40B1     		cbz	r0, .L3
 103:../STM32Cube_FW_N6/Middlewares/ST/usbx/common/usbx_stm32_device_controllers/ux_dcd_stm32_initialize.c ****         return(UX_MEMORY_INSUFFICIENT);
 104:../STM32Cube_FW_N6/Middlewares/ST/usbx/common/usbx_stm32_device_controllers/ux_dcd_stm32_initialize.c **** 
 105:../STM32Cube_FW_N6/Middlewares/ST/usbx/common/usbx_stm32_device_controllers/ux_dcd_stm32_initialize.c ****     /* Set the pointer to the STM32 DCD.  */
 106:../STM32Cube_FW_N6/Middlewares/ST/usbx/common/usbx_stm32_device_controllers/ux_dcd_stm32_initialize.c ****     dcd -> ux_slave_dcd_controller_hardware =  (VOID *) dcd_stm32;
  76              		.loc 1 106 5 is_stmt 1 view .LVU18
 107:../STM32Cube_FW_N6/Middlewares/ST/usbx/common/usbx_stm32_device_controllers/ux_dcd_stm32_initialize.c **** 
 108:../STM32Cube_FW_N6/Middlewares/ST/usbx/common/usbx_stm32_device_controllers/ux_dcd_stm32_initialize.c ****     /* Set the generic DCD owner for the STM32 DCD.  */
 109:../STM32Cube_FW_N6/Middlewares/ST/usbx/common/usbx_stm32_device_controllers/ux_dcd_stm32_initialize.c ****     dcd_stm32 -> ux_dcd_stm32_dcd_owner =  dcd;
 110:../STM32Cube_FW_N6/Middlewares/ST/usbx/common/usbx_stm32_device_controllers/ux_dcd_stm32_initialize.c **** 
 111:../STM32Cube_FW_N6/Middlewares/ST/usbx/common/usbx_stm32_device_controllers/ux_dcd_stm32_initialize.c ****     /* Initialize the function collector for this DCD.  */
 112:../STM32Cube_FW_N6/Middlewares/ST/usbx/common/usbx_stm32_device_controllers/ux_dcd_stm32_initialize.c ****     dcd -> ux_slave_dcd_function =  _ux_dcd_stm32_function;
  77              		.loc 1 112 34 is_stmt 0 view .LVU19
  78 0018 064B     		ldr	r3, .L4+4
 106:../STM32Cube_FW_N6/Middlewares/ST/usbx/common/usbx_stm32_device_controllers/ux_dcd_stm32_initialize.c **** 
  79              		.loc 1 106 45 view .LVU20
  80 001a E061     		str	r0, [r4, #28]
 109:../STM32Cube_FW_N6/Middlewares/ST/usbx/common/usbx_stm32_device_controllers/ux_dcd_stm32_initialize.c **** 
  81              		.loc 1 109 5 is_stmt 1 view .LVU21
 109:../STM32Cube_FW_N6/Middlewares/ST/usbx/common/usbx_stm32_device_controllers/ux_dcd_stm32_initialize.c **** 
  82              		.loc 1 109 41 is_stmt 0 view .LVU22
  83 001c 0460     		str	r4, [r0]
  84              		.loc 1 112 5 is_stmt 1 view .LVU23
  85              		.loc 1 112 34 is_stmt 0 view .LVU24
  86 001e A361     		str	r3, [r4, #24]
 113:../STM32Cube_FW_N6/Middlewares/ST/usbx/common/usbx_stm32_device_controllers/ux_dcd_stm32_initialize.c **** 
 114:../STM32Cube_FW_N6/Middlewares/ST/usbx/common/usbx_stm32_device_controllers/ux_dcd_stm32_initialize.c ****     dcd_stm32 -> pcd_handle = (PCD_HandleTypeDef *)parameter;
  87              		.loc 1 114 5 is_stmt 1 view .LVU25
 115:../STM32Cube_FW_N6/Middlewares/ST/usbx/common/usbx_stm32_device_controllers/ux_dcd_stm32_initialize.c **** 
 116:../STM32Cube_FW_N6/Middlewares/ST/usbx/common/usbx_stm32_device_controllers/ux_dcd_stm32_initialize.c ****     /* Set the state of the controller to OPERATIONAL now.  */
 117:../STM32Cube_FW_N6/Middlewares/ST/usbx/common/usbx_stm32_device_controllers/ux_dcd_stm32_initialize.c ****     dcd -> ux_slave_dcd_status =  UX_DCD_STATUS_OPERATIONAL;
  88              		.loc 1 117 32 is_stmt 0 view .LVU26
  89 0020 0123     		movs	r3, #1
 114:../STM32Cube_FW_N6/Middlewares/ST/usbx/common/usbx_stm32_device_controllers/ux_dcd_stm32_initialize.c **** 
  90              		.loc 1 114 29 view .LVU27
  91 0022 0567     		str	r5, [r0, #112]
  92              		.loc 1 117 5 is_stmt 1 view .LVU28
 118:../STM32Cube_FW_N6/Middlewares/ST/usbx/common/usbx_stm32_device_controllers/ux_dcd_stm32_initialize.c **** 
 119:../STM32Cube_FW_N6/Middlewares/ST/usbx/common/usbx_stm32_device_controllers/ux_dcd_stm32_initialize.c ****     /* Return successful completion.  */
 120:../STM32Cube_FW_N6/Middlewares/ST/usbx/common/usbx_stm32_device_controllers/ux_dcd_stm32_initialize.c ****     return(UX_SUCCESS);
  93              		.loc 1 120 11 is_stmt 0 view .LVU29
  94 0024 0020     		movs	r0, #0
  95              	.LVL5:
 117:../STM32Cube_FW_N6/Middlewares/ST/usbx/common/usbx_stm32_device_controllers/ux_dcd_stm32_initialize.c **** 
  96              		.loc 1 117 32 view .LVU30
  97 0026 2360     		str	r3, [r4]
  98              		.loc 1 120 5 is_stmt 1 view .LVU31
  99              	.LVL6:
 100              	.L1:
ARM GAS  /tmp/cc9qsIp8.s 			page 5


 121:../STM32Cube_FW_N6/Middlewares/ST/usbx/common/usbx_stm32_device_controllers/ux_dcd_stm32_initialize.c **** }
 101              		.loc 1 121 1 is_stmt 0 view .LVU32
 102 0028 38BD     		pop	{r3, r4, r5, pc}
 103              	.LVL7:
 104              	.L3:
 103:../STM32Cube_FW_N6/Middlewares/ST/usbx/common/usbx_stm32_device_controllers/ux_dcd_stm32_initialize.c **** 
 105              		.loc 1 103 15 view .LVU33
 106 002a 1220     		movs	r0, #18
 107              	.LVL8:
 103:../STM32Cube_FW_N6/Middlewares/ST/usbx/common/usbx_stm32_device_controllers/ux_dcd_stm32_initialize.c **** 
 108              		.loc 1 103 15 view .LVU34
 109 002c FCE7     		b	.L1
 110              	.L5:
 111 002e 00BF     		.align	2
 112              	.L4:
 113 0030 00000000 		.word	_ux_system_slave
 114 0034 00000000 		.word	_ux_dcd_stm32_function
 115              		.cfi_endproc
 116              	.LFE885:
 118              		.text
 119              	.Letext0:
 120              		.file 2 "/opt/st/stm32cubeclt_1.21.0/GNU-tools-for-STM32/arm-none-eabi/include/machine/_default_ty
 121              		.file 3 "/opt/st/stm32cubeclt_1.21.0/GNU-tools-for-STM32/arm-none-eabi/include/sys/_stdint.h"
 122              		.file 4 "../STM32Cube_FW_N6/Middlewares/ST/usbx/ports/generic/inc/ux_port.h"
 123              		.file 5 "../STM32Cube_FW_N6/Middlewares/ST/usbx/common/core/inc/ux_api.h"
 124              		.file 6 "../STM32Cube_FW_N6/Drivers/CMSIS/Device/ST/STM32N6xx/Include/stm32n657xx.h"
 125              		.file 7 "../STM32Cube_FW_N6/Drivers/STM32N6xx_HAL_Driver/Inc/stm32n6xx_hal_def.h"
 126              		.file 8 "../STM32Cube_FW_N6/Drivers/STM32N6xx_HAL_Driver/Inc/stm32n6xx_ll_usb.h"
 127              		.file 9 "../STM32Cube_FW_N6/Drivers/STM32N6xx_HAL_Driver/Inc/stm32n6xx_hal_pcd.h"
 128              		.file 10 "../STM32Cube_FW_N6/Middlewares/ST/usbx/common/usbx_stm32_device_controllers/ux_dcd_stm32
 129              		.file 11 "../STM32Cube_FW_N6/Middlewares/ST/usbx/common/core/inc/ux_utility.h"
 130              		.file 12 "../STM32Cube_FW_N6/Middlewares/ST/usbx/common/core/inc/ux_system.h"
ARM GAS  /tmp/cc9qsIp8.s 			page 6


DEFINED SYMBOLS
                            *ABS*:00000000 ux_dcd_stm32_initialize.c
     /tmp/cc9qsIp8.s:26     .text._ux_dcd_stm32_initialize:00000000 $t
     /tmp/cc9qsIp8.s:32     .text._ux_dcd_stm32_initialize:00000000 _ux_dcd_stm32_initialize
     /tmp/cc9qsIp8.s:113    .text._ux_dcd_stm32_initialize:00000030 $d
                           .group:00000000 wm4.0.43608cab4da50df6ba2dfee95636a2b5
                           .group:00000000 wm4.ux_user.h.114.1a24f49ab4050de1d28cc96eed1ff7ed
                           .group:00000000 wm4._newlib_version.h.4.0eb654b64686e2bd29646258853f6c22
                           .group:00000000 wm4.newlib.h.27.b904f6f8971bd921b436e5701877de32
                           .group:00000000 wm4.ieeefp.h.77.99029d7b8220a2cd73dd257e2bbe825d
                           .group:00000000 wm4.features.h.22.4b93ad64e0d80833c46a20ecae380bb0
                           .group:00000000 wm4.config.h.224.10ee1ad185d877c6e334e6581faab44d
                           .group:00000000 wm4._ansi.h.31.de524f58584151836e90d8620a16f8e8
                           .group:00000000 wm4.stdio.h.31.7c0e28c411445f3f9c5b11accf882760
                           .group:00000000 wm4._default_types.h.6.959254cf5f09734ea7516c89e8bb21bd
                           .group:00000000 wm4.stddef.h.200.ddb4176c6beb7e84f4fc90107f5448c9
                           .group:00000000 wm4.cdefs.h.49.56fd742369e655e7e8a7e365e706e208
                           .group:00000000 wm4.stddef.h.39.1701de33ba710abd106167c689c6bc7c
                           .group:00000000 wm4.stdarg.h.34.3a23a216c0c293b3d2ea2e89281481e6
                           .group:00000000 wm4._types.h.20.dd0d04dca3800a0d2a6129b87f3adbb2
                           .group:00000000 wm4.stddef.h.173.4903093a50a8482cb062b176ea61fac3
                           .group:00000000 wm4._types.h.127.3bdfe3ff8ea2d0985b03d9cbe93480e3
                           .group:00000000 wm4.reent.h.18.25503cdc8b7e55dd0d6ea7b3e5af7a03
                           .group:00000000 wm4.lock.h.2.1461d1fff82dffe8bfddc23307f6484f
                           .group:00000000 wm4.reent.h.78.6d702f69a6d6435d2dbe915b10150b1a
                           .group:00000000 wm4.stdio.h.67.0cf8a9c281ab0b348aef5c02e7e48825
                           .group:00000000 wm4.stdio.h.2.4aa87247282eca6c8f36f9de33d8df1a
                           .group:00000000 wm4.stdio.h.87.a1e20d2651f9bfb66e51bfbe849db00a
                           .group:00000000 wm4.string.h.8.c4b8571ce60dff2817f43fec8b86aecd
                           .group:00000000 wm4.stddef.h.173.1cea4f16a943c8e875db6791959c3141
                           .group:00000000 wm4.string.h.177.59a005921fa78485abc80a0267de5752
                           .group:00000000 wm4._intsup.h.10.48bafbb683905c4daa4565a85aeeb264
                           .group:00000000 wm4._stdint.h.10.c24fa3af3bc1706662bb5593a907e841
                           .group:00000000 wm4.stdint.h.23.d53047a68f4a85177f80b422d52785ed
                           .group:00000000 wm4.ux_port.h.89.ae1c293eff4e595cc9e7c7479e747a1e
                           .group:00000000 wm4.ux_api.h.182.effb4a50eb02f24d1d1ad0a575ebbb0c
                           .group:00000000 wm4.ux_utility.h.69.3aa9e2ccef0e2a41f2d49c9bf54d4b38
                           .group:00000000 wm4.ux_system.h.63.42f8c9cffcc26e0f12b75458b49daed3
                           .group:00000000 wm4.stm32n6xx_hal_conf.h.21.d32f04f7ae387b70d8c80735cac3eea9
                           .group:00000000 wm4.arm_cmse.h.103.a0d15a79c4c9a67da8d5831704d7248e
                           .group:00000000 wm4.stm32n6xx.h.34.c523a1ffdf274a69e8802892c6776332
                           .group:00000000 wm4.stm32n657xx.h.26.acd272cb67318cc1a4791ce2f0720ca6
                           .group:00000000 wm4.cmsis_version.h.30.d128735bf87720f7436b74fefeb5043c
                           .group:00000000 wm4.core_cm55.h.67.25006a3ce7048d64bcddd2996d5fac93
                           .group:00000000 wm4.arm_acle.h.28.a0697f530ff2dbf8c463bef049b82760
                           .group:00000000 wm4.cmsis_gcc.h.39.eba7438bc45fd1a6e6376b63ffe44436
                           .group:00000000 wm4.cmsis_gcc_m.h.24.e590ec51aeda3a1242400351d73f5dce
                           .group:00000000 wm4.core_cm55.h.213.0528f46a674315ef8d35c4477e230358
                           .group:00000000 wm4.armv8m_mpu.h.24.bf28cc25bee30a7ff9d2f7a44a5e2230
                           .group:00000000 wm4.armv8m_pmu.h.24.6ded195d2625055391fd378c0e1d2519
                           .group:00000000 wm4.core_cm55.h.4477.396e822ef855bcfb932819ad48de1c4c
                           .group:00000000 wm4.armv7m_cachel1.h.24.936dd92d6e204a8d0b17d5e4ea4a356e
                           .group:00000000 wm4.stm32n657xx.h.575.78d331c417ec710388ced647138f735f
                           .group:00000000 wm4.stm32n6xx.h.116.b4247d9785590e7c5ec9234ffb2153bf
                           .group:00000000 wm4.stm32_hal_legacy.h.22.e62aae2fd3ae33360b6781c8a72e5b18
                           .group:00000000 wm4.math.h.13.47cfc34cae8a1153323939c4d32cf7c2
                           .group:00000000 wm4.stm32n6xx_hal_def.h.63.3a8f01490e8852464e9fcb69092e9c75
ARM GAS  /tmp/cc9qsIp8.s 			page 7


                           .group:00000000 wm4.stm32n6xx_ll_bus.h.38.2366a295ee4cdb04833997d3787fcd2d
                           .group:00000000 wm4.stm32n6xx_ll_rcc.h.21.656bd5637db608589ad16ea57d39430c
                           .group:00000000 wm4.stm32n6xx_hal_rcc.h.194.69b522b1afdf59a82d05a1f71efe03c7
                           .group:00000000 wm4.stm32n6xx_hal_rcc_ex.h.21.cc6be0a7d168882a1a6f470236ba784c
                           .group:00000000 wm4.stm32n6xx_hal_rcc.h.4361.4b490a4a19722e68c21f88cb8a774a30
                           .group:00000000 wm4.stm32n6xx_hal_gpio.h.21.89d54af663b98eb8fc098192053f7eeb
                           .group:00000000 wm4.stm32n6xx_hal_gpio_ex.h.22.f7e795fb05a69a19b87d946b47c8db8b
                           .group:00000000 wm4.stm32n6xx_hal_rif.h.21.33f2c553a8a3fc14dca8c470b213ab19
                           .group:00000000 wm4.stm32n6xx_hal_dma.h.21.61e48c5c2e8d25d22177834b232fe45c
                           .group:00000000 wm4.stm32n6xx_hal_dma_ex.h.21.82f854ecdb6a463b06d0b4e5c217c368
                           .group:00000000 wm4.stm32n6xx_hal_dma.h.1020.87e2180c009560b617c1f8208140c950
                           .group:00000000 wm4.stm32n6xx_hal_cortex.h.21.f493623cc58f9454ab4eae41e395c5cc
                           .group:00000000 wm4.stm32n6xx_hal_bsec.h.21.1ee89319140541f82434908b4267aa30
                           .group:00000000 wm4.stm32n6xx_hal_dcmipp.h.21.e2b87dce83d7d722d696a597f6ac56bf
                           .group:00000000 wm4.stm32n6xx_hal_dma2d.h.21.75c8d46cdbb72970123b3f34ae2043d7
                           .group:00000000 wm4.stm32n6xx_hal_exti.h.21.e0efb23591051684dc14f1f2431c6aab
                           .group:00000000 wm4.stm32n6xx_hal_i2c.h.21.3f483626ff64c5bf027265bb2e1d1331
                           .group:00000000 wm4.stm32n6xx_hal_i2c_ex.h.21.79e9196c22282cdaf6b4047893638c45
                           .group:00000000 wm4.stm32n6xx_hal_i2c.h.741.1084702632703acc669e4282b3043372
                           .group:00000000 wm4.stm32n6xx_hal_ltdc.h.21.ae1eb09930e7e550e48e418ac5849e4d
                           .group:00000000 wm4.stm32n6xx_hal_ltdc.h.1002.b13ede7fc94ed5ad1c6768a157d2149a
                           .group:00000000 wm4.stm32n6xx_ll_usb.h.21.daaf86158046f2cf02166c495d637480
                           .group:00000000 wm4.stm32n6xx_hal_pcd.h.155.27040aac6844effe2af8c180caf1dd2e
                           .group:00000000 wm4.stm32n6xx_hal_pwr.h.21.cdb73e4869c3fed3fc84f901ec0e5f0a
                           .group:00000000 wm4.stm32n6xx_hal_pwr_ex.h.21.1a673224a58b0c1e5fad8eeda6514208
                           .group:00000000 wm4.stm32n6xx_hal_ramcfg.h.21.a62dfbb4d2c14e9a8c634a215e37bd3d
                           .group:00000000 wm4.stm32n6xx_hal_spi.h.21.9f810303326e2d91749800e9911f8e4d
                           .group:00000000 wm4.stm32n6xx_hal_spi.h.906.8ad9375f39dce09dc0a4db0025ee7a76
                           .group:00000000 wm4.stm32n6xx_hal_uart.h.21.230f549bfa0d5ebfd77bfb311b2aca15
                           .group:00000000 wm4.stm32n6xx_hal_uart_ex.h.21.a0d5511e1d0703b7b5278c8f5472b96d
                           .group:00000000 wm4.stm32n6xx_hal_xspi.h.21.7fd922d3bdb871475cf18436a68935bb
                           .group:00000000 wm4.stm32n6xx_hal_cacheaxi.h.21.7c3375b7903ec42376e4883320997f74
                           .group:00000000 wm4.stm32n6xx_hal.h.81.e79d59262ba173c33cf1d69281830d15
                           .group:00000000 wm4.ux_stm32_config.h.27.198ac9bedc33e24a434a3c88e78e3b60
                           .group:00000000 wm4.ux_dcd_stm32.h.61.7532a11257f6138b1ed1bb924bf825b2

UNDEFINED SYMBOLS
_ux_utility_memory_allocate
_ux_system_slave
_ux_dcd_stm32_function
