ARM GAS  /tmp/ccHoJ7KI.s 			page 1


   1              		.arch armv8.1-m.main
   2              		.fpu fpv5-d16
   3              		.arch_extension dsp
   4              		.arch_extension fp
   5              		.arch_extension fp.dp
   6              		.arch_extension mve
   7              		.arch_extension mve.fp
   8              		.eabi_attribute 5, "cortex-m55"
   9              		.eabi_attribute 28, 1
  10              		.eabi_attribute 20, 1
  11              		.eabi_attribute 21, 1
  12              		.eabi_attribute 23, 3
  13              		.eabi_attribute 24, 1
  14              		.eabi_attribute 25, 1
  15              		.eabi_attribute 26, 1
  16              		.eabi_attribute 30, 4
  17              		.eabi_attribute 34, 1
  18              		.eabi_attribute 38, 1
  19              		.eabi_attribute 18, 4
  20              		.file	"ux_device_stack_interface_set.c"
  21              		.text
  22              	.Ltext0:
  23              		.cfi_sections	.debug_frame
  24              		.file 1 "../STM32Cube_FW_N6/Middlewares/ST/usbx/common/core/src/ux_device_stack_interface_set.c"
  25              		.section	.text._ux_device_stack_interface_set,"ax",%progbits
  26              		.align	1
  27              		.global	_ux_device_stack_interface_set
  28              		.syntax unified
  29              		.thumb
  30              		.thumb_func
  32              	_ux_device_stack_interface_set:
  33              	.LVL0:
  34              	.LFB3:
   1:../STM32Cube_FW_N6/Middlewares/ST/usbx/common/core/src/ux_device_stack_interface_set.c **** /**************************************************************************/
   2:../STM32Cube_FW_N6/Middlewares/ST/usbx/common/core/src/ux_device_stack_interface_set.c **** /*                                                                        */
   3:../STM32Cube_FW_N6/Middlewares/ST/usbx/common/core/src/ux_device_stack_interface_set.c **** /*       Copyright (c) Microsoft Corporation. All rights reserved.        */
   4:../STM32Cube_FW_N6/Middlewares/ST/usbx/common/core/src/ux_device_stack_interface_set.c **** /*                                                                        */
   5:../STM32Cube_FW_N6/Middlewares/ST/usbx/common/core/src/ux_device_stack_interface_set.c **** /*       This software is licensed under the Microsoft Software License   */
   6:../STM32Cube_FW_N6/Middlewares/ST/usbx/common/core/src/ux_device_stack_interface_set.c **** /*       Terms for Microsoft Azure RTOS. Full text of the license can be  */
   7:../STM32Cube_FW_N6/Middlewares/ST/usbx/common/core/src/ux_device_stack_interface_set.c **** /*       found in the LICENSE file at https://aka.ms/AzureRTOS_EULA       */
   8:../STM32Cube_FW_N6/Middlewares/ST/usbx/common/core/src/ux_device_stack_interface_set.c **** /*       and in the root directory of this software.                      */
   9:../STM32Cube_FW_N6/Middlewares/ST/usbx/common/core/src/ux_device_stack_interface_set.c **** /*                                                                        */
  10:../STM32Cube_FW_N6/Middlewares/ST/usbx/common/core/src/ux_device_stack_interface_set.c **** /**************************************************************************/
  11:../STM32Cube_FW_N6/Middlewares/ST/usbx/common/core/src/ux_device_stack_interface_set.c **** 
  12:../STM32Cube_FW_N6/Middlewares/ST/usbx/common/core/src/ux_device_stack_interface_set.c **** 
  13:../STM32Cube_FW_N6/Middlewares/ST/usbx/common/core/src/ux_device_stack_interface_set.c **** /**************************************************************************/
  14:../STM32Cube_FW_N6/Middlewares/ST/usbx/common/core/src/ux_device_stack_interface_set.c **** /**************************************************************************/
  15:../STM32Cube_FW_N6/Middlewares/ST/usbx/common/core/src/ux_device_stack_interface_set.c **** /**                                                                       */ 
  16:../STM32Cube_FW_N6/Middlewares/ST/usbx/common/core/src/ux_device_stack_interface_set.c **** /** USBX Component                                                        */ 
  17:../STM32Cube_FW_N6/Middlewares/ST/usbx/common/core/src/ux_device_stack_interface_set.c **** /**                                                                       */
  18:../STM32Cube_FW_N6/Middlewares/ST/usbx/common/core/src/ux_device_stack_interface_set.c **** /**   Device Stack                                                        */
  19:../STM32Cube_FW_N6/Middlewares/ST/usbx/common/core/src/ux_device_stack_interface_set.c **** /**                                                                       */
  20:../STM32Cube_FW_N6/Middlewares/ST/usbx/common/core/src/ux_device_stack_interface_set.c **** /**************************************************************************/
  21:../STM32Cube_FW_N6/Middlewares/ST/usbx/common/core/src/ux_device_stack_interface_set.c **** /**************************************************************************/
  22:../STM32Cube_FW_N6/Middlewares/ST/usbx/common/core/src/ux_device_stack_interface_set.c **** 
  23:../STM32Cube_FW_N6/Middlewares/ST/usbx/common/core/src/ux_device_stack_interface_set.c **** #define UX_SOURCE_CODE
  24:../STM32Cube_FW_N6/Middlewares/ST/usbx/common/core/src/ux_device_stack_interface_set.c **** 
ARM GAS  /tmp/ccHoJ7KI.s 			page 2


  25:../STM32Cube_FW_N6/Middlewares/ST/usbx/common/core/src/ux_device_stack_interface_set.c **** 
  26:../STM32Cube_FW_N6/Middlewares/ST/usbx/common/core/src/ux_device_stack_interface_set.c **** /* Include necessary system files.  */
  27:../STM32Cube_FW_N6/Middlewares/ST/usbx/common/core/src/ux_device_stack_interface_set.c **** 
  28:../STM32Cube_FW_N6/Middlewares/ST/usbx/common/core/src/ux_device_stack_interface_set.c **** #include "ux_api.h"
  29:../STM32Cube_FW_N6/Middlewares/ST/usbx/common/core/src/ux_device_stack_interface_set.c **** #include "ux_device_stack.h"
  30:../STM32Cube_FW_N6/Middlewares/ST/usbx/common/core/src/ux_device_stack_interface_set.c **** 
  31:../STM32Cube_FW_N6/Middlewares/ST/usbx/common/core/src/ux_device_stack_interface_set.c **** 
  32:../STM32Cube_FW_N6/Middlewares/ST/usbx/common/core/src/ux_device_stack_interface_set.c **** /**************************************************************************/
  33:../STM32Cube_FW_N6/Middlewares/ST/usbx/common/core/src/ux_device_stack_interface_set.c **** /*                                                                        */
  34:../STM32Cube_FW_N6/Middlewares/ST/usbx/common/core/src/ux_device_stack_interface_set.c **** /*  FUNCTION                                               RELEASE        */
  35:../STM32Cube_FW_N6/Middlewares/ST/usbx/common/core/src/ux_device_stack_interface_set.c **** /*                                                                        */
  36:../STM32Cube_FW_N6/Middlewares/ST/usbx/common/core/src/ux_device_stack_interface_set.c **** /*    _ux_device_stack_interface_set                      PORTABLE C      */
  37:../STM32Cube_FW_N6/Middlewares/ST/usbx/common/core/src/ux_device_stack_interface_set.c **** /*                                                           6.1.12       */
  38:../STM32Cube_FW_N6/Middlewares/ST/usbx/common/core/src/ux_device_stack_interface_set.c **** /*  AUTHOR                                                                */
  39:../STM32Cube_FW_N6/Middlewares/ST/usbx/common/core/src/ux_device_stack_interface_set.c **** /*                                                                        */
  40:../STM32Cube_FW_N6/Middlewares/ST/usbx/common/core/src/ux_device_stack_interface_set.c **** /*    Chaoqiong Xiao, Microsoft Corporation                               */
  41:../STM32Cube_FW_N6/Middlewares/ST/usbx/common/core/src/ux_device_stack_interface_set.c **** /*                                                                        */
  42:../STM32Cube_FW_N6/Middlewares/ST/usbx/common/core/src/ux_device_stack_interface_set.c **** /*  DESCRIPTION                                                           */
  43:../STM32Cube_FW_N6/Middlewares/ST/usbx/common/core/src/ux_device_stack_interface_set.c **** /*                                                                        */
  44:../STM32Cube_FW_N6/Middlewares/ST/usbx/common/core/src/ux_device_stack_interface_set.c **** /*    This function sets one alternate setting of one interface and       */
  45:../STM32Cube_FW_N6/Middlewares/ST/usbx/common/core/src/ux_device_stack_interface_set.c **** /*    enable all endpoints associated with this alternate setting.        */
  46:../STM32Cube_FW_N6/Middlewares/ST/usbx/common/core/src/ux_device_stack_interface_set.c **** /*    configuration.                                                      */
  47:../STM32Cube_FW_N6/Middlewares/ST/usbx/common/core/src/ux_device_stack_interface_set.c **** /*                                                                        */
  48:../STM32Cube_FW_N6/Middlewares/ST/usbx/common/core/src/ux_device_stack_interface_set.c **** /*  INPUT                                                                 */
  49:../STM32Cube_FW_N6/Middlewares/ST/usbx/common/core/src/ux_device_stack_interface_set.c **** /*                                                                        */
  50:../STM32Cube_FW_N6/Middlewares/ST/usbx/common/core/src/ux_device_stack_interface_set.c **** /*    device_framework                      Address in device framework   */ 
  51:../STM32Cube_FW_N6/Middlewares/ST/usbx/common/core/src/ux_device_stack_interface_set.c **** /*                                          for selected alternate setting*/
  52:../STM32Cube_FW_N6/Middlewares/ST/usbx/common/core/src/ux_device_stack_interface_set.c **** /*    device_framework_length               Length of device framework    */ 
  53:../STM32Cube_FW_N6/Middlewares/ST/usbx/common/core/src/ux_device_stack_interface_set.c **** /*    alternate_setting_value               Alternate setting             */ 
  54:../STM32Cube_FW_N6/Middlewares/ST/usbx/common/core/src/ux_device_stack_interface_set.c **** /*                                                                        */
  55:../STM32Cube_FW_N6/Middlewares/ST/usbx/common/core/src/ux_device_stack_interface_set.c **** /*  OUTPUT                                                                */
  56:../STM32Cube_FW_N6/Middlewares/ST/usbx/common/core/src/ux_device_stack_interface_set.c **** /*                                                                        */
  57:../STM32Cube_FW_N6/Middlewares/ST/usbx/common/core/src/ux_device_stack_interface_set.c **** /*    Completion Status                                                   */ 
  58:../STM32Cube_FW_N6/Middlewares/ST/usbx/common/core/src/ux_device_stack_interface_set.c **** /*                                                                        */
  59:../STM32Cube_FW_N6/Middlewares/ST/usbx/common/core/src/ux_device_stack_interface_set.c **** /*  CALLS                                                                 */ 
  60:../STM32Cube_FW_N6/Middlewares/ST/usbx/common/core/src/ux_device_stack_interface_set.c **** /*                                                                        */
  61:../STM32Cube_FW_N6/Middlewares/ST/usbx/common/core/src/ux_device_stack_interface_set.c **** /*    (ux_slave_dcd_function)               DCD dispatch function         */ 
  62:../STM32Cube_FW_N6/Middlewares/ST/usbx/common/core/src/ux_device_stack_interface_set.c **** /*    _ux_device_stack_interface_start      Start interface               */ 
  63:../STM32Cube_FW_N6/Middlewares/ST/usbx/common/core/src/ux_device_stack_interface_set.c **** /*    _ux_utility_descriptor_parse          Parse descriptor              */ 
  64:../STM32Cube_FW_N6/Middlewares/ST/usbx/common/core/src/ux_device_stack_interface_set.c **** /*                                                                        */ 
  65:../STM32Cube_FW_N6/Middlewares/ST/usbx/common/core/src/ux_device_stack_interface_set.c **** /*  CALLED BY                                                             */ 
  66:../STM32Cube_FW_N6/Middlewares/ST/usbx/common/core/src/ux_device_stack_interface_set.c **** /*                                                                        */ 
  67:../STM32Cube_FW_N6/Middlewares/ST/usbx/common/core/src/ux_device_stack_interface_set.c **** /*    Application                                                         */ 
  68:../STM32Cube_FW_N6/Middlewares/ST/usbx/common/core/src/ux_device_stack_interface_set.c **** /*    Device Stack                                                        */
  69:../STM32Cube_FW_N6/Middlewares/ST/usbx/common/core/src/ux_device_stack_interface_set.c **** /*                                                                        */ 
  70:../STM32Cube_FW_N6/Middlewares/ST/usbx/common/core/src/ux_device_stack_interface_set.c **** /*  RELEASE HISTORY                                                       */ 
  71:../STM32Cube_FW_N6/Middlewares/ST/usbx/common/core/src/ux_device_stack_interface_set.c **** /*                                                                        */ 
  72:../STM32Cube_FW_N6/Middlewares/ST/usbx/common/core/src/ux_device_stack_interface_set.c **** /*    DATE              NAME                      DESCRIPTION             */ 
  73:../STM32Cube_FW_N6/Middlewares/ST/usbx/common/core/src/ux_device_stack_interface_set.c **** /*                                                                        */ 
  74:../STM32Cube_FW_N6/Middlewares/ST/usbx/common/core/src/ux_device_stack_interface_set.c **** /*  05-19-2020     Chaoqiong Xiao           Initial Version 6.0           */
  75:../STM32Cube_FW_N6/Middlewares/ST/usbx/common/core/src/ux_device_stack_interface_set.c **** /*  09-30-2020     Chaoqiong Xiao           Modified comment(s),          */
  76:../STM32Cube_FW_N6/Middlewares/ST/usbx/common/core/src/ux_device_stack_interface_set.c **** /*                                            optimized based on compile  */
  77:../STM32Cube_FW_N6/Middlewares/ST/usbx/common/core/src/ux_device_stack_interface_set.c **** /*                                            definitions,                */
  78:../STM32Cube_FW_N6/Middlewares/ST/usbx/common/core/src/ux_device_stack_interface_set.c **** /*                                            resulting in version 6.1    */
  79:../STM32Cube_FW_N6/Middlewares/ST/usbx/common/core/src/ux_device_stack_interface_set.c **** /*  10-15-2021     Chaoqiong Xiao           Modified comment(s),          */
  80:../STM32Cube_FW_N6/Middlewares/ST/usbx/common/core/src/ux_device_stack_interface_set.c **** /*                                            calculated payload size,    */
  81:../STM32Cube_FW_N6/Middlewares/ST/usbx/common/core/src/ux_device_stack_interface_set.c **** /*                                            resulting in version 6.1.9  */
ARM GAS  /tmp/ccHoJ7KI.s 			page 3


  82:../STM32Cube_FW_N6/Middlewares/ST/usbx/common/core/src/ux_device_stack_interface_set.c **** /*  07-29-2022     Chaoqiong Xiao           Modified comment(s),          */
  83:../STM32Cube_FW_N6/Middlewares/ST/usbx/common/core/src/ux_device_stack_interface_set.c **** /*                                            fixed parameter/variable    */
  84:../STM32Cube_FW_N6/Middlewares/ST/usbx/common/core/src/ux_device_stack_interface_set.c **** /*                                            names conflict C++ keyword, */
  85:../STM32Cube_FW_N6/Middlewares/ST/usbx/common/core/src/ux_device_stack_interface_set.c **** /*                                            resulting in version 6.1.12 */
  86:../STM32Cube_FW_N6/Middlewares/ST/usbx/common/core/src/ux_device_stack_interface_set.c **** /*                                                                        */
  87:../STM32Cube_FW_N6/Middlewares/ST/usbx/common/core/src/ux_device_stack_interface_set.c **** /**************************************************************************/
  88:../STM32Cube_FW_N6/Middlewares/ST/usbx/common/core/src/ux_device_stack_interface_set.c **** UINT  _ux_device_stack_interface_set(UCHAR * device_framework, ULONG device_framework_length,
  89:../STM32Cube_FW_N6/Middlewares/ST/usbx/common/core/src/ux_device_stack_interface_set.c ****                                                     ULONG alternate_setting_value)
  90:../STM32Cube_FW_N6/Middlewares/ST/usbx/common/core/src/ux_device_stack_interface_set.c **** {
  35              		.loc 1 90 1 view -0
  36              		.cfi_startproc
  37              		@ args = 0, pretend = 0, frame = 0
  38              		@ frame_needed = 0, uses_anonymous_args = 0
  91:../STM32Cube_FW_N6/Middlewares/ST/usbx/common/core/src/ux_device_stack_interface_set.c **** 
  92:../STM32Cube_FW_N6/Middlewares/ST/usbx/common/core/src/ux_device_stack_interface_set.c **** UX_SLAVE_DCD            *dcd;
  39              		.loc 1 92 1 view .LVU1
  93:../STM32Cube_FW_N6/Middlewares/ST/usbx/common/core/src/ux_device_stack_interface_set.c **** UX_SLAVE_DEVICE         *device;
  40              		.loc 1 93 1 view .LVU2
  94:../STM32Cube_FW_N6/Middlewares/ST/usbx/common/core/src/ux_device_stack_interface_set.c **** UX_SLAVE_TRANSFER       *transfer_request;
  41              		.loc 1 94 1 view .LVU3
  95:../STM32Cube_FW_N6/Middlewares/ST/usbx/common/core/src/ux_device_stack_interface_set.c **** UX_SLAVE_INTERFACE      *interface_ptr;
  42              		.loc 1 95 1 view .LVU4
  96:../STM32Cube_FW_N6/Middlewares/ST/usbx/common/core/src/ux_device_stack_interface_set.c **** #if !defined(UX_DEVICE_INITIALIZE_FRAMEWORK_SCAN_DISABLE) || UX_MAX_DEVICE_INTERFACES > 1
  97:../STM32Cube_FW_N6/Middlewares/ST/usbx/common/core/src/ux_device_stack_interface_set.c **** UX_SLAVE_INTERFACE      *interface_link;
  43              		.loc 1 97 1 view .LVU5
  98:../STM32Cube_FW_N6/Middlewares/ST/usbx/common/core/src/ux_device_stack_interface_set.c **** ULONG                   interfaces_pool_number;
  44              		.loc 1 98 1 view .LVU6
  99:../STM32Cube_FW_N6/Middlewares/ST/usbx/common/core/src/ux_device_stack_interface_set.c **** #endif
 100:../STM32Cube_FW_N6/Middlewares/ST/usbx/common/core/src/ux_device_stack_interface_set.c **** UX_SLAVE_ENDPOINT       *endpoint;
  45              		.loc 1 100 1 view .LVU7
 101:../STM32Cube_FW_N6/Middlewares/ST/usbx/common/core/src/ux_device_stack_interface_set.c **** UX_SLAVE_ENDPOINT       *endpoint_link;
  46              		.loc 1 101 1 view .LVU8
 102:../STM32Cube_FW_N6/Middlewares/ST/usbx/common/core/src/ux_device_stack_interface_set.c **** ULONG                   descriptor_length;
  47              		.loc 1 102 1 view .LVU9
 103:../STM32Cube_FW_N6/Middlewares/ST/usbx/common/core/src/ux_device_stack_interface_set.c **** UCHAR                   descriptor_type;
  48              		.loc 1 103 1 view .LVU10
 104:../STM32Cube_FW_N6/Middlewares/ST/usbx/common/core/src/ux_device_stack_interface_set.c **** ULONG                   endpoints_pool_number;
  49              		.loc 1 104 1 view .LVU11
 105:../STM32Cube_FW_N6/Middlewares/ST/usbx/common/core/src/ux_device_stack_interface_set.c **** UINT                    status;
  50              		.loc 1 105 1 view .LVU12
 106:../STM32Cube_FW_N6/Middlewares/ST/usbx/common/core/src/ux_device_stack_interface_set.c **** ULONG                   max_transfer_length, n_trans;
  51              		.loc 1 106 1 view .LVU13
 107:../STM32Cube_FW_N6/Middlewares/ST/usbx/common/core/src/ux_device_stack_interface_set.c **** 
 108:../STM32Cube_FW_N6/Middlewares/ST/usbx/common/core/src/ux_device_stack_interface_set.c ****     UX_PARAMETER_NOT_USED(alternate_setting_value);
  52              		.loc 1 108 5 view .LVU14
 109:../STM32Cube_FW_N6/Middlewares/ST/usbx/common/core/src/ux_device_stack_interface_set.c **** 
 110:../STM32Cube_FW_N6/Middlewares/ST/usbx/common/core/src/ux_device_stack_interface_set.c ****     /* If trace is enabled, insert this event into the trace buffer.  */
 111:../STM32Cube_FW_N6/Middlewares/ST/usbx/common/core/src/ux_device_stack_interface_set.c ****     UX_TRACE_IN_LINE_INSERT(UX_TRACE_DEVICE_STACK_INTERFACE_SET, alternate_setting_value, 0, 0, 0, 
 112:../STM32Cube_FW_N6/Middlewares/ST/usbx/common/core/src/ux_device_stack_interface_set.c **** 
 113:../STM32Cube_FW_N6/Middlewares/ST/usbx/common/core/src/ux_device_stack_interface_set.c ****     /* Get the pointer to the DCD.  */
 114:../STM32Cube_FW_N6/Middlewares/ST/usbx/common/core/src/ux_device_stack_interface_set.c ****     dcd =  &_ux_system_slave -> ux_system_slave_dcd;
  53              		.loc 1 114 5 view .LVU15
  90:../STM32Cube_FW_N6/Middlewares/ST/usbx/common/core/src/ux_device_stack_interface_set.c **** 
  54              		.loc 1 90 1 is_stmt 0 view .LVU16
  55 0000 2DE9F84F 		push	{r3, r4, r5, r6, r7, r8, r9, r10, fp, lr}
  56              		.cfi_def_cfa_offset 40
  57              		.cfi_offset 3, -40
ARM GAS  /tmp/ccHoJ7KI.s 			page 4


  58              		.cfi_offset 4, -36
  59              		.cfi_offset 5, -32
  60              		.cfi_offset 6, -28
  61              		.cfi_offset 7, -24
  62              		.cfi_offset 8, -20
  63              		.cfi_offset 9, -16
  64              		.cfi_offset 10, -12
  65              		.cfi_offset 11, -8
  66              		.cfi_offset 14, -4
  90:../STM32Cube_FW_N6/Middlewares/ST/usbx/common/core/src/ux_device_stack_interface_set.c **** 
  67              		.loc 1 90 1 view .LVU17
  68 0004 0646     		mov	r6, r0
  69 0006 8846     		mov	r8, r1
  70              		.loc 1 114 30 view .LVU18
  71 0008 DFF80891 		ldr	r9, .L42+8
  72 000c D9F80070 		ldr	r7, [r9]
  73              	.LVL1:
 115:../STM32Cube_FW_N6/Middlewares/ST/usbx/common/core/src/ux_device_stack_interface_set.c **** 
 116:../STM32Cube_FW_N6/Middlewares/ST/usbx/common/core/src/ux_device_stack_interface_set.c ****     /* Get the pointer to the device.  */
 117:../STM32Cube_FW_N6/Middlewares/ST/usbx/common/core/src/ux_device_stack_interface_set.c ****     device =  &_ux_system_slave -> ux_system_slave_device;
  74              		.loc 1 117 5 is_stmt 1 view .LVU19
 118:../STM32Cube_FW_N6/Middlewares/ST/usbx/common/core/src/ux_device_stack_interface_set.c **** 
 119:../STM32Cube_FW_N6/Middlewares/ST/usbx/common/core/src/ux_device_stack_interface_set.c ****     /* Find a free interface in the pool and hook it to the 
 120:../STM32Cube_FW_N6/Middlewares/ST/usbx/common/core/src/ux_device_stack_interface_set.c ****        existing interface.  */
 121:../STM32Cube_FW_N6/Middlewares/ST/usbx/common/core/src/ux_device_stack_interface_set.c ****     interface_ptr = device -> ux_slave_device_interfaces_pool;
  75              		.loc 1 121 5 view .LVU20
 122:../STM32Cube_FW_N6/Middlewares/ST/usbx/common/core/src/ux_device_stack_interface_set.c **** 
 123:../STM32Cube_FW_N6/Middlewares/ST/usbx/common/core/src/ux_device_stack_interface_set.c **** #if !defined(UX_DEVICE_INITIALIZE_FRAMEWORK_SCAN_DISABLE) || UX_MAX_DEVICE_INTERFACES > 1
 124:../STM32Cube_FW_N6/Middlewares/ST/usbx/common/core/src/ux_device_stack_interface_set.c ****     interfaces_pool_number = device -> ux_slave_device_interfaces_pool_number;
  76              		.loc 1 124 28 is_stmt 0 view .LVU21
  77 0010 D7E92E53 		ldrd	r5, r3, [r7, #184]
  78              	.LVL2:
 125:../STM32Cube_FW_N6/Middlewares/ST/usbx/common/core/src/ux_device_stack_interface_set.c ****     while (interfaces_pool_number != 0)
  79              		.loc 1 125 5 is_stmt 1 view .LVU22
  80 0014 0133     		adds	r3, r3, #1
  81              	.LVL3:
  82              	.L2:
  83              		.loc 1 125 35 view .LVU23
  84 0016 013B     		subs	r3, r3, #1
  85 0018 02D1     		bne	.L4
  86              	.LVL4:
  87              	.L17:
 126:../STM32Cube_FW_N6/Middlewares/ST/usbx/common/core/src/ux_device_stack_interface_set.c ****     {
 127:../STM32Cube_FW_N6/Middlewares/ST/usbx/common/core/src/ux_device_stack_interface_set.c ****         /* Check if this interface is free.  */
 128:../STM32Cube_FW_N6/Middlewares/ST/usbx/common/core/src/ux_device_stack_interface_set.c ****         if (interface_ptr -> ux_slave_interface_status == UX_UNUSED)
 129:../STM32Cube_FW_N6/Middlewares/ST/usbx/common/core/src/ux_device_stack_interface_set.c ****             break;
 130:../STM32Cube_FW_N6/Middlewares/ST/usbx/common/core/src/ux_device_stack_interface_set.c ****     
 131:../STM32Cube_FW_N6/Middlewares/ST/usbx/common/core/src/ux_device_stack_interface_set.c ****         /* Try the next interface.  */
 132:../STM32Cube_FW_N6/Middlewares/ST/usbx/common/core/src/ux_device_stack_interface_set.c ****         interface_ptr++;
 133:../STM32Cube_FW_N6/Middlewares/ST/usbx/common/core/src/ux_device_stack_interface_set.c ****         
 134:../STM32Cube_FW_N6/Middlewares/ST/usbx/common/core/src/ux_device_stack_interface_set.c ****         /* Decrement the number of interfaces left to scan in the pool.  */
 135:../STM32Cube_FW_N6/Middlewares/ST/usbx/common/core/src/ux_device_stack_interface_set.c ****         interfaces_pool_number--;
 136:../STM32Cube_FW_N6/Middlewares/ST/usbx/common/core/src/ux_device_stack_interface_set.c ****     }
 137:../STM32Cube_FW_N6/Middlewares/ST/usbx/common/core/src/ux_device_stack_interface_set.c **** 
 138:../STM32Cube_FW_N6/Middlewares/ST/usbx/common/core/src/ux_device_stack_interface_set.c ****     /* Did we find a free interface ?  */
 139:../STM32Cube_FW_N6/Middlewares/ST/usbx/common/core/src/ux_device_stack_interface_set.c ****     if (interfaces_pool_number == 0)
 140:../STM32Cube_FW_N6/Middlewares/ST/usbx/common/core/src/ux_device_stack_interface_set.c ****         return(UX_MEMORY_INSUFFICIENT);
ARM GAS  /tmp/ccHoJ7KI.s 			page 5


  88              		.loc 1 140 15 is_stmt 0 view .LVU24
  89 001a 1220     		movs	r0, #18
  90              	.L1:
 141:../STM32Cube_FW_N6/Middlewares/ST/usbx/common/core/src/ux_device_stack_interface_set.c **** #else
 142:../STM32Cube_FW_N6/Middlewares/ST/usbx/common/core/src/ux_device_stack_interface_set.c **** 
 143:../STM32Cube_FW_N6/Middlewares/ST/usbx/common/core/src/ux_device_stack_interface_set.c ****     /* Check if this interface is free.  */
 144:../STM32Cube_FW_N6/Middlewares/ST/usbx/common/core/src/ux_device_stack_interface_set.c ****     if (interface_ptr -> ux_slave_interface_status != UX_UNUSED)
 145:../STM32Cube_FW_N6/Middlewares/ST/usbx/common/core/src/ux_device_stack_interface_set.c ****         return(UX_MEMORY_INSUFFICIENT);
 146:../STM32Cube_FW_N6/Middlewares/ST/usbx/common/core/src/ux_device_stack_interface_set.c ****     
 147:../STM32Cube_FW_N6/Middlewares/ST/usbx/common/core/src/ux_device_stack_interface_set.c **** #endif
 148:../STM32Cube_FW_N6/Middlewares/ST/usbx/common/core/src/ux_device_stack_interface_set.c **** 
 149:../STM32Cube_FW_N6/Middlewares/ST/usbx/common/core/src/ux_device_stack_interface_set.c ****     /* Mark this interface as used now.  */
 150:../STM32Cube_FW_N6/Middlewares/ST/usbx/common/core/src/ux_device_stack_interface_set.c ****     interface_ptr -> ux_slave_interface_status = UX_USED;
 151:../STM32Cube_FW_N6/Middlewares/ST/usbx/common/core/src/ux_device_stack_interface_set.c **** 
 152:../STM32Cube_FW_N6/Middlewares/ST/usbx/common/core/src/ux_device_stack_interface_set.c ****     /* If trace is enabled, register this object.  */
 153:../STM32Cube_FW_N6/Middlewares/ST/usbx/common/core/src/ux_device_stack_interface_set.c ****     UX_TRACE_OBJECT_REGISTER(UX_TRACE_DEVICE_OBJECT_TYPE_INTERFACE, interface_ptr, 0, 0, 0)
 154:../STM32Cube_FW_N6/Middlewares/ST/usbx/common/core/src/ux_device_stack_interface_set.c **** 
 155:../STM32Cube_FW_N6/Middlewares/ST/usbx/common/core/src/ux_device_stack_interface_set.c ****     /* Parse the descriptor in something more readable.  */
 156:../STM32Cube_FW_N6/Middlewares/ST/usbx/common/core/src/ux_device_stack_interface_set.c ****     _ux_utility_descriptor_parse(device_framework,
 157:../STM32Cube_FW_N6/Middlewares/ST/usbx/common/core/src/ux_device_stack_interface_set.c ****                 _ux_system_interface_descriptor_structure,
 158:../STM32Cube_FW_N6/Middlewares/ST/usbx/common/core/src/ux_device_stack_interface_set.c ****                 UX_INTERFACE_DESCRIPTOR_ENTRIES,
 159:../STM32Cube_FW_N6/Middlewares/ST/usbx/common/core/src/ux_device_stack_interface_set.c ****                 (UCHAR *) &interface_ptr -> ux_slave_interface_descriptor);
 160:../STM32Cube_FW_N6/Middlewares/ST/usbx/common/core/src/ux_device_stack_interface_set.c **** 
 161:../STM32Cube_FW_N6/Middlewares/ST/usbx/common/core/src/ux_device_stack_interface_set.c **** #if !defined(UX_DEVICE_INITIALIZE_FRAMEWORK_SCAN_DISABLE) || UX_MAX_DEVICE_INTERFACES > 1
 162:../STM32Cube_FW_N6/Middlewares/ST/usbx/common/core/src/ux_device_stack_interface_set.c **** 
 163:../STM32Cube_FW_N6/Middlewares/ST/usbx/common/core/src/ux_device_stack_interface_set.c ****     /* Attach this interface to the end of the interface chain.  */
 164:../STM32Cube_FW_N6/Middlewares/ST/usbx/common/core/src/ux_device_stack_interface_set.c ****     if (device -> ux_slave_device_first_interface == UX_NULL)
 165:../STM32Cube_FW_N6/Middlewares/ST/usbx/common/core/src/ux_device_stack_interface_set.c ****     {
 166:../STM32Cube_FW_N6/Middlewares/ST/usbx/common/core/src/ux_device_stack_interface_set.c **** 
 167:../STM32Cube_FW_N6/Middlewares/ST/usbx/common/core/src/ux_device_stack_interface_set.c ****         device -> ux_slave_device_first_interface =  interface_ptr;
 168:../STM32Cube_FW_N6/Middlewares/ST/usbx/common/core/src/ux_device_stack_interface_set.c ****     }
 169:../STM32Cube_FW_N6/Middlewares/ST/usbx/common/core/src/ux_device_stack_interface_set.c ****     else
 170:../STM32Cube_FW_N6/Middlewares/ST/usbx/common/core/src/ux_device_stack_interface_set.c ****     {
 171:../STM32Cube_FW_N6/Middlewares/ST/usbx/common/core/src/ux_device_stack_interface_set.c ****         /* Multiple interfaces exist, so find the end of the chain.  */
 172:../STM32Cube_FW_N6/Middlewares/ST/usbx/common/core/src/ux_device_stack_interface_set.c ****         interface_link =  device -> ux_slave_device_first_interface;
 173:../STM32Cube_FW_N6/Middlewares/ST/usbx/common/core/src/ux_device_stack_interface_set.c ****         while (interface_link -> ux_slave_interface_next_interface != UX_NULL)
 174:../STM32Cube_FW_N6/Middlewares/ST/usbx/common/core/src/ux_device_stack_interface_set.c ****             interface_link =  interface_link -> ux_slave_interface_next_interface;
 175:../STM32Cube_FW_N6/Middlewares/ST/usbx/common/core/src/ux_device_stack_interface_set.c ****         interface_link -> ux_slave_interface_next_interface =  interface_ptr;
 176:../STM32Cube_FW_N6/Middlewares/ST/usbx/common/core/src/ux_device_stack_interface_set.c ****     }
 177:../STM32Cube_FW_N6/Middlewares/ST/usbx/common/core/src/ux_device_stack_interface_set.c **** #else
 178:../STM32Cube_FW_N6/Middlewares/ST/usbx/common/core/src/ux_device_stack_interface_set.c **** 
 179:../STM32Cube_FW_N6/Middlewares/ST/usbx/common/core/src/ux_device_stack_interface_set.c ****     /* It must be very first one.  */
 180:../STM32Cube_FW_N6/Middlewares/ST/usbx/common/core/src/ux_device_stack_interface_set.c ****     device -> ux_slave_device_first_interface = interface_ptr;
 181:../STM32Cube_FW_N6/Middlewares/ST/usbx/common/core/src/ux_device_stack_interface_set.c **** #endif
 182:../STM32Cube_FW_N6/Middlewares/ST/usbx/common/core/src/ux_device_stack_interface_set.c **** 
 183:../STM32Cube_FW_N6/Middlewares/ST/usbx/common/core/src/ux_device_stack_interface_set.c ****     /* Point beyond the interface descriptor.  */
 184:../STM32Cube_FW_N6/Middlewares/ST/usbx/common/core/src/ux_device_stack_interface_set.c ****     device_framework_length -=  (ULONG) *device_framework;
 185:../STM32Cube_FW_N6/Middlewares/ST/usbx/common/core/src/ux_device_stack_interface_set.c ****     device_framework +=  (ULONG) *device_framework;
 186:../STM32Cube_FW_N6/Middlewares/ST/usbx/common/core/src/ux_device_stack_interface_set.c **** 
 187:../STM32Cube_FW_N6/Middlewares/ST/usbx/common/core/src/ux_device_stack_interface_set.c ****     /* Parse the device framework and locate endpoint descriptor(s).  */
 188:../STM32Cube_FW_N6/Middlewares/ST/usbx/common/core/src/ux_device_stack_interface_set.c ****     while (device_framework_length != 0)
 189:../STM32Cube_FW_N6/Middlewares/ST/usbx/common/core/src/ux_device_stack_interface_set.c ****     {
 190:../STM32Cube_FW_N6/Middlewares/ST/usbx/common/core/src/ux_device_stack_interface_set.c **** 
 191:../STM32Cube_FW_N6/Middlewares/ST/usbx/common/core/src/ux_device_stack_interface_set.c ****         /* Get the length of the current descriptor.  */
 192:../STM32Cube_FW_N6/Middlewares/ST/usbx/common/core/src/ux_device_stack_interface_set.c ****         descriptor_length =  (ULONG) *device_framework;
 193:../STM32Cube_FW_N6/Middlewares/ST/usbx/common/core/src/ux_device_stack_interface_set.c **** 
 194:../STM32Cube_FW_N6/Middlewares/ST/usbx/common/core/src/ux_device_stack_interface_set.c ****         /* And its type.  */
ARM GAS  /tmp/ccHoJ7KI.s 			page 6


 195:../STM32Cube_FW_N6/Middlewares/ST/usbx/common/core/src/ux_device_stack_interface_set.c ****         descriptor_type =  *(device_framework + 1);
 196:../STM32Cube_FW_N6/Middlewares/ST/usbx/common/core/src/ux_device_stack_interface_set.c ****                 
 197:../STM32Cube_FW_N6/Middlewares/ST/usbx/common/core/src/ux_device_stack_interface_set.c ****         /* Check if this is an endpoint descriptor.  */
 198:../STM32Cube_FW_N6/Middlewares/ST/usbx/common/core/src/ux_device_stack_interface_set.c ****         switch(descriptor_type)
 199:../STM32Cube_FW_N6/Middlewares/ST/usbx/common/core/src/ux_device_stack_interface_set.c ****         {
 200:../STM32Cube_FW_N6/Middlewares/ST/usbx/common/core/src/ux_device_stack_interface_set.c **** 
 201:../STM32Cube_FW_N6/Middlewares/ST/usbx/common/core/src/ux_device_stack_interface_set.c ****         case UX_ENDPOINT_DESCRIPTOR_ITEM:
 202:../STM32Cube_FW_N6/Middlewares/ST/usbx/common/core/src/ux_device_stack_interface_set.c **** 
 203:../STM32Cube_FW_N6/Middlewares/ST/usbx/common/core/src/ux_device_stack_interface_set.c ****             /* Find a free endpoint in the pool and hook it to the 
 204:../STM32Cube_FW_N6/Middlewares/ST/usbx/common/core/src/ux_device_stack_interface_set.c ****                existing interface after it's created by DCD.  */
 205:../STM32Cube_FW_N6/Middlewares/ST/usbx/common/core/src/ux_device_stack_interface_set.c ****             endpoint = device -> ux_slave_device_endpoints_pool;
 206:../STM32Cube_FW_N6/Middlewares/ST/usbx/common/core/src/ux_device_stack_interface_set.c ****             endpoints_pool_number = device -> ux_slave_device_endpoints_pool_number;
 207:../STM32Cube_FW_N6/Middlewares/ST/usbx/common/core/src/ux_device_stack_interface_set.c ****             while (endpoints_pool_number != 0)
 208:../STM32Cube_FW_N6/Middlewares/ST/usbx/common/core/src/ux_device_stack_interface_set.c ****             {
 209:../STM32Cube_FW_N6/Middlewares/ST/usbx/common/core/src/ux_device_stack_interface_set.c ****                 /* Check if this endpoint is free.  */
 210:../STM32Cube_FW_N6/Middlewares/ST/usbx/common/core/src/ux_device_stack_interface_set.c ****                 if (endpoint ->    ux_slave_endpoint_status == UX_UNUSED)
 211:../STM32Cube_FW_N6/Middlewares/ST/usbx/common/core/src/ux_device_stack_interface_set.c ****                 {
 212:../STM32Cube_FW_N6/Middlewares/ST/usbx/common/core/src/ux_device_stack_interface_set.c ****                     /* Mark this endpoint as used now.  */
 213:../STM32Cube_FW_N6/Middlewares/ST/usbx/common/core/src/ux_device_stack_interface_set.c ****                     endpoint ->    ux_slave_endpoint_status = UX_USED;
 214:../STM32Cube_FW_N6/Middlewares/ST/usbx/common/core/src/ux_device_stack_interface_set.c ****                     break;
 215:../STM32Cube_FW_N6/Middlewares/ST/usbx/common/core/src/ux_device_stack_interface_set.c ****                 }
 216:../STM32Cube_FW_N6/Middlewares/ST/usbx/common/core/src/ux_device_stack_interface_set.c ****             
 217:../STM32Cube_FW_N6/Middlewares/ST/usbx/common/core/src/ux_device_stack_interface_set.c ****                 /* Try the next endpoint.  */
 218:../STM32Cube_FW_N6/Middlewares/ST/usbx/common/core/src/ux_device_stack_interface_set.c ****                 endpoint++;
 219:../STM32Cube_FW_N6/Middlewares/ST/usbx/common/core/src/ux_device_stack_interface_set.c ****                 
 220:../STM32Cube_FW_N6/Middlewares/ST/usbx/common/core/src/ux_device_stack_interface_set.c ****                 /* Decrement the number of endpoints to scan from the pool.  */
 221:../STM32Cube_FW_N6/Middlewares/ST/usbx/common/core/src/ux_device_stack_interface_set.c ****                endpoints_pool_number--; 
 222:../STM32Cube_FW_N6/Middlewares/ST/usbx/common/core/src/ux_device_stack_interface_set.c ****             }
 223:../STM32Cube_FW_N6/Middlewares/ST/usbx/common/core/src/ux_device_stack_interface_set.c **** 
 224:../STM32Cube_FW_N6/Middlewares/ST/usbx/common/core/src/ux_device_stack_interface_set.c ****             /* Did we find a free endpoint ?  */
 225:../STM32Cube_FW_N6/Middlewares/ST/usbx/common/core/src/ux_device_stack_interface_set.c ****             if (endpoints_pool_number == 0)
 226:../STM32Cube_FW_N6/Middlewares/ST/usbx/common/core/src/ux_device_stack_interface_set.c ****                 return(UX_MEMORY_INSUFFICIENT);
 227:../STM32Cube_FW_N6/Middlewares/ST/usbx/common/core/src/ux_device_stack_interface_set.c **** 
 228:../STM32Cube_FW_N6/Middlewares/ST/usbx/common/core/src/ux_device_stack_interface_set.c ****             /* Parse the descriptor in something more readable.  */
 229:../STM32Cube_FW_N6/Middlewares/ST/usbx/common/core/src/ux_device_stack_interface_set.c ****             _ux_utility_descriptor_parse(device_framework,
 230:../STM32Cube_FW_N6/Middlewares/ST/usbx/common/core/src/ux_device_stack_interface_set.c ****                             _ux_system_endpoint_descriptor_structure,
 231:../STM32Cube_FW_N6/Middlewares/ST/usbx/common/core/src/ux_device_stack_interface_set.c ****                             UX_ENDPOINT_DESCRIPTOR_ENTRIES,
 232:../STM32Cube_FW_N6/Middlewares/ST/usbx/common/core/src/ux_device_stack_interface_set.c ****                             (UCHAR *) &endpoint -> ux_slave_endpoint_descriptor);
 233:../STM32Cube_FW_N6/Middlewares/ST/usbx/common/core/src/ux_device_stack_interface_set.c **** 
 234:../STM32Cube_FW_N6/Middlewares/ST/usbx/common/core/src/ux_device_stack_interface_set.c ****             /* Now we create a transfer request to accept transfer on this endpoint.  */
 235:../STM32Cube_FW_N6/Middlewares/ST/usbx/common/core/src/ux_device_stack_interface_set.c ****             transfer_request =  &endpoint -> ux_slave_endpoint_transfer_request;
 236:../STM32Cube_FW_N6/Middlewares/ST/usbx/common/core/src/ux_device_stack_interface_set.c ****                 
 237:../STM32Cube_FW_N6/Middlewares/ST/usbx/common/core/src/ux_device_stack_interface_set.c ****             /* Validate endpoint descriptor wMaxPacketSize.  */
 238:../STM32Cube_FW_N6/Middlewares/ST/usbx/common/core/src/ux_device_stack_interface_set.c ****             UX_ASSERT(endpoint -> ux_slave_endpoint_descriptor.wMaxPacketSize != 0);
 239:../STM32Cube_FW_N6/Middlewares/ST/usbx/common/core/src/ux_device_stack_interface_set.c **** 
 240:../STM32Cube_FW_N6/Middlewares/ST/usbx/common/core/src/ux_device_stack_interface_set.c ****             /* Calculate endpoint transfer payload max size.  */
 241:../STM32Cube_FW_N6/Middlewares/ST/usbx/common/core/src/ux_device_stack_interface_set.c ****             max_transfer_length =
 242:../STM32Cube_FW_N6/Middlewares/ST/usbx/common/core/src/ux_device_stack_interface_set.c ****                     endpoint -> ux_slave_endpoint_descriptor.wMaxPacketSize &
 243:../STM32Cube_FW_N6/Middlewares/ST/usbx/common/core/src/ux_device_stack_interface_set.c ****                                                         UX_MAX_PACKET_SIZE_MASK;
 244:../STM32Cube_FW_N6/Middlewares/ST/usbx/common/core/src/ux_device_stack_interface_set.c ****             if ((_ux_system_slave -> ux_system_slave_speed == UX_HIGH_SPEED_DEVICE) &&
 245:../STM32Cube_FW_N6/Middlewares/ST/usbx/common/core/src/ux_device_stack_interface_set.c ****                 (endpoint -> ux_slave_endpoint_descriptor.bmAttributes & 0x1u))
 246:../STM32Cube_FW_N6/Middlewares/ST/usbx/common/core/src/ux_device_stack_interface_set.c ****             {
 247:../STM32Cube_FW_N6/Middlewares/ST/usbx/common/core/src/ux_device_stack_interface_set.c ****                 n_trans = endpoint -> ux_slave_endpoint_descriptor.wMaxPacketSize &
 248:../STM32Cube_FW_N6/Middlewares/ST/usbx/common/core/src/ux_device_stack_interface_set.c ****                                             UX_MAX_NUMBER_OF_TRANSACTIONS_MASK;
 249:../STM32Cube_FW_N6/Middlewares/ST/usbx/common/core/src/ux_device_stack_interface_set.c ****                 if (n_trans)
 250:../STM32Cube_FW_N6/Middlewares/ST/usbx/common/core/src/ux_device_stack_interface_set.c ****                 {
 251:../STM32Cube_FW_N6/Middlewares/ST/usbx/common/core/src/ux_device_stack_interface_set.c ****                     n_trans >>= UX_MAX_NUMBER_OF_TRANSACTIONS_SHIFT;
ARM GAS  /tmp/ccHoJ7KI.s 			page 7


 252:../STM32Cube_FW_N6/Middlewares/ST/usbx/common/core/src/ux_device_stack_interface_set.c ****                     n_trans ++;
 253:../STM32Cube_FW_N6/Middlewares/ST/usbx/common/core/src/ux_device_stack_interface_set.c ****                     max_transfer_length *= n_trans;
 254:../STM32Cube_FW_N6/Middlewares/ST/usbx/common/core/src/ux_device_stack_interface_set.c ****                 }
 255:../STM32Cube_FW_N6/Middlewares/ST/usbx/common/core/src/ux_device_stack_interface_set.c ****             }
 256:../STM32Cube_FW_N6/Middlewares/ST/usbx/common/core/src/ux_device_stack_interface_set.c **** 
 257:../STM32Cube_FW_N6/Middlewares/ST/usbx/common/core/src/ux_device_stack_interface_set.c ****             /* Validate max transfer size and save it.  */
 258:../STM32Cube_FW_N6/Middlewares/ST/usbx/common/core/src/ux_device_stack_interface_set.c ****             UX_ASSERT(max_transfer_length <= UX_SLAVE_REQUEST_DATA_MAX_LENGTH);
 259:../STM32Cube_FW_N6/Middlewares/ST/usbx/common/core/src/ux_device_stack_interface_set.c ****             transfer_request -> ux_slave_transfer_request_transfer_length = max_transfer_length;
 260:../STM32Cube_FW_N6/Middlewares/ST/usbx/common/core/src/ux_device_stack_interface_set.c **** 
 261:../STM32Cube_FW_N6/Middlewares/ST/usbx/common/core/src/ux_device_stack_interface_set.c ****             /* We store the endpoint in the transfer request as well.  */
 262:../STM32Cube_FW_N6/Middlewares/ST/usbx/common/core/src/ux_device_stack_interface_set.c ****             transfer_request -> ux_slave_transfer_request_endpoint =  endpoint;
 263:../STM32Cube_FW_N6/Middlewares/ST/usbx/common/core/src/ux_device_stack_interface_set.c ****                 
 264:../STM32Cube_FW_N6/Middlewares/ST/usbx/common/core/src/ux_device_stack_interface_set.c ****             /* By default the timeout is infinite on request.  */
 265:../STM32Cube_FW_N6/Middlewares/ST/usbx/common/core/src/ux_device_stack_interface_set.c ****             transfer_request -> ux_slave_transfer_request_timeout = UX_WAIT_FOREVER;
 266:../STM32Cube_FW_N6/Middlewares/ST/usbx/common/core/src/ux_device_stack_interface_set.c ****             
 267:../STM32Cube_FW_N6/Middlewares/ST/usbx/common/core/src/ux_device_stack_interface_set.c ****             /* Attach the interface to the endpoint.  */
 268:../STM32Cube_FW_N6/Middlewares/ST/usbx/common/core/src/ux_device_stack_interface_set.c ****             endpoint -> ux_slave_endpoint_interface =  interface_ptr;
 269:../STM32Cube_FW_N6/Middlewares/ST/usbx/common/core/src/ux_device_stack_interface_set.c ****                 
 270:../STM32Cube_FW_N6/Middlewares/ST/usbx/common/core/src/ux_device_stack_interface_set.c ****             /* Attach the device to the endpoint.  */
 271:../STM32Cube_FW_N6/Middlewares/ST/usbx/common/core/src/ux_device_stack_interface_set.c ****             endpoint -> ux_slave_endpoint_device =  device;
 272:../STM32Cube_FW_N6/Middlewares/ST/usbx/common/core/src/ux_device_stack_interface_set.c ****                 
 273:../STM32Cube_FW_N6/Middlewares/ST/usbx/common/core/src/ux_device_stack_interface_set.c ****             /* Create the endpoint at the DCD level.  */
 274:../STM32Cube_FW_N6/Middlewares/ST/usbx/common/core/src/ux_device_stack_interface_set.c ****             status =  dcd -> ux_slave_dcd_function(dcd, UX_DCD_CREATE_ENDPOINT, (VOID *) endpoint);
 275:../STM32Cube_FW_N6/Middlewares/ST/usbx/common/core/src/ux_device_stack_interface_set.c ****             
 276:../STM32Cube_FW_N6/Middlewares/ST/usbx/common/core/src/ux_device_stack_interface_set.c ****             /* Do a sanity check on endpoint creation.  */
 277:../STM32Cube_FW_N6/Middlewares/ST/usbx/common/core/src/ux_device_stack_interface_set.c ****             if (status != UX_SUCCESS)
 278:../STM32Cube_FW_N6/Middlewares/ST/usbx/common/core/src/ux_device_stack_interface_set.c ****             {
 279:../STM32Cube_FW_N6/Middlewares/ST/usbx/common/core/src/ux_device_stack_interface_set.c **** 
 280:../STM32Cube_FW_N6/Middlewares/ST/usbx/common/core/src/ux_device_stack_interface_set.c ****                 /* Error was returned, endpoint cannot be created.  */
 281:../STM32Cube_FW_N6/Middlewares/ST/usbx/common/core/src/ux_device_stack_interface_set.c ****                 endpoint -> ux_slave_endpoint_status = UX_UNUSED;
 282:../STM32Cube_FW_N6/Middlewares/ST/usbx/common/core/src/ux_device_stack_interface_set.c ****                 return(status);
 283:../STM32Cube_FW_N6/Middlewares/ST/usbx/common/core/src/ux_device_stack_interface_set.c ****             }
 284:../STM32Cube_FW_N6/Middlewares/ST/usbx/common/core/src/ux_device_stack_interface_set.c **** 
 285:../STM32Cube_FW_N6/Middlewares/ST/usbx/common/core/src/ux_device_stack_interface_set.c ****             /* Attach this endpoint to the end of the endpoint chain.  */
 286:../STM32Cube_FW_N6/Middlewares/ST/usbx/common/core/src/ux_device_stack_interface_set.c ****             if (interface_ptr -> ux_slave_interface_first_endpoint == UX_NULL)
 287:../STM32Cube_FW_N6/Middlewares/ST/usbx/common/core/src/ux_device_stack_interface_set.c ****             {
 288:../STM32Cube_FW_N6/Middlewares/ST/usbx/common/core/src/ux_device_stack_interface_set.c **** 
 289:../STM32Cube_FW_N6/Middlewares/ST/usbx/common/core/src/ux_device_stack_interface_set.c ****                 interface_ptr -> ux_slave_interface_first_endpoint =  endpoint;
 290:../STM32Cube_FW_N6/Middlewares/ST/usbx/common/core/src/ux_device_stack_interface_set.c ****             }
 291:../STM32Cube_FW_N6/Middlewares/ST/usbx/common/core/src/ux_device_stack_interface_set.c ****             else
 292:../STM32Cube_FW_N6/Middlewares/ST/usbx/common/core/src/ux_device_stack_interface_set.c ****             {
 293:../STM32Cube_FW_N6/Middlewares/ST/usbx/common/core/src/ux_device_stack_interface_set.c ****                 /* Multiple endpoints exist, so find the end of the chain.  */
 294:../STM32Cube_FW_N6/Middlewares/ST/usbx/common/core/src/ux_device_stack_interface_set.c ****                 endpoint_link =  interface_ptr -> ux_slave_interface_first_endpoint;
 295:../STM32Cube_FW_N6/Middlewares/ST/usbx/common/core/src/ux_device_stack_interface_set.c ****                 while (endpoint_link -> ux_slave_endpoint_next_endpoint != UX_NULL)
 296:../STM32Cube_FW_N6/Middlewares/ST/usbx/common/core/src/ux_device_stack_interface_set.c ****                     endpoint_link =  endpoint_link -> ux_slave_endpoint_next_endpoint;
 297:../STM32Cube_FW_N6/Middlewares/ST/usbx/common/core/src/ux_device_stack_interface_set.c ****                 endpoint_link -> ux_slave_endpoint_next_endpoint =  endpoint;
 298:../STM32Cube_FW_N6/Middlewares/ST/usbx/common/core/src/ux_device_stack_interface_set.c ****             }
 299:../STM32Cube_FW_N6/Middlewares/ST/usbx/common/core/src/ux_device_stack_interface_set.c ****             break;
 300:../STM32Cube_FW_N6/Middlewares/ST/usbx/common/core/src/ux_device_stack_interface_set.c **** 
 301:../STM32Cube_FW_N6/Middlewares/ST/usbx/common/core/src/ux_device_stack_interface_set.c ****         case UX_CONFIGURATION_DESCRIPTOR_ITEM:
 302:../STM32Cube_FW_N6/Middlewares/ST/usbx/common/core/src/ux_device_stack_interface_set.c ****         case UX_INTERFACE_DESCRIPTOR_ITEM:
 303:../STM32Cube_FW_N6/Middlewares/ST/usbx/common/core/src/ux_device_stack_interface_set.c **** 
 304:../STM32Cube_FW_N6/Middlewares/ST/usbx/common/core/src/ux_device_stack_interface_set.c ****             /* If the descriptor is a configuration or interface,
 305:../STM32Cube_FW_N6/Middlewares/ST/usbx/common/core/src/ux_device_stack_interface_set.c ****                we have parsed and mounted all endpoints. 
 306:../STM32Cube_FW_N6/Middlewares/ST/usbx/common/core/src/ux_device_stack_interface_set.c ****                The interface attached to this configuration must be started at the class level.  */
 307:../STM32Cube_FW_N6/Middlewares/ST/usbx/common/core/src/ux_device_stack_interface_set.c ****             status =  _ux_device_stack_interface_start(interface_ptr);
 308:../STM32Cube_FW_N6/Middlewares/ST/usbx/common/core/src/ux_device_stack_interface_set.c **** 
ARM GAS  /tmp/ccHoJ7KI.s 			page 8


 309:../STM32Cube_FW_N6/Middlewares/ST/usbx/common/core/src/ux_device_stack_interface_set.c ****             /* Return the status to the caller.  */
 310:../STM32Cube_FW_N6/Middlewares/ST/usbx/common/core/src/ux_device_stack_interface_set.c ****             return(status);
 311:../STM32Cube_FW_N6/Middlewares/ST/usbx/common/core/src/ux_device_stack_interface_set.c **** 
 312:../STM32Cube_FW_N6/Middlewares/ST/usbx/common/core/src/ux_device_stack_interface_set.c ****         default:
 313:../STM32Cube_FW_N6/Middlewares/ST/usbx/common/core/src/ux_device_stack_interface_set.c ****             break;
 314:../STM32Cube_FW_N6/Middlewares/ST/usbx/common/core/src/ux_device_stack_interface_set.c ****         }
 315:../STM32Cube_FW_N6/Middlewares/ST/usbx/common/core/src/ux_device_stack_interface_set.c **** 
 316:../STM32Cube_FW_N6/Middlewares/ST/usbx/common/core/src/ux_device_stack_interface_set.c ****         /* Adjust what is left of the device framework.  */
 317:../STM32Cube_FW_N6/Middlewares/ST/usbx/common/core/src/ux_device_stack_interface_set.c ****         device_framework_length -=  descriptor_length;
 318:../STM32Cube_FW_N6/Middlewares/ST/usbx/common/core/src/ux_device_stack_interface_set.c **** 
 319:../STM32Cube_FW_N6/Middlewares/ST/usbx/common/core/src/ux_device_stack_interface_set.c ****         /* Point to the next descriptor.  */
 320:../STM32Cube_FW_N6/Middlewares/ST/usbx/common/core/src/ux_device_stack_interface_set.c ****         device_framework +=  descriptor_length;
 321:../STM32Cube_FW_N6/Middlewares/ST/usbx/common/core/src/ux_device_stack_interface_set.c ****     }
 322:../STM32Cube_FW_N6/Middlewares/ST/usbx/common/core/src/ux_device_stack_interface_set.c **** 
 323:../STM32Cube_FW_N6/Middlewares/ST/usbx/common/core/src/ux_device_stack_interface_set.c ****     /* The interface attached to this configuration must be started at the class
 324:../STM32Cube_FW_N6/Middlewares/ST/usbx/common/core/src/ux_device_stack_interface_set.c ****        level.  */
 325:../STM32Cube_FW_N6/Middlewares/ST/usbx/common/core/src/ux_device_stack_interface_set.c ****     status =  _ux_device_stack_interface_start(interface_ptr);
 326:../STM32Cube_FW_N6/Middlewares/ST/usbx/common/core/src/ux_device_stack_interface_set.c **** 
 327:../STM32Cube_FW_N6/Middlewares/ST/usbx/common/core/src/ux_device_stack_interface_set.c ****     /* Return the status to the caller.  */
 328:../STM32Cube_FW_N6/Middlewares/ST/usbx/common/core/src/ux_device_stack_interface_set.c ****     return(status);
 329:../STM32Cube_FW_N6/Middlewares/ST/usbx/common/core/src/ux_device_stack_interface_set.c **** }
  91              		.loc 1 329 1 view .LVU25
  92 001c BDE8F88F 		pop	{r3, r4, r5, r6, r7, r8, r9, r10, fp, pc}
  93              	.LVL5:
  94              	.L4:
 128:../STM32Cube_FW_N6/Middlewares/ST/usbx/common/core/src/ux_device_stack_interface_set.c ****             break;
  95              		.loc 1 128 9 is_stmt 1 view .LVU26
 128:../STM32Cube_FW_N6/Middlewares/ST/usbx/common/core/src/ux_device_stack_interface_set.c ****             break;
  96              		.loc 1 128 12 is_stmt 0 view .LVU27
  97 0020 2A68     		ldr	r2, [r5]
  98 0022 0AB1     		cbz	r2, .L3
 132:../STM32Cube_FW_N6/Middlewares/ST/usbx/common/core/src/ux_device_stack_interface_set.c ****         
  99              		.loc 1 132 9 is_stmt 1 view .LVU28
 132:../STM32Cube_FW_N6/Middlewares/ST/usbx/common/core/src/ux_device_stack_interface_set.c ****         
 100              		.loc 1 132 22 is_stmt 0 view .LVU29
 101 0024 2035     		adds	r5, r5, #32
 102              	.LVL6:
 135:../STM32Cube_FW_N6/Middlewares/ST/usbx/common/core/src/ux_device_stack_interface_set.c ****     }
 103              		.loc 1 135 9 is_stmt 1 view .LVU30
 104 0026 F6E7     		b	.L2
 105              	.L3:
 139:../STM32Cube_FW_N6/Middlewares/ST/usbx/common/core/src/ux_device_stack_interface_set.c ****         return(UX_MEMORY_INSUFFICIENT);
 106              		.loc 1 139 5 view .LVU31
 150:../STM32Cube_FW_N6/Middlewares/ST/usbx/common/core/src/ux_device_stack_interface_set.c **** 
 107              		.loc 1 150 5 view .LVU32
 150:../STM32Cube_FW_N6/Middlewares/ST/usbx/common/core/src/ux_device_stack_interface_set.c **** 
 108              		.loc 1 150 48 is_stmt 0 view .LVU33
 109 0028 2B46     		mov	r3, r5
 110 002a 0122     		movs	r2, #1
 156:../STM32Cube_FW_N6/Middlewares/ST/usbx/common/core/src/ux_device_stack_interface_set.c ****                 _ux_system_interface_descriptor_structure,
 111              		.loc 1 156 5 view .LVU34
 112 002c 3046     		mov	r0, r6
 113              	.LVL7:
 150:../STM32Cube_FW_N6/Middlewares/ST/usbx/common/core/src/ux_device_stack_interface_set.c **** 
 114              		.loc 1 150 48 view .LVU35
 115 002e 43F80C2B 		str	r2, [r3], #12
 156:../STM32Cube_FW_N6/Middlewares/ST/usbx/common/core/src/ux_device_stack_interface_set.c ****                 _ux_system_interface_descriptor_structure,
ARM GAS  /tmp/ccHoJ7KI.s 			page 9


 116              		.loc 1 156 5 is_stmt 1 view .LVU36
 117 0032 3649     		ldr	r1, .L42
 118              	.LVL8:
 156:../STM32Cube_FW_N6/Middlewares/ST/usbx/common/core/src/ux_device_stack_interface_set.c ****                 _ux_system_interface_descriptor_structure,
 119              		.loc 1 156 5 is_stmt 0 view .LVU37
 120 0034 0922     		movs	r2, #9
 121 0036 FFF7FEFF 		bl	_ux_utility_descriptor_parse
 122              	.LVL9:
 164:../STM32Cube_FW_N6/Middlewares/ST/usbx/common/core/src/ux_device_stack_interface_set.c ****     {
 123              		.loc 1 164 5 is_stmt 1 view .LVU38
 164:../STM32Cube_FW_N6/Middlewares/ST/usbx/common/core/src/ux_device_stack_interface_set.c ****     {
 124              		.loc 1 164 16 is_stmt 0 view .LVU39
 125 003a D7F8B430 		ldr	r3, [r7, #180]
 164:../STM32Cube_FW_N6/Middlewares/ST/usbx/common/core/src/ux_device_stack_interface_set.c ****     {
 126              		.loc 1 164 8 view .LVU40
 127 003e C3B9     		cbnz	r3, .L6
 167:../STM32Cube_FW_N6/Middlewares/ST/usbx/common/core/src/ux_device_stack_interface_set.c ****     }
 128              		.loc 1 167 9 is_stmt 1 view .LVU41
 167:../STM32Cube_FW_N6/Middlewares/ST/usbx/common/core/src/ux_device_stack_interface_set.c ****     }
 129              		.loc 1 167 51 is_stmt 0 view .LVU42
 130 0040 C7F8B450 		str	r5, [r7, #180]
 131              	.L7:
 184:../STM32Cube_FW_N6/Middlewares/ST/usbx/common/core/src/ux_device_stack_interface_set.c ****     device_framework +=  (ULONG) *device_framework;
 132              		.loc 1 184 33 view .LVU43
 133 0044 3378     		ldrb	r3, [r6]	@ zero_extendqisi2
 117:../STM32Cube_FW_N6/Middlewares/ST/usbx/common/core/src/ux_device_stack_interface_set.c **** 
 134              		.loc 1 117 12 view .LVU44
 135 0046 07F1240B 		add	fp, r7, #36
 184:../STM32Cube_FW_N6/Middlewares/ST/usbx/common/core/src/ux_device_stack_interface_set.c ****     device_framework +=  (ULONG) *device_framework;
 136              		.loc 1 184 5 is_stmt 1 view .LVU45
 184:../STM32Cube_FW_N6/Middlewares/ST/usbx/common/core/src/ux_device_stack_interface_set.c ****     device_framework +=  (ULONG) *device_framework;
 137              		.loc 1 184 29 is_stmt 0 view .LVU46
 138 004a A8EB0308 		sub	r8, r8, r3
 139              	.LVL10:
 185:../STM32Cube_FW_N6/Middlewares/ST/usbx/common/core/src/ux_device_stack_interface_set.c **** 
 140              		.loc 1 185 5 is_stmt 1 view .LVU47
 185:../STM32Cube_FW_N6/Middlewares/ST/usbx/common/core/src/ux_device_stack_interface_set.c **** 
 141              		.loc 1 185 22 is_stmt 0 view .LVU48
 142 004e 1E44     		add	r6, r6, r3
 143              	.LVL11:
 188:../STM32Cube_FW_N6/Middlewares/ST/usbx/common/core/src/ux_device_stack_interface_set.c ****     {
 144              		.loc 1 188 5 is_stmt 1 view .LVU49
 145              	.L8:
 188:../STM32Cube_FW_N6/Middlewares/ST/usbx/common/core/src/ux_device_stack_interface_set.c ****     {
 146              		.loc 1 188 36 view .LVU50
 147 0050 B8F1000F 		cmp	r8, #0
 148 0054 08D0     		beq	.L41
 192:../STM32Cube_FW_N6/Middlewares/ST/usbx/common/core/src/ux_device_stack_interface_set.c **** 
 149              		.loc 1 192 9 view .LVU51
 195:../STM32Cube_FW_N6/Middlewares/ST/usbx/common/core/src/ux_device_stack_interface_set.c ****                 
 150              		.loc 1 195 25 is_stmt 0 view .LVU52
 151 0056 7378     		ldrb	r3, [r6, #1]	@ zero_extendqisi2
 192:../STM32Cube_FW_N6/Middlewares/ST/usbx/common/core/src/ux_device_stack_interface_set.c **** 
 152              		.loc 1 192 38 view .LVU53
 153 0058 96F800A0 		ldrb	r10, [r6]	@ zero_extendqisi2
 154              	.LVL12:
 195:../STM32Cube_FW_N6/Middlewares/ST/usbx/common/core/src/ux_device_stack_interface_set.c ****                 
ARM GAS  /tmp/ccHoJ7KI.s 			page 10


 155              		.loc 1 195 9 is_stmt 1 view .LVU54
 198:../STM32Cube_FW_N6/Middlewares/ST/usbx/common/core/src/ux_device_stack_interface_set.c ****         {
 156              		.loc 1 198 9 view .LVU55
 157 005c 042B     		cmp	r3, #4
 158 005e 03D0     		beq	.L41
 159 0060 052B     		cmp	r3, #5
 160 0062 0CD0     		beq	.L10
 161 0064 022B     		cmp	r3, #2
 162 0066 47D1     		bne	.L11
 163              	.LVL13:
 164              	.L41:
 325:../STM32Cube_FW_N6/Middlewares/ST/usbx/common/core/src/ux_device_stack_interface_set.c **** 
 165              		.loc 1 325 5 view .LVU56
 325:../STM32Cube_FW_N6/Middlewares/ST/usbx/common/core/src/ux_device_stack_interface_set.c **** 
 166              		.loc 1 325 15 is_stmt 0 view .LVU57
 167 0068 2846     		mov	r0, r5
 168              		.loc 1 329 1 view .LVU58
 169 006a BDE8F84F 		pop	{r3, r4, r5, r6, r7, r8, r9, r10, fp, lr}
 170              		.cfi_remember_state
 171              		.cfi_restore 14
 172              		.cfi_restore 11
 173              		.cfi_restore 10
 174              		.cfi_restore 9
 175              		.cfi_restore 8
 176              		.cfi_restore 7
 177              		.cfi_restore 6
 178              		.cfi_restore 5
 179              		.cfi_restore 4
 180              		.cfi_restore 3
 181              		.cfi_def_cfa_offset 0
 182              	.LVL14:
 325:../STM32Cube_FW_N6/Middlewares/ST/usbx/common/core/src/ux_device_stack_interface_set.c **** 
 183              		.loc 1 325 15 view .LVU59
 184 006e FFF7FEBF 		b	_ux_device_stack_interface_start
 185              	.LVL15:
 186              	.L6:
 187              		.cfi_restore_state
 173:../STM32Cube_FW_N6/Middlewares/ST/usbx/common/core/src/ux_device_stack_interface_set.c ****             interface_link =  interface_link -> ux_slave_interface_next_interface;
 188              		.loc 1 173 68 is_stmt 1 view .LVU60
 189 0072 1A46     		mov	r2, r3
 173:../STM32Cube_FW_N6/Middlewares/ST/usbx/common/core/src/ux_device_stack_interface_set.c ****             interface_link =  interface_link -> ux_slave_interface_next_interface;
 190              		.loc 1 173 31 is_stmt 0 view .LVU61
 191 0074 9B69     		ldr	r3, [r3, #24]
 192              	.LVL16:
 173:../STM32Cube_FW_N6/Middlewares/ST/usbx/common/core/src/ux_device_stack_interface_set.c ****             interface_link =  interface_link -> ux_slave_interface_next_interface;
 193              		.loc 1 173 68 view .LVU62
 194 0076 002B     		cmp	r3, #0
 195 0078 FBD1     		bne	.L6
 175:../STM32Cube_FW_N6/Middlewares/ST/usbx/common/core/src/ux_device_stack_interface_set.c ****     }
 196              		.loc 1 175 9 is_stmt 1 view .LVU63
 175:../STM32Cube_FW_N6/Middlewares/ST/usbx/common/core/src/ux_device_stack_interface_set.c ****     }
 197              		.loc 1 175 61 is_stmt 0 view .LVU64
 198 007a 9561     		str	r5, [r2, #24]
 199 007c E2E7     		b	.L7
 200              	.LVL17:
 201              	.L10:
 205:../STM32Cube_FW_N6/Middlewares/ST/usbx/common/core/src/ux_device_stack_interface_set.c ****             endpoints_pool_number = device -> ux_slave_device_endpoints_pool_number;
ARM GAS  /tmp/ccHoJ7KI.s 			page 11


 202              		.loc 1 205 13 is_stmt 1 view .LVU65
 206:../STM32Cube_FW_N6/Middlewares/ST/usbx/common/core/src/ux_device_stack_interface_set.c ****             while (endpoints_pool_number != 0)
 203              		.loc 1 206 35 is_stmt 0 view .LVU66
 204 007e D7E93043 		ldrd	r4, r3, [r7, #192]
 205              	.LVL18:
 207:../STM32Cube_FW_N6/Middlewares/ST/usbx/common/core/src/ux_device_stack_interface_set.c ****             {
 206              		.loc 1 207 13 is_stmt 1 view .LVU67
 206:../STM32Cube_FW_N6/Middlewares/ST/usbx/common/core/src/ux_device_stack_interface_set.c ****             while (endpoints_pool_number != 0)
 207              		.loc 1 206 35 is_stmt 0 view .LVU68
 208 0082 0133     		adds	r3, r3, #1
 209              	.LVL19:
 210              	.L12:
 207:../STM32Cube_FW_N6/Middlewares/ST/usbx/common/core/src/ux_device_stack_interface_set.c ****             {
 211              		.loc 1 207 42 is_stmt 1 view .LVU69
 212 0084 013B     		subs	r3, r3, #1
 213 0086 C8D0     		beq	.L17
 210:../STM32Cube_FW_N6/Middlewares/ST/usbx/common/core/src/ux_device_stack_interface_set.c ****                 {
 214              		.loc 1 210 17 view .LVU70
 210:../STM32Cube_FW_N6/Middlewares/ST/usbx/common/core/src/ux_device_stack_interface_set.c ****                 {
 215              		.loc 1 210 20 is_stmt 0 view .LVU71
 216 0088 2268     		ldr	r2, [r4]
 217 008a 5AB9     		cbnz	r2, .L13
 213:../STM32Cube_FW_N6/Middlewares/ST/usbx/common/core/src/ux_device_stack_interface_set.c ****                     break;
 218              		.loc 1 213 21 is_stmt 1 view .LVU72
 213:../STM32Cube_FW_N6/Middlewares/ST/usbx/common/core/src/ux_device_stack_interface_set.c ****                     break;
 219              		.loc 1 213 61 is_stmt 0 view .LVU73
 220 008c 2346     		mov	r3, r4
 221 008e 0122     		movs	r2, #1
 229:../STM32Cube_FW_N6/Middlewares/ST/usbx/common/core/src/ux_device_stack_interface_set.c ****                             _ux_system_endpoint_descriptor_structure,
 222              		.loc 1 229 13 view .LVU74
 223 0090 3046     		mov	r0, r6
 213:../STM32Cube_FW_N6/Middlewares/ST/usbx/common/core/src/ux_device_stack_interface_set.c ****                     break;
 224              		.loc 1 213 61 view .LVU75
 225 0092 43F80C2B 		str	r2, [r3], #12
 226              	.LVL20:
 214:../STM32Cube_FW_N6/Middlewares/ST/usbx/common/core/src/ux_device_stack_interface_set.c ****                 }
 227              		.loc 1 214 21 is_stmt 1 view .LVU76
 225:../STM32Cube_FW_N6/Middlewares/ST/usbx/common/core/src/ux_device_stack_interface_set.c ****                 return(UX_MEMORY_INSUFFICIENT);
 228              		.loc 1 225 13 view .LVU77
 229:../STM32Cube_FW_N6/Middlewares/ST/usbx/common/core/src/ux_device_stack_interface_set.c ****                             _ux_system_endpoint_descriptor_structure,
 229              		.loc 1 229 13 view .LVU78
 230 0096 1E49     		ldr	r1, .L42+4
 231 0098 0622     		movs	r2, #6
 232 009a FFF7FEFF 		bl	_ux_utility_descriptor_parse
 233              	.LVL21:
 235:../STM32Cube_FW_N6/Middlewares/ST/usbx/common/core/src/ux_device_stack_interface_set.c ****                 
 234              		.loc 1 235 13 view .LVU79
 238:../STM32Cube_FW_N6/Middlewares/ST/usbx/common/core/src/ux_device_stack_interface_set.c **** 
 235              		.loc 1 238 13 view .LVU80
 236 009e 238A     		ldrh	r3, [r4, #16]
 237 00a0 13B9     		cbnz	r3, .L40
 238              	.L14:
 238:../STM32Cube_FW_N6/Middlewares/ST/usbx/common/core/src/ux_device_stack_interface_set.c **** 
 239              		.loc 1 238 13 view .LVU81
 238:../STM32Cube_FW_N6/Middlewares/ST/usbx/common/core/src/ux_device_stack_interface_set.c **** 
 240              		.loc 1 238 13 view .LVU82
 238:../STM32Cube_FW_N6/Middlewares/ST/usbx/common/core/src/ux_device_stack_interface_set.c **** 
ARM GAS  /tmp/ccHoJ7KI.s 			page 12


 241              		.loc 1 238 13 view .LVU83
 242 00a2 FEE7     		b	.L14
 243              	.LVL22:
 244              	.L13:
 218:../STM32Cube_FW_N6/Middlewares/ST/usbx/common/core/src/ux_device_stack_interface_set.c ****                 
 245              		.loc 1 218 17 view .LVU84
 218:../STM32Cube_FW_N6/Middlewares/ST/usbx/common/core/src/ux_device_stack_interface_set.c ****                 
 246              		.loc 1 218 25 is_stmt 0 view .LVU85
 247 00a4 6834     		adds	r4, r4, #104
 248              	.LVL23:
 221:../STM32Cube_FW_N6/Middlewares/ST/usbx/common/core/src/ux_device_stack_interface_set.c ****             }
 249              		.loc 1 221 16 is_stmt 1 view .LVU86
 250 00a6 EDE7     		b	.L12
 251              	.LVL24:
 252              	.L40:
 238:../STM32Cube_FW_N6/Middlewares/ST/usbx/common/core/src/ux_device_stack_interface_set.c **** 
 253              		.loc 1 238 84 view .LVU87
 241:../STM32Cube_FW_N6/Middlewares/ST/usbx/common/core/src/ux_device_stack_interface_set.c ****                     endpoint -> ux_slave_endpoint_descriptor.wMaxPacketSize &
 254              		.loc 1 241 13 view .LVU88
 244:../STM32Cube_FW_N6/Middlewares/ST/usbx/common/core/src/ux_device_stack_interface_set.c ****                 (endpoint -> ux_slave_endpoint_descriptor.bmAttributes & 0x1u))
 255              		.loc 1 244 35 is_stmt 0 view .LVU89
 256 00a8 D9F80010 		ldr	r1, [r9]
 241:../STM32Cube_FW_N6/Middlewares/ST/usbx/common/core/src/ux_device_stack_interface_set.c ****                     endpoint -> ux_slave_endpoint_descriptor.wMaxPacketSize &
 257              		.loc 1 241 33 view .LVU90
 258 00ac C3F30A02 		ubfx	r2, r3, #0, #11
 259              	.LVL25:
 244:../STM32Cube_FW_N6/Middlewares/ST/usbx/common/core/src/ux_device_stack_interface_set.c ****                 (endpoint -> ux_slave_endpoint_descriptor.bmAttributes & 0x1u))
 260              		.loc 1 244 13 is_stmt 1 view .LVU91
 244:../STM32Cube_FW_N6/Middlewares/ST/usbx/common/core/src/ux_device_stack_interface_set.c ****                 (endpoint -> ux_slave_endpoint_descriptor.bmAttributes & 0x1u))
 261              		.loc 1 244 16 is_stmt 0 view .LVU92
 262 00b0 D1F84011 		ldr	r1, [r1, #320]
 263 00b4 0229     		cmp	r1, #2
 264 00b6 0CD1     		bne	.L18
 244:../STM32Cube_FW_N6/Middlewares/ST/usbx/common/core/src/ux_device_stack_interface_set.c ****                 (endpoint -> ux_slave_endpoint_descriptor.bmAttributes & 0x1u))
 265              		.loc 1 244 85 discriminator 1 view .LVU93
 266 00b8 E17B     		ldrb	r1, [r4, #15]	@ zero_extendqisi2
 267 00ba C907     		lsls	r1, r1, #31
 268 00bc 09D5     		bpl	.L18
 247:../STM32Cube_FW_N6/Middlewares/ST/usbx/common/core/src/ux_device_stack_interface_set.c ****                                             UX_MAX_NUMBER_OF_TRANSACTIONS_MASK;
 269              		.loc 1 247 17 is_stmt 1 view .LVU94
 270              	.LVL26:
 249:../STM32Cube_FW_N6/Middlewares/ST/usbx/common/core/src/ux_device_stack_interface_set.c ****                 {
 271              		.loc 1 249 17 view .LVU95
 249:../STM32Cube_FW_N6/Middlewares/ST/usbx/common/core/src/ux_device_stack_interface_set.c ****                 {
 272              		.loc 1 249 20 is_stmt 0 view .LVU96
 273 00be 13F4C053 		ands	r3, r3, #6144
 274              	.LVL27:
 249:../STM32Cube_FW_N6/Middlewares/ST/usbx/common/core/src/ux_device_stack_interface_set.c ****                 {
 275              		.loc 1 249 20 view .LVU97
 276 00c2 06D0     		beq	.L18
 251:../STM32Cube_FW_N6/Middlewares/ST/usbx/common/core/src/ux_device_stack_interface_set.c ****                     n_trans ++;
 277              		.loc 1 251 21 is_stmt 1 view .LVU98
 251:../STM32Cube_FW_N6/Middlewares/ST/usbx/common/core/src/ux_device_stack_interface_set.c ****                     n_trans ++;
 278              		.loc 1 251 29 is_stmt 0 view .LVU99
 279 00c4 DB0A     		lsrs	r3, r3, #11
 280              	.LVL28:
 252:../STM32Cube_FW_N6/Middlewares/ST/usbx/common/core/src/ux_device_stack_interface_set.c ****                     max_transfer_length *= n_trans;
ARM GAS  /tmp/ccHoJ7KI.s 			page 13


 281              		.loc 1 252 21 is_stmt 1 view .LVU100
 253:../STM32Cube_FW_N6/Middlewares/ST/usbx/common/core/src/ux_device_stack_interface_set.c ****                 }
 282              		.loc 1 253 21 view .LVU101
 253:../STM32Cube_FW_N6/Middlewares/ST/usbx/common/core/src/ux_device_stack_interface_set.c ****                 }
 283              		.loc 1 253 41 is_stmt 0 view .LVU102
 284 00c6 03FB0222 		mla	r2, r3, r2, r2
 285              	.LVL29:
 258:../STM32Cube_FW_N6/Middlewares/ST/usbx/common/core/src/ux_device_stack_interface_set.c ****             transfer_request -> ux_slave_transfer_request_transfer_length = max_transfer_length;
 286              		.loc 1 258 13 is_stmt 1 view .LVU103
 287 00ca B2F5406F 		cmp	r2, #3072
 288 00ce 00D9     		bls	.L18
 289              	.L19:
 258:../STM32Cube_FW_N6/Middlewares/ST/usbx/common/core/src/ux_device_stack_interface_set.c ****             transfer_request -> ux_slave_transfer_request_transfer_length = max_transfer_length;
 290              		.loc 1 258 13 view .LVU104
 258:../STM32Cube_FW_N6/Middlewares/ST/usbx/common/core/src/ux_device_stack_interface_set.c ****             transfer_request -> ux_slave_transfer_request_transfer_length = max_transfer_length;
 291              		.loc 1 258 13 view .LVU105
 258:../STM32Cube_FW_N6/Middlewares/ST/usbx/common/core/src/ux_device_stack_interface_set.c ****             transfer_request -> ux_slave_transfer_request_transfer_length = max_transfer_length;
 292              		.loc 1 258 13 view .LVU106
 293 00d0 FEE7     		b	.L19
 294              	.LVL30:
 295              	.L18:
 258:../STM32Cube_FW_N6/Middlewares/ST/usbx/common/core/src/ux_device_stack_interface_set.c ****             transfer_request -> ux_slave_transfer_request_transfer_length = max_transfer_length;
 296              		.loc 1 258 79 view .LVU107
 259:../STM32Cube_FW_N6/Middlewares/ST/usbx/common/core/src/ux_device_stack_interface_set.c **** 
 297              		.loc 1 259 13 view .LVU108
 265:../STM32Cube_FW_N6/Middlewares/ST/usbx/common/core/src/ux_device_stack_interface_set.c ****             
 298              		.loc 1 265 67 is_stmt 0 view .LVU109
 299 00d2 4FF0FF33 		mov	r3, #-1
 259:../STM32Cube_FW_N6/Middlewares/ST/usbx/common/core/src/ux_device_stack_interface_set.c **** 
 300              		.loc 1 259 75 view .LVU110
 301 00d6 2264     		str	r2, [r4, #64]
 262:../STM32Cube_FW_N6/Middlewares/ST/usbx/common/core/src/ux_device_stack_interface_set.c ****                 
 302              		.loc 1 262 13 is_stmt 1 view .LVU111
 265:../STM32Cube_FW_N6/Middlewares/ST/usbx/common/core/src/ux_device_stack_interface_set.c ****             
 303              		.loc 1 265 67 is_stmt 0 view .LVU112
 304 00d8 6365     		str	r3, [r4, #84]
 274:../STM32Cube_FW_N6/Middlewares/ST/usbx/common/core/src/ux_device_stack_interface_set.c ****             
 305              		.loc 1 274 23 view .LVU113
 306 00da 2246     		mov	r2, r4
 307 00dc 0E21     		movs	r1, #14
 308 00de 3846     		mov	r0, r7
 271:../STM32Cube_FW_N6/Middlewares/ST/usbx/common/core/src/ux_device_stack_interface_set.c ****                 
 309              		.loc 1 271 50 view .LVU114
 310 00e0 C4E9065B 		strd	r5, fp, [r4, #24]
 274:../STM32Cube_FW_N6/Middlewares/ST/usbx/common/core/src/ux_device_stack_interface_set.c ****             
 311              		.loc 1 274 23 view .LVU115
 312 00e4 BB69     		ldr	r3, [r7, #24]
 262:../STM32Cube_FW_N6/Middlewares/ST/usbx/common/core/src/ux_device_stack_interface_set.c ****                 
 313              		.loc 1 262 68 view .LVU116
 314 00e6 A462     		str	r4, [r4, #40]
 265:../STM32Cube_FW_N6/Middlewares/ST/usbx/common/core/src/ux_device_stack_interface_set.c ****             
 315              		.loc 1 265 13 is_stmt 1 view .LVU117
 268:../STM32Cube_FW_N6/Middlewares/ST/usbx/common/core/src/ux_device_stack_interface_set.c ****                 
 316              		.loc 1 268 13 view .LVU118
 274:../STM32Cube_FW_N6/Middlewares/ST/usbx/common/core/src/ux_device_stack_interface_set.c ****             
 317              		.loc 1 274 13 view .LVU119
 274:../STM32Cube_FW_N6/Middlewares/ST/usbx/common/core/src/ux_device_stack_interface_set.c ****             
ARM GAS  /tmp/ccHoJ7KI.s 			page 14


 318              		.loc 1 274 23 is_stmt 0 view .LVU120
 319 00e8 9847     		blx	r3
 320              	.LVL31:
 277:../STM32Cube_FW_N6/Middlewares/ST/usbx/common/core/src/ux_device_stack_interface_set.c ****             {
 321              		.loc 1 277 13 is_stmt 1 view .LVU121
 277:../STM32Cube_FW_N6/Middlewares/ST/usbx/common/core/src/ux_device_stack_interface_set.c ****             {
 322              		.loc 1 277 16 is_stmt 0 view .LVU122
 323 00ea 10B1     		cbz	r0, .L20
 281:../STM32Cube_FW_N6/Middlewares/ST/usbx/common/core/src/ux_device_stack_interface_set.c ****                 return(status);
 324              		.loc 1 281 17 is_stmt 1 view .LVU123
 281:../STM32Cube_FW_N6/Middlewares/ST/usbx/common/core/src/ux_device_stack_interface_set.c ****                 return(status);
 325              		.loc 1 281 54 is_stmt 0 view .LVU124
 326 00ec 0023     		movs	r3, #0
 327 00ee 2360     		str	r3, [r4]
 282:../STM32Cube_FW_N6/Middlewares/ST/usbx/common/core/src/ux_device_stack_interface_set.c ****             }
 328              		.loc 1 282 17 is_stmt 1 view .LVU125
 282:../STM32Cube_FW_N6/Middlewares/ST/usbx/common/core/src/ux_device_stack_interface_set.c ****             }
 329              		.loc 1 282 23 is_stmt 0 view .LVU126
 330 00f0 94E7     		b	.L1
 331              	.L20:
 286:../STM32Cube_FW_N6/Middlewares/ST/usbx/common/core/src/ux_device_stack_interface_set.c ****             {
 332              		.loc 1 286 13 is_stmt 1 view .LVU127
 286:../STM32Cube_FW_N6/Middlewares/ST/usbx/common/core/src/ux_device_stack_interface_set.c ****             {
 333              		.loc 1 286 31 is_stmt 0 view .LVU128
 334 00f2 EB69     		ldr	r3, [r5, #28]
 286:../STM32Cube_FW_N6/Middlewares/ST/usbx/common/core/src/ux_device_stack_interface_set.c ****             {
 335              		.loc 1 286 16 view .LVU129
 336 00f4 23B9     		cbnz	r3, .L21
 289:../STM32Cube_FW_N6/Middlewares/ST/usbx/common/core/src/ux_device_stack_interface_set.c ****             }
 337              		.loc 1 289 17 is_stmt 1 view .LVU130
 289:../STM32Cube_FW_N6/Middlewares/ST/usbx/common/core/src/ux_device_stack_interface_set.c ****             }
 338              		.loc 1 289 68 is_stmt 0 view .LVU131
 339 00f6 EC61     		str	r4, [r5, #28]
 340              	.LVL32:
 341              	.L11:
 317:../STM32Cube_FW_N6/Middlewares/ST/usbx/common/core/src/ux_device_stack_interface_set.c **** 
 342              		.loc 1 317 9 is_stmt 1 view .LVU132
 317:../STM32Cube_FW_N6/Middlewares/ST/usbx/common/core/src/ux_device_stack_interface_set.c **** 
 343              		.loc 1 317 33 is_stmt 0 view .LVU133
 344 00f8 A8EB0A08 		sub	r8, r8, r10
 345              	.LVL33:
 320:../STM32Cube_FW_N6/Middlewares/ST/usbx/common/core/src/ux_device_stack_interface_set.c ****     }
 346              		.loc 1 320 9 is_stmt 1 view .LVU134
 320:../STM32Cube_FW_N6/Middlewares/ST/usbx/common/core/src/ux_device_stack_interface_set.c ****     }
 347              		.loc 1 320 26 is_stmt 0 view .LVU135
 348 00fc 5644     		add	r6, r6, r10
 349              	.LVL34:
 320:../STM32Cube_FW_N6/Middlewares/ST/usbx/common/core/src/ux_device_stack_interface_set.c ****     }
 350              		.loc 1 320 26 view .LVU136
 351 00fe A7E7     		b	.L8
 352              	.LVL35:
 353              	.L21:
 295:../STM32Cube_FW_N6/Middlewares/ST/usbx/common/core/src/ux_device_stack_interface_set.c ****                     endpoint_link =  endpoint_link -> ux_slave_endpoint_next_endpoint;
 354              		.loc 1 295 73 is_stmt 1 view .LVU137
 355 0100 1A46     		mov	r2, r3
 295:../STM32Cube_FW_N6/Middlewares/ST/usbx/common/core/src/ux_device_stack_interface_set.c ****                     endpoint_link =  endpoint_link -> ux_slave_endpoint_next_endpoint;
 356              		.loc 1 295 38 is_stmt 0 view .LVU138
ARM GAS  /tmp/ccHoJ7KI.s 			page 15


 357 0102 5B69     		ldr	r3, [r3, #20]
 358              	.LVL36:
 295:../STM32Cube_FW_N6/Middlewares/ST/usbx/common/core/src/ux_device_stack_interface_set.c ****                     endpoint_link =  endpoint_link -> ux_slave_endpoint_next_endpoint;
 359              		.loc 1 295 73 view .LVU139
 360 0104 002B     		cmp	r3, #0
 361 0106 FBD1     		bne	.L21
 297:../STM32Cube_FW_N6/Middlewares/ST/usbx/common/core/src/ux_device_stack_interface_set.c ****             }
 362              		.loc 1 297 17 is_stmt 1 view .LVU140
 297:../STM32Cube_FW_N6/Middlewares/ST/usbx/common/core/src/ux_device_stack_interface_set.c ****             }
 363              		.loc 1 297 66 is_stmt 0 view .LVU141
 364 0108 5461     		str	r4, [r2, #20]
 365 010a F5E7     		b	.L11
 366              	.L43:
 367              		.align	2
 368              	.L42:
 369 010c 00000000 		.word	_ux_system_interface_descriptor_structure
 370 0110 00000000 		.word	_ux_system_endpoint_descriptor_structure
 371 0114 00000000 		.word	_ux_system_slave
 372              		.cfi_endproc
 373              	.LFE3:
 375              		.text
 376              	.Letext0:
 377              		.file 2 "../STM32Cube_FW_N6/Middlewares/ST/usbx/ports/generic/inc/ux_port.h"
 378              		.file 3 "../STM32Cube_FW_N6/Middlewares/ST/usbx/common/core/inc/ux_api.h"
 379              		.file 4 "../STM32Cube_FW_N6/Middlewares/ST/usbx/common/core/inc/ux_system.h"
 380              		.file 5 "../STM32Cube_FW_N6/Middlewares/ST/usbx/common/core/inc/ux_device_stack.h"
 381              		.file 6 "../STM32Cube_FW_N6/Middlewares/ST/usbx/common/core/inc/ux_utility.h"
ARM GAS  /tmp/ccHoJ7KI.s 			page 16

