ARM GAS  /tmp/ccT69R42.s 			page 1


   1              		.arch armv8.1-m.main
   2              		.fpu fpv5-d16
   3              		.arch_extension dsp
   4              		.arch_extension fp
   5              		.arch_extension fp.dp
   6              		.arch_extension mve
   7              		.arch_extension mve.fp
   8              		.eabi_attribute 5, "cortex-m55"
   9              		.eabi_attribute 28, 1
  10              		.eabi_attribute 20, 1
  11              		.eabi_attribute 21, 1
  12              		.eabi_attribute 23, 3
  13              		.eabi_attribute 24, 1
  14              		.eabi_attribute 25, 1
  15              		.eabi_attribute 26, 1
  16              		.eabi_attribute 30, 4
  17              		.eabi_attribute 34, 1
  18              		.eabi_attribute 38, 1
  19              		.eabi_attribute 18, 4
  20              		.file	"ux_device_class_video_write_task_function.c"
  21              		.text
  22              	.Ltext0:
  23              		.cfi_sections	.debug_frame
  24              		.file 1 "../STM32Cube_FW_N6/Middlewares/ST/usbx/common/usbx_device_classes/src/ux_device_class_vid
  25              		.section	.text._ux_device_class_video_write_task_function,"ax",%progbits
  26              		.align	1
  27              		.global	_ux_device_class_video_write_task_function
  28              		.syntax unified
  29              		.thumb
  30              		.thumb_func
  32              	_ux_device_class_video_write_task_function:
  33              	.LVL0:
  34              	.LFB3:
   1:../STM32Cube_FW_N6/Middlewares/ST/usbx/common/usbx_device_classes/src/ux_device_class_video_write_task_function.c **** /**************************************************************************/
   2:../STM32Cube_FW_N6/Middlewares/ST/usbx/common/usbx_device_classes/src/ux_device_class_video_write_task_function.c **** /*                                                                        */
   3:../STM32Cube_FW_N6/Middlewares/ST/usbx/common/usbx_device_classes/src/ux_device_class_video_write_task_function.c **** /*       Copyright (c) Microsoft Corporation. All rights reserved.        */
   4:../STM32Cube_FW_N6/Middlewares/ST/usbx/common/usbx_device_classes/src/ux_device_class_video_write_task_function.c **** /*                                                                        */
   5:../STM32Cube_FW_N6/Middlewares/ST/usbx/common/usbx_device_classes/src/ux_device_class_video_write_task_function.c **** /*       This software is licensed under the Microsoft Software License   */
   6:../STM32Cube_FW_N6/Middlewares/ST/usbx/common/usbx_device_classes/src/ux_device_class_video_write_task_function.c **** /*       Terms for Microsoft Azure RTOS. Full text of the license can be  */
   7:../STM32Cube_FW_N6/Middlewares/ST/usbx/common/usbx_device_classes/src/ux_device_class_video_write_task_function.c **** /*       found in the LICENSE file at https://aka.ms/AzureRTOS_EULA       */
   8:../STM32Cube_FW_N6/Middlewares/ST/usbx/common/usbx_device_classes/src/ux_device_class_video_write_task_function.c **** /*       and in the root directory of this software.                      */
   9:../STM32Cube_FW_N6/Middlewares/ST/usbx/common/usbx_device_classes/src/ux_device_class_video_write_task_function.c **** /*                                                                        */
  10:../STM32Cube_FW_N6/Middlewares/ST/usbx/common/usbx_device_classes/src/ux_device_class_video_write_task_function.c **** /**************************************************************************/
  11:../STM32Cube_FW_N6/Middlewares/ST/usbx/common/usbx_device_classes/src/ux_device_class_video_write_task_function.c **** 
  12:../STM32Cube_FW_N6/Middlewares/ST/usbx/common/usbx_device_classes/src/ux_device_class_video_write_task_function.c **** /**************************************************************************/
  13:../STM32Cube_FW_N6/Middlewares/ST/usbx/common/usbx_device_classes/src/ux_device_class_video_write_task_function.c **** /**************************************************************************/
  14:../STM32Cube_FW_N6/Middlewares/ST/usbx/common/usbx_device_classes/src/ux_device_class_video_write_task_function.c **** /**                                                                       */
  15:../STM32Cube_FW_N6/Middlewares/ST/usbx/common/usbx_device_classes/src/ux_device_class_video_write_task_function.c **** /** USBX Component                                                        */
  16:../STM32Cube_FW_N6/Middlewares/ST/usbx/common/usbx_device_classes/src/ux_device_class_video_write_task_function.c **** /**                                                                       */
  17:../STM32Cube_FW_N6/Middlewares/ST/usbx/common/usbx_device_classes/src/ux_device_class_video_write_task_function.c **** /**   Device Video Class                                                  */
  18:../STM32Cube_FW_N6/Middlewares/ST/usbx/common/usbx_device_classes/src/ux_device_class_video_write_task_function.c **** /**                                                                       */
  19:../STM32Cube_FW_N6/Middlewares/ST/usbx/common/usbx_device_classes/src/ux_device_class_video_write_task_function.c **** /**************************************************************************/
  20:../STM32Cube_FW_N6/Middlewares/ST/usbx/common/usbx_device_classes/src/ux_device_class_video_write_task_function.c **** /**************************************************************************/
  21:../STM32Cube_FW_N6/Middlewares/ST/usbx/common/usbx_device_classes/src/ux_device_class_video_write_task_function.c **** 
  22:../STM32Cube_FW_N6/Middlewares/ST/usbx/common/usbx_device_classes/src/ux_device_class_video_write_task_function.c **** #define UX_SOURCE_CODE
  23:../STM32Cube_FW_N6/Middlewares/ST/usbx/common/usbx_device_classes/src/ux_device_class_video_write_task_function.c **** 
  24:../STM32Cube_FW_N6/Middlewares/ST/usbx/common/usbx_device_classes/src/ux_device_class_video_write_task_function.c **** 
ARM GAS  /tmp/ccT69R42.s 			page 2


  25:../STM32Cube_FW_N6/Middlewares/ST/usbx/common/usbx_device_classes/src/ux_device_class_video_write_task_function.c **** /* Include necessary system files.  */
  26:../STM32Cube_FW_N6/Middlewares/ST/usbx/common/usbx_device_classes/src/ux_device_class_video_write_task_function.c **** 
  27:../STM32Cube_FW_N6/Middlewares/ST/usbx/common/usbx_device_classes/src/ux_device_class_video_write_task_function.c **** #include "ux_api.h"
  28:../STM32Cube_FW_N6/Middlewares/ST/usbx/common/usbx_device_classes/src/ux_device_class_video_write_task_function.c **** #include "ux_device_class_video.h"
  29:../STM32Cube_FW_N6/Middlewares/ST/usbx/common/usbx_device_classes/src/ux_device_class_video_write_task_function.c **** #include "ux_device_stack.h"
  30:../STM32Cube_FW_N6/Middlewares/ST/usbx/common/usbx_device_classes/src/ux_device_class_video_write_task_function.c **** 
  31:../STM32Cube_FW_N6/Middlewares/ST/usbx/common/usbx_device_classes/src/ux_device_class_video_write_task_function.c **** 
  32:../STM32Cube_FW_N6/Middlewares/ST/usbx/common/usbx_device_classes/src/ux_device_class_video_write_task_function.c **** #if defined(UX_DEVICE_STANDALONE)
  33:../STM32Cube_FW_N6/Middlewares/ST/usbx/common/usbx_device_classes/src/ux_device_class_video_write_task_function.c **** /**************************************************************************/
  34:../STM32Cube_FW_N6/Middlewares/ST/usbx/common/usbx_device_classes/src/ux_device_class_video_write_task_function.c **** /*                                                                        */
  35:../STM32Cube_FW_N6/Middlewares/ST/usbx/common/usbx_device_classes/src/ux_device_class_video_write_task_function.c **** /*  FUNCTION                                               RELEASE        */
  36:../STM32Cube_FW_N6/Middlewares/ST/usbx/common/usbx_device_classes/src/ux_device_class_video_write_task_function.c **** /*                                                                        */
  37:../STM32Cube_FW_N6/Middlewares/ST/usbx/common/usbx_device_classes/src/ux_device_class_video_write_task_function.c **** /*    _ux_device_class_video_write_task_function          PORTABLE C      */
  38:../STM32Cube_FW_N6/Middlewares/ST/usbx/common/usbx_device_classes/src/ux_device_class_video_write_task_function.c **** /*                                                           6.3.0        */
  39:../STM32Cube_FW_N6/Middlewares/ST/usbx/common/usbx_device_classes/src/ux_device_class_video_write_task_function.c **** /*  AUTHOR                                                                */
  40:../STM32Cube_FW_N6/Middlewares/ST/usbx/common/usbx_device_classes/src/ux_device_class_video_write_task_function.c **** /*                                                                        */
  41:../STM32Cube_FW_N6/Middlewares/ST/usbx/common/usbx_device_classes/src/ux_device_class_video_write_task_function.c **** /*    Chaoqiong Xiao, Microsoft Corporation                               */
  42:../STM32Cube_FW_N6/Middlewares/ST/usbx/common/usbx_device_classes/src/ux_device_class_video_write_task_function.c **** /*                                                                        */
  43:../STM32Cube_FW_N6/Middlewares/ST/usbx/common/usbx_device_classes/src/ux_device_class_video_write_task_function.c **** /*  DESCRIPTION                                                           */
  44:../STM32Cube_FW_N6/Middlewares/ST/usbx/common/usbx_device_classes/src/ux_device_class_video_write_task_function.c **** /*                                                                        */
  45:../STM32Cube_FW_N6/Middlewares/ST/usbx/common/usbx_device_classes/src/ux_device_class_video_write_task_function.c **** /*    This function is the background task of the video stream write.     */
  46:../STM32Cube_FW_N6/Middlewares/ST/usbx/common/usbx_device_classes/src/ux_device_class_video_write_task_function.c **** /*                                                                        */
  47:../STM32Cube_FW_N6/Middlewares/ST/usbx/common/usbx_device_classes/src/ux_device_class_video_write_task_function.c **** /*    It's for standalone mode.                                           */
  48:../STM32Cube_FW_N6/Middlewares/ST/usbx/common/usbx_device_classes/src/ux_device_class_video_write_task_function.c **** /*                                                                        */
  49:../STM32Cube_FW_N6/Middlewares/ST/usbx/common/usbx_device_classes/src/ux_device_class_video_write_task_function.c **** /*  INPUT                                                                 */
  50:../STM32Cube_FW_N6/Middlewares/ST/usbx/common/usbx_device_classes/src/ux_device_class_video_write_task_function.c **** /*                                                                        */
  51:../STM32Cube_FW_N6/Middlewares/ST/usbx/common/usbx_device_classes/src/ux_device_class_video_write_task_function.c **** /*    video_class                                 Address of video class  */
  52:../STM32Cube_FW_N6/Middlewares/ST/usbx/common/usbx_device_classes/src/ux_device_class_video_write_task_function.c **** /*                                                container               */
  53:../STM32Cube_FW_N6/Middlewares/ST/usbx/common/usbx_device_classes/src/ux_device_class_video_write_task_function.c **** /*                                                                        */
  54:../STM32Cube_FW_N6/Middlewares/ST/usbx/common/usbx_device_classes/src/ux_device_class_video_write_task_function.c **** /*  OUTPUT                                                                */
  55:../STM32Cube_FW_N6/Middlewares/ST/usbx/common/usbx_device_classes/src/ux_device_class_video_write_task_function.c **** /*                                                                        */
  56:../STM32Cube_FW_N6/Middlewares/ST/usbx/common/usbx_device_classes/src/ux_device_class_video_write_task_function.c **** /*    State machine status                                                */
  57:../STM32Cube_FW_N6/Middlewares/ST/usbx/common/usbx_device_classes/src/ux_device_class_video_write_task_function.c **** /*    UX_STATE_EXIT                         Device not configured         */
  58:../STM32Cube_FW_N6/Middlewares/ST/usbx/common/usbx_device_classes/src/ux_device_class_video_write_task_function.c **** /*    UX_STATE_IDLE                         No streaming transfer running */
  59:../STM32Cube_FW_N6/Middlewares/ST/usbx/common/usbx_device_classes/src/ux_device_class_video_write_task_function.c **** /*    UX_STATE_WAIT                         Streaming transfer running    */
  60:../STM32Cube_FW_N6/Middlewares/ST/usbx/common/usbx_device_classes/src/ux_device_class_video_write_task_function.c **** /*                                                                        */
  61:../STM32Cube_FW_N6/Middlewares/ST/usbx/common/usbx_device_classes/src/ux_device_class_video_write_task_function.c **** /*  CALLS                                                                 */
  62:../STM32Cube_FW_N6/Middlewares/ST/usbx/common/usbx_device_classes/src/ux_device_class_video_write_task_function.c **** /*                                                                        */
  63:../STM32Cube_FW_N6/Middlewares/ST/usbx/common/usbx_device_classes/src/ux_device_class_video_write_task_function.c **** /*    _ux_device_stack_transfer_run         Run transfer state machine    */
  64:../STM32Cube_FW_N6/Middlewares/ST/usbx/common/usbx_device_classes/src/ux_device_class_video_write_task_function.c **** /*    _ux_utility_memory_copy               Copy memory                   */
  65:../STM32Cube_FW_N6/Middlewares/ST/usbx/common/usbx_device_classes/src/ux_device_class_video_write_task_function.c **** /*                                                                        */
  66:../STM32Cube_FW_N6/Middlewares/ST/usbx/common/usbx_device_classes/src/ux_device_class_video_write_task_function.c **** /*  CALLED BY                                                             */
  67:../STM32Cube_FW_N6/Middlewares/ST/usbx/common/usbx_device_classes/src/ux_device_class_video_write_task_function.c **** /*                                                                        */
  68:../STM32Cube_FW_N6/Middlewares/ST/usbx/common/usbx_device_classes/src/ux_device_class_video_write_task_function.c **** /*    USBX Device Stack                                                   */
  69:../STM32Cube_FW_N6/Middlewares/ST/usbx/common/usbx_device_classes/src/ux_device_class_video_write_task_function.c **** /*                                                                        */
  70:../STM32Cube_FW_N6/Middlewares/ST/usbx/common/usbx_device_classes/src/ux_device_class_video_write_task_function.c **** /*  RELEASE HISTORY                                                       */
  71:../STM32Cube_FW_N6/Middlewares/ST/usbx/common/usbx_device_classes/src/ux_device_class_video_write_task_function.c **** /*                                                                        */
  72:../STM32Cube_FW_N6/Middlewares/ST/usbx/common/usbx_device_classes/src/ux_device_class_video_write_task_function.c **** /*    DATE              NAME                      DESCRIPTION             */
  73:../STM32Cube_FW_N6/Middlewares/ST/usbx/common/usbx_device_classes/src/ux_device_class_video_write_task_function.c **** /*                                                                        */
  74:../STM32Cube_FW_N6/Middlewares/ST/usbx/common/usbx_device_classes/src/ux_device_class_video_write_task_function.c **** /*  10-31-2022     Chaoqiong Xiao           Initial Version 6.2.0         */
  75:../STM32Cube_FW_N6/Middlewares/ST/usbx/common/usbx_device_classes/src/ux_device_class_video_write_task_function.c **** /*  10-31-2023     Chaoqiong Xiao           Modified comment(s),          */
  76:../STM32Cube_FW_N6/Middlewares/ST/usbx/common/usbx_device_classes/src/ux_device_class_video_write_task_function.c **** /*                                            used zero copy when class   */
  77:../STM32Cube_FW_N6/Middlewares/ST/usbx/common/usbx_device_classes/src/ux_device_class_video_write_task_function.c **** /*                                            owns endpoint buffer,       */
  78:../STM32Cube_FW_N6/Middlewares/ST/usbx/common/usbx_device_classes/src/ux_device_class_video_write_task_function.c **** /*                                            resulting in version 6.3.0  */
  79:../STM32Cube_FW_N6/Middlewares/ST/usbx/common/usbx_device_classes/src/ux_device_class_video_write_task_function.c **** /*                                                                        */
  80:../STM32Cube_FW_N6/Middlewares/ST/usbx/common/usbx_device_classes/src/ux_device_class_video_write_task_function.c **** /**************************************************************************/
  81:../STM32Cube_FW_N6/Middlewares/ST/usbx/common/usbx_device_classes/src/ux_device_class_video_write_task_function.c **** UINT _ux_device_class_video_write_task_function(UX_DEVICE_CLASS_VIDEO_STREAM *stream)
ARM GAS  /tmp/ccT69R42.s 			page 3


  82:../STM32Cube_FW_N6/Middlewares/ST/usbx/common/usbx_device_classes/src/ux_device_class_video_write_task_function.c **** {
  35              		.loc 1 82 1 view -0
  36              		.cfi_startproc
  37              		@ args = 0, pretend = 0, frame = 0
  38              		@ frame_needed = 0, uses_anonymous_args = 0
  83:../STM32Cube_FW_N6/Middlewares/ST/usbx/common/usbx_device_classes/src/ux_device_class_video_write_task_function.c **** UX_SLAVE_DEVICE                 *device;
  39              		.loc 1 83 1 view .LVU1
  84:../STM32Cube_FW_N6/Middlewares/ST/usbx/common/usbx_device_classes/src/ux_device_class_video_write_task_function.c **** UX_SLAVE_ENDPOINT               *endpoint;
  40              		.loc 1 84 1 view .LVU2
  85:../STM32Cube_FW_N6/Middlewares/ST/usbx/common/usbx_device_classes/src/ux_device_class_video_write_task_function.c **** UX_SLAVE_TRANSFER               *transfer;
  41              		.loc 1 85 1 view .LVU3
  86:../STM32Cube_FW_N6/Middlewares/ST/usbx/common/usbx_device_classes/src/ux_device_class_video_write_task_function.c **** UCHAR                           *next_pos;
  42              		.loc 1 86 1 view .LVU4
  87:../STM32Cube_FW_N6/Middlewares/ST/usbx/common/usbx_device_classes/src/ux_device_class_video_write_task_function.c **** UX_DEVICE_CLASS_VIDEO_PAYLOAD   *next_payload;
  43              		.loc 1 87 1 view .LVU5
  88:../STM32Cube_FW_N6/Middlewares/ST/usbx/common/usbx_device_classes/src/ux_device_class_video_write_task_function.c **** ULONG                           transfer_length;
  44              		.loc 1 88 1 view .LVU6
  89:../STM32Cube_FW_N6/Middlewares/ST/usbx/common/usbx_device_classes/src/ux_device_class_video_write_task_function.c **** ULONG                           actual_length;
  45              		.loc 1 89 1 view .LVU7
  90:../STM32Cube_FW_N6/Middlewares/ST/usbx/common/usbx_device_classes/src/ux_device_class_video_write_task_function.c **** UINT                            status;
  46              		.loc 1 90 1 view .LVU8
  91:../STM32Cube_FW_N6/Middlewares/ST/usbx/common/usbx_device_classes/src/ux_device_class_video_write_task_function.c **** 
  92:../STM32Cube_FW_N6/Middlewares/ST/usbx/common/usbx_device_classes/src/ux_device_class_video_write_task_function.c **** 
  93:../STM32Cube_FW_N6/Middlewares/ST/usbx/common/usbx_device_classes/src/ux_device_class_video_write_task_function.c ****     /* Get the pointer to the device.  */
  94:../STM32Cube_FW_N6/Middlewares/ST/usbx/common/usbx_device_classes/src/ux_device_class_video_write_task_function.c ****     device = stream -> ux_device_class_video_stream_video -> ux_device_class_video_device;
  47              		.loc 1 94 5 view .LVU9
  95:../STM32Cube_FW_N6/Middlewares/ST/usbx/common/usbx_device_classes/src/ux_device_class_video_write_task_function.c **** 
  96:../STM32Cube_FW_N6/Middlewares/ST/usbx/common/usbx_device_classes/src/ux_device_class_video_write_task_function.c ****     /* Check if the device is configured.  */
  97:../STM32Cube_FW_N6/Middlewares/ST/usbx/common/usbx_device_classes/src/ux_device_class_video_write_task_function.c ****     if (device -> ux_slave_device_state != UX_DEVICE_CONFIGURED)
  48              		.loc 1 97 5 view .LVU10
  94:../STM32Cube_FW_N6/Middlewares/ST/usbx/common/usbx_device_classes/src/ux_device_class_video_write_task_function.c **** 
  49              		.loc 1 94 12 is_stmt 0 view .LVU11
  50 0000 0368     		ldr	r3, [r0]
  82:../STM32Cube_FW_N6/Middlewares/ST/usbx/common/usbx_device_classes/src/ux_device_class_video_write_task_function.c **** UX_SLAVE_DEVICE                 *device;
  51              		.loc 1 82 1 view .LVU12
  52 0002 70B5     		push	{r4, r5, r6, lr}
  53              		.cfi_def_cfa_offset 16
  54              		.cfi_offset 4, -16
  55              		.cfi_offset 5, -12
  56              		.cfi_offset 6, -8
  57              		.cfi_offset 14, -4
  58              		.loc 1 97 16 view .LVU13
  59 0004 5B68     		ldr	r3, [r3, #4]
  82:../STM32Cube_FW_N6/Middlewares/ST/usbx/common/usbx_device_classes/src/ux_device_class_video_write_task_function.c **** UX_SLAVE_DEVICE                 *device;
  60              		.loc 1 82 1 view .LVU14
  61 0006 0446     		mov	r4, r0
  62              		.loc 1 97 8 view .LVU15
  63 0008 1B68     		ldr	r3, [r3]
  64 000a 032B     		cmp	r3, #3
  65 000c 03D0     		beq	.L2
  98:../STM32Cube_FW_N6/Middlewares/ST/usbx/common/usbx_device_classes/src/ux_device_class_video_write_task_function.c ****     {
  99:../STM32Cube_FW_N6/Middlewares/ST/usbx/common/usbx_device_classes/src/ux_device_class_video_write_task_function.c ****         stream -> ux_device_class_video_stream_task_state = UX_STATE_EXIT;
  66              		.loc 1 99 9 is_stmt 1 view .LVU16
  67              		.loc 1 99 59 is_stmt 0 view .LVU17
  68 000e 0123     		movs	r3, #1
  69 0010 0362     		str	r3, [r0, #32]
 100:../STM32Cube_FW_N6/Middlewares/ST/usbx/common/usbx_device_classes/src/ux_device_class_video_write_task_function.c ****         return(UX_STATE_EXIT);
ARM GAS  /tmp/ccT69R42.s 			page 4


  70              		.loc 1 100 9 is_stmt 1 view .LVU18
  71              	.LVL1:
  72              	.L3:
  73              		.loc 1 100 15 is_stmt 0 view .LVU19
  74 0012 0120     		movs	r0, #1
  75              	.L1:
 101:../STM32Cube_FW_N6/Middlewares/ST/usbx/common/usbx_device_classes/src/ux_device_class_video_write_task_function.c ****     }
 102:../STM32Cube_FW_N6/Middlewares/ST/usbx/common/usbx_device_classes/src/ux_device_class_video_write_task_function.c **** 
 103:../STM32Cube_FW_N6/Middlewares/ST/usbx/common/usbx_device_classes/src/ux_device_class_video_write_task_function.c ****     /* Get the endpoint.  */
 104:../STM32Cube_FW_N6/Middlewares/ST/usbx/common/usbx_device_classes/src/ux_device_class_video_write_task_function.c ****     endpoint = stream -> ux_device_class_video_stream_endpoint;
 105:../STM32Cube_FW_N6/Middlewares/ST/usbx/common/usbx_device_classes/src/ux_device_class_video_write_task_function.c **** 
 106:../STM32Cube_FW_N6/Middlewares/ST/usbx/common/usbx_device_classes/src/ux_device_class_video_write_task_function.c ****     /* No endpoint ready, maybe it's alternate setting 0.  */
 107:../STM32Cube_FW_N6/Middlewares/ST/usbx/common/usbx_device_classes/src/ux_device_class_video_write_task_function.c ****     if (endpoint == UX_NULL)
 108:../STM32Cube_FW_N6/Middlewares/ST/usbx/common/usbx_device_classes/src/ux_device_class_video_write_task_function.c ****         return(UX_STATE_IDLE);
 109:../STM32Cube_FW_N6/Middlewares/ST/usbx/common/usbx_device_classes/src/ux_device_class_video_write_task_function.c **** 
 110:../STM32Cube_FW_N6/Middlewares/ST/usbx/common/usbx_device_classes/src/ux_device_class_video_write_task_function.c ****     /* Check if background transfer task is started.  */
 111:../STM32Cube_FW_N6/Middlewares/ST/usbx/common/usbx_device_classes/src/ux_device_class_video_write_task_function.c ****     if (stream -> ux_device_class_video_stream_task_state == UX_DEVICE_CLASS_VIDEO_STREAM_RW_STOP)
 112:../STM32Cube_FW_N6/Middlewares/ST/usbx/common/usbx_device_classes/src/ux_device_class_video_write_task_function.c ****         return(UX_STATE_IDLE);
 113:../STM32Cube_FW_N6/Middlewares/ST/usbx/common/usbx_device_classes/src/ux_device_class_video_write_task_function.c **** 
 114:../STM32Cube_FW_N6/Middlewares/ST/usbx/common/usbx_device_classes/src/ux_device_class_video_write_task_function.c ****     /* Get transfer instance.  */
 115:../STM32Cube_FW_N6/Middlewares/ST/usbx/common/usbx_device_classes/src/ux_device_class_video_write_task_function.c ****     transfer = &endpoint -> ux_slave_endpoint_transfer_request;
 116:../STM32Cube_FW_N6/Middlewares/ST/usbx/common/usbx_device_classes/src/ux_device_class_video_write_task_function.c **** 
 117:../STM32Cube_FW_N6/Middlewares/ST/usbx/common/usbx_device_classes/src/ux_device_class_video_write_task_function.c ****     /* If not started yet, prepare data, reset transfer and start polling.  */
 118:../STM32Cube_FW_N6/Middlewares/ST/usbx/common/usbx_device_classes/src/ux_device_class_video_write_task_function.c ****     if (stream -> ux_device_class_video_stream_task_state == UX_DEVICE_CLASS_VIDEO_STREAM_RW_START)
 119:../STM32Cube_FW_N6/Middlewares/ST/usbx/common/usbx_device_classes/src/ux_device_class_video_write_task_function.c ****     {
 120:../STM32Cube_FW_N6/Middlewares/ST/usbx/common/usbx_device_classes/src/ux_device_class_video_write_task_function.c **** 
 121:../STM32Cube_FW_N6/Middlewares/ST/usbx/common/usbx_device_classes/src/ux_device_class_video_write_task_function.c ****         /* Next state: transfer wait.  */
 122:../STM32Cube_FW_N6/Middlewares/ST/usbx/common/usbx_device_classes/src/ux_device_class_video_write_task_function.c ****         stream -> ux_device_class_video_stream_task_state = UX_DEVICE_CLASS_VIDEO_STREAM_RW_WAIT;
 123:../STM32Cube_FW_N6/Middlewares/ST/usbx/common/usbx_device_classes/src/ux_device_class_video_write_task_function.c **** 
 124:../STM32Cube_FW_N6/Middlewares/ST/usbx/common/usbx_device_classes/src/ux_device_class_video_write_task_function.c ****         /* Start payload transfer anyway (even ZLP).  */
 125:../STM32Cube_FW_N6/Middlewares/ST/usbx/common/usbx_device_classes/src/ux_device_class_video_write_task_function.c ****         transfer_length = stream -> ux_device_class_video_stream_transfer_pos -> ux_device_class_vi
 126:../STM32Cube_FW_N6/Middlewares/ST/usbx/common/usbx_device_classes/src/ux_device_class_video_write_task_function.c **** 
 127:../STM32Cube_FW_N6/Middlewares/ST/usbx/common/usbx_device_classes/src/ux_device_class_video_write_task_function.c **** #if UX_DEVICE_ENDPOINT_BUFFER_OWNER == 1
 128:../STM32Cube_FW_N6/Middlewares/ST/usbx/common/usbx_device_classes/src/ux_device_class_video_write_task_function.c **** 
 129:../STM32Cube_FW_N6/Middlewares/ST/usbx/common/usbx_device_classes/src/ux_device_class_video_write_task_function.c ****         /* Zero copy: directly use frame buffer for transfer.  */
 130:../STM32Cube_FW_N6/Middlewares/ST/usbx/common/usbx_device_classes/src/ux_device_class_video_write_task_function.c ****         transfer -> ux_slave_transfer_request_data_pointer = stream ->
 131:../STM32Cube_FW_N6/Middlewares/ST/usbx/common/usbx_device_classes/src/ux_device_class_video_write_task_function.c ****                     ux_device_class_video_stream_transfer_pos -> ux_device_class_video_payload_data
 132:../STM32Cube_FW_N6/Middlewares/ST/usbx/common/usbx_device_classes/src/ux_device_class_video_write_task_function.c **** #else
 133:../STM32Cube_FW_N6/Middlewares/ST/usbx/common/usbx_device_classes/src/ux_device_class_video_write_task_function.c **** 
 134:../STM32Cube_FW_N6/Middlewares/ST/usbx/common/usbx_device_classes/src/ux_device_class_video_write_task_function.c ****         /* Copy frame buffer to transfer buffer.  */
 135:../STM32Cube_FW_N6/Middlewares/ST/usbx/common/usbx_device_classes/src/ux_device_class_video_write_task_function.c ****         if (transfer_length)
 136:../STM32Cube_FW_N6/Middlewares/ST/usbx/common/usbx_device_classes/src/ux_device_class_video_write_task_function.c ****             _ux_utility_memory_copy(transfer -> ux_slave_transfer_request_data_pointer,
 137:../STM32Cube_FW_N6/Middlewares/ST/usbx/common/usbx_device_classes/src/ux_device_class_video_write_task_function.c ****                 stream -> ux_device_class_video_stream_transfer_pos -> ux_device_class_video_payloa
 138:../STM32Cube_FW_N6/Middlewares/ST/usbx/common/usbx_device_classes/src/ux_device_class_video_write_task_function.c **** #endif
 139:../STM32Cube_FW_N6/Middlewares/ST/usbx/common/usbx_device_classes/src/ux_device_class_video_write_task_function.c **** 
 140:../STM32Cube_FW_N6/Middlewares/ST/usbx/common/usbx_device_classes/src/ux_device_class_video_write_task_function.c ****         /* Reset transfer state.  */
 141:../STM32Cube_FW_N6/Middlewares/ST/usbx/common/usbx_device_classes/src/ux_device_class_video_write_task_function.c ****         UX_SLAVE_TRANSFER_STATE_RESET(transfer);
 142:../STM32Cube_FW_N6/Middlewares/ST/usbx/common/usbx_device_classes/src/ux_device_class_video_write_task_function.c ****     }
 143:../STM32Cube_FW_N6/Middlewares/ST/usbx/common/usbx_device_classes/src/ux_device_class_video_write_task_function.c **** 
 144:../STM32Cube_FW_N6/Middlewares/ST/usbx/common/usbx_device_classes/src/ux_device_class_video_write_task_function.c ****     /* Get current transfer length.  */
 145:../STM32Cube_FW_N6/Middlewares/ST/usbx/common/usbx_device_classes/src/ux_device_class_video_write_task_function.c ****     transfer_length = stream -> ux_device_class_video_stream_transfer_pos -> ux_device_class_video_
 146:../STM32Cube_FW_N6/Middlewares/ST/usbx/common/usbx_device_classes/src/ux_device_class_video_write_task_function.c **** 
 147:../STM32Cube_FW_N6/Middlewares/ST/usbx/common/usbx_device_classes/src/ux_device_class_video_write_task_function.c ****     /* Run transfer states.  */
 148:../STM32Cube_FW_N6/Middlewares/ST/usbx/common/usbx_device_classes/src/ux_device_class_video_write_task_function.c ****     status = _ux_device_stack_transfer_run(transfer, transfer_length, transfer_length);
 149:../STM32Cube_FW_N6/Middlewares/ST/usbx/common/usbx_device_classes/src/ux_device_class_video_write_task_function.c **** 
 150:../STM32Cube_FW_N6/Middlewares/ST/usbx/common/usbx_device_classes/src/ux_device_class_video_write_task_function.c ****     /* Error case.  */
 151:../STM32Cube_FW_N6/Middlewares/ST/usbx/common/usbx_device_classes/src/ux_device_class_video_write_task_function.c ****     if (status < UX_STATE_NEXT)
ARM GAS  /tmp/ccT69R42.s 			page 5


 152:../STM32Cube_FW_N6/Middlewares/ST/usbx/common/usbx_device_classes/src/ux_device_class_video_write_task_function.c ****     {
 153:../STM32Cube_FW_N6/Middlewares/ST/usbx/common/usbx_device_classes/src/ux_device_class_video_write_task_function.c **** 
 154:../STM32Cube_FW_N6/Middlewares/ST/usbx/common/usbx_device_classes/src/ux_device_class_video_write_task_function.c ****         /* Error on background transfer task start.  */
 155:../STM32Cube_FW_N6/Middlewares/ST/usbx/common/usbx_device_classes/src/ux_device_class_video_write_task_function.c ****         stream -> ux_device_class_video_stream_task_state = UX_STATE_RESET;
 156:../STM32Cube_FW_N6/Middlewares/ST/usbx/common/usbx_device_classes/src/ux_device_class_video_write_task_function.c ****         stream -> ux_device_class_video_stream_task_status =
 157:../STM32Cube_FW_N6/Middlewares/ST/usbx/common/usbx_device_classes/src/ux_device_class_video_write_task_function.c ****                         transfer -> ux_slave_transfer_request_completion_code;
 158:../STM32Cube_FW_N6/Middlewares/ST/usbx/common/usbx_device_classes/src/ux_device_class_video_write_task_function.c **** 
 159:../STM32Cube_FW_N6/Middlewares/ST/usbx/common/usbx_device_classes/src/ux_device_class_video_write_task_function.c ****         /* Error notification!  */
 160:../STM32Cube_FW_N6/Middlewares/ST/usbx/common/usbx_device_classes/src/ux_device_class_video_write_task_function.c ****         _ux_system_error_handler(UX_SYSTEM_LEVEL_THREAD, UX_SYSTEM_CONTEXT_CLASS, UX_TRANSFER_ERROR
 161:../STM32Cube_FW_N6/Middlewares/ST/usbx/common/usbx_device_classes/src/ux_device_class_video_write_task_function.c ****         return(UX_STATE_EXIT);
 162:../STM32Cube_FW_N6/Middlewares/ST/usbx/common/usbx_device_classes/src/ux_device_class_video_write_task_function.c ****     }
 163:../STM32Cube_FW_N6/Middlewares/ST/usbx/common/usbx_device_classes/src/ux_device_class_video_write_task_function.c **** 
 164:../STM32Cube_FW_N6/Middlewares/ST/usbx/common/usbx_device_classes/src/ux_device_class_video_write_task_function.c ****     /* Success case.  */
 165:../STM32Cube_FW_N6/Middlewares/ST/usbx/common/usbx_device_classes/src/ux_device_class_video_write_task_function.c ****     if (status == UX_STATE_NEXT)
 166:../STM32Cube_FW_N6/Middlewares/ST/usbx/common/usbx_device_classes/src/ux_device_class_video_write_task_function.c ****     {
 167:../STM32Cube_FW_N6/Middlewares/ST/usbx/common/usbx_device_classes/src/ux_device_class_video_write_task_function.c **** 
 168:../STM32Cube_FW_N6/Middlewares/ST/usbx/common/usbx_device_classes/src/ux_device_class_video_write_task_function.c ****         /* Next state: start.  */
 169:../STM32Cube_FW_N6/Middlewares/ST/usbx/common/usbx_device_classes/src/ux_device_class_video_write_task_function.c ****         stream -> ux_device_class_video_stream_task_state = UX_DEVICE_CLASS_VIDEO_STREAM_RW_START;
 170:../STM32Cube_FW_N6/Middlewares/ST/usbx/common/usbx_device_classes/src/ux_device_class_video_write_task_function.c ****         stream -> ux_device_class_video_stream_task_status =
 171:../STM32Cube_FW_N6/Middlewares/ST/usbx/common/usbx_device_classes/src/ux_device_class_video_write_task_function.c ****                         transfer -> ux_slave_transfer_request_completion_code;
 172:../STM32Cube_FW_N6/Middlewares/ST/usbx/common/usbx_device_classes/src/ux_device_class_video_write_task_function.c **** 
 173:../STM32Cube_FW_N6/Middlewares/ST/usbx/common/usbx_device_classes/src/ux_device_class_video_write_task_function.c ****         /* Frame sent, free it.  */
 174:../STM32Cube_FW_N6/Middlewares/ST/usbx/common/usbx_device_classes/src/ux_device_class_video_write_task_function.c ****         stream -> ux_device_class_video_stream_transfer_pos -> ux_device_class_video_payload_length
 175:../STM32Cube_FW_N6/Middlewares/ST/usbx/common/usbx_device_classes/src/ux_device_class_video_write_task_function.c **** 
 176:../STM32Cube_FW_N6/Middlewares/ST/usbx/common/usbx_device_classes/src/ux_device_class_video_write_task_function.c ****         /* Get actual transfer length.  */
 177:../STM32Cube_FW_N6/Middlewares/ST/usbx/common/usbx_device_classes/src/ux_device_class_video_write_task_function.c ****         actual_length = transfer -> ux_slave_transfer_request_actual_length;
 178:../STM32Cube_FW_N6/Middlewares/ST/usbx/common/usbx_device_classes/src/ux_device_class_video_write_task_function.c **** 
 179:../STM32Cube_FW_N6/Middlewares/ST/usbx/common/usbx_device_classes/src/ux_device_class_video_write_task_function.c ****         /* Calculate next position.  */
 180:../STM32Cube_FW_N6/Middlewares/ST/usbx/common/usbx_device_classes/src/ux_device_class_video_write_task_function.c ****         next_pos = (UCHAR *)stream -> ux_device_class_video_stream_transfer_pos;
 181:../STM32Cube_FW_N6/Middlewares/ST/usbx/common/usbx_device_classes/src/ux_device_class_video_write_task_function.c ****         next_pos += stream -> ux_device_class_video_stream_payload_buffer_size;
 182:../STM32Cube_FW_N6/Middlewares/ST/usbx/common/usbx_device_classes/src/ux_device_class_video_write_task_function.c ****         if (next_pos >= stream -> ux_device_class_video_stream_buffer + stream -> ux_device_class_v
 183:../STM32Cube_FW_N6/Middlewares/ST/usbx/common/usbx_device_classes/src/ux_device_class_video_write_task_function.c ****             next_pos = stream -> ux_device_class_video_stream_buffer;
 184:../STM32Cube_FW_N6/Middlewares/ST/usbx/common/usbx_device_classes/src/ux_device_class_video_write_task_function.c ****         next_payload = (UX_DEVICE_CLASS_VIDEO_PAYLOAD *)next_pos;
 185:../STM32Cube_FW_N6/Middlewares/ST/usbx/common/usbx_device_classes/src/ux_device_class_video_write_task_function.c **** 
 186:../STM32Cube_FW_N6/Middlewares/ST/usbx/common/usbx_device_classes/src/ux_device_class_video_write_task_function.c ****         /* Underflow check!  */
 187:../STM32Cube_FW_N6/Middlewares/ST/usbx/common/usbx_device_classes/src/ux_device_class_video_write_task_function.c ****         if (transfer_length)
 188:../STM32Cube_FW_N6/Middlewares/ST/usbx/common/usbx_device_classes/src/ux_device_class_video_write_task_function.c ****         {
 189:../STM32Cube_FW_N6/Middlewares/ST/usbx/common/usbx_device_classes/src/ux_device_class_video_write_task_function.c **** 
 190:../STM32Cube_FW_N6/Middlewares/ST/usbx/common/usbx_device_classes/src/ux_device_class_video_write_task_function.c ****             /* Advance position.  */
 191:../STM32Cube_FW_N6/Middlewares/ST/usbx/common/usbx_device_classes/src/ux_device_class_video_write_task_function.c ****             stream -> ux_device_class_video_stream_transfer_pos = next_payload;
 192:../STM32Cube_FW_N6/Middlewares/ST/usbx/common/usbx_device_classes/src/ux_device_class_video_write_task_function.c **** 
 193:../STM32Cube_FW_N6/Middlewares/ST/usbx/common/usbx_device_classes/src/ux_device_class_video_write_task_function.c ****             /* Error trap!  */
 194:../STM32Cube_FW_N6/Middlewares/ST/usbx/common/usbx_device_classes/src/ux_device_class_video_write_task_function.c ****             if (next_payload -> ux_device_class_video_payload_length == 0)
 195:../STM32Cube_FW_N6/Middlewares/ST/usbx/common/usbx_device_classes/src/ux_device_class_video_write_task_function.c ****             {
 196:../STM32Cube_FW_N6/Middlewares/ST/usbx/common/usbx_device_classes/src/ux_device_class_video_write_task_function.c ****                 stream -> ux_device_class_video_stream_buffer_error_count ++;
 197:../STM32Cube_FW_N6/Middlewares/ST/usbx/common/usbx_device_classes/src/ux_device_class_video_write_task_function.c ****                 _ux_system_error_handler(UX_SYSTEM_LEVEL_THREAD, UX_SYSTEM_CONTEXT_CLASS, UX_BUFFER
 198:../STM32Cube_FW_N6/Middlewares/ST/usbx/common/usbx_device_classes/src/ux_device_class_video_write_task_function.c ****             }
 199:../STM32Cube_FW_N6/Middlewares/ST/usbx/common/usbx_device_classes/src/ux_device_class_video_write_task_function.c ****         }
 200:../STM32Cube_FW_N6/Middlewares/ST/usbx/common/usbx_device_classes/src/ux_device_class_video_write_task_function.c ****         else
 201:../STM32Cube_FW_N6/Middlewares/ST/usbx/common/usbx_device_classes/src/ux_device_class_video_write_task_function.c ****         {
 202:../STM32Cube_FW_N6/Middlewares/ST/usbx/common/usbx_device_classes/src/ux_device_class_video_write_task_function.c **** 
 203:../STM32Cube_FW_N6/Middlewares/ST/usbx/common/usbx_device_classes/src/ux_device_class_video_write_task_function.c ****             /* Advance position if next payload available.  */
 204:../STM32Cube_FW_N6/Middlewares/ST/usbx/common/usbx_device_classes/src/ux_device_class_video_write_task_function.c ****             if (next_payload -> ux_device_class_video_payload_length)
 205:../STM32Cube_FW_N6/Middlewares/ST/usbx/common/usbx_device_classes/src/ux_device_class_video_write_task_function.c ****                 stream -> ux_device_class_video_stream_transfer_pos = next_payload;
 206:../STM32Cube_FW_N6/Middlewares/ST/usbx/common/usbx_device_classes/src/ux_device_class_video_write_task_function.c ****             else
 207:../STM32Cube_FW_N6/Middlewares/ST/usbx/common/usbx_device_classes/src/ux_device_class_video_write_task_function.c ****             {
 208:../STM32Cube_FW_N6/Middlewares/ST/usbx/common/usbx_device_classes/src/ux_device_class_video_write_task_function.c **** 
ARM GAS  /tmp/ccT69R42.s 			page 6


 209:../STM32Cube_FW_N6/Middlewares/ST/usbx/common/usbx_device_classes/src/ux_device_class_video_write_task_function.c ****                 /* Error trap!  */
 210:../STM32Cube_FW_N6/Middlewares/ST/usbx/common/usbx_device_classes/src/ux_device_class_video_write_task_function.c ****                 stream -> ux_device_class_video_stream_buffer_error_count ++;
 211:../STM32Cube_FW_N6/Middlewares/ST/usbx/common/usbx_device_classes/src/ux_device_class_video_write_task_function.c ****                 _ux_system_error_handler(UX_SYSTEM_LEVEL_THREAD, UX_SYSTEM_CONTEXT_CLASS, UX_BUFFER
 212:../STM32Cube_FW_N6/Middlewares/ST/usbx/common/usbx_device_classes/src/ux_device_class_video_write_task_function.c ****             }
 213:../STM32Cube_FW_N6/Middlewares/ST/usbx/common/usbx_device_classes/src/ux_device_class_video_write_task_function.c ****         }
 214:../STM32Cube_FW_N6/Middlewares/ST/usbx/common/usbx_device_classes/src/ux_device_class_video_write_task_function.c **** 
 215:../STM32Cube_FW_N6/Middlewares/ST/usbx/common/usbx_device_classes/src/ux_device_class_video_write_task_function.c ****         /* Invoke notification callback.  */
 216:../STM32Cube_FW_N6/Middlewares/ST/usbx/common/usbx_device_classes/src/ux_device_class_video_write_task_function.c ****         if (stream -> ux_device_class_video_stream_callbacks.ux_device_class_video_stream_payload_d
 217:../STM32Cube_FW_N6/Middlewares/ST/usbx/common/usbx_device_classes/src/ux_device_class_video_write_task_function.c ****             stream -> ux_device_class_video_stream_callbacks.ux_device_class_video_stream_payload_d
 218:../STM32Cube_FW_N6/Middlewares/ST/usbx/common/usbx_device_classes/src/ux_device_class_video_write_task_function.c ****     }
 219:../STM32Cube_FW_N6/Middlewares/ST/usbx/common/usbx_device_classes/src/ux_device_class_video_write_task_function.c **** 
 220:../STM32Cube_FW_N6/Middlewares/ST/usbx/common/usbx_device_classes/src/ux_device_class_video_write_task_function.c ****     /* Keep waiting.  */
 221:../STM32Cube_FW_N6/Middlewares/ST/usbx/common/usbx_device_classes/src/ux_device_class_video_write_task_function.c ****     return(UX_STATE_WAIT);
 222:../STM32Cube_FW_N6/Middlewares/ST/usbx/common/usbx_device_classes/src/ux_device_class_video_write_task_function.c **** }
  76              		.loc 1 222 1 view .LVU20
  77 0014 70BD     		pop	{r4, r5, r6, pc}
  78              	.LVL2:
  79              	.L2:
 104:../STM32Cube_FW_N6/Middlewares/ST/usbx/common/usbx_device_classes/src/ux_device_class_video_write_task_function.c **** 
  80              		.loc 1 104 5 is_stmt 1 view .LVU21
 104:../STM32Cube_FW_N6/Middlewares/ST/usbx/common/usbx_device_classes/src/ux_device_class_video_write_task_function.c **** 
  81              		.loc 1 104 14 is_stmt 0 view .LVU22
  82 0016 8568     		ldr	r5, [r0, #8]
  83              	.LVL3:
 107:../STM32Cube_FW_N6/Middlewares/ST/usbx/common/usbx_device_classes/src/ux_device_class_video_write_task_function.c ****         return(UX_STATE_IDLE);
  84              		.loc 1 107 5 is_stmt 1 view .LVU23
 107:../STM32Cube_FW_N6/Middlewares/ST/usbx/common/usbx_device_classes/src/ux_device_class_video_write_task_function.c ****         return(UX_STATE_IDLE);
  85              		.loc 1 107 8 is_stmt 0 view .LVU24
  86 0018 002D     		cmp	r5, #0
  87 001a 47D0     		beq	.L15
 111:../STM32Cube_FW_N6/Middlewares/ST/usbx/common/usbx_device_classes/src/ux_device_class_video_write_task_function.c ****         return(UX_STATE_IDLE);
  88              		.loc 1 111 5 is_stmt 1 view .LVU25
 111:../STM32Cube_FW_N6/Middlewares/ST/usbx/common/usbx_device_classes/src/ux_device_class_video_write_task_function.c ****         return(UX_STATE_IDLE);
  89              		.loc 1 111 16 is_stmt 0 view .LVU26
  90 001c 026A     		ldr	r2, [r0, #32]
 111:../STM32Cube_FW_N6/Middlewares/ST/usbx/common/usbx_device_classes/src/ux_device_class_video_write_task_function.c ****         return(UX_STATE_IDLE);
  91              		.loc 1 111 8 view .LVU27
  92 001e 002A     		cmp	r2, #0
  93 0020 44D0     		beq	.L15
 115:../STM32Cube_FW_N6/Middlewares/ST/usbx/common/usbx_device_classes/src/ux_device_class_video_write_task_function.c **** 
  94              		.loc 1 115 5 is_stmt 1 view .LVU28
 118:../STM32Cube_FW_N6/Middlewares/ST/usbx/common/usbx_device_classes/src/ux_device_class_video_write_task_function.c ****     {
  95              		.loc 1 118 8 is_stmt 0 view .LVU29
  96 0022 212A     		cmp	r2, #33
 125:../STM32Cube_FW_N6/Middlewares/ST/usbx/common/usbx_device_classes/src/ux_device_class_video_write_task_function.c **** 
  97              		.loc 1 125 34 view .LVU30
  98 0024 A36B     		ldr	r3, [r4, #56]
 115:../STM32Cube_FW_N6/Middlewares/ST/usbx/common/usbx_device_classes/src/ux_device_class_video_write_task_function.c **** 
  99              		.loc 1 115 14 view .LVU31
 100 0026 05F12000 		add	r0, r5, #32
 101              	.LVL4:
 118:../STM32Cube_FW_N6/Middlewares/ST/usbx/common/usbx_device_classes/src/ux_device_class_video_write_task_function.c ****     {
 102              		.loc 1 118 5 is_stmt 1 view .LVU32
 118:../STM32Cube_FW_N6/Middlewares/ST/usbx/common/usbx_device_classes/src/ux_device_class_video_write_task_function.c ****     {
 103              		.loc 1 118 8 is_stmt 0 view .LVU33
 104 002a 05D1     		bne	.L5
 122:../STM32Cube_FW_N6/Middlewares/ST/usbx/common/usbx_device_classes/src/ux_device_class_video_write_task_function.c **** 
ARM GAS  /tmp/ccT69R42.s 			page 7


 105              		.loc 1 122 9 is_stmt 1 view .LVU34
 122:../STM32Cube_FW_N6/Middlewares/ST/usbx/common/usbx_device_classes/src/ux_device_class_video_write_task_function.c **** 
 106              		.loc 1 122 59 is_stmt 0 view .LVU35
 107 002c 2222     		movs	r2, #34
 108 002e 2262     		str	r2, [r4, #32]
 125:../STM32Cube_FW_N6/Middlewares/ST/usbx/common/usbx_device_classes/src/ux_device_class_video_write_task_function.c **** 
 109              		.loc 1 125 9 is_stmt 1 view .LVU36
 110              	.LVL5:
 130:../STM32Cube_FW_N6/Middlewares/ST/usbx/common/usbx_device_classes/src/ux_device_class_video_write_task_function.c ****                     ux_device_class_video_stream_transfer_pos -> ux_device_class_video_payload_data
 111              		.loc 1 130 9 view .LVU37
 130:../STM32Cube_FW_N6/Middlewares/ST/usbx/common/usbx_device_classes/src/ux_device_class_video_write_task_function.c ****                     ux_device_class_video_stream_transfer_pos -> ux_device_class_video_payload_data
 112              		.loc 1 130 62 is_stmt 0 view .LVU38
 113 0030 1A1D     		adds	r2, r3, #4
 130:../STM32Cube_FW_N6/Middlewares/ST/usbx/common/usbx_device_classes/src/ux_device_class_video_write_task_function.c ****                     ux_device_class_video_stream_transfer_pos -> ux_device_class_video_payload_data
 114              		.loc 1 130 60 view .LVU39
 115 0032 EA62     		str	r2, [r5, #44]
 141:../STM32Cube_FW_N6/Middlewares/ST/usbx/common/usbx_device_classes/src/ux_device_class_video_write_task_function.c ****     }
 116              		.loc 1 141 9 is_stmt 1 view .LVU40
 117 0034 0022     		movs	r2, #0
 118 0036 2A65     		str	r2, [r5, #80]
 119              	.LVL6:
 120              	.L5:
 145:../STM32Cube_FW_N6/Middlewares/ST/usbx/common/usbx_device_classes/src/ux_device_class_video_write_task_function.c **** 
 121              		.loc 1 145 5 view .LVU41
 145:../STM32Cube_FW_N6/Middlewares/ST/usbx/common/usbx_device_classes/src/ux_device_class_video_write_task_function.c **** 
 122              		.loc 1 145 21 is_stmt 0 view .LVU42
 123 0038 1E68     		ldr	r6, [r3]
 124              	.LVL7:
 148:../STM32Cube_FW_N6/Middlewares/ST/usbx/common/usbx_device_classes/src/ux_device_class_video_write_task_function.c **** 
 125              		.loc 1 148 5 is_stmt 1 view .LVU43
 148:../STM32Cube_FW_N6/Middlewares/ST/usbx/common/usbx_device_classes/src/ux_device_class_video_write_task_function.c **** 
 126              		.loc 1 148 14 is_stmt 0 view .LVU44
 127 003a 3246     		mov	r2, r6
 128 003c 3146     		mov	r1, r6
 129 003e FFF7FEFF 		bl	_ux_device_stack_transfer_run
 130              	.LVL8:
 151:../STM32Cube_FW_N6/Middlewares/ST/usbx/common/usbx_device_classes/src/ux_device_class_video_write_task_function.c ****     {
 131              		.loc 1 151 5 is_stmt 1 view .LVU45
 151:../STM32Cube_FW_N6/Middlewares/ST/usbx/common/usbx_device_classes/src/ux_device_class_video_write_task_function.c ****     {
 132              		.loc 1 151 8 is_stmt 0 view .LVU46
 133 0042 0328     		cmp	r0, #3
 134 0044 09D8     		bhi	.L6
 155:../STM32Cube_FW_N6/Middlewares/ST/usbx/common/usbx_device_classes/src/ux_device_class_video_write_task_function.c ****         stream -> ux_device_class_video_stream_task_status =
 135              		.loc 1 155 9 is_stmt 1 view .LVU47
 155:../STM32Cube_FW_N6/Middlewares/ST/usbx/common/usbx_device_classes/src/ux_device_class_video_write_task_function.c ****         stream -> ux_device_class_video_stream_task_status =
 136              		.loc 1 155 59 is_stmt 0 view .LVU48
 137 0046 0023     		movs	r3, #0
 138 0048 2362     		str	r3, [r4, #32]
 156:../STM32Cube_FW_N6/Middlewares/ST/usbx/common/usbx_device_classes/src/ux_device_class_video_write_task_function.c ****                         transfer -> ux_slave_transfer_request_completion_code;
 139              		.loc 1 156 9 is_stmt 1 view .LVU49
 156:../STM32Cube_FW_N6/Middlewares/ST/usbx/common/usbx_device_classes/src/ux_device_class_video_write_task_function.c ****                         transfer -> ux_slave_transfer_request_completion_code;
 140              		.loc 1 156 60 is_stmt 0 view .LVU50
 141 004a 6B6C     		ldr	r3, [r5, #68]
 160:../STM32Cube_FW_N6/Middlewares/ST/usbx/common/usbx_device_classes/src/ux_device_class_video_write_task_function.c ****         return(UX_STATE_EXIT);
 142              		.loc 1 160 9 view .LVU51
 143 004c 2322     		movs	r2, #35
 144 004e 0721     		movs	r1, #7
ARM GAS  /tmp/ccT69R42.s 			page 8


 145 0050 0220     		movs	r0, #2
 146              	.LVL9:
 156:../STM32Cube_FW_N6/Middlewares/ST/usbx/common/usbx_device_classes/src/ux_device_class_video_write_task_function.c ****                         transfer -> ux_slave_transfer_request_completion_code;
 147              		.loc 1 156 60 view .LVU52
 148 0052 6362     		str	r3, [r4, #36]
 160:../STM32Cube_FW_N6/Middlewares/ST/usbx/common/usbx_device_classes/src/ux_device_class_video_write_task_function.c ****         return(UX_STATE_EXIT);
 149              		.loc 1 160 9 is_stmt 1 view .LVU53
 150 0054 FFF7FEFF 		bl	_ux_system_error_handler
 151              	.LVL10:
 161:../STM32Cube_FW_N6/Middlewares/ST/usbx/common/usbx_device_classes/src/ux_device_class_video_write_task_function.c ****     }
 152              		.loc 1 161 9 view .LVU54
 161:../STM32Cube_FW_N6/Middlewares/ST/usbx/common/usbx_device_classes/src/ux_device_class_video_write_task_function.c ****     }
 153              		.loc 1 161 15 is_stmt 0 view .LVU55
 154 0058 DBE7     		b	.L3
 155              	.LVL11:
 156              	.L6:
 165:../STM32Cube_FW_N6/Middlewares/ST/usbx/common/usbx_device_classes/src/ux_device_class_video_write_task_function.c ****     {
 157              		.loc 1 165 5 is_stmt 1 view .LVU56
 165:../STM32Cube_FW_N6/Middlewares/ST/usbx/common/usbx_device_classes/src/ux_device_class_video_write_task_function.c ****     {
 158              		.loc 1 165 8 is_stmt 0 view .LVU57
 159 005a 0428     		cmp	r0, #4
 160 005c 24D1     		bne	.L8
 169:../STM32Cube_FW_N6/Middlewares/ST/usbx/common/usbx_device_classes/src/ux_device_class_video_write_task_function.c ****         stream -> ux_device_class_video_stream_task_status =
 161              		.loc 1 169 9 is_stmt 1 view .LVU58
 169:../STM32Cube_FW_N6/Middlewares/ST/usbx/common/usbx_device_classes/src/ux_device_class_video_write_task_function.c ****         stream -> ux_device_class_video_stream_task_status =
 162              		.loc 1 169 59 is_stmt 0 view .LVU59
 163 005e 2123     		movs	r3, #33
 164 0060 2362     		str	r3, [r4, #32]
 170:../STM32Cube_FW_N6/Middlewares/ST/usbx/common/usbx_device_classes/src/ux_device_class_video_write_task_function.c ****                         transfer -> ux_slave_transfer_request_completion_code;
 165              		.loc 1 170 9 is_stmt 1 view .LVU60
 170:../STM32Cube_FW_N6/Middlewares/ST/usbx/common/usbx_device_classes/src/ux_device_class_video_write_task_function.c ****                         transfer -> ux_slave_transfer_request_completion_code;
 166              		.loc 1 170 60 is_stmt 0 view .LVU61
 167 0062 6B6C     		ldr	r3, [r5, #68]
 174:../STM32Cube_FW_N6/Middlewares/ST/usbx/common/usbx_device_classes/src/ux_device_class_video_write_task_function.c **** 
 168              		.loc 1 174 16 view .LVU62
 169 0064 A06B     		ldr	r0, [r4, #56]
 170              	.LVL12:
 170:../STM32Cube_FW_N6/Middlewares/ST/usbx/common/usbx_device_classes/src/ux_device_class_video_write_task_function.c ****                         transfer -> ux_slave_transfer_request_completion_code;
 171              		.loc 1 170 60 view .LVU63
 172 0066 6362     		str	r3, [r4, #36]
 174:../STM32Cube_FW_N6/Middlewares/ST/usbx/common/usbx_device_classes/src/ux_device_class_video_write_task_function.c **** 
 173              		.loc 1 174 9 is_stmt 1 view .LVU64
 174:../STM32Cube_FW_N6/Middlewares/ST/usbx/common/usbx_device_classes/src/ux_device_class_video_write_task_function.c **** 
 174              		.loc 1 174 101 is_stmt 0 view .LVU65
 175 0068 0023     		movs	r3, #0
 176 006a 0360     		str	r3, [r0]
 177:../STM32Cube_FW_N6/Middlewares/ST/usbx/common/usbx_device_classes/src/ux_device_class_video_write_task_function.c **** 
 177              		.loc 1 177 9 is_stmt 1 view .LVU66
 181:../STM32Cube_FW_N6/Middlewares/ST/usbx/common/usbx_device_classes/src/ux_device_class_video_write_task_function.c ****         if (next_pos >= stream -> ux_device_class_video_stream_buffer + stream -> ux_device_class_v
 178              		.loc 1 181 18 is_stmt 0 view .LVU67
 179 006c 636B     		ldr	r3, [r4, #52]
 177:../STM32Cube_FW_N6/Middlewares/ST/usbx/common/usbx_device_classes/src/ux_device_class_video_write_task_function.c **** 
 180              		.loc 1 177 23 view .LVU68
 181 006e AD6B     		ldr	r5, [r5, #56]
 182              	.LVL13:
 180:../STM32Cube_FW_N6/Middlewares/ST/usbx/common/usbx_device_classes/src/ux_device_class_video_write_task_function.c ****         next_pos += stream -> ux_device_class_video_stream_payload_buffer_size;
 183              		.loc 1 180 9 is_stmt 1 view .LVU69
ARM GAS  /tmp/ccT69R42.s 			page 9


 181:../STM32Cube_FW_N6/Middlewares/ST/usbx/common/usbx_device_classes/src/ux_device_class_video_write_task_function.c ****         if (next_pos >= stream -> ux_device_class_video_stream_buffer + stream -> ux_device_class_v
 184              		.loc 1 181 9 view .LVU70
 181:../STM32Cube_FW_N6/Middlewares/ST/usbx/common/usbx_device_classes/src/ux_device_class_video_write_task_function.c ****         if (next_pos >= stream -> ux_device_class_video_stream_buffer + stream -> ux_device_class_v
 185              		.loc 1 181 18 is_stmt 0 view .LVU71
 186 0070 1844     		add	r0, r0, r3
 187              	.LVL14:
 182:../STM32Cube_FW_N6/Middlewares/ST/usbx/common/usbx_device_classes/src/ux_device_class_video_write_task_function.c ****             next_pos = stream -> ux_device_class_video_stream_buffer;
 188              		.loc 1 182 9 is_stmt 1 view .LVU72
 182:../STM32Cube_FW_N6/Middlewares/ST/usbx/common/usbx_device_classes/src/ux_device_class_video_write_task_function.c ****             next_pos = stream -> ux_device_class_video_stream_buffer;
 189              		.loc 1 182 71 is_stmt 0 view .LVU73
 190 0072 D4E90B32 		ldrd	r3, r2, [r4, #44]
 191 0076 1A44     		add	r2, r2, r3
 181:../STM32Cube_FW_N6/Middlewares/ST/usbx/common/usbx_device_classes/src/ux_device_class_video_write_task_function.c ****         if (next_pos >= stream -> ux_device_class_video_stream_buffer + stream -> ux_device_class_v
 192              		.loc 1 181 18 view .LVU74
 193 0078 9042     		cmp	r0, r2
 194 007a 38BF     		it	cc
 195 007c 0346     		movcc	r3, r0
 196              	.LVL15:
 184:../STM32Cube_FW_N6/Middlewares/ST/usbx/common/usbx_device_classes/src/ux_device_class_video_write_task_function.c **** 
 197              		.loc 1 184 9 is_stmt 1 view .LVU75
 187:../STM32Cube_FW_N6/Middlewares/ST/usbx/common/usbx_device_classes/src/ux_device_class_video_write_task_function.c ****         {
 198              		.loc 1 187 9 view .LVU76
 194:../STM32Cube_FW_N6/Middlewares/ST/usbx/common/usbx_device_classes/src/ux_device_class_video_write_task_function.c ****             {
 199              		.loc 1 194 30 is_stmt 0 view .LVU77
 200 007e 1A68     		ldr	r2, [r3]
 187:../STM32Cube_FW_N6/Middlewares/ST/usbx/common/usbx_device_classes/src/ux_device_class_video_write_task_function.c ****         {
 201              		.loc 1 187 12 view .LVU78
 202 0080 56B1     		cbz	r6, .L10
 191:../STM32Cube_FW_N6/Middlewares/ST/usbx/common/usbx_device_classes/src/ux_device_class_video_write_task_function.c **** 
 203              		.loc 1 191 13 is_stmt 1 view .LVU79
 191:../STM32Cube_FW_N6/Middlewares/ST/usbx/common/usbx_device_classes/src/ux_device_class_video_write_task_function.c **** 
 204              		.loc 1 191 65 is_stmt 0 view .LVU80
 205 0082 A363     		str	r3, [r4, #56]
 194:../STM32Cube_FW_N6/Middlewares/ST/usbx/common/usbx_device_classes/src/ux_device_class_video_write_task_function.c ****             {
 206              		.loc 1 194 13 is_stmt 1 view .LVU81
 194:../STM32Cube_FW_N6/Middlewares/ST/usbx/common/usbx_device_classes/src/ux_device_class_video_write_task_function.c ****             {
 207              		.loc 1 194 16 is_stmt 0 view .LVU82
 208 0084 5AB9     		cbnz	r2, .L11
 209              	.L12:
 210:../STM32Cube_FW_N6/Middlewares/ST/usbx/common/usbx_device_classes/src/ux_device_class_video_write_task_function.c ****                 _ux_system_error_handler(UX_SYSTEM_LEVEL_THREAD, UX_SYSTEM_CONTEXT_CLASS, UX_BUFFER
 210              		.loc 1 210 17 is_stmt 1 view .LVU83
 210:../STM32Cube_FW_N6/Middlewares/ST/usbx/common/usbx_device_classes/src/ux_device_class_video_write_task_function.c ****                 _ux_system_error_handler(UX_SYSTEM_LEVEL_THREAD, UX_SYSTEM_CONTEXT_CLASS, UX_BUFFER
 211              		.loc 1 210 75 is_stmt 0 view .LVU84
 212 0086 A36A     		ldr	r3, [r4, #40]
 213              	.LVL16:
 211:../STM32Cube_FW_N6/Middlewares/ST/usbx/common/usbx_device_classes/src/ux_device_class_video_write_task_function.c ****             }
 214              		.loc 1 211 17 view .LVU85
 215 0088 5D22     		movs	r2, #93
 210:../STM32Cube_FW_N6/Middlewares/ST/usbx/common/usbx_device_classes/src/ux_device_class_video_write_task_function.c ****                 _ux_system_error_handler(UX_SYSTEM_LEVEL_THREAD, UX_SYSTEM_CONTEXT_CLASS, UX_BUFFER
 216              		.loc 1 210 75 view .LVU86
 217 008a 0133     		adds	r3, r3, #1
 211:../STM32Cube_FW_N6/Middlewares/ST/usbx/common/usbx_device_classes/src/ux_device_class_video_write_task_function.c ****             }
 218              		.loc 1 211 17 view .LVU87
 219 008c 0721     		movs	r1, #7
 220 008e 0220     		movs	r0, #2
 221              	.LVL17:
 210:../STM32Cube_FW_N6/Middlewares/ST/usbx/common/usbx_device_classes/src/ux_device_class_video_write_task_function.c ****                 _ux_system_error_handler(UX_SYSTEM_LEVEL_THREAD, UX_SYSTEM_CONTEXT_CLASS, UX_BUFFER
ARM GAS  /tmp/ccT69R42.s 			page 10


 222              		.loc 1 210 75 view .LVU88
 223 0090 A362     		str	r3, [r4, #40]
 211:../STM32Cube_FW_N6/Middlewares/ST/usbx/common/usbx_device_classes/src/ux_device_class_video_write_task_function.c ****             }
 224              		.loc 1 211 17 is_stmt 1 view .LVU89
 225 0092 FFF7FEFF 		bl	_ux_system_error_handler
 226              	.LVL18:
 227 0096 02E0     		b	.L11
 228              	.LVL19:
 229              	.L10:
 204:../STM32Cube_FW_N6/Middlewares/ST/usbx/common/usbx_device_classes/src/ux_device_class_video_write_task_function.c ****                 stream -> ux_device_class_video_stream_transfer_pos = next_payload;
 230              		.loc 1 204 13 view .LVU90
 204:../STM32Cube_FW_N6/Middlewares/ST/usbx/common/usbx_device_classes/src/ux_device_class_video_write_task_function.c ****                 stream -> ux_device_class_video_stream_transfer_pos = next_payload;
 231              		.loc 1 204 16 is_stmt 0 view .LVU91
 232 0098 002A     		cmp	r2, #0
 233 009a F4D0     		beq	.L12
 205:../STM32Cube_FW_N6/Middlewares/ST/usbx/common/usbx_device_classes/src/ux_device_class_video_write_task_function.c ****             else
 234              		.loc 1 205 17 is_stmt 1 view .LVU92
 205:../STM32Cube_FW_N6/Middlewares/ST/usbx/common/usbx_device_classes/src/ux_device_class_video_write_task_function.c ****             else
 235              		.loc 1 205 69 is_stmt 0 view .LVU93
 236 009c A363     		str	r3, [r4, #56]
 237              	.LVL20:
 238              	.L11:
 216:../STM32Cube_FW_N6/Middlewares/ST/usbx/common/usbx_device_classes/src/ux_device_class_video_write_task_function.c ****             stream -> ux_device_class_video_stream_callbacks.ux_device_class_video_stream_payload_d
 239              		.loc 1 216 9 is_stmt 1 view .LVU94
 216:../STM32Cube_FW_N6/Middlewares/ST/usbx/common/usbx_device_classes/src/ux_device_class_video_write_task_function.c ****             stream -> ux_device_class_video_stream_callbacks.ux_device_class_video_stream_payload_d
 240              		.loc 1 216 61 is_stmt 0 view .LVU95
 241 009e A369     		ldr	r3, [r4, #24]
 216:../STM32Cube_FW_N6/Middlewares/ST/usbx/common/usbx_device_classes/src/ux_device_class_video_write_task_function.c ****             stream -> ux_device_class_video_stream_callbacks.ux_device_class_video_stream_payload_d
 242              		.loc 1 216 12 view .LVU96
 243 00a0 13B1     		cbz	r3, .L8
 217:../STM32Cube_FW_N6/Middlewares/ST/usbx/common/usbx_device_classes/src/ux_device_class_video_write_task_function.c ****     }
 244              		.loc 1 217 13 is_stmt 1 view .LVU97
 245 00a2 2946     		mov	r1, r5
 246 00a4 2046     		mov	r0, r4
 247 00a6 9847     		blx	r3
 248              	.LVL21:
 249              	.L8:
 221:../STM32Cube_FW_N6/Middlewares/ST/usbx/common/usbx_device_classes/src/ux_device_class_video_write_task_function.c **** }
 250              		.loc 1 221 11 is_stmt 0 view .LVU98
 251 00a8 0520     		movs	r0, #5
 252 00aa B3E7     		b	.L1
 253              	.LVL22:
 254              	.L15:
 108:../STM32Cube_FW_N6/Middlewares/ST/usbx/common/usbx_device_classes/src/ux_device_class_video_write_task_function.c **** 
 255              		.loc 1 108 15 view .LVU99
 256 00ac 0220     		movs	r0, #2
 257              	.LVL23:
 108:../STM32Cube_FW_N6/Middlewares/ST/usbx/common/usbx_device_classes/src/ux_device_class_video_write_task_function.c **** 
 258              		.loc 1 108 15 view .LVU100
 259 00ae B1E7     		b	.L1
 260              		.cfi_endproc
 261              	.LFE3:
 263              		.text
 264              	.Letext0:
 265              		.file 2 "../STM32Cube_FW_N6/Middlewares/ST/usbx/ports/generic/inc/ux_port.h"
 266              		.file 3 "../STM32Cube_FW_N6/Middlewares/ST/usbx/common/core/inc/ux_api.h"
 267              		.file 4 "../STM32Cube_FW_N6/Middlewares/ST/usbx/common/usbx_device_classes/inc/ux_device_class_vid
ARM GAS  /tmp/ccT69R42.s 			page 11


 268              		.file 5 "../STM32Cube_FW_N6/Middlewares/ST/usbx/common/core/inc/ux_utility.h"
 269              		.file 6 "../STM32Cube_FW_N6/Middlewares/ST/usbx/common/core/inc/ux_device_stack.h"
ARM GAS  /tmp/ccT69R42.s 			page 12

