ARM GAS  /tmp/ccgl7l6v.s 			page 1


   1              		.arch armv8.1-m.main
   2              		.fpu fpv5-d16
   3              		.arch_extension dsp
   4              		.arch_extension fp
   5              		.arch_extension fp.dp
   6              		.arch_extension mve
   7              		.arch_extension mve.fp
   8              		.eabi_attribute 5, "cortex-m55"
   9              		.eabi_attribute 28, 1
  10              		.eabi_attribute 20, 1
  11              		.eabi_attribute 21, 1
  12              		.eabi_attribute 23, 3
  13              		.eabi_attribute 24, 1
  14              		.eabi_attribute 25, 1
  15              		.eabi_attribute 26, 1
  16              		.eabi_attribute 30, 4
  17              		.eabi_attribute 34, 1
  18              		.eabi_attribute 38, 1
  19              		.eabi_attribute 18, 4
  20              		.file	"ux_device_class_video_deactivate.c"
  21              		.text
  22              	.Ltext0:
  23              		.cfi_sections	.debug_frame
  24              		.file 1 "../STM32Cube_FW_N6/Middlewares/ST/usbx/common/usbx_device_classes/src/ux_device_class_vid
  25              		.section	.text._ux_device_class_video_deactivate,"ax",%progbits
  26              		.align	1
  27              		.global	_ux_device_class_video_deactivate
  28              		.syntax unified
  29              		.thumb
  30              		.thumb_func
  32              	_ux_device_class_video_deactivate:
  33              	.LVL0:
  34              	.LFB3:
   1:../STM32Cube_FW_N6/Middlewares/ST/usbx/common/usbx_device_classes/src/ux_device_class_video_deactivate.c **** /**************************************************************************/
   2:../STM32Cube_FW_N6/Middlewares/ST/usbx/common/usbx_device_classes/src/ux_device_class_video_deactivate.c **** /*                                                                        */
   3:../STM32Cube_FW_N6/Middlewares/ST/usbx/common/usbx_device_classes/src/ux_device_class_video_deactivate.c **** /*       Copyright (c) Microsoft Corporation. All rights reserved.        */
   4:../STM32Cube_FW_N6/Middlewares/ST/usbx/common/usbx_device_classes/src/ux_device_class_video_deactivate.c **** /*                                                                        */
   5:../STM32Cube_FW_N6/Middlewares/ST/usbx/common/usbx_device_classes/src/ux_device_class_video_deactivate.c **** /*       This software is licensed under the Microsoft Software License   */
   6:../STM32Cube_FW_N6/Middlewares/ST/usbx/common/usbx_device_classes/src/ux_device_class_video_deactivate.c **** /*       Terms for Microsoft Azure RTOS. Full text of the license can be  */
   7:../STM32Cube_FW_N6/Middlewares/ST/usbx/common/usbx_device_classes/src/ux_device_class_video_deactivate.c **** /*       found in the LICENSE file at https://aka.ms/AzureRTOS_EULA       */
   8:../STM32Cube_FW_N6/Middlewares/ST/usbx/common/usbx_device_classes/src/ux_device_class_video_deactivate.c **** /*       and in the root directory of this software.                      */
   9:../STM32Cube_FW_N6/Middlewares/ST/usbx/common/usbx_device_classes/src/ux_device_class_video_deactivate.c **** /*                                                                        */
  10:../STM32Cube_FW_N6/Middlewares/ST/usbx/common/usbx_device_classes/src/ux_device_class_video_deactivate.c **** /**************************************************************************/
  11:../STM32Cube_FW_N6/Middlewares/ST/usbx/common/usbx_device_classes/src/ux_device_class_video_deactivate.c **** 
  12:../STM32Cube_FW_N6/Middlewares/ST/usbx/common/usbx_device_classes/src/ux_device_class_video_deactivate.c **** /**************************************************************************/
  13:../STM32Cube_FW_N6/Middlewares/ST/usbx/common/usbx_device_classes/src/ux_device_class_video_deactivate.c **** /**************************************************************************/
  14:../STM32Cube_FW_N6/Middlewares/ST/usbx/common/usbx_device_classes/src/ux_device_class_video_deactivate.c **** /**                                                                       */
  15:../STM32Cube_FW_N6/Middlewares/ST/usbx/common/usbx_device_classes/src/ux_device_class_video_deactivate.c **** /** USBX Component                                                        */
  16:../STM32Cube_FW_N6/Middlewares/ST/usbx/common/usbx_device_classes/src/ux_device_class_video_deactivate.c **** /**                                                                       */
  17:../STM32Cube_FW_N6/Middlewares/ST/usbx/common/usbx_device_classes/src/ux_device_class_video_deactivate.c **** /**   Device Video Class                                                  */
  18:../STM32Cube_FW_N6/Middlewares/ST/usbx/common/usbx_device_classes/src/ux_device_class_video_deactivate.c **** /**                                                                       */
  19:../STM32Cube_FW_N6/Middlewares/ST/usbx/common/usbx_device_classes/src/ux_device_class_video_deactivate.c **** /**************************************************************************/
  20:../STM32Cube_FW_N6/Middlewares/ST/usbx/common/usbx_device_classes/src/ux_device_class_video_deactivate.c **** /**************************************************************************/
  21:../STM32Cube_FW_N6/Middlewares/ST/usbx/common/usbx_device_classes/src/ux_device_class_video_deactivate.c **** 
  22:../STM32Cube_FW_N6/Middlewares/ST/usbx/common/usbx_device_classes/src/ux_device_class_video_deactivate.c **** #define UX_SOURCE_CODE
  23:../STM32Cube_FW_N6/Middlewares/ST/usbx/common/usbx_device_classes/src/ux_device_class_video_deactivate.c **** 
  24:../STM32Cube_FW_N6/Middlewares/ST/usbx/common/usbx_device_classes/src/ux_device_class_video_deactivate.c **** 
ARM GAS  /tmp/ccgl7l6v.s 			page 2


  25:../STM32Cube_FW_N6/Middlewares/ST/usbx/common/usbx_device_classes/src/ux_device_class_video_deactivate.c **** /* Include necessary system files.  */
  26:../STM32Cube_FW_N6/Middlewares/ST/usbx/common/usbx_device_classes/src/ux_device_class_video_deactivate.c **** 
  27:../STM32Cube_FW_N6/Middlewares/ST/usbx/common/usbx_device_classes/src/ux_device_class_video_deactivate.c **** #include "ux_api.h"
  28:../STM32Cube_FW_N6/Middlewares/ST/usbx/common/usbx_device_classes/src/ux_device_class_video_deactivate.c **** #include "ux_device_class_video.h"
  29:../STM32Cube_FW_N6/Middlewares/ST/usbx/common/usbx_device_classes/src/ux_device_class_video_deactivate.c **** #include "ux_device_stack.h"
  30:../STM32Cube_FW_N6/Middlewares/ST/usbx/common/usbx_device_classes/src/ux_device_class_video_deactivate.c **** 
  31:../STM32Cube_FW_N6/Middlewares/ST/usbx/common/usbx_device_classes/src/ux_device_class_video_deactivate.c **** 
  32:../STM32Cube_FW_N6/Middlewares/ST/usbx/common/usbx_device_classes/src/ux_device_class_video_deactivate.c **** /**************************************************************************/
  33:../STM32Cube_FW_N6/Middlewares/ST/usbx/common/usbx_device_classes/src/ux_device_class_video_deactivate.c **** /*                                                                        */
  34:../STM32Cube_FW_N6/Middlewares/ST/usbx/common/usbx_device_classes/src/ux_device_class_video_deactivate.c **** /*  FUNCTION                                               RELEASE        */
  35:../STM32Cube_FW_N6/Middlewares/ST/usbx/common/usbx_device_classes/src/ux_device_class_video_deactivate.c **** /*                                                                        */
  36:../STM32Cube_FW_N6/Middlewares/ST/usbx/common/usbx_device_classes/src/ux_device_class_video_deactivate.c **** /*    _ux_device_class_video_deactivate                   PORTABLE C      */
  37:../STM32Cube_FW_N6/Middlewares/ST/usbx/common/usbx_device_classes/src/ux_device_class_video_deactivate.c **** /*                                                           6.1.11       */
  38:../STM32Cube_FW_N6/Middlewares/ST/usbx/common/usbx_device_classes/src/ux_device_class_video_deactivate.c **** /*  AUTHOR                                                                */
  39:../STM32Cube_FW_N6/Middlewares/ST/usbx/common/usbx_device_classes/src/ux_device_class_video_deactivate.c **** /*                                                                        */
  40:../STM32Cube_FW_N6/Middlewares/ST/usbx/common/usbx_device_classes/src/ux_device_class_video_deactivate.c **** /*    Chaoqiong Xiao, Microsoft Corporation                               */
  41:../STM32Cube_FW_N6/Middlewares/ST/usbx/common/usbx_device_classes/src/ux_device_class_video_deactivate.c **** /*                                                                        */
  42:../STM32Cube_FW_N6/Middlewares/ST/usbx/common/usbx_device_classes/src/ux_device_class_video_deactivate.c **** /*  DESCRIPTION                                                           */
  43:../STM32Cube_FW_N6/Middlewares/ST/usbx/common/usbx_device_classes/src/ux_device_class_video_deactivate.c **** /*                                                                        */
  44:../STM32Cube_FW_N6/Middlewares/ST/usbx/common/usbx_device_classes/src/ux_device_class_video_deactivate.c **** /*    This function deactivate an instance of the video class.            */
  45:../STM32Cube_FW_N6/Middlewares/ST/usbx/common/usbx_device_classes/src/ux_device_class_video_deactivate.c **** /*                                                                        */
  46:../STM32Cube_FW_N6/Middlewares/ST/usbx/common/usbx_device_classes/src/ux_device_class_video_deactivate.c **** /*  INPUT                                                                 */
  47:../STM32Cube_FW_N6/Middlewares/ST/usbx/common/usbx_device_classes/src/ux_device_class_video_deactivate.c **** /*                                                                        */
  48:../STM32Cube_FW_N6/Middlewares/ST/usbx/common/usbx_device_classes/src/ux_device_class_video_deactivate.c **** /*    command                               Pointer to a class command    */
  49:../STM32Cube_FW_N6/Middlewares/ST/usbx/common/usbx_device_classes/src/ux_device_class_video_deactivate.c **** /*                                                                        */
  50:../STM32Cube_FW_N6/Middlewares/ST/usbx/common/usbx_device_classes/src/ux_device_class_video_deactivate.c **** /*  OUTPUT                                                                */
  51:../STM32Cube_FW_N6/Middlewares/ST/usbx/common/usbx_device_classes/src/ux_device_class_video_deactivate.c **** /*                                                                        */
  52:../STM32Cube_FW_N6/Middlewares/ST/usbx/common/usbx_device_classes/src/ux_device_class_video_deactivate.c **** /*    Completion Status                                                   */
  53:../STM32Cube_FW_N6/Middlewares/ST/usbx/common/usbx_device_classes/src/ux_device_class_video_deactivate.c **** /*                                                                        */
  54:../STM32Cube_FW_N6/Middlewares/ST/usbx/common/usbx_device_classes/src/ux_device_class_video_deactivate.c **** /*  CALLS                                                                 */
  55:../STM32Cube_FW_N6/Middlewares/ST/usbx/common/usbx_device_classes/src/ux_device_class_video_deactivate.c **** /*                                                                        */
  56:../STM32Cube_FW_N6/Middlewares/ST/usbx/common/usbx_device_classes/src/ux_device_class_video_deactivate.c **** /*    _ux_device_stack_transfer_all_request_abort                         */
  57:../STM32Cube_FW_N6/Middlewares/ST/usbx/common/usbx_device_classes/src/ux_device_class_video_deactivate.c **** /*                                          Abort all transfers           */
  58:../STM32Cube_FW_N6/Middlewares/ST/usbx/common/usbx_device_classes/src/ux_device_class_video_deactivate.c **** /*                                                                        */
  59:../STM32Cube_FW_N6/Middlewares/ST/usbx/common/usbx_device_classes/src/ux_device_class_video_deactivate.c **** /*  CALLED BY                                                             */
  60:../STM32Cube_FW_N6/Middlewares/ST/usbx/common/usbx_device_classes/src/ux_device_class_video_deactivate.c **** /*                                                                        */
  61:../STM32Cube_FW_N6/Middlewares/ST/usbx/common/usbx_device_classes/src/ux_device_class_video_deactivate.c **** /*    Device Video Class                                                  */
  62:../STM32Cube_FW_N6/Middlewares/ST/usbx/common/usbx_device_classes/src/ux_device_class_video_deactivate.c **** /*                                                                        */
  63:../STM32Cube_FW_N6/Middlewares/ST/usbx/common/usbx_device_classes/src/ux_device_class_video_deactivate.c **** /*  RELEASE HISTORY                                                       */
  64:../STM32Cube_FW_N6/Middlewares/ST/usbx/common/usbx_device_classes/src/ux_device_class_video_deactivate.c **** /*                                                                        */
  65:../STM32Cube_FW_N6/Middlewares/ST/usbx/common/usbx_device_classes/src/ux_device_class_video_deactivate.c **** /*    DATE              NAME                      DESCRIPTION             */
  66:../STM32Cube_FW_N6/Middlewares/ST/usbx/common/usbx_device_classes/src/ux_device_class_video_deactivate.c **** /*                                                                        */
  67:../STM32Cube_FW_N6/Middlewares/ST/usbx/common/usbx_device_classes/src/ux_device_class_video_deactivate.c **** /*  04-25-2022     Chaoqiong Xiao           Initial Version 6.1.11        */
  68:../STM32Cube_FW_N6/Middlewares/ST/usbx/common/usbx_device_classes/src/ux_device_class_video_deactivate.c **** /*                                                                        */
  69:../STM32Cube_FW_N6/Middlewares/ST/usbx/common/usbx_device_classes/src/ux_device_class_video_deactivate.c **** /**************************************************************************/
  70:../STM32Cube_FW_N6/Middlewares/ST/usbx/common/usbx_device_classes/src/ux_device_class_video_deactivate.c **** UINT  _ux_device_class_video_deactivate(UX_SLAVE_CLASS_COMMAND *command)
  71:../STM32Cube_FW_N6/Middlewares/ST/usbx/common/usbx_device_classes/src/ux_device_class_video_deactivate.c **** {
  35              		.loc 1 71 1 view -0
  36              		.cfi_startproc
  37              		@ args = 0, pretend = 0, frame = 0
  38              		@ frame_needed = 0, uses_anonymous_args = 0
  72:../STM32Cube_FW_N6/Middlewares/ST/usbx/common/usbx_device_classes/src/ux_device_class_video_deactivate.c **** 
  73:../STM32Cube_FW_N6/Middlewares/ST/usbx/common/usbx_device_classes/src/ux_device_class_video_deactivate.c **** UX_DEVICE_CLASS_VIDEO           *video;
  39              		.loc 1 73 1 view .LVU1
  74:../STM32Cube_FW_N6/Middlewares/ST/usbx/common/usbx_device_classes/src/ux_device_class_video_deactivate.c **** UX_DEVICE_CLASS_VIDEO_STREAM    *stream;
  40              		.loc 1 74 1 view .LVU2
  75:../STM32Cube_FW_N6/Middlewares/ST/usbx/common/usbx_device_classes/src/ux_device_class_video_deactivate.c **** UX_SLAVE_ENDPOINT               *endpoint;
ARM GAS  /tmp/ccgl7l6v.s 			page 3


  41              		.loc 1 75 1 view .LVU3
  76:../STM32Cube_FW_N6/Middlewares/ST/usbx/common/usbx_device_classes/src/ux_device_class_video_deactivate.c **** UX_SLAVE_CLASS                  *class_inst;
  42              		.loc 1 76 1 view .LVU4
  77:../STM32Cube_FW_N6/Middlewares/ST/usbx/common/usbx_device_classes/src/ux_device_class_video_deactivate.c **** UINT                             i;
  43              		.loc 1 77 1 view .LVU5
  78:../STM32Cube_FW_N6/Middlewares/ST/usbx/common/usbx_device_classes/src/ux_device_class_video_deactivate.c **** 
  79:../STM32Cube_FW_N6/Middlewares/ST/usbx/common/usbx_device_classes/src/ux_device_class_video_deactivate.c **** 
  80:../STM32Cube_FW_N6/Middlewares/ST/usbx/common/usbx_device_classes/src/ux_device_class_video_deactivate.c ****     /* Get the class container.  */
  81:../STM32Cube_FW_N6/Middlewares/ST/usbx/common/usbx_device_classes/src/ux_device_class_video_deactivate.c ****     class_inst =  command -> ux_slave_class_command_class_ptr;
  44              		.loc 1 81 5 view .LVU6
  82:../STM32Cube_FW_N6/Middlewares/ST/usbx/common/usbx_device_classes/src/ux_device_class_video_deactivate.c **** 
  83:../STM32Cube_FW_N6/Middlewares/ST/usbx/common/usbx_device_classes/src/ux_device_class_video_deactivate.c ****     /* Get the class instance in the container.  */
  84:../STM32Cube_FW_N6/Middlewares/ST/usbx/common/usbx_device_classes/src/ux_device_class_video_deactivate.c ****     video = (UX_DEVICE_CLASS_VIDEO *) class_inst -> ux_slave_class_instance;
  45              		.loc 1 84 5 view .LVU7
  71:../STM32Cube_FW_N6/Middlewares/ST/usbx/common/usbx_device_classes/src/ux_device_class_video_deactivate.c **** 
  46              		.loc 1 71 1 is_stmt 0 view .LVU8
  47 0000 F8B5     		push	{r3, r4, r5, r6, r7, lr}
  48              		.cfi_def_cfa_offset 24
  49              		.cfi_offset 3, -24
  50              		.cfi_offset 4, -20
  51              		.cfi_offset 5, -16
  52              		.cfi_offset 6, -12
  53              		.cfi_offset 7, -8
  54              		.cfi_offset 14, -4
  85:../STM32Cube_FW_N6/Middlewares/ST/usbx/common/usbx_device_classes/src/ux_device_class_video_deactivate.c **** 
  86:../STM32Cube_FW_N6/Middlewares/ST/usbx/common/usbx_device_classes/src/ux_device_class_video_deactivate.c ****     /* Stop pending streams.  */
  87:../STM32Cube_FW_N6/Middlewares/ST/usbx/common/usbx_device_classes/src/ux_device_class_video_deactivate.c ****     stream = video -> ux_device_class_video_streams;
  88:../STM32Cube_FW_N6/Middlewares/ST/usbx/common/usbx_device_classes/src/ux_device_class_video_deactivate.c ****     for (i = 0; i < video -> ux_device_class_video_streams_nb; i ++)
  55              		.loc 1 88 12 view .LVU9
  56 0002 0026     		movs	r6, #0
  57 0004 3746     		mov	r7, r6
  84:../STM32Cube_FW_N6/Middlewares/ST/usbx/common/usbx_device_classes/src/ux_device_class_video_deactivate.c **** 
  58              		.loc 1 84 11 view .LVU10
  59 0006 036A     		ldr	r3, [r0, #32]
  60 0008 9C6C     		ldr	r4, [r3, #72]
  61              	.LVL1:
  87:../STM32Cube_FW_N6/Middlewares/ST/usbx/common/usbx_device_classes/src/ux_device_class_video_deactivate.c ****     for (i = 0; i < video -> ux_device_class_video_streams_nb; i ++)
  62              		.loc 1 87 5 is_stmt 1 view .LVU11
  87:../STM32Cube_FW_N6/Middlewares/ST/usbx/common/usbx_device_classes/src/ux_device_class_video_deactivate.c ****     for (i = 0; i < video -> ux_device_class_video_streams_nb; i ++)
  63              		.loc 1 87 12 is_stmt 0 view .LVU12
  64 000a 656A     		ldr	r5, [r4, #36]
  65              	.LVL2:
  66              		.loc 1 88 5 is_stmt 1 view .LVU13
  67              	.L2:
  68              		.loc 1 88 19 discriminator 1 view .LVU14
  69 000c 236A     		ldr	r3, [r4, #32]
  70 000e B342     		cmp	r3, r6
  71 0010 06D8     		bhi	.L4
  89:../STM32Cube_FW_N6/Middlewares/ST/usbx/common/usbx_device_classes/src/ux_device_class_video_deactivate.c ****     {
  90:../STM32Cube_FW_N6/Middlewares/ST/usbx/common/usbx_device_classes/src/ux_device_class_video_deactivate.c **** 
  91:../STM32Cube_FW_N6/Middlewares/ST/usbx/common/usbx_device_classes/src/ux_device_class_video_deactivate.c ****         /* Locate the endpoint.  */
  92:../STM32Cube_FW_N6/Middlewares/ST/usbx/common/usbx_device_classes/src/ux_device_class_video_deactivate.c ****         endpoint = stream -> ux_device_class_video_stream_endpoint;
  93:../STM32Cube_FW_N6/Middlewares/ST/usbx/common/usbx_device_classes/src/ux_device_class_video_deactivate.c **** 
  94:../STM32Cube_FW_N6/Middlewares/ST/usbx/common/usbx_device_classes/src/ux_device_class_video_deactivate.c ****         /* Terminate the transactions pending on the endpoint.  */
  95:../STM32Cube_FW_N6/Middlewares/ST/usbx/common/usbx_device_classes/src/ux_device_class_video_deactivate.c ****         if (endpoint)
  96:../STM32Cube_FW_N6/Middlewares/ST/usbx/common/usbx_device_classes/src/ux_device_class_video_deactivate.c ****             _ux_device_stack_transfer_all_request_abort(endpoint, UX_TRANSFER_BUS_RESET);
  97:../STM32Cube_FW_N6/Middlewares/ST/usbx/common/usbx_device_classes/src/ux_device_class_video_deactivate.c **** 
ARM GAS  /tmp/ccgl7l6v.s 			page 4


  98:../STM32Cube_FW_N6/Middlewares/ST/usbx/common/usbx_device_classes/src/ux_device_class_video_deactivate.c ****         /* Free the stream.  */
  99:../STM32Cube_FW_N6/Middlewares/ST/usbx/common/usbx_device_classes/src/ux_device_class_video_deactivate.c ****         stream -> ux_device_class_video_stream_endpoint = UX_NULL;
 100:../STM32Cube_FW_N6/Middlewares/ST/usbx/common/usbx_device_classes/src/ux_device_class_video_deactivate.c ****         stream -> ux_device_class_video_stream_interface = UX_NULL;
 101:../STM32Cube_FW_N6/Middlewares/ST/usbx/common/usbx_device_classes/src/ux_device_class_video_deactivate.c **** 
 102:../STM32Cube_FW_N6/Middlewares/ST/usbx/common/usbx_device_classes/src/ux_device_class_video_deactivate.c ****         stream ++;
 103:../STM32Cube_FW_N6/Middlewares/ST/usbx/common/usbx_device_classes/src/ux_device_class_video_deactivate.c ****     }
 104:../STM32Cube_FW_N6/Middlewares/ST/usbx/common/usbx_device_classes/src/ux_device_class_video_deactivate.c **** 
 105:../STM32Cube_FW_N6/Middlewares/ST/usbx/common/usbx_device_classes/src/ux_device_class_video_deactivate.c ****     /* Free the control.  */
 106:../STM32Cube_FW_N6/Middlewares/ST/usbx/common/usbx_device_classes/src/ux_device_class_video_deactivate.c ****     video -> ux_device_class_video_interface = UX_NULL;
  72              		.loc 1 106 5 view .LVU15
 107:../STM32Cube_FW_N6/Middlewares/ST/usbx/common/usbx_device_classes/src/ux_device_class_video_deactivate.c **** 
 108:../STM32Cube_FW_N6/Middlewares/ST/usbx/common/usbx_device_classes/src/ux_device_class_video_deactivate.c ****     /* If there is a deactivate function call it.  */
 109:../STM32Cube_FW_N6/Middlewares/ST/usbx/common/usbx_device_classes/src/ux_device_class_video_deactivate.c ****     if (video -> ux_device_class_video_callbacks.ux_slave_class_video_instance_deactivate != UX_NUL
  73              		.loc 1 109 49 is_stmt 0 view .LVU16
  74 0012 6369     		ldr	r3, [r4, #20]
 106:../STM32Cube_FW_N6/Middlewares/ST/usbx/common/usbx_device_classes/src/ux_device_class_video_deactivate.c **** 
  75              		.loc 1 106 46 view .LVU17
  76 0014 A760     		str	r7, [r4, #8]
  77              		.loc 1 109 5 is_stmt 1 view .LVU18
  78              		.loc 1 109 8 is_stmt 0 view .LVU19
  79 0016 0BB1     		cbz	r3, .L5
 110:../STM32Cube_FW_N6/Middlewares/ST/usbx/common/usbx_device_classes/src/ux_device_class_video_deactivate.c **** 
 111:../STM32Cube_FW_N6/Middlewares/ST/usbx/common/usbx_device_classes/src/ux_device_class_video_deactivate.c ****         /* Invoke the application.  */
 112:../STM32Cube_FW_N6/Middlewares/ST/usbx/common/usbx_device_classes/src/ux_device_class_video_deactivate.c ****         video -> ux_device_class_video_callbacks.ux_slave_class_video_instance_deactivate(video);
  80              		.loc 1 112 9 is_stmt 1 view .LVU20
  81 0018 2046     		mov	r0, r4
  82 001a 9847     		blx	r3
  83              	.LVL3:
  84              	.L5:
 113:../STM32Cube_FW_N6/Middlewares/ST/usbx/common/usbx_device_classes/src/ux_device_class_video_deactivate.c **** 
 114:../STM32Cube_FW_N6/Middlewares/ST/usbx/common/usbx_device_classes/src/ux_device_class_video_deactivate.c ****     /* Return completion status.  */
 115:../STM32Cube_FW_N6/Middlewares/ST/usbx/common/usbx_device_classes/src/ux_device_class_video_deactivate.c ****     return(UX_SUCCESS);
  85              		.loc 1 115 5 view .LVU21
 116:../STM32Cube_FW_N6/Middlewares/ST/usbx/common/usbx_device_classes/src/ux_device_class_video_deactivate.c **** }
  86              		.loc 1 116 1 is_stmt 0 view .LVU22
  87 001c 0020     		movs	r0, #0
  88 001e F8BD     		pop	{r3, r4, r5, r6, r7, pc}
  89              	.LVL4:
  90              	.L4:
  92:../STM32Cube_FW_N6/Middlewares/ST/usbx/common/usbx_device_classes/src/ux_device_class_video_deactivate.c **** 
  91              		.loc 1 92 9 is_stmt 1 view .LVU23
  92:../STM32Cube_FW_N6/Middlewares/ST/usbx/common/usbx_device_classes/src/ux_device_class_video_deactivate.c **** 
  92              		.loc 1 92 18 is_stmt 0 view .LVU24
  93 0020 A868     		ldr	r0, [r5, #8]
  94              	.LVL5:
  95:../STM32Cube_FW_N6/Middlewares/ST/usbx/common/usbx_device_classes/src/ux_device_class_video_deactivate.c ****             _ux_device_stack_transfer_all_request_abort(endpoint, UX_TRANSFER_BUS_RESET);
  95              		.loc 1 95 9 is_stmt 1 view .LVU25
  95:../STM32Cube_FW_N6/Middlewares/ST/usbx/common/usbx_device_classes/src/ux_device_class_video_deactivate.c ****             _ux_device_stack_transfer_all_request_abort(endpoint, UX_TRANSFER_BUS_RESET);
  96              		.loc 1 95 12 is_stmt 0 view .LVU26
  97 0022 10B1     		cbz	r0, .L3
  96:../STM32Cube_FW_N6/Middlewares/ST/usbx/common/usbx_device_classes/src/ux_device_class_video_deactivate.c **** 
  98              		.loc 1 96 13 is_stmt 1 view .LVU27
  99 0024 2621     		movs	r1, #38
 100 0026 FFF7FEFF 		bl	_ux_device_stack_transfer_all_request_abort
 101              	.LVL6:
 102              	.L3:
  99:../STM32Cube_FW_N6/Middlewares/ST/usbx/common/usbx_device_classes/src/ux_device_class_video_deactivate.c ****         stream -> ux_device_class_video_stream_interface = UX_NULL;
ARM GAS  /tmp/ccgl7l6v.s 			page 5


 103              		.loc 1 99 9 view .LVU28
 100:../STM32Cube_FW_N6/Middlewares/ST/usbx/common/usbx_device_classes/src/ux_device_class_video_deactivate.c **** 
 104              		.loc 1 100 58 is_stmt 0 view .LVU29
 105 002a C5E90177 		strd	r7, r7, [r5, #4]
 102:../STM32Cube_FW_N6/Middlewares/ST/usbx/common/usbx_device_classes/src/ux_device_class_video_deactivate.c ****     }
 106              		.loc 1 102 9 is_stmt 1 view .LVU30
  88:../STM32Cube_FW_N6/Middlewares/ST/usbx/common/usbx_device_classes/src/ux_device_class_video_deactivate.c ****     {
 107              		.loc 1 88 66 is_stmt 0 discriminator 2 view .LVU31
 108 002e 0136     		adds	r6, r6, #1
 109              	.LVL7:
 102:../STM32Cube_FW_N6/Middlewares/ST/usbx/common/usbx_device_classes/src/ux_device_class_video_deactivate.c ****     }
 110              		.loc 1 102 16 view .LVU32
 111 0030 4035     		adds	r5, r5, #64
 112              	.LVL8:
  88:../STM32Cube_FW_N6/Middlewares/ST/usbx/common/usbx_device_classes/src/ux_device_class_video_deactivate.c ****     {
 113              		.loc 1 88 66 is_stmt 1 discriminator 2 view .LVU33
 114 0032 EBE7     		b	.L2
 115              		.cfi_endproc
 116              	.LFE3:
 118              		.text
 119              	.Letext0:
 120              		.file 2 "../STM32Cube_FW_N6/Middlewares/ST/usbx/ports/generic/inc/ux_port.h"
 121              		.file 3 "../STM32Cube_FW_N6/Middlewares/ST/usbx/common/core/inc/ux_api.h"
 122              		.file 4 "../STM32Cube_FW_N6/Middlewares/ST/usbx/common/usbx_device_classes/inc/ux_device_class_vid
 123              		.file 5 "../STM32Cube_FW_N6/Middlewares/ST/usbx/common/core/inc/ux_device_stack.h"
ARM GAS  /tmp/ccgl7l6v.s 			page 6

