ARM GAS  /tmp/cc1Wv28M.s 			page 1


   1              		.arch armv8.1-m.main
   2              		.fpu fpv5-d16
   3              		.arch_extension dsp
   4              		.arch_extension fp
   5              		.arch_extension fp.dp
   6              		.arch_extension mve
   7              		.arch_extension mve.fp
   8              		.eabi_attribute 5, "cortex-m55"
   9              		.eabi_attribute 28, 1
  10              		.eabi_attribute 20, 1
  11              		.eabi_attribute 21, 1
  12              		.eabi_attribute 23, 3
  13              		.eabi_attribute 24, 1
  14              		.eabi_attribute 25, 1
  15              		.eabi_attribute 26, 1
  16              		.eabi_attribute 30, 4
  17              		.eabi_attribute 34, 1
  18              		.eabi_attribute 38, 1
  19              		.eabi_attribute 18, 4
  20              		.file	"ux_device_class_dpump_thread.c"
  21              		.text
  22              	.Ltext0:
  23              		.cfi_sections	.debug_frame
  24              		.file 1 "../STM32Cube_FW_N6/Middlewares/ST/usbx/common/core/src/ux_device_class_dpump_thread.c"
  25              		.section	.text._ux_device_class_dpump_thread,"ax",%progbits
  26              		.align	1
  27              		.global	_ux_device_class_dpump_thread
  28              		.syntax unified
  29              		.thumb
  30              		.thumb_func
  32              	_ux_device_class_dpump_thread:
  33              	.LVL0:
  34              	.LFB3:
   1:../STM32Cube_FW_N6/Middlewares/ST/usbx/common/core/src/ux_device_class_dpump_thread.c **** /**************************************************************************/
   2:../STM32Cube_FW_N6/Middlewares/ST/usbx/common/core/src/ux_device_class_dpump_thread.c **** /*                                                                        */
   3:../STM32Cube_FW_N6/Middlewares/ST/usbx/common/core/src/ux_device_class_dpump_thread.c **** /*       Copyright (c) Microsoft Corporation. All rights reserved.        */
   4:../STM32Cube_FW_N6/Middlewares/ST/usbx/common/core/src/ux_device_class_dpump_thread.c **** /*                                                                        */
   5:../STM32Cube_FW_N6/Middlewares/ST/usbx/common/core/src/ux_device_class_dpump_thread.c **** /*       This software is licensed under the Microsoft Software License   */
   6:../STM32Cube_FW_N6/Middlewares/ST/usbx/common/core/src/ux_device_class_dpump_thread.c **** /*       Terms for Microsoft Azure RTOS. Full text of the license can be  */
   7:../STM32Cube_FW_N6/Middlewares/ST/usbx/common/core/src/ux_device_class_dpump_thread.c **** /*       found in the LICENSE file at https://aka.ms/AzureRTOS_EULA       */
   8:../STM32Cube_FW_N6/Middlewares/ST/usbx/common/core/src/ux_device_class_dpump_thread.c **** /*       and in the root directory of this software.                      */
   9:../STM32Cube_FW_N6/Middlewares/ST/usbx/common/core/src/ux_device_class_dpump_thread.c **** /*                                                                        */
  10:../STM32Cube_FW_N6/Middlewares/ST/usbx/common/core/src/ux_device_class_dpump_thread.c **** /**************************************************************************/
  11:../STM32Cube_FW_N6/Middlewares/ST/usbx/common/core/src/ux_device_class_dpump_thread.c **** 
  12:../STM32Cube_FW_N6/Middlewares/ST/usbx/common/core/src/ux_device_class_dpump_thread.c **** 
  13:../STM32Cube_FW_N6/Middlewares/ST/usbx/common/core/src/ux_device_class_dpump_thread.c **** /**************************************************************************/
  14:../STM32Cube_FW_N6/Middlewares/ST/usbx/common/core/src/ux_device_class_dpump_thread.c **** /**************************************************************************/
  15:../STM32Cube_FW_N6/Middlewares/ST/usbx/common/core/src/ux_device_class_dpump_thread.c **** /**                                                                       */ 
  16:../STM32Cube_FW_N6/Middlewares/ST/usbx/common/core/src/ux_device_class_dpump_thread.c **** /** USBX Component                                                        */ 
  17:../STM32Cube_FW_N6/Middlewares/ST/usbx/common/core/src/ux_device_class_dpump_thread.c **** /**                                                                       */
  18:../STM32Cube_FW_N6/Middlewares/ST/usbx/common/core/src/ux_device_class_dpump_thread.c **** /**   Device Data Pump Class                                              */
  19:../STM32Cube_FW_N6/Middlewares/ST/usbx/common/core/src/ux_device_class_dpump_thread.c **** /**                                                                       */
  20:../STM32Cube_FW_N6/Middlewares/ST/usbx/common/core/src/ux_device_class_dpump_thread.c **** /**************************************************************************/
  21:../STM32Cube_FW_N6/Middlewares/ST/usbx/common/core/src/ux_device_class_dpump_thread.c **** /**************************************************************************/
  22:../STM32Cube_FW_N6/Middlewares/ST/usbx/common/core/src/ux_device_class_dpump_thread.c **** 
  23:../STM32Cube_FW_N6/Middlewares/ST/usbx/common/core/src/ux_device_class_dpump_thread.c **** #define UX_SOURCE_CODE
  24:../STM32Cube_FW_N6/Middlewares/ST/usbx/common/core/src/ux_device_class_dpump_thread.c **** 
ARM GAS  /tmp/cc1Wv28M.s 			page 2


  25:../STM32Cube_FW_N6/Middlewares/ST/usbx/common/core/src/ux_device_class_dpump_thread.c **** 
  26:../STM32Cube_FW_N6/Middlewares/ST/usbx/common/core/src/ux_device_class_dpump_thread.c **** /* Include necessary system files.  */
  27:../STM32Cube_FW_N6/Middlewares/ST/usbx/common/core/src/ux_device_class_dpump_thread.c **** 
  28:../STM32Cube_FW_N6/Middlewares/ST/usbx/common/core/src/ux_device_class_dpump_thread.c **** #include "ux_api.h"
  29:../STM32Cube_FW_N6/Middlewares/ST/usbx/common/core/src/ux_device_class_dpump_thread.c **** #include "ux_device_class_dpump.h"
  30:../STM32Cube_FW_N6/Middlewares/ST/usbx/common/core/src/ux_device_class_dpump_thread.c **** #include "ux_device_stack.h"
  31:../STM32Cube_FW_N6/Middlewares/ST/usbx/common/core/src/ux_device_class_dpump_thread.c **** 
  32:../STM32Cube_FW_N6/Middlewares/ST/usbx/common/core/src/ux_device_class_dpump_thread.c **** /* Remove compiling warning. */
  33:../STM32Cube_FW_N6/Middlewares/ST/usbx/common/core/src/ux_device_class_dpump_thread.c **** VOID  _ux_device_class_dpump_thread(ULONG dpump_class);
  34:../STM32Cube_FW_N6/Middlewares/ST/usbx/common/core/src/ux_device_class_dpump_thread.c **** 
  35:../STM32Cube_FW_N6/Middlewares/ST/usbx/common/core/src/ux_device_class_dpump_thread.c **** /**************************************************************************/ 
  36:../STM32Cube_FW_N6/Middlewares/ST/usbx/common/core/src/ux_device_class_dpump_thread.c **** /*                                                                        */ 
  37:../STM32Cube_FW_N6/Middlewares/ST/usbx/common/core/src/ux_device_class_dpump_thread.c **** /*  FUNCTION                                               RELEASE        */ 
  38:../STM32Cube_FW_N6/Middlewares/ST/usbx/common/core/src/ux_device_class_dpump_thread.c **** /*                                                                        */ 
  39:../STM32Cube_FW_N6/Middlewares/ST/usbx/common/core/src/ux_device_class_dpump_thread.c **** /*    _ux_device_class_dpump_thread                       PORTABLE C      */ 
  40:../STM32Cube_FW_N6/Middlewares/ST/usbx/common/core/src/ux_device_class_dpump_thread.c **** /*                                                           6.1.12       */
  41:../STM32Cube_FW_N6/Middlewares/ST/usbx/common/core/src/ux_device_class_dpump_thread.c **** /*  AUTHOR                                                                */
  42:../STM32Cube_FW_N6/Middlewares/ST/usbx/common/core/src/ux_device_class_dpump_thread.c **** /*                                                                        */
  43:../STM32Cube_FW_N6/Middlewares/ST/usbx/common/core/src/ux_device_class_dpump_thread.c **** /*    Chaoqiong Xiao, Microsoft Corporation                               */
  44:../STM32Cube_FW_N6/Middlewares/ST/usbx/common/core/src/ux_device_class_dpump_thread.c **** /*                                                                        */
  45:../STM32Cube_FW_N6/Middlewares/ST/usbx/common/core/src/ux_device_class_dpump_thread.c **** /*  DESCRIPTION                                                           */
  46:../STM32Cube_FW_N6/Middlewares/ST/usbx/common/core/src/ux_device_class_dpump_thread.c **** /*                                                                        */ 
  47:../STM32Cube_FW_N6/Middlewares/ST/usbx/common/core/src/ux_device_class_dpump_thread.c **** /*    This function is the thread of the dpump class.                     */ 
  48:../STM32Cube_FW_N6/Middlewares/ST/usbx/common/core/src/ux_device_class_dpump_thread.c **** /*                                                                        */
  49:../STM32Cube_FW_N6/Middlewares/ST/usbx/common/core/src/ux_device_class_dpump_thread.c **** /*    It's for RTOS mode.                                                 */
  50:../STM32Cube_FW_N6/Middlewares/ST/usbx/common/core/src/ux_device_class_dpump_thread.c **** /*                                                                        */ 
  51:../STM32Cube_FW_N6/Middlewares/ST/usbx/common/core/src/ux_device_class_dpump_thread.c **** /*  INPUT                                                                 */ 
  52:../STM32Cube_FW_N6/Middlewares/ST/usbx/common/core/src/ux_device_class_dpump_thread.c **** /*                                                                        */ 
  53:../STM32Cube_FW_N6/Middlewares/ST/usbx/common/core/src/ux_device_class_dpump_thread.c **** /*    class                                   Address of dpump class      */ 
  54:../STM32Cube_FW_N6/Middlewares/ST/usbx/common/core/src/ux_device_class_dpump_thread.c **** /*                                            container                   */ 
  55:../STM32Cube_FW_N6/Middlewares/ST/usbx/common/core/src/ux_device_class_dpump_thread.c **** /*                                                                        */ 
  56:../STM32Cube_FW_N6/Middlewares/ST/usbx/common/core/src/ux_device_class_dpump_thread.c **** /*  OUTPUT                                                                */ 
  57:../STM32Cube_FW_N6/Middlewares/ST/usbx/common/core/src/ux_device_class_dpump_thread.c **** /*                                                                        */ 
  58:../STM32Cube_FW_N6/Middlewares/ST/usbx/common/core/src/ux_device_class_dpump_thread.c **** /*    None                                                                */ 
  59:../STM32Cube_FW_N6/Middlewares/ST/usbx/common/core/src/ux_device_class_dpump_thread.c **** /*                                                                        */ 
  60:../STM32Cube_FW_N6/Middlewares/ST/usbx/common/core/src/ux_device_class_dpump_thread.c **** /*  CALLS                                                                 */ 
  61:../STM32Cube_FW_N6/Middlewares/ST/usbx/common/core/src/ux_device_class_dpump_thread.c **** /*                                                                        */ 
  62:../STM32Cube_FW_N6/Middlewares/ST/usbx/common/core/src/ux_device_class_dpump_thread.c **** /*    _ux_device_stack_transfer_request     Request transfer              */ 
  63:../STM32Cube_FW_N6/Middlewares/ST/usbx/common/core/src/ux_device_class_dpump_thread.c **** /*    _ux_utility_memory_copy               Copy memory                   */ 
  64:../STM32Cube_FW_N6/Middlewares/ST/usbx/common/core/src/ux_device_class_dpump_thread.c **** /*    _ux_utility_thread_suspend            Suspend thread                */ 
  65:../STM32Cube_FW_N6/Middlewares/ST/usbx/common/core/src/ux_device_class_dpump_thread.c **** /*                                                                        */ 
  66:../STM32Cube_FW_N6/Middlewares/ST/usbx/common/core/src/ux_device_class_dpump_thread.c **** /*  CALLED BY                                                             */ 
  67:../STM32Cube_FW_N6/Middlewares/ST/usbx/common/core/src/ux_device_class_dpump_thread.c **** /*                                                                        */ 
  68:../STM32Cube_FW_N6/Middlewares/ST/usbx/common/core/src/ux_device_class_dpump_thread.c **** /*    ThreadX                                                             */ 
  69:../STM32Cube_FW_N6/Middlewares/ST/usbx/common/core/src/ux_device_class_dpump_thread.c **** /*                                                                        */ 
  70:../STM32Cube_FW_N6/Middlewares/ST/usbx/common/core/src/ux_device_class_dpump_thread.c **** /*  RELEASE HISTORY                                                       */ 
  71:../STM32Cube_FW_N6/Middlewares/ST/usbx/common/core/src/ux_device_class_dpump_thread.c **** /*                                                                        */ 
  72:../STM32Cube_FW_N6/Middlewares/ST/usbx/common/core/src/ux_device_class_dpump_thread.c **** /*    DATE              NAME                      DESCRIPTION             */ 
  73:../STM32Cube_FW_N6/Middlewares/ST/usbx/common/core/src/ux_device_class_dpump_thread.c **** /*                                                                        */ 
  74:../STM32Cube_FW_N6/Middlewares/ST/usbx/common/core/src/ux_device_class_dpump_thread.c **** /*  05-19-2020     Chaoqiong Xiao           Initial Version 6.0           */
  75:../STM32Cube_FW_N6/Middlewares/ST/usbx/common/core/src/ux_device_class_dpump_thread.c **** /*  09-30-2020     Chaoqiong Xiao           Modified comment(s),          */
  76:../STM32Cube_FW_N6/Middlewares/ST/usbx/common/core/src/ux_device_class_dpump_thread.c **** /*                                            verified memset and memcpy  */
  77:../STM32Cube_FW_N6/Middlewares/ST/usbx/common/core/src/ux_device_class_dpump_thread.c **** /*                                            cases,                      */
  78:../STM32Cube_FW_N6/Middlewares/ST/usbx/common/core/src/ux_device_class_dpump_thread.c **** /*                                            resulting in version 6.1    */
  79:../STM32Cube_FW_N6/Middlewares/ST/usbx/common/core/src/ux_device_class_dpump_thread.c **** /*  01-31-2022     Chaoqiong Xiao           Modified comment(s),          */
  80:../STM32Cube_FW_N6/Middlewares/ST/usbx/common/core/src/ux_device_class_dpump_thread.c **** /*                                            refined macros names,       */
  81:../STM32Cube_FW_N6/Middlewares/ST/usbx/common/core/src/ux_device_class_dpump_thread.c **** /*                                            resulting in version 6.1.10 */
ARM GAS  /tmp/cc1Wv28M.s 			page 3


  82:../STM32Cube_FW_N6/Middlewares/ST/usbx/common/core/src/ux_device_class_dpump_thread.c **** /*  07-29-2022     Chaoqiong Xiao           Modified comment(s),          */
  83:../STM32Cube_FW_N6/Middlewares/ST/usbx/common/core/src/ux_device_class_dpump_thread.c **** /*                                            fixed parameter/variable    */
  84:../STM32Cube_FW_N6/Middlewares/ST/usbx/common/core/src/ux_device_class_dpump_thread.c **** /*                                            names conflict C++ keyword, */
  85:../STM32Cube_FW_N6/Middlewares/ST/usbx/common/core/src/ux_device_class_dpump_thread.c **** /*                                            resulting in version 6.1.12 */
  86:../STM32Cube_FW_N6/Middlewares/ST/usbx/common/core/src/ux_device_class_dpump_thread.c **** /*                                                                        */
  87:../STM32Cube_FW_N6/Middlewares/ST/usbx/common/core/src/ux_device_class_dpump_thread.c **** /**************************************************************************/
  88:../STM32Cube_FW_N6/Middlewares/ST/usbx/common/core/src/ux_device_class_dpump_thread.c **** VOID  _ux_device_class_dpump_thread(ULONG dpump_class)
  89:../STM32Cube_FW_N6/Middlewares/ST/usbx/common/core/src/ux_device_class_dpump_thread.c **** {
  35              		.loc 1 89 1 view -0
  36              		.cfi_startproc
  37              		@ args = 0, pretend = 0, frame = 0
  38              		@ frame_needed = 0, uses_anonymous_args = 0
  39              		.loc 1 89 1 is_stmt 0 view .LVU1
  40 0000 2DE9F843 		push	{r3, r4, r5, r6, r7, r8, r9, lr}
  41              		.cfi_def_cfa_offset 32
  42              		.cfi_offset 3, -32
  43              		.cfi_offset 4, -28
  44              		.cfi_offset 5, -24
  45              		.cfi_offset 6, -20
  46              		.cfi_offset 7, -16
  47              		.cfi_offset 8, -12
  48              		.cfi_offset 9, -8
  49              		.cfi_offset 14, -4
  50              		.loc 1 89 1 view .LVU2
  51 0004 0646     		mov	r6, r0
  90:../STM32Cube_FW_N6/Middlewares/ST/usbx/common/core/src/ux_device_class_dpump_thread.c **** 
  91:../STM32Cube_FW_N6/Middlewares/ST/usbx/common/core/src/ux_device_class_dpump_thread.c **** UX_SLAVE_CLASS              *class_ptr;
  92:../STM32Cube_FW_N6/Middlewares/ST/usbx/common/core/src/ux_device_class_dpump_thread.c **** UX_SLAVE_INTERFACE          *interface_ptr;
  93:../STM32Cube_FW_N6/Middlewares/ST/usbx/common/core/src/ux_device_class_dpump_thread.c **** UX_SLAVE_CLASS_DPUMP        *dpump;
  94:../STM32Cube_FW_N6/Middlewares/ST/usbx/common/core/src/ux_device_class_dpump_thread.c **** UX_SLAVE_TRANSFER           *transfer_request;
  95:../STM32Cube_FW_N6/Middlewares/ST/usbx/common/core/src/ux_device_class_dpump_thread.c **** UX_SLAVE_DEVICE             *device;
  96:../STM32Cube_FW_N6/Middlewares/ST/usbx/common/core/src/ux_device_class_dpump_thread.c **** UX_SLAVE_ENDPOINT           *endpoint_in;
  97:../STM32Cube_FW_N6/Middlewares/ST/usbx/common/core/src/ux_device_class_dpump_thread.c **** UX_SLAVE_ENDPOINT           *endpoint_out;
  98:../STM32Cube_FW_N6/Middlewares/ST/usbx/common/core/src/ux_device_class_dpump_thread.c **** UINT                        status;
  99:../STM32Cube_FW_N6/Middlewares/ST/usbx/common/core/src/ux_device_class_dpump_thread.c **** ULONG                       length;
 100:../STM32Cube_FW_N6/Middlewares/ST/usbx/common/core/src/ux_device_class_dpump_thread.c **** 
 101:../STM32Cube_FW_N6/Middlewares/ST/usbx/common/core/src/ux_device_class_dpump_thread.c ****     /* This thread runs forever but can be suspended or resumed.  */
 102:../STM32Cube_FW_N6/Middlewares/ST/usbx/common/core/src/ux_device_class_dpump_thread.c ****     while(1)
 103:../STM32Cube_FW_N6/Middlewares/ST/usbx/common/core/src/ux_device_class_dpump_thread.c ****     {
 104:../STM32Cube_FW_N6/Middlewares/ST/usbx/common/core/src/ux_device_class_dpump_thread.c **** 
 105:../STM32Cube_FW_N6/Middlewares/ST/usbx/common/core/src/ux_device_class_dpump_thread.c ****         /* Cast properly the dpump instance.  */
 106:../STM32Cube_FW_N6/Middlewares/ST/usbx/common/core/src/ux_device_class_dpump_thread.c ****         UX_THREAD_EXTENSION_PTR_GET(class_ptr, UX_SLAVE_CLASS, dpump_class)
 107:../STM32Cube_FW_N6/Middlewares/ST/usbx/common/core/src/ux_device_class_dpump_thread.c ****         
 108:../STM32Cube_FW_N6/Middlewares/ST/usbx/common/core/src/ux_device_class_dpump_thread.c ****         /* Get the dpump instance from this class container.  */
 109:../STM32Cube_FW_N6/Middlewares/ST/usbx/common/core/src/ux_device_class_dpump_thread.c ****         dpump =  (UX_SLAVE_CLASS_DPUMP *) class_ptr -> ux_slave_class_instance;
 110:../STM32Cube_FW_N6/Middlewares/ST/usbx/common/core/src/ux_device_class_dpump_thread.c ****     
 111:../STM32Cube_FW_N6/Middlewares/ST/usbx/common/core/src/ux_device_class_dpump_thread.c ****         /* Get the pointer to the device.  */
 112:../STM32Cube_FW_N6/Middlewares/ST/usbx/common/core/src/ux_device_class_dpump_thread.c ****         device =  &_ux_system_slave -> ux_system_slave_device;
  52              		.loc 1 112 37 view .LVU3
  53 0006 DFF85C90 		ldr	r9, .L11
  54              	.LVL1:
  55              	.L7:
  91:../STM32Cube_FW_N6/Middlewares/ST/usbx/common/core/src/ux_device_class_dpump_thread.c **** UX_SLAVE_INTERFACE          *interface_ptr;
  56              		.loc 1 91 1 is_stmt 1 view .LVU4
  92:../STM32Cube_FW_N6/Middlewares/ST/usbx/common/core/src/ux_device_class_dpump_thread.c **** UX_SLAVE_CLASS_DPUMP        *dpump;
  57              		.loc 1 92 1 view .LVU5
  93:../STM32Cube_FW_N6/Middlewares/ST/usbx/common/core/src/ux_device_class_dpump_thread.c **** UX_SLAVE_TRANSFER           *transfer_request;
ARM GAS  /tmp/cc1Wv28M.s 			page 4


  58              		.loc 1 93 1 view .LVU6
  94:../STM32Cube_FW_N6/Middlewares/ST/usbx/common/core/src/ux_device_class_dpump_thread.c **** UX_SLAVE_DEVICE             *device;
  59              		.loc 1 94 1 view .LVU7
  95:../STM32Cube_FW_N6/Middlewares/ST/usbx/common/core/src/ux_device_class_dpump_thread.c **** UX_SLAVE_ENDPOINT           *endpoint_in;
  60              		.loc 1 95 1 view .LVU8
  96:../STM32Cube_FW_N6/Middlewares/ST/usbx/common/core/src/ux_device_class_dpump_thread.c **** UX_SLAVE_ENDPOINT           *endpoint_out;
  61              		.loc 1 96 1 view .LVU9
  97:../STM32Cube_FW_N6/Middlewares/ST/usbx/common/core/src/ux_device_class_dpump_thread.c **** UINT                        status;
  62              		.loc 1 97 1 view .LVU10
  98:../STM32Cube_FW_N6/Middlewares/ST/usbx/common/core/src/ux_device_class_dpump_thread.c **** ULONG                       length;
  63              		.loc 1 98 1 view .LVU11
  99:../STM32Cube_FW_N6/Middlewares/ST/usbx/common/core/src/ux_device_class_dpump_thread.c **** 
  64              		.loc 1 99 1 view .LVU12
 102:../STM32Cube_FW_N6/Middlewares/ST/usbx/common/core/src/ux_device_class_dpump_thread.c ****     {
  65              		.loc 1 102 5 view .LVU13
 106:../STM32Cube_FW_N6/Middlewares/ST/usbx/common/core/src/ux_device_class_dpump_thread.c ****         
  66              		.loc 1 106 9 view .LVU14
 109:../STM32Cube_FW_N6/Middlewares/ST/usbx/common/core/src/ux_device_class_dpump_thread.c ****     
  67              		.loc 1 109 9 view .LVU15
  68              		.loc 1 112 9 view .LVU16
 113:../STM32Cube_FW_N6/Middlewares/ST/usbx/common/core/src/ux_device_class_dpump_thread.c ****         
 114:../STM32Cube_FW_N6/Middlewares/ST/usbx/common/core/src/ux_device_class_dpump_thread.c ****         /* This is the first time we are activated. We need the interface to the class.  */
 115:../STM32Cube_FW_N6/Middlewares/ST/usbx/common/core/src/ux_device_class_dpump_thread.c ****         interface_ptr =  dpump -> ux_slave_class_dpump_interface;
  69              		.loc 1 115 23 is_stmt 0 view .LVU17
  70 000a B36C     		ldr	r3, [r6, #72]
 112:../STM32Cube_FW_N6/Middlewares/ST/usbx/common/core/src/ux_device_class_dpump_thread.c ****         
  71              		.loc 1 112 37 view .LVU18
  72 000c D9F80080 		ldr	r8, [r9]
  73              	.LVL2:
  74              		.loc 1 115 9 is_stmt 1 view .LVU19
 116:../STM32Cube_FW_N6/Middlewares/ST/usbx/common/core/src/ux_device_class_dpump_thread.c ****         
 117:../STM32Cube_FW_N6/Middlewares/ST/usbx/common/core/src/ux_device_class_dpump_thread.c ****         /* Locate the endpoints.  */
 118:../STM32Cube_FW_N6/Middlewares/ST/usbx/common/core/src/ux_device_class_dpump_thread.c ****         endpoint_in =  interface_ptr -> ux_slave_interface_first_endpoint;
  75              		.loc 1 118 9 view .LVU20
  76              		.loc 1 118 21 is_stmt 0 view .LVU21
  77 0010 1B68     		ldr	r3, [r3]
  78 0012 DC69     		ldr	r4, [r3, #28]
  79              	.LVL3:
 119:../STM32Cube_FW_N6/Middlewares/ST/usbx/common/core/src/ux_device_class_dpump_thread.c ****         
 120:../STM32Cube_FW_N6/Middlewares/ST/usbx/common/core/src/ux_device_class_dpump_thread.c ****         /* Check the endpoint direction, if IN we have the correct endpoint.  */
 121:../STM32Cube_FW_N6/Middlewares/ST/usbx/common/core/src/ux_device_class_dpump_thread.c ****         if ((endpoint_in -> ux_slave_endpoint_descriptor.bEndpointAddress & UX_ENDPOINT_DIRECTION) 
  80              		.loc 1 121 9 is_stmt 1 view .LVU22
  81              		.loc 1 121 12 is_stmt 0 view .LVU23
  82 0014 94F90E30 		ldrsb	r3, [r4, #14]
 122:../STM32Cube_FW_N6/Middlewares/ST/usbx/common/core/src/ux_device_class_dpump_thread.c ****         {
 123:../STM32Cube_FW_N6/Middlewares/ST/usbx/common/core/src/ux_device_class_dpump_thread.c **** 
 124:../STM32Cube_FW_N6/Middlewares/ST/usbx/common/core/src/ux_device_class_dpump_thread.c ****             /* Wrong direction, we found the OUT endpoint first.  */
 125:../STM32Cube_FW_N6/Middlewares/ST/usbx/common/core/src/ux_device_class_dpump_thread.c ****             endpoint_out =  endpoint_in;
 126:../STM32Cube_FW_N6/Middlewares/ST/usbx/common/core/src/ux_device_class_dpump_thread.c ****                 
 127:../STM32Cube_FW_N6/Middlewares/ST/usbx/common/core/src/ux_device_class_dpump_thread.c ****             /* So the next endpoint has to be the IN endpoint.  */
 128:../STM32Cube_FW_N6/Middlewares/ST/usbx/common/core/src/ux_device_class_dpump_thread.c ****             endpoint_in =  endpoint_out -> ux_slave_endpoint_next_endpoint;
  83              		.loc 1 128 25 view .LVU24
  84 0018 6569     		ldr	r5, [r4, #20]
 121:../STM32Cube_FW_N6/Middlewares/ST/usbx/common/core/src/ux_device_class_dpump_thread.c ****         {
  85              		.loc 1 121 12 view .LVU25
  86 001a 002B     		cmp	r3, #0
  87 001c 02DA     		bge	.L3
ARM GAS  /tmp/cc1Wv28M.s 			page 5


  88 001e 2B46     		mov	r3, r5
 118:../STM32Cube_FW_N6/Middlewares/ST/usbx/common/core/src/ux_device_class_dpump_thread.c ****         
  89              		.loc 1 118 21 view .LVU26
  90 0020 2546     		mov	r5, r4
 129:../STM32Cube_FW_N6/Middlewares/ST/usbx/common/core/src/ux_device_class_dpump_thread.c ****         }
 130:../STM32Cube_FW_N6/Middlewares/ST/usbx/common/core/src/ux_device_class_dpump_thread.c ****         else
 131:../STM32Cube_FW_N6/Middlewares/ST/usbx/common/core/src/ux_device_class_dpump_thread.c ****         {
 132:../STM32Cube_FW_N6/Middlewares/ST/usbx/common/core/src/ux_device_class_dpump_thread.c **** 
 133:../STM32Cube_FW_N6/Middlewares/ST/usbx/common/core/src/ux_device_class_dpump_thread.c ****             /* We found the endpoint IN first, so next endpoint is OUT.  */
 134:../STM32Cube_FW_N6/Middlewares/ST/usbx/common/core/src/ux_device_class_dpump_thread.c ****             endpoint_out =  endpoint_in -> ux_slave_endpoint_next_endpoint;
  91              		.loc 1 134 26 view .LVU27
  92 0022 1C46     		mov	r4, r3
  93              	.LVL4:
  94              	.L3:
 135:../STM32Cube_FW_N6/Middlewares/ST/usbx/common/core/src/ux_device_class_dpump_thread.c ****         }
 136:../STM32Cube_FW_N6/Middlewares/ST/usbx/common/core/src/ux_device_class_dpump_thread.c ****             
 137:../STM32Cube_FW_N6/Middlewares/ST/usbx/common/core/src/ux_device_class_dpump_thread.c ****         /* As long as the device is in the CONFIGURED state.  */
 138:../STM32Cube_FW_N6/Middlewares/ST/usbx/common/core/src/ux_device_class_dpump_thread.c ****         while (device -> ux_slave_device_state == UX_DEVICE_CONFIGURED)
  95              		.loc 1 138 48 is_stmt 1 view .LVU28
  96 0024 D8F82430 		ldr	r3, [r8, #36]
  97 0028 032B     		cmp	r3, #3
  98 002a EED1     		bne	.L7
 139:../STM32Cube_FW_N6/Middlewares/ST/usbx/common/core/src/ux_device_class_dpump_thread.c ****         { 
 140:../STM32Cube_FW_N6/Middlewares/ST/usbx/common/core/src/ux_device_class_dpump_thread.c ****         
 141:../STM32Cube_FW_N6/Middlewares/ST/usbx/common/core/src/ux_device_class_dpump_thread.c ****             /* We prepare to receive from the host on the OUT endpoint.  */
 142:../STM32Cube_FW_N6/Middlewares/ST/usbx/common/core/src/ux_device_class_dpump_thread.c ****             transfer_request =  &endpoint_out -> ux_slave_endpoint_transfer_request;
  99              		.loc 1 142 13 view .LVU29
 100              	.LVL5:
 143:../STM32Cube_FW_N6/Middlewares/ST/usbx/common/core/src/ux_device_class_dpump_thread.c ****     
 144:../STM32Cube_FW_N6/Middlewares/ST/usbx/common/core/src/ux_device_class_dpump_thread.c ****             /* Send the request to the device controller.  */
 145:../STM32Cube_FW_N6/Middlewares/ST/usbx/common/core/src/ux_device_class_dpump_thread.c ****             status =  _ux_device_stack_transfer_request(transfer_request, UX_DEVICE_CLASS_DPUMP_PAC
 101              		.loc 1 145 13 view .LVU30
 102              		.loc 1 145 23 is_stmt 0 view .LVU31
 103 002c 8022     		movs	r2, #128
 104 002e 04F12000 		add	r0, r4, #32
 105              	.LVL6:
 106              		.loc 1 145 23 view .LVU32
 107 0032 1146     		mov	r1, r2
 108 0034 FFF7FEFF 		bl	_ux_device_stack_transfer_request
 109              	.LVL7:
 146:../STM32Cube_FW_N6/Middlewares/ST/usbx/common/core/src/ux_device_class_dpump_thread.c ****     
 147:../STM32Cube_FW_N6/Middlewares/ST/usbx/common/core/src/ux_device_class_dpump_thread.c ****             /* Check the status */    
 148:../STM32Cube_FW_N6/Middlewares/ST/usbx/common/core/src/ux_device_class_dpump_thread.c ****             if (status == UX_SUCCESS)
 110              		.loc 1 148 13 is_stmt 1 view .LVU33
 111              		.loc 1 148 16 is_stmt 0 view .LVU34
 112 0038 0028     		cmp	r0, #0
 113 003a F3D1     		bne	.L3
 149:../STM32Cube_FW_N6/Middlewares/ST/usbx/common/core/src/ux_device_class_dpump_thread.c ****             {
 150:../STM32Cube_FW_N6/Middlewares/ST/usbx/common/core/src/ux_device_class_dpump_thread.c **** 
 151:../STM32Cube_FW_N6/Middlewares/ST/usbx/common/core/src/ux_device_class_dpump_thread.c ****                 /* Obtain the length of the transaction.  */
 152:../STM32Cube_FW_N6/Middlewares/ST/usbx/common/core/src/ux_device_class_dpump_thread.c ****                 length =  transfer_request -> ux_slave_transfer_request_actual_length;
 114              		.loc 1 152 17 is_stmt 1 view .LVU35
 115              		.loc 1 152 24 is_stmt 0 view .LVU36
 116 003c A76B     		ldr	r7, [r4, #56]
 117              	.LVL8:
 153:../STM32Cube_FW_N6/Middlewares/ST/usbx/common/core/src/ux_device_class_dpump_thread.c **** 
 154:../STM32Cube_FW_N6/Middlewares/ST/usbx/common/core/src/ux_device_class_dpump_thread.c ****                 /* Copy the buffer to the target in endpoint.  */
ARM GAS  /tmp/cc1Wv28M.s 			page 6


 155:../STM32Cube_FW_N6/Middlewares/ST/usbx/common/core/src/ux_device_class_dpump_thread.c ****                 _ux_utility_memory_copy(endpoint_in -> ux_slave_endpoint_transfer_request.ux_slave_
 118              		.loc 1 155 17 is_stmt 1 view .LVU37
 119 003e E16A     		ldr	r1, [r4, #44]
 120 0040 3A46     		mov	r2, r7
 121 0042 E86A     		ldr	r0, [r5, #44]
 122              	.LVL9:
 123              		.loc 1 155 17 is_stmt 0 view .LVU38
 124 0044 FFF7FEFF 		bl	_ux_utility_memory_copy
 125              	.LVL10:
 156:../STM32Cube_FW_N6/Middlewares/ST/usbx/common/core/src/ux_device_class_dpump_thread.c ****                                         endpoint_out -> ux_slave_endpoint_transfer_request.ux_slave
 157:../STM32Cube_FW_N6/Middlewares/ST/usbx/common/core/src/ux_device_class_dpump_thread.c ****                                         length); /* Use case of memcpy is verified. */
 158:../STM32Cube_FW_N6/Middlewares/ST/usbx/common/core/src/ux_device_class_dpump_thread.c **** 
 159:../STM32Cube_FW_N6/Middlewares/ST/usbx/common/core/src/ux_device_class_dpump_thread.c ****                 /* Now we send the packet back to the host. On the endpoint In.  */
 160:../STM32Cube_FW_N6/Middlewares/ST/usbx/common/core/src/ux_device_class_dpump_thread.c ****                 transfer_request =  &endpoint_in -> ux_slave_endpoint_transfer_request;
 126              		.loc 1 160 17 is_stmt 1 view .LVU39
 161:../STM32Cube_FW_N6/Middlewares/ST/usbx/common/core/src/ux_device_class_dpump_thread.c ****     
 162:../STM32Cube_FW_N6/Middlewares/ST/usbx/common/core/src/ux_device_class_dpump_thread.c ****                 /* Sends the data payload back to the caller.  */
 163:../STM32Cube_FW_N6/Middlewares/ST/usbx/common/core/src/ux_device_class_dpump_thread.c ****                 status =  _ux_device_stack_transfer_request(transfer_request, length, length);
 127              		.loc 1 163 17 view .LVU40
 128              		.loc 1 163 27 is_stmt 0 view .LVU41
 129 0048 3A46     		mov	r2, r7
 130 004a 3946     		mov	r1, r7
 131 004c 05F12000 		add	r0, r5, #32
 132              	.LVL11:
 133              		.loc 1 163 27 view .LVU42
 134 0050 FFF7FEFF 		bl	_ux_device_stack_transfer_request
 135              	.LVL12:
 164:../STM32Cube_FW_N6/Middlewares/ST/usbx/common/core/src/ux_device_class_dpump_thread.c ****                                     
 165:../STM32Cube_FW_N6/Middlewares/ST/usbx/common/core/src/ux_device_class_dpump_thread.c ****                 /* Check error code. */
 166:../STM32Cube_FW_N6/Middlewares/ST/usbx/common/core/src/ux_device_class_dpump_thread.c ****                 if (status != UX_SUCCESS)
 136              		.loc 1 166 17 is_stmt 1 view .LVU43
 137              		.loc 1 166 20 is_stmt 0 view .LVU44
 138 0054 0246     		mov	r2, r0
 139 0056 0028     		cmp	r0, #0
 140 0058 E4D0     		beq	.L3
 167:../STM32Cube_FW_N6/Middlewares/ST/usbx/common/core/src/ux_device_class_dpump_thread.c **** 
 168:../STM32Cube_FW_N6/Middlewares/ST/usbx/common/core/src/ux_device_class_dpump_thread.c ****                     /* Error trap. */
 169:../STM32Cube_FW_N6/Middlewares/ST/usbx/common/core/src/ux_device_class_dpump_thread.c ****                     _ux_system_error_handler(UX_SYSTEM_LEVEL_THREAD, UX_SYSTEM_CONTEXT_CLASS, statu
 141              		.loc 1 169 21 is_stmt 1 view .LVU45
 142 005a 0721     		movs	r1, #7
 143 005c 0220     		movs	r0, #2
 144              	.LVL13:
 145              		.loc 1 169 21 is_stmt 0 view .LVU46
 146 005e FFF7FEFF 		bl	_ux_system_error_handler
 147              	.LVL14:
 148              		.loc 1 169 21 view .LVU47
 149 0062 DFE7     		b	.L3
 150              	.L12:
 151              		.align	2
 152              	.L11:
 153 0064 00000000 		.word	_ux_system_slave
 154              		.cfi_endproc
 155              	.LFE3:
 157              		.text
 158              	.Letext0:
 159              		.file 2 "../STM32Cube_FW_N6/Middlewares/ST/usbx/ports/generic/inc/ux_port.h"
 160              		.file 3 "../STM32Cube_FW_N6/Middlewares/ST/usbx/common/core/inc/ux_api.h"
ARM GAS  /tmp/cc1Wv28M.s 			page 7


 161              		.file 4 "../STM32Cube_FW_N6/Middlewares/ST/usbx/common/core/inc/ux_device_class_dpump.h"
 162              		.file 5 "../STM32Cube_FW_N6/Middlewares/ST/usbx/common/core/inc/ux_utility.h"
 163              		.file 6 "../STM32Cube_FW_N6/Middlewares/ST/usbx/common/core/inc/ux_system.h"
 164              		.file 7 "../STM32Cube_FW_N6/Middlewares/ST/usbx/common/core/inc/ux_device_stack.h"
ARM GAS  /tmp/cc1Wv28M.s 			page 8

