ARM GAS  /tmp/ccScuu5u.s 			page 1


   1              		.arch armv8.1-m.main
   2              		.fpu fpv5-d16
   3              		.arch_extension dsp
   4              		.arch_extension fp
   5              		.arch_extension fp.dp
   6              		.arch_extension mve
   7              		.arch_extension mve.fp
   8              		.eabi_attribute 5, "cortex-m55"
   9              		.eabi_attribute 28, 1
  10              		.eabi_attribute 20, 1
  11              		.eabi_attribute 21, 1
  12              		.eabi_attribute 23, 3
  13              		.eabi_attribute 24, 1
  14              		.eabi_attribute 25, 1
  15              		.eabi_attribute 26, 1
  16              		.eabi_attribute 30, 4
  17              		.eabi_attribute 34, 1
  18              		.eabi_attribute 38, 1
  19              		.eabi_attribute 18, 4
  20              		.file	"ux_device_class_dpump_entry.c"
  21              		.text
  22              	.Ltext0:
  23              		.cfi_sections	.debug_frame
  24              		.file 1 "../STM32Cube_FW_N6/Middlewares/ST/usbx/common/core/src/ux_device_class_dpump_entry.c"
  25              		.section	.text._ux_device_class_dpump_entry,"ax",%progbits
  26              		.align	1
  27              		.global	_ux_device_class_dpump_entry
  28              		.syntax unified
  29              		.thumb
  30              		.thumb_func
  32              	_ux_device_class_dpump_entry:
  33              	.LVL0:
  34              	.LFB3:
   1:../STM32Cube_FW_N6/Middlewares/ST/usbx/common/core/src/ux_device_class_dpump_entry.c **** /**************************************************************************/
   2:../STM32Cube_FW_N6/Middlewares/ST/usbx/common/core/src/ux_device_class_dpump_entry.c **** /*                                                                        */
   3:../STM32Cube_FW_N6/Middlewares/ST/usbx/common/core/src/ux_device_class_dpump_entry.c **** /*       Copyright (c) Microsoft Corporation. All rights reserved.        */
   4:../STM32Cube_FW_N6/Middlewares/ST/usbx/common/core/src/ux_device_class_dpump_entry.c **** /*                                                                        */
   5:../STM32Cube_FW_N6/Middlewares/ST/usbx/common/core/src/ux_device_class_dpump_entry.c **** /*       This software is licensed under the Microsoft Software License   */
   6:../STM32Cube_FW_N6/Middlewares/ST/usbx/common/core/src/ux_device_class_dpump_entry.c **** /*       Terms for Microsoft Azure RTOS. Full text of the license can be  */
   7:../STM32Cube_FW_N6/Middlewares/ST/usbx/common/core/src/ux_device_class_dpump_entry.c **** /*       found in the LICENSE file at https://aka.ms/AzureRTOS_EULA       */
   8:../STM32Cube_FW_N6/Middlewares/ST/usbx/common/core/src/ux_device_class_dpump_entry.c **** /*       and in the root directory of this software.                      */
   9:../STM32Cube_FW_N6/Middlewares/ST/usbx/common/core/src/ux_device_class_dpump_entry.c **** /*                                                                        */
  10:../STM32Cube_FW_N6/Middlewares/ST/usbx/common/core/src/ux_device_class_dpump_entry.c **** /**************************************************************************/
  11:../STM32Cube_FW_N6/Middlewares/ST/usbx/common/core/src/ux_device_class_dpump_entry.c **** 
  12:../STM32Cube_FW_N6/Middlewares/ST/usbx/common/core/src/ux_device_class_dpump_entry.c **** 
  13:../STM32Cube_FW_N6/Middlewares/ST/usbx/common/core/src/ux_device_class_dpump_entry.c **** /**************************************************************************/
  14:../STM32Cube_FW_N6/Middlewares/ST/usbx/common/core/src/ux_device_class_dpump_entry.c **** /**************************************************************************/
  15:../STM32Cube_FW_N6/Middlewares/ST/usbx/common/core/src/ux_device_class_dpump_entry.c **** /**                                                                       */ 
  16:../STM32Cube_FW_N6/Middlewares/ST/usbx/common/core/src/ux_device_class_dpump_entry.c **** /** USBX Component                                                        */ 
  17:../STM32Cube_FW_N6/Middlewares/ST/usbx/common/core/src/ux_device_class_dpump_entry.c **** /**                                                                       */
  18:../STM32Cube_FW_N6/Middlewares/ST/usbx/common/core/src/ux_device_class_dpump_entry.c **** /**   Device Data Pump Class                                              */
  19:../STM32Cube_FW_N6/Middlewares/ST/usbx/common/core/src/ux_device_class_dpump_entry.c **** /**                                                                       */
  20:../STM32Cube_FW_N6/Middlewares/ST/usbx/common/core/src/ux_device_class_dpump_entry.c **** /**************************************************************************/
  21:../STM32Cube_FW_N6/Middlewares/ST/usbx/common/core/src/ux_device_class_dpump_entry.c **** /**************************************************************************/
  22:../STM32Cube_FW_N6/Middlewares/ST/usbx/common/core/src/ux_device_class_dpump_entry.c **** 
  23:../STM32Cube_FW_N6/Middlewares/ST/usbx/common/core/src/ux_device_class_dpump_entry.c **** #define UX_SOURCE_CODE
  24:../STM32Cube_FW_N6/Middlewares/ST/usbx/common/core/src/ux_device_class_dpump_entry.c **** 
ARM GAS  /tmp/ccScuu5u.s 			page 2


  25:../STM32Cube_FW_N6/Middlewares/ST/usbx/common/core/src/ux_device_class_dpump_entry.c **** 
  26:../STM32Cube_FW_N6/Middlewares/ST/usbx/common/core/src/ux_device_class_dpump_entry.c **** /* Include necessary system files.  */
  27:../STM32Cube_FW_N6/Middlewares/ST/usbx/common/core/src/ux_device_class_dpump_entry.c **** 
  28:../STM32Cube_FW_N6/Middlewares/ST/usbx/common/core/src/ux_device_class_dpump_entry.c **** #include "ux_api.h"
  29:../STM32Cube_FW_N6/Middlewares/ST/usbx/common/core/src/ux_device_class_dpump_entry.c **** #include "ux_device_class_dpump.h"
  30:../STM32Cube_FW_N6/Middlewares/ST/usbx/common/core/src/ux_device_class_dpump_entry.c **** 
  31:../STM32Cube_FW_N6/Middlewares/ST/usbx/common/core/src/ux_device_class_dpump_entry.c **** 
  32:../STM32Cube_FW_N6/Middlewares/ST/usbx/common/core/src/ux_device_class_dpump_entry.c **** /**************************************************************************/ 
  33:../STM32Cube_FW_N6/Middlewares/ST/usbx/common/core/src/ux_device_class_dpump_entry.c **** /*                                                                        */ 
  34:../STM32Cube_FW_N6/Middlewares/ST/usbx/common/core/src/ux_device_class_dpump_entry.c **** /*  FUNCTION                                               RELEASE        */ 
  35:../STM32Cube_FW_N6/Middlewares/ST/usbx/common/core/src/ux_device_class_dpump_entry.c **** /*                                                                        */ 
  36:../STM32Cube_FW_N6/Middlewares/ST/usbx/common/core/src/ux_device_class_dpump_entry.c **** /*    _ux_device_class_dpump_entry                        PORTABLE C      */ 
  37:../STM32Cube_FW_N6/Middlewares/ST/usbx/common/core/src/ux_device_class_dpump_entry.c **** /*                                                           6.1          */
  38:../STM32Cube_FW_N6/Middlewares/ST/usbx/common/core/src/ux_device_class_dpump_entry.c **** /*  AUTHOR                                                                */
  39:../STM32Cube_FW_N6/Middlewares/ST/usbx/common/core/src/ux_device_class_dpump_entry.c **** /*                                                                        */
  40:../STM32Cube_FW_N6/Middlewares/ST/usbx/common/core/src/ux_device_class_dpump_entry.c **** /*    Chaoqiong Xiao, Microsoft Corporation                               */
  41:../STM32Cube_FW_N6/Middlewares/ST/usbx/common/core/src/ux_device_class_dpump_entry.c **** /*                                                                        */
  42:../STM32Cube_FW_N6/Middlewares/ST/usbx/common/core/src/ux_device_class_dpump_entry.c **** /*  DESCRIPTION                                                           */
  43:../STM32Cube_FW_N6/Middlewares/ST/usbx/common/core/src/ux_device_class_dpump_entry.c **** /*                                                                        */ 
  44:../STM32Cube_FW_N6/Middlewares/ST/usbx/common/core/src/ux_device_class_dpump_entry.c **** /*    This function is the entry point of the device dpump class. It      */ 
  45:../STM32Cube_FW_N6/Middlewares/ST/usbx/common/core/src/ux_device_class_dpump_entry.c **** /*    will be called by the device stack enumeration module when the      */ 
  46:../STM32Cube_FW_N6/Middlewares/ST/usbx/common/core/src/ux_device_class_dpump_entry.c **** /*    host has sent a SET_CONFIGURATION command and the dpump interface   */
  47:../STM32Cube_FW_N6/Middlewares/ST/usbx/common/core/src/ux_device_class_dpump_entry.c **** /*    needs to be mounted.                                                */
  48:../STM32Cube_FW_N6/Middlewares/ST/usbx/common/core/src/ux_device_class_dpump_entry.c **** /*                                                                        */ 
  49:../STM32Cube_FW_N6/Middlewares/ST/usbx/common/core/src/ux_device_class_dpump_entry.c **** /*  INPUT                                                                 */ 
  50:../STM32Cube_FW_N6/Middlewares/ST/usbx/common/core/src/ux_device_class_dpump_entry.c **** /*                                                                        */ 
  51:../STM32Cube_FW_N6/Middlewares/ST/usbx/common/core/src/ux_device_class_dpump_entry.c **** /*    command                               Pointer to class command      */ 
  52:../STM32Cube_FW_N6/Middlewares/ST/usbx/common/core/src/ux_device_class_dpump_entry.c **** /*                                                                        */ 
  53:../STM32Cube_FW_N6/Middlewares/ST/usbx/common/core/src/ux_device_class_dpump_entry.c **** /*  OUTPUT                                                                */ 
  54:../STM32Cube_FW_N6/Middlewares/ST/usbx/common/core/src/ux_device_class_dpump_entry.c **** /*                                                                        */ 
  55:../STM32Cube_FW_N6/Middlewares/ST/usbx/common/core/src/ux_device_class_dpump_entry.c **** /*    Completion Status                                                   */ 
  56:../STM32Cube_FW_N6/Middlewares/ST/usbx/common/core/src/ux_device_class_dpump_entry.c **** /*                                                                        */ 
  57:../STM32Cube_FW_N6/Middlewares/ST/usbx/common/core/src/ux_device_class_dpump_entry.c **** /*  CALLS                                                                 */ 
  58:../STM32Cube_FW_N6/Middlewares/ST/usbx/common/core/src/ux_device_class_dpump_entry.c **** /*                                                                        */ 
  59:../STM32Cube_FW_N6/Middlewares/ST/usbx/common/core/src/ux_device_class_dpump_entry.c **** /*    _ux_device_class_dpump_initialize      Initialize dpump class       */
  60:../STM32Cube_FW_N6/Middlewares/ST/usbx/common/core/src/ux_device_class_dpump_entry.c **** /*    _ux_device_class_dpump_activate        Activate dpump class         */ 
  61:../STM32Cube_FW_N6/Middlewares/ST/usbx/common/core/src/ux_device_class_dpump_entry.c **** /*    _ux_device_class_dpump_deactivate      Deactivate dpump class       */ 
  62:../STM32Cube_FW_N6/Middlewares/ST/usbx/common/core/src/ux_device_class_dpump_entry.c **** /*    _ux_device_class_dpump_change          Alternate setting change     */
  63:../STM32Cube_FW_N6/Middlewares/ST/usbx/common/core/src/ux_device_class_dpump_entry.c **** /*                                                                        */ 
  64:../STM32Cube_FW_N6/Middlewares/ST/usbx/common/core/src/ux_device_class_dpump_entry.c **** /*  CALLED BY                                                             */ 
  65:../STM32Cube_FW_N6/Middlewares/ST/usbx/common/core/src/ux_device_class_dpump_entry.c **** /*                                                                        */ 
  66:../STM32Cube_FW_N6/Middlewares/ST/usbx/common/core/src/ux_device_class_dpump_entry.c **** /*    Device Data Pump Class                                              */
  67:../STM32Cube_FW_N6/Middlewares/ST/usbx/common/core/src/ux_device_class_dpump_entry.c **** /*                                                                        */ 
  68:../STM32Cube_FW_N6/Middlewares/ST/usbx/common/core/src/ux_device_class_dpump_entry.c **** /*  RELEASE HISTORY                                                       */ 
  69:../STM32Cube_FW_N6/Middlewares/ST/usbx/common/core/src/ux_device_class_dpump_entry.c **** /*                                                                        */ 
  70:../STM32Cube_FW_N6/Middlewares/ST/usbx/common/core/src/ux_device_class_dpump_entry.c **** /*    DATE              NAME                      DESCRIPTION             */ 
  71:../STM32Cube_FW_N6/Middlewares/ST/usbx/common/core/src/ux_device_class_dpump_entry.c **** /*                                                                        */ 
  72:../STM32Cube_FW_N6/Middlewares/ST/usbx/common/core/src/ux_device_class_dpump_entry.c **** /*  05-19-2020     Chaoqiong Xiao           Initial Version 6.0           */
  73:../STM32Cube_FW_N6/Middlewares/ST/usbx/common/core/src/ux_device_class_dpump_entry.c **** /*  09-30-2020     Chaoqiong Xiao           Modified comment(s),          */
  74:../STM32Cube_FW_N6/Middlewares/ST/usbx/common/core/src/ux_device_class_dpump_entry.c **** /*                                            resulting in version 6.1    */
  75:../STM32Cube_FW_N6/Middlewares/ST/usbx/common/core/src/ux_device_class_dpump_entry.c **** /*                                                                        */
  76:../STM32Cube_FW_N6/Middlewares/ST/usbx/common/core/src/ux_device_class_dpump_entry.c **** /**************************************************************************/
  77:../STM32Cube_FW_N6/Middlewares/ST/usbx/common/core/src/ux_device_class_dpump_entry.c **** UINT  _ux_device_class_dpump_entry(UX_SLAVE_CLASS_COMMAND *command)
  78:../STM32Cube_FW_N6/Middlewares/ST/usbx/common/core/src/ux_device_class_dpump_entry.c **** {
  35              		.loc 1 78 1 view -0
  36              		.cfi_startproc
  37              		@ args = 0, pretend = 0, frame = 0
ARM GAS  /tmp/ccScuu5u.s 			page 3


  38              		@ frame_needed = 0, uses_anonymous_args = 0
  79:../STM32Cube_FW_N6/Middlewares/ST/usbx/common/core/src/ux_device_class_dpump_entry.c **** 
  80:../STM32Cube_FW_N6/Middlewares/ST/usbx/common/core/src/ux_device_class_dpump_entry.c **** UINT        status;
  39              		.loc 1 80 1 view .LVU1
  81:../STM32Cube_FW_N6/Middlewares/ST/usbx/common/core/src/ux_device_class_dpump_entry.c **** 
  82:../STM32Cube_FW_N6/Middlewares/ST/usbx/common/core/src/ux_device_class_dpump_entry.c **** 
  83:../STM32Cube_FW_N6/Middlewares/ST/usbx/common/core/src/ux_device_class_dpump_entry.c ****     /* The command request will tell us we need to do here, either a enumeration
  84:../STM32Cube_FW_N6/Middlewares/ST/usbx/common/core/src/ux_device_class_dpump_entry.c ****        query, an activation or a deactivation.  */
  85:../STM32Cube_FW_N6/Middlewares/ST/usbx/common/core/src/ux_device_class_dpump_entry.c ****     switch (command -> ux_slave_class_command_request)
  40              		.loc 1 85 5 view .LVU2
  78:../STM32Cube_FW_N6/Middlewares/ST/usbx/common/core/src/ux_device_class_dpump_entry.c **** 
  41              		.loc 1 78 1 is_stmt 0 view .LVU3
  42 0000 08B5     		push	{r3, lr}
  43              		.cfi_def_cfa_offset 8
  44              		.cfi_offset 3, -8
  45              		.cfi_offset 14, -4
  46              		.loc 1 85 5 view .LVU4
  47 0002 0368     		ldr	r3, [r0]
  48 0004 013B     		subs	r3, r3, #1
  49 0006 052B     		cmp	r3, #5
  50 0008 1AD8     		bhi	.L2
  51 000a DFE803F0 		tbb	[pc, r3]
  52              	.L4:
  53 000e 07       		.byte	(.L9-.L4)/2
  54 000f 0D       		.byte	(.L8-.L4)/2
  55 0010 15       		.byte	(.L7-.L4)/2
  56 0011 20       		.byte	(.L10-.L4)/2
  57 0012 03       		.byte	(.L5-.L4)/2
  58 0013 11       		.byte	(.L3-.L4)/2
  59              		.p2align 1
  60              	.L5:
  86:../STM32Cube_FW_N6/Middlewares/ST/usbx/common/core/src/ux_device_class_dpump_entry.c ****     {
  87:../STM32Cube_FW_N6/Middlewares/ST/usbx/common/core/src/ux_device_class_dpump_entry.c **** 
  88:../STM32Cube_FW_N6/Middlewares/ST/usbx/common/core/src/ux_device_class_dpump_entry.c ****     case UX_SLAVE_CLASS_COMMAND_INITIALIZE:
  89:../STM32Cube_FW_N6/Middlewares/ST/usbx/common/core/src/ux_device_class_dpump_entry.c **** 
  90:../STM32Cube_FW_N6/Middlewares/ST/usbx/common/core/src/ux_device_class_dpump_entry.c ****         /* Call the init function of the DPUMP class.  */
  91:../STM32Cube_FW_N6/Middlewares/ST/usbx/common/core/src/ux_device_class_dpump_entry.c ****         status =  _ux_device_class_dpump_initialize(command);
  61              		.loc 1 91 9 is_stmt 1 view .LVU5
  92:../STM32Cube_FW_N6/Middlewares/ST/usbx/common/core/src/ux_device_class_dpump_entry.c ****         
  93:../STM32Cube_FW_N6/Middlewares/ST/usbx/common/core/src/ux_device_class_dpump_entry.c ****         /* Return the completion status.  */
  94:../STM32Cube_FW_N6/Middlewares/ST/usbx/common/core/src/ux_device_class_dpump_entry.c ****         return(status);
  95:../STM32Cube_FW_N6/Middlewares/ST/usbx/common/core/src/ux_device_class_dpump_entry.c **** 
  96:../STM32Cube_FW_N6/Middlewares/ST/usbx/common/core/src/ux_device_class_dpump_entry.c ****     case UX_SLAVE_CLASS_COMMAND_QUERY:
  97:../STM32Cube_FW_N6/Middlewares/ST/usbx/common/core/src/ux_device_class_dpump_entry.c **** 
  98:../STM32Cube_FW_N6/Middlewares/ST/usbx/common/core/src/ux_device_class_dpump_entry.c ****         /* Check the CLASS definition in the interface descriptor. */
  99:../STM32Cube_FW_N6/Middlewares/ST/usbx/common/core/src/ux_device_class_dpump_entry.c ****         if (command -> ux_slave_class_command_class == UX_SLAVE_CLASS_DPUMP_CLASS)
 100:../STM32Cube_FW_N6/Middlewares/ST/usbx/common/core/src/ux_device_class_dpump_entry.c ****             return(UX_SUCCESS);
 101:../STM32Cube_FW_N6/Middlewares/ST/usbx/common/core/src/ux_device_class_dpump_entry.c ****         else
 102:../STM32Cube_FW_N6/Middlewares/ST/usbx/common/core/src/ux_device_class_dpump_entry.c ****             return(UX_NO_CLASS_MATCH);
 103:../STM32Cube_FW_N6/Middlewares/ST/usbx/common/core/src/ux_device_class_dpump_entry.c **** 
 104:../STM32Cube_FW_N6/Middlewares/ST/usbx/common/core/src/ux_device_class_dpump_entry.c ****     case UX_SLAVE_CLASS_COMMAND_ACTIVATE:
 105:../STM32Cube_FW_N6/Middlewares/ST/usbx/common/core/src/ux_device_class_dpump_entry.c **** 
 106:../STM32Cube_FW_N6/Middlewares/ST/usbx/common/core/src/ux_device_class_dpump_entry.c ****         /* The activate command is used when the host has sent a SET_CONFIGURATION command
 107:../STM32Cube_FW_N6/Middlewares/ST/usbx/common/core/src/ux_device_class_dpump_entry.c ****            and this interface has to be mounted. Both Bulk endpoints have to be mounted
 108:../STM32Cube_FW_N6/Middlewares/ST/usbx/common/core/src/ux_device_class_dpump_entry.c ****            and the dpump thread needs to be activated.  */
 109:../STM32Cube_FW_N6/Middlewares/ST/usbx/common/core/src/ux_device_class_dpump_entry.c ****         status =  _ux_device_class_dpump_activate(command);
 110:../STM32Cube_FW_N6/Middlewares/ST/usbx/common/core/src/ux_device_class_dpump_entry.c **** 
ARM GAS  /tmp/ccScuu5u.s 			page 4


 111:../STM32Cube_FW_N6/Middlewares/ST/usbx/common/core/src/ux_device_class_dpump_entry.c ****         /* Return the completion status.  */
 112:../STM32Cube_FW_N6/Middlewares/ST/usbx/common/core/src/ux_device_class_dpump_entry.c ****         return(status);
 113:../STM32Cube_FW_N6/Middlewares/ST/usbx/common/core/src/ux_device_class_dpump_entry.c **** 
 114:../STM32Cube_FW_N6/Middlewares/ST/usbx/common/core/src/ux_device_class_dpump_entry.c ****     case UX_SLAVE_CLASS_COMMAND_CHANGE:
 115:../STM32Cube_FW_N6/Middlewares/ST/usbx/common/core/src/ux_device_class_dpump_entry.c **** 
 116:../STM32Cube_FW_N6/Middlewares/ST/usbx/common/core/src/ux_device_class_dpump_entry.c ****         /* The change command is used when the host has sent a SET_INTERFACE command
 117:../STM32Cube_FW_N6/Middlewares/ST/usbx/common/core/src/ux_device_class_dpump_entry.c ****            to go from Alternate Setting 0 to 1 or revert to the default mode.  */
 118:../STM32Cube_FW_N6/Middlewares/ST/usbx/common/core/src/ux_device_class_dpump_entry.c ****         status =  _ux_device_class_dpump_change(command);
 119:../STM32Cube_FW_N6/Middlewares/ST/usbx/common/core/src/ux_device_class_dpump_entry.c **** 
 120:../STM32Cube_FW_N6/Middlewares/ST/usbx/common/core/src/ux_device_class_dpump_entry.c ****         /* Return the completion status.  */
 121:../STM32Cube_FW_N6/Middlewares/ST/usbx/common/core/src/ux_device_class_dpump_entry.c ****         return(status);
 122:../STM32Cube_FW_N6/Middlewares/ST/usbx/common/core/src/ux_device_class_dpump_entry.c ****         
 123:../STM32Cube_FW_N6/Middlewares/ST/usbx/common/core/src/ux_device_class_dpump_entry.c ****     case UX_SLAVE_CLASS_COMMAND_DEACTIVATE:
 124:../STM32Cube_FW_N6/Middlewares/ST/usbx/common/core/src/ux_device_class_dpump_entry.c **** 
 125:../STM32Cube_FW_N6/Middlewares/ST/usbx/common/core/src/ux_device_class_dpump_entry.c ****         /* The deactivate command is used when the device has been extracted.
 126:../STM32Cube_FW_N6/Middlewares/ST/usbx/common/core/src/ux_device_class_dpump_entry.c ****            The device endpoints have to be dismounted and the dpump thread canceled.  */
 127:../STM32Cube_FW_N6/Middlewares/ST/usbx/common/core/src/ux_device_class_dpump_entry.c ****         status =  _ux_device_class_dpump_deactivate(command);
 128:../STM32Cube_FW_N6/Middlewares/ST/usbx/common/core/src/ux_device_class_dpump_entry.c ****         
 129:../STM32Cube_FW_N6/Middlewares/ST/usbx/common/core/src/ux_device_class_dpump_entry.c ****         /* Return the completion status.  */
 130:../STM32Cube_FW_N6/Middlewares/ST/usbx/common/core/src/ux_device_class_dpump_entry.c ****         return(status);
 131:../STM32Cube_FW_N6/Middlewares/ST/usbx/common/core/src/ux_device_class_dpump_entry.c **** 
 132:../STM32Cube_FW_N6/Middlewares/ST/usbx/common/core/src/ux_device_class_dpump_entry.c ****     case UX_SLAVE_CLASS_COMMAND_REQUEST:
 133:../STM32Cube_FW_N6/Middlewares/ST/usbx/common/core/src/ux_device_class_dpump_entry.c **** 
 134:../STM32Cube_FW_N6/Middlewares/ST/usbx/common/core/src/ux_device_class_dpump_entry.c ****         /* Return the completion status.  */
 135:../STM32Cube_FW_N6/Middlewares/ST/usbx/common/core/src/ux_device_class_dpump_entry.c ****         return(UX_SUCCESS);
 136:../STM32Cube_FW_N6/Middlewares/ST/usbx/common/core/src/ux_device_class_dpump_entry.c **** 
 137:../STM32Cube_FW_N6/Middlewares/ST/usbx/common/core/src/ux_device_class_dpump_entry.c ****     default: 
 138:../STM32Cube_FW_N6/Middlewares/ST/usbx/common/core/src/ux_device_class_dpump_entry.c **** 
 139:../STM32Cube_FW_N6/Middlewares/ST/usbx/common/core/src/ux_device_class_dpump_entry.c ****         /* Error trap. */
 140:../STM32Cube_FW_N6/Middlewares/ST/usbx/common/core/src/ux_device_class_dpump_entry.c ****         _ux_system_error_handler(UX_SYSTEM_LEVEL_THREAD, UX_SYSTEM_CONTEXT_CLASS, UX_FUNCTION_NOT_S
 141:../STM32Cube_FW_N6/Middlewares/ST/usbx/common/core/src/ux_device_class_dpump_entry.c **** 
 142:../STM32Cube_FW_N6/Middlewares/ST/usbx/common/core/src/ux_device_class_dpump_entry.c ****         /* If trace is enabled, insert this event into the trace buffer.  */
 143:../STM32Cube_FW_N6/Middlewares/ST/usbx/common/core/src/ux_device_class_dpump_entry.c ****         UX_TRACE_IN_LINE_INSERT(UX_TRACE_ERROR, UX_FUNCTION_NOT_SUPPORTED, 0, 0, 0, UX_TRACE_ERRORS
 144:../STM32Cube_FW_N6/Middlewares/ST/usbx/common/core/src/ux_device_class_dpump_entry.c **** 
 145:../STM32Cube_FW_N6/Middlewares/ST/usbx/common/core/src/ux_device_class_dpump_entry.c ****         /* Return an error.  */
 146:../STM32Cube_FW_N6/Middlewares/ST/usbx/common/core/src/ux_device_class_dpump_entry.c ****         return(UX_FUNCTION_NOT_SUPPORTED);
 147:../STM32Cube_FW_N6/Middlewares/ST/usbx/common/core/src/ux_device_class_dpump_entry.c ****     }   
 148:../STM32Cube_FW_N6/Middlewares/ST/usbx/common/core/src/ux_device_class_dpump_entry.c **** }
  62              		.loc 1 148 1 is_stmt 0 view .LVU6
  63 0014 BDE80840 		pop	{r3, lr}
  64              		.cfi_remember_state
  65              		.cfi_restore 14
  66              		.cfi_restore 3
  67              		.cfi_def_cfa_offset 0
  91:../STM32Cube_FW_N6/Middlewares/ST/usbx/common/core/src/ux_device_class_dpump_entry.c ****         
  68              		.loc 1 91 19 view .LVU7
  69 0018 FFF7FEBF 		b	_ux_device_class_dpump_initialize
  70              	.LVL1:
  71              	.L9:
  72              		.cfi_restore_state
  99:../STM32Cube_FW_N6/Middlewares/ST/usbx/common/core/src/ux_device_class_dpump_entry.c ****             return(UX_SUCCESS);
  73              		.loc 1 99 9 is_stmt 1 view .LVU8
  99:../STM32Cube_FW_N6/Middlewares/ST/usbx/common/core/src/ux_device_class_dpump_entry.c ****             return(UX_SUCCESS);
  74              		.loc 1 99 12 is_stmt 0 view .LVU9
  75 001c 4369     		ldr	r3, [r0, #20]
 102:../STM32Cube_FW_N6/Middlewares/ST/usbx/common/core/src/ux_device_class_dpump_entry.c **** 
  76              		.loc 1 102 19 view .LVU10
ARM GAS  /tmp/ccScuu5u.s 			page 5


  77 001e 992B     		cmp	r3, #153
  78 0020 0CBF     		ite	eq
  79 0022 0020     		moveq	r0, #0
  80              	.LVL2:
 102:../STM32Cube_FW_N6/Middlewares/ST/usbx/common/core/src/ux_device_class_dpump_entry.c **** 
  81              		.loc 1 102 19 view .LVU11
  82 0024 5720     		movne	r0, #87
  83              	.L1:
  84              		.loc 1 148 1 view .LVU12
  85 0026 08BD     		pop	{r3, pc}
  86              	.LVL3:
  87              	.L8:
 109:../STM32Cube_FW_N6/Middlewares/ST/usbx/common/core/src/ux_device_class_dpump_entry.c **** 
  88              		.loc 1 109 9 is_stmt 1 view .LVU13
  89              		.loc 1 148 1 is_stmt 0 view .LVU14
  90 0028 BDE80840 		pop	{r3, lr}
  91              		.cfi_remember_state
  92              		.cfi_restore 14
  93              		.cfi_restore 3
  94              		.cfi_def_cfa_offset 0
 109:../STM32Cube_FW_N6/Middlewares/ST/usbx/common/core/src/ux_device_class_dpump_entry.c **** 
  95              		.loc 1 109 19 view .LVU15
  96 002c FFF7FEBF 		b	_ux_device_class_dpump_activate
  97              	.LVL4:
  98              	.L3:
  99              		.cfi_restore_state
 118:../STM32Cube_FW_N6/Middlewares/ST/usbx/common/core/src/ux_device_class_dpump_entry.c **** 
 100              		.loc 1 118 9 is_stmt 1 view .LVU16
 101              		.loc 1 148 1 is_stmt 0 view .LVU17
 102 0030 BDE80840 		pop	{r3, lr}
 103              		.cfi_remember_state
 104              		.cfi_restore 14
 105              		.cfi_restore 3
 106              		.cfi_def_cfa_offset 0
 118:../STM32Cube_FW_N6/Middlewares/ST/usbx/common/core/src/ux_device_class_dpump_entry.c **** 
 107              		.loc 1 118 19 view .LVU18
 108 0034 FFF7FEBF 		b	_ux_device_class_dpump_change
 109              	.LVL5:
 110              	.L7:
 111              		.cfi_restore_state
 127:../STM32Cube_FW_N6/Middlewares/ST/usbx/common/core/src/ux_device_class_dpump_entry.c ****         
 112              		.loc 1 127 9 is_stmt 1 view .LVU19
 113              		.loc 1 148 1 is_stmt 0 view .LVU20
 114 0038 BDE80840 		pop	{r3, lr}
 115              		.cfi_remember_state
 116              		.cfi_restore 14
 117              		.cfi_restore 3
 118              		.cfi_def_cfa_offset 0
 127:../STM32Cube_FW_N6/Middlewares/ST/usbx/common/core/src/ux_device_class_dpump_entry.c ****         
 119              		.loc 1 127 19 view .LVU21
 120 003c FFF7FEBF 		b	_ux_device_class_dpump_deactivate
 121              	.LVL6:
 122              	.L2:
 123              		.cfi_restore_state
 140:../STM32Cube_FW_N6/Middlewares/ST/usbx/common/core/src/ux_device_class_dpump_entry.c **** 
 124              		.loc 1 140 9 is_stmt 1 view .LVU22
 125 0040 0220     		movs	r0, #2
ARM GAS  /tmp/ccScuu5u.s 			page 6


 126              	.LVL7:
 140:../STM32Cube_FW_N6/Middlewares/ST/usbx/common/core/src/ux_device_class_dpump_entry.c **** 
 127              		.loc 1 140 9 is_stmt 0 view .LVU23
 128 0042 5422     		movs	r2, #84
 129 0044 0721     		movs	r1, #7
 130 0046 FFF7FEFF 		bl	_ux_system_error_handler
 131              	.LVL8:
 146:../STM32Cube_FW_N6/Middlewares/ST/usbx/common/core/src/ux_device_class_dpump_entry.c ****     }   
 132              		.loc 1 146 9 is_stmt 1 view .LVU24
 146:../STM32Cube_FW_N6/Middlewares/ST/usbx/common/core/src/ux_device_class_dpump_entry.c ****     }   
 133              		.loc 1 146 15 is_stmt 0 view .LVU25
 134 004a 5420     		movs	r0, #84
 135 004c EBE7     		b	.L1
 136              	.LVL9:
 137              	.L10:
  85:../STM32Cube_FW_N6/Middlewares/ST/usbx/common/core/src/ux_device_class_dpump_entry.c ****     {
 138              		.loc 1 85 5 view .LVU26
 139 004e 0020     		movs	r0, #0
 140              	.LVL10:
  85:../STM32Cube_FW_N6/Middlewares/ST/usbx/common/core/src/ux_device_class_dpump_entry.c ****     {
 141              		.loc 1 85 5 view .LVU27
 142 0050 E9E7     		b	.L1
 143              		.cfi_endproc
 144              	.LFE3:
 146              		.text
 147              	.Letext0:
 148              		.file 2 "../STM32Cube_FW_N6/Middlewares/ST/usbx/ports/generic/inc/ux_port.h"
 149              		.file 3 "../STM32Cube_FW_N6/Middlewares/ST/usbx/common/core/inc/ux_api.h"
 150              		.file 4 "../STM32Cube_FW_N6/Middlewares/ST/usbx/common/core/inc/ux_device_class_dpump.h"
 151              		.file 5 "../STM32Cube_FW_N6/Middlewares/ST/usbx/common/core/inc/ux_utility.h"
ARM GAS  /tmp/ccScuu5u.s 			page 7

