ARM GAS  /tmp/ccs8Hi07.s 			page 1


   1              		.arch armv8.1-m.main
   2              		.fpu fpv5-d16
   3              		.arch_extension dsp
   4              		.arch_extension fp
   5              		.arch_extension fp.dp
   6              		.arch_extension mve
   7              		.arch_extension mve.fp
   8              		.eabi_attribute 5, "cortex-m55"
   9              		.eabi_attribute 28, 1
  10              		.eabi_attribute 20, 1
  11              		.eabi_attribute 21, 1
  12              		.eabi_attribute 23, 3
  13              		.eabi_attribute 24, 1
  14              		.eabi_attribute 25, 1
  15              		.eabi_attribute 26, 1
  16              		.eabi_attribute 30, 4
  17              		.eabi_attribute 34, 1
  18              		.eabi_attribute 38, 1
  19              		.eabi_attribute 18, 4
  20              		.file	"ux_device_stack_clear_feature.c"
  21              		.text
  22              	.Ltext0:
  23              		.cfi_sections	.debug_frame
  24              		.file 1 "../STM32Cube_FW_N6/Middlewares/ST/usbx/common/core/src/ux_device_stack_clear_feature.c"
  25              		.section	.text._ux_device_stack_clear_feature,"ax",%progbits
  26              		.align	1
  27              		.global	_ux_device_stack_clear_feature
  28              		.syntax unified
  29              		.thumb
  30              		.thumb_func
  32              	_ux_device_stack_clear_feature:
  33              	.LVL0:
  34              	.LFB3:
   1:../STM32Cube_FW_N6/Middlewares/ST/usbx/common/core/src/ux_device_stack_clear_feature.c **** /**************************************************************************/
   2:../STM32Cube_FW_N6/Middlewares/ST/usbx/common/core/src/ux_device_stack_clear_feature.c **** /*                                                                        */
   3:../STM32Cube_FW_N6/Middlewares/ST/usbx/common/core/src/ux_device_stack_clear_feature.c **** /*       Copyright (c) Microsoft Corporation. All rights reserved.        */
   4:../STM32Cube_FW_N6/Middlewares/ST/usbx/common/core/src/ux_device_stack_clear_feature.c **** /*                                                                        */
   5:../STM32Cube_FW_N6/Middlewares/ST/usbx/common/core/src/ux_device_stack_clear_feature.c **** /*       This software is licensed under the Microsoft Software License   */
   6:../STM32Cube_FW_N6/Middlewares/ST/usbx/common/core/src/ux_device_stack_clear_feature.c **** /*       Terms for Microsoft Azure RTOS. Full text of the license can be  */
   7:../STM32Cube_FW_N6/Middlewares/ST/usbx/common/core/src/ux_device_stack_clear_feature.c **** /*       found in the LICENSE file at https://aka.ms/AzureRTOS_EULA       */
   8:../STM32Cube_FW_N6/Middlewares/ST/usbx/common/core/src/ux_device_stack_clear_feature.c **** /*       and in the root directory of this software.                      */
   9:../STM32Cube_FW_N6/Middlewares/ST/usbx/common/core/src/ux_device_stack_clear_feature.c **** /*                                                                        */
  10:../STM32Cube_FW_N6/Middlewares/ST/usbx/common/core/src/ux_device_stack_clear_feature.c **** /**************************************************************************/
  11:../STM32Cube_FW_N6/Middlewares/ST/usbx/common/core/src/ux_device_stack_clear_feature.c **** 
  12:../STM32Cube_FW_N6/Middlewares/ST/usbx/common/core/src/ux_device_stack_clear_feature.c **** 
  13:../STM32Cube_FW_N6/Middlewares/ST/usbx/common/core/src/ux_device_stack_clear_feature.c **** /**************************************************************************/
  14:../STM32Cube_FW_N6/Middlewares/ST/usbx/common/core/src/ux_device_stack_clear_feature.c **** /**************************************************************************/
  15:../STM32Cube_FW_N6/Middlewares/ST/usbx/common/core/src/ux_device_stack_clear_feature.c **** /**                                                                       */ 
  16:../STM32Cube_FW_N6/Middlewares/ST/usbx/common/core/src/ux_device_stack_clear_feature.c **** /** USBX Component                                                        */ 
  17:../STM32Cube_FW_N6/Middlewares/ST/usbx/common/core/src/ux_device_stack_clear_feature.c **** /**                                                                       */
  18:../STM32Cube_FW_N6/Middlewares/ST/usbx/common/core/src/ux_device_stack_clear_feature.c **** /**   Device Stack                                                        */
  19:../STM32Cube_FW_N6/Middlewares/ST/usbx/common/core/src/ux_device_stack_clear_feature.c **** /**                                                                       */
  20:../STM32Cube_FW_N6/Middlewares/ST/usbx/common/core/src/ux_device_stack_clear_feature.c **** /**************************************************************************/
  21:../STM32Cube_FW_N6/Middlewares/ST/usbx/common/core/src/ux_device_stack_clear_feature.c **** /**************************************************************************/
  22:../STM32Cube_FW_N6/Middlewares/ST/usbx/common/core/src/ux_device_stack_clear_feature.c **** 
  23:../STM32Cube_FW_N6/Middlewares/ST/usbx/common/core/src/ux_device_stack_clear_feature.c **** #define UX_SOURCE_CODE
  24:../STM32Cube_FW_N6/Middlewares/ST/usbx/common/core/src/ux_device_stack_clear_feature.c **** 
ARM GAS  /tmp/ccs8Hi07.s 			page 2


  25:../STM32Cube_FW_N6/Middlewares/ST/usbx/common/core/src/ux_device_stack_clear_feature.c **** 
  26:../STM32Cube_FW_N6/Middlewares/ST/usbx/common/core/src/ux_device_stack_clear_feature.c **** /* Include necessary system files.  */
  27:../STM32Cube_FW_N6/Middlewares/ST/usbx/common/core/src/ux_device_stack_clear_feature.c **** 
  28:../STM32Cube_FW_N6/Middlewares/ST/usbx/common/core/src/ux_device_stack_clear_feature.c **** #include "ux_api.h"
  29:../STM32Cube_FW_N6/Middlewares/ST/usbx/common/core/src/ux_device_stack_clear_feature.c **** #include "ux_device_stack.h"
  30:../STM32Cube_FW_N6/Middlewares/ST/usbx/common/core/src/ux_device_stack_clear_feature.c **** 
  31:../STM32Cube_FW_N6/Middlewares/ST/usbx/common/core/src/ux_device_stack_clear_feature.c **** 
  32:../STM32Cube_FW_N6/Middlewares/ST/usbx/common/core/src/ux_device_stack_clear_feature.c **** /**************************************************************************/
  33:../STM32Cube_FW_N6/Middlewares/ST/usbx/common/core/src/ux_device_stack_clear_feature.c **** /*                                                                        */
  34:../STM32Cube_FW_N6/Middlewares/ST/usbx/common/core/src/ux_device_stack_clear_feature.c **** /*  FUNCTION                                               RELEASE        */
  35:../STM32Cube_FW_N6/Middlewares/ST/usbx/common/core/src/ux_device_stack_clear_feature.c **** /*                                                                        */
  36:../STM32Cube_FW_N6/Middlewares/ST/usbx/common/core/src/ux_device_stack_clear_feature.c **** /*    _ux_device_stack_clear_feature                      PORTABLE C      */
  37:../STM32Cube_FW_N6/Middlewares/ST/usbx/common/core/src/ux_device_stack_clear_feature.c **** /*                                                           6.1.12       */
  38:../STM32Cube_FW_N6/Middlewares/ST/usbx/common/core/src/ux_device_stack_clear_feature.c **** /*  AUTHOR                                                                */
  39:../STM32Cube_FW_N6/Middlewares/ST/usbx/common/core/src/ux_device_stack_clear_feature.c **** /*                                                                        */
  40:../STM32Cube_FW_N6/Middlewares/ST/usbx/common/core/src/ux_device_stack_clear_feature.c **** /*    Chaoqiong Xiao, Microsoft Corporation                               */
  41:../STM32Cube_FW_N6/Middlewares/ST/usbx/common/core/src/ux_device_stack_clear_feature.c **** /*                                                                        */
  42:../STM32Cube_FW_N6/Middlewares/ST/usbx/common/core/src/ux_device_stack_clear_feature.c **** /*  DESCRIPTION                                                           */
  43:../STM32Cube_FW_N6/Middlewares/ST/usbx/common/core/src/ux_device_stack_clear_feature.c **** /*                                                                        */
  44:../STM32Cube_FW_N6/Middlewares/ST/usbx/common/core/src/ux_device_stack_clear_feature.c **** /*    This function clears a specific feature (Device, Interface,         */
  45:../STM32Cube_FW_N6/Middlewares/ST/usbx/common/core/src/ux_device_stack_clear_feature.c **** /*    Endpoint ....).                                                     */
  46:../STM32Cube_FW_N6/Middlewares/ST/usbx/common/core/src/ux_device_stack_clear_feature.c **** /*                                                                        */
  47:../STM32Cube_FW_N6/Middlewares/ST/usbx/common/core/src/ux_device_stack_clear_feature.c **** /*  INPUT                                                                 */
  48:../STM32Cube_FW_N6/Middlewares/ST/usbx/common/core/src/ux_device_stack_clear_feature.c **** /*                                                                        */
  49:../STM32Cube_FW_N6/Middlewares/ST/usbx/common/core/src/ux_device_stack_clear_feature.c **** /*    request_type                          Request type                  */ 
  50:../STM32Cube_FW_N6/Middlewares/ST/usbx/common/core/src/ux_device_stack_clear_feature.c **** /*    request_value                         Request value                 */
  51:../STM32Cube_FW_N6/Middlewares/ST/usbx/common/core/src/ux_device_stack_clear_feature.c **** /*    request_index                         Request index                 */
  52:../STM32Cube_FW_N6/Middlewares/ST/usbx/common/core/src/ux_device_stack_clear_feature.c **** /*                                                                        */
  53:../STM32Cube_FW_N6/Middlewares/ST/usbx/common/core/src/ux_device_stack_clear_feature.c **** /*  OUTPUT                                                                */
  54:../STM32Cube_FW_N6/Middlewares/ST/usbx/common/core/src/ux_device_stack_clear_feature.c **** /*                                                                        */
  55:../STM32Cube_FW_N6/Middlewares/ST/usbx/common/core/src/ux_device_stack_clear_feature.c **** /*    Completion Status                                                   */ 
  56:../STM32Cube_FW_N6/Middlewares/ST/usbx/common/core/src/ux_device_stack_clear_feature.c **** /*                                                                        */
  57:../STM32Cube_FW_N6/Middlewares/ST/usbx/common/core/src/ux_device_stack_clear_feature.c **** /*  CALLS                                                                 */ 
  58:../STM32Cube_FW_N6/Middlewares/ST/usbx/common/core/src/ux_device_stack_clear_feature.c **** /*                                                                        */ 
  59:../STM32Cube_FW_N6/Middlewares/ST/usbx/common/core/src/ux_device_stack_clear_feature.c **** /*    (ux_slave_dcd_function)               DCD dispatch function         */ 
  60:../STM32Cube_FW_N6/Middlewares/ST/usbx/common/core/src/ux_device_stack_clear_feature.c **** /*                                                                        */ 
  61:../STM32Cube_FW_N6/Middlewares/ST/usbx/common/core/src/ux_device_stack_clear_feature.c **** /*  CALLED BY                                                             */ 
  62:../STM32Cube_FW_N6/Middlewares/ST/usbx/common/core/src/ux_device_stack_clear_feature.c **** /*                                                                        */ 
  63:../STM32Cube_FW_N6/Middlewares/ST/usbx/common/core/src/ux_device_stack_clear_feature.c **** /*    Device Stack                                                        */
  64:../STM32Cube_FW_N6/Middlewares/ST/usbx/common/core/src/ux_device_stack_clear_feature.c **** /*                                                                        */ 
  65:../STM32Cube_FW_N6/Middlewares/ST/usbx/common/core/src/ux_device_stack_clear_feature.c **** /*  RELEASE HISTORY                                                       */ 
  66:../STM32Cube_FW_N6/Middlewares/ST/usbx/common/core/src/ux_device_stack_clear_feature.c **** /*                                                                        */ 
  67:../STM32Cube_FW_N6/Middlewares/ST/usbx/common/core/src/ux_device_stack_clear_feature.c **** /*    DATE              NAME                      DESCRIPTION             */ 
  68:../STM32Cube_FW_N6/Middlewares/ST/usbx/common/core/src/ux_device_stack_clear_feature.c **** /*                                                                        */ 
  69:../STM32Cube_FW_N6/Middlewares/ST/usbx/common/core/src/ux_device_stack_clear_feature.c **** /*  05-19-2020     Chaoqiong Xiao           Initial Version 6.0           */
  70:../STM32Cube_FW_N6/Middlewares/ST/usbx/common/core/src/ux_device_stack_clear_feature.c **** /*  09-30-2020     Chaoqiong Xiao           Modified comment(s),          */
  71:../STM32Cube_FW_N6/Middlewares/ST/usbx/common/core/src/ux_device_stack_clear_feature.c **** /*                                            optimized based on compile  */
  72:../STM32Cube_FW_N6/Middlewares/ST/usbx/common/core/src/ux_device_stack_clear_feature.c **** /*                                            definitions,                */
  73:../STM32Cube_FW_N6/Middlewares/ST/usbx/common/core/src/ux_device_stack_clear_feature.c **** /*                                            resulting in version 6.1    */
  74:../STM32Cube_FW_N6/Middlewares/ST/usbx/common/core/src/ux_device_stack_clear_feature.c **** /*  07-29-2022     Chaoqiong Xiao           Modified comment(s),          */
  75:../STM32Cube_FW_N6/Middlewares/ST/usbx/common/core/src/ux_device_stack_clear_feature.c **** /*                                            fixed parameter/variable    */
  76:../STM32Cube_FW_N6/Middlewares/ST/usbx/common/core/src/ux_device_stack_clear_feature.c **** /*                                            names conflict C++ keyword, */
  77:../STM32Cube_FW_N6/Middlewares/ST/usbx/common/core/src/ux_device_stack_clear_feature.c **** /*                                            resulting in version 6.1.12 */
  78:../STM32Cube_FW_N6/Middlewares/ST/usbx/common/core/src/ux_device_stack_clear_feature.c **** /*                                                                        */
  79:../STM32Cube_FW_N6/Middlewares/ST/usbx/common/core/src/ux_device_stack_clear_feature.c **** /**************************************************************************/
  80:../STM32Cube_FW_N6/Middlewares/ST/usbx/common/core/src/ux_device_stack_clear_feature.c **** UINT  _ux_device_stack_clear_feature(ULONG request_type, ULONG request_value, ULONG request_index)
  81:../STM32Cube_FW_N6/Middlewares/ST/usbx/common/core/src/ux_device_stack_clear_feature.c **** {
ARM GAS  /tmp/ccs8Hi07.s 			page 3


  35              		.loc 1 81 1 view -0
  36              		.cfi_startproc
  37              		@ args = 0, pretend = 0, frame = 0
  38              		@ frame_needed = 0, uses_anonymous_args = 0
  82:../STM32Cube_FW_N6/Middlewares/ST/usbx/common/core/src/ux_device_stack_clear_feature.c **** 
  83:../STM32Cube_FW_N6/Middlewares/ST/usbx/common/core/src/ux_device_stack_clear_feature.c **** UX_SLAVE_DCD            *dcd;
  39              		.loc 1 83 1 view .LVU1
  84:../STM32Cube_FW_N6/Middlewares/ST/usbx/common/core/src/ux_device_stack_clear_feature.c **** UX_SLAVE_DEVICE         *device;
  40              		.loc 1 84 1 view .LVU2
  85:../STM32Cube_FW_N6/Middlewares/ST/usbx/common/core/src/ux_device_stack_clear_feature.c **** UX_SLAVE_INTERFACE      *interface_ptr;
  41              		.loc 1 85 1 view .LVU3
  86:../STM32Cube_FW_N6/Middlewares/ST/usbx/common/core/src/ux_device_stack_clear_feature.c **** UX_SLAVE_ENDPOINT       *endpoint;
  42              		.loc 1 86 1 view .LVU4
  87:../STM32Cube_FW_N6/Middlewares/ST/usbx/common/core/src/ux_device_stack_clear_feature.c **** UX_SLAVE_ENDPOINT       *endpoint_target;
  43              		.loc 1 87 1 view .LVU5
  88:../STM32Cube_FW_N6/Middlewares/ST/usbx/common/core/src/ux_device_stack_clear_feature.c ****                                 
  89:../STM32Cube_FW_N6/Middlewares/ST/usbx/common/core/src/ux_device_stack_clear_feature.c ****     UX_PARAMETER_NOT_USED(request_value);
  44              		.loc 1 89 5 view .LVU6
  90:../STM32Cube_FW_N6/Middlewares/ST/usbx/common/core/src/ux_device_stack_clear_feature.c **** 
  91:../STM32Cube_FW_N6/Middlewares/ST/usbx/common/core/src/ux_device_stack_clear_feature.c ****     /* If trace is enabled, insert this event into the trace buffer.  */
  92:../STM32Cube_FW_N6/Middlewares/ST/usbx/common/core/src/ux_device_stack_clear_feature.c ****     UX_TRACE_IN_LINE_INSERT(UX_TRACE_DEVICE_STACK_CLEAR_FEATURE, request_type, request_value, reque
  93:../STM32Cube_FW_N6/Middlewares/ST/usbx/common/core/src/ux_device_stack_clear_feature.c **** 
  94:../STM32Cube_FW_N6/Middlewares/ST/usbx/common/core/src/ux_device_stack_clear_feature.c ****     /* Get the pointer to the DCD.  */
  95:../STM32Cube_FW_N6/Middlewares/ST/usbx/common/core/src/ux_device_stack_clear_feature.c ****     dcd =  &_ux_system_slave -> ux_system_slave_dcd;
  45              		.loc 1 95 5 view .LVU7
  81:../STM32Cube_FW_N6/Middlewares/ST/usbx/common/core/src/ux_device_stack_clear_feature.c **** 
  46              		.loc 1 81 1 is_stmt 0 view .LVU8
  47 0000 0346     		mov	r3, r0
  48              		.loc 1 95 30 view .LVU9
  49 0002 1648     		ldr	r0, .L13
  50              	.LVL1:
  96:../STM32Cube_FW_N6/Middlewares/ST/usbx/common/core/src/ux_device_stack_clear_feature.c **** 
  97:../STM32Cube_FW_N6/Middlewares/ST/usbx/common/core/src/ux_device_stack_clear_feature.c ****     /* Get the pointer to the device.  */
  98:../STM32Cube_FW_N6/Middlewares/ST/usbx/common/core/src/ux_device_stack_clear_feature.c ****     device =  &_ux_system_slave -> ux_system_slave_device;
  99:../STM32Cube_FW_N6/Middlewares/ST/usbx/common/core/src/ux_device_stack_clear_feature.c **** 
 100:../STM32Cube_FW_N6/Middlewares/ST/usbx/common/core/src/ux_device_stack_clear_feature.c ****     /* Get the control endpoint for the device.  */
 101:../STM32Cube_FW_N6/Middlewares/ST/usbx/common/core/src/ux_device_stack_clear_feature.c ****     endpoint =  &device -> ux_slave_device_control_endpoint;
 102:../STM32Cube_FW_N6/Middlewares/ST/usbx/common/core/src/ux_device_stack_clear_feature.c **** 
 103:../STM32Cube_FW_N6/Middlewares/ST/usbx/common/core/src/ux_device_stack_clear_feature.c ****     /* The request can be for either the device or the endpoint.  */
 104:../STM32Cube_FW_N6/Middlewares/ST/usbx/common/core/src/ux_device_stack_clear_feature.c ****     switch (request_type & UX_REQUEST_TARGET)
  51              		.loc 1 104 5 view .LVU10
  52 0004 13F00303 		ands	r3, r3, #3
  53              	.LVL2:
  81:../STM32Cube_FW_N6/Middlewares/ST/usbx/common/core/src/ux_device_stack_clear_feature.c **** 
  54              		.loc 1 81 1 view .LVU11
  55 0008 10B5     		push	{r4, lr}
  56              		.cfi_def_cfa_offset 8
  57              		.cfi_offset 4, -8
  58              		.cfi_offset 14, -4
  95:../STM32Cube_FW_N6/Middlewares/ST/usbx/common/core/src/ux_device_stack_clear_feature.c **** 
  59              		.loc 1 95 30 view .LVU12
  60 000a 0068     		ldr	r0, [r0]
  61              	.LVL3:
  98:../STM32Cube_FW_N6/Middlewares/ST/usbx/common/core/src/ux_device_stack_clear_feature.c **** 
  62              		.loc 1 98 5 is_stmt 1 view .LVU13
 101:../STM32Cube_FW_N6/Middlewares/ST/usbx/common/core/src/ux_device_stack_clear_feature.c **** 
  63              		.loc 1 101 5 view .LVU14
ARM GAS  /tmp/ccs8Hi07.s 			page 4


  64              		.loc 1 104 5 view .LVU15
  65 000c 07D0     		beq	.L2
  66 000e 022B     		cmp	r3, #2
  67 0010 0ED0     		beq	.L3
  68              	.LVL4:
  69              	.L4:
 105:../STM32Cube_FW_N6/Middlewares/ST/usbx/common/core/src/ux_device_stack_clear_feature.c ****     {
 106:../STM32Cube_FW_N6/Middlewares/ST/usbx/common/core/src/ux_device_stack_clear_feature.c ****     
 107:../STM32Cube_FW_N6/Middlewares/ST/usbx/common/core/src/ux_device_stack_clear_feature.c ****     case UX_REQUEST_TARGET_DEVICE:
 108:../STM32Cube_FW_N6/Middlewares/ST/usbx/common/core/src/ux_device_stack_clear_feature.c **** 
 109:../STM32Cube_FW_N6/Middlewares/ST/usbx/common/core/src/ux_device_stack_clear_feature.c ****         /* Check if we have a DEVICE_REMOTE_WAKEUP Feature.  */
 110:../STM32Cube_FW_N6/Middlewares/ST/usbx/common/core/src/ux_device_stack_clear_feature.c ****         if (request_value == UX_REQUEST_FEATURE_DEVICE_REMOTE_WAKEUP)
 111:../STM32Cube_FW_N6/Middlewares/ST/usbx/common/core/src/ux_device_stack_clear_feature.c ****         {
 112:../STM32Cube_FW_N6/Middlewares/ST/usbx/common/core/src/ux_device_stack_clear_feature.c **** 
 113:../STM32Cube_FW_N6/Middlewares/ST/usbx/common/core/src/ux_device_stack_clear_feature.c ****             /* Check if we have the capability. */
 114:../STM32Cube_FW_N6/Middlewares/ST/usbx/common/core/src/ux_device_stack_clear_feature.c ****             if (_ux_system_slave -> ux_system_slave_remote_wakeup_capability)
 115:../STM32Cube_FW_N6/Middlewares/ST/usbx/common/core/src/ux_device_stack_clear_feature.c ****             {
 116:../STM32Cube_FW_N6/Middlewares/ST/usbx/common/core/src/ux_device_stack_clear_feature.c **** 
 117:../STM32Cube_FW_N6/Middlewares/ST/usbx/common/core/src/ux_device_stack_clear_feature.c ****                 /* Disable the feature. */
 118:../STM32Cube_FW_N6/Middlewares/ST/usbx/common/core/src/ux_device_stack_clear_feature.c ****                 _ux_system_slave -> ux_system_slave_remote_wakeup_enabled = UX_FALSE;
 119:../STM32Cube_FW_N6/Middlewares/ST/usbx/common/core/src/ux_device_stack_clear_feature.c ****             }
 120:../STM32Cube_FW_N6/Middlewares/ST/usbx/common/core/src/ux_device_stack_clear_feature.c **** 
 121:../STM32Cube_FW_N6/Middlewares/ST/usbx/common/core/src/ux_device_stack_clear_feature.c ****             else
 122:../STM32Cube_FW_N6/Middlewares/ST/usbx/common/core/src/ux_device_stack_clear_feature.c **** 
 123:../STM32Cube_FW_N6/Middlewares/ST/usbx/common/core/src/ux_device_stack_clear_feature.c ****                 /* Protocol error. */
 124:../STM32Cube_FW_N6/Middlewares/ST/usbx/common/core/src/ux_device_stack_clear_feature.c ****                 return (UX_FUNCTION_NOT_SUPPORTED);
 125:../STM32Cube_FW_N6/Middlewares/ST/usbx/common/core/src/ux_device_stack_clear_feature.c ****         }
 126:../STM32Cube_FW_N6/Middlewares/ST/usbx/common/core/src/ux_device_stack_clear_feature.c **** 
 127:../STM32Cube_FW_N6/Middlewares/ST/usbx/common/core/src/ux_device_stack_clear_feature.c ****         break;
 128:../STM32Cube_FW_N6/Middlewares/ST/usbx/common/core/src/ux_device_stack_clear_feature.c ****             
 129:../STM32Cube_FW_N6/Middlewares/ST/usbx/common/core/src/ux_device_stack_clear_feature.c ****     case UX_REQUEST_TARGET_ENDPOINT:
 130:../STM32Cube_FW_N6/Middlewares/ST/usbx/common/core/src/ux_device_stack_clear_feature.c **** 
 131:../STM32Cube_FW_N6/Middlewares/ST/usbx/common/core/src/ux_device_stack_clear_feature.c ****         /* The only clear feature for endpoint is ENDPOINT_STALL. This clears
 132:../STM32Cube_FW_N6/Middlewares/ST/usbx/common/core/src/ux_device_stack_clear_feature.c ****            the endpoint of the stall situation and resets its data toggle. 
 133:../STM32Cube_FW_N6/Middlewares/ST/usbx/common/core/src/ux_device_stack_clear_feature.c ****            We need to find the endpoint through the interface(s). */
 134:../STM32Cube_FW_N6/Middlewares/ST/usbx/common/core/src/ux_device_stack_clear_feature.c ****         interface_ptr =  device -> ux_slave_device_first_interface;
 135:../STM32Cube_FW_N6/Middlewares/ST/usbx/common/core/src/ux_device_stack_clear_feature.c **** 
 136:../STM32Cube_FW_N6/Middlewares/ST/usbx/common/core/src/ux_device_stack_clear_feature.c **** #if !defined(UX_DEVICE_INITIALIZE_FRAMEWORK_SCAN_DISABLE) || UX_MAX_DEVICE_INTERFACES > 1
 137:../STM32Cube_FW_N6/Middlewares/ST/usbx/common/core/src/ux_device_stack_clear_feature.c ****         while (interface_ptr != UX_NULL)
 138:../STM32Cube_FW_N6/Middlewares/ST/usbx/common/core/src/ux_device_stack_clear_feature.c ****         {
 139:../STM32Cube_FW_N6/Middlewares/ST/usbx/common/core/src/ux_device_stack_clear_feature.c **** #endif
 140:../STM32Cube_FW_N6/Middlewares/ST/usbx/common/core/src/ux_device_stack_clear_feature.c **** 
 141:../STM32Cube_FW_N6/Middlewares/ST/usbx/common/core/src/ux_device_stack_clear_feature.c ****             /* Get the first endpoint for this interface.  */
 142:../STM32Cube_FW_N6/Middlewares/ST/usbx/common/core/src/ux_device_stack_clear_feature.c ****             endpoint_target =  interface_ptr -> ux_slave_interface_first_endpoint;
 143:../STM32Cube_FW_N6/Middlewares/ST/usbx/common/core/src/ux_device_stack_clear_feature.c ****                 
 144:../STM32Cube_FW_N6/Middlewares/ST/usbx/common/core/src/ux_device_stack_clear_feature.c ****             /* Parse all the endpoints.  */
 145:../STM32Cube_FW_N6/Middlewares/ST/usbx/common/core/src/ux_device_stack_clear_feature.c ****             while (endpoint_target != UX_NULL)
 146:../STM32Cube_FW_N6/Middlewares/ST/usbx/common/core/src/ux_device_stack_clear_feature.c ****             {
 147:../STM32Cube_FW_N6/Middlewares/ST/usbx/common/core/src/ux_device_stack_clear_feature.c **** 
 148:../STM32Cube_FW_N6/Middlewares/ST/usbx/common/core/src/ux_device_stack_clear_feature.c ****                 /* Check the endpoint index.  */
 149:../STM32Cube_FW_N6/Middlewares/ST/usbx/common/core/src/ux_device_stack_clear_feature.c ****                 if (endpoint_target -> ux_slave_endpoint_descriptor.bEndpointAddress == request_ind
 150:../STM32Cube_FW_N6/Middlewares/ST/usbx/common/core/src/ux_device_stack_clear_feature.c ****                 {
 151:../STM32Cube_FW_N6/Middlewares/ST/usbx/common/core/src/ux_device_stack_clear_feature.c **** 
 152:../STM32Cube_FW_N6/Middlewares/ST/usbx/common/core/src/ux_device_stack_clear_feature.c ****                     /* Reset the endpoint.  */
 153:../STM32Cube_FW_N6/Middlewares/ST/usbx/common/core/src/ux_device_stack_clear_feature.c ****                     dcd -> ux_slave_dcd_function(dcd, UX_DCD_RESET_ENDPOINT, endpoint_target);
 154:../STM32Cube_FW_N6/Middlewares/ST/usbx/common/core/src/ux_device_stack_clear_feature.c ****                     
 155:../STM32Cube_FW_N6/Middlewares/ST/usbx/common/core/src/ux_device_stack_clear_feature.c ****                     /* Mark its state now.  */
ARM GAS  /tmp/ccs8Hi07.s 			page 5


 156:../STM32Cube_FW_N6/Middlewares/ST/usbx/common/core/src/ux_device_stack_clear_feature.c ****                     endpoint_target -> ux_slave_endpoint_state = UX_ENDPOINT_RESET;
 157:../STM32Cube_FW_N6/Middlewares/ST/usbx/common/core/src/ux_device_stack_clear_feature.c **** 
 158:../STM32Cube_FW_N6/Middlewares/ST/usbx/common/core/src/ux_device_stack_clear_feature.c ****                     /* Return the function status.  */
 159:../STM32Cube_FW_N6/Middlewares/ST/usbx/common/core/src/ux_device_stack_clear_feature.c ****                     return(UX_SUCCESS);
 160:../STM32Cube_FW_N6/Middlewares/ST/usbx/common/core/src/ux_device_stack_clear_feature.c ****                 }
 161:../STM32Cube_FW_N6/Middlewares/ST/usbx/common/core/src/ux_device_stack_clear_feature.c **** 
 162:../STM32Cube_FW_N6/Middlewares/ST/usbx/common/core/src/ux_device_stack_clear_feature.c ****                 /* Next endpoint.  */
 163:../STM32Cube_FW_N6/Middlewares/ST/usbx/common/core/src/ux_device_stack_clear_feature.c ****                 endpoint_target =  endpoint_target -> ux_slave_endpoint_next_endpoint;
 164:../STM32Cube_FW_N6/Middlewares/ST/usbx/common/core/src/ux_device_stack_clear_feature.c ****             }
 165:../STM32Cube_FW_N6/Middlewares/ST/usbx/common/core/src/ux_device_stack_clear_feature.c **** 
 166:../STM32Cube_FW_N6/Middlewares/ST/usbx/common/core/src/ux_device_stack_clear_feature.c **** #if !defined(UX_DEVICE_INITIALIZE_FRAMEWORK_SCAN_DISABLE) || UX_MAX_DEVICE_INTERFACES > 1
 167:../STM32Cube_FW_N6/Middlewares/ST/usbx/common/core/src/ux_device_stack_clear_feature.c ****             /* Next interface.  */
 168:../STM32Cube_FW_N6/Middlewares/ST/usbx/common/core/src/ux_device_stack_clear_feature.c ****             interface_ptr =  interface_ptr -> ux_slave_interface_next_interface;
 169:../STM32Cube_FW_N6/Middlewares/ST/usbx/common/core/src/ux_device_stack_clear_feature.c ****         }
 170:../STM32Cube_FW_N6/Middlewares/ST/usbx/common/core/src/ux_device_stack_clear_feature.c **** #endif
 171:../STM32Cube_FW_N6/Middlewares/ST/usbx/common/core/src/ux_device_stack_clear_feature.c **** 
 172:../STM32Cube_FW_N6/Middlewares/ST/usbx/common/core/src/ux_device_stack_clear_feature.c ****         /* Intentional fallthrough and go into the default case. */
 173:../STM32Cube_FW_N6/Middlewares/ST/usbx/common/core/src/ux_device_stack_clear_feature.c ****         /* fall through */
 174:../STM32Cube_FW_N6/Middlewares/ST/usbx/common/core/src/ux_device_stack_clear_feature.c **** 
 175:../STM32Cube_FW_N6/Middlewares/ST/usbx/common/core/src/ux_device_stack_clear_feature.c ****     /* We get here when the endpoint is wrong. Should not happen though.  */
 176:../STM32Cube_FW_N6/Middlewares/ST/usbx/common/core/src/ux_device_stack_clear_feature.c ****     default:
 177:../STM32Cube_FW_N6/Middlewares/ST/usbx/common/core/src/ux_device_stack_clear_feature.c ****         
 178:../STM32Cube_FW_N6/Middlewares/ST/usbx/common/core/src/ux_device_stack_clear_feature.c ****         /* We stall the command.  */
 179:../STM32Cube_FW_N6/Middlewares/ST/usbx/common/core/src/ux_device_stack_clear_feature.c ****         dcd -> ux_slave_dcd_function(dcd, UX_DCD_STALL_ENDPOINT, endpoint);
  70              		.loc 1 179 9 view .LVU16
  71 0012 1421     		movs	r1, #20
  72 0014 8369     		ldr	r3, [r0, #24]
  73 0016 00F13C02 		add	r2, r0, #60
  74              	.LVL5:
  75              		.loc 1 179 9 is_stmt 0 view .LVU17
  76 001a 9847     		blx	r3
  77              	.LVL6:
 180:../STM32Cube_FW_N6/Middlewares/ST/usbx/common/core/src/ux_device_stack_clear_feature.c ****     
 181:../STM32Cube_FW_N6/Middlewares/ST/usbx/common/core/src/ux_device_stack_clear_feature.c ****         /* No more work to do here.  The command failed but the upper layer does not depend on it. 
 182:../STM32Cube_FW_N6/Middlewares/ST/usbx/common/core/src/ux_device_stack_clear_feature.c ****         return(UX_SUCCESS);            
  78              		.loc 1 182 9 is_stmt 1 view .LVU18
  79              		.loc 1 182 15 is_stmt 0 view .LVU19
  80 001c 06E0     		b	.L5
  81              	.LVL7:
  82              	.L2:
 110:../STM32Cube_FW_N6/Middlewares/ST/usbx/common/core/src/ux_device_stack_clear_feature.c ****         {
  83              		.loc 1 110 9 is_stmt 1 view .LVU20
 110:../STM32Cube_FW_N6/Middlewares/ST/usbx/common/core/src/ux_device_stack_clear_feature.c ****         {
  84              		.loc 1 110 12 is_stmt 0 view .LVU21
  85 001e 0129     		cmp	r1, #1
  86 0020 04D1     		bne	.L5
 114:../STM32Cube_FW_N6/Middlewares/ST/usbx/common/core/src/ux_device_stack_clear_feature.c ****             {
  87              		.loc 1 114 13 is_stmt 1 view .LVU22
 114:../STM32Cube_FW_N6/Middlewares/ST/usbx/common/core/src/ux_device_stack_clear_feature.c ****             {
  88              		.loc 1 114 16 is_stmt 0 view .LVU23
  89 0022 D0F84821 		ldr	r2, [r0, #328]
  90              	.LVL8:
 114:../STM32Cube_FW_N6/Middlewares/ST/usbx/common/core/src/ux_device_stack_clear_feature.c ****             {
  91              		.loc 1 114 16 view .LVU24
  92 0026 BAB1     		cbz	r2, .L12
 118:../STM32Cube_FW_N6/Middlewares/ST/usbx/common/core/src/ux_device_stack_clear_feature.c ****             }
  93              		.loc 1 118 17 is_stmt 1 view .LVU25
ARM GAS  /tmp/ccs8Hi07.s 			page 6


 118:../STM32Cube_FW_N6/Middlewares/ST/usbx/common/core/src/ux_device_stack_clear_feature.c ****             }
  94              		.loc 1 118 75 is_stmt 0 view .LVU26
  95 0028 C0F84C31 		str	r3, [r0, #332]
  96              	.LVL9:
  97              	.L5:
 159:../STM32Cube_FW_N6/Middlewares/ST/usbx/common/core/src/ux_device_stack_clear_feature.c ****                 }
  98              		.loc 1 159 27 view .LVU27
  99 002c 0020     		movs	r0, #0
 100              	.L1:
 183:../STM32Cube_FW_N6/Middlewares/ST/usbx/common/core/src/ux_device_stack_clear_feature.c ****     }
 184:../STM32Cube_FW_N6/Middlewares/ST/usbx/common/core/src/ux_device_stack_clear_feature.c **** 
 185:../STM32Cube_FW_N6/Middlewares/ST/usbx/common/core/src/ux_device_stack_clear_feature.c ****     /* Return the function status.  */
 186:../STM32Cube_FW_N6/Middlewares/ST/usbx/common/core/src/ux_device_stack_clear_feature.c ****     return(UX_SUCCESS);
 187:../STM32Cube_FW_N6/Middlewares/ST/usbx/common/core/src/ux_device_stack_clear_feature.c **** }
 101              		.loc 1 187 1 view .LVU28
 102 002e 10BD     		pop	{r4, pc}
 103              	.LVL10:
 104              	.L3:
 134:../STM32Cube_FW_N6/Middlewares/ST/usbx/common/core/src/ux_device_stack_clear_feature.c **** 
 105              		.loc 1 134 9 is_stmt 1 view .LVU29
 134:../STM32Cube_FW_N6/Middlewares/ST/usbx/common/core/src/ux_device_stack_clear_feature.c **** 
 106              		.loc 1 134 23 is_stmt 0 view .LVU30
 107 0030 D0F8B430 		ldr	r3, [r0, #180]
 108              	.LVL11:
 137:../STM32Cube_FW_N6/Middlewares/ST/usbx/common/core/src/ux_device_stack_clear_feature.c ****         {
 109              		.loc 1 137 9 is_stmt 1 view .LVU31
 110              	.L7:
 137:../STM32Cube_FW_N6/Middlewares/ST/usbx/common/core/src/ux_device_stack_clear_feature.c ****         {
 111              		.loc 1 137 30 view .LVU32
 112 0034 002B     		cmp	r3, #0
 113 0036 ECD0     		beq	.L4
 142:../STM32Cube_FW_N6/Middlewares/ST/usbx/common/core/src/ux_device_stack_clear_feature.c ****                 
 114              		.loc 1 142 13 view .LVU33
 142:../STM32Cube_FW_N6/Middlewares/ST/usbx/common/core/src/ux_device_stack_clear_feature.c ****                 
 115              		.loc 1 142 29 is_stmt 0 view .LVU34
 116 0038 DC69     		ldr	r4, [r3, #28]
 117              	.LVL12:
 145:../STM32Cube_FW_N6/Middlewares/ST/usbx/common/core/src/ux_device_stack_clear_feature.c ****             {
 118              		.loc 1 145 13 is_stmt 1 view .LVU35
 119              	.L8:
 145:../STM32Cube_FW_N6/Middlewares/ST/usbx/common/core/src/ux_device_stack_clear_feature.c ****             {
 120              		.loc 1 145 36 view .LVU36
 121 003a 0CB9     		cbnz	r4, .L10
 168:../STM32Cube_FW_N6/Middlewares/ST/usbx/common/core/src/ux_device_stack_clear_feature.c ****         }
 122              		.loc 1 168 13 view .LVU37
 168:../STM32Cube_FW_N6/Middlewares/ST/usbx/common/core/src/ux_device_stack_clear_feature.c ****         }
 123              		.loc 1 168 27 is_stmt 0 view .LVU38
 124 003c 9B69     		ldr	r3, [r3, #24]
 125              	.LVL13:
 168:../STM32Cube_FW_N6/Middlewares/ST/usbx/common/core/src/ux_device_stack_clear_feature.c ****         }
 126              		.loc 1 168 27 view .LVU39
 127 003e F9E7     		b	.L7
 128              	.LVL14:
 129              	.L10:
 149:../STM32Cube_FW_N6/Middlewares/ST/usbx/common/core/src/ux_device_stack_clear_feature.c ****                 {
 130              		.loc 1 149 17 is_stmt 1 view .LVU40
 149:../STM32Cube_FW_N6/Middlewares/ST/usbx/common/core/src/ux_device_stack_clear_feature.c ****                 {
ARM GAS  /tmp/ccs8Hi07.s 			page 7


 131              		.loc 1 149 68 is_stmt 0 view .LVU41
 132 0040 A17B     		ldrb	r1, [r4, #14]	@ zero_extendqisi2
 149:../STM32Cube_FW_N6/Middlewares/ST/usbx/common/core/src/ux_device_stack_clear_feature.c ****                 {
 133              		.loc 1 149 20 view .LVU42
 134 0042 9142     		cmp	r1, r2
 135 0044 06D1     		bne	.L9
 153:../STM32Cube_FW_N6/Middlewares/ST/usbx/common/core/src/ux_device_stack_clear_feature.c ****                     
 136              		.loc 1 153 21 is_stmt 1 view .LVU43
 137 0046 8369     		ldr	r3, [r0, #24]
 138              	.LVL15:
 153:../STM32Cube_FW_N6/Middlewares/ST/usbx/common/core/src/ux_device_stack_clear_feature.c ****                     
 139              		.loc 1 153 21 is_stmt 0 view .LVU44
 140 0048 2246     		mov	r2, r4
 141              	.LVL16:
 153:../STM32Cube_FW_N6/Middlewares/ST/usbx/common/core/src/ux_device_stack_clear_feature.c ****                     
 142              		.loc 1 153 21 view .LVU45
 143 004a 1021     		movs	r1, #16
 144 004c 9847     		blx	r3
 145              	.LVL17:
 156:../STM32Cube_FW_N6/Middlewares/ST/usbx/common/core/src/ux_device_stack_clear_feature.c **** 
 146              		.loc 1 156 21 is_stmt 1 view .LVU46
 156:../STM32Cube_FW_N6/Middlewares/ST/usbx/common/core/src/ux_device_stack_clear_feature.c **** 
 147              		.loc 1 156 64 is_stmt 0 view .LVU47
 148 004e 0023     		movs	r3, #0
 149 0050 6360     		str	r3, [r4, #4]
 159:../STM32Cube_FW_N6/Middlewares/ST/usbx/common/core/src/ux_device_stack_clear_feature.c ****                 }
 150              		.loc 1 159 21 is_stmt 1 view .LVU48
 159:../STM32Cube_FW_N6/Middlewares/ST/usbx/common/core/src/ux_device_stack_clear_feature.c ****                 }
 151              		.loc 1 159 27 is_stmt 0 view .LVU49
 152 0052 EBE7     		b	.L5
 153              	.LVL18:
 154              	.L9:
 163:../STM32Cube_FW_N6/Middlewares/ST/usbx/common/core/src/ux_device_stack_clear_feature.c ****             }
 155              		.loc 1 163 17 is_stmt 1 view .LVU50
 163:../STM32Cube_FW_N6/Middlewares/ST/usbx/common/core/src/ux_device_stack_clear_feature.c ****             }
 156              		.loc 1 163 33 is_stmt 0 view .LVU51
 157 0054 6469     		ldr	r4, [r4, #20]
 158              	.LVL19:
 163:../STM32Cube_FW_N6/Middlewares/ST/usbx/common/core/src/ux_device_stack_clear_feature.c ****             }
 159              		.loc 1 163 33 view .LVU52
 160 0056 F0E7     		b	.L8
 161              	.LVL20:
 162              	.L12:
 124:../STM32Cube_FW_N6/Middlewares/ST/usbx/common/core/src/ux_device_stack_clear_feature.c ****         }
 163              		.loc 1 124 24 view .LVU53
 164 0058 5420     		movs	r0, #84
 165              	.LVL21:
 124:../STM32Cube_FW_N6/Middlewares/ST/usbx/common/core/src/ux_device_stack_clear_feature.c ****         }
 166              		.loc 1 124 24 view .LVU54
 167 005a E8E7     		b	.L1
 168              	.L14:
 169              		.align	2
 170              	.L13:
 171 005c 00000000 		.word	_ux_system_slave
 172              		.cfi_endproc
 173              	.LFE3:
 175              		.text
ARM GAS  /tmp/ccs8Hi07.s 			page 8


 176              	.Letext0:
 177              		.file 2 "../STM32Cube_FW_N6/Middlewares/ST/usbx/ports/generic/inc/ux_port.h"
 178              		.file 3 "../STM32Cube_FW_N6/Middlewares/ST/usbx/common/core/inc/ux_api.h"
 179              		.file 4 "../STM32Cube_FW_N6/Middlewares/ST/usbx/common/core/inc/ux_system.h"
ARM GAS  /tmp/ccs8Hi07.s 			page 9


DEFINED SYMBOLS
                            *ABS*:00000000 ux_device_stack_clear_feature.c
     /tmp/ccs8Hi07.s:26     .text._ux_device_stack_clear_feature:00000000 $t
     /tmp/ccs8Hi07.s:32     .text._ux_device_stack_clear_feature:00000000 _ux_device_stack_clear_feature
     /tmp/ccs8Hi07.s:171    .text._ux_device_stack_clear_feature:0000005c $d
                           .group:00000000 wm4.0.43608cab4da50df6ba2dfee95636a2b5
                           .group:00000000 wm4.ux_user.h.114.1a24f49ab4050de1d28cc96eed1ff7ed
                           .group:00000000 wm4._newlib_version.h.4.0eb654b64686e2bd29646258853f6c22
                           .group:00000000 wm4.newlib.h.27.b904f6f8971bd921b436e5701877de32
                           .group:00000000 wm4.ieeefp.h.77.99029d7b8220a2cd73dd257e2bbe825d
                           .group:00000000 wm4.features.h.22.4b93ad64e0d80833c46a20ecae380bb0
                           .group:00000000 wm4.config.h.224.10ee1ad185d877c6e334e6581faab44d
                           .group:00000000 wm4._ansi.h.31.de524f58584151836e90d8620a16f8e8
                           .group:00000000 wm4.stdio.h.31.7c0e28c411445f3f9c5b11accf882760
                           .group:00000000 wm4._default_types.h.6.959254cf5f09734ea7516c89e8bb21bd
                           .group:00000000 wm4.stddef.h.200.ddb4176c6beb7e84f4fc90107f5448c9
                           .group:00000000 wm4.cdefs.h.49.56fd742369e655e7e8a7e365e706e208
                           .group:00000000 wm4.stddef.h.39.1701de33ba710abd106167c689c6bc7c
                           .group:00000000 wm4.stdarg.h.34.3a23a216c0c293b3d2ea2e89281481e6
                           .group:00000000 wm4._types.h.20.dd0d04dca3800a0d2a6129b87f3adbb2
                           .group:00000000 wm4.stddef.h.173.4903093a50a8482cb062b176ea61fac3
                           .group:00000000 wm4._types.h.127.3bdfe3ff8ea2d0985b03d9cbe93480e3
                           .group:00000000 wm4.reent.h.18.25503cdc8b7e55dd0d6ea7b3e5af7a03
                           .group:00000000 wm4.lock.h.2.1461d1fff82dffe8bfddc23307f6484f
                           .group:00000000 wm4.reent.h.78.6d702f69a6d6435d2dbe915b10150b1a
                           .group:00000000 wm4.stdio.h.67.0cf8a9c281ab0b348aef5c02e7e48825
                           .group:00000000 wm4.stdio.h.2.4aa87247282eca6c8f36f9de33d8df1a
                           .group:00000000 wm4.stdio.h.87.a1e20d2651f9bfb66e51bfbe849db00a
                           .group:00000000 wm4.string.h.8.c4b8571ce60dff2817f43fec8b86aecd
                           .group:00000000 wm4.stddef.h.173.1cea4f16a943c8e875db6791959c3141
                           .group:00000000 wm4.string.h.177.59a005921fa78485abc80a0267de5752
                           .group:00000000 wm4._intsup.h.10.48bafbb683905c4daa4565a85aeeb264
                           .group:00000000 wm4._stdint.h.10.c24fa3af3bc1706662bb5593a907e841
                           .group:00000000 wm4.stdint.h.23.d53047a68f4a85177f80b422d52785ed
                           .group:00000000 wm4.ux_port.h.89.ae1c293eff4e595cc9e7c7479e747a1e
                           .group:00000000 wm4.ux_api.h.182.effb4a50eb02f24d1d1ad0a575ebbb0c
                           .group:00000000 wm4.ux_utility.h.69.3aa9e2ccef0e2a41f2d49c9bf54d4b38
                           .group:00000000 wm4.ux_system.h.63.42f8c9cffcc26e0f12b75458b49daed3

UNDEFINED SYMBOLS
_ux_system_slave
