ARM GAS  /tmp/ccH51WEt.s 			page 1


   1              		.arch armv8.1-m.main
   2              		.fpu fpv5-d16
   3              		.arch_extension dsp
   4              		.arch_extension fp
   5              		.arch_extension fp.dp
   6              		.arch_extension mve
   7              		.arch_extension mve.fp
   8              		.eabi_attribute 5, "cortex-m55"
   9              		.eabi_attribute 28, 1
  10              		.eabi_attribute 20, 1
  11              		.eabi_attribute 21, 1
  12              		.eabi_attribute 23, 3
  13              		.eabi_attribute 24, 1
  14              		.eabi_attribute 25, 1
  15              		.eabi_attribute 26, 1
  16              		.eabi_attribute 30, 4
  17              		.eabi_attribute 34, 1
  18              		.eabi_attribute 38, 1
  19              		.eabi_attribute 18, 4
  20              		.file	"ux_device_stack_alternate_setting_set.c"
  21              		.text
  22              	.Ltext0:
  23              		.cfi_sections	.debug_frame
  24              		.file 1 "../STM32Cube_FW_N6/Middlewares/ST/usbx/common/core/src/ux_device_stack_alternate_setting_
  25              		.section	.text._ux_device_stack_alternate_setting_set,"ax",%progbits
  26              		.align	1
  27              		.global	_ux_device_stack_alternate_setting_set
  28              		.syntax unified
  29              		.thumb
  30              		.thumb_func
  32              	_ux_device_stack_alternate_setting_set:
  33              	.LVL0:
  34              	.LFB3:
   1:../STM32Cube_FW_N6/Middlewares/ST/usbx/common/core/src/ux_device_stack_alternate_setting_set.c **** /**************************************************************************/
   2:../STM32Cube_FW_N6/Middlewares/ST/usbx/common/core/src/ux_device_stack_alternate_setting_set.c **** /*                                                                        */
   3:../STM32Cube_FW_N6/Middlewares/ST/usbx/common/core/src/ux_device_stack_alternate_setting_set.c **** /*       Copyright (c) Microsoft Corporation. All rights reserved.        */
   4:../STM32Cube_FW_N6/Middlewares/ST/usbx/common/core/src/ux_device_stack_alternate_setting_set.c **** /*                                                                        */
   5:../STM32Cube_FW_N6/Middlewares/ST/usbx/common/core/src/ux_device_stack_alternate_setting_set.c **** /*       This software is licensed under the Microsoft Software License   */
   6:../STM32Cube_FW_N6/Middlewares/ST/usbx/common/core/src/ux_device_stack_alternate_setting_set.c **** /*       Terms for Microsoft Azure RTOS. Full text of the license can be  */
   7:../STM32Cube_FW_N6/Middlewares/ST/usbx/common/core/src/ux_device_stack_alternate_setting_set.c **** /*       found in the LICENSE file at https://aka.ms/AzureRTOS_EULA       */
   8:../STM32Cube_FW_N6/Middlewares/ST/usbx/common/core/src/ux_device_stack_alternate_setting_set.c **** /*       and in the root directory of this software.                      */
   9:../STM32Cube_FW_N6/Middlewares/ST/usbx/common/core/src/ux_device_stack_alternate_setting_set.c **** /*                                                                        */
  10:../STM32Cube_FW_N6/Middlewares/ST/usbx/common/core/src/ux_device_stack_alternate_setting_set.c **** /**************************************************************************/
  11:../STM32Cube_FW_N6/Middlewares/ST/usbx/common/core/src/ux_device_stack_alternate_setting_set.c **** 
  12:../STM32Cube_FW_N6/Middlewares/ST/usbx/common/core/src/ux_device_stack_alternate_setting_set.c **** 
  13:../STM32Cube_FW_N6/Middlewares/ST/usbx/common/core/src/ux_device_stack_alternate_setting_set.c **** /**************************************************************************/
  14:../STM32Cube_FW_N6/Middlewares/ST/usbx/common/core/src/ux_device_stack_alternate_setting_set.c **** /**************************************************************************/
  15:../STM32Cube_FW_N6/Middlewares/ST/usbx/common/core/src/ux_device_stack_alternate_setting_set.c **** /**                                                                       */ 
  16:../STM32Cube_FW_N6/Middlewares/ST/usbx/common/core/src/ux_device_stack_alternate_setting_set.c **** /** USBX Component                                                        */ 
  17:../STM32Cube_FW_N6/Middlewares/ST/usbx/common/core/src/ux_device_stack_alternate_setting_set.c **** /**                                                                       */
  18:../STM32Cube_FW_N6/Middlewares/ST/usbx/common/core/src/ux_device_stack_alternate_setting_set.c **** /**   Device Stack                                                        */
  19:../STM32Cube_FW_N6/Middlewares/ST/usbx/common/core/src/ux_device_stack_alternate_setting_set.c **** /**                                                                       */
  20:../STM32Cube_FW_N6/Middlewares/ST/usbx/common/core/src/ux_device_stack_alternate_setting_set.c **** /**************************************************************************/
  21:../STM32Cube_FW_N6/Middlewares/ST/usbx/common/core/src/ux_device_stack_alternate_setting_set.c **** /**************************************************************************/
  22:../STM32Cube_FW_N6/Middlewares/ST/usbx/common/core/src/ux_device_stack_alternate_setting_set.c **** 
  23:../STM32Cube_FW_N6/Middlewares/ST/usbx/common/core/src/ux_device_stack_alternate_setting_set.c **** #define UX_SOURCE_CODE
  24:../STM32Cube_FW_N6/Middlewares/ST/usbx/common/core/src/ux_device_stack_alternate_setting_set.c **** 
ARM GAS  /tmp/ccH51WEt.s 			page 2


  25:../STM32Cube_FW_N6/Middlewares/ST/usbx/common/core/src/ux_device_stack_alternate_setting_set.c **** 
  26:../STM32Cube_FW_N6/Middlewares/ST/usbx/common/core/src/ux_device_stack_alternate_setting_set.c **** /* Include necessary system files.  */
  27:../STM32Cube_FW_N6/Middlewares/ST/usbx/common/core/src/ux_device_stack_alternate_setting_set.c **** 
  28:../STM32Cube_FW_N6/Middlewares/ST/usbx/common/core/src/ux_device_stack_alternate_setting_set.c **** #include "ux_api.h"
  29:../STM32Cube_FW_N6/Middlewares/ST/usbx/common/core/src/ux_device_stack_alternate_setting_set.c **** #include "ux_device_stack.h"
  30:../STM32Cube_FW_N6/Middlewares/ST/usbx/common/core/src/ux_device_stack_alternate_setting_set.c **** 
  31:../STM32Cube_FW_N6/Middlewares/ST/usbx/common/core/src/ux_device_stack_alternate_setting_set.c **** 
  32:../STM32Cube_FW_N6/Middlewares/ST/usbx/common/core/src/ux_device_stack_alternate_setting_set.c **** /**************************************************************************/
  33:../STM32Cube_FW_N6/Middlewares/ST/usbx/common/core/src/ux_device_stack_alternate_setting_set.c **** /*                                                                        */
  34:../STM32Cube_FW_N6/Middlewares/ST/usbx/common/core/src/ux_device_stack_alternate_setting_set.c **** /*  FUNCTION                                               RELEASE        */
  35:../STM32Cube_FW_N6/Middlewares/ST/usbx/common/core/src/ux_device_stack_alternate_setting_set.c **** /*                                                                        */
  36:../STM32Cube_FW_N6/Middlewares/ST/usbx/common/core/src/ux_device_stack_alternate_setting_set.c **** /*    _ux_device_stack_alternate_setting_set              PORTABLE C      */
  37:../STM32Cube_FW_N6/Middlewares/ST/usbx/common/core/src/ux_device_stack_alternate_setting_set.c **** /*                                                           6.1.12       */
  38:../STM32Cube_FW_N6/Middlewares/ST/usbx/common/core/src/ux_device_stack_alternate_setting_set.c **** /*  AUTHOR                                                                */
  39:../STM32Cube_FW_N6/Middlewares/ST/usbx/common/core/src/ux_device_stack_alternate_setting_set.c **** /*                                                                        */
  40:../STM32Cube_FW_N6/Middlewares/ST/usbx/common/core/src/ux_device_stack_alternate_setting_set.c **** /*    Chaoqiong Xiao, Microsoft Corporation                               */
  41:../STM32Cube_FW_N6/Middlewares/ST/usbx/common/core/src/ux_device_stack_alternate_setting_set.c **** /*                                                                        */
  42:../STM32Cube_FW_N6/Middlewares/ST/usbx/common/core/src/ux_device_stack_alternate_setting_set.c **** /*  DESCRIPTION                                                           */
  43:../STM32Cube_FW_N6/Middlewares/ST/usbx/common/core/src/ux_device_stack_alternate_setting_set.c **** /*                                                                        */
  44:../STM32Cube_FW_N6/Middlewares/ST/usbx/common/core/src/ux_device_stack_alternate_setting_set.c **** /*    This function sets the alternate setting for a specific interface.  */
  45:../STM32Cube_FW_N6/Middlewares/ST/usbx/common/core/src/ux_device_stack_alternate_setting_set.c **** /*    The previous interface is unmounted and all the endpoints           */
  46:../STM32Cube_FW_N6/Middlewares/ST/usbx/common/core/src/ux_device_stack_alternate_setting_set.c **** /*    associated with the alternate setting are mounted.                  */
  47:../STM32Cube_FW_N6/Middlewares/ST/usbx/common/core/src/ux_device_stack_alternate_setting_set.c **** /*                                                                        */
  48:../STM32Cube_FW_N6/Middlewares/ST/usbx/common/core/src/ux_device_stack_alternate_setting_set.c **** /*  INPUT                                                                 */
  49:../STM32Cube_FW_N6/Middlewares/ST/usbx/common/core/src/ux_device_stack_alternate_setting_set.c **** /*                                                                        */
  50:../STM32Cube_FW_N6/Middlewares/ST/usbx/common/core/src/ux_device_stack_alternate_setting_set.c **** /*    endpoint                              Pointer to endpoint           */
  51:../STM32Cube_FW_N6/Middlewares/ST/usbx/common/core/src/ux_device_stack_alternate_setting_set.c **** /*    interface_value                       Interface value               */
  52:../STM32Cube_FW_N6/Middlewares/ST/usbx/common/core/src/ux_device_stack_alternate_setting_set.c **** /*    alternate_setting_value               Alternate setting value       */
  53:../STM32Cube_FW_N6/Middlewares/ST/usbx/common/core/src/ux_device_stack_alternate_setting_set.c **** /*                                                                        */
  54:../STM32Cube_FW_N6/Middlewares/ST/usbx/common/core/src/ux_device_stack_alternate_setting_set.c **** /*  OUTPUT                                                                */
  55:../STM32Cube_FW_N6/Middlewares/ST/usbx/common/core/src/ux_device_stack_alternate_setting_set.c **** /*                                                                        */
  56:../STM32Cube_FW_N6/Middlewares/ST/usbx/common/core/src/ux_device_stack_alternate_setting_set.c **** /*    Completion Status                                                   */ 
  57:../STM32Cube_FW_N6/Middlewares/ST/usbx/common/core/src/ux_device_stack_alternate_setting_set.c **** /*                                                                        */
  58:../STM32Cube_FW_N6/Middlewares/ST/usbx/common/core/src/ux_device_stack_alternate_setting_set.c **** /*  CALLS                                                                 */ 
  59:../STM32Cube_FW_N6/Middlewares/ST/usbx/common/core/src/ux_device_stack_alternate_setting_set.c **** /*                                                                        */ 
  60:../STM32Cube_FW_N6/Middlewares/ST/usbx/common/core/src/ux_device_stack_alternate_setting_set.c **** /*    (ux_slave_dcd_function)               DCD dispatch function         */ 
  61:../STM32Cube_FW_N6/Middlewares/ST/usbx/common/core/src/ux_device_stack_alternate_setting_set.c **** /*    _ux_utility_descriptor_parse          Parse descriptor              */
  62:../STM32Cube_FW_N6/Middlewares/ST/usbx/common/core/src/ux_device_stack_alternate_setting_set.c **** /*    _ux_device_stack_transfer_all_request_abort                         */
  63:../STM32Cube_FW_N6/Middlewares/ST/usbx/common/core/src/ux_device_stack_alternate_setting_set.c **** /*                                          Abort transfer                */
  64:../STM32Cube_FW_N6/Middlewares/ST/usbx/common/core/src/ux_device_stack_alternate_setting_set.c **** /*    _ux_utility_memory_copy               Copy memory                   */
  65:../STM32Cube_FW_N6/Middlewares/ST/usbx/common/core/src/ux_device_stack_alternate_setting_set.c **** /*                                                                        */ 
  66:../STM32Cube_FW_N6/Middlewares/ST/usbx/common/core/src/ux_device_stack_alternate_setting_set.c **** /*  CALLED BY                                                             */ 
  67:../STM32Cube_FW_N6/Middlewares/ST/usbx/common/core/src/ux_device_stack_alternate_setting_set.c **** /*                                                                        */ 
  68:../STM32Cube_FW_N6/Middlewares/ST/usbx/common/core/src/ux_device_stack_alternate_setting_set.c **** /*    Application                                                         */ 
  69:../STM32Cube_FW_N6/Middlewares/ST/usbx/common/core/src/ux_device_stack_alternate_setting_set.c **** /*    Device Stack                                                        */
  70:../STM32Cube_FW_N6/Middlewares/ST/usbx/common/core/src/ux_device_stack_alternate_setting_set.c **** /*                                                                        */ 
  71:../STM32Cube_FW_N6/Middlewares/ST/usbx/common/core/src/ux_device_stack_alternate_setting_set.c **** /*  RELEASE HISTORY                                                       */ 
  72:../STM32Cube_FW_N6/Middlewares/ST/usbx/common/core/src/ux_device_stack_alternate_setting_set.c **** /*                                                                        */ 
  73:../STM32Cube_FW_N6/Middlewares/ST/usbx/common/core/src/ux_device_stack_alternate_setting_set.c **** /*    DATE              NAME                      DESCRIPTION             */ 
  74:../STM32Cube_FW_N6/Middlewares/ST/usbx/common/core/src/ux_device_stack_alternate_setting_set.c **** /*                                                                        */ 
  75:../STM32Cube_FW_N6/Middlewares/ST/usbx/common/core/src/ux_device_stack_alternate_setting_set.c **** /*  05-19-2020     Chaoqiong Xiao           Initial Version 6.0           */
  76:../STM32Cube_FW_N6/Middlewares/ST/usbx/common/core/src/ux_device_stack_alternate_setting_set.c **** /*  09-30-2020     Chaoqiong Xiao           Modified comment(s),          */
  77:../STM32Cube_FW_N6/Middlewares/ST/usbx/common/core/src/ux_device_stack_alternate_setting_set.c **** /*                                            optimized based on compile  */
  78:../STM32Cube_FW_N6/Middlewares/ST/usbx/common/core/src/ux_device_stack_alternate_setting_set.c **** /*                                            definitions, verified       */
  79:../STM32Cube_FW_N6/Middlewares/ST/usbx/common/core/src/ux_device_stack_alternate_setting_set.c **** /*                                            memset and memcpy cases,    */
  80:../STM32Cube_FW_N6/Middlewares/ST/usbx/common/core/src/ux_device_stack_alternate_setting_set.c **** /*                                            resulting in version 6.1    */
  81:../STM32Cube_FW_N6/Middlewares/ST/usbx/common/core/src/ux_device_stack_alternate_setting_set.c **** /*  10-15-2021     Chaoqiong Xiao           Modified comment(s),          */
ARM GAS  /tmp/ccH51WEt.s 			page 3


  82:../STM32Cube_FW_N6/Middlewares/ST/usbx/common/core/src/ux_device_stack_alternate_setting_set.c **** /*                                            calculated payload size,    */
  83:../STM32Cube_FW_N6/Middlewares/ST/usbx/common/core/src/ux_device_stack_alternate_setting_set.c **** /*                                            resulting in version 6.1.9  */
  84:../STM32Cube_FW_N6/Middlewares/ST/usbx/common/core/src/ux_device_stack_alternate_setting_set.c **** /*  07-29-2022     Chaoqiong Xiao           Modified comment(s),          */
  85:../STM32Cube_FW_N6/Middlewares/ST/usbx/common/core/src/ux_device_stack_alternate_setting_set.c **** /*                                            fixed parameter/variable    */
  86:../STM32Cube_FW_N6/Middlewares/ST/usbx/common/core/src/ux_device_stack_alternate_setting_set.c **** /*                                            names conflict C++ keyword, */
  87:../STM32Cube_FW_N6/Middlewares/ST/usbx/common/core/src/ux_device_stack_alternate_setting_set.c **** /*                                            resulting in version 6.1.12 */
  88:../STM32Cube_FW_N6/Middlewares/ST/usbx/common/core/src/ux_device_stack_alternate_setting_set.c **** /*                                                                        */
  89:../STM32Cube_FW_N6/Middlewares/ST/usbx/common/core/src/ux_device_stack_alternate_setting_set.c **** /**************************************************************************/
  90:../STM32Cube_FW_N6/Middlewares/ST/usbx/common/core/src/ux_device_stack_alternate_setting_set.c **** UINT  _ux_device_stack_alternate_setting_set(ULONG interface_value, ULONG alternate_setting_value)
  91:../STM32Cube_FW_N6/Middlewares/ST/usbx/common/core/src/ux_device_stack_alternate_setting_set.c **** {
  35              		.loc 1 91 1 view -0
  36              		.cfi_startproc
  37              		@ args = 0, pretend = 0, frame = 72
  38              		@ frame_needed = 0, uses_anonymous_args = 0
  92:../STM32Cube_FW_N6/Middlewares/ST/usbx/common/core/src/ux_device_stack_alternate_setting_set.c **** 
  93:../STM32Cube_FW_N6/Middlewares/ST/usbx/common/core/src/ux_device_stack_alternate_setting_set.c **** UX_SLAVE_DEVICE                 *device;
  39              		.loc 1 93 1 view .LVU1
  94:../STM32Cube_FW_N6/Middlewares/ST/usbx/common/core/src/ux_device_stack_alternate_setting_set.c **** UX_SLAVE_INTERFACE              *interface_ptr;
  40              		.loc 1 94 1 view .LVU2
  95:../STM32Cube_FW_N6/Middlewares/ST/usbx/common/core/src/ux_device_stack_alternate_setting_set.c **** #if !defined(UX_DEVICE_ALTERNATE_SETTING_SUPPORT_DISABLE)
  96:../STM32Cube_FW_N6/Middlewares/ST/usbx/common/core/src/ux_device_stack_alternate_setting_set.c **** UX_SLAVE_DCD                    *dcd;
  41              		.loc 1 96 1 view .LVU3
  97:../STM32Cube_FW_N6/Middlewares/ST/usbx/common/core/src/ux_device_stack_alternate_setting_set.c **** UX_SLAVE_TRANSFER               *transfer_request;
  42              		.loc 1 97 1 view .LVU4
  98:../STM32Cube_FW_N6/Middlewares/ST/usbx/common/core/src/ux_device_stack_alternate_setting_set.c **** UCHAR                           *device_framework;
  43              		.loc 1 98 1 view .LVU5
  99:../STM32Cube_FW_N6/Middlewares/ST/usbx/common/core/src/ux_device_stack_alternate_setting_set.c **** ULONG                           device_framework_length;
  44              		.loc 1 99 1 view .LVU6
 100:../STM32Cube_FW_N6/Middlewares/ST/usbx/common/core/src/ux_device_stack_alternate_setting_set.c **** ULONG                           descriptor_length;
  45              		.loc 1 100 1 view .LVU7
 101:../STM32Cube_FW_N6/Middlewares/ST/usbx/common/core/src/ux_device_stack_alternate_setting_set.c **** UCHAR                           descriptor_type;
  46              		.loc 1 101 1 view .LVU8
 102:../STM32Cube_FW_N6/Middlewares/ST/usbx/common/core/src/ux_device_stack_alternate_setting_set.c **** UX_CONFIGURATION_DESCRIPTOR     configuration_descriptor;
  47              		.loc 1 102 1 view .LVU9
 103:../STM32Cube_FW_N6/Middlewares/ST/usbx/common/core/src/ux_device_stack_alternate_setting_set.c **** UX_INTERFACE_DESCRIPTOR         interface_descriptor;
  48              		.loc 1 103 1 view .LVU10
 104:../STM32Cube_FW_N6/Middlewares/ST/usbx/common/core/src/ux_device_stack_alternate_setting_set.c **** UX_SLAVE_ENDPOINT               *endpoint;
  49              		.loc 1 104 1 view .LVU11
 105:../STM32Cube_FW_N6/Middlewares/ST/usbx/common/core/src/ux_device_stack_alternate_setting_set.c **** UX_SLAVE_ENDPOINT               *next_endpoint;
  50              		.loc 1 105 1 view .LVU12
 106:../STM32Cube_FW_N6/Middlewares/ST/usbx/common/core/src/ux_device_stack_alternate_setting_set.c **** UX_SLAVE_ENDPOINT               *endpoint_link;
  51              		.loc 1 106 1 view .LVU13
 107:../STM32Cube_FW_N6/Middlewares/ST/usbx/common/core/src/ux_device_stack_alternate_setting_set.c **** ULONG                            endpoints_pool_number;
  52              		.loc 1 107 1 view .LVU14
 108:../STM32Cube_FW_N6/Middlewares/ST/usbx/common/core/src/ux_device_stack_alternate_setting_set.c **** UX_SLAVE_CLASS_COMMAND          class_command;
  53              		.loc 1 108 1 view .LVU15
 109:../STM32Cube_FW_N6/Middlewares/ST/usbx/common/core/src/ux_device_stack_alternate_setting_set.c **** UX_SLAVE_CLASS                  *class_ptr;
  54              		.loc 1 109 1 view .LVU16
 110:../STM32Cube_FW_N6/Middlewares/ST/usbx/common/core/src/ux_device_stack_alternate_setting_set.c **** UINT                            status;
  55              		.loc 1 110 1 view .LVU17
 111:../STM32Cube_FW_N6/Middlewares/ST/usbx/common/core/src/ux_device_stack_alternate_setting_set.c **** ULONG                           max_transfer_length, n_trans;
  56              		.loc 1 111 1 view .LVU18
 112:../STM32Cube_FW_N6/Middlewares/ST/usbx/common/core/src/ux_device_stack_alternate_setting_set.c **** #endif
 113:../STM32Cube_FW_N6/Middlewares/ST/usbx/common/core/src/ux_device_stack_alternate_setting_set.c **** 
 114:../STM32Cube_FW_N6/Middlewares/ST/usbx/common/core/src/ux_device_stack_alternate_setting_set.c ****     /* If trace is enabled, insert this event into the trace buffer.  */
 115:../STM32Cube_FW_N6/Middlewares/ST/usbx/common/core/src/ux_device_stack_alternate_setting_set.c ****     UX_TRACE_IN_LINE_INSERT(UX_TRACE_DEVICE_STACK_ALTERNATE_SETTING_SET, interface_value, alternate
 116:../STM32Cube_FW_N6/Middlewares/ST/usbx/common/core/src/ux_device_stack_alternate_setting_set.c **** 
ARM GAS  /tmp/ccH51WEt.s 			page 4


 117:../STM32Cube_FW_N6/Middlewares/ST/usbx/common/core/src/ux_device_stack_alternate_setting_set.c ****     /* Get the pointer to the device. */
 118:../STM32Cube_FW_N6/Middlewares/ST/usbx/common/core/src/ux_device_stack_alternate_setting_set.c ****     device =  &_ux_system_slave -> ux_system_slave_device;
  57              		.loc 1 118 5 view .LVU19
  91:../STM32Cube_FW_N6/Middlewares/ST/usbx/common/core/src/ux_device_stack_alternate_setting_set.c **** 
  58              		.loc 1 91 1 is_stmt 0 view .LVU20
  59 0000 2DE9F04F 		push	{r4, r5, r6, r7, r8, r9, r10, fp, lr}
  60              		.cfi_def_cfa_offset 36
  61              		.cfi_offset 4, -36
  62              		.cfi_offset 5, -32
  63              		.cfi_offset 6, -28
  64              		.cfi_offset 7, -24
  65              		.cfi_offset 8, -20
  66              		.cfi_offset 9, -16
  67              		.cfi_offset 10, -12
  68              		.cfi_offset 11, -8
  69              		.cfi_offset 14, -4
  70              		.loc 1 118 33 view .LVU21
  71 0004 DFF8ECA1 		ldr	r10, .L45+12
  91:../STM32Cube_FW_N6/Middlewares/ST/usbx/common/core/src/ux_device_stack_alternate_setting_set.c **** 
  72              		.loc 1 91 1 view .LVU22
  73 0008 0546     		mov	r5, r0
  74              		.loc 1 118 33 view .LVU23
  75 000a DAF80070 		ldr	r7, [r10]
  76              	.LVL1:
 119:../STM32Cube_FW_N6/Middlewares/ST/usbx/common/core/src/ux_device_stack_alternate_setting_set.c **** 
 120:../STM32Cube_FW_N6/Middlewares/ST/usbx/common/core/src/ux_device_stack_alternate_setting_set.c ****     /* Protocol error must be reported when it's unconfigured */
 121:../STM32Cube_FW_N6/Middlewares/ST/usbx/common/core/src/ux_device_stack_alternate_setting_set.c ****     if (device -> ux_slave_device_state != UX_DEVICE_CONFIGURED)
  77              		.loc 1 121 5 is_stmt 1 view .LVU24
  91:../STM32Cube_FW_N6/Middlewares/ST/usbx/common/core/src/ux_device_stack_alternate_setting_set.c **** 
  78              		.loc 1 91 1 is_stmt 0 view .LVU25
  79 000e 8946     		mov	r9, r1
  80              		.loc 1 121 8 view .LVU26
  81 0010 7B6A     		ldr	r3, [r7, #36]
  91:../STM32Cube_FW_N6/Middlewares/ST/usbx/common/core/src/ux_device_stack_alternate_setting_set.c **** 
  82              		.loc 1 91 1 view .LVU27
  83 0012 93B0     		sub	sp, sp, #76
  84              		.cfi_def_cfa_offset 112
  85              		.loc 1 121 8 view .LVU28
  86 0014 032B     		cmp	r3, #3
  87 0016 40F0E180 		bne	.L29
 122:../STM32Cube_FW_N6/Middlewares/ST/usbx/common/core/src/ux_device_stack_alternate_setting_set.c ****         return(UX_FUNCTION_NOT_SUPPORTED);
 123:../STM32Cube_FW_N6/Middlewares/ST/usbx/common/core/src/ux_device_stack_alternate_setting_set.c **** 
 124:../STM32Cube_FW_N6/Middlewares/ST/usbx/common/core/src/ux_device_stack_alternate_setting_set.c ****     /* Find the current interface.  */
 125:../STM32Cube_FW_N6/Middlewares/ST/usbx/common/core/src/ux_device_stack_alternate_setting_set.c ****     interface_ptr =  device -> ux_slave_device_first_interface;
  88              		.loc 1 125 5 is_stmt 1 view .LVU29
  89              		.loc 1 125 19 is_stmt 0 view .LVU30
  90 001a D7F8B460 		ldr	r6, [r7, #180]
  91              	.LVL2:
 126:../STM32Cube_FW_N6/Middlewares/ST/usbx/common/core/src/ux_device_stack_alternate_setting_set.c **** 
 127:../STM32Cube_FW_N6/Middlewares/ST/usbx/common/core/src/ux_device_stack_alternate_setting_set.c **** #if !defined(UX_DEVICE_INITIALIZE_FRAMEWORK_SCAN_DISABLE) || UX_MAX_DEVICE_INTERFACES > 1
 128:../STM32Cube_FW_N6/Middlewares/ST/usbx/common/core/src/ux_device_stack_alternate_setting_set.c ****     /* Scan all interfaces if any. */
 129:../STM32Cube_FW_N6/Middlewares/ST/usbx/common/core/src/ux_device_stack_alternate_setting_set.c ****     while (interface_ptr != UX_NULL)
  92              		.loc 1 129 5 is_stmt 1 view .LVU31
  93              	.L3:
  94              		.loc 1 129 26 view .LVU32
  95 001e 46B9     		cbnz	r6, .L5
 130:../STM32Cube_FW_N6/Middlewares/ST/usbx/common/core/src/ux_device_stack_alternate_setting_set.c ****     {
ARM GAS  /tmp/ccH51WEt.s 			page 5


 131:../STM32Cube_FW_N6/Middlewares/ST/usbx/common/core/src/ux_device_stack_alternate_setting_set.c **** 
 132:../STM32Cube_FW_N6/Middlewares/ST/usbx/common/core/src/ux_device_stack_alternate_setting_set.c ****         if (interface_ptr -> ux_slave_interface_descriptor.bInterfaceNumber == interface_value)
 133:../STM32Cube_FW_N6/Middlewares/ST/usbx/common/core/src/ux_device_stack_alternate_setting_set.c ****             break;
 134:../STM32Cube_FW_N6/Middlewares/ST/usbx/common/core/src/ux_device_stack_alternate_setting_set.c ****         else
 135:../STM32Cube_FW_N6/Middlewares/ST/usbx/common/core/src/ux_device_stack_alternate_setting_set.c ****             interface_ptr =  interface_ptr -> ux_slave_interface_next_interface;
 136:../STM32Cube_FW_N6/Middlewares/ST/usbx/common/core/src/ux_device_stack_alternate_setting_set.c ****     }
 137:../STM32Cube_FW_N6/Middlewares/ST/usbx/common/core/src/ux_device_stack_alternate_setting_set.c **** #else
 138:../STM32Cube_FW_N6/Middlewares/ST/usbx/common/core/src/ux_device_stack_alternate_setting_set.c ****     if (interface_ptr -> ux_slave_interface_descriptor.bInterfaceNumber != interface_value)
 139:../STM32Cube_FW_N6/Middlewares/ST/usbx/common/core/src/ux_device_stack_alternate_setting_set.c ****         interface_ptr = UX_NULL;
 140:../STM32Cube_FW_N6/Middlewares/ST/usbx/common/core/src/ux_device_stack_alternate_setting_set.c **** #endif
 141:../STM32Cube_FW_N6/Middlewares/ST/usbx/common/core/src/ux_device_stack_alternate_setting_set.c **** 
 142:../STM32Cube_FW_N6/Middlewares/ST/usbx/common/core/src/ux_device_stack_alternate_setting_set.c ****     /* We must have found the interface pointer for the interface value
 143:../STM32Cube_FW_N6/Middlewares/ST/usbx/common/core/src/ux_device_stack_alternate_setting_set.c ****        requested by the caller.  */
 144:../STM32Cube_FW_N6/Middlewares/ST/usbx/common/core/src/ux_device_stack_alternate_setting_set.c ****     if (interface_ptr == UX_NULL)
  96              		.loc 1 144 5 view .LVU33
 145:../STM32Cube_FW_N6/Middlewares/ST/usbx/common/core/src/ux_device_stack_alternate_setting_set.c ****     {
 146:../STM32Cube_FW_N6/Middlewares/ST/usbx/common/core/src/ux_device_stack_alternate_setting_set.c **** 
 147:../STM32Cube_FW_N6/Middlewares/ST/usbx/common/core/src/ux_device_stack_alternate_setting_set.c ****         /* Error trap. */
 148:../STM32Cube_FW_N6/Middlewares/ST/usbx/common/core/src/ux_device_stack_alternate_setting_set.c ****         _ux_system_error_handler(UX_SYSTEM_LEVEL_THREAD, UX_SYSTEM_CONTEXT_CLASS, UX_INTERFACE_HAND
  97              		.loc 1 148 9 view .LVU34
  98 0020 0220     		movs	r0, #2
  99              	.LVL3:
 100              		.loc 1 148 9 is_stmt 0 view .LVU35
 101 0022 5222     		movs	r2, #82
 102 0024 0721     		movs	r1, #7
 103              	.LVL4:
 104              		.loc 1 148 9 view .LVU36
 105 0026 FFF7FEFF 		bl	_ux_system_error_handler
 106              	.LVL5:
 149:../STM32Cube_FW_N6/Middlewares/ST/usbx/common/core/src/ux_device_stack_alternate_setting_set.c **** 
 150:../STM32Cube_FW_N6/Middlewares/ST/usbx/common/core/src/ux_device_stack_alternate_setting_set.c ****         /* If trace is enabled, insert this event into the trace buffer.  */
 151:../STM32Cube_FW_N6/Middlewares/ST/usbx/common/core/src/ux_device_stack_alternate_setting_set.c ****         UX_TRACE_IN_LINE_INSERT(UX_TRACE_ERROR, UX_INTERFACE_HANDLE_UNKNOWN, interface_ptr, 0, 0, U
 152:../STM32Cube_FW_N6/Middlewares/ST/usbx/common/core/src/ux_device_stack_alternate_setting_set.c **** 
 153:../STM32Cube_FW_N6/Middlewares/ST/usbx/common/core/src/ux_device_stack_alternate_setting_set.c ****         return(UX_INTERFACE_HANDLE_UNKNOWN);
 107              		.loc 1 153 9 is_stmt 1 view .LVU37
 108              		.loc 1 153 15 is_stmt 0 view .LVU38
 109 002a 5220     		movs	r0, #82
 110              	.LVL6:
 111              	.L1:
 154:../STM32Cube_FW_N6/Middlewares/ST/usbx/common/core/src/ux_device_stack_alternate_setting_set.c ****     }
 155:../STM32Cube_FW_N6/Middlewares/ST/usbx/common/core/src/ux_device_stack_alternate_setting_set.c **** 
 156:../STM32Cube_FW_N6/Middlewares/ST/usbx/common/core/src/ux_device_stack_alternate_setting_set.c ****     /* If the host is requesting a change of alternate setting to the current one,
 157:../STM32Cube_FW_N6/Middlewares/ST/usbx/common/core/src/ux_device_stack_alternate_setting_set.c ****        we do not need to do any work.  */
 158:../STM32Cube_FW_N6/Middlewares/ST/usbx/common/core/src/ux_device_stack_alternate_setting_set.c ****     if (interface_ptr -> ux_slave_interface_descriptor.bAlternateSetting == alternate_setting_value
 159:../STM32Cube_FW_N6/Middlewares/ST/usbx/common/core/src/ux_device_stack_alternate_setting_set.c ****         return(UX_SUCCESS);       
 160:../STM32Cube_FW_N6/Middlewares/ST/usbx/common/core/src/ux_device_stack_alternate_setting_set.c **** 
 161:../STM32Cube_FW_N6/Middlewares/ST/usbx/common/core/src/ux_device_stack_alternate_setting_set.c **** #if defined(UX_DEVICE_ALTERNATE_SETTING_SUPPORT_DISABLE)
 162:../STM32Cube_FW_N6/Middlewares/ST/usbx/common/core/src/ux_device_stack_alternate_setting_set.c **** 
 163:../STM32Cube_FW_N6/Middlewares/ST/usbx/common/core/src/ux_device_stack_alternate_setting_set.c ****     /* If alternate setting is disabled, do error trap.  */
 164:../STM32Cube_FW_N6/Middlewares/ST/usbx/common/core/src/ux_device_stack_alternate_setting_set.c ****     _ux_system_error_handler(UX_SYSTEM_LEVEL_THREAD, UX_SYSTEM_CONTEXT_CLASS, UX_FUNCTION_NOT_SUPPO
 165:../STM32Cube_FW_N6/Middlewares/ST/usbx/common/core/src/ux_device_stack_alternate_setting_set.c **** 
 166:../STM32Cube_FW_N6/Middlewares/ST/usbx/common/core/src/ux_device_stack_alternate_setting_set.c ****     /* If trace is enabled, insert this event into the trace buffer.  */
 167:../STM32Cube_FW_N6/Middlewares/ST/usbx/common/core/src/ux_device_stack_alternate_setting_set.c ****     UX_TRACE_IN_LINE_INSERT(UX_TRACE_ERROR, UX_FUNCTION_NOT_SUPPORTED, interface_ptr, 0, 0, UX_TRAC
 168:../STM32Cube_FW_N6/Middlewares/ST/usbx/common/core/src/ux_device_stack_alternate_setting_set.c **** 
 169:../STM32Cube_FW_N6/Middlewares/ST/usbx/common/core/src/ux_device_stack_alternate_setting_set.c ****     return(UX_FUNCTION_NOT_SUPPORTED);
 170:../STM32Cube_FW_N6/Middlewares/ST/usbx/common/core/src/ux_device_stack_alternate_setting_set.c **** #else
 171:../STM32Cube_FW_N6/Middlewares/ST/usbx/common/core/src/ux_device_stack_alternate_setting_set.c **** 
ARM GAS  /tmp/ccH51WEt.s 			page 6


 172:../STM32Cube_FW_N6/Middlewares/ST/usbx/common/core/src/ux_device_stack_alternate_setting_set.c ****     /* Get the pointer to the DCD. */
 173:../STM32Cube_FW_N6/Middlewares/ST/usbx/common/core/src/ux_device_stack_alternate_setting_set.c ****     dcd =  &_ux_system_slave->ux_system_slave_dcd;
 174:../STM32Cube_FW_N6/Middlewares/ST/usbx/common/core/src/ux_device_stack_alternate_setting_set.c **** 
 175:../STM32Cube_FW_N6/Middlewares/ST/usbx/common/core/src/ux_device_stack_alternate_setting_set.c ****     /* We may have multiple configurations!  */
 176:../STM32Cube_FW_N6/Middlewares/ST/usbx/common/core/src/ux_device_stack_alternate_setting_set.c ****     device_framework =  _ux_system_slave -> ux_system_slave_device_framework;
 177:../STM32Cube_FW_N6/Middlewares/ST/usbx/common/core/src/ux_device_stack_alternate_setting_set.c ****     device_framework_length =  _ux_system_slave -> ux_system_slave_device_framework_length;
 178:../STM32Cube_FW_N6/Middlewares/ST/usbx/common/core/src/ux_device_stack_alternate_setting_set.c **** 
 179:../STM32Cube_FW_N6/Middlewares/ST/usbx/common/core/src/ux_device_stack_alternate_setting_set.c ****     /* Parse the device framework and locate a configuration descriptor. */
 180:../STM32Cube_FW_N6/Middlewares/ST/usbx/common/core/src/ux_device_stack_alternate_setting_set.c ****     while (device_framework_length != 0)
 181:../STM32Cube_FW_N6/Middlewares/ST/usbx/common/core/src/ux_device_stack_alternate_setting_set.c ****     {
 182:../STM32Cube_FW_N6/Middlewares/ST/usbx/common/core/src/ux_device_stack_alternate_setting_set.c **** 
 183:../STM32Cube_FW_N6/Middlewares/ST/usbx/common/core/src/ux_device_stack_alternate_setting_set.c ****         /* Get the length of the current descriptor.  */
 184:../STM32Cube_FW_N6/Middlewares/ST/usbx/common/core/src/ux_device_stack_alternate_setting_set.c ****         descriptor_length =  (ULONG) *device_framework;
 185:../STM32Cube_FW_N6/Middlewares/ST/usbx/common/core/src/ux_device_stack_alternate_setting_set.c **** 
 186:../STM32Cube_FW_N6/Middlewares/ST/usbx/common/core/src/ux_device_stack_alternate_setting_set.c ****         /* And its length.  */
 187:../STM32Cube_FW_N6/Middlewares/ST/usbx/common/core/src/ux_device_stack_alternate_setting_set.c ****         descriptor_type =*  (device_framework + 1);
 188:../STM32Cube_FW_N6/Middlewares/ST/usbx/common/core/src/ux_device_stack_alternate_setting_set.c ****                 
 189:../STM32Cube_FW_N6/Middlewares/ST/usbx/common/core/src/ux_device_stack_alternate_setting_set.c ****         /* Check if this is a configuration descriptor. */
 190:../STM32Cube_FW_N6/Middlewares/ST/usbx/common/core/src/ux_device_stack_alternate_setting_set.c ****         if (descriptor_type == UX_CONFIGURATION_DESCRIPTOR_ITEM)
 191:../STM32Cube_FW_N6/Middlewares/ST/usbx/common/core/src/ux_device_stack_alternate_setting_set.c ****         {
 192:../STM32Cube_FW_N6/Middlewares/ST/usbx/common/core/src/ux_device_stack_alternate_setting_set.c **** 
 193:../STM32Cube_FW_N6/Middlewares/ST/usbx/common/core/src/ux_device_stack_alternate_setting_set.c ****             /* Parse the descriptor in something more readable. */
 194:../STM32Cube_FW_N6/Middlewares/ST/usbx/common/core/src/ux_device_stack_alternate_setting_set.c ****             _ux_utility_descriptor_parse(device_framework,
 195:../STM32Cube_FW_N6/Middlewares/ST/usbx/common/core/src/ux_device_stack_alternate_setting_set.c ****                         _ux_system_configuration_descriptor_structure,
 196:../STM32Cube_FW_N6/Middlewares/ST/usbx/common/core/src/ux_device_stack_alternate_setting_set.c ****                         UX_CONFIGURATION_DESCRIPTOR_ENTRIES,
 197:../STM32Cube_FW_N6/Middlewares/ST/usbx/common/core/src/ux_device_stack_alternate_setting_set.c ****                         (UCHAR *) &configuration_descriptor);
 198:../STM32Cube_FW_N6/Middlewares/ST/usbx/common/core/src/ux_device_stack_alternate_setting_set.c **** 
 199:../STM32Cube_FW_N6/Middlewares/ST/usbx/common/core/src/ux_device_stack_alternate_setting_set.c ****             /* Now we need to check the configuration value.  */
 200:../STM32Cube_FW_N6/Middlewares/ST/usbx/common/core/src/ux_device_stack_alternate_setting_set.c ****             if (configuration_descriptor.bConfigurationValue == device -> ux_slave_device_configura
 201:../STM32Cube_FW_N6/Middlewares/ST/usbx/common/core/src/ux_device_stack_alternate_setting_set.c ****             {
 202:../STM32Cube_FW_N6/Middlewares/ST/usbx/common/core/src/ux_device_stack_alternate_setting_set.c **** 
 203:../STM32Cube_FW_N6/Middlewares/ST/usbx/common/core/src/ux_device_stack_alternate_setting_set.c ****                 /* Limit the search in current configuration descriptor. */
 204:../STM32Cube_FW_N6/Middlewares/ST/usbx/common/core/src/ux_device_stack_alternate_setting_set.c ****                 device_framework_length = configuration_descriptor.wTotalLength;
 205:../STM32Cube_FW_N6/Middlewares/ST/usbx/common/core/src/ux_device_stack_alternate_setting_set.c **** 
 206:../STM32Cube_FW_N6/Middlewares/ST/usbx/common/core/src/ux_device_stack_alternate_setting_set.c ****                 /* We have found the configuration value that was selected by the host   
 207:../STM32Cube_FW_N6/Middlewares/ST/usbx/common/core/src/ux_device_stack_alternate_setting_set.c ****                    We need to scan all the interface descriptors following this
 208:../STM32Cube_FW_N6/Middlewares/ST/usbx/common/core/src/ux_device_stack_alternate_setting_set.c ****                    configuration descriptor and locate the interface for which the alternate
 209:../STM32Cube_FW_N6/Middlewares/ST/usbx/common/core/src/ux_device_stack_alternate_setting_set.c ****                    setting must be changed. */
 210:../STM32Cube_FW_N6/Middlewares/ST/usbx/common/core/src/ux_device_stack_alternate_setting_set.c ****                 while (device_framework_length != 0)
 211:../STM32Cube_FW_N6/Middlewares/ST/usbx/common/core/src/ux_device_stack_alternate_setting_set.c ****                 {
 212:../STM32Cube_FW_N6/Middlewares/ST/usbx/common/core/src/ux_device_stack_alternate_setting_set.c **** 
 213:../STM32Cube_FW_N6/Middlewares/ST/usbx/common/core/src/ux_device_stack_alternate_setting_set.c ****                     /* Get the length of the current descriptor.  */
 214:../STM32Cube_FW_N6/Middlewares/ST/usbx/common/core/src/ux_device_stack_alternate_setting_set.c ****                     descriptor_length =  (ULONG) *device_framework;
 215:../STM32Cube_FW_N6/Middlewares/ST/usbx/common/core/src/ux_device_stack_alternate_setting_set.c **** 
 216:../STM32Cube_FW_N6/Middlewares/ST/usbx/common/core/src/ux_device_stack_alternate_setting_set.c ****                     /* And its type.  */
 217:../STM32Cube_FW_N6/Middlewares/ST/usbx/common/core/src/ux_device_stack_alternate_setting_set.c ****                     descriptor_type = *(device_framework + 1); 
 218:../STM32Cube_FW_N6/Middlewares/ST/usbx/common/core/src/ux_device_stack_alternate_setting_set.c ****                 
 219:../STM32Cube_FW_N6/Middlewares/ST/usbx/common/core/src/ux_device_stack_alternate_setting_set.c ****                     /* Check if this is an interface descriptor. */
 220:../STM32Cube_FW_N6/Middlewares/ST/usbx/common/core/src/ux_device_stack_alternate_setting_set.c ****                     if (descriptor_type == UX_INTERFACE_DESCRIPTOR_ITEM)
 221:../STM32Cube_FW_N6/Middlewares/ST/usbx/common/core/src/ux_device_stack_alternate_setting_set.c ****                     {
 222:../STM32Cube_FW_N6/Middlewares/ST/usbx/common/core/src/ux_device_stack_alternate_setting_set.c **** 
 223:../STM32Cube_FW_N6/Middlewares/ST/usbx/common/core/src/ux_device_stack_alternate_setting_set.c ****                         /* Parse the descriptor in something more readable. */
 224:../STM32Cube_FW_N6/Middlewares/ST/usbx/common/core/src/ux_device_stack_alternate_setting_set.c ****                         _ux_utility_descriptor_parse(device_framework,
 225:../STM32Cube_FW_N6/Middlewares/ST/usbx/common/core/src/ux_device_stack_alternate_setting_set.c ****                                     _ux_system_interface_descriptor_structure,
 226:../STM32Cube_FW_N6/Middlewares/ST/usbx/common/core/src/ux_device_stack_alternate_setting_set.c ****                                     UX_INTERFACE_DESCRIPTOR_ENTRIES,
 227:../STM32Cube_FW_N6/Middlewares/ST/usbx/common/core/src/ux_device_stack_alternate_setting_set.c ****                                     (UCHAR *) &interface_descriptor);
 228:../STM32Cube_FW_N6/Middlewares/ST/usbx/common/core/src/ux_device_stack_alternate_setting_set.c **** 
ARM GAS  /tmp/ccH51WEt.s 			page 7


 229:../STM32Cube_FW_N6/Middlewares/ST/usbx/common/core/src/ux_device_stack_alternate_setting_set.c ****                         /* Check if this is the interface we are searching. */
 230:../STM32Cube_FW_N6/Middlewares/ST/usbx/common/core/src/ux_device_stack_alternate_setting_set.c ****                         if (interface_descriptor.bInterfaceNumber == interface_value &&
 231:../STM32Cube_FW_N6/Middlewares/ST/usbx/common/core/src/ux_device_stack_alternate_setting_set.c ****                             interface_descriptor.bAlternateSetting == alternate_setting_value)
 232:../STM32Cube_FW_N6/Middlewares/ST/usbx/common/core/src/ux_device_stack_alternate_setting_set.c ****                         {
 233:../STM32Cube_FW_N6/Middlewares/ST/usbx/common/core/src/ux_device_stack_alternate_setting_set.c **** 
 234:../STM32Cube_FW_N6/Middlewares/ST/usbx/common/core/src/ux_device_stack_alternate_setting_set.c ****                             /* We have found the right interface and alternate setting. Before
 235:../STM32Cube_FW_N6/Middlewares/ST/usbx/common/core/src/ux_device_stack_alternate_setting_set.c ****                                we mount all the endpoints for this interface, we need to
 236:../STM32Cube_FW_N6/Middlewares/ST/usbx/common/core/src/ux_device_stack_alternate_setting_set.c ****                                unmount the endpoints associated with the previous alternate setting
 237:../STM32Cube_FW_N6/Middlewares/ST/usbx/common/core/src/ux_device_stack_alternate_setting_set.c ****                             endpoint =  interface_ptr -> ux_slave_interface_first_endpoint;
 238:../STM32Cube_FW_N6/Middlewares/ST/usbx/common/core/src/ux_device_stack_alternate_setting_set.c ****                             while (endpoint != UX_NULL)
 239:../STM32Cube_FW_N6/Middlewares/ST/usbx/common/core/src/ux_device_stack_alternate_setting_set.c ****                             {
 240:../STM32Cube_FW_N6/Middlewares/ST/usbx/common/core/src/ux_device_stack_alternate_setting_set.c **** 
 241:../STM32Cube_FW_N6/Middlewares/ST/usbx/common/core/src/ux_device_stack_alternate_setting_set.c ****                                 /* Abort any pending transfer.  */
 242:../STM32Cube_FW_N6/Middlewares/ST/usbx/common/core/src/ux_device_stack_alternate_setting_set.c ****                                 _ux_device_stack_transfer_all_request_abort(endpoint, UX_TRANSFER_B
 243:../STM32Cube_FW_N6/Middlewares/ST/usbx/common/core/src/ux_device_stack_alternate_setting_set.c **** 
 244:../STM32Cube_FW_N6/Middlewares/ST/usbx/common/core/src/ux_device_stack_alternate_setting_set.c ****                                 /* The device controller must be called to destroy the endpoint.  *
 245:../STM32Cube_FW_N6/Middlewares/ST/usbx/common/core/src/ux_device_stack_alternate_setting_set.c ****                                 dcd -> ux_slave_dcd_function(dcd, UX_DCD_DESTROY_ENDPOINT, (VOID *)
 246:../STM32Cube_FW_N6/Middlewares/ST/usbx/common/core/src/ux_device_stack_alternate_setting_set.c **** 
 247:../STM32Cube_FW_N6/Middlewares/ST/usbx/common/core/src/ux_device_stack_alternate_setting_set.c ****                                 /* Get the next endpoint.  */
 248:../STM32Cube_FW_N6/Middlewares/ST/usbx/common/core/src/ux_device_stack_alternate_setting_set.c ****                                 next_endpoint =  endpoint -> ux_slave_endpoint_next_endpoint;
 249:../STM32Cube_FW_N6/Middlewares/ST/usbx/common/core/src/ux_device_stack_alternate_setting_set.c ****                 
 250:../STM32Cube_FW_N6/Middlewares/ST/usbx/common/core/src/ux_device_stack_alternate_setting_set.c ****                                 /* Free the endpoint.  */
 251:../STM32Cube_FW_N6/Middlewares/ST/usbx/common/core/src/ux_device_stack_alternate_setting_set.c ****                                 endpoint -> ux_slave_endpoint_status =  UX_UNUSED;
 252:../STM32Cube_FW_N6/Middlewares/ST/usbx/common/core/src/ux_device_stack_alternate_setting_set.c ****                         
 253:../STM32Cube_FW_N6/Middlewares/ST/usbx/common/core/src/ux_device_stack_alternate_setting_set.c ****                                 /* Make sure the endpoint instance is now cleaned up.  */
 254:../STM32Cube_FW_N6/Middlewares/ST/usbx/common/core/src/ux_device_stack_alternate_setting_set.c ****                                 endpoint -> ux_slave_endpoint_state =  0;
 255:../STM32Cube_FW_N6/Middlewares/ST/usbx/common/core/src/ux_device_stack_alternate_setting_set.c ****                                 endpoint -> ux_slave_endpoint_next_endpoint =  UX_NULL;
 256:../STM32Cube_FW_N6/Middlewares/ST/usbx/common/core/src/ux_device_stack_alternate_setting_set.c ****                                 endpoint -> ux_slave_endpoint_interface =  UX_NULL;
 257:../STM32Cube_FW_N6/Middlewares/ST/usbx/common/core/src/ux_device_stack_alternate_setting_set.c ****                                 endpoint -> ux_slave_endpoint_device =  UX_NULL;
 258:../STM32Cube_FW_N6/Middlewares/ST/usbx/common/core/src/ux_device_stack_alternate_setting_set.c ****                                                         
 259:../STM32Cube_FW_N6/Middlewares/ST/usbx/common/core/src/ux_device_stack_alternate_setting_set.c ****                                 /* Now we refresh the endpoint pointer.  */
 260:../STM32Cube_FW_N6/Middlewares/ST/usbx/common/core/src/ux_device_stack_alternate_setting_set.c ****                                 endpoint =  next_endpoint;
 261:../STM32Cube_FW_N6/Middlewares/ST/usbx/common/core/src/ux_device_stack_alternate_setting_set.c ****                             }
 262:../STM32Cube_FW_N6/Middlewares/ST/usbx/common/core/src/ux_device_stack_alternate_setting_set.c **** 
 263:../STM32Cube_FW_N6/Middlewares/ST/usbx/common/core/src/ux_device_stack_alternate_setting_set.c ****                             /* Now clear the interface endpoint entry.  */
 264:../STM32Cube_FW_N6/Middlewares/ST/usbx/common/core/src/ux_device_stack_alternate_setting_set.c ****                             interface_ptr -> ux_slave_interface_first_endpoint = UX_NULL;
 265:../STM32Cube_FW_N6/Middlewares/ST/usbx/common/core/src/ux_device_stack_alternate_setting_set.c **** 
 266:../STM32Cube_FW_N6/Middlewares/ST/usbx/common/core/src/ux_device_stack_alternate_setting_set.c ****                             /* Point beyond the interface descriptor.  */
 267:../STM32Cube_FW_N6/Middlewares/ST/usbx/common/core/src/ux_device_stack_alternate_setting_set.c ****                             device_framework_length -=  (ULONG) *device_framework;
 268:../STM32Cube_FW_N6/Middlewares/ST/usbx/common/core/src/ux_device_stack_alternate_setting_set.c ****                             device_framework +=  (ULONG) *device_framework;
 269:../STM32Cube_FW_N6/Middlewares/ST/usbx/common/core/src/ux_device_stack_alternate_setting_set.c ****                         
 270:../STM32Cube_FW_N6/Middlewares/ST/usbx/common/core/src/ux_device_stack_alternate_setting_set.c ****                             /* Parse the device framework and locate endpoint descriptor(s).  */
 271:../STM32Cube_FW_N6/Middlewares/ST/usbx/common/core/src/ux_device_stack_alternate_setting_set.c ****                             while (device_framework_length != 0)
 272:../STM32Cube_FW_N6/Middlewares/ST/usbx/common/core/src/ux_device_stack_alternate_setting_set.c ****                             {
 273:../STM32Cube_FW_N6/Middlewares/ST/usbx/common/core/src/ux_device_stack_alternate_setting_set.c ****                         
 274:../STM32Cube_FW_N6/Middlewares/ST/usbx/common/core/src/ux_device_stack_alternate_setting_set.c ****                                 /* Get the length of the current descriptor.  */
 275:../STM32Cube_FW_N6/Middlewares/ST/usbx/common/core/src/ux_device_stack_alternate_setting_set.c ****                                 descriptor_length =  (ULONG) *device_framework;
 276:../STM32Cube_FW_N6/Middlewares/ST/usbx/common/core/src/ux_device_stack_alternate_setting_set.c ****                         
 277:../STM32Cube_FW_N6/Middlewares/ST/usbx/common/core/src/ux_device_stack_alternate_setting_set.c ****                                 /* And its type.  */
 278:../STM32Cube_FW_N6/Middlewares/ST/usbx/common/core/src/ux_device_stack_alternate_setting_set.c ****                                 descriptor_type =  *(device_framework + 1);
 279:../STM32Cube_FW_N6/Middlewares/ST/usbx/common/core/src/ux_device_stack_alternate_setting_set.c ****                                         
 280:../STM32Cube_FW_N6/Middlewares/ST/usbx/common/core/src/ux_device_stack_alternate_setting_set.c ****                                 /* Check if this is an endpoint descriptor.  */
 281:../STM32Cube_FW_N6/Middlewares/ST/usbx/common/core/src/ux_device_stack_alternate_setting_set.c ****                                 switch(descriptor_type)
 282:../STM32Cube_FW_N6/Middlewares/ST/usbx/common/core/src/ux_device_stack_alternate_setting_set.c ****                                 {
 283:../STM32Cube_FW_N6/Middlewares/ST/usbx/common/core/src/ux_device_stack_alternate_setting_set.c ****                         
 284:../STM32Cube_FW_N6/Middlewares/ST/usbx/common/core/src/ux_device_stack_alternate_setting_set.c ****                                 case UX_ENDPOINT_DESCRIPTOR_ITEM:
 285:../STM32Cube_FW_N6/Middlewares/ST/usbx/common/core/src/ux_device_stack_alternate_setting_set.c ****                         
ARM GAS  /tmp/ccH51WEt.s 			page 8


 286:../STM32Cube_FW_N6/Middlewares/ST/usbx/common/core/src/ux_device_stack_alternate_setting_set.c ****                                     /* Find a free endpoint in the pool and hook it to the 
 287:../STM32Cube_FW_N6/Middlewares/ST/usbx/common/core/src/ux_device_stack_alternate_setting_set.c ****                                        existing interface after it's created by DCD.  */
 288:../STM32Cube_FW_N6/Middlewares/ST/usbx/common/core/src/ux_device_stack_alternate_setting_set.c ****                                     endpoint = device -> ux_slave_device_endpoints_pool;
 289:../STM32Cube_FW_N6/Middlewares/ST/usbx/common/core/src/ux_device_stack_alternate_setting_set.c ****                                     endpoints_pool_number = device -> ux_slave_device_endpoints_poo
 290:../STM32Cube_FW_N6/Middlewares/ST/usbx/common/core/src/ux_device_stack_alternate_setting_set.c ****                                     while (endpoints_pool_number != 0)
 291:../STM32Cube_FW_N6/Middlewares/ST/usbx/common/core/src/ux_device_stack_alternate_setting_set.c ****                                     {
 292:../STM32Cube_FW_N6/Middlewares/ST/usbx/common/core/src/ux_device_stack_alternate_setting_set.c ****                                         /* Check if this endpoint is free.  */
 293:../STM32Cube_FW_N6/Middlewares/ST/usbx/common/core/src/ux_device_stack_alternate_setting_set.c ****                                         if (endpoint ->    ux_slave_endpoint_status == UX_UNUSED)
 294:../STM32Cube_FW_N6/Middlewares/ST/usbx/common/core/src/ux_device_stack_alternate_setting_set.c ****                                         {
 295:../STM32Cube_FW_N6/Middlewares/ST/usbx/common/core/src/ux_device_stack_alternate_setting_set.c ****                                             /* Mark this endpoint as used now.  */
 296:../STM32Cube_FW_N6/Middlewares/ST/usbx/common/core/src/ux_device_stack_alternate_setting_set.c ****                                             endpoint ->    ux_slave_endpoint_status = UX_USED;
 297:../STM32Cube_FW_N6/Middlewares/ST/usbx/common/core/src/ux_device_stack_alternate_setting_set.c ****                                             break;
 298:../STM32Cube_FW_N6/Middlewares/ST/usbx/common/core/src/ux_device_stack_alternate_setting_set.c ****                                         }
 299:../STM32Cube_FW_N6/Middlewares/ST/usbx/common/core/src/ux_device_stack_alternate_setting_set.c ****                                     
 300:../STM32Cube_FW_N6/Middlewares/ST/usbx/common/core/src/ux_device_stack_alternate_setting_set.c ****                                         /* Try the next endpoint.  */
 301:../STM32Cube_FW_N6/Middlewares/ST/usbx/common/core/src/ux_device_stack_alternate_setting_set.c ****                                         endpoint++;
 302:../STM32Cube_FW_N6/Middlewares/ST/usbx/common/core/src/ux_device_stack_alternate_setting_set.c ****                                         
 303:../STM32Cube_FW_N6/Middlewares/ST/usbx/common/core/src/ux_device_stack_alternate_setting_set.c ****                                         /* Decrement the number of endpoints to scan from the pool.
 304:../STM32Cube_FW_N6/Middlewares/ST/usbx/common/core/src/ux_device_stack_alternate_setting_set.c ****                                        endpoints_pool_number--; 
 305:../STM32Cube_FW_N6/Middlewares/ST/usbx/common/core/src/ux_device_stack_alternate_setting_set.c ****                                     }
 306:../STM32Cube_FW_N6/Middlewares/ST/usbx/common/core/src/ux_device_stack_alternate_setting_set.c ****                         
 307:../STM32Cube_FW_N6/Middlewares/ST/usbx/common/core/src/ux_device_stack_alternate_setting_set.c ****                                     /* Did we find a free endpoint ?  */
 308:../STM32Cube_FW_N6/Middlewares/ST/usbx/common/core/src/ux_device_stack_alternate_setting_set.c ****                                     if (endpoints_pool_number == 0)
 309:../STM32Cube_FW_N6/Middlewares/ST/usbx/common/core/src/ux_device_stack_alternate_setting_set.c ****                                         return(UX_MEMORY_INSUFFICIENT);
 310:../STM32Cube_FW_N6/Middlewares/ST/usbx/common/core/src/ux_device_stack_alternate_setting_set.c **** 
 311:../STM32Cube_FW_N6/Middlewares/ST/usbx/common/core/src/ux_device_stack_alternate_setting_set.c ****                                     /* Parse the descriptor in something more readable.  */
 312:../STM32Cube_FW_N6/Middlewares/ST/usbx/common/core/src/ux_device_stack_alternate_setting_set.c ****                                     _ux_utility_descriptor_parse(device_framework,
 313:../STM32Cube_FW_N6/Middlewares/ST/usbx/common/core/src/ux_device_stack_alternate_setting_set.c ****                                                     _ux_system_endpoint_descriptor_structure,
 314:../STM32Cube_FW_N6/Middlewares/ST/usbx/common/core/src/ux_device_stack_alternate_setting_set.c ****                                                     UX_ENDPOINT_DESCRIPTOR_ENTRIES,
 315:../STM32Cube_FW_N6/Middlewares/ST/usbx/common/core/src/ux_device_stack_alternate_setting_set.c ****                                                     (UCHAR *) &endpoint -> ux_slave_endpoint_descri
 316:../STM32Cube_FW_N6/Middlewares/ST/usbx/common/core/src/ux_device_stack_alternate_setting_set.c **** 
 317:../STM32Cube_FW_N6/Middlewares/ST/usbx/common/core/src/ux_device_stack_alternate_setting_set.c ****                                     /* Now we create a transfer request to accept transfer on this 
 318:../STM32Cube_FW_N6/Middlewares/ST/usbx/common/core/src/ux_device_stack_alternate_setting_set.c ****                                     transfer_request =  &endpoint -> ux_slave_endpoint_transfer_req
 319:../STM32Cube_FW_N6/Middlewares/ST/usbx/common/core/src/ux_device_stack_alternate_setting_set.c ****                                         
 320:../STM32Cube_FW_N6/Middlewares/ST/usbx/common/core/src/ux_device_stack_alternate_setting_set.c ****                                     /* Validate descriptor wMaxPacketSize.  */
 321:../STM32Cube_FW_N6/Middlewares/ST/usbx/common/core/src/ux_device_stack_alternate_setting_set.c ****                                     UX_ASSERT(endpoint -> ux_slave_endpoint_descriptor.wMaxPacketSi
 322:../STM32Cube_FW_N6/Middlewares/ST/usbx/common/core/src/ux_device_stack_alternate_setting_set.c **** 
 323:../STM32Cube_FW_N6/Middlewares/ST/usbx/common/core/src/ux_device_stack_alternate_setting_set.c ****                                     /* Calculate endpoint transfer payload max size.  */
 324:../STM32Cube_FW_N6/Middlewares/ST/usbx/common/core/src/ux_device_stack_alternate_setting_set.c ****                                     max_transfer_length =
 325:../STM32Cube_FW_N6/Middlewares/ST/usbx/common/core/src/ux_device_stack_alternate_setting_set.c ****                                             endpoint -> ux_slave_endpoint_descriptor.wMaxPacketSize
 326:../STM32Cube_FW_N6/Middlewares/ST/usbx/common/core/src/ux_device_stack_alternate_setting_set.c ****                                                                                 UX_MAX_PACKET_SIZE_
 327:../STM32Cube_FW_N6/Middlewares/ST/usbx/common/core/src/ux_device_stack_alternate_setting_set.c ****                                     if ((_ux_system_slave -> ux_system_slave_speed == UX_HIGH_SPEED
 328:../STM32Cube_FW_N6/Middlewares/ST/usbx/common/core/src/ux_device_stack_alternate_setting_set.c ****                                         (endpoint -> ux_slave_endpoint_descriptor.bmAttributes & 0x
 329:../STM32Cube_FW_N6/Middlewares/ST/usbx/common/core/src/ux_device_stack_alternate_setting_set.c ****                                     {
 330:../STM32Cube_FW_N6/Middlewares/ST/usbx/common/core/src/ux_device_stack_alternate_setting_set.c ****                                         n_trans = endpoint -> ux_slave_endpoint_descriptor.wMaxPack
 331:../STM32Cube_FW_N6/Middlewares/ST/usbx/common/core/src/ux_device_stack_alternate_setting_set.c ****                                                                     UX_MAX_NUMBER_OF_TRANSACTIONS_M
 332:../STM32Cube_FW_N6/Middlewares/ST/usbx/common/core/src/ux_device_stack_alternate_setting_set.c ****                                         if (n_trans)
 333:../STM32Cube_FW_N6/Middlewares/ST/usbx/common/core/src/ux_device_stack_alternate_setting_set.c ****                                         {
 334:../STM32Cube_FW_N6/Middlewares/ST/usbx/common/core/src/ux_device_stack_alternate_setting_set.c ****                                             n_trans >>= UX_MAX_NUMBER_OF_TRANSACTIONS_SHIFT;
 335:../STM32Cube_FW_N6/Middlewares/ST/usbx/common/core/src/ux_device_stack_alternate_setting_set.c ****                                             n_trans ++;
 336:../STM32Cube_FW_N6/Middlewares/ST/usbx/common/core/src/ux_device_stack_alternate_setting_set.c ****                                             max_transfer_length *= n_trans;
 337:../STM32Cube_FW_N6/Middlewares/ST/usbx/common/core/src/ux_device_stack_alternate_setting_set.c ****                                         }
 338:../STM32Cube_FW_N6/Middlewares/ST/usbx/common/core/src/ux_device_stack_alternate_setting_set.c ****                                     }
 339:../STM32Cube_FW_N6/Middlewares/ST/usbx/common/core/src/ux_device_stack_alternate_setting_set.c **** 
 340:../STM32Cube_FW_N6/Middlewares/ST/usbx/common/core/src/ux_device_stack_alternate_setting_set.c ****                                     /* Validate max transfer size and save it.  */
 341:../STM32Cube_FW_N6/Middlewares/ST/usbx/common/core/src/ux_device_stack_alternate_setting_set.c ****                                     UX_ASSERT(max_transfer_length <= UX_SLAVE_REQUEST_DATA_MAX_LENG
 342:../STM32Cube_FW_N6/Middlewares/ST/usbx/common/core/src/ux_device_stack_alternate_setting_set.c ****                                     transfer_request -> ux_slave_transfer_request_transfer_length =
ARM GAS  /tmp/ccH51WEt.s 			page 9


 343:../STM32Cube_FW_N6/Middlewares/ST/usbx/common/core/src/ux_device_stack_alternate_setting_set.c **** 
 344:../STM32Cube_FW_N6/Middlewares/ST/usbx/common/core/src/ux_device_stack_alternate_setting_set.c ****                                     /* We store the endpoint in the transfer request as well.  */
 345:../STM32Cube_FW_N6/Middlewares/ST/usbx/common/core/src/ux_device_stack_alternate_setting_set.c ****                                     transfer_request -> ux_slave_transfer_request_endpoint =  endpo
 346:../STM32Cube_FW_N6/Middlewares/ST/usbx/common/core/src/ux_device_stack_alternate_setting_set.c ****                                         
 347:../STM32Cube_FW_N6/Middlewares/ST/usbx/common/core/src/ux_device_stack_alternate_setting_set.c ****                                     /* By default the timeout is infinite on request.  */
 348:../STM32Cube_FW_N6/Middlewares/ST/usbx/common/core/src/ux_device_stack_alternate_setting_set.c ****                                     transfer_request -> ux_slave_transfer_request_timeout = UX_WAIT
 349:../STM32Cube_FW_N6/Middlewares/ST/usbx/common/core/src/ux_device_stack_alternate_setting_set.c ****                                     
 350:../STM32Cube_FW_N6/Middlewares/ST/usbx/common/core/src/ux_device_stack_alternate_setting_set.c ****                                     /* Attach the interface to the endpoint.  */
 351:../STM32Cube_FW_N6/Middlewares/ST/usbx/common/core/src/ux_device_stack_alternate_setting_set.c ****                                     endpoint -> ux_slave_endpoint_interface =  interface_ptr;
 352:../STM32Cube_FW_N6/Middlewares/ST/usbx/common/core/src/ux_device_stack_alternate_setting_set.c ****                                         
 353:../STM32Cube_FW_N6/Middlewares/ST/usbx/common/core/src/ux_device_stack_alternate_setting_set.c ****                                     /* Attach the device to the endpoint.  */
 354:../STM32Cube_FW_N6/Middlewares/ST/usbx/common/core/src/ux_device_stack_alternate_setting_set.c ****                                     endpoint -> ux_slave_endpoint_device =  device;
 355:../STM32Cube_FW_N6/Middlewares/ST/usbx/common/core/src/ux_device_stack_alternate_setting_set.c **** 
 356:../STM32Cube_FW_N6/Middlewares/ST/usbx/common/core/src/ux_device_stack_alternate_setting_set.c ****                                     /* Create the endpoint at the DCD level.  */
 357:../STM32Cube_FW_N6/Middlewares/ST/usbx/common/core/src/ux_device_stack_alternate_setting_set.c ****                                     status =  dcd -> ux_slave_dcd_function(dcd, UX_DCD_CREATE_ENDPO
 358:../STM32Cube_FW_N6/Middlewares/ST/usbx/common/core/src/ux_device_stack_alternate_setting_set.c **** 
 359:../STM32Cube_FW_N6/Middlewares/ST/usbx/common/core/src/ux_device_stack_alternate_setting_set.c ****                                     /* Do a sanity check on endpoint creation.  */
 360:../STM32Cube_FW_N6/Middlewares/ST/usbx/common/core/src/ux_device_stack_alternate_setting_set.c ****                                     if (status != UX_SUCCESS)
 361:../STM32Cube_FW_N6/Middlewares/ST/usbx/common/core/src/ux_device_stack_alternate_setting_set.c ****                                     {
 362:../STM32Cube_FW_N6/Middlewares/ST/usbx/common/core/src/ux_device_stack_alternate_setting_set.c **** 
 363:../STM32Cube_FW_N6/Middlewares/ST/usbx/common/core/src/ux_device_stack_alternate_setting_set.c ****                                         /* Error was returned, endpoint cannot be created.  */
 364:../STM32Cube_FW_N6/Middlewares/ST/usbx/common/core/src/ux_device_stack_alternate_setting_set.c ****                                         endpoint -> ux_slave_endpoint_status = UX_UNUSED;
 365:../STM32Cube_FW_N6/Middlewares/ST/usbx/common/core/src/ux_device_stack_alternate_setting_set.c ****                                         return(status);
 366:../STM32Cube_FW_N6/Middlewares/ST/usbx/common/core/src/ux_device_stack_alternate_setting_set.c ****                                     }
 367:../STM32Cube_FW_N6/Middlewares/ST/usbx/common/core/src/ux_device_stack_alternate_setting_set.c **** 
 368:../STM32Cube_FW_N6/Middlewares/ST/usbx/common/core/src/ux_device_stack_alternate_setting_set.c ****                                     /* Attach this endpoint to the end of the endpoint chain.  */
 369:../STM32Cube_FW_N6/Middlewares/ST/usbx/common/core/src/ux_device_stack_alternate_setting_set.c ****                                     if (interface_ptr -> ux_slave_interface_first_endpoint == UX_NU
 370:../STM32Cube_FW_N6/Middlewares/ST/usbx/common/core/src/ux_device_stack_alternate_setting_set.c ****                                     {
 371:../STM32Cube_FW_N6/Middlewares/ST/usbx/common/core/src/ux_device_stack_alternate_setting_set.c ****                         
 372:../STM32Cube_FW_N6/Middlewares/ST/usbx/common/core/src/ux_device_stack_alternate_setting_set.c ****                                         interface_ptr -> ux_slave_interface_first_endpoint =  endpo
 373:../STM32Cube_FW_N6/Middlewares/ST/usbx/common/core/src/ux_device_stack_alternate_setting_set.c ****                                     }
 374:../STM32Cube_FW_N6/Middlewares/ST/usbx/common/core/src/ux_device_stack_alternate_setting_set.c ****                                     else
 375:../STM32Cube_FW_N6/Middlewares/ST/usbx/common/core/src/ux_device_stack_alternate_setting_set.c ****                                     {
 376:../STM32Cube_FW_N6/Middlewares/ST/usbx/common/core/src/ux_device_stack_alternate_setting_set.c ****                                         /* Multiple endpoints exist, so find the end of the chain. 
 377:../STM32Cube_FW_N6/Middlewares/ST/usbx/common/core/src/ux_device_stack_alternate_setting_set.c ****                                         endpoint_link =  interface_ptr -> ux_slave_interface_first_
 378:../STM32Cube_FW_N6/Middlewares/ST/usbx/common/core/src/ux_device_stack_alternate_setting_set.c ****                                         while (endpoint_link -> ux_slave_endpoint_next_endpoint != 
 379:../STM32Cube_FW_N6/Middlewares/ST/usbx/common/core/src/ux_device_stack_alternate_setting_set.c ****                                             endpoint_link =  endpoint_link -> ux_slave_endpoint_nex
 380:../STM32Cube_FW_N6/Middlewares/ST/usbx/common/core/src/ux_device_stack_alternate_setting_set.c ****                                         endpoint_link -> ux_slave_endpoint_next_endpoint =  endpoin
 381:../STM32Cube_FW_N6/Middlewares/ST/usbx/common/core/src/ux_device_stack_alternate_setting_set.c ****                                     }
 382:../STM32Cube_FW_N6/Middlewares/ST/usbx/common/core/src/ux_device_stack_alternate_setting_set.c ****                         
 383:../STM32Cube_FW_N6/Middlewares/ST/usbx/common/core/src/ux_device_stack_alternate_setting_set.c ****                                     break;
 384:../STM32Cube_FW_N6/Middlewares/ST/usbx/common/core/src/ux_device_stack_alternate_setting_set.c ****                         
 385:../STM32Cube_FW_N6/Middlewares/ST/usbx/common/core/src/ux_device_stack_alternate_setting_set.c ****                                 case UX_CONFIGURATION_DESCRIPTOR_ITEM:
 386:../STM32Cube_FW_N6/Middlewares/ST/usbx/common/core/src/ux_device_stack_alternate_setting_set.c ****                                 case UX_INTERFACE_DESCRIPTOR_ITEM:
 387:../STM32Cube_FW_N6/Middlewares/ST/usbx/common/core/src/ux_device_stack_alternate_setting_set.c ****                         
 388:../STM32Cube_FW_N6/Middlewares/ST/usbx/common/core/src/ux_device_stack_alternate_setting_set.c ****                                     /* We have found a new configuration or interface descriptor, t
 389:../STM32Cube_FW_N6/Middlewares/ST/usbx/common/core/src/ux_device_stack_alternate_setting_set.c ****                                        interface. The search for the endpoints must be terminated a
 390:../STM32Cube_FW_N6/Middlewares/ST/usbx/common/core/src/ux_device_stack_alternate_setting_set.c ****                                        entire descriptor.  */
 391:../STM32Cube_FW_N6/Middlewares/ST/usbx/common/core/src/ux_device_stack_alternate_setting_set.c ****                                     device_framework_length =  descriptor_length;
 392:../STM32Cube_FW_N6/Middlewares/ST/usbx/common/core/src/ux_device_stack_alternate_setting_set.c ****                                        
 393:../STM32Cube_FW_N6/Middlewares/ST/usbx/common/core/src/ux_device_stack_alternate_setting_set.c ****                                     break;
 394:../STM32Cube_FW_N6/Middlewares/ST/usbx/common/core/src/ux_device_stack_alternate_setting_set.c **** 
 395:../STM32Cube_FW_N6/Middlewares/ST/usbx/common/core/src/ux_device_stack_alternate_setting_set.c **** 
 396:../STM32Cube_FW_N6/Middlewares/ST/usbx/common/core/src/ux_device_stack_alternate_setting_set.c ****                                 default:
 397:../STM32Cube_FW_N6/Middlewares/ST/usbx/common/core/src/ux_device_stack_alternate_setting_set.c ****                                 
 398:../STM32Cube_FW_N6/Middlewares/ST/usbx/common/core/src/ux_device_stack_alternate_setting_set.c ****                                     /* We have found another descriptor embedded in the interface. 
 399:../STM32Cube_FW_N6/Middlewares/ST/usbx/common/core/src/ux_device_stack_alternate_setting_set.c ****                                     break;
ARM GAS  /tmp/ccH51WEt.s 			page 10


 400:../STM32Cube_FW_N6/Middlewares/ST/usbx/common/core/src/ux_device_stack_alternate_setting_set.c ****                                 }
 401:../STM32Cube_FW_N6/Middlewares/ST/usbx/common/core/src/ux_device_stack_alternate_setting_set.c ****                         
 402:../STM32Cube_FW_N6/Middlewares/ST/usbx/common/core/src/ux_device_stack_alternate_setting_set.c ****                                 /* Adjust what is left of the device framework.  */
 403:../STM32Cube_FW_N6/Middlewares/ST/usbx/common/core/src/ux_device_stack_alternate_setting_set.c ****                                 device_framework_length -=  descriptor_length;
 404:../STM32Cube_FW_N6/Middlewares/ST/usbx/common/core/src/ux_device_stack_alternate_setting_set.c ****                         
 405:../STM32Cube_FW_N6/Middlewares/ST/usbx/common/core/src/ux_device_stack_alternate_setting_set.c ****                                 /* Point to the next descriptor.  */
 406:../STM32Cube_FW_N6/Middlewares/ST/usbx/common/core/src/ux_device_stack_alternate_setting_set.c ****                                 device_framework +=  descriptor_length;
 407:../STM32Cube_FW_N6/Middlewares/ST/usbx/common/core/src/ux_device_stack_alternate_setting_set.c ****                             }
 408:../STM32Cube_FW_N6/Middlewares/ST/usbx/common/core/src/ux_device_stack_alternate_setting_set.c **** 
 409:../STM32Cube_FW_N6/Middlewares/ST/usbx/common/core/src/ux_device_stack_alternate_setting_set.c ****                             /* The interface descriptor in the current class must be changed to the
 410:../STM32Cube_FW_N6/Middlewares/ST/usbx/common/core/src/ux_device_stack_alternate_setting_set.c ****                             _ux_utility_memory_copy(&interface_ptr -> ux_slave_interface_descriptor
 411:../STM32Cube_FW_N6/Middlewares/ST/usbx/common/core/src/ux_device_stack_alternate_setting_set.c ****                             
 412:../STM32Cube_FW_N6/Middlewares/ST/usbx/common/core/src/ux_device_stack_alternate_setting_set.c ****                             /* Get the class for the interface.  */
 413:../STM32Cube_FW_N6/Middlewares/ST/usbx/common/core/src/ux_device_stack_alternate_setting_set.c ****                             class_ptr =  _ux_system_slave -> ux_system_slave_interface_class_array[
 414:../STM32Cube_FW_N6/Middlewares/ST/usbx/common/core/src/ux_device_stack_alternate_setting_set.c **** 
 415:../STM32Cube_FW_N6/Middlewares/ST/usbx/common/core/src/ux_device_stack_alternate_setting_set.c ****                             /* Check if class driver is available. */
 416:../STM32Cube_FW_N6/Middlewares/ST/usbx/common/core/src/ux_device_stack_alternate_setting_set.c ****                             if (class_ptr == UX_NULL || class_ptr -> ux_slave_class_status == UX_UN
 417:../STM32Cube_FW_N6/Middlewares/ST/usbx/common/core/src/ux_device_stack_alternate_setting_set.c ****                             {
 418:../STM32Cube_FW_N6/Middlewares/ST/usbx/common/core/src/ux_device_stack_alternate_setting_set.c **** 
 419:../STM32Cube_FW_N6/Middlewares/ST/usbx/common/core/src/ux_device_stack_alternate_setting_set.c ****                                 return (UX_NO_CLASS_MATCH);
 420:../STM32Cube_FW_N6/Middlewares/ST/usbx/common/core/src/ux_device_stack_alternate_setting_set.c ****                             }
 421:../STM32Cube_FW_N6/Middlewares/ST/usbx/common/core/src/ux_device_stack_alternate_setting_set.c ****                         
 422:../STM32Cube_FW_N6/Middlewares/ST/usbx/common/core/src/ux_device_stack_alternate_setting_set.c ****                             /* The interface attached to this configuration must be changed at the 
 423:../STM32Cube_FW_N6/Middlewares/ST/usbx/common/core/src/ux_device_stack_alternate_setting_set.c ****                                level.  */
 424:../STM32Cube_FW_N6/Middlewares/ST/usbx/common/core/src/ux_device_stack_alternate_setting_set.c ****                             class_command.ux_slave_class_command_request   =    UX_SLAVE_CLASS_COMM
 425:../STM32Cube_FW_N6/Middlewares/ST/usbx/common/core/src/ux_device_stack_alternate_setting_set.c ****                             class_command.ux_slave_class_command_interface =   (VOID *) interface_p
 426:../STM32Cube_FW_N6/Middlewares/ST/usbx/common/core/src/ux_device_stack_alternate_setting_set.c **** 
 427:../STM32Cube_FW_N6/Middlewares/ST/usbx/common/core/src/ux_device_stack_alternate_setting_set.c ****                             /* And store it.  */
 428:../STM32Cube_FW_N6/Middlewares/ST/usbx/common/core/src/ux_device_stack_alternate_setting_set.c ****                             class_command.ux_slave_class_command_class_ptr =  class_ptr;
 429:../STM32Cube_FW_N6/Middlewares/ST/usbx/common/core/src/ux_device_stack_alternate_setting_set.c ****                             
 430:../STM32Cube_FW_N6/Middlewares/ST/usbx/common/core/src/ux_device_stack_alternate_setting_set.c ****                             /* We can now memorize the interface pointer associated with this class
 431:../STM32Cube_FW_N6/Middlewares/ST/usbx/common/core/src/ux_device_stack_alternate_setting_set.c ****                             class_ptr -> ux_slave_class_interface = interface_ptr;
 432:../STM32Cube_FW_N6/Middlewares/ST/usbx/common/core/src/ux_device_stack_alternate_setting_set.c ****                             
 433:../STM32Cube_FW_N6/Middlewares/ST/usbx/common/core/src/ux_device_stack_alternate_setting_set.c ****                             /* We have found a potential candidate. Call this registered class entr
 434:../STM32Cube_FW_N6/Middlewares/ST/usbx/common/core/src/ux_device_stack_alternate_setting_set.c ****                             status = class_ptr -> ux_slave_class_entry_function(&class_command);
 435:../STM32Cube_FW_N6/Middlewares/ST/usbx/common/core/src/ux_device_stack_alternate_setting_set.c **** 
 436:../STM32Cube_FW_N6/Middlewares/ST/usbx/common/core/src/ux_device_stack_alternate_setting_set.c ****                             /* We are done here.  */
 437:../STM32Cube_FW_N6/Middlewares/ST/usbx/common/core/src/ux_device_stack_alternate_setting_set.c ****                             return(status); 
 438:../STM32Cube_FW_N6/Middlewares/ST/usbx/common/core/src/ux_device_stack_alternate_setting_set.c ****                         }
 439:../STM32Cube_FW_N6/Middlewares/ST/usbx/common/core/src/ux_device_stack_alternate_setting_set.c ****                     }               
 440:../STM32Cube_FW_N6/Middlewares/ST/usbx/common/core/src/ux_device_stack_alternate_setting_set.c **** 
 441:../STM32Cube_FW_N6/Middlewares/ST/usbx/common/core/src/ux_device_stack_alternate_setting_set.c ****                     /* Adjust what is left of the device framework.  */
 442:../STM32Cube_FW_N6/Middlewares/ST/usbx/common/core/src/ux_device_stack_alternate_setting_set.c ****                     device_framework_length -=  descriptor_length;
 443:../STM32Cube_FW_N6/Middlewares/ST/usbx/common/core/src/ux_device_stack_alternate_setting_set.c **** 
 444:../STM32Cube_FW_N6/Middlewares/ST/usbx/common/core/src/ux_device_stack_alternate_setting_set.c ****                     /* Point to the next descriptor.  */
 445:../STM32Cube_FW_N6/Middlewares/ST/usbx/common/core/src/ux_device_stack_alternate_setting_set.c ****                     device_framework +=  descriptor_length;
 446:../STM32Cube_FW_N6/Middlewares/ST/usbx/common/core/src/ux_device_stack_alternate_setting_set.c ****                 }
 447:../STM32Cube_FW_N6/Middlewares/ST/usbx/common/core/src/ux_device_stack_alternate_setting_set.c **** 
 448:../STM32Cube_FW_N6/Middlewares/ST/usbx/common/core/src/ux_device_stack_alternate_setting_set.c ****                 /* In case alter setting not found, report protocol error. */
 449:../STM32Cube_FW_N6/Middlewares/ST/usbx/common/core/src/ux_device_stack_alternate_setting_set.c ****                 break;
 450:../STM32Cube_FW_N6/Middlewares/ST/usbx/common/core/src/ux_device_stack_alternate_setting_set.c ****             }
 451:../STM32Cube_FW_N6/Middlewares/ST/usbx/common/core/src/ux_device_stack_alternate_setting_set.c ****         }
 452:../STM32Cube_FW_N6/Middlewares/ST/usbx/common/core/src/ux_device_stack_alternate_setting_set.c **** 
 453:../STM32Cube_FW_N6/Middlewares/ST/usbx/common/core/src/ux_device_stack_alternate_setting_set.c ****         /* Adjust what is left of the device framework.  */
 454:../STM32Cube_FW_N6/Middlewares/ST/usbx/common/core/src/ux_device_stack_alternate_setting_set.c ****         device_framework_length -=  descriptor_length;
 455:../STM32Cube_FW_N6/Middlewares/ST/usbx/common/core/src/ux_device_stack_alternate_setting_set.c **** 
 456:../STM32Cube_FW_N6/Middlewares/ST/usbx/common/core/src/ux_device_stack_alternate_setting_set.c ****         /* Point to the next descriptor.  */
ARM GAS  /tmp/ccH51WEt.s 			page 11


 457:../STM32Cube_FW_N6/Middlewares/ST/usbx/common/core/src/ux_device_stack_alternate_setting_set.c ****         device_framework +=  descriptor_length;
 458:../STM32Cube_FW_N6/Middlewares/ST/usbx/common/core/src/ux_device_stack_alternate_setting_set.c ****     }
 459:../STM32Cube_FW_N6/Middlewares/ST/usbx/common/core/src/ux_device_stack_alternate_setting_set.c **** 
 460:../STM32Cube_FW_N6/Middlewares/ST/usbx/common/core/src/ux_device_stack_alternate_setting_set.c ****     /* Return error completion.  */
 461:../STM32Cube_FW_N6/Middlewares/ST/usbx/common/core/src/ux_device_stack_alternate_setting_set.c ****     return(UX_ERROR);
 462:../STM32Cube_FW_N6/Middlewares/ST/usbx/common/core/src/ux_device_stack_alternate_setting_set.c **** #endif
 463:../STM32Cube_FW_N6/Middlewares/ST/usbx/common/core/src/ux_device_stack_alternate_setting_set.c **** }
 112              		.loc 1 463 1 view .LVU39
 113 002c 13B0     		add	sp, sp, #76
 114              		.cfi_remember_state
 115              		.cfi_def_cfa_offset 36
 116              		@ sp needed
 117 002e BDE8F08F 		pop	{r4, r5, r6, r7, r8, r9, r10, fp, pc}
 118              	.LVL7:
 119              	.L5:
 120              		.cfi_restore_state
 132:../STM32Cube_FW_N6/Middlewares/ST/usbx/common/core/src/ux_device_stack_alternate_setting_set.c ****             break;
 121              		.loc 1 132 9 is_stmt 1 view .LVU40
 132:../STM32Cube_FW_N6/Middlewares/ST/usbx/common/core/src/ux_device_stack_alternate_setting_set.c ****             break;
 122              		.loc 1 132 59 is_stmt 0 view .LVU41
 123 0032 B37B     		ldrb	r3, [r6, #14]	@ zero_extendqisi2
 132:../STM32Cube_FW_N6/Middlewares/ST/usbx/common/core/src/ux_device_stack_alternate_setting_set.c ****             break;
 124              		.loc 1 132 12 view .LVU42
 125 0034 AB42     		cmp	r3, r5
 126 0036 01D0     		beq	.L4
 135:../STM32Cube_FW_N6/Middlewares/ST/usbx/common/core/src/ux_device_stack_alternate_setting_set.c ****     }
 127              		.loc 1 135 13 is_stmt 1 view .LVU43
 135:../STM32Cube_FW_N6/Middlewares/ST/usbx/common/core/src/ux_device_stack_alternate_setting_set.c ****     }
 128              		.loc 1 135 27 is_stmt 0 view .LVU44
 129 0038 B669     		ldr	r6, [r6, #24]
 130              	.LVL8:
 135:../STM32Cube_FW_N6/Middlewares/ST/usbx/common/core/src/ux_device_stack_alternate_setting_set.c ****     }
 131              		.loc 1 135 27 view .LVU45
 132 003a F0E7     		b	.L3
 133              	.LVL9:
 134              	.L4:
 144:../STM32Cube_FW_N6/Middlewares/ST/usbx/common/core/src/ux_device_stack_alternate_setting_set.c ****     {
 135              		.loc 1 144 5 is_stmt 1 view .LVU46
 158:../STM32Cube_FW_N6/Middlewares/ST/usbx/common/core/src/ux_device_stack_alternate_setting_set.c ****         return(UX_SUCCESS);       
 136              		.loc 1 158 5 view .LVU47
 158:../STM32Cube_FW_N6/Middlewares/ST/usbx/common/core/src/ux_device_stack_alternate_setting_set.c ****         return(UX_SUCCESS);       
 137              		.loc 1 158 55 is_stmt 0 view .LVU48
 138 003c F37B     		ldrb	r3, [r6, #15]	@ zero_extendqisi2
 158:../STM32Cube_FW_N6/Middlewares/ST/usbx/common/core/src/ux_device_stack_alternate_setting_set.c ****         return(UX_SUCCESS);       
 139              		.loc 1 158 8 view .LVU49
 140 003e 4B45     		cmp	r3, r9
 141 0040 00F0CE80 		beq	.L30
 173:../STM32Cube_FW_N6/Middlewares/ST/usbx/common/core/src/ux_device_stack_alternate_setting_set.c **** 
 142              		.loc 1 173 5 is_stmt 1 view .LVU50
 143              	.LVL10:
 176:../STM32Cube_FW_N6/Middlewares/ST/usbx/common/core/src/ux_device_stack_alternate_setting_set.c ****     device_framework_length =  _ux_system_slave -> ux_system_slave_device_framework_length;
 144              		.loc 1 176 5 view .LVU51
 177:../STM32Cube_FW_N6/Middlewares/ST/usbx/common/core/src/ux_device_stack_alternate_setting_set.c **** 
 145              		.loc 1 177 29 is_stmt 0 view .LVU52
 146 0044 D7E93348 		ldrd	r4, r8, [r7, #204]
 147              	.LVL11:
 180:../STM32Cube_FW_N6/Middlewares/ST/usbx/common/core/src/ux_device_stack_alternate_setting_set.c ****     {
ARM GAS  /tmp/ccH51WEt.s 			page 12


 148              		.loc 1 180 5 is_stmt 1 view .LVU53
 149              	.L6:
 180:../STM32Cube_FW_N6/Middlewares/ST/usbx/common/core/src/ux_device_stack_alternate_setting_set.c ****     {
 150              		.loc 1 180 36 view .LVU54
 151 0048 B8F1000F 		cmp	r8, #0
 152 004c 17D0     		beq	.L28
 184:../STM32Cube_FW_N6/Middlewares/ST/usbx/common/core/src/ux_device_stack_alternate_setting_set.c **** 
 153              		.loc 1 184 9 view .LVU55
 190:../STM32Cube_FW_N6/Middlewares/ST/usbx/common/core/src/ux_device_stack_alternate_setting_set.c ****         {
 154              		.loc 1 190 12 is_stmt 0 view .LVU56
 155 004e 6378     		ldrb	r3, [r4, #1]	@ zero_extendqisi2
 184:../STM32Cube_FW_N6/Middlewares/ST/usbx/common/core/src/ux_device_stack_alternate_setting_set.c **** 
 156              		.loc 1 184 27 view .LVU57
 157 0050 94F800B0 		ldrb	fp, [r4]	@ zero_extendqisi2
 158              	.LVL12:
 187:../STM32Cube_FW_N6/Middlewares/ST/usbx/common/core/src/ux_device_stack_alternate_setting_set.c ****                 
 159              		.loc 1 187 9 is_stmt 1 view .LVU58
 190:../STM32Cube_FW_N6/Middlewares/ST/usbx/common/core/src/ux_device_stack_alternate_setting_set.c ****         {
 160              		.loc 1 190 9 view .LVU59
 190:../STM32Cube_FW_N6/Middlewares/ST/usbx/common/core/src/ux_device_stack_alternate_setting_set.c ****         {
 161              		.loc 1 190 12 is_stmt 0 view .LVU60
 162 0054 022B     		cmp	r3, #2
 163 0056 40F0BD80 		bne	.L7
 194:../STM32Cube_FW_N6/Middlewares/ST/usbx/common/core/src/ux_device_stack_alternate_setting_set.c ****                         _ux_system_configuration_descriptor_structure,
 164              		.loc 1 194 13 is_stmt 1 view .LVU61
 165 005a 0822     		movs	r2, #8
 166 005c 01AB     		add	r3, sp, #4
 167 005e 2046     		mov	r0, r4
 168 0060 6149     		ldr	r1, .L45
 169 0062 FFF7FEFF 		bl	_ux_utility_descriptor_parse
 170              	.LVL13:
 200:../STM32Cube_FW_N6/Middlewares/ST/usbx/common/core/src/ux_device_stack_alternate_setting_set.c ****             {
 171              		.loc 1 200 13 view .LVU62
 200:../STM32Cube_FW_N6/Middlewares/ST/usbx/common/core/src/ux_device_stack_alternate_setting_set.c ****             {
 172              		.loc 1 200 41 is_stmt 0 view .LVU63
 173 0066 9DF80920 		ldrb	r2, [sp, #9]	@ zero_extendqisi2
 200:../STM32Cube_FW_N6/Middlewares/ST/usbx/common/core/src/ux_device_stack_alternate_setting_set.c ****             {
 174              		.loc 1 200 16 view .LVU64
 175 006a D7F8A430 		ldr	r3, [r7, #164]
 176 006e 9A42     		cmp	r2, r3
 177 0070 40F0B080 		bne	.L7
 204:../STM32Cube_FW_N6/Middlewares/ST/usbx/common/core/src/ux_device_stack_alternate_setting_set.c **** 
 178              		.loc 1 204 17 is_stmt 1 view .LVU65
 204:../STM32Cube_FW_N6/Middlewares/ST/usbx/common/core/src/ux_device_stack_alternate_setting_set.c **** 
 179              		.loc 1 204 41 is_stmt 0 view .LVU66
 180 0074 BDF80680 		ldrh	r8, [sp, #6]
 181              	.LVL14:
 210:../STM32Cube_FW_N6/Middlewares/ST/usbx/common/core/src/ux_device_stack_alternate_setting_set.c ****                 {
 182              		.loc 1 210 17 is_stmt 1 view .LVU67
 183              	.L8:
 210:../STM32Cube_FW_N6/Middlewares/ST/usbx/common/core/src/ux_device_stack_alternate_setting_set.c ****                 {
 184              		.loc 1 210 48 view .LVU68
 185 0078 B8F1000F 		cmp	r8, #0
 186 007c 01D1     		bne	.L26
 187              	.LVL15:
 188              	.L28:
 461:../STM32Cube_FW_N6/Middlewares/ST/usbx/common/core/src/ux_device_stack_alternate_setting_set.c **** #endif
ARM GAS  /tmp/ccH51WEt.s 			page 13


 189              		.loc 1 461 11 is_stmt 0 view .LVU69
 190 007e FF20     		movs	r0, #255
 191 0080 D4E7     		b	.L1
 192              	.LVL16:
 193              	.L26:
 214:../STM32Cube_FW_N6/Middlewares/ST/usbx/common/core/src/ux_device_stack_alternate_setting_set.c **** 
 194              		.loc 1 214 21 is_stmt 1 view .LVU70
 220:../STM32Cube_FW_N6/Middlewares/ST/usbx/common/core/src/ux_device_stack_alternate_setting_set.c ****                     {
 195              		.loc 1 220 24 is_stmt 0 view .LVU71
 196 0082 6378     		ldrb	r3, [r4, #1]	@ zero_extendqisi2
 214:../STM32Cube_FW_N6/Middlewares/ST/usbx/common/core/src/ux_device_stack_alternate_setting_set.c **** 
 197              		.loc 1 214 39 view .LVU72
 198 0084 94F800B0 		ldrb	fp, [r4]	@ zero_extendqisi2
 199              	.LVL17:
 217:../STM32Cube_FW_N6/Middlewares/ST/usbx/common/core/src/ux_device_stack_alternate_setting_set.c ****                 
 200              		.loc 1 217 21 is_stmt 1 view .LVU73
 220:../STM32Cube_FW_N6/Middlewares/ST/usbx/common/core/src/ux_device_stack_alternate_setting_set.c ****                     {
 201              		.loc 1 220 21 view .LVU74
 220:../STM32Cube_FW_N6/Middlewares/ST/usbx/common/core/src/ux_device_stack_alternate_setting_set.c ****                     {
 202              		.loc 1 220 24 is_stmt 0 view .LVU75
 203 0088 042B     		cmp	r3, #4
 204 008a 40F09F80 		bne	.L9
 224:../STM32Cube_FW_N6/Middlewares/ST/usbx/common/core/src/ux_device_stack_alternate_setting_set.c ****                                     _ux_system_interface_descriptor_structure,
 205              		.loc 1 224 25 is_stmt 1 view .LVU76
 206 008e 04AB     		add	r3, sp, #16
 207 0090 0922     		movs	r2, #9
 208 0092 2046     		mov	r0, r4
 209 0094 5549     		ldr	r1, .L45+4
 210 0096 FFF7FEFF 		bl	_ux_utility_descriptor_parse
 211              	.LVL18:
 230:../STM32Cube_FW_N6/Middlewares/ST/usbx/common/core/src/ux_device_stack_alternate_setting_set.c ****                             interface_descriptor.bAlternateSetting == alternate_setting_value)
 212              		.loc 1 230 25 view .LVU77
 230:../STM32Cube_FW_N6/Middlewares/ST/usbx/common/core/src/ux_device_stack_alternate_setting_set.c ****                             interface_descriptor.bAlternateSetting == alternate_setting_value)
 213              		.loc 1 230 49 is_stmt 0 view .LVU78
 214 009a 9DF81230 		ldrb	r3, [sp, #18]	@ zero_extendqisi2
 230:../STM32Cube_FW_N6/Middlewares/ST/usbx/common/core/src/ux_device_stack_alternate_setting_set.c ****                             interface_descriptor.bAlternateSetting == alternate_setting_value)
 215              		.loc 1 230 28 view .LVU79
 216 009e AB42     		cmp	r3, r5
 217 00a0 40F09480 		bne	.L9
 231:../STM32Cube_FW_N6/Middlewares/ST/usbx/common/core/src/ux_device_stack_alternate_setting_set.c ****                         {
 218              		.loc 1 231 49 view .LVU80
 219 00a4 9DF81330 		ldrb	r3, [sp, #19]	@ zero_extendqisi2
 230:../STM32Cube_FW_N6/Middlewares/ST/usbx/common/core/src/ux_device_stack_alternate_setting_set.c ****                             interface_descriptor.bAlternateSetting == alternate_setting_value)
 220              		.loc 1 230 86 discriminator 1 view .LVU81
 221 00a8 4B45     		cmp	r3, r9
 222 00aa 40F08F80 		bne	.L9
 237:../STM32Cube_FW_N6/Middlewares/ST/usbx/common/core/src/ux_device_stack_alternate_setting_set.c ****                             while (endpoint != UX_NULL)
 223              		.loc 1 237 29 is_stmt 1 view .LVU82
 251:../STM32Cube_FW_N6/Middlewares/ST/usbx/common/core/src/ux_device_stack_alternate_setting_set.c ****                         
 224              		.loc 1 251 70 is_stmt 0 view .LVU83
 225 00ae 4FF00009 		mov	r9, #0
 226              	.LVL19:
 237:../STM32Cube_FW_N6/Middlewares/ST/usbx/common/core/src/ux_device_stack_alternate_setting_set.c ****                             while (endpoint != UX_NULL)
 227              		.loc 1 237 38 view .LVU84
 228 00b2 F569     		ldr	r5, [r6, #28]
 229              	.LVL20:
 238:../STM32Cube_FW_N6/Middlewares/ST/usbx/common/core/src/ux_device_stack_alternate_setting_set.c ****                             {
ARM GAS  /tmp/ccH51WEt.s 			page 14


 230              		.loc 1 238 29 is_stmt 1 view .LVU85
 231              	.L10:
 238:../STM32Cube_FW_N6/Middlewares/ST/usbx/common/core/src/ux_device_stack_alternate_setting_set.c ****                             {
 232              		.loc 1 238 45 view .LVU86
 233 00b4 15BB     		cbnz	r5, .L11
 264:../STM32Cube_FW_N6/Middlewares/ST/usbx/common/core/src/ux_device_stack_alternate_setting_set.c **** 
 234              		.loc 1 264 80 is_stmt 0 view .LVU87
 235 00b6 F561     		str	r5, [r6, #28]
 267:../STM32Cube_FW_N6/Middlewares/ST/usbx/common/core/src/ux_device_stack_alternate_setting_set.c ****                             device_framework +=  (ULONG) *device_framework;
 236              		.loc 1 267 57 view .LVU88
 237 00b8 2378     		ldrb	r3, [r4]	@ zero_extendqisi2
 118:../STM32Cube_FW_N6/Middlewares/ST/usbx/common/core/src/ux_device_stack_alternate_setting_set.c **** 
 238              		.loc 1 118 12 view .LVU89
 239 00ba 07F1240B 		add	fp, r7, #36
 240              	.LVL21:
 264:../STM32Cube_FW_N6/Middlewares/ST/usbx/common/core/src/ux_device_stack_alternate_setting_set.c **** 
 241              		.loc 1 264 29 is_stmt 1 view .LVU90
 267:../STM32Cube_FW_N6/Middlewares/ST/usbx/common/core/src/ux_device_stack_alternate_setting_set.c ****                             device_framework +=  (ULONG) *device_framework;
 242              		.loc 1 267 29 view .LVU91
 267:../STM32Cube_FW_N6/Middlewares/ST/usbx/common/core/src/ux_device_stack_alternate_setting_set.c ****                             device_framework +=  (ULONG) *device_framework;
 243              		.loc 1 267 53 is_stmt 0 view .LVU92
 244 00be A8EB0308 		sub	r8, r8, r3
 245              	.LVL22:
 268:../STM32Cube_FW_N6/Middlewares/ST/usbx/common/core/src/ux_device_stack_alternate_setting_set.c ****                         
 246              		.loc 1 268 29 is_stmt 1 view .LVU93
 268:../STM32Cube_FW_N6/Middlewares/ST/usbx/common/core/src/ux_device_stack_alternate_setting_set.c ****                         
 247              		.loc 1 268 46 is_stmt 0 view .LVU94
 248 00c2 1C44     		add	r4, r4, r3
 249              	.LVL23:
 271:../STM32Cube_FW_N6/Middlewares/ST/usbx/common/core/src/ux_device_stack_alternate_setting_set.c ****                             {
 250              		.loc 1 271 29 is_stmt 1 view .LVU95
 251              	.L12:
 271:../STM32Cube_FW_N6/Middlewares/ST/usbx/common/core/src/ux_device_stack_alternate_setting_set.c ****                             {
 252              		.loc 1 271 60 view .LVU96
 253 00c4 B8F1000F 		cmp	r8, #0
 254 00c8 2AD1     		bne	.L25
 410:../STM32Cube_FW_N6/Middlewares/ST/usbx/common/core/src/ux_device_stack_alternate_setting_set.c ****                             
 255              		.loc 1 410 29 view .LVU97
 256 00ca 0C22     		movs	r2, #12
 257 00cc 04A9     		add	r1, sp, #16
 258 00ce B018     		adds	r0, r6, r2
 259 00d0 FFF7FEFF 		bl	_ux_utility_memory_copy
 260              	.LVL24:
 413:../STM32Cube_FW_N6/Middlewares/ST/usbx/common/core/src/ux_device_stack_alternate_setting_set.c **** 
 261              		.loc 1 413 29 view .LVU98
 413:../STM32Cube_FW_N6/Middlewares/ST/usbx/common/core/src/ux_device_stack_alternate_setting_set.c **** 
 262              		.loc 1 413 146 is_stmt 0 view .LVU99
 263 00d4 B37B     		ldrb	r3, [r6, #14]	@ zero_extendqisi2
 413:../STM32Cube_FW_N6/Middlewares/ST/usbx/common/core/src/ux_device_stack_alternate_setting_set.c **** 
 264              		.loc 1 413 39 view .LVU100
 265 00d6 DAF80020 		ldr	r2, [r10]
 266 00da 4033     		adds	r3, r3, #64
 267 00dc 52F82330 		ldr	r3, [r2, r3, lsl #2]
 268              	.LVL25:
 416:../STM32Cube_FW_N6/Middlewares/ST/usbx/common/core/src/ux_device_stack_alternate_setting_set.c ****                             {
 269              		.loc 1 416 29 is_stmt 1 view .LVU101
 416:../STM32Cube_FW_N6/Middlewares/ST/usbx/common/core/src/ux_device_stack_alternate_setting_set.c ****                             {
ARM GAS  /tmp/ccH51WEt.s 			page 15


 270              		.loc 1 416 32 is_stmt 0 view .LVU102
 271 00e0 002B     		cmp	r3, #0
 272 00e2 7FD0     		beq	.L34
 416:../STM32Cube_FW_N6/Middlewares/ST/usbx/common/core/src/ux_device_stack_alternate_setting_set.c ****                             {
 273              		.loc 1 416 54 discriminator 1 view .LVU103
 274 00e4 1A6C     		ldr	r2, [r3, #64]
 275 00e6 002A     		cmp	r2, #0
 276 00e8 7CD0     		beq	.L34
 424:../STM32Cube_FW_N6/Middlewares/ST/usbx/common/core/src/ux_device_stack_alternate_setting_set.c ****                             class_command.ux_slave_class_command_interface =   (VOID *) interface_p
 277              		.loc 1 424 29 is_stmt 1 view .LVU104
 424:../STM32Cube_FW_N6/Middlewares/ST/usbx/common/core/src/ux_device_stack_alternate_setting_set.c ****                             class_command.ux_slave_class_command_interface =   (VOID *) interface_p
 278              		.loc 1 424 76 is_stmt 0 view .LVU105
 279 00ea 0622     		movs	r2, #6
 428:../STM32Cube_FW_N6/Middlewares/ST/usbx/common/core/src/ux_device_stack_alternate_setting_set.c ****                             
 280              		.loc 1 428 76 view .LVU106
 281 00ec 0F93     		str	r3, [sp, #60]
 431:../STM32Cube_FW_N6/Middlewares/ST/usbx/common/core/src/ux_device_stack_alternate_setting_set.c ****                             
 282              		.loc 1 431 67 view .LVU107
 283 00ee 1E66     		str	r6, [r3, #96]
 424:../STM32Cube_FW_N6/Middlewares/ST/usbx/common/core/src/ux_device_stack_alternate_setting_set.c ****                             class_command.ux_slave_class_command_interface =   (VOID *) interface_p
 284              		.loc 1 424 76 view .LVU108
 285 00f0 0792     		str	r2, [sp, #28]
 425:../STM32Cube_FW_N6/Middlewares/ST/usbx/common/core/src/ux_device_stack_alternate_setting_set.c **** 
 286              		.loc 1 425 29 is_stmt 1 view .LVU109
 434:../STM32Cube_FW_N6/Middlewares/ST/usbx/common/core/src/ux_device_stack_alternate_setting_set.c **** 
 287              		.loc 1 434 38 is_stmt 0 view .LVU110
 288 00f2 5B6C     		ldr	r3, [r3, #68]
 289              	.LVL26:
 425:../STM32Cube_FW_N6/Middlewares/ST/usbx/common/core/src/ux_device_stack_alternate_setting_set.c **** 
 290              		.loc 1 425 76 view .LVU111
 291 00f4 0996     		str	r6, [sp, #36]
 428:../STM32Cube_FW_N6/Middlewares/ST/usbx/common/core/src/ux_device_stack_alternate_setting_set.c ****                             
 292              		.loc 1 428 29 is_stmt 1 view .LVU112
 431:../STM32Cube_FW_N6/Middlewares/ST/usbx/common/core/src/ux_device_stack_alternate_setting_set.c ****                             
 293              		.loc 1 431 29 view .LVU113
 434:../STM32Cube_FW_N6/Middlewares/ST/usbx/common/core/src/ux_device_stack_alternate_setting_set.c **** 
 294              		.loc 1 434 29 view .LVU114
 434:../STM32Cube_FW_N6/Middlewares/ST/usbx/common/core/src/ux_device_stack_alternate_setting_set.c **** 
 295              		.loc 1 434 38 is_stmt 0 view .LVU115
 296 00f6 07A8     		add	r0, sp, #28
 297 00f8 9847     		blx	r3
 298              	.LVL27:
 437:../STM32Cube_FW_N6/Middlewares/ST/usbx/common/core/src/ux_device_stack_alternate_setting_set.c ****                         }
 299              		.loc 1 437 29 is_stmt 1 view .LVU116
 437:../STM32Cube_FW_N6/Middlewares/ST/usbx/common/core/src/ux_device_stack_alternate_setting_set.c ****                         }
 300              		.loc 1 437 35 is_stmt 0 view .LVU117
 301 00fa 97E7     		b	.L1
 302              	.LVL28:
 303              	.L11:
 242:../STM32Cube_FW_N6/Middlewares/ST/usbx/common/core/src/ux_device_stack_alternate_setting_set.c **** 
 304              		.loc 1 242 33 is_stmt 1 view .LVU118
 305 00fc 2621     		movs	r1, #38
 306 00fe 2846     		mov	r0, r5
 307 0100 FFF7FEFF 		bl	_ux_device_stack_transfer_all_request_abort
 308              	.LVL29:
 245:../STM32Cube_FW_N6/Middlewares/ST/usbx/common/core/src/ux_device_stack_alternate_setting_set.c **** 
 309              		.loc 1 245 33 view .LVU119
ARM GAS  /tmp/ccH51WEt.s 			page 16


 310 0104 2A46     		mov	r2, r5
 311 0106 BB69     		ldr	r3, [r7, #24]
 312 0108 0F21     		movs	r1, #15
 313 010a 3846     		mov	r0, r7
 314 010c 9847     		blx	r3
 315              	.LVL30:
 248:../STM32Cube_FW_N6/Middlewares/ST/usbx/common/core/src/ux_device_stack_alternate_setting_set.c ****                 
 316              		.loc 1 248 33 view .LVU120
 248:../STM32Cube_FW_N6/Middlewares/ST/usbx/common/core/src/ux_device_stack_alternate_setting_set.c ****                 
 317              		.loc 1 248 47 is_stmt 0 view .LVU121
 318 010e 6B69     		ldr	r3, [r5, #20]
 319              	.LVL31:
 251:../STM32Cube_FW_N6/Middlewares/ST/usbx/common/core/src/ux_device_stack_alternate_setting_set.c ****                         
 320              		.loc 1 251 33 is_stmt 1 view .LVU122
 254:../STM32Cube_FW_N6/Middlewares/ST/usbx/common/core/src/ux_device_stack_alternate_setting_set.c ****                                 endpoint -> ux_slave_endpoint_next_endpoint =  UX_NULL;
 321              		.loc 1 254 69 is_stmt 0 view .LVU123
 322 0110 C5E90099 		strd	r9, r9, [r5]
 255:../STM32Cube_FW_N6/Middlewares/ST/usbx/common/core/src/ux_device_stack_alternate_setting_set.c ****                                 endpoint -> ux_slave_endpoint_interface =  UX_NULL;
 323              		.loc 1 255 33 is_stmt 1 view .LVU124
 256:../STM32Cube_FW_N6/Middlewares/ST/usbx/common/core/src/ux_device_stack_alternate_setting_set.c ****                                 endpoint -> ux_slave_endpoint_device =  UX_NULL;
 324              		.loc 1 256 73 is_stmt 0 view .LVU125
 325 0114 C5E90599 		strd	r9, r9, [r5, #20]
 257:../STM32Cube_FW_N6/Middlewares/ST/usbx/common/core/src/ux_device_stack_alternate_setting_set.c ****                                                         
 326              		.loc 1 257 33 is_stmt 1 view .LVU126
 257:../STM32Cube_FW_N6/Middlewares/ST/usbx/common/core/src/ux_device_stack_alternate_setting_set.c ****                                                         
 327              		.loc 1 257 70 is_stmt 0 view .LVU127
 328 0118 C5F81C90 		str	r9, [r5, #28]
 260:../STM32Cube_FW_N6/Middlewares/ST/usbx/common/core/src/ux_device_stack_alternate_setting_set.c ****                             }
 329              		.loc 1 260 33 is_stmt 1 view .LVU128
 330              	.LVL32:
 260:../STM32Cube_FW_N6/Middlewares/ST/usbx/common/core/src/ux_device_stack_alternate_setting_set.c ****                             }
 331              		.loc 1 260 42 is_stmt 0 view .LVU129
 332 011c 1D46     		mov	r5, r3
 333 011e C9E7     		b	.L10
 334              	.LVL33:
 335              	.L25:
 275:../STM32Cube_FW_N6/Middlewares/ST/usbx/common/core/src/ux_device_stack_alternate_setting_set.c ****                         
 336              		.loc 1 275 33 is_stmt 1 view .LVU130
 278:../STM32Cube_FW_N6/Middlewares/ST/usbx/common/core/src/ux_device_stack_alternate_setting_set.c ****                                         
 337              		.loc 1 278 49 is_stmt 0 view .LVU131
 338 0120 6378     		ldrb	r3, [r4, #1]	@ zero_extendqisi2
 275:../STM32Cube_FW_N6/Middlewares/ST/usbx/common/core/src/ux_device_stack_alternate_setting_set.c ****                         
 339              		.loc 1 275 51 view .LVU132
 340 0122 94F80090 		ldrb	r9, [r4]	@ zero_extendqisi2
 341              	.LVL34:
 278:../STM32Cube_FW_N6/Middlewares/ST/usbx/common/core/src/ux_device_stack_alternate_setting_set.c ****                                         
 342              		.loc 1 278 33 is_stmt 1 view .LVU133
 281:../STM32Cube_FW_N6/Middlewares/ST/usbx/common/core/src/ux_device_stack_alternate_setting_set.c ****                                 {
 343              		.loc 1 281 33 view .LVU134
 344 0126 042B     		cmp	r3, #4
 345 0128 4ED0     		beq	.L31
 346 012a 052B     		cmp	r3, #5
 347 012c 06D0     		beq	.L14
 348 012e 022B     		cmp	r3, #2
 349 0130 08BF     		it	eq
 350 0132 C846     		moveq	r8, r9
 351              	.LVL35:
ARM GAS  /tmp/ccH51WEt.s 			page 17


 352              	.L13:
 403:../STM32Cube_FW_N6/Middlewares/ST/usbx/common/core/src/ux_device_stack_alternate_setting_set.c ****                         
 353              		.loc 1 403 33 view .LVU135
 403:../STM32Cube_FW_N6/Middlewares/ST/usbx/common/core/src/ux_device_stack_alternate_setting_set.c ****                         
 354              		.loc 1 403 57 is_stmt 0 view .LVU136
 355 0134 A8EB0908 		sub	r8, r8, r9
 356              	.LVL36:
 406:../STM32Cube_FW_N6/Middlewares/ST/usbx/common/core/src/ux_device_stack_alternate_setting_set.c ****                             }
 357              		.loc 1 406 33 is_stmt 1 view .LVU137
 406:../STM32Cube_FW_N6/Middlewares/ST/usbx/common/core/src/ux_device_stack_alternate_setting_set.c ****                             }
 358              		.loc 1 406 50 is_stmt 0 view .LVU138
 359 0138 4C44     		add	r4, r4, r9
 360              	.LVL37:
 406:../STM32Cube_FW_N6/Middlewares/ST/usbx/common/core/src/ux_device_stack_alternate_setting_set.c ****                             }
 361              		.loc 1 406 50 view .LVU139
 362 013a C3E7     		b	.L12
 363              	.LVL38:
 364              	.L14:
 288:../STM32Cube_FW_N6/Middlewares/ST/usbx/common/core/src/ux_device_stack_alternate_setting_set.c ****                                     endpoints_pool_number = device -> ux_slave_device_endpoints_poo
 365              		.loc 1 288 37 is_stmt 1 view .LVU140
 289:../STM32Cube_FW_N6/Middlewares/ST/usbx/common/core/src/ux_device_stack_alternate_setting_set.c ****                                     while (endpoints_pool_number != 0)
 366              		.loc 1 289 59 is_stmt 0 view .LVU141
 367 013c D7E93053 		ldrd	r5, r3, [r7, #192]
 368              	.LVL39:
 290:../STM32Cube_FW_N6/Middlewares/ST/usbx/common/core/src/ux_device_stack_alternate_setting_set.c ****                                     {
 369              		.loc 1 290 37 is_stmt 1 view .LVU142
 289:../STM32Cube_FW_N6/Middlewares/ST/usbx/common/core/src/ux_device_stack_alternate_setting_set.c ****                                     while (endpoints_pool_number != 0)
 370              		.loc 1 289 59 is_stmt 0 view .LVU143
 371 0140 0133     		adds	r3, r3, #1
 372              	.LVL40:
 373              	.L15:
 290:../STM32Cube_FW_N6/Middlewares/ST/usbx/common/core/src/ux_device_stack_alternate_setting_set.c ****                                     {
 374              		.loc 1 290 66 is_stmt 1 view .LVU144
 375 0142 013B     		subs	r3, r3, #1
 376 0144 01D1     		bne	.L19
 309:../STM32Cube_FW_N6/Middlewares/ST/usbx/common/core/src/ux_device_stack_alternate_setting_set.c **** 
 377              		.loc 1 309 47 is_stmt 0 view .LVU145
 378 0146 1220     		movs	r0, #18
 379 0148 70E7     		b	.L1
 380              	.L19:
 293:../STM32Cube_FW_N6/Middlewares/ST/usbx/common/core/src/ux_device_stack_alternate_setting_set.c ****                                         {
 381              		.loc 1 293 41 is_stmt 1 view .LVU146
 293:../STM32Cube_FW_N6/Middlewares/ST/usbx/common/core/src/ux_device_stack_alternate_setting_set.c ****                                         {
 382              		.loc 1 293 44 is_stmt 0 view .LVU147
 383 014a 2A68     		ldr	r2, [r5]
 384 014c 5AB9     		cbnz	r2, .L16
 296:../STM32Cube_FW_N6/Middlewares/ST/usbx/common/core/src/ux_device_stack_alternate_setting_set.c ****                                             break;
 385              		.loc 1 296 45 is_stmt 1 view .LVU148
 296:../STM32Cube_FW_N6/Middlewares/ST/usbx/common/core/src/ux_device_stack_alternate_setting_set.c ****                                             break;
 386              		.loc 1 296 85 is_stmt 0 view .LVU149
 387 014e 2B46     		mov	r3, r5
 388 0150 0122     		movs	r2, #1
 312:../STM32Cube_FW_N6/Middlewares/ST/usbx/common/core/src/ux_device_stack_alternate_setting_set.c ****                                                     _ux_system_endpoint_descriptor_structure,
 389              		.loc 1 312 37 view .LVU150
 390 0152 2046     		mov	r0, r4
 296:../STM32Cube_FW_N6/Middlewares/ST/usbx/common/core/src/ux_device_stack_alternate_setting_set.c ****                                             break;
 391              		.loc 1 296 85 view .LVU151
ARM GAS  /tmp/ccH51WEt.s 			page 18


 392 0154 43F80C2B 		str	r2, [r3], #12
 393              	.LVL41:
 297:../STM32Cube_FW_N6/Middlewares/ST/usbx/common/core/src/ux_device_stack_alternate_setting_set.c ****                                         }
 394              		.loc 1 297 45 is_stmt 1 view .LVU152
 308:../STM32Cube_FW_N6/Middlewares/ST/usbx/common/core/src/ux_device_stack_alternate_setting_set.c ****                                         return(UX_MEMORY_INSUFFICIENT);
 395              		.loc 1 308 37 view .LVU153
 312:../STM32Cube_FW_N6/Middlewares/ST/usbx/common/core/src/ux_device_stack_alternate_setting_set.c ****                                                     _ux_system_endpoint_descriptor_structure,
 396              		.loc 1 312 37 view .LVU154
 397 0158 2549     		ldr	r1, .L45+8
 398 015a 0622     		movs	r2, #6
 399 015c FFF7FEFF 		bl	_ux_utility_descriptor_parse
 400              	.LVL42:
 318:../STM32Cube_FW_N6/Middlewares/ST/usbx/common/core/src/ux_device_stack_alternate_setting_set.c ****                                         
 401              		.loc 1 318 37 view .LVU155
 321:../STM32Cube_FW_N6/Middlewares/ST/usbx/common/core/src/ux_device_stack_alternate_setting_set.c **** 
 402              		.loc 1 321 37 view .LVU156
 403 0160 2B8A     		ldrh	r3, [r5, #16]
 404 0162 13B9     		cbnz	r3, .L44
 405              	.L17:
 321:../STM32Cube_FW_N6/Middlewares/ST/usbx/common/core/src/ux_device_stack_alternate_setting_set.c **** 
 406              		.loc 1 321 37 view .LVU157
 321:../STM32Cube_FW_N6/Middlewares/ST/usbx/common/core/src/ux_device_stack_alternate_setting_set.c **** 
 407              		.loc 1 321 37 view .LVU158
 321:../STM32Cube_FW_N6/Middlewares/ST/usbx/common/core/src/ux_device_stack_alternate_setting_set.c **** 
 408              		.loc 1 321 37 view .LVU159
 409 0164 FEE7     		b	.L17
 410              	.LVL43:
 411              	.L16:
 301:../STM32Cube_FW_N6/Middlewares/ST/usbx/common/core/src/ux_device_stack_alternate_setting_set.c ****                                         
 412              		.loc 1 301 41 view .LVU160
 301:../STM32Cube_FW_N6/Middlewares/ST/usbx/common/core/src/ux_device_stack_alternate_setting_set.c ****                                         
 413              		.loc 1 301 49 is_stmt 0 view .LVU161
 414 0166 6835     		adds	r5, r5, #104
 415              	.LVL44:
 304:../STM32Cube_FW_N6/Middlewares/ST/usbx/common/core/src/ux_device_stack_alternate_setting_set.c ****                                     }
 416              		.loc 1 304 40 is_stmt 1 view .LVU162
 417 0168 EBE7     		b	.L15
 418              	.LVL45:
 419              	.L44:
 321:../STM32Cube_FW_N6/Middlewares/ST/usbx/common/core/src/ux_device_stack_alternate_setting_set.c **** 
 420              		.loc 1 321 108 view .LVU163
 324:../STM32Cube_FW_N6/Middlewares/ST/usbx/common/core/src/ux_device_stack_alternate_setting_set.c ****                                             endpoint -> ux_slave_endpoint_descriptor.wMaxPacketSize
 421              		.loc 1 324 37 view .LVU164
 327:../STM32Cube_FW_N6/Middlewares/ST/usbx/common/core/src/ux_device_stack_alternate_setting_set.c ****                                         (endpoint -> ux_slave_endpoint_descriptor.bmAttributes & 0x
 422              		.loc 1 327 59 is_stmt 0 view .LVU165
 423 016a DAF80010 		ldr	r1, [r10]
 324:../STM32Cube_FW_N6/Middlewares/ST/usbx/common/core/src/ux_device_stack_alternate_setting_set.c ****                                             endpoint -> ux_slave_endpoint_descriptor.wMaxPacketSize
 424              		.loc 1 324 57 view .LVU166
 425 016e C3F30A02 		ubfx	r2, r3, #0, #11
 426              	.LVL46:
 327:../STM32Cube_FW_N6/Middlewares/ST/usbx/common/core/src/ux_device_stack_alternate_setting_set.c ****                                         (endpoint -> ux_slave_endpoint_descriptor.bmAttributes & 0x
 427              		.loc 1 327 37 is_stmt 1 view .LVU167
 327:../STM32Cube_FW_N6/Middlewares/ST/usbx/common/core/src/ux_device_stack_alternate_setting_set.c ****                                         (endpoint -> ux_slave_endpoint_descriptor.bmAttributes & 0x
 428              		.loc 1 327 40 is_stmt 0 view .LVU168
 429 0172 D1F84011 		ldr	r1, [r1, #320]
 430 0176 0229     		cmp	r1, #2
 431 0178 0CD1     		bne	.L20
ARM GAS  /tmp/ccH51WEt.s 			page 19


 327:../STM32Cube_FW_N6/Middlewares/ST/usbx/common/core/src/ux_device_stack_alternate_setting_set.c ****                                         (endpoint -> ux_slave_endpoint_descriptor.bmAttributes & 0x
 432              		.loc 1 327 109 discriminator 1 view .LVU169
 433 017a E97B     		ldrb	r1, [r5, #15]	@ zero_extendqisi2
 434 017c C907     		lsls	r1, r1, #31
 435 017e 09D5     		bpl	.L20
 330:../STM32Cube_FW_N6/Middlewares/ST/usbx/common/core/src/ux_device_stack_alternate_setting_set.c ****                                                                     UX_MAX_NUMBER_OF_TRANSACTIONS_M
 436              		.loc 1 330 41 is_stmt 1 view .LVU170
 437              	.LVL47:
 332:../STM32Cube_FW_N6/Middlewares/ST/usbx/common/core/src/ux_device_stack_alternate_setting_set.c ****                                         {
 438              		.loc 1 332 41 view .LVU171
 332:../STM32Cube_FW_N6/Middlewares/ST/usbx/common/core/src/ux_device_stack_alternate_setting_set.c ****                                         {
 439              		.loc 1 332 44 is_stmt 0 view .LVU172
 440 0180 13F4C053 		ands	r3, r3, #6144
 441              	.LVL48:
 332:../STM32Cube_FW_N6/Middlewares/ST/usbx/common/core/src/ux_device_stack_alternate_setting_set.c ****                                         {
 442              		.loc 1 332 44 view .LVU173
 443 0184 06D0     		beq	.L20
 334:../STM32Cube_FW_N6/Middlewares/ST/usbx/common/core/src/ux_device_stack_alternate_setting_set.c ****                                             n_trans ++;
 444              		.loc 1 334 45 is_stmt 1 view .LVU174
 334:../STM32Cube_FW_N6/Middlewares/ST/usbx/common/core/src/ux_device_stack_alternate_setting_set.c ****                                             n_trans ++;
 445              		.loc 1 334 53 is_stmt 0 view .LVU175
 446 0186 DB0A     		lsrs	r3, r3, #11
 447              	.LVL49:
 335:../STM32Cube_FW_N6/Middlewares/ST/usbx/common/core/src/ux_device_stack_alternate_setting_set.c ****                                             max_transfer_length *= n_trans;
 448              		.loc 1 335 45 is_stmt 1 view .LVU176
 336:../STM32Cube_FW_N6/Middlewares/ST/usbx/common/core/src/ux_device_stack_alternate_setting_set.c ****                                         }
 449              		.loc 1 336 45 view .LVU177
 336:../STM32Cube_FW_N6/Middlewares/ST/usbx/common/core/src/ux_device_stack_alternate_setting_set.c ****                                         }
 450              		.loc 1 336 65 is_stmt 0 view .LVU178
 451 0188 03FB0222 		mla	r2, r3, r2, r2
 452              	.LVL50:
 341:../STM32Cube_FW_N6/Middlewares/ST/usbx/common/core/src/ux_device_stack_alternate_setting_set.c ****                                     transfer_request -> ux_slave_transfer_request_transfer_length =
 453              		.loc 1 341 37 is_stmt 1 view .LVU179
 454 018c B2F5406F 		cmp	r2, #3072
 455 0190 00D9     		bls	.L20
 456              	.L21:
 341:../STM32Cube_FW_N6/Middlewares/ST/usbx/common/core/src/ux_device_stack_alternate_setting_set.c ****                                     transfer_request -> ux_slave_transfer_request_transfer_length =
 457              		.loc 1 341 37 view .LVU180
 341:../STM32Cube_FW_N6/Middlewares/ST/usbx/common/core/src/ux_device_stack_alternate_setting_set.c ****                                     transfer_request -> ux_slave_transfer_request_transfer_length =
 458              		.loc 1 341 37 view .LVU181
 341:../STM32Cube_FW_N6/Middlewares/ST/usbx/common/core/src/ux_device_stack_alternate_setting_set.c ****                                     transfer_request -> ux_slave_transfer_request_transfer_length =
 459              		.loc 1 341 37 view .LVU182
 460 0192 FEE7     		b	.L21
 461              	.LVL51:
 462              	.L20:
 341:../STM32Cube_FW_N6/Middlewares/ST/usbx/common/core/src/ux_device_stack_alternate_setting_set.c ****                                     transfer_request -> ux_slave_transfer_request_transfer_length =
 463              		.loc 1 341 103 view .LVU183
 342:../STM32Cube_FW_N6/Middlewares/ST/usbx/common/core/src/ux_device_stack_alternate_setting_set.c **** 
 464              		.loc 1 342 37 view .LVU184
 348:../STM32Cube_FW_N6/Middlewares/ST/usbx/common/core/src/ux_device_stack_alternate_setting_set.c ****                                     
 465              		.loc 1 348 91 is_stmt 0 view .LVU185
 466 0194 4FF0FF33 		mov	r3, #-1
 342:../STM32Cube_FW_N6/Middlewares/ST/usbx/common/core/src/ux_device_stack_alternate_setting_set.c **** 
 467              		.loc 1 342 99 view .LVU186
 468 0198 2A64     		str	r2, [r5, #64]
 345:../STM32Cube_FW_N6/Middlewares/ST/usbx/common/core/src/ux_device_stack_alternate_setting_set.c ****                                         
 469              		.loc 1 345 37 is_stmt 1 view .LVU187
ARM GAS  /tmp/ccH51WEt.s 			page 20


 348:../STM32Cube_FW_N6/Middlewares/ST/usbx/common/core/src/ux_device_stack_alternate_setting_set.c ****                                     
 470              		.loc 1 348 91 is_stmt 0 view .LVU188
 471 019a 6B65     		str	r3, [r5, #84]
 357:../STM32Cube_FW_N6/Middlewares/ST/usbx/common/core/src/ux_device_stack_alternate_setting_set.c **** 
 472              		.loc 1 357 47 view .LVU189
 473 019c 2A46     		mov	r2, r5
 474 019e 0E21     		movs	r1, #14
 475 01a0 3846     		mov	r0, r7
 354:../STM32Cube_FW_N6/Middlewares/ST/usbx/common/core/src/ux_device_stack_alternate_setting_set.c **** 
 476              		.loc 1 354 74 view .LVU190
 477 01a2 C5E9066B 		strd	r6, fp, [r5, #24]
 357:../STM32Cube_FW_N6/Middlewares/ST/usbx/common/core/src/ux_device_stack_alternate_setting_set.c **** 
 478              		.loc 1 357 47 view .LVU191
 479 01a6 BB69     		ldr	r3, [r7, #24]
 345:../STM32Cube_FW_N6/Middlewares/ST/usbx/common/core/src/ux_device_stack_alternate_setting_set.c ****                                         
 480              		.loc 1 345 92 view .LVU192
 481 01a8 AD62     		str	r5, [r5, #40]
 348:../STM32Cube_FW_N6/Middlewares/ST/usbx/common/core/src/ux_device_stack_alternate_setting_set.c ****                                     
 482              		.loc 1 348 37 is_stmt 1 view .LVU193
 351:../STM32Cube_FW_N6/Middlewares/ST/usbx/common/core/src/ux_device_stack_alternate_setting_set.c ****                                         
 483              		.loc 1 351 37 view .LVU194
 357:../STM32Cube_FW_N6/Middlewares/ST/usbx/common/core/src/ux_device_stack_alternate_setting_set.c **** 
 484              		.loc 1 357 37 view .LVU195
 357:../STM32Cube_FW_N6/Middlewares/ST/usbx/common/core/src/ux_device_stack_alternate_setting_set.c **** 
 485              		.loc 1 357 47 is_stmt 0 view .LVU196
 486 01aa 9847     		blx	r3
 487              	.LVL52:
 360:../STM32Cube_FW_N6/Middlewares/ST/usbx/common/core/src/ux_device_stack_alternate_setting_set.c ****                                     {
 488              		.loc 1 360 37 is_stmt 1 view .LVU197
 360:../STM32Cube_FW_N6/Middlewares/ST/usbx/common/core/src/ux_device_stack_alternate_setting_set.c ****                                     {
 489              		.loc 1 360 40 is_stmt 0 view .LVU198
 490 01ac 10B1     		cbz	r0, .L22
 364:../STM32Cube_FW_N6/Middlewares/ST/usbx/common/core/src/ux_device_stack_alternate_setting_set.c ****                                         return(status);
 491              		.loc 1 364 41 is_stmt 1 view .LVU199
 364:../STM32Cube_FW_N6/Middlewares/ST/usbx/common/core/src/ux_device_stack_alternate_setting_set.c ****                                         return(status);
 492              		.loc 1 364 78 is_stmt 0 view .LVU200
 493 01ae 0023     		movs	r3, #0
 494 01b0 2B60     		str	r3, [r5]
 365:../STM32Cube_FW_N6/Middlewares/ST/usbx/common/core/src/ux_device_stack_alternate_setting_set.c ****                                     }
 495              		.loc 1 365 41 is_stmt 1 view .LVU201
 365:../STM32Cube_FW_N6/Middlewares/ST/usbx/common/core/src/ux_device_stack_alternate_setting_set.c ****                                     }
 496              		.loc 1 365 47 is_stmt 0 view .LVU202
 497 01b2 3BE7     		b	.L1
 498              	.L22:
 369:../STM32Cube_FW_N6/Middlewares/ST/usbx/common/core/src/ux_device_stack_alternate_setting_set.c ****                                     {
 499              		.loc 1 369 37 is_stmt 1 view .LVU203
 369:../STM32Cube_FW_N6/Middlewares/ST/usbx/common/core/src/ux_device_stack_alternate_setting_set.c ****                                     {
 500              		.loc 1 369 55 is_stmt 0 view .LVU204
 501 01b4 F369     		ldr	r3, [r6, #28]
 369:../STM32Cube_FW_N6/Middlewares/ST/usbx/common/core/src/ux_device_stack_alternate_setting_set.c ****                                     {
 502              		.loc 1 369 40 view .LVU205
 503 01b6 0BB9     		cbnz	r3, .L23
 372:../STM32Cube_FW_N6/Middlewares/ST/usbx/common/core/src/ux_device_stack_alternate_setting_set.c ****                                     }
 504              		.loc 1 372 41 is_stmt 1 view .LVU206
 372:../STM32Cube_FW_N6/Middlewares/ST/usbx/common/core/src/ux_device_stack_alternate_setting_set.c ****                                     }
 505              		.loc 1 372 92 is_stmt 0 view .LVU207
 506 01b8 F561     		str	r5, [r6, #28]
ARM GAS  /tmp/ccH51WEt.s 			page 21


 507 01ba BBE7     		b	.L13
 508              	.L23:
 509              	.LVL53:
 378:../STM32Cube_FW_N6/Middlewares/ST/usbx/common/core/src/ux_device_stack_alternate_setting_set.c ****                                             endpoint_link =  endpoint_link -> ux_slave_endpoint_nex
 510              		.loc 1 378 97 is_stmt 1 view .LVU208
 511 01bc 1A46     		mov	r2, r3
 378:../STM32Cube_FW_N6/Middlewares/ST/usbx/common/core/src/ux_device_stack_alternate_setting_set.c ****                                             endpoint_link =  endpoint_link -> ux_slave_endpoint_nex
 512              		.loc 1 378 62 is_stmt 0 view .LVU209
 513 01be 5B69     		ldr	r3, [r3, #20]
 514              	.LVL54:
 378:../STM32Cube_FW_N6/Middlewares/ST/usbx/common/core/src/ux_device_stack_alternate_setting_set.c ****                                             endpoint_link =  endpoint_link -> ux_slave_endpoint_nex
 515              		.loc 1 378 97 view .LVU210
 516 01c0 002B     		cmp	r3, #0
 517 01c2 FBD1     		bne	.L23
 380:../STM32Cube_FW_N6/Middlewares/ST/usbx/common/core/src/ux_device_stack_alternate_setting_set.c ****                                     }
 518              		.loc 1 380 41 is_stmt 1 view .LVU211
 380:../STM32Cube_FW_N6/Middlewares/ST/usbx/common/core/src/ux_device_stack_alternate_setting_set.c ****                                     }
 519              		.loc 1 380 90 is_stmt 0 view .LVU212
 520 01c4 5561     		str	r5, [r2, #20]
 521 01c6 B5E7     		b	.L13
 522              	.LVL55:
 523              	.L31:
 281:../STM32Cube_FW_N6/Middlewares/ST/usbx/common/core/src/ux_device_stack_alternate_setting_set.c ****                                 {
 524              		.loc 1 281 33 view .LVU213
 525 01c8 C846     		mov	r8, r9
 526              	.LVL56:
 281:../STM32Cube_FW_N6/Middlewares/ST/usbx/common/core/src/ux_device_stack_alternate_setting_set.c ****                                 {
 527              		.loc 1 281 33 view .LVU214
 528 01ca B3E7     		b	.L13
 529              	.LVL57:
 530              	.L9:
 442:../STM32Cube_FW_N6/Middlewares/ST/usbx/common/core/src/ux_device_stack_alternate_setting_set.c **** 
 531              		.loc 1 442 21 is_stmt 1 view .LVU215
 442:../STM32Cube_FW_N6/Middlewares/ST/usbx/common/core/src/ux_device_stack_alternate_setting_set.c **** 
 532              		.loc 1 442 45 is_stmt 0 view .LVU216
 533 01cc A8EB0B08 		sub	r8, r8, fp
 534              	.LVL58:
 445:../STM32Cube_FW_N6/Middlewares/ST/usbx/common/core/src/ux_device_stack_alternate_setting_set.c ****                 }
 535              		.loc 1 445 21 is_stmt 1 view .LVU217
 445:../STM32Cube_FW_N6/Middlewares/ST/usbx/common/core/src/ux_device_stack_alternate_setting_set.c ****                 }
 536              		.loc 1 445 38 is_stmt 0 view .LVU218
 537 01d0 5C44     		add	r4, r4, fp
 538              	.LVL59:
 445:../STM32Cube_FW_N6/Middlewares/ST/usbx/common/core/src/ux_device_stack_alternate_setting_set.c ****                 }
 539              		.loc 1 445 38 view .LVU219
 540 01d2 51E7     		b	.L8
 541              	.LVL60:
 542              	.L7:
 454:../STM32Cube_FW_N6/Middlewares/ST/usbx/common/core/src/ux_device_stack_alternate_setting_set.c **** 
 543              		.loc 1 454 9 is_stmt 1 view .LVU220
 454:../STM32Cube_FW_N6/Middlewares/ST/usbx/common/core/src/ux_device_stack_alternate_setting_set.c **** 
 544              		.loc 1 454 33 is_stmt 0 view .LVU221
 545 01d4 A8EB0B08 		sub	r8, r8, fp
 546              	.LVL61:
 457:../STM32Cube_FW_N6/Middlewares/ST/usbx/common/core/src/ux_device_stack_alternate_setting_set.c ****     }
 547              		.loc 1 457 9 is_stmt 1 view .LVU222
 457:../STM32Cube_FW_N6/Middlewares/ST/usbx/common/core/src/ux_device_stack_alternate_setting_set.c ****     }
ARM GAS  /tmp/ccH51WEt.s 			page 22


 548              		.loc 1 457 26 is_stmt 0 view .LVU223
 549 01d8 5C44     		add	r4, r4, fp
 550              	.LVL62:
 457:../STM32Cube_FW_N6/Middlewares/ST/usbx/common/core/src/ux_device_stack_alternate_setting_set.c ****     }
 551              		.loc 1 457 26 view .LVU224
 552 01da 35E7     		b	.L6
 553              	.LVL63:
 554              	.L29:
 122:../STM32Cube_FW_N6/Middlewares/ST/usbx/common/core/src/ux_device_stack_alternate_setting_set.c **** 
 555              		.loc 1 122 15 view .LVU225
 556 01dc 5420     		movs	r0, #84
 557              	.LVL64:
 122:../STM32Cube_FW_N6/Middlewares/ST/usbx/common/core/src/ux_device_stack_alternate_setting_set.c **** 
 558              		.loc 1 122 15 view .LVU226
 559 01de 25E7     		b	.L1
 560              	.LVL65:
 561              	.L30:
 159:../STM32Cube_FW_N6/Middlewares/ST/usbx/common/core/src/ux_device_stack_alternate_setting_set.c **** 
 562              		.loc 1 159 15 view .LVU227
 563 01e0 0020     		movs	r0, #0
 564              	.LVL66:
 159:../STM32Cube_FW_N6/Middlewares/ST/usbx/common/core/src/ux_device_stack_alternate_setting_set.c **** 
 565              		.loc 1 159 15 view .LVU228
 566 01e2 23E7     		b	.L1
 567              	.LVL67:
 568              	.L34:
 419:../STM32Cube_FW_N6/Middlewares/ST/usbx/common/core/src/ux_device_stack_alternate_setting_set.c ****                             }
 569              		.loc 1 419 40 view .LVU229
 570 01e4 5720     		movs	r0, #87
 571 01e6 21E7     		b	.L1
 572              	.L46:
 573              		.align	2
 574              	.L45:
 575 01e8 00000000 		.word	_ux_system_configuration_descriptor_structure
 576 01ec 00000000 		.word	_ux_system_interface_descriptor_structure
 577 01f0 00000000 		.word	_ux_system_endpoint_descriptor_structure
 578 01f4 00000000 		.word	_ux_system_slave
 579              		.cfi_endproc
 580              	.LFE3:
 582              		.text
 583              	.Letext0:
 584              		.file 2 "../STM32Cube_FW_N6/Middlewares/ST/usbx/ports/generic/inc/ux_port.h"
 585              		.file 3 "../STM32Cube_FW_N6/Middlewares/ST/usbx/common/core/inc/ux_api.h"
 586              		.file 4 "../STM32Cube_FW_N6/Middlewares/ST/usbx/common/core/inc/ux_system.h"
 587              		.file 5 "../STM32Cube_FW_N6/Middlewares/ST/usbx/common/core/inc/ux_utility.h"
 588              		.file 6 "../STM32Cube_FW_N6/Middlewares/ST/usbx/common/core/inc/ux_device_stack.h"
ARM GAS  /tmp/ccH51WEt.s 			page 23

