ARM GAS  /tmp/ccoz47iq.s 			page 1


   1              		.arch armv8.1-m.main
   2              		.fpu fpv5-d16
   3              		.arch_extension dsp
   4              		.arch_extension fp
   5              		.arch_extension fp.dp
   6              		.arch_extension mve
   7              		.arch_extension mve.fp
   8              		.eabi_attribute 5, "cortex-m55"
   9              		.eabi_attribute 28, 1
  10              		.eabi_attribute 20, 1
  11              		.eabi_attribute 21, 1
  12              		.eabi_attribute 23, 3
  13              		.eabi_attribute 24, 1
  14              		.eabi_attribute 25, 1
  15              		.eabi_attribute 26, 1
  16              		.eabi_attribute 30, 4
  17              		.eabi_attribute 34, 1
  18              		.eabi_attribute 38, 1
  19              		.eabi_attribute 18, 4
  20              		.file	"ux_dcd_stm32_initialize_complete.c"
  21              		.text
  22              	.Ltext0:
  23              		.cfi_sections	.debug_frame
  24              		.file 1 "../STM32Cube_FW_N6/Middlewares/ST/usbx/common/usbx_stm32_device_controllers/ux_dcd_stm32_
  25              		.section	.text._ux_dcd_stm32_initialize_complete,"ax",%progbits
  26              		.align	1
  27              		.global	_ux_dcd_stm32_initialize_complete
  28              		.syntax unified
  29              		.thumb
  30              		.thumb_func
  32              	_ux_dcd_stm32_initialize_complete:
  33              	.LFB885:
   1:../STM32Cube_FW_N6/Middlewares/ST/usbx/common/usbx_stm32_device_controllers/ux_dcd_stm32_initialize_complete.c **** /**************************************************************************/
   2:../STM32Cube_FW_N6/Middlewares/ST/usbx/common/usbx_stm32_device_controllers/ux_dcd_stm32_initialize_complete.c **** /*                                                                        */
   3:../STM32Cube_FW_N6/Middlewares/ST/usbx/common/usbx_stm32_device_controllers/ux_dcd_stm32_initialize_complete.c **** /*       Copyright (c) Microsoft Corporation. All rights reserved.        */
   4:../STM32Cube_FW_N6/Middlewares/ST/usbx/common/usbx_stm32_device_controllers/ux_dcd_stm32_initialize_complete.c **** /*                                                                        */
   5:../STM32Cube_FW_N6/Middlewares/ST/usbx/common/usbx_stm32_device_controllers/ux_dcd_stm32_initialize_complete.c **** /*       This software is licensed under the Microsoft Software License   */
   6:../STM32Cube_FW_N6/Middlewares/ST/usbx/common/usbx_stm32_device_controllers/ux_dcd_stm32_initialize_complete.c **** /*       Terms for Microsoft Azure RTOS. Full text of the license can be  */
   7:../STM32Cube_FW_N6/Middlewares/ST/usbx/common/usbx_stm32_device_controllers/ux_dcd_stm32_initialize_complete.c **** /*       found in the LICENSE file at https://aka.ms/AzureRTOS_EULA       */
   8:../STM32Cube_FW_N6/Middlewares/ST/usbx/common/usbx_stm32_device_controllers/ux_dcd_stm32_initialize_complete.c **** /*       and in the root directory of this software.                      */
   9:../STM32Cube_FW_N6/Middlewares/ST/usbx/common/usbx_stm32_device_controllers/ux_dcd_stm32_initialize_complete.c **** /*                                                                        */
  10:../STM32Cube_FW_N6/Middlewares/ST/usbx/common/usbx_stm32_device_controllers/ux_dcd_stm32_initialize_complete.c **** /**************************************************************************/
  11:../STM32Cube_FW_N6/Middlewares/ST/usbx/common/usbx_stm32_device_controllers/ux_dcd_stm32_initialize_complete.c **** 
  12:../STM32Cube_FW_N6/Middlewares/ST/usbx/common/usbx_stm32_device_controllers/ux_dcd_stm32_initialize_complete.c **** 
  13:../STM32Cube_FW_N6/Middlewares/ST/usbx/common/usbx_stm32_device_controllers/ux_dcd_stm32_initialize_complete.c **** /**************************************************************************/
  14:../STM32Cube_FW_N6/Middlewares/ST/usbx/common/usbx_stm32_device_controllers/ux_dcd_stm32_initialize_complete.c **** /**************************************************************************/
  15:../STM32Cube_FW_N6/Middlewares/ST/usbx/common/usbx_stm32_device_controllers/ux_dcd_stm32_initialize_complete.c **** /**                                                                       */
  16:../STM32Cube_FW_N6/Middlewares/ST/usbx/common/usbx_stm32_device_controllers/ux_dcd_stm32_initialize_complete.c **** /** USBX Component                                                        */
  17:../STM32Cube_FW_N6/Middlewares/ST/usbx/common/usbx_stm32_device_controllers/ux_dcd_stm32_initialize_complete.c **** /**                                                                       */
  18:../STM32Cube_FW_N6/Middlewares/ST/usbx/common/usbx_stm32_device_controllers/ux_dcd_stm32_initialize_complete.c **** /**   STM32 Controller Driver                                             */
  19:../STM32Cube_FW_N6/Middlewares/ST/usbx/common/usbx_stm32_device_controllers/ux_dcd_stm32_initialize_complete.c **** /**                                                                       */
  20:../STM32Cube_FW_N6/Middlewares/ST/usbx/common/usbx_stm32_device_controllers/ux_dcd_stm32_initialize_complete.c **** /**************************************************************************/
  21:../STM32Cube_FW_N6/Middlewares/ST/usbx/common/usbx_stm32_device_controllers/ux_dcd_stm32_initialize_complete.c **** /**************************************************************************/
  22:../STM32Cube_FW_N6/Middlewares/ST/usbx/common/usbx_stm32_device_controllers/ux_dcd_stm32_initialize_complete.c **** 
  23:../STM32Cube_FW_N6/Middlewares/ST/usbx/common/usbx_stm32_device_controllers/ux_dcd_stm32_initialize_complete.c **** #define UX_SOURCE_CODE
  24:../STM32Cube_FW_N6/Middlewares/ST/usbx/common/usbx_stm32_device_controllers/ux_dcd_stm32_initialize_complete.c **** #define UX_DCD_STM32_SOURCE_CODE
  25:../STM32Cube_FW_N6/Middlewares/ST/usbx/common/usbx_stm32_device_controllers/ux_dcd_stm32_initialize_complete.c **** 
ARM GAS  /tmp/ccoz47iq.s 			page 2


  26:../STM32Cube_FW_N6/Middlewares/ST/usbx/common/usbx_stm32_device_controllers/ux_dcd_stm32_initialize_complete.c **** 
  27:../STM32Cube_FW_N6/Middlewares/ST/usbx/common/usbx_stm32_device_controllers/ux_dcd_stm32_initialize_complete.c **** /* Include necessary system files.  */
  28:../STM32Cube_FW_N6/Middlewares/ST/usbx/common/usbx_stm32_device_controllers/ux_dcd_stm32_initialize_complete.c **** 
  29:../STM32Cube_FW_N6/Middlewares/ST/usbx/common/usbx_stm32_device_controllers/ux_dcd_stm32_initialize_complete.c **** #include "ux_api.h"
  30:../STM32Cube_FW_N6/Middlewares/ST/usbx/common/usbx_stm32_device_controllers/ux_dcd_stm32_initialize_complete.c **** #include "ux_system.h"
  31:../STM32Cube_FW_N6/Middlewares/ST/usbx/common/usbx_stm32_device_controllers/ux_dcd_stm32_initialize_complete.c **** #include "ux_utility.h"
  32:../STM32Cube_FW_N6/Middlewares/ST/usbx/common/usbx_stm32_device_controllers/ux_dcd_stm32_initialize_complete.c **** #include "ux_dcd_stm32.h"
  33:../STM32Cube_FW_N6/Middlewares/ST/usbx/common/usbx_stm32_device_controllers/ux_dcd_stm32_initialize_complete.c **** #include "ux_device_stack.h"
  34:../STM32Cube_FW_N6/Middlewares/ST/usbx/common/usbx_stm32_device_controllers/ux_dcd_stm32_initialize_complete.c **** 
  35:../STM32Cube_FW_N6/Middlewares/ST/usbx/common/usbx_stm32_device_controllers/ux_dcd_stm32_initialize_complete.c **** 
  36:../STM32Cube_FW_N6/Middlewares/ST/usbx/common/usbx_stm32_device_controllers/ux_dcd_stm32_initialize_complete.c **** /**************************************************************************/
  37:../STM32Cube_FW_N6/Middlewares/ST/usbx/common/usbx_stm32_device_controllers/ux_dcd_stm32_initialize_complete.c **** /*                                                                        */
  38:../STM32Cube_FW_N6/Middlewares/ST/usbx/common/usbx_stm32_device_controllers/ux_dcd_stm32_initialize_complete.c **** /*  FUNCTION                                               RELEASE        */
  39:../STM32Cube_FW_N6/Middlewares/ST/usbx/common/usbx_stm32_device_controllers/ux_dcd_stm32_initialize_complete.c **** /*                                                                        */
  40:../STM32Cube_FW_N6/Middlewares/ST/usbx/common/usbx_stm32_device_controllers/ux_dcd_stm32_initialize_complete.c **** /*    _ux_dcd_stm32_initialize_complete                   PORTABLE C      */
  41:../STM32Cube_FW_N6/Middlewares/ST/usbx/common/usbx_stm32_device_controllers/ux_dcd_stm32_initialize_complete.c **** /*                                                           6.1          */
  42:../STM32Cube_FW_N6/Middlewares/ST/usbx/common/usbx_stm32_device_controllers/ux_dcd_stm32_initialize_complete.c **** /*  AUTHOR                                                                */
  43:../STM32Cube_FW_N6/Middlewares/ST/usbx/common/usbx_stm32_device_controllers/ux_dcd_stm32_initialize_complete.c **** /*                                                                        */
  44:../STM32Cube_FW_N6/Middlewares/ST/usbx/common/usbx_stm32_device_controllers/ux_dcd_stm32_initialize_complete.c **** /*    Chaoqiong Xiao, Microsoft Corporation                               */
  45:../STM32Cube_FW_N6/Middlewares/ST/usbx/common/usbx_stm32_device_controllers/ux_dcd_stm32_initialize_complete.c **** /*                                                                        */
  46:../STM32Cube_FW_N6/Middlewares/ST/usbx/common/usbx_stm32_device_controllers/ux_dcd_stm32_initialize_complete.c **** /*  DESCRIPTION                                                           */
  47:../STM32Cube_FW_N6/Middlewares/ST/usbx/common/usbx_stm32_device_controllers/ux_dcd_stm32_initialize_complete.c **** /*                                                                        */
  48:../STM32Cube_FW_N6/Middlewares/ST/usbx/common/usbx_stm32_device_controllers/ux_dcd_stm32_initialize_complete.c **** /*    This function completes the initialization of the USB slave         */
  49:../STM32Cube_FW_N6/Middlewares/ST/usbx/common/usbx_stm32_device_controllers/ux_dcd_stm32_initialize_complete.c **** /*    controller for the STM32 chip.                                      */
  50:../STM32Cube_FW_N6/Middlewares/ST/usbx/common/usbx_stm32_device_controllers/ux_dcd_stm32_initialize_complete.c **** /*                                                                        */
  51:../STM32Cube_FW_N6/Middlewares/ST/usbx/common/usbx_stm32_device_controllers/ux_dcd_stm32_initialize_complete.c **** /*  INPUT                                                                 */
  52:../STM32Cube_FW_N6/Middlewares/ST/usbx/common/usbx_stm32_device_controllers/ux_dcd_stm32_initialize_complete.c **** /*                                                                        */
  53:../STM32Cube_FW_N6/Middlewares/ST/usbx/common/usbx_stm32_device_controllers/ux_dcd_stm32_initialize_complete.c **** /*    None                                                                */
  54:../STM32Cube_FW_N6/Middlewares/ST/usbx/common/usbx_stm32_device_controllers/ux_dcd_stm32_initialize_complete.c **** /*                                                                        */
  55:../STM32Cube_FW_N6/Middlewares/ST/usbx/common/usbx_stm32_device_controllers/ux_dcd_stm32_initialize_complete.c **** /*  OUTPUT                                                                */
  56:../STM32Cube_FW_N6/Middlewares/ST/usbx/common/usbx_stm32_device_controllers/ux_dcd_stm32_initialize_complete.c **** /*                                                                        */
  57:../STM32Cube_FW_N6/Middlewares/ST/usbx/common/usbx_stm32_device_controllers/ux_dcd_stm32_initialize_complete.c **** /*    Completion Status                                                   */
  58:../STM32Cube_FW_N6/Middlewares/ST/usbx/common/usbx_stm32_device_controllers/ux_dcd_stm32_initialize_complete.c **** /*                                                                        */
  59:../STM32Cube_FW_N6/Middlewares/ST/usbx/common/usbx_stm32_device_controllers/ux_dcd_stm32_initialize_complete.c **** /*  CALLS                                                                 */
  60:../STM32Cube_FW_N6/Middlewares/ST/usbx/common/usbx_stm32_device_controllers/ux_dcd_stm32_initialize_complete.c **** /*                                                                        */
  61:../STM32Cube_FW_N6/Middlewares/ST/usbx/common/usbx_stm32_device_controllers/ux_dcd_stm32_initialize_complete.c **** /*    (ux_slave_dcd_function)               Process the DCD function      */
  62:../STM32Cube_FW_N6/Middlewares/ST/usbx/common/usbx_stm32_device_controllers/ux_dcd_stm32_initialize_complete.c **** /*    _ux_utility_descriptor_parse          Parse descriptor              */
  63:../STM32Cube_FW_N6/Middlewares/ST/usbx/common/usbx_stm32_device_controllers/ux_dcd_stm32_initialize_complete.c **** /*    _ux_utility_memory_allocate           Allocate memory               */
  64:../STM32Cube_FW_N6/Middlewares/ST/usbx/common/usbx_stm32_device_controllers/ux_dcd_stm32_initialize_complete.c **** /*                                                                        */
  65:../STM32Cube_FW_N6/Middlewares/ST/usbx/common/usbx_stm32_device_controllers/ux_dcd_stm32_initialize_complete.c **** /*  CALLED BY                                                             */
  66:../STM32Cube_FW_N6/Middlewares/ST/usbx/common/usbx_stm32_device_controllers/ux_dcd_stm32_initialize_complete.c **** /*                                                                        */
  67:../STM32Cube_FW_N6/Middlewares/ST/usbx/common/usbx_stm32_device_controllers/ux_dcd_stm32_initialize_complete.c **** /*    STM32 Controller Driver                                             */
  68:../STM32Cube_FW_N6/Middlewares/ST/usbx/common/usbx_stm32_device_controllers/ux_dcd_stm32_initialize_complete.c **** /*                                                                        */
  69:../STM32Cube_FW_N6/Middlewares/ST/usbx/common/usbx_stm32_device_controllers/ux_dcd_stm32_initialize_complete.c **** /*  RELEASE HISTORY                                                       */
  70:../STM32Cube_FW_N6/Middlewares/ST/usbx/common/usbx_stm32_device_controllers/ux_dcd_stm32_initialize_complete.c **** /*                                                                        */
  71:../STM32Cube_FW_N6/Middlewares/ST/usbx/common/usbx_stm32_device_controllers/ux_dcd_stm32_initialize_complete.c **** /*    DATE              NAME                      DESCRIPTION             */
  72:../STM32Cube_FW_N6/Middlewares/ST/usbx/common/usbx_stm32_device_controllers/ux_dcd_stm32_initialize_complete.c **** /*                                                                        */
  73:../STM32Cube_FW_N6/Middlewares/ST/usbx/common/usbx_stm32_device_controllers/ux_dcd_stm32_initialize_complete.c **** /*  05-19-2020     Chaoqiong Xiao           Initial Version 6.0           */
  74:../STM32Cube_FW_N6/Middlewares/ST/usbx/common/usbx_stm32_device_controllers/ux_dcd_stm32_initialize_complete.c **** /*  09-30-2020     Chaoqiong Xiao           Modified comment(s),          */
  75:../STM32Cube_FW_N6/Middlewares/ST/usbx/common/usbx_stm32_device_controllers/ux_dcd_stm32_initialize_complete.c **** /*                                            prefixed UX to MS_TO_TICK,  */
  76:../STM32Cube_FW_N6/Middlewares/ST/usbx/common/usbx_stm32_device_controllers/ux_dcd_stm32_initialize_complete.c **** /*                                            used ST HAL library to      */
  77:../STM32Cube_FW_N6/Middlewares/ST/usbx/common/usbx_stm32_device_controllers/ux_dcd_stm32_initialize_complete.c **** /*                                            drive the controller,       */
  78:../STM32Cube_FW_N6/Middlewares/ST/usbx/common/usbx_stm32_device_controllers/ux_dcd_stm32_initialize_complete.c **** /*                                            resulting in version 6.1    */
  79:../STM32Cube_FW_N6/Middlewares/ST/usbx/common/usbx_stm32_device_controllers/ux_dcd_stm32_initialize_complete.c **** /*                                                                        */
  80:../STM32Cube_FW_N6/Middlewares/ST/usbx/common/usbx_stm32_device_controllers/ux_dcd_stm32_initialize_complete.c **** /**************************************************************************/
  81:../STM32Cube_FW_N6/Middlewares/ST/usbx/common/usbx_stm32_device_controllers/ux_dcd_stm32_initialize_complete.c **** UINT  _ux_dcd_stm32_initialize_complete(VOID)
  82:../STM32Cube_FW_N6/Middlewares/ST/usbx/common/usbx_stm32_device_controllers/ux_dcd_stm32_initialize_complete.c **** {
ARM GAS  /tmp/ccoz47iq.s 			page 3


  34              		.loc 1 82 1 view -0
  35              		.cfi_startproc
  36              		@ args = 0, pretend = 0, frame = 0
  37              		@ frame_needed = 0, uses_anonymous_args = 0
  83:../STM32Cube_FW_N6/Middlewares/ST/usbx/common/usbx_stm32_device_controllers/ux_dcd_stm32_initialize_complete.c **** 
  84:../STM32Cube_FW_N6/Middlewares/ST/usbx/common/usbx_stm32_device_controllers/ux_dcd_stm32_initialize_complete.c **** UX_SLAVE_DCD            *dcd;
  38              		.loc 1 84 1 view .LVU1
  85:../STM32Cube_FW_N6/Middlewares/ST/usbx/common/usbx_stm32_device_controllers/ux_dcd_stm32_initialize_complete.c **** UX_DCD_STM32            *dcd_stm32;
  39              		.loc 1 85 1 view .LVU2
  86:../STM32Cube_FW_N6/Middlewares/ST/usbx/common/usbx_stm32_device_controllers/ux_dcd_stm32_initialize_complete.c **** UX_SLAVE_DEVICE         *device;
  40              		.loc 1 86 1 view .LVU3
  87:../STM32Cube_FW_N6/Middlewares/ST/usbx/common/usbx_stm32_device_controllers/ux_dcd_stm32_initialize_complete.c **** UCHAR                     *device_framework;
  41              		.loc 1 87 1 view .LVU4
  88:../STM32Cube_FW_N6/Middlewares/ST/usbx/common/usbx_stm32_device_controllers/ux_dcd_stm32_initialize_complete.c **** UX_SLAVE_TRANSFER       *transfer_request;
  42              		.loc 1 88 1 view .LVU5
  89:../STM32Cube_FW_N6/Middlewares/ST/usbx/common/usbx_stm32_device_controllers/ux_dcd_stm32_initialize_complete.c **** 
  90:../STM32Cube_FW_N6/Middlewares/ST/usbx/common/usbx_stm32_device_controllers/ux_dcd_stm32_initialize_complete.c **** 
  91:../STM32Cube_FW_N6/Middlewares/ST/usbx/common/usbx_stm32_device_controllers/ux_dcd_stm32_initialize_complete.c ****     /* Get the pointer to the DCD.  */
  92:../STM32Cube_FW_N6/Middlewares/ST/usbx/common/usbx_stm32_device_controllers/ux_dcd_stm32_initialize_complete.c ****     dcd =  &_ux_system_slave -> ux_system_slave_dcd;
  43              		.loc 1 92 5 view .LVU6
  82:../STM32Cube_FW_N6/Middlewares/ST/usbx/common/usbx_stm32_device_controllers/ux_dcd_stm32_initialize_complete.c **** 
  44              		.loc 1 82 1 is_stmt 0 view .LVU7
  45 0000 70B5     		push	{r4, r5, r6, lr}
  46              		.cfi_def_cfa_offset 16
  47              		.cfi_offset 4, -16
  48              		.cfi_offset 5, -12
  49              		.cfi_offset 6, -8
  50              		.cfi_offset 14, -4
  51              		.loc 1 92 30 view .LVU8
  52 0002 314E     		ldr	r6, .L9
  53 0004 3468     		ldr	r4, [r6]
  54              	.LVL0:
  93:../STM32Cube_FW_N6/Middlewares/ST/usbx/common/usbx_stm32_device_controllers/ux_dcd_stm32_initialize_complete.c **** 
  94:../STM32Cube_FW_N6/Middlewares/ST/usbx/common/usbx_stm32_device_controllers/ux_dcd_stm32_initialize_complete.c ****     /* Get the pointer to the STM32 DCD.  */
  95:../STM32Cube_FW_N6/Middlewares/ST/usbx/common/usbx_stm32_device_controllers/ux_dcd_stm32_initialize_complete.c ****     dcd_stm32 = (UX_DCD_STM32 *) dcd -> ux_slave_dcd_controller_hardware;
  55              		.loc 1 95 5 is_stmt 1 view .LVU9
  96:../STM32Cube_FW_N6/Middlewares/ST/usbx/common/usbx_stm32_device_controllers/ux_dcd_stm32_initialize_complete.c **** 
  97:../STM32Cube_FW_N6/Middlewares/ST/usbx/common/usbx_stm32_device_controllers/ux_dcd_stm32_initialize_complete.c ****     /* Get the pointer to the device.  */
  98:../STM32Cube_FW_N6/Middlewares/ST/usbx/common/usbx_stm32_device_controllers/ux_dcd_stm32_initialize_complete.c ****     device =  &_ux_system_slave -> ux_system_slave_device;
  99:../STM32Cube_FW_N6/Middlewares/ST/usbx/common/usbx_stm32_device_controllers/ux_dcd_stm32_initialize_complete.c **** 
 100:../STM32Cube_FW_N6/Middlewares/ST/usbx/common/usbx_stm32_device_controllers/ux_dcd_stm32_initialize_complete.c ****     /* Are we in DFU mode ? If so, check if we are in a Reset mode.  */
 101:../STM32Cube_FW_N6/Middlewares/ST/usbx/common/usbx_stm32_device_controllers/ux_dcd_stm32_initialize_complete.c ****     if (_ux_system_slave -> ux_system_slave_device_dfu_state_machine == UX_SYSTEM_DFU_STATE_APP_DET
  56              		.loc 1 101 8 is_stmt 0 view .LVU10
  57 0006 D4F85C31 		ldr	r3, [r4, #348]
  95:../STM32Cube_FW_N6/Middlewares/ST/usbx/common/usbx_stm32_device_controllers/ux_dcd_stm32_initialize_complete.c **** 
  58              		.loc 1 95 15 view .LVU11
  59 000a E569     		ldr	r5, [r4, #28]
  60              	.LVL1:
  98:../STM32Cube_FW_N6/Middlewares/ST/usbx/common/usbx_stm32_device_controllers/ux_dcd_stm32_initialize_complete.c **** 
  61              		.loc 1 98 5 is_stmt 1 view .LVU12
  62              		.loc 1 101 5 view .LVU13
  63              		.loc 1 101 8 is_stmt 0 view .LVU14
  64 000c 012B     		cmp	r3, #1
  65 000e 45D1     		bne	.L2
 102:../STM32Cube_FW_N6/Middlewares/ST/usbx/common/usbx_stm32_device_controllers/ux_dcd_stm32_initialize_complete.c ****     {
 103:../STM32Cube_FW_N6/Middlewares/ST/usbx/common/usbx_stm32_device_controllers/ux_dcd_stm32_initialize_complete.c **** 
 104:../STM32Cube_FW_N6/Middlewares/ST/usbx/common/usbx_stm32_device_controllers/ux_dcd_stm32_initialize_complete.c ****         /* The device is now in DFU reset mode. Switch to the DFU device framework.  */
ARM GAS  /tmp/ccoz47iq.s 			page 4


 105:../STM32Cube_FW_N6/Middlewares/ST/usbx/common/usbx_stm32_device_controllers/ux_dcd_stm32_initialize_complete.c ****         _ux_system_slave -> ux_system_slave_device_framework =  _ux_system_slave -> ux_system_slave
  66              		.loc 1 105 9 is_stmt 1 view .LVU15
  67              		.loc 1 105 82 is_stmt 0 view .LVU16
  68 0010 D4F8F400 		ldr	r0, [r4, #244]
 106:../STM32Cube_FW_N6/Middlewares/ST/usbx/common/usbx_stm32_device_controllers/ux_dcd_stm32_initialize_complete.c ****         _ux_system_slave -> ux_system_slave_device_framework_length =  _ux_system_slave -> ux_syste
  69              		.loc 1 106 89 view .LVU17
  70 0014 D4F8F830 		ldr	r3, [r4, #248]
 105:../STM32Cube_FW_N6/Middlewares/ST/usbx/common/usbx_stm32_device_controllers/ux_dcd_stm32_initialize_complete.c ****         _ux_system_slave -> ux_system_slave_device_framework_length =  _ux_system_slave -> ux_syste
  71              		.loc 1 105 62 view .LVU18
  72 0018 C4F8CC00 		str	r0, [r4, #204]
  73              		.loc 1 106 9 is_stmt 1 view .LVU19
  74              	.L3:
 107:../STM32Cube_FW_N6/Middlewares/ST/usbx/common/usbx_stm32_device_controllers/ux_dcd_stm32_initialize_complete.c **** 
 108:../STM32Cube_FW_N6/Middlewares/ST/usbx/common/usbx_stm32_device_controllers/ux_dcd_stm32_initialize_complete.c ****     }
 109:../STM32Cube_FW_N6/Middlewares/ST/usbx/common/usbx_stm32_device_controllers/ux_dcd_stm32_initialize_complete.c ****     else
 110:../STM32Cube_FW_N6/Middlewares/ST/usbx/common/usbx_stm32_device_controllers/ux_dcd_stm32_initialize_complete.c ****     {
 111:../STM32Cube_FW_N6/Middlewares/ST/usbx/common/usbx_stm32_device_controllers/ux_dcd_stm32_initialize_complete.c **** 
 112:../STM32Cube_FW_N6/Middlewares/ST/usbx/common/usbx_stm32_device_controllers/ux_dcd_stm32_initialize_complete.c ****         /* Set State to App Idle. */
 113:../STM32Cube_FW_N6/Middlewares/ST/usbx/common/usbx_stm32_device_controllers/ux_dcd_stm32_initialize_complete.c ****         _ux_system_slave -> ux_system_slave_device_dfu_state_machine = UX_SYSTEM_DFU_STATE_APP_IDLE
 114:../STM32Cube_FW_N6/Middlewares/ST/usbx/common/usbx_stm32_device_controllers/ux_dcd_stm32_initialize_complete.c **** 
 115:../STM32Cube_FW_N6/Middlewares/ST/usbx/common/usbx_stm32_device_controllers/ux_dcd_stm32_initialize_complete.c ****         /* Check the speed and set the correct descriptor.  */
 116:../STM32Cube_FW_N6/Middlewares/ST/usbx/common/usbx_stm32_device_controllers/ux_dcd_stm32_initialize_complete.c ****         if (_ux_system_slave -> ux_system_slave_speed ==  UX_FULL_SPEED_DEVICE)
 117:../STM32Cube_FW_N6/Middlewares/ST/usbx/common/usbx_stm32_device_controllers/ux_dcd_stm32_initialize_complete.c ****         {
 118:../STM32Cube_FW_N6/Middlewares/ST/usbx/common/usbx_stm32_device_controllers/ux_dcd_stm32_initialize_complete.c **** 
 119:../STM32Cube_FW_N6/Middlewares/ST/usbx/common/usbx_stm32_device_controllers/ux_dcd_stm32_initialize_complete.c ****             /* The device is operating at full speed.  */
 120:../STM32Cube_FW_N6/Middlewares/ST/usbx/common/usbx_stm32_device_controllers/ux_dcd_stm32_initialize_complete.c ****             _ux_system_slave -> ux_system_slave_device_framework =  _ux_system_slave -> ux_system_s
 121:../STM32Cube_FW_N6/Middlewares/ST/usbx/common/usbx_stm32_device_controllers/ux_dcd_stm32_initialize_complete.c ****             _ux_system_slave -> ux_system_slave_device_framework_length =  _ux_system_slave -> ux_s
 122:../STM32Cube_FW_N6/Middlewares/ST/usbx/common/usbx_stm32_device_controllers/ux_dcd_stm32_initialize_complete.c ****         }
 123:../STM32Cube_FW_N6/Middlewares/ST/usbx/common/usbx_stm32_device_controllers/ux_dcd_stm32_initialize_complete.c ****         else
 124:../STM32Cube_FW_N6/Middlewares/ST/usbx/common/usbx_stm32_device_controllers/ux_dcd_stm32_initialize_complete.c ****         {
 125:../STM32Cube_FW_N6/Middlewares/ST/usbx/common/usbx_stm32_device_controllers/ux_dcd_stm32_initialize_complete.c **** 
 126:../STM32Cube_FW_N6/Middlewares/ST/usbx/common/usbx_stm32_device_controllers/ux_dcd_stm32_initialize_complete.c ****             /* The device is operating at high speed.  */
 127:../STM32Cube_FW_N6/Middlewares/ST/usbx/common/usbx_stm32_device_controllers/ux_dcd_stm32_initialize_complete.c ****             _ux_system_slave -> ux_system_slave_device_framework =  _ux_system_slave -> ux_system_s
 128:../STM32Cube_FW_N6/Middlewares/ST/usbx/common/usbx_stm32_device_controllers/ux_dcd_stm32_initialize_complete.c ****             _ux_system_slave -> ux_system_slave_device_framework_length =  _ux_system_slave -> ux_s
 129:../STM32Cube_FW_N6/Middlewares/ST/usbx/common/usbx_stm32_device_controllers/ux_dcd_stm32_initialize_complete.c ****         }
 130:../STM32Cube_FW_N6/Middlewares/ST/usbx/common/usbx_stm32_device_controllers/ux_dcd_stm32_initialize_complete.c ****     }
 131:../STM32Cube_FW_N6/Middlewares/ST/usbx/common/usbx_stm32_device_controllers/ux_dcd_stm32_initialize_complete.c **** 
 132:../STM32Cube_FW_N6/Middlewares/ST/usbx/common/usbx_stm32_device_controllers/ux_dcd_stm32_initialize_complete.c ****     /* Get the device framework pointer.  */
 133:../STM32Cube_FW_N6/Middlewares/ST/usbx/common/usbx_stm32_device_controllers/ux_dcd_stm32_initialize_complete.c ****     device_framework =  _ux_system_slave -> ux_system_slave_device_framework;
 134:../STM32Cube_FW_N6/Middlewares/ST/usbx/common/usbx_stm32_device_controllers/ux_dcd_stm32_initialize_complete.c **** 
 135:../STM32Cube_FW_N6/Middlewares/ST/usbx/common/usbx_stm32_device_controllers/ux_dcd_stm32_initialize_complete.c ****     /* And create the decompressed device descriptor structure.  */
 136:../STM32Cube_FW_N6/Middlewares/ST/usbx/common/usbx_stm32_device_controllers/ux_dcd_stm32_initialize_complete.c ****     _ux_utility_descriptor_parse(device_framework,
  75              		.loc 1 136 5 is_stmt 0 view .LVU20
  76 001c 0E22     		movs	r2, #14
  77 001e 2B49     		ldr	r1, .L9+4
 106:../STM32Cube_FW_N6/Middlewares/ST/usbx/common/usbx_stm32_device_controllers/ux_dcd_stm32_initialize_complete.c **** 
  78              		.loc 1 106 69 view .LVU21
  79 0020 C4F8D030 		str	r3, [r4, #208]
 133:../STM32Cube_FW_N6/Middlewares/ST/usbx/common/usbx_stm32_device_controllers/ux_dcd_stm32_initialize_complete.c **** 
  80              		.loc 1 133 5 is_stmt 1 view .LVU22
  81              	.LVL2:
  82              		.loc 1 136 5 view .LVU23
  83 0024 04F12803 		add	r3, r4, #40
  84 0028 FFF7FEFF 		bl	_ux_utility_descriptor_parse
  85              	.LVL3:
 137:../STM32Cube_FW_N6/Middlewares/ST/usbx/common/usbx_stm32_device_controllers/ux_dcd_stm32_initialize_complete.c ****                                 _ux_system_device_descriptor_structure,
 138:../STM32Cube_FW_N6/Middlewares/ST/usbx/common/usbx_stm32_device_controllers/ux_dcd_stm32_initialize_complete.c ****                                 UX_DEVICE_DESCRIPTOR_ENTRIES,
ARM GAS  /tmp/ccoz47iq.s 			page 5


 139:../STM32Cube_FW_N6/Middlewares/ST/usbx/common/usbx_stm32_device_controllers/ux_dcd_stm32_initialize_complete.c ****                                 (UCHAR *) &device -> ux_slave_device_descriptor);
 140:../STM32Cube_FW_N6/Middlewares/ST/usbx/common/usbx_stm32_device_controllers/ux_dcd_stm32_initialize_complete.c **** 
 141:../STM32Cube_FW_N6/Middlewares/ST/usbx/common/usbx_stm32_device_controllers/ux_dcd_stm32_initialize_complete.c ****     /* Now we create a transfer request to accept the first SETUP packet
 142:../STM32Cube_FW_N6/Middlewares/ST/usbx/common/usbx_stm32_device_controllers/ux_dcd_stm32_initialize_complete.c ****        and get the ball running. First get the address of the endpoint
 143:../STM32Cube_FW_N6/Middlewares/ST/usbx/common/usbx_stm32_device_controllers/ux_dcd_stm32_initialize_complete.c ****        transfer request container.  */
 144:../STM32Cube_FW_N6/Middlewares/ST/usbx/common/usbx_stm32_device_controllers/ux_dcd_stm32_initialize_complete.c ****     transfer_request =  &device -> ux_slave_device_control_endpoint.ux_slave_endpoint_transfer_requ
  86              		.loc 1 144 5 view .LVU24
 145:../STM32Cube_FW_N6/Middlewares/ST/usbx/common/usbx_stm32_device_controllers/ux_dcd_stm32_initialize_complete.c **** 
 146:../STM32Cube_FW_N6/Middlewares/ST/usbx/common/usbx_stm32_device_controllers/ux_dcd_stm32_initialize_complete.c ****     /* Set the timeout to be for Control Endpoint.  */
 147:../STM32Cube_FW_N6/Middlewares/ST/usbx/common/usbx_stm32_device_controllers/ux_dcd_stm32_initialize_complete.c ****     transfer_request -> ux_slave_transfer_request_timeout =  UX_MS_TO_TICK(UX_CONTROL_TRANSFER_TIME
  87              		.loc 1 147 5 view .LVU25
  88              		.loc 1 147 59 is_stmt 0 view .LVU26
  89 002c 42F21073 		movw	r3, #10000
  90 0030 C4F89030 		str	r3, [r4, #144]
 148:../STM32Cube_FW_N6/Middlewares/ST/usbx/common/usbx_stm32_device_controllers/ux_dcd_stm32_initialize_complete.c **** 
 149:../STM32Cube_FW_N6/Middlewares/ST/usbx/common/usbx_stm32_device_controllers/ux_dcd_stm32_initialize_complete.c ****     /* Adjust the current data pointer as well.  */
 150:../STM32Cube_FW_N6/Middlewares/ST/usbx/common/usbx_stm32_device_controllers/ux_dcd_stm32_initialize_complete.c ****     transfer_request -> ux_slave_transfer_request_current_data_pointer =
  91              		.loc 1 150 5 is_stmt 1 view .LVU27
  92              		.loc 1 150 72 is_stmt 0 view .LVU28
  93 0034 A36E     		ldr	r3, [r4, #104]
 151:../STM32Cube_FW_N6/Middlewares/ST/usbx/common/usbx_stm32_device_controllers/ux_dcd_stm32_initialize_complete.c ****                             transfer_request -> ux_slave_transfer_request_data_pointer;
 152:../STM32Cube_FW_N6/Middlewares/ST/usbx/common/usbx_stm32_device_controllers/ux_dcd_stm32_initialize_complete.c **** 
 153:../STM32Cube_FW_N6/Middlewares/ST/usbx/common/usbx_stm32_device_controllers/ux_dcd_stm32_initialize_complete.c ****     /* Update the transfer request endpoint pointer with the default endpoint.  */
 154:../STM32Cube_FW_N6/Middlewares/ST/usbx/common/usbx_stm32_device_controllers/ux_dcd_stm32_initialize_complete.c ****     transfer_request -> ux_slave_transfer_request_endpoint =  &device -> ux_slave_device_control_en
  94              		.loc 1 154 63 view .LVU29
  95 0036 04F13C02 		add	r2, r4, #60
 150:../STM32Cube_FW_N6/Middlewares/ST/usbx/common/usbx_stm32_device_controllers/ux_dcd_stm32_initialize_complete.c ****                             transfer_request -> ux_slave_transfer_request_data_pointer;
  96              		.loc 1 150 72 view .LVU30
  97 003a E366     		str	r3, [r4, #108]
  98              		.loc 1 154 5 is_stmt 1 view .LVU31
 155:../STM32Cube_FW_N6/Middlewares/ST/usbx/common/usbx_stm32_device_controllers/ux_dcd_stm32_initialize_complete.c **** 
 156:../STM32Cube_FW_N6/Middlewares/ST/usbx/common/usbx_stm32_device_controllers/ux_dcd_stm32_initialize_complete.c ****     /* The control endpoint max packet size needs to be filled manually in its descriptor.  */
 157:../STM32Cube_FW_N6/Middlewares/ST/usbx/common/usbx_stm32_device_controllers/ux_dcd_stm32_initialize_complete.c ****     transfer_request -> ux_slave_transfer_request_endpoint -> ux_slave_endpoint_descriptor.wMaxPack
 158:../STM32Cube_FW_N6/Middlewares/ST/usbx/common/usbx_stm32_device_controllers/ux_dcd_stm32_initialize_complete.c ****                                 device -> ux_slave_device_descriptor.bMaxPacketSize0;
  99              		.loc 1 158 69 is_stmt 0 view .LVU32
 100 003c 94F82F30 		ldrb	r3, [r4, #47]	@ zero_extendqisi2
 154:../STM32Cube_FW_N6/Middlewares/ST/usbx/common/usbx_stm32_device_controllers/ux_dcd_stm32_initialize_complete.c **** 
 101              		.loc 1 154 60 view .LVU33
 102 0040 6266     		str	r2, [r4, #100]
 157:../STM32Cube_FW_N6/Middlewares/ST/usbx/common/usbx_stm32_device_controllers/ux_dcd_stm32_initialize_complete.c ****                                 device -> ux_slave_device_descriptor.bMaxPacketSize0;
 103              		.loc 1 157 5 is_stmt 1 view .LVU34
 159:../STM32Cube_FW_N6/Middlewares/ST/usbx/common/usbx_stm32_device_controllers/ux_dcd_stm32_initialize_complete.c **** 
 160:../STM32Cube_FW_N6/Middlewares/ST/usbx/common/usbx_stm32_device_controllers/ux_dcd_stm32_initialize_complete.c ****     /* On the control endpoint, always expect the maximum.  */
 161:../STM32Cube_FW_N6/Middlewares/ST/usbx/common/usbx_stm32_device_controllers/ux_dcd_stm32_initialize_complete.c ****     transfer_request -> ux_slave_transfer_request_requested_length =
 162:../STM32Cube_FW_N6/Middlewares/ST/usbx/common/usbx_stm32_device_controllers/ux_dcd_stm32_initialize_complete.c ****                                 device -> ux_slave_device_descriptor.bMaxPacketSize0;
 163:../STM32Cube_FW_N6/Middlewares/ST/usbx/common/usbx_stm32_device_controllers/ux_dcd_stm32_initialize_complete.c **** 
 164:../STM32Cube_FW_N6/Middlewares/ST/usbx/common/usbx_stm32_device_controllers/ux_dcd_stm32_initialize_complete.c ****     /* Attach the control endpoint to the transfer request.  */
 165:../STM32Cube_FW_N6/Middlewares/ST/usbx/common/usbx_stm32_device_controllers/ux_dcd_stm32_initialize_complete.c ****     transfer_request -> ux_slave_transfer_request_endpoint =  &device -> ux_slave_device_control_en
 166:../STM32Cube_FW_N6/Middlewares/ST/usbx/common/usbx_stm32_device_controllers/ux_dcd_stm32_initialize_complete.c **** 
 167:../STM32Cube_FW_N6/Middlewares/ST/usbx/common/usbx_stm32_device_controllers/ux_dcd_stm32_initialize_complete.c ****     /* Create the default control endpoint attached to the device.
 168:../STM32Cube_FW_N6/Middlewares/ST/usbx/common/usbx_stm32_device_controllers/ux_dcd_stm32_initialize_complete.c ****        Once this endpoint is enabled, the host can then send a setup packet
 169:../STM32Cube_FW_N6/Middlewares/ST/usbx/common/usbx_stm32_device_controllers/ux_dcd_stm32_initialize_complete.c ****        The device controller will receive it and will call the setup function
 170:../STM32Cube_FW_N6/Middlewares/ST/usbx/common/usbx_stm32_device_controllers/ux_dcd_stm32_initialize_complete.c ****        module.  */
 171:../STM32Cube_FW_N6/Middlewares/ST/usbx/common/usbx_stm32_device_controllers/ux_dcd_stm32_initialize_complete.c ****     dcd -> ux_slave_dcd_function(dcd, UX_DCD_CREATE_ENDPOINT,
 104              		.loc 1 171 5 is_stmt 0 view .LVU35
 105 0042 0E21     		movs	r1, #14
 158:../STM32Cube_FW_N6/Middlewares/ST/usbx/common/usbx_stm32_device_controllers/ux_dcd_stm32_initialize_complete.c **** 
ARM GAS  /tmp/ccoz47iq.s 			page 6


 106              		.loc 1 158 69 view .LVU36
 107 0044 A4F84C30 		strh	r3, [r4, #76]	@ movhi
 161:../STM32Cube_FW_N6/Middlewares/ST/usbx/common/usbx_stm32_device_controllers/ux_dcd_stm32_initialize_complete.c ****                                 device -> ux_slave_device_descriptor.bMaxPacketSize0;
 108              		.loc 1 161 5 is_stmt 1 view .LVU37
 162:../STM32Cube_FW_N6/Middlewares/ST/usbx/common/usbx_stm32_device_controllers/ux_dcd_stm32_initialize_complete.c **** 
 109              		.loc 1 162 69 is_stmt 0 view .LVU38
 110 0048 2367     		str	r3, [r4, #112]
 165:../STM32Cube_FW_N6/Middlewares/ST/usbx/common/usbx_stm32_device_controllers/ux_dcd_stm32_initialize_complete.c **** 
 111              		.loc 1 165 5 is_stmt 1 view .LVU39
 112              		.loc 1 171 5 view .LVU40
 113 004a 2046     		mov	r0, r4
 114 004c A369     		ldr	r3, [r4, #24]
 115 004e 9847     		blx	r3
 116              	.LVL4:
 172:../STM32Cube_FW_N6/Middlewares/ST/usbx/common/usbx_stm32_device_controllers/ux_dcd_stm32_initialize_complete.c ****                                     (VOID *) &device -> ux_slave_device_control_endpoint);
 173:../STM32Cube_FW_N6/Middlewares/ST/usbx/common/usbx_stm32_device_controllers/ux_dcd_stm32_initialize_complete.c **** 
 174:../STM32Cube_FW_N6/Middlewares/ST/usbx/common/usbx_stm32_device_controllers/ux_dcd_stm32_initialize_complete.c ****     /* Open Control OUT endpoint.  */
 175:../STM32Cube_FW_N6/Middlewares/ST/usbx/common/usbx_stm32_device_controllers/ux_dcd_stm32_initialize_complete.c ****     HAL_PCD_EP_Flush(dcd_stm32 -> pcd_handle, 0x00U);
 117              		.loc 1 175 5 view .LVU41
 118 0050 0021     		movs	r1, #0
 119 0052 286F     		ldr	r0, [r5, #112]
 120 0054 FFF7FEFF 		bl	HAL_PCD_EP_Flush
 121              	.LVL5:
 176:../STM32Cube_FW_N6/Middlewares/ST/usbx/common/usbx_stm32_device_controllers/ux_dcd_stm32_initialize_complete.c ****     HAL_PCD_EP_Open(dcd_stm32 -> pcd_handle, 0x00U, device -> ux_slave_device_descriptor.bMaxPacket
 122              		.loc 1 176 5 view .LVU42
 123 0058 0023     		movs	r3, #0
 124 005a 94F82F20 		ldrb	r2, [r4, #47]	@ zero_extendqisi2
 125 005e 1946     		mov	r1, r3
 126 0060 286F     		ldr	r0, [r5, #112]
 127 0062 FFF7FEFF 		bl	HAL_PCD_EP_Open
 128              	.LVL6:
 177:../STM32Cube_FW_N6/Middlewares/ST/usbx/common/usbx_stm32_device_controllers/ux_dcd_stm32_initialize_complete.c **** 
 178:../STM32Cube_FW_N6/Middlewares/ST/usbx/common/usbx_stm32_device_controllers/ux_dcd_stm32_initialize_complete.c ****     /* Open Control IN endpoint.  */
 179:../STM32Cube_FW_N6/Middlewares/ST/usbx/common/usbx_stm32_device_controllers/ux_dcd_stm32_initialize_complete.c ****     HAL_PCD_EP_Flush(dcd_stm32 -> pcd_handle, 0x80U);
 129              		.loc 1 179 5 view .LVU43
 130 0066 8021     		movs	r1, #128
 131 0068 286F     		ldr	r0, [r5, #112]
 132 006a FFF7FEFF 		bl	HAL_PCD_EP_Flush
 133              	.LVL7:
 180:../STM32Cube_FW_N6/Middlewares/ST/usbx/common/usbx_stm32_device_controllers/ux_dcd_stm32_initialize_complete.c ****     HAL_PCD_EP_Open(dcd_stm32 -> pcd_handle, 0x80U, device -> ux_slave_device_descriptor.bMaxPacket
 134              		.loc 1 180 5 view .LVU44
 135 006e 0023     		movs	r3, #0
 136 0070 94F82F20 		ldrb	r2, [r4, #47]	@ zero_extendqisi2
 137 0074 8021     		movs	r1, #128
 138 0076 286F     		ldr	r0, [r5, #112]
 139 0078 FFF7FEFF 		bl	HAL_PCD_EP_Open
 140              	.LVL8:
 181:../STM32Cube_FW_N6/Middlewares/ST/usbx/common/usbx_stm32_device_controllers/ux_dcd_stm32_initialize_complete.c **** 
 182:../STM32Cube_FW_N6/Middlewares/ST/usbx/common/usbx_stm32_device_controllers/ux_dcd_stm32_initialize_complete.c ****     /* Ensure the control endpoint is properly reset.  */
 183:../STM32Cube_FW_N6/Middlewares/ST/usbx/common/usbx_stm32_device_controllers/ux_dcd_stm32_initialize_complete.c ****     device -> ux_slave_device_control_endpoint.ux_slave_endpoint_state = UX_ENDPOINT_RESET;
 141              		.loc 1 183 5 view .LVU45
 142              		.loc 1 183 72 is_stmt 0 view .LVU46
 143 007c 0023     		movs	r3, #0
 184:../STM32Cube_FW_N6/Middlewares/ST/usbx/common/usbx_stm32_device_controllers/ux_dcd_stm32_initialize_complete.c **** 
 185:../STM32Cube_FW_N6/Middlewares/ST/usbx/common/usbx_stm32_device_controllers/ux_dcd_stm32_initialize_complete.c ****     /* Mark the phase as SETUP.  */
 186:../STM32Cube_FW_N6/Middlewares/ST/usbx/common/usbx_stm32_device_controllers/ux_dcd_stm32_initialize_complete.c ****     transfer_request -> ux_slave_transfer_request_type =  UX_TRANSFER_PHASE_SETUP;
 187:../STM32Cube_FW_N6/Middlewares/ST/usbx/common/usbx_stm32_device_controllers/ux_dcd_stm32_initialize_complete.c **** 
ARM GAS  /tmp/ccoz47iq.s 			page 7


 188:../STM32Cube_FW_N6/Middlewares/ST/usbx/common/usbx_stm32_device_controllers/ux_dcd_stm32_initialize_complete.c ****     /* Mark this transfer request as pending.  */
 189:../STM32Cube_FW_N6/Middlewares/ST/usbx/common/usbx_stm32_device_controllers/ux_dcd_stm32_initialize_complete.c ****     transfer_request -> ux_slave_transfer_request_status =  UX_TRANSFER_STATUS_PENDING;
 190:../STM32Cube_FW_N6/Middlewares/ST/usbx/common/usbx_stm32_device_controllers/ux_dcd_stm32_initialize_complete.c **** 
 191:../STM32Cube_FW_N6/Middlewares/ST/usbx/common/usbx_stm32_device_controllers/ux_dcd_stm32_initialize_complete.c ****     /* Ask for 8 bytes of the SETUP packet.  */
 192:../STM32Cube_FW_N6/Middlewares/ST/usbx/common/usbx_stm32_device_controllers/ux_dcd_stm32_initialize_complete.c ****     transfer_request -> ux_slave_transfer_request_requested_length =    UX_SETUP_SIZE;
 144              		.loc 1 192 68 view .LVU47
 145 007e 0822     		movs	r2, #8
 186:../STM32Cube_FW_N6/Middlewares/ST/usbx/common/usbx_stm32_device_controllers/ux_dcd_stm32_initialize_complete.c **** 
 146              		.loc 1 186 56 view .LVU48
 147 0080 0120     		movs	r0, #1
 193:../STM32Cube_FW_N6/Middlewares/ST/usbx/common/usbx_stm32_device_controllers/ux_dcd_stm32_initialize_complete.c ****     transfer_request -> ux_slave_transfer_request_in_transfer_length =  UX_SETUP_SIZE;
 194:../STM32Cube_FW_N6/Middlewares/ST/usbx/common/usbx_stm32_device_controllers/ux_dcd_stm32_initialize_complete.c **** 
 195:../STM32Cube_FW_N6/Middlewares/ST/usbx/common/usbx_stm32_device_controllers/ux_dcd_stm32_initialize_complete.c ****     /* Reset the number of bytes sent/received.  */
 196:../STM32Cube_FW_N6/Middlewares/ST/usbx/common/usbx_stm32_device_controllers/ux_dcd_stm32_initialize_complete.c ****     transfer_request -> ux_slave_transfer_request_actual_length =  0;
 148              		.loc 1 196 65 view .LVU49
 149 0082 C4E91D32 		strd	r3, r2, [r4, #116]
 183:../STM32Cube_FW_N6/Middlewares/ST/usbx/common/usbx_stm32_device_controllers/ux_dcd_stm32_initialize_complete.c **** 
 150              		.loc 1 183 72 view .LVU50
 151 0086 2364     		str	r3, [r4, #64]
 186:../STM32Cube_FW_N6/Middlewares/ST/usbx/common/usbx_stm32_device_controllers/ux_dcd_stm32_initialize_complete.c **** 
 152              		.loc 1 186 5 is_stmt 1 view .LVU51
 197:../STM32Cube_FW_N6/Middlewares/ST/usbx/common/usbx_stm32_device_controllers/ux_dcd_stm32_initialize_complete.c **** 
 198:../STM32Cube_FW_N6/Middlewares/ST/usbx/common/usbx_stm32_device_controllers/ux_dcd_stm32_initialize_complete.c ****     /* Check the status change callback.  */
 199:../STM32Cube_FW_N6/Middlewares/ST/usbx/common/usbx_stm32_device_controllers/ux_dcd_stm32_initialize_complete.c ****     if(_ux_system_slave -> ux_system_slave_change_function != UX_NULL)
 153              		.loc 1 199 25 is_stmt 0 view .LVU52
 154 0088 3368     		ldr	r3, [r6]
 189:../STM32Cube_FW_N6/Middlewares/ST/usbx/common/usbx_stm32_device_controllers/ux_dcd_stm32_initialize_complete.c **** 
 155              		.loc 1 189 58 view .LVU53
 156 008a C4E91700 		strd	r0, r0, [r4, #92]
 192:../STM32Cube_FW_N6/Middlewares/ST/usbx/common/usbx_stm32_device_controllers/ux_dcd_stm32_initialize_complete.c ****     transfer_request -> ux_slave_transfer_request_in_transfer_length =  UX_SETUP_SIZE;
 157              		.loc 1 192 5 is_stmt 1 view .LVU54
 158              		.loc 1 199 25 is_stmt 0 view .LVU55
 159 008e D3F86431 		ldr	r3, [r3, #356]
 192:../STM32Cube_FW_N6/Middlewares/ST/usbx/common/usbx_stm32_device_controllers/ux_dcd_stm32_initialize_complete.c ****     transfer_request -> ux_slave_transfer_request_in_transfer_length =  UX_SETUP_SIZE;
 160              		.loc 1 192 68 view .LVU56
 161 0092 2267     		str	r2, [r4, #112]
 193:../STM32Cube_FW_N6/Middlewares/ST/usbx/common/usbx_stm32_device_controllers/ux_dcd_stm32_initialize_complete.c **** 
 162              		.loc 1 193 5 is_stmt 1 view .LVU57
 163              		.loc 1 199 5 view .LVU58
 164              		.loc 1 199 7 is_stmt 0 view .LVU59
 165 0094 03B1     		cbz	r3, .L5
 200:../STM32Cube_FW_N6/Middlewares/ST/usbx/common/usbx_stm32_device_controllers/ux_dcd_stm32_initialize_complete.c ****     {
 201:../STM32Cube_FW_N6/Middlewares/ST/usbx/common/usbx_stm32_device_controllers/ux_dcd_stm32_initialize_complete.c **** 
 202:../STM32Cube_FW_N6/Middlewares/ST/usbx/common/usbx_stm32_device_controllers/ux_dcd_stm32_initialize_complete.c ****         /* Inform the application if a callback function was programmed.  */
 203:../STM32Cube_FW_N6/Middlewares/ST/usbx/common/usbx_stm32_device_controllers/ux_dcd_stm32_initialize_complete.c ****         _ux_system_slave -> ux_system_slave_change_function(UX_DEVICE_ATTACHED);
 166              		.loc 1 203 9 is_stmt 1 view .LVU60
 167 0096 9847     		blx	r3
 168              	.LVL9:
 169              	.L5:
 204:../STM32Cube_FW_N6/Middlewares/ST/usbx/common/usbx_stm32_device_controllers/ux_dcd_stm32_initialize_complete.c ****     }
 205:../STM32Cube_FW_N6/Middlewares/ST/usbx/common/usbx_stm32_device_controllers/ux_dcd_stm32_initialize_complete.c **** 
 206:../STM32Cube_FW_N6/Middlewares/ST/usbx/common/usbx_stm32_device_controllers/ux_dcd_stm32_initialize_complete.c ****     /* If trace is enabled, insert this event into the trace buffer.  */
 207:../STM32Cube_FW_N6/Middlewares/ST/usbx/common/usbx_stm32_device_controllers/ux_dcd_stm32_initialize_complete.c ****     UX_TRACE_IN_LINE_INSERT(UX_TRACE_DEVICE_STACK_CONNECT, 0, 0, 0, 0, UX_TRACE_DEVICE_STACK_EVENTS
 208:../STM32Cube_FW_N6/Middlewares/ST/usbx/common/usbx_stm32_device_controllers/ux_dcd_stm32_initialize_complete.c **** 
 209:../STM32Cube_FW_N6/Middlewares/ST/usbx/common/usbx_stm32_device_controllers/ux_dcd_stm32_initialize_complete.c ****     /* If trace is enabled, register this object.  */
 210:../STM32Cube_FW_N6/Middlewares/ST/usbx/common/usbx_stm32_device_controllers/ux_dcd_stm32_initialize_complete.c ****     UX_TRACE_OBJECT_REGISTER(UX_TRACE_DEVICE_OBJECT_TYPE_DEVICE, device, 0, 0, 0)
 211:../STM32Cube_FW_N6/Middlewares/ST/usbx/common/usbx_stm32_device_controllers/ux_dcd_stm32_initialize_complete.c **** 
ARM GAS  /tmp/ccoz47iq.s 			page 8


 212:../STM32Cube_FW_N6/Middlewares/ST/usbx/common/usbx_stm32_device_controllers/ux_dcd_stm32_initialize_complete.c ****     /* We are now ready for the USB device to accept the first packet when connected.  */
 213:../STM32Cube_FW_N6/Middlewares/ST/usbx/common/usbx_stm32_device_controllers/ux_dcd_stm32_initialize_complete.c ****     return(UX_SUCCESS);
 170              		.loc 1 213 5 view .LVU61
 214:../STM32Cube_FW_N6/Middlewares/ST/usbx/common/usbx_stm32_device_controllers/ux_dcd_stm32_initialize_complete.c **** }
 171              		.loc 1 214 1 is_stmt 0 view .LVU62
 172 0098 0020     		movs	r0, #0
 173 009a 70BD     		pop	{r4, r5, r6, pc}
 174              	.LVL10:
 175              	.L2:
 113:../STM32Cube_FW_N6/Middlewares/ST/usbx/common/usbx_stm32_device_controllers/ux_dcd_stm32_initialize_complete.c **** 
 176              		.loc 1 113 9 is_stmt 1 view .LVU63
 113:../STM32Cube_FW_N6/Middlewares/ST/usbx/common/usbx_stm32_device_controllers/ux_dcd_stm32_initialize_complete.c **** 
 177              		.loc 1 113 70 is_stmt 0 view .LVU64
 178 009c 0023     		movs	r3, #0
 179 009e C4F85C31 		str	r3, [r4, #348]
 116:../STM32Cube_FW_N6/Middlewares/ST/usbx/common/usbx_stm32_device_controllers/ux_dcd_stm32_initialize_complete.c ****         {
 180              		.loc 1 116 9 is_stmt 1 view .LVU65
 116:../STM32Cube_FW_N6/Middlewares/ST/usbx/common/usbx_stm32_device_controllers/ux_dcd_stm32_initialize_complete.c ****         {
 181              		.loc 1 116 12 is_stmt 0 view .LVU66
 182 00a2 D4F84031 		ldr	r3, [r4, #320]
 183 00a6 012B     		cmp	r3, #1
 120:../STM32Cube_FW_N6/Middlewares/ST/usbx/common/usbx_stm32_device_controllers/ux_dcd_stm32_initialize_complete.c ****             _ux_system_slave -> ux_system_slave_device_framework_length =  _ux_system_slave -> ux_s
 184              		.loc 1 120 13 is_stmt 1 view .LVU67
 120:../STM32Cube_FW_N6/Middlewares/ST/usbx/common/usbx_stm32_device_controllers/ux_dcd_stm32_initialize_complete.c ****             _ux_system_slave -> ux_system_slave_device_framework_length =  _ux_system_slave -> ux_s
 185              		.loc 1 120 86 is_stmt 0 view .LVU68
 186 00a8 0BBF     		itete	eq
 187 00aa D4F8D400 		ldreq	r0, [r4, #212]
 127:../STM32Cube_FW_N6/Middlewares/ST/usbx/common/usbx_stm32_device_controllers/ux_dcd_stm32_initialize_complete.c ****             _ux_system_slave -> ux_system_slave_device_framework_length =  _ux_system_slave -> ux_s
 188              		.loc 1 127 86 view .LVU69
 189 00ae D4F8DC00 		ldrne	r0, [r4, #220]
 121:../STM32Cube_FW_N6/Middlewares/ST/usbx/common/usbx_stm32_device_controllers/ux_dcd_stm32_initialize_complete.c ****         }
 190              		.loc 1 121 93 view .LVU70
 191 00b2 D4F8D830 		ldreq	r3, [r4, #216]
 128:../STM32Cube_FW_N6/Middlewares/ST/usbx/common/usbx_stm32_device_controllers/ux_dcd_stm32_initialize_complete.c ****         }
 192              		.loc 1 128 93 view .LVU71
 193 00b6 D4F8E030 		ldrne	r3, [r4, #224]
 120:../STM32Cube_FW_N6/Middlewares/ST/usbx/common/usbx_stm32_device_controllers/ux_dcd_stm32_initialize_complete.c ****             _ux_system_slave -> ux_system_slave_device_framework_length =  _ux_system_slave -> ux_s
 194              		.loc 1 120 66 view .LVU72
 195 00ba 0CBF     		ite	eq
 196 00bc C4F8CC00 		streq	r0, [r4, #204]
 121:../STM32Cube_FW_N6/Middlewares/ST/usbx/common/usbx_stm32_device_controllers/ux_dcd_stm32_initialize_complete.c ****         }
 197              		.loc 1 121 13 is_stmt 1 view .LVU73
 127:../STM32Cube_FW_N6/Middlewares/ST/usbx/common/usbx_stm32_device_controllers/ux_dcd_stm32_initialize_complete.c ****             _ux_system_slave -> ux_system_slave_device_framework_length =  _ux_system_slave -> ux_s
 198              		.loc 1 127 13 view .LVU74
 127:../STM32Cube_FW_N6/Middlewares/ST/usbx/common/usbx_stm32_device_controllers/ux_dcd_stm32_initialize_complete.c ****             _ux_system_slave -> ux_system_slave_device_framework_length =  _ux_system_slave -> ux_s
 199              		.loc 1 127 66 is_stmt 0 view .LVU75
 200 00c0 C4F8CC00 		strne	r0, [r4, #204]
 128:../STM32Cube_FW_N6/Middlewares/ST/usbx/common/usbx_stm32_device_controllers/ux_dcd_stm32_initialize_complete.c ****         }
 201              		.loc 1 128 13 is_stmt 1 view .LVU76
 202 00c4 AAE7     		b	.L3
 203              	.L10:
 204 00c6 00BF     		.align	2
 205              	.L9:
 206 00c8 00000000 		.word	_ux_system_slave
 207 00cc 00000000 		.word	_ux_system_device_descriptor_structure
 208              		.cfi_endproc
 209              	.LFE885:
ARM GAS  /tmp/ccoz47iq.s 			page 9


 211              		.text
 212              	.Letext0:
 213              		.file 2 "/opt/st/stm32cubeclt_1.21.0/GNU-tools-for-STM32/arm-none-eabi/include/machine/_default_ty
 214              		.file 3 "/opt/st/stm32cubeclt_1.21.0/GNU-tools-for-STM32/arm-none-eabi/include/sys/_stdint.h"
 215              		.file 4 "../STM32Cube_FW_N6/Middlewares/ST/usbx/ports/generic/inc/ux_port.h"
 216              		.file 5 "../STM32Cube_FW_N6/Middlewares/ST/usbx/common/core/inc/ux_api.h"
 217              		.file 6 "../STM32Cube_FW_N6/Middlewares/ST/usbx/common/core/inc/ux_system.h"
 218              		.file 7 "../STM32Cube_FW_N6/Drivers/CMSIS/Device/ST/STM32N6xx/Include/stm32n657xx.h"
 219              		.file 8 "../STM32Cube_FW_N6/Drivers/STM32N6xx_HAL_Driver/Inc/stm32n6xx_hal_def.h"
 220              		.file 9 "../STM32Cube_FW_N6/Drivers/STM32N6xx_HAL_Driver/Inc/stm32n6xx_ll_usb.h"
 221              		.file 10 "../STM32Cube_FW_N6/Drivers/STM32N6xx_HAL_Driver/Inc/stm32n6xx_hal_pcd.h"
 222              		.file 11 "../STM32Cube_FW_N6/Middlewares/ST/usbx/common/usbx_stm32_device_controllers/ux_dcd_stm32
 223              		.file 12 "../STM32Cube_FW_N6/Middlewares/ST/usbx/common/core/inc/ux_utility.h"
ARM GAS  /tmp/ccoz47iq.s 			page 10

