ARM GAS  /tmp/ccF9bpOc.s 			page 1


   1              		.arch armv8.1-m.main
   2              		.fpu fpv5-d16
   3              		.arch_extension dsp
   4              		.arch_extension fp
   5              		.arch_extension fp.dp
   6              		.arch_extension mve
   7              		.arch_extension mve.fp
   8              		.eabi_attribute 5, "cortex-m55"
   9              		.eabi_attribute 28, 1
  10              		.eabi_attribute 20, 1
  11              		.eabi_attribute 21, 1
  12              		.eabi_attribute 23, 3
  13              		.eabi_attribute 24, 1
  14              		.eabi_attribute 25, 1
  15              		.eabi_attribute 26, 1
  16              		.eabi_attribute 30, 4
  17              		.eabi_attribute 34, 1
  18              		.eabi_attribute 38, 1
  19              		.eabi_attribute 18, 4
  20              		.file	"ux_utility_string_to_unicode.c"
  21              		.text
  22              	.Ltext0:
  23              		.cfi_sections	.debug_frame
  24              		.file 1 "../STM32Cube_FW_N6/Middlewares/ST/usbx/common/core/src/ux_utility_string_to_unicode.c"
  25              		.section	.text._ux_utility_string_to_unicode,"ax",%progbits
  26              		.align	1
  27              		.global	_ux_utility_string_to_unicode
  28              		.syntax unified
  29              		.thumb
  30              		.thumb_func
  32              	_ux_utility_string_to_unicode:
  33              	.LVL0:
  34              	.LFB3:
   1:../STM32Cube_FW_N6/Middlewares/ST/usbx/common/core/src/ux_utility_string_to_unicode.c **** /**************************************************************************/
   2:../STM32Cube_FW_N6/Middlewares/ST/usbx/common/core/src/ux_utility_string_to_unicode.c **** /*                                                                        */
   3:../STM32Cube_FW_N6/Middlewares/ST/usbx/common/core/src/ux_utility_string_to_unicode.c **** /*       Copyright (c) Microsoft Corporation. All rights reserved.        */
   4:../STM32Cube_FW_N6/Middlewares/ST/usbx/common/core/src/ux_utility_string_to_unicode.c **** /*                                                                        */
   5:../STM32Cube_FW_N6/Middlewares/ST/usbx/common/core/src/ux_utility_string_to_unicode.c **** /*       This software is licensed under the Microsoft Software License   */
   6:../STM32Cube_FW_N6/Middlewares/ST/usbx/common/core/src/ux_utility_string_to_unicode.c **** /*       Terms for Microsoft Azure RTOS. Full text of the license can be  */
   7:../STM32Cube_FW_N6/Middlewares/ST/usbx/common/core/src/ux_utility_string_to_unicode.c **** /*       found in the LICENSE file at https://aka.ms/AzureRTOS_EULA       */
   8:../STM32Cube_FW_N6/Middlewares/ST/usbx/common/core/src/ux_utility_string_to_unicode.c **** /*       and in the root directory of this software.                      */
   9:../STM32Cube_FW_N6/Middlewares/ST/usbx/common/core/src/ux_utility_string_to_unicode.c **** /*                                                                        */
  10:../STM32Cube_FW_N6/Middlewares/ST/usbx/common/core/src/ux_utility_string_to_unicode.c **** /**************************************************************************/
  11:../STM32Cube_FW_N6/Middlewares/ST/usbx/common/core/src/ux_utility_string_to_unicode.c **** 
  12:../STM32Cube_FW_N6/Middlewares/ST/usbx/common/core/src/ux_utility_string_to_unicode.c **** 
  13:../STM32Cube_FW_N6/Middlewares/ST/usbx/common/core/src/ux_utility_string_to_unicode.c **** /**************************************************************************/
  14:../STM32Cube_FW_N6/Middlewares/ST/usbx/common/core/src/ux_utility_string_to_unicode.c **** /**************************************************************************/
  15:../STM32Cube_FW_N6/Middlewares/ST/usbx/common/core/src/ux_utility_string_to_unicode.c **** /**                                                                       */ 
  16:../STM32Cube_FW_N6/Middlewares/ST/usbx/common/core/src/ux_utility_string_to_unicode.c **** /** USBX Component                                                        */ 
  17:../STM32Cube_FW_N6/Middlewares/ST/usbx/common/core/src/ux_utility_string_to_unicode.c **** /**                                                                       */
  18:../STM32Cube_FW_N6/Middlewares/ST/usbx/common/core/src/ux_utility_string_to_unicode.c **** /**   Utility                                                             */
  19:../STM32Cube_FW_N6/Middlewares/ST/usbx/common/core/src/ux_utility_string_to_unicode.c **** /**                                                                       */
  20:../STM32Cube_FW_N6/Middlewares/ST/usbx/common/core/src/ux_utility_string_to_unicode.c **** /**************************************************************************/
  21:../STM32Cube_FW_N6/Middlewares/ST/usbx/common/core/src/ux_utility_string_to_unicode.c **** /**************************************************************************/
  22:../STM32Cube_FW_N6/Middlewares/ST/usbx/common/core/src/ux_utility_string_to_unicode.c **** 
  23:../STM32Cube_FW_N6/Middlewares/ST/usbx/common/core/src/ux_utility_string_to_unicode.c **** 
  24:../STM32Cube_FW_N6/Middlewares/ST/usbx/common/core/src/ux_utility_string_to_unicode.c **** /* Include necessary system files.  */
ARM GAS  /tmp/ccF9bpOc.s 			page 2


  25:../STM32Cube_FW_N6/Middlewares/ST/usbx/common/core/src/ux_utility_string_to_unicode.c **** 
  26:../STM32Cube_FW_N6/Middlewares/ST/usbx/common/core/src/ux_utility_string_to_unicode.c **** #define UX_SOURCE_CODE
  27:../STM32Cube_FW_N6/Middlewares/ST/usbx/common/core/src/ux_utility_string_to_unicode.c **** 
  28:../STM32Cube_FW_N6/Middlewares/ST/usbx/common/core/src/ux_utility_string_to_unicode.c **** #include "ux_api.h"
  29:../STM32Cube_FW_N6/Middlewares/ST/usbx/common/core/src/ux_utility_string_to_unicode.c **** 
  30:../STM32Cube_FW_N6/Middlewares/ST/usbx/common/core/src/ux_utility_string_to_unicode.c **** 
  31:../STM32Cube_FW_N6/Middlewares/ST/usbx/common/core/src/ux_utility_string_to_unicode.c **** /**************************************************************************/ 
  32:../STM32Cube_FW_N6/Middlewares/ST/usbx/common/core/src/ux_utility_string_to_unicode.c **** /*                                                                        */ 
  33:../STM32Cube_FW_N6/Middlewares/ST/usbx/common/core/src/ux_utility_string_to_unicode.c **** /*  FUNCTION                                               RELEASE        */ 
  34:../STM32Cube_FW_N6/Middlewares/ST/usbx/common/core/src/ux_utility_string_to_unicode.c **** /*                                                                        */ 
  35:../STM32Cube_FW_N6/Middlewares/ST/usbx/common/core/src/ux_utility_string_to_unicode.c **** /*    _ux_utility_string_to_unicode                       PORTABLE C      */ 
  36:../STM32Cube_FW_N6/Middlewares/ST/usbx/common/core/src/ux_utility_string_to_unicode.c **** /*                                                           6.1          */
  37:../STM32Cube_FW_N6/Middlewares/ST/usbx/common/core/src/ux_utility_string_to_unicode.c **** /*  AUTHOR                                                                */
  38:../STM32Cube_FW_N6/Middlewares/ST/usbx/common/core/src/ux_utility_string_to_unicode.c **** /*                                                                        */
  39:../STM32Cube_FW_N6/Middlewares/ST/usbx/common/core/src/ux_utility_string_to_unicode.c **** /*    Chaoqiong Xiao, Microsoft Corporation                               */
  40:../STM32Cube_FW_N6/Middlewares/ST/usbx/common/core/src/ux_utility_string_to_unicode.c **** /*                                                                        */
  41:../STM32Cube_FW_N6/Middlewares/ST/usbx/common/core/src/ux_utility_string_to_unicode.c **** /*  DESCRIPTION                                                           */
  42:../STM32Cube_FW_N6/Middlewares/ST/usbx/common/core/src/ux_utility_string_to_unicode.c **** /*                                                                        */ 
  43:../STM32Cube_FW_N6/Middlewares/ST/usbx/common/core/src/ux_utility_string_to_unicode.c **** /*    This function converts a ascii string to a unicode string.          */ 
  44:../STM32Cube_FW_N6/Middlewares/ST/usbx/common/core/src/ux_utility_string_to_unicode.c **** /*                                                                        */
  45:../STM32Cube_FW_N6/Middlewares/ST/usbx/common/core/src/ux_utility_string_to_unicode.c **** /*    Note:                                                               */
  46:../STM32Cube_FW_N6/Middlewares/ST/usbx/common/core/src/ux_utility_string_to_unicode.c **** /*    The unicode string length (including NULL-terminator) is limited by */
  47:../STM32Cube_FW_N6/Middlewares/ST/usbx/common/core/src/ux_utility_string_to_unicode.c **** /*    length in a byte, so max ascii string length must be no more than   */
  48:../STM32Cube_FW_N6/Middlewares/ST/usbx/common/core/src/ux_utility_string_to_unicode.c **** /*    254 (NULL-terminator excluded). Only first 254 characters           */
  49:../STM32Cube_FW_N6/Middlewares/ST/usbx/common/core/src/ux_utility_string_to_unicode.c **** /*    are converted if the string is too long.                            */
  50:../STM32Cube_FW_N6/Middlewares/ST/usbx/common/core/src/ux_utility_string_to_unicode.c **** /*    The buffer of destination must have enough space for result, at     */
  51:../STM32Cube_FW_N6/Middlewares/ST/usbx/common/core/src/ux_utility_string_to_unicode.c **** /*    least 1 + (strlen(source) + 1) * 2 bytes.                           */
  52:../STM32Cube_FW_N6/Middlewares/ST/usbx/common/core/src/ux_utility_string_to_unicode.c **** /*                                                                        */ 
  53:../STM32Cube_FW_N6/Middlewares/ST/usbx/common/core/src/ux_utility_string_to_unicode.c **** /*  INPUT                                                                 */ 
  54:../STM32Cube_FW_N6/Middlewares/ST/usbx/common/core/src/ux_utility_string_to_unicode.c **** /*                                                                        */ 
  55:../STM32Cube_FW_N6/Middlewares/ST/usbx/common/core/src/ux_utility_string_to_unicode.c **** /*    source                                Ascii String                  */ 
  56:../STM32Cube_FW_N6/Middlewares/ST/usbx/common/core/src/ux_utility_string_to_unicode.c **** /*    destination                           Unicode String                */ 
  57:../STM32Cube_FW_N6/Middlewares/ST/usbx/common/core/src/ux_utility_string_to_unicode.c **** /*                                                                        */ 
  58:../STM32Cube_FW_N6/Middlewares/ST/usbx/common/core/src/ux_utility_string_to_unicode.c **** /*  OUTPUT                                                                */ 
  59:../STM32Cube_FW_N6/Middlewares/ST/usbx/common/core/src/ux_utility_string_to_unicode.c **** /*                                                                        */ 
  60:../STM32Cube_FW_N6/Middlewares/ST/usbx/common/core/src/ux_utility_string_to_unicode.c **** /*    none                                                                */ 
  61:../STM32Cube_FW_N6/Middlewares/ST/usbx/common/core/src/ux_utility_string_to_unicode.c **** /*                                                                        */ 
  62:../STM32Cube_FW_N6/Middlewares/ST/usbx/common/core/src/ux_utility_string_to_unicode.c **** /*  CALLS                                                                 */ 
  63:../STM32Cube_FW_N6/Middlewares/ST/usbx/common/core/src/ux_utility_string_to_unicode.c **** /*                                                                        */ 
  64:../STM32Cube_FW_N6/Middlewares/ST/usbx/common/core/src/ux_utility_string_to_unicode.c **** /*    _ux_utility_string_length_check       Check and return C string     */
  65:../STM32Cube_FW_N6/Middlewares/ST/usbx/common/core/src/ux_utility_string_to_unicode.c **** /*                                          length                        */
  66:../STM32Cube_FW_N6/Middlewares/ST/usbx/common/core/src/ux_utility_string_to_unicode.c **** /*                                                                        */ 
  67:../STM32Cube_FW_N6/Middlewares/ST/usbx/common/core/src/ux_utility_string_to_unicode.c **** /*  CALLED BY                                                             */ 
  68:../STM32Cube_FW_N6/Middlewares/ST/usbx/common/core/src/ux_utility_string_to_unicode.c **** /*                                                                        */ 
  69:../STM32Cube_FW_N6/Middlewares/ST/usbx/common/core/src/ux_utility_string_to_unicode.c **** /*    USBX Components                                                     */ 
  70:../STM32Cube_FW_N6/Middlewares/ST/usbx/common/core/src/ux_utility_string_to_unicode.c **** /*                                                                        */ 
  71:../STM32Cube_FW_N6/Middlewares/ST/usbx/common/core/src/ux_utility_string_to_unicode.c **** /*  RELEASE HISTORY                                                       */ 
  72:../STM32Cube_FW_N6/Middlewares/ST/usbx/common/core/src/ux_utility_string_to_unicode.c **** /*                                                                        */ 
  73:../STM32Cube_FW_N6/Middlewares/ST/usbx/common/core/src/ux_utility_string_to_unicode.c **** /*    DATE              NAME                      DESCRIPTION             */ 
  74:../STM32Cube_FW_N6/Middlewares/ST/usbx/common/core/src/ux_utility_string_to_unicode.c **** /*                                                                        */ 
  75:../STM32Cube_FW_N6/Middlewares/ST/usbx/common/core/src/ux_utility_string_to_unicode.c **** /*  05-19-2020     Chaoqiong Xiao           Initial Version 6.0           */
  76:../STM32Cube_FW_N6/Middlewares/ST/usbx/common/core/src/ux_utility_string_to_unicode.c **** /*  09-30-2020     Chaoqiong Xiao           Modified comment(s),          */
  77:../STM32Cube_FW_N6/Middlewares/ST/usbx/common/core/src/ux_utility_string_to_unicode.c **** /*                                            resulting in version 6.1    */
  78:../STM32Cube_FW_N6/Middlewares/ST/usbx/common/core/src/ux_utility_string_to_unicode.c **** /*                                                                        */
  79:../STM32Cube_FW_N6/Middlewares/ST/usbx/common/core/src/ux_utility_string_to_unicode.c **** /**************************************************************************/
  80:../STM32Cube_FW_N6/Middlewares/ST/usbx/common/core/src/ux_utility_string_to_unicode.c **** VOID  _ux_utility_string_to_unicode(UCHAR *source, UCHAR *destination)
  81:../STM32Cube_FW_N6/Middlewares/ST/usbx/common/core/src/ux_utility_string_to_unicode.c **** {
ARM GAS  /tmp/ccF9bpOc.s 			page 3


  35              		.loc 1 81 1 view -0
  36              		.cfi_startproc
  37              		@ args = 0, pretend = 0, frame = 8
  38              		@ frame_needed = 0, uses_anonymous_args = 0
  82:../STM32Cube_FW_N6/Middlewares/ST/usbx/common/core/src/ux_utility_string_to_unicode.c **** 
  83:../STM32Cube_FW_N6/Middlewares/ST/usbx/common/core/src/ux_utility_string_to_unicode.c **** UINT   string_length;
  39              		.loc 1 83 1 view .LVU1
  84:../STM32Cube_FW_N6/Middlewares/ST/usbx/common/core/src/ux_utility_string_to_unicode.c **** 
  85:../STM32Cube_FW_N6/Middlewares/ST/usbx/common/core/src/ux_utility_string_to_unicode.c ****     /* Get the ascii string length, when there is error length is not modified so max length is use
  86:../STM32Cube_FW_N6/Middlewares/ST/usbx/common/core/src/ux_utility_string_to_unicode.c ****     string_length = 254;
  40              		.loc 1 86 5 view .LVU2
  81:../STM32Cube_FW_N6/Middlewares/ST/usbx/common/core/src/ux_utility_string_to_unicode.c **** 
  41              		.loc 1 81 1 is_stmt 0 view .LVU3
  42 0000 37B5     		push	{r0, r1, r2, r4, r5, lr}
  43              		.cfi_def_cfa_offset 24
  44              		.cfi_offset 4, -12
  45              		.cfi_offset 5, -8
  46              		.cfi_offset 14, -4
  47              		.loc 1 86 19 view .LVU4
  48 0002 FE22     		movs	r2, #254
  81:../STM32Cube_FW_N6/Middlewares/ST/usbx/common/core/src/ux_utility_string_to_unicode.c **** 
  49              		.loc 1 81 1 view .LVU5
  50 0004 0C46     		mov	r4, r1
  87:../STM32Cube_FW_N6/Middlewares/ST/usbx/common/core/src/ux_utility_string_to_unicode.c ****     _ux_utility_string_length_check(source, &string_length, 254);
  51              		.loc 1 87 5 view .LVU6
  52 0006 01A9     		add	r1, sp, #4
  53              	.LVL1:
  86:../STM32Cube_FW_N6/Middlewares/ST/usbx/common/core/src/ux_utility_string_to_unicode.c ****     _ux_utility_string_length_check(source, &string_length, 254);
  54              		.loc 1 86 19 view .LVU7
  55 0008 0192     		str	r2, [sp, #4]
  56              		.loc 1 87 5 is_stmt 1 view .LVU8
  81:../STM32Cube_FW_N6/Middlewares/ST/usbx/common/core/src/ux_utility_string_to_unicode.c **** 
  57              		.loc 1 81 1 is_stmt 0 view .LVU9
  58 000a 0546     		mov	r5, r0
  59              		.loc 1 87 5 view .LVU10
  60 000c FFF7FEFF 		bl	_ux_utility_string_length_check
  61              	.LVL2:
  88:../STM32Cube_FW_N6/Middlewares/ST/usbx/common/core/src/ux_utility_string_to_unicode.c **** 
  89:../STM32Cube_FW_N6/Middlewares/ST/usbx/common/core/src/ux_utility_string_to_unicode.c ****     /* Set the length of the string as the first byte of the unicode string.  
  90:../STM32Cube_FW_N6/Middlewares/ST/usbx/common/core/src/ux_utility_string_to_unicode.c ****        The length is casted as a byte since Unicode strings cannot be more than 255 chars.  */
  91:../STM32Cube_FW_N6/Middlewares/ST/usbx/common/core/src/ux_utility_string_to_unicode.c ****     *destination++ = (UCHAR)(string_length + 1);
  62              		.loc 1 91 5 is_stmt 1 view .LVU11
  63              		.loc 1 91 20 is_stmt 0 view .LVU12
  64 0010 2146     		mov	r1, r4
  65              		.loc 1 91 22 view .LVU13
  66 0012 019B     		ldr	r3, [sp, #4]
  67              	.LVL3:
  68              		.loc 1 91 22 view .LVU14
  69 0014 0020     		movs	r0, #0
  70 0016 5A1C     		adds	r2, r3, #1
  71              		.loc 1 91 20 view .LVU15
  72 0018 01F8012B 		strb	r2, [r1], #1
  73              	.LVL4:
  92:../STM32Cube_FW_N6/Middlewares/ST/usbx/common/core/src/ux_utility_string_to_unicode.c **** 
  93:../STM32Cube_FW_N6/Middlewares/ST/usbx/common/core/src/ux_utility_string_to_unicode.c ****     while(string_length--)
  74              		.loc 1 93 5 is_stmt 1 view .LVU16
  75 001c 03F1010E 		add	lr, r3, #1
ARM GAS  /tmp/ccF9bpOc.s 			page 4


  76              		.loc 1 93 10 is_stmt 0 view .LVU17
  77 0020 0A46     		mov	r2, r1
  78 0022 4EF001E0 		dls	lr, lr
  79              	.LVL5:
  80              	.L2:
  81              		.loc 1 93 11 is_stmt 1 view .LVU18
  82 0026 0232     		adds	r2, r2, #2
  83              	.LVL6:
  84              		.loc 1 93 11 is_stmt 0 view .LVU19
  85 0028 BEF1010E 		subs	lr, #1;bne	.L3
  85      06D1
  86              		.loc 1 93 11 view .LVU20
  87 002e 01EB4302 		add	r2, r1, r3, lsl #1
  88              	.LVL7:
  94:../STM32Cube_FW_N6/Middlewares/ST/usbx/common/core/src/ux_utility_string_to_unicode.c ****     {
  95:../STM32Cube_FW_N6/Middlewares/ST/usbx/common/core/src/ux_utility_string_to_unicode.c ****         /* First character is from the source.  */
  96:../STM32Cube_FW_N6/Middlewares/ST/usbx/common/core/src/ux_utility_string_to_unicode.c ****         *destination++ = *source++;
  97:../STM32Cube_FW_N6/Middlewares/ST/usbx/common/core/src/ux_utility_string_to_unicode.c **** 
  98:../STM32Cube_FW_N6/Middlewares/ST/usbx/common/core/src/ux_utility_string_to_unicode.c ****         /* Second character of unicode word is 0.  */
  99:../STM32Cube_FW_N6/Middlewares/ST/usbx/common/core/src/ux_utility_string_to_unicode.c ****         *destination++ = 0;
 100:../STM32Cube_FW_N6/Middlewares/ST/usbx/common/core/src/ux_utility_string_to_unicode.c ****     }    
 101:../STM32Cube_FW_N6/Middlewares/ST/usbx/common/core/src/ux_utility_string_to_unicode.c **** 
 102:../STM32Cube_FW_N6/Middlewares/ST/usbx/common/core/src/ux_utility_string_to_unicode.c ****     /* Finish with a 0.  */
 103:../STM32Cube_FW_N6/Middlewares/ST/usbx/common/core/src/ux_utility_string_to_unicode.c ****     *destination++ = 0;
  89              		.loc 1 103 5 is_stmt 1 view .LVU21
  90              		.loc 1 103 20 is_stmt 0 view .LVU22
  91 0032 01F81300 		strb	r0, [r1, r3, lsl #1]
 104:../STM32Cube_FW_N6/Middlewares/ST/usbx/common/core/src/ux_utility_string_to_unicode.c **** 
 105:../STM32Cube_FW_N6/Middlewares/ST/usbx/common/core/src/ux_utility_string_to_unicode.c ****     /* Finish with a 0.  */
 106:../STM32Cube_FW_N6/Middlewares/ST/usbx/common/core/src/ux_utility_string_to_unicode.c ****     *destination++ = 0;
  92              		.loc 1 106 5 is_stmt 1 view .LVU23
  93              	.LVL8:
  94              		.loc 1 106 20 is_stmt 0 view .LVU24
  95 0036 5070     		strb	r0, [r2, #1]
 107:../STM32Cube_FW_N6/Middlewares/ST/usbx/common/core/src/ux_utility_string_to_unicode.c **** 
 108:../STM32Cube_FW_N6/Middlewares/ST/usbx/common/core/src/ux_utility_string_to_unicode.c ****     /* We are done.  */
 109:../STM32Cube_FW_N6/Middlewares/ST/usbx/common/core/src/ux_utility_string_to_unicode.c ****     return;
  96              		.loc 1 109 5 is_stmt 1 view .LVU25
 110:../STM32Cube_FW_N6/Middlewares/ST/usbx/common/core/src/ux_utility_string_to_unicode.c **** }
  97              		.loc 1 110 1 is_stmt 0 view .LVU26
  98 0038 03B0     		add	sp, sp, #12
  99              		.cfi_remember_state
 100              		.cfi_def_cfa_offset 12
 101              		@ sp needed
 102 003a 30BD     		pop	{r4, r5, pc}
 103              	.LVL9:
 104              	.L3:
 105              		.cfi_restore_state
  96:../STM32Cube_FW_N6/Middlewares/ST/usbx/common/core/src/ux_utility_string_to_unicode.c **** 
 106              		.loc 1 96 9 is_stmt 1 view .LVU27
  96:../STM32Cube_FW_N6/Middlewares/ST/usbx/common/core/src/ux_utility_string_to_unicode.c **** 
 107              		.loc 1 96 26 is_stmt 0 view .LVU28
 108 003c 15F8014B 		ldrb	r4, [r5], #1	@ zero_extendqisi2
 109              	.LVL10:
  99:../STM32Cube_FW_N6/Middlewares/ST/usbx/common/core/src/ux_utility_string_to_unicode.c ****     }    
 110              		.loc 1 99 24 view .LVU29
 111 0040 02F8010C 		strb	r0, [r2, #-1]
ARM GAS  /tmp/ccF9bpOc.s 			page 5


  96:../STM32Cube_FW_N6/Middlewares/ST/usbx/common/core/src/ux_utility_string_to_unicode.c **** 
 112              		.loc 1 96 24 view .LVU30
 113 0044 02F8024C 		strb	r4, [r2, #-2]
  99:../STM32Cube_FW_N6/Middlewares/ST/usbx/common/core/src/ux_utility_string_to_unicode.c ****     }    
 114              		.loc 1 99 9 is_stmt 1 view .LVU31
 115              	.LVL11:
  99:../STM32Cube_FW_N6/Middlewares/ST/usbx/common/core/src/ux_utility_string_to_unicode.c ****     }    
 116              		.loc 1 99 9 is_stmt 0 view .LVU32
 117 0048 EDE7     		b	.L2
 118              		.cfi_endproc
 119              	.LFE3:
 121              		.text
 122              	.Letext0:
 123              		.file 2 "../STM32Cube_FW_N6/Middlewares/ST/usbx/ports/generic/inc/ux_port.h"
 124              		.file 3 "../STM32Cube_FW_N6/Middlewares/ST/usbx/common/core/inc/ux_utility.h"
ARM GAS  /tmp/ccF9bpOc.s 			page 6

