ARM GAS  /tmp/ccqCNxvK.s 			page 1


   1              		.arch armv8.1-m.main
   2              		.fpu fpv5-d16
   3              		.arch_extension dsp
   4              		.arch_extension fp
   5              		.arch_extension fp.dp
   6              		.arch_extension mve
   7              		.arch_extension mve.fp
   8              		.eabi_attribute 5, "cortex-m55"
   9              		.eabi_attribute 28, 1
  10              		.eabi_attribute 20, 1
  11              		.eabi_attribute 21, 1
  12              		.eabi_attribute 23, 3
  13              		.eabi_attribute 24, 1
  14              		.eabi_attribute 25, 1
  15              		.eabi_attribute 26, 1
  16              		.eabi_attribute 30, 4
  17              		.eabi_attribute 34, 1
  18              		.eabi_attribute 38, 1
  19              		.eabi_attribute 18, 4
  20              		.file	"ux_utility_pci_write.c"
  21              		.text
  22              	.Ltext0:
  23              		.cfi_sections	.debug_frame
  24              		.file 1 "../STM32Cube_FW_N6/Middlewares/ST/usbx/common/core/src/ux_utility_pci_write.c"
  25              		.section	.text._ux_utility_pci_write,"ax",%progbits
  26              		.align	1
  27              		.global	_ux_utility_pci_write
  28              		.syntax unified
  29              		.thumb
  30              		.thumb_func
  32              	_ux_utility_pci_write:
  33              	.LVL0:
  34              	.LFB3:
   1:../STM32Cube_FW_N6/Middlewares/ST/usbx/common/core/src/ux_utility_pci_write.c **** /**************************************************************************/
   2:../STM32Cube_FW_N6/Middlewares/ST/usbx/common/core/src/ux_utility_pci_write.c **** /*                                                                        */
   3:../STM32Cube_FW_N6/Middlewares/ST/usbx/common/core/src/ux_utility_pci_write.c **** /*       Copyright (c) Microsoft Corporation. All rights reserved.        */
   4:../STM32Cube_FW_N6/Middlewares/ST/usbx/common/core/src/ux_utility_pci_write.c **** /*                                                                        */
   5:../STM32Cube_FW_N6/Middlewares/ST/usbx/common/core/src/ux_utility_pci_write.c **** /*       This software is licensed under the Microsoft Software License   */
   6:../STM32Cube_FW_N6/Middlewares/ST/usbx/common/core/src/ux_utility_pci_write.c **** /*       Terms for Microsoft Azure RTOS. Full text of the license can be  */
   7:../STM32Cube_FW_N6/Middlewares/ST/usbx/common/core/src/ux_utility_pci_write.c **** /*       found in the LICENSE file at https://aka.ms/AzureRTOS_EULA       */
   8:../STM32Cube_FW_N6/Middlewares/ST/usbx/common/core/src/ux_utility_pci_write.c **** /*       and in the root directory of this software.                      */
   9:../STM32Cube_FW_N6/Middlewares/ST/usbx/common/core/src/ux_utility_pci_write.c **** /*                                                                        */
  10:../STM32Cube_FW_N6/Middlewares/ST/usbx/common/core/src/ux_utility_pci_write.c **** /**************************************************************************/
  11:../STM32Cube_FW_N6/Middlewares/ST/usbx/common/core/src/ux_utility_pci_write.c **** 
  12:../STM32Cube_FW_N6/Middlewares/ST/usbx/common/core/src/ux_utility_pci_write.c **** 
  13:../STM32Cube_FW_N6/Middlewares/ST/usbx/common/core/src/ux_utility_pci_write.c **** /**************************************************************************/
  14:../STM32Cube_FW_N6/Middlewares/ST/usbx/common/core/src/ux_utility_pci_write.c **** /**************************************************************************/
  15:../STM32Cube_FW_N6/Middlewares/ST/usbx/common/core/src/ux_utility_pci_write.c **** /**                                                                       */ 
  16:../STM32Cube_FW_N6/Middlewares/ST/usbx/common/core/src/ux_utility_pci_write.c **** /** USBX Component                                                        */ 
  17:../STM32Cube_FW_N6/Middlewares/ST/usbx/common/core/src/ux_utility_pci_write.c **** /**                                                                       */
  18:../STM32Cube_FW_N6/Middlewares/ST/usbx/common/core/src/ux_utility_pci_write.c **** /**   Utility                                                             */
  19:../STM32Cube_FW_N6/Middlewares/ST/usbx/common/core/src/ux_utility_pci_write.c **** /**                                                                       */
  20:../STM32Cube_FW_N6/Middlewares/ST/usbx/common/core/src/ux_utility_pci_write.c **** /**************************************************************************/
  21:../STM32Cube_FW_N6/Middlewares/ST/usbx/common/core/src/ux_utility_pci_write.c **** /**************************************************************************/
  22:../STM32Cube_FW_N6/Middlewares/ST/usbx/common/core/src/ux_utility_pci_write.c **** 
  23:../STM32Cube_FW_N6/Middlewares/ST/usbx/common/core/src/ux_utility_pci_write.c **** 
  24:../STM32Cube_FW_N6/Middlewares/ST/usbx/common/core/src/ux_utility_pci_write.c **** /* Include necessary system files.  */
ARM GAS  /tmp/ccqCNxvK.s 			page 2


  25:../STM32Cube_FW_N6/Middlewares/ST/usbx/common/core/src/ux_utility_pci_write.c **** 
  26:../STM32Cube_FW_N6/Middlewares/ST/usbx/common/core/src/ux_utility_pci_write.c **** #define UX_SOURCE_CODE
  27:../STM32Cube_FW_N6/Middlewares/ST/usbx/common/core/src/ux_utility_pci_write.c **** 
  28:../STM32Cube_FW_N6/Middlewares/ST/usbx/common/core/src/ux_utility_pci_write.c **** #include "ux_api.h"
  29:../STM32Cube_FW_N6/Middlewares/ST/usbx/common/core/src/ux_utility_pci_write.c **** 
  30:../STM32Cube_FW_N6/Middlewares/ST/usbx/common/core/src/ux_utility_pci_write.c **** 
  31:../STM32Cube_FW_N6/Middlewares/ST/usbx/common/core/src/ux_utility_pci_write.c **** /**************************************************************************/ 
  32:../STM32Cube_FW_N6/Middlewares/ST/usbx/common/core/src/ux_utility_pci_write.c **** /*                                                                        */ 
  33:../STM32Cube_FW_N6/Middlewares/ST/usbx/common/core/src/ux_utility_pci_write.c **** /*  FUNCTION                                               RELEASE        */ 
  34:../STM32Cube_FW_N6/Middlewares/ST/usbx/common/core/src/ux_utility_pci_write.c **** /*                                                                        */ 
  35:../STM32Cube_FW_N6/Middlewares/ST/usbx/common/core/src/ux_utility_pci_write.c **** /*    _ux_utility_pci_write                               PORTABLE C      */ 
  36:../STM32Cube_FW_N6/Middlewares/ST/usbx/common/core/src/ux_utility_pci_write.c **** /*                                                           6.1          */
  37:../STM32Cube_FW_N6/Middlewares/ST/usbx/common/core/src/ux_utility_pci_write.c **** /*  AUTHOR                                                                */
  38:../STM32Cube_FW_N6/Middlewares/ST/usbx/common/core/src/ux_utility_pci_write.c **** /*                                                                        */
  39:../STM32Cube_FW_N6/Middlewares/ST/usbx/common/core/src/ux_utility_pci_write.c **** /*    Chaoqiong Xiao, Microsoft Corporation                               */
  40:../STM32Cube_FW_N6/Middlewares/ST/usbx/common/core/src/ux_utility_pci_write.c **** /*                                                                        */
  41:../STM32Cube_FW_N6/Middlewares/ST/usbx/common/core/src/ux_utility_pci_write.c **** /*  DESCRIPTION                                                           */
  42:../STM32Cube_FW_N6/Middlewares/ST/usbx/common/core/src/ux_utility_pci_write.c **** /*                                                                        */ 
  43:../STM32Cube_FW_N6/Middlewares/ST/usbx/common/core/src/ux_utility_pci_write.c **** /*    This function writes a 32/16/8 bit value to a specific PCI bus      */ 
  44:../STM32Cube_FW_N6/Middlewares/ST/usbx/common/core/src/ux_utility_pci_write.c **** /*    at a certain offset.                                                */ 
  45:../STM32Cube_FW_N6/Middlewares/ST/usbx/common/core/src/ux_utility_pci_write.c **** /*                                                                        */ 
  46:../STM32Cube_FW_N6/Middlewares/ST/usbx/common/core/src/ux_utility_pci_write.c **** /*  INPUT                                                                 */ 
  47:../STM32Cube_FW_N6/Middlewares/ST/usbx/common/core/src/ux_utility_pci_write.c **** /*                                                                        */ 
  48:../STM32Cube_FW_N6/Middlewares/ST/usbx/common/core/src/ux_utility_pci_write.c **** /*    bus_number                            PCI bus number                */ 
  49:../STM32Cube_FW_N6/Middlewares/ST/usbx/common/core/src/ux_utility_pci_write.c **** /*    device_number                         Device number                 */ 
  50:../STM32Cube_FW_N6/Middlewares/ST/usbx/common/core/src/ux_utility_pci_write.c **** /*    function_number                       Function number               */ 
  51:../STM32Cube_FW_N6/Middlewares/ST/usbx/common/core/src/ux_utility_pci_write.c **** /*    offset                                Offset                        */ 
  52:../STM32Cube_FW_N6/Middlewares/ST/usbx/common/core/src/ux_utility_pci_write.c **** /*    value                                 Value to write                */ 
  53:../STM32Cube_FW_N6/Middlewares/ST/usbx/common/core/src/ux_utility_pci_write.c **** /*    write_size                            Size of write                 */ 
  54:../STM32Cube_FW_N6/Middlewares/ST/usbx/common/core/src/ux_utility_pci_write.c **** /*                                                                        */ 
  55:../STM32Cube_FW_N6/Middlewares/ST/usbx/common/core/src/ux_utility_pci_write.c **** /*  OUTPUT                                                                */ 
  56:../STM32Cube_FW_N6/Middlewares/ST/usbx/common/core/src/ux_utility_pci_write.c **** /*                                                                        */ 
  57:../STM32Cube_FW_N6/Middlewares/ST/usbx/common/core/src/ux_utility_pci_write.c **** /*    None                                                                */ 
  58:../STM32Cube_FW_N6/Middlewares/ST/usbx/common/core/src/ux_utility_pci_write.c **** /*                                                                        */ 
  59:../STM32Cube_FW_N6/Middlewares/ST/usbx/common/core/src/ux_utility_pci_write.c **** /*  CALLS                                                                 */ 
  60:../STM32Cube_FW_N6/Middlewares/ST/usbx/common/core/src/ux_utility_pci_write.c **** /*                                                                        */ 
  61:../STM32Cube_FW_N6/Middlewares/ST/usbx/common/core/src/ux_utility_pci_write.c **** /*    outpl                                 PCI output long function      */
  62:../STM32Cube_FW_N6/Middlewares/ST/usbx/common/core/src/ux_utility_pci_write.c **** /*    outpw                                 PCI output word function      */ 
  63:../STM32Cube_FW_N6/Middlewares/ST/usbx/common/core/src/ux_utility_pci_write.c **** /*    outpb                                 PCI output byte function      */ 
  64:../STM32Cube_FW_N6/Middlewares/ST/usbx/common/core/src/ux_utility_pci_write.c **** /*                                                                        */ 
  65:../STM32Cube_FW_N6/Middlewares/ST/usbx/common/core/src/ux_utility_pci_write.c **** /*  CALLED BY                                                             */ 
  66:../STM32Cube_FW_N6/Middlewares/ST/usbx/common/core/src/ux_utility_pci_write.c **** /*                                                                        */ 
  67:../STM32Cube_FW_N6/Middlewares/ST/usbx/common/core/src/ux_utility_pci_write.c **** /*    USBX Components                                                     */ 
  68:../STM32Cube_FW_N6/Middlewares/ST/usbx/common/core/src/ux_utility_pci_write.c **** /*                                                                        */ 
  69:../STM32Cube_FW_N6/Middlewares/ST/usbx/common/core/src/ux_utility_pci_write.c **** /*  RELEASE HISTORY                                                       */ 
  70:../STM32Cube_FW_N6/Middlewares/ST/usbx/common/core/src/ux_utility_pci_write.c **** /*                                                                        */ 
  71:../STM32Cube_FW_N6/Middlewares/ST/usbx/common/core/src/ux_utility_pci_write.c **** /*    DATE              NAME                      DESCRIPTION             */ 
  72:../STM32Cube_FW_N6/Middlewares/ST/usbx/common/core/src/ux_utility_pci_write.c **** /*                                                                        */ 
  73:../STM32Cube_FW_N6/Middlewares/ST/usbx/common/core/src/ux_utility_pci_write.c **** /*  05-19-2020     Chaoqiong Xiao           Initial Version 6.0           */
  74:../STM32Cube_FW_N6/Middlewares/ST/usbx/common/core/src/ux_utility_pci_write.c **** /*  09-30-2020     Chaoqiong Xiao           Modified comment(s),          */
  75:../STM32Cube_FW_N6/Middlewares/ST/usbx/common/core/src/ux_utility_pci_write.c **** /*                                            resulting in version 6.1    */
  76:../STM32Cube_FW_N6/Middlewares/ST/usbx/common/core/src/ux_utility_pci_write.c **** /*                                                                        */
  77:../STM32Cube_FW_N6/Middlewares/ST/usbx/common/core/src/ux_utility_pci_write.c **** /**************************************************************************/
  78:../STM32Cube_FW_N6/Middlewares/ST/usbx/common/core/src/ux_utility_pci_write.c **** VOID  _ux_utility_pci_write(ULONG bus_number, ULONG device_number, ULONG function_number,
  79:../STM32Cube_FW_N6/Middlewares/ST/usbx/common/core/src/ux_utility_pci_write.c ****                                 ULONG offset, ULONG value, UINT write_size)
  80:../STM32Cube_FW_N6/Middlewares/ST/usbx/common/core/src/ux_utility_pci_write.c **** {
  35              		.loc 1 80 1 view -0
ARM GAS  /tmp/ccqCNxvK.s 			page 3


  36              		.cfi_startproc
  37              		@ args = 8, pretend = 0, frame = 0
  38              		@ frame_needed = 0, uses_anonymous_args = 0
  81:../STM32Cube_FW_N6/Middlewares/ST/usbx/common/core/src/ux_utility_pci_write.c **** 
  82:../STM32Cube_FW_N6/Middlewares/ST/usbx/common/core/src/ux_utility_pci_write.c **** ULONG   destination_address;
  39              		.loc 1 82 1 view .LVU1
  83:../STM32Cube_FW_N6/Middlewares/ST/usbx/common/core/src/ux_utility_pci_write.c **** ULONG   cfg_ctrl;
  40              		.loc 1 83 1 view .LVU2
  84:../STM32Cube_FW_N6/Middlewares/ST/usbx/common/core/src/ux_utility_pci_write.c **** 
  85:../STM32Cube_FW_N6/Middlewares/ST/usbx/common/core/src/ux_utility_pci_write.c **** 
  86:../STM32Cube_FW_N6/Middlewares/ST/usbx/common/core/src/ux_utility_pci_write.c ****     /* Calculate the destination address.  */
  87:../STM32Cube_FW_N6/Middlewares/ST/usbx/common/core/src/ux_utility_pci_write.c ****     destination_address =  (((bus_number << 16) & 0x00ff0000) | ((device_number << 11) & 0x0000f800
  41              		.loc 1 87 5 view .LVU3
  88:../STM32Cube_FW_N6/Middlewares/ST/usbx/common/core/src/ux_utility_pci_write.c ****                                     ((function_number << 8) & 0x00000700));
  89:../STM32Cube_FW_N6/Middlewares/ST/usbx/common/core/src/ux_utility_pci_write.c **** 
  90:../STM32Cube_FW_N6/Middlewares/ST/usbx/common/core/src/ux_utility_pci_write.c ****     /* Calculate the configure control value.  */
  91:../STM32Cube_FW_N6/Middlewares/ST/usbx/common/core/src/ux_utility_pci_write.c ****     cfg_ctrl = destination_address | offset | 0x80000000;
  42              		.loc 1 91 5 view .LVU4
  80:../STM32Cube_FW_N6/Middlewares/ST/usbx/common/core/src/ux_utility_pci_write.c **** 
  43              		.loc 1 80 1 is_stmt 0 view .LVU5
  44 0000 30B5     		push	{r4, r5, lr}
  45              		.cfi_def_cfa_offset 12
  46              		.cfi_offset 4, -12
  47              		.cfi_offset 5, -8
  48              		.cfi_offset 14, -4
  87:../STM32Cube_FW_N6/Middlewares/ST/usbx/common/core/src/ux_utility_pci_write.c ****                                     ((function_number << 8) & 0x00000700));
  49              		.loc 1 87 42 view .LVU6
  50 0002 0004     		lsls	r0, r0, #16
  51              	.LVL1:
  87:../STM32Cube_FW_N6/Middlewares/ST/usbx/common/core/src/ux_utility_pci_write.c ****                                     ((function_number << 8) & 0x00000700));
  52              		.loc 1 87 49 view .LVU7
  53 0004 00F47F00 		and	r0, r0, #16711680
  54              	.LVL2:
  88:../STM32Cube_FW_N6/Middlewares/ST/usbx/common/core/src/ux_utility_pci_write.c ****                                     ((function_number << 8) & 0x00000700));
  55              		.loc 1 88 55 view .LVU8
  56 0008 1202     		lsls	r2, r2, #8
  57              	.LVL3:
  58              		.loc 1 91 36 view .LVU9
  59 000a 1843     		orrs	r0, r0, r3
  60              	.LVL4:
  88:../STM32Cube_FW_N6/Middlewares/ST/usbx/common/core/src/ux_utility_pci_write.c ****                                     ((function_number << 8) & 0x00000700));
  61              		.loc 1 88 61 view .LVU10
  62 000c 02F4E062 		and	r2, r2, #1792
  63              	.LVL5:
  87:../STM32Cube_FW_N6/Middlewares/ST/usbx/common/core/src/ux_utility_pci_write.c ****                                     ((function_number << 8) & 0x00000700));
  64              		.loc 1 87 81 view .LVU11
  65 0010 C902     		lsls	r1, r1, #11
  66              	.LVL6:
  67              		.loc 1 91 36 view .LVU12
  68 0012 1043     		orrs	r0, r0, r2
  87:../STM32Cube_FW_N6/Middlewares/ST/usbx/common/core/src/ux_utility_pci_write.c ****                                     ((function_number << 8) & 0x00000700));
  69              		.loc 1 87 88 view .LVU13
  70 0014 89B2     		uxth	r1, r1
  71              		.loc 1 91 36 view .LVU14
  72 0016 0843     		orrs	r0, r0, r1
  80:../STM32Cube_FW_N6/Middlewares/ST/usbx/common/core/src/ux_utility_pci_write.c **** 
  73              		.loc 1 80 1 view .LVU15
ARM GAS  /tmp/ccqCNxvK.s 			page 4


  74 0018 DDE90345 		ldrd	r4, r5, [sp, #12]
  92:../STM32Cube_FW_N6/Middlewares/ST/usbx/common/core/src/ux_utility_pci_write.c **** 
  93:../STM32Cube_FW_N6/Middlewares/ST/usbx/common/core/src/ux_utility_pci_write.c ****     /* Process relative to write size.  */
  94:../STM32Cube_FW_N6/Middlewares/ST/usbx/common/core/src/ux_utility_pci_write.c ****     switch(write_size)
  75              		.loc 1 94 5 view .LVU16
  76 001c 102D     		cmp	r5, #16
  91:../STM32Cube_FW_N6/Middlewares/ST/usbx/common/core/src/ux_utility_pci_write.c **** 
  77              		.loc 1 91 14 view .LVU17
  78 001e 40F00040 		orr	r0, r0, #-2147483648
  79              	.LVL7:
  80              		.loc 1 94 5 is_stmt 1 view .LVU18
  81 0022 0AD0     		beq	.L2
  82 0024 202D     		cmp	r5, #32
  83 0026 02D0     		beq	.L3
  84 0028 082D     		cmp	r5, #8
  85 002a 0ED0     		beq	.L4
  86              	.LVL8:
  87              	.L1:
  95:../STM32Cube_FW_N6/Middlewares/ST/usbx/common/core/src/ux_utility_pci_write.c ****     {
  96:../STM32Cube_FW_N6/Middlewares/ST/usbx/common/core/src/ux_utility_pci_write.c **** 
  97:../STM32Cube_FW_N6/Middlewares/ST/usbx/common/core/src/ux_utility_pci_write.c ****     case 32:
  98:../STM32Cube_FW_N6/Middlewares/ST/usbx/common/core/src/ux_utility_pci_write.c **** 
  99:../STM32Cube_FW_N6/Middlewares/ST/usbx/common/core/src/ux_utility_pci_write.c ****         /* Write the address we need to write to.  */
 100:../STM32Cube_FW_N6/Middlewares/ST/usbx/common/core/src/ux_utility_pci_write.c ****         outpl(UX_PCI_CFG_CTRL_ADDRESS, cfg_ctrl);
 101:../STM32Cube_FW_N6/Middlewares/ST/usbx/common/core/src/ux_utility_pci_write.c **** 
 102:../STM32Cube_FW_N6/Middlewares/ST/usbx/common/core/src/ux_utility_pci_write.c ****         /* Write the 32 bit content of this address.  */
 103:../STM32Cube_FW_N6/Middlewares/ST/usbx/common/core/src/ux_utility_pci_write.c ****         outpl(UX_PCI_CFG_DATA_ADDRESS, value);
 104:../STM32Cube_FW_N6/Middlewares/ST/usbx/common/core/src/ux_utility_pci_write.c ****         break;
 105:../STM32Cube_FW_N6/Middlewares/ST/usbx/common/core/src/ux_utility_pci_write.c ****         
 106:../STM32Cube_FW_N6/Middlewares/ST/usbx/common/core/src/ux_utility_pci_write.c ****     case 16:
 107:../STM32Cube_FW_N6/Middlewares/ST/usbx/common/core/src/ux_utility_pci_write.c ****             
 108:../STM32Cube_FW_N6/Middlewares/ST/usbx/common/core/src/ux_utility_pci_write.c ****         /* Write the address we need to write to.  */
 109:../STM32Cube_FW_N6/Middlewares/ST/usbx/common/core/src/ux_utility_pci_write.c ****         outpl(UX_PCI_CFG_CTRL_ADDRESS, cfg_ctrl);
 110:../STM32Cube_FW_N6/Middlewares/ST/usbx/common/core/src/ux_utility_pci_write.c **** 
 111:../STM32Cube_FW_N6/Middlewares/ST/usbx/common/core/src/ux_utility_pci_write.c ****         /* Write the 16 bit content of this address.  */
 112:../STM32Cube_FW_N6/Middlewares/ST/usbx/common/core/src/ux_utility_pci_write.c ****         outpw(UX_PCI_CFG_DATA_ADDRESS + (offset & 2), (USHORT) value);
 113:../STM32Cube_FW_N6/Middlewares/ST/usbx/common/core/src/ux_utility_pci_write.c ****         break;
 114:../STM32Cube_FW_N6/Middlewares/ST/usbx/common/core/src/ux_utility_pci_write.c ****     
 115:../STM32Cube_FW_N6/Middlewares/ST/usbx/common/core/src/ux_utility_pci_write.c ****     case 8:
 116:../STM32Cube_FW_N6/Middlewares/ST/usbx/common/core/src/ux_utility_pci_write.c **** 
 117:../STM32Cube_FW_N6/Middlewares/ST/usbx/common/core/src/ux_utility_pci_write.c ****         /* Write the address we need to write to.  */
 118:../STM32Cube_FW_N6/Middlewares/ST/usbx/common/core/src/ux_utility_pci_write.c ****         outpl(UX_PCI_CFG_CTRL_ADDRESS, cfg_ctrl);
 119:../STM32Cube_FW_N6/Middlewares/ST/usbx/common/core/src/ux_utility_pci_write.c **** 
 120:../STM32Cube_FW_N6/Middlewares/ST/usbx/common/core/src/ux_utility_pci_write.c ****         /* Write the 8 bit content of this address */
 121:../STM32Cube_FW_N6/Middlewares/ST/usbx/common/core/src/ux_utility_pci_write.c ****         outpb(UX_PCI_CFG_DATA_ADDRESS + (offset & 3), (UCHAR) value);
 122:../STM32Cube_FW_N6/Middlewares/ST/usbx/common/core/src/ux_utility_pci_write.c ****         break;
 123:../STM32Cube_FW_N6/Middlewares/ST/usbx/common/core/src/ux_utility_pci_write.c **** 
 124:../STM32Cube_FW_N6/Middlewares/ST/usbx/common/core/src/ux_utility_pci_write.c ****     default:
 125:../STM32Cube_FW_N6/Middlewares/ST/usbx/common/core/src/ux_utility_pci_write.c ****             
 126:../STM32Cube_FW_N6/Middlewares/ST/usbx/common/core/src/ux_utility_pci_write.c ****         break;
 127:../STM32Cube_FW_N6/Middlewares/ST/usbx/common/core/src/ux_utility_pci_write.c ****     }
 128:../STM32Cube_FW_N6/Middlewares/ST/usbx/common/core/src/ux_utility_pci_write.c **** }
  88              		.loc 1 128 1 is_stmt 0 view .LVU19
  89 002c 30BD     		pop	{r4, r5, pc}
  90              	.LVL9:
  91              	.L3:
 100:../STM32Cube_FW_N6/Middlewares/ST/usbx/common/core/src/ux_utility_pci_write.c **** 
ARM GAS  /tmp/ccqCNxvK.s 			page 5


  92              		.loc 1 100 9 is_stmt 1 view .LVU20
  93 002e 0023     		movs	r3, #0
  94              	.LVL10:
 100:../STM32Cube_FW_N6/Middlewares/ST/usbx/common/core/src/ux_utility_pci_write.c **** 
  95              		.loc 1 100 9 is_stmt 0 view .LVU21
  96 0030 C3F8F80C 		str	r0, [r3, #3320]
  97              	.LVL11:
 103:../STM32Cube_FW_N6/Middlewares/ST/usbx/common/core/src/ux_utility_pci_write.c ****         break;
  98              		.loc 1 103 9 is_stmt 1 view .LVU22
  99 0034 C3F8FC4C 		str	r4, [r3, #3324]
 104:../STM32Cube_FW_N6/Middlewares/ST/usbx/common/core/src/ux_utility_pci_write.c ****         
 100              		.loc 1 104 9 view .LVU23
 101 0038 F8E7     		b	.L1
 102              	.LVL12:
 103              	.L2:
 109:../STM32Cube_FW_N6/Middlewares/ST/usbx/common/core/src/ux_utility_pci_write.c **** 
 104              		.loc 1 109 9 view .LVU24
 105 003a 0021     		movs	r1, #0
 112:../STM32Cube_FW_N6/Middlewares/ST/usbx/common/core/src/ux_utility_pci_write.c ****         break;
 106              		.loc 1 112 9 is_stmt 0 view .LVU25
 107 003c 03F00203 		and	r3, r3, #2
 108              	.LVL13:
 109:../STM32Cube_FW_N6/Middlewares/ST/usbx/common/core/src/ux_utility_pci_write.c **** 
 109              		.loc 1 109 9 view .LVU26
 110 0040 C1F8F80C 		str	r0, [r1, #3320]
 111              	.LVL14:
 112:../STM32Cube_FW_N6/Middlewares/ST/usbx/common/core/src/ux_utility_pci_write.c ****         break;
 112              		.loc 1 112 9 is_stmt 1 view .LVU27
 113 0044 A3F8FC4C 		strh	r4, [r3, #3324]	@ movhi
 113:../STM32Cube_FW_N6/Middlewares/ST/usbx/common/core/src/ux_utility_pci_write.c ****     
 114              		.loc 1 113 9 view .LVU28
 115 0048 F0E7     		b	.L1
 116              	.LVL15:
 117              	.L4:
 118:../STM32Cube_FW_N6/Middlewares/ST/usbx/common/core/src/ux_utility_pci_write.c **** 
 118              		.loc 1 118 9 view .LVU29
 119 004a 0021     		movs	r1, #0
 121:../STM32Cube_FW_N6/Middlewares/ST/usbx/common/core/src/ux_utility_pci_write.c ****         break;
 120              		.loc 1 121 9 is_stmt 0 view .LVU30
 121 004c 03F00303 		and	r3, r3, #3
 122              	.LVL16:
 118:../STM32Cube_FW_N6/Middlewares/ST/usbx/common/core/src/ux_utility_pci_write.c **** 
 123              		.loc 1 118 9 view .LVU31
 124 0050 C1F8F80C 		str	r0, [r1, #3320]
 125              	.LVL17:
 121:../STM32Cube_FW_N6/Middlewares/ST/usbx/common/core/src/ux_utility_pci_write.c ****         break;
 126              		.loc 1 121 9 is_stmt 1 view .LVU32
 127 0054 83F8FC4C 		strb	r4, [r3, #3324]
 122:../STM32Cube_FW_N6/Middlewares/ST/usbx/common/core/src/ux_utility_pci_write.c **** 
 128              		.loc 1 122 9 view .LVU33
 129              		.loc 1 128 1 is_stmt 0 view .LVU34
 130 0058 E8E7     		b	.L1
 131              		.cfi_endproc
 132              	.LFE3:
 134              		.text
 135              	.Letext0:
 136              		.file 2 "../STM32Cube_FW_N6/Middlewares/ST/usbx/ports/generic/inc/ux_port.h"
ARM GAS  /tmp/ccqCNxvK.s 			page 6


ARM GAS  /tmp/ccqCNxvK.s 			page 7


DEFINED SYMBOLS
                            *ABS*:00000000 ux_utility_pci_write.c
     /tmp/ccqCNxvK.s:26     .text._ux_utility_pci_write:00000000 $t
     /tmp/ccqCNxvK.s:32     .text._ux_utility_pci_write:00000000 _ux_utility_pci_write
                           .group:00000000 wm4.0.43608cab4da50df6ba2dfee95636a2b5
                           .group:00000000 wm4.ux_user.h.114.1a24f49ab4050de1d28cc96eed1ff7ed
                           .group:00000000 wm4._newlib_version.h.4.0eb654b64686e2bd29646258853f6c22
                           .group:00000000 wm4.newlib.h.27.b904f6f8971bd921b436e5701877de32
                           .group:00000000 wm4.ieeefp.h.77.99029d7b8220a2cd73dd257e2bbe825d
                           .group:00000000 wm4.features.h.22.4b93ad64e0d80833c46a20ecae380bb0
                           .group:00000000 wm4.config.h.224.10ee1ad185d877c6e334e6581faab44d
                           .group:00000000 wm4._ansi.h.31.de524f58584151836e90d8620a16f8e8
                           .group:00000000 wm4.stdio.h.31.7c0e28c411445f3f9c5b11accf882760
                           .group:00000000 wm4._default_types.h.6.959254cf5f09734ea7516c89e8bb21bd
                           .group:00000000 wm4.stddef.h.200.ddb4176c6beb7e84f4fc90107f5448c9
                           .group:00000000 wm4.cdefs.h.49.56fd742369e655e7e8a7e365e706e208
                           .group:00000000 wm4.stddef.h.39.1701de33ba710abd106167c689c6bc7c
                           .group:00000000 wm4.stdarg.h.34.3a23a216c0c293b3d2ea2e89281481e6
                           .group:00000000 wm4._types.h.20.dd0d04dca3800a0d2a6129b87f3adbb2
                           .group:00000000 wm4.stddef.h.173.4903093a50a8482cb062b176ea61fac3
                           .group:00000000 wm4._types.h.127.3bdfe3ff8ea2d0985b03d9cbe93480e3
                           .group:00000000 wm4.reent.h.18.25503cdc8b7e55dd0d6ea7b3e5af7a03
                           .group:00000000 wm4.lock.h.2.1461d1fff82dffe8bfddc23307f6484f
                           .group:00000000 wm4.reent.h.78.6d702f69a6d6435d2dbe915b10150b1a
                           .group:00000000 wm4.stdio.h.67.0cf8a9c281ab0b348aef5c02e7e48825
                           .group:00000000 wm4.stdio.h.2.4aa87247282eca6c8f36f9de33d8df1a
                           .group:00000000 wm4.stdio.h.87.a1e20d2651f9bfb66e51bfbe849db00a
                           .group:00000000 wm4.string.h.8.c4b8571ce60dff2817f43fec8b86aecd
                           .group:00000000 wm4.stddef.h.173.1cea4f16a943c8e875db6791959c3141
                           .group:00000000 wm4.string.h.177.59a005921fa78485abc80a0267de5752
                           .group:00000000 wm4._intsup.h.10.48bafbb683905c4daa4565a85aeeb264
                           .group:00000000 wm4._stdint.h.10.c24fa3af3bc1706662bb5593a907e841
                           .group:00000000 wm4.stdint.h.23.d53047a68f4a85177f80b422d52785ed
                           .group:00000000 wm4.ux_port.h.89.ae1c293eff4e595cc9e7c7479e747a1e
                           .group:00000000 wm4.ux_api.h.182.effb4a50eb02f24d1d1ad0a575ebbb0c
                           .group:00000000 wm4.ux_utility.h.69.3aa9e2ccef0e2a41f2d49c9bf54d4b38
                           .group:00000000 wm4.ux_system.h.63.42f8c9cffcc26e0f12b75458b49daed3

NO UNDEFINED SYMBOLS
